
openFile.elf:	file format elf32-mos

SYMBOL TABLE:
00000000 l    df *ABS*	00000000 zero-bss.c
00000000 l    df *ABS*	00000000 zero-zp-bss.c
00000000 l    df *ABS*	00000000 ld-temp.o
00000555 l     F .text	00000380 f256Init
00000030 l     O .zp.bss	00000007 kernelEventData
00001ec6 l     O .rodata	00000030 textColors
00000038 l     O .zp.bss	00000001 _col
00000039 l     O .zp.bss	00000001 _row
00000037 l     O .zp.bss	00000001 kernelError
000008db l     F .text	000002b9 f256main
00001e86 l     F .text	00000005 strlen
00000b94 l     F .text	000001b8 textPrint
00001afb l     F .text	000001d6 malloc
00000f3c l     F .text	00000bb3 printf
00001aef l     F .text	0000000c putchar
00001cd1 l     F .text	00000169 free
00000d4c l     F .text	0000000d __putchar
0000003a l     O .zp.bss	00000002 __putchar.s
00000d5e l     F .text	000000d1 _ZN12_GLOBAL__N_13putEcP6Status
00000e2f l     F .text	0000010d _ZN12_GLOBAL__N_112print_stringEPKcP6Status
00001f3a l     O .bss	00000001 _ZN12_GLOBAL__N_111initializedE
00000316 l     F .text	00000139 _ZN12_GLOBAL__N_19FreeChunk6insertEPvj
00001f3b l     O .bss	00000001 _ZN12_GLOBAL__N_19last_freeE
00001f3e l     O .bss	00000002 _ZN12_GLOBAL__N_19free_listE
00000450 l     F .text	000000df _ZN12_GLOBAL__N_19FreeChunk6removeEv
00001f3c l     O .bss	00000002 _ZN12_GLOBAL__N_19free_sizeE
000008d5 g     F .text	00000006 main
00000311 g       .text	00000000 __after_main
00000300 g       .text	00000000 __do_init_stack
00000308 g       .text	00000000 __do_zero_bss
0000052f g     F .text	00000013 __zero_bss
0000030b g       .text	00000000 __do_zero_zp_bss
00000542 g     F .text	00000013 __zero_zp_bss
00000d59 g     F .text	00000005 exit
00000314 g       .text	00000000 _fini
00001e8b g       .rodata	00000000 __set_v
00001e66  w    F .text	00000020 __memset
00001000  w      *ABS*	00000000 __heap_default_limit
00002040 g       .noinit	00000000 __heap_start
00001e3a  w    F .text	0000002c memcpy
00000010 g       *ABS*	00000000 __rc0
00000012 g       *ABS*	00000000 __rc2
00000014 g       *ABS*	00000000 __rc4
00000016 g       *ABS*	00000000 __rc6
00000018 g       *ABS*	00000000 __rc8
0000001a g       *ABS*	00000000 __rc10
0000001c g       *ABS*	00000000 __rc12
0000001e g       *ABS*	00000000 __rc14
00000020 g       *ABS*	00000000 __rc16
00000022 g       *ABS*	00000000 __rc18
00000024 g       *ABS*	00000000 __rc20
00000026 g       *ABS*	00000000 __rc22
00000028 g       *ABS*	00000000 __rc24
0000002a g       *ABS*	00000000 __rc26
0000002c g       *ABS*	00000000 __rc28
0000002e g       *ABS*	00000000 __rc30
0000002f g       *ABS*	00000000 __rc31
00000300 g       *ABS*	00000000 __f256_start
0000a000 g       *ABS*	00000000 __stack
0000a000 g       *ABS*	00000000 __SLOT_ADDR
0800a000 g       *ABS*	00000000 __block8_lma
00002000 g       *ABS*	00000000 __BLOCK_SIZE
0900a000 g       *ABS*	00000000 __block9_lma
0a00a000 g       *ABS*	00000000 __block10_lma
0b00a000 g       *ABS*	00000000 __block11_lma
0c00a000 g       *ABS*	00000000 __block12_lma
0d00a000 g       *ABS*	00000000 __block13_lma
0e00a000 g       *ABS*	00000000 __block14_lma
0f00a000 g       *ABS*	00000000 __block15_lma
1000a000 g       *ABS*	00000000 __block16_lma
1100a000 g       *ABS*	00000000 __block17_lma
1200a000 g       *ABS*	00000000 __block18_lma
1300a000 g       *ABS*	00000000 __block19_lma
1400a000 g       *ABS*	00000000 __block20_lma
1500a000 g       *ABS*	00000000 __block21_lma
1600a000 g       *ABS*	00000000 __block22_lma
1700a000 g       *ABS*	00000000 __block23_lma
00001f3a g       .bss	00000000 __bss_start
00000300 g       .text	00000000 _start
0000002d g       *ABS*	00000000 __rc29
0000002b g       *ABS*	00000000 __rc27
00000029 g       *ABS*	00000000 __rc25
00000027 g       *ABS*	00000000 __rc23
00000025 g       *ABS*	00000000 __rc21
00000023 g       *ABS*	00000000 __rc19
00000021 g       *ABS*	00000000 __rc17
0000001f g       *ABS*	00000000 __rc15
0000001d g       *ABS*	00000000 __rc13
0000001b g       *ABS*	00000000 __rc11
00000019 g       *ABS*	00000000 __rc9
00000017 g       *ABS*	00000000 __rc7
00000015 g       *ABS*	00000000 __rc5
00000013 g       *ABS*	00000000 __rc3
00000011 g       *ABS*	00000000 __rc1
00000030 g       .zp.data	00000000 __zp_data_start
00000300 g       *ABS*	00000000 __zp_data_load_start
00000000 g       *ABS*	00000000 __zp_data_size
00000030 g       .zp.bss	00000000 __zp_bss_start
0000000c g       *ABS*	00000000 __zp_bss_size
00000300 g       .text	00000000 _init
00001e8b g       .text	00000000 __init_array_start
00001e8b g       .text	00000000 __init_array_end
00001e8b g       .text	00000000 __fini_array_start
00001e8b g       .text	00000000 __fini_array_end
00001f3a g       .data	00000000 __data_start
00001f3a g       .data	00000000 __data_end
00001f3a g       *ABS*	00000000 __data_load_start
00000000 g       *ABS*	00000000 __data_size
00001f40 g       .bss	00000000 __bss_end
00000006 g       *ABS*	00000000 __bss_size
0000203f g       .noinit	00000000 end_block8
0000203f g       .noinit	00000000 end_block9
0000203f g       .noinit	00000000 end_block10
0000203f g       .noinit	00000000 end_block11
0000203f g       .noinit	00000000 end_block12
0000203f g       .noinit	00000000 end_block13
0000203f g       .noinit	00000000 end_block14
0000203f g       .noinit	00000000 end_block15
0000203f g       .noinit	00000000 end_block16
0000203f g       .noinit	00000000 end_block17
0000203f g       .noinit	00000000 end_block18
0000203f g       .noinit	00000000 end_block19
0000203f g       .noinit	00000000 end_block20
0000203f g       .noinit	00000000 end_block21
0000203f g       .noinit	00000000 end_block22
0000203f g       .noinit	00000000 end_block23

Disassembly of section .text:

00000300 <_start>:
     300: a9 00        	lda	#$0
     302: 85 10        	sta	$10                     ; 0x2010 <__BLOCK_SIZE+0x10>
     304: a9 a0        	lda	#$a0
     306: 85 11        	sta	$11                     ; 0x2011 <__BLOCK_SIZE+0x11>

00000308 <__do_zero_bss>:
     308: 20 2f 05     	jsr	$52f <__zero_bss>

0000030b <__do_zero_zp_bss>:
     30b: 20 42 05     	jsr	$542 <__zero_zp_bss>
     30e: 20 d5 08     	jsr	$8d5 <main>

00000311 <__after_main>:
     311: 4c 59 0d     	jmp	$d59 <exit>

00000314 <_fini>:
     314: 60           	rts
     315: 00           	brk

00000316 <_ZN12_GLOBAL__N_19FreeChunk6insertEPvj>:
     316: 85 16        	sta	$16                     ; 0x2016 <__BLOCK_SIZE+0x16>
     318: 29 fe        	and	#$fe
     31a: 85 14        	sta	$14                     ; 0x2014 <__BLOCK_SIZE+0x14>
     31c: a0 01        	ldy	#$1
     31e: 98           	tya
     31f: 32 12        	and	($12)                   ; 0x2012 <__BLOCK_SIZE+0x12>
     321: 05 14        	ora	$14                     ; 0x2014 <__BLOCK_SIZE+0x14>
     323: 92 12        	sta	($12)                   ; 0x2012 <__BLOCK_SIZE+0x12>
     325: a5 12        	lda	$12                     ; 0x2012 <__BLOCK_SIZE+0x12>
     327: 18           	clc
     328: 65 14        	adc	$14                     ; 0x2014 <__BLOCK_SIZE+0x14>
     32a: 85 15        	sta	$15                     ; 0x2015 <__BLOCK_SIZE+0x15>
     32c: 8a           	txa
     32d: 65 13        	adc	$13                     ; 0x2013 <__BLOCK_SIZE+0x13>
     32f: 85 14        	sta	$14                     ; 0x2014 <__BLOCK_SIZE+0x14>
     331: 18           	clc
     332: a5 15        	lda	$15                     ; 0x2015 <__BLOCK_SIZE+0x15>
     334: 69 fe        	adc	#$fe
     336: 85 17        	sta	$17                     ; 0x2017 <__BLOCK_SIZE+0x17>
     338: a5 14        	lda	$14                     ; 0x2014 <__BLOCK_SIZE+0x14>
     33a: 69 ff        	adc	#$ff
     33c: 85 15        	sta	$15                     ; 0x2015 <__BLOCK_SIZE+0x15>
     33e: a5 17        	lda	$17                     ; 0x2017 <__BLOCK_SIZE+0x17>
     340: 85 14        	sta	$14                     ; 0x2014 <__BLOCK_SIZE+0x14>
     342: 8a           	txa
     343: 91 12        	sta	($12),y                 ; 0x2012 <__BLOCK_SIZE+0x12>
     345: a5 16        	lda	$16                     ; 0x2016 <__BLOCK_SIZE+0x16>
     347: 92 14        	sta	($14)                   ; 0x2014 <__BLOCK_SIZE+0x14>
     349: 8a           	txa
     34a: 91 14        	sta	($14),y                 ; 0x2014 <__BLOCK_SIZE+0x14>
     34c: b1 12        	lda	($12),y                 ; 0x2012 <__BLOCK_SIZE+0x12>
     34e: 85 14        	sta	$14                     ; 0x2014 <__BLOCK_SIZE+0x14>
     350: a9 fe        	lda	#$fe
     352: 32 12        	and	($12)                   ; 0x2012 <__BLOCK_SIZE+0x12>
     354: 18           	clc
     355: 6d 3c 1f     	adc	$1f3c                   ; 0x1f3c <_ZN12_GLOBAL__N_19free_sizeE>
     358: aa           	tax
     359: a5 14        	lda	$14                     ; 0x2014 <__BLOCK_SIZE+0x14>
     35b: 6d 3d 1f     	adc	$1f3d                   ; 0x1f3d <_ZN12_GLOBAL__N_19free_sizeE+0x1>
     35e: a8           	tay
     35f: 18           	clc
     360: 8a           	txa
     361: 69 fe        	adc	#$fe
     363: aa           	tax
     364: 98           	tya
     365: 69 ff        	adc	#$ff
     367: 8e 3c 1f     	stx	$1f3c                   ; 0x1f3c <_ZN12_GLOBAL__N_19free_sizeE>
     36a: 8d 3d 1f     	sta	$1f3d                   ; 0x1f3d <_ZN12_GLOBAL__N_19free_sizeE+0x1>
     36d: ae 3e 1f     	ldx	$1f3e                   ; 0x1f3e <_ZN12_GLOBAL__N_19free_listE>
     370: 86 16        	stx	$16                     ; 0x2016 <__BLOCK_SIZE+0x16>
     372: ac 3f 1f     	ldy	$1f3f                   ; 0x1f3f <_ZN12_GLOBAL__N_19free_listE+0x1>
     375: a2 00        	ldx	#$0
     377: 86 14        	stx	$14                     ; 0x2014 <__BLOCK_SIZE+0x14>
     379: a2 00        	ldx	#$0
     37b: 86 15        	stx	$15                     ; 0x2015 <__BLOCK_SIZE+0x15>
     37d: 84 18        	sty	$18                     ; 0x2018 <__BLOCK_SIZE+0x18>
     37f: c4 15        	cpy	$15                     ; 0x2015 <__BLOCK_SIZE+0x15>
     381: d0 31        	bne	$3b4 <_ZN12_GLOBAL__N_19FreeChunk6insertEPvj+0x9e>
     383: a6 16        	ldx	$16                     ; 0x2016 <__BLOCK_SIZE+0x16>
     385: e4 14        	cpx	$14                     ; 0x2014 <__BLOCK_SIZE+0x14>
     387: d0 2b        	bne	$3b4 <_ZN12_GLOBAL__N_19FreeChunk6insertEPvj+0x9e>
     389: a0 02        	ldy	#$2
     38b: 18           	clc
     38c: a5 12        	lda	$12                     ; 0x2012 <__BLOCK_SIZE+0x12>
     38e: 69 02        	adc	#$2
     390: 85 14        	sta	$14                     ; 0x2014 <__BLOCK_SIZE+0x14>
     392: a5 12        	lda	$12                     ; 0x2012 <__BLOCK_SIZE+0x12>
     394: 91 12        	sta	($12),y                 ; 0x2012 <__BLOCK_SIZE+0x12>
     396: a5 13        	lda	$13                     ; 0x2013 <__BLOCK_SIZE+0x13>
     398: 69 00        	adc	#$0
     39a: 85 15        	sta	$15                     ; 0x2015 <__BLOCK_SIZE+0x15>
     39c: 88           	dey
     39d: a5 13        	lda	$13                     ; 0x2013 <__BLOCK_SIZE+0x13>
     39f: 91 14        	sta	($14),y                 ; 0x2014 <__BLOCK_SIZE+0x14>
     3a1: a2 3e        	ldx	#$3e
     3a3: 86 16        	stx	$16                     ; 0x2016 <__BLOCK_SIZE+0x16>
     3a5: a2 1f        	ldx	#$1f
     3a7: 86 17        	stx	$17                     ; 0x2017 <__BLOCK_SIZE+0x17>
     3a9: a6 12        	ldx	$12                     ; 0x2012 <__BLOCK_SIZE+0x12>
     3ab: 86 14        	stx	$14                     ; 0x2014 <__BLOCK_SIZE+0x14>
     3ad: a6 13        	ldx	$13                     ; 0x2013 <__BLOCK_SIZE+0x13>
     3af: 86 15        	stx	$15                     ; 0x2015 <__BLOCK_SIZE+0x15>
     3b1: 4c 2d 04     	jmp	$42d <_ZN12_GLOBAL__N_19FreeChunk6insertEPvj+0x117>
     3b4: a5 12        	lda	$12                     ; 0x2012 <__BLOCK_SIZE+0x12>
     3b6: 18           	clc
     3b7: 69 02        	adc	#$2
     3b9: 85 14        	sta	$14                     ; 0x2014 <__BLOCK_SIZE+0x14>
     3bb: a4 13        	ldy	$13                     ; 0x2013 <__BLOCK_SIZE+0x13>
     3bd: a6 16        	ldx	$16                     ; 0x2016 <__BLOCK_SIZE+0x16>
     3bf: 86 19        	stx	$19                     ; 0x2019 <__BLOCK_SIZE+0x19>
     3c1: a5 13        	lda	$13                     ; 0x2013 <__BLOCK_SIZE+0x13>
     3c3: 84 1a        	sty	$1a                     ; 0x201a <__BLOCK_SIZE+0x1a>
     3c5: 69 00        	adc	#$0
     3c7: a6 14        	ldx	$14                     ; 0x2014 <__BLOCK_SIZE+0x14>
     3c9: 86 16        	stx	$16                     ; 0x2016 <__BLOCK_SIZE+0x16>
     3cb: 85 17        	sta	$17                     ; 0x2017 <__BLOCK_SIZE+0x17>
     3cd: a6 19        	ldx	$19                     ; 0x2019 <__BLOCK_SIZE+0x19>
     3cf: 86 14        	stx	$14                     ; 0x2014 <__BLOCK_SIZE+0x14>
     3d1: a4 18        	ldy	$18                     ; 0x2018 <__BLOCK_SIZE+0x18>
     3d3: 84 15        	sty	$15                     ; 0x2015 <__BLOCK_SIZE+0x15>
     3d5: 84 1b        	sty	$1b                     ; 0x201b <__BLOCK_SIZE+0x1b>
     3d7: a0 02        	ldy	#$2
     3d9: a5 19        	lda	$19                     ; 0x2019 <__BLOCK_SIZE+0x19>
     3db: 91 12        	sta	($12),y                 ; 0x2012 <__BLOCK_SIZE+0x12>
     3dd: 88           	dey
     3de: a5 1b        	lda	$1b                     ; 0x201b <__BLOCK_SIZE+0x1b>
     3e0: 91 16        	sta	($16),y                 ; 0x2016 <__BLOCK_SIZE+0x16>
     3e2: 18           	clc
     3e3: a5 19        	lda	$19                     ; 0x2019 <__BLOCK_SIZE+0x19>
     3e5: 69 04        	adc	#$4
     3e7: 85 18        	sta	$18                     ; 0x2018 <__BLOCK_SIZE+0x18>
     3e9: a5 1b        	lda	$1b                     ; 0x201b <__BLOCK_SIZE+0x1b>
     3eb: 69 00        	adc	#$0
     3ed: 85 19        	sta	$19                     ; 0x2019 <__BLOCK_SIZE+0x19>
     3ef: a0 04        	ldy	#$4
     3f1: b1 14        	lda	($14),y                 ; 0x2014 <__BLOCK_SIZE+0x14>
     3f3: 85 14        	sta	$14                     ; 0x2014 <__BLOCK_SIZE+0x14>
     3f5: 85 1b        	sta	$1b                     ; 0x201b <__BLOCK_SIZE+0x1b>
     3f7: a0 01        	ldy	#$1
     3f9: b1 18        	lda	($18),y                 ; 0x2018 <__BLOCK_SIZE+0x18>
     3fb: 85 15        	sta	$15                     ; 0x2015 <__BLOCK_SIZE+0x15>
     3fd: a8           	tay
     3fe: 18           	clc
     3ff: a5 1b        	lda	$1b                     ; 0x201b <__BLOCK_SIZE+0x1b>
     401: 69 02        	adc	#$2
     403: 85 18        	sta	$18                     ; 0x2018 <__BLOCK_SIZE+0x18>
     405: 98           	tya
     406: 69 00        	adc	#$0
     408: 85 19        	sta	$19                     ; 0x2019 <__BLOCK_SIZE+0x19>
     40a: a5 12        	lda	$12                     ; 0x2012 <__BLOCK_SIZE+0x12>
     40c: a0 02        	ldy	#$2
     40e: 91 14        	sta	($14),y                 ; 0x2014 <__BLOCK_SIZE+0x14>
     410: a5 1a        	lda	$1a                     ; 0x201a <__BLOCK_SIZE+0x1a>
     412: 88           	dey
     413: 91 18        	sta	($18),y                 ; 0x2018 <__BLOCK_SIZE+0x18>
     415: c8           	iny
     416: b1 12        	lda	($12),y                 ; 0x2012 <__BLOCK_SIZE+0x12>
     418: 85 18        	sta	$18                     ; 0x2018 <__BLOCK_SIZE+0x18>
     41a: 88           	dey
     41b: b1 16        	lda	($16),y                 ; 0x2016 <__BLOCK_SIZE+0x16>
     41d: 85 16        	sta	$16                     ; 0x2016 <__BLOCK_SIZE+0x16>
     41f: 18           	clc
     420: a5 18        	lda	$18                     ; 0x2018 <__BLOCK_SIZE+0x18>
     422: 69 04        	adc	#$4
     424: aa           	tax
     425: a5 16        	lda	$16                     ; 0x2016 <__BLOCK_SIZE+0x16>
     427: 69 00        	adc	#$0
     429: 86 16        	stx	$16                     ; 0x2016 <__BLOCK_SIZE+0x16>
     42b: 85 17        	sta	$17                     ; 0x2017 <__BLOCK_SIZE+0x17>
     42d: 18           	clc
     42e: a5 12        	lda	$12                     ; 0x2012 <__BLOCK_SIZE+0x12>
     430: 69 04        	adc	#$4
     432: 85 18        	sta	$18                     ; 0x2018 <__BLOCK_SIZE+0x18>
     434: a5 13        	lda	$13                     ; 0x2013 <__BLOCK_SIZE+0x13>
     436: 69 00        	adc	#$0
     438: a0 04        	ldy	#$4
     43a: 85 19        	sta	$19                     ; 0x2019 <__BLOCK_SIZE+0x19>
     43c: a5 14        	lda	$14                     ; 0x2014 <__BLOCK_SIZE+0x14>
     43e: 91 12        	sta	($12),y                 ; 0x2012 <__BLOCK_SIZE+0x12>
     440: a5 15        	lda	$15                     ; 0x2015 <__BLOCK_SIZE+0x15>
     442: a0 01        	ldy	#$1
     444: 91 18        	sta	($18),y                 ; 0x2018 <__BLOCK_SIZE+0x18>
     446: a5 13        	lda	$13                     ; 0x2013 <__BLOCK_SIZE+0x13>
     448: 91 16        	sta	($16),y                 ; 0x2016 <__BLOCK_SIZE+0x16>
     44a: a5 12        	lda	$12                     ; 0x2012 <__BLOCK_SIZE+0x12>
     44c: 92 16        	sta	($16)                   ; 0x2016 <__BLOCK_SIZE+0x16>
     44e: 60           	rts
     44f: 00           	brk

00000450 <_ZN12_GLOBAL__N_19FreeChunk6removeEv>:
     450: a0 01        	ldy	#$1
     452: a9 fe        	lda	#$fe
     454: 32 12        	and	($12)                   ; 0x2012 <__BLOCK_SIZE+0x12>
     456: 85 14        	sta	$14                     ; 0x2014 <__BLOCK_SIZE+0x14>
     458: ad 3c 1f     	lda	$1f3c                   ; 0x1f3c <_ZN12_GLOBAL__N_19free_sizeE>
     45b: ae 3d 1f     	ldx	$1f3d                   ; 0x1f3d <_ZN12_GLOBAL__N_19free_sizeE+0x1>
     45e: 86 15        	stx	$15                     ; 0x2015 <__BLOCK_SIZE+0x15>
     460: 38           	sec
     461: e5 14        	sbc	$14                     ; 0x2014 <__BLOCK_SIZE+0x14>
     463: aa           	tax
     464: a5 15        	lda	$15                     ; 0x2015 <__BLOCK_SIZE+0x15>
     466: f1 12        	sbc	($12),y                 ; 0x2012 <__BLOCK_SIZE+0x12>
     468: 85 14        	sta	$14                     ; 0x2014 <__BLOCK_SIZE+0x14>
     46a: 18           	clc
     46b: 8a           	txa
     46c: 69 02        	adc	#$2
     46e: 85 15        	sta	$15                     ; 0x2015 <__BLOCK_SIZE+0x15>
     470: a5 14        	lda	$14                     ; 0x2014 <__BLOCK_SIZE+0x14>
     472: 69 00        	adc	#$0
     474: a6 15        	ldx	$15                     ; 0x2015 <__BLOCK_SIZE+0x15>
     476: 8e 3c 1f     	stx	$1f3c                   ; 0x1f3c <_ZN12_GLOBAL__N_19free_sizeE>
     479: 8d 3d 1f     	sta	$1f3d                   ; 0x1f3d <_ZN12_GLOBAL__N_19free_sizeE+0x1>
     47c: a5 12        	lda	$12                     ; 0x2012 <__BLOCK_SIZE+0x12>
     47e: 18           	clc
     47f: 69 02        	adc	#$2
     481: 85 14        	sta	$14                     ; 0x2014 <__BLOCK_SIZE+0x14>
     483: a5 13        	lda	$13                     ; 0x2013 <__BLOCK_SIZE+0x13>
     485: 69 00        	adc	#$0
     487: c8           	iny
     488: 85 15        	sta	$15                     ; 0x2015 <__BLOCK_SIZE+0x15>
     48a: b1 12        	lda	($12),y                 ; 0x2012 <__BLOCK_SIZE+0x12>
     48c: aa           	tax
     48d: 88           	dey
     48e: b1 14        	lda	($14),y                 ; 0x2014 <__BLOCK_SIZE+0x14>
     490: 85 19        	sta	$19                     ; 0x2019 <__BLOCK_SIZE+0x19>
     492: c5 13        	cmp	$13                     ; 0x2013 <__BLOCK_SIZE+0x13>
     494: d0 0f        	bne	$4a5 <_ZN12_GLOBAL__N_19FreeChunk6removeEv+0x55>
     496: e4 12        	cpx	$12                     ; 0x2012 <__BLOCK_SIZE+0x12>
     498: d0 0b        	bne	$4a5 <_ZN12_GLOBAL__N_19FreeChunk6removeEv+0x55>
     49a: a2 00        	ldx	#$0
     49c: 86 14        	stx	$14                     ; 0x2014 <__BLOCK_SIZE+0x14>
     49e: a2 00        	ldx	#$0
     4a0: 86 15        	stx	$15                     ; 0x2015 <__BLOCK_SIZE+0x15>
     4a2: 4c 24 05     	jmp	$524 <_ZN12_GLOBAL__N_19FreeChunk6removeEv+0xd4>
     4a5: 86 18        	stx	$18                     ; 0x2018 <__BLOCK_SIZE+0x18>
     4a7: a6 12        	ldx	$12                     ; 0x2012 <__BLOCK_SIZE+0x12>
     4a9: a5 12        	lda	$12                     ; 0x2012 <__BLOCK_SIZE+0x12>
     4ab: 86 1b        	stx	$1b                     ; 0x201b <__BLOCK_SIZE+0x1b>
     4ad: 18           	clc
     4ae: 69 04        	adc	#$4
     4b0: 85 14        	sta	$14                     ; 0x2014 <__BLOCK_SIZE+0x14>
     4b2: a5 13        	lda	$13                     ; 0x2013 <__BLOCK_SIZE+0x13>
     4b4: 69 00        	adc	#$0
     4b6: a0 04        	ldy	#$4
     4b8: 85 15        	sta	$15                     ; 0x2015 <__BLOCK_SIZE+0x15>
     4ba: b1 12        	lda	($12),y                 ; 0x2012 <__BLOCK_SIZE+0x12>
     4bc: 85 1c        	sta	$1c                     ; 0x201c <__BLOCK_SIZE+0x1c>
     4be: 18           	clc
     4bf: 69 02        	adc	#$2
     4c1: 85 16        	sta	$16                     ; 0x2016 <__BLOCK_SIZE+0x16>
     4c3: a0 01        	ldy	#$1
     4c5: b1 14        	lda	($14),y                 ; 0x2014 <__BLOCK_SIZE+0x14>
     4c7: aa           	tax
     4c8: 69 00        	adc	#$0
     4ca: a4 16        	ldy	$16                     ; 0x2016 <__BLOCK_SIZE+0x16>
     4cc: 84 14        	sty	$14                     ; 0x2014 <__BLOCK_SIZE+0x14>
     4ce: 85 15        	sta	$15                     ; 0x2015 <__BLOCK_SIZE+0x15>
     4d0: a4 1c        	ldy	$1c                     ; 0x201c <__BLOCK_SIZE+0x1c>
     4d2: 84 16        	sty	$16                     ; 0x2016 <__BLOCK_SIZE+0x16>
     4d4: 86 17        	stx	$17                     ; 0x2017 <__BLOCK_SIZE+0x17>
     4d6: a0 02        	ldy	#$2
     4d8: a5 18        	lda	$18                     ; 0x2018 <__BLOCK_SIZE+0x18>
     4da: 91 16        	sta	($16),y                 ; 0x2016 <__BLOCK_SIZE+0x16>
     4dc: a5 19        	lda	$19                     ; 0x2019 <__BLOCK_SIZE+0x19>
     4de: 88           	dey
     4df: 91 14        	sta	($14),y                 ; 0x2014 <__BLOCK_SIZE+0x14>
     4e1: 18           	clc
     4e2: a5 1b        	lda	$1b                     ; 0x201b <__BLOCK_SIZE+0x1b>
     4e4: 69 02        	adc	#$2
     4e6: 85 14        	sta	$14                     ; 0x2014 <__BLOCK_SIZE+0x14>
     4e8: a5 13        	lda	$13                     ; 0x2013 <__BLOCK_SIZE+0x13>
     4ea: 69 00        	adc	#$0
     4ec: 85 15        	sta	$15                     ; 0x2015 <__BLOCK_SIZE+0x15>
     4ee: c8           	iny
     4ef: b1 12        	lda	($12),y                 ; 0x2012 <__BLOCK_SIZE+0x12>
     4f1: 85 16        	sta	$16                     ; 0x2016 <__BLOCK_SIZE+0x16>
     4f3: 88           	dey
     4f4: b1 14        	lda	($14),y                 ; 0x2014 <__BLOCK_SIZE+0x14>
     4f6: a4 16        	ldy	$16                     ; 0x2016 <__BLOCK_SIZE+0x16>
     4f8: 84 14        	sty	$14                     ; 0x2014 <__BLOCK_SIZE+0x14>
     4fa: 85 15        	sta	$15                     ; 0x2015 <__BLOCK_SIZE+0x15>
     4fc: 85 17        	sta	$17                     ; 0x2017 <__BLOCK_SIZE+0x17>
     4fe: a0 04        	ldy	#$4
     500: a5 1c        	lda	$1c                     ; 0x201c <__BLOCK_SIZE+0x1c>
     502: 91 14        	sta	($14),y                 ; 0x2014 <__BLOCK_SIZE+0x14>
     504: 18           	clc
     505: a5 16        	lda	$16                     ; 0x2016 <__BLOCK_SIZE+0x16>
     507: 69 04        	adc	#$4
     509: 85 16        	sta	$16                     ; 0x2016 <__BLOCK_SIZE+0x16>
     50b: a5 17        	lda	$17                     ; 0x2017 <__BLOCK_SIZE+0x17>
     50d: 69 00        	adc	#$0
     50f: 85 17        	sta	$17                     ; 0x2017 <__BLOCK_SIZE+0x17>
     511: 8a           	txa
     512: a0 01        	ldy	#$1
     514: 91 16        	sta	($16),y                 ; 0x2016 <__BLOCK_SIZE+0x16>
     516: ae 3f 1f     	ldx	$1f3f                   ; 0x1f3f <_ZN12_GLOBAL__N_19free_listE+0x1>
     519: e4 13        	cpx	$13                     ; 0x2013 <__BLOCK_SIZE+0x13>
     51b: d0 11        	bne	$52e <_ZN12_GLOBAL__N_19FreeChunk6removeEv+0xde>
     51d: ae 3e 1f     	ldx	$1f3e                   ; 0x1f3e <_ZN12_GLOBAL__N_19free_listE>
     520: e4 12        	cpx	$12                     ; 0x2012 <__BLOCK_SIZE+0x12>
     522: d0 0a        	bne	$52e <_ZN12_GLOBAL__N_19FreeChunk6removeEv+0xde>
     524: a6 14        	ldx	$14                     ; 0x2014 <__BLOCK_SIZE+0x14>
     526: a4 15        	ldy	$15                     ; 0x2015 <__BLOCK_SIZE+0x15>
     528: 8e 3e 1f     	stx	$1f3e                   ; 0x1f3e <_ZN12_GLOBAL__N_19free_listE>
     52b: 8c 3f 1f     	sty	$1f3f                   ; 0x1f3f <_ZN12_GLOBAL__N_19free_listE+0x1>
     52e: 60           	rts

0000052f <__zero_bss>:
     52f: a2 06        	ldx	#$6
     531: a0 00        	ldy	#$0
     533: a9 3a        	lda	#$3a
     535: 85 12        	sta	$12                     ; 0x2012 <__BLOCK_SIZE+0x12>
     537: a9 1f        	lda	#$1f
     539: 85 13        	sta	$13                     ; 0x2013 <__BLOCK_SIZE+0x13>
     53b: a9 00        	lda	#$0
     53d: 84 14        	sty	$14                     ; 0x2014 <__BLOCK_SIZE+0x14>
     53f: 4c 66 1e     	jmp	$1e66 <__memset>

00000542 <__zero_zp_bss>:
     542: a2 0c        	ldx	#$c
     544: a0 00        	ldy	#$0
     546: a9 30        	lda	#$30
     548: 85 12        	sta	$12                     ; 0x2012 <__BLOCK_SIZE+0x12>
     54a: a9 00        	lda	#$0
     54c: 85 13        	sta	$13                     ; 0x2013 <__BLOCK_SIZE+0x13>
     54e: a9 00        	lda	#$0
     550: 84 14        	sty	$14                     ; 0x2014 <__BLOCK_SIZE+0x14>
     552: 4c 66 1e     	jmp	$1e66 <__memset>

00000555 <f256Init>:
     555: 64 14        	stz	$14                     ; 0x2014 <__BLOCK_SIZE+0x14>
     557: a2 00        	ldx	#$0
     559: 86 12        	stx	$12                     ; 0x2012 <__BLOCK_SIZE+0x12>
     55b: a2 c0        	ldx	#$c0
     55d: 86 13        	stx	$13                     ; 0x2013 <__BLOCK_SIZE+0x13>
     55f: 64 01        	stz	$1                      ; 0x2001 <__BLOCK_SIZE+0x1>
     561: a2 3f        	ldx	#$3f
     563: 8e 00 d0     	stx	$d000                   ; 0xd000 <__heap_start+0xafc0>
     566: a2 b3        	ldx	#$b3
     568: 86 00        	stx	$0                      ; 0x2000 <__BLOCK_SIZE>
     56a: 64 08        	stz	$8                      ; 0x2008 <__BLOCK_SIZE+0x8>
     56c: a2 01        	ldx	#$1
     56e: 86 09        	stx	$9                      ; 0x2009 <__BLOCK_SIZE+0x9>
     570: e8           	inx
     571: 86 0a        	stx	$a                      ; 0x200a <__BLOCK_SIZE+0xa>
     573: e8           	inx
     574: 86 0b        	stx	$b                      ; 0x200b <__BLOCK_SIZE+0xb>
     576: e8           	inx
     577: 86 0c        	stx	$c                      ; 0x200c <__BLOCK_SIZE+0xc>
     579: e8           	inx
     57a: 86 0d        	stx	$d                      ; 0x200d <__BLOCK_SIZE+0xd>
     57c: a2 30        	ldx	#$30
     57e: a0 00        	ldy	#$0
     580: 86 f0        	stx	$f0                     ; 0x20f0 <__heap_start+0xb0>
     582: 84 f1        	sty	$f1                     ; 0x20f1 <__heap_start+0xb1>
     584: a2 00        	ldx	#$0
     586: 86 18        	stx	$18                     ; 0x2018 <__BLOCK_SIZE+0x18>
     588: ca           	dex
     589: 86 19        	stx	$19                     ; 0x2019 <__BLOCK_SIZE+0x19>
     58b: 8a           	txa
     58c: 0a           	asl
     58d: 0a           	asl
     58e: 18           	clc
     58f: 69 d4        	adc	#$d4
     591: 85 1a        	sta	$1a                     ; 0x201a <__BLOCK_SIZE+0x1a>
     593: a0 00        	ldy	#$0
     595: 64 17        	stz	$17                     ; 0x2017 <__BLOCK_SIZE+0x17>
     597: 64 16        	stz	$16                     ; 0x2016 <__BLOCK_SIZE+0x16>
     599: a6 19        	ldx	$19                     ; 0x2019 <__BLOCK_SIZE+0x19>
     59b: e0 03        	cpx	#$3
     59d: a6 01        	ldx	$1                      ; 0x2001 <__BLOCK_SIZE+0x1>
     59f: 86 1c        	stx	$1c                     ; 0x201c <__BLOCK_SIZE+0x1c>
     5a1: a2 d0        	ldx	#$d0
     5a3: 84 1b        	sty	$1b                     ; 0x201b <__BLOCK_SIZE+0x1b>
     5a5: b0 02        	bcs	$5a9 <f256Init+0x54>
     5a7: a6 1a        	ldx	$1a                     ; 0x201a <__BLOCK_SIZE+0x1a>
     5a9: 86 15        	stx	$15                     ; 0x2015 <__BLOCK_SIZE+0x15>
     5ab: a5 17        	lda	$17                     ; 0x2017 <__BLOCK_SIZE+0x17>
     5ad: 18           	clc
     5ae: 65 14        	adc	$14                     ; 0x2014 <__BLOCK_SIZE+0x14>
     5b0: a8           	tay
     5b1: a6 17        	ldx	$17                     ; 0x2017 <__BLOCK_SIZE+0x17>
     5b3: a5 16        	lda	$16                     ; 0x2016 <__BLOCK_SIZE+0x16>
     5b5: 85 1d        	sta	$1d                     ; 0x201d <__BLOCK_SIZE+0x1d>
     5b7: a5 16        	lda	$16                     ; 0x2016 <__BLOCK_SIZE+0x16>
     5b9: 65 15        	adc	$15                     ; 0x2015 <__BLOCK_SIZE+0x15>
     5bb: 84 16        	sty	$16                     ; 0x2016 <__BLOCK_SIZE+0x16>
     5bd: a0 01        	ldy	#$1
     5bf: 84 01        	sty	$1                      ; 0x2001 <__BLOCK_SIZE+0x1>
     5c1: 85 17        	sta	$17                     ; 0x2017 <__BLOCK_SIZE+0x17>
     5c3: a5 1b        	lda	$1b                     ; 0x201b <__BLOCK_SIZE+0x1b>
     5c5: 92 16        	sta	($16)                   ; 0x2016 <__BLOCK_SIZE+0x16>
     5c7: 91 16        	sta	($16),y                 ; 0x2016 <__BLOCK_SIZE+0x16>
     5c9: c8           	iny
     5ca: 91 16        	sta	($16),y                 ; 0x2016 <__BLOCK_SIZE+0x16>
     5cc: 85 15        	sta	$15                     ; 0x2015 <__BLOCK_SIZE+0x15>
     5ce: c8           	iny
     5cf: a9 ff        	lda	#$ff
     5d1: 91 16        	sta	($16),y                 ; 0x2016 <__BLOCK_SIZE+0x16>
     5d3: 8a           	txa
     5d4: a6 1c        	ldx	$1c                     ; 0x201c <__BLOCK_SIZE+0x1c>
     5d6: 86 01        	stx	$1                      ; 0x2001 <__BLOCK_SIZE+0x1>
     5d8: 18           	clc
     5d9: 69 04        	adc	#$4
     5db: 85 17        	sta	$17                     ; 0x2017 <__BLOCK_SIZE+0x17>
     5dd: a5 1d        	lda	$1d                     ; 0x201d <__BLOCK_SIZE+0x1d>
     5df: 69 00        	adc	#$0
     5e1: e6 15        	inc	$15                     ; 0x2015 <__BLOCK_SIZE+0x15>
     5e3: a4 15        	ldy	$15                     ; 0x2015 <__BLOCK_SIZE+0x15>
     5e5: 85 16        	sta	$16                     ; 0x2016 <__BLOCK_SIZE+0x16>
     5e7: c9 04        	cmp	#$4
     5e9: f0 03        	beq	$5ee <f256Init+0x99>
     5eb: 4c 99 05     	jmp	$599 <f256Init+0x44>
     5ee: a5 17        	lda	$17                     ; 0x2017 <__BLOCK_SIZE+0x17>
     5f0: f0 03        	beq	$5f5 <f256Init+0xa0>
     5f2: 4c 99 05     	jmp	$599 <f256Init+0x44>
     5f5: a6 18        	ldx	$18                     ; 0x2018 <__BLOCK_SIZE+0x18>
     5f7: e8           	inx
     5f8: e0 04        	cpx	#$4
     5fa: f0 03        	beq	$5ff <f256Init+0xaa>
     5fc: 4c 86 05     	jmp	$586 <f256Init+0x31>
     5ff: ad 02 d0     	lda	$d002                   ; 0xd002 <__heap_start+0xafc2>
     602: 29 f0        	and	#$f0
     604: 8d 02 d0     	sta	$d002                   ; 0xd002 <__heap_start+0xafc2>
     607: ad 02 d0     	lda	$d002                   ; 0xd002 <__heap_start+0xafc2>
     60a: 29 0f        	and	#$f
     60c: 09 10        	ora	#$10
     60e: 8d 02 d0     	sta	$d002                   ; 0xd002 <__heap_start+0xafc2>
     611: a2 02        	ldx	#$2
     613: 8e 03 d0     	stx	$d003                   ; 0xd003 <__heap_start+0xafc3>
     616: ad 01 d0     	lda	$d001                   ; 0xd001 <__heap_start+0xafc1>
     619: 29 f9        	and	#$f9
     61b: 09 04        	ora	#$4
     61d: 8d 01 d0     	sta	$d001                   ; 0xd001 <__heap_start+0xafc1>
     620: 64 14        	stz	$14                     ; 0x2014 <__BLOCK_SIZE+0x14>
     622: 9c 10 d0     	stz	$d010                   ; 0xd010 <__heap_start+0xafd0>
     625: a2 00        	ldx	#$0
     627: 64 15        	stz	$15                     ; 0x2015 <__BLOCK_SIZE+0x15>
     629: 86 18        	stx	$18                     ; 0x2018 <__BLOCK_SIZE+0x18>
     62b: a4 18        	ldy	$18                     ; 0x2018 <__BLOCK_SIZE+0x18>
     62d: be c6 1e     	ldx	$1ec6,y                 ; 0x1ec6 <textColors>
     630: 86 19        	stx	$19                     ; 0x2019 <__BLOCK_SIZE+0x19>
     632: be c7 1e     	ldx	$1ec7,y                 ; 0x1ec7 <textColors+0x1>
     635: 86 1a        	stx	$1a                     ; 0x201a <__BLOCK_SIZE+0x1a>
     637: be c8 1e     	ldx	$1ec8,y                 ; 0x1ec8 <textColors+0x2>
     63a: 86 1b        	stx	$1b                     ; 0x201b <__BLOCK_SIZE+0x1b>
     63c: a6 15        	ldx	$15                     ; 0x2015 <__BLOCK_SIZE+0x15>
     63e: 8e 00 de     	stx	$de00                   ; 0xde00 <__heap_start+0xbdc0>
     641: 86 17        	stx	$17                     ; 0x2017 <__BLOCK_SIZE+0x17>
     643: 9c 01 de     	stz	$de01                   ; 0xde01 <__heap_start+0xbdc1>
     646: a2 04        	ldx	#$4
     648: 8e 02 de     	stx	$de02                   ; 0xde02 <__heap_start+0xbdc2>
     64b: 9c 03 de     	stz	$de03                   ; 0xde03 <__heap_start+0xbdc3>
     64e: ad 10 de     	lda	$de10                   ; 0xde10 <__heap_start+0xbdd0>
     651: ac 11 de     	ldy	$de11                   ; 0xde11 <__heap_start+0xbdd1>
     654: 84 15        	sty	$15                     ; 0x2015 <__BLOCK_SIZE+0x15>
     656: ac 12 de     	ldy	$de12                   ; 0xde12 <__heap_start+0xbdd2>
     659: ac 13 de     	ldy	$de13                   ; 0xde13 <__heap_start+0xbdd3>
     65c: 18           	clc
     65d: 65 14        	adc	$14                     ; 0x2014 <__BLOCK_SIZE+0x14>
     65f: 85 16        	sta	$16                     ; 0x2016 <__BLOCK_SIZE+0x16>
     661: a6 17        	ldx	$17                     ; 0x2017 <__BLOCK_SIZE+0x17>
     663: a9 d8        	lda	#$d8
     665: 65 15        	adc	$15                     ; 0x2015 <__BLOCK_SIZE+0x15>
     667: 85 17        	sta	$17                     ; 0x2017 <__BLOCK_SIZE+0x17>
     669: a5 1b        	lda	$1b                     ; 0x201b <__BLOCK_SIZE+0x1b>
     66b: 92 16        	sta	($16)                   ; 0x2016 <__BLOCK_SIZE+0x16>
     66d: a0 01        	ldy	#$1
     66f: a5 1a        	lda	$1a                     ; 0x201a <__BLOCK_SIZE+0x1a>
     671: 91 16        	sta	($16),y                 ; 0x2016 <__BLOCK_SIZE+0x16>
     673: c8           	iny
     674: a5 19        	lda	$19                     ; 0x2019 <__BLOCK_SIZE+0x19>
     676: 91 16        	sta	($16),y                 ; 0x2016 <__BLOCK_SIZE+0x16>
     678: c8           	iny
     679: a9 ff        	lda	#$ff
     67b: 91 16        	sta	($16),y                 ; 0x2016 <__BLOCK_SIZE+0x16>
     67d: 8e 00 de     	stx	$de00                   ; 0xde00 <__heap_start+0xbdc0>
     680: 9c 01 de     	stz	$de01                   ; 0xde01 <__heap_start+0xbdc1>
     683: c8           	iny
     684: 8c 02 de     	sty	$de02                   ; 0xde02 <__heap_start+0xbdc2>
     687: 9c 03 de     	stz	$de03                   ; 0xde03 <__heap_start+0xbdc3>
     68a: ad 10 de     	lda	$de10                   ; 0xde10 <__heap_start+0xbdd0>
     68d: 85 15        	sta	$15                     ; 0x2015 <__BLOCK_SIZE+0x15>
     68f: ad 11 de     	lda	$de11                   ; 0xde11 <__heap_start+0xbdd1>
     692: 85 16        	sta	$16                     ; 0x2016 <__BLOCK_SIZE+0x16>
     694: a9 40        	lda	#$40
     696: 18           	clc
     697: 65 15        	adc	$15                     ; 0x2015 <__BLOCK_SIZE+0x15>
     699: a8           	tay
     69a: a9 d8        	lda	#$d8
     69c: 65 16        	adc	$16                     ; 0x2016 <__BLOCK_SIZE+0x16>
     69e: 85 17        	sta	$17                     ; 0x2017 <__BLOCK_SIZE+0x17>
     6a0: 84 16        	sty	$16                     ; 0x2016 <__BLOCK_SIZE+0x16>
     6a2: ad 12 de     	lda	$de12                   ; 0xde12 <__heap_start+0xbdd2>
     6a5: ad 13 de     	lda	$de13                   ; 0xde13 <__heap_start+0xbdd3>
     6a8: a5 1b        	lda	$1b                     ; 0x201b <__BLOCK_SIZE+0x1b>
     6aa: 92 16        	sta	($16)                   ; 0x2016 <__BLOCK_SIZE+0x16>
     6ac: a5 1a        	lda	$1a                     ; 0x201a <__BLOCK_SIZE+0x1a>
     6ae: a0 01        	ldy	#$1
     6b0: 91 16        	sta	($16),y                 ; 0x2016 <__BLOCK_SIZE+0x16>
     6b2: a5 19        	lda	$19                     ; 0x2019 <__BLOCK_SIZE+0x19>
     6b4: c8           	iny
     6b5: 91 16        	sta	($16),y                 ; 0x2016 <__BLOCK_SIZE+0x16>
     6b7: c8           	iny
     6b8: a9 ff        	lda	#$ff
     6ba: 91 16        	sta	($16),y                 ; 0x2016 <__BLOCK_SIZE+0x16>
     6bc: e8           	inx
     6bd: 86 15        	stx	$15                     ; 0x2015 <__BLOCK_SIZE+0x15>
     6bf: 18           	clc
     6c0: a5 18        	lda	$18                     ; 0x2018 <__BLOCK_SIZE+0x18>
     6c2: 69 03        	adc	#$3
     6c4: aa           	tax
     6c5: c9 30        	cmp	#$30
     6c7: f0 03        	beq	$6cc <f256Init+0x177>
     6c9: 4c 29 06     	jmp	$629 <f256Init+0xd4>
     6cc: a6 01        	ldx	$1                      ; 0x2001 <__BLOCK_SIZE+0x1>
     6ce: 86 18        	stx	$18                     ; 0x2018 <__BLOCK_SIZE+0x18>
     6d0: a2 50        	ldx	#$50
     6d2: 8e 00 de     	stx	$de00                   ; 0xde00 <__heap_start+0xbdc0>
     6d5: 9c 01 de     	stz	$de01                   ; 0xde01 <__heap_start+0xbdc1>
     6d8: a2 1e        	ldx	#$1e
     6da: 8e 02 de     	stx	$de02                   ; 0xde02 <__heap_start+0xbdc2>
     6dd: 9c 03 de     	stz	$de03                   ; 0xde03 <__heap_start+0xbdc3>
     6e0: ae 10 de     	ldx	$de10                   ; 0xde10 <__heap_start+0xbdd0>
     6e3: ac 11 de     	ldy	$de11                   ; 0xde11 <__heap_start+0xbdd1>
     6e6: ad 12 de     	lda	$de12                   ; 0xde12 <__heap_start+0xbdd2>
     6e9: ad 13 de     	lda	$de13                   ; 0xde13 <__heap_start+0xbdd3>
     6ec: a9 02        	lda	#$2
     6ee: 85 01        	sta	$1                      ; 0x2001 <__BLOCK_SIZE+0x1>
     6f0: e0 01        	cpx	#$1
     6f2: 98           	tya
     6f3: e9 00        	sbc	#$0
     6f5: 50 02        	bvc	$6f9 <f256Init+0x1a4>
     6f7: 49 80        	eor	#$80
     6f9: c9 00        	cmp	#$0
     6fb: 30 48        	bmi	$745 <f256Init+0x1f0>
     6fd: a9 20        	lda	#$20
     6ff: 86 19        	stx	$19                     ; 0x2019 <__BLOCK_SIZE+0x19>
     701: 86 14        	stx	$14                     ; 0x2014 <__BLOCK_SIZE+0x14>
     703: 84 15        	sty	$15                     ; 0x2015 <__BLOCK_SIZE+0x15>
     705: a2 00        	ldx	#$0
     707: 86 16        	stx	$16                     ; 0x2016 <__BLOCK_SIZE+0x16>
     709: a2 c0        	ldx	#$c0
     70b: 86 17        	stx	$17                     ; 0x2017 <__BLOCK_SIZE+0x17>
     70d: 92 16        	sta	($16)                   ; 0x2016 <__BLOCK_SIZE+0x16>
     70f: e6 16        	inc	$16                     ; 0x2016 <__BLOCK_SIZE+0x16>
     711: d0 02        	bne	$715 <f256Init+0x1c0>
     713: e6 17        	inc	$17                     ; 0x2017 <__BLOCK_SIZE+0x17>
     715: a2 ff        	ldx	#$ff
     717: c6 14        	dec	$14                     ; 0x2014 <__BLOCK_SIZE+0x14>
     719: e4 14        	cpx	$14                     ; 0x2014 <__BLOCK_SIZE+0x14>
     71b: d0 02        	bne	$71f <f256Init+0x1ca>
     71d: c6 15        	dec	$15                     ; 0x2015 <__BLOCK_SIZE+0x15>
     71f: a6 15        	ldx	$15                     ; 0x2015 <__BLOCK_SIZE+0x15>
     721: d0 ea        	bne	$70d <f256Init+0x1b8>
     723: a6 14        	ldx	$14                     ; 0x2014 <__BLOCK_SIZE+0x14>
     725: d0 e6        	bne	$70d <f256Init+0x1b8>
     727: a2 03        	ldx	#$3
     729: 86 01        	stx	$1                      ; 0x2001 <__BLOCK_SIZE+0x1>
     72b: a6 19        	ldx	$19                     ; 0x2019 <__BLOCK_SIZE+0x19>
     72d: a9 f0        	lda	#$f0
     72f: 92 12        	sta	($12)                   ; 0x2012 <__BLOCK_SIZE+0x12>
     731: e6 12        	inc	$12                     ; 0x2012 <__BLOCK_SIZE+0x12>
     733: d0 02        	bne	$737 <f256Init+0x1e2>
     735: e6 13        	inc	$13                     ; 0x2013 <__BLOCK_SIZE+0x13>
     737: ca           	dex
     738: e0 ff        	cpx	#$ff
     73a: d0 01        	bne	$73d <f256Init+0x1e8>
     73c: 88           	dey
     73d: 98           	tya
     73e: d0 ed        	bne	$72d <f256Init+0x1d8>
     740: 8a           	txa
     741: d0 ea        	bne	$72d <f256Init+0x1d8>
     743: 80 04        	bra	$749 <f256Init+0x1f4>
     745: a2 03        	ldx	#$3
     747: 86 01        	stx	$1                      ; 0x2001 <__BLOCK_SIZE+0x1>
     749: a6 18        	ldx	$18                     ; 0x2018 <__BLOCK_SIZE+0x18>
     74b: 86 01        	stx	$1                      ; 0x2001 <__BLOCK_SIZE+0x1>
     74d: 64 38        	stz	$38                     ; 0x2038 <__BLOCK_SIZE+0x38>
     74f: 9c 14 d0     	stz	$d014                   ; 0xd014 <__heap_start+0xafd4>
     752: 9c 15 d0     	stz	$d015                   ; 0xd015 <__heap_start+0xafd5>
     755: 64 39        	stz	$39                     ; 0x2039 <__BLOCK_SIZE+0x39>
     757: 9c 16 d0     	stz	$d016                   ; 0xd016 <__heap_start+0xafd6>
     75a: 9c 17 d0     	stz	$d017                   ; 0xd017 <__heap_start+0xafd7>
     75d: a2 40        	ldx	#$40
     75f: 8e 00 de     	stx	$de00                   ; 0xde00 <__heap_start+0xbdc0>
     762: a2 01        	ldx	#$1
     764: 8e 01 de     	stx	$de01                   ; 0xde01 <__heap_start+0xbdc1>
     767: a2 f0        	ldx	#$f0
     769: 8e 02 de     	stx	$de02                   ; 0xde02 <__heap_start+0xbdc2>
     76c: 9c 03 de     	stz	$de03                   ; 0xde03 <__heap_start+0xbdc3>
     76f: ae 10 de     	ldx	$de10                   ; 0xde10 <__heap_start+0xbdd0>
     772: 86 17        	stx	$17                     ; 0x2017 <__BLOCK_SIZE+0x17>
     774: ae 11 de     	ldx	$de11                   ; 0xde11 <__heap_start+0xbdd1>
     777: 86 12        	stx	$12                     ; 0x2012 <__BLOCK_SIZE+0x12>
     779: ae 12 de     	ldx	$de12                   ; 0xde12 <__heap_start+0xbdd2>
     77c: 86 13        	stx	$13                     ; 0x2013 <__BLOCK_SIZE+0x13>
     77e: ae 13 de     	ldx	$de13                   ; 0xde13 <__heap_start+0xbdd3>
     781: 86 14        	stx	$14                     ; 0x2014 <__BLOCK_SIZE+0x14>
     783: a4 12        	ldy	$12                     ; 0x2012 <__BLOCK_SIZE+0x12>
     785: 84 15        	sty	$15                     ; 0x2015 <__BLOCK_SIZE+0x15>
     787: 06 15        	asl	$15                     ; 0x2015 <__BLOCK_SIZE+0x15>
     789: a5 13        	lda	$13                     ; 0x2013 <__BLOCK_SIZE+0x13>
     78b: 2a           	rol
     78c: 86 16        	stx	$16                     ; 0x2016 <__BLOCK_SIZE+0x16>
     78e: 26 16        	rol	$16                     ; 0x2016 <__BLOCK_SIZE+0x16>
     790: 06 15        	asl	$15                     ; 0x2015 <__BLOCK_SIZE+0x15>
     792: 2a           	rol
     793: 26 16        	rol	$16                     ; 0x2016 <__BLOCK_SIZE+0x16>
     795: 06 15        	asl	$15                     ; 0x2015 <__BLOCK_SIZE+0x15>
     797: 2a           	rol
     798: 26 16        	rol	$16                     ; 0x2016 <__BLOCK_SIZE+0x16>
     79a: 85 15        	sta	$15                     ; 0x2015 <__BLOCK_SIZE+0x15>
     79c: 8d 00 de     	sta	$de00                   ; 0xde00 <__heap_start+0xbdc0>
     79f: a5 16        	lda	$16                     ; 0x2016 <__BLOCK_SIZE+0x16>
     7a1: 8d 01 de     	sta	$de01                   ; 0xde01 <__heap_start+0xbdc1>
     7a4: 9c 02 de     	stz	$de02                   ; 0xde02 <__heap_start+0xbdc2>
     7a7: a2 20        	ldx	#$20
     7a9: 8e 03 de     	stx	$de03                   ; 0xde03 <__heap_start+0xbdc3>
     7ac: ae 10 de     	ldx	$de10                   ; 0xde10 <__heap_start+0xbdd0>
     7af: 86 16        	stx	$16                     ; 0x2016 <__BLOCK_SIZE+0x16>
     7b1: ae 11 de     	ldx	$de11                   ; 0xde11 <__heap_start+0xbdd1>
     7b4: 86 18        	stx	$18                     ; 0x2018 <__BLOCK_SIZE+0x18>
     7b6: ac 12 de     	ldy	$de12                   ; 0xde12 <__heap_start+0xbdd2>
     7b9: ae 13 de     	ldx	$de13                   ; 0xde13 <__heap_start+0xbdd3>
     7bc: e4 14        	cpx	$14                     ; 0x2014 <__BLOCK_SIZE+0x14>
     7be: d0 14        	bne	$7d4 <f256Init+0x27f>
     7c0: c4 13        	cpy	$13                     ; 0x2013 <__BLOCK_SIZE+0x13>
     7c2: d0 10        	bne	$7d4 <f256Init+0x27f>
     7c4: a6 18        	ldx	$18                     ; 0x2018 <__BLOCK_SIZE+0x18>
     7c6: e4 12        	cpx	$12                     ; 0x2012 <__BLOCK_SIZE+0x12>
     7c8: d0 0a        	bne	$7d4 <f256Init+0x27f>
     7ca: a6 16        	ldx	$16                     ; 0x2016 <__BLOCK_SIZE+0x16>
     7cc: e4 17        	cpx	$17                     ; 0x2017 <__BLOCK_SIZE+0x17>
     7ce: d0 04        	bne	$7d4 <f256Init+0x27f>
     7d0: a6 15        	ldx	$15                     ; 0x2015 <__BLOCK_SIZE+0x15>
     7d2: 80 06        	bra	$7da <f256Init+0x285>
     7d4: a6 15        	ldx	$15                     ; 0x2015 <__BLOCK_SIZE+0x15>
     7d6: e8           	inx
     7d7: d0 01        	bne	$7da <f256Init+0x285>
     7d9: 1a           	inc
     7da: 8e 00 de     	stx	$de00                   ; 0xde00 <__heap_start+0xbdc0>
     7dd: 8d 01 de     	sta	$de01                   ; 0xde01 <__heap_start+0xbdc1>
     7e0: 9c 02 de     	stz	$de02                   ; 0xde02 <__heap_start+0xbdc2>
     7e3: a2 20        	ldx	#$20
     7e5: 8e 03 de     	stx	$de03                   ; 0xde03 <__heap_start+0xbdc3>
     7e8: ae 10 de     	ldx	$de10                   ; 0xde10 <__heap_start+0xbdd0>
     7eb: 86 12        	stx	$12                     ; 0x2012 <__BLOCK_SIZE+0x12>
     7ed: ae 11 de     	ldx	$de11                   ; 0xde11 <__heap_start+0xbdd1>
     7f0: 86 13        	stx	$13                     ; 0x2013 <__BLOCK_SIZE+0x13>
     7f2: ae 12 de     	ldx	$de12                   ; 0xde12 <__heap_start+0xbdd2>
     7f5: 86 14        	stx	$14                     ; 0x2014 <__BLOCK_SIZE+0x14>
     7f7: a9 00        	lda	#$0
     7f9: 38           	sec
     7fa: e5 12        	sbc	$12                     ; 0x2012 <__BLOCK_SIZE+0x12>
     7fc: a8           	tay
     7fd: a9 00        	lda	#$0
     7ff: e5 13        	sbc	$13                     ; 0x2013 <__BLOCK_SIZE+0x13>
     801: 85 15        	sta	$15                     ; 0x2015 <__BLOCK_SIZE+0x15>
     803: a9 08        	lda	#$8
     805: e5 14        	sbc	$14                     ; 0x2014 <__BLOCK_SIZE+0x14>
     807: aa           	tax
     808: 98           	tya
     809: 84 17        	sty	$17                     ; 0x2017 <__BLOCK_SIZE+0x17>
     80b: 38           	sec
     80c: e5 12        	sbc	$12                     ; 0x2012 <__BLOCK_SIZE+0x12>
     80e: 85 16        	sta	$16                     ; 0x2016 <__BLOCK_SIZE+0x16>
     810: a5 15        	lda	$15                     ; 0x2015 <__BLOCK_SIZE+0x15>
     812: e5 13        	sbc	$13                     ; 0x2013 <__BLOCK_SIZE+0x13>
     814: 85 18        	sta	$18                     ; 0x2018 <__BLOCK_SIZE+0x18>
     816: 8a           	txa
     817: 86 19        	stx	$19                     ; 0x2019 <__BLOCK_SIZE+0x19>
     819: e5 14        	sbc	$14                     ; 0x2014 <__BLOCK_SIZE+0x14>
     81b: a8           	tay
     81c: 38           	sec
     81d: a5 16        	lda	$16                     ; 0x2016 <__BLOCK_SIZE+0x16>
     81f: e5 12        	sbc	$12                     ; 0x2012 <__BLOCK_SIZE+0x12>
     821: 85 12        	sta	$12                     ; 0x2012 <__BLOCK_SIZE+0x12>
     823: a5 18        	lda	$18                     ; 0x2018 <__BLOCK_SIZE+0x18>
     825: e5 13        	sbc	$13                     ; 0x2013 <__BLOCK_SIZE+0x13>
     827: 85 13        	sta	$13                     ; 0x2013 <__BLOCK_SIZE+0x13>
     829: 98           	tya
     82a: e5 14        	sbc	$14                     ; 0x2014 <__BLOCK_SIZE+0x14>
     82c: ae 13 de     	ldx	$de13                   ; 0xde13 <__heap_start+0xbdd3>
     82f: a6 17        	ldx	$17                     ; 0x2017 <__BLOCK_SIZE+0x17>
     831: 8e 01 d1     	stx	$d101                   ; 0xd101 <__heap_start+0xb0c1>
     834: a6 15        	ldx	$15                     ; 0x2015 <__BLOCK_SIZE+0x15>
     836: 8e 02 d1     	stx	$d102                   ; 0xd102 <__heap_start+0xb0c2>
     839: a6 19        	ldx	$19                     ; 0x2019 <__BLOCK_SIZE+0x19>
     83b: 8e 03 d1     	stx	$d103                   ; 0xd103 <__heap_start+0xb0c3>
     83e: a6 16        	ldx	$16                     ; 0x2016 <__BLOCK_SIZE+0x16>
     840: 8e 09 d1     	stx	$d109                   ; 0xd109 <__heap_start+0xb0c9>
     843: a6 18        	ldx	$18                     ; 0x2018 <__BLOCK_SIZE+0x18>
     845: 8e 0a d1     	stx	$d10a                   ; 0xd10a <__heap_start+0xb0ca>
     848: 8c 0b d1     	sty	$d10b                   ; 0xd10b <__heap_start+0xb0cb>
     84b: a6 12        	ldx	$12                     ; 0x2012 <__BLOCK_SIZE+0x12>
     84d: 8e 11 d1     	stx	$d111                   ; 0xd111 <__heap_start+0xb0d1>
     850: a6 13        	ldx	$13                     ; 0x2013 <__BLOCK_SIZE+0x13>
     852: 8e 12 d1     	stx	$d112                   ; 0xd112 <__heap_start+0xb0d2>
     855: 8d 13 d1     	sta	$d113                   ; 0xd113 <__heap_start+0xb0d3>
     858: 9c 00 d1     	stz	$d100                   ; 0xd100 <__heap_start+0xb0c0>
     85b: 9c 08 d1     	stz	$d108                   ; 0xd108 <__heap_start+0xb0c8>
     85e: 9c 10 d1     	stz	$d110                   ; 0xd110 <__heap_start+0xb0d0>
     861: a2 10        	ldx	#$10
     863: 8e 00 d2     	stx	$d200                   ; 0xd200 <__heap_start+0xb1c0>
     866: 8e 0c d2     	stx	$d20c                   ; 0xd20c <__heap_start+0xb1cc>
     869: 8e 18 d2     	stx	$d218                   ; 0xd218 <__heap_start+0xb1d8>
     86c: a0 d9        	ldy	#$d9
     86e: a2 40        	ldx	#$40
     870: 64 12        	stz	$12                     ; 0x2012 <__BLOCK_SIZE+0x12>
     872: 84 13        	sty	$13                     ; 0x2013 <__BLOCK_SIZE+0x13>
     874: a9 00        	lda	#$0
     876: 92 12        	sta	($12)                   ; 0x2012 <__BLOCK_SIZE+0x12>
     878: ca           	dex
     879: 18           	clc
     87a: a5 12        	lda	$12                     ; 0x2012 <__BLOCK_SIZE+0x12>
     87c: 69 08        	adc	#$8
     87e: 85 12        	sta	$12                     ; 0x2012 <__BLOCK_SIZE+0x12>
     880: 98           	tya
     881: 69 00        	adc	#$0
     883: a8           	tay
     884: 8a           	txa
     885: d0 eb        	bne	$872 <f256Init+0x31d>
     887: a2 3c        	ldx	#$3c
     889: a0 00        	ldy	#$0
     88b: 86 fb        	stx	$fb                     ; 0x20fb <__heap_start+0xbb>
     88d: 84 fc        	sty	$fc                     ; 0x20fc <__heap_start+0xbc>
     88f: a2 08        	ldx	#$8
     891: 86 fd        	stx	$fd                     ; 0x20fd <__heap_start+0xbd>
     893: a2 44        	ldx	#$44
     895: a0 00        	ldy	#$0
     897: 86 12        	stx	$12                     ; 0x2012 <__BLOCK_SIZE+0x12>
     899: 84 13        	sty	$13                     ; 0x2013 <__BLOCK_SIZE+0x13>
     89b: a2 37        	ldx	#$37
     89d: 86 14        	stx	$14                     ; 0x2014 <__BLOCK_SIZE+0x14>
     89f: a2 00        	ldx	#$0
     8a1: 86 15        	stx	$15                     ; 0x2015 <__BLOCK_SIZE+0x15>
     8a3: 20 dc ff     	jsr	$ffdc <__heap_start+0xdf9c>
     8a6: 92 12        	sta	($12)                   ; 0x2012 <__BLOCK_SIZE+0x12>
     8a8: a9 00        	lda	#$0
     8aa: 6a           	ror
     8ab: 85 14        	sta	$14                     ; 0x2014 <__BLOCK_SIZE+0x14>
     8ad: a6 42        	ldx	$42                     ; 0x2042 <__heap_start+0x2>
     8af: a4 43        	ldy	$43                     ; 0x2043 <__heap_start+0x3>
     8b1: 8e 00 de     	stx	$de00                   ; 0xde00 <__heap_start+0xbdc0>
     8b4: 9c 01 de     	stz	$de01                   ; 0xde01 <__heap_start+0xbdc1>
     8b7: 8c 02 de     	sty	$de02                   ; 0xde02 <__heap_start+0xbdc2>
     8ba: 9c 03 de     	stz	$de03                   ; 0xde03 <__heap_start+0xbdc3>
     8bd: ae 10 de     	ldx	$de10                   ; 0xde10 <__heap_start+0xbdd0>
     8c0: ac 11 de     	ldy	$de11                   ; 0xde11 <__heap_start+0xbdd1>
     8c3: ad 12 de     	lda	$de12                   ; 0xde12 <__heap_start+0xbdd2>
     8c6: ad 13 de     	lda	$de13                   ; 0xde13 <__heap_start+0xbdd3>
     8c9: 8e a4 d6     	stx	$d6a4                   ; 0xd6a4 <__heap_start+0xb664>
     8cc: 8c a5 d6     	sty	$d6a5                   ; 0xd6a5 <__heap_start+0xb665>
     8cf: a2 03        	ldx	#$3
     8d1: 8e a6 d6     	stx	$d6a6                   ; 0xd6a6 <__heap_start+0xb666>
     8d4: 60           	rts

000008d5 <main>:
     8d5: 20 55 05     	jsr	$555 <f256Init>
     8d8: 20 db 08     	jsr	$8db <f256main>

000008db <f256main>:
     8db: 18           	clc
     8dc: a5 10        	lda	$10                     ; 0x2010 <__BLOCK_SIZE+0x10>
     8de: 69 fe        	adc	#$fe
     8e0: 85 10        	sta	$10                     ; 0x2010 <__BLOCK_SIZE+0x10>
     8e2: a5 11        	lda	$11                     ; 0x2011 <__BLOCK_SIZE+0x11>
     8e4: 69 ff        	adc	#$ff
     8e6: 85 11        	sta	$11                     ; 0x2011 <__BLOCK_SIZE+0x11>
     8e8: 20 86 1e     	jsr	$1e86 <strlen>
     8eb: 85 15        	sta	$15                     ; 0x2015 <__BLOCK_SIZE+0x15>
     8ed: a2 23        	ldx	#$23
     8ef: 86 12        	stx	$12                     ; 0x2012 <__BLOCK_SIZE+0x12>
     8f1: a2 1f        	ldx	#$1f
     8f3: 86 13        	stx	$13                     ; 0x2013 <__BLOCK_SIZE+0x13>
     8f5: a2 00        	ldx	#$0
     8f7: 80 0a        	bra	$903 <f256main+0x28>
     8f9: a0 02        	ldy	#$2
     8fb: e6 12        	inc	$12                     ; 0x2012 <__BLOCK_SIZE+0x12>
     8fd: d0 02        	bne	$901 <f256main+0x26>
     8ff: e6 13        	inc	$13                     ; 0x2013 <__BLOCK_SIZE+0x13>
     901: 5a           	phy
     902: fa           	plx
     903: b2 12        	lda	($12)                   ; 0x2012 <__BLOCK_SIZE+0x12>
     905: c9 61        	cmp	#$61
     907: f0 f0        	beq	$8f9 <f256main+0x1e>
     909: 85 14        	sta	$14                     ; 0x2014 <__BLOCK_SIZE+0x14>
     90b: a0 01        	ldy	#$1
     90d: c9 77        	cmp	#$77
     90f: f0 ea        	beq	$8fb <f256main+0x20>
     911: a5 14        	lda	$14                     ; 0x2014 <__BLOCK_SIZE+0x14>
     913: f0 04        	beq	$919 <f256main+0x3e>
     915: da           	phx
     916: 7a           	ply
     917: 80 e2        	bra	$8fb <f256main+0x20>
     919: a0 12        	ldy	#$12
     91b: a9 1f        	lda	#$1f
     91d: 84 fb        	sty	$fb                     ; 0x20fb <__heap_start+0xbb>
     91f: 85 fc        	sta	$fc                     ; 0x20fc <__heap_start+0xbc>
     921: a5 15        	lda	$15                     ; 0x2015 <__BLOCK_SIZE+0x15>
     923: 85 fd        	sta	$fd                     ; 0x20fd <__heap_start+0xbd>
     925: 64 f3        	stz	$f3                     ; 0x20f3 <__heap_start+0xb3>
     927: 86 f5        	stx	$f5                     ; 0x20f5 <__heap_start+0xb5>
     929: a2 40        	ldx	#$40
     92b: a0 1f        	ldy	#$1f
     92d: 86 12        	stx	$12                     ; 0x2012 <__BLOCK_SIZE+0x12>
     92f: 84 13        	sty	$13                     ; 0x2013 <__BLOCK_SIZE+0x13>
     931: a2 37        	ldx	#$37
     933: 86 14        	stx	$14                     ; 0x2014 <__BLOCK_SIZE+0x14>
     935: a2 00        	ldx	#$0
     937: 86 15        	stx	$15                     ; 0x2015 <__BLOCK_SIZE+0x15>
     939: 20 5c ff     	jsr	$ff5c <__heap_start+0xdf1c>
     93c: 92 12        	sta	($12)                   ; 0x2012 <__BLOCK_SIZE+0x12>
     93e: a9 00        	lda	#$0
     940: 6a           	ror
     941: 85 14        	sta	$14                     ; 0x2014 <__BLOCK_SIZE+0x14>
     943: a6 37        	ldx	$37                     ; 0x2037 <__BLOCK_SIZE+0x37>
     945: f0 0d        	beq	$954 <f256main+0x79>
     947: a2 25        	ldx	#$25
     949: 86 12        	stx	$12                     ; 0x2012 <__BLOCK_SIZE+0x12>
     94b: a2 1f        	ldx	#$1f
     94d: 86 13        	stx	$13                     ; 0x2013 <__BLOCK_SIZE+0x13>
     94f: 20 94 0b     	jsr	$b94 <textPrint>
     952: 80 fe        	bra	$952 <f256main+0x77>
     954: ae 40 1f     	ldx	$1f40                   ; 0x1f40 <__data_load_start+0x6>
     957: 86 24        	stx	$24                     ; 0x2024 <__BLOCK_SIZE+0x24>
     959: 64 30        	stz	$30                     ; 0x2030 <__BLOCK_SIZE+0x30>
     95b: 20 00 ff     	jsr	$ff00 <__heap_start+0xdec0>
     95e: 92 12        	sta	($12)                   ; 0x2012 <__BLOCK_SIZE+0x12>
     960: a9 00        	lda	#$0
     962: 6a           	ror
     963: 85 14        	sta	$14                     ; 0x2014 <__BLOCK_SIZE+0x14>
     965: a6 30        	ldx	$30                     ; 0x2030 <__BLOCK_SIZE+0x30>
     967: e0 28        	cpx	#$28
     969: f0 dc        	beq	$947 <f256main+0x6c>
     96b: e0 38        	cpx	#$38
     96d: f0 d8        	beq	$947 <f256main+0x6c>
     96f: e0 2a        	cpx	#$2a
     971: d0 e6        	bne	$959 <f256main+0x7e>
     973: a9 01        	lda	#$1
     975: a2 00        	ldx	#$0
     977: 20 fb 1a     	jsr	$1afb <malloc>
     97a: a5 24        	lda	$24                     ; 0x2024 <__BLOCK_SIZE+0x24>
     97c: 92 12        	sta	($12)                   ; 0x2012 <__BLOCK_SIZE+0x12>
     97e: a6 12        	ldx	$12                     ; 0x2012 <__BLOCK_SIZE+0x12>
     980: 86 24        	stx	$24                     ; 0x2024 <__BLOCK_SIZE+0x24>
     982: a6 13        	ldx	$13                     ; 0x2013 <__BLOCK_SIZE+0x13>
     984: 86 25        	stx	$25                     ; 0x2025 <__BLOCK_SIZE+0x25>
     986: a2 f6        	ldx	#$f6
     988: 86 12        	stx	$12                     ; 0x2012 <__BLOCK_SIZE+0x12>
     98a: a2 1e        	ldx	#$1e
     98c: 86 13        	stx	$13                     ; 0x2013 <__BLOCK_SIZE+0x13>
     98e: 20 94 0b     	jsr	$b94 <textPrint>
     991: 64 16        	stz	$16                     ; 0x2016 <__BLOCK_SIZE+0x16>
     993: a6 24        	ldx	$24                     ; 0x2024 <__BLOCK_SIZE+0x24>
     995: 86 12        	stx	$12                     ; 0x2012 <__BLOCK_SIZE+0x12>
     997: a6 25        	ldx	$25                     ; 0x2025 <__BLOCK_SIZE+0x25>
     999: 86 13        	stx	$13                     ; 0x2013 <__BLOCK_SIZE+0x13>
     99b: a2 3c        	ldx	#$3c
     99d: a0 00        	ldy	#$0
     99f: a9 37        	lda	#$37
     9a1: 85 14        	sta	$14                     ; 0x2014 <__BLOCK_SIZE+0x14>
     9a3: a9 00        	lda	#$0
     9a5: 85 15        	sta	$15                     ; 0x2015 <__BLOCK_SIZE+0x15>
     9a7: 64 17        	stz	$17                     ; 0x2017 <__BLOCK_SIZE+0x17>
     9a9: b2 12        	lda	($12)                   ; 0x2012 <__BLOCK_SIZE+0x12>
     9ab: 85 18        	sta	$18                     ; 0x2018 <__BLOCK_SIZE+0x18>
     9ad: a9 40        	lda	#$40
     9af: 18           	clc
     9b0: 65 16        	adc	$16                     ; 0x2016 <__BLOCK_SIZE+0x16>
     9b2: 85 1a        	sta	$1a                     ; 0x201a <__BLOCK_SIZE+0x1a>
     9b4: a9 1f        	lda	#$1f
     9b6: 65 17        	adc	$17                     ; 0x2017 <__BLOCK_SIZE+0x17>
     9b8: e6 18        	inc	$18                     ; 0x2018 <__BLOCK_SIZE+0x18>
     9ba: c6 18        	dec	$18                     ; 0x2018 <__BLOCK_SIZE+0x18>
     9bc: d0 03        	bne	$9c1 <f256main+0xe6>
     9be: 4c 2b 0a     	jmp	$a2b <f256main+0x150>
     9c1: 85 1b        	sta	$1b                     ; 0x201b <__BLOCK_SIZE+0x1b>
     9c3: a5 16        	lda	$16                     ; 0x2016 <__BLOCK_SIZE+0x16>
     9c5: 49 ff        	eor	#$ff
     9c7: 85 19        	sta	$19                     ; 0x2019 <__BLOCK_SIZE+0x19>
     9c9: a5 18        	lda	$18                     ; 0x2018 <__BLOCK_SIZE+0x18>
     9cb: 85 f3        	sta	$f3                     ; 0x20f3 <__heap_start+0xb3>
     9cd: a5 19        	lda	$19                     ; 0x2019 <__BLOCK_SIZE+0x19>
     9cf: 85 f4        	sta	$f4                     ; 0x20f4 <__heap_start+0xb4>
     9d1: 86 18        	stx	$18                     ; 0x2018 <__BLOCK_SIZE+0x18>
     9d3: 84 19        	sty	$19                     ; 0x2019 <__BLOCK_SIZE+0x19>
     9d5: 20 60 ff     	jsr	$ff60 <__heap_start+0xdf20>
     9d8: 92 18        	sta	($18)                   ; 0x2018 <__BLOCK_SIZE+0x18>
     9da: a9 00        	lda	#$0
     9dc: 6a           	ror
     9dd: 85 14        	sta	$14                     ; 0x2014 <__BLOCK_SIZE+0x14>
     9df: a5 37        	lda	$37                     ; 0x2037 <__BLOCK_SIZE+0x37>
     9e1: f0 03        	beq	$9e6 <f256main+0x10b>
     9e3: 4c 8c 0a     	jmp	$a8c <f256main+0x1b1>
     9e6: 64 30        	stz	$30                     ; 0x2030 <__BLOCK_SIZE+0x30>
     9e8: 86 18        	stx	$18                     ; 0x2018 <__BLOCK_SIZE+0x18>
     9ea: 84 19        	sty	$19                     ; 0x2019 <__BLOCK_SIZE+0x19>
     9ec: 20 00 ff     	jsr	$ff00 <__heap_start+0xdec0>
     9ef: 92 18        	sta	($18)                   ; 0x2018 <__BLOCK_SIZE+0x18>
     9f1: a9 00        	lda	#$0
     9f3: 6a           	ror
     9f4: 85 14        	sta	$14                     ; 0x2014 <__BLOCK_SIZE+0x14>
     9f6: a5 30        	lda	$30                     ; 0x2030 <__BLOCK_SIZE+0x30>
     9f8: c9 38        	cmp	#$38
     9fa: d0 03        	bne	$9ff <f256main+0x124>
     9fc: 4c 8c 0a     	jmp	$a8c <f256main+0x1b1>
     9ff: c9 30        	cmp	#$30
     a01: d0 03        	bne	$a06 <f256main+0x12b>
     a03: 4c 8c 0a     	jmp	$a8c <f256main+0x1b1>
     a06: c9 2c        	cmp	#$2c
     a08: d0 dc        	bne	$9e6 <f256main+0x10b>
     a0a: a5 1a        	lda	$1a                     ; 0x201a <__BLOCK_SIZE+0x1a>
     a0c: 85 fb        	sta	$fb                     ; 0x20fb <__heap_start+0xbb>
     a0e: a5 1b        	lda	$1b                     ; 0x201b <__BLOCK_SIZE+0x1b>
     a10: 85 fc        	sta	$fc                     ; 0x20fc <__heap_start+0xbc>
     a12: a5 36        	lda	$36                     ; 0x2036 <__BLOCK_SIZE+0x36>
     a14: 85 fd        	sta	$fd                     ; 0x20fd <__heap_start+0xbd>
     a16: 86 18        	stx	$18                     ; 0x2018 <__BLOCK_SIZE+0x18>
     a18: 84 19        	sty	$19                     ; 0x2019 <__BLOCK_SIZE+0x19>
     a1a: 20 04 ff     	jsr	$ff04 <__heap_start+0xdec4>
     a1d: 92 18        	sta	($18)                   ; 0x2018 <__BLOCK_SIZE+0x18>
     a1f: a9 00        	lda	#$0
     a21: 6a           	ror
     a22: 85 14        	sta	$14                     ; 0x2014 <__BLOCK_SIZE+0x14>
     a24: a5 36        	lda	$36                     ; 0x2036 <__BLOCK_SIZE+0x36>
     a26: d0 3d        	bne	$a65 <f256main+0x18a>
     a28: 4c 8c 0b     	jmp	$b8c <f256main+0x2b1>
     a2b: 5a           	phy
     a2c: a4 1a        	ldy	$1a                     ; 0x201a <__BLOCK_SIZE+0x1a>
     a2e: 84 18        	sty	$18                     ; 0x2018 <__BLOCK_SIZE+0x18>
     a30: 7a           	ply
     a31: 85 19        	sta	$19                     ; 0x2019 <__BLOCK_SIZE+0x19>
     a33: 80 0a        	bra	$a3f <f256main+0x164>
     a35: a5 30        	lda	$30                     ; 0x2030 <__BLOCK_SIZE+0x30>
     a37: c9 08        	cmp	#$8
     a39: d0 04        	bne	$a3f <f256main+0x164>
     a3b: a5 36        	lda	$36                     ; 0x2036 <__BLOCK_SIZE+0x36>
     a3d: f0 20        	beq	$a5f <f256main+0x184>
     a3f: 64 30        	stz	$30                     ; 0x2030 <__BLOCK_SIZE+0x30>
     a41: 86 1a        	stx	$1a                     ; 0x201a <__BLOCK_SIZE+0x1a>
     a43: 84 1b        	sty	$1b                     ; 0x201b <__BLOCK_SIZE+0x1b>
     a45: 20 00 ff     	jsr	$ff00 <__heap_start+0xdec0>
     a48: 92 1a        	sta	($1a)                   ; 0x201a <__BLOCK_SIZE+0x1a>
     a4a: a9 00        	lda	#$0
     a4c: 6a           	ror
     a4d: 85 14        	sta	$14                     ; 0x2014 <__BLOCK_SIZE+0x14>
     a4f: a5 37        	lda	$37                     ; 0x2037 <__BLOCK_SIZE+0x37>
     a51: f0 e2        	beq	$a35 <f256main+0x15a>
     a53: 20 0c ff     	jsr	$ff0c <__heap_start+0xdecc>
     a56: 92 1a        	sta	($1a)                   ; 0x201a <__BLOCK_SIZE+0x1a>
     a58: a9 00        	lda	#$0
     a5a: 6a           	ror
     a5b: 85 14        	sta	$14                     ; 0x2014 <__BLOCK_SIZE+0x14>
     a5d: 80 e0        	bra	$a3f <f256main+0x164>
     a5f: a5 35        	lda	$35                     ; 0x2035 <__BLOCK_SIZE+0x35>
     a61: 92 18        	sta	($18)                   ; 0x2018 <__BLOCK_SIZE+0x18>
     a63: a9 01        	lda	#$1
     a65: 85 3d        	sta	$3d                     ; 0x203d <__BLOCK_SIZE+0x3d>
     a67: a9 00        	lda	#$0
     a69: 85 3f        	sta	$3f                     ; 0x203f <end_block9>
     a6b: 18           	clc
     a6c: a5 3d        	lda	$3d                     ; 0x203d <__BLOCK_SIZE+0x3d>
     a6e: 65 16        	adc	$16                     ; 0x2016 <__BLOCK_SIZE+0x16>
     a70: 85 16        	sta	$16                     ; 0x2016 <__BLOCK_SIZE+0x16>
     a72: a5 3f        	lda	$3f                     ; 0x203f <end_block9>
     a74: 65 17        	adc	$17                     ; 0x2017 <__BLOCK_SIZE+0x17>
     a76: d0 0b        	bne	$a83 <f256main+0x1a8>
     a78: 85 17        	sta	$17                     ; 0x2017 <__BLOCK_SIZE+0x17>
     a7a: a5 16        	lda	$16                     ; 0x2016 <__BLOCK_SIZE+0x16>
     a7c: c9 ff        	cmp	#$ff
     a7e: b0 0c        	bcs	$a8c <f256main+0x1b1>
     a80: 4c a9 09     	jmp	$9a9 <f256main+0xce>
     a83: c9 00        	cmp	#$0
     a85: 85 17        	sta	$17                     ; 0x2017 <__BLOCK_SIZE+0x17>
     a87: b0 03        	bcs	$a8c <f256main+0x1b1>
     a89: 4c a9 09     	jmp	$9a9 <f256main+0xce>
     a8c: a6 12        	ldx	$12                     ; 0x2012 <__BLOCK_SIZE+0x12>
     a8e: 86 3d        	stx	$3d                     ; 0x203d <__BLOCK_SIZE+0x3d>
     a90: a6 13        	ldx	$13                     ; 0x2013 <__BLOCK_SIZE+0x13>
     a92: 86 3e        	stx	$3e                     ; 0x203e <__BLOCK_SIZE+0x3e>
     a94: a0 00        	ldy	#$0
     a96: a2 01        	ldx	#$1
     a98: b9 40 1f     	lda	$1f40,y                 ; 0x1f40 <__data_load_start+0x6>
     a9b: 92 10        	sta	($10)                   ; 0x2010 <__BLOCK_SIZE+0x10>
     a9d: 84 25        	sty	$25                     ; 0x2025 <__BLOCK_SIZE+0x25>
     a9f: a0 01        	ldy	#$1
     aa1: a9 00        	lda	#$0
     aa3: 91 10        	sta	($10),y                 ; 0x2010 <__BLOCK_SIZE+0x10>
     aa5: 86 24        	stx	$24                     ; 0x2024 <__BLOCK_SIZE+0x24>
     aa7: 20 3c 0f     	jsr	$f3c <printf>
     aaa: a6 24        	ldx	$24                     ; 0x2024 <__BLOCK_SIZE+0x24>
     aac: a5 24        	lda	$24                     ; 0x2024 <__BLOCK_SIZE+0x24>
     aae: 29 0f        	and	#$f
     ab0: d0 09        	bne	$abb <f256main+0x1e0>
     ab2: a2 00        	ldx	#$0
     ab4: a9 0a        	lda	#$a
     ab6: 20 ef 1a     	jsr	$1aef <putchar>
     ab9: a6 24        	ldx	$24                     ; 0x2024 <__BLOCK_SIZE+0x24>
     abb: e6 25        	inc	$25                     ; 0x2025 <__BLOCK_SIZE+0x25>
     abd: e8           	inx
     abe: a4 25        	ldy	$25                     ; 0x2025 <__BLOCK_SIZE+0x25>
     ac0: 8a           	txa
     ac1: d0 d5        	bne	$a98 <f256main+0x1bd>
     ac3: a2 02        	ldx	#$2
     ac5: 86 01        	stx	$1                      ; 0x2001 <__BLOCK_SIZE+0x1>
     ac7: ca           	dex
     ac8: a0 00        	ldy	#$0
     aca: a5 3d        	lda	$3d                     ; 0x203d <__BLOCK_SIZE+0x3d>
     acc: 85 12        	sta	$12                     ; 0x2012 <__BLOCK_SIZE+0x12>
     ace: a5 3e        	lda	$3e                     ; 0x203e <__BLOCK_SIZE+0x3e>
     ad0: 85 13        	sta	$13                     ; 0x2013 <__BLOCK_SIZE+0x13>
     ad2: 4c 23 0b     	jmp	$b23 <f256main+0x248>
     ad5: 98           	tya
     ad6: 64 14        	stz	$14                     ; 0x2014 <__BLOCK_SIZE+0x14>
     ad8: 85 15        	sta	$15                     ; 0x2015 <__BLOCK_SIZE+0x15>
     ada: 8a           	txa
     adb: 0a           	asl
     adc: 64 16        	stz	$16                     ; 0x2016 <__BLOCK_SIZE+0x16>
     ade: 26 16        	rol	$16                     ; 0x2016 <__BLOCK_SIZE+0x16>
     ae0: 0a           	asl
     ae1: 26 16        	rol	$16                     ; 0x2016 <__BLOCK_SIZE+0x16>
     ae3: 0a           	asl
     ae4: 26 16        	rol	$16                     ; 0x2016 <__BLOCK_SIZE+0x16>
     ae6: 0a           	asl
     ae7: 85 17        	sta	$17                     ; 0x2017 <__BLOCK_SIZE+0x17>
     ae9: 26 16        	rol	$16                     ; 0x2016 <__BLOCK_SIZE+0x16>
     aeb: 0a           	asl
     aec: 85 18        	sta	$18                     ; 0x2018 <__BLOCK_SIZE+0x18>
     aee: a5 16        	lda	$16                     ; 0x2016 <__BLOCK_SIZE+0x16>
     af0: 2a           	rol
     af1: 06 18        	asl	$18                     ; 0x2018 <__BLOCK_SIZE+0x18>
     af3: 2a           	rol
     af4: 85 19        	sta	$19                     ; 0x2019 <__BLOCK_SIZE+0x19>
     af6: a5 18        	lda	$18                     ; 0x2018 <__BLOCK_SIZE+0x18>
     af8: 18           	clc
     af9: 65 17        	adc	$17                     ; 0x2017 <__BLOCK_SIZE+0x17>
     afb: 85 17        	sta	$17                     ; 0x2017 <__BLOCK_SIZE+0x17>
     afd: a5 19        	lda	$19                     ; 0x2019 <__BLOCK_SIZE+0x19>
     aff: 65 16        	adc	$16                     ; 0x2016 <__BLOCK_SIZE+0x16>
     b01: 85 16        	sta	$16                     ; 0x2016 <__BLOCK_SIZE+0x16>
     b03: a5 17        	lda	$17                     ; 0x2017 <__BLOCK_SIZE+0x17>
     b05: 18           	clc
     b06: 65 15        	adc	$15                     ; 0x2015 <__BLOCK_SIZE+0x15>
     b08: 85 15        	sta	$15                     ; 0x2015 <__BLOCK_SIZE+0x15>
     b0a: a5 16        	lda	$16                     ; 0x2016 <__BLOCK_SIZE+0x16>
     b0c: 65 14        	adc	$14                     ; 0x2014 <__BLOCK_SIZE+0x14>
     b0e: 85 16        	sta	$16                     ; 0x2016 <__BLOCK_SIZE+0x16>
     b10: 18           	clc
     b11: a5 15        	lda	$15                     ; 0x2015 <__BLOCK_SIZE+0x15>
     b13: 69 32        	adc	#$32
     b15: 85 14        	sta	$14                     ; 0x2014 <__BLOCK_SIZE+0x14>
     b17: a5 16        	lda	$16                     ; 0x2016 <__BLOCK_SIZE+0x16>
     b19: 69 c0        	adc	#$c0
     b1b: 85 15        	sta	$15                     ; 0x2015 <__BLOCK_SIZE+0x15>
     b1d: b9 40 1f     	lda	$1f40,y                 ; 0x1f40 <__data_load_start+0x6>
     b20: 92 14        	sta	($14)                   ; 0x2014 <__BLOCK_SIZE+0x14>
     b22: c8           	iny
     b23: 98           	tya
     b24: d0 03        	bne	$b29 <f256main+0x24e>
     b26: 4c d5 0a     	jmp	$ad5 <f256main+0x1fa>
     b29: c0 ff        	cpy	#$ff
     b2b: f0 0e        	beq	$b3b <f256main+0x260>
     b2d: 98           	tya
     b2e: 29 0f        	and	#$f
     b30: f0 03        	beq	$b35 <f256main+0x25a>
     b32: 4c d6 0a     	jmp	$ad6 <f256main+0x1fb>
     b35: e8           	inx
     b36: a9 00        	lda	#$0
     b38: 4c d6 0a     	jmp	$ad6 <f256main+0x1fb>
     b3b: a2 01        	ldx	#$1
     b3d: 86 01        	stx	$1                      ; 0x2001 <__BLOCK_SIZE+0x1>
     b3f: b2 12        	lda	($12)                   ; 0x2012 <__BLOCK_SIZE+0x12>
     b41: 85 f3        	sta	$f3                     ; 0x20f3 <__heap_start+0xb3>
     b43: a2 3c        	ldx	#$3c
     b45: a0 00        	ldy	#$0
     b47: 86 24        	stx	$24                     ; 0x2024 <__BLOCK_SIZE+0x24>
     b49: 84 25        	sty	$25                     ; 0x2025 <__BLOCK_SIZE+0x25>
     b4b: a2 37        	ldx	#$37
     b4d: 86 14        	stx	$14                     ; 0x2014 <__BLOCK_SIZE+0x14>
     b4f: a2 00        	ldx	#$0
     b51: 86 15        	stx	$15                     ; 0x2015 <__BLOCK_SIZE+0x15>
     b53: 20 68 ff     	jsr	$ff68 <__heap_start+0xdf28>
     b56: 92 24        	sta	($24)                   ; 0x2024 <__BLOCK_SIZE+0x24>
     b58: a9 00        	lda	#$0
     b5a: 6a           	ror
     b5b: 85 14        	sta	$14                     ; 0x2014 <__BLOCK_SIZE+0x14>
     b5d: 20 d1 1c     	jsr	$1cd1 <free>
     b60: a2 37        	ldx	#$37
     b62: 86 12        	stx	$12                     ; 0x2012 <__BLOCK_SIZE+0x12>
     b64: a2 00        	ldx	#$0
     b66: 86 13        	stx	$13                     ; 0x2013 <__BLOCK_SIZE+0x13>
     b68: a6 24        	ldx	$24                     ; 0x2024 <__BLOCK_SIZE+0x24>
     b6a: 86 14        	stx	$14                     ; 0x2014 <__BLOCK_SIZE+0x14>
     b6c: a6 25        	ldx	$25                     ; 0x2025 <__BLOCK_SIZE+0x25>
     b6e: 86 15        	stx	$15                     ; 0x2015 <__BLOCK_SIZE+0x15>
     b70: 64 30        	stz	$30                     ; 0x2030 <__BLOCK_SIZE+0x30>
     b72: 20 00 ff     	jsr	$ff00 <__heap_start+0xdec0>
     b75: 92 14        	sta	($14)                   ; 0x2014 <__BLOCK_SIZE+0x14>
     b77: a9 00        	lda	#$0
     b79: 6a           	ror
     b7a: 85 12        	sta	$12                     ; 0x2012 <__BLOCK_SIZE+0x12>
     b7c: a6 30        	ldx	$30                     ; 0x2030 <__BLOCK_SIZE+0x30>
     b7e: e0 32        	cpx	#$32
     b80: d0 03        	bne	$b85 <f256main+0x2aa>
     b82: 4c 52 09     	jmp	$952 <f256main+0x77>
     b85: e0 38        	cpx	#$38
     b87: d0 e7        	bne	$b70 <f256main+0x295>
     b89: 4c 52 09     	jmp	$952 <f256main+0x77>
     b8c: a9 00        	lda	#$0
     b8e: 85 3d        	sta	$3d                     ; 0x203d <__BLOCK_SIZE+0x3d>
     b90: 1a           	inc
     b91: 4c 69 0a     	jmp	$a69 <f256main+0x18e>

00000b94 <textPrint>:
     b94: a6 01        	ldx	$1                      ; 0x2001 <__BLOCK_SIZE+0x1>
     b96: 86 97        	stx	$97                     ; 0x2097 <__heap_start+0x57>
     b98: a6 39        	ldx	$39                     ; 0x2039 <__BLOCK_SIZE+0x39>
     b9a: a0 50        	ldy	#$50
     b9c: 8c 00 de     	sty	$de00                   ; 0xde00 <__heap_start+0xbdc0>
     b9f: 9c 01 de     	stz	$de01                   ; 0xde01 <__heap_start+0xbdc1>
     ba2: 8e 02 de     	stx	$de02                   ; 0xde02 <__heap_start+0xbdc2>
     ba5: 9c 03 de     	stz	$de03                   ; 0xde03 <__heap_start+0xbdc3>
     ba8: ae 10 de     	ldx	$de10                   ; 0xde10 <__heap_start+0xbdd0>
     bab: ac 11 de     	ldy	$de11                   ; 0xde11 <__heap_start+0xbdd1>
     bae: 84 15        	sty	$15                     ; 0x2015 <__BLOCK_SIZE+0x15>
     bb0: ad 12 de     	lda	$de12                   ; 0xde12 <__heap_start+0xbdd2>
     bb3: ac 13 de     	ldy	$de13                   ; 0xde13 <__heap_start+0xbdd3>
     bb6: 84 1c        	sty	$1c                     ; 0x201c <__BLOCK_SIZE+0x1c>
     bb8: 9c 08 de     	stz	$de08                   ; 0xde08 <__heap_start+0xbdc8>
     bbb: a0 c0        	ldy	#$c0
     bbd: 8c 09 de     	sty	$de09                   ; 0xde09 <__heap_start+0xbdc9>
     bc0: 9c 0a de     	stz	$de0a                   ; 0xde0a <__heap_start+0xbdca>
     bc3: 9c 0b de     	stz	$de0b                   ; 0xde0b <__heap_start+0xbdcb>
     bc6: 8e 0c de     	stx	$de0c                   ; 0xde0c <__heap_start+0xbdcc>
     bc9: 64 14        	stz	$14                     ; 0x2014 <__BLOCK_SIZE+0x14>
     bcb: a2 00        	ldx	#$0
     bcd: 86 16        	stx	$16                     ; 0x2016 <__BLOCK_SIZE+0x16>
     bcf: a2 c0        	ldx	#$c0
     bd1: 86 17        	stx	$17                     ; 0x2017 <__BLOCK_SIZE+0x17>
     bd3: a2 11        	ldx	#$11
     bd5: 86 18        	stx	$18                     ; 0x2018 <__BLOCK_SIZE+0x18>
     bd7: a2 c9        	ldx	#$c9
     bd9: 86 19        	stx	$19                     ; 0x2019 <__BLOCK_SIZE+0x19>
     bdb: a2 10        	ldx	#$10
     bdd: 86 1a        	stx	$1a                     ; 0x201a <__BLOCK_SIZE+0x1a>
     bdf: a2 c9        	ldx	#$c9
     be1: 86 1b        	stx	$1b                     ; 0x201b <__BLOCK_SIZE+0x1b>
     be3: a6 15        	ldx	$15                     ; 0x2015 <__BLOCK_SIZE+0x15>
     be5: 8e 0d de     	stx	$de0d                   ; 0xde0d <__heap_start+0xbdcd>
     be8: 8d 0e de     	sta	$de0e                   ; 0xde0e <__heap_start+0xbdce>
     beb: a6 1c        	ldx	$1c                     ; 0x201c <__BLOCK_SIZE+0x1c>
     bed: 8e 0f de     	stx	$de0f                   ; 0xde0f <__heap_start+0xbdcf>
     bf0: ac 18 de     	ldy	$de18                   ; 0xde18 <__heap_start+0xbdd8>
     bf3: ad 19 de     	lda	$de19                   ; 0xde19 <__heap_start+0xbdd9>
     bf6: ae 1a de     	ldx	$de1a                   ; 0xde1a <__heap_start+0xbdda>
     bf9: ae 1b de     	ldx	$de1b                   ; 0xde1b <__heap_start+0xbddb>
     bfc: 84 1c        	sty	$1c                     ; 0x201c <__BLOCK_SIZE+0x1c>
     bfe: 85 1d        	sta	$1d                     ; 0x201d <__BLOCK_SIZE+0x1d>
     c00: 64 15        	stz	$15                     ; 0x2015 <__BLOCK_SIZE+0x15>
     c02: 80 13        	bra	$c17 <textPrint+0x83>
     c04: a5 1c        	lda	$1c                     ; 0x201c <__BLOCK_SIZE+0x1c>
     c06: 18           	clc
     c07: 69 50        	adc	#$50
     c09: 85 1c        	sta	$1c                     ; 0x201c <__BLOCK_SIZE+0x1c>
     c0b: a5 1d        	lda	$1d                     ; 0x201d <__BLOCK_SIZE+0x1d>
     c0d: 69 00        	adc	#$0
     c0f: 85 1d        	sta	$1d                     ; 0x201d <__BLOCK_SIZE+0x1d>
     c11: e6 14        	inc	$14                     ; 0x2014 <__BLOCK_SIZE+0x14>
     c13: d0 02        	bne	$c17 <textPrint+0x83>
     c15: e6 15        	inc	$15                     ; 0x2015 <__BLOCK_SIZE+0x15>
     c17: a5 12        	lda	$12                     ; 0x2012 <__BLOCK_SIZE+0x12>
     c19: 18           	clc
     c1a: 65 14        	adc	$14                     ; 0x2014 <__BLOCK_SIZE+0x14>
     c1c: 85 1e        	sta	$1e                     ; 0x201e <__BLOCK_SIZE+0x1e>
     c1e: a5 13        	lda	$13                     ; 0x2013 <__BLOCK_SIZE+0x13>
     c20: 65 15        	adc	$15                     ; 0x2015 <__BLOCK_SIZE+0x15>
     c22: 85 1f        	sta	$1f                     ; 0x201f <__BLOCK_SIZE+0x1f>
     c24: b2 1e        	lda	($1e)                   ; 0x201e <__BLOCK_SIZE+0x1e>
     c26: c9 0a        	cmp	#$a
     c28: f0 26        	beq	$c50 <textPrint+0xbc>
     c2a: c9 0d        	cmp	#$d
     c2c: f0 22        	beq	$c50 <textPrint+0xbc>
     c2e: aa           	tax
     c2f: d0 03        	bne	$c34 <textPrint+0xa0>
     c31: 4c 35 0d     	jmp	$d35 <textPrint+0x1a1>
     c34: a2 03        	ldx	#$3
     c36: 86 01        	stx	$1                      ; 0x2001 <__BLOCK_SIZE+0x1>
     c38: a4 38        	ldy	$38                     ; 0x2038 <__BLOCK_SIZE+0x38>
     c3a: a9 f0        	lda	#$f0
     c3c: 91 1c        	sta	($1c),y                 ; 0x201c <__BLOCK_SIZE+0x1c>
     c3e: ca           	dex
     c3f: 86 01        	stx	$1                      ; 0x2001 <__BLOCK_SIZE+0x1>
     c41: b2 1e        	lda	($1e)                   ; 0x201e <__BLOCK_SIZE+0x1e>
     c43: a4 38        	ldy	$38                     ; 0x2038 <__BLOCK_SIZE+0x38>
     c45: 91 1c        	sta	($1c),y                 ; 0x201c <__BLOCK_SIZE+0x1c>
     c47: a6 38        	ldx	$38                     ; 0x2038 <__BLOCK_SIZE+0x38>
     c49: e8           	inx
     c4a: e6 38        	inc	$38                     ; 0x2038 <__BLOCK_SIZE+0x38>
     c4c: e0 50        	cpx	#$50
     c4e: d0 c1        	bne	$c11 <textPrint+0x7d>
     c50: 64 38        	stz	$38                     ; 0x2038 <__BLOCK_SIZE+0x38>
     c52: a6 39        	ldx	$39                     ; 0x2039 <__BLOCK_SIZE+0x39>
     c54: e8           	inx
     c55: e6 39        	inc	$39                     ; 0x2039 <__BLOCK_SIZE+0x39>
     c57: e0 1e        	cpx	#$1e
     c59: f0 03        	beq	$c5e <textPrint+0xca>
     c5b: 4c 04 0c     	jmp	$c04 <textPrint+0x70>
     c5e: a2 03        	ldx	#$3
     c60: 86 01        	stx	$1                      ; 0x2001 <__BLOCK_SIZE+0x1>
     c62: a2 01        	ldx	#$1
     c64: 86 1c        	stx	$1c                     ; 0x201c <__BLOCK_SIZE+0x1c>
     c66: a2 09        	ldx	#$9
     c68: a0 10        	ldy	#$10
     c6a: a9 00        	lda	#$0
     c6c: 85 1e        	sta	$1e                     ; 0x201e <__BLOCK_SIZE+0x1e>
     c6e: a9 c0        	lda	#$c0
     c70: 85 1f        	sta	$1f                     ; 0x201f <__BLOCK_SIZE+0x1f>
     c72: 84 1d        	sty	$1d                     ; 0x201d <__BLOCK_SIZE+0x1d>
     c74: a0 50        	ldy	#$50
     c76: b1 1e        	lda	($1e),y                 ; 0x201e <__BLOCK_SIZE+0x1e>
     c78: 92 1e        	sta	($1e)                   ; 0x201e <__BLOCK_SIZE+0x1e>
     c7a: a9 ff        	lda	#$ff
     c7c: c6 1d        	dec	$1d                     ; 0x201d <__BLOCK_SIZE+0x1d>
     c7e: c5 1d        	cmp	$1d                     ; 0x201d <__BLOCK_SIZE+0x1d>
     c80: d0 01        	bne	$c83 <textPrint+0xef>
     c82: ca           	dex
     c83: e6 1e        	inc	$1e                     ; 0x201e <__BLOCK_SIZE+0x1e>
     c85: d0 02        	bne	$c89 <textPrint+0xf5>
     c87: e6 1f        	inc	$1f                     ; 0x201f <__BLOCK_SIZE+0x1f>
     c89: 8a           	txa
     c8a: d0 ea        	bne	$c76 <textPrint+0xe2>
     c8c: a5 1d        	lda	$1d                     ; 0x201d <__BLOCK_SIZE+0x1d>
     c8e: d0 e6        	bne	$c76 <textPrint+0xe2>
     c90: a2 02        	ldx	#$2
     c92: 86 01        	stx	$1                      ; 0x2001 <__BLOCK_SIZE+0x1>
     c94: a2 00        	ldx	#$0
     c96: a5 1c        	lda	$1c                     ; 0x201c <__BLOCK_SIZE+0x1c>
     c98: d0 ca        	bne	$c64 <textPrint+0xd0>
     c9a: a2 03        	ldx	#$3
     c9c: 86 01        	stx	$1                      ; 0x2001 <__BLOCK_SIZE+0x1>
     c9e: a2 50        	ldx	#$50
     ca0: a0 11        	ldy	#$11
     ca2: 84 1c        	sty	$1c                     ; 0x201c <__BLOCK_SIZE+0x1c>
     ca4: a0 c9        	ldy	#$c9
     ca6: 84 1d        	sty	$1d                     ; 0x201d <__BLOCK_SIZE+0x1d>
     ca8: a0 10        	ldy	#$10
     caa: 84 1e        	sty	$1e                     ; 0x201e <__BLOCK_SIZE+0x1e>
     cac: a0 c9        	ldy	#$c9
     cae: 84 1f        	sty	$1f                     ; 0x201f <__BLOCK_SIZE+0x1f>
     cb0: a9 f0        	lda	#$f0
     cb2: a4 1c        	ldy	$1c                     ; 0x201c <__BLOCK_SIZE+0x1c>
     cb4: 84 22        	sty	$22                     ; 0x2022 <__BLOCK_SIZE+0x22>
     cb6: a4 1d        	ldy	$1d                     ; 0x201d <__BLOCK_SIZE+0x1d>
     cb8: 84 23        	sty	$23                     ; 0x2023 <__BLOCK_SIZE+0x23>
     cba: 92 1e        	sta	($1e)                   ; 0x201e <__BLOCK_SIZE+0x1e>
     cbc: e6 1c        	inc	$1c                     ; 0x201c <__BLOCK_SIZE+0x1c>
     cbe: d0 02        	bne	$cc2 <textPrint+0x12e>
     cc0: e6 1d        	inc	$1d                     ; 0x201d <__BLOCK_SIZE+0x1d>
     cc2: ca           	dex
     cc3: a4 22        	ldy	$22                     ; 0x2022 <__BLOCK_SIZE+0x22>
     cc5: 84 1e        	sty	$1e                     ; 0x201e <__BLOCK_SIZE+0x1e>
     cc7: a4 23        	ldy	$23                     ; 0x2023 <__BLOCK_SIZE+0x23>
     cc9: 84 1f        	sty	$1f                     ; 0x201f <__BLOCK_SIZE+0x1f>
     ccb: e0 00        	cpx	#$0
     ccd: d0 e3        	bne	$cb2 <textPrint+0x11e>
     ccf: a2 02        	ldx	#$2
     cd1: 86 01        	stx	$1                      ; 0x2001 <__BLOCK_SIZE+0x1>
     cd3: a2 50        	ldx	#$50
     cd5: a0 11        	ldy	#$11
     cd7: 84 1c        	sty	$1c                     ; 0x201c <__BLOCK_SIZE+0x1c>
     cd9: a0 c9        	ldy	#$c9
     cdb: 84 1d        	sty	$1d                     ; 0x201d <__BLOCK_SIZE+0x1d>
     cdd: a0 10        	ldy	#$10
     cdf: 84 1e        	sty	$1e                     ; 0x201e <__BLOCK_SIZE+0x1e>
     ce1: a0 c9        	ldy	#$c9
     ce3: 84 1f        	sty	$1f                     ; 0x201f <__BLOCK_SIZE+0x1f>
     ce5: a9 20        	lda	#$20
     ce7: a4 1c        	ldy	$1c                     ; 0x201c <__BLOCK_SIZE+0x1c>
     ce9: 84 22        	sty	$22                     ; 0x2022 <__BLOCK_SIZE+0x22>
     ceb: a4 1d        	ldy	$1d                     ; 0x201d <__BLOCK_SIZE+0x1d>
     ced: 84 23        	sty	$23                     ; 0x2023 <__BLOCK_SIZE+0x23>
     cef: 92 1e        	sta	($1e)                   ; 0x201e <__BLOCK_SIZE+0x1e>
     cf1: e6 1c        	inc	$1c                     ; 0x201c <__BLOCK_SIZE+0x1c>
     cf3: d0 02        	bne	$cf7 <textPrint+0x163>
     cf5: e6 1d        	inc	$1d                     ; 0x201d <__BLOCK_SIZE+0x1d>
     cf7: ca           	dex
     cf8: a4 22        	ldy	$22                     ; 0x2022 <__BLOCK_SIZE+0x22>
     cfa: 84 1e        	sty	$1e                     ; 0x201e <__BLOCK_SIZE+0x1e>
     cfc: a4 23        	ldy	$23                     ; 0x2023 <__BLOCK_SIZE+0x23>
     cfe: 84 1f        	sty	$1f                     ; 0x201f <__BLOCK_SIZE+0x1f>
     d00: e0 00        	cpx	#$0
     d02: d0 e3        	bne	$ce7 <textPrint+0x153>
     d04: c6 39        	dec	$39                     ; 0x2039 <__BLOCK_SIZE+0x39>
     d06: 9c 08 de     	stz	$de08                   ; 0xde08 <__heap_start+0xbdc8>
     d09: a2 c0        	ldx	#$c0
     d0b: 8e 09 de     	stx	$de09                   ; 0xde09 <__heap_start+0xbdc9>
     d0e: 9c 0a de     	stz	$de0a                   ; 0xde0a <__heap_start+0xbdca>
     d11: 9c 0b de     	stz	$de0b                   ; 0xde0b <__heap_start+0xbdcb>
     d14: a2 1d        	ldx	#$1d
     d16: 8e 0c de     	stx	$de0c                   ; 0xde0c <__heap_start+0xbdcc>
     d19: 9c 0d de     	stz	$de0d                   ; 0xde0d <__heap_start+0xbdcd>
     d1c: 9c 0e de     	stz	$de0e                   ; 0xde0e <__heap_start+0xbdce>
     d1f: 9c 0f de     	stz	$de0f                   ; 0xde0f <__heap_start+0xbdcf>
     d22: ae 18 de     	ldx	$de18                   ; 0xde18 <__heap_start+0xbdd8>
     d25: ac 19 de     	ldy	$de19                   ; 0xde19 <__heap_start+0xbdd9>
     d28: ad 1a de     	lda	$de1a                   ; 0xde1a <__heap_start+0xbdda>
     d2b: ad 1b de     	lda	$de1b                   ; 0xde1b <__heap_start+0xbddb>
     d2e: 86 1c        	stx	$1c                     ; 0x201c <__BLOCK_SIZE+0x1c>
     d30: 84 1d        	sty	$1d                     ; 0x201d <__BLOCK_SIZE+0x1d>
     d32: 4c 11 0c     	jmp	$c11 <textPrint+0x7d>
     d35: a6 97        	ldx	$97                     ; 0x2097 <__heap_start+0x57>
     d37: 86 01        	stx	$1                      ; 0x2001 <__BLOCK_SIZE+0x1>
     d39: a6 38        	ldx	$38                     ; 0x2038 <__BLOCK_SIZE+0x38>
     d3b: a4 39        	ldy	$39                     ; 0x2039 <__BLOCK_SIZE+0x39>
     d3d: 8e 14 d0     	stx	$d014                   ; 0xd014 <__heap_start+0xafd4>
     d40: 9c 15 d0     	stz	$d015                   ; 0xd015 <__heap_start+0xafd5>
     d43: 84 39        	sty	$39                     ; 0x2039 <__BLOCK_SIZE+0x39>
     d45: 8c 16 d0     	sty	$d016                   ; 0xd016 <__heap_start+0xafd6>
     d48: 9c 17 d0     	stz	$d017                   ; 0xd017 <__heap_start+0xafd7>
     d4b: 60           	rts

00000d4c <__putchar>:
     d4c: 85 3a        	sta	$3a                     ; 0x203a <__BLOCK_SIZE+0x3a>
     d4e: a2 3a        	ldx	#$3a
     d50: 86 12        	stx	$12                     ; 0x2012 <__BLOCK_SIZE+0x12>
     d52: a2 00        	ldx	#$0
     d54: 86 13        	stx	$13                     ; 0x2013 <__BLOCK_SIZE+0x13>
     d56: 4c 94 0b     	jmp	$b94 <textPrint>

00000d59 <exit>:
     d59: 20 14 03     	jsr	$314 <_fini>
     d5c: 80 fe        	bra	$d5c <exit+0x3>

00000d5e <_ZN12_GLOBAL__N_13putEcP6Status>:
     d5e: 85 18        	sta	$18                     ; 0x2018 <__BLOCK_SIZE+0x18>
     d60: a6 13        	ldx	$13                     ; 0x2013 <__BLOCK_SIZE+0x13>
     d62: 18           	clc
     d63: a5 12        	lda	$12                     ; 0x2012 <__BLOCK_SIZE+0x12>
     d65: 69 05        	adc	#$5
     d67: a8           	tay
     d68: a5 13        	lda	$13                     ; 0x2013 <__BLOCK_SIZE+0x13>
     d6a: 86 15        	stx	$15                     ; 0x2015 <__BLOCK_SIZE+0x15>
     d6c: 69 00        	adc	#$0
     d6e: 18           	clc
     d6f: 84 16        	sty	$16                     ; 0x2016 <__BLOCK_SIZE+0x16>
     d71: a0 05        	ldy	#$5
     d73: 85 17        	sta	$17                     ; 0x2017 <__BLOCK_SIZE+0x17>
     d75: b1 12        	lda	($12),y                 ; 0x2012 <__BLOCK_SIZE+0x12>
     d77: aa           	tax
     d78: a5 12        	lda	$12                     ; 0x2012 <__BLOCK_SIZE+0x12>
     d7a: 69 03        	adc	#$3
     d7c: 85 14        	sta	$14                     ; 0x2014 <__BLOCK_SIZE+0x14>
     d7e: a5 15        	lda	$15                     ; 0x2015 <__BLOCK_SIZE+0x15>
     d80: 69 00        	adc	#$0
     d82: 85 15        	sta	$15                     ; 0x2015 <__BLOCK_SIZE+0x15>
     d84: a0 01        	ldy	#$1
     d86: b1 16        	lda	($16),y                 ; 0x2016 <__BLOCK_SIZE+0x16>
     d88: d1 14        	cmp	($14),y                 ; 0x2014 <__BLOCK_SIZE+0x14>
     d8a: d0 11        	bne	$d9d <_ZN12_GLOBAL__N_13putEcP6Status+0x3f>
     d8c: a0 03        	ldy	#$3
     d8e: 85 17        	sta	$17                     ; 0x2017 <__BLOCK_SIZE+0x17>
     d90: b1 12        	lda	($12),y                 ; 0x2012 <__BLOCK_SIZE+0x12>
     d92: 85 14        	sta	$14                     ; 0x2014 <__BLOCK_SIZE+0x14>
     d94: 86 16        	stx	$16                     ; 0x2016 <__BLOCK_SIZE+0x16>
     d96: e4 14        	cpx	$14                     ; 0x2014 <__BLOCK_SIZE+0x14>
     d98: 90 0e        	bcc	$da8 <_ZN12_GLOBAL__N_13putEcP6Status+0x4a>
     d9a: 4c 07 0e     	jmp	$e07 <_ZN12_GLOBAL__N_13putEcP6Status+0xa9>
     d9d: 86 16        	stx	$16                     ; 0x2016 <__BLOCK_SIZE+0x16>
     d9f: d1 14        	cmp	($14),y                 ; 0x2014 <__BLOCK_SIZE+0x14>
     da1: 85 17        	sta	$17                     ; 0x2017 <__BLOCK_SIZE+0x17>
     da3: 90 03        	bcc	$da8 <_ZN12_GLOBAL__N_13putEcP6Status+0x4a>
     da5: 4c 07 0e     	jmp	$e07 <_ZN12_GLOBAL__N_13putEcP6Status+0xa9>
     da8: a5 12        	lda	$12                     ; 0x2012 <__BLOCK_SIZE+0x12>
     daa: 18           	clc
     dab: 69 0f        	adc	#$f
     dad: 85 14        	sta	$14                     ; 0x2014 <__BLOCK_SIZE+0x14>
     daf: a5 13        	lda	$13                     ; 0x2013 <__BLOCK_SIZE+0x13>
     db1: 69 00        	adc	#$0
     db3: 85 15        	sta	$15                     ; 0x2015 <__BLOCK_SIZE+0x15>
     db5: a0 01        	ldy	#$1
     db7: b1 14        	lda	($14),y                 ; 0x2014 <__BLOCK_SIZE+0x14>
     db9: a2 00        	ldx	#$0
     dbb: 86 14        	stx	$14                     ; 0x2014 <__BLOCK_SIZE+0x14>
     dbd: a2 00        	ldx	#$0
     dbf: 86 15        	stx	$15                     ; 0x2015 <__BLOCK_SIZE+0x15>
     dc1: c5 15        	cmp	$15                     ; 0x2015 <__BLOCK_SIZE+0x15>
     dc3: d0 2d        	bne	$df2 <_ZN12_GLOBAL__N_13putEcP6Status+0x94>
     dc5: a0 0f        	ldy	#$f
     dc7: b1 12        	lda	($12),y                 ; 0x2012 <__BLOCK_SIZE+0x12>
     dc9: c5 14        	cmp	$14                     ; 0x2014 <__BLOCK_SIZE+0x14>
     dcb: d0 25        	bne	$df2 <_ZN12_GLOBAL__N_13putEcP6Status+0x94>
     dcd: a5 12        	lda	$12                     ; 0x2012 <__BLOCK_SIZE+0x12>
     dcf: 18           	clc
     dd0: 69 09        	adc	#$9
     dd2: 85 14        	sta	$14                     ; 0x2014 <__BLOCK_SIZE+0x14>
     dd4: a5 13        	lda	$13                     ; 0x2013 <__BLOCK_SIZE+0x13>
     dd6: 69 00        	adc	#$0
     dd8: a0 09        	ldy	#$9
     dda: 85 15        	sta	$15                     ; 0x2015 <__BLOCK_SIZE+0x15>
     ddc: 18           	clc
     ddd: a5 16        	lda	$16                     ; 0x2016 <__BLOCK_SIZE+0x16>
     ddf: 71 12        	adc	($12),y                 ; 0x2012 <__BLOCK_SIZE+0x12>
     de1: aa           	tax
     de2: a0 01        	ldy	#$1
     de4: a5 17        	lda	$17                     ; 0x2017 <__BLOCK_SIZE+0x17>
     de6: 71 14        	adc	($14),y                 ; 0x2014 <__BLOCK_SIZE+0x14>
     de8: 86 14        	stx	$14                     ; 0x2014 <__BLOCK_SIZE+0x14>
     dea: 85 15        	sta	$15                     ; 0x2015 <__BLOCK_SIZE+0x15>
     dec: a5 18        	lda	$18                     ; 0x2018 <__BLOCK_SIZE+0x18>
     dee: 92 14        	sta	($14)                   ; 0x2014 <__BLOCK_SIZE+0x14>
     df0: 80 15        	bra	$e07 <_ZN12_GLOBAL__N_13putEcP6Status+0xa9>
     df2: a6 12        	ldx	$12                     ; 0x2012 <__BLOCK_SIZE+0x12>
     df4: 86 95        	stx	$95                     ; 0x2095 <__heap_start+0x55>
     df6: a6 13        	ldx	$13                     ; 0x2013 <__BLOCK_SIZE+0x13>
     df8: 86 96        	stx	$96                     ; 0x2096 <__heap_start+0x56>
     dfa: a5 18        	lda	$18                     ; 0x2018 <__BLOCK_SIZE+0x18>
     dfc: 20 4c 0d     	jsr	$d4c <__putchar>
     dff: a6 95        	ldx	$95                     ; 0x2095 <__heap_start+0x55>
     e01: 86 12        	stx	$12                     ; 0x2012 <__BLOCK_SIZE+0x12>
     e03: a6 96        	ldx	$96                     ; 0x2096 <__heap_start+0x56>
     e05: 86 13        	stx	$13                     ; 0x2013 <__BLOCK_SIZE+0x13>
     e07: a0 05        	ldy	#$5
     e09: a5 12        	lda	$12                     ; 0x2012 <__BLOCK_SIZE+0x12>
     e0b: 18           	clc
     e0c: 69 05        	adc	#$5
     e0e: 85 14        	sta	$14                     ; 0x2014 <__BLOCK_SIZE+0x14>
     e10: a5 13        	lda	$13                     ; 0x2013 <__BLOCK_SIZE+0x13>
     e12: 69 00        	adc	#$0
     e14: 85 15        	sta	$15                     ; 0x2015 <__BLOCK_SIZE+0x15>
     e16: b1 12        	lda	($12),y                 ; 0x2012 <__BLOCK_SIZE+0x12>
     e18: aa           	tax
     e19: a0 01        	ldy	#$1
     e1b: b1 14        	lda	($14),y                 ; 0x2014 <__BLOCK_SIZE+0x14>
     e1d: e8           	inx
     e1e: d0 01        	bne	$e21 <_ZN12_GLOBAL__N_13putEcP6Status+0xc3>
     e20: 1a           	inc
     e21: 85 16        	sta	$16                     ; 0x2016 <__BLOCK_SIZE+0x16>
     e23: 8a           	txa
     e24: a0 05        	ldy	#$5
     e26: 91 12        	sta	($12),y                 ; 0x2012 <__BLOCK_SIZE+0x12>
     e28: a0 01        	ldy	#$1
     e2a: a5 16        	lda	$16                     ; 0x2016 <__BLOCK_SIZE+0x16>
     e2c: 91 14        	sta	($14),y                 ; 0x2014 <__BLOCK_SIZE+0x14>
     e2e: 60           	rts

00000e2f <_ZN12_GLOBAL__N_112print_stringEPKcP6Status>:
     e2f: a6 12        	ldx	$12                     ; 0x2012 <__BLOCK_SIZE+0x12>
     e31: 86 8d        	stx	$8d                     ; 0x208d <__heap_start+0x4d>
     e33: a6 13        	ldx	$13                     ; 0x2013 <__BLOCK_SIZE+0x13>
     e35: 86 8e        	stx	$8e                     ; 0x208e <__heap_start+0x4e>
     e37: a6 14        	ldx	$14                     ; 0x2014 <__BLOCK_SIZE+0x14>
     e39: 86 8f        	stx	$8f                     ; 0x208f <__heap_start+0x4f>
     e3b: a6 15        	ldx	$15                     ; 0x2015 <__BLOCK_SIZE+0x15>
     e3d: 86 90        	stx	$90                     ; 0x2090 <__heap_start+0x50>
     e3f: a5 8f        	lda	$8f                     ; 0x208f <__heap_start+0x4f>
     e41: 18           	clc
     e42: 69 0d        	adc	#$d
     e44: 85 12        	sta	$12                     ; 0x2012 <__BLOCK_SIZE+0x12>
     e46: a5 90        	lda	$90                     ; 0x2090 <__heap_start+0x50>
     e48: 69 00        	adc	#$0
     e4a: 85 13        	sta	$13                     ; 0x2013 <__BLOCK_SIZE+0x13>
     e4c: a0 01        	ldy	#$1
     e4e: b1 12        	lda	($12),y                 ; 0x2012 <__BLOCK_SIZE+0x12>
     e50: 30 16        	bmi	$e68 <_ZN12_GLOBAL__N_112print_stringEPKcP6Status+0x39>
     e52: a0 0d        	ldy	#$d
     e54: 85 12        	sta	$12                     ; 0x2012 <__BLOCK_SIZE+0x12>
     e56: b1 8f        	lda	($8f),y                 ; 0x208f <__heap_start+0x4f>
     e58: a6 12        	ldx	$12                     ; 0x2012 <__BLOCK_SIZE+0x12>
     e5a: 86 94        	stx	$94                     ; 0x2094 <__heap_start+0x54>
     e5c: d0 0f        	bne	$e6d <_ZN12_GLOBAL__N_112print_stringEPKcP6Status+0x3e>
     e5e: aa           	tax
     e5f: d0 0c        	bne	$e6d <_ZN12_GLOBAL__N_112print_stringEPKcP6Status+0x3e>
     e61: 64 91        	stz	$91                     ; 0x2091 <__heap_start+0x51>
     e63: a2 00        	ldx	#$0
     e65: 4c 37 0f     	jmp	$f37 <_ZN12_GLOBAL__N_112print_stringEPKcP6Status+0x108>
     e68: a9 ff        	lda	#$ff
     e6a: aa           	tax
     e6b: 86 94        	stx	$94                     ; 0x2094 <__heap_start+0x54>
     e6d: 85 91        	sta	$91                     ; 0x2091 <__heap_start+0x51>
     e6f: 64 12        	stz	$12                     ; 0x2012 <__BLOCK_SIZE+0x12>
     e71: a4 8d        	ldy	$8d                     ; 0x208d <__heap_start+0x4d>
     e73: a6 8e        	ldx	$8e                     ; 0x208e <__heap_start+0x4e>
     e75: 86 16        	stx	$16                     ; 0x2016 <__BLOCK_SIZE+0x16>
     e77: 64 13        	stz	$13                     ; 0x2013 <__BLOCK_SIZE+0x13>
     e79: 98           	tya
     e7a: 18           	clc
     e7b: 65 12        	adc	$12                     ; 0x2012 <__BLOCK_SIZE+0x12>
     e7d: 85 14        	sta	$14                     ; 0x2014 <__BLOCK_SIZE+0x14>
     e7f: a5 8e        	lda	$8e                     ; 0x208e <__heap_start+0x4e>
     e81: 65 13        	adc	$13                     ; 0x2013 <__BLOCK_SIZE+0x13>
     e83: 85 15        	sta	$15                     ; 0x2015 <__BLOCK_SIZE+0x15>
     e85: b2 14        	lda	($14)                   ; 0x2014 <__BLOCK_SIZE+0x14>
     e87: d0 03        	bne	$e8c <_ZN12_GLOBAL__N_112print_stringEPKcP6Status+0x5d>
     e89: 4c 31 0f     	jmp	$f31 <_ZN12_GLOBAL__N_112print_stringEPKcP6Status+0x102>
     e8c: e6 12        	inc	$12                     ; 0x2012 <__BLOCK_SIZE+0x12>
     e8e: d0 02        	bne	$e92 <_ZN12_GLOBAL__N_112print_stringEPKcP6Status+0x63>
     e90: e6 13        	inc	$13                     ; 0x2013 <__BLOCK_SIZE+0x13>
     e92: a6 94        	ldx	$94                     ; 0x2094 <__heap_start+0x54>
     e94: e4 13        	cpx	$13                     ; 0x2013 <__BLOCK_SIZE+0x13>
     e96: d0 e1        	bne	$e79 <_ZN12_GLOBAL__N_112print_stringEPKcP6Status+0x4a>
     e98: a6 91        	ldx	$91                     ; 0x2091 <__heap_start+0x51>
     e9a: e4 12        	cpx	$12                     ; 0x2012 <__BLOCK_SIZE+0x12>
     e9c: d0 db        	bne	$e79 <_ZN12_GLOBAL__N_112print_stringEPKcP6Status+0x4a>
     e9e: a0 01        	ldy	#$1
     ea0: 98           	tya
     ea1: 31 8f        	and	($8f),y                 ; 0x208f <__heap_start+0x4f>
     ea3: 29 01        	and	#$1
     ea5: f0 03        	beq	$eaa <_ZN12_GLOBAL__N_112print_stringEPKcP6Status+0x7b>
     ea7: 4c 02 0f     	jmp	$f02 <_ZN12_GLOBAL__N_112print_stringEPKcP6Status+0xd3>
     eaa: a0 0b        	ldy	#$b
     eac: a5 8f        	lda	$8f                     ; 0x208f <__heap_start+0x4f>
     eae: 18           	clc
     eaf: 69 0b        	adc	#$b
     eb1: 85 14        	sta	$14                     ; 0x2014 <__BLOCK_SIZE+0x14>
     eb3: a5 90        	lda	$90                     ; 0x2090 <__heap_start+0x50>
     eb5: 69 00        	adc	#$0
     eb7: 85 15        	sta	$15                     ; 0x2015 <__BLOCK_SIZE+0x15>
     eb9: b1 8f        	lda	($8f),y                 ; 0x208f <__heap_start+0x4f>
     ebb: 85 12        	sta	$12                     ; 0x2012 <__BLOCK_SIZE+0x12>
     ebd: a0 01        	ldy	#$1
     ebf: b1 14        	lda	($14),y                 ; 0x2014 <__BLOCK_SIZE+0x14>
     ec1: 85 13        	sta	$13                     ; 0x2013 <__BLOCK_SIZE+0x13>
     ec3: a6 94        	ldx	$94                     ; 0x2094 <__heap_start+0x54>
     ec5: e4 13        	cpx	$13                     ; 0x2013 <__BLOCK_SIZE+0x13>
     ec7: d0 08        	bne	$ed1 <_ZN12_GLOBAL__N_112print_stringEPKcP6Status+0xa2>
     ec9: a6 91        	ldx	$91                     ; 0x2091 <__heap_start+0x51>
     ecb: e4 12        	cpx	$12                     ; 0x2012 <__BLOCK_SIZE+0x12>
     ecd: 90 06        	bcc	$ed5 <_ZN12_GLOBAL__N_112print_stringEPKcP6Status+0xa6>
     ecf: 80 31        	bra	$f02 <_ZN12_GLOBAL__N_112print_stringEPKcP6Status+0xd3>
     ed1: e4 13        	cpx	$13                     ; 0x2013 <__BLOCK_SIZE+0x13>
     ed3: b0 2d        	bcs	$f02 <_ZN12_GLOBAL__N_112print_stringEPKcP6Status+0xd3>
     ed5: 38           	sec
     ed6: a5 91        	lda	$91                     ; 0x2091 <__heap_start+0x51>
     ed8: e5 12        	sbc	$12                     ; 0x2012 <__BLOCK_SIZE+0x12>
     eda: a8           	tay
     edb: a5 94        	lda	$94                     ; 0x2094 <__heap_start+0x54>
     edd: e5 13        	sbc	$13                     ; 0x2013 <__BLOCK_SIZE+0x13>
     edf: 85 93        	sta	$93                     ; 0x2093 <__heap_start+0x53>
     ee1: a6 8f        	ldx	$8f                     ; 0x208f <__heap_start+0x4f>
     ee3: 86 12        	stx	$12                     ; 0x2012 <__BLOCK_SIZE+0x12>
     ee5: a6 90        	ldx	$90                     ; 0x2090 <__heap_start+0x50>
     ee7: 86 13        	stx	$13                     ; 0x2013 <__BLOCK_SIZE+0x13>
     ee9: 84 92        	sty	$92                     ; 0x2092 <__heap_start+0x52>
     eeb: a9 20        	lda	#$20
     eed: 20 5e 0d     	jsr	$d5e <_ZN12_GLOBAL__N_13putEcP6Status>
     ef0: a6 93        	ldx	$93                     ; 0x2093 <__heap_start+0x53>
     ef2: e6 92        	inc	$92                     ; 0x2092 <__heap_start+0x52>
     ef4: d0 01        	bne	$ef7 <_ZN12_GLOBAL__N_112print_stringEPKcP6Status+0xc8>
     ef6: e8           	inx
     ef7: 86 93        	stx	$93                     ; 0x2093 <__heap_start+0x53>
     ef9: a4 92        	ldy	$92                     ; 0x2092 <__heap_start+0x52>
     efb: 8a           	txa
     efc: d0 e3        	bne	$ee1 <_ZN12_GLOBAL__N_112print_stringEPKcP6Status+0xb2>
     efe: a5 92        	lda	$92                     ; 0x2092 <__heap_start+0x52>
     f00: d0 df        	bne	$ee1 <_ZN12_GLOBAL__N_112print_stringEPKcP6Status+0xb2>
     f02: a4 94        	ldy	$94                     ; 0x2094 <__heap_start+0x54>
     f04: d0 04        	bne	$f0a <_ZN12_GLOBAL__N_112print_stringEPKcP6Status+0xdb>
     f06: a5 91        	lda	$91                     ; 0x2091 <__heap_start+0x51>
     f08: f0 26        	beq	$f30 <_ZN12_GLOBAL__N_112print_stringEPKcP6Status+0x101>
     f0a: a2 ff        	ldx	#$ff
     f0c: c6 91        	dec	$91                     ; 0x2091 <__heap_start+0x51>
     f0e: e4 91        	cpx	$91                     ; 0x2091 <__heap_start+0x51>
     f10: d0 01        	bne	$f13 <_ZN12_GLOBAL__N_112print_stringEPKcP6Status+0xe4>
     f12: 88           	dey
     f13: 84 92        	sty	$92                     ; 0x2092 <__heap_start+0x52>
     f15: b2 8d        	lda	($8d)                   ; 0x208d <__heap_start+0x4d>
     f17: e6 8d        	inc	$8d                     ; 0x208d <__heap_start+0x4d>
     f19: d0 02        	bne	$f1d <_ZN12_GLOBAL__N_112print_stringEPKcP6Status+0xee>
     f1b: e6 8e        	inc	$8e                     ; 0x208e <__heap_start+0x4e>
     f1d: a6 8f        	ldx	$8f                     ; 0x208f <__heap_start+0x4f>
     f1f: 86 12        	stx	$12                     ; 0x2012 <__BLOCK_SIZE+0x12>
     f21: a6 90        	ldx	$90                     ; 0x2090 <__heap_start+0x50>
     f23: 86 13        	stx	$13                     ; 0x2013 <__BLOCK_SIZE+0x13>
     f25: 20 5e 0d     	jsr	$d5e <_ZN12_GLOBAL__N_13putEcP6Status>
     f28: a4 92        	ldy	$92                     ; 0x2092 <__heap_start+0x52>
     f2a: d0 de        	bne	$f0a <_ZN12_GLOBAL__N_112print_stringEPKcP6Status+0xdb>
     f2c: a5 91        	lda	$91                     ; 0x2091 <__heap_start+0x51>
     f2e: d0 da        	bne	$f0a <_ZN12_GLOBAL__N_112print_stringEPKcP6Status+0xdb>
     f30: 60           	rts
     f31: a6 12        	ldx	$12                     ; 0x2012 <__BLOCK_SIZE+0x12>
     f33: 86 91        	stx	$91                     ; 0x2091 <__heap_start+0x51>
     f35: a6 13        	ldx	$13                     ; 0x2013 <__BLOCK_SIZE+0x13>
     f37: 86 94        	stx	$94                     ; 0x2094 <__heap_start+0x54>
     f39: 4c 9e 0e     	jmp	$e9e <_ZN12_GLOBAL__N_112print_stringEPKcP6Status+0x6f>

00000f3c <printf>:
     f3c: 18           	clc
     f3d: a6 10        	ldx	$10                     ; 0x2010 <__BLOCK_SIZE+0x10>
     f3f: a4 11        	ldy	$11                     ; 0x2011 <__BLOCK_SIZE+0x11>
     f41: 86 83        	stx	$83                     ; 0x2083 <__heap_start+0x43>
     f43: 84 84        	sty	$84                     ; 0x2084 <__heap_start+0x44>
     f45: a6 83        	ldx	$83                     ; 0x2083 <__heap_start+0x43>
     f47: a4 84        	ldy	$84                     ; 0x2084 <__heap_start+0x44>
     f49: 86 6e        	stx	$6e                     ; 0x206e <__heap_start+0x2e>
     f4b: 84 6f        	sty	$6f                     ; 0x206f <__heap_start+0x2f>
     f4d: a2 ff        	ldx	#$ff
     f4f: 86 73        	stx	$73                     ; 0x2073 <__heap_start+0x33>
     f51: 86 74        	stx	$74                     ; 0x2074 <__heap_start+0x34>
     f53: 64 75        	stz	$75                     ; 0x2075 <__heap_start+0x35>
     f55: 64 76        	stz	$76                     ; 0x2076 <__heap_start+0x36>
     f57: e8           	inx
     f58: 86 42        	stx	$42                     ; 0x2042 <__heap_start+0x2>
     f5a: a2 00        	ldx	#$0
     f5c: 86 43        	stx	$43                     ; 0x2043 <__heap_start+0x3>
     f5e: a6 42        	ldx	$42                     ; 0x2042 <__heap_start+0x2>
     f60: a4 43        	ldy	$43                     ; 0x2043 <__heap_start+0x3>
     f62: 86 79        	stx	$79                     ; 0x2079 <__heap_start+0x39>
     f64: 84 7a        	sty	$7a                     ; 0x207a <__heap_start+0x3a>
     f66: a2 02        	ldx	#$2
     f68: 86 7f        	stx	$7f                     ; 0x207f <__heap_start+0x3f>
     f6a: 64 80        	stz	$80                     ; 0x2080 <__heap_start+0x40>
     f6c: a6 6e        	ldx	$6e                     ; 0x206e <__heap_start+0x2e>
     f6e: a4 6f        	ldy	$6f                     ; 0x206f <__heap_start+0x2f>
     f70: 86 81        	stx	$81                     ; 0x2081 <__heap_start+0x41>
     f72: 84 82        	sty	$82                     ; 0x2082 <__heap_start+0x42>
     f74: a2 65        	ldx	#$65
     f76: a0 00        	ldy	#$0
     f78: 86 12        	stx	$12                     ; 0x2012 <__BLOCK_SIZE+0x12>
     f7a: 84 13        	sty	$13                     ; 0x2013 <__BLOCK_SIZE+0x13>
     f7c: a0 01        	ldy	#$1
     f7e: a9 4c        	lda	#$4c
     f80: 18           	clc
     f81: 69 02        	adc	#$2
     f83: 85 8b        	sta	$8b                     ; 0x208b <__heap_start+0x4b>
     f85: a9 00        	lda	#$0
     f87: 69 00        	adc	#$0
     f89: 85 8c        	sta	$8c                     ; 0x208c <__heap_start+0x4c>
     f8b: e6 12        	inc	$12                     ; 0x2012 <__BLOCK_SIZE+0x12>
     f8d: d0 02        	bne	$f91 <printf+0x55>
     f8f: e6 13        	inc	$13                     ; 0x2013 <__BLOCK_SIZE+0x13>
     f91: a6 12        	ldx	$12                     ; 0x2012 <__BLOCK_SIZE+0x12>
     f93: 86 88        	stx	$88                     ; 0x2088 <__heap_start+0x48>
     f95: a6 13        	ldx	$13                     ; 0x2013 <__BLOCK_SIZE+0x13>
     f97: 86 89        	stx	$89                     ; 0x2089 <__heap_start+0x49>
     f99: a2 1d        	ldx	#$1d
     f9b: 86 46        	stx	$46                     ; 0x2046 <__heap_start+0x6>
     f9d: a2 1f        	ldx	#$1f
     f9f: 86 47        	stx	$47                     ; 0x2047 <__heap_start+0x7>
     fa1: a6 46        	ldx	$46                     ; 0x2046 <__heap_start+0x6>
     fa3: 86 44        	stx	$44                     ; 0x2044 <__heap_start+0x4>
     fa5: a6 47        	ldx	$47                     ; 0x2047 <__heap_start+0x7>
     fa7: 86 45        	stx	$45                     ; 0x2045 <__heap_start+0x5>
     fa9: b2 46        	lda	($46)                   ; 0x2046 <__heap_start+0x6>
     fab: c9 25        	cmp	#$25
     fad: f0 21        	beq	$fd0 <printf+0x94>
     faf: aa           	tax
     fb0: d0 03        	bne	$fb5 <printf+0x79>
     fb2: 4c ee 1a     	jmp	$1aee <printf+0xbb2>
     fb5: 20 4c 0d     	jsr	$d4c <__putchar>
     fb8: a0 01        	ldy	#$1
     fba: e6 44        	inc	$44                     ; 0x2044 <__heap_start+0x4>
     fbc: d0 02        	bne	$fc0 <printf+0x84>
     fbe: e6 45        	inc	$45                     ; 0x2045 <__heap_start+0x5>
     fc0: e6 75        	inc	$75                     ; 0x2075 <__heap_start+0x35>
     fc2: d0 02        	bne	$fc6 <printf+0x8a>
     fc4: e6 76        	inc	$76                     ; 0x2076 <__heap_start+0x36>
     fc6: a6 44        	ldx	$44                     ; 0x2044 <__heap_start+0x4>
     fc8: 86 46        	stx	$46                     ; 0x2046 <__heap_start+0x6>
     fca: a6 45        	ldx	$45                     ; 0x2045 <__heap_start+0x5>
     fcc: 86 47        	stx	$47                     ; 0x2047 <__heap_start+0x7>
     fce: 80 d1        	bra	$fa1 <printf+0x65>
     fd0: a6 46        	ldx	$46                     ; 0x2046 <__heap_start+0x6>
     fd2: 86 12        	stx	$12                     ; 0x2012 <__BLOCK_SIZE+0x12>
     fd4: a6 47        	ldx	$47                     ; 0x2047 <__heap_start+0x7>
     fd6: 86 13        	stx	$13                     ; 0x2013 <__BLOCK_SIZE+0x13>
     fd8: e6 12        	inc	$12                     ; 0x2012 <__BLOCK_SIZE+0x12>
     fda: d0 02        	bne	$fde <printf+0xa2>
     fdc: e6 13        	inc	$13                     ; 0x2013 <__BLOCK_SIZE+0x13>
     fde: b1 44        	lda	($44),y                 ; 0x2044 <__heap_start+0x4>
     fe0: c9 25        	cmp	#$25
     fe2: d0 16        	bne	$ffa <printf+0xbe>
     fe4: a4 75        	ldy	$75                     ; 0x2075 <__heap_start+0x35>
     fe6: a5 76        	lda	$76                     ; 0x2076 <__heap_start+0x36>
     fe8: c5 74        	cmp	$74                     ; 0x2074 <__heap_start+0x34>
     fea: f0 03        	beq	$fef <printf+0xb3>
     fec: 4c 00 11     	jmp	$1100 <printf+0x1c4>
     fef: a6 73        	ldx	$73                     ; 0x2073 <__heap_start+0x33>
     ff1: 86 12        	stx	$12                     ; 0x2012 <__BLOCK_SIZE+0x12>
     ff3: 84 13        	sty	$13                     ; 0x2013 <__BLOCK_SIZE+0x13>
     ff5: c4 12        	cpy	$12                     ; 0x2012 <__BLOCK_SIZE+0x12>
     ff7: 4c 04 11     	jmp	$1104 <printf+0x1c8>
     ffa: 64 71        	stz	$71                     ; 0x2071 <__heap_start+0x31>
     ffc: 64 72        	stz	$72                     ; 0x2072 <__heap_start+0x32>
     ffe: 64 70        	stz	$70                     ; 0x2070 <__heap_start+0x30>
    1000: 64 7b        	stz	$7b                     ; 0x207b <__heap_start+0x3b>
    1002: 64 7c        	stz	$7c                     ; 0x207c <__heap_start+0x3c>
    1004: a2 ff        	ldx	#$ff
    1006: 86 7d        	stx	$7d                     ; 0x207d <__heap_start+0x3d>
    1008: 86 7e        	stx	$7e                     ; 0x207e <__heap_start+0x3e>
    100a: 64 41        	stz	$41                     ; 0x2041 <__heap_start+0x1>
    100c: 80 33        	bra	$1041 <printf+0x105>
    100e: a2 02        	ldx	#$2
    1010: 80 15        	bra	$1027 <printf+0xeb>
    1012: e0 20        	cpx	#$20
    1014: f0 15        	beq	$102b <printf+0xef>
    1016: 86 15        	stx	$15                     ; 0x2015 <__BLOCK_SIZE+0x15>
    1018: e0 23        	cpx	#$23
    101a: f0 03        	beq	$101f <printf+0xe3>
    101c: 4c 9e 10     	jmp	$109e <printf+0x162>
    101f: a5 41        	lda	$41                     ; 0x2041 <__heap_start+0x1>
    1021: a2 04        	ldx	#$4
    1023: 80 02        	bra	$1027 <printf+0xeb>
    1025: a2 10        	ldx	#$10
    1027: 86 14        	stx	$14                     ; 0x2014 <__BLOCK_SIZE+0x14>
    1029: 80 06        	bra	$1031 <printf+0xf5>
    102b: a2 08        	ldx	#$8
    102d: 86 14        	stx	$14                     ; 0x2014 <__BLOCK_SIZE+0x14>
    102f: a5 41        	lda	$41                     ; 0x2041 <__heap_start+0x1>
    1031: 05 14        	ora	$14                     ; 0x2014 <__BLOCK_SIZE+0x14>
    1033: 85 41        	sta	$41                     ; 0x2041 <__heap_start+0x1>
    1035: 85 71        	sta	$71                     ; 0x2071 <__heap_start+0x31>
    1037: a2 00        	ldx	#$0
    1039: 86 72        	stx	$72                     ; 0x2072 <__heap_start+0x32>
    103b: e6 12        	inc	$12                     ; 0x2012 <__BLOCK_SIZE+0x12>
    103d: d0 02        	bne	$1041 <printf+0x105>
    103f: e6 13        	inc	$13                     ; 0x2013 <__BLOCK_SIZE+0x13>
    1041: b2 12        	lda	($12)                   ; 0x2012 <__BLOCK_SIZE+0x12>
    1043: 38           	sec
    1044: aa           	tax
    1045: e9 2a        	sbc	#$2a
    1047: c9 07        	cmp	#$7
    1049: b0 c7        	bcs	$1012 <printf+0xd6>
    104b: 86 15        	stx	$15                     ; 0x2015 <__BLOCK_SIZE+0x15>
    104d: 0a           	asl
    104e: aa           	tax
    104f: a0 01        	ldy	#$1
    1051: 84 14        	sty	$14                     ; 0x2014 <__BLOCK_SIZE+0x14>
    1053: a5 41        	lda	$41                     ; 0x2041 <__heap_start+0x1>
    1055: 7c 8c 1e     	jmp	($1e8c,x)               ; 0x1e8c <__set_v+0x1>
    1058: a5 81        	lda	$81                     ; 0x2081 <__heap_start+0x41>
    105a: a6 82        	ldx	$82                     ; 0x2082 <__heap_start+0x42>
    105c: 85 16        	sta	$16                     ; 0x2016 <__BLOCK_SIZE+0x16>
    105e: 86 17        	stx	$17                     ; 0x2017 <__BLOCK_SIZE+0x17>
    1060: 18           	clc
    1061: 69 02        	adc	#$2
    1063: a8           	tay
    1064: 8a           	txa
    1065: 69 00        	adc	#$0
    1067: 84 81        	sty	$81                     ; 0x2081 <__heap_start+0x41>
    1069: 85 82        	sta	$82                     ; 0x2082 <__heap_start+0x42>
    106b: b2 16        	lda	($16)                   ; 0x2016 <__BLOCK_SIZE+0x16>
    106d: 85 15        	sta	$15                     ; 0x2015 <__BLOCK_SIZE+0x15>
    106f: a0 01        	ldy	#$1
    1071: b1 16        	lda	($16),y                 ; 0x2016 <__BLOCK_SIZE+0x16>
    1073: 85 14        	sta	$14                     ; 0x2014 <__BLOCK_SIZE+0x14>
    1075: 10 15        	bpl	$108c <printf+0x150>
    1077: a5 41        	lda	$41                     ; 0x2041 <__heap_start+0x1>
    1079: 09 01        	ora	#$1
    107b: 85 41        	sta	$41                     ; 0x2041 <__heap_start+0x1>
    107d: 85 71        	sta	$71                     ; 0x2071 <__heap_start+0x31>
    107f: a2 00        	ldx	#$0
    1081: 86 72        	stx	$72                     ; 0x2072 <__heap_start+0x32>
    1083: 8a           	txa
    1084: 38           	sec
    1085: e5 15        	sbc	$15                     ; 0x2015 <__BLOCK_SIZE+0x15>
    1087: 85 15        	sta	$15                     ; 0x2015 <__BLOCK_SIZE+0x15>
    1089: 8a           	txa
    108a: e5 14        	sbc	$14                     ; 0x2014 <__BLOCK_SIZE+0x14>
    108c: a6 15        	ldx	$15                     ; 0x2015 <__BLOCK_SIZE+0x15>
    108e: 86 7b        	stx	$7b                     ; 0x207b <__heap_start+0x3b>
    1090: 85 7c        	sta	$7c                     ; 0x207c <__heap_start+0x3c>
    1092: e6 12        	inc	$12                     ; 0x2012 <__BLOCK_SIZE+0x12>
    1094: f0 03        	beq	$1099 <printf+0x15d>
    1096: 4c 52 11     	jmp	$1152 <printf+0x216>
    1099: e6 13        	inc	$13                     ; 0x2013 <__BLOCK_SIZE+0x13>
    109b: 4c 52 11     	jmp	$1152 <printf+0x216>
    109e: 18           	clc
    109f: a5 15        	lda	$15                     ; 0x2015 <__BLOCK_SIZE+0x15>
    10a1: 69 d0        	adc	#$d0
    10a3: c9 0a        	cmp	#$a
    10a5: 90 03        	bcc	$10aa <printf+0x16e>
    10a7: 4c 44 11     	jmp	$1144 <printf+0x208>
    10aa: a6 15        	ldx	$15                     ; 0x2015 <__BLOCK_SIZE+0x15>
    10ac: 86 14        	stx	$14                     ; 0x2014 <__BLOCK_SIZE+0x14>
    10ae: 64 16        	stz	$16                     ; 0x2016 <__BLOCK_SIZE+0x16>
    10b0: 64 15        	stz	$15                     ; 0x2015 <__BLOCK_SIZE+0x15>
    10b2: 64 17        	stz	$17                     ; 0x2017 <__BLOCK_SIZE+0x17>
    10b4: a0 01        	ldy	#$1
    10b6: 06 16        	asl	$16                     ; 0x2016 <__BLOCK_SIZE+0x16>
    10b8: 26 17        	rol	$17                     ; 0x2017 <__BLOCK_SIZE+0x17>
    10ba: a5 16        	lda	$16                     ; 0x2016 <__BLOCK_SIZE+0x16>
    10bc: 0a           	asl
    10bd: aa           	tax
    10be: a5 17        	lda	$17                     ; 0x2017 <__BLOCK_SIZE+0x17>
    10c0: 2a           	rol
    10c1: 86 18        	stx	$18                     ; 0x2018 <__BLOCK_SIZE+0x18>
    10c3: 06 18        	asl	$18                     ; 0x2018 <__BLOCK_SIZE+0x18>
    10c5: 2a           	rol
    10c6: aa           	tax
    10c7: a5 18        	lda	$18                     ; 0x2018 <__BLOCK_SIZE+0x18>
    10c9: 18           	clc
    10ca: 65 16        	adc	$16                     ; 0x2016 <__BLOCK_SIZE+0x16>
    10cc: 85 16        	sta	$16                     ; 0x2016 <__BLOCK_SIZE+0x16>
    10ce: 8a           	txa
    10cf: 65 17        	adc	$17                     ; 0x2017 <__BLOCK_SIZE+0x17>
    10d1: 85 17        	sta	$17                     ; 0x2017 <__BLOCK_SIZE+0x17>
    10d3: a5 16        	lda	$16                     ; 0x2016 <__BLOCK_SIZE+0x16>
    10d5: 18           	clc
    10d6: 65 14        	adc	$14                     ; 0x2014 <__BLOCK_SIZE+0x14>
    10d8: 85 14        	sta	$14                     ; 0x2014 <__BLOCK_SIZE+0x14>
    10da: a5 17        	lda	$17                     ; 0x2017 <__BLOCK_SIZE+0x17>
    10dc: 65 15        	adc	$15                     ; 0x2015 <__BLOCK_SIZE+0x15>
    10de: aa           	tax
    10df: 18           	clc
    10e0: a5 14        	lda	$14                     ; 0x2014 <__BLOCK_SIZE+0x14>
    10e2: 69 d0        	adc	#$d0
    10e4: 85 16        	sta	$16                     ; 0x2016 <__BLOCK_SIZE+0x16>
    10e6: 8a           	txa
    10e7: 69 ff        	adc	#$ff
    10e9: 85 17        	sta	$17                     ; 0x2017 <__BLOCK_SIZE+0x17>
    10eb: b1 12        	lda	($12),y                 ; 0x2012 <__BLOCK_SIZE+0x12>
    10ed: 85 14        	sta	$14                     ; 0x2014 <__BLOCK_SIZE+0x14>
    10ef: 18           	clc
    10f0: 69 d0        	adc	#$d0
    10f2: e6 12        	inc	$12                     ; 0x2012 <__BLOCK_SIZE+0x12>
    10f4: d0 02        	bne	$10f8 <printf+0x1bc>
    10f6: e6 13        	inc	$13                     ; 0x2013 <__BLOCK_SIZE+0x13>
    10f8: c9 0a        	cmp	#$a
    10fa: 64 15        	stz	$15                     ; 0x2015 <__BLOCK_SIZE+0x15>
    10fc: 90 b8        	bcc	$10b6 <printf+0x17a>
    10fe: 80 4a        	bra	$114a <printf+0x20e>
    1100: 84 13        	sty	$13                     ; 0x2013 <__BLOCK_SIZE+0x13>
    1102: c5 74        	cmp	$74                     ; 0x2074 <__heap_start+0x34>
    1104: a0 01        	ldy	#$1
    1106: b0 26        	bcs	$112e <printf+0x1f2>
    1108: a6 80        	ldx	$80                     ; 0x2080 <__heap_start+0x40>
    110a: e4 43        	cpx	$43                     ; 0x2043 <__heap_start+0x3>
    110c: d0 19        	bne	$1127 <printf+0x1eb>
    110e: a6 7f        	ldx	$7f                     ; 0x207f <__heap_start+0x3f>
    1110: e4 42        	cpx	$42                     ; 0x2042 <__heap_start+0x2>
    1112: d0 13        	bne	$1127 <printf+0x1eb>
    1114: 18           	clc
    1115: aa           	tax
    1116: a5 13        	lda	$13                     ; 0x2013 <__BLOCK_SIZE+0x13>
    1118: 65 79        	adc	$79                     ; 0x2079 <__heap_start+0x39>
    111a: 85 12        	sta	$12                     ; 0x2012 <__BLOCK_SIZE+0x12>
    111c: 8a           	txa
    111d: 65 7a        	adc	$7a                     ; 0x207a <__heap_start+0x3a>
    111f: 85 13        	sta	$13                     ; 0x2013 <__BLOCK_SIZE+0x13>
    1121: a9 25        	lda	#$25
    1123: 92 12        	sta	($12)                   ; 0x2012 <__BLOCK_SIZE+0x12>
    1125: 80 07        	bra	$112e <printf+0x1f2>
    1127: a9 25        	lda	#$25
    1129: 20 4c 0d     	jsr	$d4c <__putchar>
    112c: a0 01        	ldy	#$1
    112e: e6 75        	inc	$75                     ; 0x2075 <__heap_start+0x35>
    1130: d0 02        	bne	$1134 <printf+0x1f8>
    1132: e6 76        	inc	$76                     ; 0x2076 <__heap_start+0x36>
    1134: a5 44        	lda	$44                     ; 0x2044 <__heap_start+0x4>
    1136: 18           	clc
    1137: 69 02        	adc	#$2
    1139: 85 46        	sta	$46                     ; 0x2046 <__heap_start+0x6>
    113b: a5 45        	lda	$45                     ; 0x2045 <__heap_start+0x5>
    113d: 69 00        	adc	#$0
    113f: 85 47        	sta	$47                     ; 0x2047 <__heap_start+0x7>
    1141: 4c a1 0f     	jmp	$fa1 <printf+0x65>
    1144: 64 16        	stz	$16                     ; 0x2016 <__BLOCK_SIZE+0x16>
    1146: 64 17        	stz	$17                     ; 0x2017 <__BLOCK_SIZE+0x17>
    1148: a0 01        	ldy	#$1
    114a: a6 16        	ldx	$16                     ; 0x2016 <__BLOCK_SIZE+0x16>
    114c: 86 7b        	stx	$7b                     ; 0x207b <__heap_start+0x3b>
    114e: a5 17        	lda	$17                     ; 0x2017 <__BLOCK_SIZE+0x17>
    1150: 85 7c        	sta	$7c                     ; 0x207c <__heap_start+0x3c>
    1152: 86 4a        	stx	$4a                     ; 0x204a <__heap_start+0xa>
    1154: 85 48        	sta	$48                     ; 0x2048 <__heap_start+0x8>
    1156: b2 12        	lda	($12)                   ; 0x2012 <__BLOCK_SIZE+0x12>
    1158: a2 ff        	ldx	#$ff
    115a: c9 2e        	cmp	#$2e
    115c: d0 39        	bne	$1197 <printf+0x25b>
    115e: b1 12        	lda	($12),y                 ; 0x2012 <__BLOCK_SIZE+0x12>
    1160: c9 2a        	cmp	#$2a
    1162: d0 38        	bne	$119c <printf+0x260>
    1164: a5 81        	lda	$81                     ; 0x2081 <__heap_start+0x41>
    1166: a6 82        	ldx	$82                     ; 0x2082 <__heap_start+0x42>
    1168: 85 14        	sta	$14                     ; 0x2014 <__BLOCK_SIZE+0x14>
    116a: 86 15        	stx	$15                     ; 0x2015 <__BLOCK_SIZE+0x15>
    116c: 18           	clc
    116d: 69 02        	adc	#$2
    116f: 85 16        	sta	$16                     ; 0x2016 <__BLOCK_SIZE+0x16>
    1171: 8a           	txa
    1172: 69 00        	adc	#$0
    1174: a6 16        	ldx	$16                     ; 0x2016 <__BLOCK_SIZE+0x16>
    1176: 86 81        	stx	$81                     ; 0x2081 <__heap_start+0x41>
    1178: 85 82        	sta	$82                     ; 0x2082 <__heap_start+0x42>
    117a: a5 12        	lda	$12                     ; 0x2012 <__BLOCK_SIZE+0x12>
    117c: 18           	clc
    117d: 69 02        	adc	#$2
    117f: 85 12        	sta	$12                     ; 0x2012 <__BLOCK_SIZE+0x12>
    1181: a5 13        	lda	$13                     ; 0x2013 <__BLOCK_SIZE+0x13>
    1183: 69 00        	adc	#$0
    1185: 85 13        	sta	$13                     ; 0x2013 <__BLOCK_SIZE+0x13>
    1187: b2 14        	lda	($14)                   ; 0x2014 <__BLOCK_SIZE+0x14>
    1189: aa           	tax
    118a: b1 14        	lda	($14),y                 ; 0x2014 <__BLOCK_SIZE+0x14>
    118c: 86 18        	stx	$18                     ; 0x2018 <__BLOCK_SIZE+0x18>
    118e: 86 7d        	stx	$7d                     ; 0x207d <__heap_start+0x3d>
    1190: 85 19        	sta	$19                     ; 0x2019 <__BLOCK_SIZE+0x19>
    1192: 85 7e        	sta	$7e                     ; 0x207e <__heap_start+0x3e>
    1194: 4c 47 12     	jmp	$1247 <printf+0x30b>
    1197: 86 18        	stx	$18                     ; 0x2018 <__BLOCK_SIZE+0x18>
    1199: 4c 57 12     	jmp	$1257 <printf+0x31b>
    119c: 18           	clc
    119d: 85 17        	sta	$17                     ; 0x2017 <__BLOCK_SIZE+0x17>
    119f: 69 d0        	adc	#$d0
    11a1: c9 0a        	cmp	#$a
    11a3: 90 03        	bcc	$11a8 <printf+0x26c>
    11a5: 4c 39 12     	jmp	$1239 <printf+0x2fd>
    11a8: 64 16        	stz	$16                     ; 0x2016 <__BLOCK_SIZE+0x16>
    11aa: a2 01        	ldx	#$1
    11ac: 64 18        	stz	$18                     ; 0x2018 <__BLOCK_SIZE+0x18>
    11ae: 64 19        	stz	$19                     ; 0x2019 <__BLOCK_SIZE+0x19>
    11b0: a0 01        	ldy	#$1
    11b2: 64 1a        	stz	$1a                     ; 0x201a <__BLOCK_SIZE+0x1a>
    11b4: 5a           	phy
    11b5: a4 1a        	ldy	$1a                     ; 0x201a <__BLOCK_SIZE+0x1a>
    11b7: 84 14        	sty	$14                     ; 0x2014 <__BLOCK_SIZE+0x14>
    11b9: 86 15        	stx	$15                     ; 0x2015 <__BLOCK_SIZE+0x15>
    11bb: 06 18        	asl	$18                     ; 0x2018 <__BLOCK_SIZE+0x18>
    11bd: 26 19        	rol	$19                     ; 0x2019 <__BLOCK_SIZE+0x19>
    11bf: a5 18        	lda	$18                     ; 0x2018 <__BLOCK_SIZE+0x18>
    11c1: 0a           	asl
    11c2: 85 1d        	sta	$1d                     ; 0x201d <__BLOCK_SIZE+0x1d>
    11c4: a5 19        	lda	$19                     ; 0x2019 <__BLOCK_SIZE+0x19>
    11c6: 2a           	rol
    11c7: 06 1d        	asl	$1d                     ; 0x201d <__BLOCK_SIZE+0x1d>
    11c9: 2a           	rol
    11ca: 85 1e        	sta	$1e                     ; 0x201e <__BLOCK_SIZE+0x1e>
    11cc: a5 1d        	lda	$1d                     ; 0x201d <__BLOCK_SIZE+0x1d>
    11ce: 18           	clc
    11cf: 65 18        	adc	$18                     ; 0x2018 <__BLOCK_SIZE+0x18>
    11d1: 85 18        	sta	$18                     ; 0x2018 <__BLOCK_SIZE+0x18>
    11d3: a5 1e        	lda	$1e                     ; 0x201e <__BLOCK_SIZE+0x1e>
    11d5: 65 19        	adc	$19                     ; 0x2019 <__BLOCK_SIZE+0x19>
    11d7: 85 19        	sta	$19                     ; 0x2019 <__BLOCK_SIZE+0x19>
    11d9: a5 18        	lda	$18                     ; 0x2018 <__BLOCK_SIZE+0x18>
    11db: 18           	clc
    11dc: 65 17        	adc	$17                     ; 0x2017 <__BLOCK_SIZE+0x17>
    11de: 85 17        	sta	$17                     ; 0x2017 <__BLOCK_SIZE+0x17>
    11e0: a5 19        	lda	$19                     ; 0x2019 <__BLOCK_SIZE+0x19>
    11e2: 65 16        	adc	$16                     ; 0x2016 <__BLOCK_SIZE+0x16>
    11e4: 85 16        	sta	$16                     ; 0x2016 <__BLOCK_SIZE+0x16>
    11e6: 18           	clc
    11e7: a5 17        	lda	$17                     ; 0x2017 <__BLOCK_SIZE+0x17>
    11e9: 69 d0        	adc	#$d0
    11eb: 85 18        	sta	$18                     ; 0x2018 <__BLOCK_SIZE+0x18>
    11ed: a5 16        	lda	$16                     ; 0x2016 <__BLOCK_SIZE+0x16>
    11ef: 69 ff        	adc	#$ff
    11f1: 85 19        	sta	$19                     ; 0x2019 <__BLOCK_SIZE+0x19>
    11f3: e8           	inx
    11f4: d0 02        	bne	$11f8 <printf+0x2bc>
    11f6: e6 1a        	inc	$1a                     ; 0x201a <__BLOCK_SIZE+0x1a>
    11f8: a5 12        	lda	$12                     ; 0x2012 <__BLOCK_SIZE+0x12>
    11fa: 18           	clc
    11fb: 65 15        	adc	$15                     ; 0x2015 <__BLOCK_SIZE+0x15>
    11fd: 85 1d        	sta	$1d                     ; 0x201d <__BLOCK_SIZE+0x1d>
    11ff: a5 13        	lda	$13                     ; 0x2013 <__BLOCK_SIZE+0x13>
    1201: 65 14        	adc	$14                     ; 0x2014 <__BLOCK_SIZE+0x14>
    1203: a4 1d        	ldy	$1d                     ; 0x201d <__BLOCK_SIZE+0x1d>
    1205: 84 16        	sty	$16                     ; 0x2016 <__BLOCK_SIZE+0x16>
    1207: 7a           	ply
    1208: 85 17        	sta	$17                     ; 0x2017 <__BLOCK_SIZE+0x17>
    120a: b1 16        	lda	($16),y                 ; 0x2016 <__BLOCK_SIZE+0x16>
    120c: 85 17        	sta	$17                     ; 0x2017 <__BLOCK_SIZE+0x17>
    120e: 18           	clc
    120f: 69 d0        	adc	#$d0
    1211: c9 0a        	cmp	#$a
    1213: 64 16        	stz	$16                     ; 0x2016 <__BLOCK_SIZE+0x16>
    1215: b0 03        	bcs	$121a <printf+0x2de>
    1217: 4c b4 11     	jmp	$11b4 <printf+0x278>
    121a: a5 12        	lda	$12                     ; 0x2012 <__BLOCK_SIZE+0x12>
    121c: 18           	clc
    121d: 65 15        	adc	$15                     ; 0x2015 <__BLOCK_SIZE+0x15>
    121f: 85 12        	sta	$12                     ; 0x2012 <__BLOCK_SIZE+0x12>
    1221: a5 13        	lda	$13                     ; 0x2013 <__BLOCK_SIZE+0x13>
    1223: 65 14        	adc	$14                     ; 0x2014 <__BLOCK_SIZE+0x14>
    1225: 85 13        	sta	$13                     ; 0x2013 <__BLOCK_SIZE+0x13>
    1227: e6 12        	inc	$12                     ; 0x2012 <__BLOCK_SIZE+0x12>
    1229: d0 02        	bne	$122d <printf+0x2f1>
    122b: e6 13        	inc	$13                     ; 0x2013 <__BLOCK_SIZE+0x13>
    122d: a6 18        	ldx	$18                     ; 0x2018 <__BLOCK_SIZE+0x18>
    122f: 86 7d        	stx	$7d                     ; 0x207d <__heap_start+0x3d>
    1231: a6 19        	ldx	$19                     ; 0x2019 <__BLOCK_SIZE+0x19>
    1233: 86 7e        	stx	$7e                     ; 0x207e <__heap_start+0x3e>
    1235: a0 01        	ldy	#$1
    1237: 80 0e        	bra	$1247 <printf+0x30b>
    1239: e6 12        	inc	$12                     ; 0x2012 <__BLOCK_SIZE+0x12>
    123b: d0 02        	bne	$123f <printf+0x303>
    123d: e6 13        	inc	$13                     ; 0x2013 <__BLOCK_SIZE+0x13>
    123f: 64 18        	stz	$18                     ; 0x2018 <__BLOCK_SIZE+0x18>
    1241: 64 7d        	stz	$7d                     ; 0x207d <__heap_start+0x3d>
    1243: 64 7e        	stz	$7e                     ; 0x207e <__heap_start+0x3e>
    1245: 64 19        	stz	$19                     ; 0x2019 <__BLOCK_SIZE+0x19>
    1247: a5 41        	lda	$41                     ; 0x2041 <__heap_start+0x1>
    1249: 29 ef        	and	#$ef
    124b: 85 41        	sta	$41                     ; 0x2041 <__heap_start+0x1>
    124d: 85 71        	sta	$71                     ; 0x2071 <__heap_start+0x31>
    124f: a2 00        	ldx	#$0
    1251: 86 72        	stx	$72                     ; 0x2072 <__heap_start+0x32>
    1253: b2 12        	lda	($12)                   ; 0x2012 <__BLOCK_SIZE+0x12>
    1255: a6 19        	ldx	$19                     ; 0x2019 <__BLOCK_SIZE+0x19>
    1257: 86 15        	stx	$15                     ; 0x2015 <__BLOCK_SIZE+0x15>
    1259: a6 12        	ldx	$12                     ; 0x2012 <__BLOCK_SIZE+0x12>
    125b: 86 46        	stx	$46                     ; 0x2046 <__heap_start+0x6>
    125d: a6 13        	ldx	$13                     ; 0x2013 <__BLOCK_SIZE+0x13>
    125f: 86 47        	stx	$47                     ; 0x2047 <__heap_start+0x7>
    1261: e6 46        	inc	$46                     ; 0x2046 <__heap_start+0x6>
    1263: d0 02        	bne	$1267 <printf+0x32b>
    1265: e6 47        	inc	$47                     ; 0x2047 <__heap_start+0x7>
    1267: 85 14        	sta	$14                     ; 0x2014 <__BLOCK_SIZE+0x14>
    1269: 38           	sec
    126a: e9 6c        	sbc	#$6c
    126c: 50 02        	bvc	$1270 <printf+0x334>
    126e: 49 80        	eor	#$80
    1270: aa           	tax
    1271: 10 1d        	bpl	$1290 <printf+0x354>
    1273: a5 14        	lda	$14                     ; 0x2014 <__BLOCK_SIZE+0x14>
    1275: c9 4c        	cmp	#$4c
    1277: f0 27        	beq	$12a0 <printf+0x364>
    1279: c9 68        	cmp	#$68
    127b: d0 03        	bne	$1280 <printf+0x344>
    127d: 4c 07 13     	jmp	$1307 <printf+0x3cb>
    1280: a2 08        	ldx	#$8
    1282: c9 6a        	cmp	#$6a
    1284: d0 2e        	bne	$12b4 <printf+0x378>
    1286: a5 46        	lda	$46                     ; 0x2046 <__heap_start+0x6>
    1288: 85 12        	sta	$12                     ; 0x2012 <__BLOCK_SIZE+0x12>
    128a: a5 47        	lda	$47                     ; 0x2047 <__heap_start+0x7>
    128c: 85 13        	sta	$13                     ; 0x2013 <__BLOCK_SIZE+0x13>
    128e: 80 43        	bra	$12d3 <printf+0x397>
    1290: a6 14        	ldx	$14                     ; 0x2014 <__BLOCK_SIZE+0x14>
    1292: e0 6c        	cpx	#$6c
    1294: f0 23        	beq	$12b9 <printf+0x37d>
    1296: e0 74        	cpx	#$74
    1298: f0 12        	beq	$12ac <printf+0x370>
    129a: e0 7a        	cpx	#$7a
    129c: f0 0e        	beq	$12ac <printf+0x370>
    129e: 80 14        	bra	$12b4 <printf+0x378>
    12a0: a5 41        	lda	$41                     ; 0x2041 <__heap_start+0x1>
    12a2: 09 40        	ora	#$40
    12a4: 85 41        	sta	$41                     ; 0x2041 <__heap_start+0x1>
    12a6: 85 71        	sta	$71                     ; 0x2071 <__heap_start+0x31>
    12a8: a2 00        	ldx	#$0
    12aa: 86 72        	stx	$72                     ; 0x2072 <__heap_start+0x32>
    12ac: a6 46        	ldx	$46                     ; 0x2046 <__heap_start+0x6>
    12ae: 86 12        	stx	$12                     ; 0x2012 <__BLOCK_SIZE+0x12>
    12b0: a6 47        	ldx	$47                     ; 0x2047 <__heap_start+0x7>
    12b2: 86 13        	stx	$13                     ; 0x2013 <__BLOCK_SIZE+0x13>
    12b4: a2 02        	ldx	#$2
    12b6: 8a           	txa
    12b7: 80 1c        	bra	$12d5 <printf+0x399>
    12b9: b1 12        	lda	($12),y                 ; 0x2012 <__BLOCK_SIZE+0x12>
    12bb: a2 04        	ldx	#$4
    12bd: c9 6c        	cmp	#$6c
    12bf: f0 03        	beq	$12c4 <printf+0x388>
    12c1: 4c 06 16     	jmp	$1606 <printf+0x6ca>
    12c4: a5 12        	lda	$12                     ; 0x2012 <__BLOCK_SIZE+0x12>
    12c6: 18           	clc
    12c7: 69 02        	adc	#$2
    12c9: 85 12        	sta	$12                     ; 0x2012 <__BLOCK_SIZE+0x12>
    12cb: a5 13        	lda	$13                     ; 0x2013 <__BLOCK_SIZE+0x13>
    12cd: 69 00        	adc	#$0
    12cf: 85 13        	sta	$13                     ; 0x2013 <__BLOCK_SIZE+0x13>
    12d1: a2 08        	ldx	#$8
    12d3: a9 08        	lda	#$8
    12d5: 85 87        	sta	$87                     ; 0x2087 <__heap_start+0x47>
    12d7: b2 12        	lda	($12)                   ; 0x2012 <__BLOCK_SIZE+0x12>
    12d9: 5a           	phy
    12da: a4 12        	ldy	$12                     ; 0x2012 <__BLOCK_SIZE+0x12>
    12dc: 84 46        	sty	$46                     ; 0x2046 <__heap_start+0x6>
    12de: a4 13        	ldy	$13                     ; 0x2013 <__BLOCK_SIZE+0x13>
    12e0: 84 47        	sty	$47                     ; 0x2047 <__heap_start+0x7>
    12e2: 7a           	ply
    12e3: 86 42        	stx	$42                     ; 0x2042 <__heap_start+0x2>
    12e5: aa           	tax
    12e6: 38           	sec
    12e7: e9 63        	sbc	#$63
    12e9: c9 16        	cmp	#$16
    12eb: b0 39        	bcs	$1326 <printf+0x3ea>
    12ed: 0a           	asl
    12ee: aa           	tax
    12ef: 7c 9a 1e     	jmp	($1e9a,x)               ; 0x1e9a <__set_v+0xf>
    12f2: a6 15        	ldx	$15                     ; 0x2015 <__BLOCK_SIZE+0x15>
    12f4: 86 85        	stx	$85                     ; 0x2085 <__heap_start+0x45>
    12f6: a6 18        	ldx	$18                     ; 0x2018 <__BLOCK_SIZE+0x18>
    12f8: 86 8a        	stx	$8a                     ; 0x208a <__heap_start+0x4a>
    12fa: a0 0a        	ldy	#$a
    12fc: a2 0a        	ldx	#$a
    12fe: 86 86        	stx	$86                     ; 0x2086 <__heap_start+0x46>
    1300: 84 70        	sty	$70                     ; 0x2070 <__heap_start+0x30>
    1302: 64 4b        	stz	$4b                     ; 0x204b <__heap_start+0xb>
    1304: 4c 26 14     	jmp	$1426 <printf+0x4ea>
    1307: b1 12        	lda	($12),y                 ; 0x2012 <__BLOCK_SIZE+0x12>
    1309: a2 02        	ldx	#$2
    130b: c9 68        	cmp	#$68
    130d: f0 03        	beq	$1312 <printf+0x3d6>
    130f: 4c 0c 16     	jmp	$160c <printf+0x6d0>
    1312: a5 12        	lda	$12                     ; 0x2012 <__BLOCK_SIZE+0x12>
    1314: 18           	clc
    1315: 69 02        	adc	#$2
    1317: 85 12        	sta	$12                     ; 0x2012 <__BLOCK_SIZE+0x12>
    1319: a5 13        	lda	$13                     ; 0x2013 <__BLOCK_SIZE+0x13>
    131b: 69 00        	adc	#$0
    131d: 85 13        	sta	$13                     ; 0x2013 <__BLOCK_SIZE+0x13>
    131f: a2 01        	ldx	#$1
    1321: 86 87        	stx	$87                     ; 0x2087 <__heap_start+0x47>
    1323: e8           	inx
    1324: 80 b1        	bra	$12d7 <printf+0x39b>
    1326: e0 58        	cpx	#$58
    1328: f0 03        	beq	$132d <printf+0x3f1>
    132a: 4c aa 1a     	jmp	$1aaa <printf+0xb6e>
    132d: a6 15        	ldx	$15                     ; 0x2015 <__BLOCK_SIZE+0x15>
    132f: 86 85        	stx	$85                     ; 0x2085 <__heap_start+0x45>
    1331: a6 18        	ldx	$18                     ; 0x2018 <__BLOCK_SIZE+0x18>
    1333: 86 8a        	stx	$8a                     ; 0x208a <__heap_start+0x4a>
    1335: a2 10        	ldx	#$10
    1337: 86 70        	stx	$70                     ; 0x2070 <__heap_start+0x30>
    1339: a9 00        	lda	#$0
    133b: 09 01        	ora	#$1
    133d: a6 41        	ldx	$41                     ; 0x2041 <__heap_start+0x1>
    133f: 80 29        	bra	$136a <printf+0x42e>
    1341: a6 15        	ldx	$15                     ; 0x2015 <__BLOCK_SIZE+0x15>
    1343: 86 85        	stx	$85                     ; 0x2085 <__heap_start+0x45>
    1345: a6 18        	ldx	$18                     ; 0x2018 <__BLOCK_SIZE+0x18>
    1347: 86 8a        	stx	$8a                     ; 0x208a <__heap_start+0x4a>
    1349: a2 10        	ldx	#$10
    134b: 86 70        	stx	$70                     ; 0x2070 <__heap_start+0x30>
    134d: a5 41        	lda	$41                     ; 0x2041 <__heap_start+0x1>
    134f: 09 84        	ora	#$84
    1351: 80 10        	bra	$1363 <printf+0x427>
    1353: a6 15        	ldx	$15                     ; 0x2015 <__BLOCK_SIZE+0x15>
    1355: 86 85        	stx	$85                     ; 0x2085 <__heap_start+0x45>
    1357: a6 18        	ldx	$18                     ; 0x2018 <__BLOCK_SIZE+0x18>
    1359: 86 8a        	stx	$8a                     ; 0x208a <__heap_start+0x4a>
    135b: a2 10        	ldx	#$10
    135d: 86 70        	stx	$70                     ; 0x2070 <__heap_start+0x30>
    135f: a5 41        	lda	$41                     ; 0x2041 <__heap_start+0x1>
    1361: 09 80        	ora	#$80
    1363: aa           	tax
    1364: a9 00        	lda	#$0
    1366: 09 01        	ora	#$1
    1368: 86 41        	stx	$41                     ; 0x2041 <__heap_start+0x1>
    136a: 86 71        	stx	$71                     ; 0x2071 <__heap_start+0x31>
    136c: 85 4b        	sta	$4b                     ; 0x204b <__heap_start+0xb>
    136e: 85 72        	sta	$72                     ; 0x2072 <__heap_start+0x32>
    1370: a2 10        	ldx	#$10
    1372: 86 86        	stx	$86                     ; 0x2086 <__heap_start+0x46>
    1374: 4c 26 14     	jmp	$1426 <printf+0x4ea>
    1377: a5 81        	lda	$81                     ; 0x2081 <__heap_start+0x41>
    1379: a6 82        	ldx	$82                     ; 0x2082 <__heap_start+0x42>
    137b: 85 12        	sta	$12                     ; 0x2012 <__BLOCK_SIZE+0x12>
    137d: 86 13        	stx	$13                     ; 0x2013 <__BLOCK_SIZE+0x13>
    137f: 18           	clc
    1380: 69 02        	adc	#$2
    1382: 85 14        	sta	$14                     ; 0x2014 <__BLOCK_SIZE+0x14>
    1384: 8a           	txa
    1385: 69 00        	adc	#$0
    1387: a6 14        	ldx	$14                     ; 0x2014 <__BLOCK_SIZE+0x14>
    1389: 86 81        	stx	$81                     ; 0x2081 <__heap_start+0x41>
    138b: 85 82        	sta	$82                     ; 0x2082 <__heap_start+0x42>
    138d: b2 12        	lda	($12)                   ; 0x2012 <__BLOCK_SIZE+0x12>
    138f: aa           	tax
    1390: b1 12        	lda	($12),y                 ; 0x2012 <__BLOCK_SIZE+0x12>
    1392: 86 12        	stx	$12                     ; 0x2012 <__BLOCK_SIZE+0x12>
    1394: 85 13        	sta	$13                     ; 0x2013 <__BLOCK_SIZE+0x13>
    1396: a5 75        	lda	$75                     ; 0x2075 <__heap_start+0x35>
    1398: a6 76        	ldx	$76                     ; 0x2076 <__heap_start+0x36>
    139a: 92 12        	sta	($12)                   ; 0x2012 <__BLOCK_SIZE+0x12>
    139c: 8a           	txa
    139d: 91 12        	sta	($12),y                 ; 0x2012 <__BLOCK_SIZE+0x12>
    139f: 4c ff 13     	jmp	$13ff <printf+0x4c3>
    13a2: a5 81        	lda	$81                     ; 0x2081 <__heap_start+0x41>
    13a4: a6 82        	ldx	$82                     ; 0x2082 <__heap_start+0x42>
    13a6: 85 12        	sta	$12                     ; 0x2012 <__BLOCK_SIZE+0x12>
    13a8: 86 13        	stx	$13                     ; 0x2013 <__BLOCK_SIZE+0x13>
    13aa: 18           	clc
    13ab: 69 02        	adc	#$2
    13ad: 85 14        	sta	$14                     ; 0x2014 <__BLOCK_SIZE+0x14>
    13af: 8a           	txa
    13b0: 69 00        	adc	#$0
    13b2: a6 14        	ldx	$14                     ; 0x2014 <__BLOCK_SIZE+0x14>
    13b4: 86 81        	stx	$81                     ; 0x2081 <__heap_start+0x41>
    13b6: 85 82        	sta	$82                     ; 0x2082 <__heap_start+0x42>
    13b8: b2 12        	lda	($12)                   ; 0x2012 <__BLOCK_SIZE+0x12>
    13ba: aa           	tax
    13bb: b1 12        	lda	($12),y                 ; 0x2012 <__BLOCK_SIZE+0x12>
    13bd: 86 12        	stx	$12                     ; 0x2012 <__BLOCK_SIZE+0x12>
    13bf: 85 13        	sta	$13                     ; 0x2013 <__BLOCK_SIZE+0x13>
    13c1: 80 2f        	bra	$13f2 <printf+0x4b6>
    13c3: a6 15        	ldx	$15                     ; 0x2015 <__BLOCK_SIZE+0x15>
    13c5: 86 85        	stx	$85                     ; 0x2085 <__heap_start+0x45>
    13c7: a6 18        	ldx	$18                     ; 0x2018 <__BLOCK_SIZE+0x18>
    13c9: 86 8a        	stx	$8a                     ; 0x208a <__heap_start+0x4a>
    13cb: a0 08        	ldy	#$8
    13cd: a2 08        	ldx	#$8
    13cf: 80 45        	bra	$1416 <printf+0x4da>
    13d1: a5 81        	lda	$81                     ; 0x2081 <__heap_start+0x41>
    13d3: a6 82        	ldx	$82                     ; 0x2082 <__heap_start+0x42>
    13d5: 85 12        	sta	$12                     ; 0x2012 <__BLOCK_SIZE+0x12>
    13d7: 86 13        	stx	$13                     ; 0x2013 <__BLOCK_SIZE+0x13>
    13d9: 18           	clc
    13da: 69 02        	adc	#$2
    13dc: a8           	tay
    13dd: 8a           	txa
    13de: 69 00        	adc	#$0
    13e0: 84 81        	sty	$81                     ; 0x2081 <__heap_start+0x41>
    13e2: 85 82        	sta	$82                     ; 0x2082 <__heap_start+0x42>
    13e4: b2 12        	lda	($12)                   ; 0x2012 <__BLOCK_SIZE+0x12>
    13e6: 85 63        	sta	$63                     ; 0x2063 <__heap_start+0x23>
    13e8: 64 64        	stz	$64                     ; 0x2064 <__heap_start+0x24>
    13ea: a2 63        	ldx	#$63
    13ec: 86 12        	stx	$12                     ; 0x2012 <__BLOCK_SIZE+0x12>
    13ee: a2 00        	ldx	#$0
    13f0: 86 13        	stx	$13                     ; 0x2013 <__BLOCK_SIZE+0x13>
    13f2: a2 70        	ldx	#$70
    13f4: 86 14        	stx	$14                     ; 0x2014 <__BLOCK_SIZE+0x14>
    13f6: a2 00        	ldx	#$0
    13f8: 86 15        	stx	$15                     ; 0x2015 <__BLOCK_SIZE+0x15>
    13fa: 20 2f 0e     	jsr	$e2f <_ZN12_GLOBAL__N_112print_stringEPKcP6Status>
    13fd: a0 01        	ldy	#$1
    13ff: a2 00        	ldx	#$0
    1401: 86 42        	stx	$42                     ; 0x2042 <__heap_start+0x2>
    1403: a2 00        	ldx	#$0
    1405: 86 43        	stx	$43                     ; 0x2043 <__heap_start+0x3>
    1407: 4c 92 1a     	jmp	$1a92 <printf+0xb56>
    140a: a6 15        	ldx	$15                     ; 0x2015 <__BLOCK_SIZE+0x15>
    140c: 86 85        	stx	$85                     ; 0x2085 <__heap_start+0x45>
    140e: a6 18        	ldx	$18                     ; 0x2018 <__BLOCK_SIZE+0x18>
    1410: 86 8a        	stx	$8a                     ; 0x208a <__heap_start+0x4a>
    1412: a0 0a        	ldy	#$a
    1414: a2 0a        	ldx	#$a
    1416: 86 86        	stx	$86                     ; 0x2086 <__heap_start+0x46>
    1418: 84 70        	sty	$70                     ; 0x2070 <__heap_start+0x30>
    141a: a9 00        	lda	#$0
    141c: 09 01        	ora	#$1
    141e: a6 41        	ldx	$41                     ; 0x2041 <__heap_start+0x1>
    1420: 86 71        	stx	$71                     ; 0x2071 <__heap_start+0x31>
    1422: 85 4b        	sta	$4b                     ; 0x204b <__heap_start+0xb>
    1424: 85 72        	sta	$72                     ; 0x2072 <__heap_start+0x32>
    1426: a5 87        	lda	$87                     ; 0x2087 <__heap_start+0x47>
    1428: 85 65        	sta	$65                     ; 0x2065 <__heap_start+0x25>
    142a: a4 81        	ldy	$81                     ; 0x2081 <__heap_start+0x41>
    142c: a6 82        	ldx	$82                     ; 0x2082 <__heap_start+0x42>
    142e: 86 49        	stx	$49                     ; 0x2049 <__heap_start+0x9>
    1430: 84 14        	sty	$14                     ; 0x2014 <__BLOCK_SIZE+0x14>
    1432: 84 40        	sty	$40                     ; 0x2040 <__heap_start>
    1434: 86 15        	stx	$15                     ; 0x2015 <__BLOCK_SIZE+0x15>
    1436: a6 88        	ldx	$88                     ; 0x2088 <__heap_start+0x48>
    1438: 86 12        	stx	$12                     ; 0x2012 <__BLOCK_SIZE+0x12>
    143a: a6 89        	ldx	$89                     ; 0x2089 <__heap_start+0x49>
    143c: 86 13        	stx	$13                     ; 0x2013 <__BLOCK_SIZE+0x13>
    143e: a2 00        	ldx	#$0
    1440: 85 43        	sta	$43                     ; 0x2043 <__heap_start+0x3>
    1442: 20 3a 1e     	jsr	$1e3a <memcpy>
    1445: 18           	clc
    1446: a5 40        	lda	$40                     ; 0x2040 <__heap_start>
    1448: 65 42        	adc	$42                     ; 0x2042 <__heap_start+0x2>
    144a: aa           	tax
    144b: a5 49        	lda	$49                     ; 0x2049 <__heap_start+0x9>
    144d: 69 00        	adc	#$0
    144f: 86 81        	stx	$81                     ; 0x2081 <__heap_start+0x41>
    1451: 85 82        	sta	$82                     ; 0x2082 <__heap_start+0x42>
    1453: a5 4b        	lda	$4b                     ; 0x204b <__heap_start+0xb>
    1455: 29 01        	and	#$1
    1457: b8           	clv
    1458: f0 03        	beq	$145d <printf+0x521>
    145a: 4c b1 14     	jmp	$14b1 <printf+0x575>
    145d: a6 43        	ldx	$43                     ; 0x2043 <__heap_start+0x3>
    145f: b5 65        	lda	$65,x                   ; 0x2065 <__heap_start+0x25>
    1461: aa           	tax
    1462: a0 01        	ldy	#$1
    1464: a5 48        	lda	$48                     ; 0x2048 <__heap_start+0x8>
    1466: 85 1a        	sta	$1a                     ; 0x201a <__BLOCK_SIZE+0x1a>
    1468: a5 8a        	lda	$8a                     ; 0x208a <__heap_start+0x4a>
    146a: 85 48        	sta	$48                     ; 0x2048 <__heap_start+0x8>
    146c: a9 00        	lda	#$0
    146e: 85 42        	sta	$42                     ; 0x2042 <__heap_start+0x2>
    1470: a9 00        	lda	#$0
    1472: 85 43        	sta	$43                     ; 0x2043 <__heap_start+0x3>
    1474: a5 85        	lda	$85                     ; 0x2085 <__heap_start+0x45>
    1476: 85 49        	sta	$49                     ; 0x2049 <__heap_start+0x9>
    1478: 8a           	txa
    1479: 10 4c        	bpl	$14c7 <printf+0x58b>
    147b: a2 00        	ldx	#$0
    147d: 64 12        	stz	$12                     ; 0x2012 <__BLOCK_SIZE+0x12>
    147f: a9 00        	lda	#$0
    1481: 38           	sec
    1482: f5 66        	sbc	$66,x                   ; 0x2066 <__heap_start+0x26>
    1484: a0 00        	ldy	#$0
    1486: b0 02        	bcs	$148a <printf+0x54e>
    1488: a0 01        	ldy	#$1
    148a: 38           	sec
    148b: e5 12        	sbc	$12                     ; 0x2012 <__BLOCK_SIZE+0x12>
    148d: 85 13        	sta	$13                     ; 0x2013 <__BLOCK_SIZE+0x13>
    148f: 64 12        	stz	$12                     ; 0x2012 <__BLOCK_SIZE+0x12>
    1491: b0 04        	bcs	$1497 <printf+0x55b>
    1493: a9 01        	lda	#$1
    1495: 85 12        	sta	$12                     ; 0x2012 <__BLOCK_SIZE+0x12>
    1497: 98           	tya
    1498: 05 12        	ora	$12                     ; 0x2012 <__BLOCK_SIZE+0x12>
    149a: 85 12        	sta	$12                     ; 0x2012 <__BLOCK_SIZE+0x12>
    149c: a5 13        	lda	$13                     ; 0x2013 <__BLOCK_SIZE+0x13>
    149e: 9d 66 00     	sta	$66,x                   ; 0x66 <__rc31+0x37>
    14a1: e8           	inx
    14a2: 86 13        	stx	$13                     ; 0x2013 <__BLOCK_SIZE+0x13>
    14a4: a4 87        	ldy	$87                     ; 0x2087 <__heap_start+0x47>
    14a6: c4 13        	cpy	$13                     ; 0x2013 <__BLOCK_SIZE+0x13>
    14a8: d0 d5        	bne	$147f <printf+0x543>
    14aa: 2c 8b 1e     	bit	$1e8b                   ; 0x1e8b <__set_v>
    14ad: a0 01        	ldy	#$1
    14af: 80 16        	bra	$14c7 <printf+0x58b>
    14b1: a0 01        	ldy	#$1
    14b3: a6 48        	ldx	$48                     ; 0x2048 <__heap_start+0x8>
    14b5: 86 1a        	stx	$1a                     ; 0x201a <__BLOCK_SIZE+0x1a>
    14b7: a6 8a        	ldx	$8a                     ; 0x208a <__heap_start+0x4a>
    14b9: 86 48        	stx	$48                     ; 0x2048 <__heap_start+0x8>
    14bb: a2 00        	ldx	#$0
    14bd: 86 42        	stx	$42                     ; 0x2042 <__heap_start+0x2>
    14bf: a2 00        	ldx	#$0
    14c1: 86 43        	stx	$43                     ; 0x2043 <__heap_start+0x3>
    14c3: a6 85        	ldx	$85                     ; 0x2085 <__heap_start+0x45>
    14c5: 86 49        	stx	$49                     ; 0x2049 <__heap_start+0x9>
    14c7: a2 01        	ldx	#$1
    14c9: 70 02        	bvs	$14cd <printf+0x591>
    14cb: a2 00        	ldx	#$0
    14cd: 86 16        	stx	$16                     ; 0x2016 <__BLOCK_SIZE+0x16>
    14cf: a5 87        	lda	$87                     ; 0x2087 <__heap_start+0x47>
    14d1: 0a           	asl
    14d2: 0a           	asl
    14d3: 0a           	asl
    14d4: 85 12        	sta	$12                     ; 0x2012 <__BLOCK_SIZE+0x12>
    14d6: a2 00        	ldx	#$0
    14d8: 8a           	txa
    14d9: 4c 8d 15     	jmp	$158d <printf+0x651>
    14dc: da           	phx
    14dd: 7a           	ply
    14de: c8           	iny
    14df: 9d 4e 00     	sta	$4e,x                   ; 0x4e <__rc31+0x1f>
    14e2: 5a           	phy
    14e3: fa           	plx
    14e4: c4 40        	cpy	$40                     ; 0x2040 <__heap_start>
    14e6: f0 30        	beq	$1518 <printf+0x5dc>
    14e8: b5 4e        	lda	$4e,x                   ; 0x204e <__heap_start+0xe>
    14ea: 0a           	asl
    14eb: a4 85        	ldy	$85                     ; 0x2085 <__heap_start+0x45>
    14ed: f0 02        	beq	$14f1 <printf+0x5b5>
    14ef: 09 01        	ora	#$1
    14f1: a4 86        	ldy	$86                     ; 0x2086 <__heap_start+0x46>
    14f3: 84 14        	sty	$14                     ; 0x2014 <__BLOCK_SIZE+0x14>
    14f5: c5 14        	cmp	$14                     ; 0x2014 <__BLOCK_SIZE+0x14>
    14f7: a0 01        	ldy	#$1
    14f9: b0 02        	bcs	$14fd <printf+0x5c1>
    14fb: a0 00        	ldy	#$0
    14fd: 84 85        	sty	$85                     ; 0x2085 <__heap_start+0x45>
    14ff: 90 db        	bcc	$14dc <printf+0x5a0>
    1501: 38           	sec
    1502: e5 14        	sbc	$14                     ; 0x2014 <__BLOCK_SIZE+0x14>
    1504: 9d 4e 00     	sta	$4e,x                   ; 0x4e <__rc31+0x1f>
    1507: e8           	inx
    1508: e4 40        	cpx	$40                     ; 0x2040 <__heap_start>
    150a: d0 dc        	bne	$14e8 <printf+0x5ac>
    150c: a4 40        	ldy	$40                     ; 0x2040 <__heap_start>
    150e: a6 40        	ldx	$40                     ; 0x2040 <__heap_start>
    1510: e8           	inx
    1511: a9 01        	lda	#$1
    1513: 99 4e 00     	sta	$4e,y                   ; 0x4e <__rc31+0x1f>
    1516: 86 40        	stx	$40                     ; 0x2040 <__heap_start>
    1518: a6 87        	ldx	$87                     ; 0x2087 <__heap_start+0x47>
    151a: b5 65        	lda	$65,x                   ; 0x2065 <__heap_start+0x25>
    151c: aa           	tax
    151d: 30 0f        	bmi	$152e <printf+0x5f2>
    151f: a0 01        	ldy	#$1
    1521: 80 42        	bra	$1565 <printf+0x629>
    1523: a6 87        	ldx	$87                     ; 0x2087 <__heap_start+0x47>
    1525: b5 65        	lda	$65,x                   ; 0x2065 <__heap_start+0x25>
    1527: aa           	tax
    1528: 64 40        	stz	$40                     ; 0x2040 <__heap_start>
    152a: 10 39        	bpl	$1565 <printf+0x629>
    152c: 80 2a        	bra	$1558 <printf+0x61c>
    152e: a5 40        	lda	$40                     ; 0x2040 <__heap_start>
    1530: f0 24        	beq	$1556 <printf+0x61a>
    1532: a2 00        	ldx	#$0
    1534: a4 86        	ldy	$86                     ; 0x2086 <__heap_start+0x46>
    1536: 84 14        	sty	$14                     ; 0x2014 <__BLOCK_SIZE+0x14>
    1538: b5 4e        	lda	$4e,x                   ; 0x204e <__heap_start+0xe>
    153a: 1a           	inc
    153b: f6 4e        	inc	$4e,x                   ; 0x204e <__heap_start+0xe>
    153d: c5 14        	cmp	$14                     ; 0x2014 <__BLOCK_SIZE+0x14>
    153f: 90 de        	bcc	$151f <printf+0x5e3>
    1541: a4 14        	ldy	$14                     ; 0x2014 <__BLOCK_SIZE+0x14>
    1543: 84 13        	sty	$13                     ; 0x2013 <__BLOCK_SIZE+0x13>
    1545: 38           	sec
    1546: e5 13        	sbc	$13                     ; 0x2013 <__BLOCK_SIZE+0x13>
    1548: 9d 4e 00     	sta	$4e,x                   ; 0x4e <__rc31+0x1f>
    154b: e8           	inx
    154c: 86 13        	stx	$13                     ; 0x2013 <__BLOCK_SIZE+0x13>
    154e: a4 40        	ldy	$40                     ; 0x2040 <__heap_start>
    1550: c4 13        	cpy	$13                     ; 0x2013 <__BLOCK_SIZE+0x13>
    1552: d0 e4        	bne	$1538 <printf+0x5fc>
    1554: 80 02        	bra	$1558 <printf+0x61c>
    1556: 64 40        	stz	$40                     ; 0x2040 <__heap_start>
    1558: a4 40        	ldy	$40                     ; 0x2040 <__heap_start>
    155a: a6 40        	ldx	$40                     ; 0x2040 <__heap_start>
    155c: e8           	inx
    155d: a9 01        	lda	#$1
    155f: 99 4e 00     	sta	$4e,y                   ; 0x4e <__rc31+0x1f>
    1562: a8           	tay
    1563: 86 40        	stx	$40                     ; 0x2040 <__heap_start>
    1565: a2 01        	ldx	#$1
    1567: 64 13        	stz	$13                     ; 0x2013 <__BLOCK_SIZE+0x13>
    1569: a5 87        	lda	$87                     ; 0x2087 <__heap_start+0x47>
    156b: 85 14        	sta	$14                     ; 0x2014 <__BLOCK_SIZE+0x14>
    156d: b5 65        	lda	$65,x                   ; 0x2065 <__heap_start+0x25>
    156f: 0a           	asl
    1570: 64 15        	stz	$15                     ; 0x2015 <__BLOCK_SIZE+0x15>
    1572: 26 15        	rol	$15                     ; 0x2015 <__BLOCK_SIZE+0x15>
    1574: 05 13        	ora	$13                     ; 0x2013 <__BLOCK_SIZE+0x13>
    1576: 9d 65 00     	sta	$65,x                   ; 0x65 <__rc31+0x36>
    1579: e8           	inx
    157a: c6 14        	dec	$14                     ; 0x2014 <__BLOCK_SIZE+0x14>
    157c: a5 15        	lda	$15                     ; 0x2015 <__BLOCK_SIZE+0x15>
    157e: 85 13        	sta	$13                     ; 0x2013 <__BLOCK_SIZE+0x13>
    1580: a5 14        	lda	$14                     ; 0x2014 <__BLOCK_SIZE+0x14>
    1582: d0 e9        	bne	$156d <printf+0x631>
    1584: a5 17        	lda	$17                     ; 0x2017 <__BLOCK_SIZE+0x17>
    1586: 1a           	inc
    1587: c5 12        	cmp	$12                     ; 0x2012 <__BLOCK_SIZE+0x12>
    1589: a6 40        	ldx	$40                     ; 0x2040 <__heap_start>
    158b: b0 13        	bcs	$15a0 <printf+0x664>
    158d: 85 17        	sta	$17                     ; 0x2017 <__BLOCK_SIZE+0x17>
    158f: 8a           	txa
    1590: d0 03        	bne	$1595 <printf+0x659>
    1592: 4c 23 15     	jmp	$1523 <printf+0x5e7>
    1595: 86 40        	stx	$40                     ; 0x2040 <__heap_start>
    1597: a2 00        	ldx	#$0
    1599: 86 85        	stx	$85                     ; 0x2085 <__heap_start+0x45>
    159b: a2 00        	ldx	#$0
    159d: 4c e8 14     	jmp	$14e8 <printf+0x5ac>
    15a0: a5 41        	lda	$41                     ; 0x2041 <__heap_start+0x1>
    15a2: e6 49        	inc	$49                     ; 0x2049 <__heap_start+0x9>
    15a4: c6 49        	dec	$49                     ; 0x2049 <__heap_start+0x9>
    15a6: 10 08        	bpl	$15b0 <printf+0x674>
    15a8: a2 01        	ldx	#$1
    15aa: 64 49        	stz	$49                     ; 0x2049 <__heap_start+0x9>
    15ac: 86 48        	stx	$48                     ; 0x2048 <__heap_start+0x8>
    15ae: a6 40        	ldx	$40                     ; 0x2040 <__heap_start>
    15b0: 29 04        	and	#$4
    15b2: f0 2b        	beq	$15df <printf+0x6a3>
    15b4: a5 86        	lda	$86                     ; 0x2086 <__heap_start+0x46>
    15b6: c9 10        	cmp	#$10
    15b8: f0 14        	beq	$15ce <printf+0x692>
    15ba: c9 08        	cmp	#$8
    15bc: d0 21        	bne	$15df <printf+0x6a3>
    15be: a2 00        	ldx	#$0
    15c0: e4 49        	cpx	$49                     ; 0x2049 <__heap_start+0x9>
    15c2: f0 03        	beq	$15c7 <printf+0x68b>
    15c4: 4c b7 1a     	jmp	$1ab7 <printf+0xb7b>
    15c7: a6 40        	ldx	$40                     ; 0x2040 <__heap_start>
    15c9: e4 48        	cpx	$48                     ; 0x2048 <__heap_start+0x8>
    15cb: 4c b9 1a     	jmp	$1ab9 <printf+0xb7d>
    15ce: 8a           	txa
    15cf: f0 0e        	beq	$15df <printf+0x6a3>
    15d1: a5 41        	lda	$41                     ; 0x2041 <__heap_start+0x1>
    15d3: 29 80        	and	#$80
    15d5: d0 03        	bne	$15da <printf+0x69e>
    15d7: 4c d2 1a     	jmp	$1ad2 <printf+0xb96>
    15da: a2 78        	ldx	#$78
    15dc: 4c d4 1a     	jmp	$1ad4 <printf+0xb98>
    15df: a6 41        	ldx	$41                     ; 0x2041 <__heap_start+0x1>
    15e1: a9 2d        	lda	#$2d
    15e3: 85 87        	sta	$87                     ; 0x2087 <__heap_start+0x47>
    15e5: a5 16        	lda	$16                     ; 0x2016 <__BLOCK_SIZE+0x16>
    15e7: d0 32        	bne	$161b <printf+0x6df>
    15e9: 86 12        	stx	$12                     ; 0x2012 <__BLOCK_SIZE+0x12>
    15eb: 8a           	txa
    15ec: 29 02        	and	#$2
    15ee: a2 2b        	ldx	#$2b
    15f0: 86 87        	stx	$87                     ; 0x2087 <__heap_start+0x47>
    15f2: aa           	tax
    15f3: d0 26        	bne	$161b <printf+0x6df>
    15f5: a5 12        	lda	$12                     ; 0x2012 <__BLOCK_SIZE+0x12>
    15f7: 29 08        	and	#$8
    15f9: d0 1c        	bne	$1617 <printf+0x6db>
    15fb: a2 01        	ldx	#$1
    15fd: 86 86        	stx	$86                     ; 0x2086 <__heap_start+0x46>
    15ff: a9 00        	lda	#$0
    1601: aa           	tax
    1602: 86 85        	stx	$85                     ; 0x2085 <__heap_start+0x45>
    1604: 80 1c        	bra	$1622 <printf+0x6e6>
    1606: 85 12        	sta	$12                     ; 0x2012 <__BLOCK_SIZE+0x12>
    1608: a9 04        	lda	#$4
    160a: 80 04        	bra	$1610 <printf+0x6d4>
    160c: 85 12        	sta	$12                     ; 0x2012 <__BLOCK_SIZE+0x12>
    160e: a9 02        	lda	#$2
    1610: 85 87        	sta	$87                     ; 0x2087 <__heap_start+0x47>
    1612: a5 12        	lda	$12                     ; 0x2012 <__BLOCK_SIZE+0x12>
    1614: 4c e3 12     	jmp	$12e3 <printf+0x3a7>
    1617: a2 20        	ldx	#$20
    1619: 86 87        	stx	$87                     ; 0x2087 <__heap_start+0x47>
    161b: a2 00        	ldx	#$0
    161d: 86 86        	stx	$86                     ; 0x2086 <__heap_start+0x46>
    161f: 86 85        	stx	$85                     ; 0x2085 <__heap_start+0x45>
    1621: 98           	tya
    1622: a6 49        	ldx	$49                     ; 0x2049 <__heap_start+0x9>
    1624: d0 35        	bne	$165b <printf+0x71f>
    1626: a6 48        	ldx	$48                     ; 0x2048 <__heap_start+0x8>
    1628: a4 40        	ldy	$40                     ; 0x2040 <__heap_start>
    162a: 84 12        	sty	$12                     ; 0x2012 <__BLOCK_SIZE+0x12>
    162c: e4 12        	cpx	$12                     ; 0x2012 <__BLOCK_SIZE+0x12>
    162e: a6 48        	ldx	$48                     ; 0x2048 <__heap_start+0x8>
    1630: 86 12        	stx	$12                     ; 0x2012 <__BLOCK_SIZE+0x12>
    1632: a6 49        	ldx	$49                     ; 0x2049 <__heap_start+0x9>
    1634: 86 13        	stx	$13                     ; 0x2013 <__BLOCK_SIZE+0x13>
    1636: b0 04        	bcs	$163c <printf+0x700>
    1638: 84 12        	sty	$12                     ; 0x2012 <__BLOCK_SIZE+0x12>
    163a: 64 13        	stz	$13                     ; 0x2013 <__BLOCK_SIZE+0x13>
    163c: 85 18        	sta	$18                     ; 0x2018 <__BLOCK_SIZE+0x18>
    163e: 18           	clc
    163f: 65 12        	adc	$12                     ; 0x2012 <__BLOCK_SIZE+0x12>
    1641: 85 16        	sta	$16                     ; 0x2016 <__BLOCK_SIZE+0x16>
    1643: 85 14        	sta	$14                     ; 0x2014 <__BLOCK_SIZE+0x14>
    1645: a5 13        	lda	$13                     ; 0x2013 <__BLOCK_SIZE+0x13>
    1647: 69 00        	adc	#$0
    1649: 85 15        	sta	$15                     ; 0x2015 <__BLOCK_SIZE+0x15>
    164b: c5 1a        	cmp	$1a                     ; 0x201a <__BLOCK_SIZE+0x1a>
    164d: d0 1e        	bne	$166d <printf+0x731>
    164f: a6 1a        	ldx	$1a                     ; 0x201a <__BLOCK_SIZE+0x1a>
    1651: 86 17        	stx	$17                     ; 0x2017 <__BLOCK_SIZE+0x17>
    1653: a6 4a        	ldx	$4a                     ; 0x204a <__heap_start+0xa>
    1655: a5 16        	lda	$16                     ; 0x2016 <__BLOCK_SIZE+0x16>
    1657: c5 4a        	cmp	$4a                     ; 0x204a <__heap_start+0xa>
    1659: 80 1c        	bra	$1677 <printf+0x73b>
    165b: a6 49        	ldx	$49                     ; 0x2049 <__heap_start+0x9>
    165d: e0 00        	cpx	#$0
    165f: a6 48        	ldx	$48                     ; 0x2048 <__heap_start+0x8>
    1661: 86 12        	stx	$12                     ; 0x2012 <__BLOCK_SIZE+0x12>
    1663: a6 49        	ldx	$49                     ; 0x2049 <__heap_start+0x9>
    1665: 86 13        	stx	$13                     ; 0x2013 <__BLOCK_SIZE+0x13>
    1667: a4 40        	ldy	$40                     ; 0x2040 <__heap_start>
    1669: 90 cd        	bcc	$1638 <printf+0x6fc>
    166b: 80 cf        	bra	$163c <printf+0x700>
    166d: a6 4a        	ldx	$4a                     ; 0x204a <__heap_start+0xa>
    166f: 5a           	phy
    1670: a4 1a        	ldy	$1a                     ; 0x201a <__BLOCK_SIZE+0x1a>
    1672: 84 17        	sty	$17                     ; 0x2017 <__BLOCK_SIZE+0x17>
    1674: 7a           	ply
    1675: c5 1a        	cmp	$1a                     ; 0x201a <__BLOCK_SIZE+0x1a>
    1677: 64 4b        	stz	$4b                     ; 0x204b <__heap_start+0xb>
    1679: 64 4a        	stz	$4a                     ; 0x204a <__heap_start+0xa>
    167b: 90 03        	bcc	$1680 <printf+0x744>
    167d: 4c 16 17     	jmp	$1716 <printf+0x7da>
    1680: a5 41        	lda	$41                     ; 0x2041 <__heap_start+0x1>
    1682: 29 11        	and	#$11
    1684: 86 16        	stx	$16                     ; 0x2016 <__BLOCK_SIZE+0x16>
    1686: f0 0f        	beq	$1697 <printf+0x75b>
    1688: 8a           	txa
    1689: 38           	sec
    168a: e5 14        	sbc	$14                     ; 0x2014 <__BLOCK_SIZE+0x14>
    168c: 85 4b        	sta	$4b                     ; 0x204b <__heap_start+0xb>
    168e: a5 1a        	lda	$1a                     ; 0x201a <__BLOCK_SIZE+0x1a>
    1690: e5 15        	sbc	$15                     ; 0x2015 <__BLOCK_SIZE+0x15>
    1692: 85 4a        	sta	$4a                     ; 0x204a <__heap_start+0xa>
    1694: 4c 16 17     	jmp	$1716 <printf+0x7da>
    1697: a6 75        	ldx	$75                     ; 0x2075 <__heap_start+0x35>
    1699: 86 14        	stx	$14                     ; 0x2014 <__BLOCK_SIZE+0x14>
    169b: 38           	sec
    169c: a5 18        	lda	$18                     ; 0x2018 <__BLOCK_SIZE+0x18>
    169e: e5 16        	sbc	$16                     ; 0x2016 <__BLOCK_SIZE+0x16>
    16a0: a8           	tay
    16a1: a9 00        	lda	#$0
    16a3: e5 17        	sbc	$17                     ; 0x2017 <__BLOCK_SIZE+0x17>
    16a5: aa           	tax
    16a6: 18           	clc
    16a7: 98           	tya
    16a8: 65 12        	adc	$12                     ; 0x2012 <__BLOCK_SIZE+0x12>
    16aa: 85 41        	sta	$41                     ; 0x2041 <__heap_start+0x1>
    16ac: 8a           	txa
    16ad: 65 13        	adc	$13                     ; 0x2013 <__BLOCK_SIZE+0x13>
    16af: 85 4a        	sta	$4a                     ; 0x204a <__heap_start+0xa>
    16b1: a5 76        	lda	$76                     ; 0x2076 <__heap_start+0x36>
    16b3: 80 4c        	bra	$1701 <printf+0x7c5>
    16b5: c5 74        	cmp	$74                     ; 0x2074 <__heap_start+0x34>
    16b7: a4 4a        	ldy	$4a                     ; 0x204a <__heap_start+0xa>
    16b9: b0 26        	bcs	$16e1 <printf+0x7a5>
    16bb: a6 80        	ldx	$80                     ; 0x2080 <__heap_start+0x40>
    16bd: e4 43        	cpx	$43                     ; 0x2043 <__heap_start+0x3>
    16bf: d0 19        	bne	$16da <printf+0x79e>
    16c1: a6 7f        	ldx	$7f                     ; 0x207f <__heap_start+0x3f>
    16c3: e4 42        	cpx	$42                     ; 0x2042 <__heap_start+0x2>
    16c5: d0 13        	bne	$16da <printf+0x79e>
    16c7: 18           	clc
    16c8: aa           	tax
    16c9: a5 14        	lda	$14                     ; 0x2014 <__BLOCK_SIZE+0x14>
    16cb: 65 79        	adc	$79                     ; 0x2079 <__heap_start+0x39>
    16cd: 85 12        	sta	$12                     ; 0x2012 <__BLOCK_SIZE+0x12>
    16cf: 8a           	txa
    16d0: 65 7a        	adc	$7a                     ; 0x207a <__heap_start+0x3a>
    16d2: 85 13        	sta	$13                     ; 0x2013 <__BLOCK_SIZE+0x13>
    16d4: a9 20        	lda	#$20
    16d6: 92 12        	sta	($12)                   ; 0x2012 <__BLOCK_SIZE+0x12>
    16d8: 80 05        	bra	$16df <printf+0x7a3>
    16da: a9 20        	lda	#$20
    16dc: 20 4c 0d     	jsr	$d4c <__putchar>
    16df: a4 4a        	ldy	$4a                     ; 0x204a <__heap_start+0xa>
    16e1: a6 75        	ldx	$75                     ; 0x2075 <__heap_start+0x35>
    16e3: a5 76        	lda	$76                     ; 0x2076 <__heap_start+0x36>
    16e5: e8           	inx
    16e6: d0 01        	bne	$16e9 <printf+0x7ad>
    16e8: 1a           	inc
    16e9: 86 14        	stx	$14                     ; 0x2014 <__BLOCK_SIZE+0x14>
    16eb: 86 75        	stx	$75                     ; 0x2075 <__heap_start+0x35>
    16ed: 85 76        	sta	$76                     ; 0x2076 <__heap_start+0x36>
    16ef: a6 41        	ldx	$41                     ; 0x2041 <__heap_start+0x1>
    16f1: e8           	inx
    16f2: d0 01        	bne	$16f5 <printf+0x7b9>
    16f4: c8           	iny
    16f5: 86 41        	stx	$41                     ; 0x2041 <__heap_start+0x1>
    16f7: 84 4a        	sty	$4a                     ; 0x204a <__heap_start+0xa>
    16f9: c0 00        	cpy	#$0
    16fb: d0 04        	bne	$1701 <printf+0x7c5>
    16fd: e0 00        	cpx	#$0
    16ff: f0 0f        	beq	$1710 <printf+0x7d4>
    1701: c5 74        	cmp	$74                     ; 0x2074 <__heap_start+0x34>
    1703: d0 b0        	bne	$16b5 <printf+0x779>
    1705: a6 73        	ldx	$73                     ; 0x2073 <__heap_start+0x33>
    1707: 86 12        	stx	$12                     ; 0x2012 <__BLOCK_SIZE+0x12>
    1709: a6 14        	ldx	$14                     ; 0x2014 <__BLOCK_SIZE+0x14>
    170b: e4 12        	cpx	$12                     ; 0x2012 <__BLOCK_SIZE+0x12>
    170d: 4c b7 16     	jmp	$16b7 <printf+0x77b>
    1710: 64 4b        	stz	$4b                     ; 0x204b <__heap_start+0xb>
    1712: 64 4a        	stz	$4a                     ; 0x204a <__heap_start+0xa>
    1714: a4 40        	ldy	$40                     ; 0x2040 <__heap_start>
    1716: a6 86        	ldx	$86                     ; 0x2086 <__heap_start+0x46>
    1718: d0 4d        	bne	$1767 <printf+0x82b>
    171a: a6 75        	ldx	$75                     ; 0x2075 <__heap_start+0x35>
    171c: a5 76        	lda	$76                     ; 0x2076 <__heap_start+0x36>
    171e: c5 74        	cmp	$74                     ; 0x2074 <__heap_start+0x34>
    1720: d0 10        	bne	$1732 <printf+0x7f6>
    1722: 86 13        	stx	$13                     ; 0x2013 <__BLOCK_SIZE+0x13>
    1724: a6 73        	ldx	$73                     ; 0x2073 <__heap_start+0x33>
    1726: 86 12        	stx	$12                     ; 0x2012 <__BLOCK_SIZE+0x12>
    1728: a4 40        	ldy	$40                     ; 0x2040 <__heap_start>
    172a: a6 13        	ldx	$13                     ; 0x2013 <__BLOCK_SIZE+0x13>
    172c: e4 12        	cpx	$12                     ; 0x2012 <__BLOCK_SIZE+0x12>
    172e: 90 08        	bcc	$1738 <printf+0x7fc>
    1730: 80 2f        	bra	$1761 <printf+0x825>
    1732: 86 13        	stx	$13                     ; 0x2013 <__BLOCK_SIZE+0x13>
    1734: c5 74        	cmp	$74                     ; 0x2074 <__heap_start+0x34>
    1736: b0 29        	bcs	$1761 <printf+0x825>
    1738: a6 80        	ldx	$80                     ; 0x2080 <__heap_start+0x40>
    173a: e4 43        	cpx	$43                     ; 0x2043 <__heap_start+0x3>
    173c: d0 1c        	bne	$175a <printf+0x81e>
    173e: a6 7f        	ldx	$7f                     ; 0x207f <__heap_start+0x3f>
    1740: e4 42        	cpx	$42                     ; 0x2042 <__heap_start+0x2>
    1742: d0 16        	bne	$175a <printf+0x81e>
    1744: 18           	clc
    1745: 85 12        	sta	$12                     ; 0x2012 <__BLOCK_SIZE+0x12>
    1747: a5 13        	lda	$13                     ; 0x2013 <__BLOCK_SIZE+0x13>
    1749: 65 79        	adc	$79                     ; 0x2079 <__heap_start+0x39>
    174b: aa           	tax
    174c: a5 12        	lda	$12                     ; 0x2012 <__BLOCK_SIZE+0x12>
    174e: 65 7a        	adc	$7a                     ; 0x207a <__heap_start+0x3a>
    1750: 86 12        	stx	$12                     ; 0x2012 <__BLOCK_SIZE+0x12>
    1752: 85 13        	sta	$13                     ; 0x2013 <__BLOCK_SIZE+0x13>
    1754: a5 87        	lda	$87                     ; 0x2087 <__heap_start+0x47>
    1756: 92 12        	sta	($12)                   ; 0x2012 <__BLOCK_SIZE+0x12>
    1758: 80 05        	bra	$175f <printf+0x823>
    175a: a5 87        	lda	$87                     ; 0x2087 <__heap_start+0x47>
    175c: 20 4c 0d     	jsr	$d4c <__putchar>
    175f: a4 40        	ldy	$40                     ; 0x2040 <__heap_start>
    1761: e6 75        	inc	$75                     ; 0x2075 <__heap_start+0x35>
    1763: d0 02        	bne	$1767 <printf+0x82b>
    1765: e6 76        	inc	$76                     ; 0x2076 <__heap_start+0x36>
    1767: a6 85        	ldx	$85                     ; 0x2085 <__heap_start+0x45>
    1769: f0 4d        	beq	$17b8 <printf+0x87c>
    176b: a6 75        	ldx	$75                     ; 0x2075 <__heap_start+0x35>
    176d: a5 76        	lda	$76                     ; 0x2076 <__heap_start+0x36>
    176f: c5 74        	cmp	$74                     ; 0x2074 <__heap_start+0x34>
    1771: d0 10        	bne	$1783 <printf+0x847>
    1773: 86 13        	stx	$13                     ; 0x2013 <__BLOCK_SIZE+0x13>
    1775: a6 73        	ldx	$73                     ; 0x2073 <__heap_start+0x33>
    1777: 86 12        	stx	$12                     ; 0x2012 <__BLOCK_SIZE+0x12>
    1779: a4 40        	ldy	$40                     ; 0x2040 <__heap_start>
    177b: a6 13        	ldx	$13                     ; 0x2013 <__BLOCK_SIZE+0x13>
    177d: e4 12        	cpx	$12                     ; 0x2012 <__BLOCK_SIZE+0x12>
    177f: 90 08        	bcc	$1789 <printf+0x84d>
    1781: 80 2f        	bra	$17b2 <printf+0x876>
    1783: 86 13        	stx	$13                     ; 0x2013 <__BLOCK_SIZE+0x13>
    1785: c5 74        	cmp	$74                     ; 0x2074 <__heap_start+0x34>
    1787: b0 29        	bcs	$17b2 <printf+0x876>
    1789: a6 80        	ldx	$80                     ; 0x2080 <__heap_start+0x40>
    178b: e4 43        	cpx	$43                     ; 0x2043 <__heap_start+0x3>
    178d: d0 1c        	bne	$17ab <printf+0x86f>
    178f: a6 7f        	ldx	$7f                     ; 0x207f <__heap_start+0x3f>
    1791: e4 42        	cpx	$42                     ; 0x2042 <__heap_start+0x2>
    1793: d0 16        	bne	$17ab <printf+0x86f>
    1795: 18           	clc
    1796: 85 12        	sta	$12                     ; 0x2012 <__BLOCK_SIZE+0x12>
    1798: a5 13        	lda	$13                     ; 0x2013 <__BLOCK_SIZE+0x13>
    179a: 65 79        	adc	$79                     ; 0x2079 <__heap_start+0x39>
    179c: aa           	tax
    179d: a5 12        	lda	$12                     ; 0x2012 <__BLOCK_SIZE+0x12>
    179f: 65 7a        	adc	$7a                     ; 0x207a <__heap_start+0x3a>
    17a1: 86 12        	stx	$12                     ; 0x2012 <__BLOCK_SIZE+0x12>
    17a3: 85 13        	sta	$13                     ; 0x2013 <__BLOCK_SIZE+0x13>
    17a5: a5 8a        	lda	$8a                     ; 0x208a <__heap_start+0x4a>
    17a7: 92 12        	sta	($12)                   ; 0x2012 <__BLOCK_SIZE+0x12>
    17a9: 80 05        	bra	$17b0 <printf+0x874>
    17ab: a5 8a        	lda	$8a                     ; 0x208a <__heap_start+0x4a>
    17ad: 20 4c 0d     	jsr	$d4c <__putchar>
    17b0: a4 40        	ldy	$40                     ; 0x2040 <__heap_start>
    17b2: e6 75        	inc	$75                     ; 0x2075 <__heap_start+0x35>
    17b4: d0 02        	bne	$17b8 <printf+0x87c>
    17b6: e6 76        	inc	$76                     ; 0x2076 <__heap_start+0x36>
    17b8: a9 10        	lda	#$10
    17ba: 25 71        	and	$71                     ; 0x2071 <__heap_start+0x31>
    17bc: d0 03        	bne	$17c1 <printf+0x885>
    17be: 4c 49 18     	jmp	$1849 <printf+0x90d>
    17c1: a5 71        	lda	$71                     ; 0x2071 <__heap_start+0x31>
    17c3: 29 01        	and	#$1
    17c5: 29 01        	and	#$1
    17c7: f0 03        	beq	$17cc <printf+0x890>
    17c9: 4c 49 18     	jmp	$1849 <printf+0x90d>
    17cc: a6 4b        	ldx	$4b                     ; 0x204b <__heap_start+0xb>
    17ce: a5 4a        	lda	$4a                     ; 0x204a <__heap_start+0xa>
    17d0: d0 06        	bne	$17d8 <printf+0x89c>
    17d2: 8a           	txa
    17d3: d0 03        	bne	$17d8 <printf+0x89c>
    17d5: 4c e7 1a     	jmp	$1ae7 <printf+0xbab>
    17d8: a6 75        	ldx	$75                     ; 0x2075 <__heap_start+0x35>
    17da: 86 13        	stx	$13                     ; 0x2013 <__BLOCK_SIZE+0x13>
    17dc: a5 76        	lda	$76                     ; 0x2076 <__heap_start+0x36>
    17de: 80 4f        	bra	$182f <printf+0x8f3>
    17e0: c5 74        	cmp	$74                     ; 0x2074 <__heap_start+0x34>
    17e2: b0 24        	bcs	$1808 <printf+0x8cc>
    17e4: a6 80        	ldx	$80                     ; 0x2080 <__heap_start+0x40>
    17e6: e4 43        	cpx	$43                     ; 0x2043 <__heap_start+0x3>
    17e8: d0 19        	bne	$1803 <printf+0x8c7>
    17ea: a6 7f        	ldx	$7f                     ; 0x207f <__heap_start+0x3f>
    17ec: e4 42        	cpx	$42                     ; 0x2042 <__heap_start+0x2>
    17ee: d0 13        	bne	$1803 <printf+0x8c7>
    17f0: 18           	clc
    17f1: aa           	tax
    17f2: a5 13        	lda	$13                     ; 0x2013 <__BLOCK_SIZE+0x13>
    17f4: 65 79        	adc	$79                     ; 0x2079 <__heap_start+0x39>
    17f6: 85 12        	sta	$12                     ; 0x2012 <__BLOCK_SIZE+0x12>
    17f8: 8a           	txa
    17f9: 65 7a        	adc	$7a                     ; 0x207a <__heap_start+0x3a>
    17fb: 85 13        	sta	$13                     ; 0x2013 <__BLOCK_SIZE+0x13>
    17fd: a9 30        	lda	#$30
    17ff: 92 12        	sta	($12)                   ; 0x2012 <__BLOCK_SIZE+0x12>
    1801: 80 05        	bra	$1808 <printf+0x8cc>
    1803: a9 30        	lda	#$30
    1805: 20 4c 0d     	jsr	$d4c <__putchar>
    1808: a6 75        	ldx	$75                     ; 0x2075 <__heap_start+0x35>
    180a: a5 76        	lda	$76                     ; 0x2076 <__heap_start+0x36>
    180c: e8           	inx
    180d: d0 01        	bne	$1810 <printf+0x8d4>
    180f: 1a           	inc
    1810: 86 13        	stx	$13                     ; 0x2013 <__BLOCK_SIZE+0x13>
    1812: 86 75        	stx	$75                     ; 0x2075 <__heap_start+0x35>
    1814: 85 76        	sta	$76                     ; 0x2076 <__heap_start+0x36>
    1816: a4 4b        	ldy	$4b                     ; 0x204b <__heap_start+0xb>
    1818: a6 4a        	ldx	$4a                     ; 0x204a <__heap_start+0xa>
    181a: 86 12        	stx	$12                     ; 0x2012 <__BLOCK_SIZE+0x12>
    181c: 88           	dey
    181d: c0 ff        	cpy	#$ff
    181f: d0 02        	bne	$1823 <printf+0x8e7>
    1821: c6 12        	dec	$12                     ; 0x2012 <__BLOCK_SIZE+0x12>
    1823: 84 4b        	sty	$4b                     ; 0x204b <__heap_start+0xb>
    1825: a6 12        	ldx	$12                     ; 0x2012 <__BLOCK_SIZE+0x12>
    1827: 86 4a        	stx	$4a                     ; 0x204a <__heap_start+0xa>
    1829: d0 04        	bne	$182f <printf+0x8f3>
    182b: c0 00        	cpy	#$0
    182d: f0 14        	beq	$1843 <printf+0x907>
    182f: c5 74        	cmp	$74                     ; 0x2074 <__heap_start+0x34>
    1831: f0 03        	beq	$1836 <printf+0x8fa>
    1833: 4c e0 17     	jmp	$17e0 <printf+0x8a4>
    1836: a6 73        	ldx	$73                     ; 0x2073 <__heap_start+0x33>
    1838: 86 12        	stx	$12                     ; 0x2012 <__BLOCK_SIZE+0x12>
    183a: a6 13        	ldx	$13                     ; 0x2013 <__BLOCK_SIZE+0x13>
    183c: e4 12        	cpx	$12                     ; 0x2012 <__BLOCK_SIZE+0x12>
    183e: b0 c8        	bcs	$1808 <printf+0x8cc>
    1840: 4c e4 17     	jmp	$17e4 <printf+0x8a8>
    1843: 64 4b        	stz	$4b                     ; 0x204b <__heap_start+0xb>
    1845: 64 4a        	stz	$4a                     ; 0x204a <__heap_start+0xa>
    1847: a4 40        	ldy	$40                     ; 0x2040 <__heap_start>
    1849: a2 00        	ldx	#$0
    184b: e4 49        	cpx	$49                     ; 0x2049 <__heap_start+0x9>
    184d: d0 07        	bne	$1856 <printf+0x91a>
    184f: c4 48        	cpy	$48                     ; 0x2048 <__heap_start+0x8>
    1851: 90 0a        	bcc	$185d <printf+0x921>
    1853: 4c cb 18     	jmp	$18cb <printf+0x98f>
    1856: e4 49        	cpx	$49                     ; 0x2049 <__heap_start+0x9>
    1858: 90 03        	bcc	$185d <printf+0x921>
    185a: 4c cb 18     	jmp	$18cb <printf+0x98f>
    185d: a6 75        	ldx	$75                     ; 0x2075 <__heap_start+0x35>
    185f: 86 13        	stx	$13                     ; 0x2013 <__BLOCK_SIZE+0x13>
    1861: a5 76        	lda	$76                     ; 0x2076 <__heap_start+0x36>
    1863: a2 ff        	ldx	#$ff
    1865: c6 48        	dec	$48                     ; 0x2048 <__heap_start+0x8>
    1867: e4 48        	cpx	$48                     ; 0x2048 <__heap_start+0x8>
    1869: d0 02        	bne	$186d <printf+0x931>
    186b: c6 49        	dec	$49                     ; 0x2049 <__heap_start+0x9>
    186d: c5 74        	cmp	$74                     ; 0x2074 <__heap_start+0x34>
    186f: d0 0c        	bne	$187d <printf+0x941>
    1871: a6 73        	ldx	$73                     ; 0x2073 <__heap_start+0x33>
    1873: 86 12        	stx	$12                     ; 0x2012 <__BLOCK_SIZE+0x12>
    1875: a6 13        	ldx	$13                     ; 0x2013 <__BLOCK_SIZE+0x13>
    1877: e4 12        	cpx	$12                     ; 0x2012 <__BLOCK_SIZE+0x12>
    1879: 90 06        	bcc	$1881 <printf+0x945>
    187b: 80 28        	bra	$18a5 <printf+0x969>
    187d: c5 74        	cmp	$74                     ; 0x2074 <__heap_start+0x34>
    187f: b0 24        	bcs	$18a5 <printf+0x969>
    1881: a6 80        	ldx	$80                     ; 0x2080 <__heap_start+0x40>
    1883: e4 43        	cpx	$43                     ; 0x2043 <__heap_start+0x3>
    1885: d0 19        	bne	$18a0 <printf+0x964>
    1887: a6 7f        	ldx	$7f                     ; 0x207f <__heap_start+0x3f>
    1889: e4 42        	cpx	$42                     ; 0x2042 <__heap_start+0x2>
    188b: d0 13        	bne	$18a0 <printf+0x964>
    188d: 18           	clc
    188e: aa           	tax
    188f: a5 13        	lda	$13                     ; 0x2013 <__BLOCK_SIZE+0x13>
    1891: 65 79        	adc	$79                     ; 0x2079 <__heap_start+0x39>
    1893: 85 12        	sta	$12                     ; 0x2012 <__BLOCK_SIZE+0x12>
    1895: 8a           	txa
    1896: 65 7a        	adc	$7a                     ; 0x207a <__heap_start+0x3a>
    1898: 85 13        	sta	$13                     ; 0x2013 <__BLOCK_SIZE+0x13>
    189a: a9 30        	lda	#$30
    189c: 92 12        	sta	($12)                   ; 0x2012 <__BLOCK_SIZE+0x12>
    189e: 80 05        	bra	$18a5 <printf+0x969>
    18a0: a9 30        	lda	#$30
    18a2: 20 4c 0d     	jsr	$d4c <__putchar>
    18a5: a6 75        	ldx	$75                     ; 0x2075 <__heap_start+0x35>
    18a7: a5 76        	lda	$76                     ; 0x2076 <__heap_start+0x36>
    18a9: e8           	inx
    18aa: d0 01        	bne	$18ad <printf+0x971>
    18ac: 1a           	inc
    18ad: 86 13        	stx	$13                     ; 0x2013 <__BLOCK_SIZE+0x13>
    18af: 86 75        	stx	$75                     ; 0x2075 <__heap_start+0x35>
    18b1: 85 76        	sta	$76                     ; 0x2076 <__heap_start+0x36>
    18b3: a2 00        	ldx	#$0
    18b5: e4 49        	cpx	$49                     ; 0x2049 <__heap_start+0x9>
    18b7: d0 09        	bne	$18c2 <printf+0x986>
    18b9: a4 40        	ldy	$40                     ; 0x2040 <__heap_start>
    18bb: c4 48        	cpy	$48                     ; 0x2048 <__heap_start+0x8>
    18bd: b0 0c        	bcs	$18cb <printf+0x98f>
    18bf: 4c 63 18     	jmp	$1863 <printf+0x927>
    18c2: e4 49        	cpx	$49                     ; 0x2049 <__heap_start+0x9>
    18c4: a4 40        	ldy	$40                     ; 0x2040 <__heap_start>
    18c6: b0 03        	bcs	$18cb <printf+0x98f>
    18c8: 4c 63 18     	jmp	$1863 <printf+0x927>
    18cb: 98           	tya
    18cc: d0 03        	bne	$18d1 <printf+0x995>
    18ce: 4c c0 19     	jmp	$19c0 <printf+0xa84>
    18d1: 88           	dey
    18d2: d0 03        	bne	$18d7 <printf+0x99b>
    18d4: 4c 5f 19     	jmp	$195f <printf+0xa23>
    18d7: 84 48        	sty	$48                     ; 0x2048 <__heap_start+0x8>
    18d9: a6 8b        	ldx	$8b                     ; 0x208b <__heap_start+0x4b>
    18db: 8a           	txa
    18dc: 18           	clc
    18dd: 65 48        	adc	$48                     ; 0x2048 <__heap_start+0x8>
    18df: 85 40        	sta	$40                     ; 0x2040 <__heap_start>
    18e1: a5 8c        	lda	$8c                     ; 0x208c <__heap_start+0x4c>
    18e3: 69 00        	adc	#$0
    18e5: 85 41        	sta	$41                     ; 0x2041 <__heap_start+0x1>
    18e7: 4c 51 19     	jmp	$1951 <printf+0xa15>
    18ea: a8           	tay
    18eb: a9 80        	lda	#$80
    18ed: 25 71        	and	$71                     ; 0x2071 <__heap_start+0x31>
    18ef: f0 04        	beq	$18f5 <printf+0x9b9>
    18f1: a2 61        	ldx	#$61
    18f3: 80 02        	bra	$18f7 <printf+0x9bb>
    18f5: a2 41        	ldx	#$41
    18f7: 86 12        	stx	$12                     ; 0x2012 <__BLOCK_SIZE+0x12>
    18f9: 18           	clc
    18fa: 98           	tya
    18fb: 65 12        	adc	$12                     ; 0x2012 <__BLOCK_SIZE+0x12>
    18fd: 18           	clc
    18fe: 69 f6        	adc	#$f6
    1900: a4 75        	ldy	$75                     ; 0x2075 <__heap_start+0x35>
    1902: a6 76        	ldx	$76                     ; 0x2076 <__heap_start+0x36>
    1904: e4 74        	cpx	$74                     ; 0x2074 <__heap_start+0x34>
    1906: d0 0c        	bne	$1914 <printf+0x9d8>
    1908: 86 14        	stx	$14                     ; 0x2014 <__BLOCK_SIZE+0x14>
    190a: a6 73        	ldx	$73                     ; 0x2073 <__heap_start+0x33>
    190c: 86 12        	stx	$12                     ; 0x2012 <__BLOCK_SIZE+0x12>
    190e: c4 12        	cpy	$12                     ; 0x2012 <__BLOCK_SIZE+0x12>
    1910: 90 08        	bcc	$191a <printf+0x9de>
    1912: 80 27        	bra	$193b <printf+0x9ff>
    1914: 86 14        	stx	$14                     ; 0x2014 <__BLOCK_SIZE+0x14>
    1916: e4 74        	cpx	$74                     ; 0x2074 <__heap_start+0x34>
    1918: b0 21        	bcs	$193b <printf+0x9ff>
    191a: a6 80        	ldx	$80                     ; 0x2080 <__heap_start+0x40>
    191c: e4 43        	cpx	$43                     ; 0x2043 <__heap_start+0x3>
    191e: d0 18        	bne	$1938 <printf+0x9fc>
    1920: a6 7f        	ldx	$7f                     ; 0x207f <__heap_start+0x3f>
    1922: e4 42        	cpx	$42                     ; 0x2042 <__heap_start+0x2>
    1924: d0 12        	bne	$1938 <printf+0x9fc>
    1926: 18           	clc
    1927: aa           	tax
    1928: 98           	tya
    1929: 65 79        	adc	$79                     ; 0x2079 <__heap_start+0x39>
    192b: 85 12        	sta	$12                     ; 0x2012 <__BLOCK_SIZE+0x12>
    192d: a5 14        	lda	$14                     ; 0x2014 <__BLOCK_SIZE+0x14>
    192f: 65 7a        	adc	$7a                     ; 0x207a <__heap_start+0x3a>
    1931: 85 13        	sta	$13                     ; 0x2013 <__BLOCK_SIZE+0x13>
    1933: 8a           	txa
    1934: 92 12        	sta	($12)                   ; 0x2012 <__BLOCK_SIZE+0x12>
    1936: 80 03        	bra	$193b <printf+0x9ff>
    1938: 20 4c 0d     	jsr	$d4c <__putchar>
    193b: e6 75        	inc	$75                     ; 0x2075 <__heap_start+0x35>
    193d: d0 02        	bne	$1941 <printf+0xa05>
    193f: e6 76        	inc	$76                     ; 0x2076 <__heap_start+0x36>
    1941: c6 48        	dec	$48                     ; 0x2048 <__heap_start+0x8>
    1943: a2 ff        	ldx	#$ff
    1945: c6 40        	dec	$40                     ; 0x2040 <__heap_start>
    1947: e4 40        	cpx	$40                     ; 0x2040 <__heap_start>
    1949: d0 02        	bne	$194d <printf+0xa11>
    194b: c6 41        	dec	$41                     ; 0x2041 <__heap_start+0x1>
    194d: a5 48        	lda	$48                     ; 0x2048 <__heap_start+0x8>
    194f: f0 0e        	beq	$195f <printf+0xa23>
    1951: b2 40        	lda	($40)                   ; 0x2040 <__heap_start>
    1953: c9 0a        	cmp	#$a
    1955: 90 03        	bcc	$195a <printf+0xa1e>
    1957: 4c ea 18     	jmp	$18ea <printf+0x9ae>
    195a: 09 30        	ora	#$30
    195c: 4c 00 19     	jmp	$1900 <printf+0x9c4>
    195f: a5 4e        	lda	$4e                     ; 0x204e <__heap_start+0xe>
    1961: c9 0a        	cmp	#$a
    1963: b0 04        	bcs	$1969 <printf+0xa2d>
    1965: 09 30        	ora	#$30
    1967: 80 16        	bra	$197f <printf+0xa43>
    1969: a8           	tay
    196a: a9 80        	lda	#$80
    196c: 25 71        	and	$71                     ; 0x2071 <__heap_start+0x31>
    196e: f0 04        	beq	$1974 <printf+0xa38>
    1970: a2 61        	ldx	#$61
    1972: 80 02        	bra	$1976 <printf+0xa3a>
    1974: a2 41        	ldx	#$41
    1976: 86 12        	stx	$12                     ; 0x2012 <__BLOCK_SIZE+0x12>
    1978: 18           	clc
    1979: 98           	tya
    197a: 65 12        	adc	$12                     ; 0x2012 <__BLOCK_SIZE+0x12>
    197c: 18           	clc
    197d: 69 f6        	adc	#$f6
    197f: a4 75        	ldy	$75                     ; 0x2075 <__heap_start+0x35>
    1981: a6 76        	ldx	$76                     ; 0x2076 <__heap_start+0x36>
    1983: e4 74        	cpx	$74                     ; 0x2074 <__heap_start+0x34>
    1985: d0 0c        	bne	$1993 <printf+0xa57>
    1987: 86 14        	stx	$14                     ; 0x2014 <__BLOCK_SIZE+0x14>
    1989: a6 73        	ldx	$73                     ; 0x2073 <__heap_start+0x33>
    198b: 86 12        	stx	$12                     ; 0x2012 <__BLOCK_SIZE+0x12>
    198d: c4 12        	cpy	$12                     ; 0x2012 <__BLOCK_SIZE+0x12>
    198f: 90 08        	bcc	$1999 <printf+0xa5d>
    1991: 80 27        	bra	$19ba <printf+0xa7e>
    1993: 86 14        	stx	$14                     ; 0x2014 <__BLOCK_SIZE+0x14>
    1995: e4 74        	cpx	$74                     ; 0x2074 <__heap_start+0x34>
    1997: b0 21        	bcs	$19ba <printf+0xa7e>
    1999: a6 80        	ldx	$80                     ; 0x2080 <__heap_start+0x40>
    199b: e4 43        	cpx	$43                     ; 0x2043 <__heap_start+0x3>
    199d: d0 18        	bne	$19b7 <printf+0xa7b>
    199f: a6 7f        	ldx	$7f                     ; 0x207f <__heap_start+0x3f>
    19a1: e4 42        	cpx	$42                     ; 0x2042 <__heap_start+0x2>
    19a3: d0 12        	bne	$19b7 <printf+0xa7b>
    19a5: 18           	clc
    19a6: aa           	tax
    19a7: 98           	tya
    19a8: 65 79        	adc	$79                     ; 0x2079 <__heap_start+0x39>
    19aa: 85 12        	sta	$12                     ; 0x2012 <__BLOCK_SIZE+0x12>
    19ac: a5 14        	lda	$14                     ; 0x2014 <__BLOCK_SIZE+0x14>
    19ae: 65 7a        	adc	$7a                     ; 0x207a <__heap_start+0x3a>
    19b0: 85 13        	sta	$13                     ; 0x2013 <__BLOCK_SIZE+0x13>
    19b2: 8a           	txa
    19b3: 92 12        	sta	($12)                   ; 0x2012 <__BLOCK_SIZE+0x12>
    19b5: 80 03        	bra	$19ba <printf+0xa7e>
    19b7: 20 4c 0d     	jsr	$d4c <__putchar>
    19ba: e6 75        	inc	$75                     ; 0x2075 <__heap_start+0x35>
    19bc: d0 02        	bne	$19c0 <printf+0xa84>
    19be: e6 76        	inc	$76                     ; 0x2076 <__heap_start+0x36>
    19c0: a9 01        	lda	#$1
    19c2: 25 71        	and	$71                     ; 0x2071 <__heap_start+0x31>
    19c4: 29 01        	and	#$1
    19c6: d0 1e        	bne	$19e6 <printf+0xaaa>
    19c8: a6 75        	ldx	$75                     ; 0x2075 <__heap_start+0x35>
    19ca: 86 14        	stx	$14                     ; 0x2014 <__BLOCK_SIZE+0x14>
    19cc: a5 76        	lda	$76                     ; 0x2076 <__heap_start+0x36>
    19ce: a4 73        	ldy	$73                     ; 0x2073 <__heap_start+0x33>
    19d0: a6 74        	ldx	$74                     ; 0x2074 <__heap_start+0x34>
    19d2: 86 12        	stx	$12                     ; 0x2012 <__BLOCK_SIZE+0x12>
    19d4: 86 13        	stx	$13                     ; 0x2013 <__BLOCK_SIZE+0x13>
    19d6: c5 12        	cmp	$12                     ; 0x2012 <__BLOCK_SIZE+0x12>
    19d8: f0 03        	beq	$19dd <printf+0xaa1>
    19da: 4c 69 1a     	jmp	$1a69 <printf+0xb2d>
    19dd: 84 12        	sty	$12                     ; 0x2012 <__BLOCK_SIZE+0x12>
    19df: a6 14        	ldx	$14                     ; 0x2014 <__BLOCK_SIZE+0x14>
    19e1: e4 12        	cpx	$12                     ; 0x2012 <__BLOCK_SIZE+0x12>
    19e3: 4c 6d 1a     	jmp	$1a6d <printf+0xb31>
    19e6: a6 75        	ldx	$75                     ; 0x2075 <__heap_start+0x35>
    19e8: 86 14        	stx	$14                     ; 0x2014 <__BLOCK_SIZE+0x14>
    19ea: a5 76        	lda	$76                     ; 0x2076 <__heap_start+0x36>
    19ec: a6 4b        	ldx	$4b                     ; 0x204b <__heap_start+0xb>
    19ee: a4 4a        	ldy	$4a                     ; 0x204a <__heap_start+0xa>
    19f0: f0 03        	beq	$19f5 <printf+0xab9>
    19f2: 4c 55 1a     	jmp	$1a55 <printf+0xb19>
    19f5: e0 00        	cpx	#$0
    19f7: f0 d5        	beq	$19ce <printf+0xa92>
    19f9: 4c 55 1a     	jmp	$1a55 <printf+0xb19>
    19fc: c5 74        	cmp	$74                     ; 0x2074 <__heap_start+0x34>
    19fe: b0 24        	bcs	$1a24 <printf+0xae8>
    1a00: a6 80        	ldx	$80                     ; 0x2080 <__heap_start+0x40>
    1a02: e4 43        	cpx	$43                     ; 0x2043 <__heap_start+0x3>
    1a04: d0 19        	bne	$1a1f <printf+0xae3>
    1a06: a6 7f        	ldx	$7f                     ; 0x207f <__heap_start+0x3f>
    1a08: e4 42        	cpx	$42                     ; 0x2042 <__heap_start+0x2>
    1a0a: d0 13        	bne	$1a1f <printf+0xae3>
    1a0c: 18           	clc
    1a0d: aa           	tax
    1a0e: a5 14        	lda	$14                     ; 0x2014 <__BLOCK_SIZE+0x14>
    1a10: 65 79        	adc	$79                     ; 0x2079 <__heap_start+0x39>
    1a12: 85 12        	sta	$12                     ; 0x2012 <__BLOCK_SIZE+0x12>
    1a14: 8a           	txa
    1a15: 65 7a        	adc	$7a                     ; 0x207a <__heap_start+0x3a>
    1a17: 85 13        	sta	$13                     ; 0x2013 <__BLOCK_SIZE+0x13>
    1a19: a9 20        	lda	#$20
    1a1b: 92 12        	sta	($12)                   ; 0x2012 <__BLOCK_SIZE+0x12>
    1a1d: 80 05        	bra	$1a24 <printf+0xae8>
    1a1f: a9 20        	lda	#$20
    1a21: 20 4c 0d     	jsr	$d4c <__putchar>
    1a24: a6 75        	ldx	$75                     ; 0x2075 <__heap_start+0x35>
    1a26: a5 76        	lda	$76                     ; 0x2076 <__heap_start+0x36>
    1a28: e8           	inx
    1a29: d0 01        	bne	$1a2c <printf+0xaf0>
    1a2b: 1a           	inc
    1a2c: 86 14        	stx	$14                     ; 0x2014 <__BLOCK_SIZE+0x14>
    1a2e: 86 75        	stx	$75                     ; 0x2075 <__heap_start+0x35>
    1a30: 85 76        	sta	$76                     ; 0x2076 <__heap_start+0x36>
    1a32: a6 4b        	ldx	$4b                     ; 0x204b <__heap_start+0xb>
    1a34: 86 12        	stx	$12                     ; 0x2012 <__BLOCK_SIZE+0x12>
    1a36: a6 4a        	ldx	$4a                     ; 0x204a <__heap_start+0xa>
    1a38: 86 13        	stx	$13                     ; 0x2013 <__BLOCK_SIZE+0x13>
    1a3a: a2 ff        	ldx	#$ff
    1a3c: c6 12        	dec	$12                     ; 0x2012 <__BLOCK_SIZE+0x12>
    1a3e: e4 12        	cpx	$12                     ; 0x2012 <__BLOCK_SIZE+0x12>
    1a40: d0 02        	bne	$1a44 <printf+0xb08>
    1a42: c6 13        	dec	$13                     ; 0x2013 <__BLOCK_SIZE+0x13>
    1a44: a6 12        	ldx	$12                     ; 0x2012 <__BLOCK_SIZE+0x12>
    1a46: 86 4b        	stx	$4b                     ; 0x204b <__heap_start+0xb>
    1a48: a6 13        	ldx	$13                     ; 0x2013 <__BLOCK_SIZE+0x13>
    1a4a: 86 4a        	stx	$4a                     ; 0x204a <__heap_start+0xa>
    1a4c: d0 07        	bne	$1a55 <printf+0xb19>
    1a4e: a6 12        	ldx	$12                     ; 0x2012 <__BLOCK_SIZE+0x12>
    1a50: d0 03        	bne	$1a55 <printf+0xb19>
    1a52: 4c ce 19     	jmp	$19ce <printf+0xa92>
    1a55: c5 74        	cmp	$74                     ; 0x2074 <__heap_start+0x34>
    1a57: f0 03        	beq	$1a5c <printf+0xb20>
    1a59: 4c fc 19     	jmp	$19fc <printf+0xac0>
    1a5c: a6 73        	ldx	$73                     ; 0x2073 <__heap_start+0x33>
    1a5e: 86 12        	stx	$12                     ; 0x2012 <__BLOCK_SIZE+0x12>
    1a60: a6 14        	ldx	$14                     ; 0x2014 <__BLOCK_SIZE+0x14>
    1a62: e4 12        	cpx	$12                     ; 0x2012 <__BLOCK_SIZE+0x12>
    1a64: b0 be        	bcs	$1a24 <printf+0xae8>
    1a66: 4c 00 1a     	jmp	$1a00 <printf+0xac4>
    1a69: 86 12        	stx	$12                     ; 0x2012 <__BLOCK_SIZE+0x12>
    1a6b: c5 12        	cmp	$12                     ; 0x2012 <__BLOCK_SIZE+0x12>
    1a6d: 98           	tya
    1a6e: a0 01        	ldy	#$1
    1a70: 90 20        	bcc	$1a92 <printf+0xb56>
    1a72: a6 13        	ldx	$13                     ; 0x2013 <__BLOCK_SIZE+0x13>
    1a74: d0 03        	bne	$1a79 <printf+0xb3d>
    1a76: aa           	tax
    1a77: f0 19        	beq	$1a92 <printf+0xb56>
    1a79: 18           	clc
    1a7a: 65 79        	adc	$79                     ; 0x2079 <__heap_start+0x39>
    1a7c: 85 12        	sta	$12                     ; 0x2012 <__BLOCK_SIZE+0x12>
    1a7e: a5 13        	lda	$13                     ; 0x2013 <__BLOCK_SIZE+0x13>
    1a80: 65 7a        	adc	$7a                     ; 0x207a <__heap_start+0x3a>
    1a82: 85 13        	sta	$13                     ; 0x2013 <__BLOCK_SIZE+0x13>
    1a84: a2 ff        	ldx	#$ff
    1a86: c6 12        	dec	$12                     ; 0x2012 <__BLOCK_SIZE+0x12>
    1a88: e4 12        	cpx	$12                     ; 0x2012 <__BLOCK_SIZE+0x12>
    1a8a: d0 02        	bne	$1a8e <printf+0xb52>
    1a8c: c6 13        	dec	$13                     ; 0x2013 <__BLOCK_SIZE+0x13>
    1a8e: a9 00        	lda	#$0
    1a90: 92 12        	sta	($12)                   ; 0x2012 <__BLOCK_SIZE+0x12>
    1a92: e6 46        	inc	$46                     ; 0x2046 <__heap_start+0x6>
    1a94: d0 02        	bne	$1a98 <printf+0xb5c>
    1a96: e6 47        	inc	$47                     ; 0x2047 <__heap_start+0x7>
    1a98: a6 47        	ldx	$47                     ; 0x2047 <__heap_start+0x7>
    1a9a: e4 45        	cpx	$45                     ; 0x2045 <__heap_start+0x5>
    1a9c: f0 03        	beq	$1aa1 <printf+0xb65>
    1a9e: 4c a1 0f     	jmp	$fa1 <printf+0x65>
    1aa1: a6 46        	ldx	$46                     ; 0x2046 <__heap_start+0x6>
    1aa3: e4 44        	cpx	$44                     ; 0x2044 <__heap_start+0x4>
    1aa5: f0 03        	beq	$1aaa <printf+0xb6e>
    1aa7: 4c a1 0f     	jmp	$fa1 <printf+0x65>
    1aaa: b2 44        	lda	($44)                   ; 0x2044 <__heap_start+0x4>
    1aac: a2 00        	ldx	#$0
    1aae: 86 42        	stx	$42                     ; 0x2042 <__heap_start+0x2>
    1ab0: a2 00        	ldx	#$0
    1ab2: 86 43        	stx	$43                     ; 0x2043 <__heap_start+0x3>
    1ab4: 4c b5 0f     	jmp	$fb5 <printf+0x79>
    1ab7: e4 49        	cpx	$49                     ; 0x2049 <__heap_start+0x9>
    1ab9: a6 41        	ldx	$41                     ; 0x2041 <__heap_start+0x1>
    1abb: b0 03        	bcs	$1ac0 <printf+0xb84>
    1abd: 4c e1 15     	jmp	$15e1 <printf+0x6a5>
    1ac0: a5 40        	lda	$40                     ; 0x2040 <__heap_start>
    1ac2: 85 48        	sta	$48                     ; 0x2048 <__heap_start+0x8>
    1ac4: 64 49        	stz	$49                     ; 0x2049 <__heap_start+0x9>
    1ac6: e6 48        	inc	$48                     ; 0x2048 <__heap_start+0x8>
    1ac8: f0 03        	beq	$1acd <printf+0xb91>
    1aca: 4c e1 15     	jmp	$15e1 <printf+0x6a5>
    1acd: e6 49        	inc	$49                     ; 0x2049 <__heap_start+0x9>
    1acf: 4c e1 15     	jmp	$15e1 <printf+0x6a5>
    1ad2: a2 58        	ldx	#$58
    1ad4: 86 8a        	stx	$8a                     ; 0x208a <__heap_start+0x4a>
    1ad6: a2 01        	ldx	#$1
    1ad8: 86 85        	stx	$85                     ; 0x2085 <__heap_start+0x45>
    1ada: a2 30        	ldx	#$30
    1adc: 86 87        	stx	$87                     ; 0x2087 <__heap_start+0x47>
    1ade: a9 02        	lda	#$2
    1ae0: a2 00        	ldx	#$0
    1ae2: 86 86        	stx	$86                     ; 0x2086 <__heap_start+0x46>
    1ae4: 4c 22 16     	jmp	$1622 <printf+0x6e6>
    1ae7: 64 4b        	stz	$4b                     ; 0x204b <__heap_start+0xb>
    1ae9: 64 4a        	stz	$4a                     ; 0x204a <__heap_start+0xa>
    1aeb: 4c 49 18     	jmp	$1849 <printf+0x90d>
    1aee: 60           	rts

00001aef <putchar>:
    1aef: 85 41        	sta	$41                     ; 0x2041 <__heap_start+0x1>
    1af1: 86 40        	stx	$40                     ; 0x2040 <__heap_start>
    1af3: 20 4c 0d     	jsr	$d4c <__putchar>
    1af6: a6 40        	ldx	$40                     ; 0x2040 <__heap_start>
    1af8: a5 41        	lda	$41                     ; 0x2041 <__heap_start+0x1>
    1afa: 60           	rts

00001afb <malloc>:
    1afb: a8           	tay
    1afc: 8a           	txa
    1afd: a2 00        	ldx	#$0
    1aff: 86 12        	stx	$12                     ; 0x2012 <__BLOCK_SIZE+0x12>
    1b01: a2 00        	ldx	#$0
    1b03: 86 13        	stx	$13                     ; 0x2013 <__BLOCK_SIZE+0x13>
    1b05: aa           	tax
    1b06: d0 07        	bne	$1b0f <malloc+0x14>
    1b08: c0 00        	cpy	#$0
    1b0a: d0 03        	bne	$1b0f <malloc+0x14>
    1b0c: 4c 01 1c     	jmp	$1c01 <malloc+0x106>
    1b0f: 84 16        	sty	$16                     ; 0x2016 <__BLOCK_SIZE+0x16>
    1b11: aa           	tax
    1b12: d0 0e        	bne	$1b22 <malloc+0x27>
    1b14: a6 16        	ldx	$16                     ; 0x2016 <__BLOCK_SIZE+0x16>
    1b16: e0 07        	cpx	#$7
    1b18: b0 0c        	bcs	$1b26 <malloc+0x2b>
    1b1a: a2 08        	ldx	#$8
    1b1c: 86 41        	stx	$41                     ; 0x2041 <__heap_start+0x1>
    1b1e: a9 00        	lda	#$0
    1b20: 80 2f        	bra	$1b51 <malloc+0x56>
    1b22: c9 00        	cmp	#$0
    1b24: 90 f4        	bcc	$1b1a <malloc+0x1f>
    1b26: a8           	tay
    1b27: a5 16        	lda	$16                     ; 0x2016 <__BLOCK_SIZE+0x16>
    1b29: 29 01        	and	#$1
    1b2b: a2 02        	ldx	#$2
    1b2d: 64 14        	stz	$14                     ; 0x2014 <__BLOCK_SIZE+0x14>
    1b2f: c9 00        	cmp	#$0
    1b31: f0 02        	beq	$1b35 <malloc+0x3a>
    1b33: a2 03        	ldx	#$3
    1b35: 86 15        	stx	$15                     ; 0x2015 <__BLOCK_SIZE+0x15>
    1b37: 18           	clc
    1b38: a5 16        	lda	$16                     ; 0x2016 <__BLOCK_SIZE+0x16>
    1b3a: 65 15        	adc	$15                     ; 0x2015 <__BLOCK_SIZE+0x15>
    1b3c: aa           	tax
    1b3d: 98           	tya
    1b3e: 65 14        	adc	$14                     ; 0x2014 <__BLOCK_SIZE+0x14>
    1b40: 90 03        	bcc	$1b45 <malloc+0x4a>
    1b42: 4c 01 1c     	jmp	$1c01 <malloc+0x106>
    1b45: 86 41        	stx	$41                     ; 0x2041 <__heap_start+0x1>
    1b47: a8           	tay
    1b48: d0 07        	bne	$1b51 <malloc+0x56>
    1b4a: e0 00        	cpx	#$0
    1b4c: d0 03        	bne	$1b51 <malloc+0x56>
    1b4e: 4c 01 1c     	jmp	$1c01 <malloc+0x106>
    1b51: 85 40        	sta	$40                     ; 0x2040 <__heap_start>
    1b53: ad 3a 1f     	lda	$1f3a                   ; 0x1f3a <__bss_start>
    1b56: 29 01        	and	#$1
    1b58: d0 2d        	bne	$1b87 <malloc+0x8c>
    1b5a: a9 00        	lda	#$0
    1b5c: a2 10        	ldx	#$10
    1b5e: a0 40        	ldy	#$40
    1b60: 84 12        	sty	$12                     ; 0x2012 <__BLOCK_SIZE+0x12>
    1b62: a0 20        	ldy	#$20
    1b64: 84 13        	sty	$13                     ; 0x2013 <__BLOCK_SIZE+0x13>
    1b66: 20 16 03     	jsr	$316 <_ZN12_GLOBAL__N_19FreeChunk6insertEPvj>
    1b69: a2 00        	ldx	#$0
    1b6b: 86 12        	stx	$12                     ; 0x2012 <__BLOCK_SIZE+0x12>
    1b6d: a2 00        	ldx	#$0
    1b6f: 86 13        	stx	$13                     ; 0x2013 <__BLOCK_SIZE+0x13>
    1b71: ae 41 20     	ldx	$2041                   ; 0x2041 <__heap_start+0x1>
    1b74: a9 fe        	lda	#$fe
    1b76: 2d 40 20     	and	$2040                   ; 0x2040 <__heap_start>
    1b79: 8d 40 20     	sta	$2040                   ; 0x2040 <__heap_start>
    1b7c: 8e 41 20     	stx	$2041                   ; 0x2041 <__heap_start+0x1>
    1b7f: a2 01        	ldx	#$1
    1b81: 8e 3b 1f     	stx	$1f3b                   ; 0x1f3b <_ZN12_GLOBAL__N_19last_freeE>
    1b84: 8e 3a 1f     	stx	$1f3a                   ; 0x1f3a <__bss_start>
    1b87: ae 3e 1f     	ldx	$1f3e                   ; 0x1f3e <_ZN12_GLOBAL__N_19free_listE>
    1b8a: 86 16        	stx	$16                     ; 0x2016 <__BLOCK_SIZE+0x16>
    1b8c: ac 3f 1f     	ldy	$1f3f                   ; 0x1f3f <_ZN12_GLOBAL__N_19free_listE+0x1>
    1b8f: 84 17        	sty	$17                     ; 0x2017 <__BLOCK_SIZE+0x17>
    1b91: a9 00        	lda	#$0
    1b93: 85 14        	sta	$14                     ; 0x2014 <__BLOCK_SIZE+0x14>
    1b95: a9 00        	lda	#$0
    1b97: 85 15        	sta	$15                     ; 0x2015 <__BLOCK_SIZE+0x15>
    1b99: c4 15        	cpy	$15                     ; 0x2015 <__BLOCK_SIZE+0x15>
    1b9b: d0 07        	bne	$1ba4 <malloc+0xa9>
    1b9d: e4 14        	cpx	$14                     ; 0x2014 <__BLOCK_SIZE+0x14>
    1b9f: d0 03        	bne	$1ba4 <malloc+0xa9>
    1ba1: 4c 01 1c     	jmp	$1c01 <malloc+0x106>
    1ba4: a2 00        	ldx	#$0
    1ba6: a0 10        	ldy	#$10
    1ba8: 86 14        	stx	$14                     ; 0x2014 <__BLOCK_SIZE+0x14>
    1baa: 84 15        	sty	$15                     ; 0x2015 <__BLOCK_SIZE+0x15>
    1bac: 18           	clc
    1bad: a9 40        	lda	#$40
    1baf: 65 14        	adc	$14                     ; 0x2014 <__BLOCK_SIZE+0x14>
    1bb1: 85 18        	sta	$18                     ; 0x2018 <__BLOCK_SIZE+0x18>
    1bb3: a9 20        	lda	#$20
    1bb5: 65 15        	adc	$15                     ; 0x2015 <__BLOCK_SIZE+0x15>
    1bb7: 85 44        	sta	$44                     ; 0x2044 <__heap_start+0x4>
    1bb9: a0 01        	ldy	#$1
    1bbb: a6 40        	ldx	$40                     ; 0x2040 <__heap_start>
    1bbd: 86 19        	stx	$19                     ; 0x2019 <__BLOCK_SIZE+0x19>
    1bbf: a6 16        	ldx	$16                     ; 0x2016 <__BLOCK_SIZE+0x16>
    1bc1: 86 14        	stx	$14                     ; 0x2014 <__BLOCK_SIZE+0x14>
    1bc3: a6 17        	ldx	$17                     ; 0x2017 <__BLOCK_SIZE+0x17>
    1bc5: 86 15        	stx	$15                     ; 0x2015 <__BLOCK_SIZE+0x15>
    1bc7: b1 14        	lda	($14),y                 ; 0x2014 <__BLOCK_SIZE+0x14>
    1bc9: c5 19        	cmp	$19                     ; 0x2019 <__BLOCK_SIZE+0x19>
    1bcb: d0 0e        	bne	$1bdb <malloc+0xe0>
    1bcd: b2 14        	lda	($14)                   ; 0x2014 <__BLOCK_SIZE+0x14>
    1bcf: 29 fe        	and	#$fe
    1bd1: a6 41        	ldx	$41                     ; 0x2041 <__heap_start+0x1>
    1bd3: 86 1a        	stx	$1a                     ; 0x201a <__BLOCK_SIZE+0x1a>
    1bd5: c5 1a        	cmp	$1a                     ; 0x201a <__BLOCK_SIZE+0x1a>
    1bd7: b0 29        	bcs	$1c02 <malloc+0x107>
    1bd9: 80 04        	bra	$1bdf <malloc+0xe4>
    1bdb: c5 19        	cmp	$19                     ; 0x2019 <__BLOCK_SIZE+0x19>
    1bdd: b0 23        	bcs	$1c02 <malloc+0x107>
    1bdf: a5 14        	lda	$14                     ; 0x2014 <__BLOCK_SIZE+0x14>
    1be1: 18           	clc
    1be2: 69 02        	adc	#$2
    1be4: 85 1a        	sta	$1a                     ; 0x201a <__BLOCK_SIZE+0x1a>
    1be6: a5 15        	lda	$15                     ; 0x2015 <__BLOCK_SIZE+0x15>
    1be8: 69 00        	adc	#$0
    1bea: 85 1b        	sta	$1b                     ; 0x201b <__BLOCK_SIZE+0x1b>
    1bec: a0 02        	ldy	#$2
    1bee: b1 14        	lda	($14),y                 ; 0x2014 <__BLOCK_SIZE+0x14>
    1bf0: 85 14        	sta	$14                     ; 0x2014 <__BLOCK_SIZE+0x14>
    1bf2: 88           	dey
    1bf3: b1 1a        	lda	($1a),y                 ; 0x201a <__BLOCK_SIZE+0x1a>
    1bf5: 85 15        	sta	$15                     ; 0x2015 <__BLOCK_SIZE+0x15>
    1bf7: c5 17        	cmp	$17                     ; 0x2017 <__BLOCK_SIZE+0x17>
    1bf9: d0 cc        	bne	$1bc7 <malloc+0xcc>
    1bfb: a5 14        	lda	$14                     ; 0x2014 <__BLOCK_SIZE+0x14>
    1bfd: c5 16        	cmp	$16                     ; 0x2016 <__BLOCK_SIZE+0x16>
    1bff: d0 c6        	bne	$1bc7 <malloc+0xcc>
    1c01: 60           	rts
    1c02: a6 18        	ldx	$18                     ; 0x2018 <__BLOCK_SIZE+0x18>
    1c04: 86 45        	stx	$45                     ; 0x2045 <__heap_start+0x5>
    1c06: a6 14        	ldx	$14                     ; 0x2014 <__BLOCK_SIZE+0x14>
    1c08: 86 12        	stx	$12                     ; 0x2012 <__BLOCK_SIZE+0x12>
    1c0a: a6 15        	ldx	$15                     ; 0x2015 <__BLOCK_SIZE+0x15>
    1c0c: 86 13        	stx	$13                     ; 0x2013 <__BLOCK_SIZE+0x13>
    1c0e: a6 14        	ldx	$14                     ; 0x2014 <__BLOCK_SIZE+0x14>
    1c10: 86 42        	stx	$42                     ; 0x2042 <__heap_start+0x2>
    1c12: a6 15        	ldx	$15                     ; 0x2015 <__BLOCK_SIZE+0x15>
    1c14: 86 43        	stx	$43                     ; 0x2043 <__heap_start+0x3>
    1c16: 20 50 04     	jsr	$450 <_ZN12_GLOBAL__N_19FreeChunk6removeEv>
    1c19: a6 42        	ldx	$42                     ; 0x2042 <__heap_start+0x2>
    1c1b: 86 12        	stx	$12                     ; 0x2012 <__BLOCK_SIZE+0x12>
    1c1d: a6 43        	ldx	$43                     ; 0x2043 <__heap_start+0x3>
    1c1f: 86 13        	stx	$13                     ; 0x2013 <__BLOCK_SIZE+0x13>
    1c21: a0 01        	ldy	#$1
    1c23: b1 12        	lda	($12),y                 ; 0x2012 <__BLOCK_SIZE+0x12>
    1c25: 85 15        	sta	$15                     ; 0x2015 <__BLOCK_SIZE+0x15>
    1c27: a9 fe        	lda	#$fe
    1c29: 32 12        	and	($12)                   ; 0x2012 <__BLOCK_SIZE+0x12>
    1c2b: 38           	sec
    1c2c: a6 41        	ldx	$41                     ; 0x2041 <__heap_start+0x1>
    1c2e: 86 14        	stx	$14                     ; 0x2014 <__BLOCK_SIZE+0x14>
    1c30: 85 17        	sta	$17                     ; 0x2017 <__BLOCK_SIZE+0x17>
    1c32: e5 14        	sbc	$14                     ; 0x2014 <__BLOCK_SIZE+0x14>
    1c34: a8           	tay
    1c35: a6 40        	ldx	$40                     ; 0x2040 <__heap_start>
    1c37: 86 14        	stx	$14                     ; 0x2014 <__BLOCK_SIZE+0x14>
    1c39: a5 15        	lda	$15                     ; 0x2015 <__BLOCK_SIZE+0x15>
    1c3b: 85 16        	sta	$16                     ; 0x2016 <__BLOCK_SIZE+0x16>
    1c3d: e5 14        	sbc	$14                     ; 0x2014 <__BLOCK_SIZE+0x14>
    1c3f: d0 06        	bne	$1c47 <malloc+0x14c>
    1c41: 85 18        	sta	$18                     ; 0x2018 <__BLOCK_SIZE+0x18>
    1c43: c0 08        	cpy	#$8
    1c45: 80 04        	bra	$1c4b <malloc+0x150>
    1c47: 85 18        	sta	$18                     ; 0x2018 <__BLOCK_SIZE+0x18>
    1c49: c9 00        	cmp	#$0
    1c4b: a6 45        	ldx	$45                     ; 0x2045 <__heap_start+0x5>
    1c4d: 86 14        	stx	$14                     ; 0x2014 <__BLOCK_SIZE+0x14>
    1c4f: a6 44        	ldx	$44                     ; 0x2044 <__heap_start+0x4>
    1c51: 86 15        	stx	$15                     ; 0x2015 <__BLOCK_SIZE+0x15>
    1c53: a5 17        	lda	$17                     ; 0x2017 <__BLOCK_SIZE+0x17>
    1c55: 90 43        	bcc	$1c9a <malloc+0x19f>
    1c57: 18           	clc
    1c58: a6 41        	ldx	$41                     ; 0x2041 <__heap_start+0x1>
    1c5a: 86 41        	stx	$41                     ; 0x2041 <__heap_start+0x1>
    1c5c: 8a           	txa
    1c5d: 65 12        	adc	$12                     ; 0x2012 <__BLOCK_SIZE+0x12>
    1c5f: 85 12        	sta	$12                     ; 0x2012 <__BLOCK_SIZE+0x12>
    1c61: a6 40        	ldx	$40                     ; 0x2040 <__heap_start>
    1c63: 86 40        	stx	$40                     ; 0x2040 <__heap_start>
    1c65: a5 40        	lda	$40                     ; 0x2040 <__heap_start>
    1c67: 65 13        	adc	$13                     ; 0x2013 <__BLOCK_SIZE+0x13>
    1c69: 85 13        	sta	$13                     ; 0x2013 <__BLOCK_SIZE+0x13>
    1c6b: a6 18        	ldx	$18                     ; 0x2018 <__BLOCK_SIZE+0x18>
    1c6d: 98           	tya
    1c6e: 20 16 03     	jsr	$316 <_ZN12_GLOBAL__N_19FreeChunk6insertEPvj>
    1c71: a6 42        	ldx	$42                     ; 0x2042 <__heap_start+0x2>
    1c73: 86 12        	stx	$12                     ; 0x2012 <__BLOCK_SIZE+0x12>
    1c75: a6 43        	ldx	$43                     ; 0x2043 <__heap_start+0x3>
    1c77: 86 13        	stx	$13                     ; 0x2013 <__BLOCK_SIZE+0x13>
    1c79: a5 41        	lda	$41                     ; 0x2041 <__heap_start+0x1>
    1c7b: 29 fe        	and	#$fe
    1c7d: 85 14        	sta	$14                     ; 0x2014 <__BLOCK_SIZE+0x14>
    1c7f: a0 01        	ldy	#$1
    1c81: 98           	tya
    1c82: 32 12        	and	($12)                   ; 0x2012 <__BLOCK_SIZE+0x12>
    1c84: 05 14        	ora	$14                     ; 0x2014 <__BLOCK_SIZE+0x14>
    1c86: 92 12        	sta	($12)                   ; 0x2012 <__BLOCK_SIZE+0x12>
    1c88: a5 40        	lda	$40                     ; 0x2040 <__heap_start>
    1c8a: 91 12        	sta	($12),y                 ; 0x2012 <__BLOCK_SIZE+0x12>
    1c8c: a5 14        	lda	$14                     ; 0x2014 <__BLOCK_SIZE+0x14>
    1c8e: a6 40        	ldx	$40                     ; 0x2040 <__heap_start>
    1c90: 86 16        	stx	$16                     ; 0x2016 <__BLOCK_SIZE+0x16>
    1c92: a6 45        	ldx	$45                     ; 0x2045 <__heap_start+0x5>
    1c94: 86 14        	stx	$14                     ; 0x2014 <__BLOCK_SIZE+0x14>
    1c96: a6 44        	ldx	$44                     ; 0x2044 <__heap_start+0x4>
    1c98: 86 15        	stx	$15                     ; 0x2015 <__BLOCK_SIZE+0x15>
    1c9a: 18           	clc
    1c9b: 65 12        	adc	$12                     ; 0x2012 <__BLOCK_SIZE+0x12>
    1c9d: a8           	tay
    1c9e: a5 16        	lda	$16                     ; 0x2016 <__BLOCK_SIZE+0x16>
    1ca0: 65 13        	adc	$13                     ; 0x2013 <__BLOCK_SIZE+0x13>
    1ca2: c5 15        	cmp	$15                     ; 0x2015 <__BLOCK_SIZE+0x15>
    1ca4: d0 09        	bne	$1caf <malloc+0x1b4>
    1ca6: c4 14        	cpy	$14                     ; 0x2014 <__BLOCK_SIZE+0x14>
    1ca8: d0 05        	bne	$1caf <malloc+0x1b4>
    1caa: 9c 3b 1f     	stz	$1f3b                   ; 0x1f3b <_ZN12_GLOBAL__N_19last_freeE>
    1cad: 80 14        	bra	$1cc3 <malloc+0x1c8>
    1caf: 84 14        	sty	$14                     ; 0x2014 <__BLOCK_SIZE+0x14>
    1cb1: 85 15        	sta	$15                     ; 0x2015 <__BLOCK_SIZE+0x15>
    1cb3: a0 01        	ldy	#$1
    1cb5: b1 14        	lda	($14),y                 ; 0x2014 <__BLOCK_SIZE+0x14>
    1cb7: 85 16        	sta	$16                     ; 0x2016 <__BLOCK_SIZE+0x16>
    1cb9: a9 fe        	lda	#$fe
    1cbb: 32 14        	and	($14)                   ; 0x2014 <__BLOCK_SIZE+0x14>
    1cbd: 92 14        	sta	($14)                   ; 0x2014 <__BLOCK_SIZE+0x14>
    1cbf: a5 16        	lda	$16                     ; 0x2016 <__BLOCK_SIZE+0x16>
    1cc1: 91 14        	sta	($14),y                 ; 0x2014 <__BLOCK_SIZE+0x14>
    1cc3: a5 12        	lda	$12                     ; 0x2012 <__BLOCK_SIZE+0x12>
    1cc5: 18           	clc
    1cc6: 69 02        	adc	#$2
    1cc8: 85 12        	sta	$12                     ; 0x2012 <__BLOCK_SIZE+0x12>
    1cca: a5 13        	lda	$13                     ; 0x2013 <__BLOCK_SIZE+0x13>
    1ccc: 69 00        	adc	#$0
    1cce: 85 13        	sta	$13                     ; 0x2013 <__BLOCK_SIZE+0x13>
    1cd0: 60           	rts

00001cd1 <free>:
    1cd1: a6 12        	ldx	$12                     ; 0x2012 <__BLOCK_SIZE+0x12>
    1cd3: 86 14        	stx	$14                     ; 0x2014 <__BLOCK_SIZE+0x14>
    1cd5: a6 13        	ldx	$13                     ; 0x2013 <__BLOCK_SIZE+0x13>
    1cd7: 86 15        	stx	$15                     ; 0x2015 <__BLOCK_SIZE+0x15>
    1cd9: a2 00        	ldx	#$0
    1cdb: a0 10        	ldy	#$10
    1cdd: a9 40        	lda	#$40
    1cdf: 86 12        	stx	$12                     ; 0x2012 <__BLOCK_SIZE+0x12>
    1ce1: 84 13        	sty	$13                     ; 0x2013 <__BLOCK_SIZE+0x13>
    1ce3: 18           	clc
    1ce4: 65 12        	adc	$12                     ; 0x2012 <__BLOCK_SIZE+0x12>
    1ce6: 85 16        	sta	$16                     ; 0x2016 <__BLOCK_SIZE+0x16>
    1ce8: a9 20        	lda	#$20
    1cea: 65 13        	adc	$13                     ; 0x2013 <__BLOCK_SIZE+0x13>
    1cec: 85 17        	sta	$17                     ; 0x2017 <__BLOCK_SIZE+0x17>
    1cee: a5 14        	lda	$14                     ; 0x2014 <__BLOCK_SIZE+0x14>
    1cf0: 18           	clc
    1cf1: 69 fe        	adc	#$fe
    1cf3: 85 12        	sta	$12                     ; 0x2012 <__BLOCK_SIZE+0x12>
    1cf5: a5 15        	lda	$15                     ; 0x2015 <__BLOCK_SIZE+0x15>
    1cf7: 69 ff        	adc	#$ff
    1cf9: a6 12        	ldx	$12                     ; 0x2012 <__BLOCK_SIZE+0x12>
    1cfb: 86 40        	stx	$40                     ; 0x2040 <__heap_start>
    1cfd: aa           	tax
    1cfe: 85 41        	sta	$41                     ; 0x2041 <__heap_start+0x1>
    1d00: b2 40        	lda	($40)                   ; 0x2040 <__heap_start>
    1d02: 85 18        	sta	$18                     ; 0x2018 <__BLOCK_SIZE+0x18>
    1d04: a0 01        	ldy	#$1
    1d06: b1 40        	lda	($40),y                 ; 0x2040 <__heap_start>
    1d08: 85 43        	sta	$43                     ; 0x2043 <__heap_start+0x3>
    1d0a: a9 fe        	lda	#$fe
    1d0c: 32 40        	and	($40)                   ; 0x2040 <__heap_start>
    1d0e: 85 42        	sta	$42                     ; 0x2042 <__heap_start+0x2>
    1d10: a4 12        	ldy	$12                     ; 0x2012 <__BLOCK_SIZE+0x12>
    1d12: 84 19        	sty	$19                     ; 0x2019 <__BLOCK_SIZE+0x19>
    1d14: a5 12        	lda	$12                     ; 0x2012 <__BLOCK_SIZE+0x12>
    1d16: 18           	clc
    1d17: 65 42        	adc	$42                     ; 0x2042 <__heap_start+0x2>
    1d19: 85 12        	sta	$12                     ; 0x2012 <__BLOCK_SIZE+0x12>
    1d1b: 8a           	txa
    1d1c: 86 1a        	stx	$1a                     ; 0x201a <__BLOCK_SIZE+0x1a>
    1d1e: 65 43        	adc	$43                     ; 0x2043 <__heap_start+0x3>
    1d20: c5 17        	cmp	$17                     ; 0x2017 <__BLOCK_SIZE+0x17>
    1d22: d0 10        	bne	$1d34 <free+0x63>
    1d24: a6 12        	ldx	$12                     ; 0x2012 <__BLOCK_SIZE+0x12>
    1d26: e4 16        	cpx	$16                     ; 0x2016 <__BLOCK_SIZE+0x16>
    1d28: d0 0a        	bne	$1d34 <free+0x63>
    1d2a: a2 00        	ldx	#$0
    1d2c: 86 12        	stx	$12                     ; 0x2012 <__BLOCK_SIZE+0x12>
    1d2e: a2 00        	ldx	#$0
    1d30: 86 13        	stx	$13                     ; 0x2013 <__BLOCK_SIZE+0x13>
    1d32: 80 02        	bra	$1d36 <free+0x65>
    1d34: 85 13        	sta	$13                     ; 0x2013 <__BLOCK_SIZE+0x13>
    1d36: a5 18        	lda	$18                     ; 0x2018 <__BLOCK_SIZE+0x18>
    1d38: 29 01        	and	#$1
    1d3a: d0 03        	bne	$1d3f <free+0x6e>
    1d3c: 4c ba 1d     	jmp	$1dba <free+0xe9>
    1d3f: a5 14        	lda	$14                     ; 0x2014 <__BLOCK_SIZE+0x14>
    1d41: 18           	clc
    1d42: 69 fc        	adc	#$fc
    1d44: 85 14        	sta	$14                     ; 0x2014 <__BLOCK_SIZE+0x14>
    1d46: a5 15        	lda	$15                     ; 0x2015 <__BLOCK_SIZE+0x15>
    1d48: 69 ff        	adc	#$ff
    1d4a: 85 15        	sta	$15                     ; 0x2015 <__BLOCK_SIZE+0x15>
    1d4c: a0 01        	ldy	#$1
    1d4e: 38           	sec
    1d4f: a9 00        	lda	#$0
    1d51: f2 14        	sbc	($14)                   ; 0x2014 <__BLOCK_SIZE+0x14>
    1d53: 85 18        	sta	$18                     ; 0x2018 <__BLOCK_SIZE+0x18>
    1d55: a9 00        	lda	#$0
    1d57: f1 14        	sbc	($14),y                 ; 0x2014 <__BLOCK_SIZE+0x14>
    1d59: 85 14        	sta	$14                     ; 0x2014 <__BLOCK_SIZE+0x14>
    1d5b: a5 19        	lda	$19                     ; 0x2019 <__BLOCK_SIZE+0x19>
    1d5d: 18           	clc
    1d5e: 65 18        	adc	$18                     ; 0x2018 <__BLOCK_SIZE+0x18>
    1d60: 85 40        	sta	$40                     ; 0x2040 <__heap_start>
    1d62: a5 1a        	lda	$1a                     ; 0x201a <__BLOCK_SIZE+0x1a>
    1d64: 65 14        	adc	$14                     ; 0x2014 <__BLOCK_SIZE+0x14>
    1d66: 85 41        	sta	$41                     ; 0x2041 <__heap_start+0x1>
    1d68: b1 40        	lda	($40),y                 ; 0x2040 <__heap_start>
    1d6a: 85 47        	sta	$47                     ; 0x2047 <__heap_start+0x7>
    1d6c: a9 fe        	lda	#$fe
    1d6e: 32 40        	and	($40)                   ; 0x2040 <__heap_start>
    1d70: 85 44        	sta	$44                     ; 0x2044 <__heap_start+0x4>
    1d72: a6 42        	ldx	$42                     ; 0x2042 <__heap_start+0x2>
    1d74: 86 49        	stx	$49                     ; 0x2049 <__heap_start+0x9>
    1d76: a6 43        	ldx	$43                     ; 0x2043 <__heap_start+0x3>
    1d78: 86 48        	stx	$48                     ; 0x2048 <__heap_start+0x8>
    1d7a: a6 12        	ldx	$12                     ; 0x2012 <__BLOCK_SIZE+0x12>
    1d7c: 86 45        	stx	$45                     ; 0x2045 <__heap_start+0x5>
    1d7e: a6 13        	ldx	$13                     ; 0x2013 <__BLOCK_SIZE+0x13>
    1d80: 86 46        	stx	$46                     ; 0x2046 <__heap_start+0x6>
    1d82: a6 40        	ldx	$40                     ; 0x2040 <__heap_start>
    1d84: 86 12        	stx	$12                     ; 0x2012 <__BLOCK_SIZE+0x12>
    1d86: a6 41        	ldx	$41                     ; 0x2041 <__heap_start+0x1>
    1d88: 86 13        	stx	$13                     ; 0x2013 <__BLOCK_SIZE+0x13>
    1d8a: a6 16        	ldx	$16                     ; 0x2016 <__BLOCK_SIZE+0x16>
    1d8c: 86 42        	stx	$42                     ; 0x2042 <__heap_start+0x2>
    1d8e: a6 17        	ldx	$17                     ; 0x2017 <__BLOCK_SIZE+0x17>
    1d90: 86 43        	stx	$43                     ; 0x2043 <__heap_start+0x3>
    1d92: 20 50 04     	jsr	$450 <_ZN12_GLOBAL__N_19FreeChunk6removeEv>
    1d95: a6 43        	ldx	$43                     ; 0x2043 <__heap_start+0x3>
    1d97: 86 17        	stx	$17                     ; 0x2017 <__BLOCK_SIZE+0x17>
    1d99: a6 42        	ldx	$42                     ; 0x2042 <__heap_start+0x2>
    1d9b: 86 16        	stx	$16                     ; 0x2016 <__BLOCK_SIZE+0x16>
    1d9d: a6 45        	ldx	$45                     ; 0x2045 <__heap_start+0x5>
    1d9f: 86 12        	stx	$12                     ; 0x2012 <__BLOCK_SIZE+0x12>
    1da1: a6 46        	ldx	$46                     ; 0x2046 <__heap_start+0x6>
    1da3: 86 13        	stx	$13                     ; 0x2013 <__BLOCK_SIZE+0x13>
    1da5: 18           	clc
    1da6: a5 44        	lda	$44                     ; 0x2044 <__heap_start+0x4>
    1da8: a6 49        	ldx	$49                     ; 0x2049 <__heap_start+0x9>
    1daa: 86 14        	stx	$14                     ; 0x2014 <__BLOCK_SIZE+0x14>
    1dac: 65 14        	adc	$14                     ; 0x2014 <__BLOCK_SIZE+0x14>
    1dae: 85 42        	sta	$42                     ; 0x2042 <__heap_start+0x2>
    1db0: a5 47        	lda	$47                     ; 0x2047 <__heap_start+0x7>
    1db2: a6 48        	ldx	$48                     ; 0x2048 <__heap_start+0x8>
    1db4: 86 14        	stx	$14                     ; 0x2014 <__BLOCK_SIZE+0x14>
    1db6: 65 14        	adc	$14                     ; 0x2014 <__BLOCK_SIZE+0x14>
    1db8: 85 43        	sta	$43                     ; 0x2043 <__heap_start+0x3>
    1dba: a2 00        	ldx	#$0
    1dbc: 86 14        	stx	$14                     ; 0x2014 <__BLOCK_SIZE+0x14>
    1dbe: a2 00        	ldx	#$0
    1dc0: 86 15        	stx	$15                     ; 0x2015 <__BLOCK_SIZE+0x15>
    1dc2: a6 13        	ldx	$13                     ; 0x2013 <__BLOCK_SIZE+0x13>
    1dc4: e4 15        	cpx	$15                     ; 0x2015 <__BLOCK_SIZE+0x15>
    1dc6: d0 0d        	bne	$1dd5 <free+0x104>
    1dc8: a6 12        	ldx	$12                     ; 0x2012 <__BLOCK_SIZE+0x12>
    1dca: e4 14        	cpx	$14                     ; 0x2014 <__BLOCK_SIZE+0x14>
    1dcc: d0 07        	bne	$1dd5 <free+0x104>
    1dce: a2 01        	ldx	#$1
    1dd0: 8e 3b 1f     	stx	$1f3b                   ; 0x1f3b <_ZN12_GLOBAL__N_19last_freeE>
    1dd3: 80 48        	bra	$1e1d <free+0x14c>
    1dd5: a0 01        	ldy	#$1
    1dd7: b1 12        	lda	($12),y                 ; 0x2012 <__BLOCK_SIZE+0x12>
    1dd9: a8           	tay
    1dda: a9 fe        	lda	#$fe
    1ddc: 32 12        	and	($12)                   ; 0x2012 <__BLOCK_SIZE+0x12>
    1dde: 18           	clc
    1ddf: 85 45        	sta	$45                     ; 0x2045 <__heap_start+0x5>
    1de1: 65 12        	adc	$12                     ; 0x2012 <__BLOCK_SIZE+0x12>
    1de3: 85 14        	sta	$14                     ; 0x2014 <__BLOCK_SIZE+0x14>
    1de5: 98           	tya
    1de6: 84 44        	sty	$44                     ; 0x2044 <__heap_start+0x4>
    1de8: 65 13        	adc	$13                     ; 0x2013 <__BLOCK_SIZE+0x13>
    1dea: c5 17        	cmp	$17                     ; 0x2017 <__BLOCK_SIZE+0x17>
    1dec: d0 0f        	bne	$1dfd <free+0x12c>
    1dee: a6 14        	ldx	$14                     ; 0x2014 <__BLOCK_SIZE+0x14>
    1df0: e4 16        	cpx	$16                     ; 0x2016 <__BLOCK_SIZE+0x16>
    1df2: d0 09        	bne	$1dfd <free+0x12c>
    1df4: a9 01        	lda	#$1
    1df6: 64 14        	stz	$14                     ; 0x2014 <__BLOCK_SIZE+0x14>
    1df8: 2d 3b 1f     	and	$1f3b                   ; 0x1f3b <_ZN12_GLOBAL__N_19last_freeE>
    1dfb: 80 08        	bra	$1e05 <free+0x134>
    1dfd: 85 15        	sta	$15                     ; 0x2015 <__BLOCK_SIZE+0x15>
    1dff: a9 01        	lda	#$1
    1e01: 32 14        	and	($14)                   ; 0x2014 <__BLOCK_SIZE+0x14>
    1e03: 64 14        	stz	$14                     ; 0x2014 <__BLOCK_SIZE+0x14>
    1e05: a6 14        	ldx	$14                     ; 0x2014 <__BLOCK_SIZE+0x14>
    1e07: d0 03        	bne	$1e0c <free+0x13b>
    1e09: aa           	tax
    1e0a: f0 20        	beq	$1e2c <free+0x15b>
    1e0c: 20 50 04     	jsr	$450 <_ZN12_GLOBAL__N_19FreeChunk6removeEv>
    1e0f: 18           	clc
    1e10: a6 45        	ldx	$45                     ; 0x2045 <__heap_start+0x5>
    1e12: 8a           	txa
    1e13: 65 42        	adc	$42                     ; 0x2042 <__heap_start+0x2>
    1e15: 85 42        	sta	$42                     ; 0x2042 <__heap_start+0x2>
    1e17: a5 44        	lda	$44                     ; 0x2044 <__heap_start+0x4>
    1e19: 65 43        	adc	$43                     ; 0x2043 <__heap_start+0x3>
    1e1b: 85 43        	sta	$43                     ; 0x2043 <__heap_start+0x3>
    1e1d: a6 40        	ldx	$40                     ; 0x2040 <__heap_start>
    1e1f: 86 12        	stx	$12                     ; 0x2012 <__BLOCK_SIZE+0x12>
    1e21: a6 41        	ldx	$41                     ; 0x2041 <__heap_start+0x1>
    1e23: 86 13        	stx	$13                     ; 0x2013 <__BLOCK_SIZE+0x13>
    1e25: a6 43        	ldx	$43                     ; 0x2043 <__heap_start+0x3>
    1e27: a5 42        	lda	$42                     ; 0x2042 <__heap_start+0x2>
    1e29: 4c 16 03     	jmp	$316 <_ZN12_GLOBAL__N_19FreeChunk6insertEPvj>
    1e2c: b2 12        	lda	($12)                   ; 0x2012 <__BLOCK_SIZE+0x12>
    1e2e: 09 01        	ora	#$1
    1e30: 92 12        	sta	($12)                   ; 0x2012 <__BLOCK_SIZE+0x12>
    1e32: a0 01        	ldy	#$1
    1e34: a5 44        	lda	$44                     ; 0x2044 <__heap_start+0x4>
    1e36: 91 12        	sta	($12),y                 ; 0x2012 <__BLOCK_SIZE+0x12>
    1e38: 80 e3        	bra	$1e1d <free+0x14c>

00001e3a <memcpy>:
    1e3a: a8           	tay
    1e3b: 8a           	txa
    1e3c: d0 03        	bne	$1e41 <memcpy+0x7>
    1e3e: 98           	tya
    1e3f: f0 24        	beq	$1e65 <memcpy+0x2b>
    1e41: a5 12        	lda	$12                     ; 0x2012 <__BLOCK_SIZE+0x12>
    1e43: 85 16        	sta	$16                     ; 0x2016 <__BLOCK_SIZE+0x16>
    1e45: a5 13        	lda	$13                     ; 0x2013 <__BLOCK_SIZE+0x13>
    1e47: 85 17        	sta	$17                     ; 0x2017 <__BLOCK_SIZE+0x17>
    1e49: b2 14        	lda	($14)                   ; 0x2014 <__BLOCK_SIZE+0x14>
    1e4b: 92 16        	sta	($16)                   ; 0x2016 <__BLOCK_SIZE+0x16>
    1e4d: e6 16        	inc	$16                     ; 0x2016 <__BLOCK_SIZE+0x16>
    1e4f: d0 02        	bne	$1e53 <memcpy+0x19>
    1e51: e6 17        	inc	$17                     ; 0x2017 <__BLOCK_SIZE+0x17>
    1e53: e6 14        	inc	$14                     ; 0x2014 <__BLOCK_SIZE+0x14>
    1e55: d0 02        	bne	$1e59 <memcpy+0x1f>
    1e57: e6 15        	inc	$15                     ; 0x2015 <__BLOCK_SIZE+0x15>
    1e59: 88           	dey
    1e5a: c0 ff        	cpy	#$ff
    1e5c: d0 01        	bne	$1e5f <memcpy+0x25>
    1e5e: ca           	dex
    1e5f: 8a           	txa
    1e60: d0 e7        	bne	$1e49 <memcpy+0xf>
    1e62: 98           	tya
    1e63: d0 e4        	bne	$1e49 <memcpy+0xf>
    1e65: 60           	rts

00001e66 <__memset>:
    1e66: a4 14        	ldy	$14                     ; 0x2014 <__BLOCK_SIZE+0x14>
    1e68: d0 04        	bne	$1e6e <__memset+0x8>
    1e6a: e0 00        	cpx	#$0
    1e6c: f0 17        	beq	$1e85 <__memset+0x1f>
    1e6e: 92 12        	sta	($12)                   ; 0x2012 <__BLOCK_SIZE+0x12>
    1e70: e6 12        	inc	$12                     ; 0x2012 <__BLOCK_SIZE+0x12>
    1e72: d0 02        	bne	$1e76 <__memset+0x10>
    1e74: e6 13        	inc	$13                     ; 0x2013 <__BLOCK_SIZE+0x13>
    1e76: ca           	dex
    1e77: e0 ff        	cpx	#$ff
    1e79: d0 02        	bne	$1e7d <__memset+0x17>
    1e7b: c6 14        	dec	$14                     ; 0x2014 <__BLOCK_SIZE+0x14>
    1e7d: a4 14        	ldy	$14                     ; 0x2014 <__BLOCK_SIZE+0x14>
    1e7f: d0 ed        	bne	$1e6e <__memset+0x8>
    1e81: e0 00        	cpx	#$0
    1e83: d0 e9        	bne	$1e6e <__memset+0x8>
    1e85: 60           	rts

00001e86 <strlen>:
    1e86: a9 0a        	lda	#$a
    1e88: a2 00        	ldx	#$0
    1e8a: 60           	rts
