
textColors.elf:	file format elf32-mos

SYMBOL TABLE:
00000000 l    df *ABS*	00000000 zero-bss.c
00000000 l    df *ABS*	00000000 zero-zp-bss.c
00000000 l    df *ABS*	00000000 copy-zp-data.c
00000000 l    df *ABS*	00000000 ld-temp.o
00000031 l     O .zp.bss	00000007 kernelEventData
00000030 l     O .zp.data	00000001 _ccolor
00002594 l     O .rodata	00000030 textColors
00000038 l     O .zp.bss	00000001 _col
00000039 l     O .zp.bss	00000001 _row
00002621 l     O .bss	00000004 _BITMAP_BASE.0
00002625 l     O .bss	00000004 _BITMAP_BASE.1
00002629 l     O .bss	00000004 _BITMAP_BASE.2
00002620 l     O .bss	00000001 kernelError
00000cac l     F .text	000006d7 oldText
00001383 l     F .text	0000036f textPrint
000018de l     F .text	00000c2f printf
000016f7 l     F .text	000000db _ZN12_GLOBAL__N_13putEcP6Status
0000003a l     O .zp.bss	00000002 __putchar.s
000017d2 l     F .text	0000010c _ZN12_GLOBAL__N_112print_stringEPKcP6Status
00000356 g     F .text	00000956 main
00000315 g       .text	00000000 __after_main
00000301 g       .text	00000000 __do_init_stack
0000030f g       .text	00000000 __do_copy_zp_data
0000033f g     F .text	00000017 __copy_zp_data
00000309 g       .text	00000000 __do_zero_bss
00000319 g     F .text	00000013 __zero_bss
0000030c g       .text	00000000 __do_zero_zp_bss
0000032c g     F .text	00000013 __zero_zp_bss
000016f2 g     F .text	00000005 exit
00000318 g       .text	00000000 _fini
00002559 g       .rodata	00000000 __set_v
00002539  w    F .text	00000020 __memset
00001000  w      *ABS*	00000000 __heap_default_limit
0000262e g       .noinit	00000000 __heap_start
0000250d  w    F .text	0000002c memcpy
00000010 g       *ABS*	00000000 __rc0
00000012 g       *ABS*	00000000 __rc2
00000014 g       *ABS*	00000000 __rc4
00000016 g       *ABS*	00000000 __rc6
00000018 g       *ABS*	00000000 __rc8
0000001a g       *ABS*	00000000 __rc10
0000001c g       *ABS*	00000000 __rc12
0000001e g       *ABS*	00000000 __rc14
00000020 g       *ABS*	00000000 __rc16
00000022 g       *ABS*	00000000 __rc18
00000024 g       *ABS*	00000000 __rc20
00000026 g       *ABS*	00000000 __rc22
00000028 g       *ABS*	00000000 __rc24
0000002a g       *ABS*	00000000 __rc26
0000002c g       *ABS*	00000000 __rc28
0000002e g       *ABS*	00000000 __rc30
0000002f g       *ABS*	00000000 __rc31
00000300 g       *ABS*	00000000 __f256_start
0000c000 g       *ABS*	00000000 __stack
0000c000 g       *ABS*	00000000 __SLOT_ADDR
0800c000 g       *ABS*	00000000 __block8_lma
00002000 g       *ABS*	00000000 __BLOCK_SIZE
0900c000 g       *ABS*	00000000 __block9_lma
0a00c000 g       *ABS*	00000000 __block10_lma
0b00c000 g       *ABS*	00000000 __block11_lma
0c00c000 g       *ABS*	00000000 __block12_lma
0d00c000 g       *ABS*	00000000 __block13_lma
0e00c000 g       *ABS*	00000000 __block14_lma
0f00c000 g       *ABS*	00000000 __block15_lma
1000c000 g       *ABS*	00000000 __block16_lma
1100c000 g       *ABS*	00000000 __block17_lma
1200c000 g       *ABS*	00000000 __block18_lma
1300c000 g       *ABS*	00000000 __block19_lma
1400c000 g       *ABS*	00000000 __block20_lma
1500c000 g       *ABS*	00000000 __block21_lma
1600c000 g       *ABS*	00000000 __block22_lma
1700c000 g       *ABS*	00000000 __block23_lma
00002620 g       .bss	00000000 __bss_start
00000301 g       .text	00000000 _start
0000002d g       *ABS*	00000000 __rc29
0000002b g       *ABS*	00000000 __rc27
00000029 g       *ABS*	00000000 __rc25
00000027 g       *ABS*	00000000 __rc23
00000025 g       *ABS*	00000000 __rc21
00000023 g       *ABS*	00000000 __rc19
00000021 g       *ABS*	00000000 __rc17
0000001f g       *ABS*	00000000 __rc15
0000001d g       *ABS*	00000000 __rc13
0000001b g       *ABS*	00000000 __rc11
00000019 g       *ABS*	00000000 __rc9
00000017 g       *ABS*	00000000 __rc7
00000015 g       *ABS*	00000000 __rc5
00000013 g       *ABS*	00000000 __rc3
00000011 g       *ABS*	00000000 __rc1
00000030 g       .zp.data	00000000 __zp_data_start
00000300 g       *ABS*	00000000 __zp_data_load_start
00000001 g       *ABS*	00000000 __zp_data_size
00000031 g       .zp.bss	00000000 __zp_bss_start
0000000b g       *ABS*	00000000 __zp_bss_size
00000301 g       .text	00000000 _init
00002559 g       .text	00000000 __init_array_start
00002559 g       .text	00000000 __init_array_end
00002559 g       .text	00000000 __fini_array_start
00002559 g       .text	00000000 __fini_array_end
00002620 g       .data	00000000 __data_start
00002620 g       .data	00000000 __data_end
00002620 g       *ABS*	00000000 __data_load_start
00000000 g       *ABS*	00000000 __data_size
0000262d g       .bss	00000000 __bss_end
0000000d g       *ABS*	00000000 __bss_size
0000262d g       .noinit	00000000 end_block8
0000262d g       .noinit	00000000 end_block9
0000262d g       .noinit	00000000 end_block10
0000262d g       .noinit	00000000 end_block11
0000262d g       .noinit	00000000 end_block12
0000262d g       .noinit	00000000 end_block13
0000262d g       .noinit	00000000 end_block14
0000262d g       .noinit	00000000 end_block15
0000262d g       .noinit	00000000 end_block16
0000262d g       .noinit	00000000 end_block17
0000262d g       .noinit	00000000 end_block18
0000262d g       .noinit	00000000 end_block19
0000262d g       .noinit	00000000 end_block20
0000262d g       .noinit	00000000 end_block21
0000262d g       .noinit	00000000 end_block22
0000262d g       .noinit	00000000 end_block23

Disassembly of section .text:

00000301 <_start>:
     301: a9 00        	lda	#$0
     303: 85 10        	sta	$10                     ; 0x2010 <printf+0x732>
     305: a9 c0        	lda	#$c0
     307: 85 11        	sta	$11                     ; 0x2011 <printf+0x733>

00000309 <__do_zero_bss>:
     309: 20 19 03     	jsr	$319 <__zero_bss>

0000030c <__do_zero_zp_bss>:
     30c: 20 2c 03     	jsr	$32c <__zero_zp_bss>

0000030f <__do_copy_zp_data>:
     30f: 20 3f 03     	jsr	$33f <__copy_zp_data>
     312: 20 56 03     	jsr	$356 <main>

00000315 <__after_main>:
     315: 4c f2 16     	jmp	$16f2 <exit>

00000318 <_fini>:
     318: 60           	rts

00000319 <__zero_bss>:
     319: a2 0d        	ldx	#$d
     31b: a0 00        	ldy	#$0
     31d: a9 20        	lda	#$20
     31f: 85 12        	sta	$12                     ; 0x2012 <printf+0x734>
     321: a9 26        	lda	#$26
     323: 85 13        	sta	$13                     ; 0x2013 <printf+0x735>
     325: a9 00        	lda	#$0
     327: 84 14        	sty	$14                     ; 0x2014 <printf+0x736>
     329: 4c 39 25     	jmp	$2539 <__memset>

0000032c <__zero_zp_bss>:
     32c: a2 0b        	ldx	#$b
     32e: a0 00        	ldy	#$0
     330: a9 31        	lda	#$31
     332: 85 12        	sta	$12                     ; 0x2012 <printf+0x734>
     334: a9 00        	lda	#$0
     336: 85 13        	sta	$13                     ; 0x2013 <printf+0x735>
     338: a9 00        	lda	#$0
     33a: 84 14        	sty	$14                     ; 0x2014 <printf+0x736>
     33c: 4c 39 25     	jmp	$2539 <__memset>

0000033f <__copy_zp_data>:
     33f: a9 01        	lda	#$1
     341: a2 00        	ldx	#$0
     343: a0 30        	ldy	#$30
     345: 84 12        	sty	$12                     ; 0x2012 <printf+0x734>
     347: a0 00        	ldy	#$0
     349: 84 13        	sty	$13                     ; 0x2013 <printf+0x735>
     34b: a0 00        	ldy	#$0
     34d: 84 14        	sty	$14                     ; 0x2014 <printf+0x736>
     34f: a0 03        	ldy	#$3
     351: 84 15        	sty	$15                     ; 0x2015 <printf+0x737>
     353: 4c 0d 25     	jmp	$250d <memcpy>

00000356 <main>:
     356: 18           	clc
     357: a5 10        	lda	$10                     ; 0x2010 <printf+0x732>
     359: 69 e5        	adc	#$e5
     35b: 85 10        	sta	$10                     ; 0x2010 <printf+0x732>
     35d: a5 11        	lda	$11                     ; 0x2011 <printf+0x733>
     35f: 69 ff        	adc	#$ff
     361: 85 11        	sta	$11                     ; 0x2011 <printf+0x733>
     363: a6 24        	ldx	$24                     ; 0x2024 <printf+0x746>
     365: da           	phx
     366: a6 25        	ldx	$25                     ; 0x2025 <printf+0x747>
     368: da           	phx
     369: a6 26        	ldx	$26                     ; 0x2026 <printf+0x748>
     36b: da           	phx
     36c: a6 27        	ldx	$27                     ; 0x2027 <printf+0x749>
     36e: da           	phx
     36f: a5 28        	lda	$28                     ; 0x2028 <printf+0x74a>
     371: a0 07        	ldy	#$7
     373: 91 10        	sta	($10),y                 ; 0x2010 <printf+0x732>
     375: a5 29        	lda	$29                     ; 0x2029 <printf+0x74b>
     377: 88           	dey
     378: 91 10        	sta	($10),y                 ; 0x2010 <printf+0x732>
     37a: a5 2a        	lda	$2a                     ; 0x202a <printf+0x74c>
     37c: 88           	dey
     37d: 91 10        	sta	($10),y                 ; 0x2010 <printf+0x732>
     37f: a5 2b        	lda	$2b                     ; 0x202b <printf+0x74d>
     381: 88           	dey
     382: 91 10        	sta	($10),y                 ; 0x2010 <printf+0x732>
     384: a5 2c        	lda	$2c                     ; 0x202c <printf+0x74e>
     386: 88           	dey
     387: 91 10        	sta	($10),y                 ; 0x2010 <printf+0x732>
     389: a5 2d        	lda	$2d                     ; 0x202d <printf+0x74f>
     38b: 88           	dey
     38c: 91 10        	sta	($10),y                 ; 0x2010 <printf+0x732>
     38e: a5 2e        	lda	$2e                     ; 0x202e <printf+0x750>
     390: 88           	dey
     391: 91 10        	sta	($10),y                 ; 0x2010 <printf+0x732>
     393: a5 2f        	lda	$2f                     ; 0x202f <printf+0x751>
     395: 88           	dey
     396: 91 10        	sta	($10),y                 ; 0x2010 <printf+0x732>
     398: 64 1c        	stz	$1c                     ; 0x201c <printf+0x73e>
     39a: a2 00        	ldx	#$0
     39c: 86 1a        	stx	$1a                     ; 0x201a <printf+0x73c>
     39e: a2 d0        	ldx	#$d0
     3a0: 86 1b        	stx	$1b                     ; 0x201b <printf+0x73d>
     3a2: a2 00        	ldx	#$0
     3a4: 86 16        	stx	$16                     ; 0x2016 <printf+0x738>
     3a6: a2 d8        	ldx	#$d8
     3a8: 86 17        	stx	$17                     ; 0x2017 <printf+0x739>
     3aa: a2 00        	ldx	#$0
     3ac: 86 18        	stx	$18                     ; 0x2018 <printf+0x73a>
     3ae: a2 d4        	ldx	#$d4
     3b0: 86 19        	stx	$19                     ; 0x2019 <printf+0x73b>
     3b2: a2 00        	ldx	#$0
     3b4: 86 14        	stx	$14                     ; 0x2014 <printf+0x736>
     3b6: a2 dc        	ldx	#$dc
     3b8: 86 15        	stx	$15                     ; 0x2015 <printf+0x737>
     3ba: a2 00        	ldx	#$0
     3bc: 86 12        	stx	$12                     ; 0x2012 <printf+0x734>
     3be: a2 c0        	ldx	#$c0
     3c0: 86 13        	stx	$13                     ; 0x2013 <printf+0x735>
     3c2: 64 01        	stz	$1                      ; 0x2001 <printf+0x723>
     3c4: a2 3f        	ldx	#$3f
     3c6: 8e 00 d0     	stx	$d000                   ; 0xd000 <__heap_start+0xa9d2>
     3c9: a2 b3        	ldx	#$b3
     3cb: 86 00        	stx	$0                      ; 0x2000 <printf+0x722>
     3cd: 64 08        	stz	$8                      ; 0x2008 <printf+0x72a>
     3cf: a2 01        	ldx	#$1
     3d1: 86 09        	stx	$9                      ; 0x2009 <printf+0x72b>
     3d3: e8           	inx
     3d4: 86 0a        	stx	$a                      ; 0x200a <printf+0x72c>
     3d6: e8           	inx
     3d7: 86 0b        	stx	$b                      ; 0x200b <printf+0x72d>
     3d9: e8           	inx
     3da: 86 0c        	stx	$c                      ; 0x200c <printf+0x72e>
     3dc: e8           	inx
     3dd: 86 0d        	stx	$d                      ; 0x200d <printf+0x72f>
     3df: a2 31        	ldx	#$31
     3e1: a9 00        	lda	#$0
     3e3: 86 f0        	stx	$f0                     ; 0x20f0 <printf+0x812>
     3e5: 85 f1        	sta	$f1                     ; 0x20f1 <printf+0x813>
     3e7: a6 01        	ldx	$1                      ; 0x2001 <printf+0x723>
     3e9: a0 01        	ldy	#$1
     3eb: 84 01        	sty	$1                      ; 0x2001 <printf+0x723>
     3ed: a5 1c        	lda	$1c                     ; 0x201c <printf+0x73e>
     3ef: 92 1a        	sta	($1a)                   ; 0x201a <printf+0x73c>
     3f1: 91 1a        	sta	($1a),y                 ; 0x201a <printf+0x73c>
     3f3: c8           	iny
     3f4: 91 1a        	sta	($1a),y                 ; 0x201a <printf+0x73c>
     3f6: c8           	iny
     3f7: a9 ff        	lda	#$ff
     3f9: 91 1a        	sta	($1a),y                 ; 0x201a <printf+0x73c>
     3fb: 86 01        	stx	$1                      ; 0x2001 <printf+0x723>
     3fd: a5 1a        	lda	$1a                     ; 0x201a <printf+0x73c>
     3ff: 18           	clc
     400: 69 04        	adc	#$4
     402: 85 1a        	sta	$1a                     ; 0x201a <printf+0x73c>
     404: a5 1b        	lda	$1b                     ; 0x201b <printf+0x73d>
     406: 69 00        	adc	#$0
     408: e6 1c        	inc	$1c                     ; 0x201c <printf+0x73e>
     40a: 85 1b        	sta	$1b                     ; 0x201b <printf+0x73d>
     40c: d0 d9        	bne	$3e7 <main+0x91>
     40e: a9 00        	lda	#$0
     410: a6 01        	ldx	$1                      ; 0x2001 <printf+0x723>
     412: a0 01        	ldy	#$1
     414: 84 01        	sty	$1                      ; 0x2001 <printf+0x723>
     416: 92 18        	sta	($18)                   ; 0x2018 <printf+0x73a>
     418: 91 18        	sta	($18),y                 ; 0x2018 <printf+0x73a>
     41a: c8           	iny
     41b: 91 18        	sta	($18),y                 ; 0x2018 <printf+0x73a>
     41d: c8           	iny
     41e: 85 1a        	sta	$1a                     ; 0x201a <printf+0x73c>
     420: a9 ff        	lda	#$ff
     422: 91 18        	sta	($18),y                 ; 0x2018 <printf+0x73a>
     424: 86 01        	stx	$1                      ; 0x2001 <printf+0x723>
     426: a5 18        	lda	$18                     ; 0x2018 <printf+0x73a>
     428: 18           	clc
     429: 69 04        	adc	#$4
     42b: 85 18        	sta	$18                     ; 0x2018 <printf+0x73a>
     42d: a5 19        	lda	$19                     ; 0x2019 <printf+0x73b>
     42f: 69 00        	adc	#$0
     431: e6 1a        	inc	$1a                     ; 0x201a <printf+0x73c>
     433: 85 19        	sta	$19                     ; 0x2019 <printf+0x73b>
     435: a5 1a        	lda	$1a                     ; 0x201a <printf+0x73c>
     437: d0 d7        	bne	$410 <main+0xba>
     439: a9 00        	lda	#$0
     43b: a6 01        	ldx	$1                      ; 0x2001 <printf+0x723>
     43d: a0 01        	ldy	#$1
     43f: 84 01        	sty	$1                      ; 0x2001 <printf+0x723>
     441: 92 16        	sta	($16)                   ; 0x2016 <printf+0x738>
     443: 91 16        	sta	($16),y                 ; 0x2016 <printf+0x738>
     445: c8           	iny
     446: 91 16        	sta	($16),y                 ; 0x2016 <printf+0x738>
     448: c8           	iny
     449: 85 18        	sta	$18                     ; 0x2018 <printf+0x73a>
     44b: a9 ff        	lda	#$ff
     44d: 91 16        	sta	($16),y                 ; 0x2016 <printf+0x738>
     44f: 86 01        	stx	$1                      ; 0x2001 <printf+0x723>
     451: a5 16        	lda	$16                     ; 0x2016 <printf+0x738>
     453: 18           	clc
     454: 69 04        	adc	#$4
     456: 85 16        	sta	$16                     ; 0x2016 <printf+0x738>
     458: a5 17        	lda	$17                     ; 0x2017 <printf+0x739>
     45a: 69 00        	adc	#$0
     45c: e6 18        	inc	$18                     ; 0x2018 <printf+0x73a>
     45e: 85 17        	sta	$17                     ; 0x2017 <printf+0x739>
     460: a5 18        	lda	$18                     ; 0x2018 <printf+0x73a>
     462: d0 d7        	bne	$43b <main+0xe5>
     464: a9 00        	lda	#$0
     466: a6 01        	ldx	$1                      ; 0x2001 <printf+0x723>
     468: a0 01        	ldy	#$1
     46a: 84 01        	sty	$1                      ; 0x2001 <printf+0x723>
     46c: 92 14        	sta	($14)                   ; 0x2014 <printf+0x736>
     46e: 91 14        	sta	($14),y                 ; 0x2014 <printf+0x736>
     470: c8           	iny
     471: 91 14        	sta	($14),y                 ; 0x2014 <printf+0x736>
     473: c8           	iny
     474: 85 16        	sta	$16                     ; 0x2016 <printf+0x738>
     476: a9 ff        	lda	#$ff
     478: 91 14        	sta	($14),y                 ; 0x2014 <printf+0x736>
     47a: 86 01        	stx	$1                      ; 0x2001 <printf+0x723>
     47c: a5 14        	lda	$14                     ; 0x2014 <printf+0x736>
     47e: 18           	clc
     47f: 69 04        	adc	#$4
     481: 85 14        	sta	$14                     ; 0x2014 <printf+0x736>
     483: a5 15        	lda	$15                     ; 0x2015 <printf+0x737>
     485: 69 00        	adc	#$0
     487: e6 16        	inc	$16                     ; 0x2016 <printf+0x738>
     489: 85 15        	sta	$15                     ; 0x2015 <printf+0x737>
     48b: a5 16        	lda	$16                     ; 0x2016 <printf+0x738>
     48d: d0 d7        	bne	$466 <main+0x110>
     48f: ad 02 d0     	lda	$d002                   ; 0xd002 <__heap_start+0xa9d4>
     492: a2 f0        	ldx	#$f0
     494: 29 f0        	and	#$f0
     496: 8d 02 d0     	sta	$d002                   ; 0xd002 <__heap_start+0xa9d4>
     499: ad 02 d0     	lda	$d002                   ; 0xd002 <__heap_start+0xa9d4>
     49c: 29 0f        	and	#$f
     49e: 09 10        	ora	#$10
     4a0: 8d 02 d0     	sta	$d002                   ; 0xd002 <__heap_start+0xa9d4>
     4a3: a0 02        	ldy	#$2
     4a5: 8c 03 d0     	sty	$d003                   ; 0xd003 <__heap_start+0xa9d5>
     4a8: 86 30        	stx	$30                     ; 0x2030 <printf+0x752>
     4aa: ad 01 d0     	lda	$d001                   ; 0xd001 <__heap_start+0xa9d3>
     4ad: 29 f9        	and	#$f9
     4af: 09 04        	ora	#$4
     4b1: 8d 01 d0     	sta	$d001                   ; 0xd001 <__heap_start+0xa9d3>
     4b4: 64 14        	stz	$14                     ; 0x2014 <printf+0x736>
     4b6: 9c 10 d0     	stz	$d010                   ; 0xd010 <__heap_start+0xa9e2>
     4b9: a2 00        	ldx	#$0
     4bb: 64 15        	stz	$15                     ; 0x2015 <printf+0x737>
     4bd: 86 18        	stx	$18                     ; 0x2018 <printf+0x73a>
     4bf: a4 18        	ldy	$18                     ; 0x2018 <printf+0x73a>
     4c1: be 94 25     	ldx	$2594,y                 ; 0x2594 <textColors>
     4c4: 86 19        	stx	$19                     ; 0x2019 <printf+0x73b>
     4c6: be 95 25     	ldx	$2595,y                 ; 0x2595 <textColors+0x1>
     4c9: 86 1a        	stx	$1a                     ; 0x201a <printf+0x73c>
     4cb: be 96 25     	ldx	$2596,y                 ; 0x2596 <textColors+0x2>
     4ce: 86 1b        	stx	$1b                     ; 0x201b <printf+0x73d>
     4d0: a6 15        	ldx	$15                     ; 0x2015 <printf+0x737>
     4d2: 8e 00 de     	stx	$de00                   ; 0xde00 <__heap_start+0xb7d2>
     4d5: 86 17        	stx	$17                     ; 0x2017 <printf+0x739>
     4d7: 9c 01 de     	stz	$de01                   ; 0xde01 <__heap_start+0xb7d3>
     4da: a2 04        	ldx	#$4
     4dc: 8e 02 de     	stx	$de02                   ; 0xde02 <__heap_start+0xb7d4>
     4df: 9c 03 de     	stz	$de03                   ; 0xde03 <__heap_start+0xb7d5>
     4e2: ad 10 de     	lda	$de10                   ; 0xde10 <__heap_start+0xb7e2>
     4e5: ac 11 de     	ldy	$de11                   ; 0xde11 <__heap_start+0xb7e3>
     4e8: 84 15        	sty	$15                     ; 0x2015 <printf+0x737>
     4ea: ac 12 de     	ldy	$de12                   ; 0xde12 <__heap_start+0xb7e4>
     4ed: ac 13 de     	ldy	$de13                   ; 0xde13 <__heap_start+0xb7e5>
     4f0: 18           	clc
     4f1: 65 14        	adc	$14                     ; 0x2014 <printf+0x736>
     4f3: 85 16        	sta	$16                     ; 0x2016 <printf+0x738>
     4f5: a6 17        	ldx	$17                     ; 0x2017 <printf+0x739>
     4f7: a9 d8        	lda	#$d8
     4f9: 65 15        	adc	$15                     ; 0x2015 <printf+0x737>
     4fb: 85 17        	sta	$17                     ; 0x2017 <printf+0x739>
     4fd: a5 1b        	lda	$1b                     ; 0x201b <printf+0x73d>
     4ff: 92 16        	sta	($16)                   ; 0x2016 <printf+0x738>
     501: a0 01        	ldy	#$1
     503: a5 1a        	lda	$1a                     ; 0x201a <printf+0x73c>
     505: 91 16        	sta	($16),y                 ; 0x2016 <printf+0x738>
     507: c8           	iny
     508: a5 19        	lda	$19                     ; 0x2019 <printf+0x73b>
     50a: 91 16        	sta	($16),y                 ; 0x2016 <printf+0x738>
     50c: c8           	iny
     50d: a9 ff        	lda	#$ff
     50f: 91 16        	sta	($16),y                 ; 0x2016 <printf+0x738>
     511: 8e 00 de     	stx	$de00                   ; 0xde00 <__heap_start+0xb7d2>
     514: 9c 01 de     	stz	$de01                   ; 0xde01 <__heap_start+0xb7d3>
     517: c8           	iny
     518: 8c 02 de     	sty	$de02                   ; 0xde02 <__heap_start+0xb7d4>
     51b: 9c 03 de     	stz	$de03                   ; 0xde03 <__heap_start+0xb7d5>
     51e: ad 10 de     	lda	$de10                   ; 0xde10 <__heap_start+0xb7e2>
     521: 85 15        	sta	$15                     ; 0x2015 <printf+0x737>
     523: ad 11 de     	lda	$de11                   ; 0xde11 <__heap_start+0xb7e3>
     526: 85 16        	sta	$16                     ; 0x2016 <printf+0x738>
     528: a9 40        	lda	#$40
     52a: 18           	clc
     52b: 65 15        	adc	$15                     ; 0x2015 <printf+0x737>
     52d: a8           	tay
     52e: a9 d8        	lda	#$d8
     530: 65 16        	adc	$16                     ; 0x2016 <printf+0x738>
     532: 85 17        	sta	$17                     ; 0x2017 <printf+0x739>
     534: 84 16        	sty	$16                     ; 0x2016 <printf+0x738>
     536: ad 12 de     	lda	$de12                   ; 0xde12 <__heap_start+0xb7e4>
     539: ad 13 de     	lda	$de13                   ; 0xde13 <__heap_start+0xb7e5>
     53c: a5 1b        	lda	$1b                     ; 0x201b <printf+0x73d>
     53e: 92 16        	sta	($16)                   ; 0x2016 <printf+0x738>
     540: a5 1a        	lda	$1a                     ; 0x201a <printf+0x73c>
     542: a0 01        	ldy	#$1
     544: 91 16        	sta	($16),y                 ; 0x2016 <printf+0x738>
     546: a5 19        	lda	$19                     ; 0x2019 <printf+0x73b>
     548: c8           	iny
     549: 91 16        	sta	($16),y                 ; 0x2016 <printf+0x738>
     54b: c8           	iny
     54c: a9 ff        	lda	#$ff
     54e: 91 16        	sta	($16),y                 ; 0x2016 <printf+0x738>
     550: e8           	inx
     551: 86 15        	stx	$15                     ; 0x2015 <printf+0x737>
     553: 18           	clc
     554: a5 18        	lda	$18                     ; 0x2018 <printf+0x73a>
     556: 69 03        	adc	#$3
     558: aa           	tax
     559: c9 30        	cmp	#$30
     55b: f0 03        	beq	$560 <main+0x20a>
     55d: 4c bd 04     	jmp	$4bd <main+0x167>
     560: a6 01        	ldx	$1                      ; 0x2001 <printf+0x723>
     562: 86 18        	stx	$18                     ; 0x2018 <printf+0x73a>
     564: a2 50        	ldx	#$50
     566: 8e 00 de     	stx	$de00                   ; 0xde00 <__heap_start+0xb7d2>
     569: 9c 01 de     	stz	$de01                   ; 0xde01 <__heap_start+0xb7d3>
     56c: a2 1e        	ldx	#$1e
     56e: 8e 02 de     	stx	$de02                   ; 0xde02 <__heap_start+0xb7d4>
     571: 9c 03 de     	stz	$de03                   ; 0xde03 <__heap_start+0xb7d5>
     574: ae 10 de     	ldx	$de10                   ; 0xde10 <__heap_start+0xb7e2>
     577: ac 11 de     	ldy	$de11                   ; 0xde11 <__heap_start+0xb7e3>
     57a: ad 12 de     	lda	$de12                   ; 0xde12 <__heap_start+0xb7e4>
     57d: ad 13 de     	lda	$de13                   ; 0xde13 <__heap_start+0xb7e5>
     580: a9 02        	lda	#$2
     582: 85 01        	sta	$1                      ; 0x2001 <printf+0x723>
     584: e0 01        	cpx	#$1
     586: 98           	tya
     587: e9 00        	sbc	#$0
     589: 50 02        	bvc	$58d <main+0x237>
     58b: 49 80        	eor	#$80
     58d: c9 00        	cmp	#$0
     58f: 10 03        	bpl	$594 <main+0x23e>
     591: 4c ef 05     	jmp	$5ef <main+0x299>
     594: a9 20        	lda	#$20
     596: 86 19        	stx	$19                     ; 0x2019 <printf+0x73b>
     598: 86 14        	stx	$14                     ; 0x2014 <printf+0x736>
     59a: 84 15        	sty	$15                     ; 0x2015 <printf+0x737>
     59c: a2 00        	ldx	#$0
     59e: 86 16        	stx	$16                     ; 0x2016 <printf+0x738>
     5a0: a2 c0        	ldx	#$c0
     5a2: 86 17        	stx	$17                     ; 0x2017 <printf+0x739>
     5a4: 80 04        	bra	$5aa <main+0x254>
     5a6: a6 15        	ldx	$15                     ; 0x2015 <printf+0x737>
     5a8: f0 14        	beq	$5be <main+0x268>
     5aa: 92 16        	sta	($16)                   ; 0x2016 <printf+0x738>
     5ac: e6 16        	inc	$16                     ; 0x2016 <printf+0x738>
     5ae: d0 02        	bne	$5b2 <main+0x25c>
     5b0: e6 17        	inc	$17                     ; 0x2017 <printf+0x739>
     5b2: a2 ff        	ldx	#$ff
     5b4: c6 14        	dec	$14                     ; 0x2014 <printf+0x736>
     5b6: e4 14        	cpx	$14                     ; 0x2014 <printf+0x736>
     5b8: d0 ec        	bne	$5a6 <main+0x250>
     5ba: c6 15        	dec	$15                     ; 0x2015 <printf+0x737>
     5bc: 80 e8        	bra	$5a6 <main+0x250>
     5be: a6 14        	ldx	$14                     ; 0x2014 <printf+0x736>
     5c0: d0 e8        	bne	$5aa <main+0x254>
     5c2: a2 03        	ldx	#$3
     5c4: 86 01        	stx	$1                      ; 0x2001 <printf+0x723>
     5c6: a6 30        	ldx	$30                     ; 0x2030 <printf+0x752>
     5c8: 86 14        	stx	$14                     ; 0x2014 <printf+0x736>
     5ca: a6 19        	ldx	$19                     ; 0x2019 <printf+0x73b>
     5cc: 80 03        	bra	$5d1 <main+0x27b>
     5ce: 98           	tya
     5cf: f0 19        	beq	$5ea <main+0x294>
     5d1: a5 14        	lda	$14                     ; 0x2014 <printf+0x736>
     5d3: 92 12        	sta	($12)                   ; 0x2012 <printf+0x734>
     5d5: e6 12        	inc	$12                     ; 0x2012 <printf+0x734>
     5d7: f0 07        	beq	$5e0 <main+0x28a>
     5d9: ca           	dex
     5da: e0 ff        	cpx	#$ff
     5dc: d0 f0        	bne	$5ce <main+0x278>
     5de: 80 07        	bra	$5e7 <main+0x291>
     5e0: e6 13        	inc	$13                     ; 0x2013 <printf+0x735>
     5e2: ca           	dex
     5e3: e0 ff        	cpx	#$ff
     5e5: d0 e7        	bne	$5ce <main+0x278>
     5e7: 88           	dey
     5e8: 80 e4        	bra	$5ce <main+0x278>
     5ea: 8a           	txa
     5eb: d0 e4        	bne	$5d1 <main+0x27b>
     5ed: 80 04        	bra	$5f3 <main+0x29d>
     5ef: a2 03        	ldx	#$3
     5f1: 86 01        	stx	$1                      ; 0x2001 <printf+0x723>
     5f3: a6 18        	ldx	$18                     ; 0x2018 <printf+0x73a>
     5f5: 86 01        	stx	$1                      ; 0x2001 <printf+0x723>
     5f7: 64 38        	stz	$38                     ; 0x2038 <printf+0x75a>
     5f9: 9c 14 d0     	stz	$d014                   ; 0xd014 <__heap_start+0xa9e6>
     5fc: 9c 15 d0     	stz	$d015                   ; 0xd015 <__heap_start+0xa9e7>
     5ff: 64 39        	stz	$39                     ; 0x2039 <printf+0x75b>
     601: 9c 16 d0     	stz	$d016                   ; 0xd016 <__heap_start+0xa9e8>
     604: 9c 17 d0     	stz	$d017                   ; 0xd017 <__heap_start+0xa9e9>
     607: a2 40        	ldx	#$40
     609: 8e 00 de     	stx	$de00                   ; 0xde00 <__heap_start+0xb7d2>
     60c: a2 01        	ldx	#$1
     60e: 8e 01 de     	stx	$de01                   ; 0xde01 <__heap_start+0xb7d3>
     611: a2 f0        	ldx	#$f0
     613: 8e 02 de     	stx	$de02                   ; 0xde02 <__heap_start+0xb7d4>
     616: 9c 03 de     	stz	$de03                   ; 0xde03 <__heap_start+0xb7d5>
     619: ae 10 de     	ldx	$de10                   ; 0xde10 <__heap_start+0xb7e2>
     61c: 86 17        	stx	$17                     ; 0x2017 <printf+0x739>
     61e: ae 11 de     	ldx	$de11                   ; 0xde11 <__heap_start+0xb7e3>
     621: 86 12        	stx	$12                     ; 0x2012 <printf+0x734>
     623: ae 12 de     	ldx	$de12                   ; 0xde12 <__heap_start+0xb7e4>
     626: 86 13        	stx	$13                     ; 0x2013 <printf+0x735>
     628: ae 13 de     	ldx	$de13                   ; 0xde13 <__heap_start+0xb7e5>
     62b: 86 14        	stx	$14                     ; 0x2014 <printf+0x736>
     62d: a4 12        	ldy	$12                     ; 0x2012 <printf+0x734>
     62f: 84 15        	sty	$15                     ; 0x2015 <printf+0x737>
     631: 06 15        	asl	$15                     ; 0x2015 <printf+0x737>
     633: a5 13        	lda	$13                     ; 0x2013 <printf+0x735>
     635: 2a           	rol
     636: 86 16        	stx	$16                     ; 0x2016 <printf+0x738>
     638: 26 16        	rol	$16                     ; 0x2016 <printf+0x738>
     63a: 06 15        	asl	$15                     ; 0x2015 <printf+0x737>
     63c: 2a           	rol
     63d: 26 16        	rol	$16                     ; 0x2016 <printf+0x738>
     63f: 06 15        	asl	$15                     ; 0x2015 <printf+0x737>
     641: 2a           	rol
     642: 26 16        	rol	$16                     ; 0x2016 <printf+0x738>
     644: 85 15        	sta	$15                     ; 0x2015 <printf+0x737>
     646: 8d 00 de     	sta	$de00                   ; 0xde00 <__heap_start+0xb7d2>
     649: a5 16        	lda	$16                     ; 0x2016 <printf+0x738>
     64b: 8d 01 de     	sta	$de01                   ; 0xde01 <__heap_start+0xb7d3>
     64e: 9c 02 de     	stz	$de02                   ; 0xde02 <__heap_start+0xb7d4>
     651: a2 20        	ldx	#$20
     653: 8e 03 de     	stx	$de03                   ; 0xde03 <__heap_start+0xb7d5>
     656: ae 10 de     	ldx	$de10                   ; 0xde10 <__heap_start+0xb7e2>
     659: 86 16        	stx	$16                     ; 0x2016 <printf+0x738>
     65b: ae 11 de     	ldx	$de11                   ; 0xde11 <__heap_start+0xb7e3>
     65e: 86 18        	stx	$18                     ; 0x2018 <printf+0x73a>
     660: ac 12 de     	ldy	$de12                   ; 0xde12 <__heap_start+0xb7e4>
     663: ae 13 de     	ldx	$de13                   ; 0xde13 <__heap_start+0xb7e5>
     666: e4 14        	cpx	$14                     ; 0x2014 <printf+0x736>
     668: d0 14        	bne	$67e <main+0x328>
     66a: c4 13        	cpy	$13                     ; 0x2013 <printf+0x735>
     66c: d0 10        	bne	$67e <main+0x328>
     66e: a6 18        	ldx	$18                     ; 0x2018 <printf+0x73a>
     670: e4 12        	cpx	$12                     ; 0x2012 <printf+0x734>
     672: d0 0a        	bne	$67e <main+0x328>
     674: a6 16        	ldx	$16                     ; 0x2016 <printf+0x738>
     676: e4 17        	cpx	$17                     ; 0x2017 <printf+0x739>
     678: d0 04        	bne	$67e <main+0x328>
     67a: a6 15        	ldx	$15                     ; 0x2015 <printf+0x737>
     67c: 80 06        	bra	$684 <main+0x32e>
     67e: a6 15        	ldx	$15                     ; 0x2015 <printf+0x737>
     680: e8           	inx
     681: d0 01        	bne	$684 <main+0x32e>
     683: 1a           	inc
     684: 8e 00 de     	stx	$de00                   ; 0xde00 <__heap_start+0xb7d2>
     687: 8d 01 de     	sta	$de01                   ; 0xde01 <__heap_start+0xb7d3>
     68a: 9c 02 de     	stz	$de02                   ; 0xde02 <__heap_start+0xb7d4>
     68d: a2 20        	ldx	#$20
     68f: 8e 03 de     	stx	$de03                   ; 0xde03 <__heap_start+0xb7d5>
     692: ae 10 de     	ldx	$de10                   ; 0xde10 <__heap_start+0xb7e2>
     695: 86 12        	stx	$12                     ; 0x2012 <printf+0x734>
     697: ae 11 de     	ldx	$de11                   ; 0xde11 <__heap_start+0xb7e3>
     69a: 86 13        	stx	$13                     ; 0x2013 <printf+0x735>
     69c: ae 12 de     	ldx	$de12                   ; 0xde12 <__heap_start+0xb7e4>
     69f: 86 14        	stx	$14                     ; 0x2014 <printf+0x736>
     6a1: ae 13 de     	ldx	$de13                   ; 0xde13 <__heap_start+0xb7e5>
     6a4: 86 15        	stx	$15                     ; 0x2015 <printf+0x737>
     6a6: a9 00        	lda	#$0
     6a8: 38           	sec
     6a9: e5 12        	sbc	$12                     ; 0x2012 <printf+0x734>
     6ab: 85 19        	sta	$19                     ; 0x2019 <printf+0x73b>
     6ad: a9 00        	lda	#$0
     6af: e5 13        	sbc	$13                     ; 0x2013 <printf+0x735>
     6b1: aa           	tax
     6b2: a9 08        	lda	#$8
     6b4: e5 14        	sbc	$14                     ; 0x2014 <printf+0x736>
     6b6: 85 16        	sta	$16                     ; 0x2016 <printf+0x738>
     6b8: a9 00        	lda	#$0
     6ba: e5 15        	sbc	$15                     ; 0x2015 <printf+0x737>
     6bc: 8e 22 26     	stx	$2622                   ; 0x2622 <_BITMAP_BASE.0+0x1>
     6bf: a4 16        	ldy	$16                     ; 0x2016 <printf+0x738>
     6c1: 8c 23 26     	sty	$2623                   ; 0x2623 <_BITMAP_BASE.0+0x2>
     6c4: 8d 24 26     	sta	$2624                   ; 0x2624 <_BITMAP_BASE.0+0x3>
     6c7: a8           	tay
     6c8: 38           	sec
     6c9: a5 19        	lda	$19                     ; 0x2019 <printf+0x73b>
     6cb: e5 12        	sbc	$12                     ; 0x2012 <printf+0x734>
     6cd: 85 18        	sta	$18                     ; 0x2018 <printf+0x73a>
     6cf: 8a           	txa
     6d0: e5 13        	sbc	$13                     ; 0x2013 <printf+0x735>
     6d2: 85 1a        	sta	$1a                     ; 0x201a <printf+0x73c>
     6d4: a5 16        	lda	$16                     ; 0x2016 <printf+0x738>
     6d6: e5 14        	sbc	$14                     ; 0x2014 <printf+0x736>
     6d8: 85 16        	sta	$16                     ; 0x2016 <printf+0x738>
     6da: 98           	tya
     6db: e5 15        	sbc	$15                     ; 0x2015 <printf+0x737>
     6dd: 85 17        	sta	$17                     ; 0x2017 <printf+0x739>
     6df: 38           	sec
     6e0: a4 18        	ldy	$18                     ; 0x2018 <printf+0x73a>
     6e2: 8c 25 26     	sty	$2625                   ; 0x2625 <_BITMAP_BASE.1>
     6e5: a6 1a        	ldx	$1a                     ; 0x201a <printf+0x73c>
     6e7: 8e 26 26     	stx	$2626                   ; 0x2626 <_BITMAP_BASE.1+0x1>
     6ea: a4 16        	ldy	$16                     ; 0x2016 <printf+0x738>
     6ec: 8c 27 26     	sty	$2627                   ; 0x2627 <_BITMAP_BASE.1+0x2>
     6ef: 8d 28 26     	sta	$2628                   ; 0x2628 <_BITMAP_BASE.1+0x3>
     6f2: a5 18        	lda	$18                     ; 0x2018 <printf+0x73a>
     6f4: e5 12        	sbc	$12                     ; 0x2012 <printf+0x734>
     6f6: 85 18        	sta	$18                     ; 0x2018 <printf+0x73a>
     6f8: a5 1a        	lda	$1a                     ; 0x201a <printf+0x73c>
     6fa: e5 13        	sbc	$13                     ; 0x2013 <printf+0x735>
     6fc: a8           	tay
     6fd: a5 16        	lda	$16                     ; 0x2016 <printf+0x738>
     6ff: e5 14        	sbc	$14                     ; 0x2014 <printf+0x736>
     701: 85 12        	sta	$12                     ; 0x2012 <printf+0x734>
     703: a5 17        	lda	$17                     ; 0x2017 <printf+0x739>
     705: e5 15        	sbc	$15                     ; 0x2015 <printf+0x737>
     707: a6 18        	ldx	$18                     ; 0x2018 <printf+0x73a>
     709: 8e 29 26     	stx	$2629                   ; 0x2629 <_BITMAP_BASE.2>
     70c: 8c 2a 26     	sty	$262a                   ; 0x262a <_BITMAP_BASE.2+0x1>
     70f: a6 19        	ldx	$19                     ; 0x2019 <printf+0x73b>
     711: 8e 21 26     	stx	$2621                   ; 0x2621 <_BITMAP_BASE.0>
     714: a4 12        	ldy	$12                     ; 0x2012 <printf+0x734>
     716: 8c 2b 26     	sty	$262b                   ; 0x262b <_BITMAP_BASE.2+0x2>
     719: 8d 2c 26     	sta	$262c                   ; 0x262c <_BITMAP_BASE.2+0x3>
     71c: 8e 01 d1     	stx	$d101                   ; 0xd101 <__heap_start+0xaad3>
     71f: ae 22 26     	ldx	$2622                   ; 0x2622 <_BITMAP_BASE.0+0x1>
     722: 8e 02 d1     	stx	$d102                   ; 0xd102 <__heap_start+0xaad4>
     725: ae 23 26     	ldx	$2623                   ; 0x2623 <_BITMAP_BASE.0+0x2>
     728: 8e 03 d1     	stx	$d103                   ; 0xd103 <__heap_start+0xaad5>
     72b: ae 25 26     	ldx	$2625                   ; 0x2625 <_BITMAP_BASE.1>
     72e: 8e 09 d1     	stx	$d109                   ; 0xd109 <__heap_start+0xaadb>
     731: ae 26 26     	ldx	$2626                   ; 0x2626 <_BITMAP_BASE.1+0x1>
     734: 8e 0a d1     	stx	$d10a                   ; 0xd10a <__heap_start+0xaadc>
     737: ae 27 26     	ldx	$2627                   ; 0x2627 <_BITMAP_BASE.1+0x2>
     73a: 8e 0b d1     	stx	$d10b                   ; 0xd10b <__heap_start+0xaadd>
     73d: ae 29 26     	ldx	$2629                   ; 0x2629 <_BITMAP_BASE.2>
     740: 8e 11 d1     	stx	$d111                   ; 0xd111 <__heap_start+0xaae3>
     743: ae 2a 26     	ldx	$262a                   ; 0x262a <_BITMAP_BASE.2+0x1>
     746: 8e 12 d1     	stx	$d112                   ; 0xd112 <__heap_start+0xaae4>
     749: ae 2b 26     	ldx	$262b                   ; 0x262b <_BITMAP_BASE.2+0x2>
     74c: 8e 13 d1     	stx	$d113                   ; 0xd113 <__heap_start+0xaae5>
     74f: 9c 00 d1     	stz	$d100                   ; 0xd100 <__heap_start+0xaad2>
     752: 9c 08 d1     	stz	$d108                   ; 0xd108 <__heap_start+0xaada>
     755: 9c 10 d1     	stz	$d110                   ; 0xd110 <__heap_start+0xaae2>
     758: a2 10        	ldx	#$10
     75a: 8e 00 d2     	stx	$d200                   ; 0xd200 <__heap_start+0xabd2>
     75d: 8e 0c d2     	stx	$d20c                   ; 0xd20c <__heap_start+0xabde>
     760: 8e 18 d2     	stx	$d218                   ; 0xd218 <__heap_start+0xabea>
     763: a0 d9        	ldy	#$d9
     765: a2 40        	ldx	#$40
     767: 64 12        	stz	$12                     ; 0x2012 <printf+0x734>
     769: 84 13        	sty	$13                     ; 0x2013 <printf+0x735>
     76b: a9 00        	lda	#$0
     76d: 92 12        	sta	($12)                   ; 0x2012 <printf+0x734>
     76f: ca           	dex
     770: 18           	clc
     771: a5 12        	lda	$12                     ; 0x2012 <printf+0x734>
     773: 69 08        	adc	#$8
     775: 85 12        	sta	$12                     ; 0x2012 <printf+0x734>
     777: 98           	tya
     778: 69 00        	adc	#$0
     77a: a8           	tay
     77b: 8a           	txa
     77c: d0 eb        	bne	$769 <main+0x413>
     77e: 18           	clc
     77f: a5 10        	lda	$10                     ; 0x2010 <printf+0x732>
     781: 69 13        	adc	#$13
     783: 85 12        	sta	$12                     ; 0x2012 <printf+0x734>
     785: a5 11        	lda	$11                     ; 0x2011 <printf+0x733>
     787: 69 00        	adc	#$0
     789: 85 13        	sta	$13                     ; 0x2013 <printf+0x735>
     78b: a6 12        	ldx	$12                     ; 0x2012 <printf+0x734>
     78d: 86 fb        	stx	$fb                     ; 0x20fb <printf+0x81d>
     78f: 85 fc        	sta	$fc                     ; 0x20fc <printf+0x81e>
     791: a2 08        	ldx	#$8
     793: 86 fd        	stx	$fd                     ; 0x20fd <printf+0x81f>
     795: 18           	clc
     796: a5 10        	lda	$10                     ; 0x2010 <printf+0x732>
     798: 69 12        	adc	#$12
     79a: 85 14        	sta	$14                     ; 0x2014 <printf+0x736>
     79c: a5 11        	lda	$11                     ; 0x2011 <printf+0x733>
     79e: 69 00        	adc	#$0
     7a0: 85 15        	sta	$15                     ; 0x2015 <printf+0x737>
     7a2: a2 20        	ldx	#$20
     7a4: 86 26        	stx	$26                     ; 0x2026 <printf+0x748>
     7a6: a2 26        	ldx	#$26
     7a8: 86 27        	stx	$27                     ; 0x2027 <printf+0x749>
     7aa: a0 06        	ldy	#$6
     7ac: 20 dc ff     	jsr	$ffdc <__heap_start+0xd9ae>
     7af: 92 14        	sta	($14)                   ; 0x2014 <printf+0x736>
     7b1: a9 00        	lda	#$0
     7b3: 6a           	ror
     7b4: 85 26        	sta	$26                     ; 0x2026 <printf+0x748>
     7b6: b1 12        	lda	($12),y                 ; 0x2012 <printf+0x734>
     7b8: 85 14        	sta	$14                     ; 0x2014 <printf+0x736>
     7ba: c8           	iny
     7bb: b1 12        	lda	($12),y                 ; 0x2012 <printf+0x734>
     7bd: a6 14        	ldx	$14                     ; 0x2014 <printf+0x736>
     7bf: 8e 00 de     	stx	$de00                   ; 0xde00 <__heap_start+0xb7d2>
     7c2: 9c 01 de     	stz	$de01                   ; 0xde01 <__heap_start+0xb7d3>
     7c5: 8d 02 de     	sta	$de02                   ; 0xde02 <__heap_start+0xb7d4>
     7c8: 9c 03 de     	stz	$de03                   ; 0xde03 <__heap_start+0xb7d5>
     7cb: ae 10 de     	ldx	$de10                   ; 0xde10 <__heap_start+0xb7e2>
     7ce: ac 11 de     	ldy	$de11                   ; 0xde11 <__heap_start+0xb7e3>
     7d1: ad 12 de     	lda	$de12                   ; 0xde12 <__heap_start+0xb7e4>
     7d4: ad 13 de     	lda	$de13                   ; 0xde13 <__heap_start+0xb7e5>
     7d7: 8e a4 d6     	stx	$d6a4                   ; 0xd6a4 <__heap_start+0xb076>
     7da: 8c a5 d6     	sty	$d6a5                   ; 0xd6a5 <__heap_start+0xb077>
     7dd: a2 03        	ldx	#$3
     7df: 8e a6 d6     	stx	$d6a6                   ; 0xd6a6 <__heap_start+0xb078>
     7e2: a2 27        	ldx	#$27
     7e4: 8e 00 d0     	stx	$d000                   ; 0xd000 <__heap_start+0xa9d2>
     7e7: a2 10        	ldx	#$10
     7e9: 8e 01 d0     	stx	$d001                   ; 0xd001 <__heap_start+0xa9d3>
     7ec: 9c 0d d0     	stz	$d00d                   ; 0xd00d <__heap_start+0xa9df>
     7ef: 9c 0e d0     	stz	$d00e                   ; 0xd00e <__heap_start+0xa9e0>
     7f2: 9c 0f d0     	stz	$d00f                   ; 0xd00f <__heap_start+0xa9e1>
     7f5: ad 01 d0     	lda	$d001                   ; 0xd001 <__heap_start+0xa9d3>
     7f8: 09 10        	ora	#$10
     7fa: 8d 01 d0     	sta	$d001                   ; 0xd001 <__heap_start+0xa9d3>
     7fd: 20 ac 0c     	jsr	$cac <oldText>
     800: a2 01        	ldx	#$1
     802: 8a           	txa
     803: a0 0d        	ldy	#$d
     805: 91 10        	sta	($10),y                 ; 0x2010 <printf+0x732>
     807: 64 31        	stz	$31                     ; 0x2031 <printf+0x753>
     809: 18           	clc
     80a: a5 10        	lda	$10                     ; 0x2010 <printf+0x732>
     80c: 69 11        	adc	#$11
     80e: 85 12        	sta	$12                     ; 0x2012 <printf+0x734>
     810: a5 11        	lda	$11                     ; 0x2011 <printf+0x733>
     812: 69 00        	adc	#$0
     814: 85 13        	sta	$13                     ; 0x2013 <printf+0x735>
     816: 20 00 ff     	jsr	$ff00 <__heap_start+0xd8d2>
     819: 92 12        	sta	($12)                   ; 0x2012 <printf+0x734>
     81b: a9 00        	lda	#$0
     81d: 6a           	ror
     81e: 85 26        	sta	$26                     ; 0x2026 <printf+0x748>
     820: a4 31        	ldy	$31                     ; 0x2031 <printf+0x753>
     822: c0 08        	cpy	#$8
     824: d0 e1        	bne	$807 <main+0x4b1>
     826: a4 35        	ldy	$35                     ; 0x2035 <printf+0x757>
     828: c0 92        	cpy	#$92
     82a: d0 03        	bne	$82f <main+0x4d9>
     82c: 4c 49 0c     	jmp	$c49 <main+0x8f3>
     82f: c0 83        	cpy	#$83
     831: d0 03        	bne	$836 <main+0x4e0>
     833: 4c 95 08     	jmp	$895 <main+0x53f>
     836: c0 81        	cpy	#$81
     838: d0 cd        	bne	$807 <main+0x4b1>
     83a: 8a           	txa
     83b: d0 03        	bne	$840 <main+0x4ea>
     83d: 4c e9 08     	jmp	$8e9 <main+0x593>
     840: a2 34        	ldx	#$34
     842: 86 30        	stx	$30                     ; 0x2030 <printf+0x752>
     844: a6 01        	ldx	$1                      ; 0x2001 <printf+0x723>
     846: 86 16        	stx	$16                     ; 0x2016 <printf+0x738>
     848: a2 50        	ldx	#$50
     84a: 8e 00 de     	stx	$de00                   ; 0xde00 <__heap_start+0xb7d2>
     84d: 9c 01 de     	stz	$de01                   ; 0xde01 <__heap_start+0xb7d3>
     850: a2 1e        	ldx	#$1e
     852: 8e 02 de     	stx	$de02                   ; 0xde02 <__heap_start+0xb7d4>
     855: 9c 03 de     	stz	$de03                   ; 0xde03 <__heap_start+0xb7d5>
     858: ac 10 de     	ldy	$de10                   ; 0xde10 <__heap_start+0xb7e2>
     85b: 84 12        	sty	$12                     ; 0x2012 <printf+0x734>
     85d: ad 11 de     	lda	$de11                   ; 0xde11 <__heap_start+0xb7e3>
     860: 85 13        	sta	$13                     ; 0x2013 <printf+0x735>
     862: ae 12 de     	ldx	$de12                   ; 0xde12 <__heap_start+0xb7e4>
     865: ae 13 de     	ldx	$de13                   ; 0xde13 <__heap_start+0xb7e5>
     868: a2 02        	ldx	#$2
     86a: 86 01        	stx	$1                      ; 0x2001 <printf+0x723>
     86c: c0 01        	cpy	#$1
     86e: e9 00        	sbc	#$0
     870: 50 02        	bvc	$874 <main+0x51e>
     872: 49 80        	eor	#$80
     874: a0 01        	ldy	#$1
     876: aa           	tax
     877: 10 03        	bpl	$87c <main+0x526>
     879: 4c 03 09     	jmp	$903 <main+0x5ad>
     87c: a9 ff        	lda	#$ff
     87e: 18           	clc
     87f: 65 12        	adc	$12                     ; 0x2012 <printf+0x734>
     881: 85 12        	sta	$12                     ; 0x2012 <printf+0x734>
     883: a9 bf        	lda	#$bf
     885: 65 13        	adc	$13                     ; 0x2013 <printf+0x735>
     887: 85 13        	sta	$13                     ; 0x2013 <printf+0x735>
     889: a2 ff        	ldx	#$ff
     88b: 86 14        	stx	$14                     ; 0x2014 <printf+0x736>
     88d: a2 bf        	ldx	#$bf
     88f: 86 15        	stx	$15                     ; 0x2015 <printf+0x737>
     891: a9 20        	lda	#$20
     893: 80 16        	bra	$8ab <main+0x555>
     895: 64 01        	stz	$1                      ; 0x2001 <printf+0x723>
     897: a0 0d        	ldy	#$d
     899: b1 10        	lda	($10),y                 ; 0x2010 <printf+0x732>
     89b: d0 54        	bne	$8f1 <main+0x59b>
     89d: a0 10        	ldy	#$10
     89f: a9 01        	lda	#$1
     8a1: 80 54        	bra	$8f7 <main+0x5a1>
     8a3: e6 15        	inc	$15                     ; 0x2015 <printf+0x737>
     8a5: a6 15        	ldx	$15                     ; 0x2015 <printf+0x737>
     8a7: e4 13        	cpx	$13                     ; 0x2013 <printf+0x735>
     8a9: f0 0c        	beq	$8b7 <main+0x561>
     8ab: 91 14        	sta	($14),y                 ; 0x2014 <printf+0x736>
     8ad: e6 14        	inc	$14                     ; 0x2014 <printf+0x736>
     8af: f0 f2        	beq	$8a3 <main+0x54d>
     8b1: a6 15        	ldx	$15                     ; 0x2015 <printf+0x737>
     8b3: e4 13        	cpx	$13                     ; 0x2013 <printf+0x735>
     8b5: d0 f4        	bne	$8ab <main+0x555>
     8b7: a6 14        	ldx	$14                     ; 0x2014 <printf+0x736>
     8b9: e4 12        	cpx	$12                     ; 0x2012 <printf+0x734>
     8bb: d0 ee        	bne	$8ab <main+0x555>
     8bd: a2 03        	ldx	#$3
     8bf: 86 01        	stx	$1                      ; 0x2001 <printf+0x723>
     8c1: a5 30        	lda	$30                     ; 0x2030 <printf+0x752>
     8c3: a2 ff        	ldx	#$ff
     8c5: 86 14        	stx	$14                     ; 0x2014 <printf+0x736>
     8c7: a2 bf        	ldx	#$bf
     8c9: 86 15        	stx	$15                     ; 0x2015 <printf+0x737>
     8cb: 80 08        	bra	$8d5 <main+0x57f>
     8cd: e6 15        	inc	$15                     ; 0x2015 <printf+0x737>
     8cf: a6 15        	ldx	$15                     ; 0x2015 <printf+0x737>
     8d1: e4 13        	cpx	$13                     ; 0x2013 <printf+0x735>
     8d3: f0 0c        	beq	$8e1 <main+0x58b>
     8d5: 91 14        	sta	($14),y                 ; 0x2014 <printf+0x736>
     8d7: e6 14        	inc	$14                     ; 0x2014 <printf+0x736>
     8d9: f0 f2        	beq	$8cd <main+0x577>
     8db: a6 15        	ldx	$15                     ; 0x2015 <printf+0x737>
     8dd: e4 13        	cpx	$13                     ; 0x2013 <printf+0x735>
     8df: d0 f4        	bne	$8d5 <main+0x57f>
     8e1: a6 14        	ldx	$14                     ; 0x2014 <printf+0x736>
     8e3: e4 12        	cpx	$12                     ; 0x2012 <printf+0x734>
     8e5: d0 ee        	bne	$8d5 <main+0x57f>
     8e7: 80 1e        	bra	$907 <main+0x5b1>
     8e9: 20 ac 0c     	jsr	$cac <oldText>
     8ec: a2 01        	ldx	#$1
     8ee: 4c 07 08     	jmp	$807 <main+0x4b1>
     8f1: a0 14        	ldy	#$14
     8f3: 64 12        	stz	$12                     ; 0x2012 <printf+0x734>
     8f5: a9 00        	lda	#$0
     8f7: 5a           	phy
     8f8: a0 0d        	ldy	#$d
     8fa: 91 10        	sta	($10),y                 ; 0x2010 <printf+0x732>
     8fc: 7a           	ply
     8fd: 8c 01 d0     	sty	$d001                   ; 0xd001 <__heap_start+0xa9d3>
     900: 4c 07 08     	jmp	$807 <main+0x4b1>
     903: a2 03        	ldx	#$3
     905: 86 01        	stx	$1                      ; 0x2001 <printf+0x723>
     907: a6 16        	ldx	$16                     ; 0x2016 <printf+0x738>
     909: 86 01        	stx	$1                      ; 0x2001 <printf+0x723>
     90b: 64 14        	stz	$14                     ; 0x2014 <printf+0x736>
     90d: 64 38        	stz	$38                     ; 0x2038 <printf+0x75a>
     90f: 9c 14 d0     	stz	$d014                   ; 0xd014 <__heap_start+0xa9e6>
     912: 9c 15 d0     	stz	$d015                   ; 0xd015 <__heap_start+0xa9e7>
     915: 64 39        	stz	$39                     ; 0x2039 <printf+0x75b>
     917: 9c 16 d0     	stz	$d016                   ; 0xd016 <__heap_start+0xa9e8>
     91a: 9c 17 d0     	stz	$d017                   ; 0xd017 <__heap_start+0xa9e9>
     91d: a2 40        	ldx	#$40
     91f: 86 01        	stx	$1                      ; 0x2001 <printf+0x723>
     921: a2 07        	ldx	#$7
     923: 8e 00 d0     	stx	$d000                   ; 0xd000 <__heap_start+0xa9d2>
     926: a2 d0        	ldx	#$d0
     928: 8e 01 d0     	stx	$d001                   ; 0xd001 <__heap_start+0xa9d3>
     92b: 8c 00 d3     	sty	$d300                   ; 0xd300 <__heap_start+0xacd2>
     92e: 9c 04 d3     	stz	$d304                   ; 0xd304 <__heap_start+0xacd6>
     931: 9c 05 d3     	stz	$d305                   ; 0xd305 <__heap_start+0xacd7>
     934: 8c 06 d3     	sty	$d306                   ; 0xd306 <__heap_start+0xacd8>
     937: a0 fe        	ldy	#$fe
     939: a2 ff        	ldx	#$ff
     93b: 18           	clc
     93c: 98           	tya
     93d: 69 02        	adc	#$2
     93f: a8           	tay
     940: 8a           	txa
     941: 69 00        	adc	#$0
     943: 85 12        	sta	$12                     ; 0x2012 <printf+0x734>
     945: 85 15        	sta	$15                     ; 0x2015 <printf+0x737>
     947: 06 12        	asl	$12                     ; 0x2012 <printf+0x734>
     949: 2c 59 25     	bit	$2559                   ; 0x2559 <__set_v>
     94c: b0 01        	bcs	$94f <main+0x5f9>
     94e: b8           	clv
     94f: a9 00        	lda	#$0
     951: 2a           	rol
     952: 06 12        	asl	$12                     ; 0x2012 <printf+0x734>
     954: a2 01        	ldx	#$1
     956: b0 02        	bcs	$95a <main+0x604>
     958: a2 00        	ldx	#$0
     95a: 86 16        	stx	$16                     ; 0x2016 <printf+0x738>
     95c: 2a           	rol
     95d: 06 12        	asl	$12                     ; 0x2012 <printf+0x734>
     95f: a2 01        	ldx	#$1
     961: b0 02        	bcs	$965 <main+0x60f>
     963: a2 00        	ldx	#$0
     965: 86 17        	stx	$17                     ; 0x2017 <printf+0x739>
     967: 2a           	rol
     968: a6 0f        	ldx	$f                      ; 0x200f <printf+0x731>
     96a: 78           	sei
     96b: 09 08        	ora	#$8
     96d: 85 0f        	sta	$f                      ; 0x200f <printf+0x731>
     96f: a5 15        	lda	$15                     ; 0x2015 <printf+0x737>
     971: 09 e0        	ora	#$e0
     973: 84 12        	sty	$12                     ; 0x2012 <printf+0x734>
     975: 85 13        	sta	$13                     ; 0x2013 <printf+0x735>
     977: 85 18        	sta	$18                     ; 0x2018 <printf+0x73a>
     979: a5 14        	lda	$14                     ; 0x2014 <printf+0x736>
     97b: 92 12        	sta	($12)                   ; 0x2012 <printf+0x734>
     97d: 86 0f        	stx	$f                      ; 0x200f <printf+0x731>
     97f: a9 01        	lda	#$1
     981: 38           	sec
     982: 70 01        	bvs	$985 <main+0x62f>
     984: 18           	clc
     985: 2a           	rol
     986: a6 16        	ldx	$16                     ; 0x2016 <printf+0x738>
     988: e0 01        	cpx	#$1
     98a: 2a           	rol
     98b: 58           	cli
     98c: a6 17        	ldx	$17                     ; 0x2017 <printf+0x739>
     98e: e0 01        	cpx	#$1
     990: 2a           	rol
     991: a6 0f        	ldx	$f                      ; 0x200f <printf+0x731>
     993: 78           	sei
     994: 85 0f        	sta	$f                      ; 0x200f <printf+0x731>
     996: 98           	tya
     997: 09 01        	ora	#$1
     999: 85 12        	sta	$12                     ; 0x2012 <printf+0x734>
     99b: a5 18        	lda	$18                     ; 0x2018 <printf+0x73a>
     99d: 85 13        	sta	$13                     ; 0x2013 <printf+0x735>
     99f: a9 00        	lda	#$0
     9a1: 92 12        	sta	($12)                   ; 0x2012 <printf+0x734>
     9a3: 86 0f        	stx	$f                      ; 0x200f <printf+0x731>
     9a5: 58           	cli
     9a6: e6 14        	inc	$14                     ; 0x2014 <printf+0x736>
     9a8: a6 15        	ldx	$15                     ; 0x2015 <printf+0x737>
     9aa: e0 25        	cpx	#$25
     9ac: d0 07        	bne	$9b5 <main+0x65f>
     9ae: c0 7e        	cpy	#$7e
     9b0: b0 0a        	bcs	$9bc <main+0x666>
     9b2: 4c 3b 09     	jmp	$93b <main+0x5e5>
     9b5: e0 25        	cpx	#$25
     9b7: b0 03        	bcs	$9bc <main+0x666>
     9b9: 4c 3b 09     	jmp	$93b <main+0x5e5>
     9bc: 64 14        	stz	$14                     ; 0x2014 <printf+0x736>
     9be: 9c 08 d3     	stz	$d308                   ; 0xd308 <__heap_start+0xacda>
     9c1: 9c 09 d3     	stz	$d309                   ; 0xd309 <__heap_start+0xacdb>
     9c4: a2 02        	ldx	#$2
     9c6: 8e 0a d3     	stx	$d30a                   ; 0xd30a <__heap_start+0xacdc>
     9c9: a0 fe        	ldy	#$fe
     9cb: a2 ff        	ldx	#$ff
     9cd: 18           	clc
     9ce: 98           	tya
     9cf: 69 02        	adc	#$2
     9d1: a8           	tay
     9d2: 8a           	txa
     9d3: 69 00        	adc	#$0
     9d5: 85 15        	sta	$15                     ; 0x2015 <printf+0x737>
     9d7: 85 12        	sta	$12                     ; 0x2012 <printf+0x734>
     9d9: 06 12        	asl	$12                     ; 0x2012 <printf+0x734>
     9db: 2c 59 25     	bit	$2559                   ; 0x2559 <__set_v>
     9de: b0 01        	bcs	$9e1 <main+0x68b>
     9e0: b8           	clv
     9e1: a9 00        	lda	#$0
     9e3: 2a           	rol
     9e4: 06 12        	asl	$12                     ; 0x2012 <printf+0x734>
     9e6: a2 01        	ldx	#$1
     9e8: b0 02        	bcs	$9ec <main+0x696>
     9ea: a2 00        	ldx	#$0
     9ec: 86 16        	stx	$16                     ; 0x2016 <printf+0x738>
     9ee: 2a           	rol
     9ef: 06 12        	asl	$12                     ; 0x2012 <printf+0x734>
     9f1: a2 01        	ldx	#$1
     9f3: b0 02        	bcs	$9f7 <main+0x6a1>
     9f5: a2 00        	ldx	#$0
     9f7: 86 17        	stx	$17                     ; 0x2017 <printf+0x739>
     9f9: 2a           	rol
     9fa: a6 0f        	ldx	$f                      ; 0x200f <printf+0x731>
     9fc: 78           	sei
     9fd: 09 10        	ora	#$10
     9ff: 85 0f        	sta	$f                      ; 0x200f <printf+0x731>
     a01: a5 15        	lda	$15                     ; 0x2015 <printf+0x737>
     a03: 09 e0        	ora	#$e0
     a05: 84 12        	sty	$12                     ; 0x2012 <printf+0x734>
     a07: 85 13        	sta	$13                     ; 0x2013 <printf+0x735>
     a09: 85 18        	sta	$18                     ; 0x2018 <printf+0x73a>
     a0b: a5 14        	lda	$14                     ; 0x2014 <printf+0x736>
     a0d: 92 12        	sta	($12)                   ; 0x2012 <printf+0x734>
     a0f: 86 0f        	stx	$f                      ; 0x200f <printf+0x731>
     a11: a9 02        	lda	#$2
     a13: 38           	sec
     a14: 70 01        	bvs	$a17 <main+0x6c1>
     a16: 18           	clc
     a17: 2a           	rol
     a18: a6 16        	ldx	$16                     ; 0x2016 <printf+0x738>
     a1a: e0 01        	cpx	#$1
     a1c: 2a           	rol
     a1d: 58           	cli
     a1e: a6 17        	ldx	$17                     ; 0x2017 <printf+0x739>
     a20: e0 01        	cpx	#$1
     a22: 2a           	rol
     a23: a6 0f        	ldx	$f                      ; 0x200f <printf+0x731>
     a25: 78           	sei
     a26: 85 0f        	sta	$f                      ; 0x200f <printf+0x731>
     a28: 98           	tya
     a29: 09 01        	ora	#$1
     a2b: 85 12        	sta	$12                     ; 0x2012 <printf+0x734>
     a2d: a5 18        	lda	$18                     ; 0x2018 <printf+0x73a>
     a2f: 85 13        	sta	$13                     ; 0x2013 <printf+0x735>
     a31: a5 14        	lda	$14                     ; 0x2014 <printf+0x736>
     a33: 92 12        	sta	($12)                   ; 0x2012 <printf+0x734>
     a35: 86 0f        	stx	$f                      ; 0x200f <printf+0x731>
     a37: 58           	cli
     a38: 1a           	inc
     a39: 85 14        	sta	$14                     ; 0x2014 <printf+0x736>
     a3b: a6 15        	ldx	$15                     ; 0x2015 <printf+0x737>
     a3d: e0 25        	cpx	#$25
     a3f: d0 07        	bne	$a48 <main+0x6f2>
     a41: c0 7e        	cpy	#$7e
     a43: b0 0a        	bcs	$a4f <main+0x6f9>
     a45: 4c cd 09     	jmp	$9cd <main+0x677>
     a48: e0 25        	cpx	#$25
     a4a: b0 03        	bcs	$a4f <main+0x6f9>
     a4c: 4c cd 09     	jmp	$9cd <main+0x677>
     a4f: a2 08        	ldx	#$8
     a51: 86 01        	stx	$1                      ; 0x2001 <printf+0x723>
     a53: a2 fc        	ldx	#$fc
     a55: a0 ff        	ldy	#$ff
     a57: 64 12        	stz	$12                     ; 0x2012 <printf+0x734>
     a59: a9 00        	lda	#$0
     a5b: 5a           	phy
     a5c: a0 0e        	ldy	#$e
     a5e: 91 10        	sta	($10),y                 ; 0x2010 <printf+0x732>
     a60: 7a           	ply
     a61: 8a           	txa
     a62: 18           	clc
     a63: 69 04        	adc	#$4
     a65: 85 24        	sta	$24                     ; 0x2024 <printf+0x746>
     a67: 5a           	phy
     a68: a9 01        	lda	#$1
     a6a: b0 02        	bcs	$a6e <main+0x718>
     a6c: a9 00        	lda	#$0
     a6e: a0 10        	ldy	#$10
     a70: 91 10        	sta	($10),y                 ; 0x2010 <printf+0x732>
     a72: b1 10        	lda	($10),y                 ; 0x2010 <printf+0x732>
     a74: 7a           	ply
     a75: c9 01        	cmp	#$1
     a77: 98           	tya
     a78: 69 c0        	adc	#$c0
     a7a: 85 14        	sta	$14                     ; 0x2014 <printf+0x736>
     a7c: 8a           	txa
     a7d: 18           	clc
     a7e: 69 05        	adc	#$5
     a80: 85 15        	sta	$15                     ; 0x2015 <printf+0x737>
     a82: 5a           	phy
     a83: a9 01        	lda	#$1
     a85: b0 02        	bcs	$a89 <main+0x733>
     a87: a9 00        	lda	#$0
     a89: a0 0f        	ldy	#$f
     a8b: 91 10        	sta	($10),y                 ; 0x2010 <printf+0x732>
     a8d: b1 10        	lda	($10),y                 ; 0x2010 <printf+0x732>
     a8f: 7a           	ply
     a90: c9 01        	cmp	#$1
     a92: 98           	tya
     a93: 69 c0        	adc	#$c0
     a95: 85 16        	sta	$16                     ; 0x2016 <printf+0x738>
     a97: 8a           	txa
     a98: 18           	clc
     a99: 69 06        	adc	#$6
     a9b: 85 1f        	sta	$1f                     ; 0x201f <printf+0x741>
     a9d: a9 01        	lda	#$1
     a9f: b0 02        	bcs	$aa3 <main+0x74d>
     aa1: a9 00        	lda	#$0
     aa3: 85 2e        	sta	$2e                     ; 0x202e <printf+0x750>
     aa5: 98           	tya
     aa6: 69 c0        	adc	#$c0
     aa8: 85 17        	sta	$17                     ; 0x2017 <printf+0x739>
     aaa: 8a           	txa
     aab: 18           	clc
     aac: 69 07        	adc	#$7
     aae: 85 23        	sta	$23                     ; 0x2023 <printf+0x745>
     ab0: a9 01        	lda	#$1
     ab2: b0 02        	bcs	$ab6 <main+0x760>
     ab4: a9 00        	lda	#$0
     ab6: 85 25        	sta	$25                     ; 0x2025 <printf+0x747>
     ab8: 98           	tya
     ab9: 69 c0        	adc	#$c0
     abb: 85 19        	sta	$19                     ; 0x2019 <printf+0x73b>
     abd: 98           	tya
     abe: 48           	pha
     abf: 5a           	phy
     ac0: a0 10        	ldy	#$10
     ac2: b1 10        	lda	($10),y                 ; 0x2010 <printf+0x732>
     ac4: 7a           	ply
     ac5: c9 01        	cmp	#$1
     ac7: 68           	pla
     ac8: 69 c4        	adc	#$c4
     aca: 85 1b        	sta	$1b                     ; 0x201b <printf+0x73d>
     acc: 98           	tya
     acd: 48           	pha
     ace: 5a           	phy
     acf: a0 0f        	ldy	#$f
     ad1: b1 10        	lda	($10),y                 ; 0x2010 <printf+0x732>
     ad3: 7a           	ply
     ad4: c9 01        	cmp	#$1
     ad6: 68           	pla
     ad7: 69 c4        	adc	#$c4
     ad9: 85 1d        	sta	$1d                     ; 0x201d <printf+0x73f>
     adb: 98           	tya
     adc: 5a           	phy
     add: a4 2e        	ldy	$2e                     ; 0x202e <printf+0x750>
     adf: c0 01        	cpy	#$1
     ae1: 7a           	ply
     ae2: 69 c4        	adc	#$c4
     ae4: 85 22        	sta	$22                     ; 0x2022 <printf+0x744>
     ae6: 98           	tya
     ae7: 5a           	phy
     ae8: a4 25        	ldy	$25                     ; 0x2025 <printf+0x747>
     aea: c0 01        	cpy	#$1
     aec: 7a           	ply
     aed: 69 c4        	adc	#$c4
     aef: 85 28        	sta	$28                     ; 0x2028 <printf+0x74a>
     af1: 98           	tya
     af2: 5a           	phy
     af3: 48           	pha
     af4: a0 10        	ldy	#$10
     af6: b1 10        	lda	($10),y                 ; 0x2010 <printf+0x732>
     af8: c9 01        	cmp	#$1
     afa: 68           	pla
     afb: 69 c8        	adc	#$c8
     afd: 85 29        	sta	$29                     ; 0x2029 <printf+0x74b>
     aff: 18           	clc
     b00: 8a           	txa
     b01: 69 04        	adc	#$4
     b03: a0 0c        	ldy	#$c
     b05: 91 10        	sta	($10),y                 ; 0x2010 <printf+0x732>
     b07: 7a           	ply
     b08: 98           	tya
     b09: 5a           	phy
     b0a: 48           	pha
     b0b: a0 0f        	ldy	#$f
     b0d: b1 10        	lda	($10),y                 ; 0x2010 <printf+0x732>
     b0f: c9 01        	cmp	#$1
     b11: 68           	pla
     b12: 69 c8        	adc	#$c8
     b14: a0 0b        	ldy	#$b
     b16: 91 10        	sta	($10),y                 ; 0x2010 <printf+0x732>
     b18: 7a           	ply
     b19: 98           	tya
     b1a: a6 2e        	ldx	$2e                     ; 0x202e <printf+0x750>
     b1c: e0 01        	cpx	#$1
     b1e: 69 c8        	adc	#$c8
     b20: 5a           	phy
     b21: a0 0a        	ldy	#$a
     b23: 91 10        	sta	($10),y                 ; 0x2010 <printf+0x732>
     b25: 7a           	ply
     b26: 98           	tya
     b27: a6 25        	ldx	$25                     ; 0x2025 <printf+0x747>
     b29: e0 01        	cpx	#$1
     b2b: 69 c8        	adc	#$c8
     b2d: 5a           	phy
     b2e: a0 09        	ldy	#$9
     b30: 91 10        	sta	($10),y                 ; 0x2010 <printf+0x732>
     b32: 7a           	ply
     b33: 98           	tya
     b34: 5a           	phy
     b35: 48           	pha
     b36: a0 10        	ldy	#$10
     b38: b1 10        	lda	($10),y                 ; 0x2010 <printf+0x732>
     b3a: c9 01        	cmp	#$1
     b3c: 68           	pla
     b3d: 69 cc        	adc	#$cc
     b3f: a0 08        	ldy	#$8
     b41: 91 10        	sta	($10),y                 ; 0x2010 <printf+0x732>
     b43: a6 24        	ldx	$24                     ; 0x2024 <printf+0x746>
     b45: 86 12        	stx	$12                     ; 0x2012 <printf+0x734>
     b47: a6 14        	ldx	$14                     ; 0x2014 <printf+0x736>
     b49: 86 13        	stx	$13                     ; 0x2013 <printf+0x735>
     b4b: a6 15        	ldx	$15                     ; 0x2015 <printf+0x737>
     b4d: 86 14        	stx	$14                     ; 0x2014 <printf+0x736>
     b4f: a4 16        	ldy	$16                     ; 0x2016 <printf+0x738>
     b51: 84 15        	sty	$15                     ; 0x2015 <printf+0x737>
     b53: a4 1f        	ldy	$1f                     ; 0x201f <printf+0x741>
     b55: 84 16        	sty	$16                     ; 0x2016 <printf+0x738>
     b57: a4 23        	ldy	$23                     ; 0x2023 <printf+0x745>
     b59: 84 18        	sty	$18                     ; 0x2018 <printf+0x73a>
     b5b: a4 24        	ldy	$24                     ; 0x2024 <printf+0x746>
     b5d: 84 1a        	sty	$1a                     ; 0x201a <printf+0x73c>
     b5f: 86 1c        	stx	$1c                     ; 0x201c <printf+0x73e>
     b61: 86 2c        	stx	$2c                     ; 0x202c <printf+0x74e>
     b63: a6 1f        	ldx	$1f                     ; 0x201f <printf+0x741>
     b65: 86 1e        	stx	$1e                     ; 0x201e <printf+0x740>
     b67: a6 1f        	ldx	$1f                     ; 0x201f <printf+0x741>
     b69: 86 2d        	stx	$2d                     ; 0x202d <printf+0x74f>
     b6b: a6 22        	ldx	$22                     ; 0x2022 <printf+0x744>
     b6d: 86 1f        	stx	$1f                     ; 0x201f <printf+0x741>
     b6f: a6 23        	ldx	$23                     ; 0x2023 <printf+0x745>
     b71: 86 22        	stx	$22                     ; 0x2022 <printf+0x744>
     b73: a6 23        	ldx	$23                     ; 0x2023 <printf+0x745>
     b75: 86 2f        	stx	$2f                     ; 0x202f <printf+0x751>
     b77: a6 28        	ldx	$28                     ; 0x2028 <printf+0x74a>
     b79: 86 23        	stx	$23                     ; 0x2023 <printf+0x745>
     b7b: a6 24        	ldx	$24                     ; 0x2024 <printf+0x746>
     b7d: 86 28        	stx	$28                     ; 0x2028 <printf+0x74a>
     b7f: a0 0e        	ldy	#$e
     b81: b1 10        	lda	($10),y                 ; 0x2010 <printf+0x732>
     b83: 92 12        	sta	($12)                   ; 0x2012 <printf+0x734>
     b85: aa           	tax
     b86: a9 00        	lda	#$0
     b88: 92 14        	sta	($14)                   ; 0x2014 <printf+0x736>
     b8a: 92 16        	sta	($16)                   ; 0x2016 <printf+0x738>
     b8c: 92 18        	sta	($18)                   ; 0x2018 <printf+0x73a>
     b8e: 92 1a        	sta	($1a)                   ; 0x201a <printf+0x73c>
     b90: 92 1c        	sta	($1c)                   ; 0x201c <printf+0x73e>
     b92: 8a           	txa
     b93: 92 1e        	sta	($1e)                   ; 0x201e <printf+0x740>
     b95: 86 1f        	stx	$1f                     ; 0x201f <printf+0x741>
     b97: a9 00        	lda	#$0
     b99: 92 22        	sta	($22)                   ; 0x2022 <printf+0x744>
     b9b: a0 0c        	ldy	#$c
     b9d: b1 10        	lda	($10),y                 ; 0x2010 <printf+0x732>
     b9f: 92 28        	sta	($28)                   ; 0x2028 <printf+0x74a>
     ba1: a6 2c        	ldx	$2c                     ; 0x202c <printf+0x74e>
     ba3: 86 12        	stx	$12                     ; 0x2012 <printf+0x734>
     ba5: 88           	dey
     ba6: b1 10        	lda	($10),y                 ; 0x2010 <printf+0x732>
     ba8: 85 13        	sta	$13                     ; 0x2013 <printf+0x735>
     baa: a6 2d        	ldx	$2d                     ; 0x202d <printf+0x74f>
     bac: 86 14        	stx	$14                     ; 0x2014 <printf+0x736>
     bae: 88           	dey
     baf: b1 10        	lda	($10),y                 ; 0x2010 <printf+0x732>
     bb1: 85 15        	sta	$15                     ; 0x2015 <printf+0x737>
     bb3: a6 2f        	ldx	$2f                     ; 0x202f <printf+0x751>
     bb5: 86 16        	stx	$16                     ; 0x2016 <printf+0x738>
     bb7: 88           	dey
     bb8: b1 10        	lda	($10),y                 ; 0x2010 <printf+0x732>
     bba: 85 17        	sta	$17                     ; 0x2017 <printf+0x739>
     bbc: a6 24        	ldx	$24                     ; 0x2024 <printf+0x746>
     bbe: 86 18        	stx	$18                     ; 0x2018 <printf+0x73a>
     bc0: 88           	dey
     bc1: b1 10        	lda	($10),y                 ; 0x2010 <printf+0x732>
     bc3: 7a           	ply
     bc4: 85 19        	sta	$19                     ; 0x2019 <printf+0x73b>
     bc6: a6 24        	ldx	$24                     ; 0x2024 <printf+0x746>
     bc8: 98           	tya
     bc9: 48           	pha
     bca: 5a           	phy
     bcb: a0 0f        	ldy	#$f
     bcd: b1 10        	lda	($10),y                 ; 0x2010 <printf+0x732>
     bcf: 7a           	ply
     bd0: c9 01        	cmp	#$1
     bd2: 68           	pla
     bd3: 69 cc        	adc	#$cc
     bd5: 5a           	phy
     bd6: a4 2c        	ldy	$2c                     ; 0x202c <printf+0x74e>
     bd8: 84 1a        	sty	$1a                     ; 0x201a <printf+0x73c>
     bda: 7a           	ply
     bdb: 85 1b        	sta	$1b                     ; 0x201b <printf+0x73d>
     bdd: 98           	tya
     bde: 5a           	phy
     bdf: a4 2e        	ldy	$2e                     ; 0x202e <printf+0x750>
     be1: c0 01        	cpy	#$1
     be3: 69 cc        	adc	#$cc
     be5: a4 2d        	ldy	$2d                     ; 0x202d <printf+0x74f>
     be7: 84 1c        	sty	$1c                     ; 0x201c <printf+0x73e>
     be9: 7a           	ply
     bea: 85 1d        	sta	$1d                     ; 0x201d <printf+0x73f>
     bec: 98           	tya
     bed: 5a           	phy
     bee: a4 25        	ldy	$25                     ; 0x2025 <printf+0x747>
     bf0: c0 01        	cpy	#$1
     bf2: 69 cc        	adc	#$cc
     bf4: 85 22        	sta	$22                     ; 0x2022 <printf+0x744>
     bf6: a4 2f        	ldy	$2f                     ; 0x202f <printf+0x751>
     bf8: 84 1e        	sty	$1e                     ; 0x201e <printf+0x740>
     bfa: a5 1f        	lda	$1f                     ; 0x201f <printf+0x741>
     bfc: 92 12        	sta	($12)                   ; 0x2012 <printf+0x734>
     bfe: 92 14        	sta	($14)                   ; 0x2014 <printf+0x736>
     c00: 85 12        	sta	$12                     ; 0x2012 <printf+0x734>
     c02: a9 00        	lda	#$0
     c04: 92 16        	sta	($16)                   ; 0x2016 <printf+0x738>
     c06: 92 18        	sta	($18)                   ; 0x2018 <printf+0x73a>
     c08: a5 12        	lda	$12                     ; 0x2012 <printf+0x734>
     c0a: 92 1a        	sta	($1a)                   ; 0x201a <printf+0x73c>
     c0c: 85 14        	sta	$14                     ; 0x2014 <printf+0x736>
     c0e: a9 00        	lda	#$0
     c10: 92 1c        	sta	($1c)                   ; 0x201c <printf+0x73e>
     c12: a4 22        	ldy	$22                     ; 0x2022 <printf+0x744>
     c14: 84 1f        	sty	$1f                     ; 0x201f <printf+0x741>
     c16: 7a           	ply
     c17: 92 1e        	sta	($1e)                   ; 0x201e <printf+0x740>
     c19: 98           	tya
     c1a: 48           	pha
     c1b: a0 10        	ldy	#$10
     c1d: b1 10        	lda	($10),y                 ; 0x2010 <printf+0x732>
     c1f: c9 01        	cmp	#$1
     c21: 68           	pla
     c22: 69 00        	adc	#$0
     c24: a8           	tay
     c25: 18           	clc
     c26: a5 14        	lda	$14                     ; 0x2014 <printf+0x736>
     c28: 69 fc        	adc	#$fc
     c2a: 5a           	phy
     c2b: a0 0e        	ldy	#$e
     c2d: 91 10        	sta	($10),y                 ; 0x2010 <printf+0x732>
     c2f: 7a           	ply
     c30: c0 03        	cpy	#$3
     c32: d0 07        	bne	$c3b <main+0x8e5>
     c34: e0 fc        	cpx	#$fc
     c36: b0 0a        	bcs	$c42 <main+0x8ec>
     c38: 4c 61 0a     	jmp	$a61 <main+0x70b>
     c3b: c0 03        	cpy	#$3
     c3d: b0 03        	bcs	$c42 <main+0x8ec>
     c3f: 4c 61 0a     	jmp	$a61 <main+0x70b>
     c42: a2 00        	ldx	#$0
     c44: 64 01        	stz	$1                      ; 0x2001 <printf+0x723>
     c46: 4c 07 08     	jmp	$807 <main+0x4b1>
     c49: 78           	sei
     c4a: a2 07        	ldx	#$7
     c4c: 86 0f        	stx	$f                      ; 0x200f <printf+0x731>
     c4e: a2 de        	ldx	#$de
     c50: 8e a2 d6     	stx	$d6a2                   ; 0xd6a2 <__heap_start+0xb074>
     c53: a2 ad        	ldx	#$ad
     c55: 8e a3 d6     	stx	$d6a3                   ; 0xd6a3 <__heap_start+0xb075>
     c58: a2 f0        	ldx	#$f0
     c5a: 8e a0 d6     	stx	$d6a0                   ; 0xd6a0 <__heap_start+0xb072>
     c5d: 9c a0 d6     	stz	$d6a0                   ; 0xd6a0 <__heap_start+0xb072>
     c60: 6c fc ff     	jmp	($fffc)                 ; 0xfffc <__heap_start+0xd9ce>
     c63: a2 00        	ldx	#$0
     c65: 8a           	txa
     c66: 85 20        	sta	$20                     ; 0x2020 <printf+0x742>
     c68: a8           	tay
     c69: b1 10        	lda	($10),y                 ; 0x2010 <printf+0x732>
     c6b: 85 2f        	sta	$2f                     ; 0x202f <printf+0x751>
     c6d: c8           	iny
     c6e: b1 10        	lda	($10),y                 ; 0x2010 <printf+0x732>
     c70: 85 2e        	sta	$2e                     ; 0x202e <printf+0x750>
     c72: c8           	iny
     c73: b1 10        	lda	($10),y                 ; 0x2010 <printf+0x732>
     c75: 85 2d        	sta	$2d                     ; 0x202d <printf+0x74f>
     c77: c8           	iny
     c78: b1 10        	lda	($10),y                 ; 0x2010 <printf+0x732>
     c7a: 85 2c        	sta	$2c                     ; 0x202c <printf+0x74e>
     c7c: c8           	iny
     c7d: b1 10        	lda	($10),y                 ; 0x2010 <printf+0x732>
     c7f: 85 2b        	sta	$2b                     ; 0x202b <printf+0x74d>
     c81: c8           	iny
     c82: b1 10        	lda	($10),y                 ; 0x2010 <printf+0x732>
     c84: 85 2a        	sta	$2a                     ; 0x202a <printf+0x74c>
     c86: c8           	iny
     c87: b1 10        	lda	($10),y                 ; 0x2010 <printf+0x732>
     c89: 85 29        	sta	$29                     ; 0x2029 <printf+0x74b>
     c8b: c8           	iny
     c8c: b1 10        	lda	($10),y                 ; 0x2010 <printf+0x732>
     c8e: 85 28        	sta	$28                     ; 0x2028 <printf+0x74a>
     c90: 7a           	ply
     c91: 84 27        	sty	$27                     ; 0x2027 <printf+0x749>
     c93: 7a           	ply
     c94: 84 26        	sty	$26                     ; 0x2026 <printf+0x748>
     c96: 7a           	ply
     c97: 84 25        	sty	$25                     ; 0x2025 <printf+0x747>
     c99: 7a           	ply
     c9a: 84 24        	sty	$24                     ; 0x2024 <printf+0x746>
     c9c: 18           	clc
     c9d: a5 10        	lda	$10                     ; 0x2010 <printf+0x732>
     c9f: 69 1b        	adc	#$1b
     ca1: 85 10        	sta	$10                     ; 0x2010 <printf+0x732>
     ca3: a5 11        	lda	$11                     ; 0x2011 <printf+0x733>
     ca5: 69 00        	adc	#$0
     ca7: 85 11        	sta	$11                     ; 0x2011 <printf+0x733>
     ca9: a5 20        	lda	$20                     ; 0x2020 <printf+0x742>
     cab: 60           	rts

00000cac <oldText>:
     cac: a2 27        	ldx	#$27
     cae: 8e 00 d0     	stx	$d000                   ; 0xd000 <__heap_start+0xa9d2>
     cb1: a2 10        	ldx	#$10
     cb3: 8e 01 d0     	stx	$d001                   ; 0xd001 <__heap_start+0xa9d3>
     cb6: a2 f0        	ldx	#$f0
     cb8: 86 30        	stx	$30                     ; 0x2030 <printf+0x752>
     cba: a6 01        	ldx	$1                      ; 0x2001 <printf+0x723>
     cbc: 86 16        	stx	$16                     ; 0x2016 <printf+0x738>
     cbe: a2 50        	ldx	#$50
     cc0: 8e 00 de     	stx	$de00                   ; 0xde00 <__heap_start+0xb7d2>
     cc3: 9c 01 de     	stz	$de01                   ; 0xde01 <__heap_start+0xb7d3>
     cc6: a2 1e        	ldx	#$1e
     cc8: 8e 02 de     	stx	$de02                   ; 0xde02 <__heap_start+0xb7d4>
     ccb: 9c 03 de     	stz	$de03                   ; 0xde03 <__heap_start+0xb7d5>
     cce: ae 10 de     	ldx	$de10                   ; 0xde10 <__heap_start+0xb7e2>
     cd1: ac 11 de     	ldy	$de11                   ; 0xde11 <__heap_start+0xb7e3>
     cd4: ad 12 de     	lda	$de12                   ; 0xde12 <__heap_start+0xb7e4>
     cd7: ad 13 de     	lda	$de13                   ; 0xde13 <__heap_start+0xb7e5>
     cda: a9 02        	lda	#$2
     cdc: 85 01        	sta	$1                      ; 0x2001 <printf+0x723>
     cde: 86 17        	stx	$17                     ; 0x2017 <printf+0x739>
     ce0: e0 01        	cpx	#$1
     ce2: 98           	tya
     ce3: e9 00        	sbc	#$0
     ce5: 50 02        	bvc	$ce9 <oldText+0x3d>
     ce7: 49 80        	eor	#$80
     ce9: 48           	pha
     cea: 18           	clc
     ceb: a5 10        	lda	$10                     ; 0x2010 <printf+0x732>
     ced: 69 fe        	adc	#$fe
     cef: 85 10        	sta	$10                     ; 0x2010 <printf+0x732>
     cf1: a5 11        	lda	$11                     ; 0x2011 <printf+0x733>
     cf3: 69 ff        	adc	#$ff
     cf5: 85 11        	sta	$11                     ; 0x2011 <printf+0x733>
     cf7: 68           	pla
     cf8: a2 00        	ldx	#$0
     cfa: 86 3c        	stx	$3c                     ; 0x203c <printf+0x75e>
     cfc: a2 c0        	ldx	#$c0
     cfe: 86 3d        	stx	$3d                     ; 0x203d <printf+0x75f>
     d00: aa           	tax
     d01: 10 03        	bpl	$d06 <oldText+0x5a>
     d03: 4c 69 0d     	jmp	$d69 <oldText+0xbd>
     d06: a9 20        	lda	#$20
     d08: a6 17        	ldx	$17                     ; 0x2017 <printf+0x739>
     d0a: 86 12        	stx	$12                     ; 0x2012 <printf+0x734>
     d0c: 84 13        	sty	$13                     ; 0x2013 <printf+0x735>
     d0e: a2 00        	ldx	#$0
     d10: 86 14        	stx	$14                     ; 0x2014 <printf+0x736>
     d12: a2 c0        	ldx	#$c0
     d14: 86 15        	stx	$15                     ; 0x2015 <printf+0x737>
     d16: 80 04        	bra	$d1c <oldText+0x70>
     d18: a6 13        	ldx	$13                     ; 0x2013 <printf+0x735>
     d1a: f0 14        	beq	$d30 <oldText+0x84>
     d1c: 92 14        	sta	($14)                   ; 0x2014 <printf+0x736>
     d1e: e6 14        	inc	$14                     ; 0x2014 <printf+0x736>
     d20: d0 02        	bne	$d24 <oldText+0x78>
     d22: e6 15        	inc	$15                     ; 0x2015 <printf+0x737>
     d24: a2 ff        	ldx	#$ff
     d26: c6 12        	dec	$12                     ; 0x2012 <printf+0x734>
     d28: e4 12        	cpx	$12                     ; 0x2012 <printf+0x734>
     d2a: d0 ec        	bne	$d18 <oldText+0x6c>
     d2c: c6 13        	dec	$13                     ; 0x2013 <printf+0x735>
     d2e: 80 e8        	bra	$d18 <oldText+0x6c>
     d30: a6 12        	ldx	$12                     ; 0x2012 <printf+0x734>
     d32: d0 e8        	bne	$d1c <oldText+0x70>
     d34: a2 03        	ldx	#$3
     d36: 86 01        	stx	$1                      ; 0x2001 <printf+0x723>
     d38: a6 30        	ldx	$30                     ; 0x2030 <printf+0x752>
     d3a: 86 14        	stx	$14                     ; 0x2014 <printf+0x736>
     d3c: a6 17        	ldx	$17                     ; 0x2017 <printf+0x739>
     d3e: a9 00        	lda	#$0
     d40: 85 12        	sta	$12                     ; 0x2012 <printf+0x734>
     d42: a9 c0        	lda	#$c0
     d44: 85 13        	sta	$13                     ; 0x2013 <printf+0x735>
     d46: 80 03        	bra	$d4b <oldText+0x9f>
     d48: 98           	tya
     d49: f0 19        	beq	$d64 <oldText+0xb8>
     d4b: a5 14        	lda	$14                     ; 0x2014 <printf+0x736>
     d4d: 92 12        	sta	($12)                   ; 0x2012 <printf+0x734>
     d4f: e6 12        	inc	$12                     ; 0x2012 <printf+0x734>
     d51: f0 07        	beq	$d5a <oldText+0xae>
     d53: ca           	dex
     d54: e0 ff        	cpx	#$ff
     d56: d0 f0        	bne	$d48 <oldText+0x9c>
     d58: 80 07        	bra	$d61 <oldText+0xb5>
     d5a: e6 13        	inc	$13                     ; 0x2013 <printf+0x735>
     d5c: ca           	dex
     d5d: e0 ff        	cpx	#$ff
     d5f: d0 e7        	bne	$d48 <oldText+0x9c>
     d61: 88           	dey
     d62: 80 e4        	bra	$d48 <oldText+0x9c>
     d64: 8a           	txa
     d65: d0 e4        	bne	$d4b <oldText+0x9f>
     d67: 80 04        	bra	$d6d <oldText+0xc1>
     d69: a2 03        	ldx	#$3
     d6b: 86 01        	stx	$1                      ; 0x2001 <printf+0x723>
     d6d: a6 16        	ldx	$16                     ; 0x2016 <printf+0x738>
     d6f: 86 01        	stx	$1                      ; 0x2001 <printf+0x723>
     d71: 64 3e        	stz	$3e                     ; 0x203e <printf+0x760>
     d73: 64 38        	stz	$38                     ; 0x2038 <printf+0x75a>
     d75: 9c 14 d0     	stz	$d014                   ; 0xd014 <__heap_start+0xa9e6>
     d78: 9c 15 d0     	stz	$d015                   ; 0xd015 <__heap_start+0xa9e7>
     d7b: 64 39        	stz	$39                     ; 0x2039 <printf+0x75b>
     d7d: 9c 16 d0     	stz	$d016                   ; 0xd016 <__heap_start+0xa9e8>
     d80: 9c 17 d0     	stz	$d017                   ; 0xd017 <__heap_start+0xa9e9>
     d83: a2 ca        	ldx	#$ca
     d85: 86 12        	stx	$12                     ; 0x2012 <printf+0x734>
     d87: a2 25        	ldx	#$25
     d89: 86 13        	stx	$13                     ; 0x2013 <printf+0x735>
     d8b: 20 83 13     	jsr	$1383 <textPrint>
     d8e: 64 30        	stz	$30                     ; 0x2030 <printf+0x752>
     d90: 64 38        	stz	$38                     ; 0x2038 <printf+0x75a>
     d92: 9c 14 d0     	stz	$d014                   ; 0xd014 <__heap_start+0xa9e6>
     d95: 9c 15 d0     	stz	$d015                   ; 0xd015 <__heap_start+0xa9e7>
     d98: a0 01        	ldy	#$1
     d9a: 84 39        	sty	$39                     ; 0x2039 <printf+0x75b>
     d9c: 8c 16 d0     	sty	$d016                   ; 0xd016 <__heap_start+0xa9e8>
     d9f: 9c 17 d0     	stz	$d017                   ; 0xd017 <__heap_start+0xa9e9>
     da2: a9 00        	lda	#$0
     da4: 92 10        	sta	($10)                   ; 0x2010 <printf+0x732>
     da6: 91 10        	sta	($10),y                 ; 0x2010 <printf+0x732>
     da8: 20 de 18     	jsr	$18de <printf>
     dab: a2 10        	ldx	#$10
     dad: 86 30        	stx	$30                     ; 0x2030 <printf+0x752>
     daf: a2 05        	ldx	#$5
     db1: 86 38        	stx	$38                     ; 0x2038 <printf+0x75a>
     db3: 8e 14 d0     	stx	$d014                   ; 0xd014 <__heap_start+0xa9e6>
     db6: 9c 15 d0     	stz	$d015                   ; 0xd015 <__heap_start+0xa9e7>
     db9: a0 01        	ldy	#$1
     dbb: 84 39        	sty	$39                     ; 0x2039 <printf+0x75b>
     dbd: 8c 16 d0     	sty	$d016                   ; 0xd016 <__heap_start+0xa9e8>
     dc0: 9c 17 d0     	stz	$d017                   ; 0xd017 <__heap_start+0xa9e9>
     dc3: 98           	tya
     dc4: 92 10        	sta	($10)                   ; 0x2010 <printf+0x732>
     dc6: a9 00        	lda	#$0
     dc8: 91 10        	sta	($10),y                 ; 0x2010 <printf+0x732>
     dca: 20 de 18     	jsr	$18de <printf>
     dcd: a2 20        	ldx	#$20
     dcf: 86 30        	stx	$30                     ; 0x2030 <printf+0x752>
     dd1: a2 0a        	ldx	#$a
     dd3: 86 38        	stx	$38                     ; 0x2038 <printf+0x75a>
     dd5: 8e 14 d0     	stx	$d014                   ; 0xd014 <__heap_start+0xa9e6>
     dd8: 9c 15 d0     	stz	$d015                   ; 0xd015 <__heap_start+0xa9e7>
     ddb: a2 01        	ldx	#$1
     ddd: 86 39        	stx	$39                     ; 0x2039 <printf+0x75b>
     ddf: 8e 16 d0     	stx	$d016                   ; 0xd016 <__heap_start+0xa9e8>
     de2: a0 01        	ldy	#$1
     de4: 9c 17 d0     	stz	$d017                   ; 0xd017 <__heap_start+0xa9e9>
     de7: a9 02        	lda	#$2
     de9: 92 10        	sta	($10)                   ; 0x2010 <printf+0x732>
     deb: a9 00        	lda	#$0
     ded: 91 10        	sta	($10),y                 ; 0x2010 <printf+0x732>
     def: 20 de 18     	jsr	$18de <printf>
     df2: a2 30        	ldx	#$30
     df4: 86 30        	stx	$30                     ; 0x2030 <printf+0x752>
     df6: a2 0f        	ldx	#$f
     df8: 86 38        	stx	$38                     ; 0x2038 <printf+0x75a>
     dfa: 8e 14 d0     	stx	$d014                   ; 0xd014 <__heap_start+0xa9e6>
     dfd: 9c 15 d0     	stz	$d015                   ; 0xd015 <__heap_start+0xa9e7>
     e00: a0 01        	ldy	#$1
     e02: 84 39        	sty	$39                     ; 0x2039 <printf+0x75b>
     e04: 8c 16 d0     	sty	$d016                   ; 0xd016 <__heap_start+0xa9e8>
     e07: 9c 17 d0     	stz	$d017                   ; 0xd017 <__heap_start+0xa9e9>
     e0a: a9 03        	lda	#$3
     e0c: 92 10        	sta	($10)                   ; 0x2010 <printf+0x732>
     e0e: a9 00        	lda	#$0
     e10: 91 10        	sta	($10),y                 ; 0x2010 <printf+0x732>
     e12: 20 de 18     	jsr	$18de <printf>
     e15: a2 40        	ldx	#$40
     e17: 86 30        	stx	$30                     ; 0x2030 <printf+0x752>
     e19: a2 14        	ldx	#$14
     e1b: 86 38        	stx	$38                     ; 0x2038 <printf+0x75a>
     e1d: 8e 14 d0     	stx	$d014                   ; 0xd014 <__heap_start+0xa9e6>
     e20: 9c 15 d0     	stz	$d015                   ; 0xd015 <__heap_start+0xa9e7>
     e23: a2 01        	ldx	#$1
     e25: 86 39        	stx	$39                     ; 0x2039 <printf+0x75b>
     e27: 8e 16 d0     	stx	$d016                   ; 0xd016 <__heap_start+0xa9e8>
     e2a: a0 01        	ldy	#$1
     e2c: 9c 17 d0     	stz	$d017                   ; 0xd017 <__heap_start+0xa9e9>
     e2f: a9 04        	lda	#$4
     e31: 92 10        	sta	($10)                   ; 0x2010 <printf+0x732>
     e33: a9 00        	lda	#$0
     e35: 91 10        	sta	($10),y                 ; 0x2010 <printf+0x732>
     e37: 20 de 18     	jsr	$18de <printf>
     e3a: a2 50        	ldx	#$50
     e3c: 86 30        	stx	$30                     ; 0x2030 <printf+0x752>
     e3e: a2 19        	ldx	#$19
     e40: 86 38        	stx	$38                     ; 0x2038 <printf+0x75a>
     e42: 8e 14 d0     	stx	$d014                   ; 0xd014 <__heap_start+0xa9e6>
     e45: 9c 15 d0     	stz	$d015                   ; 0xd015 <__heap_start+0xa9e7>
     e48: a0 01        	ldy	#$1
     e4a: 84 39        	sty	$39                     ; 0x2039 <printf+0x75b>
     e4c: 8c 16 d0     	sty	$d016                   ; 0xd016 <__heap_start+0xa9e8>
     e4f: 9c 17 d0     	stz	$d017                   ; 0xd017 <__heap_start+0xa9e9>
     e52: a9 05        	lda	#$5
     e54: 92 10        	sta	($10)                   ; 0x2010 <printf+0x732>
     e56: a9 00        	lda	#$0
     e58: 91 10        	sta	($10),y                 ; 0x2010 <printf+0x732>
     e5a: 20 de 18     	jsr	$18de <printf>
     e5d: a2 60        	ldx	#$60
     e5f: 86 30        	stx	$30                     ; 0x2030 <printf+0x752>
     e61: a2 1e        	ldx	#$1e
     e63: 86 38        	stx	$38                     ; 0x2038 <printf+0x75a>
     e65: 8e 14 d0     	stx	$d014                   ; 0xd014 <__heap_start+0xa9e6>
     e68: 9c 15 d0     	stz	$d015                   ; 0xd015 <__heap_start+0xa9e7>
     e6b: a0 01        	ldy	#$1
     e6d: 84 39        	sty	$39                     ; 0x2039 <printf+0x75b>
     e6f: 8c 16 d0     	sty	$d016                   ; 0xd016 <__heap_start+0xa9e8>
     e72: 9c 17 d0     	stz	$d017                   ; 0xd017 <__heap_start+0xa9e9>
     e75: a9 06        	lda	#$6
     e77: 92 10        	sta	($10)                   ; 0x2010 <printf+0x732>
     e79: a9 00        	lda	#$0
     e7b: 91 10        	sta	($10),y                 ; 0x2010 <printf+0x732>
     e7d: 20 de 18     	jsr	$18de <printf>
     e80: a2 70        	ldx	#$70
     e82: 86 30        	stx	$30                     ; 0x2030 <printf+0x752>
     e84: a2 23        	ldx	#$23
     e86: 86 38        	stx	$38                     ; 0x2038 <printf+0x75a>
     e88: 8e 14 d0     	stx	$d014                   ; 0xd014 <__heap_start+0xa9e6>
     e8b: 9c 15 d0     	stz	$d015                   ; 0xd015 <__heap_start+0xa9e7>
     e8e: a2 01        	ldx	#$1
     e90: 86 39        	stx	$39                     ; 0x2039 <printf+0x75b>
     e92: 8e 16 d0     	stx	$d016                   ; 0xd016 <__heap_start+0xa9e8>
     e95: a0 01        	ldy	#$1
     e97: 9c 17 d0     	stz	$d017                   ; 0xd017 <__heap_start+0xa9e9>
     e9a: a9 07        	lda	#$7
     e9c: 92 10        	sta	($10)                   ; 0x2010 <printf+0x732>
     e9e: a9 00        	lda	#$0
     ea0: 91 10        	sta	($10),y                 ; 0x2010 <printf+0x732>
     ea2: 20 de 18     	jsr	$18de <printf>
     ea5: a2 80        	ldx	#$80
     ea7: 86 30        	stx	$30                     ; 0x2030 <printf+0x752>
     ea9: a2 28        	ldx	#$28
     eab: 86 38        	stx	$38                     ; 0x2038 <printf+0x75a>
     ead: 8e 14 d0     	stx	$d014                   ; 0xd014 <__heap_start+0xa9e6>
     eb0: 9c 15 d0     	stz	$d015                   ; 0xd015 <__heap_start+0xa9e7>
     eb3: a0 01        	ldy	#$1
     eb5: 84 39        	sty	$39                     ; 0x2039 <printf+0x75b>
     eb7: 8c 16 d0     	sty	$d016                   ; 0xd016 <__heap_start+0xa9e8>
     eba: 9c 17 d0     	stz	$d017                   ; 0xd017 <__heap_start+0xa9e9>
     ebd: a9 08        	lda	#$8
     ebf: 92 10        	sta	($10)                   ; 0x2010 <printf+0x732>
     ec1: a9 00        	lda	#$0
     ec3: 91 10        	sta	($10),y                 ; 0x2010 <printf+0x732>
     ec5: 20 de 18     	jsr	$18de <printf>
     ec8: a2 90        	ldx	#$90
     eca: 86 30        	stx	$30                     ; 0x2030 <printf+0x752>
     ecc: a2 2d        	ldx	#$2d
     ece: 86 38        	stx	$38                     ; 0x2038 <printf+0x75a>
     ed0: 8e 14 d0     	stx	$d014                   ; 0xd014 <__heap_start+0xa9e6>
     ed3: 9c 15 d0     	stz	$d015                   ; 0xd015 <__heap_start+0xa9e7>
     ed6: a2 01        	ldx	#$1
     ed8: 86 39        	stx	$39                     ; 0x2039 <printf+0x75b>
     eda: 8e 16 d0     	stx	$d016                   ; 0xd016 <__heap_start+0xa9e8>
     edd: a0 01        	ldy	#$1
     edf: 9c 17 d0     	stz	$d017                   ; 0xd017 <__heap_start+0xa9e9>
     ee2: a9 09        	lda	#$9
     ee4: 92 10        	sta	($10)                   ; 0x2010 <printf+0x732>
     ee6: a9 00        	lda	#$0
     ee8: 91 10        	sta	($10),y                 ; 0x2010 <printf+0x732>
     eea: 20 de 18     	jsr	$18de <printf>
     eed: a2 a0        	ldx	#$a0
     eef: 86 30        	stx	$30                     ; 0x2030 <printf+0x752>
     ef1: a2 32        	ldx	#$32
     ef3: 86 38        	stx	$38                     ; 0x2038 <printf+0x75a>
     ef5: 8e 14 d0     	stx	$d014                   ; 0xd014 <__heap_start+0xa9e6>
     ef8: 9c 15 d0     	stz	$d015                   ; 0xd015 <__heap_start+0xa9e7>
     efb: a0 01        	ldy	#$1
     efd: 84 39        	sty	$39                     ; 0x2039 <printf+0x75b>
     eff: 8c 16 d0     	sty	$d016                   ; 0xd016 <__heap_start+0xa9e8>
     f02: 9c 17 d0     	stz	$d017                   ; 0xd017 <__heap_start+0xa9e9>
     f05: a9 0a        	lda	#$a
     f07: 92 10        	sta	($10)                   ; 0x2010 <printf+0x732>
     f09: a9 00        	lda	#$0
     f0b: 91 10        	sta	($10),y                 ; 0x2010 <printf+0x732>
     f0d: 20 de 18     	jsr	$18de <printf>
     f10: a2 b0        	ldx	#$b0
     f12: 86 30        	stx	$30                     ; 0x2030 <printf+0x752>
     f14: a2 37        	ldx	#$37
     f16: 86 38        	stx	$38                     ; 0x2038 <printf+0x75a>
     f18: 8e 14 d0     	stx	$d014                   ; 0xd014 <__heap_start+0xa9e6>
     f1b: 9c 15 d0     	stz	$d015                   ; 0xd015 <__heap_start+0xa9e7>
     f1e: a2 01        	ldx	#$1
     f20: 86 39        	stx	$39                     ; 0x2039 <printf+0x75b>
     f22: 8e 16 d0     	stx	$d016                   ; 0xd016 <__heap_start+0xa9e8>
     f25: a0 01        	ldy	#$1
     f27: 9c 17 d0     	stz	$d017                   ; 0xd017 <__heap_start+0xa9e9>
     f2a: a9 0b        	lda	#$b
     f2c: 92 10        	sta	($10)                   ; 0x2010 <printf+0x732>
     f2e: a9 00        	lda	#$0
     f30: 91 10        	sta	($10),y                 ; 0x2010 <printf+0x732>
     f32: 20 de 18     	jsr	$18de <printf>
     f35: a2 c0        	ldx	#$c0
     f37: 86 30        	stx	$30                     ; 0x2030 <printf+0x752>
     f39: a2 3c        	ldx	#$3c
     f3b: 86 38        	stx	$38                     ; 0x2038 <printf+0x75a>
     f3d: 8e 14 d0     	stx	$d014                   ; 0xd014 <__heap_start+0xa9e6>
     f40: 9c 15 d0     	stz	$d015                   ; 0xd015 <__heap_start+0xa9e7>
     f43: a0 01        	ldy	#$1
     f45: 84 39        	sty	$39                     ; 0x2039 <printf+0x75b>
     f47: 8c 16 d0     	sty	$d016                   ; 0xd016 <__heap_start+0xa9e8>
     f4a: 9c 17 d0     	stz	$d017                   ; 0xd017 <__heap_start+0xa9e9>
     f4d: a9 0c        	lda	#$c
     f4f: 92 10        	sta	($10)                   ; 0x2010 <printf+0x732>
     f51: a9 00        	lda	#$0
     f53: 91 10        	sta	($10),y                 ; 0x2010 <printf+0x732>
     f55: 20 de 18     	jsr	$18de <printf>
     f58: a2 d0        	ldx	#$d0
     f5a: 86 30        	stx	$30                     ; 0x2030 <printf+0x752>
     f5c: a2 41        	ldx	#$41
     f5e: 86 38        	stx	$38                     ; 0x2038 <printf+0x75a>
     f60: 8e 14 d0     	stx	$d014                   ; 0xd014 <__heap_start+0xa9e6>
     f63: 9c 15 d0     	stz	$d015                   ; 0xd015 <__heap_start+0xa9e7>
     f66: a2 01        	ldx	#$1
     f68: 86 39        	stx	$39                     ; 0x2039 <printf+0x75b>
     f6a: 8e 16 d0     	stx	$d016                   ; 0xd016 <__heap_start+0xa9e8>
     f6d: a0 01        	ldy	#$1
     f6f: 9c 17 d0     	stz	$d017                   ; 0xd017 <__heap_start+0xa9e9>
     f72: a9 0d        	lda	#$d
     f74: 92 10        	sta	($10)                   ; 0x2010 <printf+0x732>
     f76: a9 00        	lda	#$0
     f78: 91 10        	sta	($10),y                 ; 0x2010 <printf+0x732>
     f7a: 20 de 18     	jsr	$18de <printf>
     f7d: a2 e0        	ldx	#$e0
     f7f: 86 30        	stx	$30                     ; 0x2030 <printf+0x752>
     f81: a2 46        	ldx	#$46
     f83: 86 38        	stx	$38                     ; 0x2038 <printf+0x75a>
     f85: 8e 14 d0     	stx	$d014                   ; 0xd014 <__heap_start+0xa9e6>
     f88: 9c 15 d0     	stz	$d015                   ; 0xd015 <__heap_start+0xa9e7>
     f8b: a0 01        	ldy	#$1
     f8d: 84 39        	sty	$39                     ; 0x2039 <printf+0x75b>
     f8f: 8c 16 d0     	sty	$d016                   ; 0xd016 <__heap_start+0xa9e8>
     f92: 9c 17 d0     	stz	$d017                   ; 0xd017 <__heap_start+0xa9e9>
     f95: a9 0e        	lda	#$e
     f97: 92 10        	sta	($10)                   ; 0x2010 <printf+0x732>
     f99: a9 00        	lda	#$0
     f9b: 91 10        	sta	($10),y                 ; 0x2010 <printf+0x732>
     f9d: 20 de 18     	jsr	$18de <printf>
     fa0: a2 f0        	ldx	#$f0
     fa2: 86 30        	stx	$30                     ; 0x2030 <printf+0x752>
     fa4: a2 4b        	ldx	#$4b
     fa6: 86 38        	stx	$38                     ; 0x2038 <printf+0x75a>
     fa8: 8e 14 d0     	stx	$d014                   ; 0xd014 <__heap_start+0xa9e6>
     fab: 9c 15 d0     	stz	$d015                   ; 0xd015 <__heap_start+0xa9e7>
     fae: a2 01        	ldx	#$1
     fb0: 86 39        	stx	$39                     ; 0x2039 <printf+0x75b>
     fb2: 8e 16 d0     	stx	$d016                   ; 0xd016 <__heap_start+0xa9e8>
     fb5: a0 01        	ldy	#$1
     fb7: 9c 17 d0     	stz	$d017                   ; 0xd017 <__heap_start+0xa9e9>
     fba: a9 0f        	lda	#$f
     fbc: 92 10        	sta	($10)                   ; 0x2010 <printf+0x732>
     fbe: a9 00        	lda	#$0
     fc0: 91 10        	sta	($10),y                 ; 0x2010 <printf+0x732>
     fc2: 20 de 18     	jsr	$18de <printf>
     fc5: 80 0c        	bra	$fd3 <oldText+0x327>
     fc7: a6 3e        	ldx	$3e                     ; 0x203e <printf+0x760>
     fc9: e8           	inx
     fca: 86 3e        	stx	$3e                     ; 0x203e <printf+0x760>
     fcc: e0 10        	cpx	#$10
     fce: d0 03        	bne	$fd3 <oldText+0x327>
     fd0: 4c 75 13     	jmp	$1375 <oldText+0x6c9>
     fd3: a5 3e        	lda	$3e                     ; 0x203e <printf+0x760>
     fd5: 0a           	asl
     fd6: 0a           	asl
     fd7: aa           	tax
     fd8: 0a           	asl
     fd9: 0a           	asl
     fda: 85 12        	sta	$12                     ; 0x2012 <printf+0x734>
     fdc: 18           	clc
     fdd: 8a           	txa
     fde: 65 3e        	adc	$3e                     ; 0x203e <printf+0x760>
     fe0: 85 1a        	sta	$1a                     ; 0x201a <printf+0x73c>
     fe2: a2 00        	ldx	#$0
     fe4: 80 1d        	bra	$1003 <oldText+0x357>
     fe6: a6 1c        	ldx	$1c                     ; 0x201c <printf+0x73e>
     fe8: 86 01        	stx	$1                      ; 0x2001 <printf+0x723>
     fea: a6 38        	ldx	$38                     ; 0x2038 <printf+0x75a>
     fec: a4 39        	ldy	$39                     ; 0x2039 <printf+0x75b>
     fee: 8e 14 d0     	stx	$d014                   ; 0xd014 <__heap_start+0xa9e6>
     ff1: 9c 15 d0     	stz	$d015                   ; 0xd015 <__heap_start+0xa9e7>
     ff4: 84 39        	sty	$39                     ; 0x2039 <printf+0x75b>
     ff6: 8c 16 d0     	sty	$d016                   ; 0xd016 <__heap_start+0xa9e8>
     ff9: 9c 17 d0     	stz	$d017                   ; 0xd017 <__heap_start+0xa9e9>
     ffc: a6 1b        	ldx	$1b                     ; 0x201b <printf+0x73d>
     ffe: e8           	inx
     fff: e0 10        	cpx	#$10
    1001: f0 c4        	beq	$fc7 <oldText+0x31b>
    1003: 8a           	txa
    1004: 18           	clc
    1005: 65 12        	adc	$12                     ; 0x2012 <printf+0x734>
    1007: 85 30        	sta	$30                     ; 0x2030 <printf+0x752>
    1009: 86 1b        	stx	$1b                     ; 0x201b <printf+0x73d>
    100b: 8a           	txa
    100c: 18           	clc
    100d: 69 02        	adc	#$2
    100f: a6 1a        	ldx	$1a                     ; 0x201a <printf+0x73c>
    1011: 86 38        	stx	$38                     ; 0x2038 <printf+0x75a>
    1013: 8e 14 d0     	stx	$d014                   ; 0xd014 <__heap_start+0xa9e6>
    1016: 9c 15 d0     	stz	$d015                   ; 0xd015 <__heap_start+0xa9e7>
    1019: 85 39        	sta	$39                     ; 0x2039 <printf+0x75b>
    101b: 8d 16 d0     	sta	$d016                   ; 0xd016 <__heap_start+0xa9e8>
    101e: 9c 17 d0     	stz	$d017                   ; 0xd017 <__heap_start+0xa9e9>
    1021: a6 01        	ldx	$1                      ; 0x2001 <printf+0x723>
    1023: 86 1c        	stx	$1c                     ; 0x201c <printf+0x73e>
    1025: a6 39        	ldx	$39                     ; 0x2039 <printf+0x75b>
    1027: a0 50        	ldy	#$50
    1029: 8c 00 de     	sty	$de00                   ; 0xde00 <__heap_start+0xb7d2>
    102c: 9c 01 de     	stz	$de01                   ; 0xde01 <__heap_start+0xb7d3>
    102f: 8e 02 de     	stx	$de02                   ; 0xde02 <__heap_start+0xb7d4>
    1032: 9c 03 de     	stz	$de03                   ; 0xde03 <__heap_start+0xb7d5>
    1035: ae 10 de     	ldx	$de10                   ; 0xde10 <__heap_start+0xb7e2>
    1038: ac 11 de     	ldy	$de11                   ; 0xde11 <__heap_start+0xb7e3>
    103b: ad 12 de     	lda	$de12                   ; 0xde12 <__heap_start+0xb7e4>
    103e: 85 14        	sta	$14                     ; 0x2014 <printf+0x736>
    1040: ad 13 de     	lda	$de13                   ; 0xde13 <__heap_start+0xb7e5>
    1043: 85 15        	sta	$15                     ; 0x2015 <printf+0x737>
    1045: 9c 08 de     	stz	$de08                   ; 0xde08 <__heap_start+0xb7da>
    1048: a9 c0        	lda	#$c0
    104a: 8d 09 de     	sta	$de09                   ; 0xde09 <__heap_start+0xb7db>
    104d: 9c 0a de     	stz	$de0a                   ; 0xde0a <__heap_start+0xb7dc>
    1050: 9c 0b de     	stz	$de0b                   ; 0xde0b <__heap_start+0xb7dd>
    1053: 8e 0c de     	stx	$de0c                   ; 0xde0c <__heap_start+0xb7de>
    1056: 8c 0d de     	sty	$de0d                   ; 0xde0d <__heap_start+0xb7df>
    1059: 64 13        	stz	$13                     ; 0x2013 <printf+0x735>
    105b: a6 14        	ldx	$14                     ; 0x2014 <printf+0x736>
    105d: 8e 0e de     	stx	$de0e                   ; 0xde0e <__heap_start+0xb7e0>
    1060: a6 15        	ldx	$15                     ; 0x2015 <printf+0x737>
    1062: 8e 0f de     	stx	$de0f                   ; 0xde0f <__heap_start+0xb7e1>
    1065: ae 18 de     	ldx	$de18                   ; 0xde18 <__heap_start+0xb7ea>
    1068: ac 19 de     	ldy	$de19                   ; 0xde19 <__heap_start+0xb7eb>
    106b: 86 16        	stx	$16                     ; 0x2016 <printf+0x738>
    106d: ae 1a de     	ldx	$de1a                   ; 0xde1a <__heap_start+0xb7ec>
    1070: 84 17        	sty	$17                     ; 0x2017 <printf+0x739>
    1072: ae 1b de     	ldx	$de1b                   ; 0xde1b <__heap_start+0xb7ed>
    1075: 64 14        	stz	$14                     ; 0x2014 <printf+0x736>
    1077: 4c 11 13     	jmp	$1311 <oldText+0x665>
    107a: a5 15        	lda	$15                     ; 0x2015 <printf+0x737>
    107c: f0 1c        	beq	$109a <oldText+0x3ee>
    107e: b1 16        	lda	($16),y                 ; 0x2016 <printf+0x738>
    1080: 92 16        	sta	($16)                   ; 0x2016 <printf+0x738>
    1082: a2 ff        	ldx	#$ff
    1084: c6 18        	dec	$18                     ; 0x2018 <printf+0x73a>
    1086: e4 18        	cpx	$18                     ; 0x2018 <printf+0x73a>
    1088: f0 06        	beq	$1090 <oldText+0x3e4>
    108a: e6 16        	inc	$16                     ; 0x2016 <printf+0x738>
    108c: d0 ec        	bne	$107a <oldText+0x3ce>
    108e: 80 06        	bra	$1096 <oldText+0x3ea>
    1090: c6 15        	dec	$15                     ; 0x2015 <printf+0x737>
    1092: e6 16        	inc	$16                     ; 0x2016 <printf+0x738>
    1094: d0 e4        	bne	$107a <oldText+0x3ce>
    1096: e6 17        	inc	$17                     ; 0x2017 <printf+0x739>
    1098: 80 e0        	bra	$107a <oldText+0x3ce>
    109a: a5 18        	lda	$18                     ; 0x2018 <printf+0x73a>
    109c: d0 e0        	bne	$107e <oldText+0x3d2>
    109e: a2 02        	ldx	#$2
    10a0: 86 01        	stx	$1                      ; 0x2001 <printf+0x723>
    10a2: a2 09        	ldx	#$9
    10a4: a9 10        	lda	#$10
    10a6: 5a           	phy
    10a7: a0 00        	ldy	#$0
    10a9: 84 16        	sty	$16                     ; 0x2016 <printf+0x738>
    10ab: a0 c0        	ldy	#$c0
    10ad: 84 17        	sty	$17                     ; 0x2017 <printf+0x739>
    10af: 7a           	ply
    10b0: 85 18        	sta	$18                     ; 0x2018 <printf+0x73a>
    10b2: 86 15        	stx	$15                     ; 0x2015 <printf+0x737>
    10b4: 80 04        	bra	$10ba <oldText+0x40e>
    10b6: a5 15        	lda	$15                     ; 0x2015 <printf+0x737>
    10b8: f0 1c        	beq	$10d6 <oldText+0x42a>
    10ba: b1 16        	lda	($16),y                 ; 0x2016 <printf+0x738>
    10bc: 92 16        	sta	($16)                   ; 0x2016 <printf+0x738>
    10be: a2 ff        	ldx	#$ff
    10c0: c6 18        	dec	$18                     ; 0x2018 <printf+0x73a>
    10c2: e4 18        	cpx	$18                     ; 0x2018 <printf+0x73a>
    10c4: f0 06        	beq	$10cc <oldText+0x420>
    10c6: e6 16        	inc	$16                     ; 0x2016 <printf+0x738>
    10c8: d0 ec        	bne	$10b6 <oldText+0x40a>
    10ca: 80 06        	bra	$10d2 <oldText+0x426>
    10cc: c6 15        	dec	$15                     ; 0x2015 <printf+0x737>
    10ce: e6 16        	inc	$16                     ; 0x2016 <printf+0x738>
    10d0: d0 e4        	bne	$10b6 <oldText+0x40a>
    10d2: e6 17        	inc	$17                     ; 0x2017 <printf+0x739>
    10d4: 80 e0        	bra	$10b6 <oldText+0x40a>
    10d6: a5 18        	lda	$18                     ; 0x2018 <printf+0x73a>
    10d8: d0 e0        	bne	$10ba <oldText+0x40e>
    10da: a2 02        	ldx	#$2
    10dc: 86 01        	stx	$1                      ; 0x2001 <printf+0x723>
    10de: a0 03        	ldy	#$3
    10e0: 84 01        	sty	$1                      ; 0x2001 <printf+0x723>
    10e2: a5 30        	lda	$30                     ; 0x2030 <printf+0x752>
    10e4: 8d 10 c9     	sta	$c910                   ; 0xc910 <__heap_start+0xa2e2>
    10e7: 8d 11 c9     	sta	$c911                   ; 0xc911 <__heap_start+0xa2e3>
    10ea: 8d 12 c9     	sta	$c912                   ; 0xc912 <__heap_start+0xa2e4>
    10ed: 8d 13 c9     	sta	$c913                   ; 0xc913 <__heap_start+0xa2e5>
    10f0: 8d 14 c9     	sta	$c914                   ; 0xc914 <__heap_start+0xa2e6>
    10f3: 8d 15 c9     	sta	$c915                   ; 0xc915 <__heap_start+0xa2e7>
    10f6: 8d 16 c9     	sta	$c916                   ; 0xc916 <__heap_start+0xa2e8>
    10f9: 8d 17 c9     	sta	$c917                   ; 0xc917 <__heap_start+0xa2e9>
    10fc: 8d 18 c9     	sta	$c918                   ; 0xc918 <__heap_start+0xa2ea>
    10ff: 8d 19 c9     	sta	$c919                   ; 0xc919 <__heap_start+0xa2eb>
    1102: 8d 1a c9     	sta	$c91a                   ; 0xc91a <__heap_start+0xa2ec>
    1105: 8d 1b c9     	sta	$c91b                   ; 0xc91b <__heap_start+0xa2ed>
    1108: 8d 1c c9     	sta	$c91c                   ; 0xc91c <__heap_start+0xa2ee>
    110b: 8d 1d c9     	sta	$c91d                   ; 0xc91d <__heap_start+0xa2ef>
    110e: 8d 1e c9     	sta	$c91e                   ; 0xc91e <__heap_start+0xa2f0>
    1111: 8d 1f c9     	sta	$c91f                   ; 0xc91f <__heap_start+0xa2f1>
    1114: 8d 20 c9     	sta	$c920                   ; 0xc920 <__heap_start+0xa2f2>
    1117: 8d 21 c9     	sta	$c921                   ; 0xc921 <__heap_start+0xa2f3>
    111a: 8d 22 c9     	sta	$c922                   ; 0xc922 <__heap_start+0xa2f4>
    111d: 8d 23 c9     	sta	$c923                   ; 0xc923 <__heap_start+0xa2f5>
    1120: 8d 24 c9     	sta	$c924                   ; 0xc924 <__heap_start+0xa2f6>
    1123: 8d 25 c9     	sta	$c925                   ; 0xc925 <__heap_start+0xa2f7>
    1126: 8d 26 c9     	sta	$c926                   ; 0xc926 <__heap_start+0xa2f8>
    1129: 8d 27 c9     	sta	$c927                   ; 0xc927 <__heap_start+0xa2f9>
    112c: 8d 28 c9     	sta	$c928                   ; 0xc928 <__heap_start+0xa2fa>
    112f: 8d 29 c9     	sta	$c929                   ; 0xc929 <__heap_start+0xa2fb>
    1132: 8d 2a c9     	sta	$c92a                   ; 0xc92a <__heap_start+0xa2fc>
    1135: 8d 2b c9     	sta	$c92b                   ; 0xc92b <__heap_start+0xa2fd>
    1138: 8d 2c c9     	sta	$c92c                   ; 0xc92c <__heap_start+0xa2fe>
    113b: 8d 2d c9     	sta	$c92d                   ; 0xc92d <__heap_start+0xa2ff>
    113e: 8d 2e c9     	sta	$c92e                   ; 0xc92e <__heap_start+0xa300>
    1141: 8d 2f c9     	sta	$c92f                   ; 0xc92f <__heap_start+0xa301>
    1144: 8d 30 c9     	sta	$c930                   ; 0xc930 <__heap_start+0xa302>
    1147: 8d 31 c9     	sta	$c931                   ; 0xc931 <__heap_start+0xa303>
    114a: 8d 32 c9     	sta	$c932                   ; 0xc932 <__heap_start+0xa304>
    114d: 8d 33 c9     	sta	$c933                   ; 0xc933 <__heap_start+0xa305>
    1150: 8d 34 c9     	sta	$c934                   ; 0xc934 <__heap_start+0xa306>
    1153: 8d 35 c9     	sta	$c935                   ; 0xc935 <__heap_start+0xa307>
    1156: 8d 36 c9     	sta	$c936                   ; 0xc936 <__heap_start+0xa308>
    1159: 8d 37 c9     	sta	$c937                   ; 0xc937 <__heap_start+0xa309>
    115c: 8d 38 c9     	sta	$c938                   ; 0xc938 <__heap_start+0xa30a>
    115f: 8d 39 c9     	sta	$c939                   ; 0xc939 <__heap_start+0xa30b>
    1162: 8d 3a c9     	sta	$c93a                   ; 0xc93a <__heap_start+0xa30c>
    1165: 8d 3b c9     	sta	$c93b                   ; 0xc93b <__heap_start+0xa30d>
    1168: 8d 3c c9     	sta	$c93c                   ; 0xc93c <__heap_start+0xa30e>
    116b: 8d 3d c9     	sta	$c93d                   ; 0xc93d <__heap_start+0xa30f>
    116e: 8d 3e c9     	sta	$c93e                   ; 0xc93e <__heap_start+0xa310>
    1171: 8d 3f c9     	sta	$c93f                   ; 0xc93f <__heap_start+0xa311>
    1174: 8d 40 c9     	sta	$c940                   ; 0xc940 <__heap_start+0xa312>
    1177: 8d 41 c9     	sta	$c941                   ; 0xc941 <__heap_start+0xa313>
    117a: 8d 42 c9     	sta	$c942                   ; 0xc942 <__heap_start+0xa314>
    117d: 8d 43 c9     	sta	$c943                   ; 0xc943 <__heap_start+0xa315>
    1180: 8d 44 c9     	sta	$c944                   ; 0xc944 <__heap_start+0xa316>
    1183: 8d 45 c9     	sta	$c945                   ; 0xc945 <__heap_start+0xa317>
    1186: 8d 46 c9     	sta	$c946                   ; 0xc946 <__heap_start+0xa318>
    1189: 8d 47 c9     	sta	$c947                   ; 0xc947 <__heap_start+0xa319>
    118c: 8d 48 c9     	sta	$c948                   ; 0xc948 <__heap_start+0xa31a>
    118f: 8d 49 c9     	sta	$c949                   ; 0xc949 <__heap_start+0xa31b>
    1192: 8d 4a c9     	sta	$c94a                   ; 0xc94a <__heap_start+0xa31c>
    1195: 8d 4b c9     	sta	$c94b                   ; 0xc94b <__heap_start+0xa31d>
    1198: 8d 4c c9     	sta	$c94c                   ; 0xc94c <__heap_start+0xa31e>
    119b: 8d 4d c9     	sta	$c94d                   ; 0xc94d <__heap_start+0xa31f>
    119e: 8d 4e c9     	sta	$c94e                   ; 0xc94e <__heap_start+0xa320>
    11a1: 8d 4f c9     	sta	$c94f                   ; 0xc94f <__heap_start+0xa321>
    11a4: 8d 50 c9     	sta	$c950                   ; 0xc950 <__heap_start+0xa322>
    11a7: 8d 51 c9     	sta	$c951                   ; 0xc951 <__heap_start+0xa323>
    11aa: 8d 52 c9     	sta	$c952                   ; 0xc952 <__heap_start+0xa324>
    11ad: 8d 53 c9     	sta	$c953                   ; 0xc953 <__heap_start+0xa325>
    11b0: 8d 54 c9     	sta	$c954                   ; 0xc954 <__heap_start+0xa326>
    11b3: 8d 55 c9     	sta	$c955                   ; 0xc955 <__heap_start+0xa327>
    11b6: 8d 56 c9     	sta	$c956                   ; 0xc956 <__heap_start+0xa328>
    11b9: 8d 57 c9     	sta	$c957                   ; 0xc957 <__heap_start+0xa329>
    11bc: 8d 58 c9     	sta	$c958                   ; 0xc958 <__heap_start+0xa32a>
    11bf: 8d 59 c9     	sta	$c959                   ; 0xc959 <__heap_start+0xa32b>
    11c2: 8d 5a c9     	sta	$c95a                   ; 0xc95a <__heap_start+0xa32c>
    11c5: 8d 5b c9     	sta	$c95b                   ; 0xc95b <__heap_start+0xa32d>
    11c8: 8d 5c c9     	sta	$c95c                   ; 0xc95c <__heap_start+0xa32e>
    11cb: 8d 5d c9     	sta	$c95d                   ; 0xc95d <__heap_start+0xa32f>
    11ce: 8d 5e c9     	sta	$c95e                   ; 0xc95e <__heap_start+0xa330>
    11d1: 8d 5f c9     	sta	$c95f                   ; 0xc95f <__heap_start+0xa331>
    11d4: 86 01        	stx	$1                      ; 0x2001 <printf+0x723>
    11d6: a2 20        	ldx	#$20
    11d8: 8e 10 c9     	stx	$c910                   ; 0xc910 <__heap_start+0xa2e2>
    11db: 8e 11 c9     	stx	$c911                   ; 0xc911 <__heap_start+0xa2e3>
    11de: 8e 12 c9     	stx	$c912                   ; 0xc912 <__heap_start+0xa2e4>
    11e1: 8e 13 c9     	stx	$c913                   ; 0xc913 <__heap_start+0xa2e5>
    11e4: 8e 14 c9     	stx	$c914                   ; 0xc914 <__heap_start+0xa2e6>
    11e7: 8e 15 c9     	stx	$c915                   ; 0xc915 <__heap_start+0xa2e7>
    11ea: 8e 16 c9     	stx	$c916                   ; 0xc916 <__heap_start+0xa2e8>
    11ed: 8e 17 c9     	stx	$c917                   ; 0xc917 <__heap_start+0xa2e9>
    11f0: 8e 18 c9     	stx	$c918                   ; 0xc918 <__heap_start+0xa2ea>
    11f3: 8e 19 c9     	stx	$c919                   ; 0xc919 <__heap_start+0xa2eb>
    11f6: 8e 1a c9     	stx	$c91a                   ; 0xc91a <__heap_start+0xa2ec>
    11f9: 8e 1b c9     	stx	$c91b                   ; 0xc91b <__heap_start+0xa2ed>
    11fc: 8e 1c c9     	stx	$c91c                   ; 0xc91c <__heap_start+0xa2ee>
    11ff: 8e 1d c9     	stx	$c91d                   ; 0xc91d <__heap_start+0xa2ef>
    1202: 8e 1e c9     	stx	$c91e                   ; 0xc91e <__heap_start+0xa2f0>
    1205: 8e 1f c9     	stx	$c91f                   ; 0xc91f <__heap_start+0xa2f1>
    1208: 8e 20 c9     	stx	$c920                   ; 0xc920 <__heap_start+0xa2f2>
    120b: 8e 21 c9     	stx	$c921                   ; 0xc921 <__heap_start+0xa2f3>
    120e: 8e 22 c9     	stx	$c922                   ; 0xc922 <__heap_start+0xa2f4>
    1211: 8e 23 c9     	stx	$c923                   ; 0xc923 <__heap_start+0xa2f5>
    1214: 8e 24 c9     	stx	$c924                   ; 0xc924 <__heap_start+0xa2f6>
    1217: 8e 25 c9     	stx	$c925                   ; 0xc925 <__heap_start+0xa2f7>
    121a: 8e 26 c9     	stx	$c926                   ; 0xc926 <__heap_start+0xa2f8>
    121d: 8e 27 c9     	stx	$c927                   ; 0xc927 <__heap_start+0xa2f9>
    1220: 8e 28 c9     	stx	$c928                   ; 0xc928 <__heap_start+0xa2fa>
    1223: 8e 29 c9     	stx	$c929                   ; 0xc929 <__heap_start+0xa2fb>
    1226: 8e 2a c9     	stx	$c92a                   ; 0xc92a <__heap_start+0xa2fc>
    1229: 8e 2b c9     	stx	$c92b                   ; 0xc92b <__heap_start+0xa2fd>
    122c: 8e 2c c9     	stx	$c92c                   ; 0xc92c <__heap_start+0xa2fe>
    122f: 8e 2d c9     	stx	$c92d                   ; 0xc92d <__heap_start+0xa2ff>
    1232: 8e 2e c9     	stx	$c92e                   ; 0xc92e <__heap_start+0xa300>
    1235: 8e 2f c9     	stx	$c92f                   ; 0xc92f <__heap_start+0xa301>
    1238: 8e 30 c9     	stx	$c930                   ; 0xc930 <__heap_start+0xa302>
    123b: 8e 31 c9     	stx	$c931                   ; 0xc931 <__heap_start+0xa303>
    123e: 8e 32 c9     	stx	$c932                   ; 0xc932 <__heap_start+0xa304>
    1241: 8e 33 c9     	stx	$c933                   ; 0xc933 <__heap_start+0xa305>
    1244: 8e 34 c9     	stx	$c934                   ; 0xc934 <__heap_start+0xa306>
    1247: 8e 35 c9     	stx	$c935                   ; 0xc935 <__heap_start+0xa307>
    124a: 8e 36 c9     	stx	$c936                   ; 0xc936 <__heap_start+0xa308>
    124d: 8e 37 c9     	stx	$c937                   ; 0xc937 <__heap_start+0xa309>
    1250: 8e 38 c9     	stx	$c938                   ; 0xc938 <__heap_start+0xa30a>
    1253: 8e 39 c9     	stx	$c939                   ; 0xc939 <__heap_start+0xa30b>
    1256: 8e 3a c9     	stx	$c93a                   ; 0xc93a <__heap_start+0xa30c>
    1259: 8e 3b c9     	stx	$c93b                   ; 0xc93b <__heap_start+0xa30d>
    125c: 8e 3c c9     	stx	$c93c                   ; 0xc93c <__heap_start+0xa30e>
    125f: 8e 3d c9     	stx	$c93d                   ; 0xc93d <__heap_start+0xa30f>
    1262: 8e 3e c9     	stx	$c93e                   ; 0xc93e <__heap_start+0xa310>
    1265: 8e 3f c9     	stx	$c93f                   ; 0xc93f <__heap_start+0xa311>
    1268: 8e 40 c9     	stx	$c940                   ; 0xc940 <__heap_start+0xa312>
    126b: 8e 41 c9     	stx	$c941                   ; 0xc941 <__heap_start+0xa313>
    126e: 8e 42 c9     	stx	$c942                   ; 0xc942 <__heap_start+0xa314>
    1271: 8e 43 c9     	stx	$c943                   ; 0xc943 <__heap_start+0xa315>
    1274: 8e 44 c9     	stx	$c944                   ; 0xc944 <__heap_start+0xa316>
    1277: 8e 45 c9     	stx	$c945                   ; 0xc945 <__heap_start+0xa317>
    127a: 8e 46 c9     	stx	$c946                   ; 0xc946 <__heap_start+0xa318>
    127d: 8e 47 c9     	stx	$c947                   ; 0xc947 <__heap_start+0xa319>
    1280: 8e 48 c9     	stx	$c948                   ; 0xc948 <__heap_start+0xa31a>
    1283: 8e 49 c9     	stx	$c949                   ; 0xc949 <__heap_start+0xa31b>
    1286: 8e 4a c9     	stx	$c94a                   ; 0xc94a <__heap_start+0xa31c>
    1289: 8e 4b c9     	stx	$c94b                   ; 0xc94b <__heap_start+0xa31d>
    128c: 8e 4c c9     	stx	$c94c                   ; 0xc94c <__heap_start+0xa31e>
    128f: 8e 4d c9     	stx	$c94d                   ; 0xc94d <__heap_start+0xa31f>
    1292: 8e 4e c9     	stx	$c94e                   ; 0xc94e <__heap_start+0xa320>
    1295: 8e 4f c9     	stx	$c94f                   ; 0xc94f <__heap_start+0xa321>
    1298: 8e 50 c9     	stx	$c950                   ; 0xc950 <__heap_start+0xa322>
    129b: 8e 51 c9     	stx	$c951                   ; 0xc951 <__heap_start+0xa323>
    129e: 8e 52 c9     	stx	$c952                   ; 0xc952 <__heap_start+0xa324>
    12a1: 8e 53 c9     	stx	$c953                   ; 0xc953 <__heap_start+0xa325>
    12a4: 8e 54 c9     	stx	$c954                   ; 0xc954 <__heap_start+0xa326>
    12a7: 8e 55 c9     	stx	$c955                   ; 0xc955 <__heap_start+0xa327>
    12aa: 8e 56 c9     	stx	$c956                   ; 0xc956 <__heap_start+0xa328>
    12ad: 8e 57 c9     	stx	$c957                   ; 0xc957 <__heap_start+0xa329>
    12b0: 8e 58 c9     	stx	$c958                   ; 0xc958 <__heap_start+0xa32a>
    12b3: 8e 59 c9     	stx	$c959                   ; 0xc959 <__heap_start+0xa32b>
    12b6: 8e 5a c9     	stx	$c95a                   ; 0xc95a <__heap_start+0xa32c>
    12b9: 8e 5b c9     	stx	$c95b                   ; 0xc95b <__heap_start+0xa32d>
    12bc: 8e 5c c9     	stx	$c95c                   ; 0xc95c <__heap_start+0xa32e>
    12bf: 8e 5d c9     	stx	$c95d                   ; 0xc95d <__heap_start+0xa32f>
    12c2: 8e 5e c9     	stx	$c95e                   ; 0xc95e <__heap_start+0xa330>
    12c5: 8e 5f c9     	stx	$c95f                   ; 0xc95f <__heap_start+0xa331>
    12c8: c6 39        	dec	$39                     ; 0x2039 <printf+0x75b>
    12ca: 9c 08 de     	stz	$de08                   ; 0xde08 <__heap_start+0xb7da>
    12cd: a2 c0        	ldx	#$c0
    12cf: 8e 09 de     	stx	$de09                   ; 0xde09 <__heap_start+0xb7db>
    12d2: 9c 0a de     	stz	$de0a                   ; 0xde0a <__heap_start+0xb7dc>
    12d5: 9c 0b de     	stz	$de0b                   ; 0xde0b <__heap_start+0xb7dd>
    12d8: a2 1d        	ldx	#$1d
    12da: 8e 0c de     	stx	$de0c                   ; 0xde0c <__heap_start+0xb7de>
    12dd: 9c 0d de     	stz	$de0d                   ; 0xde0d <__heap_start+0xb7df>
    12e0: 9c 0e de     	stz	$de0e                   ; 0xde0e <__heap_start+0xb7e0>
    12e3: 9c 0f de     	stz	$de0f                   ; 0xde0f <__heap_start+0xb7e1>
    12e6: ae 18 de     	ldx	$de18                   ; 0xde18 <__heap_start+0xb7ea>
    12e9: ac 19 de     	ldy	$de19                   ; 0xde19 <__heap_start+0xb7eb>
    12ec: ad 1a de     	lda	$de1a                   ; 0xde1a <__heap_start+0xb7ec>
    12ef: 86 16        	stx	$16                     ; 0x2016 <printf+0x738>
    12f1: ae 1b de     	ldx	$de1b                   ; 0xde1b <__heap_start+0xb7ed>
    12f4: 84 17        	sty	$17                     ; 0x2017 <printf+0x739>
    12f6: e6 13        	inc	$13                     ; 0x2013 <printf+0x735>
    12f8: d0 02        	bne	$12fc <oldText+0x650>
    12fa: e6 14        	inc	$14                     ; 0x2014 <printf+0x736>
    12fc: 80 13        	bra	$1311 <oldText+0x665>
    12fe: a5 16        	lda	$16                     ; 0x2016 <printf+0x738>
    1300: 18           	clc
    1301: 69 50        	adc	#$50
    1303: 85 16        	sta	$16                     ; 0x2016 <printf+0x738>
    1305: a5 17        	lda	$17                     ; 0x2017 <printf+0x739>
    1307: 69 00        	adc	#$0
    1309: 85 17        	sta	$17                     ; 0x2017 <printf+0x739>
    130b: e6 13        	inc	$13                     ; 0x2013 <printf+0x735>
    130d: d0 02        	bne	$1311 <oldText+0x665>
    130f: e6 14        	inc	$14                     ; 0x2014 <printf+0x736>
    1311: a9 c4        	lda	#$c4
    1313: 18           	clc
    1314: 65 13        	adc	$13                     ; 0x2013 <printf+0x735>
    1316: 85 18        	sta	$18                     ; 0x2018 <printf+0x73a>
    1318: a9 25        	lda	#$25
    131a: 65 14        	adc	$14                     ; 0x2014 <printf+0x736>
    131c: 85 19        	sta	$19                     ; 0x2019 <printf+0x73b>
    131e: b2 18        	lda	($18)                   ; 0x2018 <printf+0x73a>
    1320: c9 0a        	cmp	#$a
    1322: f0 2a        	beq	$134e <oldText+0x6a2>
    1324: c9 0d        	cmp	#$d
    1326: f0 26        	beq	$134e <oldText+0x6a2>
    1328: aa           	tax
    1329: d0 03        	bne	$132e <oldText+0x682>
    132b: 4c e6 0f     	jmp	$fe6 <oldText+0x33a>
    132e: a2 03        	ldx	#$3
    1330: 86 01        	stx	$1                      ; 0x2001 <printf+0x723>
    1332: a6 30        	ldx	$30                     ; 0x2030 <printf+0x752>
    1334: a4 38        	ldy	$38                     ; 0x2038 <printf+0x75a>
    1336: 85 18        	sta	$18                     ; 0x2018 <printf+0x73a>
    1338: 8a           	txa
    1339: 91 16        	sta	($16),y                 ; 0x2016 <printf+0x738>
    133b: a2 02        	ldx	#$2
    133d: 86 01        	stx	$1                      ; 0x2001 <printf+0x723>
    133f: a4 38        	ldy	$38                     ; 0x2038 <printf+0x75a>
    1341: a5 18        	lda	$18                     ; 0x2018 <printf+0x73a>
    1343: 91 16        	sta	($16),y                 ; 0x2016 <printf+0x738>
    1345: a6 38        	ldx	$38                     ; 0x2038 <printf+0x75a>
    1347: e8           	inx
    1348: e6 38        	inc	$38                     ; 0x2038 <printf+0x75a>
    134a: e0 50        	cpx	#$50
    134c: d0 bd        	bne	$130b <oldText+0x65f>
    134e: 64 38        	stz	$38                     ; 0x2038 <printf+0x75a>
    1350: a6 39        	ldx	$39                     ; 0x2039 <printf+0x75b>
    1352: e8           	inx
    1353: e6 39        	inc	$39                     ; 0x2039 <printf+0x75b>
    1355: e0 1e        	cpx	#$1e
    1357: f0 03        	beq	$135c <oldText+0x6b0>
    1359: 4c fe 12     	jmp	$12fe <oldText+0x652>
    135c: a2 03        	ldx	#$3
    135e: 86 01        	stx	$1                      ; 0x2001 <printf+0x723>
    1360: a2 09        	ldx	#$9
    1362: a9 10        	lda	#$10
    1364: a0 00        	ldy	#$0
    1366: 84 16        	sty	$16                     ; 0x2016 <printf+0x738>
    1368: a0 c0        	ldy	#$c0
    136a: 84 17        	sty	$17                     ; 0x2017 <printf+0x739>
    136c: 85 18        	sta	$18                     ; 0x2018 <printf+0x73a>
    136e: 86 15        	stx	$15                     ; 0x2015 <printf+0x737>
    1370: a0 50        	ldy	#$50
    1372: 4c 7e 10     	jmp	$107e <oldText+0x3d2>
    1375: 18           	clc
    1376: a5 10        	lda	$10                     ; 0x2010 <printf+0x732>
    1378: 69 02        	adc	#$2
    137a: 85 10        	sta	$10                     ; 0x2010 <printf+0x732>
    137c: a5 11        	lda	$11                     ; 0x2011 <printf+0x733>
    137e: 69 00        	adc	#$0
    1380: 85 11        	sta	$11                     ; 0x2011 <printf+0x733>
    1382: 60           	rts

00001383 <textPrint>:
    1383: a6 01        	ldx	$1                      ; 0x2001 <printf+0x723>
    1385: 86 1c        	stx	$1c                     ; 0x201c <printf+0x73e>
    1387: a6 39        	ldx	$39                     ; 0x2039 <printf+0x75b>
    1389: a0 50        	ldy	#$50
    138b: 8c 00 de     	sty	$de00                   ; 0xde00 <__heap_start+0xb7d2>
    138e: 9c 01 de     	stz	$de01                   ; 0xde01 <__heap_start+0xb7d3>
    1391: 8e 02 de     	stx	$de02                   ; 0xde02 <__heap_start+0xb7d4>
    1394: 9c 03 de     	stz	$de03                   ; 0xde03 <__heap_start+0xb7d5>
    1397: ae 10 de     	ldx	$de10                   ; 0xde10 <__heap_start+0xb7e2>
    139a: ac 11 de     	ldy	$de11                   ; 0xde11 <__heap_start+0xb7e3>
    139d: 84 15        	sty	$15                     ; 0x2015 <printf+0x737>
    139f: ad 12 de     	lda	$de12                   ; 0xde12 <__heap_start+0xb7e4>
    13a2: ac 13 de     	ldy	$de13                   ; 0xde13 <__heap_start+0xb7e5>
    13a5: 84 18        	sty	$18                     ; 0x2018 <printf+0x73a>
    13a7: 9c 08 de     	stz	$de08                   ; 0xde08 <__heap_start+0xb7da>
    13aa: a0 c0        	ldy	#$c0
    13ac: 8c 09 de     	sty	$de09                   ; 0xde09 <__heap_start+0xb7db>
    13af: 9c 0a de     	stz	$de0a                   ; 0xde0a <__heap_start+0xb7dc>
    13b2: 9c 0b de     	stz	$de0b                   ; 0xde0b <__heap_start+0xb7dd>
    13b5: 8e 0c de     	stx	$de0c                   ; 0xde0c <__heap_start+0xb7de>
    13b8: 64 14        	stz	$14                     ; 0x2014 <printf+0x736>
    13ba: a2 00        	ldx	#$0
    13bc: 86 16        	stx	$16                     ; 0x2016 <printf+0x738>
    13be: a2 c0        	ldx	#$c0
    13c0: 86 17        	stx	$17                     ; 0x2017 <printf+0x739>
    13c2: a6 15        	ldx	$15                     ; 0x2015 <printf+0x737>
    13c4: 8e 0d de     	stx	$de0d                   ; 0xde0d <__heap_start+0xb7df>
    13c7: 8d 0e de     	sta	$de0e                   ; 0xde0e <__heap_start+0xb7e0>
    13ca: a6 18        	ldx	$18                     ; 0x2018 <printf+0x73a>
    13cc: 8e 0f de     	stx	$de0f                   ; 0xde0f <__heap_start+0xb7e1>
    13cf: ac 18 de     	ldy	$de18                   ; 0xde18 <__heap_start+0xb7ea>
    13d2: ad 19 de     	lda	$de19                   ; 0xde19 <__heap_start+0xb7eb>
    13d5: ae 1a de     	ldx	$de1a                   ; 0xde1a <__heap_start+0xb7ec>
    13d8: ae 1b de     	ldx	$de1b                   ; 0xde1b <__heap_start+0xb7ed>
    13db: 84 18        	sty	$18                     ; 0x2018 <printf+0x73a>
    13dd: 85 19        	sta	$19                     ; 0x2019 <printf+0x73b>
    13df: 64 15        	stz	$15                     ; 0x2015 <printf+0x737>
    13e1: a2 20        	ldx	#$20
    13e3: 4c 7b 16     	jmp	$167b <textPrint+0x2f8>
    13e6: a5 1a        	lda	$1a                     ; 0x201a <printf+0x73c>
    13e8: f0 1c        	beq	$1406 <textPrint+0x83>
    13ea: b1 18        	lda	($18),y                 ; 0x2018 <printf+0x73a>
    13ec: 92 18        	sta	($18)                   ; 0x2018 <printf+0x73a>
    13ee: a9 ff        	lda	#$ff
    13f0: c6 1b        	dec	$1b                     ; 0x201b <printf+0x73d>
    13f2: c5 1b        	cmp	$1b                     ; 0x201b <printf+0x73d>
    13f4: f0 06        	beq	$13fc <textPrint+0x79>
    13f6: e6 18        	inc	$18                     ; 0x2018 <printf+0x73a>
    13f8: d0 ec        	bne	$13e6 <textPrint+0x63>
    13fa: 80 06        	bra	$1402 <textPrint+0x7f>
    13fc: c6 1a        	dec	$1a                     ; 0x201a <printf+0x73c>
    13fe: e6 18        	inc	$18                     ; 0x2018 <printf+0x73a>
    1400: d0 e4        	bne	$13e6 <textPrint+0x63>
    1402: e6 19        	inc	$19                     ; 0x2019 <printf+0x73b>
    1404: 80 e0        	bra	$13e6 <textPrint+0x63>
    1406: a5 1b        	lda	$1b                     ; 0x201b <printf+0x73d>
    1408: d0 e0        	bne	$13ea <textPrint+0x67>
    140a: a9 02        	lda	#$2
    140c: 85 01        	sta	$1                      ; 0x2001 <printf+0x723>
    140e: a9 10        	lda	#$10
    1410: 5a           	phy
    1411: a0 00        	ldy	#$0
    1413: 84 18        	sty	$18                     ; 0x2018 <printf+0x73a>
    1415: a0 c0        	ldy	#$c0
    1417: 84 19        	sty	$19                     ; 0x2019 <printf+0x73b>
    1419: 7a           	ply
    141a: 85 1b        	sta	$1b                     ; 0x201b <printf+0x73d>
    141c: a9 09        	lda	#$9
    141e: 85 1a        	sta	$1a                     ; 0x201a <printf+0x73c>
    1420: 80 04        	bra	$1426 <textPrint+0xa3>
    1422: a5 1a        	lda	$1a                     ; 0x201a <printf+0x73c>
    1424: f0 1c        	beq	$1442 <textPrint+0xbf>
    1426: b1 18        	lda	($18),y                 ; 0x2018 <printf+0x73a>
    1428: 92 18        	sta	($18)                   ; 0x2018 <printf+0x73a>
    142a: a9 ff        	lda	#$ff
    142c: c6 1b        	dec	$1b                     ; 0x201b <printf+0x73d>
    142e: c5 1b        	cmp	$1b                     ; 0x201b <printf+0x73d>
    1430: f0 06        	beq	$1438 <textPrint+0xb5>
    1432: e6 18        	inc	$18                     ; 0x2018 <printf+0x73a>
    1434: d0 ec        	bne	$1422 <textPrint+0x9f>
    1436: 80 06        	bra	$143e <textPrint+0xbb>
    1438: c6 1a        	dec	$1a                     ; 0x201a <printf+0x73c>
    143a: e6 18        	inc	$18                     ; 0x2018 <printf+0x73a>
    143c: d0 e4        	bne	$1422 <textPrint+0x9f>
    143e: e6 19        	inc	$19                     ; 0x2019 <printf+0x73b>
    1440: 80 e0        	bra	$1422 <textPrint+0x9f>
    1442: a5 1b        	lda	$1b                     ; 0x201b <printf+0x73d>
    1444: d0 e0        	bne	$1426 <textPrint+0xa3>
    1446: a0 02        	ldy	#$2
    1448: 84 01        	sty	$1                      ; 0x2001 <printf+0x723>
    144a: c8           	iny
    144b: 84 01        	sty	$1                      ; 0x2001 <printf+0x723>
    144d: a5 30        	lda	$30                     ; 0x2030 <printf+0x752>
    144f: 8d 10 c9     	sta	$c910                   ; 0xc910 <__heap_start+0xa2e2>
    1452: 8d 11 c9     	sta	$c911                   ; 0xc911 <__heap_start+0xa2e3>
    1455: 8d 12 c9     	sta	$c912                   ; 0xc912 <__heap_start+0xa2e4>
    1458: 8d 13 c9     	sta	$c913                   ; 0xc913 <__heap_start+0xa2e5>
    145b: 8d 14 c9     	sta	$c914                   ; 0xc914 <__heap_start+0xa2e6>
    145e: 8d 15 c9     	sta	$c915                   ; 0xc915 <__heap_start+0xa2e7>
    1461: 8d 16 c9     	sta	$c916                   ; 0xc916 <__heap_start+0xa2e8>
    1464: 8d 17 c9     	sta	$c917                   ; 0xc917 <__heap_start+0xa2e9>
    1467: 8d 18 c9     	sta	$c918                   ; 0xc918 <__heap_start+0xa2ea>
    146a: 8d 19 c9     	sta	$c919                   ; 0xc919 <__heap_start+0xa2eb>
    146d: 8d 1a c9     	sta	$c91a                   ; 0xc91a <__heap_start+0xa2ec>
    1470: 8d 1b c9     	sta	$c91b                   ; 0xc91b <__heap_start+0xa2ed>
    1473: 8d 1c c9     	sta	$c91c                   ; 0xc91c <__heap_start+0xa2ee>
    1476: 8d 1d c9     	sta	$c91d                   ; 0xc91d <__heap_start+0xa2ef>
    1479: 8d 1e c9     	sta	$c91e                   ; 0xc91e <__heap_start+0xa2f0>
    147c: 8d 1f c9     	sta	$c91f                   ; 0xc91f <__heap_start+0xa2f1>
    147f: 8d 20 c9     	sta	$c920                   ; 0xc920 <__heap_start+0xa2f2>
    1482: 8d 21 c9     	sta	$c921                   ; 0xc921 <__heap_start+0xa2f3>
    1485: 8d 22 c9     	sta	$c922                   ; 0xc922 <__heap_start+0xa2f4>
    1488: 8d 23 c9     	sta	$c923                   ; 0xc923 <__heap_start+0xa2f5>
    148b: 8d 24 c9     	sta	$c924                   ; 0xc924 <__heap_start+0xa2f6>
    148e: 8d 25 c9     	sta	$c925                   ; 0xc925 <__heap_start+0xa2f7>
    1491: 8d 26 c9     	sta	$c926                   ; 0xc926 <__heap_start+0xa2f8>
    1494: 8d 27 c9     	sta	$c927                   ; 0xc927 <__heap_start+0xa2f9>
    1497: 8d 28 c9     	sta	$c928                   ; 0xc928 <__heap_start+0xa2fa>
    149a: 8d 29 c9     	sta	$c929                   ; 0xc929 <__heap_start+0xa2fb>
    149d: 8d 2a c9     	sta	$c92a                   ; 0xc92a <__heap_start+0xa2fc>
    14a0: 8d 2b c9     	sta	$c92b                   ; 0xc92b <__heap_start+0xa2fd>
    14a3: 8d 2c c9     	sta	$c92c                   ; 0xc92c <__heap_start+0xa2fe>
    14a6: 8d 2d c9     	sta	$c92d                   ; 0xc92d <__heap_start+0xa2ff>
    14a9: 8d 2e c9     	sta	$c92e                   ; 0xc92e <__heap_start+0xa300>
    14ac: 8d 2f c9     	sta	$c92f                   ; 0xc92f <__heap_start+0xa301>
    14af: 8d 30 c9     	sta	$c930                   ; 0xc930 <__heap_start+0xa302>
    14b2: 8d 31 c9     	sta	$c931                   ; 0xc931 <__heap_start+0xa303>
    14b5: 8d 32 c9     	sta	$c932                   ; 0xc932 <__heap_start+0xa304>
    14b8: 8d 33 c9     	sta	$c933                   ; 0xc933 <__heap_start+0xa305>
    14bb: 8d 34 c9     	sta	$c934                   ; 0xc934 <__heap_start+0xa306>
    14be: 8d 35 c9     	sta	$c935                   ; 0xc935 <__heap_start+0xa307>
    14c1: 8d 36 c9     	sta	$c936                   ; 0xc936 <__heap_start+0xa308>
    14c4: 8d 37 c9     	sta	$c937                   ; 0xc937 <__heap_start+0xa309>
    14c7: 8d 38 c9     	sta	$c938                   ; 0xc938 <__heap_start+0xa30a>
    14ca: 8d 39 c9     	sta	$c939                   ; 0xc939 <__heap_start+0xa30b>
    14cd: 8d 3a c9     	sta	$c93a                   ; 0xc93a <__heap_start+0xa30c>
    14d0: 8d 3b c9     	sta	$c93b                   ; 0xc93b <__heap_start+0xa30d>
    14d3: 8d 3c c9     	sta	$c93c                   ; 0xc93c <__heap_start+0xa30e>
    14d6: 8d 3d c9     	sta	$c93d                   ; 0xc93d <__heap_start+0xa30f>
    14d9: 8d 3e c9     	sta	$c93e                   ; 0xc93e <__heap_start+0xa310>
    14dc: 8d 3f c9     	sta	$c93f                   ; 0xc93f <__heap_start+0xa311>
    14df: 8d 40 c9     	sta	$c940                   ; 0xc940 <__heap_start+0xa312>
    14e2: 8d 41 c9     	sta	$c941                   ; 0xc941 <__heap_start+0xa313>
    14e5: 8d 42 c9     	sta	$c942                   ; 0xc942 <__heap_start+0xa314>
    14e8: 8d 43 c9     	sta	$c943                   ; 0xc943 <__heap_start+0xa315>
    14eb: 8d 44 c9     	sta	$c944                   ; 0xc944 <__heap_start+0xa316>
    14ee: 8d 45 c9     	sta	$c945                   ; 0xc945 <__heap_start+0xa317>
    14f1: 8d 46 c9     	sta	$c946                   ; 0xc946 <__heap_start+0xa318>
    14f4: 8d 47 c9     	sta	$c947                   ; 0xc947 <__heap_start+0xa319>
    14f7: 8d 48 c9     	sta	$c948                   ; 0xc948 <__heap_start+0xa31a>
    14fa: 8d 49 c9     	sta	$c949                   ; 0xc949 <__heap_start+0xa31b>
    14fd: 8d 4a c9     	sta	$c94a                   ; 0xc94a <__heap_start+0xa31c>
    1500: 8d 4b c9     	sta	$c94b                   ; 0xc94b <__heap_start+0xa31d>
    1503: 8d 4c c9     	sta	$c94c                   ; 0xc94c <__heap_start+0xa31e>
    1506: 8d 4d c9     	sta	$c94d                   ; 0xc94d <__heap_start+0xa31f>
    1509: 8d 4e c9     	sta	$c94e                   ; 0xc94e <__heap_start+0xa320>
    150c: 8d 4f c9     	sta	$c94f                   ; 0xc94f <__heap_start+0xa321>
    150f: 8d 50 c9     	sta	$c950                   ; 0xc950 <__heap_start+0xa322>
    1512: 8d 51 c9     	sta	$c951                   ; 0xc951 <__heap_start+0xa323>
    1515: 8d 52 c9     	sta	$c952                   ; 0xc952 <__heap_start+0xa324>
    1518: 8d 53 c9     	sta	$c953                   ; 0xc953 <__heap_start+0xa325>
    151b: 8d 54 c9     	sta	$c954                   ; 0xc954 <__heap_start+0xa326>
    151e: 8d 55 c9     	sta	$c955                   ; 0xc955 <__heap_start+0xa327>
    1521: 8d 56 c9     	sta	$c956                   ; 0xc956 <__heap_start+0xa328>
    1524: 8d 57 c9     	sta	$c957                   ; 0xc957 <__heap_start+0xa329>
    1527: 8d 58 c9     	sta	$c958                   ; 0xc958 <__heap_start+0xa32a>
    152a: 8d 59 c9     	sta	$c959                   ; 0xc959 <__heap_start+0xa32b>
    152d: 8d 5a c9     	sta	$c95a                   ; 0xc95a <__heap_start+0xa32c>
    1530: 8d 5b c9     	sta	$c95b                   ; 0xc95b <__heap_start+0xa32d>
    1533: 8d 5c c9     	sta	$c95c                   ; 0xc95c <__heap_start+0xa32e>
    1536: 8d 5d c9     	sta	$c95d                   ; 0xc95d <__heap_start+0xa32f>
    1539: 8d 5e c9     	sta	$c95e                   ; 0xc95e <__heap_start+0xa330>
    153c: 8d 5f c9     	sta	$c95f                   ; 0xc95f <__heap_start+0xa331>
    153f: 88           	dey
    1540: 84 01        	sty	$1                      ; 0x2001 <printf+0x723>
    1542: 8e 10 c9     	stx	$c910                   ; 0xc910 <__heap_start+0xa2e2>
    1545: 8e 11 c9     	stx	$c911                   ; 0xc911 <__heap_start+0xa2e3>
    1548: 8e 12 c9     	stx	$c912                   ; 0xc912 <__heap_start+0xa2e4>
    154b: 8e 13 c9     	stx	$c913                   ; 0xc913 <__heap_start+0xa2e5>
    154e: 8e 14 c9     	stx	$c914                   ; 0xc914 <__heap_start+0xa2e6>
    1551: 8e 15 c9     	stx	$c915                   ; 0xc915 <__heap_start+0xa2e7>
    1554: 8e 16 c9     	stx	$c916                   ; 0xc916 <__heap_start+0xa2e8>
    1557: 8e 17 c9     	stx	$c917                   ; 0xc917 <__heap_start+0xa2e9>
    155a: 8e 18 c9     	stx	$c918                   ; 0xc918 <__heap_start+0xa2ea>
    155d: 8e 19 c9     	stx	$c919                   ; 0xc919 <__heap_start+0xa2eb>
    1560: 8e 1a c9     	stx	$c91a                   ; 0xc91a <__heap_start+0xa2ec>
    1563: 8e 1b c9     	stx	$c91b                   ; 0xc91b <__heap_start+0xa2ed>
    1566: 8e 1c c9     	stx	$c91c                   ; 0xc91c <__heap_start+0xa2ee>
    1569: 8e 1d c9     	stx	$c91d                   ; 0xc91d <__heap_start+0xa2ef>
    156c: 8e 1e c9     	stx	$c91e                   ; 0xc91e <__heap_start+0xa2f0>
    156f: 8e 1f c9     	stx	$c91f                   ; 0xc91f <__heap_start+0xa2f1>
    1572: 8e 20 c9     	stx	$c920                   ; 0xc920 <__heap_start+0xa2f2>
    1575: 8e 21 c9     	stx	$c921                   ; 0xc921 <__heap_start+0xa2f3>
    1578: 8e 22 c9     	stx	$c922                   ; 0xc922 <__heap_start+0xa2f4>
    157b: 8e 23 c9     	stx	$c923                   ; 0xc923 <__heap_start+0xa2f5>
    157e: 8e 24 c9     	stx	$c924                   ; 0xc924 <__heap_start+0xa2f6>
    1581: 8e 25 c9     	stx	$c925                   ; 0xc925 <__heap_start+0xa2f7>
    1584: 8e 26 c9     	stx	$c926                   ; 0xc926 <__heap_start+0xa2f8>
    1587: 8e 27 c9     	stx	$c927                   ; 0xc927 <__heap_start+0xa2f9>
    158a: 8e 28 c9     	stx	$c928                   ; 0xc928 <__heap_start+0xa2fa>
    158d: 8e 29 c9     	stx	$c929                   ; 0xc929 <__heap_start+0xa2fb>
    1590: 8e 2a c9     	stx	$c92a                   ; 0xc92a <__heap_start+0xa2fc>
    1593: 8e 2b c9     	stx	$c92b                   ; 0xc92b <__heap_start+0xa2fd>
    1596: 8e 2c c9     	stx	$c92c                   ; 0xc92c <__heap_start+0xa2fe>
    1599: 8e 2d c9     	stx	$c92d                   ; 0xc92d <__heap_start+0xa2ff>
    159c: 8e 2e c9     	stx	$c92e                   ; 0xc92e <__heap_start+0xa300>
    159f: 8e 2f c9     	stx	$c92f                   ; 0xc92f <__heap_start+0xa301>
    15a2: 8e 30 c9     	stx	$c930                   ; 0xc930 <__heap_start+0xa302>
    15a5: 8e 31 c9     	stx	$c931                   ; 0xc931 <__heap_start+0xa303>
    15a8: 8e 32 c9     	stx	$c932                   ; 0xc932 <__heap_start+0xa304>
    15ab: 8e 33 c9     	stx	$c933                   ; 0xc933 <__heap_start+0xa305>
    15ae: 8e 34 c9     	stx	$c934                   ; 0xc934 <__heap_start+0xa306>
    15b1: 8e 35 c9     	stx	$c935                   ; 0xc935 <__heap_start+0xa307>
    15b4: 8e 36 c9     	stx	$c936                   ; 0xc936 <__heap_start+0xa308>
    15b7: 8e 37 c9     	stx	$c937                   ; 0xc937 <__heap_start+0xa309>
    15ba: 8e 38 c9     	stx	$c938                   ; 0xc938 <__heap_start+0xa30a>
    15bd: 8e 39 c9     	stx	$c939                   ; 0xc939 <__heap_start+0xa30b>
    15c0: 8e 3a c9     	stx	$c93a                   ; 0xc93a <__heap_start+0xa30c>
    15c3: 8e 3b c9     	stx	$c93b                   ; 0xc93b <__heap_start+0xa30d>
    15c6: 8e 3c c9     	stx	$c93c                   ; 0xc93c <__heap_start+0xa30e>
    15c9: 8e 3d c9     	stx	$c93d                   ; 0xc93d <__heap_start+0xa30f>
    15cc: 8e 3e c9     	stx	$c93e                   ; 0xc93e <__heap_start+0xa310>
    15cf: 8e 3f c9     	stx	$c93f                   ; 0xc93f <__heap_start+0xa311>
    15d2: 8e 40 c9     	stx	$c940                   ; 0xc940 <__heap_start+0xa312>
    15d5: 8e 41 c9     	stx	$c941                   ; 0xc941 <__heap_start+0xa313>
    15d8: 8e 42 c9     	stx	$c942                   ; 0xc942 <__heap_start+0xa314>
    15db: 8e 43 c9     	stx	$c943                   ; 0xc943 <__heap_start+0xa315>
    15de: 8e 44 c9     	stx	$c944                   ; 0xc944 <__heap_start+0xa316>
    15e1: 8e 45 c9     	stx	$c945                   ; 0xc945 <__heap_start+0xa317>
    15e4: 8e 46 c9     	stx	$c946                   ; 0xc946 <__heap_start+0xa318>
    15e7: 8e 47 c9     	stx	$c947                   ; 0xc947 <__heap_start+0xa319>
    15ea: 8e 48 c9     	stx	$c948                   ; 0xc948 <__heap_start+0xa31a>
    15ed: 8e 49 c9     	stx	$c949                   ; 0xc949 <__heap_start+0xa31b>
    15f0: 8e 4a c9     	stx	$c94a                   ; 0xc94a <__heap_start+0xa31c>
    15f3: 8e 4b c9     	stx	$c94b                   ; 0xc94b <__heap_start+0xa31d>
    15f6: 8e 4c c9     	stx	$c94c                   ; 0xc94c <__heap_start+0xa31e>
    15f9: 8e 4d c9     	stx	$c94d                   ; 0xc94d <__heap_start+0xa31f>
    15fc: 8e 4e c9     	stx	$c94e                   ; 0xc94e <__heap_start+0xa320>
    15ff: 8e 4f c9     	stx	$c94f                   ; 0xc94f <__heap_start+0xa321>
    1602: 8e 50 c9     	stx	$c950                   ; 0xc950 <__heap_start+0xa322>
    1605: 8e 51 c9     	stx	$c951                   ; 0xc951 <__heap_start+0xa323>
    1608: 8e 52 c9     	stx	$c952                   ; 0xc952 <__heap_start+0xa324>
    160b: 8e 53 c9     	stx	$c953                   ; 0xc953 <__heap_start+0xa325>
    160e: 8e 54 c9     	stx	$c954                   ; 0xc954 <__heap_start+0xa326>
    1611: 8e 55 c9     	stx	$c955                   ; 0xc955 <__heap_start+0xa327>
    1614: 8e 56 c9     	stx	$c956                   ; 0xc956 <__heap_start+0xa328>
    1617: 8e 57 c9     	stx	$c957                   ; 0xc957 <__heap_start+0xa329>
    161a: 8e 58 c9     	stx	$c958                   ; 0xc958 <__heap_start+0xa32a>
    161d: 8e 59 c9     	stx	$c959                   ; 0xc959 <__heap_start+0xa32b>
    1620: 8e 5a c9     	stx	$c95a                   ; 0xc95a <__heap_start+0xa32c>
    1623: 8e 5b c9     	stx	$c95b                   ; 0xc95b <__heap_start+0xa32d>
    1626: 8e 5c c9     	stx	$c95c                   ; 0xc95c <__heap_start+0xa32e>
    1629: 8e 5d c9     	stx	$c95d                   ; 0xc95d <__heap_start+0xa32f>
    162c: 8e 5e c9     	stx	$c95e                   ; 0xc95e <__heap_start+0xa330>
    162f: 8e 5f c9     	stx	$c95f                   ; 0xc95f <__heap_start+0xa331>
    1632: c6 39        	dec	$39                     ; 0x2039 <printf+0x75b>
    1634: 9c 08 de     	stz	$de08                   ; 0xde08 <__heap_start+0xb7da>
    1637: a0 c0        	ldy	#$c0
    1639: 8c 09 de     	sty	$de09                   ; 0xde09 <__heap_start+0xb7db>
    163c: 9c 0a de     	stz	$de0a                   ; 0xde0a <__heap_start+0xb7dc>
    163f: 9c 0b de     	stz	$de0b                   ; 0xde0b <__heap_start+0xb7dd>
    1642: a0 1d        	ldy	#$1d
    1644: 8c 0c de     	sty	$de0c                   ; 0xde0c <__heap_start+0xb7de>
    1647: 9c 0d de     	stz	$de0d                   ; 0xde0d <__heap_start+0xb7df>
    164a: 9c 0e de     	stz	$de0e                   ; 0xde0e <__heap_start+0xb7e0>
    164d: 9c 0f de     	stz	$de0f                   ; 0xde0f <__heap_start+0xb7e1>
    1650: ac 18 de     	ldy	$de18                   ; 0xde18 <__heap_start+0xb7ea>
    1653: ad 19 de     	lda	$de19                   ; 0xde19 <__heap_start+0xb7eb>
    1656: 85 19        	sta	$19                     ; 0x2019 <printf+0x73b>
    1658: ad 1a de     	lda	$de1a                   ; 0xde1a <__heap_start+0xb7ec>
    165b: 84 18        	sty	$18                     ; 0x2018 <printf+0x73a>
    165d: ac 1b de     	ldy	$de1b                   ; 0xde1b <__heap_start+0xb7ed>
    1660: e6 14        	inc	$14                     ; 0x2014 <printf+0x736>
    1662: d0 02        	bne	$1666 <textPrint+0x2e3>
    1664: e6 15        	inc	$15                     ; 0x2015 <printf+0x737>
    1666: 80 13        	bra	$167b <textPrint+0x2f8>
    1668: a5 18        	lda	$18                     ; 0x2018 <printf+0x73a>
    166a: 18           	clc
    166b: 69 50        	adc	#$50
    166d: 85 18        	sta	$18                     ; 0x2018 <printf+0x73a>
    166f: a5 19        	lda	$19                     ; 0x2019 <printf+0x73b>
    1671: 69 00        	adc	#$0
    1673: 85 19        	sta	$19                     ; 0x2019 <printf+0x73b>
    1675: e6 14        	inc	$14                     ; 0x2014 <printf+0x736>
    1677: d0 02        	bne	$167b <textPrint+0x2f8>
    1679: e6 15        	inc	$15                     ; 0x2015 <printf+0x737>
    167b: a5 12        	lda	$12                     ; 0x2012 <printf+0x734>
    167d: 18           	clc
    167e: 65 14        	adc	$14                     ; 0x2014 <printf+0x736>
    1680: 85 1a        	sta	$1a                     ; 0x201a <printf+0x73c>
    1682: a5 13        	lda	$13                     ; 0x2013 <printf+0x735>
    1684: 65 15        	adc	$15                     ; 0x2015 <printf+0x737>
    1686: 85 1b        	sta	$1b                     ; 0x201b <printf+0x73d>
    1688: b2 1a        	lda	($1a)                   ; 0x201a <printf+0x73c>
    168a: c9 0a        	cmp	#$a
    168c: f0 24        	beq	$16b2 <textPrint+0x32f>
    168e: c9 0d        	cmp	#$d
    1690: f0 20        	beq	$16b2 <textPrint+0x32f>
    1692: a8           	tay
    1693: f0 46        	beq	$16db <textPrint+0x358>
    1695: a0 03        	ldy	#$3
    1697: 84 01        	sty	$1                      ; 0x2001 <printf+0x723>
    1699: a5 30        	lda	$30                     ; 0x2030 <printf+0x752>
    169b: a4 38        	ldy	$38                     ; 0x2038 <printf+0x75a>
    169d: 91 18        	sta	($18),y                 ; 0x2018 <printf+0x73a>
    169f: a0 02        	ldy	#$2
    16a1: 84 01        	sty	$1                      ; 0x2001 <printf+0x723>
    16a3: b2 1a        	lda	($1a)                   ; 0x201a <printf+0x73c>
    16a5: a4 38        	ldy	$38                     ; 0x2038 <printf+0x75a>
    16a7: 91 18        	sta	($18),y                 ; 0x2018 <printf+0x73a>
    16a9: a4 38        	ldy	$38                     ; 0x2038 <printf+0x75a>
    16ab: c8           	iny
    16ac: e6 38        	inc	$38                     ; 0x2038 <printf+0x75a>
    16ae: c0 50        	cpy	#$50
    16b0: d0 c3        	bne	$1675 <textPrint+0x2f2>
    16b2: 64 38        	stz	$38                     ; 0x2038 <printf+0x75a>
    16b4: a4 39        	ldy	$39                     ; 0x2039 <printf+0x75b>
    16b6: c8           	iny
    16b7: e6 39        	inc	$39                     ; 0x2039 <printf+0x75b>
    16b9: c0 1e        	cpy	#$1e
    16bb: f0 03        	beq	$16c0 <textPrint+0x33d>
    16bd: 4c 68 16     	jmp	$1668 <textPrint+0x2e5>
    16c0: a0 03        	ldy	#$3
    16c2: 84 01        	sty	$1                      ; 0x2001 <printf+0x723>
    16c4: a0 09        	ldy	#$9
    16c6: a9 10        	lda	#$10
    16c8: 5a           	phy
    16c9: a0 00        	ldy	#$0
    16cb: 84 18        	sty	$18                     ; 0x2018 <printf+0x73a>
    16cd: a0 c0        	ldy	#$c0
    16cf: 84 19        	sty	$19                     ; 0x2019 <printf+0x73b>
    16d1: 7a           	ply
    16d2: 85 1b        	sta	$1b                     ; 0x201b <printf+0x73d>
    16d4: 84 1a        	sty	$1a                     ; 0x201a <printf+0x73c>
    16d6: a0 50        	ldy	#$50
    16d8: 4c ea 13     	jmp	$13ea <textPrint+0x67>
    16db: a6 1c        	ldx	$1c                     ; 0x201c <printf+0x73e>
    16dd: 86 01        	stx	$1                      ; 0x2001 <printf+0x723>
    16df: a6 38        	ldx	$38                     ; 0x2038 <printf+0x75a>
    16e1: a4 39        	ldy	$39                     ; 0x2039 <printf+0x75b>
    16e3: 8e 14 d0     	stx	$d014                   ; 0xd014 <__heap_start+0xa9e6>
    16e6: 9c 15 d0     	stz	$d015                   ; 0xd015 <__heap_start+0xa9e7>
    16e9: 84 39        	sty	$39                     ; 0x2039 <printf+0x75b>
    16eb: 8c 16 d0     	sty	$d016                   ; 0xd016 <__heap_start+0xa9e8>
    16ee: 9c 17 d0     	stz	$d017                   ; 0xd017 <__heap_start+0xa9e9>
    16f1: 60           	rts

000016f2 <exit>:
    16f2: 20 18 03     	jsr	$318 <_fini>
    16f5: 80 fe        	bra	$16f5 <exit+0x3>

000016f7 <_ZN12_GLOBAL__N_13putEcP6Status>:
    16f7: 85 18        	sta	$18                     ; 0x2018 <printf+0x73a>
    16f9: a6 13        	ldx	$13                     ; 0x2013 <printf+0x735>
    16fb: 18           	clc
    16fc: a5 12        	lda	$12                     ; 0x2012 <printf+0x734>
    16fe: 69 05        	adc	#$5
    1700: a8           	tay
    1701: a5 13        	lda	$13                     ; 0x2013 <printf+0x735>
    1703: 86 15        	stx	$15                     ; 0x2015 <printf+0x737>
    1705: 69 00        	adc	#$0
    1707: 18           	clc
    1708: 84 16        	sty	$16                     ; 0x2016 <printf+0x738>
    170a: a0 05        	ldy	#$5
    170c: 85 17        	sta	$17                     ; 0x2017 <printf+0x739>
    170e: b1 12        	lda	($12),y                 ; 0x2012 <printf+0x734>
    1710: aa           	tax
    1711: a5 12        	lda	$12                     ; 0x2012 <printf+0x734>
    1713: 69 03        	adc	#$3
    1715: 85 14        	sta	$14                     ; 0x2014 <printf+0x736>
    1717: a5 15        	lda	$15                     ; 0x2015 <printf+0x737>
    1719: 69 00        	adc	#$0
    171b: 85 15        	sta	$15                     ; 0x2015 <printf+0x737>
    171d: a0 01        	ldy	#$1
    171f: b1 16        	lda	($16),y                 ; 0x2016 <printf+0x738>
    1721: d1 14        	cmp	($14),y                 ; 0x2014 <printf+0x736>
    1723: d0 11        	bne	$1736 <_ZN12_GLOBAL__N_13putEcP6Status+0x3f>
    1725: a0 03        	ldy	#$3
    1727: 85 17        	sta	$17                     ; 0x2017 <printf+0x739>
    1729: b1 12        	lda	($12),y                 ; 0x2012 <printf+0x734>
    172b: 85 14        	sta	$14                     ; 0x2014 <printf+0x736>
    172d: 86 16        	stx	$16                     ; 0x2016 <printf+0x738>
    172f: e4 14        	cpx	$14                     ; 0x2014 <printf+0x736>
    1731: 90 0e        	bcc	$1741 <_ZN12_GLOBAL__N_13putEcP6Status+0x4a>
    1733: 4c aa 17     	jmp	$17aa <_ZN12_GLOBAL__N_13putEcP6Status+0xb3>
    1736: 86 16        	stx	$16                     ; 0x2016 <printf+0x738>
    1738: d1 14        	cmp	($14),y                 ; 0x2014 <printf+0x736>
    173a: 85 17        	sta	$17                     ; 0x2017 <printf+0x739>
    173c: 90 03        	bcc	$1741 <_ZN12_GLOBAL__N_13putEcP6Status+0x4a>
    173e: 4c aa 17     	jmp	$17aa <_ZN12_GLOBAL__N_13putEcP6Status+0xb3>
    1741: a5 12        	lda	$12                     ; 0x2012 <printf+0x734>
    1743: 18           	clc
    1744: 69 0f        	adc	#$f
    1746: 85 14        	sta	$14                     ; 0x2014 <printf+0x736>
    1748: a5 13        	lda	$13                     ; 0x2013 <printf+0x735>
    174a: 69 00        	adc	#$0
    174c: 85 15        	sta	$15                     ; 0x2015 <printf+0x737>
    174e: a0 01        	ldy	#$1
    1750: b1 14        	lda	($14),y                 ; 0x2014 <printf+0x736>
    1752: a2 00        	ldx	#$0
    1754: 86 14        	stx	$14                     ; 0x2014 <printf+0x736>
    1756: a2 00        	ldx	#$0
    1758: 86 15        	stx	$15                     ; 0x2015 <printf+0x737>
    175a: c5 15        	cmp	$15                     ; 0x2015 <printf+0x737>
    175c: d0 2d        	bne	$178b <_ZN12_GLOBAL__N_13putEcP6Status+0x94>
    175e: a0 0f        	ldy	#$f
    1760: b1 12        	lda	($12),y                 ; 0x2012 <printf+0x734>
    1762: c5 14        	cmp	$14                     ; 0x2014 <printf+0x736>
    1764: d0 25        	bne	$178b <_ZN12_GLOBAL__N_13putEcP6Status+0x94>
    1766: a5 12        	lda	$12                     ; 0x2012 <printf+0x734>
    1768: 18           	clc
    1769: 69 09        	adc	#$9
    176b: 85 14        	sta	$14                     ; 0x2014 <printf+0x736>
    176d: a5 13        	lda	$13                     ; 0x2013 <printf+0x735>
    176f: 69 00        	adc	#$0
    1771: a0 09        	ldy	#$9
    1773: 85 15        	sta	$15                     ; 0x2015 <printf+0x737>
    1775: 18           	clc
    1776: a5 16        	lda	$16                     ; 0x2016 <printf+0x738>
    1778: 71 12        	adc	($12),y                 ; 0x2012 <printf+0x734>
    177a: aa           	tax
    177b: a0 01        	ldy	#$1
    177d: a5 17        	lda	$17                     ; 0x2017 <printf+0x739>
    177f: 71 14        	adc	($14),y                 ; 0x2014 <printf+0x736>
    1781: 86 14        	stx	$14                     ; 0x2014 <printf+0x736>
    1783: 85 15        	sta	$15                     ; 0x2015 <printf+0x737>
    1785: a5 18        	lda	$18                     ; 0x2018 <printf+0x73a>
    1787: 92 14        	sta	($14)                   ; 0x2014 <printf+0x736>
    1789: 80 1f        	bra	$17aa <_ZN12_GLOBAL__N_13putEcP6Status+0xb3>
    178b: a6 12        	ldx	$12                     ; 0x2012 <printf+0x734>
    178d: 86 94        	stx	$94                     ; 0x2094 <printf+0x7b6>
    178f: a6 13        	ldx	$13                     ; 0x2013 <printf+0x735>
    1791: 86 95        	stx	$95                     ; 0x2095 <printf+0x7b7>
    1793: a5 18        	lda	$18                     ; 0x2018 <printf+0x73a>
    1795: 85 3a        	sta	$3a                     ; 0x203a <printf+0x75c>
    1797: a2 3a        	ldx	#$3a
    1799: 86 12        	stx	$12                     ; 0x2012 <printf+0x734>
    179b: a2 00        	ldx	#$0
    179d: 86 13        	stx	$13                     ; 0x2013 <printf+0x735>
    179f: 20 83 13     	jsr	$1383 <textPrint>
    17a2: a6 94        	ldx	$94                     ; 0x2094 <printf+0x7b6>
    17a4: 86 12        	stx	$12                     ; 0x2012 <printf+0x734>
    17a6: a6 95        	ldx	$95                     ; 0x2095 <printf+0x7b7>
    17a8: 86 13        	stx	$13                     ; 0x2013 <printf+0x735>
    17aa: a0 05        	ldy	#$5
    17ac: a5 12        	lda	$12                     ; 0x2012 <printf+0x734>
    17ae: 18           	clc
    17af: 69 05        	adc	#$5
    17b1: 85 14        	sta	$14                     ; 0x2014 <printf+0x736>
    17b3: a5 13        	lda	$13                     ; 0x2013 <printf+0x735>
    17b5: 69 00        	adc	#$0
    17b7: 85 15        	sta	$15                     ; 0x2015 <printf+0x737>
    17b9: b1 12        	lda	($12),y                 ; 0x2012 <printf+0x734>
    17bb: aa           	tax
    17bc: a0 01        	ldy	#$1
    17be: b1 14        	lda	($14),y                 ; 0x2014 <printf+0x736>
    17c0: e8           	inx
    17c1: d0 01        	bne	$17c4 <_ZN12_GLOBAL__N_13putEcP6Status+0xcd>
    17c3: 1a           	inc
    17c4: 85 16        	sta	$16                     ; 0x2016 <printf+0x738>
    17c6: 8a           	txa
    17c7: a0 05        	ldy	#$5
    17c9: 91 12        	sta	($12),y                 ; 0x2012 <printf+0x734>
    17cb: a0 01        	ldy	#$1
    17cd: a5 16        	lda	$16                     ; 0x2016 <printf+0x738>
    17cf: 91 14        	sta	($14),y                 ; 0x2014 <printf+0x736>
    17d1: 60           	rts

000017d2 <_ZN12_GLOBAL__N_112print_stringEPKcP6Status>:
    17d2: a6 12        	ldx	$12                     ; 0x2012 <printf+0x734>
    17d4: 86 8c        	stx	$8c                     ; 0x208c <printf+0x7ae>
    17d6: a6 13        	ldx	$13                     ; 0x2013 <printf+0x735>
    17d8: 86 8d        	stx	$8d                     ; 0x208d <printf+0x7af>
    17da: a6 14        	ldx	$14                     ; 0x2014 <printf+0x736>
    17dc: 86 8e        	stx	$8e                     ; 0x208e <printf+0x7b0>
    17de: a6 15        	ldx	$15                     ; 0x2015 <printf+0x737>
    17e0: 86 8f        	stx	$8f                     ; 0x208f <printf+0x7b1>
    17e2: a5 8e        	lda	$8e                     ; 0x208e <printf+0x7b0>
    17e4: 18           	clc
    17e5: 69 0d        	adc	#$d
    17e7: 85 12        	sta	$12                     ; 0x2012 <printf+0x734>
    17e9: a5 8f        	lda	$8f                     ; 0x208f <printf+0x7b1>
    17eb: 69 00        	adc	#$0
    17ed: 85 13        	sta	$13                     ; 0x2013 <printf+0x735>
    17ef: a0 01        	ldy	#$1
    17f1: b1 12        	lda	($12),y                 ; 0x2012 <printf+0x734>
    17f3: 30 16        	bmi	$180b <_ZN12_GLOBAL__N_112print_stringEPKcP6Status+0x39>
    17f5: a0 0d        	ldy	#$d
    17f7: 85 12        	sta	$12                     ; 0x2012 <printf+0x734>
    17f9: b1 8e        	lda	($8e),y                 ; 0x208e <printf+0x7b0>
    17fb: a6 12        	ldx	$12                     ; 0x2012 <printf+0x734>
    17fd: 86 93        	stx	$93                     ; 0x2093 <printf+0x7b5>
    17ff: d0 0f        	bne	$1810 <_ZN12_GLOBAL__N_112print_stringEPKcP6Status+0x3e>
    1801: aa           	tax
    1802: d0 0c        	bne	$1810 <_ZN12_GLOBAL__N_112print_stringEPKcP6Status+0x3e>
    1804: 64 90        	stz	$90                     ; 0x2090 <printf+0x7b2>
    1806: a2 00        	ldx	#$0
    1808: 4c d9 18     	jmp	$18d9 <_ZN12_GLOBAL__N_112print_stringEPKcP6Status+0x107>
    180b: a9 ff        	lda	#$ff
    180d: aa           	tax
    180e: 86 93        	stx	$93                     ; 0x2093 <printf+0x7b5>
    1810: 85 90        	sta	$90                     ; 0x2090 <printf+0x7b2>
    1812: 64 12        	stz	$12                     ; 0x2012 <printf+0x734>
    1814: a4 8c        	ldy	$8c                     ; 0x208c <printf+0x7ae>
    1816: a6 8d        	ldx	$8d                     ; 0x208d <printf+0x7af>
    1818: 86 16        	stx	$16                     ; 0x2016 <printf+0x738>
    181a: 64 13        	stz	$13                     ; 0x2013 <printf+0x735>
    181c: 98           	tya
    181d: 18           	clc
    181e: 65 12        	adc	$12                     ; 0x2012 <printf+0x734>
    1820: 85 14        	sta	$14                     ; 0x2014 <printf+0x736>
    1822: a5 8d        	lda	$8d                     ; 0x208d <printf+0x7af>
    1824: 65 13        	adc	$13                     ; 0x2013 <printf+0x735>
    1826: 85 15        	sta	$15                     ; 0x2015 <printf+0x737>
    1828: b2 14        	lda	($14)                   ; 0x2014 <printf+0x736>
    182a: d0 03        	bne	$182f <_ZN12_GLOBAL__N_112print_stringEPKcP6Status+0x5d>
    182c: 4c d3 18     	jmp	$18d3 <_ZN12_GLOBAL__N_112print_stringEPKcP6Status+0x101>
    182f: e6 12        	inc	$12                     ; 0x2012 <printf+0x734>
    1831: d0 02        	bne	$1835 <_ZN12_GLOBAL__N_112print_stringEPKcP6Status+0x63>
    1833: e6 13        	inc	$13                     ; 0x2013 <printf+0x735>
    1835: a6 93        	ldx	$93                     ; 0x2093 <printf+0x7b5>
    1837: e4 13        	cpx	$13                     ; 0x2013 <printf+0x735>
    1839: d0 e1        	bne	$181c <_ZN12_GLOBAL__N_112print_stringEPKcP6Status+0x4a>
    183b: a6 90        	ldx	$90                     ; 0x2090 <printf+0x7b2>
    183d: e4 12        	cpx	$12                     ; 0x2012 <printf+0x734>
    183f: d0 db        	bne	$181c <_ZN12_GLOBAL__N_112print_stringEPKcP6Status+0x4a>
    1841: a0 01        	ldy	#$1
    1843: b1 8e        	lda	($8e),y                 ; 0x208e <printf+0x7b0>
    1845: 29 01        	and	#$1
    1847: f0 03        	beq	$184c <_ZN12_GLOBAL__N_112print_stringEPKcP6Status+0x7a>
    1849: 4c a4 18     	jmp	$18a4 <_ZN12_GLOBAL__N_112print_stringEPKcP6Status+0xd2>
    184c: a5 8e        	lda	$8e                     ; 0x208e <printf+0x7b0>
    184e: 18           	clc
    184f: 69 0b        	adc	#$b
    1851: 85 14        	sta	$14                     ; 0x2014 <printf+0x736>
    1853: a5 8f        	lda	$8f                     ; 0x208f <printf+0x7b1>
    1855: 69 00        	adc	#$0
    1857: 85 15        	sta	$15                     ; 0x2015 <printf+0x737>
    1859: a0 0b        	ldy	#$b
    185b: b1 8e        	lda	($8e),y                 ; 0x208e <printf+0x7b0>
    185d: 85 13        	sta	$13                     ; 0x2013 <printf+0x735>
    185f: a0 01        	ldy	#$1
    1861: b1 14        	lda	($14),y                 ; 0x2014 <printf+0x736>
    1863: 85 12        	sta	$12                     ; 0x2012 <printf+0x734>
    1865: a6 93        	ldx	$93                     ; 0x2093 <printf+0x7b5>
    1867: e4 12        	cpx	$12                     ; 0x2012 <printf+0x734>
    1869: d0 08        	bne	$1873 <_ZN12_GLOBAL__N_112print_stringEPKcP6Status+0xa1>
    186b: a6 90        	ldx	$90                     ; 0x2090 <printf+0x7b2>
    186d: e4 13        	cpx	$13                     ; 0x2013 <printf+0x735>
    186f: 90 06        	bcc	$1877 <_ZN12_GLOBAL__N_112print_stringEPKcP6Status+0xa5>
    1871: 80 31        	bra	$18a4 <_ZN12_GLOBAL__N_112print_stringEPKcP6Status+0xd2>
    1873: e4 12        	cpx	$12                     ; 0x2012 <printf+0x734>
    1875: b0 2d        	bcs	$18a4 <_ZN12_GLOBAL__N_112print_stringEPKcP6Status+0xd2>
    1877: 38           	sec
    1878: a5 90        	lda	$90                     ; 0x2090 <printf+0x7b2>
    187a: e5 13        	sbc	$13                     ; 0x2013 <printf+0x735>
    187c: a8           	tay
    187d: a5 93        	lda	$93                     ; 0x2093 <printf+0x7b5>
    187f: e5 12        	sbc	$12                     ; 0x2012 <printf+0x734>
    1881: 85 92        	sta	$92                     ; 0x2092 <printf+0x7b4>
    1883: a6 8e        	ldx	$8e                     ; 0x208e <printf+0x7b0>
    1885: 86 12        	stx	$12                     ; 0x2012 <printf+0x734>
    1887: a6 8f        	ldx	$8f                     ; 0x208f <printf+0x7b1>
    1889: 86 13        	stx	$13                     ; 0x2013 <printf+0x735>
    188b: 84 91        	sty	$91                     ; 0x2091 <printf+0x7b3>
    188d: a9 20        	lda	#$20
    188f: 20 f7 16     	jsr	$16f7 <_ZN12_GLOBAL__N_13putEcP6Status>
    1892: a6 92        	ldx	$92                     ; 0x2092 <printf+0x7b4>
    1894: e6 91        	inc	$91                     ; 0x2091 <printf+0x7b3>
    1896: d0 01        	bne	$1899 <_ZN12_GLOBAL__N_112print_stringEPKcP6Status+0xc7>
    1898: e8           	inx
    1899: 86 92        	stx	$92                     ; 0x2092 <printf+0x7b4>
    189b: a4 91        	ldy	$91                     ; 0x2091 <printf+0x7b3>
    189d: 8a           	txa
    189e: d0 e3        	bne	$1883 <_ZN12_GLOBAL__N_112print_stringEPKcP6Status+0xb1>
    18a0: a5 91        	lda	$91                     ; 0x2091 <printf+0x7b3>
    18a2: d0 df        	bne	$1883 <_ZN12_GLOBAL__N_112print_stringEPKcP6Status+0xb1>
    18a4: a4 93        	ldy	$93                     ; 0x2093 <printf+0x7b5>
    18a6: d0 04        	bne	$18ac <_ZN12_GLOBAL__N_112print_stringEPKcP6Status+0xda>
    18a8: a5 90        	lda	$90                     ; 0x2090 <printf+0x7b2>
    18aa: f0 26        	beq	$18d2 <_ZN12_GLOBAL__N_112print_stringEPKcP6Status+0x100>
    18ac: a2 ff        	ldx	#$ff
    18ae: c6 90        	dec	$90                     ; 0x2090 <printf+0x7b2>
    18b0: e4 90        	cpx	$90                     ; 0x2090 <printf+0x7b2>
    18b2: d0 01        	bne	$18b5 <_ZN12_GLOBAL__N_112print_stringEPKcP6Status+0xe3>
    18b4: 88           	dey
    18b5: 84 91        	sty	$91                     ; 0x2091 <printf+0x7b3>
    18b7: b2 8c        	lda	($8c)                   ; 0x208c <printf+0x7ae>
    18b9: e6 8c        	inc	$8c                     ; 0x208c <printf+0x7ae>
    18bb: d0 02        	bne	$18bf <_ZN12_GLOBAL__N_112print_stringEPKcP6Status+0xed>
    18bd: e6 8d        	inc	$8d                     ; 0x208d <printf+0x7af>
    18bf: a6 8e        	ldx	$8e                     ; 0x208e <printf+0x7b0>
    18c1: 86 12        	stx	$12                     ; 0x2012 <printf+0x734>
    18c3: a6 8f        	ldx	$8f                     ; 0x208f <printf+0x7b1>
    18c5: 86 13        	stx	$13                     ; 0x2013 <printf+0x735>
    18c7: 20 f7 16     	jsr	$16f7 <_ZN12_GLOBAL__N_13putEcP6Status>
    18ca: a4 91        	ldy	$91                     ; 0x2091 <printf+0x7b3>
    18cc: d0 de        	bne	$18ac <_ZN12_GLOBAL__N_112print_stringEPKcP6Status+0xda>
    18ce: a5 90        	lda	$90                     ; 0x2090 <printf+0x7b2>
    18d0: d0 da        	bne	$18ac <_ZN12_GLOBAL__N_112print_stringEPKcP6Status+0xda>
    18d2: 60           	rts
    18d3: a6 12        	ldx	$12                     ; 0x2012 <printf+0x734>
    18d5: 86 90        	stx	$90                     ; 0x2090 <printf+0x7b2>
    18d7: a6 13        	ldx	$13                     ; 0x2013 <printf+0x735>
    18d9: 86 93        	stx	$93                     ; 0x2093 <printf+0x7b5>
    18db: 4c 41 18     	jmp	$1841 <_ZN12_GLOBAL__N_112print_stringEPKcP6Status+0x6f>

000018de <printf>:
    18de: 18           	clc
    18df: a6 10        	ldx	$10                     ; 0x2010 <printf+0x732>
    18e1: a4 11        	ldy	$11                     ; 0x2011 <printf+0x733>
    18e3: 86 82        	stx	$82                     ; 0x2082 <printf+0x7a4>
    18e5: 84 83        	sty	$83                     ; 0x2083 <printf+0x7a5>
    18e7: a6 82        	ldx	$82                     ; 0x2082 <printf+0x7a4>
    18e9: a4 83        	ldy	$83                     ; 0x2083 <printf+0x7a5>
    18eb: 86 6d        	stx	$6d                     ; 0x206d <printf+0x78f>
    18ed: 84 6e        	sty	$6e                     ; 0x206e <printf+0x790>
    18ef: a2 ff        	ldx	#$ff
    18f1: 86 72        	stx	$72                     ; 0x2072 <printf+0x794>
    18f3: 86 73        	stx	$73                     ; 0x2073 <printf+0x795>
    18f5: 64 74        	stz	$74                     ; 0x2074 <printf+0x796>
    18f7: 64 75        	stz	$75                     ; 0x2075 <printf+0x797>
    18f9: e8           	inx
    18fa: 86 41        	stx	$41                     ; 0x2041 <printf+0x763>
    18fc: a2 00        	ldx	#$0
    18fe: 86 42        	stx	$42                     ; 0x2042 <printf+0x764>
    1900: a6 41        	ldx	$41                     ; 0x2041 <printf+0x763>
    1902: a4 42        	ldy	$42                     ; 0x2042 <printf+0x764>
    1904: 86 78        	stx	$78                     ; 0x2078 <printf+0x79a>
    1906: 84 79        	sty	$79                     ; 0x2079 <printf+0x79b>
    1908: a2 02        	ldx	#$2
    190a: 86 7e        	stx	$7e                     ; 0x207e <printf+0x7a0>
    190c: 64 7f        	stz	$7f                     ; 0x207f <printf+0x7a1>
    190e: a6 6d        	ldx	$6d                     ; 0x206d <printf+0x78f>
    1910: a4 6e        	ldy	$6e                     ; 0x206e <printf+0x790>
    1912: 86 80        	stx	$80                     ; 0x2080 <printf+0x7a2>
    1914: 84 81        	sty	$81                     ; 0x2081 <printf+0x7a3>
    1916: a2 64        	ldx	#$64
    1918: a0 00        	ldy	#$0
    191a: 86 12        	stx	$12                     ; 0x2012 <printf+0x734>
    191c: 84 13        	sty	$13                     ; 0x2013 <printf+0x735>
    191e: a0 01        	ldy	#$1
    1920: a9 4b        	lda	#$4b
    1922: 18           	clc
    1923: 69 02        	adc	#$2
    1925: 85 8a        	sta	$8a                     ; 0x208a <printf+0x7ac>
    1927: a9 00        	lda	#$0
    1929: 69 00        	adc	#$0
    192b: 85 8b        	sta	$8b                     ; 0x208b <printf+0x7ad>
    192d: e6 12        	inc	$12                     ; 0x2012 <printf+0x734>
    192f: d0 02        	bne	$1933 <printf+0x55>
    1931: e6 13        	inc	$13                     ; 0x2013 <printf+0x735>
    1933: a6 12        	ldx	$12                     ; 0x2012 <printf+0x734>
    1935: 86 86        	stx	$86                     ; 0x2086 <printf+0x7a8>
    1937: a6 13        	ldx	$13                     ; 0x2013 <printf+0x735>
    1939: 86 87        	stx	$87                     ; 0x2087 <printf+0x7a9>
    193b: a2 18        	ldx	#$18
    193d: 86 45        	stx	$45                     ; 0x2045 <printf+0x767>
    193f: a2 26        	ldx	#$26
    1941: 86 46        	stx	$46                     ; 0x2046 <printf+0x768>
    1943: a6 45        	ldx	$45                     ; 0x2045 <printf+0x767>
    1945: 86 43        	stx	$43                     ; 0x2043 <printf+0x765>
    1947: a6 46        	ldx	$46                     ; 0x2046 <printf+0x768>
    1949: 86 44        	stx	$44                     ; 0x2044 <printf+0x766>
    194b: b2 45        	lda	($45)                   ; 0x2045 <printf+0x767>
    194d: c9 25        	cmp	#$25
    194f: f0 2b        	beq	$197c <printf+0x9e>
    1951: aa           	tax
    1952: d0 03        	bne	$1957 <printf+0x79>
    1954: 4c 0c 25     	jmp	$250c <printf+0xc2e>
    1957: 85 3a        	sta	$3a                     ; 0x203a <printf+0x75c>
    1959: a2 3a        	ldx	#$3a
    195b: 86 12        	stx	$12                     ; 0x2012 <printf+0x734>
    195d: a2 00        	ldx	#$0
    195f: 86 13        	stx	$13                     ; 0x2013 <printf+0x735>
    1961: 20 83 13     	jsr	$1383 <textPrint>
    1964: a0 01        	ldy	#$1
    1966: e6 43        	inc	$43                     ; 0x2043 <printf+0x765>
    1968: d0 02        	bne	$196c <printf+0x8e>
    196a: e6 44        	inc	$44                     ; 0x2044 <printf+0x766>
    196c: e6 74        	inc	$74                     ; 0x2074 <printf+0x796>
    196e: d0 02        	bne	$1972 <printf+0x94>
    1970: e6 75        	inc	$75                     ; 0x2075 <printf+0x797>
    1972: a6 43        	ldx	$43                     ; 0x2043 <printf+0x765>
    1974: 86 45        	stx	$45                     ; 0x2045 <printf+0x767>
    1976: a6 44        	ldx	$44                     ; 0x2044 <printf+0x766>
    1978: 86 46        	stx	$46                     ; 0x2046 <printf+0x768>
    197a: 80 c7        	bra	$1943 <printf+0x65>
    197c: a6 45        	ldx	$45                     ; 0x2045 <printf+0x767>
    197e: 86 12        	stx	$12                     ; 0x2012 <printf+0x734>
    1980: a6 46        	ldx	$46                     ; 0x2046 <printf+0x768>
    1982: 86 13        	stx	$13                     ; 0x2013 <printf+0x735>
    1984: e6 12        	inc	$12                     ; 0x2012 <printf+0x734>
    1986: d0 02        	bne	$198a <printf+0xac>
    1988: e6 13        	inc	$13                     ; 0x2013 <printf+0x735>
    198a: b1 43        	lda	($43),y                 ; 0x2043 <printf+0x765>
    198c: c9 25        	cmp	#$25
    198e: d0 16        	bne	$19a6 <printf+0xc8>
    1990: a4 74        	ldy	$74                     ; 0x2074 <printf+0x796>
    1992: a5 75        	lda	$75                     ; 0x2075 <printf+0x797>
    1994: c5 73        	cmp	$73                     ; 0x2073 <printf+0x795>
    1996: f0 03        	beq	$199b <printf+0xbd>
    1998: 4c ad 1a     	jmp	$1aad <printf+0x1cf>
    199b: a6 72        	ldx	$72                     ; 0x2072 <printf+0x794>
    199d: 86 12        	stx	$12                     ; 0x2012 <printf+0x734>
    199f: 84 13        	sty	$13                     ; 0x2013 <printf+0x735>
    19a1: c4 12        	cpy	$12                     ; 0x2012 <printf+0x734>
    19a3: 4c b1 1a     	jmp	$1ab1 <printf+0x1d3>
    19a6: 64 70        	stz	$70                     ; 0x2070 <printf+0x792>
    19a8: 64 71        	stz	$71                     ; 0x2071 <printf+0x793>
    19aa: 64 6f        	stz	$6f                     ; 0x206f <printf+0x791>
    19ac: 64 7a        	stz	$7a                     ; 0x207a <printf+0x79c>
    19ae: 64 7b        	stz	$7b                     ; 0x207b <printf+0x79d>
    19b0: a2 ff        	ldx	#$ff
    19b2: 86 7c        	stx	$7c                     ; 0x207c <printf+0x79e>
    19b4: 86 7d        	stx	$7d                     ; 0x207d <printf+0x79f>
    19b6: 64 40        	stz	$40                     ; 0x2040 <printf+0x762>
    19b8: 80 33        	bra	$19ed <printf+0x10f>
    19ba: a2 02        	ldx	#$2
    19bc: 80 15        	bra	$19d3 <printf+0xf5>
    19be: e0 20        	cpx	#$20
    19c0: f0 15        	beq	$19d7 <printf+0xf9>
    19c2: 86 15        	stx	$15                     ; 0x2015 <printf+0x737>
    19c4: e0 23        	cpx	#$23
    19c6: f0 03        	beq	$19cb <printf+0xed>
    19c8: 4c 4a 1a     	jmp	$1a4a <printf+0x16c>
    19cb: a5 40        	lda	$40                     ; 0x2040 <printf+0x762>
    19cd: a2 04        	ldx	#$4
    19cf: 80 02        	bra	$19d3 <printf+0xf5>
    19d1: a2 10        	ldx	#$10
    19d3: 86 14        	stx	$14                     ; 0x2014 <printf+0x736>
    19d5: 80 06        	bra	$19dd <printf+0xff>
    19d7: a2 08        	ldx	#$8
    19d9: 86 14        	stx	$14                     ; 0x2014 <printf+0x736>
    19db: a5 40        	lda	$40                     ; 0x2040 <printf+0x762>
    19dd: 05 14        	ora	$14                     ; 0x2014 <printf+0x736>
    19df: 85 40        	sta	$40                     ; 0x2040 <printf+0x762>
    19e1: 85 70        	sta	$70                     ; 0x2070 <printf+0x792>
    19e3: a2 00        	ldx	#$0
    19e5: 86 71        	stx	$71                     ; 0x2071 <printf+0x793>
    19e7: e6 12        	inc	$12                     ; 0x2012 <printf+0x734>
    19e9: d0 02        	bne	$19ed <printf+0x10f>
    19eb: e6 13        	inc	$13                     ; 0x2013 <printf+0x735>
    19ed: b2 12        	lda	($12)                   ; 0x2012 <printf+0x734>
    19ef: aa           	tax
    19f0: 18           	clc
    19f1: 69 d6        	adc	#$d6
    19f3: c9 07        	cmp	#$7
    19f5: b0 c7        	bcs	$19be <printf+0xe0>
    19f7: 86 15        	stx	$15                     ; 0x2015 <printf+0x737>
    19f9: 0a           	asl
    19fa: aa           	tax
    19fb: a0 01        	ldy	#$1
    19fd: 84 14        	sty	$14                     ; 0x2014 <printf+0x736>
    19ff: a5 40        	lda	$40                     ; 0x2040 <printf+0x762>
    1a01: 7c 5a 25     	jmp	($255a,x)               ; 0x255a <__set_v+0x1>
    1a04: a5 80        	lda	$80                     ; 0x2080 <printf+0x7a2>
    1a06: a6 81        	ldx	$81                     ; 0x2081 <printf+0x7a3>
    1a08: 85 16        	sta	$16                     ; 0x2016 <printf+0x738>
    1a0a: 86 17        	stx	$17                     ; 0x2017 <printf+0x739>
    1a0c: 18           	clc
    1a0d: 69 02        	adc	#$2
    1a0f: a8           	tay
    1a10: 8a           	txa
    1a11: 69 00        	adc	#$0
    1a13: 84 80        	sty	$80                     ; 0x2080 <printf+0x7a2>
    1a15: 85 81        	sta	$81                     ; 0x2081 <printf+0x7a3>
    1a17: b2 16        	lda	($16)                   ; 0x2016 <printf+0x738>
    1a19: 85 15        	sta	$15                     ; 0x2015 <printf+0x737>
    1a1b: a0 01        	ldy	#$1
    1a1d: b1 16        	lda	($16),y                 ; 0x2016 <printf+0x738>
    1a1f: 85 14        	sta	$14                     ; 0x2014 <printf+0x736>
    1a21: 10 15        	bpl	$1a38 <printf+0x15a>
    1a23: a5 40        	lda	$40                     ; 0x2040 <printf+0x762>
    1a25: 09 01        	ora	#$1
    1a27: 85 40        	sta	$40                     ; 0x2040 <printf+0x762>
    1a29: 85 70        	sta	$70                     ; 0x2070 <printf+0x792>
    1a2b: a2 00        	ldx	#$0
    1a2d: 86 71        	stx	$71                     ; 0x2071 <printf+0x793>
    1a2f: 8a           	txa
    1a30: 38           	sec
    1a31: e5 15        	sbc	$15                     ; 0x2015 <printf+0x737>
    1a33: 85 15        	sta	$15                     ; 0x2015 <printf+0x737>
    1a35: 8a           	txa
    1a36: e5 14        	sbc	$14                     ; 0x2014 <printf+0x736>
    1a38: a6 15        	ldx	$15                     ; 0x2015 <printf+0x737>
    1a3a: 86 7a        	stx	$7a                     ; 0x207a <printf+0x79c>
    1a3c: 85 7b        	sta	$7b                     ; 0x207b <printf+0x79d>
    1a3e: e6 12        	inc	$12                     ; 0x2012 <printf+0x734>
    1a40: f0 03        	beq	$1a45 <printf+0x167>
    1a42: 4c 09 1b     	jmp	$1b09 <printf+0x22b>
    1a45: e6 13        	inc	$13                     ; 0x2013 <printf+0x735>
    1a47: 4c 09 1b     	jmp	$1b09 <printf+0x22b>
    1a4a: a5 15        	lda	$15                     ; 0x2015 <printf+0x737>
    1a4c: 18           	clc
    1a4d: 69 d0        	adc	#$d0
    1a4f: c9 0a        	cmp	#$a
    1a51: 90 03        	bcc	$1a56 <printf+0x178>
    1a53: 4c fb 1a     	jmp	$1afb <printf+0x21d>
    1a56: a6 15        	ldx	$15                     ; 0x2015 <printf+0x737>
    1a58: 86 14        	stx	$14                     ; 0x2014 <printf+0x736>
    1a5a: 64 16        	stz	$16                     ; 0x2016 <printf+0x738>
    1a5c: 64 15        	stz	$15                     ; 0x2015 <printf+0x737>
    1a5e: 64 17        	stz	$17                     ; 0x2017 <printf+0x739>
    1a60: a0 01        	ldy	#$1
    1a62: 06 16        	asl	$16                     ; 0x2016 <printf+0x738>
    1a64: 26 17        	rol	$17                     ; 0x2017 <printf+0x739>
    1a66: a5 16        	lda	$16                     ; 0x2016 <printf+0x738>
    1a68: 0a           	asl
    1a69: aa           	tax
    1a6a: a5 17        	lda	$17                     ; 0x2017 <printf+0x739>
    1a6c: 2a           	rol
    1a6d: 86 18        	stx	$18                     ; 0x2018 <printf+0x73a>
    1a6f: 06 18        	asl	$18                     ; 0x2018 <printf+0x73a>
    1a71: 2a           	rol
    1a72: aa           	tax
    1a73: a5 18        	lda	$18                     ; 0x2018 <printf+0x73a>
    1a75: 18           	clc
    1a76: 65 16        	adc	$16                     ; 0x2016 <printf+0x738>
    1a78: 85 16        	sta	$16                     ; 0x2016 <printf+0x738>
    1a7a: 8a           	txa
    1a7b: 65 17        	adc	$17                     ; 0x2017 <printf+0x739>
    1a7d: 85 17        	sta	$17                     ; 0x2017 <printf+0x739>
    1a7f: a5 16        	lda	$16                     ; 0x2016 <printf+0x738>
    1a81: 18           	clc
    1a82: 65 14        	adc	$14                     ; 0x2014 <printf+0x736>
    1a84: 85 14        	sta	$14                     ; 0x2014 <printf+0x736>
    1a86: a5 17        	lda	$17                     ; 0x2017 <printf+0x739>
    1a88: 65 15        	adc	$15                     ; 0x2015 <printf+0x737>
    1a8a: aa           	tax
    1a8b: 18           	clc
    1a8c: a5 14        	lda	$14                     ; 0x2014 <printf+0x736>
    1a8e: 69 d0        	adc	#$d0
    1a90: 85 16        	sta	$16                     ; 0x2016 <printf+0x738>
    1a92: 8a           	txa
    1a93: 69 ff        	adc	#$ff
    1a95: 85 17        	sta	$17                     ; 0x2017 <printf+0x739>
    1a97: b1 12        	lda	($12),y                 ; 0x2012 <printf+0x734>
    1a99: 85 14        	sta	$14                     ; 0x2014 <printf+0x736>
    1a9b: 18           	clc
    1a9c: 69 d0        	adc	#$d0
    1a9e: e6 12        	inc	$12                     ; 0x2012 <printf+0x734>
    1aa0: d0 02        	bne	$1aa4 <printf+0x1c6>
    1aa2: e6 13        	inc	$13                     ; 0x2013 <printf+0x735>
    1aa4: c9 0a        	cmp	#$a
    1aa6: 64 15        	stz	$15                     ; 0x2015 <printf+0x737>
    1aa8: 90 b8        	bcc	$1a62 <printf+0x184>
    1aaa: 4c 01 1b     	jmp	$1b01 <printf+0x223>
    1aad: 84 13        	sty	$13                     ; 0x2013 <printf+0x735>
    1aaf: c5 73        	cmp	$73                     ; 0x2073 <printf+0x795>
    1ab1: a0 01        	ldy	#$1
    1ab3: b0 30        	bcs	$1ae5 <printf+0x207>
    1ab5: a6 7f        	ldx	$7f                     ; 0x207f <printf+0x7a1>
    1ab7: e4 42        	cpx	$42                     ; 0x2042 <printf+0x764>
    1ab9: d0 19        	bne	$1ad4 <printf+0x1f6>
    1abb: a6 7e        	ldx	$7e                     ; 0x207e <printf+0x7a0>
    1abd: e4 41        	cpx	$41                     ; 0x2041 <printf+0x763>
    1abf: d0 13        	bne	$1ad4 <printf+0x1f6>
    1ac1: 18           	clc
    1ac2: aa           	tax
    1ac3: a5 13        	lda	$13                     ; 0x2013 <printf+0x735>
    1ac5: 65 78        	adc	$78                     ; 0x2078 <printf+0x79a>
    1ac7: 85 12        	sta	$12                     ; 0x2012 <printf+0x734>
    1ac9: 8a           	txa
    1aca: 65 79        	adc	$79                     ; 0x2079 <printf+0x79b>
    1acc: 85 13        	sta	$13                     ; 0x2013 <printf+0x735>
    1ace: a9 25        	lda	#$25
    1ad0: 92 12        	sta	($12)                   ; 0x2012 <printf+0x734>
    1ad2: 80 11        	bra	$1ae5 <printf+0x207>
    1ad4: a2 25        	ldx	#$25
    1ad6: 86 3a        	stx	$3a                     ; 0x203a <printf+0x75c>
    1ad8: a2 3a        	ldx	#$3a
    1ada: 86 12        	stx	$12                     ; 0x2012 <printf+0x734>
    1adc: a2 00        	ldx	#$0
    1ade: 86 13        	stx	$13                     ; 0x2013 <printf+0x735>
    1ae0: 20 83 13     	jsr	$1383 <textPrint>
    1ae3: a0 01        	ldy	#$1
    1ae5: e6 74        	inc	$74                     ; 0x2074 <printf+0x796>
    1ae7: d0 02        	bne	$1aeb <printf+0x20d>
    1ae9: e6 75        	inc	$75                     ; 0x2075 <printf+0x797>
    1aeb: a5 43        	lda	$43                     ; 0x2043 <printf+0x765>
    1aed: 18           	clc
    1aee: 69 02        	adc	#$2
    1af0: 85 45        	sta	$45                     ; 0x2045 <printf+0x767>
    1af2: a5 44        	lda	$44                     ; 0x2044 <printf+0x766>
    1af4: 69 00        	adc	#$0
    1af6: 85 46        	sta	$46                     ; 0x2046 <printf+0x768>
    1af8: 4c 43 19     	jmp	$1943 <printf+0x65>
    1afb: 64 16        	stz	$16                     ; 0x2016 <printf+0x738>
    1afd: 64 17        	stz	$17                     ; 0x2017 <printf+0x739>
    1aff: a0 01        	ldy	#$1
    1b01: a6 16        	ldx	$16                     ; 0x2016 <printf+0x738>
    1b03: 86 7a        	stx	$7a                     ; 0x207a <printf+0x79c>
    1b05: a5 17        	lda	$17                     ; 0x2017 <printf+0x739>
    1b07: 85 7b        	sta	$7b                     ; 0x207b <printf+0x79d>
    1b09: 86 49        	stx	$49                     ; 0x2049 <printf+0x76b>
    1b0b: 85 47        	sta	$47                     ; 0x2047 <printf+0x769>
    1b0d: b2 12        	lda	($12)                   ; 0x2012 <printf+0x734>
    1b0f: a2 ff        	ldx	#$ff
    1b11: c9 2e        	cmp	#$2e
    1b13: d0 39        	bne	$1b4e <printf+0x270>
    1b15: b1 12        	lda	($12),y                 ; 0x2012 <printf+0x734>
    1b17: c9 2a        	cmp	#$2a
    1b19: d0 38        	bne	$1b53 <printf+0x275>
    1b1b: a5 80        	lda	$80                     ; 0x2080 <printf+0x7a2>
    1b1d: a6 81        	ldx	$81                     ; 0x2081 <printf+0x7a3>
    1b1f: 85 14        	sta	$14                     ; 0x2014 <printf+0x736>
    1b21: 86 15        	stx	$15                     ; 0x2015 <printf+0x737>
    1b23: 18           	clc
    1b24: 69 02        	adc	#$2
    1b26: 85 16        	sta	$16                     ; 0x2016 <printf+0x738>
    1b28: 8a           	txa
    1b29: 69 00        	adc	#$0
    1b2b: a6 16        	ldx	$16                     ; 0x2016 <printf+0x738>
    1b2d: 86 80        	stx	$80                     ; 0x2080 <printf+0x7a2>
    1b2f: 85 81        	sta	$81                     ; 0x2081 <printf+0x7a3>
    1b31: a5 12        	lda	$12                     ; 0x2012 <printf+0x734>
    1b33: 18           	clc
    1b34: 69 02        	adc	#$2
    1b36: 85 12        	sta	$12                     ; 0x2012 <printf+0x734>
    1b38: a5 13        	lda	$13                     ; 0x2013 <printf+0x735>
    1b3a: 69 00        	adc	#$0
    1b3c: 85 13        	sta	$13                     ; 0x2013 <printf+0x735>
    1b3e: b2 14        	lda	($14)                   ; 0x2014 <printf+0x736>
    1b40: aa           	tax
    1b41: b1 14        	lda	($14),y                 ; 0x2014 <printf+0x736>
    1b43: 86 18        	stx	$18                     ; 0x2018 <printf+0x73a>
    1b45: 86 7c        	stx	$7c                     ; 0x207c <printf+0x79e>
    1b47: 85 19        	sta	$19                     ; 0x2019 <printf+0x73b>
    1b49: 85 7d        	sta	$7d                     ; 0x207d <printf+0x79f>
    1b4b: 4c fe 1b     	jmp	$1bfe <printf+0x320>
    1b4e: 86 18        	stx	$18                     ; 0x2018 <printf+0x73a>
    1b50: 4c 0e 1c     	jmp	$1c0e <printf+0x330>
    1b53: 85 17        	sta	$17                     ; 0x2017 <printf+0x739>
    1b55: 18           	clc
    1b56: 69 d0        	adc	#$d0
    1b58: c9 0a        	cmp	#$a
    1b5a: 90 03        	bcc	$1b5f <printf+0x281>
    1b5c: 4c f0 1b     	jmp	$1bf0 <printf+0x312>
    1b5f: 64 16        	stz	$16                     ; 0x2016 <printf+0x738>
    1b61: a2 01        	ldx	#$1
    1b63: 64 18        	stz	$18                     ; 0x2018 <printf+0x73a>
    1b65: 64 19        	stz	$19                     ; 0x2019 <printf+0x73b>
    1b67: a0 01        	ldy	#$1
    1b69: 64 1a        	stz	$1a                     ; 0x201a <printf+0x73c>
    1b6b: 5a           	phy
    1b6c: a4 1a        	ldy	$1a                     ; 0x201a <printf+0x73c>
    1b6e: 84 14        	sty	$14                     ; 0x2014 <printf+0x736>
    1b70: 86 15        	stx	$15                     ; 0x2015 <printf+0x737>
    1b72: 06 18        	asl	$18                     ; 0x2018 <printf+0x73a>
    1b74: 26 19        	rol	$19                     ; 0x2019 <printf+0x73b>
    1b76: a5 18        	lda	$18                     ; 0x2018 <printf+0x73a>
    1b78: 0a           	asl
    1b79: 85 1d        	sta	$1d                     ; 0x201d <printf+0x73f>
    1b7b: a5 19        	lda	$19                     ; 0x2019 <printf+0x73b>
    1b7d: 2a           	rol
    1b7e: 06 1d        	asl	$1d                     ; 0x201d <printf+0x73f>
    1b80: 2a           	rol
    1b81: 85 1e        	sta	$1e                     ; 0x201e <printf+0x740>
    1b83: a5 1d        	lda	$1d                     ; 0x201d <printf+0x73f>
    1b85: 18           	clc
    1b86: 65 18        	adc	$18                     ; 0x2018 <printf+0x73a>
    1b88: 85 18        	sta	$18                     ; 0x2018 <printf+0x73a>
    1b8a: a5 1e        	lda	$1e                     ; 0x201e <printf+0x740>
    1b8c: 65 19        	adc	$19                     ; 0x2019 <printf+0x73b>
    1b8e: 85 19        	sta	$19                     ; 0x2019 <printf+0x73b>
    1b90: a5 18        	lda	$18                     ; 0x2018 <printf+0x73a>
    1b92: 18           	clc
    1b93: 65 17        	adc	$17                     ; 0x2017 <printf+0x739>
    1b95: 85 17        	sta	$17                     ; 0x2017 <printf+0x739>
    1b97: a5 19        	lda	$19                     ; 0x2019 <printf+0x73b>
    1b99: 65 16        	adc	$16                     ; 0x2016 <printf+0x738>
    1b9b: 85 16        	sta	$16                     ; 0x2016 <printf+0x738>
    1b9d: 18           	clc
    1b9e: a5 17        	lda	$17                     ; 0x2017 <printf+0x739>
    1ba0: 69 d0        	adc	#$d0
    1ba2: 85 18        	sta	$18                     ; 0x2018 <printf+0x73a>
    1ba4: a5 16        	lda	$16                     ; 0x2016 <printf+0x738>
    1ba6: 69 ff        	adc	#$ff
    1ba8: 85 19        	sta	$19                     ; 0x2019 <printf+0x73b>
    1baa: e8           	inx
    1bab: d0 02        	bne	$1baf <printf+0x2d1>
    1bad: e6 1a        	inc	$1a                     ; 0x201a <printf+0x73c>
    1baf: a5 12        	lda	$12                     ; 0x2012 <printf+0x734>
    1bb1: 18           	clc
    1bb2: 65 15        	adc	$15                     ; 0x2015 <printf+0x737>
    1bb4: 85 1d        	sta	$1d                     ; 0x201d <printf+0x73f>
    1bb6: a5 13        	lda	$13                     ; 0x2013 <printf+0x735>
    1bb8: 65 14        	adc	$14                     ; 0x2014 <printf+0x736>
    1bba: a4 1d        	ldy	$1d                     ; 0x201d <printf+0x73f>
    1bbc: 84 16        	sty	$16                     ; 0x2016 <printf+0x738>
    1bbe: 7a           	ply
    1bbf: 85 17        	sta	$17                     ; 0x2017 <printf+0x739>
    1bc1: b1 16        	lda	($16),y                 ; 0x2016 <printf+0x738>
    1bc3: 85 17        	sta	$17                     ; 0x2017 <printf+0x739>
    1bc5: 18           	clc
    1bc6: 69 d0        	adc	#$d0
    1bc8: c9 0a        	cmp	#$a
    1bca: 64 16        	stz	$16                     ; 0x2016 <printf+0x738>
    1bcc: b0 03        	bcs	$1bd1 <printf+0x2f3>
    1bce: 4c 6b 1b     	jmp	$1b6b <printf+0x28d>
    1bd1: a5 12        	lda	$12                     ; 0x2012 <printf+0x734>
    1bd3: 18           	clc
    1bd4: 65 15        	adc	$15                     ; 0x2015 <printf+0x737>
    1bd6: 85 12        	sta	$12                     ; 0x2012 <printf+0x734>
    1bd8: a5 13        	lda	$13                     ; 0x2013 <printf+0x735>
    1bda: 65 14        	adc	$14                     ; 0x2014 <printf+0x736>
    1bdc: 85 13        	sta	$13                     ; 0x2013 <printf+0x735>
    1bde: e6 12        	inc	$12                     ; 0x2012 <printf+0x734>
    1be0: d0 02        	bne	$1be4 <printf+0x306>
    1be2: e6 13        	inc	$13                     ; 0x2013 <printf+0x735>
    1be4: a6 18        	ldx	$18                     ; 0x2018 <printf+0x73a>
    1be6: 86 7c        	stx	$7c                     ; 0x207c <printf+0x79e>
    1be8: a6 19        	ldx	$19                     ; 0x2019 <printf+0x73b>
    1bea: 86 7d        	stx	$7d                     ; 0x207d <printf+0x79f>
    1bec: a0 01        	ldy	#$1
    1bee: 80 0e        	bra	$1bfe <printf+0x320>
    1bf0: e6 12        	inc	$12                     ; 0x2012 <printf+0x734>
    1bf2: d0 02        	bne	$1bf6 <printf+0x318>
    1bf4: e6 13        	inc	$13                     ; 0x2013 <printf+0x735>
    1bf6: 64 18        	stz	$18                     ; 0x2018 <printf+0x73a>
    1bf8: 64 7c        	stz	$7c                     ; 0x207c <printf+0x79e>
    1bfa: 64 7d        	stz	$7d                     ; 0x207d <printf+0x79f>
    1bfc: 64 19        	stz	$19                     ; 0x2019 <printf+0x73b>
    1bfe: a5 40        	lda	$40                     ; 0x2040 <printf+0x762>
    1c00: 29 ef        	and	#$ef
    1c02: 85 40        	sta	$40                     ; 0x2040 <printf+0x762>
    1c04: 85 70        	sta	$70                     ; 0x2070 <printf+0x792>
    1c06: a2 00        	ldx	#$0
    1c08: 86 71        	stx	$71                     ; 0x2071 <printf+0x793>
    1c0a: b2 12        	lda	($12)                   ; 0x2012 <printf+0x734>
    1c0c: a6 19        	ldx	$19                     ; 0x2019 <printf+0x73b>
    1c0e: 86 15        	stx	$15                     ; 0x2015 <printf+0x737>
    1c10: a6 12        	ldx	$12                     ; 0x2012 <printf+0x734>
    1c12: 86 45        	stx	$45                     ; 0x2045 <printf+0x767>
    1c14: a6 13        	ldx	$13                     ; 0x2013 <printf+0x735>
    1c16: 86 46        	stx	$46                     ; 0x2046 <printf+0x768>
    1c18: e6 45        	inc	$45                     ; 0x2045 <printf+0x767>
    1c1a: d0 02        	bne	$1c1e <printf+0x340>
    1c1c: e6 46        	inc	$46                     ; 0x2046 <printf+0x768>
    1c1e: 85 14        	sta	$14                     ; 0x2014 <printf+0x736>
    1c20: 38           	sec
    1c21: e9 6c        	sbc	#$6c
    1c23: 50 02        	bvc	$1c27 <printf+0x349>
    1c25: 49 80        	eor	#$80
    1c27: aa           	tax
    1c28: 10 1d        	bpl	$1c47 <printf+0x369>
    1c2a: a5 14        	lda	$14                     ; 0x2014 <printf+0x736>
    1c2c: c9 4c        	cmp	#$4c
    1c2e: f0 27        	beq	$1c57 <printf+0x379>
    1c30: c9 68        	cmp	#$68
    1c32: d0 03        	bne	$1c37 <printf+0x359>
    1c34: 4c be 1c     	jmp	$1cbe <printf+0x3e0>
    1c37: a2 08        	ldx	#$8
    1c39: c9 6a        	cmp	#$6a
    1c3b: d0 2e        	bne	$1c6b <printf+0x38d>
    1c3d: a5 45        	lda	$45                     ; 0x2045 <printf+0x767>
    1c3f: 85 12        	sta	$12                     ; 0x2012 <printf+0x734>
    1c41: a5 46        	lda	$46                     ; 0x2046 <printf+0x768>
    1c43: 85 13        	sta	$13                     ; 0x2013 <printf+0x735>
    1c45: 80 43        	bra	$1c8a <printf+0x3ac>
    1c47: a6 14        	ldx	$14                     ; 0x2014 <printf+0x736>
    1c49: e0 6c        	cpx	#$6c
    1c4b: f0 23        	beq	$1c70 <printf+0x392>
    1c4d: e0 74        	cpx	#$74
    1c4f: f0 12        	beq	$1c63 <printf+0x385>
    1c51: e0 7a        	cpx	#$7a
    1c53: f0 0e        	beq	$1c63 <printf+0x385>
    1c55: 80 14        	bra	$1c6b <printf+0x38d>
    1c57: a5 40        	lda	$40                     ; 0x2040 <printf+0x762>
    1c59: 09 40        	ora	#$40
    1c5b: 85 40        	sta	$40                     ; 0x2040 <printf+0x762>
    1c5d: 85 70        	sta	$70                     ; 0x2070 <printf+0x792>
    1c5f: a2 00        	ldx	#$0
    1c61: 86 71        	stx	$71                     ; 0x2071 <printf+0x793>
    1c63: a6 45        	ldx	$45                     ; 0x2045 <printf+0x767>
    1c65: 86 12        	stx	$12                     ; 0x2012 <printf+0x734>
    1c67: a6 46        	ldx	$46                     ; 0x2046 <printf+0x768>
    1c69: 86 13        	stx	$13                     ; 0x2013 <printf+0x735>
    1c6b: a2 02        	ldx	#$2
    1c6d: 8a           	txa
    1c6e: 80 1c        	bra	$1c8c <printf+0x3ae>
    1c70: b1 12        	lda	($12),y                 ; 0x2012 <printf+0x734>
    1c72: a2 04        	ldx	#$4
    1c74: c9 6c        	cmp	#$6c
    1c76: f0 03        	beq	$1c7b <printf+0x39d>
    1c78: 4c cd 1f     	jmp	$1fcd <printf+0x6ef>
    1c7b: a5 12        	lda	$12                     ; 0x2012 <printf+0x734>
    1c7d: 18           	clc
    1c7e: 69 02        	adc	#$2
    1c80: 85 12        	sta	$12                     ; 0x2012 <printf+0x734>
    1c82: a5 13        	lda	$13                     ; 0x2013 <printf+0x735>
    1c84: 69 00        	adc	#$0
    1c86: 85 13        	sta	$13                     ; 0x2013 <printf+0x735>
    1c88: a2 08        	ldx	#$8
    1c8a: a9 08        	lda	#$8
    1c8c: 85 85        	sta	$85                     ; 0x2085 <printf+0x7a7>
    1c8e: b2 12        	lda	($12)                   ; 0x2012 <printf+0x734>
    1c90: 5a           	phy
    1c91: a4 12        	ldy	$12                     ; 0x2012 <printf+0x734>
    1c93: 84 45        	sty	$45                     ; 0x2045 <printf+0x767>
    1c95: a4 13        	ldy	$13                     ; 0x2013 <printf+0x735>
    1c97: 84 46        	sty	$46                     ; 0x2046 <printf+0x768>
    1c99: 7a           	ply
    1c9a: 86 41        	stx	$41                     ; 0x2041 <printf+0x763>
    1c9c: aa           	tax
    1c9d: 18           	clc
    1c9e: 69 9d        	adc	#$9d
    1ca0: c9 16        	cmp	#$16
    1ca2: b0 39        	bcs	$1cdd <printf+0x3ff>
    1ca4: 0a           	asl
    1ca5: aa           	tax
    1ca6: 7c 68 25     	jmp	($2568,x)               ; 0x2568 <__set_v+0xf>
    1ca9: a6 15        	ldx	$15                     ; 0x2015 <printf+0x737>
    1cab: 86 88        	stx	$88                     ; 0x2088 <printf+0x7aa>
    1cad: a6 18        	ldx	$18                     ; 0x2018 <printf+0x73a>
    1caf: 86 89        	stx	$89                     ; 0x2089 <printf+0x7ab>
    1cb1: a0 0a        	ldy	#$a
    1cb3: a2 0a        	ldx	#$a
    1cb5: 86 84        	stx	$84                     ; 0x2084 <printf+0x7a6>
    1cb7: 84 6f        	sty	$6f                     ; 0x206f <printf+0x791>
    1cb9: 64 4a        	stz	$4a                     ; 0x204a <printf+0x76c>
    1cbb: 4c dd 1d     	jmp	$1ddd <printf+0x4ff>
    1cbe: b1 12        	lda	($12),y                 ; 0x2012 <printf+0x734>
    1cc0: a2 02        	ldx	#$2
    1cc2: c9 68        	cmp	#$68
    1cc4: f0 03        	beq	$1cc9 <printf+0x3eb>
    1cc6: 4c d3 1f     	jmp	$1fd3 <printf+0x6f5>
    1cc9: a5 12        	lda	$12                     ; 0x2012 <printf+0x734>
    1ccb: 18           	clc
    1ccc: 69 02        	adc	#$2
    1cce: 85 12        	sta	$12                     ; 0x2012 <printf+0x734>
    1cd0: a5 13        	lda	$13                     ; 0x2013 <printf+0x735>
    1cd2: 69 00        	adc	#$0
    1cd4: 85 13        	sta	$13                     ; 0x2013 <printf+0x735>
    1cd6: a2 01        	ldx	#$1
    1cd8: 86 85        	stx	$85                     ; 0x2085 <printf+0x7a7>
    1cda: e8           	inx
    1cdb: 80 b1        	bra	$1c8e <printf+0x3b0>
    1cdd: e0 58        	cpx	#$58
    1cdf: f0 03        	beq	$1ce4 <printf+0x406>
    1ce1: 4c c8 24     	jmp	$24c8 <printf+0xbea>
    1ce4: a6 15        	ldx	$15                     ; 0x2015 <printf+0x737>
    1ce6: 86 88        	stx	$88                     ; 0x2088 <printf+0x7aa>
    1ce8: a6 18        	ldx	$18                     ; 0x2018 <printf+0x73a>
    1cea: 86 89        	stx	$89                     ; 0x2089 <printf+0x7ab>
    1cec: a2 10        	ldx	#$10
    1cee: 86 6f        	stx	$6f                     ; 0x206f <printf+0x791>
    1cf0: a9 00        	lda	#$0
    1cf2: 09 01        	ora	#$1
    1cf4: a6 40        	ldx	$40                     ; 0x2040 <printf+0x762>
    1cf6: 80 29        	bra	$1d21 <printf+0x443>
    1cf8: a6 15        	ldx	$15                     ; 0x2015 <printf+0x737>
    1cfa: 86 88        	stx	$88                     ; 0x2088 <printf+0x7aa>
    1cfc: a6 18        	ldx	$18                     ; 0x2018 <printf+0x73a>
    1cfe: 86 89        	stx	$89                     ; 0x2089 <printf+0x7ab>
    1d00: a2 10        	ldx	#$10
    1d02: 86 6f        	stx	$6f                     ; 0x206f <printf+0x791>
    1d04: a5 40        	lda	$40                     ; 0x2040 <printf+0x762>
    1d06: 09 84        	ora	#$84
    1d08: 80 10        	bra	$1d1a <printf+0x43c>
    1d0a: a6 15        	ldx	$15                     ; 0x2015 <printf+0x737>
    1d0c: 86 88        	stx	$88                     ; 0x2088 <printf+0x7aa>
    1d0e: a6 18        	ldx	$18                     ; 0x2018 <printf+0x73a>
    1d10: 86 89        	stx	$89                     ; 0x2089 <printf+0x7ab>
    1d12: a2 10        	ldx	#$10
    1d14: 86 6f        	stx	$6f                     ; 0x206f <printf+0x791>
    1d16: a5 40        	lda	$40                     ; 0x2040 <printf+0x762>
    1d18: 09 80        	ora	#$80
    1d1a: aa           	tax
    1d1b: a9 00        	lda	#$0
    1d1d: 09 01        	ora	#$1
    1d1f: 86 40        	stx	$40                     ; 0x2040 <printf+0x762>
    1d21: 86 70        	stx	$70                     ; 0x2070 <printf+0x792>
    1d23: 85 4a        	sta	$4a                     ; 0x204a <printf+0x76c>
    1d25: 85 71        	sta	$71                     ; 0x2071 <printf+0x793>
    1d27: a2 10        	ldx	#$10
    1d29: 86 84        	stx	$84                     ; 0x2084 <printf+0x7a6>
    1d2b: 4c dd 1d     	jmp	$1ddd <printf+0x4ff>
    1d2e: a5 80        	lda	$80                     ; 0x2080 <printf+0x7a2>
    1d30: a6 81        	ldx	$81                     ; 0x2081 <printf+0x7a3>
    1d32: 85 12        	sta	$12                     ; 0x2012 <printf+0x734>
    1d34: 86 13        	stx	$13                     ; 0x2013 <printf+0x735>
    1d36: 18           	clc
    1d37: 69 02        	adc	#$2
    1d39: 85 14        	sta	$14                     ; 0x2014 <printf+0x736>
    1d3b: 8a           	txa
    1d3c: 69 00        	adc	#$0
    1d3e: a6 14        	ldx	$14                     ; 0x2014 <printf+0x736>
    1d40: 86 80        	stx	$80                     ; 0x2080 <printf+0x7a2>
    1d42: 85 81        	sta	$81                     ; 0x2081 <printf+0x7a3>
    1d44: b2 12        	lda	($12)                   ; 0x2012 <printf+0x734>
    1d46: aa           	tax
    1d47: b1 12        	lda	($12),y                 ; 0x2012 <printf+0x734>
    1d49: 86 12        	stx	$12                     ; 0x2012 <printf+0x734>
    1d4b: 85 13        	sta	$13                     ; 0x2013 <printf+0x735>
    1d4d: a5 74        	lda	$74                     ; 0x2074 <printf+0x796>
    1d4f: a6 75        	ldx	$75                     ; 0x2075 <printf+0x797>
    1d51: 92 12        	sta	($12)                   ; 0x2012 <printf+0x734>
    1d53: 8a           	txa
    1d54: 91 12        	sta	($12),y                 ; 0x2012 <printf+0x734>
    1d56: 4c b6 1d     	jmp	$1db6 <printf+0x4d8>
    1d59: a5 80        	lda	$80                     ; 0x2080 <printf+0x7a2>
    1d5b: a6 81        	ldx	$81                     ; 0x2081 <printf+0x7a3>
    1d5d: 85 12        	sta	$12                     ; 0x2012 <printf+0x734>
    1d5f: 86 13        	stx	$13                     ; 0x2013 <printf+0x735>
    1d61: 18           	clc
    1d62: 69 02        	adc	#$2
    1d64: 85 14        	sta	$14                     ; 0x2014 <printf+0x736>
    1d66: 8a           	txa
    1d67: 69 00        	adc	#$0
    1d69: a6 14        	ldx	$14                     ; 0x2014 <printf+0x736>
    1d6b: 86 80        	stx	$80                     ; 0x2080 <printf+0x7a2>
    1d6d: 85 81        	sta	$81                     ; 0x2081 <printf+0x7a3>
    1d6f: b2 12        	lda	($12)                   ; 0x2012 <printf+0x734>
    1d71: aa           	tax
    1d72: b1 12        	lda	($12),y                 ; 0x2012 <printf+0x734>
    1d74: 86 12        	stx	$12                     ; 0x2012 <printf+0x734>
    1d76: 85 13        	sta	$13                     ; 0x2013 <printf+0x735>
    1d78: 80 2f        	bra	$1da9 <printf+0x4cb>
    1d7a: a6 15        	ldx	$15                     ; 0x2015 <printf+0x737>
    1d7c: 86 88        	stx	$88                     ; 0x2088 <printf+0x7aa>
    1d7e: a6 18        	ldx	$18                     ; 0x2018 <printf+0x73a>
    1d80: 86 89        	stx	$89                     ; 0x2089 <printf+0x7ab>
    1d82: a0 08        	ldy	#$8
    1d84: a2 08        	ldx	#$8
    1d86: 80 45        	bra	$1dcd <printf+0x4ef>
    1d88: a5 80        	lda	$80                     ; 0x2080 <printf+0x7a2>
    1d8a: a6 81        	ldx	$81                     ; 0x2081 <printf+0x7a3>
    1d8c: 85 12        	sta	$12                     ; 0x2012 <printf+0x734>
    1d8e: 86 13        	stx	$13                     ; 0x2013 <printf+0x735>
    1d90: 18           	clc
    1d91: 69 02        	adc	#$2
    1d93: a8           	tay
    1d94: 8a           	txa
    1d95: 69 00        	adc	#$0
    1d97: 84 80        	sty	$80                     ; 0x2080 <printf+0x7a2>
    1d99: 85 81        	sta	$81                     ; 0x2081 <printf+0x7a3>
    1d9b: b2 12        	lda	($12)                   ; 0x2012 <printf+0x734>
    1d9d: 85 62        	sta	$62                     ; 0x2062 <printf+0x784>
    1d9f: 64 63        	stz	$63                     ; 0x2063 <printf+0x785>
    1da1: a2 62        	ldx	#$62
    1da3: 86 12        	stx	$12                     ; 0x2012 <printf+0x734>
    1da5: a2 00        	ldx	#$0
    1da7: 86 13        	stx	$13                     ; 0x2013 <printf+0x735>
    1da9: a2 6f        	ldx	#$6f
    1dab: 86 14        	stx	$14                     ; 0x2014 <printf+0x736>
    1dad: a2 00        	ldx	#$0
    1daf: 86 15        	stx	$15                     ; 0x2015 <printf+0x737>
    1db1: 20 d2 17     	jsr	$17d2 <_ZN12_GLOBAL__N_112print_stringEPKcP6Status>
    1db4: a0 01        	ldy	#$1
    1db6: a2 00        	ldx	#$0
    1db8: 86 41        	stx	$41                     ; 0x2041 <printf+0x763>
    1dba: a2 00        	ldx	#$0
    1dbc: 86 42        	stx	$42                     ; 0x2042 <printf+0x764>
    1dbe: 4c b0 24     	jmp	$24b0 <printf+0xbd2>
    1dc1: a6 15        	ldx	$15                     ; 0x2015 <printf+0x737>
    1dc3: 86 88        	stx	$88                     ; 0x2088 <printf+0x7aa>
    1dc5: a6 18        	ldx	$18                     ; 0x2018 <printf+0x73a>
    1dc7: 86 89        	stx	$89                     ; 0x2089 <printf+0x7ab>
    1dc9: a0 0a        	ldy	#$a
    1dcb: a2 0a        	ldx	#$a
    1dcd: 86 84        	stx	$84                     ; 0x2084 <printf+0x7a6>
    1dcf: 84 6f        	sty	$6f                     ; 0x206f <printf+0x791>
    1dd1: a9 00        	lda	#$0
    1dd3: 09 01        	ora	#$1
    1dd5: a6 40        	ldx	$40                     ; 0x2040 <printf+0x762>
    1dd7: 86 70        	stx	$70                     ; 0x2070 <printf+0x792>
    1dd9: 85 4a        	sta	$4a                     ; 0x204a <printf+0x76c>
    1ddb: 85 71        	sta	$71                     ; 0x2071 <printf+0x793>
    1ddd: a5 85        	lda	$85                     ; 0x2085 <printf+0x7a7>
    1ddf: 85 64        	sta	$64                     ; 0x2064 <printf+0x786>
    1de1: a4 80        	ldy	$80                     ; 0x2080 <printf+0x7a2>
    1de3: a6 81        	ldx	$81                     ; 0x2081 <printf+0x7a3>
    1de5: 86 48        	stx	$48                     ; 0x2048 <printf+0x76a>
    1de7: 84 14        	sty	$14                     ; 0x2014 <printf+0x736>
    1de9: 84 3f        	sty	$3f                     ; 0x203f <printf+0x761>
    1deb: 86 15        	stx	$15                     ; 0x2015 <printf+0x737>
    1ded: a6 86        	ldx	$86                     ; 0x2086 <printf+0x7a8>
    1def: 86 12        	stx	$12                     ; 0x2012 <printf+0x734>
    1df1: a6 87        	ldx	$87                     ; 0x2087 <printf+0x7a9>
    1df3: 86 13        	stx	$13                     ; 0x2013 <printf+0x735>
    1df5: a2 00        	ldx	#$0
    1df7: 85 42        	sta	$42                     ; 0x2042 <printf+0x764>
    1df9: 20 0d 25     	jsr	$250d <memcpy>
    1dfc: 18           	clc
    1dfd: a5 3f        	lda	$3f                     ; 0x203f <printf+0x761>
    1dff: 65 41        	adc	$41                     ; 0x2041 <printf+0x763>
    1e01: aa           	tax
    1e02: a5 48        	lda	$48                     ; 0x2048 <printf+0x76a>
    1e04: 69 00        	adc	#$0
    1e06: 86 80        	stx	$80                     ; 0x2080 <printf+0x7a2>
    1e08: 85 81        	sta	$81                     ; 0x2081 <printf+0x7a3>
    1e0a: a5 4a        	lda	$4a                     ; 0x204a <printf+0x76c>
    1e0c: 29 01        	and	#$1
    1e0e: b8           	clv
    1e0f: f0 03        	beq	$1e14 <printf+0x536>
    1e11: 4c 68 1e     	jmp	$1e68 <printf+0x58a>
    1e14: a6 42        	ldx	$42                     ; 0x2042 <printf+0x764>
    1e16: b5 64        	lda	$64,x                   ; 0x2064 <printf+0x786>
    1e18: aa           	tax
    1e19: a0 01        	ldy	#$1
    1e1b: a5 47        	lda	$47                     ; 0x2047 <printf+0x769>
    1e1d: 85 1a        	sta	$1a                     ; 0x201a <printf+0x73c>
    1e1f: a5 89        	lda	$89                     ; 0x2089 <printf+0x7ab>
    1e21: 85 47        	sta	$47                     ; 0x2047 <printf+0x769>
    1e23: a9 00        	lda	#$0
    1e25: 85 41        	sta	$41                     ; 0x2041 <printf+0x763>
    1e27: a9 00        	lda	#$0
    1e29: 85 42        	sta	$42                     ; 0x2042 <printf+0x764>
    1e2b: a5 88        	lda	$88                     ; 0x2088 <printf+0x7aa>
    1e2d: 85 48        	sta	$48                     ; 0x2048 <printf+0x76a>
    1e2f: 8a           	txa
    1e30: 10 4c        	bpl	$1e7e <printf+0x5a0>
    1e32: a2 00        	ldx	#$0
    1e34: 64 12        	stz	$12                     ; 0x2012 <printf+0x734>
    1e36: a9 00        	lda	#$0
    1e38: 38           	sec
    1e39: f5 65        	sbc	$65,x                   ; 0x2065 <printf+0x787>
    1e3b: a0 00        	ldy	#$0
    1e3d: b0 02        	bcs	$1e41 <printf+0x563>
    1e3f: a0 01        	ldy	#$1
    1e41: 38           	sec
    1e42: e5 12        	sbc	$12                     ; 0x2012 <printf+0x734>
    1e44: 85 13        	sta	$13                     ; 0x2013 <printf+0x735>
    1e46: 64 12        	stz	$12                     ; 0x2012 <printf+0x734>
    1e48: b0 04        	bcs	$1e4e <printf+0x570>
    1e4a: a9 01        	lda	#$1
    1e4c: 85 12        	sta	$12                     ; 0x2012 <printf+0x734>
    1e4e: 98           	tya
    1e4f: 05 12        	ora	$12                     ; 0x2012 <printf+0x734>
    1e51: 85 12        	sta	$12                     ; 0x2012 <printf+0x734>
    1e53: a5 13        	lda	$13                     ; 0x2013 <printf+0x735>
    1e55: 9d 65 00     	sta	$65,x                   ; 0x65 <__rc31+0x36>
    1e58: e8           	inx
    1e59: 86 13        	stx	$13                     ; 0x2013 <printf+0x735>
    1e5b: a4 85        	ldy	$85                     ; 0x2085 <printf+0x7a7>
    1e5d: c4 13        	cpy	$13                     ; 0x2013 <printf+0x735>
    1e5f: d0 d5        	bne	$1e36 <printf+0x558>
    1e61: 2c 59 25     	bit	$2559                   ; 0x2559 <__set_v>
    1e64: a0 01        	ldy	#$1
    1e66: 80 16        	bra	$1e7e <printf+0x5a0>
    1e68: a0 01        	ldy	#$1
    1e6a: a6 47        	ldx	$47                     ; 0x2047 <printf+0x769>
    1e6c: 86 1a        	stx	$1a                     ; 0x201a <printf+0x73c>
    1e6e: a6 89        	ldx	$89                     ; 0x2089 <printf+0x7ab>
    1e70: 86 47        	stx	$47                     ; 0x2047 <printf+0x769>
    1e72: a2 00        	ldx	#$0
    1e74: 86 41        	stx	$41                     ; 0x2041 <printf+0x763>
    1e76: a2 00        	ldx	#$0
    1e78: 86 42        	stx	$42                     ; 0x2042 <printf+0x764>
    1e7a: a6 88        	ldx	$88                     ; 0x2088 <printf+0x7aa>
    1e7c: 86 48        	stx	$48                     ; 0x2048 <printf+0x76a>
    1e7e: a2 01        	ldx	#$1
    1e80: 70 02        	bvs	$1e84 <printf+0x5a6>
    1e82: a2 00        	ldx	#$0
    1e84: 86 16        	stx	$16                     ; 0x2016 <printf+0x738>
    1e86: a5 85        	lda	$85                     ; 0x2085 <printf+0x7a7>
    1e88: 0a           	asl
    1e89: 0a           	asl
    1e8a: 0a           	asl
    1e8b: 85 12        	sta	$12                     ; 0x2012 <printf+0x734>
    1e8d: a2 00        	ldx	#$0
    1e8f: 8a           	txa
    1e90: e0 00        	cpx	#$0
    1e92: d0 03        	bne	$1e97 <printf+0x5b9>
    1e94: 4c 1c 1f     	jmp	$1f1c <printf+0x63e>
    1e97: 85 17        	sta	$17                     ; 0x2017 <printf+0x739>
    1e99: 86 3f        	stx	$3f                     ; 0x203f <printf+0x761>
    1e9b: ca           	dex
    1e9c: 86 15        	stx	$15                     ; 0x2015 <printf+0x737>
    1e9e: a2 00        	ldx	#$0
    1ea0: 64 13        	stz	$13                     ; 0x2013 <printf+0x735>
    1ea2: 80 0d        	bra	$1eb1 <printf+0x5d3>
    1ea4: a4 13        	ldy	$13                     ; 0x2013 <printf+0x735>
    1ea6: 99 4d 00     	sta	$4d,y                   ; 0x4d <__rc31+0x1e>
    1ea9: a4 15        	ldy	$15                     ; 0x2015 <printf+0x737>
    1eab: c4 13        	cpy	$13                     ; 0x2013 <printf+0x735>
    1ead: f0 38        	beq	$1ee7 <printf+0x609>
    1eaf: e6 13        	inc	$13                     ; 0x2013 <printf+0x735>
    1eb1: a4 13        	ldy	$13                     ; 0x2013 <printf+0x735>
    1eb3: b9 4d 00     	lda	$4d,y                   ; 0x4d <__rc31+0x1e>
    1eb6: 0a           	asl
    1eb7: e0 00        	cpx	#$0
    1eb9: f0 02        	beq	$1ebd <printf+0x5df>
    1ebb: 09 01        	ora	#$1
    1ebd: a4 84        	ldy	$84                     ; 0x2084 <printf+0x7a6>
    1ebf: 84 14        	sty	$14                     ; 0x2014 <printf+0x736>
    1ec1: c5 14        	cmp	$14                     ; 0x2014 <printf+0x736>
    1ec3: a2 01        	ldx	#$1
    1ec5: b0 02        	bcs	$1ec9 <printf+0x5eb>
    1ec7: a2 00        	ldx	#$0
    1ec9: 90 d9        	bcc	$1ea4 <printf+0x5c6>
    1ecb: 84 14        	sty	$14                     ; 0x2014 <printf+0x736>
    1ecd: 38           	sec
    1ece: e5 14        	sbc	$14                     ; 0x2014 <printf+0x736>
    1ed0: a4 13        	ldy	$13                     ; 0x2013 <printf+0x735>
    1ed2: 99 4d 00     	sta	$4d,y                   ; 0x4d <__rc31+0x1e>
    1ed5: a4 15        	ldy	$15                     ; 0x2015 <printf+0x737>
    1ed7: c4 13        	cpy	$13                     ; 0x2013 <printf+0x735>
    1ed9: d0 d4        	bne	$1eaf <printf+0x5d1>
    1edb: a4 3f        	ldy	$3f                     ; 0x203f <printf+0x761>
    1edd: a6 3f        	ldx	$3f                     ; 0x203f <printf+0x761>
    1edf: e8           	inx
    1ee0: a9 01        	lda	#$1
    1ee2: 99 4d 00     	sta	$4d,y                   ; 0x4d <__rc31+0x1e>
    1ee5: 86 3f        	stx	$3f                     ; 0x203f <printf+0x761>
    1ee7: a6 85        	ldx	$85                     ; 0x2085 <printf+0x7a7>
    1ee9: b5 64        	lda	$64,x                   ; 0x2064 <printf+0x786>
    1eeb: aa           	tax
    1eec: a0 01        	ldy	#$1
    1eee: 8a           	txa
    1eef: 10 47        	bpl	$1f38 <printf+0x65a>
    1ef1: a5 3f        	lda	$3f                     ; 0x203f <printf+0x761>
    1ef3: f0 34        	beq	$1f29 <printf+0x64b>
    1ef5: a2 00        	ldx	#$0
    1ef7: a4 84        	ldy	$84                     ; 0x2084 <printf+0x7a6>
    1ef9: 84 14        	sty	$14                     ; 0x2014 <printf+0x736>
    1efb: b5 4d        	lda	$4d,x                   ; 0x204d <printf+0x76f>
    1efd: 1a           	inc
    1efe: f6 4d        	inc	$4d,x                   ; 0x204d <printf+0x76f>
    1f00: c5 14        	cmp	$14                     ; 0x2014 <printf+0x736>
    1f02: b0 03        	bcs	$1f07 <printf+0x629>
    1f04: 4c 63 1f     	jmp	$1f63 <printf+0x685>
    1f07: a4 14        	ldy	$14                     ; 0x2014 <printf+0x736>
    1f09: 84 13        	sty	$13                     ; 0x2013 <printf+0x735>
    1f0b: 38           	sec
    1f0c: e5 13        	sbc	$13                     ; 0x2013 <printf+0x735>
    1f0e: 9d 4d 00     	sta	$4d,x                   ; 0x4d <__rc31+0x1e>
    1f11: e8           	inx
    1f12: 86 13        	stx	$13                     ; 0x2013 <printf+0x735>
    1f14: a4 3f        	ldy	$3f                     ; 0x203f <printf+0x761>
    1f16: c4 13        	cpy	$13                     ; 0x2013 <printf+0x735>
    1f18: d0 e1        	bne	$1efb <printf+0x61d>
    1f1a: 80 0f        	bra	$1f2b <printf+0x64d>
    1f1c: 85 17        	sta	$17                     ; 0x2017 <printf+0x739>
    1f1e: a6 85        	ldx	$85                     ; 0x2085 <printf+0x7a7>
    1f20: b5 64        	lda	$64,x                   ; 0x2064 <printf+0x786>
    1f22: aa           	tax
    1f23: 64 3f        	stz	$3f                     ; 0x203f <printf+0x761>
    1f25: 30 04        	bmi	$1f2b <printf+0x64d>
    1f27: 80 0f        	bra	$1f38 <printf+0x65a>
    1f29: 64 3f        	stz	$3f                     ; 0x203f <printf+0x761>
    1f2b: a4 3f        	ldy	$3f                     ; 0x203f <printf+0x761>
    1f2d: a6 3f        	ldx	$3f                     ; 0x203f <printf+0x761>
    1f2f: e8           	inx
    1f30: a9 01        	lda	#$1
    1f32: 99 4d 00     	sta	$4d,y                   ; 0x4d <__rc31+0x1e>
    1f35: a8           	tay
    1f36: 86 3f        	stx	$3f                     ; 0x203f <printf+0x761>
    1f38: a2 01        	ldx	#$1
    1f3a: 64 13        	stz	$13                     ; 0x2013 <printf+0x735>
    1f3c: a5 85        	lda	$85                     ; 0x2085 <printf+0x7a7>
    1f3e: 85 14        	sta	$14                     ; 0x2014 <printf+0x736>
    1f40: b5 64        	lda	$64,x                   ; 0x2064 <printf+0x786>
    1f42: 0a           	asl
    1f43: 64 15        	stz	$15                     ; 0x2015 <printf+0x737>
    1f45: 26 15        	rol	$15                     ; 0x2015 <printf+0x737>
    1f47: 05 13        	ora	$13                     ; 0x2013 <printf+0x735>
    1f49: 9d 64 00     	sta	$64,x                   ; 0x64 <__rc31+0x35>
    1f4c: e8           	inx
    1f4d: c6 14        	dec	$14                     ; 0x2014 <printf+0x736>
    1f4f: a5 15        	lda	$15                     ; 0x2015 <printf+0x737>
    1f51: 85 13        	sta	$13                     ; 0x2013 <printf+0x735>
    1f53: a5 14        	lda	$14                     ; 0x2014 <printf+0x736>
    1f55: d0 e9        	bne	$1f40 <printf+0x662>
    1f57: a5 17        	lda	$17                     ; 0x2017 <printf+0x739>
    1f59: 1a           	inc
    1f5a: c5 12        	cmp	$12                     ; 0x2012 <printf+0x734>
    1f5c: a6 3f        	ldx	$3f                     ; 0x203f <printf+0x761>
    1f5e: b0 07        	bcs	$1f67 <printf+0x689>
    1f60: 4c 90 1e     	jmp	$1e90 <printf+0x5b2>
    1f63: a0 01        	ldy	#$1
    1f65: 80 d1        	bra	$1f38 <printf+0x65a>
    1f67: a5 40        	lda	$40                     ; 0x2040 <printf+0x762>
    1f69: e6 48        	inc	$48                     ; 0x2048 <printf+0x76a>
    1f6b: c6 48        	dec	$48                     ; 0x2048 <printf+0x76a>
    1f6d: 10 08        	bpl	$1f77 <printf+0x699>
    1f6f: a2 01        	ldx	#$1
    1f71: 64 48        	stz	$48                     ; 0x2048 <printf+0x76a>
    1f73: 86 47        	stx	$47                     ; 0x2047 <printf+0x769>
    1f75: a6 3f        	ldx	$3f                     ; 0x203f <printf+0x761>
    1f77: 29 04        	and	#$4
    1f79: f0 2b        	beq	$1fa6 <printf+0x6c8>
    1f7b: a5 84        	lda	$84                     ; 0x2084 <printf+0x7a6>
    1f7d: c9 10        	cmp	#$10
    1f7f: f0 14        	beq	$1f95 <printf+0x6b7>
    1f81: c9 08        	cmp	#$8
    1f83: d0 21        	bne	$1fa6 <printf+0x6c8>
    1f85: a2 00        	ldx	#$0
    1f87: e4 48        	cpx	$48                     ; 0x2048 <printf+0x76a>
    1f89: f0 03        	beq	$1f8e <printf+0x6b0>
    1f8b: 4c d5 24     	jmp	$24d5 <printf+0xbf7>
    1f8e: a6 3f        	ldx	$3f                     ; 0x203f <printf+0x761>
    1f90: e4 47        	cpx	$47                     ; 0x2047 <printf+0x769>
    1f92: 4c d7 24     	jmp	$24d7 <printf+0xbf9>
    1f95: 8a           	txa
    1f96: f0 0e        	beq	$1fa6 <printf+0x6c8>
    1f98: a5 40        	lda	$40                     ; 0x2040 <printf+0x762>
    1f9a: 29 80        	and	#$80
    1f9c: d0 03        	bne	$1fa1 <printf+0x6c3>
    1f9e: 4c f0 24     	jmp	$24f0 <printf+0xc12>
    1fa1: a2 78        	ldx	#$78
    1fa3: 4c f2 24     	jmp	$24f2 <printf+0xc14>
    1fa6: a6 40        	ldx	$40                     ; 0x2040 <printf+0x762>
    1fa8: a9 2d        	lda	#$2d
    1faa: 85 88        	sta	$88                     ; 0x2088 <printf+0x7aa>
    1fac: a5 16        	lda	$16                     ; 0x2016 <printf+0x738>
    1fae: d0 32        	bne	$1fe2 <printf+0x704>
    1fb0: 86 12        	stx	$12                     ; 0x2012 <printf+0x734>
    1fb2: 8a           	txa
    1fb3: 29 02        	and	#$2
    1fb5: a2 2b        	ldx	#$2b
    1fb7: 86 88        	stx	$88                     ; 0x2088 <printf+0x7aa>
    1fb9: aa           	tax
    1fba: d0 26        	bne	$1fe2 <printf+0x704>
    1fbc: a5 12        	lda	$12                     ; 0x2012 <printf+0x734>
    1fbe: 29 08        	and	#$8
    1fc0: d0 1c        	bne	$1fde <printf+0x700>
    1fc2: a2 01        	ldx	#$1
    1fc4: 86 85        	stx	$85                     ; 0x2085 <printf+0x7a7>
    1fc6: a9 00        	lda	#$0
    1fc8: aa           	tax
    1fc9: 86 84        	stx	$84                     ; 0x2084 <printf+0x7a6>
    1fcb: 80 1c        	bra	$1fe9 <printf+0x70b>
    1fcd: 85 12        	sta	$12                     ; 0x2012 <printf+0x734>
    1fcf: a9 04        	lda	#$4
    1fd1: 80 04        	bra	$1fd7 <printf+0x6f9>
    1fd3: 85 12        	sta	$12                     ; 0x2012 <printf+0x734>
    1fd5: a9 02        	lda	#$2
    1fd7: 85 85        	sta	$85                     ; 0x2085 <printf+0x7a7>
    1fd9: a5 12        	lda	$12                     ; 0x2012 <printf+0x734>
    1fdb: 4c 9a 1c     	jmp	$1c9a <printf+0x3bc>
    1fde: a2 20        	ldx	#$20
    1fe0: 86 88        	stx	$88                     ; 0x2088 <printf+0x7aa>
    1fe2: a2 00        	ldx	#$0
    1fe4: 86 85        	stx	$85                     ; 0x2085 <printf+0x7a7>
    1fe6: 86 84        	stx	$84                     ; 0x2084 <printf+0x7a6>
    1fe8: 98           	tya
    1fe9: a6 48        	ldx	$48                     ; 0x2048 <printf+0x76a>
    1feb: d0 35        	bne	$2022 <printf+0x744>
    1fed: a6 47        	ldx	$47                     ; 0x2047 <printf+0x769>
    1fef: a4 3f        	ldy	$3f                     ; 0x203f <printf+0x761>
    1ff1: 84 12        	sty	$12                     ; 0x2012 <printf+0x734>
    1ff3: e4 12        	cpx	$12                     ; 0x2012 <printf+0x734>
    1ff5: a6 47        	ldx	$47                     ; 0x2047 <printf+0x769>
    1ff7: 86 12        	stx	$12                     ; 0x2012 <printf+0x734>
    1ff9: a6 48        	ldx	$48                     ; 0x2048 <printf+0x76a>
    1ffb: 86 13        	stx	$13                     ; 0x2013 <printf+0x735>
    1ffd: b0 04        	bcs	$2003 <printf+0x725>
    1fff: 84 12        	sty	$12                     ; 0x2012 <printf+0x734>
    2001: 64 13        	stz	$13                     ; 0x2013 <printf+0x735>
    2003: 85 18        	sta	$18                     ; 0x2018 <printf+0x73a>
    2005: 18           	clc
    2006: 65 12        	adc	$12                     ; 0x2012 <printf+0x734>
    2008: 85 16        	sta	$16                     ; 0x2016 <printf+0x738>
    200a: 85 14        	sta	$14                     ; 0x2014 <printf+0x736>
    200c: a5 13        	lda	$13                     ; 0x2013 <printf+0x735>
    200e: 69 00        	adc	#$0
    2010: 85 15        	sta	$15                     ; 0x2015 <printf+0x737>
    2012: c5 1a        	cmp	$1a                     ; 0x201a <printf+0x73c>
    2014: d0 1e        	bne	$2034 <printf+0x756>
    2016: a6 1a        	ldx	$1a                     ; 0x201a <printf+0x73c>
    2018: 86 17        	stx	$17                     ; 0x2017 <printf+0x739>
    201a: a6 49        	ldx	$49                     ; 0x2049 <printf+0x76b>
    201c: a5 16        	lda	$16                     ; 0x2016 <printf+0x738>
    201e: c5 49        	cmp	$49                     ; 0x2049 <printf+0x76b>
    2020: 80 1c        	bra	$203e <printf+0x760>
    2022: a6 48        	ldx	$48                     ; 0x2048 <printf+0x76a>
    2024: e0 00        	cpx	#$0
    2026: a6 47        	ldx	$47                     ; 0x2047 <printf+0x769>
    2028: 86 12        	stx	$12                     ; 0x2012 <printf+0x734>
    202a: a6 48        	ldx	$48                     ; 0x2048 <printf+0x76a>
    202c: 86 13        	stx	$13                     ; 0x2013 <printf+0x735>
    202e: a4 3f        	ldy	$3f                     ; 0x203f <printf+0x761>
    2030: 90 cd        	bcc	$1fff <printf+0x721>
    2032: 80 cf        	bra	$2003 <printf+0x725>
    2034: a6 49        	ldx	$49                     ; 0x2049 <printf+0x76b>
    2036: 5a           	phy
    2037: a4 1a        	ldy	$1a                     ; 0x201a <printf+0x73c>
    2039: 84 17        	sty	$17                     ; 0x2017 <printf+0x739>
    203b: 7a           	ply
    203c: c5 1a        	cmp	$1a                     ; 0x201a <printf+0x73c>
    203e: 64 4a        	stz	$4a                     ; 0x204a <printf+0x76c>
    2040: 64 49        	stz	$49                     ; 0x2049 <printf+0x76b>
    2042: 90 03        	bcc	$2047 <printf+0x769>
    2044: 4c eb 20     	jmp	$20eb <printf+0x80d>
    2047: a5 40        	lda	$40                     ; 0x2040 <printf+0x762>
    2049: 29 11        	and	#$11
    204b: 86 16        	stx	$16                     ; 0x2016 <printf+0x738>
    204d: f0 0f        	beq	$205e <printf+0x780>
    204f: 8a           	txa
    2050: 38           	sec
    2051: e5 14        	sbc	$14                     ; 0x2014 <printf+0x736>
    2053: 85 4a        	sta	$4a                     ; 0x204a <printf+0x76c>
    2055: a5 1a        	lda	$1a                     ; 0x201a <printf+0x73c>
    2057: e5 15        	sbc	$15                     ; 0x2015 <printf+0x737>
    2059: 85 49        	sta	$49                     ; 0x2049 <printf+0x76b>
    205b: 4c eb 20     	jmp	$20eb <printf+0x80d>
    205e: a6 74        	ldx	$74                     ; 0x2074 <printf+0x796>
    2060: 86 14        	stx	$14                     ; 0x2014 <printf+0x736>
    2062: 38           	sec
    2063: a5 18        	lda	$18                     ; 0x2018 <printf+0x73a>
    2065: e5 16        	sbc	$16                     ; 0x2016 <printf+0x738>
    2067: a8           	tay
    2068: a9 00        	lda	#$0
    206a: e5 17        	sbc	$17                     ; 0x2017 <printf+0x739>
    206c: aa           	tax
    206d: 18           	clc
    206e: 98           	tya
    206f: 65 12        	adc	$12                     ; 0x2012 <printf+0x734>
    2071: 85 40        	sta	$40                     ; 0x2040 <printf+0x762>
    2073: 8a           	txa
    2074: 65 13        	adc	$13                     ; 0x2013 <printf+0x735>
    2076: 85 49        	sta	$49                     ; 0x2049 <printf+0x76b>
    2078: a5 75        	lda	$75                     ; 0x2075 <printf+0x797>
    207a: 4c d3 20     	jmp	$20d3 <printf+0x7f5>
    207d: c5 73        	cmp	$73                     ; 0x2073 <printf+0x795>
    207f: a4 49        	ldy	$49                     ; 0x2049 <printf+0x76b>
    2081: b0 30        	bcs	$20b3 <printf+0x7d5>
    2083: a6 7f        	ldx	$7f                     ; 0x207f <printf+0x7a1>
    2085: e4 42        	cpx	$42                     ; 0x2042 <printf+0x764>
    2087: d0 19        	bne	$20a2 <printf+0x7c4>
    2089: a6 7e        	ldx	$7e                     ; 0x207e <printf+0x7a0>
    208b: e4 41        	cpx	$41                     ; 0x2041 <printf+0x763>
    208d: d0 13        	bne	$20a2 <printf+0x7c4>
    208f: 18           	clc
    2090: aa           	tax
    2091: a5 14        	lda	$14                     ; 0x2014 <printf+0x736>
    2093: 65 78        	adc	$78                     ; 0x2078 <printf+0x79a>
    2095: 85 12        	sta	$12                     ; 0x2012 <printf+0x734>
    2097: 8a           	txa
    2098: 65 79        	adc	$79                     ; 0x2079 <printf+0x79b>
    209a: 85 13        	sta	$13                     ; 0x2013 <printf+0x735>
    209c: a9 20        	lda	#$20
    209e: 92 12        	sta	($12)                   ; 0x2012 <printf+0x734>
    20a0: 80 0f        	bra	$20b1 <printf+0x7d3>
    20a2: a2 20        	ldx	#$20
    20a4: 86 3a        	stx	$3a                     ; 0x203a <printf+0x75c>
    20a6: a2 3a        	ldx	#$3a
    20a8: 86 12        	stx	$12                     ; 0x2012 <printf+0x734>
    20aa: a2 00        	ldx	#$0
    20ac: 86 13        	stx	$13                     ; 0x2013 <printf+0x735>
    20ae: 20 83 13     	jsr	$1383 <textPrint>
    20b1: a4 49        	ldy	$49                     ; 0x2049 <printf+0x76b>
    20b3: a6 74        	ldx	$74                     ; 0x2074 <printf+0x796>
    20b5: a5 75        	lda	$75                     ; 0x2075 <printf+0x797>
    20b7: e8           	inx
    20b8: d0 01        	bne	$20bb <printf+0x7dd>
    20ba: 1a           	inc
    20bb: 86 14        	stx	$14                     ; 0x2014 <printf+0x736>
    20bd: 86 74        	stx	$74                     ; 0x2074 <printf+0x796>
    20bf: 85 75        	sta	$75                     ; 0x2075 <printf+0x797>
    20c1: a6 40        	ldx	$40                     ; 0x2040 <printf+0x762>
    20c3: e8           	inx
    20c4: d0 01        	bne	$20c7 <printf+0x7e9>
    20c6: c8           	iny
    20c7: 86 40        	stx	$40                     ; 0x2040 <printf+0x762>
    20c9: 84 49        	sty	$49                     ; 0x2049 <printf+0x76b>
    20cb: c0 00        	cpy	#$0
    20cd: d0 04        	bne	$20d3 <printf+0x7f5>
    20cf: e0 00        	cpx	#$0
    20d1: f0 12        	beq	$20e5 <printf+0x807>
    20d3: c5 73        	cmp	$73                     ; 0x2073 <printf+0x795>
    20d5: f0 03        	beq	$20da <printf+0x7fc>
    20d7: 4c 7d 20     	jmp	$207d <printf+0x79f>
    20da: a6 72        	ldx	$72                     ; 0x2072 <printf+0x794>
    20dc: 86 12        	stx	$12                     ; 0x2012 <printf+0x734>
    20de: a6 14        	ldx	$14                     ; 0x2014 <printf+0x736>
    20e0: e4 12        	cpx	$12                     ; 0x2012 <printf+0x734>
    20e2: 4c 7f 20     	jmp	$207f <printf+0x7a1>
    20e5: 64 4a        	stz	$4a                     ; 0x204a <printf+0x76c>
    20e7: 64 49        	stz	$49                     ; 0x2049 <printf+0x76b>
    20e9: a4 3f        	ldy	$3f                     ; 0x203f <printf+0x761>
    20eb: a6 85        	ldx	$85                     ; 0x2085 <printf+0x7a7>
    20ed: f0 03        	beq	$20f2 <printf+0x814>
    20ef: 4c 49 21     	jmp	$2149 <printf+0x86b>
    20f2: a6 74        	ldx	$74                     ; 0x2074 <printf+0x796>
    20f4: a5 75        	lda	$75                     ; 0x2075 <printf+0x797>
    20f6: c5 73        	cmp	$73                     ; 0x2073 <printf+0x795>
    20f8: d0 10        	bne	$210a <printf+0x82c>
    20fa: 86 13        	stx	$13                     ; 0x2013 <printf+0x735>
    20fc: a6 72        	ldx	$72                     ; 0x2072 <printf+0x794>
    20fe: 86 12        	stx	$12                     ; 0x2012 <printf+0x734>
    2100: a4 3f        	ldy	$3f                     ; 0x203f <printf+0x761>
    2102: a6 13        	ldx	$13                     ; 0x2013 <printf+0x735>
    2104: e4 12        	cpx	$12                     ; 0x2012 <printf+0x734>
    2106: 90 08        	bcc	$2110 <printf+0x832>
    2108: 80 39        	bra	$2143 <printf+0x865>
    210a: 86 13        	stx	$13                     ; 0x2013 <printf+0x735>
    210c: c5 73        	cmp	$73                     ; 0x2073 <printf+0x795>
    210e: b0 33        	bcs	$2143 <printf+0x865>
    2110: a6 7f        	ldx	$7f                     ; 0x207f <printf+0x7a1>
    2112: e4 42        	cpx	$42                     ; 0x2042 <printf+0x764>
    2114: d0 1c        	bne	$2132 <printf+0x854>
    2116: a6 7e        	ldx	$7e                     ; 0x207e <printf+0x7a0>
    2118: e4 41        	cpx	$41                     ; 0x2041 <printf+0x763>
    211a: d0 16        	bne	$2132 <printf+0x854>
    211c: 18           	clc
    211d: 85 12        	sta	$12                     ; 0x2012 <printf+0x734>
    211f: a5 13        	lda	$13                     ; 0x2013 <printf+0x735>
    2121: 65 78        	adc	$78                     ; 0x2078 <printf+0x79a>
    2123: aa           	tax
    2124: a5 12        	lda	$12                     ; 0x2012 <printf+0x734>
    2126: 65 79        	adc	$79                     ; 0x2079 <printf+0x79b>
    2128: 86 12        	stx	$12                     ; 0x2012 <printf+0x734>
    212a: 85 13        	sta	$13                     ; 0x2013 <printf+0x735>
    212c: a5 88        	lda	$88                     ; 0x2088 <printf+0x7aa>
    212e: 92 12        	sta	($12)                   ; 0x2012 <printf+0x734>
    2130: 80 0f        	bra	$2141 <printf+0x863>
    2132: a6 88        	ldx	$88                     ; 0x2088 <printf+0x7aa>
    2134: 86 3a        	stx	$3a                     ; 0x203a <printf+0x75c>
    2136: a2 3a        	ldx	#$3a
    2138: 86 12        	stx	$12                     ; 0x2012 <printf+0x734>
    213a: a2 00        	ldx	#$0
    213c: 86 13        	stx	$13                     ; 0x2013 <printf+0x735>
    213e: 20 83 13     	jsr	$1383 <textPrint>
    2141: a4 3f        	ldy	$3f                     ; 0x203f <printf+0x761>
    2143: e6 74        	inc	$74                     ; 0x2074 <printf+0x796>
    2145: d0 02        	bne	$2149 <printf+0x86b>
    2147: e6 75        	inc	$75                     ; 0x2075 <printf+0x797>
    2149: a6 84        	ldx	$84                     ; 0x2084 <printf+0x7a6>
    214b: d0 03        	bne	$2150 <printf+0x872>
    214d: 4c a7 21     	jmp	$21a7 <printf+0x8c9>
    2150: a6 74        	ldx	$74                     ; 0x2074 <printf+0x796>
    2152: a5 75        	lda	$75                     ; 0x2075 <printf+0x797>
    2154: c5 73        	cmp	$73                     ; 0x2073 <printf+0x795>
    2156: d0 10        	bne	$2168 <printf+0x88a>
    2158: 86 13        	stx	$13                     ; 0x2013 <printf+0x735>
    215a: a6 72        	ldx	$72                     ; 0x2072 <printf+0x794>
    215c: 86 12        	stx	$12                     ; 0x2012 <printf+0x734>
    215e: a4 3f        	ldy	$3f                     ; 0x203f <printf+0x761>
    2160: a6 13        	ldx	$13                     ; 0x2013 <printf+0x735>
    2162: e4 12        	cpx	$12                     ; 0x2012 <printf+0x734>
    2164: 90 08        	bcc	$216e <printf+0x890>
    2166: 80 39        	bra	$21a1 <printf+0x8c3>
    2168: 86 13        	stx	$13                     ; 0x2013 <printf+0x735>
    216a: c5 73        	cmp	$73                     ; 0x2073 <printf+0x795>
    216c: b0 33        	bcs	$21a1 <printf+0x8c3>
    216e: a6 7f        	ldx	$7f                     ; 0x207f <printf+0x7a1>
    2170: e4 42        	cpx	$42                     ; 0x2042 <printf+0x764>
    2172: d0 1c        	bne	$2190 <printf+0x8b2>
    2174: a6 7e        	ldx	$7e                     ; 0x207e <printf+0x7a0>
    2176: e4 41        	cpx	$41                     ; 0x2041 <printf+0x763>
    2178: d0 16        	bne	$2190 <printf+0x8b2>
    217a: 18           	clc
    217b: 85 12        	sta	$12                     ; 0x2012 <printf+0x734>
    217d: a5 13        	lda	$13                     ; 0x2013 <printf+0x735>
    217f: 65 78        	adc	$78                     ; 0x2078 <printf+0x79a>
    2181: aa           	tax
    2182: a5 12        	lda	$12                     ; 0x2012 <printf+0x734>
    2184: 65 79        	adc	$79                     ; 0x2079 <printf+0x79b>
    2186: 86 12        	stx	$12                     ; 0x2012 <printf+0x734>
    2188: 85 13        	sta	$13                     ; 0x2013 <printf+0x735>
    218a: a5 89        	lda	$89                     ; 0x2089 <printf+0x7ab>
    218c: 92 12        	sta	($12)                   ; 0x2012 <printf+0x734>
    218e: 80 0f        	bra	$219f <printf+0x8c1>
    2190: a6 89        	ldx	$89                     ; 0x2089 <printf+0x7ab>
    2192: 86 3a        	stx	$3a                     ; 0x203a <printf+0x75c>
    2194: a2 3a        	ldx	#$3a
    2196: 86 12        	stx	$12                     ; 0x2012 <printf+0x734>
    2198: a2 00        	ldx	#$0
    219a: 86 13        	stx	$13                     ; 0x2013 <printf+0x735>
    219c: 20 83 13     	jsr	$1383 <textPrint>
    219f: a4 3f        	ldy	$3f                     ; 0x203f <printf+0x761>
    21a1: e6 74        	inc	$74                     ; 0x2074 <printf+0x796>
    21a3: d0 02        	bne	$21a7 <printf+0x8c9>
    21a5: e6 75        	inc	$75                     ; 0x2075 <printf+0x797>
    21a7: a9 10        	lda	#$10
    21a9: 25 70        	and	$70                     ; 0x2070 <printf+0x792>
    21ab: d0 03        	bne	$21b0 <printf+0x8d2>
    21ad: 4c 41 22     	jmp	$2241 <printf+0x963>
    21b0: a5 70        	lda	$70                     ; 0x2070 <printf+0x792>
    21b2: 29 01        	and	#$1
    21b4: f0 03        	beq	$21b9 <printf+0x8db>
    21b6: 4c 41 22     	jmp	$2241 <printf+0x963>
    21b9: a6 4a        	ldx	$4a                     ; 0x204a <printf+0x76c>
    21bb: a5 49        	lda	$49                     ; 0x2049 <printf+0x76b>
    21bd: d0 06        	bne	$21c5 <printf+0x8e7>
    21bf: 8a           	txa
    21c0: d0 03        	bne	$21c5 <printf+0x8e7>
    21c2: 4c 05 25     	jmp	$2505 <printf+0xc27>
    21c5: a6 74        	ldx	$74                     ; 0x2074 <printf+0x796>
    21c7: 86 13        	stx	$13                     ; 0x2013 <printf+0x735>
    21c9: a5 75        	lda	$75                     ; 0x2075 <printf+0x797>
    21cb: 4c 27 22     	jmp	$2227 <printf+0x949>
    21ce: c5 73        	cmp	$73                     ; 0x2073 <printf+0x795>
    21d0: b0 2e        	bcs	$2200 <printf+0x922>
    21d2: a6 7f        	ldx	$7f                     ; 0x207f <printf+0x7a1>
    21d4: e4 42        	cpx	$42                     ; 0x2042 <printf+0x764>
    21d6: d0 19        	bne	$21f1 <printf+0x913>
    21d8: a6 7e        	ldx	$7e                     ; 0x207e <printf+0x7a0>
    21da: e4 41        	cpx	$41                     ; 0x2041 <printf+0x763>
    21dc: d0 13        	bne	$21f1 <printf+0x913>
    21de: 18           	clc
    21df: aa           	tax
    21e0: a5 13        	lda	$13                     ; 0x2013 <printf+0x735>
    21e2: 65 78        	adc	$78                     ; 0x2078 <printf+0x79a>
    21e4: 85 12        	sta	$12                     ; 0x2012 <printf+0x734>
    21e6: 8a           	txa
    21e7: 65 79        	adc	$79                     ; 0x2079 <printf+0x79b>
    21e9: 85 13        	sta	$13                     ; 0x2013 <printf+0x735>
    21eb: a9 30        	lda	#$30
    21ed: 92 12        	sta	($12)                   ; 0x2012 <printf+0x734>
    21ef: 80 0f        	bra	$2200 <printf+0x922>
    21f1: a2 30        	ldx	#$30
    21f3: 86 3a        	stx	$3a                     ; 0x203a <printf+0x75c>
    21f5: a2 3a        	ldx	#$3a
    21f7: 86 12        	stx	$12                     ; 0x2012 <printf+0x734>
    21f9: a2 00        	ldx	#$0
    21fb: 86 13        	stx	$13                     ; 0x2013 <printf+0x735>
    21fd: 20 83 13     	jsr	$1383 <textPrint>
    2200: a6 74        	ldx	$74                     ; 0x2074 <printf+0x796>
    2202: a5 75        	lda	$75                     ; 0x2075 <printf+0x797>
    2204: e8           	inx
    2205: d0 01        	bne	$2208 <printf+0x92a>
    2207: 1a           	inc
    2208: 86 13        	stx	$13                     ; 0x2013 <printf+0x735>
    220a: 86 74        	stx	$74                     ; 0x2074 <printf+0x796>
    220c: 85 75        	sta	$75                     ; 0x2075 <printf+0x797>
    220e: a4 4a        	ldy	$4a                     ; 0x204a <printf+0x76c>
    2210: a6 49        	ldx	$49                     ; 0x2049 <printf+0x76b>
    2212: 86 12        	stx	$12                     ; 0x2012 <printf+0x734>
    2214: 88           	dey
    2215: c0 ff        	cpy	#$ff
    2217: d0 02        	bne	$221b <printf+0x93d>
    2219: c6 12        	dec	$12                     ; 0x2012 <printf+0x734>
    221b: 84 4a        	sty	$4a                     ; 0x204a <printf+0x76c>
    221d: a6 12        	ldx	$12                     ; 0x2012 <printf+0x734>
    221f: 86 49        	stx	$49                     ; 0x2049 <printf+0x76b>
    2221: d0 04        	bne	$2227 <printf+0x949>
    2223: c0 00        	cpy	#$0
    2225: f0 14        	beq	$223b <printf+0x95d>
    2227: c5 73        	cmp	$73                     ; 0x2073 <printf+0x795>
    2229: f0 03        	beq	$222e <printf+0x950>
    222b: 4c ce 21     	jmp	$21ce <printf+0x8f0>
    222e: a6 72        	ldx	$72                     ; 0x2072 <printf+0x794>
    2230: 86 12        	stx	$12                     ; 0x2012 <printf+0x734>
    2232: a6 13        	ldx	$13                     ; 0x2013 <printf+0x735>
    2234: e4 12        	cpx	$12                     ; 0x2012 <printf+0x734>
    2236: b0 c8        	bcs	$2200 <printf+0x922>
    2238: 4c d2 21     	jmp	$21d2 <printf+0x8f4>
    223b: 64 4a        	stz	$4a                     ; 0x204a <printf+0x76c>
    223d: 64 49        	stz	$49                     ; 0x2049 <printf+0x76b>
    223f: a4 3f        	ldy	$3f                     ; 0x203f <printf+0x761>
    2241: a2 00        	ldx	#$0
    2243: e4 48        	cpx	$48                     ; 0x2048 <printf+0x76a>
    2245: d0 07        	bne	$224e <printf+0x970>
    2247: c4 47        	cpy	$47                     ; 0x2047 <printf+0x769>
    2249: 90 0a        	bcc	$2255 <printf+0x977>
    224b: 4c cd 22     	jmp	$22cd <printf+0x9ef>
    224e: e4 48        	cpx	$48                     ; 0x2048 <printf+0x76a>
    2250: 90 03        	bcc	$2255 <printf+0x977>
    2252: 4c cd 22     	jmp	$22cd <printf+0x9ef>
    2255: a6 74        	ldx	$74                     ; 0x2074 <printf+0x796>
    2257: 86 13        	stx	$13                     ; 0x2013 <printf+0x735>
    2259: a5 75        	lda	$75                     ; 0x2075 <printf+0x797>
    225b: a2 ff        	ldx	#$ff
    225d: c6 47        	dec	$47                     ; 0x2047 <printf+0x769>
    225f: e4 47        	cpx	$47                     ; 0x2047 <printf+0x769>
    2261: d0 02        	bne	$2265 <printf+0x987>
    2263: c6 48        	dec	$48                     ; 0x2048 <printf+0x76a>
    2265: c5 73        	cmp	$73                     ; 0x2073 <printf+0x795>
    2267: d0 0c        	bne	$2275 <printf+0x997>
    2269: a6 72        	ldx	$72                     ; 0x2072 <printf+0x794>
    226b: 86 12        	stx	$12                     ; 0x2012 <printf+0x734>
    226d: a6 13        	ldx	$13                     ; 0x2013 <printf+0x735>
    226f: e4 12        	cpx	$12                     ; 0x2012 <printf+0x734>
    2271: 90 06        	bcc	$2279 <printf+0x99b>
    2273: 80 32        	bra	$22a7 <printf+0x9c9>
    2275: c5 73        	cmp	$73                     ; 0x2073 <printf+0x795>
    2277: b0 2e        	bcs	$22a7 <printf+0x9c9>
    2279: a6 7f        	ldx	$7f                     ; 0x207f <printf+0x7a1>
    227b: e4 42        	cpx	$42                     ; 0x2042 <printf+0x764>
    227d: d0 19        	bne	$2298 <printf+0x9ba>
    227f: a6 7e        	ldx	$7e                     ; 0x207e <printf+0x7a0>
    2281: e4 41        	cpx	$41                     ; 0x2041 <printf+0x763>
    2283: d0 13        	bne	$2298 <printf+0x9ba>
    2285: 18           	clc
    2286: aa           	tax
    2287: a5 13        	lda	$13                     ; 0x2013 <printf+0x735>
    2289: 65 78        	adc	$78                     ; 0x2078 <printf+0x79a>
    228b: 85 12        	sta	$12                     ; 0x2012 <printf+0x734>
    228d: 8a           	txa
    228e: 65 79        	adc	$79                     ; 0x2079 <printf+0x79b>
    2290: 85 13        	sta	$13                     ; 0x2013 <printf+0x735>
    2292: a9 30        	lda	#$30
    2294: 92 12        	sta	($12)                   ; 0x2012 <printf+0x734>
    2296: 80 0f        	bra	$22a7 <printf+0x9c9>
    2298: a2 30        	ldx	#$30
    229a: 86 3a        	stx	$3a                     ; 0x203a <printf+0x75c>
    229c: a2 3a        	ldx	#$3a
    229e: 86 12        	stx	$12                     ; 0x2012 <printf+0x734>
    22a0: a2 00        	ldx	#$0
    22a2: 86 13        	stx	$13                     ; 0x2013 <printf+0x735>
    22a4: 20 83 13     	jsr	$1383 <textPrint>
    22a7: a6 74        	ldx	$74                     ; 0x2074 <printf+0x796>
    22a9: a5 75        	lda	$75                     ; 0x2075 <printf+0x797>
    22ab: e8           	inx
    22ac: d0 01        	bne	$22af <printf+0x9d1>
    22ae: 1a           	inc
    22af: 86 13        	stx	$13                     ; 0x2013 <printf+0x735>
    22b1: 86 74        	stx	$74                     ; 0x2074 <printf+0x796>
    22b3: 85 75        	sta	$75                     ; 0x2075 <printf+0x797>
    22b5: a2 00        	ldx	#$0
    22b7: e4 48        	cpx	$48                     ; 0x2048 <printf+0x76a>
    22b9: d0 09        	bne	$22c4 <printf+0x9e6>
    22bb: a4 3f        	ldy	$3f                     ; 0x203f <printf+0x761>
    22bd: c4 47        	cpy	$47                     ; 0x2047 <printf+0x769>
    22bf: b0 0c        	bcs	$22cd <printf+0x9ef>
    22c1: 4c 5b 22     	jmp	$225b <printf+0x97d>
    22c4: e4 48        	cpx	$48                     ; 0x2048 <printf+0x76a>
    22c6: a4 3f        	ldy	$3f                     ; 0x203f <printf+0x761>
    22c8: b0 03        	bcs	$22cd <printf+0x9ef>
    22ca: 4c 5b 22     	jmp	$225b <printf+0x97d>
    22cd: 98           	tya
    22ce: d0 03        	bne	$22d3 <printf+0x9f5>
    22d0: 4c d6 23     	jmp	$23d6 <printf+0xaf8>
    22d3: 88           	dey
    22d4: d0 03        	bne	$22d9 <printf+0x9fb>
    22d6: 4c 6b 23     	jmp	$236b <printf+0xa8d>
    22d9: 84 47        	sty	$47                     ; 0x2047 <printf+0x769>
    22db: a6 8a        	ldx	$8a                     ; 0x208a <printf+0x7ac>
    22dd: 8a           	txa
    22de: 18           	clc
    22df: 65 47        	adc	$47                     ; 0x2047 <printf+0x769>
    22e1: 85 3f        	sta	$3f                     ; 0x203f <printf+0x761>
    22e3: a5 8b        	lda	$8b                     ; 0x208b <printf+0x7ad>
    22e5: 69 00        	adc	#$0
    22e7: 85 40        	sta	$40                     ; 0x2040 <printf+0x762>
    22e9: 4c 5d 23     	jmp	$235d <printf+0xa7f>
    22ec: a8           	tay
    22ed: a9 80        	lda	#$80
    22ef: 25 70        	and	$70                     ; 0x2070 <printf+0x792>
    22f1: f0 04        	beq	$22f7 <printf+0xa19>
    22f3: a2 61        	ldx	#$61
    22f5: 80 02        	bra	$22f9 <printf+0xa1b>
    22f7: a2 41        	ldx	#$41
    22f9: 86 12        	stx	$12                     ; 0x2012 <printf+0x734>
    22fb: 18           	clc
    22fc: 98           	tya
    22fd: 65 12        	adc	$12                     ; 0x2012 <printf+0x734>
    22ff: 18           	clc
    2300: 69 f6        	adc	#$f6
    2302: a4 74        	ldy	$74                     ; 0x2074 <printf+0x796>
    2304: a6 75        	ldx	$75                     ; 0x2075 <printf+0x797>
    2306: e4 73        	cpx	$73                     ; 0x2073 <printf+0x795>
    2308: d0 0c        	bne	$2316 <printf+0xa38>
    230a: 86 14        	stx	$14                     ; 0x2014 <printf+0x736>
    230c: a6 72        	ldx	$72                     ; 0x2072 <printf+0x794>
    230e: 86 12        	stx	$12                     ; 0x2012 <printf+0x734>
    2310: c4 12        	cpy	$12                     ; 0x2012 <printf+0x734>
    2312: 90 08        	bcc	$231c <printf+0xa3e>
    2314: 80 31        	bra	$2347 <printf+0xa69>
    2316: 86 14        	stx	$14                     ; 0x2014 <printf+0x736>
    2318: e4 73        	cpx	$73                     ; 0x2073 <printf+0x795>
    231a: b0 2b        	bcs	$2347 <printf+0xa69>
    231c: a6 7f        	ldx	$7f                     ; 0x207f <printf+0x7a1>
    231e: e4 42        	cpx	$42                     ; 0x2042 <printf+0x764>
    2320: d0 18        	bne	$233a <printf+0xa5c>
    2322: a6 7e        	ldx	$7e                     ; 0x207e <printf+0x7a0>
    2324: e4 41        	cpx	$41                     ; 0x2041 <printf+0x763>
    2326: d0 12        	bne	$233a <printf+0xa5c>
    2328: 18           	clc
    2329: aa           	tax
    232a: 98           	tya
    232b: 65 78        	adc	$78                     ; 0x2078 <printf+0x79a>
    232d: 85 12        	sta	$12                     ; 0x2012 <printf+0x734>
    232f: a5 14        	lda	$14                     ; 0x2014 <printf+0x736>
    2331: 65 79        	adc	$79                     ; 0x2079 <printf+0x79b>
    2333: 85 13        	sta	$13                     ; 0x2013 <printf+0x735>
    2335: 8a           	txa
    2336: 92 12        	sta	($12)                   ; 0x2012 <printf+0x734>
    2338: 80 0d        	bra	$2347 <printf+0xa69>
    233a: 85 3a        	sta	$3a                     ; 0x203a <printf+0x75c>
    233c: a2 3a        	ldx	#$3a
    233e: 86 12        	stx	$12                     ; 0x2012 <printf+0x734>
    2340: a2 00        	ldx	#$0
    2342: 86 13        	stx	$13                     ; 0x2013 <printf+0x735>
    2344: 20 83 13     	jsr	$1383 <textPrint>
    2347: e6 74        	inc	$74                     ; 0x2074 <printf+0x796>
    2349: d0 02        	bne	$234d <printf+0xa6f>
    234b: e6 75        	inc	$75                     ; 0x2075 <printf+0x797>
    234d: c6 47        	dec	$47                     ; 0x2047 <printf+0x769>
    234f: a2 ff        	ldx	#$ff
    2351: c6 3f        	dec	$3f                     ; 0x203f <printf+0x761>
    2353: e4 3f        	cpx	$3f                     ; 0x203f <printf+0x761>
    2355: d0 02        	bne	$2359 <printf+0xa7b>
    2357: c6 40        	dec	$40                     ; 0x2040 <printf+0x762>
    2359: a5 47        	lda	$47                     ; 0x2047 <printf+0x769>
    235b: f0 0e        	beq	$236b <printf+0xa8d>
    235d: b2 3f        	lda	($3f)                   ; 0x203f <printf+0x761>
    235f: c9 0a        	cmp	#$a
    2361: 90 03        	bcc	$2366 <printf+0xa88>
    2363: 4c ec 22     	jmp	$22ec <printf+0xa0e>
    2366: 09 30        	ora	#$30
    2368: 4c 02 23     	jmp	$2302 <printf+0xa24>
    236b: a5 4d        	lda	$4d                     ; 0x204d <printf+0x76f>
    236d: c9 0a        	cmp	#$a
    236f: b0 04        	bcs	$2375 <printf+0xa97>
    2371: 09 30        	ora	#$30
    2373: 80 16        	bra	$238b <printf+0xaad>
    2375: a8           	tay
    2376: a9 80        	lda	#$80
    2378: 25 70        	and	$70                     ; 0x2070 <printf+0x792>
    237a: f0 04        	beq	$2380 <printf+0xaa2>
    237c: a2 61        	ldx	#$61
    237e: 80 02        	bra	$2382 <printf+0xaa4>
    2380: a2 41        	ldx	#$41
    2382: 86 12        	stx	$12                     ; 0x2012 <printf+0x734>
    2384: 18           	clc
    2385: 98           	tya
    2386: 65 12        	adc	$12                     ; 0x2012 <printf+0x734>
    2388: 18           	clc
    2389: 69 f6        	adc	#$f6
    238b: a4 74        	ldy	$74                     ; 0x2074 <printf+0x796>
    238d: a6 75        	ldx	$75                     ; 0x2075 <printf+0x797>
    238f: e4 73        	cpx	$73                     ; 0x2073 <printf+0x795>
    2391: d0 0c        	bne	$239f <printf+0xac1>
    2393: 86 14        	stx	$14                     ; 0x2014 <printf+0x736>
    2395: a6 72        	ldx	$72                     ; 0x2072 <printf+0x794>
    2397: 86 12        	stx	$12                     ; 0x2012 <printf+0x734>
    2399: c4 12        	cpy	$12                     ; 0x2012 <printf+0x734>
    239b: 90 08        	bcc	$23a5 <printf+0xac7>
    239d: 80 31        	bra	$23d0 <printf+0xaf2>
    239f: 86 14        	stx	$14                     ; 0x2014 <printf+0x736>
    23a1: e4 73        	cpx	$73                     ; 0x2073 <printf+0x795>
    23a3: b0 2b        	bcs	$23d0 <printf+0xaf2>
    23a5: a6 7f        	ldx	$7f                     ; 0x207f <printf+0x7a1>
    23a7: e4 42        	cpx	$42                     ; 0x2042 <printf+0x764>
    23a9: d0 18        	bne	$23c3 <printf+0xae5>
    23ab: a6 7e        	ldx	$7e                     ; 0x207e <printf+0x7a0>
    23ad: e4 41        	cpx	$41                     ; 0x2041 <printf+0x763>
    23af: d0 12        	bne	$23c3 <printf+0xae5>
    23b1: 18           	clc
    23b2: aa           	tax
    23b3: 98           	tya
    23b4: 65 78        	adc	$78                     ; 0x2078 <printf+0x79a>
    23b6: 85 12        	sta	$12                     ; 0x2012 <printf+0x734>
    23b8: a5 14        	lda	$14                     ; 0x2014 <printf+0x736>
    23ba: 65 79        	adc	$79                     ; 0x2079 <printf+0x79b>
    23bc: 85 13        	sta	$13                     ; 0x2013 <printf+0x735>
    23be: 8a           	txa
    23bf: 92 12        	sta	($12)                   ; 0x2012 <printf+0x734>
    23c1: 80 0d        	bra	$23d0 <printf+0xaf2>
    23c3: 85 3a        	sta	$3a                     ; 0x203a <printf+0x75c>
    23c5: a2 3a        	ldx	#$3a
    23c7: 86 12        	stx	$12                     ; 0x2012 <printf+0x734>
    23c9: a2 00        	ldx	#$0
    23cb: 86 13        	stx	$13                     ; 0x2013 <printf+0x735>
    23cd: 20 83 13     	jsr	$1383 <textPrint>
    23d0: e6 74        	inc	$74                     ; 0x2074 <printf+0x796>
    23d2: d0 02        	bne	$23d6 <printf+0xaf8>
    23d4: e6 75        	inc	$75                     ; 0x2075 <printf+0x797>
    23d6: a5 70        	lda	$70                     ; 0x2070 <printf+0x792>
    23d8: 29 01        	and	#$1
    23da: d0 1e        	bne	$23fa <printf+0xb1c>
    23dc: a6 74        	ldx	$74                     ; 0x2074 <printf+0x796>
    23de: 86 14        	stx	$14                     ; 0x2014 <printf+0x736>
    23e0: a5 75        	lda	$75                     ; 0x2075 <printf+0x797>
    23e2: a4 72        	ldy	$72                     ; 0x2072 <printf+0x794>
    23e4: a6 73        	ldx	$73                     ; 0x2073 <printf+0x795>
    23e6: 86 12        	stx	$12                     ; 0x2012 <printf+0x734>
    23e8: 86 13        	stx	$13                     ; 0x2013 <printf+0x735>
    23ea: c5 12        	cmp	$12                     ; 0x2012 <printf+0x734>
    23ec: f0 03        	beq	$23f1 <printf+0xb13>
    23ee: 4c 87 24     	jmp	$2487 <printf+0xba9>
    23f1: 84 12        	sty	$12                     ; 0x2012 <printf+0x734>
    23f3: a6 14        	ldx	$14                     ; 0x2014 <printf+0x736>
    23f5: e4 12        	cpx	$12                     ; 0x2012 <printf+0x734>
    23f7: 4c 8b 24     	jmp	$248b <printf+0xbad>
    23fa: a6 74        	ldx	$74                     ; 0x2074 <printf+0x796>
    23fc: 86 14        	stx	$14                     ; 0x2014 <printf+0x736>
    23fe: a5 75        	lda	$75                     ; 0x2075 <printf+0x797>
    2400: a6 4a        	ldx	$4a                     ; 0x204a <printf+0x76c>
    2402: a4 49        	ldy	$49                     ; 0x2049 <printf+0x76b>
    2404: f0 03        	beq	$2409 <printf+0xb2b>
    2406: 4c 73 24     	jmp	$2473 <printf+0xb95>
    2409: e0 00        	cpx	#$0
    240b: f0 d5        	beq	$23e2 <printf+0xb04>
    240d: 4c 73 24     	jmp	$2473 <printf+0xb95>
    2410: c5 73        	cmp	$73                     ; 0x2073 <printf+0x795>
    2412: b0 2e        	bcs	$2442 <printf+0xb64>
    2414: a6 7f        	ldx	$7f                     ; 0x207f <printf+0x7a1>
    2416: e4 42        	cpx	$42                     ; 0x2042 <printf+0x764>
    2418: d0 19        	bne	$2433 <printf+0xb55>
    241a: a6 7e        	ldx	$7e                     ; 0x207e <printf+0x7a0>
    241c: e4 41        	cpx	$41                     ; 0x2041 <printf+0x763>
    241e: d0 13        	bne	$2433 <printf+0xb55>
    2420: 18           	clc
    2421: aa           	tax
    2422: a5 14        	lda	$14                     ; 0x2014 <printf+0x736>
    2424: 65 78        	adc	$78                     ; 0x2078 <printf+0x79a>
    2426: 85 12        	sta	$12                     ; 0x2012 <printf+0x734>
    2428: 8a           	txa
    2429: 65 79        	adc	$79                     ; 0x2079 <printf+0x79b>
    242b: 85 13        	sta	$13                     ; 0x2013 <printf+0x735>
    242d: a9 20        	lda	#$20
    242f: 92 12        	sta	($12)                   ; 0x2012 <printf+0x734>
    2431: 80 0f        	bra	$2442 <printf+0xb64>
    2433: a2 20        	ldx	#$20
    2435: 86 3a        	stx	$3a                     ; 0x203a <printf+0x75c>
    2437: a2 3a        	ldx	#$3a
    2439: 86 12        	stx	$12                     ; 0x2012 <printf+0x734>
    243b: a2 00        	ldx	#$0
    243d: 86 13        	stx	$13                     ; 0x2013 <printf+0x735>
    243f: 20 83 13     	jsr	$1383 <textPrint>
    2442: a6 74        	ldx	$74                     ; 0x2074 <printf+0x796>
    2444: a5 75        	lda	$75                     ; 0x2075 <printf+0x797>
    2446: e8           	inx
    2447: d0 01        	bne	$244a <printf+0xb6c>
    2449: 1a           	inc
    244a: 86 14        	stx	$14                     ; 0x2014 <printf+0x736>
    244c: 86 74        	stx	$74                     ; 0x2074 <printf+0x796>
    244e: 85 75        	sta	$75                     ; 0x2075 <printf+0x797>
    2450: a6 4a        	ldx	$4a                     ; 0x204a <printf+0x76c>
    2452: 86 12        	stx	$12                     ; 0x2012 <printf+0x734>
    2454: a6 49        	ldx	$49                     ; 0x2049 <printf+0x76b>
    2456: 86 13        	stx	$13                     ; 0x2013 <printf+0x735>
    2458: a2 ff        	ldx	#$ff
    245a: c6 12        	dec	$12                     ; 0x2012 <printf+0x734>
    245c: e4 12        	cpx	$12                     ; 0x2012 <printf+0x734>
    245e: d0 02        	bne	$2462 <printf+0xb84>
    2460: c6 13        	dec	$13                     ; 0x2013 <printf+0x735>
    2462: a6 12        	ldx	$12                     ; 0x2012 <printf+0x734>
    2464: 86 4a        	stx	$4a                     ; 0x204a <printf+0x76c>
    2466: a6 13        	ldx	$13                     ; 0x2013 <printf+0x735>
    2468: 86 49        	stx	$49                     ; 0x2049 <printf+0x76b>
    246a: d0 07        	bne	$2473 <printf+0xb95>
    246c: a6 12        	ldx	$12                     ; 0x2012 <printf+0x734>
    246e: d0 03        	bne	$2473 <printf+0xb95>
    2470: 4c e2 23     	jmp	$23e2 <printf+0xb04>
    2473: c5 73        	cmp	$73                     ; 0x2073 <printf+0x795>
    2475: f0 03        	beq	$247a <printf+0xb9c>
    2477: 4c 10 24     	jmp	$2410 <printf+0xb32>
    247a: a6 72        	ldx	$72                     ; 0x2072 <printf+0x794>
    247c: 86 12        	stx	$12                     ; 0x2012 <printf+0x734>
    247e: a6 14        	ldx	$14                     ; 0x2014 <printf+0x736>
    2480: e4 12        	cpx	$12                     ; 0x2012 <printf+0x734>
    2482: b0 be        	bcs	$2442 <printf+0xb64>
    2484: 4c 14 24     	jmp	$2414 <printf+0xb36>
    2487: 86 12        	stx	$12                     ; 0x2012 <printf+0x734>
    2489: c5 12        	cmp	$12                     ; 0x2012 <printf+0x734>
    248b: 98           	tya
    248c: a0 01        	ldy	#$1
    248e: 90 20        	bcc	$24b0 <printf+0xbd2>
    2490: a6 13        	ldx	$13                     ; 0x2013 <printf+0x735>
    2492: d0 03        	bne	$2497 <printf+0xbb9>
    2494: aa           	tax
    2495: f0 19        	beq	$24b0 <printf+0xbd2>
    2497: 18           	clc
    2498: 65 78        	adc	$78                     ; 0x2078 <printf+0x79a>
    249a: 85 12        	sta	$12                     ; 0x2012 <printf+0x734>
    249c: a5 13        	lda	$13                     ; 0x2013 <printf+0x735>
    249e: 65 79        	adc	$79                     ; 0x2079 <printf+0x79b>
    24a0: 85 13        	sta	$13                     ; 0x2013 <printf+0x735>
    24a2: a2 ff        	ldx	#$ff
    24a4: c6 12        	dec	$12                     ; 0x2012 <printf+0x734>
    24a6: e4 12        	cpx	$12                     ; 0x2012 <printf+0x734>
    24a8: d0 02        	bne	$24ac <printf+0xbce>
    24aa: c6 13        	dec	$13                     ; 0x2013 <printf+0x735>
    24ac: a9 00        	lda	#$0
    24ae: 92 12        	sta	($12)                   ; 0x2012 <printf+0x734>
    24b0: e6 45        	inc	$45                     ; 0x2045 <printf+0x767>
    24b2: d0 02        	bne	$24b6 <printf+0xbd8>
    24b4: e6 46        	inc	$46                     ; 0x2046 <printf+0x768>
    24b6: a6 46        	ldx	$46                     ; 0x2046 <printf+0x768>
    24b8: e4 44        	cpx	$44                     ; 0x2044 <printf+0x766>
    24ba: f0 03        	beq	$24bf <printf+0xbe1>
    24bc: 4c 43 19     	jmp	$1943 <printf+0x65>
    24bf: a6 45        	ldx	$45                     ; 0x2045 <printf+0x767>
    24c1: e4 43        	cpx	$43                     ; 0x2043 <printf+0x765>
    24c3: f0 03        	beq	$24c8 <printf+0xbea>
    24c5: 4c 43 19     	jmp	$1943 <printf+0x65>
    24c8: b2 43        	lda	($43)                   ; 0x2043 <printf+0x765>
    24ca: a2 00        	ldx	#$0
    24cc: 86 41        	stx	$41                     ; 0x2041 <printf+0x763>
    24ce: a2 00        	ldx	#$0
    24d0: 86 42        	stx	$42                     ; 0x2042 <printf+0x764>
    24d2: 4c 57 19     	jmp	$1957 <printf+0x79>
    24d5: e4 48        	cpx	$48                     ; 0x2048 <printf+0x76a>
    24d7: a6 40        	ldx	$40                     ; 0x2040 <printf+0x762>
    24d9: b0 03        	bcs	$24de <printf+0xc00>
    24db: 4c a8 1f     	jmp	$1fa8 <printf+0x6ca>
    24de: a5 3f        	lda	$3f                     ; 0x203f <printf+0x761>
    24e0: 85 47        	sta	$47                     ; 0x2047 <printf+0x769>
    24e2: 64 48        	stz	$48                     ; 0x2048 <printf+0x76a>
    24e4: e6 47        	inc	$47                     ; 0x2047 <printf+0x769>
    24e6: f0 03        	beq	$24eb <printf+0xc0d>
    24e8: 4c a8 1f     	jmp	$1fa8 <printf+0x6ca>
    24eb: e6 48        	inc	$48                     ; 0x2048 <printf+0x76a>
    24ed: 4c a8 1f     	jmp	$1fa8 <printf+0x6ca>
    24f0: a2 58        	ldx	#$58
    24f2: 86 89        	stx	$89                     ; 0x2089 <printf+0x7ab>
    24f4: a2 01        	ldx	#$1
    24f6: 86 84        	stx	$84                     ; 0x2084 <printf+0x7a6>
    24f8: a2 30        	ldx	#$30
    24fa: 86 88        	stx	$88                     ; 0x2088 <printf+0x7aa>
    24fc: a9 02        	lda	#$2
    24fe: a2 00        	ldx	#$0
    2500: 86 85        	stx	$85                     ; 0x2085 <printf+0x7a7>
    2502: 4c e9 1f     	jmp	$1fe9 <printf+0x70b>
    2505: 64 4a        	stz	$4a                     ; 0x204a <printf+0x76c>
    2507: 64 49        	stz	$49                     ; 0x2049 <printf+0x76b>
    2509: 4c 41 22     	jmp	$2241 <printf+0x963>
    250c: 60           	rts

0000250d <memcpy>:
    250d: a8           	tay
    250e: 8a           	txa
    250f: d0 03        	bne	$2514 <memcpy+0x7>
    2511: 98           	tya
    2512: f0 24        	beq	$2538 <memcpy+0x2b>
    2514: a5 12        	lda	$12                     ; 0x2012 <printf+0x734>
    2516: 85 16        	sta	$16                     ; 0x2016 <printf+0x738>
    2518: a5 13        	lda	$13                     ; 0x2013 <printf+0x735>
    251a: 85 17        	sta	$17                     ; 0x2017 <printf+0x739>
    251c: b2 14        	lda	($14)                   ; 0x2014 <printf+0x736>
    251e: 92 16        	sta	($16)                   ; 0x2016 <printf+0x738>
    2520: e6 16        	inc	$16                     ; 0x2016 <printf+0x738>
    2522: d0 02        	bne	$2526 <memcpy+0x19>
    2524: e6 17        	inc	$17                     ; 0x2017 <printf+0x739>
    2526: e6 14        	inc	$14                     ; 0x2014 <printf+0x736>
    2528: d0 02        	bne	$252c <memcpy+0x1f>
    252a: e6 15        	inc	$15                     ; 0x2015 <printf+0x737>
    252c: 88           	dey
    252d: c0 ff        	cpy	#$ff
    252f: d0 01        	bne	$2532 <memcpy+0x25>
    2531: ca           	dex
    2532: 8a           	txa
    2533: d0 e7        	bne	$251c <memcpy+0xf>
    2535: 98           	tya
    2536: d0 e4        	bne	$251c <memcpy+0xf>
    2538: 60           	rts

00002539 <__memset>:
    2539: a4 14        	ldy	$14                     ; 0x2014 <printf+0x736>
    253b: d0 04        	bne	$2541 <__memset+0x8>
    253d: e0 00        	cpx	#$0
    253f: f0 17        	beq	$2558 <__memset+0x1f>
    2541: 92 12        	sta	($12)                   ; 0x2012 <printf+0x734>
    2543: e6 12        	inc	$12                     ; 0x2012 <printf+0x734>
    2545: d0 02        	bne	$2549 <__memset+0x10>
    2547: e6 13        	inc	$13                     ; 0x2013 <printf+0x735>
    2549: ca           	dex
    254a: e0 ff        	cpx	#$ff
    254c: d0 02        	bne	$2550 <__memset+0x17>
    254e: c6 14        	dec	$14                     ; 0x2014 <printf+0x736>
    2550: a4 14        	ldy	$14                     ; 0x2014 <printf+0x736>
    2552: d0 ed        	bne	$2541 <__memset+0x8>
    2554: e0 00        	cpx	#$0
    2556: d0 e9        	bne	$2541 <__memset+0x8>
    2558: 60           	rts
