
gjmenuoct25.elf:	file format elf32-mos

SYMBOL TABLE:
00000000 l    df *ABS*	00000000 zero-bss.c
00000000 l    df *ABS*	00000000 zero-zp-bss.c
00000000 l    df *ABS*	00000000 copy-zp-data.c
00000000 l    df *ABS*	00000000 ld-temp.o
0000005e l     O .zp.bss	00000007 kernelEventData
00000030 l     O .zp.data	00000001 _ccolor
00006c8e l     O .rodata	00000030 textColors
00000031 l     O .zp.bss	00000001 _col
00000032 l     O .zp.bss	00000001 _row
00000033 l     O .zp.bss	00000004 _BITMAP_BASE.0
00000037 l     O .zp.bss	00000004 _BITMAP_BASE.1
0000003b l     O .zp.bss	00000004 _BITMAP_BASE.2
00000065 l     O .zp.bss	00000001 kernelError
00006cfb l     O .bss	00001594 cats
00000048 l     O .zp.bss	00000001 menuSoundTimer.2
00000047 l     O .zp.bss	00000001 menuSoundTimer.1
0000345f l     F .text	00000780 readLine
00000068 l     O .zp.bss	00000002 _ZN12_GLOBAL__N_19free_sizeE
00000066 l     O .zp.bss	00000001 _ZN12_GLOBAL__N_111initializedE
0000006a l     O .zp.bss	00000002 _ZN12_GLOBAL__N_19free_listE
00000067 l     O .zp.bss	00000001 _ZN12_GLOBAL__N_19last_freeE
00005751 l     F .text	00000d3a printf
00006ce3 l     O .rodata	00000018 catNames
00004ba9 l     F .text	00000536 initTrack
00000046 l     O .zp.bss	00000001 padDelayTimer.2
00000043 l     O .zp.bss	00000001 readyForPads
00000045 l     O .zp.bss	00000001 padDelayTimer.1
00000044 l     O .zp.bss	00000001 isJingleActive
0000004a l     O .zp.bss	00000001 fudge
0000031a l     F .text	0000014b _ZN12_GLOBAL__N_19FreeChunk6insertEPvj
00000042 l     O .zp.bss	00000001 catSelected
0000324c l     F .text	00000213 goUpOrDown
00002e2d l     F .text	0000041f goLeftOrRight
00000058 l     O .zp.bss	00000002 theOne.6
0000005c l     O .zp.bss	00000002 theOne.8
00006af6 l     F .text	00000032 __mulhi3
00000049 l     O .zp.bss	00000001 doneWithFudge
0000004d l     O .zp.bss	00000002 theOne.1
00006997 l     F .text	0000015f __udivsi3
0000004f l     O .zp.bss	00000004 theOne.2
0000004b l     O .zp.bss	00000002 theOne.0
0000005a l     O .zp.bss	00000002 theOne.7
00003bdf l     F .text	000004c1 readDelta
000040a0 l     F .text	000005c5 readMIDICmd
0000487b l     F .text	0000032e exhaustZeroes
00000053 l     O .zp.bss	00000001 theOne.4
00000054 l     O .zp.bss	00000004 theOne.5
00006b28 l     F .text	00000070 __mulsi3
000050df l     F .text	00000487 destroyTrack
00000041 l     O .zp.bss	00000001 selected
00002d06 l     F .text	0000004d resetPadReadiness
00002d53 l     F .text	000000da fileRead
00006682 l     F .text	000000e7 atoi
00004665 l     F .text	00000216 skipWhenFFCmd
00006769 l     F .text	000001e2 malloc
0000556b l     F .text	000000d7 _ZN12_GLOBAL__N_13putEcP6Status
0000648b l     F .text	000001f7 putchar
00005642 l     F .text	0000010f _ZN12_GLOBAL__N_112print_stringEPKcP6Status
0000003f l     O .zp.bss	00000002 __putchar.s
00000466 l     F .text	000000e8 _ZN12_GLOBAL__N_19FreeChunk6removeEv
0000058b g     F .text	0000277b main
00010400 g       .bmmenu	00000000 bmmenu_start
00023000 g       .bmmenu	00000000 bmmenu_end
00010400 g       .pal	00000000 pal_end
00010000 g       .pal	00000000 pal_start
00039c8b g       .canyon	00000000 canyon_end
00030000 g       .canyon	00000000 canyon_start
00000014 g       *ABS*	00000000 __rc4
00000012 g       *ABS*	00000000 __rc2
00000316 g       .text	00000000 __after_main
00000302 g       .text	00000000 __do_init_stack
00000310 g       .text	00000000 __do_copy_zp_data
00000574 g     F .text	00000017 __copy_zp_data
0000030a g       .text	00000000 __do_zero_bss
0000054e g     F .text	00000013 __zero_bss
0000030d g       .text	00000000 __do_zero_zp_bss
00000561 g     F .text	00000013 __zero_zp_bss
00005566 g     F .text	00000005 exit
00000319 g       .text	00000000 _fini
00006977  w    F .text	00000020 __memset
00001000  w      *ABS*	00000000 __heap_default_limit
00008290 g       .noinit	00000000 __heap_start
0000694b  w    F .text	0000002c memcpy
00000010 g       *ABS*	00000000 __rc0
00000016 g       *ABS*	00000000 __rc6
00000018 g       *ABS*	00000000 __rc8
0000001a g       *ABS*	00000000 __rc10
0000001c g       *ABS*	00000000 __rc12
0000001e g       *ABS*	00000000 __rc14
00000020 g       *ABS*	00000000 __rc16
00000022 g       *ABS*	00000000 __rc18
00000024 g       *ABS*	00000000 __rc20
00000026 g       *ABS*	00000000 __rc22
00000028 g       *ABS*	00000000 __rc24
0000002a g       *ABS*	00000000 __rc26
0000002c g       *ABS*	00000000 __rc28
0000002e g       *ABS*	00000000 __rc30
0000002f g       *ABS*	00000000 __rc31
00000300 g       *ABS*	00000000 __f256_start
0000a000 g       *ABS*	00000000 __stack
0000a000 g       *ABS*	00000000 __SLOT_ADDR
0800a000 g       *ABS*	00000000 __block8_lma
00002000 g       *ABS*	00000000 __BLOCK_SIZE
0900a000 g       *ABS*	00000000 __block9_lma
0a00a000 g       *ABS*	00000000 __block10_lma
0b00a000 g       *ABS*	00000000 __block11_lma
0c00a000 g       *ABS*	00000000 __block12_lma
0d00a000 g       *ABS*	00000000 __block13_lma
0e00a000 g       *ABS*	00000000 __block14_lma
0f00a000 g       *ABS*	00000000 __block15_lma
1000a000 g       *ABS*	00000000 __block16_lma
1100a000 g       *ABS*	00000000 __block17_lma
1200a000 g       *ABS*	00000000 __block18_lma
1300a000 g       *ABS*	00000000 __block19_lma
1400a000 g       *ABS*	00000000 __block20_lma
1500a000 g       *ABS*	00000000 __block21_lma
1600a000 g       *ABS*	00000000 __block22_lma
1700a000 g       *ABS*	00000000 __block23_lma
00010000 g       *ABS*	00000000 __pal_lma
00000400 g       *ABS*	00000000 __pal_size
00010400 g       *ABS*	00000000 __bmmenu_lma
00012c00 g       *ABS*	00000000 __bmmenu_size
00030000 g       *ABS*	00000000 __canyon_lma
00009c8b g       *ABS*	00000000 __canyon_size
00006cfb g       .bss	00000000 __bss_start
00010400 g       .pal	00000000 end_pal
00023000 g       .bmmenu	00000000 end_bmmenu
00039c8b g       .canyon	00000000 end_canyon
00000302 g       .text	00000000 _start
0000002d g       *ABS*	00000000 __rc29
0000002b g       *ABS*	00000000 __rc27
00000029 g       *ABS*	00000000 __rc25
00000027 g       *ABS*	00000000 __rc23
00000025 g       *ABS*	00000000 __rc21
00000023 g       *ABS*	00000000 __rc19
00000021 g       *ABS*	00000000 __rc17
0000001f g       *ABS*	00000000 __rc15
0000001d g       *ABS*	00000000 __rc13
0000001b g       *ABS*	00000000 __rc11
00000019 g       *ABS*	00000000 __rc9
00000017 g       *ABS*	00000000 __rc7
00000015 g       *ABS*	00000000 __rc5
00000013 g       *ABS*	00000000 __rc3
00000011 g       *ABS*	00000000 __rc1
00000030 g       .zp.data	00000000 __zp_data_start
00000300 g       *ABS*	00000000 __zp_data_load_start
00000001 g       *ABS*	00000000 __zp_data_size
00000031 g       .zp.bss	00000000 __zp_bss_start
0000003b g       *ABS*	00000000 __zp_bss_size
00000302 g       .text	00000000 _init
00006b98 g       .text	00000000 __init_array_start
00006b98 g       .text	00000000 __init_array_end
00006b98 g       .text	00000000 __fini_array_start
00006b98 g       .text	00000000 __fini_array_end
00006cfb g       .data	00000000 __data_start
00006cfb g       .data	00000000 __data_end
00006cfb g       *ABS*	00000000 __data_load_start
00000000 g       *ABS*	00000000 __data_size
0000828f g       .bss	00000000 __bss_end
00001594 g       *ABS*	00000000 __bss_size
0000828f g       .noinit	00000000 end_block8
0000828f g       .noinit	00000000 end_block9
0000828f g       .noinit	00000000 end_block10
0000828f g       .noinit	00000000 end_block11
0000828f g       .noinit	00000000 end_block12
0000828f g       .noinit	00000000 end_block13
0000828f g       .noinit	00000000 end_block14
0000828f g       .noinit	00000000 end_block15
0000828f g       .noinit	00000000 end_block16
0000828f g       .noinit	00000000 end_block17
0000828f g       .noinit	00000000 end_block18
0000828f g       .noinit	00000000 end_block19
0000828f g       .noinit	00000000 end_block20
0000828f g       .noinit	00000000 end_block21
0000828f g       .noinit	00000000 end_block22
0000828f g       .noinit	00000000 end_block23

Disassembly of section .text:

00000302 <_start>:
     302: a9 00        	lda	#$0
     304: 85 10        	sta	$10                     ; 0x10 <__rc0>
     306: a9 a0        	lda	#$a0
     308: 85 11        	sta	$11                     ; 0x11 <__rc1>

0000030a <__do_zero_bss>:
     30a: 20 4e 05     	jsr	$54e <__zero_bss>

0000030d <__do_zero_zp_bss>:
     30d: 20 61 05     	jsr	$561 <__zero_zp_bss>

00000310 <__do_copy_zp_data>:
     310: 20 74 05     	jsr	$574 <__copy_zp_data>
     313: 20 8b 05     	jsr	$58b <main>

00000316 <__after_main>:
     316: 4c 66 55     	jmp	$5566 <exit>

00000319 <_fini>:
     319: 60           	rts

0000031a <_ZN12_GLOBAL__N_19FreeChunk6insertEPvj>:
     31a: 85 16        	sta	$16                     ; 0x16 <__rc6>
     31c: 29 fe        	and	#$fe
     31e: 85 14        	sta	$14                     ; 0x14 <__rc4>
     320: a0 01        	ldy	#$1
     322: 98           	tya
     323: 32 12        	and	($12)                   ; 0x12 <__rc2>
     325: 05 14        	ora	$14                     ; 0x14 <__rc4>
     327: 92 12        	sta	($12)                   ; 0x12 <__rc2>
     329: a5 12        	lda	$12                     ; 0x12 <__rc2>
     32b: 18           	clc
     32c: 65 14        	adc	$14                     ; 0x14 <__rc4>
     32e: 85 15        	sta	$15                     ; 0x15 <__rc5>
     330: 8a           	txa
     331: 65 13        	adc	$13                     ; 0x13 <__rc3>
     333: 85 14        	sta	$14                     ; 0x14 <__rc4>
     335: 18           	clc
     336: a5 15        	lda	$15                     ; 0x15 <__rc5>
     338: 69 fe        	adc	#$fe
     33a: 85 17        	sta	$17                     ; 0x17 <__rc7>
     33c: a5 14        	lda	$14                     ; 0x14 <__rc4>
     33e: 69 ff        	adc	#$ff
     340: 85 15        	sta	$15                     ; 0x15 <__rc5>
     342: a5 17        	lda	$17                     ; 0x17 <__rc7>
     344: 85 14        	sta	$14                     ; 0x14 <__rc4>
     346: 8a           	txa
     347: 91 12        	sta	($12),y                 ; 0x12 <__rc2>
     349: a5 16        	lda	$16                     ; 0x16 <__rc6>
     34b: 92 14        	sta	($14)                   ; 0x14 <__rc4>
     34d: 8a           	txa
     34e: 91 14        	sta	($14),y                 ; 0x14 <__rc4>
     350: a2 01        	ldx	#$1
     352: 86 18        	stx	$18                     ; 0x18 <__rc8>
     354: b1 12        	lda	($12),y                 ; 0x12 <__rc2>
     356: 85 14        	sta	$14                     ; 0x14 <__rc4>
     358: a9 fe        	lda	#$fe
     35a: 32 12        	and	($12)                   ; 0x12 <__rc2>
     35c: 18           	clc
     35d: 65 68        	adc	$68                     ; 0x68 <_ZN12_GLOBAL__N_19free_sizeE>
     35f: aa           	tax
     360: a5 14        	lda	$14                     ; 0x14 <__rc4>
     362: 65 69        	adc	$69                     ; 0x69 <_ZN12_GLOBAL__N_19free_sizeE+0x1>
     364: a8           	tay
     365: 18           	clc
     366: 8a           	txa
     367: 69 fe        	adc	#$fe
     369: aa           	tax
     36a: 98           	tya
     36b: 69 ff        	adc	#$ff
     36d: 86 68        	stx	$68                     ; 0x68 <_ZN12_GLOBAL__N_19free_sizeE>
     36f: 85 69        	sta	$69                     ; 0x69 <_ZN12_GLOBAL__N_19free_sizeE+0x1>
     371: a6 6a        	ldx	$6a                     ; 0x6a <_ZN12_GLOBAL__N_19free_listE>
     373: 86 16        	stx	$16                     ; 0x16 <__rc6>
     375: a4 6b        	ldy	$6b                     ; 0x6b <_ZN12_GLOBAL__N_19free_listE+0x1>
     377: a2 00        	ldx	#$0
     379: 86 14        	stx	$14                     ; 0x14 <__rc4>
     37b: a2 00        	ldx	#$0
     37d: 86 15        	stx	$15                     ; 0x15 <__rc5>
     37f: 84 17        	sty	$17                     ; 0x17 <__rc7>
     381: c4 15        	cpy	$15                     ; 0x15 <__rc5>
     383: d0 3c        	bne	$3c1 <_ZN12_GLOBAL__N_19FreeChunk6insertEPvj+0xa7>
     385: a6 16        	ldx	$16                     ; 0x16 <__rc6>
     387: e4 14        	cpx	$14                     ; 0x14 <__rc4>
     389: d0 36        	bne	$3c1 <_ZN12_GLOBAL__N_19FreeChunk6insertEPvj+0xa7>
     38b: a0 04        	ldy	#$4
     38d: a5 12        	lda	$12                     ; 0x12 <__rc2>
     38f: 18           	clc
     390: 69 04        	adc	#$4
     392: 85 14        	sta	$14                     ; 0x14 <__rc4>
     394: a5 13        	lda	$13                     ; 0x13 <__rc3>
     396: 69 00        	adc	#$0
     398: 18           	clc
     399: 85 15        	sta	$15                     ; 0x15 <__rc5>
     39b: a5 12        	lda	$12                     ; 0x12 <__rc2>
     39d: 91 12        	sta	($12),y                 ; 0x12 <__rc2>
     39f: a0 02        	ldy	#$2
     3a1: 85 17        	sta	$17                     ; 0x17 <__rc7>
     3a3: 69 02        	adc	#$2
     3a5: 85 16        	sta	$16                     ; 0x16 <__rc6>
     3a7: a5 17        	lda	$17                     ; 0x17 <__rc7>
     3a9: 91 12        	sta	($12),y                 ; 0x12 <__rc2>
     3ab: a5 13        	lda	$13                     ; 0x13 <__rc3>
     3ad: 69 00        	adc	#$0
     3af: 85 17        	sta	$17                     ; 0x17 <__rc7>
     3b1: 88           	dey
     3b2: a5 13        	lda	$13                     ; 0x13 <__rc3>
     3b4: 91 14        	sta	($14),y                 ; 0x14 <__rc4>
     3b6: 91 16        	sta	($16),y                 ; 0x16 <__rc6>
     3b8: a6 12        	ldx	$12                     ; 0x12 <__rc2>
     3ba: 86 6a        	stx	$6a                     ; 0x6a <_ZN12_GLOBAL__N_19free_listE>
     3bc: a6 13        	ldx	$13                     ; 0x13 <__rc3>
     3be: 86 6b        	stx	$6b                     ; 0x6b <_ZN12_GLOBAL__N_19free_listE+0x1>
     3c0: 60           	rts
     3c1: a6 12        	ldx	$12                     ; 0x12 <__rc2>
     3c3: a5 12        	lda	$12                     ; 0x12 <__rc2>
     3c5: 18           	clc
     3c6: 69 02        	adc	#$2
     3c8: 85 14        	sta	$14                     ; 0x14 <__rc4>
     3ca: a4 16        	ldy	$16                     ; 0x16 <__rc6>
     3cc: a5 13        	lda	$13                     ; 0x13 <__rc3>
     3ce: 69 00        	adc	#$0
     3d0: 85 15        	sta	$15                     ; 0x15 <__rc5>
     3d2: 84 19        	sty	$19                     ; 0x19 <__rc9>
     3d4: a4 17        	ldy	$17                     ; 0x17 <__rc7>
     3d6: 84 1a        	sty	$1a                     ; 0x1a <__rc10>
     3d8: a0 02        	ldy	#$2
     3da: a5 19        	lda	$19                     ; 0x19 <__rc9>
     3dc: 91 12        	sta	($12),y                 ; 0x12 <__rc2>
     3de: 84 1d        	sty	$1d                     ; 0x1d <__rc13>
     3e0: a4 18        	ldy	$18                     ; 0x18 <__rc8>
     3e2: a5 1a        	lda	$1a                     ; 0x1a <__rc10>
     3e4: 91 14        	sta	($14),y                 ; 0x14 <__rc4>
     3e6: 84 1e        	sty	$1e                     ; 0x1e <__rc14>
     3e8: 18           	clc
     3e9: a5 19        	lda	$19                     ; 0x19 <__rc9>
     3eb: 69 04        	adc	#$4
     3ed: 85 18        	sta	$18                     ; 0x18 <__rc8>
     3ef: a5 1a        	lda	$1a                     ; 0x1a <__rc10>
     3f1: 69 00        	adc	#$0
     3f3: 85 19        	sta	$19                     ; 0x19 <__rc9>
     3f5: 8a           	txa
     3f6: 18           	clc
     3f7: 69 04        	adc	#$4
     3f9: 85 1a        	sta	$1a                     ; 0x1a <__rc10>
     3fb: a5 13        	lda	$13                     ; 0x13 <__rc3>
     3fd: 69 00        	adc	#$0
     3ff: 85 1b        	sta	$1b                     ; 0x1b <__rc11>
     401: a0 04        	ldy	#$4
     403: b1 16        	lda	($16),y                 ; 0x16 <__rc6>
     405: 85 16        	sta	$16                     ; 0x16 <__rc6>
     407: 85 22        	sta	$22                     ; 0x22 <__rc18>
     409: a4 1e        	ldy	$1e                     ; 0x1e <__rc14>
     40b: b1 18        	lda	($18),y                 ; 0x18 <__rc8>
     40d: 85 17        	sta	$17                     ; 0x17 <__rc7>
     40f: 85 19        	sta	$19                     ; 0x19 <__rc9>
     411: a0 04        	ldy	#$4
     413: a5 22        	lda	$22                     ; 0x22 <__rc18>
     415: 91 12        	sta	($12),y                 ; 0x12 <__rc2>
     417: 84 1f        	sty	$1f                     ; 0x1f <__rc15>
     419: a4 1e        	ldy	$1e                     ; 0x1e <__rc14>
     41b: a5 19        	lda	$19                     ; 0x19 <__rc9>
     41d: 91 1a        	sta	($1a),y                 ; 0x1a <__rc10>
     41f: 84 1a        	sty	$1a                     ; 0x1a <__rc10>
     421: 18           	clc
     422: a5 22        	lda	$22                     ; 0x22 <__rc18>
     424: 69 02        	adc	#$2
     426: 85 18        	sta	$18                     ; 0x18 <__rc8>
     428: a5 19        	lda	$19                     ; 0x19 <__rc9>
     42a: 69 00        	adc	#$0
     42c: 85 19        	sta	$19                     ; 0x19 <__rc9>
     42e: 8a           	txa
     42f: a4 1d        	ldy	$1d                     ; 0x1d <__rc13>
     431: 91 16        	sta	($16),y                 ; 0x16 <__rc6>
     433: a5 13        	lda	$13                     ; 0x13 <__rc3>
     435: a4 1a        	ldy	$1a                     ; 0x1a <__rc10>
     437: 91 18        	sta	($18),y                 ; 0x18 <__rc8>
     439: a4 1d        	ldy	$1d                     ; 0x1d <__rc13>
     43b: b1 12        	lda	($12),y                 ; 0x12 <__rc2>
     43d: 85 16        	sta	$16                     ; 0x16 <__rc6>
     43f: 85 19        	sta	$19                     ; 0x19 <__rc9>
     441: a4 1a        	ldy	$1a                     ; 0x1a <__rc10>
     443: b1 14        	lda	($14),y                 ; 0x14 <__rc4>
     445: 84 18        	sty	$18                     ; 0x18 <__rc8>
     447: 85 17        	sta	$17                     ; 0x17 <__rc7>
     449: 85 14        	sta	$14                     ; 0x14 <__rc4>
     44b: 8a           	txa
     44c: a4 1f        	ldy	$1f                     ; 0x1f <__rc15>
     44e: 91 16        	sta	($16),y                 ; 0x16 <__rc6>
     450: 18           	clc
     451: a5 19        	lda	$19                     ; 0x19 <__rc9>
     453: 69 04        	adc	#$4
     455: a8           	tay
     456: a5 14        	lda	$14                     ; 0x14 <__rc4>
     458: 69 00        	adc	#$0
     45a: 84 14        	sty	$14                     ; 0x14 <__rc4>
     45c: 85 15        	sta	$15                     ; 0x15 <__rc5>
     45e: a5 13        	lda	$13                     ; 0x13 <__rc3>
     460: a4 18        	ldy	$18                     ; 0x18 <__rc8>
     462: 91 14        	sta	($14),y                 ; 0x14 <__rc4>
     464: 60           	rts
     465: 00           	brk

00000466 <_ZN12_GLOBAL__N_19FreeChunk6removeEv>:
     466: a0 01        	ldy	#$1
     468: a9 fe        	lda	#$fe
     46a: 32 12        	and	($12)                   ; 0x12 <__rc2>
     46c: 85 14        	sta	$14                     ; 0x14 <__rc4>
     46e: a5 68        	lda	$68                     ; 0x68 <_ZN12_GLOBAL__N_19free_sizeE>
     470: a6 69        	ldx	$69                     ; 0x69 <_ZN12_GLOBAL__N_19free_sizeE+0x1>
     472: 38           	sec
     473: e5 14        	sbc	$14                     ; 0x14 <__rc4>
     475: 85 17        	sta	$17                     ; 0x17 <__rc7>
     477: 8a           	txa
     478: f1 12        	sbc	($12),y                 ; 0x12 <__rc2>
     47a: 85 14        	sta	$14                     ; 0x14 <__rc4>
     47c: a2 01        	ldx	#$1
     47e: 86 16        	stx	$16                     ; 0x16 <__rc6>
     480: 18           	clc
     481: a5 17        	lda	$17                     ; 0x17 <__rc7>
     483: 69 02        	adc	#$2
     485: 85 15        	sta	$15                     ; 0x15 <__rc5>
     487: a5 14        	lda	$14                     ; 0x14 <__rc4>
     489: 69 00        	adc	#$0
     48b: a6 15        	ldx	$15                     ; 0x15 <__rc5>
     48d: 86 68        	stx	$68                     ; 0x68 <_ZN12_GLOBAL__N_19free_sizeE>
     48f: 85 69        	sta	$69                     ; 0x69 <_ZN12_GLOBAL__N_19free_sizeE+0x1>
     491: a5 12        	lda	$12                     ; 0x12 <__rc2>
     493: 18           	clc
     494: 69 02        	adc	#$2
     496: 85 14        	sta	$14                     ; 0x14 <__rc4>
     498: a5 13        	lda	$13                     ; 0x13 <__rc3>
     49a: 69 00        	adc	#$0
     49c: c8           	iny
     49d: 85 15        	sta	$15                     ; 0x15 <__rc5>
     49f: b1 12        	lda	($12),y                 ; 0x12 <__rc2>
     4a1: aa           	tax
     4a2: a4 16        	ldy	$16                     ; 0x16 <__rc6>
     4a4: b1 14        	lda	($14),y                 ; 0x14 <__rc4>
     4a6: 85 19        	sta	$19                     ; 0x19 <__rc9>
     4a8: c5 13        	cmp	$13                     ; 0x13 <__rc3>
     4aa: d0 0f        	bne	$4bb <_ZN12_GLOBAL__N_19FreeChunk6removeEv+0x55>
     4ac: e4 12        	cpx	$12                     ; 0x12 <__rc2>
     4ae: d0 0b        	bne	$4bb <_ZN12_GLOBAL__N_19FreeChunk6removeEv+0x55>
     4b0: a2 00        	ldx	#$0
     4b2: 86 14        	stx	$14                     ; 0x14 <__rc4>
     4b4: a2 00        	ldx	#$0
     4b6: 86 15        	stx	$15                     ; 0x15 <__rc5>
     4b8: 4c 45 05     	jmp	$545 <_ZN12_GLOBAL__N_19FreeChunk6removeEv+0xdf>
     4bb: 86 18        	stx	$18                     ; 0x18 <__rc8>
     4bd: a6 12        	ldx	$12                     ; 0x12 <__rc2>
     4bf: a5 12        	lda	$12                     ; 0x12 <__rc2>
     4c1: 86 1c        	stx	$1c                     ; 0x1c <__rc12>
     4c3: 18           	clc
     4c4: 69 04        	adc	#$4
     4c6: 85 14        	sta	$14                     ; 0x14 <__rc4>
     4c8: a5 13        	lda	$13                     ; 0x13 <__rc3>
     4ca: 69 00        	adc	#$0
     4cc: a0 04        	ldy	#$4
     4ce: 85 15        	sta	$15                     ; 0x15 <__rc5>
     4d0: b1 12        	lda	($12),y                 ; 0x12 <__rc2>
     4d2: 85 1d        	sta	$1d                     ; 0x1d <__rc13>
     4d4: a2 04        	ldx	#$4
     4d6: 86 1a        	stx	$1a                     ; 0x1a <__rc10>
     4d8: 18           	clc
     4d9: 69 02        	adc	#$2
     4db: 85 16        	sta	$16                     ; 0x16 <__rc6>
     4dd: a0 01        	ldy	#$1
     4df: b1 14        	lda	($14),y                 ; 0x14 <__rc4>
     4e1: aa           	tax
     4e2: 84 1e        	sty	$1e                     ; 0x1e <__rc14>
     4e4: 69 00        	adc	#$0
     4e6: a4 16        	ldy	$16                     ; 0x16 <__rc6>
     4e8: 84 14        	sty	$14                     ; 0x14 <__rc4>
     4ea: 85 15        	sta	$15                     ; 0x15 <__rc5>
     4ec: a4 1d        	ldy	$1d                     ; 0x1d <__rc13>
     4ee: 84 16        	sty	$16                     ; 0x16 <__rc6>
     4f0: 86 17        	stx	$17                     ; 0x17 <__rc7>
     4f2: a5 18        	lda	$18                     ; 0x18 <__rc8>
     4f4: a0 02        	ldy	#$2
     4f6: 91 16        	sta	($16),y                 ; 0x16 <__rc6>
     4f8: 84 16        	sty	$16                     ; 0x16 <__rc6>
     4fa: a5 19        	lda	$19                     ; 0x19 <__rc9>
     4fc: a4 1e        	ldy	$1e                     ; 0x1e <__rc14>
     4fe: 91 14        	sta	($14),y                 ; 0x14 <__rc4>
     500: 18           	clc
     501: a5 1c        	lda	$1c                     ; 0x1c <__rc12>
     503: 69 02        	adc	#$2
     505: 85 14        	sta	$14                     ; 0x14 <__rc4>
     507: a5 13        	lda	$13                     ; 0x13 <__rc3>
     509: 69 00        	adc	#$0
     50b: 85 15        	sta	$15                     ; 0x15 <__rc5>
     50d: a4 16        	ldy	$16                     ; 0x16 <__rc6>
     50f: b1 12        	lda	($12),y                 ; 0x12 <__rc2>
     511: 85 16        	sta	$16                     ; 0x16 <__rc6>
     513: a4 1e        	ldy	$1e                     ; 0x1e <__rc14>
     515: b1 14        	lda	($14),y                 ; 0x14 <__rc4>
     517: 84 18        	sty	$18                     ; 0x18 <__rc8>
     519: a4 16        	ldy	$16                     ; 0x16 <__rc6>
     51b: 84 14        	sty	$14                     ; 0x14 <__rc4>
     51d: 85 15        	sta	$15                     ; 0x15 <__rc5>
     51f: 85 17        	sta	$17                     ; 0x17 <__rc7>
     521: a4 1a        	ldy	$1a                     ; 0x1a <__rc10>
     523: a5 1d        	lda	$1d                     ; 0x1d <__rc13>
     525: 91 14        	sta	($14),y                 ; 0x14 <__rc4>
     527: 18           	clc
     528: a5 16        	lda	$16                     ; 0x16 <__rc6>
     52a: 69 04        	adc	#$4
     52c: 85 16        	sta	$16                     ; 0x16 <__rc6>
     52e: a5 17        	lda	$17                     ; 0x17 <__rc7>
     530: 69 00        	adc	#$0
     532: 85 17        	sta	$17                     ; 0x17 <__rc7>
     534: 8a           	txa
     535: a4 18        	ldy	$18                     ; 0x18 <__rc8>
     537: 91 16        	sta	($16),y                 ; 0x16 <__rc6>
     539: a6 6b        	ldx	$6b                     ; 0x6b <_ZN12_GLOBAL__N_19free_listE+0x1>
     53b: e4 13        	cpx	$13                     ; 0x13 <__rc3>
     53d: d0 0e        	bne	$54d <_ZN12_GLOBAL__N_19FreeChunk6removeEv+0xe7>
     53f: a6 6a        	ldx	$6a                     ; 0x6a <_ZN12_GLOBAL__N_19free_listE>
     541: e4 12        	cpx	$12                     ; 0x12 <__rc2>
     543: d0 08        	bne	$54d <_ZN12_GLOBAL__N_19FreeChunk6removeEv+0xe7>
     545: a6 14        	ldx	$14                     ; 0x14 <__rc4>
     547: a4 15        	ldy	$15                     ; 0x15 <__rc5>
     549: 86 6a        	stx	$6a                     ; 0x6a <_ZN12_GLOBAL__N_19free_listE>
     54b: 84 6b        	sty	$6b                     ; 0x6b <_ZN12_GLOBAL__N_19free_listE+0x1>
     54d: 60           	rts

0000054e <__zero_bss>:
     54e: a2 94        	ldx	#$94
     550: a0 15        	ldy	#$15
     552: a9 fb        	lda	#$fb
     554: 85 12        	sta	$12                     ; 0x12 <__rc2>
     556: a9 6c        	lda	#$6c
     558: 85 13        	sta	$13                     ; 0x13 <__rc3>
     55a: a9 00        	lda	#$0
     55c: 84 14        	sty	$14                     ; 0x14 <__rc4>
     55e: 4c 77 69     	jmp	$6977 <__memset>

00000561 <__zero_zp_bss>:
     561: a2 3b        	ldx	#$3b
     563: a0 00        	ldy	#$0
     565: a9 31        	lda	#$31
     567: 85 12        	sta	$12                     ; 0x12 <__rc2>
     569: a9 00        	lda	#$0
     56b: 85 13        	sta	$13                     ; 0x13 <__rc3>
     56d: a9 00        	lda	#$0
     56f: 84 14        	sty	$14                     ; 0x14 <__rc4>
     571: 4c 77 69     	jmp	$6977 <__memset>

00000574 <__copy_zp_data>:
     574: a9 01        	lda	#$1
     576: a2 00        	ldx	#$0
     578: a0 30        	ldy	#$30
     57a: 84 12        	sty	$12                     ; 0x12 <__rc2>
     57c: a0 00        	ldy	#$0
     57e: 84 13        	sty	$13                     ; 0x13 <__rc3>
     580: a0 00        	ldy	#$0
     582: 84 14        	sty	$14                     ; 0x14 <__rc4>
     584: a0 03        	ldy	#$3
     586: 84 15        	sty	$15                     ; 0x15 <__rc5>
     588: 4c 4b 69     	jmp	$694b <memcpy>

0000058b <main>:
     58b: 18           	clc
     58c: a5 10        	lda	$10                     ; 0x10 <__rc0>
     58e: 69 e7        	adc	#$e7
     590: 85 10        	sta	$10                     ; 0x10 <__rc0>
     592: a5 11        	lda	$11                     ; 0x11 <__rc1>
     594: 69 ff        	adc	#$ff
     596: 85 11        	sta	$11                     ; 0x11 <__rc1>
     598: a6 24        	ldx	$24                     ; 0x24 <__rc20>
     59a: da           	phx
     59b: a6 25        	ldx	$25                     ; 0x25 <__rc21>
     59d: da           	phx
     59e: a6 26        	ldx	$26                     ; 0x26 <__rc22>
     5a0: da           	phx
     5a1: a6 27        	ldx	$27                     ; 0x27 <__rc23>
     5a3: da           	phx
     5a4: a5 28        	lda	$28                     ; 0x28 <__rc24>
     5a6: a0 09        	ldy	#$9
     5a8: 91 10        	sta	($10),y                 ; 0x10 <__rc0>
     5aa: a5 29        	lda	$29                     ; 0x29 <__rc25>
     5ac: 88           	dey
     5ad: 91 10        	sta	($10),y                 ; 0x10 <__rc0>
     5af: a5 2a        	lda	$2a                     ; 0x2a <__rc26>
     5b1: 88           	dey
     5b2: 91 10        	sta	($10),y                 ; 0x10 <__rc0>
     5b4: a5 2b        	lda	$2b                     ; 0x2b <__rc27>
     5b6: 88           	dey
     5b7: 91 10        	sta	($10),y                 ; 0x10 <__rc0>
     5b9: a5 2c        	lda	$2c                     ; 0x2c <__rc28>
     5bb: 88           	dey
     5bc: 91 10        	sta	($10),y                 ; 0x10 <__rc0>
     5be: a5 2d        	lda	$2d                     ; 0x2d <__rc29>
     5c0: 88           	dey
     5c1: 91 10        	sta	($10),y                 ; 0x10 <__rc0>
     5c3: a5 2e        	lda	$2e                     ; 0x2e <__rc30>
     5c5: 88           	dey
     5c6: 91 10        	sta	($10),y                 ; 0x10 <__rc0>
     5c8: a5 2f        	lda	$2f                     ; 0x2f <__rc31>
     5ca: 88           	dey
     5cb: 91 10        	sta	($10),y                 ; 0x10 <__rc0>
     5cd: 64 1e        	stz	$1e                     ; 0x1e <__rc14>
     5cf: a2 00        	ldx	#$0
     5d1: 86 16        	stx	$16                     ; 0x16 <__rc6>
     5d3: a2 d0        	ldx	#$d0
     5d5: 86 17        	stx	$17                     ; 0x17 <__rc7>
     5d7: a2 00        	ldx	#$0
     5d9: 86 12        	stx	$12                     ; 0x12 <__rc2>
     5db: a2 d8        	ldx	#$d8
     5dd: 86 13        	stx	$13                     ; 0x13 <__rc3>
     5df: a2 00        	ldx	#$0
     5e1: a0 10        	ldy	#$10
     5e3: a9 90        	lda	#$90
     5e5: 86 14        	stx	$14                     ; 0x14 <__rc4>
     5e7: 84 15        	sty	$15                     ; 0x15 <__rc5>
     5e9: 18           	clc
     5ea: 65 14        	adc	$14                     ; 0x14 <__rc4>
     5ec: 85 2d        	sta	$2d                     ; 0x2d <__rc29>
     5ee: a9 82        	lda	#$82
     5f0: 65 15        	adc	$15                     ; 0x15 <__rc5>
     5f2: 85 29        	sta	$29                     ; 0x29 <__rc25>
     5f4: a9 03        	lda	#$3
     5f6: a0 02        	ldy	#$2
     5f8: 64 01        	stz	$1                      ; 0x1 <__zp_data_size>
     5fa: a2 3f        	ldx	#$3f
     5fc: 8e 00 d0     	stx	$d000                   ; 0xd000 <__heap_start+0x4d70>
     5ff: a2 b3        	ldx	#$b3
     601: 86 00        	stx	$0                      ; 0x0 <__data_size>
     603: 64 08        	stz	$8                      ; 0x8 <__zp_data_size+0x7>
     605: a2 01        	ldx	#$1
     607: 86 09        	stx	$9                      ; 0x9 <__zp_data_size+0x8>
     609: 84 0a        	sty	$a                      ; 0xa <__zp_data_size+0x9>
     60b: 85 0b        	sta	$b                      ; 0xb <__zp_data_size+0xa>
     60d: a2 04        	ldx	#$4
     60f: 86 0c        	stx	$c                      ; 0xc <__zp_data_size+0xb>
     611: e8           	inx
     612: 86 0d        	stx	$d                      ; 0xd <__zp_data_size+0xc>
     614: a2 5e        	ldx	#$5e
     616: 86 f0        	stx	$f0                     ; 0xf0 <__zp_bss_size+0xb5>
     618: a2 00        	ldx	#$0
     61a: 86 f1        	stx	$f1                     ; 0xf1 <__zp_bss_size+0xb6>
     61c: a2 00        	ldx	#$0
     61e: 86 18        	stx	$18                     ; 0x18 <__rc8>
     620: a2 d4        	ldx	#$d4
     622: 86 19        	stx	$19                     ; 0x19 <__rc9>
     624: a2 00        	ldx	#$0
     626: 86 14        	stx	$14                     ; 0x14 <__rc4>
     628: a2 dc        	ldx	#$dc
     62a: 86 15        	stx	$15                     ; 0x15 <__rc5>
     62c: a2 00        	ldx	#$0
     62e: 86 1a        	stx	$1a                     ; 0x1a <__rc10>
     630: a2 c0        	ldx	#$c0
     632: 86 1b        	stx	$1b                     ; 0x1b <__rc11>
     634: a5 1a        	lda	$1a                     ; 0x1a <__rc10>
     636: a0 0c        	ldy	#$c
     638: 91 10        	sta	($10),y                 ; 0x10 <__rc0>
     63a: a5 1b        	lda	$1b                     ; 0x1b <__rc11>
     63c: c8           	iny
     63d: 91 10        	sta	($10),y                 ; 0x10 <__rc0>
     63f: a2 03        	ldx	#$3
     641: 86 24        	stx	$24                     ; 0x24 <__rc20>
     643: ca           	dex
     644: 86 25        	stx	$25                     ; 0x25 <__rc21>
     646: a2 10        	ldx	#$10
     648: 86 2c        	stx	$2c                     ; 0x2c <__rc28>
     64a: a6 01        	ldx	$1                      ; 0x1 <__zp_data_size>
     64c: a0 01        	ldy	#$1
     64e: 84 01        	sty	$1                      ; 0x1 <__zp_data_size>
     650: a5 1e        	lda	$1e                     ; 0x1e <__rc14>
     652: 92 16        	sta	($16)                   ; 0x16 <__rc6>
     654: 91 16        	sta	($16),y                 ; 0x16 <__rc6>
     656: c8           	iny
     657: 91 16        	sta	($16),y                 ; 0x16 <__rc6>
     659: c8           	iny
     65a: a9 ff        	lda	#$ff
     65c: 91 16        	sta	($16),y                 ; 0x16 <__rc6>
     65e: 86 01        	stx	$1                      ; 0x1 <__zp_data_size>
     660: a5 16        	lda	$16                     ; 0x16 <__rc6>
     662: 18           	clc
     663: 69 04        	adc	#$4
     665: 85 16        	sta	$16                     ; 0x16 <__rc6>
     667: a5 17        	lda	$17                     ; 0x17 <__rc7>
     669: 69 00        	adc	#$0
     66b: e6 1e        	inc	$1e                     ; 0x1e <__rc14>
     66d: 85 17        	sta	$17                     ; 0x17 <__rc7>
     66f: d0 d9        	bne	$64a <main+0xbf>
     671: a9 00        	lda	#$0
     673: a6 01        	ldx	$1                      ; 0x1 <__zp_data_size>
     675: a0 01        	ldy	#$1
     677: 84 01        	sty	$1                      ; 0x1 <__zp_data_size>
     679: 92 18        	sta	($18)                   ; 0x18 <__rc8>
     67b: 91 18        	sta	($18),y                 ; 0x18 <__rc8>
     67d: c8           	iny
     67e: 91 18        	sta	($18),y                 ; 0x18 <__rc8>
     680: c8           	iny
     681: 85 16        	sta	$16                     ; 0x16 <__rc6>
     683: a9 ff        	lda	#$ff
     685: 91 18        	sta	($18),y                 ; 0x18 <__rc8>
     687: 86 01        	stx	$1                      ; 0x1 <__zp_data_size>
     689: a5 18        	lda	$18                     ; 0x18 <__rc8>
     68b: 18           	clc
     68c: 69 04        	adc	#$4
     68e: 85 18        	sta	$18                     ; 0x18 <__rc8>
     690: a5 19        	lda	$19                     ; 0x19 <__rc9>
     692: 69 00        	adc	#$0
     694: e6 16        	inc	$16                     ; 0x16 <__rc6>
     696: 85 19        	sta	$19                     ; 0x19 <__rc9>
     698: a5 16        	lda	$16                     ; 0x16 <__rc6>
     69a: d0 d7        	bne	$673 <main+0xe8>
     69c: a9 00        	lda	#$0
     69e: a6 01        	ldx	$1                      ; 0x1 <__zp_data_size>
     6a0: a0 01        	ldy	#$1
     6a2: 84 01        	sty	$1                      ; 0x1 <__zp_data_size>
     6a4: 92 12        	sta	($12)                   ; 0x12 <__rc2>
     6a6: 91 12        	sta	($12),y                 ; 0x12 <__rc2>
     6a8: c8           	iny
     6a9: 91 12        	sta	($12),y                 ; 0x12 <__rc2>
     6ab: c8           	iny
     6ac: 85 16        	sta	$16                     ; 0x16 <__rc6>
     6ae: a9 ff        	lda	#$ff
     6b0: 91 12        	sta	($12),y                 ; 0x12 <__rc2>
     6b2: 86 01        	stx	$1                      ; 0x1 <__zp_data_size>
     6b4: a5 12        	lda	$12                     ; 0x12 <__rc2>
     6b6: 18           	clc
     6b7: 69 04        	adc	#$4
     6b9: 85 12        	sta	$12                     ; 0x12 <__rc2>
     6bb: a5 13        	lda	$13                     ; 0x13 <__rc3>
     6bd: 69 00        	adc	#$0
     6bf: e6 16        	inc	$16                     ; 0x16 <__rc6>
     6c1: 85 13        	sta	$13                     ; 0x13 <__rc3>
     6c3: a5 16        	lda	$16                     ; 0x16 <__rc6>
     6c5: d0 d7        	bne	$69e <main+0x113>
     6c7: a9 00        	lda	#$0
     6c9: a6 01        	ldx	$1                      ; 0x1 <__zp_data_size>
     6cb: a0 01        	ldy	#$1
     6cd: 84 01        	sty	$1                      ; 0x1 <__zp_data_size>
     6cf: 92 14        	sta	($14)                   ; 0x14 <__rc4>
     6d1: 91 14        	sta	($14),y                 ; 0x14 <__rc4>
     6d3: c8           	iny
     6d4: 91 14        	sta	($14),y                 ; 0x14 <__rc4>
     6d6: c8           	iny
     6d7: 85 12        	sta	$12                     ; 0x12 <__rc2>
     6d9: a9 ff        	lda	#$ff
     6db: 91 14        	sta	($14),y                 ; 0x14 <__rc4>
     6dd: 86 01        	stx	$1                      ; 0x1 <__zp_data_size>
     6df: a5 14        	lda	$14                     ; 0x14 <__rc4>
     6e1: 18           	clc
     6e2: 69 04        	adc	#$4
     6e4: 85 14        	sta	$14                     ; 0x14 <__rc4>
     6e6: a5 15        	lda	$15                     ; 0x15 <__rc5>
     6e8: 69 00        	adc	#$0
     6ea: e6 12        	inc	$12                     ; 0x12 <__rc2>
     6ec: 85 15        	sta	$15                     ; 0x15 <__rc5>
     6ee: a5 12        	lda	$12                     ; 0x12 <__rc2>
     6f0: d0 d7        	bne	$6c9 <main+0x13e>
     6f2: ad 02 d0     	lda	$d002                   ; 0xd002 <__heap_start+0x4d72>
     6f5: a2 f0        	ldx	#$f0
     6f7: 29 f0        	and	#$f0
     6f9: 8d 02 d0     	sta	$d002                   ; 0xd002 <__heap_start+0x4d72>
     6fc: ad 02 d0     	lda	$d002                   ; 0xd002 <__heap_start+0x4d72>
     6ff: 29 0f        	and	#$f
     701: 09 10        	ora	#$10
     703: 8d 02 d0     	sta	$d002                   ; 0xd002 <__heap_start+0x4d72>
     706: a0 02        	ldy	#$2
     708: 8c 03 d0     	sty	$d003                   ; 0xd003 <__heap_start+0x4d73>
     70b: 86 30        	stx	$30                     ; 0x30 <_ccolor>
     70d: ad 01 d0     	lda	$d001                   ; 0xd001 <__heap_start+0x4d71>
     710: 29 f9        	and	#$f9
     712: 09 04        	ora	#$4
     714: 8d 01 d0     	sta	$d001                   ; 0xd001 <__heap_start+0x4d71>
     717: 64 12        	stz	$12                     ; 0x12 <__rc2>
     719: 9c 10 d0     	stz	$d010                   ; 0xd010 <__heap_start+0x4d80>
     71c: a2 00        	ldx	#$0
     71e: 64 13        	stz	$13                     ; 0x13 <__rc3>
     720: 86 16        	stx	$16                     ; 0x16 <__rc6>
     722: a4 16        	ldy	$16                     ; 0x16 <__rc6>
     724: be 8e 6c     	ldx	$6c8e,y                 ; 0x6c8e <textColors>
     727: 86 17        	stx	$17                     ; 0x17 <__rc7>
     729: be 8f 6c     	ldx	$6c8f,y                 ; 0x6c8f <textColors+0x1>
     72c: 86 18        	stx	$18                     ; 0x18 <__rc8>
     72e: be 90 6c     	ldx	$6c90,y                 ; 0x6c90 <textColors+0x2>
     731: 86 19        	stx	$19                     ; 0x19 <__rc9>
     733: a6 13        	ldx	$13                     ; 0x13 <__rc3>
     735: 8e 00 de     	stx	$de00                   ; 0xde00 <__heap_start+0x5b70>
     738: 86 15        	stx	$15                     ; 0x15 <__rc5>
     73a: 9c 01 de     	stz	$de01                   ; 0xde01 <__heap_start+0x5b71>
     73d: a2 04        	ldx	#$4
     73f: 8e 02 de     	stx	$de02                   ; 0xde02 <__heap_start+0x5b72>
     742: 86 1b        	stx	$1b                     ; 0x1b <__rc11>
     744: 9c 03 de     	stz	$de03                   ; 0xde03 <__heap_start+0x5b73>
     747: ad 10 de     	lda	$de10                   ; 0xde10 <__heap_start+0x5b80>
     74a: ac 11 de     	ldy	$de11                   ; 0xde11 <__heap_start+0x5b81>
     74d: 84 13        	sty	$13                     ; 0x13 <__rc3>
     74f: ac 12 de     	ldy	$de12                   ; 0xde12 <__heap_start+0x5b82>
     752: ac 13 de     	ldy	$de13                   ; 0xde13 <__heap_start+0x5b83>
     755: a2 00        	ldx	#$0
     757: 18           	clc
     758: 65 12        	adc	$12                     ; 0x12 <__rc2>
     75a: a8           	tay
     75b: 86 1d        	stx	$1d                     ; 0x1d <__rc13>
     75d: a6 15        	ldx	$15                     ; 0x15 <__rc5>
     75f: a9 d8        	lda	#$d8
     761: 65 13        	adc	$13                     ; 0x13 <__rc3>
     763: 84 14        	sty	$14                     ; 0x14 <__rc4>
     765: 85 15        	sta	$15                     ; 0x15 <__rc5>
     767: a5 19        	lda	$19                     ; 0x19 <__rc9>
     769: 92 14        	sta	($14)                   ; 0x14 <__rc4>
     76b: a0 01        	ldy	#$1
     76d: a5 18        	lda	$18                     ; 0x18 <__rc8>
     76f: 91 14        	sta	($14),y                 ; 0x14 <__rc4>
     771: 84 1a        	sty	$1a                     ; 0x1a <__rc10>
     773: c8           	iny
     774: a5 17        	lda	$17                     ; 0x17 <__rc7>
     776: 91 14        	sta	($14),y                 ; 0x14 <__rc4>
     778: 84 1c        	sty	$1c                     ; 0x1c <__rc12>
     77a: c8           	iny
     77b: a9 ff        	lda	#$ff
     77d: 91 14        	sta	($14),y                 ; 0x14 <__rc4>
     77f: 85 1f        	sta	$1f                     ; 0x1f <__rc15>
     781: 84 1e        	sty	$1e                     ; 0x1e <__rc14>
     783: 8e 00 de     	stx	$de00                   ; 0xde00 <__heap_start+0x5b70>
     786: 9c 01 de     	stz	$de01                   ; 0xde01 <__heap_start+0x5b71>
     789: a4 1b        	ldy	$1b                     ; 0x1b <__rc11>
     78b: 8c 02 de     	sty	$de02                   ; 0xde02 <__heap_start+0x5b72>
     78e: 9c 03 de     	stz	$de03                   ; 0xde03 <__heap_start+0x5b73>
     791: ad 10 de     	lda	$de10                   ; 0xde10 <__heap_start+0x5b80>
     794: 85 13        	sta	$13                     ; 0x13 <__rc3>
     796: ad 11 de     	lda	$de11                   ; 0xde11 <__heap_start+0x5b81>
     799: 85 14        	sta	$14                     ; 0x14 <__rc4>
     79b: a9 40        	lda	#$40
     79d: a4 1d        	ldy	$1d                     ; 0x1d <__rc13>
     79f: c0 01        	cpy	#$1
     7a1: 65 13        	adc	$13                     ; 0x13 <__rc3>
     7a3: a8           	tay
     7a4: a9 d8        	lda	#$d8
     7a6: 65 14        	adc	$14                     ; 0x14 <__rc4>
     7a8: 85 15        	sta	$15                     ; 0x15 <__rc5>
     7aa: 84 14        	sty	$14                     ; 0x14 <__rc4>
     7ac: ad 12 de     	lda	$de12                   ; 0xde12 <__heap_start+0x5b82>
     7af: ad 13 de     	lda	$de13                   ; 0xde13 <__heap_start+0x5b83>
     7b2: a5 19        	lda	$19                     ; 0x19 <__rc9>
     7b4: 92 14        	sta	($14)                   ; 0x14 <__rc4>
     7b6: a5 18        	lda	$18                     ; 0x18 <__rc8>
     7b8: a4 1a        	ldy	$1a                     ; 0x1a <__rc10>
     7ba: 91 14        	sta	($14),y                 ; 0x14 <__rc4>
     7bc: a5 17        	lda	$17                     ; 0x17 <__rc7>
     7be: a4 1c        	ldy	$1c                     ; 0x1c <__rc12>
     7c0: 91 14        	sta	($14),y                 ; 0x14 <__rc4>
     7c2: a4 1e        	ldy	$1e                     ; 0x1e <__rc14>
     7c4: a5 1f        	lda	$1f                     ; 0x1f <__rc15>
     7c6: 91 14        	sta	($14),y                 ; 0x14 <__rc4>
     7c8: e8           	inx
     7c9: 86 13        	stx	$13                     ; 0x13 <__rc3>
     7cb: 18           	clc
     7cc: a5 16        	lda	$16                     ; 0x16 <__rc6>
     7ce: 69 03        	adc	#$3
     7d0: aa           	tax
     7d1: c9 30        	cmp	#$30
     7d3: f0 03        	beq	$7d8 <main+0x24d>
     7d5: 4c 20 07     	jmp	$720 <main+0x195>
     7d8: a6 01        	ldx	$1                      ; 0x1 <__zp_data_size>
     7da: 86 18        	stx	$18                     ; 0x18 <__rc8>
     7dc: a2 50        	ldx	#$50
     7de: 8e 00 de     	stx	$de00                   ; 0xde00 <__heap_start+0x5b70>
     7e1: 9c 01 de     	stz	$de01                   ; 0xde01 <__heap_start+0x5b71>
     7e4: a2 1e        	ldx	#$1e
     7e6: 8e 02 de     	stx	$de02                   ; 0xde02 <__heap_start+0x5b72>
     7e9: 9c 03 de     	stz	$de03                   ; 0xde03 <__heap_start+0x5b73>
     7ec: ae 10 de     	ldx	$de10                   ; 0xde10 <__heap_start+0x5b80>
     7ef: ac 11 de     	ldy	$de11                   ; 0xde11 <__heap_start+0x5b81>
     7f2: ad 12 de     	lda	$de12                   ; 0xde12 <__heap_start+0x5b82>
     7f5: ad 13 de     	lda	$de13                   ; 0xde13 <__heap_start+0x5b83>
     7f8: a9 02        	lda	#$2
     7fa: 85 01        	sta	$1                      ; 0x1 <__zp_data_size>
     7fc: e0 01        	cpx	#$1
     7fe: 98           	tya
     7ff: e9 00        	sbc	#$0
     801: 50 02        	bvc	$805 <main+0x27a>
     803: 49 80        	eor	#$80
     805: c9 00        	cmp	#$0
     807: 10 03        	bpl	$80c <main+0x281>
     809: 4c 7b 08     	jmp	$87b <main+0x2f0>
     80c: a9 20        	lda	#$20
     80e: 86 19        	stx	$19                     ; 0x19 <__rc9>
     810: 86 12        	stx	$12                     ; 0x12 <__rc2>
     812: 84 13        	sty	$13                     ; 0x13 <__rc3>
     814: 48           	pha
     815: 5a           	phy
     816: a0 0c        	ldy	#$c
     818: b1 10        	lda	($10),y                 ; 0x10 <__rc0>
     81a: 85 14        	sta	$14                     ; 0x14 <__rc4>
     81c: c8           	iny
     81d: b1 10        	lda	($10),y                 ; 0x10 <__rc0>
     81f: 7a           	ply
     820: 85 15        	sta	$15                     ; 0x15 <__rc5>
     822: 68           	pla
     823: 80 04        	bra	$829 <main+0x29e>
     825: a6 13        	ldx	$13                     ; 0x13 <__rc3>
     827: f0 14        	beq	$83d <main+0x2b2>
     829: 92 14        	sta	($14)                   ; 0x14 <__rc4>
     82b: e6 14        	inc	$14                     ; 0x14 <__rc4>
     82d: d0 02        	bne	$831 <main+0x2a6>
     82f: e6 15        	inc	$15                     ; 0x15 <__rc5>
     831: a2 ff        	ldx	#$ff
     833: c6 12        	dec	$12                     ; 0x12 <__rc2>
     835: e4 12        	cpx	$12                     ; 0x12 <__rc2>
     837: d0 ec        	bne	$825 <main+0x29a>
     839: c6 13        	dec	$13                     ; 0x13 <__rc3>
     83b: 80 e8        	bra	$825 <main+0x29a>
     83d: a6 12        	ldx	$12                     ; 0x12 <__rc2>
     83f: d0 e8        	bne	$829 <main+0x29e>
     841: a2 03        	ldx	#$3
     843: 86 01        	stx	$1                      ; 0x1 <__zp_data_size>
     845: a6 30        	ldx	$30                     ; 0x30 <_ccolor>
     847: 86 16        	stx	$16                     ; 0x16 <__rc6>
     849: a6 19        	ldx	$19                     ; 0x19 <__rc9>
     84b: 5a           	phy
     84c: a0 0c        	ldy	#$c
     84e: b1 10        	lda	($10),y                 ; 0x10 <__rc0>
     850: 85 12        	sta	$12                     ; 0x12 <__rc2>
     852: c8           	iny
     853: b1 10        	lda	($10),y                 ; 0x10 <__rc0>
     855: 7a           	ply
     856: 85 13        	sta	$13                     ; 0x13 <__rc3>
     858: 80 03        	bra	$85d <main+0x2d2>
     85a: 98           	tya
     85b: f0 19        	beq	$876 <main+0x2eb>
     85d: a5 16        	lda	$16                     ; 0x16 <__rc6>
     85f: 92 12        	sta	($12)                   ; 0x12 <__rc2>
     861: e6 12        	inc	$12                     ; 0x12 <__rc2>
     863: f0 07        	beq	$86c <main+0x2e1>
     865: ca           	dex
     866: e0 ff        	cpx	#$ff
     868: d0 f0        	bne	$85a <main+0x2cf>
     86a: 80 07        	bra	$873 <main+0x2e8>
     86c: e6 13        	inc	$13                     ; 0x13 <__rc3>
     86e: ca           	dex
     86f: e0 ff        	cpx	#$ff
     871: d0 e7        	bne	$85a <main+0x2cf>
     873: 88           	dey
     874: 80 e4        	bra	$85a <main+0x2cf>
     876: 8a           	txa
     877: d0 e4        	bne	$85d <main+0x2d2>
     879: 80 04        	bra	$87f <main+0x2f4>
     87b: a2 03        	ldx	#$3
     87d: 86 01        	stx	$1                      ; 0x1 <__zp_data_size>
     87f: a6 18        	ldx	$18                     ; 0x18 <__rc8>
     881: 86 01        	stx	$1                      ; 0x1 <__zp_data_size>
     883: 64 31        	stz	$31                     ; 0x31 <_col>
     885: 9c 14 d0     	stz	$d014                   ; 0xd014 <__heap_start+0x4d84>
     888: 9c 15 d0     	stz	$d015                   ; 0xd015 <__heap_start+0x4d85>
     88b: 64 32        	stz	$32                     ; 0x32 <_row>
     88d: 9c 16 d0     	stz	$d016                   ; 0xd016 <__heap_start+0x4d86>
     890: 9c 17 d0     	stz	$d017                   ; 0xd017 <__heap_start+0x4d87>
     893: a2 40        	ldx	#$40
     895: 8e 00 de     	stx	$de00                   ; 0xde00 <__heap_start+0x5b70>
     898: a2 01        	ldx	#$1
     89a: 8e 01 de     	stx	$de01                   ; 0xde01 <__heap_start+0x5b71>
     89d: a2 f0        	ldx	#$f0
     89f: 8e 02 de     	stx	$de02                   ; 0xde02 <__heap_start+0x5b72>
     8a2: 9c 03 de     	stz	$de03                   ; 0xde03 <__heap_start+0x5b73>
     8a5: ae 10 de     	ldx	$de10                   ; 0xde10 <__heap_start+0x5b80>
     8a8: 86 17        	stx	$17                     ; 0x17 <__rc7>
     8aa: ae 11 de     	ldx	$de11                   ; 0xde11 <__heap_start+0x5b81>
     8ad: 86 12        	stx	$12                     ; 0x12 <__rc2>
     8af: ae 12 de     	ldx	$de12                   ; 0xde12 <__heap_start+0x5b82>
     8b2: 86 13        	stx	$13                     ; 0x13 <__rc3>
     8b4: ae 13 de     	ldx	$de13                   ; 0xde13 <__heap_start+0x5b83>
     8b7: 86 14        	stx	$14                     ; 0x14 <__rc4>
     8b9: a4 12        	ldy	$12                     ; 0x12 <__rc2>
     8bb: 84 15        	sty	$15                     ; 0x15 <__rc5>
     8bd: 06 15        	asl	$15                     ; 0x15 <__rc5>
     8bf: a5 13        	lda	$13                     ; 0x13 <__rc3>
     8c1: 2a           	rol
     8c2: 86 16        	stx	$16                     ; 0x16 <__rc6>
     8c4: 26 16        	rol	$16                     ; 0x16 <__rc6>
     8c6: 06 15        	asl	$15                     ; 0x15 <__rc5>
     8c8: 2a           	rol
     8c9: 26 16        	rol	$16                     ; 0x16 <__rc6>
     8cb: 06 15        	asl	$15                     ; 0x15 <__rc5>
     8cd: 2a           	rol
     8ce: 26 16        	rol	$16                     ; 0x16 <__rc6>
     8d0: 85 15        	sta	$15                     ; 0x15 <__rc5>
     8d2: 8d 00 de     	sta	$de00                   ; 0xde00 <__heap_start+0x5b70>
     8d5: a5 16        	lda	$16                     ; 0x16 <__rc6>
     8d7: 8d 01 de     	sta	$de01                   ; 0xde01 <__heap_start+0x5b71>
     8da: 9c 02 de     	stz	$de02                   ; 0xde02 <__heap_start+0x5b72>
     8dd: a2 20        	ldx	#$20
     8df: 8e 03 de     	stx	$de03                   ; 0xde03 <__heap_start+0x5b73>
     8e2: ae 10 de     	ldx	$de10                   ; 0xde10 <__heap_start+0x5b80>
     8e5: 86 16        	stx	$16                     ; 0x16 <__rc6>
     8e7: ae 11 de     	ldx	$de11                   ; 0xde11 <__heap_start+0x5b81>
     8ea: 86 18        	stx	$18                     ; 0x18 <__rc8>
     8ec: ac 12 de     	ldy	$de12                   ; 0xde12 <__heap_start+0x5b82>
     8ef: ae 13 de     	ldx	$de13                   ; 0xde13 <__heap_start+0x5b83>
     8f2: e4 14        	cpx	$14                     ; 0x14 <__rc4>
     8f4: d0 14        	bne	$90a <main+0x37f>
     8f6: c4 13        	cpy	$13                     ; 0x13 <__rc3>
     8f8: d0 10        	bne	$90a <main+0x37f>
     8fa: a6 18        	ldx	$18                     ; 0x18 <__rc8>
     8fc: e4 12        	cpx	$12                     ; 0x12 <__rc2>
     8fe: d0 0a        	bne	$90a <main+0x37f>
     900: a6 16        	ldx	$16                     ; 0x16 <__rc6>
     902: e4 17        	cpx	$17                     ; 0x17 <__rc7>
     904: d0 04        	bne	$90a <main+0x37f>
     906: a6 15        	ldx	$15                     ; 0x15 <__rc5>
     908: 80 06        	bra	$910 <main+0x385>
     90a: a6 15        	ldx	$15                     ; 0x15 <__rc5>
     90c: e8           	inx
     90d: d0 01        	bne	$910 <main+0x385>
     90f: 1a           	inc
     910: 8e 00 de     	stx	$de00                   ; 0xde00 <__heap_start+0x5b70>
     913: 8d 01 de     	sta	$de01                   ; 0xde01 <__heap_start+0x5b71>
     916: 9c 02 de     	stz	$de02                   ; 0xde02 <__heap_start+0x5b72>
     919: a2 20        	ldx	#$20
     91b: 8e 03 de     	stx	$de03                   ; 0xde03 <__heap_start+0x5b73>
     91e: ae 10 de     	ldx	$de10                   ; 0xde10 <__heap_start+0x5b80>
     921: 86 12        	stx	$12                     ; 0x12 <__rc2>
     923: ae 11 de     	ldx	$de11                   ; 0xde11 <__heap_start+0x5b81>
     926: 86 13        	stx	$13                     ; 0x13 <__rc3>
     928: ae 12 de     	ldx	$de12                   ; 0xde12 <__heap_start+0x5b82>
     92b: 86 14        	stx	$14                     ; 0x14 <__rc4>
     92d: ae 13 de     	ldx	$de13                   ; 0xde13 <__heap_start+0x5b83>
     930: 86 15        	stx	$15                     ; 0x15 <__rc5>
     932: a9 00        	lda	#$0
     934: 38           	sec
     935: e5 12        	sbc	$12                     ; 0x12 <__rc2>
     937: 85 19        	sta	$19                     ; 0x19 <__rc9>
     939: a9 00        	lda	#$0
     93b: e5 13        	sbc	$13                     ; 0x13 <__rc3>
     93d: aa           	tax
     93e: a9 08        	lda	#$8
     940: e5 14        	sbc	$14                     ; 0x14 <__rc4>
     942: 85 16        	sta	$16                     ; 0x16 <__rc6>
     944: a9 00        	lda	#$0
     946: e5 15        	sbc	$15                     ; 0x15 <__rc5>
     948: 86 34        	stx	$34                     ; 0x34 <_BITMAP_BASE.0+0x1>
     94a: a4 16        	ldy	$16                     ; 0x16 <__rc6>
     94c: 84 35        	sty	$35                     ; 0x35 <_BITMAP_BASE.0+0x2>
     94e: 85 36        	sta	$36                     ; 0x36 <_BITMAP_BASE.0+0x3>
     950: a8           	tay
     951: 38           	sec
     952: a5 19        	lda	$19                     ; 0x19 <__rc9>
     954: e5 12        	sbc	$12                     ; 0x12 <__rc2>
     956: 85 18        	sta	$18                     ; 0x18 <__rc8>
     958: 8a           	txa
     959: e5 13        	sbc	$13                     ; 0x13 <__rc3>
     95b: 85 1a        	sta	$1a                     ; 0x1a <__rc10>
     95d: a5 16        	lda	$16                     ; 0x16 <__rc6>
     95f: e5 14        	sbc	$14                     ; 0x14 <__rc4>
     961: 85 16        	sta	$16                     ; 0x16 <__rc6>
     963: 98           	tya
     964: e5 15        	sbc	$15                     ; 0x15 <__rc5>
     966: 85 17        	sta	$17                     ; 0x17 <__rc7>
     968: 38           	sec
     969: a4 18        	ldy	$18                     ; 0x18 <__rc8>
     96b: 84 37        	sty	$37                     ; 0x37 <_BITMAP_BASE.1>
     96d: a6 1a        	ldx	$1a                     ; 0x1a <__rc10>
     96f: 86 38        	stx	$38                     ; 0x38 <_BITMAP_BASE.1+0x1>
     971: a4 16        	ldy	$16                     ; 0x16 <__rc6>
     973: 84 39        	sty	$39                     ; 0x39 <_BITMAP_BASE.1+0x2>
     975: 85 3a        	sta	$3a                     ; 0x3a <_BITMAP_BASE.1+0x3>
     977: a5 18        	lda	$18                     ; 0x18 <__rc8>
     979: e5 12        	sbc	$12                     ; 0x12 <__rc2>
     97b: 85 18        	sta	$18                     ; 0x18 <__rc8>
     97d: a5 1a        	lda	$1a                     ; 0x1a <__rc10>
     97f: e5 13        	sbc	$13                     ; 0x13 <__rc3>
     981: a8           	tay
     982: a5 16        	lda	$16                     ; 0x16 <__rc6>
     984: e5 14        	sbc	$14                     ; 0x14 <__rc4>
     986: 85 12        	sta	$12                     ; 0x12 <__rc2>
     988: a5 17        	lda	$17                     ; 0x17 <__rc7>
     98a: e5 15        	sbc	$15                     ; 0x15 <__rc5>
     98c: a6 18        	ldx	$18                     ; 0x18 <__rc8>
     98e: 86 3b        	stx	$3b                     ; 0x3b <_BITMAP_BASE.2>
     990: 84 3c        	sty	$3c                     ; 0x3c <_BITMAP_BASE.2+0x1>
     992: a6 19        	ldx	$19                     ; 0x19 <__rc9>
     994: 86 33        	stx	$33                     ; 0x33 <_BITMAP_BASE.0>
     996: a4 12        	ldy	$12                     ; 0x12 <__rc2>
     998: 84 3d        	sty	$3d                     ; 0x3d <_BITMAP_BASE.2+0x2>
     99a: 85 3e        	sta	$3e                     ; 0x3e <_BITMAP_BASE.2+0x3>
     99c: 8e 01 d1     	stx	$d101                   ; 0xd101 <__heap_start+0x4e71>
     99f: a6 34        	ldx	$34                     ; 0x34 <_BITMAP_BASE.0+0x1>
     9a1: 8e 02 d1     	stx	$d102                   ; 0xd102 <__heap_start+0x4e72>
     9a4: a6 35        	ldx	$35                     ; 0x35 <_BITMAP_BASE.0+0x2>
     9a6: 8e 03 d1     	stx	$d103                   ; 0xd103 <__heap_start+0x4e73>
     9a9: a6 37        	ldx	$37                     ; 0x37 <_BITMAP_BASE.1>
     9ab: 8e 09 d1     	stx	$d109                   ; 0xd109 <__heap_start+0x4e79>
     9ae: a6 38        	ldx	$38                     ; 0x38 <_BITMAP_BASE.1+0x1>
     9b0: 8e 0a d1     	stx	$d10a                   ; 0xd10a <__heap_start+0x4e7a>
     9b3: a6 39        	ldx	$39                     ; 0x39 <_BITMAP_BASE.1+0x2>
     9b5: 8e 0b d1     	stx	$d10b                   ; 0xd10b <__heap_start+0x4e7b>
     9b8: a6 3b        	ldx	$3b                     ; 0x3b <_BITMAP_BASE.2>
     9ba: 8e 11 d1     	stx	$d111                   ; 0xd111 <__heap_start+0x4e81>
     9bd: a6 3c        	ldx	$3c                     ; 0x3c <_BITMAP_BASE.2+0x1>
     9bf: 8e 12 d1     	stx	$d112                   ; 0xd112 <__heap_start+0x4e82>
     9c2: a6 3d        	ldx	$3d                     ; 0x3d <_BITMAP_BASE.2+0x2>
     9c4: 8e 13 d1     	stx	$d113                   ; 0xd113 <__heap_start+0x4e83>
     9c7: 9c 00 d1     	stz	$d100                   ; 0xd100 <__heap_start+0x4e70>
     9ca: 9c 08 d1     	stz	$d108                   ; 0xd108 <__heap_start+0x4e78>
     9cd: 9c 10 d1     	stz	$d110                   ; 0xd110 <__heap_start+0x4e80>
     9d0: a2 10        	ldx	#$10
     9d2: 8e 00 d2     	stx	$d200                   ; 0xd200 <__heap_start+0x4f70>
     9d5: 8e 0c d2     	stx	$d20c                   ; 0xd20c <__heap_start+0x4f7c>
     9d8: 8e 18 d2     	stx	$d218                   ; 0xd218 <__heap_start+0x4f88>
     9db: a0 d9        	ldy	#$d9
     9dd: a2 40        	ldx	#$40
     9df: 64 12        	stz	$12                     ; 0x12 <__rc2>
     9e1: 84 13        	sty	$13                     ; 0x13 <__rc3>
     9e3: a9 00        	lda	#$0
     9e5: 92 12        	sta	($12)                   ; 0x12 <__rc2>
     9e7: ca           	dex
     9e8: 18           	clc
     9e9: a5 12        	lda	$12                     ; 0x12 <__rc2>
     9eb: 69 08        	adc	#$8
     9ed: 85 12        	sta	$12                     ; 0x12 <__rc2>
     9ef: 98           	tya
     9f0: 69 00        	adc	#$0
     9f2: a8           	tay
     9f3: 8a           	txa
     9f4: d0 eb        	bne	$9e1 <main+0x456>
     9f6: 18           	clc
     9f7: a5 10        	lda	$10                     ; 0x10 <__rc0>
     9f9: 69 11        	adc	#$11
     9fb: 85 2a        	sta	$2a                     ; 0x2a <__rc26>
     9fd: a5 11        	lda	$11                     ; 0x11 <__rc1>
     9ff: 69 00        	adc	#$0
     a01: 85 2b        	sta	$2b                     ; 0x2b <__rc27>
     a03: a6 2a        	ldx	$2a                     ; 0x2a <__rc26>
     a05: 86 fb        	stx	$fb                     ; 0xfb <__zp_bss_size+0xc0>
     a07: 85 fc        	sta	$fc                     ; 0xfc <__zp_bss_size+0xc1>
     a09: a2 08        	ldx	#$8
     a0b: 86 fd        	stx	$fd                     ; 0xfd <__zp_bss_size+0xc2>
     a0d: 18           	clc
     a0e: a5 10        	lda	$10                     ; 0x10 <__rc0>
     a10: 69 10        	adc	#$10
     a12: 85 12        	sta	$12                     ; 0x12 <__rc2>
     a14: a5 11        	lda	$11                     ; 0x11 <__rc1>
     a16: 69 00        	adc	#$0
     a18: 85 13        	sta	$13                     ; 0x13 <__rc3>
     a1a: a2 65        	ldx	#$65
     a1c: 86 14        	stx	$14                     ; 0x14 <__rc4>
     a1e: a2 00        	ldx	#$0
     a20: 86 15        	stx	$15                     ; 0x15 <__rc5>
     a22: a0 06        	ldy	#$6
     a24: 20 dc ff     	jsr	$ffdc <__heap_start+0x7d4c>
     a27: 92 12        	sta	($12)                   ; 0x12 <__rc2>
     a29: a9 00        	lda	#$0
     a2b: 6a           	ror
     a2c: 85 14        	sta	$14                     ; 0x14 <__rc4>
     a2e: b1 2a        	lda	($2a),y                 ; 0x2a <__rc26>
     a30: 85 12        	sta	$12                     ; 0x12 <__rc2>
     a32: c8           	iny
     a33: b1 2a        	lda	($2a),y                 ; 0x2a <__rc26>
     a35: a6 12        	ldx	$12                     ; 0x12 <__rc2>
     a37: 8e 00 de     	stx	$de00                   ; 0xde00 <__heap_start+0x5b70>
     a3a: 9c 01 de     	stz	$de01                   ; 0xde01 <__heap_start+0x5b71>
     a3d: 8d 02 de     	sta	$de02                   ; 0xde02 <__heap_start+0x5b72>
     a40: 9c 03 de     	stz	$de03                   ; 0xde03 <__heap_start+0x5b73>
     a43: ae 10 de     	ldx	$de10                   ; 0xde10 <__heap_start+0x5b80>
     a46: ac 11 de     	ldy	$de11                   ; 0xde11 <__heap_start+0x5b81>
     a49: ad 12 de     	lda	$de12                   ; 0xde12 <__heap_start+0x5b82>
     a4c: ad 13 de     	lda	$de13                   ; 0xde13 <__heap_start+0x5b83>
     a4f: 8e a4 d6     	stx	$d6a4                   ; 0xd6a4 <__heap_start+0x5414>
     a52: 8c a5 d6     	sty	$d6a5                   ; 0xd6a5 <__heap_start+0x5415>
     a55: a2 03        	ldx	#$3
     a57: 8e a6 d6     	stx	$d6a6                   ; 0xd6a6 <__heap_start+0x5416>
     a5a: 64 01        	stz	$1                      ; 0x1 <__zp_data_size>
     a5c: a6 01        	ldx	$1                      ; 0x1 <__zp_data_size>
     a5e: 86 18        	stx	$18                     ; 0x18 <__rc8>
     a60: a2 50        	ldx	#$50
     a62: 8e 00 de     	stx	$de00                   ; 0xde00 <__heap_start+0x5b70>
     a65: 9c 01 de     	stz	$de01                   ; 0xde01 <__heap_start+0x5b71>
     a68: a2 1e        	ldx	#$1e
     a6a: 8e 02 de     	stx	$de02                   ; 0xde02 <__heap_start+0x5b72>
     a6d: 9c 03 de     	stz	$de03                   ; 0xde03 <__heap_start+0x5b73>
     a70: ae 10 de     	ldx	$de10                   ; 0xde10 <__heap_start+0x5b80>
     a73: ac 11 de     	ldy	$de11                   ; 0xde11 <__heap_start+0x5b81>
     a76: ad 12 de     	lda	$de12                   ; 0xde12 <__heap_start+0x5b82>
     a79: ad 13 de     	lda	$de13                   ; 0xde13 <__heap_start+0x5b83>
     a7c: a9 02        	lda	#$2
     a7e: 85 01        	sta	$1                      ; 0x1 <__zp_data_size>
     a80: e0 01        	cpx	#$1
     a82: 98           	tya
     a83: e9 00        	sbc	#$0
     a85: 50 02        	bvc	$a89 <main+0x4fe>
     a87: 49 80        	eor	#$80
     a89: c9 00        	cmp	#$0
     a8b: 10 03        	bpl	$a90 <main+0x505>
     a8d: 4c ff 0a     	jmp	$aff <main+0x574>
     a90: a9 20        	lda	#$20
     a92: 86 19        	stx	$19                     ; 0x19 <__rc9>
     a94: 86 12        	stx	$12                     ; 0x12 <__rc2>
     a96: 84 13        	sty	$13                     ; 0x13 <__rc3>
     a98: 48           	pha
     a99: 5a           	phy
     a9a: a0 0c        	ldy	#$c
     a9c: b1 10        	lda	($10),y                 ; 0x10 <__rc0>
     a9e: 85 14        	sta	$14                     ; 0x14 <__rc4>
     aa0: c8           	iny
     aa1: b1 10        	lda	($10),y                 ; 0x10 <__rc0>
     aa3: 7a           	ply
     aa4: 85 15        	sta	$15                     ; 0x15 <__rc5>
     aa6: 68           	pla
     aa7: 80 04        	bra	$aad <main+0x522>
     aa9: a6 13        	ldx	$13                     ; 0x13 <__rc3>
     aab: f0 14        	beq	$ac1 <main+0x536>
     aad: 92 14        	sta	($14)                   ; 0x14 <__rc4>
     aaf: e6 14        	inc	$14                     ; 0x14 <__rc4>
     ab1: d0 02        	bne	$ab5 <main+0x52a>
     ab3: e6 15        	inc	$15                     ; 0x15 <__rc5>
     ab5: a2 ff        	ldx	#$ff
     ab7: c6 12        	dec	$12                     ; 0x12 <__rc2>
     ab9: e4 12        	cpx	$12                     ; 0x12 <__rc2>
     abb: d0 ec        	bne	$aa9 <main+0x51e>
     abd: c6 13        	dec	$13                     ; 0x13 <__rc3>
     abf: 80 e8        	bra	$aa9 <main+0x51e>
     ac1: a6 12        	ldx	$12                     ; 0x12 <__rc2>
     ac3: d0 e8        	bne	$aad <main+0x522>
     ac5: a2 03        	ldx	#$3
     ac7: 86 01        	stx	$1                      ; 0x1 <__zp_data_size>
     ac9: a6 30        	ldx	$30                     ; 0x30 <_ccolor>
     acb: 86 16        	stx	$16                     ; 0x16 <__rc6>
     acd: a6 19        	ldx	$19                     ; 0x19 <__rc9>
     acf: 5a           	phy
     ad0: a0 0c        	ldy	#$c
     ad2: b1 10        	lda	($10),y                 ; 0x10 <__rc0>
     ad4: 85 12        	sta	$12                     ; 0x12 <__rc2>
     ad6: c8           	iny
     ad7: b1 10        	lda	($10),y                 ; 0x10 <__rc0>
     ad9: 7a           	ply
     ada: 85 13        	sta	$13                     ; 0x13 <__rc3>
     adc: 80 03        	bra	$ae1 <main+0x556>
     ade: 98           	tya
     adf: f0 19        	beq	$afa <main+0x56f>
     ae1: a5 16        	lda	$16                     ; 0x16 <__rc6>
     ae3: 92 12        	sta	($12)                   ; 0x12 <__rc2>
     ae5: e6 12        	inc	$12                     ; 0x12 <__rc2>
     ae7: f0 07        	beq	$af0 <main+0x565>
     ae9: ca           	dex
     aea: e0 ff        	cpx	#$ff
     aec: d0 f0        	bne	$ade <main+0x553>
     aee: 80 07        	bra	$af7 <main+0x56c>
     af0: e6 13        	inc	$13                     ; 0x13 <__rc3>
     af2: ca           	dex
     af3: e0 ff        	cpx	#$ff
     af5: d0 e7        	bne	$ade <main+0x553>
     af7: 88           	dey
     af8: 80 e4        	bra	$ade <main+0x553>
     afa: 8a           	txa
     afb: d0 e4        	bne	$ae1 <main+0x556>
     afd: 80 04        	bra	$b03 <main+0x578>
     aff: a2 03        	ldx	#$3
     b01: 86 01        	stx	$1                      ; 0x1 <__zp_data_size>
     b03: a6 18        	ldx	$18                     ; 0x18 <__rc8>
     b05: 86 01        	stx	$1                      ; 0x1 <__zp_data_size>
     b07: 64 31        	stz	$31                     ; 0x31 <_col>
     b09: 9c 14 d0     	stz	$d014                   ; 0xd014 <__heap_start+0x4d84>
     b0c: 9c 15 d0     	stz	$d015                   ; 0xd015 <__heap_start+0x4d85>
     b0f: 64 32        	stz	$32                     ; 0x32 <_row>
     b11: 9c 16 d0     	stz	$d016                   ; 0xd016 <__heap_start+0x4d86>
     b14: 9c 17 d0     	stz	$d017                   ; 0xd017 <__heap_start+0x4d87>
     b17: a2 0f        	ldx	#$f
     b19: 8e 00 d0     	stx	$d000                   ; 0xd000 <__heap_start+0x4d70>
     b1c: 9c 01 d0     	stz	$d001                   ; 0xd001 <__heap_start+0x4d71>
     b1f: a0 d9        	ldy	#$d9
     b21: a2 40        	ldx	#$40
     b23: 64 12        	stz	$12                     ; 0x12 <__rc2>
     b25: 84 13        	sty	$13                     ; 0x13 <__rc3>
     b27: a9 00        	lda	#$0
     b29: 92 12        	sta	($12)                   ; 0x12 <__rc2>
     b2b: ca           	dex
     b2c: 18           	clc
     b2d: a5 12        	lda	$12                     ; 0x12 <__rc2>
     b2f: 69 08        	adc	#$8
     b31: 85 12        	sta	$12                     ; 0x12 <__rc2>
     b33: 98           	tya
     b34: 69 00        	adc	#$0
     b36: a8           	tay
     b37: 8a           	txa
     b38: d0 eb        	bne	$b25 <main+0x59a>
     b3a: a2 00        	ldx	#$0
     b3c: 9c 00 d1     	stz	$d100                   ; 0xd100 <__heap_start+0x4e70>
     b3f: 9c 08 d1     	stz	$d108                   ; 0xd108 <__heap_start+0x4e78>
     b42: 9c 10 d1     	stz	$d110                   ; 0xd110 <__heap_start+0x4e80>
     b45: ad 01 d0     	lda	$d001                   ; 0xd001 <__heap_start+0x4d71>
     b48: 29 ef        	and	#$ef
     b4a: 8d 01 d0     	sta	$d001                   ; 0xd001 <__heap_start+0x4d71>
     b4d: a0 0f        	ldy	#$f
     b4f: 8c 00 d0     	sty	$d000                   ; 0xd000 <__heap_start+0x4d70>
     b52: a0 04        	ldy	#$4
     b54: 8c 01 d0     	sty	$d001                   ; 0xd001 <__heap_start+0x4d71>
     b57: a0 10        	ldy	#$10
     b59: 8c 02 d0     	sty	$d002                   ; 0xd002 <__heap_start+0x4d72>
     b5c: 9c 0d d0     	stz	$d00d                   ; 0xd00d <__heap_start+0x4d7d>
     b5f: 9c 0e d0     	stz	$d00e                   ; 0xd00e <__heap_start+0x4d7e>
     b62: 9c 0f d0     	stz	$d00f                   ; 0xd00f <__heap_start+0x4d7f>
     b65: a0 01        	ldy	#$1
     b67: 84 01        	sty	$1                      ; 0x1 <__zp_data_size>
     b69: a0 d0        	ldy	#$d0
     b6b: 80 05        	bra	$b72 <main+0x5e7>
     b6d: c8           	iny
     b6e: c0 d3        	cpy	#$d3
     b70: f0 28        	beq	$b9a <main+0x60f>
     b72: 8a           	txa
     b73: 18           	clc
     b74: 69 00        	adc	#$0
     b76: 85 14        	sta	$14                     ; 0x14 <__rc4>
     b78: 98           	tya
     b79: 69 10        	adc	#$10
     b7b: 85 15        	sta	$15                     ; 0x15 <__rc5>
     b7d: 86 12        	stx	$12                     ; 0x12 <__rc2>
     b7f: 84 13        	sty	$13                     ; 0x13 <__rc3>
     b81: 86 16        	stx	$16                     ; 0x16 <__rc6>
     b83: a6 0f        	ldx	$f                      ; 0xf <__zp_data_size+0xe>
     b85: 78           	sei
     b86: a9 08        	lda	#$8
     b88: 85 0f        	sta	$f                      ; 0xf <__zp_data_size+0xe>
     b8a: b2 14        	lda	($14)                   ; 0x14 <__rc4>
     b8c: 86 0f        	stx	$f                      ; 0xf <__zp_data_size+0xe>
     b8e: a6 16        	ldx	$16                     ; 0x16 <__rc6>
     b90: 58           	cli
     b91: 92 12        	sta	($12)                   ; 0x12 <__rc2>
     b93: e8           	inx
     b94: f0 d7        	beq	$b6d <main+0x5e2>
     b96: c0 d3        	cpy	#$d3
     b98: d0 d8        	bne	$b72 <main+0x5e7>
     b9a: e0 ff        	cpx	#$ff
     b9c: d0 d4        	bne	$b72 <main+0x5e7>
     b9e: 64 01        	stz	$1                      ; 0x1 <__zp_data_size>
     ba0: 64 33        	stz	$33                     ; 0x33 <_BITMAP_BASE.0>
     ba2: a2 04        	ldx	#$4
     ba4: 86 34        	stx	$34                     ; 0x34 <_BITMAP_BASE.0+0x1>
     ba6: a0 01        	ldy	#$1
     ba8: 84 35        	sty	$35                     ; 0x35 <_BITMAP_BASE.0+0x2>
     baa: 64 36        	stz	$36                     ; 0x36 <_BITMAP_BASE.0+0x3>
     bac: 9c 01 d1     	stz	$d101                   ; 0xd101 <__heap_start+0x4e71>
     baf: 8e 02 d1     	stx	$d102                   ; 0xd102 <__heap_start+0x4e72>
     bb2: 8c 03 d1     	sty	$d103                   ; 0xd103 <__heap_start+0x4e73>
     bb5: ad 00 d1     	lda	$d100                   ; 0xd100 <__heap_start+0x4e70>
     bb8: 29 f9        	and	#$f9
     bba: 8d 00 d1     	sta	$d100                   ; 0xd100 <__heap_start+0x4e70>
     bbd: 8c 00 d1     	sty	$d100                   ; 0xd100 <__heap_start+0x4e70>
     bc0: a2 01        	ldx	#$1
     bc2: 86 26        	stx	$26                     ; 0x26 <__rc22>
     bc4: ad 01 d0     	lda	$d001                   ; 0xd001 <__heap_start+0x4d71>
     bc7: 09 10        	ora	#$10
     bc9: 8d 01 d0     	sta	$d001                   ; 0xd001 <__heap_start+0x4d71>
     bcc: a2 f0        	ldx	#$f0
     bce: 86 30        	stx	$30                     ; 0x30 <_ccolor>
     bd0: a2 94        	ldx	#$94
     bd2: a0 15        	ldy	#$15
     bd4: a9 fb        	lda	#$fb
     bd6: 85 12        	sta	$12                     ; 0x12 <__rc2>
     bd8: a9 6c        	lda	#$6c
     bda: 85 13        	sta	$13                     ; 0x13 <__rc3>
     bdc: 84 14        	sty	$14                     ; 0x14 <__rc4>
     bde: a9 00        	lda	#$0
     be0: 20 77 69     	jsr	$6977 <__memset>
     be3: a4 26        	ldy	$26                     ; 0x26 <__rc22>
     be5: 84 48        	sty	$48                     ; 0x48 <menuSoundTimer.2>
     be7: a2 80        	ldx	#$80
     be9: 86 f3        	stx	$f3                     ; 0xf3 <__zp_bss_size+0xb8>
     beb: a2 65        	ldx	#$65
     bed: 86 12        	stx	$12                     ; 0x12 <__rc2>
     bef: a2 00        	ldx	#$0
     bf1: 86 13        	stx	$13                     ; 0x13 <__rc3>
     bf3: 20 f0 ff     	jsr	$fff0 <__heap_start+0x7d60>
     bf6: 92 2a        	sta	($2a)                   ; 0x2a <__rc26>
     bf8: a9 00        	lda	#$0
     bfa: 6a           	ror
     bfb: 85 12        	sta	$12                     ; 0x12 <__rc2>
     bfd: a9 02        	lda	#$2
     bff: 18           	clc
     c00: 72 2a        	adc	($2a)                   ; 0x2a <__rc26>
     c02: 85 47        	sta	$47                     ; 0x47 <menuSoundTimer.1>
     c04: 64 f3        	stz	$f3                     ; 0xf3 <__zp_bss_size+0xb8>
     c06: a6 47        	ldx	$47                     ; 0x47 <menuSoundTimer.1>
     c08: 86 f4        	stx	$f4                     ; 0xf4 <__zp_bss_size+0xb9>
     c0a: 84 f5        	sty	$f5                     ; 0xf5 <__zp_bss_size+0xba>
     c0c: a2 b0        	ldx	#$b0
     c0e: 20 f0 ff     	jsr	$fff0 <__heap_start+0x7d60>
     c11: 92 2a        	sta	($2a)                   ; 0x2a <__rc26>
     c13: a9 00        	lda	#$0
     c15: 6a           	ror
     c16: 85 12        	sta	$12                     ; 0x12 <__rc2>
     c18: 8e a1 dd     	stx	$dda1                   ; 0xdda1 <__heap_start+0x5b11>
     c1b: a2 7b        	ldx	#$7b
     c1d: 8e a1 dd     	stx	$dda1                   ; 0xdda1 <__heap_start+0x5b11>
     c20: 9c a1 dd     	stz	$dda1                   ; 0xdda1 <__heap_start+0x5b11>
     c23: a0 b1        	ldy	#$b1
     c25: 8c a1 dd     	sty	$dda1                   ; 0xdda1 <__heap_start+0x5b11>
     c28: 8e a1 dd     	stx	$dda1                   ; 0xdda1 <__heap_start+0x5b11>
     c2b: 9c a1 dd     	stz	$dda1                   ; 0xdda1 <__heap_start+0x5b11>
     c2e: c8           	iny
     c2f: 8c a1 dd     	sty	$dda1                   ; 0xdda1 <__heap_start+0x5b11>
     c32: 8e a1 dd     	stx	$dda1                   ; 0xdda1 <__heap_start+0x5b11>
     c35: 9c a1 dd     	stz	$dda1                   ; 0xdda1 <__heap_start+0x5b11>
     c38: c8           	iny
     c39: 8c a1 dd     	sty	$dda1                   ; 0xdda1 <__heap_start+0x5b11>
     c3c: 8e a1 dd     	stx	$dda1                   ; 0xdda1 <__heap_start+0x5b11>
     c3f: 9c a1 dd     	stz	$dda1                   ; 0xdda1 <__heap_start+0x5b11>
     c42: c8           	iny
     c43: 8c a1 dd     	sty	$dda1                   ; 0xdda1 <__heap_start+0x5b11>
     c46: 8e a1 dd     	stx	$dda1                   ; 0xdda1 <__heap_start+0x5b11>
     c49: 9c a1 dd     	stz	$dda1                   ; 0xdda1 <__heap_start+0x5b11>
     c4c: c8           	iny
     c4d: 8c a1 dd     	sty	$dda1                   ; 0xdda1 <__heap_start+0x5b11>
     c50: 8e a1 dd     	stx	$dda1                   ; 0xdda1 <__heap_start+0x5b11>
     c53: 9c a1 dd     	stz	$dda1                   ; 0xdda1 <__heap_start+0x5b11>
     c56: c8           	iny
     c57: 8c a1 dd     	sty	$dda1                   ; 0xdda1 <__heap_start+0x5b11>
     c5a: 8e a1 dd     	stx	$dda1                   ; 0xdda1 <__heap_start+0x5b11>
     c5d: 9c a1 dd     	stz	$dda1                   ; 0xdda1 <__heap_start+0x5b11>
     c60: c8           	iny
     c61: 8c a1 dd     	sty	$dda1                   ; 0xdda1 <__heap_start+0x5b11>
     c64: 8e a1 dd     	stx	$dda1                   ; 0xdda1 <__heap_start+0x5b11>
     c67: 9c a1 dd     	stz	$dda1                   ; 0xdda1 <__heap_start+0x5b11>
     c6a: c8           	iny
     c6b: 8c a1 dd     	sty	$dda1                   ; 0xdda1 <__heap_start+0x5b11>
     c6e: 8e a1 dd     	stx	$dda1                   ; 0xdda1 <__heap_start+0x5b11>
     c71: 9c a1 dd     	stz	$dda1                   ; 0xdda1 <__heap_start+0x5b11>
     c74: c8           	iny
     c75: 8c a1 dd     	sty	$dda1                   ; 0xdda1 <__heap_start+0x5b11>
     c78: 8e a1 dd     	stx	$dda1                   ; 0xdda1 <__heap_start+0x5b11>
     c7b: 9c a1 dd     	stz	$dda1                   ; 0xdda1 <__heap_start+0x5b11>
     c7e: c8           	iny
     c7f: 8c a1 dd     	sty	$dda1                   ; 0xdda1 <__heap_start+0x5b11>
     c82: 8e a1 dd     	stx	$dda1                   ; 0xdda1 <__heap_start+0x5b11>
     c85: 9c a1 dd     	stz	$dda1                   ; 0xdda1 <__heap_start+0x5b11>
     c88: c8           	iny
     c89: 8c a1 dd     	sty	$dda1                   ; 0xdda1 <__heap_start+0x5b11>
     c8c: 8e a1 dd     	stx	$dda1                   ; 0xdda1 <__heap_start+0x5b11>
     c8f: 9c a1 dd     	stz	$dda1                   ; 0xdda1 <__heap_start+0x5b11>
     c92: c8           	iny
     c93: 8c a1 dd     	sty	$dda1                   ; 0xdda1 <__heap_start+0x5b11>
     c96: 8e a1 dd     	stx	$dda1                   ; 0xdda1 <__heap_start+0x5b11>
     c99: 9c a1 dd     	stz	$dda1                   ; 0xdda1 <__heap_start+0x5b11>
     c9c: c8           	iny
     c9d: 8c a1 dd     	sty	$dda1                   ; 0xdda1 <__heap_start+0x5b11>
     ca0: 8e a1 dd     	stx	$dda1                   ; 0xdda1 <__heap_start+0x5b11>
     ca3: 9c a1 dd     	stz	$dda1                   ; 0xdda1 <__heap_start+0x5b11>
     ca6: c8           	iny
     ca7: 8c a1 dd     	sty	$dda1                   ; 0xdda1 <__heap_start+0x5b11>
     caa: 8e a1 dd     	stx	$dda1                   ; 0xdda1 <__heap_start+0x5b11>
     cad: 9c a1 dd     	stz	$dda1                   ; 0xdda1 <__heap_start+0x5b11>
     cb0: c8           	iny
     cb1: 8c a1 dd     	sty	$dda1                   ; 0xdda1 <__heap_start+0x5b11>
     cb4: 8e a1 dd     	stx	$dda1                   ; 0xdda1 <__heap_start+0x5b11>
     cb7: 9c a1 dd     	stz	$dda1                   ; 0xdda1 <__heap_start+0x5b11>
     cba: a2 9f        	ldx	#$9f
     cbc: 8e 00 d6     	stx	$d600                   ; 0xd600 <__heap_start+0x5370>
     cbf: 8e 10 d6     	stx	$d610                   ; 0xd610 <__heap_start+0x5380>
     cc2: 8c 00 d6     	sty	$d600                   ; 0xd600 <__heap_start+0x5370>
     cc5: 8c 10 d6     	sty	$d610                   ; 0xd610 <__heap_start+0x5380>
     cc8: 64 14        	stz	$14                     ; 0x14 <__rc4>
     cca: a2 df        	ldx	#$df
     ccc: 8e 00 d6     	stx	$d600                   ; 0xd600 <__heap_start+0x5370>
     ccf: 8e 10 d6     	stx	$d610                   ; 0xd610 <__heap_start+0x5380>
     cd2: a2 ff        	ldx	#$ff
     cd4: 8e 00 d6     	stx	$d600                   ; 0xd600 <__heap_start+0x5370>
     cd7: 8e 10 d6     	stx	$d610                   ; 0xd610 <__heap_start+0x5380>
     cda: ad a1 d6     	lda	$d6a1                   ; 0xd6a1 <__heap_start+0x5411>
     cdd: 29 fb        	and	#$fb
     cdf: 8d a1 d6     	sta	$d6a1                   ; 0xd6a1 <__heap_start+0x5411>
     ce2: a2 dc        	ldx	#$dc
     ce4: 86 12        	stx	$12                     ; 0x12 <__rc2>
     ce6: a2 6c        	ldx	#$6c
     ce8: 86 13        	stx	$13                     ; 0x13 <__rc3>
     cea: 80 0a        	bra	$cf6 <main+0x76b>
     cec: a2 02        	ldx	#$2
     cee: e6 12        	inc	$12                     ; 0x12 <__rc2>
     cf0: d0 02        	bne	$cf4 <main+0x769>
     cf2: e6 13        	inc	$13                     ; 0x13 <__rc3>
     cf4: 86 14        	stx	$14                     ; 0x14 <__rc4>
     cf6: b2 12        	lda	($12)                   ; 0x12 <__rc2>
     cf8: c9 61        	cmp	#$61
     cfa: f0 f0        	beq	$cec <main+0x761>
     cfc: a2 01        	ldx	#$1
     cfe: c9 77        	cmp	#$77
     d00: f0 05        	beq	$d07 <main+0x77c>
     d02: aa           	tax
     d03: f0 08        	beq	$d0d <main+0x782>
     d05: a6 14        	ldx	$14                     ; 0x14 <__rc4>
     d07: e6 12        	inc	$12                     ; 0x12 <__rc2>
     d09: f0 e7        	beq	$cf2 <main+0x767>
     d0b: 80 e7        	bra	$cf4 <main+0x769>
     d0d: a5 24        	lda	$24                     ; 0x24 <__rc20>
     d0f: a0 0a        	ldy	#$a
     d11: 91 10        	sta	($10),y                 ; 0x10 <__rc0>
     d13: a5 25        	lda	$25                     ; 0x25 <__rc21>
     d15: c8           	iny
     d16: 91 10        	sta	($10),y                 ; 0x10 <__rc0>
     d18: a2 ca        	ldx	#$ca
     d1a: a5 14        	lda	$14                     ; 0x14 <__rc4>
     d1c: a0 6c        	ldy	#$6c
     d1e: 86 fb        	stx	$fb                     ; 0xfb <__zp_bss_size+0xc0>
     d20: 84 fc        	sty	$fc                     ; 0xfc <__zp_bss_size+0xc1>
     d22: a2 11        	ldx	#$11
     d24: 86 fd        	stx	$fd                     ; 0xfd <__zp_bss_size+0xc2>
     d26: 64 f3        	stz	$f3                     ; 0xf3 <__zp_bss_size+0xb8>
     d28: 85 f5        	sta	$f5                     ; 0xf5 <__zp_bss_size+0xba>
     d2a: a2 65        	ldx	#$65
     d2c: 86 2e        	stx	$2e                     ; 0x2e <__rc30>
     d2e: a2 00        	ldx	#$0
     d30: 86 2f        	stx	$2f                     ; 0x2f <__rc31>
     d32: 20 5c ff     	jsr	$ff5c <__heap_start+0x7ccc>
     d35: 92 2a        	sta	($2a)                   ; 0x2a <__rc26>
     d37: a9 00        	lda	#$0
     d39: 6a           	ror
     d3a: 85 2e        	sta	$2e                     ; 0x2e <__rc30>
     d3c: a6 65        	ldx	$65                     ; 0x65 <kernelError>
     d3e: a0 00        	ldy	#$0
     d40: 84 24        	sty	$24                     ; 0x24 <__rc20>
     d42: a0 00        	ldy	#$0
     d44: 84 25        	sty	$25                     ; 0x25 <__rc21>
     d46: 8a           	txa
     d47: d0 03        	bne	$d4c <main+0x7c1>
     d49: 4c 8c 0f     	jmp	$f8c <main+0xa01>
     d4c: a6 24        	ldx	$24                     ; 0x24 <__rc20>
     d4e: 86 12        	stx	$12                     ; 0x12 <__rc2>
     d50: a6 25        	ldx	$25                     ; 0x25 <__rc21>
     d52: 86 13        	stx	$13                     ; 0x13 <__rc3>
     d54: 20 5f 34     	jsr	$345f <readLine>
     d57: a6 24        	ldx	$24                     ; 0x24 <__rc20>
     d59: 86 12        	stx	$12                     ; 0x12 <__rc2>
     d5b: a6 25        	ldx	$25                     ; 0x25 <__rc21>
     d5d: 86 13        	stx	$13                     ; 0x13 <__rc3>
     d5f: 20 5f 34     	jsr	$345f <readLine>
     d62: a6 24        	ldx	$24                     ; 0x24 <__rc20>
     d64: 86 12        	stx	$12                     ; 0x12 <__rc2>
     d66: a6 25        	ldx	$25                     ; 0x25 <__rc21>
     d68: 86 13        	stx	$13                     ; 0x13 <__rc3>
     d6a: 20 5f 34     	jsr	$345f <readLine>
     d6d: a6 24        	ldx	$24                     ; 0x24 <__rc20>
     d6f: 86 12        	stx	$12                     ; 0x12 <__rc2>
     d71: a6 25        	ldx	$25                     ; 0x25 <__rc21>
     d73: 86 13        	stx	$13                     ; 0x13 <__rc3>
     d75: 20 5f 34     	jsr	$345f <readLine>
     d78: a6 24        	ldx	$24                     ; 0x24 <__rc20>
     d7a: 86 12        	stx	$12                     ; 0x12 <__rc2>
     d7c: a6 25        	ldx	$25                     ; 0x25 <__rc21>
     d7e: 86 13        	stx	$13                     ; 0x13 <__rc3>
     d80: 20 5f 34     	jsr	$345f <readLine>
     d83: a6 24        	ldx	$24                     ; 0x24 <__rc20>
     d85: 86 12        	stx	$12                     ; 0x12 <__rc2>
     d87: a6 25        	ldx	$25                     ; 0x25 <__rc21>
     d89: 86 13        	stx	$13                     ; 0x13 <__rc3>
     d8b: 20 5f 34     	jsr	$345f <readLine>
     d8e: a6 24        	ldx	$24                     ; 0x24 <__rc20>
     d90: 86 12        	stx	$12                     ; 0x12 <__rc2>
     d92: a6 25        	ldx	$25                     ; 0x25 <__rc21>
     d94: 86 13        	stx	$13                     ; 0x13 <__rc3>
     d96: 20 5f 34     	jsr	$345f <readLine>
     d99: a6 24        	ldx	$24                     ; 0x24 <__rc20>
     d9b: 86 12        	stx	$12                     ; 0x12 <__rc2>
     d9d: a6 25        	ldx	$25                     ; 0x25 <__rc21>
     d9f: 86 13        	stx	$13                     ; 0x13 <__rc3>
     da1: 20 5f 34     	jsr	$345f <readLine>
     da4: a6 24        	ldx	$24                     ; 0x24 <__rc20>
     da6: 86 12        	stx	$12                     ; 0x12 <__rc2>
     da8: a6 25        	ldx	$25                     ; 0x25 <__rc21>
     daa: 86 13        	stx	$13                     ; 0x13 <__rc3>
     dac: 20 5f 34     	jsr	$345f <readLine>
     daf: a6 24        	ldx	$24                     ; 0x24 <__rc20>
     db1: 86 12        	stx	$12                     ; 0x12 <__rc2>
     db3: a6 25        	ldx	$25                     ; 0x25 <__rc21>
     db5: 86 13        	stx	$13                     ; 0x13 <__rc3>
     db7: 20 5f 34     	jsr	$345f <readLine>
     dba: a6 24        	ldx	$24                     ; 0x24 <__rc20>
     dbc: 86 12        	stx	$12                     ; 0x12 <__rc2>
     dbe: a6 25        	ldx	$25                     ; 0x25 <__rc21>
     dc0: 86 13        	stx	$13                     ; 0x13 <__rc3>
     dc2: 20 5f 34     	jsr	$345f <readLine>
     dc5: a6 24        	ldx	$24                     ; 0x24 <__rc20>
     dc7: 86 12        	stx	$12                     ; 0x12 <__rc2>
     dc9: a6 25        	ldx	$25                     ; 0x25 <__rc21>
     dcb: 86 13        	stx	$13                     ; 0x13 <__rc3>
     dcd: 20 5f 34     	jsr	$345f <readLine>
     dd0: a6 24        	ldx	$24                     ; 0x24 <__rc20>
     dd2: 86 12        	stx	$12                     ; 0x12 <__rc2>
     dd4: a6 25        	ldx	$25                     ; 0x25 <__rc21>
     dd6: 86 13        	stx	$13                     ; 0x13 <__rc3>
     dd8: 20 5f 34     	jsr	$345f <readLine>
     ddb: a6 24        	ldx	$24                     ; 0x24 <__rc20>
     ddd: 86 12        	stx	$12                     ; 0x12 <__rc2>
     ddf: a6 25        	ldx	$25                     ; 0x25 <__rc21>
     de1: 86 13        	stx	$13                     ; 0x13 <__rc3>
     de3: 20 5f 34     	jsr	$345f <readLine>
     de6: a6 24        	ldx	$24                     ; 0x24 <__rc20>
     de8: 86 12        	stx	$12                     ; 0x12 <__rc2>
     dea: a6 25        	ldx	$25                     ; 0x25 <__rc21>
     dec: 86 13        	stx	$13                     ; 0x13 <__rc3>
     dee: 20 5f 34     	jsr	$345f <readLine>
     df1: a6 24        	ldx	$24                     ; 0x24 <__rc20>
     df3: 86 12        	stx	$12                     ; 0x12 <__rc2>
     df5: a6 25        	ldx	$25                     ; 0x25 <__rc21>
     df7: 86 13        	stx	$13                     ; 0x13 <__rc3>
     df9: 20 5f 34     	jsr	$345f <readLine>
     dfc: a6 24        	ldx	$24                     ; 0x24 <__rc20>
     dfe: 86 12        	stx	$12                     ; 0x12 <__rc2>
     e00: a6 25        	ldx	$25                     ; 0x25 <__rc21>
     e02: 86 13        	stx	$13                     ; 0x13 <__rc3>
     e04: 20 5f 34     	jsr	$345f <readLine>
     e07: a6 24        	ldx	$24                     ; 0x24 <__rc20>
     e09: 86 12        	stx	$12                     ; 0x12 <__rc2>
     e0b: a6 25        	ldx	$25                     ; 0x25 <__rc21>
     e0d: 86 13        	stx	$13                     ; 0x13 <__rc3>
     e0f: 20 5f 34     	jsr	$345f <readLine>
     e12: a6 24        	ldx	$24                     ; 0x24 <__rc20>
     e14: 86 12        	stx	$12                     ; 0x12 <__rc2>
     e16: a6 25        	ldx	$25                     ; 0x25 <__rc21>
     e18: 86 13        	stx	$13                     ; 0x13 <__rc3>
     e1a: 20 5f 34     	jsr	$345f <readLine>
     e1d: a6 24        	ldx	$24                     ; 0x24 <__rc20>
     e1f: 86 12        	stx	$12                     ; 0x12 <__rc2>
     e21: a6 25        	ldx	$25                     ; 0x25 <__rc21>
     e23: 86 13        	stx	$13                     ; 0x13 <__rc3>
     e25: 20 5f 34     	jsr	$345f <readLine>
     e28: a6 24        	ldx	$24                     ; 0x24 <__rc20>
     e2a: 86 12        	stx	$12                     ; 0x12 <__rc2>
     e2c: a6 25        	ldx	$25                     ; 0x25 <__rc21>
     e2e: 86 13        	stx	$13                     ; 0x13 <__rc3>
     e30: 20 5f 34     	jsr	$345f <readLine>
     e33: a6 24        	ldx	$24                     ; 0x24 <__rc20>
     e35: 86 12        	stx	$12                     ; 0x12 <__rc2>
     e37: a6 25        	ldx	$25                     ; 0x25 <__rc21>
     e39: 86 13        	stx	$13                     ; 0x13 <__rc3>
     e3b: 20 5f 34     	jsr	$345f <readLine>
     e3e: a6 24        	ldx	$24                     ; 0x24 <__rc20>
     e40: 86 12        	stx	$12                     ; 0x12 <__rc2>
     e42: a6 25        	ldx	$25                     ; 0x25 <__rc21>
     e44: 86 13        	stx	$13                     ; 0x13 <__rc3>
     e46: 20 5f 34     	jsr	$345f <readLine>
     e49: a6 24        	ldx	$24                     ; 0x24 <__rc20>
     e4b: 86 12        	stx	$12                     ; 0x12 <__rc2>
     e4d: a6 25        	ldx	$25                     ; 0x25 <__rc21>
     e4f: 86 13        	stx	$13                     ; 0x13 <__rc3>
     e51: 20 5f 34     	jsr	$345f <readLine>
     e54: a6 24        	ldx	$24                     ; 0x24 <__rc20>
     e56: 86 12        	stx	$12                     ; 0x12 <__rc2>
     e58: a6 25        	ldx	$25                     ; 0x25 <__rc21>
     e5a: 86 13        	stx	$13                     ; 0x13 <__rc3>
     e5c: 20 5f 34     	jsr	$345f <readLine>
     e5f: a6 24        	ldx	$24                     ; 0x24 <__rc20>
     e61: 86 12        	stx	$12                     ; 0x12 <__rc2>
     e63: a6 25        	ldx	$25                     ; 0x25 <__rc21>
     e65: 86 13        	stx	$13                     ; 0x13 <__rc3>
     e67: 20 5f 34     	jsr	$345f <readLine>
     e6a: a6 24        	ldx	$24                     ; 0x24 <__rc20>
     e6c: 86 12        	stx	$12                     ; 0x12 <__rc2>
     e6e: a6 25        	ldx	$25                     ; 0x25 <__rc21>
     e70: 86 13        	stx	$13                     ; 0x13 <__rc3>
     e72: 20 5f 34     	jsr	$345f <readLine>
     e75: a6 24        	ldx	$24                     ; 0x24 <__rc20>
     e77: 86 12        	stx	$12                     ; 0x12 <__rc2>
     e79: a6 25        	ldx	$25                     ; 0x25 <__rc21>
     e7b: 86 13        	stx	$13                     ; 0x13 <__rc3>
     e7d: 20 5f 34     	jsr	$345f <readLine>
     e80: a6 24        	ldx	$24                     ; 0x24 <__rc20>
     e82: 86 12        	stx	$12                     ; 0x12 <__rc2>
     e84: a6 25        	ldx	$25                     ; 0x25 <__rc21>
     e86: 86 13        	stx	$13                     ; 0x13 <__rc3>
     e88: 20 5f 34     	jsr	$345f <readLine>
     e8b: a6 24        	ldx	$24                     ; 0x24 <__rc20>
     e8d: 86 12        	stx	$12                     ; 0x12 <__rc2>
     e8f: a6 25        	ldx	$25                     ; 0x25 <__rc21>
     e91: 86 13        	stx	$13                     ; 0x13 <__rc3>
     e93: 20 5f 34     	jsr	$345f <readLine>
     e96: b2 24        	lda	($24)                   ; 0x24 <__rc20>
     e98: 85 f3        	sta	$f3                     ; 0xf3 <__zp_bss_size+0xb8>
     e9a: a5 24        	lda	$24                     ; 0x24 <__rc20>
     e9c: 18           	clc
     e9d: 69 fe        	adc	#$fe
     e9f: 85 16        	sta	$16                     ; 0x16 <__rc6>
     ea1: a5 25        	lda	$25                     ; 0x25 <__rc21>
     ea3: 69 ff        	adc	#$ff
     ea5: a6 16        	ldx	$16                     ; 0x16 <__rc6>
     ea7: 86 12        	stx	$12                     ; 0x12 <__rc2>
     ea9: aa           	tax
     eaa: 85 13        	sta	$13                     ; 0x13 <__rc3>
     eac: 20 68 ff     	jsr	$ff68 <__heap_start+0x7cd8>
     eaf: 92 2a        	sta	($2a)                   ; 0x2a <__rc26>
     eb1: a9 00        	lda	#$0
     eb3: 6a           	ror
     eb4: 85 2e        	sta	$2e                     ; 0x2e <__rc30>
     eb6: b2 12        	lda	($12)                   ; 0x12 <__rc2>
     eb8: 85 18        	sta	$18                     ; 0x18 <__rc8>
     eba: a0 01        	ldy	#$1
     ebc: b1 12        	lda	($12),y                 ; 0x12 <__rc2>
     ebe: 85 14        	sta	$14                     ; 0x14 <__rc4>
     ec0: a9 fe        	lda	#$fe
     ec2: 32 12        	and	($12)                   ; 0x12 <__rc2>
     ec4: 85 15        	sta	$15                     ; 0x15 <__rc5>
     ec6: a4 16        	ldy	$16                     ; 0x16 <__rc6>
     ec8: 84 1a        	sty	$1a                     ; 0x1a <__rc10>
     eca: a5 16        	lda	$16                     ; 0x16 <__rc6>
     ecc: 18           	clc
     ecd: 65 15        	adc	$15                     ; 0x15 <__rc5>
     ecf: 85 16        	sta	$16                     ; 0x16 <__rc6>
     ed1: 8a           	txa
     ed2: 86 19        	stx	$19                     ; 0x19 <__rc9>
     ed4: 65 14        	adc	$14                     ; 0x14 <__rc4>
     ed6: c5 29        	cmp	$29                     ; 0x29 <__rc25>
     ed8: d0 17        	bne	$ef1 <main+0x966>
     eda: a6 16        	ldx	$16                     ; 0x16 <__rc6>
     edc: e4 2d        	cpx	$2d                     ; 0x2d <__rc29>
     ede: d0 11        	bne	$ef1 <main+0x966>
     ee0: a2 00        	ldx	#$0
     ee2: 86 16        	stx	$16                     ; 0x16 <__rc6>
     ee4: a2 00        	ldx	#$0
     ee6: 86 17        	stx	$17                     ; 0x17 <__rc7>
     ee8: a5 18        	lda	$18                     ; 0x18 <__rc8>
     eea: 29 01        	and	#$1
     eec: d0 0e        	bne	$efc <main+0x971>
     eee: 4c 77 10     	jmp	$1077 <main+0xaec>
     ef1: 85 17        	sta	$17                     ; 0x17 <__rc7>
     ef3: a5 18        	lda	$18                     ; 0x18 <__rc8>
     ef5: 29 01        	and	#$1
     ef7: d0 03        	bne	$efc <main+0x971>
     ef9: 4c 77 10     	jmp	$1077 <main+0xaec>
     efc: a5 24        	lda	$24                     ; 0x24 <__rc20>
     efe: 18           	clc
     eff: 69 fc        	adc	#$fc
     f01: 85 12        	sta	$12                     ; 0x12 <__rc2>
     f03: a5 25        	lda	$25                     ; 0x25 <__rc21>
     f05: 69 ff        	adc	#$ff
     f07: 85 13        	sta	$13                     ; 0x13 <__rc3>
     f09: a0 01        	ldy	#$1
     f0b: a9 00        	lda	#$0
     f0d: 38           	sec
     f0e: f2 12        	sbc	($12)                   ; 0x12 <__rc2>
     f10: 85 18        	sta	$18                     ; 0x18 <__rc8>
     f12: a9 00        	lda	#$0
     f14: f1 12        	sbc	($12),y                 ; 0x12 <__rc2>
     f16: 85 13        	sta	$13                     ; 0x13 <__rc3>
     f18: a5 1a        	lda	$1a                     ; 0x1a <__rc10>
     f1a: 18           	clc
     f1b: 65 18        	adc	$18                     ; 0x18 <__rc8>
     f1d: 85 12        	sta	$12                     ; 0x12 <__rc2>
     f1f: 85 1a        	sta	$1a                     ; 0x1a <__rc10>
     f21: a5 19        	lda	$19                     ; 0x19 <__rc9>
     f23: 65 13        	adc	$13                     ; 0x13 <__rc3>
     f25: 85 13        	sta	$13                     ; 0x13 <__rc3>
     f27: 85 19        	sta	$19                     ; 0x19 <__rc9>
     f29: b1 12        	lda	($12),y                 ; 0x12 <__rc2>
     f2b: 85 1c        	sta	$1c                     ; 0x1c <__rc12>
     f2d: a2 01        	ldx	#$1
     f2f: 86 1e        	stx	$1e                     ; 0x1e <__rc14>
     f31: a9 fe        	lda	#$fe
     f33: 32 12        	and	($12)                   ; 0x12 <__rc2>
     f35: a6 68        	ldx	$68                     ; 0x68 <_ZN12_GLOBAL__N_19free_sizeE>
     f37: 85 1d        	sta	$1d                     ; 0x1d <__rc13>
     f39: 85 18        	sta	$18                     ; 0x18 <__rc8>
     f3b: 38           	sec
     f3c: 8a           	txa
     f3d: e5 18        	sbc	$18                     ; 0x18 <__rc8>
     f3f: 85 1b        	sta	$1b                     ; 0x1b <__rc11>
     f41: a6 1c        	ldx	$1c                     ; 0x1c <__rc12>
     f43: 86 18        	stx	$18                     ; 0x18 <__rc8>
     f45: a5 69        	lda	$69                     ; 0x69 <_ZN12_GLOBAL__N_19free_sizeE+0x1>
     f47: e5 18        	sbc	$18                     ; 0x18 <__rc8>
     f49: aa           	tax
     f4a: 18           	clc
     f4b: a5 1b        	lda	$1b                     ; 0x1b <__rc11>
     f4d: 69 02        	adc	#$2
     f4f: 85 18        	sta	$18                     ; 0x18 <__rc8>
     f51: 8a           	txa
     f52: 69 00        	adc	#$0
     f54: a6 18        	ldx	$18                     ; 0x18 <__rc8>
     f56: 86 68        	stx	$68                     ; 0x68 <_ZN12_GLOBAL__N_19free_sizeE>
     f58: 85 69        	sta	$69                     ; 0x69 <_ZN12_GLOBAL__N_19free_sizeE+0x1>
     f5a: a6 1a        	ldx	$1a                     ; 0x1a <__rc10>
     f5c: 86 1b        	stx	$1b                     ; 0x1b <__rc11>
     f5e: a5 1a        	lda	$1a                     ; 0x1a <__rc10>
     f60: 18           	clc
     f61: 69 02        	adc	#$2
     f63: 85 18        	sta	$18                     ; 0x18 <__rc8>
     f65: a6 19        	ldx	$19                     ; 0x19 <__rc9>
     f67: 86 1a        	stx	$1a                     ; 0x1a <__rc10>
     f69: a5 19        	lda	$19                     ; 0x19 <__rc9>
     f6b: 69 00        	adc	#$0
     f6d: c8           	iny
     f6e: 85 19        	sta	$19                     ; 0x19 <__rc9>
     f70: b1 12        	lda	($12),y                 ; 0x12 <__rc2>
     f72: aa           	tax
     f73: a4 1e        	ldy	$1e                     ; 0x1e <__rc14>
     f75: b1 18        	lda	($18),y                 ; 0x18 <__rc8>
     f77: 85 1f        	sta	$1f                     ; 0x1f <__rc15>
     f79: c5 13        	cmp	$13                     ; 0x13 <__rc3>
     f7b: d0 57        	bne	$fd4 <main+0xa49>
     f7d: e4 12        	cpx	$12                     ; 0x12 <__rc2>
     f7f: d0 53        	bne	$fd4 <main+0xa49>
     f81: a2 00        	ldx	#$0
     f83: 86 18        	stx	$18                     ; 0x18 <__rc8>
     f85: a2 00        	ldx	#$0
     f87: 86 19        	stx	$19                     ; 0x19 <__rc9>
     f89: 4c 62 10     	jmp	$1062 <main+0xad7>
     f8c: b2 2a        	lda	($2a)                   ; 0x2a <__rc26>
     f8e: 85 28        	sta	$28                     ; 0x28 <__rc24>
     f90: a2 65        	ldx	#$65
     f92: 86 12        	stx	$12                     ; 0x12 <__rc2>
     f94: a2 00        	ldx	#$0
     f96: 86 13        	stx	$13                     ; 0x13 <__rc3>
     f98: 64 5e        	stz	$5e                     ; 0x5e <kernelEventData>
     f9a: 20 00 ff     	jsr	$ff00 <__heap_start+0x7c70>
     f9d: 92 2a        	sta	($2a)                   ; 0x2a <__rc26>
     f9f: a9 00        	lda	#$0
     fa1: 6a           	ror
     fa2: 85 12        	sta	$12                     ; 0x12 <__rc2>
     fa4: a6 5e        	ldx	$5e                     ; 0x5e <kernelEventData>
     fa6: e0 28        	cpx	#$28
     fa8: d0 03        	bne	$fad <main+0xa22>
     faa: 4c 4c 0d     	jmp	$d4c <main+0x7c1>
     fad: e0 38        	cpx	#$38
     faf: d0 03        	bne	$fb4 <main+0xa29>
     fb1: 4c 4c 0d     	jmp	$d4c <main+0x7c1>
     fb4: e0 2a        	cpx	#$2a
     fb6: d0 e0        	bne	$f98 <main+0xa0d>
     fb8: a5 66        	lda	$66                     ; 0x66 <_ZN12_GLOBAL__N_111initializedE>
     fba: 29 01        	and	#$1
     fbc: a6 6a        	ldx	$6a                     ; 0x6a <_ZN12_GLOBAL__N_19free_listE>
     fbe: a4 6b        	ldy	$6b                     ; 0x6b <_ZN12_GLOBAL__N_19free_listE+0x1>
     fc0: 86 12        	stx	$12                     ; 0x12 <__rc2>
     fc2: 84 13        	sty	$13                     ; 0x13 <__rc3>
     fc4: c9 00        	cmp	#$0
     fc6: d0 03        	bne	$fcb <main+0xa40>
     fc8: 4c 80 16     	jmp	$1680 <main+0x10f5>
     fcb: a5 2d        	lda	$2d                     ; 0x2d <__rc29>
     fcd: a0 0e        	ldy	#$e
     fcf: 91 10        	sta	($10),y                 ; 0x10 <__rc0>
     fd1: 4c a3 17     	jmp	$17a3 <main+0x1218>
     fd4: 86 1e        	stx	$1e                     ; 0x1e <__rc14>
     fd6: 18           	clc
     fd7: a5 1b        	lda	$1b                     ; 0x1b <__rc11>
     fd9: a6 1b        	ldx	$1b                     ; 0x1b <__rc11>
     fdb: 86 23        	stx	$23                     ; 0x23 <__rc19>
     fdd: 69 04        	adc	#$4
     fdf: 85 18        	sta	$18                     ; 0x18 <__rc8>
     fe1: a6 1a        	ldx	$1a                     ; 0x1a <__rc10>
     fe3: 86 24        	stx	$24                     ; 0x24 <__rc20>
     fe5: a5 1a        	lda	$1a                     ; 0x1a <__rc10>
     fe7: 69 00        	adc	#$0
     fe9: a0 04        	ldy	#$4
     feb: 85 19        	sta	$19                     ; 0x19 <__rc9>
     fed: b1 12        	lda	($12),y                 ; 0x12 <__rc2>
     fef: 85 25        	sta	$25                     ; 0x25 <__rc21>
     ff1: a2 04        	ldx	#$4
     ff3: 86 22        	stx	$22                     ; 0x22 <__rc18>
     ff5: 18           	clc
     ff6: 69 02        	adc	#$2
     ff8: 85 1a        	sta	$1a                     ; 0x1a <__rc10>
     ffa: a0 01        	ldy	#$1
     ffc: b1 18        	lda	($18),y                 ; 0x18 <__rc8>
     ffe: aa           	tax
     fff: 84 26        	sty	$26                     ; 0x26 <__rc22>
    1001: 69 00        	adc	#$0
    1003: a4 1a        	ldy	$1a                     ; 0x1a <__rc10>
    1005: 84 18        	sty	$18                     ; 0x18 <__rc8>
    1007: 85 19        	sta	$19                     ; 0x19 <__rc9>
    1009: a4 25        	ldy	$25                     ; 0x25 <__rc21>
    100b: 84 1a        	sty	$1a                     ; 0x1a <__rc10>
    100d: 86 1b        	stx	$1b                     ; 0x1b <__rc11>
    100f: a5 1e        	lda	$1e                     ; 0x1e <__rc14>
    1011: a0 02        	ldy	#$2
    1013: 91 1a        	sta	($1a),y                 ; 0x1a <__rc10>
    1015: 84 1a        	sty	$1a                     ; 0x1a <__rc10>
    1017: a5 1f        	lda	$1f                     ; 0x1f <__rc15>
    1019: a4 26        	ldy	$26                     ; 0x26 <__rc22>
    101b: 91 18        	sta	($18),y                 ; 0x18 <__rc8>
    101d: 18           	clc
    101e: a5 23        	lda	$23                     ; 0x23 <__rc19>
    1020: 69 02        	adc	#$2
    1022: 85 18        	sta	$18                     ; 0x18 <__rc8>
    1024: a5 24        	lda	$24                     ; 0x24 <__rc20>
    1026: 69 00        	adc	#$0
    1028: 85 19        	sta	$19                     ; 0x19 <__rc9>
    102a: a4 1a        	ldy	$1a                     ; 0x1a <__rc10>
    102c: b1 12        	lda	($12),y                 ; 0x12 <__rc2>
    102e: 85 1a        	sta	$1a                     ; 0x1a <__rc10>
    1030: a4 26        	ldy	$26                     ; 0x26 <__rc22>
    1032: b1 18        	lda	($18),y                 ; 0x18 <__rc8>
    1034: 84 1e        	sty	$1e                     ; 0x1e <__rc14>
    1036: a4 1a        	ldy	$1a                     ; 0x1a <__rc10>
    1038: 84 18        	sty	$18                     ; 0x18 <__rc8>
    103a: 85 19        	sta	$19                     ; 0x19 <__rc9>
    103c: 85 1b        	sta	$1b                     ; 0x1b <__rc11>
    103e: a4 22        	ldy	$22                     ; 0x22 <__rc18>
    1040: a5 25        	lda	$25                     ; 0x25 <__rc21>
    1042: 91 18        	sta	($18),y                 ; 0x18 <__rc8>
    1044: 18           	clc
    1045: a5 1a        	lda	$1a                     ; 0x1a <__rc10>
    1047: 69 04        	adc	#$4
    1049: 85 1a        	sta	$1a                     ; 0x1a <__rc10>
    104b: a5 1b        	lda	$1b                     ; 0x1b <__rc11>
    104d: 69 00        	adc	#$0
    104f: 85 1b        	sta	$1b                     ; 0x1b <__rc11>
    1051: 8a           	txa
    1052: a4 1e        	ldy	$1e                     ; 0x1e <__rc14>
    1054: 91 1a        	sta	($1a),y                 ; 0x1a <__rc10>
    1056: a6 6b        	ldx	$6b                     ; 0x6b <_ZN12_GLOBAL__N_19free_listE+0x1>
    1058: e4 13        	cpx	$13                     ; 0x13 <__rc3>
    105a: d0 0e        	bne	$106a <main+0xadf>
    105c: a6 6a        	ldx	$6a                     ; 0x6a <_ZN12_GLOBAL__N_19free_listE>
    105e: e4 12        	cpx	$12                     ; 0x12 <__rc2>
    1060: d0 08        	bne	$106a <main+0xadf>
    1062: a6 18        	ldx	$18                     ; 0x18 <__rc8>
    1064: a4 19        	ldy	$19                     ; 0x19 <__rc9>
    1066: 86 6a        	stx	$6a                     ; 0x6a <_ZN12_GLOBAL__N_19free_listE>
    1068: 84 6b        	sty	$6b                     ; 0x6b <_ZN12_GLOBAL__N_19free_listE+0x1>
    106a: 18           	clc
    106b: a5 1d        	lda	$1d                     ; 0x1d <__rc13>
    106d: 65 15        	adc	$15                     ; 0x15 <__rc5>
    106f: 85 15        	sta	$15                     ; 0x15 <__rc5>
    1071: a5 1c        	lda	$1c                     ; 0x1c <__rc12>
    1073: 65 14        	adc	$14                     ; 0x14 <__rc4>
    1075: 85 14        	sta	$14                     ; 0x14 <__rc4>
    1077: a2 00        	ldx	#$0
    1079: 86 18        	stx	$18                     ; 0x18 <__rc8>
    107b: a2 00        	ldx	#$0
    107d: 86 19        	stx	$19                     ; 0x19 <__rc9>
    107f: a6 17        	ldx	$17                     ; 0x17 <__rc7>
    1081: e4 19        	cpx	$19                     ; 0x19 <__rc9>
    1083: d0 0c        	bne	$1091 <main+0xb06>
    1085: a6 16        	ldx	$16                     ; 0x16 <__rc6>
    1087: e4 18        	cpx	$18                     ; 0x18 <__rc8>
    1089: d0 06        	bne	$1091 <main+0xb06>
    108b: a2 01        	ldx	#$1
    108d: 86 67        	stx	$67                     ; 0x67 <_ZN12_GLOBAL__N_19last_freeE>
    108f: 80 33        	bra	$10c4 <main+0xb39>
    1091: b2 16        	lda	($16)                   ; 0x16 <__rc6>
    1093: 85 1a        	sta	$1a                     ; 0x1a <__rc10>
    1095: a0 01        	ldy	#$1
    1097: b1 16        	lda	($16),y                 ; 0x16 <__rc6>
    1099: aa           	tax
    109a: a9 fe        	lda	#$fe
    109c: 32 16        	and	($16)                   ; 0x16 <__rc6>
    109e: 18           	clc
    109f: 85 1d        	sta	$1d                     ; 0x1d <__rc13>
    10a1: 65 16        	adc	$16                     ; 0x16 <__rc6>
    10a3: 85 18        	sta	$18                     ; 0x18 <__rc8>
    10a5: 8a           	txa
    10a6: 86 1c        	stx	$1c                     ; 0x1c <__rc12>
    10a8: 65 17        	adc	$17                     ; 0x17 <__rc7>
    10aa: c5 29        	cmp	$29                     ; 0x29 <__rc25>
    10ac: d0 1b        	bne	$10c9 <main+0xb3e>
    10ae: a6 18        	ldx	$18                     ; 0x18 <__rc8>
    10b0: e4 2d        	cpx	$2d                     ; 0x2d <__rc29>
    10b2: d0 15        	bne	$10c9 <main+0xb3e>
    10b4: a5 67        	lda	$67                     ; 0x67 <_ZN12_GLOBAL__N_19last_freeE>
    10b6: 29 01        	and	#$1
    10b8: d0 17        	bne	$10d1 <main+0xb46>
    10ba: a5 1a        	lda	$1a                     ; 0x1a <__rc10>
    10bc: 09 01        	ora	#$1
    10be: 92 16        	sta	($16)                   ; 0x16 <__rc6>
    10c0: a5 1c        	lda	$1c                     ; 0x1c <__rc12>
    10c2: 91 16        	sta	($16),y                 ; 0x16 <__rc6>
    10c4: a6 14        	ldx	$14                     ; 0x14 <__rc4>
    10c6: 4c b9 11     	jmp	$11b9 <main+0xc2e>
    10c9: 85 19        	sta	$19                     ; 0x19 <__rc9>
    10cb: a9 01        	lda	#$1
    10cd: 32 18        	and	($18)                   ; 0x18 <__rc8>
    10cf: f0 e9        	beq	$10ba <main+0xb2f>
    10d1: a5 68        	lda	$68                     ; 0x68 <_ZN12_GLOBAL__N_19free_sizeE>
    10d3: a6 69        	ldx	$69                     ; 0x69 <_ZN12_GLOBAL__N_19free_sizeE+0x1>
    10d5: 86 19        	stx	$19                     ; 0x19 <__rc9>
    10d7: 38           	sec
    10d8: e5 1d        	sbc	$1d                     ; 0x1d <__rc13>
    10da: aa           	tax
    10db: a5 19        	lda	$19                     ; 0x19 <__rc9>
    10dd: e5 1c        	sbc	$1c                     ; 0x1c <__rc12>
    10df: 85 18        	sta	$18                     ; 0x18 <__rc8>
    10e1: 18           	clc
    10e2: 8a           	txa
    10e3: 69 02        	adc	#$2
    10e5: 85 19        	sta	$19                     ; 0x19 <__rc9>
    10e7: a5 18        	lda	$18                     ; 0x18 <__rc8>
    10e9: 69 00        	adc	#$0
    10eb: a6 19        	ldx	$19                     ; 0x19 <__rc9>
    10ed: 86 68        	stx	$68                     ; 0x68 <_ZN12_GLOBAL__N_19free_sizeE>
    10ef: 85 69        	sta	$69                     ; 0x69 <_ZN12_GLOBAL__N_19free_sizeE+0x1>
    10f1: a5 16        	lda	$16                     ; 0x16 <__rc6>
    10f3: 18           	clc
    10f4: 69 02        	adc	#$2
    10f6: 85 18        	sta	$18                     ; 0x18 <__rc8>
    10f8: a5 17        	lda	$17                     ; 0x17 <__rc7>
    10fa: 69 00        	adc	#$0
    10fc: a0 02        	ldy	#$2
    10fe: 85 19        	sta	$19                     ; 0x19 <__rc9>
    1100: b1 16        	lda	($16),y                 ; 0x16 <__rc6>
    1102: aa           	tax
    1103: 88           	dey
    1104: b1 18        	lda	($18),y                 ; 0x18 <__rc8>
    1106: 85 1f        	sta	$1f                     ; 0x1f <__rc15>
    1108: c5 17        	cmp	$17                     ; 0x17 <__rc7>
    110a: d0 0f        	bne	$111b <main+0xb90>
    110c: e4 16        	cpx	$16                     ; 0x16 <__rc6>
    110e: d0 0b        	bne	$111b <main+0xb90>
    1110: a2 00        	ldx	#$0
    1112: 86 18        	stx	$18                     ; 0x18 <__rc8>
    1114: a2 00        	ldx	#$0
    1116: 86 19        	stx	$19                     ; 0x19 <__rc9>
    1118: 4c a5 11     	jmp	$11a5 <main+0xc1a>
    111b: 86 1e        	stx	$1e                     ; 0x1e <__rc14>
    111d: a6 16        	ldx	$16                     ; 0x16 <__rc6>
    111f: a5 16        	lda	$16                     ; 0x16 <__rc6>
    1121: 86 24        	stx	$24                     ; 0x24 <__rc20>
    1123: 18           	clc
    1124: 69 04        	adc	#$4
    1126: 85 18        	sta	$18                     ; 0x18 <__rc8>
    1128: a5 17        	lda	$17                     ; 0x17 <__rc7>
    112a: 69 00        	adc	#$0
    112c: a0 04        	ldy	#$4
    112e: 85 19        	sta	$19                     ; 0x19 <__rc9>
    1130: b1 16        	lda	($16),y                 ; 0x16 <__rc6>
    1132: 85 25        	sta	$25                     ; 0x25 <__rc21>
    1134: a2 04        	ldx	#$4
    1136: 86 22        	stx	$22                     ; 0x22 <__rc18>
    1138: 18           	clc
    1139: 69 02        	adc	#$2
    113b: 85 1a        	sta	$1a                     ; 0x1a <__rc10>
    113d: a0 01        	ldy	#$1
    113f: b1 18        	lda	($18),y                 ; 0x18 <__rc8>
    1141: aa           	tax
    1142: 84 26        	sty	$26                     ; 0x26 <__rc22>
    1144: 69 00        	adc	#$0
    1146: a4 1a        	ldy	$1a                     ; 0x1a <__rc10>
    1148: 84 18        	sty	$18                     ; 0x18 <__rc8>
    114a: 85 19        	sta	$19                     ; 0x19 <__rc9>
    114c: a4 25        	ldy	$25                     ; 0x25 <__rc21>
    114e: 84 1a        	sty	$1a                     ; 0x1a <__rc10>
    1150: 86 1b        	stx	$1b                     ; 0x1b <__rc11>
    1152: a5 1e        	lda	$1e                     ; 0x1e <__rc14>
    1154: a0 02        	ldy	#$2
    1156: 91 1a        	sta	($1a),y                 ; 0x1a <__rc10>
    1158: 84 1a        	sty	$1a                     ; 0x1a <__rc10>
    115a: a5 1f        	lda	$1f                     ; 0x1f <__rc15>
    115c: a4 26        	ldy	$26                     ; 0x26 <__rc22>
    115e: 91 18        	sta	($18),y                 ; 0x18 <__rc8>
    1160: 18           	clc
    1161: a5 24        	lda	$24                     ; 0x24 <__rc20>
    1163: 69 02        	adc	#$2
    1165: 85 18        	sta	$18                     ; 0x18 <__rc8>
    1167: a5 17        	lda	$17                     ; 0x17 <__rc7>
    1169: 69 00        	adc	#$0
    116b: 85 19        	sta	$19                     ; 0x19 <__rc9>
    116d: a4 1a        	ldy	$1a                     ; 0x1a <__rc10>
    116f: b1 16        	lda	($16),y                 ; 0x16 <__rc6>
    1171: 85 1a        	sta	$1a                     ; 0x1a <__rc10>
    1173: a4 26        	ldy	$26                     ; 0x26 <__rc22>
    1175: b1 18        	lda	($18),y                 ; 0x18 <__rc8>
    1177: 84 1e        	sty	$1e                     ; 0x1e <__rc14>
    1179: a4 1a        	ldy	$1a                     ; 0x1a <__rc10>
    117b: 84 18        	sty	$18                     ; 0x18 <__rc8>
    117d: 85 19        	sta	$19                     ; 0x19 <__rc9>
    117f: 85 1b        	sta	$1b                     ; 0x1b <__rc11>
    1181: a4 22        	ldy	$22                     ; 0x22 <__rc18>
    1183: a5 25        	lda	$25                     ; 0x25 <__rc21>
    1185: 91 18        	sta	($18),y                 ; 0x18 <__rc8>
    1187: 18           	clc
    1188: a5 1a        	lda	$1a                     ; 0x1a <__rc10>
    118a: 69 04        	adc	#$4
    118c: 85 1a        	sta	$1a                     ; 0x1a <__rc10>
    118e: a5 1b        	lda	$1b                     ; 0x1b <__rc11>
    1190: 69 00        	adc	#$0
    1192: 85 1b        	sta	$1b                     ; 0x1b <__rc11>
    1194: 8a           	txa
    1195: a4 1e        	ldy	$1e                     ; 0x1e <__rc14>
    1197: 91 1a        	sta	($1a),y                 ; 0x1a <__rc10>
    1199: a6 6b        	ldx	$6b                     ; 0x6b <_ZN12_GLOBAL__N_19free_listE+0x1>
    119b: e4 17        	cpx	$17                     ; 0x17 <__rc7>
    119d: d0 0e        	bne	$11ad <main+0xc22>
    119f: a6 6a        	ldx	$6a                     ; 0x6a <_ZN12_GLOBAL__N_19free_listE>
    11a1: e4 16        	cpx	$16                     ; 0x16 <__rc6>
    11a3: d0 08        	bne	$11ad <main+0xc22>
    11a5: a6 18        	ldx	$18                     ; 0x18 <__rc8>
    11a7: a4 19        	ldy	$19                     ; 0x19 <__rc9>
    11a9: 86 6a        	stx	$6a                     ; 0x6a <_ZN12_GLOBAL__N_19free_listE>
    11ab: 84 6b        	sty	$6b                     ; 0x6b <_ZN12_GLOBAL__N_19free_listE+0x1>
    11ad: 18           	clc
    11ae: a5 1d        	lda	$1d                     ; 0x1d <__rc13>
    11b0: 65 15        	adc	$15                     ; 0x15 <__rc5>
    11b2: 85 15        	sta	$15                     ; 0x15 <__rc5>
    11b4: a5 1c        	lda	$1c                     ; 0x1c <__rc12>
    11b6: 65 14        	adc	$14                     ; 0x14 <__rc4>
    11b8: aa           	tax
    11b9: a9 01        	lda	#$1
    11bb: 32 12        	and	($12)                   ; 0x12 <__rc2>
    11bd: a4 15        	ldy	$15                     ; 0x15 <__rc5>
    11bf: 84 16        	sty	$16                     ; 0x16 <__rc6>
    11c1: 05 15        	ora	$15                     ; 0x15 <__rc5>
    11c3: 92 12        	sta	($12)                   ; 0x12 <__rc2>
    11c5: a5 12        	lda	$12                     ; 0x12 <__rc2>
    11c7: 18           	clc
    11c8: 65 15        	adc	$15                     ; 0x15 <__rc5>
    11ca: a8           	tay
    11cb: 8a           	txa
    11cc: 65 13        	adc	$13                     ; 0x13 <__rc3>
    11ce: 85 15        	sta	$15                     ; 0x15 <__rc5>
    11d0: 18           	clc
    11d1: 98           	tya
    11d2: 69 fe        	adc	#$fe
    11d4: 85 14        	sta	$14                     ; 0x14 <__rc4>
    11d6: a5 15        	lda	$15                     ; 0x15 <__rc5>
    11d8: 69 ff        	adc	#$ff
    11da: 85 15        	sta	$15                     ; 0x15 <__rc5>
    11dc: a0 01        	ldy	#$1
    11de: 8a           	txa
    11df: 91 12        	sta	($12),y                 ; 0x12 <__rc2>
    11e1: a5 16        	lda	$16                     ; 0x16 <__rc6>
    11e3: 92 14        	sta	($14)                   ; 0x14 <__rc4>
    11e5: 8a           	txa
    11e6: 91 14        	sta	($14),y                 ; 0x14 <__rc4>
    11e8: b1 12        	lda	($12),y                 ; 0x12 <__rc2>
    11ea: 85 14        	sta	$14                     ; 0x14 <__rc4>
    11ec: a9 fe        	lda	#$fe
    11ee: 32 12        	and	($12)                   ; 0x12 <__rc2>
    11f0: 18           	clc
    11f1: 65 68        	adc	$68                     ; 0x68 <_ZN12_GLOBAL__N_19free_sizeE>
    11f3: aa           	tax
    11f4: a5 14        	lda	$14                     ; 0x14 <__rc4>
    11f6: 65 69        	adc	$69                     ; 0x69 <_ZN12_GLOBAL__N_19free_sizeE+0x1>
    11f8: 85 14        	sta	$14                     ; 0x14 <__rc4>
    11fa: 18           	clc
    11fb: 8a           	txa
    11fc: 69 fe        	adc	#$fe
    11fe: 85 15        	sta	$15                     ; 0x15 <__rc5>
    1200: a5 14        	lda	$14                     ; 0x14 <__rc4>
    1202: 69 ff        	adc	#$ff
    1204: a6 15        	ldx	$15                     ; 0x15 <__rc5>
    1206: 86 68        	stx	$68                     ; 0x68 <_ZN12_GLOBAL__N_19free_sizeE>
    1208: 85 69        	sta	$69                     ; 0x69 <_ZN12_GLOBAL__N_19free_sizeE+0x1>
    120a: a6 6a        	ldx	$6a                     ; 0x6a <_ZN12_GLOBAL__N_19free_listE>
    120c: 86 16        	stx	$16                     ; 0x16 <__rc6>
    120e: a4 6b        	ldy	$6b                     ; 0x6b <_ZN12_GLOBAL__N_19free_listE+0x1>
    1210: a2 00        	ldx	#$0
    1212: 86 14        	stx	$14                     ; 0x14 <__rc4>
    1214: a2 00        	ldx	#$0
    1216: 86 15        	stx	$15                     ; 0x15 <__rc5>
    1218: c4 15        	cpy	$15                     ; 0x15 <__rc5>
    121a: d0 3e        	bne	$125a <main+0xccf>
    121c: a6 16        	ldx	$16                     ; 0x16 <__rc6>
    121e: e4 14        	cpx	$14                     ; 0x14 <__rc4>
    1220: d0 38        	bne	$125a <main+0xccf>
    1222: a0 04        	ldy	#$4
    1224: a5 12        	lda	$12                     ; 0x12 <__rc2>
    1226: 18           	clc
    1227: 69 04        	adc	#$4
    1229: 85 14        	sta	$14                     ; 0x14 <__rc4>
    122b: a5 13        	lda	$13                     ; 0x13 <__rc3>
    122d: 69 00        	adc	#$0
    122f: 18           	clc
    1230: 85 15        	sta	$15                     ; 0x15 <__rc5>
    1232: a5 12        	lda	$12                     ; 0x12 <__rc2>
    1234: 91 12        	sta	($12),y                 ; 0x12 <__rc2>
    1236: a0 02        	ldy	#$2
    1238: 85 17        	sta	$17                     ; 0x17 <__rc7>
    123a: 69 02        	adc	#$2
    123c: 85 16        	sta	$16                     ; 0x16 <__rc6>
    123e: a5 17        	lda	$17                     ; 0x17 <__rc7>
    1240: 91 12        	sta	($12),y                 ; 0x12 <__rc2>
    1242: a5 13        	lda	$13                     ; 0x13 <__rc3>
    1244: 69 00        	adc	#$0
    1246: 85 17        	sta	$17                     ; 0x17 <__rc7>
    1248: 88           	dey
    1249: a5 13        	lda	$13                     ; 0x13 <__rc3>
    124b: 91 14        	sta	($14),y                 ; 0x14 <__rc4>
    124d: 91 16        	sta	($16),y                 ; 0x16 <__rc6>
    124f: a6 12        	ldx	$12                     ; 0x12 <__rc2>
    1251: 86 6a        	stx	$6a                     ; 0x6a <_ZN12_GLOBAL__N_19free_listE>
    1253: a6 13        	ldx	$13                     ; 0x13 <__rc3>
    1255: 86 6b        	stx	$6b                     ; 0x6b <_ZN12_GLOBAL__N_19free_listE+0x1>
    1257: 4c 06 13     	jmp	$1306 <main+0xd7b>
    125a: a6 12        	ldx	$12                     ; 0x12 <__rc2>
    125c: a5 12        	lda	$12                     ; 0x12 <__rc2>
    125e: 86 1c        	stx	$1c                     ; 0x1c <__rc12>
    1260: 18           	clc
    1261: 69 02        	adc	#$2
    1263: 85 14        	sta	$14                     ; 0x14 <__rc4>
    1265: a6 13        	ldx	$13                     ; 0x13 <__rc3>
    1267: 84 18        	sty	$18                     ; 0x18 <__rc8>
    1269: a5 13        	lda	$13                     ; 0x13 <__rc3>
    126b: 69 00        	adc	#$0
    126d: 85 15        	sta	$15                     ; 0x15 <__rc5>
    126f: a5 16        	lda	$16                     ; 0x16 <__rc6>
    1271: 84 17        	sty	$17                     ; 0x17 <__rc7>
    1273: a0 02        	ldy	#$2
    1275: 91 12        	sta	($12),y                 ; 0x12 <__rc2>
    1277: 85 19        	sta	$19                     ; 0x19 <__rc9>
    1279: 84 1d        	sty	$1d                     ; 0x1d <__rc13>
    127b: 88           	dey
    127c: a5 18        	lda	$18                     ; 0x18 <__rc8>
    127e: 91 14        	sta	($14),y                 ; 0x14 <__rc4>
    1280: 84 1e        	sty	$1e                     ; 0x1e <__rc14>
    1282: 18           	clc
    1283: a5 19        	lda	$19                     ; 0x19 <__rc9>
    1285: 69 04        	adc	#$4
    1287: a8           	tay
    1288: a5 18        	lda	$18                     ; 0x18 <__rc8>
    128a: 69 00        	adc	#$0
    128c: 84 18        	sty	$18                     ; 0x18 <__rc8>
    128e: 85 19        	sta	$19                     ; 0x19 <__rc9>
    1290: a5 1c        	lda	$1c                     ; 0x1c <__rc12>
    1292: 18           	clc
    1293: 69 04        	adc	#$4
    1295: 85 1a        	sta	$1a                     ; 0x1a <__rc10>
    1297: a5 13        	lda	$13                     ; 0x13 <__rc3>
    1299: 69 00        	adc	#$0
    129b: 85 1b        	sta	$1b                     ; 0x1b <__rc11>
    129d: a0 04        	ldy	#$4
    129f: b1 16        	lda	($16),y                 ; 0x16 <__rc6>
    12a1: 85 16        	sta	$16                     ; 0x16 <__rc6>
    12a3: 85 1f        	sta	$1f                     ; 0x1f <__rc15>
    12a5: a4 1e        	ldy	$1e                     ; 0x1e <__rc14>
    12a7: b1 18        	lda	($18),y                 ; 0x18 <__rc8>
    12a9: a4 1e        	ldy	$1e                     ; 0x1e <__rc14>
    12ab: 84 18        	sty	$18                     ; 0x18 <__rc8>
    12ad: 85 17        	sta	$17                     ; 0x17 <__rc7>
    12af: 85 19        	sta	$19                     ; 0x19 <__rc9>
    12b1: a0 04        	ldy	#$4
    12b3: a5 1f        	lda	$1f                     ; 0x1f <__rc15>
    12b5: 91 12        	sta	($12),y                 ; 0x12 <__rc2>
    12b7: 84 1e        	sty	$1e                     ; 0x1e <__rc14>
    12b9: a4 18        	ldy	$18                     ; 0x18 <__rc8>
    12bb: a5 19        	lda	$19                     ; 0x19 <__rc9>
    12bd: 91 1a        	sta	($1a),y                 ; 0x1a <__rc10>
    12bf: 84 1a        	sty	$1a                     ; 0x1a <__rc10>
    12c1: 18           	clc
    12c2: a5 1f        	lda	$1f                     ; 0x1f <__rc15>
    12c4: 69 02        	adc	#$2
    12c6: 85 18        	sta	$18                     ; 0x18 <__rc8>
    12c8: a5 19        	lda	$19                     ; 0x19 <__rc9>
    12ca: 69 00        	adc	#$0
    12cc: 85 19        	sta	$19                     ; 0x19 <__rc9>
    12ce: a5 1c        	lda	$1c                     ; 0x1c <__rc12>
    12d0: a4 1d        	ldy	$1d                     ; 0x1d <__rc13>
    12d2: 91 16        	sta	($16),y                 ; 0x16 <__rc6>
    12d4: a5 13        	lda	$13                     ; 0x13 <__rc3>
    12d6: a4 1a        	ldy	$1a                     ; 0x1a <__rc10>
    12d8: 91 18        	sta	($18),y                 ; 0x18 <__rc8>
    12da: 84 17        	sty	$17                     ; 0x17 <__rc7>
    12dc: a4 1d        	ldy	$1d                     ; 0x1d <__rc13>
    12de: b1 12        	lda	($12),y                 ; 0x12 <__rc2>
    12e0: 85 12        	sta	$12                     ; 0x12 <__rc2>
    12e2: 85 16        	sta	$16                     ; 0x16 <__rc6>
    12e4: a4 17        	ldy	$17                     ; 0x17 <__rc7>
    12e6: b1 14        	lda	($14),y                 ; 0x14 <__rc4>
    12e8: 84 14        	sty	$14                     ; 0x14 <__rc4>
    12ea: 85 13        	sta	$13                     ; 0x13 <__rc3>
    12ec: 85 15        	sta	$15                     ; 0x15 <__rc5>
    12ee: a5 1c        	lda	$1c                     ; 0x1c <__rc12>
    12f0: a4 1e        	ldy	$1e                     ; 0x1e <__rc14>
    12f2: 91 12        	sta	($12),y                 ; 0x12 <__rc2>
    12f4: 18           	clc
    12f5: a5 16        	lda	$16                     ; 0x16 <__rc6>
    12f7: 69 04        	adc	#$4
    12f9: 85 12        	sta	$12                     ; 0x12 <__rc2>
    12fb: a5 15        	lda	$15                     ; 0x15 <__rc5>
    12fd: 69 00        	adc	#$0
    12ff: 85 13        	sta	$13                     ; 0x13 <__rc3>
    1301: 8a           	txa
    1302: a4 14        	ldy	$14                     ; 0x14 <__rc4>
    1304: 91 12        	sta	($12),y                 ; 0x12 <__rc2>
    1306: a2 65        	ldx	#$65
    1308: 86 12        	stx	$12                     ; 0x12 <__rc2>
    130a: a2 00        	ldx	#$0
    130c: 86 13        	stx	$13                     ; 0x13 <__rc3>
    130e: 64 5e        	stz	$5e                     ; 0x5e <kernelEventData>
    1310: 20 00 ff     	jsr	$ff00 <__heap_start+0x7c70>
    1313: 92 2a        	sta	($2a)                   ; 0x2a <__rc26>
    1315: a9 00        	lda	#$0
    1317: 6a           	ror
    1318: 85 12        	sta	$12                     ; 0x12 <__rc2>
    131a: a6 5e        	ldx	$5e                     ; 0x5e <kernelEventData>
    131c: e0 38        	cpx	#$38
    131e: f0 04        	beq	$1324 <main+0xd99>
    1320: e0 32        	cpx	#$32
    1322: d0 ea        	bne	$130e <main+0xd83>
    1324: ae 5f 72     	ldx	$725f                   ; 0x725f <cats+0x564>
    1327: d0 03        	bne	$132c <main+0xda1>
    1329: 4c c1 13     	jmp	$13c1 <main+0xe36>
    132c: a2 fb        	ldx	#$fb
    132e: 86 12        	stx	$12                     ; 0x12 <__rc2>
    1330: a2 6c        	ldx	#$6c
    1332: 86 13        	stx	$13                     ; 0x13 <__rc3>
    1334: a2 00        	ldx	#$0
    1336: 8a           	txa
    1337: 18           	clc
    1338: 69 0a        	adc	#$a
    133a: a0 07        	ldy	#$7
    133c: 84 31        	sty	$31                     ; 0x31 <_col>
    133e: 8c 14 d0     	sty	$d014                   ; 0xd014 <__heap_start+0x4d84>
    1341: 9c 15 d0     	stz	$d015                   ; 0xd015 <__heap_start+0x4d85>
    1344: 85 32        	sta	$32                     ; 0x32 <_row>
    1346: 8d 16 d0     	sta	$d016                   ; 0xd016 <__heap_start+0x4d86>
    1349: 85 2c        	sta	$2c                     ; 0x2c <__rc28>
    134b: 9c 17 d0     	stz	$d017                   ; 0xd017 <__heap_start+0x4d87>
    134e: a5 12        	lda	$12                     ; 0x12 <__rc2>
    1350: a4 13        	ldy	$13                     ; 0x13 <__rc3>
    1352: 84 28        	sty	$28                     ; 0x28 <__rc24>
    1354: 92 10        	sta	($10)                   ; 0x10 <__rc0>
    1356: 85 27        	sta	$27                     ; 0x27 <__rc23>
    1358: a0 01        	ldy	#$1
    135a: a5 13        	lda	$13                     ; 0x13 <__rc3>
    135c: 91 10        	sta	($10),y                 ; 0x10 <__rc0>
    135e: 84 29        	sty	$29                     ; 0x29 <__rc25>
    1360: 86 26        	stx	$26                     ; 0x26 <__rc22>
    1362: a2 c4        	ldx	#$c4
    1364: 86 24        	stx	$24                     ; 0x24 <__rc20>
    1366: a2 6c        	ldx	#$6c
    1368: 86 25        	stx	$25                     ; 0x25 <__rc21>
    136a: a2 c4        	ldx	#$c4
    136c: 86 12        	stx	$12                     ; 0x12 <__rc2>
    136e: a2 6c        	ldx	#$6c
    1370: 86 13        	stx	$13                     ; 0x13 <__rc3>
    1372: 20 51 57     	jsr	$5751 <printf>
    1375: a2 1b        	ldx	#$1b
    1377: 86 31        	stx	$31                     ; 0x31 <_col>
    1379: 8e 14 d0     	stx	$d014                   ; 0xd014 <__heap_start+0x4d84>
    137c: 9c 15 d0     	stz	$d015                   ; 0xd015 <__heap_start+0x4d85>
    137f: a6 2c        	ldx	$2c                     ; 0x2c <__rc28>
    1381: 86 32        	stx	$32                     ; 0x32 <_row>
    1383: 8e 16 d0     	stx	$d016                   ; 0xd016 <__heap_start+0x4d86>
    1386: 18           	clc
    1387: a5 27        	lda	$27                     ; 0x27 <__rc23>
    1389: 69 14        	adc	#$14
    138b: aa           	tax
    138c: a5 28        	lda	$28                     ; 0x28 <__rc24>
    138e: 69 00        	adc	#$0
    1390: 85 12        	sta	$12                     ; 0x12 <__rc2>
    1392: 9c 17 d0     	stz	$d017                   ; 0xd017 <__heap_start+0x4d87>
    1395: 8a           	txa
    1396: 92 10        	sta	($10)                   ; 0x10 <__rc0>
    1398: a4 29        	ldy	$29                     ; 0x29 <__rc25>
    139a: a5 12        	lda	$12                     ; 0x12 <__rc2>
    139c: 91 10        	sta	($10),y                 ; 0x10 <__rc0>
    139e: a2 c4        	ldx	#$c4
    13a0: 86 12        	stx	$12                     ; 0x12 <__rc2>
    13a2: a2 6c        	ldx	#$6c
    13a4: 86 13        	stx	$13                     ; 0x13 <__rc3>
    13a6: 20 51 57     	jsr	$5751 <printf>
    13a9: a6 26        	ldx	$26                     ; 0x26 <__rc22>
    13ab: e8           	inx
    13ac: 18           	clc
    13ad: a5 27        	lda	$27                     ; 0x27 <__rc23>
    13af: 69 73        	adc	#$73
    13b1: 85 12        	sta	$12                     ; 0x12 <__rc2>
    13b3: a5 28        	lda	$28                     ; 0x28 <__rc24>
    13b5: 69 00        	adc	#$0
    13b7: 85 13        	sta	$13                     ; 0x13 <__rc3>
    13b9: ec 5f 72     	cpx	$725f                   ; 0x725f <cats+0x564>
    13bc: b0 03        	bcs	$13c1 <main+0xe36>
    13be: 4c 36 13     	jmp	$1336 <main+0xdab>
    13c1: a2 76        	ldx	#$76
    13c3: 86 30        	stx	$30                     ; 0x30 <_ccolor>
    13c5: a2 0a        	ldx	#$a
    13c7: 86 31        	stx	$31                     ; 0x31 <_col>
    13c9: 8e 14 d0     	stx	$d014                   ; 0xd014 <__heap_start+0x4d84>
    13cc: 9c 15 d0     	stz	$d015                   ; 0xd015 <__heap_start+0x4d85>
    13cf: a2 15        	ldx	#$15
    13d1: 86 32        	stx	$32                     ; 0x32 <_row>
    13d3: 8e 16 d0     	stx	$d016                   ; 0xd016 <__heap_start+0x4d86>
    13d6: 86 27        	stx	$27                     ; 0x27 <__rc23>
    13d8: 9c 17 d0     	stz	$d017                   ; 0xd017 <__heap_start+0x4d87>
    13db: a9 e3        	lda	#$e3
    13dd: 92 10        	sta	($10)                   ; 0x10 <__rc0>
    13df: a0 01        	ldy	#$1
    13e1: a9 6c        	lda	#$6c
    13e3: 91 10        	sta	($10),y                 ; 0x10 <__rc0>
    13e5: a2 01        	ldx	#$1
    13e7: 86 28        	stx	$28                     ; 0x28 <__rc24>
    13e9: a2 c4        	ldx	#$c4
    13eb: 86 24        	stx	$24                     ; 0x24 <__rc20>
    13ed: a2 6c        	ldx	#$6c
    13ef: 86 25        	stx	$25                     ; 0x25 <__rc21>
    13f1: a2 c4        	ldx	#$c4
    13f3: 86 12        	stx	$12                     ; 0x12 <__rc2>
    13f5: a2 6c        	ldx	#$6c
    13f7: 86 13        	stx	$13                     ; 0x13 <__rc3>
    13f9: 20 51 57     	jsr	$5751 <printf>
    13fc: a2 f0        	ldx	#$f0
    13fe: 86 30        	stx	$30                     ; 0x30 <_ccolor>
    1400: 86 26        	stx	$26                     ; 0x26 <__rc22>
    1402: a2 12        	ldx	#$12
    1404: 86 31        	stx	$31                     ; 0x31 <_col>
    1406: 8e 14 d0     	stx	$d014                   ; 0xd014 <__heap_start+0x4d84>
    1409: 9c 15 d0     	stz	$d015                   ; 0xd015 <__heap_start+0x4d85>
    140c: a6 27        	ldx	$27                     ; 0x27 <__rc23>
    140e: 86 32        	stx	$32                     ; 0x32 <_row>
    1410: 8e 16 d0     	stx	$d016                   ; 0xd016 <__heap_start+0x4d86>
    1413: 9c 17 d0     	stz	$d017                   ; 0xd017 <__heap_start+0x4d87>
    1416: a9 e9        	lda	#$e9
    1418: 92 10        	sta	($10)                   ; 0x10 <__rc0>
    141a: a4 28        	ldy	$28                     ; 0x28 <__rc24>
    141c: a9 6c        	lda	#$6c
    141e: 91 10        	sta	($10),y                 ; 0x10 <__rc0>
    1420: a2 c4        	ldx	#$c4
    1422: 86 12        	stx	$12                     ; 0x12 <__rc2>
    1424: a2 6c        	ldx	#$6c
    1426: 86 13        	stx	$13                     ; 0x13 <__rc3>
    1428: 20 51 57     	jsr	$5751 <printf>
    142b: a6 26        	ldx	$26                     ; 0x26 <__rc22>
    142d: 86 30        	stx	$30                     ; 0x30 <_ccolor>
    142f: a2 1a        	ldx	#$1a
    1431: 86 31        	stx	$31                     ; 0x31 <_col>
    1433: 8e 14 d0     	stx	$d014                   ; 0xd014 <__heap_start+0x4d84>
    1436: 9c 15 d0     	stz	$d015                   ; 0xd015 <__heap_start+0x4d85>
    1439: a2 15        	ldx	#$15
    143b: 86 32        	stx	$32                     ; 0x32 <_row>
    143d: 8e 16 d0     	stx	$d016                   ; 0xd016 <__heap_start+0x4d86>
    1440: 86 27        	stx	$27                     ; 0x27 <__rc23>
    1442: 9c 17 d0     	stz	$d017                   ; 0xd017 <__heap_start+0x4d87>
    1445: a9 ef        	lda	#$ef
    1447: 92 10        	sta	($10)                   ; 0x10 <__rc0>
    1449: a4 28        	ldy	$28                     ; 0x28 <__rc24>
    144b: a9 6c        	lda	#$6c
    144d: 91 10        	sta	($10),y                 ; 0x10 <__rc0>
    144f: a2 c4        	ldx	#$c4
    1451: 86 12        	stx	$12                     ; 0x12 <__rc2>
    1453: a2 6c        	ldx	#$6c
    1455: 86 13        	stx	$13                     ; 0x13 <__rc3>
    1457: 20 51 57     	jsr	$5751 <printf>
    145a: a6 26        	ldx	$26                     ; 0x26 <__rc22>
    145c: 86 30        	stx	$30                     ; 0x30 <_ccolor>
    145e: a2 22        	ldx	#$22
    1460: 86 31        	stx	$31                     ; 0x31 <_col>
    1462: 8e 14 d0     	stx	$d014                   ; 0xd014 <__heap_start+0x4d84>
    1465: 9c 15 d0     	stz	$d015                   ; 0xd015 <__heap_start+0x4d85>
    1468: a6 27        	ldx	$27                     ; 0x27 <__rc23>
    146a: 86 32        	stx	$32                     ; 0x32 <_row>
    146c: 8e 16 d0     	stx	$d016                   ; 0xd016 <__heap_start+0x4d86>
    146f: 9c 17 d0     	stz	$d017                   ; 0xd017 <__heap_start+0x4d87>
    1472: a9 f5        	lda	#$f5
    1474: 92 10        	sta	($10)                   ; 0x10 <__rc0>
    1476: a4 28        	ldy	$28                     ; 0x28 <__rc24>
    1478: a9 6c        	lda	#$6c
    147a: 91 10        	sta	($10),y                 ; 0x10 <__rc0>
    147c: a2 c4        	ldx	#$c4
    147e: 86 12        	stx	$12                     ; 0x12 <__rc2>
    1480: a2 6c        	ldx	#$6c
    1482: 86 13        	stx	$13                     ; 0x13 <__rc3>
    1484: 20 51 57     	jsr	$5751 <printf>
    1487: a2 d1        	ldx	#$d1
    1489: 86 30        	stx	$30                     ; 0x30 <_ccolor>
    148b: a2 07        	ldx	#$7
    148d: 86 31        	stx	$31                     ; 0x31 <_col>
    148f: 8e 14 d0     	stx	$d014                   ; 0xd014 <__heap_start+0x4d84>
    1492: 9c 15 d0     	stz	$d015                   ; 0xd015 <__heap_start+0x4d85>
    1495: a2 0a        	ldx	#$a
    1497: 86 32        	stx	$32                     ; 0x32 <_row>
    1499: 8e 16 d0     	stx	$d016                   ; 0xd016 <__heap_start+0x4d86>
    149c: 86 26        	stx	$26                     ; 0x26 <__rc22>
    149e: 9c 17 d0     	stz	$d017                   ; 0xd017 <__heap_start+0x4d87>
    14a1: a9 fb        	lda	#$fb
    14a3: 92 10        	sta	($10)                   ; 0x10 <__rc0>
    14a5: a4 28        	ldy	$28                     ; 0x28 <__rc24>
    14a7: a9 6c        	lda	#$6c
    14a9: 91 10        	sta	($10),y                 ; 0x10 <__rc0>
    14ab: a2 c4        	ldx	#$c4
    14ad: 86 12        	stx	$12                     ; 0x12 <__rc2>
    14af: a2 6c        	ldx	#$6c
    14b1: 86 13        	stx	$13                     ; 0x13 <__rc3>
    14b3: 20 51 57     	jsr	$5751 <printf>
    14b6: a2 1b        	ldx	#$1b
    14b8: 86 31        	stx	$31                     ; 0x31 <_col>
    14ba: 8e 14 d0     	stx	$d014                   ; 0xd014 <__heap_start+0x4d84>
    14bd: 9c 15 d0     	stz	$d015                   ; 0xd015 <__heap_start+0x4d85>
    14c0: a6 26        	ldx	$26                     ; 0x26 <__rc22>
    14c2: 86 32        	stx	$32                     ; 0x32 <_row>
    14c4: 8e 16 d0     	stx	$d016                   ; 0xd016 <__heap_start+0x4d86>
    14c7: 9c 17 d0     	stz	$d017                   ; 0xd017 <__heap_start+0x4d87>
    14ca: a9 0f        	lda	#$f
    14cc: 92 10        	sta	($10)                   ; 0x10 <__rc0>
    14ce: a4 28        	ldy	$28                     ; 0x28 <__rc24>
    14d0: a9 6d        	lda	#$6d
    14d2: 91 10        	sta	($10),y                 ; 0x10 <__rc0>
    14d4: a2 c4        	ldx	#$c4
    14d6: 86 12        	stx	$12                     ; 0x12 <__rc2>
    14d8: a2 6c        	ldx	#$6c
    14da: 86 13        	stx	$13                     ; 0x13 <__rc3>
    14dc: 20 51 57     	jsr	$5751 <printf>
    14df: a2 c0        	ldx	#$c0
    14e1: 8e a1 dd     	stx	$dda1                   ; 0xdda1 <__heap_start+0x5b11>
    14e4: 9c a1 dd     	stz	$dda1                   ; 0xdda1 <__heap_start+0x5b11>
    14e7: a2 b0        	ldx	#$b0
    14e9: 8e a1 dd     	stx	$dda1                   ; 0xdda1 <__heap_start+0x5b11>
    14ec: a2 79        	ldx	#$79
    14ee: 8e a1 dd     	stx	$dda1                   ; 0xdda1 <__heap_start+0x5b11>
    14f1: 9c a1 dd     	stz	$dda1                   ; 0xdda1 <__heap_start+0x5b11>
    14f4: a0 c1        	ldy	#$c1
    14f6: 8c a1 dd     	sty	$dda1                   ; 0xdda1 <__heap_start+0x5b11>
    14f9: 9c a1 dd     	stz	$dda1                   ; 0xdda1 <__heap_start+0x5b11>
    14fc: a0 b1        	ldy	#$b1
    14fe: 8c a1 dd     	sty	$dda1                   ; 0xdda1 <__heap_start+0x5b11>
    1501: 8e a1 dd     	stx	$dda1                   ; 0xdda1 <__heap_start+0x5b11>
    1504: 9c a1 dd     	stz	$dda1                   ; 0xdda1 <__heap_start+0x5b11>
    1507: a0 c2        	ldy	#$c2
    1509: 8c a1 dd     	sty	$dda1                   ; 0xdda1 <__heap_start+0x5b11>
    150c: 9c a1 dd     	stz	$dda1                   ; 0xdda1 <__heap_start+0x5b11>
    150f: a0 b2        	ldy	#$b2
    1511: 8c a1 dd     	sty	$dda1                   ; 0xdda1 <__heap_start+0x5b11>
    1514: 8e a1 dd     	stx	$dda1                   ; 0xdda1 <__heap_start+0x5b11>
    1517: 9c a1 dd     	stz	$dda1                   ; 0xdda1 <__heap_start+0x5b11>
    151a: a0 c3        	ldy	#$c3
    151c: 8c a1 dd     	sty	$dda1                   ; 0xdda1 <__heap_start+0x5b11>
    151f: 9c a1 dd     	stz	$dda1                   ; 0xdda1 <__heap_start+0x5b11>
    1522: a0 b3        	ldy	#$b3
    1524: 8c a1 dd     	sty	$dda1                   ; 0xdda1 <__heap_start+0x5b11>
    1527: 8e a1 dd     	stx	$dda1                   ; 0xdda1 <__heap_start+0x5b11>
    152a: 9c a1 dd     	stz	$dda1                   ; 0xdda1 <__heap_start+0x5b11>
    152d: a0 c4        	ldy	#$c4
    152f: 8c a1 dd     	sty	$dda1                   ; 0xdda1 <__heap_start+0x5b11>
    1532: 9c a1 dd     	stz	$dda1                   ; 0xdda1 <__heap_start+0x5b11>
    1535: a0 b4        	ldy	#$b4
    1537: 8c a1 dd     	sty	$dda1                   ; 0xdda1 <__heap_start+0x5b11>
    153a: 8e a1 dd     	stx	$dda1                   ; 0xdda1 <__heap_start+0x5b11>
    153d: 9c a1 dd     	stz	$dda1                   ; 0xdda1 <__heap_start+0x5b11>
    1540: a0 c5        	ldy	#$c5
    1542: 8c a1 dd     	sty	$dda1                   ; 0xdda1 <__heap_start+0x5b11>
    1545: 9c a1 dd     	stz	$dda1                   ; 0xdda1 <__heap_start+0x5b11>
    1548: a0 b5        	ldy	#$b5
    154a: 8c a1 dd     	sty	$dda1                   ; 0xdda1 <__heap_start+0x5b11>
    154d: 8e a1 dd     	stx	$dda1                   ; 0xdda1 <__heap_start+0x5b11>
    1550: 9c a1 dd     	stz	$dda1                   ; 0xdda1 <__heap_start+0x5b11>
    1553: a0 c6        	ldy	#$c6
    1555: 8c a1 dd     	sty	$dda1                   ; 0xdda1 <__heap_start+0x5b11>
    1558: 9c a1 dd     	stz	$dda1                   ; 0xdda1 <__heap_start+0x5b11>
    155b: a0 b6        	ldy	#$b6
    155d: 8c a1 dd     	sty	$dda1                   ; 0xdda1 <__heap_start+0x5b11>
    1560: 8e a1 dd     	stx	$dda1                   ; 0xdda1 <__heap_start+0x5b11>
    1563: 9c a1 dd     	stz	$dda1                   ; 0xdda1 <__heap_start+0x5b11>
    1566: a0 c7        	ldy	#$c7
    1568: 8c a1 dd     	sty	$dda1                   ; 0xdda1 <__heap_start+0x5b11>
    156b: 9c a1 dd     	stz	$dda1                   ; 0xdda1 <__heap_start+0x5b11>
    156e: a0 b7        	ldy	#$b7
    1570: 8c a1 dd     	sty	$dda1                   ; 0xdda1 <__heap_start+0x5b11>
    1573: 8e a1 dd     	stx	$dda1                   ; 0xdda1 <__heap_start+0x5b11>
    1576: 9c a1 dd     	stz	$dda1                   ; 0xdda1 <__heap_start+0x5b11>
    1579: a0 c8        	ldy	#$c8
    157b: 8c a1 dd     	sty	$dda1                   ; 0xdda1 <__heap_start+0x5b11>
    157e: 9c a1 dd     	stz	$dda1                   ; 0xdda1 <__heap_start+0x5b11>
    1581: a0 b8        	ldy	#$b8
    1583: 8c a1 dd     	sty	$dda1                   ; 0xdda1 <__heap_start+0x5b11>
    1586: 8e a1 dd     	stx	$dda1                   ; 0xdda1 <__heap_start+0x5b11>
    1589: 9c a1 dd     	stz	$dda1                   ; 0xdda1 <__heap_start+0x5b11>
    158c: a0 c9        	ldy	#$c9
    158e: 8c a1 dd     	sty	$dda1                   ; 0xdda1 <__heap_start+0x5b11>
    1591: 9c a1 dd     	stz	$dda1                   ; 0xdda1 <__heap_start+0x5b11>
    1594: a0 b9        	ldy	#$b9
    1596: 8c a1 dd     	sty	$dda1                   ; 0xdda1 <__heap_start+0x5b11>
    1599: 8e a1 dd     	stx	$dda1                   ; 0xdda1 <__heap_start+0x5b11>
    159c: 9c a1 dd     	stz	$dda1                   ; 0xdda1 <__heap_start+0x5b11>
    159f: a0 ca        	ldy	#$ca
    15a1: 8c a1 dd     	sty	$dda1                   ; 0xdda1 <__heap_start+0x5b11>
    15a4: 9c a1 dd     	stz	$dda1                   ; 0xdda1 <__heap_start+0x5b11>
    15a7: a0 ba        	ldy	#$ba
    15a9: 8c a1 dd     	sty	$dda1                   ; 0xdda1 <__heap_start+0x5b11>
    15ac: 8e a1 dd     	stx	$dda1                   ; 0xdda1 <__heap_start+0x5b11>
    15af: 9c a1 dd     	stz	$dda1                   ; 0xdda1 <__heap_start+0x5b11>
    15b2: a0 cb        	ldy	#$cb
    15b4: 8c a1 dd     	sty	$dda1                   ; 0xdda1 <__heap_start+0x5b11>
    15b7: 9c a1 dd     	stz	$dda1                   ; 0xdda1 <__heap_start+0x5b11>
    15ba: a0 bb        	ldy	#$bb
    15bc: 8c a1 dd     	sty	$dda1                   ; 0xdda1 <__heap_start+0x5b11>
    15bf: 8e a1 dd     	stx	$dda1                   ; 0xdda1 <__heap_start+0x5b11>
    15c2: 9c a1 dd     	stz	$dda1                   ; 0xdda1 <__heap_start+0x5b11>
    15c5: a0 cc        	ldy	#$cc
    15c7: 8c a1 dd     	sty	$dda1                   ; 0xdda1 <__heap_start+0x5b11>
    15ca: 9c a1 dd     	stz	$dda1                   ; 0xdda1 <__heap_start+0x5b11>
    15cd: a0 bc        	ldy	#$bc
    15cf: 8c a1 dd     	sty	$dda1                   ; 0xdda1 <__heap_start+0x5b11>
    15d2: 8e a1 dd     	stx	$dda1                   ; 0xdda1 <__heap_start+0x5b11>
    15d5: 9c a1 dd     	stz	$dda1                   ; 0xdda1 <__heap_start+0x5b11>
    15d8: a0 cd        	ldy	#$cd
    15da: 8c a1 dd     	sty	$dda1                   ; 0xdda1 <__heap_start+0x5b11>
    15dd: 9c a1 dd     	stz	$dda1                   ; 0xdda1 <__heap_start+0x5b11>
    15e0: a0 bd        	ldy	#$bd
    15e2: 8c a1 dd     	sty	$dda1                   ; 0xdda1 <__heap_start+0x5b11>
    15e5: 8e a1 dd     	stx	$dda1                   ; 0xdda1 <__heap_start+0x5b11>
    15e8: 9c a1 dd     	stz	$dda1                   ; 0xdda1 <__heap_start+0x5b11>
    15eb: a0 ce        	ldy	#$ce
    15ed: 8c a1 dd     	sty	$dda1                   ; 0xdda1 <__heap_start+0x5b11>
    15f0: 9c a1 dd     	stz	$dda1                   ; 0xdda1 <__heap_start+0x5b11>
    15f3: a0 be        	ldy	#$be
    15f5: 8c a1 dd     	sty	$dda1                   ; 0xdda1 <__heap_start+0x5b11>
    15f8: 8e a1 dd     	stx	$dda1                   ; 0xdda1 <__heap_start+0x5b11>
    15fb: 9c a1 dd     	stz	$dda1                   ; 0xdda1 <__heap_start+0x5b11>
    15fe: a0 cf        	ldy	#$cf
    1600: 8c a1 dd     	sty	$dda1                   ; 0xdda1 <__heap_start+0x5b11>
    1603: 9c a1 dd     	stz	$dda1                   ; 0xdda1 <__heap_start+0x5b11>
    1606: a0 bf        	ldy	#$bf
    1608: 8c a1 dd     	sty	$dda1                   ; 0xdda1 <__heap_start+0x5b11>
    160b: 8e a1 dd     	stx	$dda1                   ; 0xdda1 <__heap_start+0x5b11>
    160e: 9c a1 dd     	stz	$dda1                   ; 0xdda1 <__heap_start+0x5b11>
    1611: a2 ff        	ldx	#$ff
    1613: 8e a1 dd     	stx	$dda1                   ; 0xdda1 <__heap_start+0x5b11>
    1616: 8e a1 dd     	stx	$dda1                   ; 0xdda1 <__heap_start+0x5b11>
    1619: 20 a9 4b     	jsr	$4ba9 <initTrack>
    161c: 9c 54 d6     	stz	$d654                   ; 0xd654 <__heap_start+0x53c4>
    161f: a2 02        	ldx	#$2
    1621: 8e 50 d6     	stx	$d650                   ; 0xd650 <__heap_start+0x53c0>
    1624: a2 89        	ldx	#$89
    1626: 8e 50 d6     	stx	$d650                   ; 0xd650 <__heap_start+0x53c0>
    1629: a6 28        	ldx	$28                     ; 0x28 <__rc24>
    162b: 86 46        	stx	$46                     ; 0x46 <padDelayTimer.2>
    162d: 64 43        	stz	$43                     ; 0x43 <readyForPads>
    162f: a2 80        	ldx	#$80
    1631: 86 f3        	stx	$f3                     ; 0xf3 <__zp_bss_size+0xb8>
    1633: a2 65        	ldx	#$65
    1635: 86 12        	stx	$12                     ; 0x12 <__rc2>
    1637: a2 00        	ldx	#$0
    1639: 86 13        	stx	$13                     ; 0x13 <__rc3>
    163b: 20 f0 ff     	jsr	$fff0 <__heap_start+0x7d60>
    163e: 92 2a        	sta	($2a)                   ; 0x2a <__rc26>
    1640: a9 00        	lda	#$0
    1642: 6a           	ror
    1643: 85 12        	sta	$12                     ; 0x12 <__rc2>
    1645: 18           	clc
    1646: a9 0c        	lda	#$c
    1648: 72 2a        	adc	($2a)                   ; 0x2a <__rc26>
    164a: 85 45        	sta	$45                     ; 0x45 <padDelayTimer.1>
    164c: 64 f3        	stz	$f3                     ; 0xf3 <__zp_bss_size+0xb8>
    164e: a6 45        	ldx	$45                     ; 0x45 <padDelayTimer.1>
    1650: 86 f4        	stx	$f4                     ; 0xf4 <__zp_bss_size+0xb9>
    1652: a0 03        	ldy	#$3
    1654: 84 f5        	sty	$f5                     ; 0xf5 <__zp_bss_size+0xba>
    1656: 20 f0 ff     	jsr	$fff0 <__heap_start+0x7d60>
    1659: 92 2a        	sta	($2a)                   ; 0x2a <__rc26>
    165b: a9 00        	lda	#$0
    165d: 6a           	ror
    165e: 85 12        	sta	$12                     ; 0x12 <__rc2>
    1660: a2 01        	ldx	#$1
    1662: 86 2e        	stx	$2e                     ; 0x2e <__rc30>
    1664: a6 28        	ldx	$28                     ; 0x28 <__rc24>
    1666: 86 44        	stx	$44                     ; 0x44 <isJingleActive>
    1668: 64 4a        	stz	$4a                     ; 0x4a <fudge>
    166a: a2 20        	ldx	#$20
    166c: 86 2f        	stx	$2f                     ; 0x2f <__rc31>
    166e: a2 01        	ldx	#$1
    1670: 5a           	phy
    1671: a0 0c        	ldy	#$c
    1673: b1 10        	lda	($10),y                 ; 0x10 <__rc0>
    1675: 85 26        	sta	$26                     ; 0x26 <__rc22>
    1677: c8           	iny
    1678: b1 10        	lda	($10),y                 ; 0x10 <__rc0>
    167a: 7a           	ply
    167b: 85 27        	sta	$27                     ; 0x27 <__rc23>
    167d: 4c 2a 22     	jmp	$222a <main+0x1c9f>
    1680: 86 16        	stx	$16                     ; 0x16 <__rc6>
    1682: a6 2c        	ldx	$2c                     ; 0x2c <__rc28>
    1684: 86 14        	stx	$14                     ; 0x14 <__rc4>
    1686: a9 00        	lda	#$0
    1688: 29 fe        	and	#$fe
    168a: 85 15        	sta	$15                     ; 0x15 <__rc5>
    168c: a9 01        	lda	#$1
    168e: 2d 90 82     	and	$8290                   ; 0x8290 <__heap_start>
    1691: 05 15        	ora	$15                     ; 0x15 <__rc5>
    1693: 8d 90 82     	sta	$8290                   ; 0x8290 <__heap_start>
    1696: 8e 91 82     	stx	$8291                   ; 0x8291 <__heap_start+0x1>
    1699: a9 90        	lda	#$90
    169b: 18           	clc
    169c: 65 15        	adc	$15                     ; 0x15 <__rc5>
    169e: aa           	tax
    169f: a9 82        	lda	#$82
    16a1: 65 14        	adc	$14                     ; 0x14 <__rc4>
    16a3: 85 14        	sta	$14                     ; 0x14 <__rc4>
    16a5: 18           	clc
    16a6: 8a           	txa
    16a7: 69 fe        	adc	#$fe
    16a9: aa           	tax
    16aa: a5 14        	lda	$14                     ; 0x14 <__rc4>
    16ac: 69 ff        	adc	#$ff
    16ae: 85 15        	sta	$15                     ; 0x15 <__rc5>
    16b0: 86 14        	stx	$14                     ; 0x14 <__rc4>
    16b2: a9 00        	lda	#$0
    16b4: 92 14        	sta	($14)                   ; 0x14 <__rc4>
    16b6: 5a           	phy
    16b7: fa           	plx
    16b8: a0 01        	ldy	#$1
    16ba: a9 10        	lda	#$10
    16bc: 91 14        	sta	($14),y                 ; 0x14 <__rc4>
    16be: ac 91 82     	ldy	$8291                   ; 0x8291 <__heap_start+0x1>
    16c1: 84 19        	sty	$19                     ; 0x19 <__rc9>
    16c3: a9 fe        	lda	#$fe
    16c5: 2d 90 82     	and	$8290                   ; 0x8290 <__heap_start>
    16c8: a4 69        	ldy	$69                     ; 0x69 <_ZN12_GLOBAL__N_19free_sizeE+0x1>
    16ca: 84 14        	sty	$14                     ; 0x14 <__rc4>
    16cc: 85 18        	sta	$18                     ; 0x18 <__rc8>
    16ce: 18           	clc
    16cf: 65 68        	adc	$68                     ; 0x68 <_ZN12_GLOBAL__N_19free_sizeE>
    16d1: a8           	tay
    16d2: a5 14        	lda	$14                     ; 0x14 <__rc4>
    16d4: 6d 91 82     	adc	$8291                   ; 0x8291 <__heap_start+0x1>
    16d7: 85 14        	sta	$14                     ; 0x14 <__rc4>
    16d9: 18           	clc
    16da: 98           	tya
    16db: 69 fe        	adc	#$fe
    16dd: 85 15        	sta	$15                     ; 0x15 <__rc5>
    16df: a5 14        	lda	$14                     ; 0x14 <__rc4>
    16e1: 69 ff        	adc	#$ff
    16e3: a4 15        	ldy	$15                     ; 0x15 <__rc5>
    16e5: 84 68        	sty	$68                     ; 0x68 <_ZN12_GLOBAL__N_19free_sizeE>
    16e7: 85 69        	sta	$69                     ; 0x69 <_ZN12_GLOBAL__N_19free_sizeE+0x1>
    16e9: a0 00        	ldy	#$0
    16eb: 84 14        	sty	$14                     ; 0x14 <__rc4>
    16ed: a0 00        	ldy	#$0
    16ef: 84 15        	sty	$15                     ; 0x15 <__rc5>
    16f1: 86 17        	stx	$17                     ; 0x17 <__rc7>
    16f3: e4 15        	cpx	$15                     ; 0x15 <__rc5>
    16f5: d0 2b        	bne	$1722 <main+0x1197>
    16f7: a6 16        	ldx	$16                     ; 0x16 <__rc6>
    16f9: e4 14        	cpx	$14                     ; 0x14 <__rc4>
    16fb: d0 25        	bne	$1722 <main+0x1197>
    16fd: a5 2d        	lda	$2d                     ; 0x2d <__rc29>
    16ff: a0 0e        	ldy	#$e
    1701: 91 10        	sta	($10),y                 ; 0x10 <__rc0>
    1703: a2 90        	ldx	#$90
    1705: a9 82        	lda	#$82
    1707: a0 90        	ldy	#$90
    1709: 84 12        	sty	$12                     ; 0x12 <__rc2>
    170b: a0 82        	ldy	#$82
    170d: 84 13        	sty	$13                     ; 0x13 <__rc3>
    170f: 8e 94 82     	stx	$8294                   ; 0x8294 <__heap_start+0x4>
    1712: 8d 95 82     	sta	$8295                   ; 0x8295 <__heap_start+0x5>
    1715: 8e 92 82     	stx	$8292                   ; 0x8292 <__heap_start+0x2>
    1718: 8d 93 82     	sta	$8293                   ; 0x8293 <__heap_start+0x3>
    171b: 86 6a        	stx	$6a                     ; 0x6a <_ZN12_GLOBAL__N_19free_listE>
    171d: 85 6b        	sta	$6b                     ; 0x6b <_ZN12_GLOBAL__N_19free_listE+0x1>
    171f: 4c 93 17     	jmp	$1793 <main+0x1208>
    1722: a5 2d        	lda	$2d                     ; 0x2d <__rc29>
    1724: a0 0e        	ldy	#$e
    1726: 91 10        	sta	($10),y                 ; 0x10 <__rc0>
    1728: a5 16        	lda	$16                     ; 0x16 <__rc6>
    172a: 8d 92 82     	sta	$8292                   ; 0x8292 <__heap_start+0x2>
    172d: a6 17        	ldx	$17                     ; 0x17 <__rc7>
    172f: 8e 93 82     	stx	$8293                   ; 0x8293 <__heap_start+0x3>
    1732: a0 04        	ldy	#$4
    1734: 18           	clc
    1735: 69 04        	adc	#$4
    1737: 85 14        	sta	$14                     ; 0x14 <__rc4>
    1739: a5 17        	lda	$17                     ; 0x17 <__rc7>
    173b: 69 00        	adc	#$0
    173d: 85 15        	sta	$15                     ; 0x15 <__rc5>
    173f: b1 12        	lda	($12),y                 ; 0x12 <__rc2>
    1741: 85 16        	sta	$16                     ; 0x16 <__rc6>
    1743: a2 04        	ldx	#$4
    1745: 86 1a        	stx	$1a                     ; 0x1a <__rc10>
    1747: a0 01        	ldy	#$1
    1749: b1 14        	lda	($14),y                 ; 0x14 <__rc4>
    174b: aa           	tax
    174c: 84 1b        	sty	$1b                     ; 0x1b <__rc11>
    174e: a5 16        	lda	$16                     ; 0x16 <__rc6>
    1750: 85 14        	sta	$14                     ; 0x14 <__rc4>
    1752: 86 15        	stx	$15                     ; 0x15 <__rc5>
    1754: 8d 94 82     	sta	$8294                   ; 0x8294 <__heap_start+0x4>
    1757: 8e 95 82     	stx	$8295                   ; 0x8295 <__heap_start+0x5>
    175a: 18           	clc
    175b: 69 02        	adc	#$2
    175d: 85 16        	sta	$16                     ; 0x16 <__rc6>
    175f: 8a           	txa
    1760: 69 00        	adc	#$0
    1762: 85 17        	sta	$17                     ; 0x17 <__rc7>
    1764: a9 90        	lda	#$90
    1766: c8           	iny
    1767: 91 14        	sta	($14),y                 ; 0x14 <__rc4>
    1769: a9 82        	lda	#$82
    176b: a4 1b        	ldy	$1b                     ; 0x1b <__rc11>
    176d: 91 16        	sta	($16),y                 ; 0x16 <__rc6>
    176f: ae 92 82     	ldx	$8292                   ; 0x8292 <__heap_start+0x2>
    1772: ac 93 82     	ldy	$8293                   ; 0x8293 <__heap_start+0x3>
    1775: 86 14        	stx	$14                     ; 0x14 <__rc4>
    1777: 84 15        	sty	$15                     ; 0x15 <__rc5>
    1779: 84 17        	sty	$17                     ; 0x17 <__rc7>
    177b: a4 1a        	ldy	$1a                     ; 0x1a <__rc10>
    177d: a9 90        	lda	#$90
    177f: 91 14        	sta	($14),y                 ; 0x14 <__rc4>
    1781: 18           	clc
    1782: 8a           	txa
    1783: 69 04        	adc	#$4
    1785: 85 14        	sta	$14                     ; 0x14 <__rc4>
    1787: a5 17        	lda	$17                     ; 0x17 <__rc7>
    1789: 69 00        	adc	#$0
    178b: 85 15        	sta	$15                     ; 0x15 <__rc5>
    178d: a9 82        	lda	#$82
    178f: a4 1b        	ldy	$1b                     ; 0x1b <__rc11>
    1791: 91 14        	sta	($14),y                 ; 0x14 <__rc4>
    1793: a4 18        	ldy	$18                     ; 0x18 <__rc8>
    1795: 8c 90 82     	sty	$8290                   ; 0x8290 <__heap_start>
    1798: a6 19        	ldx	$19                     ; 0x19 <__rc9>
    179a: 8e 91 82     	stx	$8291                   ; 0x8291 <__heap_start+0x1>
    179d: a2 01        	ldx	#$1
    179f: 86 67        	stx	$67                     ; 0x67 <_ZN12_GLOBAL__N_19last_freeE>
    17a1: 86 66        	stx	$66                     ; 0x66 <_ZN12_GLOBAL__N_111initializedE>
    17a3: a0 01        	ldy	#$1
    17a5: a6 12        	ldx	$12                     ; 0x12 <__rc2>
    17a7: 86 2c        	stx	$2c                     ; 0x2c <__rc28>
    17a9: a6 13        	ldx	$13                     ; 0x13 <__rc3>
    17ab: 86 2d        	stx	$2d                     ; 0x2d <__rc29>
    17ad: 80 1d        	bra	$17cc <main+0x1241>
    17af: c9 00        	cmp	#$0
    17b1: 8a           	txa
    17b2: b0 26        	bcs	$17da <main+0x124f>
    17b4: a5 2c        	lda	$2c                     ; 0x2c <__rc28>
    17b6: 18           	clc
    17b7: 69 02        	adc	#$2
    17b9: 85 14        	sta	$14                     ; 0x14 <__rc4>
    17bb: a5 2d        	lda	$2d                     ; 0x2d <__rc29>
    17bd: 69 00        	adc	#$0
    17bf: 85 15        	sta	$15                     ; 0x15 <__rc5>
    17c1: a0 02        	ldy	#$2
    17c3: b1 2c        	lda	($2c),y                 ; 0x2c <__rc28>
    17c5: 85 2c        	sta	$2c                     ; 0x2c <__rc28>
    17c7: 88           	dey
    17c8: b1 14        	lda	($14),y                 ; 0x14 <__rc4>
    17ca: 85 2d        	sta	$2d                     ; 0x2d <__rc29>
    17cc: b2 2c        	lda	($2c)                   ; 0x2c <__rc28>
    17ce: aa           	tax
    17cf: b1 2c        	lda	($2c),y                 ; 0x2c <__rc28>
    17d1: 85 14        	sta	$14                     ; 0x14 <__rc4>
    17d3: d0 da        	bne	$17af <main+0x1224>
    17d5: 8a           	txa
    17d6: e0 08        	cpx	#$8
    17d8: 90 da        	bcc	$17b4 <main+0x1229>
    17da: 29 fe        	and	#$fe
    17dc: 85 15        	sta	$15                     ; 0x15 <__rc5>
    17de: a5 68        	lda	$68                     ; 0x68 <_ZN12_GLOBAL__N_19free_sizeE>
    17e0: a6 69        	ldx	$69                     ; 0x69 <_ZN12_GLOBAL__N_19free_sizeE+0x1>
    17e2: 86 16        	stx	$16                     ; 0x16 <__rc6>
    17e4: 38           	sec
    17e5: e5 15        	sbc	$15                     ; 0x15 <__rc5>
    17e7: aa           	tax
    17e8: a5 16        	lda	$16                     ; 0x16 <__rc6>
    17ea: e5 14        	sbc	$14                     ; 0x14 <__rc4>
    17ec: 85 14        	sta	$14                     ; 0x14 <__rc4>
    17ee: 18           	clc
    17ef: 8a           	txa
    17f0: 69 02        	adc	#$2
    17f2: 85 15        	sta	$15                     ; 0x15 <__rc5>
    17f4: a5 14        	lda	$14                     ; 0x14 <__rc4>
    17f6: 69 00        	adc	#$0
    17f8: a6 15        	ldx	$15                     ; 0x15 <__rc5>
    17fa: 86 68        	stx	$68                     ; 0x68 <_ZN12_GLOBAL__N_19free_sizeE>
    17fc: 85 69        	sta	$69                     ; 0x69 <_ZN12_GLOBAL__N_19free_sizeE+0x1>
    17fe: a0 02        	ldy	#$2
    1800: a5 2c        	lda	$2c                     ; 0x2c <__rc28>
    1802: 18           	clc
    1803: 69 02        	adc	#$2
    1805: 85 24        	sta	$24                     ; 0x24 <__rc20>
    1807: a5 2d        	lda	$2d                     ; 0x2d <__rc29>
    1809: 69 00        	adc	#$0
    180b: 85 25        	sta	$25                     ; 0x25 <__rc21>
    180d: b1 2c        	lda	($2c),y                 ; 0x2c <__rc28>
    180f: aa           	tax
    1810: 88           	dey
    1811: b1 24        	lda	($24),y                 ; 0x24 <__rc20>
    1813: 85 19        	sta	$19                     ; 0x19 <__rc9>
    1815: c5 2d        	cmp	$2d                     ; 0x2d <__rc29>
    1817: d0 0f        	bne	$1828 <main+0x129d>
    1819: e4 2c        	cpx	$2c                     ; 0x2c <__rc28>
    181b: d0 0b        	bne	$1828 <main+0x129d>
    181d: a2 00        	ldx	#$0
    181f: 86 14        	stx	$14                     ; 0x14 <__rc4>
    1821: a2 00        	ldx	#$0
    1823: 86 15        	stx	$15                     ; 0x15 <__rc5>
    1825: 4c ae 18     	jmp	$18ae <main+0x1323>
    1828: 86 18        	stx	$18                     ; 0x18 <__rc8>
    182a: 18           	clc
    182b: a5 2c        	lda	$2c                     ; 0x2c <__rc28>
    182d: 69 04        	adc	#$4
    182f: 85 14        	sta	$14                     ; 0x14 <__rc4>
    1831: a5 2d        	lda	$2d                     ; 0x2d <__rc29>
    1833: 69 00        	adc	#$0
    1835: a0 04        	ldy	#$4
    1837: 85 15        	sta	$15                     ; 0x15 <__rc5>
    1839: b1 2c        	lda	($2c),y                 ; 0x2c <__rc28>
    183b: 85 1d        	sta	$1d                     ; 0x1d <__rc13>
    183d: a2 04        	ldx	#$4
    183f: 86 1a        	stx	$1a                     ; 0x1a <__rc10>
    1841: 18           	clc
    1842: 69 02        	adc	#$2
    1844: 85 16        	sta	$16                     ; 0x16 <__rc6>
    1846: a0 01        	ldy	#$1
    1848: b1 14        	lda	($14),y                 ; 0x14 <__rc4>
    184a: aa           	tax
    184b: 84 1e        	sty	$1e                     ; 0x1e <__rc14>
    184d: 69 00        	adc	#$0
    184f: a4 16        	ldy	$16                     ; 0x16 <__rc6>
    1851: 84 14        	sty	$14                     ; 0x14 <__rc4>
    1853: 85 15        	sta	$15                     ; 0x15 <__rc5>
    1855: a4 1d        	ldy	$1d                     ; 0x1d <__rc13>
    1857: 84 16        	sty	$16                     ; 0x16 <__rc6>
    1859: 86 17        	stx	$17                     ; 0x17 <__rc7>
    185b: a5 18        	lda	$18                     ; 0x18 <__rc8>
    185d: a0 02        	ldy	#$2
    185f: 91 16        	sta	($16),y                 ; 0x16 <__rc6>
    1861: 84 16        	sty	$16                     ; 0x16 <__rc6>
    1863: a5 19        	lda	$19                     ; 0x19 <__rc9>
    1865: a4 1e        	ldy	$1e                     ; 0x1e <__rc14>
    1867: 91 14        	sta	($14),y                 ; 0x14 <__rc4>
    1869: 18           	clc
    186a: a5 2c        	lda	$2c                     ; 0x2c <__rc28>
    186c: 69 02        	adc	#$2
    186e: 85 14        	sta	$14                     ; 0x14 <__rc4>
    1870: a5 2d        	lda	$2d                     ; 0x2d <__rc29>
    1872: 69 00        	adc	#$0
    1874: 85 15        	sta	$15                     ; 0x15 <__rc5>
    1876: a4 16        	ldy	$16                     ; 0x16 <__rc6>
    1878: b1 2c        	lda	($2c),y                 ; 0x2c <__rc28>
    187a: 85 16        	sta	$16                     ; 0x16 <__rc6>
    187c: a4 1e        	ldy	$1e                     ; 0x1e <__rc14>
    187e: b1 14        	lda	($14),y                 ; 0x14 <__rc4>
    1880: 84 18        	sty	$18                     ; 0x18 <__rc8>
    1882: a4 16        	ldy	$16                     ; 0x16 <__rc6>
    1884: 84 14        	sty	$14                     ; 0x14 <__rc4>
    1886: 85 15        	sta	$15                     ; 0x15 <__rc5>
    1888: 85 17        	sta	$17                     ; 0x17 <__rc7>
    188a: a4 1a        	ldy	$1a                     ; 0x1a <__rc10>
    188c: a5 1d        	lda	$1d                     ; 0x1d <__rc13>
    188e: 91 14        	sta	($14),y                 ; 0x14 <__rc4>
    1890: 18           	clc
    1891: a5 16        	lda	$16                     ; 0x16 <__rc6>
    1893: 69 04        	adc	#$4
    1895: 85 16        	sta	$16                     ; 0x16 <__rc6>
    1897: a5 17        	lda	$17                     ; 0x17 <__rc7>
    1899: 69 00        	adc	#$0
    189b: 85 17        	sta	$17                     ; 0x17 <__rc7>
    189d: 8a           	txa
    189e: a4 18        	ldy	$18                     ; 0x18 <__rc8>
    18a0: 91 16        	sta	($16),y                 ; 0x16 <__rc6>
    18a2: a6 13        	ldx	$13                     ; 0x13 <__rc3>
    18a4: e4 2d        	cpx	$2d                     ; 0x2d <__rc29>
    18a6: d0 0e        	bne	$18b6 <main+0x132b>
    18a8: a6 12        	ldx	$12                     ; 0x12 <__rc2>
    18aa: e4 2c        	cpx	$2c                     ; 0x2c <__rc28>
    18ac: d0 08        	bne	$18b6 <main+0x132b>
    18ae: a6 14        	ldx	$14                     ; 0x14 <__rc4>
    18b0: a4 15        	ldy	$15                     ; 0x15 <__rc5>
    18b2: 86 6a        	stx	$6a                     ; 0x6a <_ZN12_GLOBAL__N_19free_listE>
    18b4: 84 6b        	sty	$6b                     ; 0x6b <_ZN12_GLOBAL__N_19free_listE+0x1>
    18b6: a0 01        	ldy	#$1
    18b8: b1 2c        	lda	($2c),y                 ; 0x2c <__rc28>
    18ba: 85 12        	sta	$12                     ; 0x12 <__rc2>
    18bc: a9 fe        	lda	#$fe
    18be: 32 2c        	and	($2c)                   ; 0x2c <__rc28>
    18c0: 18           	clc
    18c1: aa           	tax
    18c2: 69 f8        	adc	#$f8
    18c4: a8           	tay
    18c5: a5 12        	lda	$12                     ; 0x12 <__rc2>
    18c7: 69 ff        	adc	#$ff
    18c9: f0 03        	beq	$18ce <main+0x1343>
    18cb: 4c 36 19     	jmp	$1936 <main+0x13ab>
    18ce: 85 14        	sta	$14                     ; 0x14 <__rc4>
    18d0: c0 08        	cpy	#$8
    18d2: 90 24        	bcc	$18f8 <main+0x136d>
    18d4: a5 2c        	lda	$2c                     ; 0x2c <__rc28>
    18d6: 18           	clc
    18d7: 69 08        	adc	#$8
    18d9: 85 12        	sta	$12                     ; 0x12 <__rc2>
    18db: a5 2d        	lda	$2d                     ; 0x2d <__rc29>
    18dd: 69 00        	adc	#$0
    18df: 85 13        	sta	$13                     ; 0x13 <__rc3>
    18e1: a6 14        	ldx	$14                     ; 0x14 <__rc4>
    18e3: 98           	tya
    18e4: 20 1a 03     	jsr	$31a <_ZN12_GLOBAL__N_19FreeChunk6insertEPvj>
    18e7: a0 01        	ldy	#$1
    18e9: 98           	tya
    18ea: 32 2c        	and	($2c)                   ; 0x2c <__rc28>
    18ec: 09 08        	ora	#$8
    18ee: 92 2c        	sta	($2c)                   ; 0x2c <__rc28>
    18f0: a2 08        	ldx	#$8
    18f2: 64 12        	stz	$12                     ; 0x12 <__rc2>
    18f4: a9 00        	lda	#$0
    18f6: 91 2c        	sta	($2c),y                 ; 0x2c <__rc28>
    18f8: 18           	clc
    18f9: 8a           	txa
    18fa: 65 2c        	adc	$2c                     ; 0x2c <__rc28>
    18fc: aa           	tax
    18fd: a5 12        	lda	$12                     ; 0x12 <__rc2>
    18ff: 65 2d        	adc	$2d                     ; 0x2d <__rc29>
    1901: 85 13        	sta	$13                     ; 0x13 <__rc3>
    1903: c5 29        	cmp	$29                     ; 0x29 <__rc25>
    1905: d0 0e        	bne	$1915 <main+0x138a>
    1907: a0 0e        	ldy	#$e
    1909: b1 10        	lda	($10),y                 ; 0x10 <__rc0>
    190b: 85 12        	sta	$12                     ; 0x12 <__rc2>
    190d: e4 12        	cpx	$12                     ; 0x12 <__rc2>
    190f: d0 04        	bne	$1915 <main+0x138a>
    1911: 64 67        	stz	$67                     ; 0x67 <_ZN12_GLOBAL__N_19last_freeE>
    1913: 80 12        	bra	$1927 <main+0x139c>
    1915: 86 12        	stx	$12                     ; 0x12 <__rc2>
    1917: a0 01        	ldy	#$1
    1919: b1 12        	lda	($12),y                 ; 0x12 <__rc2>
    191b: 85 14        	sta	$14                     ; 0x14 <__rc4>
    191d: a9 fe        	lda	#$fe
    191f: 32 12        	and	($12)                   ; 0x12 <__rc2>
    1921: 92 12        	sta	($12)                   ; 0x12 <__rc2>
    1923: a5 14        	lda	$14                     ; 0x14 <__rc4>
    1925: 91 12        	sta	($12),y                 ; 0x12 <__rc2>
    1927: a0 02        	ldy	#$2
    1929: a5 28        	lda	$28                     ; 0x28 <__rc24>
    192b: 91 2c        	sta	($2c),y                 ; 0x2c <__rc28>
    192d: a0 0e        	ldy	#$e
    192f: b1 10        	lda	($10),y                 ; 0x10 <__rc0>
    1931: 85 2d        	sta	$2d                     ; 0x2d <__rc29>
    1933: 4c 4c 0d     	jmp	$d4c <main+0x7c1>
    1936: 85 14        	sta	$14                     ; 0x14 <__rc4>
    1938: c9 00        	cmp	#$0
    193a: 90 bc        	bcc	$18f8 <main+0x136d>
    193c: 4c d4 18     	jmp	$18d4 <main+0x1349>
    193f: a6 42        	ldx	$42                     ; 0x42 <catSelected>
    1941: a9 00        	lda	#$0
    1943: 84 24        	sty	$24                     ; 0x24 <__rc20>
    1945: 20 4c 32     	jsr	$324c <goUpOrDown>
    1948: a4 24        	ldy	$24                     ; 0x24 <__rc20>
    194a: a6 62        	ldx	$62                     ; 0x62 <kernelEventData+0x4>
    194c: e0 b6        	cpx	#$b6
    194e: f0 03        	beq	$1953 <main+0x13c8>
    1950: 4c de 28     	jmp	$28de <main+0x2353>
    1953: a6 42        	ldx	$42                     ; 0x42 <catSelected>
    1955: a5 2e        	lda	$2e                     ; 0x2e <__rc30>
    1957: 84 24        	sty	$24                     ; 0x24 <__rc20>
    1959: 20 4c 32     	jsr	$324c <goUpOrDown>
    195c: a4 24        	ldy	$24                     ; 0x24 <__rc20>
    195e: a6 62        	ldx	$62                     ; 0x62 <kernelEventData+0x4>
    1960: e0 b8        	cpx	#$b8
    1962: f0 03        	beq	$1967 <main+0x13dc>
    1964: 4c e5 28     	jmp	$28e5 <main+0x235a>
    1967: a5 2e        	lda	$2e                     ; 0x2e <__rc30>
    1969: 84 24        	sty	$24                     ; 0x24 <__rc20>
    196b: 20 2d 2e     	jsr	$2e2d <goLeftOrRight>
    196e: a4 24        	ldy	$24                     ; 0x24 <__rc20>
    1970: a6 62        	ldx	$62                     ; 0x62 <kernelEventData+0x4>
    1972: e0 b9        	cpx	#$b9
    1974: f0 03        	beq	$1979 <main+0x13ee>
    1976: 4c ec 28     	jmp	$28ec <main+0x2361>
    1979: a9 00        	lda	#$0
    197b: 84 24        	sty	$24                     ; 0x24 <__rc20>
    197d: 20 2d 2e     	jsr	$2e2d <goLeftOrRight>
    1980: a4 24        	ldy	$24                     ; 0x24 <__rc20>
    1982: a6 62        	ldx	$62                     ; 0x62 <kernelEventData+0x4>
    1984: e0 62        	cpx	#$62
    1986: f0 03        	beq	$198b <main+0x1400>
    1988: 4c f3 28     	jmp	$28f3 <main+0x2368>
    198b: a2 be        	ldx	#$be
    198d: 86 fb        	stx	$fb                     ; 0xfb <__zp_bss_size+0xc0>
    198f: a2 6c        	ldx	#$6c
    1991: 86 fc        	stx	$fc                     ; 0xfc <__zp_bss_size+0xc1>
    1993: a2 0b        	ldx	#$b
    1995: 86 fd        	stx	$fd                     ; 0xfd <__zp_bss_size+0xc2>
    1997: a6 01        	ldx	$1                      ; 0x1 <__zp_data_size>
    1999: 86 16        	stx	$16                     ; 0x16 <__rc6>
    199b: a2 50        	ldx	#$50
    199d: 8e 00 de     	stx	$de00                   ; 0xde00 <__heap_start+0x5b70>
    19a0: 9c 01 de     	stz	$de01                   ; 0xde01 <__heap_start+0x5b71>
    19a3: a2 1e        	ldx	#$1e
    19a5: 8e 02 de     	stx	$de02                   ; 0xde02 <__heap_start+0x5b72>
    19a8: 9c 03 de     	stz	$de03                   ; 0xde03 <__heap_start+0x5b73>
    19ab: ae 10 de     	ldx	$de10                   ; 0xde10 <__heap_start+0x5b80>
    19ae: 86 12        	stx	$12                     ; 0x12 <__rc2>
    19b0: ac 11 de     	ldy	$de11                   ; 0xde11 <__heap_start+0x5b81>
    19b3: ad 12 de     	lda	$de12                   ; 0xde12 <__heap_start+0x5b82>
    19b6: ad 13 de     	lda	$de13                   ; 0xde13 <__heap_start+0x5b83>
    19b9: a2 02        	ldx	#$2
    19bb: 86 01        	stx	$1                      ; 0x1 <__zp_data_size>
    19bd: a6 12        	ldx	$12                     ; 0x12 <__rc2>
    19bf: 86 17        	stx	$17                     ; 0x17 <__rc7>
    19c1: e0 01        	cpx	#$1
    19c3: 98           	tya
    19c4: e9 00        	sbc	#$0
    19c6: 50 02        	bvc	$19ca <main+0x143f>
    19c8: 49 80        	eor	#$80
    19ca: c9 00        	cmp	#$0
    19cc: 10 03        	bpl	$19d1 <main+0x1446>
    19ce: 4c e1 1a     	jmp	$1ae1 <main+0x1556>
    19d1: 86 13        	stx	$13                     ; 0x13 <__rc3>
    19d3: 84 12        	sty	$12                     ; 0x12 <__rc2>
    19d5: a6 26        	ldx	$26                     ; 0x26 <__rc22>
    19d7: 86 14        	stx	$14                     ; 0x14 <__rc4>
    19d9: a6 27        	ldx	$27                     ; 0x27 <__rc23>
    19db: 86 15        	stx	$15                     ; 0x15 <__rc5>
    19dd: a5 2f        	lda	$2f                     ; 0x2f <__rc31>
    19df: 80 04        	bra	$19e5 <main+0x145a>
    19e1: a6 12        	ldx	$12                     ; 0x12 <__rc2>
    19e3: f0 14        	beq	$19f9 <main+0x146e>
    19e5: 92 14        	sta	($14)                   ; 0x14 <__rc4>
    19e7: e6 14        	inc	$14                     ; 0x14 <__rc4>
    19e9: d0 02        	bne	$19ed <main+0x1462>
    19eb: e6 15        	inc	$15                     ; 0x15 <__rc5>
    19ed: a2 ff        	ldx	#$ff
    19ef: c6 13        	dec	$13                     ; 0x13 <__rc3>
    19f1: e4 13        	cpx	$13                     ; 0x13 <__rc3>
    19f3: d0 ec        	bne	$19e1 <main+0x1456>
    19f5: c6 12        	dec	$12                     ; 0x12 <__rc2>
    19f7: 80 e8        	bra	$19e1 <main+0x1456>
    19f9: a6 13        	ldx	$13                     ; 0x13 <__rc3>
    19fb: d0 e8        	bne	$19e5 <main+0x145a>
    19fd: a2 20        	ldx	#$20
    19ff: 86 2f        	stx	$2f                     ; 0x2f <__rc31>
    1a01: a2 03        	ldx	#$3
    1a03: 86 01        	stx	$1                      ; 0x1 <__zp_data_size>
    1a05: a6 30        	ldx	$30                     ; 0x30 <_ccolor>
    1a07: 86 14        	stx	$14                     ; 0x14 <__rc4>
    1a09: a6 17        	ldx	$17                     ; 0x17 <__rc7>
    1a0b: a5 26        	lda	$26                     ; 0x26 <__rc22>
    1a0d: 85 12        	sta	$12                     ; 0x12 <__rc2>
    1a0f: a5 27        	lda	$27                     ; 0x27 <__rc23>
    1a11: 85 13        	sta	$13                     ; 0x13 <__rc3>
    1a13: 80 03        	bra	$1a18 <main+0x148d>
    1a15: 98           	tya
    1a16: f0 19        	beq	$1a31 <main+0x14a6>
    1a18: a5 14        	lda	$14                     ; 0x14 <__rc4>
    1a1a: 92 12        	sta	($12)                   ; 0x12 <__rc2>
    1a1c: e6 12        	inc	$12                     ; 0x12 <__rc2>
    1a1e: f0 07        	beq	$1a27 <main+0x149c>
    1a20: ca           	dex
    1a21: e0 ff        	cpx	#$ff
    1a23: d0 f0        	bne	$1a15 <main+0x148a>
    1a25: 80 07        	bra	$1a2e <main+0x14a3>
    1a27: e6 13        	inc	$13                     ; 0x13 <__rc3>
    1a29: ca           	dex
    1a2a: e0 ff        	cpx	#$ff
    1a2c: d0 e7        	bne	$1a15 <main+0x148a>
    1a2e: 88           	dey
    1a2f: 80 e4        	bra	$1a15 <main+0x148a>
    1a31: 8a           	txa
    1a32: d0 e4        	bne	$1a18 <main+0x148d>
    1a34: 4c e5 1a     	jmp	$1ae5 <main+0x155a>
    1a37: a2 c7        	ldx	#$c7
    1a39: 86 fb        	stx	$fb                     ; 0xfb <__zp_bss_size+0xc0>
    1a3b: a2 6c        	ldx	#$6c
    1a3d: 86 fc        	stx	$fc                     ; 0xfc <__zp_bss_size+0xc1>
    1a3f: 84 fd        	sty	$fd                     ; 0xfd <__zp_bss_size+0xc2>
    1a41: a6 01        	ldx	$1                      ; 0x1 <__zp_data_size>
    1a43: 86 16        	stx	$16                     ; 0x16 <__rc6>
    1a45: a2 50        	ldx	#$50
    1a47: 8e 00 de     	stx	$de00                   ; 0xde00 <__heap_start+0x5b70>
    1a4a: 9c 01 de     	stz	$de01                   ; 0xde01 <__heap_start+0x5b71>
    1a4d: a2 1e        	ldx	#$1e
    1a4f: 8e 02 de     	stx	$de02                   ; 0xde02 <__heap_start+0x5b72>
    1a52: 9c 03 de     	stz	$de03                   ; 0xde03 <__heap_start+0x5b73>
    1a55: ae 10 de     	ldx	$de10                   ; 0xde10 <__heap_start+0x5b80>
    1a58: 86 12        	stx	$12                     ; 0x12 <__rc2>
    1a5a: ac 11 de     	ldy	$de11                   ; 0xde11 <__heap_start+0x5b81>
    1a5d: ad 12 de     	lda	$de12                   ; 0xde12 <__heap_start+0x5b82>
    1a60: ad 13 de     	lda	$de13                   ; 0xde13 <__heap_start+0x5b83>
    1a63: a2 02        	ldx	#$2
    1a65: 86 01        	stx	$1                      ; 0x1 <__zp_data_size>
    1a67: a6 12        	ldx	$12                     ; 0x12 <__rc2>
    1a69: 86 17        	stx	$17                     ; 0x17 <__rc7>
    1a6b: e0 01        	cpx	#$1
    1a6d: 98           	tya
    1a6e: e9 00        	sbc	#$0
    1a70: 50 02        	bvc	$1a74 <main+0x14e9>
    1a72: 49 80        	eor	#$80
    1a74: c9 00        	cmp	#$0
    1a76: 10 03        	bpl	$1a7b <main+0x14f0>
    1a78: 4c bf 1c     	jmp	$1cbf <main+0x1734>
    1a7b: 86 13        	stx	$13                     ; 0x13 <__rc3>
    1a7d: 84 12        	sty	$12                     ; 0x12 <__rc2>
    1a7f: a6 26        	ldx	$26                     ; 0x26 <__rc22>
    1a81: 86 14        	stx	$14                     ; 0x14 <__rc4>
    1a83: a6 27        	ldx	$27                     ; 0x27 <__rc23>
    1a85: 86 15        	stx	$15                     ; 0x15 <__rc5>
    1a87: a5 2f        	lda	$2f                     ; 0x2f <__rc31>
    1a89: 80 04        	bra	$1a8f <main+0x1504>
    1a8b: a6 12        	ldx	$12                     ; 0x12 <__rc2>
    1a8d: f0 14        	beq	$1aa3 <main+0x1518>
    1a8f: 92 14        	sta	($14)                   ; 0x14 <__rc4>
    1a91: e6 14        	inc	$14                     ; 0x14 <__rc4>
    1a93: d0 02        	bne	$1a97 <main+0x150c>
    1a95: e6 15        	inc	$15                     ; 0x15 <__rc5>
    1a97: a2 ff        	ldx	#$ff
    1a99: c6 13        	dec	$13                     ; 0x13 <__rc3>
    1a9b: e4 13        	cpx	$13                     ; 0x13 <__rc3>
    1a9d: d0 ec        	bne	$1a8b <main+0x1500>
    1a9f: c6 12        	dec	$12                     ; 0x12 <__rc2>
    1aa1: 80 e8        	bra	$1a8b <main+0x1500>
    1aa3: a6 13        	ldx	$13                     ; 0x13 <__rc3>
    1aa5: d0 e8        	bne	$1a8f <main+0x1504>
    1aa7: a2 20        	ldx	#$20
    1aa9: 86 2f        	stx	$2f                     ; 0x2f <__rc31>
    1aab: a2 03        	ldx	#$3
    1aad: 86 01        	stx	$1                      ; 0x1 <__zp_data_size>
    1aaf: a6 30        	ldx	$30                     ; 0x30 <_ccolor>
    1ab1: 86 14        	stx	$14                     ; 0x14 <__rc4>
    1ab3: a6 17        	ldx	$17                     ; 0x17 <__rc7>
    1ab5: a5 26        	lda	$26                     ; 0x26 <__rc22>
    1ab7: 85 12        	sta	$12                     ; 0x12 <__rc2>
    1ab9: a5 27        	lda	$27                     ; 0x27 <__rc23>
    1abb: 85 13        	sta	$13                     ; 0x13 <__rc3>
    1abd: 80 03        	bra	$1ac2 <main+0x1537>
    1abf: 98           	tya
    1ac0: f0 19        	beq	$1adb <main+0x1550>
    1ac2: a5 14        	lda	$14                     ; 0x14 <__rc4>
    1ac4: 92 12        	sta	($12)                   ; 0x12 <__rc2>
    1ac6: e6 12        	inc	$12                     ; 0x12 <__rc2>
    1ac8: f0 07        	beq	$1ad1 <main+0x1546>
    1aca: ca           	dex
    1acb: e0 ff        	cpx	#$ff
    1acd: d0 f0        	bne	$1abf <main+0x1534>
    1acf: 80 07        	bra	$1ad8 <main+0x154d>
    1ad1: e6 13        	inc	$13                     ; 0x13 <__rc3>
    1ad3: ca           	dex
    1ad4: e0 ff        	cpx	#$ff
    1ad6: d0 e7        	bne	$1abf <main+0x1534>
    1ad8: 88           	dey
    1ad9: 80 e4        	bra	$1abf <main+0x1534>
    1adb: 8a           	txa
    1adc: d0 e4        	bne	$1ac2 <main+0x1537>
    1ade: 4c c3 1c     	jmp	$1cc3 <main+0x1738>
    1ae1: a2 03        	ldx	#$3
    1ae3: 86 01        	stx	$1                      ; 0x1 <__zp_data_size>
    1ae5: a6 16        	ldx	$16                     ; 0x16 <__rc6>
    1ae7: 86 01        	stx	$1                      ; 0x1 <__zp_data_size>
    1ae9: 64 12        	stz	$12                     ; 0x12 <__rc2>
    1aeb: 64 31        	stz	$31                     ; 0x31 <_col>
    1aed: 9c 14 d0     	stz	$d014                   ; 0xd014 <__heap_start+0x4d84>
    1af0: 9c 15 d0     	stz	$d015                   ; 0xd015 <__heap_start+0x4d85>
    1af3: 64 32        	stz	$32                     ; 0x32 <_row>
    1af5: 9c 16 d0     	stz	$d016                   ; 0xd016 <__heap_start+0x4d86>
    1af8: 9c 17 d0     	stz	$d017                   ; 0xd017 <__heap_start+0x4d87>
    1afb: a2 0f        	ldx	#$f
    1afd: 8e 00 d0     	stx	$d000                   ; 0xd000 <__heap_start+0x4d70>
    1b00: 9c 01 d0     	stz	$d001                   ; 0xd001 <__heap_start+0x4d71>
    1b03: a0 d9        	ldy	#$d9
    1b05: a2 40        	ldx	#$40
    1b07: 84 13        	sty	$13                     ; 0x13 <__rc3>
    1b09: a9 00        	lda	#$0
    1b0b: 92 12        	sta	($12)                   ; 0x12 <__rc2>
    1b0d: ca           	dex
    1b0e: 18           	clc
    1b0f: a5 12        	lda	$12                     ; 0x12 <__rc2>
    1b11: 69 08        	adc	#$8
    1b13: 85 12        	sta	$12                     ; 0x12 <__rc2>
    1b15: 98           	tya
    1b16: 69 00        	adc	#$0
    1b18: a8           	tay
    1b19: 8a           	txa
    1b1a: d0 eb        	bne	$1b07 <main+0x157c>
    1b1c: 9c 00 d1     	stz	$d100                   ; 0xd100 <__heap_start+0x4e70>
    1b1f: 9c 08 d1     	stz	$d108                   ; 0xd108 <__heap_start+0x4e78>
    1b22: 9c 10 d1     	stz	$d110                   ; 0xd110 <__heap_start+0x4e80>
    1b25: ad 01 d0     	lda	$d001                   ; 0xd001 <__heap_start+0x4d71>
    1b28: 29 ef        	and	#$ef
    1b2a: 8d 01 d0     	sta	$d001                   ; 0xd001 <__heap_start+0x4d71>
    1b2d: a2 b0        	ldx	#$b0
    1b2f: 8e a1 dd     	stx	$dda1                   ; 0xdda1 <__heap_start+0x5b11>
    1b32: a0 7b        	ldy	#$7b
    1b34: 8c a1 dd     	sty	$dda1                   ; 0xdda1 <__heap_start+0x5b11>
    1b37: 9c a1 dd     	stz	$dda1                   ; 0xdda1 <__heap_start+0x5b11>
    1b3a: e8           	inx
    1b3b: 8e a1 dd     	stx	$dda1                   ; 0xdda1 <__heap_start+0x5b11>
    1b3e: 8c a1 dd     	sty	$dda1                   ; 0xdda1 <__heap_start+0x5b11>
    1b41: 9c a1 dd     	stz	$dda1                   ; 0xdda1 <__heap_start+0x5b11>
    1b44: e8           	inx
    1b45: 8e a1 dd     	stx	$dda1                   ; 0xdda1 <__heap_start+0x5b11>
    1b48: 8c a1 dd     	sty	$dda1                   ; 0xdda1 <__heap_start+0x5b11>
    1b4b: 9c a1 dd     	stz	$dda1                   ; 0xdda1 <__heap_start+0x5b11>
    1b4e: e8           	inx
    1b4f: 8e a1 dd     	stx	$dda1                   ; 0xdda1 <__heap_start+0x5b11>
    1b52: 8c a1 dd     	sty	$dda1                   ; 0xdda1 <__heap_start+0x5b11>
    1b55: 9c a1 dd     	stz	$dda1                   ; 0xdda1 <__heap_start+0x5b11>
    1b58: e8           	inx
    1b59: 8e a1 dd     	stx	$dda1                   ; 0xdda1 <__heap_start+0x5b11>
    1b5c: 8c a1 dd     	sty	$dda1                   ; 0xdda1 <__heap_start+0x5b11>
    1b5f: 9c a1 dd     	stz	$dda1                   ; 0xdda1 <__heap_start+0x5b11>
    1b62: e8           	inx
    1b63: 8e a1 dd     	stx	$dda1                   ; 0xdda1 <__heap_start+0x5b11>
    1b66: 8c a1 dd     	sty	$dda1                   ; 0xdda1 <__heap_start+0x5b11>
    1b69: 9c a1 dd     	stz	$dda1                   ; 0xdda1 <__heap_start+0x5b11>
    1b6c: e8           	inx
    1b6d: 8e a1 dd     	stx	$dda1                   ; 0xdda1 <__heap_start+0x5b11>
    1b70: 8c a1 dd     	sty	$dda1                   ; 0xdda1 <__heap_start+0x5b11>
    1b73: 9c a1 dd     	stz	$dda1                   ; 0xdda1 <__heap_start+0x5b11>
    1b76: e8           	inx
    1b77: 8e a1 dd     	stx	$dda1                   ; 0xdda1 <__heap_start+0x5b11>
    1b7a: 8c a1 dd     	sty	$dda1                   ; 0xdda1 <__heap_start+0x5b11>
    1b7d: 9c a1 dd     	stz	$dda1                   ; 0xdda1 <__heap_start+0x5b11>
    1b80: e8           	inx
    1b81: 8e a1 dd     	stx	$dda1                   ; 0xdda1 <__heap_start+0x5b11>
    1b84: 8c a1 dd     	sty	$dda1                   ; 0xdda1 <__heap_start+0x5b11>
    1b87: 9c a1 dd     	stz	$dda1                   ; 0xdda1 <__heap_start+0x5b11>
    1b8a: e8           	inx
    1b8b: 8e a1 dd     	stx	$dda1                   ; 0xdda1 <__heap_start+0x5b11>
    1b8e: 8c a1 dd     	sty	$dda1                   ; 0xdda1 <__heap_start+0x5b11>
    1b91: 9c a1 dd     	stz	$dda1                   ; 0xdda1 <__heap_start+0x5b11>
    1b94: e8           	inx
    1b95: 8e a1 dd     	stx	$dda1                   ; 0xdda1 <__heap_start+0x5b11>
    1b98: 8c a1 dd     	sty	$dda1                   ; 0xdda1 <__heap_start+0x5b11>
    1b9b: 9c a1 dd     	stz	$dda1                   ; 0xdda1 <__heap_start+0x5b11>
    1b9e: e8           	inx
    1b9f: 8e a1 dd     	stx	$dda1                   ; 0xdda1 <__heap_start+0x5b11>
    1ba2: 8c a1 dd     	sty	$dda1                   ; 0xdda1 <__heap_start+0x5b11>
    1ba5: 9c a1 dd     	stz	$dda1                   ; 0xdda1 <__heap_start+0x5b11>
    1ba8: e8           	inx
    1ba9: 8e a1 dd     	stx	$dda1                   ; 0xdda1 <__heap_start+0x5b11>
    1bac: 8c a1 dd     	sty	$dda1                   ; 0xdda1 <__heap_start+0x5b11>
    1baf: 9c a1 dd     	stz	$dda1                   ; 0xdda1 <__heap_start+0x5b11>
    1bb2: e8           	inx
    1bb3: 8e a1 dd     	stx	$dda1                   ; 0xdda1 <__heap_start+0x5b11>
    1bb6: 8c a1 dd     	sty	$dda1                   ; 0xdda1 <__heap_start+0x5b11>
    1bb9: 9c a1 dd     	stz	$dda1                   ; 0xdda1 <__heap_start+0x5b11>
    1bbc: e8           	inx
    1bbd: 8e a1 dd     	stx	$dda1                   ; 0xdda1 <__heap_start+0x5b11>
    1bc0: 8c a1 dd     	sty	$dda1                   ; 0xdda1 <__heap_start+0x5b11>
    1bc3: 9c a1 dd     	stz	$dda1                   ; 0xdda1 <__heap_start+0x5b11>
    1bc6: e8           	inx
    1bc7: 8e a1 dd     	stx	$dda1                   ; 0xdda1 <__heap_start+0x5b11>
    1bca: 8c a1 dd     	sty	$dda1                   ; 0xdda1 <__heap_start+0x5b11>
    1bcd: 9c a1 dd     	stz	$dda1                   ; 0xdda1 <__heap_start+0x5b11>
    1bd0: a0 9f        	ldy	#$9f
    1bd2: 8c 00 d6     	sty	$d600                   ; 0xd600 <__heap_start+0x5370>
    1bd5: 8c 10 d6     	sty	$d610                   ; 0xd610 <__heap_start+0x5380>
    1bd8: 8e 00 d6     	stx	$d600                   ; 0xd600 <__heap_start+0x5370>
    1bdb: 8e 10 d6     	stx	$d610                   ; 0xd610 <__heap_start+0x5380>
    1bde: a2 df        	ldx	#$df
    1be0: 8e 00 d6     	stx	$d600                   ; 0xd600 <__heap_start+0x5370>
    1be3: 8e 10 d6     	stx	$d610                   ; 0xd610 <__heap_start+0x5380>
    1be6: a2 ff        	ldx	#$ff
    1be8: 8e 00 d6     	stx	$d600                   ; 0xd600 <__heap_start+0x5370>
    1beb: 8e 10 d6     	stx	$d610                   ; 0xd610 <__heap_start+0x5380>
    1bee: a2 65        	ldx	#$65
    1bf0: 86 12        	stx	$12                     ; 0x12 <__rc2>
    1bf2: a2 00        	ldx	#$0
    1bf4: 86 13        	stx	$13                     ; 0x13 <__rc3>
    1bf6: 20 18 ff     	jsr	$ff18 <__heap_start+0x7c88>
    1bf9: 92 2a        	sta	($2a)                   ; 0x2a <__rc26>
    1bfb: a9 00        	lda	#$0
    1bfd: 6a           	ror
    1bfe: 85 12        	sta	$12                     ; 0x12 <__rc2>
    1c00: a0 03        	ldy	#$3
    1c02: 4c 28 22     	jmp	$2228 <main+0x1c9d>
    1c05: ae 84 d8     	ldx	$d884                   ; 0xd884 <__heap_start+0x55f4>
    1c08: e0 fb        	cpx	#$fb
    1c0a: f0 18        	beq	$1c24 <main+0x1699>
    1c0c: ae 86 d8     	ldx	$d886                   ; 0xd886 <__heap_start+0x55f6>
    1c0f: e0 fb        	cpx	#$fb
    1c11: f0 11        	beq	$1c24 <main+0x1699>
    1c13: ae 88 d8     	ldx	$d888                   ; 0xd888 <__heap_start+0x55f8>
    1c16: e0 fb        	cpx	#$fb
    1c18: f0 0a        	beq	$1c24 <main+0x1699>
    1c1a: ae 8a d8     	ldx	$d88a                   ; 0xd88a <__heap_start+0x55fa>
    1c1d: e0 fb        	cpx	#$fb
    1c1f: f0 03        	beq	$1c24 <main+0x1699>
    1c21: 4c 53 1e     	jmp	$1e53 <main+0x18c8>
    1c24: a6 42        	ldx	$42                     ; 0x42 <catSelected>
    1c26: a9 00        	lda	#$0
    1c28: 20 4c 32     	jsr	$324c <goUpOrDown>
    1c2b: 64 43        	stz	$43                     ; 0x43 <readyForPads>
    1c2d: a2 80        	ldx	#$80
    1c2f: 86 f3        	stx	$f3                     ; 0xf3 <__zp_bss_size+0xb8>
    1c31: a2 65        	ldx	#$65
    1c33: 86 12        	stx	$12                     ; 0x12 <__rc2>
    1c35: a2 00        	ldx	#$0
    1c37: 86 13        	stx	$13                     ; 0x13 <__rc3>
    1c39: 20 f0 ff     	jsr	$fff0 <__heap_start+0x7d60>
    1c3c: 92 2a        	sta	($2a)                   ; 0x2a <__rc26>
    1c3e: a9 00        	lda	#$0
    1c40: 6a           	ror
    1c41: 85 12        	sta	$12                     ; 0x12 <__rc2>
    1c43: 18           	clc
    1c44: a9 0c        	lda	#$c
    1c46: 72 2a        	adc	($2a)                   ; 0x2a <__rc26>
    1c48: 85 45        	sta	$45                     ; 0x45 <padDelayTimer.1>
    1c4a: 64 f3        	stz	$f3                     ; 0xf3 <__zp_bss_size+0xb8>
    1c4c: a6 45        	ldx	$45                     ; 0x45 <padDelayTimer.1>
    1c4e: 86 f4        	stx	$f4                     ; 0xf4 <__zp_bss_size+0xb9>
    1c50: a0 03        	ldy	#$3
    1c52: 84 f5        	sty	$f5                     ; 0xf5 <__zp_bss_size+0xba>
    1c54: 20 f0 ff     	jsr	$fff0 <__heap_start+0x7d60>
    1c57: 92 2a        	sta	($2a)                   ; 0x2a <__rc26>
    1c59: a9 00        	lda	#$0
    1c5b: 6a           	ror
    1c5c: 85 12        	sta	$12                     ; 0x12 <__rc2>
    1c5e: 4c dc 24     	jmp	$24dc <main+0x1f51>
    1c61: ae 84 d8     	ldx	$d884                   ; 0xd884 <__heap_start+0x55f4>
    1c64: e0 fb        	cpx	#$fb
    1c66: f0 18        	beq	$1c80 <main+0x16f5>
    1c68: ae 86 d8     	ldx	$d886                   ; 0xd886 <__heap_start+0x55f6>
    1c6b: e0 fb        	cpx	#$fb
    1c6d: f0 11        	beq	$1c80 <main+0x16f5>
    1c6f: ae 88 d8     	ldx	$d888                   ; 0xd888 <__heap_start+0x55f8>
    1c72: e0 fb        	cpx	#$fb
    1c74: f0 0a        	beq	$1c80 <main+0x16f5>
    1c76: ae 8a d8     	ldx	$d88a                   ; 0xd88a <__heap_start+0x55fa>
    1c79: e0 fb        	cpx	#$fb
    1c7b: f0 03        	beq	$1c80 <main+0x16f5>
    1c7d: 4c a6 1e     	jmp	$1ea6 <main+0x191b>
    1c80: a6 42        	ldx	$42                     ; 0x42 <catSelected>
    1c82: a9 00        	lda	#$0
    1c84: 84 24        	sty	$24                     ; 0x24 <__rc20>
    1c86: 20 4c 32     	jsr	$324c <goUpOrDown>
    1c89: a4 24        	ldy	$24                     ; 0x24 <__rc20>
    1c8b: 64 43        	stz	$43                     ; 0x43 <readyForPads>
    1c8d: a2 80        	ldx	#$80
    1c8f: 86 f3        	stx	$f3                     ; 0xf3 <__zp_bss_size+0xb8>
    1c91: a2 65        	ldx	#$65
    1c93: 86 12        	stx	$12                     ; 0x12 <__rc2>
    1c95: a2 00        	ldx	#$0
    1c97: 86 13        	stx	$13                     ; 0x13 <__rc3>
    1c99: 20 f0 ff     	jsr	$fff0 <__heap_start+0x7d60>
    1c9c: 92 2a        	sta	($2a)                   ; 0x2a <__rc26>
    1c9e: a9 00        	lda	#$0
    1ca0: 6a           	ror
    1ca1: 85 12        	sta	$12                     ; 0x12 <__rc2>
    1ca3: 18           	clc
    1ca4: a9 0c        	lda	#$c
    1ca6: 72 2a        	adc	($2a)                   ; 0x2a <__rc26>
    1ca8: 85 45        	sta	$45                     ; 0x45 <padDelayTimer.1>
    1caa: 64 f3        	stz	$f3                     ; 0xf3 <__zp_bss_size+0xb8>
    1cac: a6 45        	ldx	$45                     ; 0x45 <padDelayTimer.1>
    1cae: 86 f4        	stx	$f4                     ; 0xf4 <__zp_bss_size+0xb9>
    1cb0: 84 f5        	sty	$f5                     ; 0xf5 <__zp_bss_size+0xba>
    1cb2: 20 f0 ff     	jsr	$fff0 <__heap_start+0x7d60>
    1cb5: 92 2a        	sta	($2a)                   ; 0x2a <__rc26>
    1cb7: a9 00        	lda	#$0
    1cb9: 6a           	ror
    1cba: 85 12        	sta	$12                     ; 0x12 <__rc2>
    1cbc: 4c 4a 25     	jmp	$254a <main+0x1fbf>
    1cbf: a2 03        	ldx	#$3
    1cc1: 86 01        	stx	$1                      ; 0x1 <__zp_data_size>
    1cc3: a6 16        	ldx	$16                     ; 0x16 <__rc6>
    1cc5: 86 01        	stx	$1                      ; 0x1 <__zp_data_size>
    1cc7: 64 12        	stz	$12                     ; 0x12 <__rc2>
    1cc9: 64 31        	stz	$31                     ; 0x31 <_col>
    1ccb: 9c 14 d0     	stz	$d014                   ; 0xd014 <__heap_start+0x4d84>
    1cce: 9c 15 d0     	stz	$d015                   ; 0xd015 <__heap_start+0x4d85>
    1cd1: 64 32        	stz	$32                     ; 0x32 <_row>
    1cd3: 9c 16 d0     	stz	$d016                   ; 0xd016 <__heap_start+0x4d86>
    1cd6: 9c 17 d0     	stz	$d017                   ; 0xd017 <__heap_start+0x4d87>
    1cd9: a2 0f        	ldx	#$f
    1cdb: 8e 00 d0     	stx	$d000                   ; 0xd000 <__heap_start+0x4d70>
    1cde: 9c 01 d0     	stz	$d001                   ; 0xd001 <__heap_start+0x4d71>
    1ce1: a0 d9        	ldy	#$d9
    1ce3: a2 40        	ldx	#$40
    1ce5: 84 13        	sty	$13                     ; 0x13 <__rc3>
    1ce7: a9 00        	lda	#$0
    1ce9: 92 12        	sta	($12)                   ; 0x12 <__rc2>
    1ceb: ca           	dex
    1cec: 18           	clc
    1ced: a5 12        	lda	$12                     ; 0x12 <__rc2>
    1cef: 69 08        	adc	#$8
    1cf1: 85 12        	sta	$12                     ; 0x12 <__rc2>
    1cf3: 98           	tya
    1cf4: 69 00        	adc	#$0
    1cf6: a8           	tay
    1cf7: 8a           	txa
    1cf8: d0 eb        	bne	$1ce5 <main+0x175a>
    1cfa: 9c 00 d1     	stz	$d100                   ; 0xd100 <__heap_start+0x4e70>
    1cfd: 9c 08 d1     	stz	$d108                   ; 0xd108 <__heap_start+0x4e78>
    1d00: 9c 10 d1     	stz	$d110                   ; 0xd110 <__heap_start+0x4e80>
    1d03: ad 01 d0     	lda	$d001                   ; 0xd001 <__heap_start+0x4d71>
    1d06: 29 ef        	and	#$ef
    1d08: 8d 01 d0     	sta	$d001                   ; 0xd001 <__heap_start+0x4d71>
    1d0b: a2 b0        	ldx	#$b0
    1d0d: 8e a1 dd     	stx	$dda1                   ; 0xdda1 <__heap_start+0x5b11>
    1d10: a0 7b        	ldy	#$7b
    1d12: 8c a1 dd     	sty	$dda1                   ; 0xdda1 <__heap_start+0x5b11>
    1d15: 9c a1 dd     	stz	$dda1                   ; 0xdda1 <__heap_start+0x5b11>
    1d18: e8           	inx
    1d19: 8e a1 dd     	stx	$dda1                   ; 0xdda1 <__heap_start+0x5b11>
    1d1c: 8c a1 dd     	sty	$dda1                   ; 0xdda1 <__heap_start+0x5b11>
    1d1f: 9c a1 dd     	stz	$dda1                   ; 0xdda1 <__heap_start+0x5b11>
    1d22: e8           	inx
    1d23: 8e a1 dd     	stx	$dda1                   ; 0xdda1 <__heap_start+0x5b11>
    1d26: 8c a1 dd     	sty	$dda1                   ; 0xdda1 <__heap_start+0x5b11>
    1d29: 9c a1 dd     	stz	$dda1                   ; 0xdda1 <__heap_start+0x5b11>
    1d2c: e8           	inx
    1d2d: 8e a1 dd     	stx	$dda1                   ; 0xdda1 <__heap_start+0x5b11>
    1d30: 8c a1 dd     	sty	$dda1                   ; 0xdda1 <__heap_start+0x5b11>
    1d33: 9c a1 dd     	stz	$dda1                   ; 0xdda1 <__heap_start+0x5b11>
    1d36: e8           	inx
    1d37: 8e a1 dd     	stx	$dda1                   ; 0xdda1 <__heap_start+0x5b11>
    1d3a: 8c a1 dd     	sty	$dda1                   ; 0xdda1 <__heap_start+0x5b11>
    1d3d: 9c a1 dd     	stz	$dda1                   ; 0xdda1 <__heap_start+0x5b11>
    1d40: e8           	inx
    1d41: 8e a1 dd     	stx	$dda1                   ; 0xdda1 <__heap_start+0x5b11>
    1d44: 8c a1 dd     	sty	$dda1                   ; 0xdda1 <__heap_start+0x5b11>
    1d47: 9c a1 dd     	stz	$dda1                   ; 0xdda1 <__heap_start+0x5b11>
    1d4a: e8           	inx
    1d4b: 8e a1 dd     	stx	$dda1                   ; 0xdda1 <__heap_start+0x5b11>
    1d4e: 8c a1 dd     	sty	$dda1                   ; 0xdda1 <__heap_start+0x5b11>
    1d51: 9c a1 dd     	stz	$dda1                   ; 0xdda1 <__heap_start+0x5b11>
    1d54: e8           	inx
    1d55: 8e a1 dd     	stx	$dda1                   ; 0xdda1 <__heap_start+0x5b11>
    1d58: 8c a1 dd     	sty	$dda1                   ; 0xdda1 <__heap_start+0x5b11>
    1d5b: 9c a1 dd     	stz	$dda1                   ; 0xdda1 <__heap_start+0x5b11>
    1d5e: e8           	inx
    1d5f: 8e a1 dd     	stx	$dda1                   ; 0xdda1 <__heap_start+0x5b11>
    1d62: 8c a1 dd     	sty	$dda1                   ; 0xdda1 <__heap_start+0x5b11>
    1d65: 9c a1 dd     	stz	$dda1                   ; 0xdda1 <__heap_start+0x5b11>
    1d68: e8           	inx
    1d69: 8e a1 dd     	stx	$dda1                   ; 0xdda1 <__heap_start+0x5b11>
    1d6c: 8c a1 dd     	sty	$dda1                   ; 0xdda1 <__heap_start+0x5b11>
    1d6f: 9c a1 dd     	stz	$dda1                   ; 0xdda1 <__heap_start+0x5b11>
    1d72: e8           	inx
    1d73: 8e a1 dd     	stx	$dda1                   ; 0xdda1 <__heap_start+0x5b11>
    1d76: 8c a1 dd     	sty	$dda1                   ; 0xdda1 <__heap_start+0x5b11>
    1d79: 9c a1 dd     	stz	$dda1                   ; 0xdda1 <__heap_start+0x5b11>
    1d7c: e8           	inx
    1d7d: 8e a1 dd     	stx	$dda1                   ; 0xdda1 <__heap_start+0x5b11>
    1d80: 8c a1 dd     	sty	$dda1                   ; 0xdda1 <__heap_start+0x5b11>
    1d83: 9c a1 dd     	stz	$dda1                   ; 0xdda1 <__heap_start+0x5b11>
    1d86: e8           	inx
    1d87: 8e a1 dd     	stx	$dda1                   ; 0xdda1 <__heap_start+0x5b11>
    1d8a: 8c a1 dd     	sty	$dda1                   ; 0xdda1 <__heap_start+0x5b11>
    1d8d: 9c a1 dd     	stz	$dda1                   ; 0xdda1 <__heap_start+0x5b11>
    1d90: e8           	inx
    1d91: 8e a1 dd     	stx	$dda1                   ; 0xdda1 <__heap_start+0x5b11>
    1d94: 8c a1 dd     	sty	$dda1                   ; 0xdda1 <__heap_start+0x5b11>
    1d97: 9c a1 dd     	stz	$dda1                   ; 0xdda1 <__heap_start+0x5b11>
    1d9a: e8           	inx
    1d9b: 8e a1 dd     	stx	$dda1                   ; 0xdda1 <__heap_start+0x5b11>
    1d9e: 8c a1 dd     	sty	$dda1                   ; 0xdda1 <__heap_start+0x5b11>
    1da1: 9c a1 dd     	stz	$dda1                   ; 0xdda1 <__heap_start+0x5b11>
    1da4: e8           	inx
    1da5: 8e a1 dd     	stx	$dda1                   ; 0xdda1 <__heap_start+0x5b11>
    1da8: 8c a1 dd     	sty	$dda1                   ; 0xdda1 <__heap_start+0x5b11>
    1dab: 9c a1 dd     	stz	$dda1                   ; 0xdda1 <__heap_start+0x5b11>
    1dae: a0 9f        	ldy	#$9f
    1db0: 8c 00 d6     	sty	$d600                   ; 0xd600 <__heap_start+0x5370>
    1db3: 8c 10 d6     	sty	$d610                   ; 0xd610 <__heap_start+0x5380>
    1db6: 8e 00 d6     	stx	$d600                   ; 0xd600 <__heap_start+0x5370>
    1db9: 8e 10 d6     	stx	$d610                   ; 0xd610 <__heap_start+0x5380>
    1dbc: a2 df        	ldx	#$df
    1dbe: 8e 00 d6     	stx	$d600                   ; 0xd600 <__heap_start+0x5370>
    1dc1: 8e 10 d6     	stx	$d610                   ; 0xd610 <__heap_start+0x5380>
    1dc4: a2 ff        	ldx	#$ff
    1dc6: 8e 00 d6     	stx	$d600                   ; 0xd600 <__heap_start+0x5370>
    1dc9: 8e 10 d6     	stx	$d610                   ; 0xd610 <__heap_start+0x5380>
    1dcc: a2 65        	ldx	#$65
    1dce: 86 12        	stx	$12                     ; 0x12 <__rc2>
    1dd0: a2 00        	ldx	#$0
    1dd2: 86 13        	stx	$13                     ; 0x13 <__rc3>
    1dd4: 20 18 ff     	jsr	$ff18 <__heap_start+0x7c88>
    1dd7: 92 2a        	sta	($2a)                   ; 0x2a <__rc26>
    1dd9: a9 00        	lda	#$0
    1ddb: 6a           	ror
    1ddc: 85 12        	sta	$12                     ; 0x12 <__rc2>
    1dde: a0 03        	ldy	#$3
    1de0: 4c 28 22     	jmp	$2228 <main+0x1c9d>
    1de3: 64 12        	stz	$12                     ; 0x12 <__rc2>
    1de5: 64 15        	stz	$15                     ; 0x15 <__rc5>
    1de7: 64 14        	stz	$14                     ; 0x14 <__rc4>
    1de9: 4c 2a 24     	jmp	$242a <main+0x1e9f>
    1dec: a5 58        	lda	$58                     ; 0x58 <theOne.6>
    1dee: a6 5c        	ldx	$5c                     ; 0x5c <theOne.8>
    1df0: 86 25        	stx	$25                     ; 0x25 <__rc21>
    1df2: a6 5d        	ldx	$5d                     ; 0x5d <theOne.8+0x1>
    1df4: 86 24        	stx	$24                     ; 0x24 <__rc20>
    1df6: a2 19        	ldx	#$19
    1df8: 86 12        	stx	$12                     ; 0x12 <__rc2>
    1dfa: 86 28        	stx	$28                     ; 0x28 <__rc24>
    1dfc: 64 13        	stz	$13                     ; 0x13 <__rc3>
    1dfe: a2 00        	ldx	#$0
    1e00: 20 f6 6a     	jsr	$6af6 <__mulhi3>
    1e03: 85 12        	sta	$12                     ; 0x12 <__rc2>
    1e05: 86 13        	stx	$13                     ; 0x13 <__rc3>
    1e07: 18           	clc
    1e08: a5 25        	lda	$25                     ; 0x25 <__rc21>
    1e0a: 65 12        	adc	$12                     ; 0x12 <__rc2>
    1e0c: 85 12        	sta	$12                     ; 0x12 <__rc2>
    1e0e: a5 24        	lda	$24                     ; 0x24 <__rc20>
    1e10: 65 13        	adc	$13                     ; 0x13 <__rc3>
    1e12: a6 12        	ldx	$12                     ; 0x12 <__rc2>
    1e14: 86 16        	stx	$16                     ; 0x16 <__rc6>
    1e16: 85 17        	sta	$17                     ; 0x17 <__rc7>
    1e18: a0 10        	ldy	#$10
    1e1a: b1 16        	lda	($16),y                 ; 0x16 <__rc6>
    1e1c: aa           	tax
    1e1d: c8           	iny
    1e1e: b1 16        	lda	($16),y                 ; 0x16 <__rc6>
    1e20: 85 14        	sta	$14                     ; 0x14 <__rc4>
    1e22: e0 ff        	cpx	#$ff
    1e24: d0 03        	bne	$1e29 <main+0x189e>
    1e26: 4c fb 1e     	jmp	$1efb <main+0x1970>
    1e29: a0 12        	ldy	#$12
    1e2b: b1 16        	lda	($16),y                 ; 0x16 <__rc6>
    1e2d: 85 15        	sta	$15                     ; 0x15 <__rc5>
    1e2f: a0 17        	ldy	#$17
    1e31: b1 16        	lda	($16),y                 ; 0x16 <__rc6>
    1e33: 85 13        	sta	$13                     ; 0x13 <__rc3>
    1e35: 8a           	txa
    1e36: 86 12        	stx	$12                     ; 0x12 <__rc2>
    1e38: 29 f0        	and	#$f0
    1e3a: c9 90        	cmp	#$90
    1e3c: d0 03        	bne	$1e41 <main+0x18b6>
    1e3e: 4c 10 1f     	jmp	$1f10 <main+0x1985>
    1e41: c9 c0        	cmp	#$c0
    1e43: f0 03        	beq	$1e48 <main+0x18bd>
    1e45: 4c 19 1f     	jmp	$1f19 <main+0x198e>
    1e48: 8e b1 dd     	stx	$ddb1                   ; 0xddb1 <__heap_start+0x5b21>
    1e4b: a6 14        	ldx	$14                     ; 0x14 <__rc4>
    1e4d: 8e b1 dd     	stx	$ddb1                   ; 0xddb1 <__heap_start+0x5b21>
    1e50: 4c 19 1f     	jmp	$1f19 <main+0x198e>
    1e53: ae 84 d8     	ldx	$d884                   ; 0xd884 <__heap_start+0x55f4>
    1e56: e0 fd        	cpx	#$fd
    1e58: f0 11        	beq	$1e6b <main+0x18e0>
    1e5a: ae 86 d8     	ldx	$d886                   ; 0xd886 <__heap_start+0x55f6>
    1e5d: e0 fd        	cpx	#$fd
    1e5f: f0 0a        	beq	$1e6b <main+0x18e0>
    1e61: ae 88 d8     	ldx	$d888                   ; 0xd888 <__heap_start+0x55f8>
    1e64: e0 fd        	cpx	#$fd
    1e66: f0 03        	beq	$1e6b <main+0x18e0>
    1e68: 4c 46 2c     	jmp	$2c46 <main+0x26bb>
    1e6b: a5 2e        	lda	$2e                     ; 0x2e <__rc30>
    1e6d: 20 2d 2e     	jsr	$2e2d <goLeftOrRight>
    1e70: 64 43        	stz	$43                     ; 0x43 <readyForPads>
    1e72: a2 80        	ldx	#$80
    1e74: 86 f3        	stx	$f3                     ; 0xf3 <__zp_bss_size+0xb8>
    1e76: a2 65        	ldx	#$65
    1e78: 86 12        	stx	$12                     ; 0x12 <__rc2>
    1e7a: a2 00        	ldx	#$0
    1e7c: 86 13        	stx	$13                     ; 0x13 <__rc3>
    1e7e: 20 f0 ff     	jsr	$fff0 <__heap_start+0x7d60>
    1e81: 92 2a        	sta	($2a)                   ; 0x2a <__rc26>
    1e83: a9 00        	lda	#$0
    1e85: 6a           	ror
    1e86: 85 12        	sta	$12                     ; 0x12 <__rc2>
    1e88: 18           	clc
    1e89: a9 0c        	lda	#$c
    1e8b: 72 2a        	adc	($2a)                   ; 0x2a <__rc26>
    1e8d: 85 45        	sta	$45                     ; 0x45 <padDelayTimer.1>
    1e8f: 64 f3        	stz	$f3                     ; 0xf3 <__zp_bss_size+0xb8>
    1e91: a6 45        	ldx	$45                     ; 0x45 <padDelayTimer.1>
    1e93: 86 f4        	stx	$f4                     ; 0xf4 <__zp_bss_size+0xb9>
    1e95: a0 03        	ldy	#$3
    1e97: 84 f5        	sty	$f5                     ; 0xf5 <__zp_bss_size+0xba>
    1e99: 20 f0 ff     	jsr	$fff0 <__heap_start+0x7d60>
    1e9c: 92 2a        	sta	($2a)                   ; 0x2a <__rc26>
    1e9e: a9 00        	lda	#$0
    1ea0: 6a           	ror
    1ea1: 85 12        	sta	$12                     ; 0x12 <__rc2>
    1ea3: 4c dc 24     	jmp	$24dc <main+0x1f51>
    1ea6: ae 84 d8     	ldx	$d884                   ; 0xd884 <__heap_start+0x55f4>
    1ea9: e0 fd        	cpx	#$fd
    1eab: f0 11        	beq	$1ebe <main+0x1933>
    1ead: ae 86 d8     	ldx	$d886                   ; 0xd886 <__heap_start+0x55f6>
    1eb0: e0 fd        	cpx	#$fd
    1eb2: f0 0a        	beq	$1ebe <main+0x1933>
    1eb4: ae 88 d8     	ldx	$d888                   ; 0xd888 <__heap_start+0x55f8>
    1eb7: e0 fd        	cpx	#$fd
    1eb9: f0 03        	beq	$1ebe <main+0x1933>
    1ebb: 4c 79 2c     	jmp	$2c79 <main+0x26ee>
    1ebe: a5 2e        	lda	$2e                     ; 0x2e <__rc30>
    1ec0: 84 24        	sty	$24                     ; 0x24 <__rc20>
    1ec2: 20 2d 2e     	jsr	$2e2d <goLeftOrRight>
    1ec5: a4 24        	ldy	$24                     ; 0x24 <__rc20>
    1ec7: 64 43        	stz	$43                     ; 0x43 <readyForPads>
    1ec9: a2 80        	ldx	#$80
    1ecb: 86 f3        	stx	$f3                     ; 0xf3 <__zp_bss_size+0xb8>
    1ecd: a2 65        	ldx	#$65
    1ecf: 86 12        	stx	$12                     ; 0x12 <__rc2>
    1ed1: a2 00        	ldx	#$0
    1ed3: 86 13        	stx	$13                     ; 0x13 <__rc3>
    1ed5: 20 f0 ff     	jsr	$fff0 <__heap_start+0x7d60>
    1ed8: 92 2a        	sta	($2a)                   ; 0x2a <__rc26>
    1eda: a9 00        	lda	#$0
    1edc: 6a           	ror
    1edd: 85 12        	sta	$12                     ; 0x12 <__rc2>
    1edf: 18           	clc
    1ee0: a9 0c        	lda	#$c
    1ee2: 72 2a        	adc	($2a)                   ; 0x2a <__rc26>
    1ee4: 85 45        	sta	$45                     ; 0x45 <padDelayTimer.1>
    1ee6: 64 f3        	stz	$f3                     ; 0xf3 <__zp_bss_size+0xb8>
    1ee8: a6 45        	ldx	$45                     ; 0x45 <padDelayTimer.1>
    1eea: 86 f4        	stx	$f4                     ; 0xf4 <__zp_bss_size+0xb9>
    1eec: 84 f5        	sty	$f5                     ; 0xf5 <__zp_bss_size+0xba>
    1eee: 20 f0 ff     	jsr	$fff0 <__heap_start+0x7d60>
    1ef1: 92 2a        	sta	($2a)                   ; 0x2a <__rc26>
    1ef3: a9 00        	lda	#$0
    1ef5: 6a           	ror
    1ef6: 85 12        	sta	$12                     ; 0x12 <__rc2>
    1ef8: 4c 4a 25     	jmp	$254a <main+0x1fbf>
    1efb: aa           	tax
    1efc: e0 51        	cpx	#$51
    1efe: f0 32        	beq	$1f32 <main+0x19a7>
    1f00: e0 2f        	cpx	#$2f
    1f02: f0 03        	beq	$1f07 <main+0x197c>
    1f04: 4c a4 1f     	jmp	$1fa4 <main+0x1a19>
    1f07: a9 01        	lda	#$1
    1f09: a0 18        	ldy	#$18
    1f0b: 91 16        	sta	($16),y                 ; 0x16 <__rc6>
    1f0d: 4c a4 1f     	jmp	$1fa4 <main+0x1a19>
    1f10: a5 49        	lda	$49                     ; 0x49 <doneWithFudge>
    1f12: 29 01        	and	#$1
    1f14: d0 03        	bne	$1f19 <main+0x198e>
    1f16: 4c 9a 1f     	jmp	$1f9a <main+0x1a0f>
    1f19: a6 12        	ldx	$12                     ; 0x12 <__rc2>
    1f1b: 8e a1 dd     	stx	$dda1                   ; 0xdda1 <__heap_start+0x5b11>
    1f1e: a6 14        	ldx	$14                     ; 0x14 <__rc4>
    1f20: 8e a1 dd     	stx	$dda1                   ; 0xdda1 <__heap_start+0x5b11>
    1f23: a5 13        	lda	$13                     ; 0x13 <__rc3>
    1f25: f0 03        	beq	$1f2a <main+0x199f>
    1f27: 4c a4 1f     	jmp	$1fa4 <main+0x1a19>
    1f2a: a6 15        	ldx	$15                     ; 0x15 <__rc5>
    1f2c: 8e a1 dd     	stx	$dda1                   ; 0xdda1 <__heap_start+0x5b11>
    1f2f: 4c a4 1f     	jmp	$1fa4 <main+0x1a19>
    1f32: a0 13        	ldy	#$13
    1f34: b1 16        	lda	($16),y                 ; 0x16 <__rc6>
    1f36: 85 12        	sta	$12                     ; 0x12 <__rc2>
    1f38: c8           	iny
    1f39: b1 16        	lda	($16),y                 ; 0x16 <__rc6>
    1f3b: 85 19        	sta	$19                     ; 0x19 <__rc9>
    1f3d: c8           	iny
    1f3e: b1 16        	lda	($16),y                 ; 0x16 <__rc6>
    1f40: a6 4d        	ldx	$4d                     ; 0x4d <theOne.1>
    1f42: a4 4e        	ldy	$4e                     ; 0x4e <theOne.1+0x1>
    1f44: 64 13        	stz	$13                     ; 0x13 <__rc3>
    1f46: 86 14        	stx	$14                     ; 0x14 <__rc4>
    1f48: 84 15        	sty	$15                     ; 0x15 <__rc5>
    1f4a: 64 16        	stz	$16                     ; 0x16 <__rc6>
    1f4c: 64 17        	stz	$17                     ; 0x17 <__rc7>
    1f4e: a6 19        	ldx	$19                     ; 0x19 <__rc9>
    1f50: 20 97 69     	jsr	$6997 <__udivsi3>
    1f53: 86 14        	stx	$14                     ; 0x14 <__rc4>
    1f55: 0a           	asl
    1f56: 26 14        	rol	$14                     ; 0x14 <__rc4>
    1f58: 26 12        	rol	$12                     ; 0x12 <__rc2>
    1f5a: 26 13        	rol	$13                     ; 0x13 <__rc3>
    1f5c: 0a           	asl
    1f5d: 85 15        	sta	$15                     ; 0x15 <__rc5>
    1f5f: 26 14        	rol	$14                     ; 0x14 <__rc4>
    1f61: 26 12        	rol	$12                     ; 0x12 <__rc2>
    1f63: 26 13        	rol	$13                     ; 0x13 <__rc3>
    1f65: 0a           	asl
    1f66: aa           	tax
    1f67: a5 14        	lda	$14                     ; 0x14 <__rc4>
    1f69: 2a           	rol
    1f6a: a8           	tay
    1f6b: a5 12        	lda	$12                     ; 0x12 <__rc2>
    1f6d: 2a           	rol
    1f6e: 85 16        	sta	$16                     ; 0x16 <__rc6>
    1f70: a5 13        	lda	$13                     ; 0x13 <__rc3>
    1f72: 2a           	rol
    1f73: 85 17        	sta	$17                     ; 0x17 <__rc7>
    1f75: 18           	clc
    1f76: 8a           	txa
    1f77: 65 15        	adc	$15                     ; 0x15 <__rc5>
    1f79: 85 15        	sta	$15                     ; 0x15 <__rc5>
    1f7b: 98           	tya
    1f7c: 65 14        	adc	$14                     ; 0x14 <__rc4>
    1f7e: 85 14        	sta	$14                     ; 0x14 <__rc4>
    1f80: a5 16        	lda	$16                     ; 0x16 <__rc6>
    1f82: 65 12        	adc	$12                     ; 0x12 <__rc2>
    1f84: 85 12        	sta	$12                     ; 0x12 <__rc2>
    1f86: a5 17        	lda	$17                     ; 0x17 <__rc7>
    1f88: 65 13        	adc	$13                     ; 0x13 <__rc3>
    1f8a: a6 15        	ldx	$15                     ; 0x15 <__rc5>
    1f8c: 86 4f        	stx	$4f                     ; 0x4f <theOne.2>
    1f8e: a6 14        	ldx	$14                     ; 0x14 <__rc4>
    1f90: 86 50        	stx	$50                     ; 0x50 <theOne.2+0x1>
    1f92: a6 12        	ldx	$12                     ; 0x12 <__rc2>
    1f94: 86 51        	stx	$51                     ; 0x51 <theOne.2+0x2>
    1f96: 85 52        	sta	$52                     ; 0x52 <theOne.2+0x3>
    1f98: 80 0a        	bra	$1fa4 <main+0x1a19>
    1f9a: a6 4a        	ldx	$4a                     ; 0x4a <fudge>
    1f9c: e6 4a        	inc	$4a                     ; 0x4a <fudge>
    1f9e: 8a           	txa
    1f9f: f0 03        	beq	$1fa4 <main+0x1a19>
    1fa1: 4c 17 2c     	jmp	$2c17 <main+0x268c>
    1fa4: a5 2a        	lda	$2a                     ; 0x2a <__rc26>
    1fa6: a0 0e        	ldy	#$e
    1fa8: 91 10        	sta	($10),y                 ; 0x10 <__rc0>
    1faa: a5 2b        	lda	$2b                     ; 0x2b <__rc27>
    1fac: c8           	iny
    1fad: 91 10        	sta	($10),y                 ; 0x10 <__rc0>
    1faf: a4 4b        	ldy	$4b                     ; 0x4b <theOne.0>
    1fb1: a6 4c        	ldx	$4c                     ; 0x4c <theOne.0+0x1>
    1fb3: a5 5c        	lda	$5c                     ; 0x5c <theOne.8>
    1fb5: 85 2a        	sta	$2a                     ; 0x2a <__rc26>
    1fb7: a5 5d        	lda	$5d                     ; 0x5d <theOne.8+0x1>
    1fb9: 85 25        	sta	$25                     ; 0x25 <__rc21>
    1fbb: 8a           	txa
    1fbc: d0 06        	bne	$1fc4 <main+0x1a39>
    1fbe: 98           	tya
    1fbf: d0 03        	bne	$1fc4 <main+0x1a39>
    1fc1: 4c f6 20     	jmp	$20f6 <main+0x1b6b>
    1fc4: 84 2c        	sty	$2c                     ; 0x2c <__rc28>
    1fc6: 86 2d        	stx	$2d                     ; 0x2d <__rc29>
    1fc8: a2 0c        	ldx	#$c
    1fca: 86 29        	stx	$29                     ; 0x29 <__rc25>
    1fcc: 64 13        	stz	$13                     ; 0x13 <__rc3>
    1fce: a0 00        	ldy	#$0
    1fd0: a2 00        	ldx	#$0
    1fd2: 86 24        	stx	$24                     ; 0x24 <__rc20>
    1fd4: 84 27        	sty	$27                     ; 0x27 <__rc23>
    1fd6: a5 29        	lda	$29                     ; 0x29 <__rc25>
    1fd8: 18           	clc
    1fd9: 65 2a        	adc	$2a                     ; 0x2a <__rc26>
    1fdb: 85 12        	sta	$12                     ; 0x12 <__rc2>
    1fdd: a5 13        	lda	$13                     ; 0x13 <__rc3>
    1fdf: 85 26        	sta	$26                     ; 0x26 <__rc22>
    1fe1: 65 25        	adc	$25                     ; 0x25 <__rc21>
    1fe3: 85 13        	sta	$13                     ; 0x13 <__rc3>
    1fe5: a0 0c        	ldy	#$c
    1fe7: b1 12        	lda	($12),y                 ; 0x12 <__rc2>
    1fe9: f0 29        	beq	$2014 <main+0x1a89>
    1feb: 64 15        	stz	$15                     ; 0x15 <__rc5>
    1fed: a4 27        	ldy	$27                     ; 0x27 <__rc23>
    1fef: a6 24        	ldx	$24                     ; 0x24 <__rc20>
    1ff1: c8           	iny
    1ff2: d0 01        	bne	$1ff5 <main+0x1a6a>
    1ff4: e8           	inx
    1ff5: 18           	clc
    1ff6: a5 29        	lda	$29                     ; 0x29 <__rc25>
    1ff8: 69 19        	adc	#$19
    1ffa: 85 29        	sta	$29                     ; 0x29 <__rc25>
    1ffc: a5 26        	lda	$26                     ; 0x26 <__rc22>
    1ffe: 69 00        	adc	#$0
    2000: 85 13        	sta	$13                     ; 0x13 <__rc3>
    2002: e4 2d        	cpx	$2d                     ; 0x2d <__rc29>
    2004: d0 07        	bne	$200d <main+0x1a82>
    2006: c4 2c        	cpy	$2c                     ; 0x2c <__rc28>
    2008: 90 c8        	bcc	$1fd2 <main+0x1a47>
    200a: 4c f8 20     	jmp	$20f8 <main+0x1b6d>
    200d: e4 2d        	cpx	$2d                     ; 0x2d <__rc29>
    200f: 90 c1        	bcc	$1fd2 <main+0x1a47>
    2011: 4c f8 20     	jmp	$20f8 <main+0x1b6d>
    2014: a6 58        	ldx	$58                     ; 0x58 <theOne.6>
    2016: 86 14        	stx	$14                     ; 0x14 <__rc4>
    2018: a6 59        	ldx	$59                     ; 0x59 <theOne.6+0x1>
    201a: a5 24        	lda	$24                     ; 0x24 <__rc20>
    201c: c5 59        	cmp	$59                     ; 0x59 <theOne.6+0x1>
    201e: d0 0a        	bne	$202a <main+0x1a9f>
    2020: a4 27        	ldy	$27                     ; 0x27 <__rc23>
    2022: 64 15        	stz	$15                     ; 0x15 <__rc5>
    2024: c4 14        	cpy	$14                     ; 0x14 <__rc4>
    2026: f0 c7        	beq	$1fef <main+0x1a64>
    2028: 80 02        	bra	$202c <main+0x1aa1>
    202a: 64 15        	stz	$15                     ; 0x15 <__rc5>
    202c: a4 28        	ldy	$28                     ; 0x28 <__rc24>
    202e: 84 12        	sty	$12                     ; 0x12 <__rc2>
    2030: 64 13        	stz	$13                     ; 0x13 <__rc3>
    2032: a5 14        	lda	$14                     ; 0x14 <__rc4>
    2034: 20 f6 6a     	jsr	$6af6 <__mulhi3>
    2037: 85 12        	sta	$12                     ; 0x12 <__rc2>
    2039: 86 13        	stx	$13                     ; 0x13 <__rc3>
    203b: a5 2a        	lda	$2a                     ; 0x2a <__rc26>
    203d: a2 00        	ldx	#$0
    203f: 86 14        	stx	$14                     ; 0x14 <__rc4>
    2041: 18           	clc
    2042: 65 12        	adc	$12                     ; 0x12 <__rc2>
    2044: aa           	tax
    2045: a4 14        	ldy	$14                     ; 0x14 <__rc4>
    2047: 84 1b        	sty	$1b                     ; 0x1b <__rc11>
    2049: a5 25        	lda	$25                     ; 0x25 <__rc21>
    204b: 65 13        	adc	$13                     ; 0x13 <__rc3>
    204d: 86 12        	stx	$12                     ; 0x12 <__rc2>
    204f: 85 13        	sta	$13                     ; 0x13 <__rc3>
    2051: a8           	tay
    2052: 18           	clc
    2053: 8a           	txa
    2054: 69 0c        	adc	#$c
    2056: 85 16        	sta	$16                     ; 0x16 <__rc6>
    2058: 98           	tya
    2059: 69 00        	adc	#$0
    205b: 85 17        	sta	$17                     ; 0x17 <__rc7>
    205d: a0 0c        	ldy	#$c
    205f: b1 12        	lda	($12),y                 ; 0x12 <__rc2>
    2061: 85 12        	sta	$12                     ; 0x12 <__rc2>
    2063: a0 01        	ldy	#$1
    2065: b1 16        	lda	($16),y                 ; 0x16 <__rc6>
    2067: 84 18        	sty	$18                     ; 0x18 <__rc8>
    2069: 85 13        	sta	$13                     ; 0x13 <__rc3>
    206b: c8           	iny
    206c: b1 16        	lda	($16),y                 ; 0x16 <__rc6>
    206e: 84 19        	sty	$19                     ; 0x19 <__rc9>
    2070: 85 14        	sta	$14                     ; 0x14 <__rc4>
    2072: c8           	iny
    2073: b1 16        	lda	($16),y                 ; 0x16 <__rc6>
    2075: 84 1a        	sty	$1a                     ; 0x1a <__rc10>
    2077: 85 15        	sta	$15                     ; 0x15 <__rc5>
    2079: a5 29        	lda	$29                     ; 0x29 <__rc25>
    207b: a6 1b        	ldx	$1b                     ; 0x1b <__rc11>
    207d: e0 01        	cpx	#$1
    207f: 65 2a        	adc	$2a                     ; 0x2a <__rc26>
    2081: 85 16        	sta	$16                     ; 0x16 <__rc6>
    2083: a5 26        	lda	$26                     ; 0x26 <__rc22>
    2085: 65 25        	adc	$25                     ; 0x25 <__rc21>
    2087: 85 17        	sta	$17                     ; 0x17 <__rc7>
    2089: b2 16        	lda	($16)                   ; 0x16 <__rc6>
    208b: aa           	tax
    208c: a4 18        	ldy	$18                     ; 0x18 <__rc8>
    208e: b1 16        	lda	($16),y                 ; 0x16 <__rc6>
    2090: 85 1b        	sta	$1b                     ; 0x1b <__rc11>
    2092: a4 18        	ldy	$18                     ; 0x18 <__rc8>
    2094: 84 1d        	sty	$1d                     ; 0x1d <__rc13>
    2096: a4 19        	ldy	$19                     ; 0x19 <__rc9>
    2098: b1 16        	lda	($16),y                 ; 0x16 <__rc6>
    209a: a8           	tay
    209b: 38           	sec
    209c: 8a           	txa
    209d: 86 18        	stx	$18                     ; 0x18 <__rc8>
    209f: e5 12        	sbc	$12                     ; 0x12 <__rc2>
    20a1: aa           	tax
    20a2: a5 1b        	lda	$1b                     ; 0x1b <__rc11>
    20a4: e5 13        	sbc	$13                     ; 0x13 <__rc3>
    20a6: 85 1e        	sta	$1e                     ; 0x1e <__rc14>
    20a8: 98           	tya
    20a9: 84 1c        	sty	$1c                     ; 0x1c <__rc12>
    20ab: e5 14        	sbc	$14                     ; 0x14 <__rc4>
    20ad: 85 1f        	sta	$1f                     ; 0x1f <__rc15>
    20af: a4 1a        	ldy	$1a                     ; 0x1a <__rc10>
    20b1: b1 16        	lda	($16),y                 ; 0x16 <__rc6>
    20b3: 85 23        	sta	$23                     ; 0x23 <__rc19>
    20b5: e5 15        	sbc	$15                     ; 0x15 <__rc5>
    20b7: 85 22        	sta	$22                     ; 0x22 <__rc18>
    20b9: 8a           	txa
    20ba: 92 16        	sta	($16)                   ; 0x16 <__rc6>
    20bc: a2 01        	ldx	#$1
    20be: 86 2e        	stx	$2e                     ; 0x2e <__rc30>
    20c0: a4 1d        	ldy	$1d                     ; 0x1d <__rc13>
    20c2: a5 1e        	lda	$1e                     ; 0x1e <__rc14>
    20c4: 91 16        	sta	($16),y                 ; 0x16 <__rc6>
    20c6: a4 19        	ldy	$19                     ; 0x19 <__rc9>
    20c8: a5 1f        	lda	$1f                     ; 0x1f <__rc15>
    20ca: 91 16        	sta	($16),y                 ; 0x16 <__rc6>
    20cc: a4 1a        	ldy	$1a                     ; 0x1a <__rc10>
    20ce: a5 22        	lda	$22                     ; 0x22 <__rc18>
    20d0: 91 16        	sta	($16),y                 ; 0x16 <__rc6>
    20d2: a6 23        	ldx	$23                     ; 0x23 <__rc19>
    20d4: e4 15        	cpx	$15                     ; 0x15 <__rc5>
    20d6: f0 03        	beq	$20db <main+0x1b50>
    20d8: 4c eb 1f     	jmp	$1feb <main+0x1a60>
    20db: a4 27        	ldy	$27                     ; 0x27 <__rc23>
    20dd: a6 24        	ldx	$24                     ; 0x24 <__rc20>
    20df: a5 1c        	lda	$1c                     ; 0x1c <__rc12>
    20e1: c5 14        	cmp	$14                     ; 0x14 <__rc4>
    20e3: f0 03        	beq	$20e8 <main+0x1b5d>
    20e5: 4c 19 22     	jmp	$2219 <main+0x1c8e>
    20e8: 64 15        	stz	$15                     ; 0x15 <__rc5>
    20ea: a5 1b        	lda	$1b                     ; 0x1b <__rc11>
    20ec: c5 13        	cmp	$13                     ; 0x13 <__rc3>
    20ee: d0 03        	bne	$20f3 <main+0x1b68>
    20f0: 4c 22 2c     	jmp	$2c22 <main+0x2697>
    20f3: 4c f1 1f     	jmp	$1ff1 <main+0x1a66>
    20f6: 64 15        	stz	$15                     ; 0x15 <__rc5>
    20f8: a5 58        	lda	$58                     ; 0x58 <theOne.6>
    20fa: a6 28        	ldx	$28                     ; 0x28 <__rc24>
    20fc: 86 12        	stx	$12                     ; 0x12 <__rc2>
    20fe: 64 13        	stz	$13                     ; 0x13 <__rc3>
    2100: a2 00        	ldx	#$0
    2102: 85 24        	sta	$24                     ; 0x24 <__rc20>
    2104: 20 f6 6a     	jsr	$6af6 <__mulhi3>
    2107: 86 12        	stx	$12                     ; 0x12 <__rc2>
    2109: 18           	clc
    210a: 65 2a        	adc	$2a                     ; 0x2a <__rc26>
    210c: aa           	tax
    210d: a5 25        	lda	$25                     ; 0x25 <__rc21>
    210f: 65 12        	adc	$12                     ; 0x12 <__rc2>
    2111: 86 12        	stx	$12                     ; 0x12 <__rc2>
    2113: 85 13        	sta	$13                     ; 0x13 <__rc3>
    2115: a8           	tay
    2116: 18           	clc
    2117: 8a           	txa
    2118: 69 04        	adc	#$4
    211a: 85 14        	sta	$14                     ; 0x14 <__rc4>
    211c: 98           	tya
    211d: 69 00        	adc	#$0
    211f: 85 15        	sta	$15                     ; 0x15 <__rc5>
    2121: a0 03        	ldy	#$3
    2123: b1 14        	lda	($14),y                 ; 0x14 <__rc4>
    2125: d1 12        	cmp	($12),y                 ; 0x12 <__rc2>
    2127: d0 48        	bne	$2171 <main+0x1be6>
    2129: a0 02        	ldy	#$2
    212b: b1 14        	lda	($14),y                 ; 0x14 <__rc4>
    212d: aa           	tax
    212e: b1 12        	lda	($12),y                 ; 0x12 <__rc2>
    2130: 85 16        	sta	$16                     ; 0x16 <__rc6>
    2132: a0 0c        	ldy	#$c
    2134: b1 10        	lda	($10),y                 ; 0x10 <__rc0>
    2136: 85 26        	sta	$26                     ; 0x26 <__rc22>
    2138: c8           	iny
    2139: b1 10        	lda	($10),y                 ; 0x10 <__rc0>
    213b: 85 27        	sta	$27                     ; 0x27 <__rc23>
    213d: c8           	iny
    213e: b1 10        	lda	($10),y                 ; 0x10 <__rc0>
    2140: 85 2a        	sta	$2a                     ; 0x2a <__rc26>
    2142: c8           	iny
    2143: b1 10        	lda	($10),y                 ; 0x10 <__rc0>
    2145: 85 2b        	sta	$2b                     ; 0x2b <__rc27>
    2147: e4 16        	cpx	$16                     ; 0x16 <__rc6>
    2149: d0 53        	bne	$219e <main+0x1c13>
    214b: a0 01        	ldy	#$1
    214d: b1 14        	lda	($14),y                 ; 0x14 <__rc4>
    214f: 85 15        	sta	$15                     ; 0x15 <__rc5>
    2151: a2 01        	ldx	#$1
    2153: 86 2e        	stx	$2e                     ; 0x2e <__rc30>
    2155: b1 12        	lda	($12),y                 ; 0x12 <__rc2>
    2157: 85 14        	sta	$14                     ; 0x14 <__rc4>
    2159: a6 15        	ldx	$15                     ; 0x15 <__rc5>
    215b: e4 14        	cpx	$14                     ; 0x14 <__rc4>
    215d: d0 0c        	bne	$216b <main+0x1be0>
    215f: a0 04        	ldy	#$4
    2161: b1 12        	lda	($12),y                 ; 0x12 <__rc2>
    2163: 85 15        	sta	$15                     ; 0x15 <__rc5>
    2165: b2 12        	lda	($12)                   ; 0x12 <__rc2>
    2167: 85 14        	sta	$14                     ; 0x14 <__rc4>
    2169: a6 15        	ldx	$15                     ; 0x15 <__rc5>
    216b: e4 14        	cpx	$14                     ; 0x14 <__rc4>
    216d: b0 1b        	bcs	$218a <main+0x1bff>
    216f: 80 31        	bra	$21a2 <main+0x1c17>
    2171: d1 12        	cmp	($12),y                 ; 0x12 <__rc2>
    2173: a0 0c        	ldy	#$c
    2175: b1 10        	lda	($10),y                 ; 0x10 <__rc0>
    2177: 85 26        	sta	$26                     ; 0x26 <__rc22>
    2179: c8           	iny
    217a: b1 10        	lda	($10),y                 ; 0x10 <__rc0>
    217c: 85 27        	sta	$27                     ; 0x27 <__rc23>
    217e: c8           	iny
    217f: b1 10        	lda	($10),y                 ; 0x10 <__rc0>
    2181: 85 2a        	sta	$2a                     ; 0x2a <__rc26>
    2183: c8           	iny
    2184: b1 10        	lda	($10),y                 ; 0x10 <__rc0>
    2186: 85 2b        	sta	$2b                     ; 0x2b <__rc27>
    2188: 90 18        	bcc	$21a2 <main+0x1c17>
    218a: a6 24        	ldx	$24                     ; 0x24 <__rc20>
    218c: a9 01        	lda	#$1
    218e: a0 18        	ldy	#$18
    2190: 91 12        	sta	($12),y                 ; 0x12 <__rc2>
    2192: e6 5a        	inc	$5a                     ; 0x5a <theOne.7>
    2194: f0 03        	beq	$2199 <main+0x1c0e>
    2196: 4c 07 22     	jmp	$2207 <main+0x1c7c>
    2199: e6 5b        	inc	$5b                     ; 0x5b <theOne.7+0x1>
    219b: 4c 07 22     	jmp	$2207 <main+0x1c7c>
    219e: e4 16        	cpx	$16                     ; 0x16 <__rc6>
    21a0: b0 e8        	bcs	$218a <main+0x1bff>
    21a2: a5 24        	lda	$24                     ; 0x24 <__rc20>
    21a4: 20 df 3b     	jsr	$3bdf <readDelta>
    21a7: 85 25        	sta	$25                     ; 0x25 <__rc21>
    21a9: 86 28        	stx	$28                     ; 0x28 <__rc24>
    21ab: a6 12        	ldx	$12                     ; 0x12 <__rc2>
    21ad: 86 29        	stx	$29                     ; 0x29 <__rc25>
    21af: a6 13        	ldx	$13                     ; 0x13 <__rc3>
    21b1: 86 2c        	stx	$2c                     ; 0x2c <__rc28>
    21b3: a6 5c        	ldx	$5c                     ; 0x5c <theOne.8>
    21b5: 86 2d        	stx	$2d                     ; 0x2d <__rc29>
    21b7: a6 5d        	ldx	$5d                     ; 0x5d <theOne.8+0x1>
    21b9: 86 2e        	stx	$2e                     ; 0x2e <__rc30>
    21bb: a2 19        	ldx	#$19
    21bd: 86 12        	stx	$12                     ; 0x12 <__rc2>
    21bf: 64 13        	stz	$13                     ; 0x13 <__rc3>
    21c1: a2 00        	ldx	#$0
    21c3: a5 24        	lda	$24                     ; 0x24 <__rc20>
    21c5: 20 f6 6a     	jsr	$6af6 <__mulhi3>
    21c8: 85 12        	sta	$12                     ; 0x12 <__rc2>
    21ca: 86 13        	stx	$13                     ; 0x13 <__rc3>
    21cc: 18           	clc
    21cd: a5 2d        	lda	$2d                     ; 0x2d <__rc29>
    21cf: 65 12        	adc	$12                     ; 0x12 <__rc2>
    21d1: a8           	tay
    21d2: a5 2e        	lda	$2e                     ; 0x2e <__rc30>
    21d4: 65 13        	adc	$13                     ; 0x13 <__rc3>
    21d6: aa           	tax
    21d7: 98           	tya
    21d8: 84 12        	sty	$12                     ; 0x12 <__rc2>
    21da: 86 13        	stx	$13                     ; 0x13 <__rc3>
    21dc: 18           	clc
    21dd: 69 0c        	adc	#$c
    21df: 85 14        	sta	$14                     ; 0x14 <__rc4>
    21e1: 8a           	txa
    21e2: 69 00        	adc	#$0
    21e4: 85 15        	sta	$15                     ; 0x15 <__rc5>
    21e6: a0 0c        	ldy	#$c
    21e8: a5 25        	lda	$25                     ; 0x25 <__rc21>
    21ea: 91 12        	sta	($12),y                 ; 0x12 <__rc2>
    21ec: a0 01        	ldy	#$1
    21ee: a2 01        	ldx	#$1
    21f0: 86 2e        	stx	$2e                     ; 0x2e <__rc30>
    21f2: a5 28        	lda	$28                     ; 0x28 <__rc24>
    21f4: 91 14        	sta	($14),y                 ; 0x14 <__rc4>
    21f6: c8           	iny
    21f7: a5 29        	lda	$29                     ; 0x29 <__rc25>
    21f9: 91 14        	sta	($14),y                 ; 0x14 <__rc4>
    21fb: c8           	iny
    21fc: a5 2c        	lda	$2c                     ; 0x2c <__rc28>
    21fe: 91 14        	sta	($14),y                 ; 0x14 <__rc4>
    2200: a5 24        	lda	$24                     ; 0x24 <__rc20>
    2202: 20 a0 40     	jsr	$40a0 <readMIDICmd>
    2205: a6 58        	ldx	$58                     ; 0x58 <theOne.6>
    2207: 8a           	txa
    2208: 20 7b 48     	jsr	$487b <exhaustZeroes>
    220b: 64 53        	stz	$53                     ; 0x53 <theOne.4>
    220d: a6 4b        	ldx	$4b                     ; 0x4b <theOne.0>
    220f: a4 4c        	ldy	$4c                     ; 0x4c <theOne.0+0x1>
    2211: f0 03        	beq	$2216 <main+0x1c8b>
    2213: 4c 0d 23     	jmp	$230d <main+0x1d82>
    2216: 4c 07 23     	jmp	$2307 <main+0x1d7c>
    2219: 64 15        	stz	$15                     ; 0x15 <__rc5>
    221b: 4c f1 1f     	jmp	$1ff1 <main+0x1a66>
    221e: 98           	tya
    221f: a0 01        	ldy	#$1
    2221: a2 01        	ldx	#$1
    2223: 86 2e        	stx	$2e                     ; 0x2e <__rc30>
    2225: 84 43        	sty	$43                     ; 0x43 <readyForPads>
    2227: a8           	tay
    2228: a6 44        	ldx	$44                     ; 0x44 <isJingleActive>
    222a: 8a           	txa
    222b: d0 03        	bne	$2230 <main+0x1ca5>
    222d: 4c 63 24     	jmp	$2463 <main+0x1ed8>
    2230: ad 60 d6     	lda	$d660                   ; 0xd660 <__heap_start+0x53d0>
    2233: 29 10        	and	#$10
    2235: d0 03        	bne	$223a <main+0x1caf>
    2237: 4c f8 22     	jmp	$22f8 <main+0x1d6d>
    223a: a2 10        	ldx	#$10
    223c: 8e 60 d6     	stx	$d660                   ; 0xd660 <__heap_start+0x53d0>
    223f: a6 54        	ldx	$54                     ; 0x54 <theOne.5>
    2241: 86 14        	stx	$14                     ; 0x14 <__rc4>
    2243: a5 55        	lda	$55                     ; 0x55 <theOne.5+0x1>
    2245: a6 56        	ldx	$56                     ; 0x56 <theOne.5+0x2>
    2247: a4 57        	ldy	$57                     ; 0x57 <theOne.5+0x3>
    2249: c0 01        	cpy	#$1
    224b: d0 16        	bne	$2263 <main+0x1cd8>
    224d: 84 15        	sty	$15                     ; 0x15 <__rc5>
    224f: e0 00        	cpx	#$0
    2251: d0 55        	bne	$22a8 <main+0x1d1d>
    2253: 86 12        	stx	$12                     ; 0x12 <__rc2>
    2255: aa           	tax
    2256: f0 03        	beq	$225b <main+0x1cd0>
    2258: 4c c0 28     	jmp	$28c0 <main+0x2335>
    225b: a6 14        	ldx	$14                     ; 0x14 <__rc4>
    225d: e0 00        	cpx	#$0
    225f: 90 0a        	bcc	$226b <main+0x1ce0>
    2261: 80 4b        	bra	$22ae <main+0x1d23>
    2263: 86 12        	stx	$12                     ; 0x12 <__rc2>
    2265: 84 15        	sty	$15                     ; 0x15 <__rc5>
    2267: c0 01        	cpy	#$1
    2269: b0 43        	bcs	$22ae <main+0x1d23>
    226b: a2 03        	ldx	#$3
    226d: 86 13        	stx	$13                     ; 0x13 <__rc3>
    226f: a8           	tay
    2270: a6 14        	ldx	$14                     ; 0x14 <__rc4>
    2272: a5 15        	lda	$15                     ; 0x15 <__rc5>
    2274: d0 0d        	bne	$2283 <main+0x1cf8>
    2276: a5 12        	lda	$12                     ; 0x12 <__rc2>
    2278: d0 09        	bne	$2283 <main+0x1cf8>
    227a: 98           	tya
    227b: d0 06        	bne	$2283 <main+0x1cf8>
    227d: 8a           	txa
    227e: d0 03        	bne	$2283 <main+0x1cf8>
    2280: 4c ec 1d     	jmp	$1dec <main+0x1861>
    2283: a9 02        	lda	#$2
    2285: 8d 50 d6     	sta	$d650                   ; 0xd650 <__heap_start+0x53c0>
    2288: 8e 55 d6     	stx	$d655                   ; 0xd655 <__heap_start+0x53c5>
    228b: 8c 56 d6     	sty	$d656                   ; 0xd656 <__heap_start+0x53c6>
    228e: a6 12        	ldx	$12                     ; 0x12 <__rc2>
    2290: 8e 57 d6     	stx	$d657                   ; 0xd657 <__heap_start+0x53c7>
    2293: 9c 54 d6     	stz	$d654                   ; 0xd654 <__heap_start+0x53c4>
    2296: 8d 50 d6     	sta	$d650                   ; 0xd650 <__heap_start+0x53c0>
    2299: a2 89        	ldx	#$89
    229b: 8e 50 d6     	stx	$d650                   ; 0xd650 <__heap_start+0x53c0>
    229e: 64 54        	stz	$54                     ; 0x54 <theOne.5>
    22a0: 64 55        	stz	$55                     ; 0x55 <theOne.5+0x1>
    22a2: 64 56        	stz	$56                     ; 0x56 <theOne.5+0x2>
    22a4: 64 57        	stz	$57                     ; 0x57 <theOne.5+0x3>
    22a6: 80 4e        	bra	$22f6 <main+0x1d6b>
    22a8: 86 12        	stx	$12                     ; 0x12 <__rc2>
    22aa: e0 00        	cpx	#$0
    22ac: 90 bd        	bcc	$226b <main+0x1ce0>
    22ae: a2 03        	ldx	#$3
    22b0: a8           	tay
    22b1: 86 13        	stx	$13                     ; 0x13 <__rc3>
    22b3: 18           	clc
    22b4: a5 14        	lda	$14                     ; 0x14 <__rc4>
    22b6: 69 01        	adc	#$1
    22b8: aa           	tax
    22b9: 98           	tya
    22ba: 69 00        	adc	#$0
    22bc: 85 16        	sta	$16                     ; 0x16 <__rc6>
    22be: a5 12        	lda	$12                     ; 0x12 <__rc2>
    22c0: 69 00        	adc	#$0
    22c2: a8           	tay
    22c3: a5 15        	lda	$15                     ; 0x15 <__rc5>
    22c5: 69 ff        	adc	#$ff
    22c7: 85 12        	sta	$12                     ; 0x12 <__rc2>
    22c9: 86 54        	stx	$54                     ; 0x54 <theOne.5>
    22cb: 86 14        	stx	$14                     ; 0x14 <__rc4>
    22cd: a5 16        	lda	$16                     ; 0x16 <__rc6>
    22cf: 85 55        	sta	$55                     ; 0x55 <theOne.5+0x1>
    22d1: 84 56        	sty	$56                     ; 0x56 <theOne.5+0x2>
    22d3: a6 12        	ldx	$12                     ; 0x12 <__rc2>
    22d5: 86 57        	stx	$57                     ; 0x57 <theOne.5+0x3>
    22d7: a2 02        	ldx	#$2
    22d9: 86 12        	stx	$12                     ; 0x12 <__rc2>
    22db: 8e 50 d6     	stx	$d650                   ; 0xd650 <__heap_start+0x53c0>
    22de: a6 14        	ldx	$14                     ; 0x14 <__rc4>
    22e0: 8e 55 d6     	stx	$d655                   ; 0xd655 <__heap_start+0x53c5>
    22e3: 8d 56 d6     	sta	$d656                   ; 0xd656 <__heap_start+0x53c6>
    22e6: 8c 57 d6     	sty	$d657                   ; 0xd657 <__heap_start+0x53c7>
    22e9: 9c 54 d6     	stz	$d654                   ; 0xd654 <__heap_start+0x53c4>
    22ec: a6 12        	ldx	$12                     ; 0x12 <__rc2>
    22ee: 8e 50 d6     	stx	$d650                   ; 0xd650 <__heap_start+0x53c0>
    22f1: a2 89        	ldx	#$89
    22f3: 8e 50 d6     	stx	$d650                   ; 0xd650 <__heap_start+0x53c0>
    22f6: a4 13        	ldy	$13                     ; 0x13 <__rc3>
    22f8: a5 53        	lda	$53                     ; 0x53 <theOne.4>
    22fa: 29 01        	and	#$1
    22fc: f0 03        	beq	$2301 <main+0x1d76>
    22fe: 4c 4b 24     	jmp	$244b <main+0x1ec0>
    2301: a6 4b        	ldx	$4b                     ; 0x4b <theOne.0>
    2303: a4 4c        	ldy	$4c                     ; 0x4c <theOne.0+0x1>
    2305: d0 06        	bne	$230d <main+0x1d82>
    2307: 8a           	txa
    2308: d0 03        	bne	$230d <main+0x1d82>
    230a: 4c e2 23     	jmp	$23e2 <main+0x1e57>
    230d: 86 1a        	stx	$1a                     ; 0x1a <__rc10>
    230f: 84 1b        	sty	$1b                     ; 0x1b <__rc11>
    2311: a5 5c        	lda	$5c                     ; 0x5c <theOne.8>
    2313: a6 5d        	ldx	$5d                     ; 0x5d <theOne.8+0x1>
    2315: 86 12        	stx	$12                     ; 0x12 <__rc2>
    2317: 18           	clc
    2318: 69 0c        	adc	#$c
    231a: aa           	tax
    231b: a5 12        	lda	$12                     ; 0x12 <__rc2>
    231d: 69 00        	adc	#$0
    231f: 86 12        	stx	$12                     ; 0x12 <__rc2>
    2321: 85 13        	sta	$13                     ; 0x13 <__rc3>
    2323: a9 ff        	lda	#$ff
    2325: 64 1c        	stz	$1c                     ; 0x1c <__rc12>
    2327: a2 00        	ldx	#$0
    2329: 85 14        	sta	$14                     ; 0x14 <__rc4>
    232b: 85 15        	sta	$15                     ; 0x15 <__rc5>
    232d: 85 16        	sta	$16                     ; 0x16 <__rc6>
    232f: 85 17        	sta	$17                     ; 0x17 <__rc7>
    2331: a0 0c        	ldy	#$c
    2333: b1 12        	lda	($12),y                 ; 0x12 <__rc2>
    2335: f0 05        	beq	$233c <main+0x1db1>
    2337: a4 1c        	ldy	$1c                     ; 0x1c <__rc12>
    2339: 4c a5 23     	jmp	$23a5 <main+0x1e1a>
    233c: b2 12        	lda	($12)                   ; 0x12 <__rc2>
    233e: 85 1e        	sta	$1e                     ; 0x1e <__rc14>
    2340: a0 01        	ldy	#$1
    2342: 98           	tya
    2343: 85 2e        	sta	$2e                     ; 0x2e <__rc30>
    2345: b1 12        	lda	($12),y                 ; 0x12 <__rc2>
    2347: 85 1d        	sta	$1d                     ; 0x1d <__rc13>
    2349: c8           	iny
    234a: b1 12        	lda	($12),y                 ; 0x12 <__rc2>
    234c: 85 18        	sta	$18                     ; 0x18 <__rc8>
    234e: c8           	iny
    234f: b1 12        	lda	($12),y                 ; 0x12 <__rc2>
    2351: c5 17        	cmp	$17                     ; 0x17 <__rc7>
    2353: d0 22        	bne	$2377 <main+0x1dec>
    2355: 85 19        	sta	$19                     ; 0x19 <__rc9>
    2357: a4 1c        	ldy	$1c                     ; 0x1c <__rc12>
    2359: a5 18        	lda	$18                     ; 0x18 <__rc8>
    235b: c5 16        	cmp	$16                     ; 0x16 <__rc6>
    235d: f0 03        	beq	$2362 <main+0x1dd7>
    235f: 4c d2 23     	jmp	$23d2 <main+0x1e47>
    2362: a5 1d        	lda	$1d                     ; 0x1d <__rc13>
    2364: c5 15        	cmp	$15                     ; 0x15 <__rc5>
    2366: f0 03        	beq	$236b <main+0x1de0>
    2368: 4c db 23     	jmp	$23db <main+0x1e50>
    236b: 85 1c        	sta	$1c                     ; 0x1c <__rc12>
    236d: a5 1e        	lda	$1e                     ; 0x1e <__rc14>
    236f: c5 14        	cmp	$14                     ; 0x14 <__rc4>
    2371: a5 1c        	lda	$1c                     ; 0x1c <__rc12>
    2373: 90 0c        	bcc	$2381 <main+0x1df6>
    2375: 80 2e        	bra	$23a5 <main+0x1e1a>
    2377: c5 17        	cmp	$17                     ; 0x17 <__rc7>
    2379: a4 1c        	ldy	$1c                     ; 0x1c <__rc12>
    237b: 85 19        	sta	$19                     ; 0x19 <__rc9>
    237d: a5 1d        	lda	$1d                     ; 0x1d <__rc13>
    237f: b0 24        	bcs	$23a5 <main+0x1e1a>
    2381: 85 15        	sta	$15                     ; 0x15 <__rc5>
    2383: a5 19        	lda	$19                     ; 0x19 <__rc9>
    2385: 85 17        	sta	$17                     ; 0x17 <__rc7>
    2387: a5 1e        	lda	$1e                     ; 0x1e <__rc14>
    2389: 85 54        	sta	$54                     ; 0x54 <theOne.5>
    238b: 85 14        	sta	$14                     ; 0x14 <__rc4>
    238d: a5 15        	lda	$15                     ; 0x15 <__rc5>
    238f: 85 55        	sta	$55                     ; 0x55 <theOne.5+0x1>
    2391: a5 18        	lda	$18                     ; 0x18 <__rc8>
    2393: 85 56        	sta	$56                     ; 0x56 <theOne.5+0x2>
    2395: 85 16        	sta	$16                     ; 0x16 <__rc6>
    2397: a5 19        	lda	$19                     ; 0x19 <__rc9>
    2399: 85 57        	sta	$57                     ; 0x57 <theOne.5+0x3>
    239b: a9 01        	lda	#$1
    239d: 85 2e        	sta	$2e                     ; 0x2e <__rc30>
    239f: 85 53        	sta	$53                     ; 0x53 <theOne.4>
    23a1: 84 58        	sty	$58                     ; 0x58 <theOne.6>
    23a3: 86 59        	stx	$59                     ; 0x59 <theOne.6+0x1>
    23a5: c8           	iny
    23a6: d0 01        	bne	$23a9 <main+0x1e1e>
    23a8: e8           	inx
    23a9: 84 18        	sty	$18                     ; 0x18 <__rc8>
    23ab: 86 19        	stx	$19                     ; 0x19 <__rc9>
    23ad: a5 12        	lda	$12                     ; 0x12 <__rc2>
    23af: 18           	clc
    23b0: 69 19        	adc	#$19
    23b2: 85 12        	sta	$12                     ; 0x12 <__rc2>
    23b4: a5 13        	lda	$13                     ; 0x13 <__rc3>
    23b6: 69 00        	adc	#$0
    23b8: 85 13        	sta	$13                     ; 0x13 <__rc3>
    23ba: 84 1c        	sty	$1c                     ; 0x1c <__rc12>
    23bc: a4 1b        	ldy	$1b                     ; 0x1b <__rc11>
    23be: c4 19        	cpy	$19                     ; 0x19 <__rc9>
    23c0: f0 03        	beq	$23c5 <main+0x1e3a>
    23c2: 4c 31 23     	jmp	$2331 <main+0x1da6>
    23c5: a4 18        	ldy	$18                     ; 0x18 <__rc8>
    23c7: 84 1c        	sty	$1c                     ; 0x1c <__rc12>
    23c9: a4 1a        	ldy	$1a                     ; 0x1a <__rc10>
    23cb: c4 18        	cpy	$18                     ; 0x18 <__rc8>
    23cd: f0 13        	beq	$23e2 <main+0x1e57>
    23cf: 4c 31 23     	jmp	$2331 <main+0x1da6>
    23d2: c5 16        	cmp	$16                     ; 0x16 <__rc6>
    23d4: a5 1d        	lda	$1d                     ; 0x1d <__rc13>
    23d6: b0 cd        	bcs	$23a5 <main+0x1e1a>
    23d8: 4c 81 23     	jmp	$2381 <main+0x1df6>
    23db: c5 15        	cmp	$15                     ; 0x15 <__rc5>
    23dd: b0 c6        	bcs	$23a5 <main+0x1e1a>
    23df: 4c 81 23     	jmp	$2381 <main+0x1df6>
    23e2: a6 54        	ldx	$54                     ; 0x54 <theOne.5>
    23e4: 86 12        	stx	$12                     ; 0x12 <__rc2>
    23e6: a5 55        	lda	$55                     ; 0x55 <theOne.5+0x1>
    23e8: a4 56        	ldy	$56                     ; 0x56 <theOne.5+0x2>
    23ea: a6 57        	ldx	$57                     ; 0x57 <theOne.5+0x3>
    23ec: d0 11        	bne	$23ff <main+0x1e74>
    23ee: c0 00        	cpy	#$0
    23f0: d0 0d        	bne	$23ff <main+0x1e74>
    23f2: c9 00        	cmp	#$0
    23f4: d0 09        	bne	$23ff <main+0x1e74>
    23f6: e6 12        	inc	$12                     ; 0x12 <__rc2>
    23f8: c6 12        	dec	$12                     ; 0x12 <__rc2>
    23fa: d0 03        	bne	$23ff <main+0x1e74>
    23fc: 4c e3 1d     	jmp	$1de3 <main+0x1858>
    23ff: 86 17        	stx	$17                     ; 0x17 <__rc7>
    2401: 84 16        	sty	$16                     ; 0x16 <__rc6>
    2403: a6 12        	ldx	$12                     ; 0x12 <__rc2>
    2405: 86 14        	stx	$14                     ; 0x14 <__rc4>
    2407: 85 15        	sta	$15                     ; 0x15 <__rc5>
    2409: a5 4f        	lda	$4f                     ; 0x4f <theOne.2>
    240b: a6 50        	ldx	$50                     ; 0x50 <theOne.2+0x1>
    240d: a4 51        	ldy	$51                     ; 0x51 <theOne.2+0x2>
    240f: 84 12        	sty	$12                     ; 0x12 <__rc2>
    2411: a4 52        	ldy	$52                     ; 0x52 <theOne.2+0x3>
    2413: 84 13        	sty	$13                     ; 0x13 <__rc3>
    2415: 20 28 6b     	jsr	$6b28 <__mulsi3>
    2418: a4 12        	ldy	$12                     ; 0x12 <__rc2>
    241a: 85 12        	sta	$12                     ; 0x12 <__rc2>
    241c: 85 54        	sta	$54                     ; 0x54 <theOne.5>
    241e: 86 15        	stx	$15                     ; 0x15 <__rc5>
    2420: 86 55        	stx	$55                     ; 0x55 <theOne.5+0x1>
    2422: 84 14        	sty	$14                     ; 0x14 <__rc4>
    2424: 84 56        	sty	$56                     ; 0x56 <theOne.5+0x2>
    2426: a6 13        	ldx	$13                     ; 0x13 <__rc3>
    2428: 86 57        	stx	$57                     ; 0x57 <theOne.5+0x3>
    242a: a9 02        	lda	#$2
    242c: 8d 50 d6     	sta	$d650                   ; 0xd650 <__heap_start+0x53c0>
    242f: a4 12        	ldy	$12                     ; 0x12 <__rc2>
    2431: 8c 55 d6     	sty	$d655                   ; 0xd655 <__heap_start+0x53c5>
    2434: a6 15        	ldx	$15                     ; 0x15 <__rc5>
    2436: 8e 56 d6     	stx	$d656                   ; 0xd656 <__heap_start+0x53c6>
    2439: a6 14        	ldx	$14                     ; 0x14 <__rc4>
    243b: 8e 57 d6     	stx	$d657                   ; 0xd657 <__heap_start+0x53c7>
    243e: 9c 54 d6     	stz	$d654                   ; 0xd654 <__heap_start+0x53c4>
    2441: 8d 50 d6     	sta	$d650                   ; 0xd650 <__heap_start+0x53c0>
    2444: a2 89        	ldx	#$89
    2446: 8e 50 d6     	stx	$d650                   ; 0xd650 <__heap_start+0x53c0>
    2449: a0 03        	ldy	#$3
    244b: a6 5b        	ldx	$5b                     ; 0x5b <theOne.7+0x1>
    244d: e4 4c        	cpx	$4c                     ; 0x4c <theOne.0+0x1>
    244f: f0 03        	beq	$2454 <main+0x1ec9>
    2451: 4c 21 27     	jmp	$2721 <main+0x2196>
    2454: a6 5a        	ldx	$5a                     ; 0x5a <theOne.7>
    2456: 98           	tya
    2457: a4 4b        	ldy	$4b                     ; 0x4b <theOne.0>
    2459: 84 12        	sty	$12                     ; 0x12 <__rc2>
    245b: a8           	tay
    245c: e4 12        	cpx	$12                     ; 0x12 <__rc2>
    245e: 90 03        	bcc	$2463 <main+0x1ed8>
    2460: 4c 28 27     	jmp	$2728 <main+0x219d>
    2463: a5 43        	lda	$43                     ; 0x43 <readyForPads>
    2465: 29 01        	and	#$1
    2467: d0 03        	bne	$246c <main+0x1ee1>
    2469: 4c 4a 25     	jmp	$254a <main+0x1fbf>
    246c: a2 81        	ldx	#$81
    246e: 8e 80 d8     	stx	$d880                   ; 0xd880 <__heap_start+0x55f0>
    2471: ea           	nop
    2472: ea           	nop
    2473: a0 01        	ldy	#$1
    2475: a2 01        	ldx	#$1
    2477: 86 2e        	stx	$2e                     ; 0x2e <__rc30>
    2479: 8c 80 d8     	sty	$d880                   ; 0xd880 <__heap_start+0x55f0>
    247c: ad 80 d8     	lda	$d880                   ; 0xd880 <__heap_start+0x55f0>
    247f: 29 40        	and	#$40
    2481: f0 f9        	beq	$247c <main+0x1ef1>
    2483: ae 84 d8     	ldx	$d884                   ; 0xd884 <__heap_start+0x55f4>
    2486: e0 f7        	cpx	#$f7
    2488: f0 18        	beq	$24a2 <main+0x1f17>
    248a: ae 86 d8     	ldx	$d886                   ; 0xd886 <__heap_start+0x55f6>
    248d: e0 f7        	cpx	#$f7
    248f: f0 11        	beq	$24a2 <main+0x1f17>
    2491: ae 88 d8     	ldx	$d888                   ; 0xd888 <__heap_start+0x55f8>
    2494: e0 f7        	cpx	#$f7
    2496: f0 0a        	beq	$24a2 <main+0x1f17>
    2498: ae 8a d8     	ldx	$d88a                   ; 0xd88a <__heap_start+0x55fa>
    249b: e0 f7        	cpx	#$f7
    249d: f0 03        	beq	$24a2 <main+0x1f17>
    249f: 4c 05 1c     	jmp	$1c05 <main+0x167a>
    24a2: a6 42        	ldx	$42                     ; 0x42 <catSelected>
    24a4: a5 2e        	lda	$2e                     ; 0x2e <__rc30>
    24a6: 20 4c 32     	jsr	$324c <goUpOrDown>
    24a9: 64 43        	stz	$43                     ; 0x43 <readyForPads>
    24ab: a2 80        	ldx	#$80
    24ad: 86 f3        	stx	$f3                     ; 0xf3 <__zp_bss_size+0xb8>
    24af: a2 65        	ldx	#$65
    24b1: 86 12        	stx	$12                     ; 0x12 <__rc2>
    24b3: a2 00        	ldx	#$0
    24b5: 86 13        	stx	$13                     ; 0x13 <__rc3>
    24b7: 20 f0 ff     	jsr	$fff0 <__heap_start+0x7d60>
    24ba: 92 2a        	sta	($2a)                   ; 0x2a <__rc26>
    24bc: a9 00        	lda	#$0
    24be: 6a           	ror
    24bf: 85 12        	sta	$12                     ; 0x12 <__rc2>
    24c1: 18           	clc
    24c2: a9 0c        	lda	#$c
    24c4: 72 2a        	adc	($2a)                   ; 0x2a <__rc26>
    24c6: 85 45        	sta	$45                     ; 0x45 <padDelayTimer.1>
    24c8: 64 f3        	stz	$f3                     ; 0xf3 <__zp_bss_size+0xb8>
    24ca: a6 45        	ldx	$45                     ; 0x45 <padDelayTimer.1>
    24cc: 86 f4        	stx	$f4                     ; 0xf4 <__zp_bss_size+0xb9>
    24ce: a0 03        	ldy	#$3
    24d0: 84 f5        	sty	$f5                     ; 0xf5 <__zp_bss_size+0xba>
    24d2: 20 f0 ff     	jsr	$fff0 <__heap_start+0x7d60>
    24d5: 92 2a        	sta	($2a)                   ; 0x2a <__rc26>
    24d7: a9 00        	lda	#$0
    24d9: 6a           	ror
    24da: 85 12        	sta	$12                     ; 0x12 <__rc2>
    24dc: a2 85        	ldx	#$85
    24de: 8e 80 d8     	stx	$d880                   ; 0xd880 <__heap_start+0x55f0>
    24e1: ea           	nop
    24e2: ea           	nop
    24e3: a2 05        	ldx	#$5
    24e5: 8e 80 d8     	stx	$d880                   ; 0xd880 <__heap_start+0x55f0>
    24e8: ad 80 d8     	lda	$d880                   ; 0xd880 <__heap_start+0x55f0>
    24eb: 29 40        	and	#$40
    24ed: f0 f9        	beq	$24e8 <main+0x1f5d>
    24ef: ae 84 d8     	ldx	$d884                   ; 0xd884 <__heap_start+0x55f4>
    24f2: e0 f7        	cpx	#$f7
    24f4: f0 18        	beq	$250e <main+0x1f83>
    24f6: ae 86 d8     	ldx	$d886                   ; 0xd886 <__heap_start+0x55f6>
    24f9: e0 f7        	cpx	#$f7
    24fb: f0 11        	beq	$250e <main+0x1f83>
    24fd: ae 88 d8     	ldx	$d888                   ; 0xd888 <__heap_start+0x55f8>
    2500: e0 f7        	cpx	#$f7
    2502: f0 0a        	beq	$250e <main+0x1f83>
    2504: ae 8a d8     	ldx	$d88a                   ; 0xd88a <__heap_start+0x55fa>
    2507: e0 f7        	cpx	#$f7
    2509: f0 03        	beq	$250e <main+0x1f83>
    250b: 4c 61 1c     	jmp	$1c61 <main+0x16d6>
    250e: a6 42        	ldx	$42                     ; 0x42 <catSelected>
    2510: a5 2e        	lda	$2e                     ; 0x2e <__rc30>
    2512: 84 24        	sty	$24                     ; 0x24 <__rc20>
    2514: 20 4c 32     	jsr	$324c <goUpOrDown>
    2517: a4 24        	ldy	$24                     ; 0x24 <__rc20>
    2519: 64 43        	stz	$43                     ; 0x43 <readyForPads>
    251b: a2 80        	ldx	#$80
    251d: 86 f3        	stx	$f3                     ; 0xf3 <__zp_bss_size+0xb8>
    251f: a2 65        	ldx	#$65
    2521: 86 12        	stx	$12                     ; 0x12 <__rc2>
    2523: a2 00        	ldx	#$0
    2525: 86 13        	stx	$13                     ; 0x13 <__rc3>
    2527: 20 f0 ff     	jsr	$fff0 <__heap_start+0x7d60>
    252a: 92 2a        	sta	($2a)                   ; 0x2a <__rc26>
    252c: a9 00        	lda	#$0
    252e: 6a           	ror
    252f: 85 12        	sta	$12                     ; 0x12 <__rc2>
    2531: 18           	clc
    2532: a9 0c        	lda	#$c
    2534: 72 2a        	adc	($2a)                   ; 0x2a <__rc26>
    2536: 85 45        	sta	$45                     ; 0x45 <padDelayTimer.1>
    2538: 64 f3        	stz	$f3                     ; 0xf3 <__zp_bss_size+0xb8>
    253a: a6 45        	ldx	$45                     ; 0x45 <padDelayTimer.1>
    253c: 86 f4        	stx	$f4                     ; 0xf4 <__zp_bss_size+0xb9>
    253e: 84 f5        	sty	$f5                     ; 0xf5 <__zp_bss_size+0xba>
    2540: 20 f0 ff     	jsr	$fff0 <__heap_start+0x7d60>
    2543: 92 2a        	sta	($2a)                   ; 0x2a <__rc26>
    2545: a9 00        	lda	#$0
    2547: 6a           	ror
    2548: 85 12        	sta	$12                     ; 0x12 <__rc2>
    254a: 64 5e        	stz	$5e                     ; 0x5e <kernelEventData>
    254c: a2 65        	ldx	#$65
    254e: 86 12        	stx	$12                     ; 0x12 <__rc2>
    2550: a2 00        	ldx	#$0
    2552: 86 13        	stx	$13                     ; 0x13 <__rc3>
    2554: 20 00 ff     	jsr	$ff00 <__heap_start+0x7c70>
    2557: 92 2a        	sta	($2a)                   ; 0x2a <__rc26>
    2559: a9 00        	lda	#$0
    255b: 6a           	ror
    255c: 85 12        	sta	$12                     ; 0x12 <__rc2>
    255e: a6 5e        	ldx	$5e                     ; 0x5e <kernelEventData>
    2560: e0 52        	cpx	#$52
    2562: d0 03        	bne	$2567 <main+0x1fdc>
    2564: 4c a8 28     	jmp	$28a8 <main+0x231d>
    2567: e0 08        	cpx	#$8
    2569: f0 03        	beq	$256e <main+0x1fe3>
    256b: 4c 28 22     	jmp	$2228 <main+0x1c9d>
    256e: a6 62        	ldx	$62                     ; 0x62 <kernelEventData+0x4>
    2570: e0 83        	cpx	#$83
    2572: f0 03        	beq	$2577 <main+0x1fec>
    2574: 4c 46 26     	jmp	$2646 <main+0x20bb>
    2577: a2 b0        	ldx	#$b0
    2579: 8e a1 dd     	stx	$dda1                   ; 0xdda1 <__heap_start+0x5b11>
    257c: a9 7b        	lda	#$7b
    257e: 8d a1 dd     	sta	$dda1                   ; 0xdda1 <__heap_start+0x5b11>
    2581: 9c a1 dd     	stz	$dda1                   ; 0xdda1 <__heap_start+0x5b11>
    2584: e8           	inx
    2585: 8e a1 dd     	stx	$dda1                   ; 0xdda1 <__heap_start+0x5b11>
    2588: 8d a1 dd     	sta	$dda1                   ; 0xdda1 <__heap_start+0x5b11>
    258b: 9c a1 dd     	stz	$dda1                   ; 0xdda1 <__heap_start+0x5b11>
    258e: e8           	inx
    258f: 8e a1 dd     	stx	$dda1                   ; 0xdda1 <__heap_start+0x5b11>
    2592: 8d a1 dd     	sta	$dda1                   ; 0xdda1 <__heap_start+0x5b11>
    2595: 9c a1 dd     	stz	$dda1                   ; 0xdda1 <__heap_start+0x5b11>
    2598: e8           	inx
    2599: 8e a1 dd     	stx	$dda1                   ; 0xdda1 <__heap_start+0x5b11>
    259c: 8d a1 dd     	sta	$dda1                   ; 0xdda1 <__heap_start+0x5b11>
    259f: 9c a1 dd     	stz	$dda1                   ; 0xdda1 <__heap_start+0x5b11>
    25a2: e8           	inx
    25a3: 8e a1 dd     	stx	$dda1                   ; 0xdda1 <__heap_start+0x5b11>
    25a6: 8d a1 dd     	sta	$dda1                   ; 0xdda1 <__heap_start+0x5b11>
    25a9: 9c a1 dd     	stz	$dda1                   ; 0xdda1 <__heap_start+0x5b11>
    25ac: e8           	inx
    25ad: 8e a1 dd     	stx	$dda1                   ; 0xdda1 <__heap_start+0x5b11>
    25b0: 8d a1 dd     	sta	$dda1                   ; 0xdda1 <__heap_start+0x5b11>
    25b3: 9c a1 dd     	stz	$dda1                   ; 0xdda1 <__heap_start+0x5b11>
    25b6: e8           	inx
    25b7: 8e a1 dd     	stx	$dda1                   ; 0xdda1 <__heap_start+0x5b11>
    25ba: 8d a1 dd     	sta	$dda1                   ; 0xdda1 <__heap_start+0x5b11>
    25bd: 9c a1 dd     	stz	$dda1                   ; 0xdda1 <__heap_start+0x5b11>
    25c0: e8           	inx
    25c1: 8e a1 dd     	stx	$dda1                   ; 0xdda1 <__heap_start+0x5b11>
    25c4: 8d a1 dd     	sta	$dda1                   ; 0xdda1 <__heap_start+0x5b11>
    25c7: 9c a1 dd     	stz	$dda1                   ; 0xdda1 <__heap_start+0x5b11>
    25ca: e8           	inx
    25cb: 8e a1 dd     	stx	$dda1                   ; 0xdda1 <__heap_start+0x5b11>
    25ce: 8d a1 dd     	sta	$dda1                   ; 0xdda1 <__heap_start+0x5b11>
    25d1: 9c a1 dd     	stz	$dda1                   ; 0xdda1 <__heap_start+0x5b11>
    25d4: e8           	inx
    25d5: 8e a1 dd     	stx	$dda1                   ; 0xdda1 <__heap_start+0x5b11>
    25d8: 8d a1 dd     	sta	$dda1                   ; 0xdda1 <__heap_start+0x5b11>
    25db: 9c a1 dd     	stz	$dda1                   ; 0xdda1 <__heap_start+0x5b11>
    25de: e8           	inx
    25df: 8e a1 dd     	stx	$dda1                   ; 0xdda1 <__heap_start+0x5b11>
    25e2: 8d a1 dd     	sta	$dda1                   ; 0xdda1 <__heap_start+0x5b11>
    25e5: 9c a1 dd     	stz	$dda1                   ; 0xdda1 <__heap_start+0x5b11>
    25e8: e8           	inx
    25e9: 8e a1 dd     	stx	$dda1                   ; 0xdda1 <__heap_start+0x5b11>
    25ec: 8d a1 dd     	sta	$dda1                   ; 0xdda1 <__heap_start+0x5b11>
    25ef: 9c a1 dd     	stz	$dda1                   ; 0xdda1 <__heap_start+0x5b11>
    25f2: e8           	inx
    25f3: 8e a1 dd     	stx	$dda1                   ; 0xdda1 <__heap_start+0x5b11>
    25f6: 8d a1 dd     	sta	$dda1                   ; 0xdda1 <__heap_start+0x5b11>
    25f9: 9c a1 dd     	stz	$dda1                   ; 0xdda1 <__heap_start+0x5b11>
    25fc: e8           	inx
    25fd: 8e a1 dd     	stx	$dda1                   ; 0xdda1 <__heap_start+0x5b11>
    2600: 8d a1 dd     	sta	$dda1                   ; 0xdda1 <__heap_start+0x5b11>
    2603: 9c a1 dd     	stz	$dda1                   ; 0xdda1 <__heap_start+0x5b11>
    2606: e8           	inx
    2607: 8e a1 dd     	stx	$dda1                   ; 0xdda1 <__heap_start+0x5b11>
    260a: 8d a1 dd     	sta	$dda1                   ; 0xdda1 <__heap_start+0x5b11>
    260d: 9c a1 dd     	stz	$dda1                   ; 0xdda1 <__heap_start+0x5b11>
    2610: e8           	inx
    2611: 8e a1 dd     	stx	$dda1                   ; 0xdda1 <__heap_start+0x5b11>
    2614: 8d a1 dd     	sta	$dda1                   ; 0xdda1 <__heap_start+0x5b11>
    2617: 9c a1 dd     	stz	$dda1                   ; 0xdda1 <__heap_start+0x5b11>
    261a: a9 9f        	lda	#$9f
    261c: 8d 00 d6     	sta	$d600                   ; 0xd600 <__heap_start+0x5370>
    261f: 8d 10 d6     	sta	$d610                   ; 0xd610 <__heap_start+0x5380>
    2622: 8e 00 d6     	stx	$d600                   ; 0xd600 <__heap_start+0x5370>
    2625: 8e 10 d6     	stx	$d610                   ; 0xd610 <__heap_start+0x5380>
    2628: a2 df        	ldx	#$df
    262a: 8e 00 d6     	stx	$d600                   ; 0xd600 <__heap_start+0x5370>
    262d: 8e 10 d6     	stx	$d610                   ; 0xd610 <__heap_start+0x5380>
    2630: a2 ff        	ldx	#$ff
    2632: 8e 00 d6     	stx	$d600                   ; 0xd600 <__heap_start+0x5370>
    2635: 8e 10 d6     	stx	$d610                   ; 0xd610 <__heap_start+0x5380>
    2638: 84 24        	sty	$24                     ; 0x24 <__rc20>
    263a: 20 df 50     	jsr	$50df <destroyTrack>
    263d: 20 a9 4b     	jsr	$4ba9 <initTrack>
    2640: a4 24        	ldy	$24                     ; 0x24 <__rc20>
    2642: 64 44        	stz	$44                     ; 0x44 <isJingleActive>
    2644: a6 62        	ldx	$62                     ; 0x62 <kernelEventData+0x4>
    2646: e0 92        	cpx	#$92
    2648: d0 03        	bne	$264d <main+0x20c2>
    264a: 4c 8b 19     	jmp	$198b <main+0x1400>
    264d: e0 20        	cpx	#$20
    264f: f0 03        	beq	$2654 <main+0x20c9>
    2651: 4c d0 28     	jmp	$28d0 <main+0x2345>
    2654: a2 b0        	ldx	#$b0
    2656: 8e a1 dd     	stx	$dda1                   ; 0xdda1 <__heap_start+0x5b11>
    2659: a9 7b        	lda	#$7b
    265b: 8d a1 dd     	sta	$dda1                   ; 0xdda1 <__heap_start+0x5b11>
    265e: 9c a1 dd     	stz	$dda1                   ; 0xdda1 <__heap_start+0x5b11>
    2661: e8           	inx
    2662: 8e a1 dd     	stx	$dda1                   ; 0xdda1 <__heap_start+0x5b11>
    2665: 8d a1 dd     	sta	$dda1                   ; 0xdda1 <__heap_start+0x5b11>
    2668: 9c a1 dd     	stz	$dda1                   ; 0xdda1 <__heap_start+0x5b11>
    266b: e8           	inx
    266c: 8e a1 dd     	stx	$dda1                   ; 0xdda1 <__heap_start+0x5b11>
    266f: 8d a1 dd     	sta	$dda1                   ; 0xdda1 <__heap_start+0x5b11>
    2672: 9c a1 dd     	stz	$dda1                   ; 0xdda1 <__heap_start+0x5b11>
    2675: e8           	inx
    2676: 8e a1 dd     	stx	$dda1                   ; 0xdda1 <__heap_start+0x5b11>
    2679: 8d a1 dd     	sta	$dda1                   ; 0xdda1 <__heap_start+0x5b11>
    267c: 9c a1 dd     	stz	$dda1                   ; 0xdda1 <__heap_start+0x5b11>
    267f: e8           	inx
    2680: 8e a1 dd     	stx	$dda1                   ; 0xdda1 <__heap_start+0x5b11>
    2683: 8d a1 dd     	sta	$dda1                   ; 0xdda1 <__heap_start+0x5b11>
    2686: 9c a1 dd     	stz	$dda1                   ; 0xdda1 <__heap_start+0x5b11>
    2689: e8           	inx
    268a: 8e a1 dd     	stx	$dda1                   ; 0xdda1 <__heap_start+0x5b11>
    268d: 8d a1 dd     	sta	$dda1                   ; 0xdda1 <__heap_start+0x5b11>
    2690: 9c a1 dd     	stz	$dda1                   ; 0xdda1 <__heap_start+0x5b11>
    2693: e8           	inx
    2694: 8e a1 dd     	stx	$dda1                   ; 0xdda1 <__heap_start+0x5b11>
    2697: 8d a1 dd     	sta	$dda1                   ; 0xdda1 <__heap_start+0x5b11>
    269a: 9c a1 dd     	stz	$dda1                   ; 0xdda1 <__heap_start+0x5b11>
    269d: e8           	inx
    269e: 8e a1 dd     	stx	$dda1                   ; 0xdda1 <__heap_start+0x5b11>
    26a1: 8d a1 dd     	sta	$dda1                   ; 0xdda1 <__heap_start+0x5b11>
    26a4: 9c a1 dd     	stz	$dda1                   ; 0xdda1 <__heap_start+0x5b11>
    26a7: e8           	inx
    26a8: 8e a1 dd     	stx	$dda1                   ; 0xdda1 <__heap_start+0x5b11>
    26ab: 8d a1 dd     	sta	$dda1                   ; 0xdda1 <__heap_start+0x5b11>
    26ae: 9c a1 dd     	stz	$dda1                   ; 0xdda1 <__heap_start+0x5b11>
    26b1: e8           	inx
    26b2: 8e a1 dd     	stx	$dda1                   ; 0xdda1 <__heap_start+0x5b11>
    26b5: 8d a1 dd     	sta	$dda1                   ; 0xdda1 <__heap_start+0x5b11>
    26b8: 9c a1 dd     	stz	$dda1                   ; 0xdda1 <__heap_start+0x5b11>
    26bb: e8           	inx
    26bc: 8e a1 dd     	stx	$dda1                   ; 0xdda1 <__heap_start+0x5b11>
    26bf: 8d a1 dd     	sta	$dda1                   ; 0xdda1 <__heap_start+0x5b11>
    26c2: 9c a1 dd     	stz	$dda1                   ; 0xdda1 <__heap_start+0x5b11>
    26c5: e8           	inx
    26c6: 8e a1 dd     	stx	$dda1                   ; 0xdda1 <__heap_start+0x5b11>
    26c9: 8d a1 dd     	sta	$dda1                   ; 0xdda1 <__heap_start+0x5b11>
    26cc: 9c a1 dd     	stz	$dda1                   ; 0xdda1 <__heap_start+0x5b11>
    26cf: e8           	inx
    26d0: 8e a1 dd     	stx	$dda1                   ; 0xdda1 <__heap_start+0x5b11>
    26d3: 8d a1 dd     	sta	$dda1                   ; 0xdda1 <__heap_start+0x5b11>
    26d6: 9c a1 dd     	stz	$dda1                   ; 0xdda1 <__heap_start+0x5b11>
    26d9: e8           	inx
    26da: 8e a1 dd     	stx	$dda1                   ; 0xdda1 <__heap_start+0x5b11>
    26dd: 8d a1 dd     	sta	$dda1                   ; 0xdda1 <__heap_start+0x5b11>
    26e0: 9c a1 dd     	stz	$dda1                   ; 0xdda1 <__heap_start+0x5b11>
    26e3: e8           	inx
    26e4: 8e a1 dd     	stx	$dda1                   ; 0xdda1 <__heap_start+0x5b11>
    26e7: 8d a1 dd     	sta	$dda1                   ; 0xdda1 <__heap_start+0x5b11>
    26ea: 9c a1 dd     	stz	$dda1                   ; 0xdda1 <__heap_start+0x5b11>
    26ed: e8           	inx
    26ee: 8e a1 dd     	stx	$dda1                   ; 0xdda1 <__heap_start+0x5b11>
    26f1: 8d a1 dd     	sta	$dda1                   ; 0xdda1 <__heap_start+0x5b11>
    26f4: 9c a1 dd     	stz	$dda1                   ; 0xdda1 <__heap_start+0x5b11>
    26f7: a9 9f        	lda	#$9f
    26f9: 8d 00 d6     	sta	$d600                   ; 0xd600 <__heap_start+0x5370>
    26fc: 8d 10 d6     	sta	$d610                   ; 0xd610 <__heap_start+0x5380>
    26ff: 8e 00 d6     	stx	$d600                   ; 0xd600 <__heap_start+0x5370>
    2702: 8e 10 d6     	stx	$d610                   ; 0xd610 <__heap_start+0x5380>
    2705: a2 df        	ldx	#$df
    2707: 8e 00 d6     	stx	$d600                   ; 0xd600 <__heap_start+0x5370>
    270a: 8e 10 d6     	stx	$d610                   ; 0xd610 <__heap_start+0x5380>
    270d: a2 ff        	ldx	#$ff
    270f: 8e 00 d6     	stx	$d600                   ; 0xd600 <__heap_start+0x5370>
    2712: 8e 10 d6     	stx	$d610                   ; 0xd610 <__heap_start+0x5380>
    2715: a6 44        	ldx	$44                     ; 0x44 <isJingleActive>
    2717: f0 03        	beq	$271c <main+0x2191>
    2719: 4c ca 28     	jmp	$28ca <main+0x233f>
    271c: a2 01        	ldx	#$1
    271e: 4c cc 28     	jmp	$28cc <main+0x2341>
    2721: e4 4c        	cpx	$4c                     ; 0x4c <theOne.0+0x1>
    2723: b0 03        	bcs	$2728 <main+0x219d>
    2725: 4c 63 24     	jmp	$2463 <main+0x1ed8>
    2728: a2 b0        	ldx	#$b0
    272a: 8e a1 dd     	stx	$dda1                   ; 0xdda1 <__heap_start+0x5b11>
    272d: a0 7b        	ldy	#$7b
    272f: 8c a1 dd     	sty	$dda1                   ; 0xdda1 <__heap_start+0x5b11>
    2732: 9c a1 dd     	stz	$dda1                   ; 0xdda1 <__heap_start+0x5b11>
    2735: e8           	inx
    2736: 8e a1 dd     	stx	$dda1                   ; 0xdda1 <__heap_start+0x5b11>
    2739: 8c a1 dd     	sty	$dda1                   ; 0xdda1 <__heap_start+0x5b11>
    273c: 9c a1 dd     	stz	$dda1                   ; 0xdda1 <__heap_start+0x5b11>
    273f: e8           	inx
    2740: 8e a1 dd     	stx	$dda1                   ; 0xdda1 <__heap_start+0x5b11>
    2743: 8c a1 dd     	sty	$dda1                   ; 0xdda1 <__heap_start+0x5b11>
    2746: 9c a1 dd     	stz	$dda1                   ; 0xdda1 <__heap_start+0x5b11>
    2749: e8           	inx
    274a: 8e a1 dd     	stx	$dda1                   ; 0xdda1 <__heap_start+0x5b11>
    274d: 8c a1 dd     	sty	$dda1                   ; 0xdda1 <__heap_start+0x5b11>
    2750: 9c a1 dd     	stz	$dda1                   ; 0xdda1 <__heap_start+0x5b11>
    2753: e8           	inx
    2754: 8e a1 dd     	stx	$dda1                   ; 0xdda1 <__heap_start+0x5b11>
    2757: 8c a1 dd     	sty	$dda1                   ; 0xdda1 <__heap_start+0x5b11>
    275a: 9c a1 dd     	stz	$dda1                   ; 0xdda1 <__heap_start+0x5b11>
    275d: e8           	inx
    275e: 8e a1 dd     	stx	$dda1                   ; 0xdda1 <__heap_start+0x5b11>
    2761: 8c a1 dd     	sty	$dda1                   ; 0xdda1 <__heap_start+0x5b11>
    2764: 9c a1 dd     	stz	$dda1                   ; 0xdda1 <__heap_start+0x5b11>
    2767: e8           	inx
    2768: 8e a1 dd     	stx	$dda1                   ; 0xdda1 <__heap_start+0x5b11>
    276b: 8c a1 dd     	sty	$dda1                   ; 0xdda1 <__heap_start+0x5b11>
    276e: 9c a1 dd     	stz	$dda1                   ; 0xdda1 <__heap_start+0x5b11>
    2771: e8           	inx
    2772: 8e a1 dd     	stx	$dda1                   ; 0xdda1 <__heap_start+0x5b11>
    2775: 8c a1 dd     	sty	$dda1                   ; 0xdda1 <__heap_start+0x5b11>
    2778: 9c a1 dd     	stz	$dda1                   ; 0xdda1 <__heap_start+0x5b11>
    277b: e8           	inx
    277c: 8e a1 dd     	stx	$dda1                   ; 0xdda1 <__heap_start+0x5b11>
    277f: 8c a1 dd     	sty	$dda1                   ; 0xdda1 <__heap_start+0x5b11>
    2782: 9c a1 dd     	stz	$dda1                   ; 0xdda1 <__heap_start+0x5b11>
    2785: e8           	inx
    2786: 8e a1 dd     	stx	$dda1                   ; 0xdda1 <__heap_start+0x5b11>
    2789: 8c a1 dd     	sty	$dda1                   ; 0xdda1 <__heap_start+0x5b11>
    278c: 9c a1 dd     	stz	$dda1                   ; 0xdda1 <__heap_start+0x5b11>
    278f: e8           	inx
    2790: 8e a1 dd     	stx	$dda1                   ; 0xdda1 <__heap_start+0x5b11>
    2793: 8c a1 dd     	sty	$dda1                   ; 0xdda1 <__heap_start+0x5b11>
    2796: 9c a1 dd     	stz	$dda1                   ; 0xdda1 <__heap_start+0x5b11>
    2799: e8           	inx
    279a: 8e a1 dd     	stx	$dda1                   ; 0xdda1 <__heap_start+0x5b11>
    279d: 8c a1 dd     	sty	$dda1                   ; 0xdda1 <__heap_start+0x5b11>
    27a0: 9c a1 dd     	stz	$dda1                   ; 0xdda1 <__heap_start+0x5b11>
    27a3: e8           	inx
    27a4: 8e a1 dd     	stx	$dda1                   ; 0xdda1 <__heap_start+0x5b11>
    27a7: 8c a1 dd     	sty	$dda1                   ; 0xdda1 <__heap_start+0x5b11>
    27aa: 9c a1 dd     	stz	$dda1                   ; 0xdda1 <__heap_start+0x5b11>
    27ad: e8           	inx
    27ae: 8e a1 dd     	stx	$dda1                   ; 0xdda1 <__heap_start+0x5b11>
    27b1: 8c a1 dd     	sty	$dda1                   ; 0xdda1 <__heap_start+0x5b11>
    27b4: 9c a1 dd     	stz	$dda1                   ; 0xdda1 <__heap_start+0x5b11>
    27b7: e8           	inx
    27b8: 8e a1 dd     	stx	$dda1                   ; 0xdda1 <__heap_start+0x5b11>
    27bb: 8c a1 dd     	sty	$dda1                   ; 0xdda1 <__heap_start+0x5b11>
    27be: 9c a1 dd     	stz	$dda1                   ; 0xdda1 <__heap_start+0x5b11>
    27c1: e8           	inx
    27c2: 8e a1 dd     	stx	$dda1                   ; 0xdda1 <__heap_start+0x5b11>
    27c5: 8c a1 dd     	sty	$dda1                   ; 0xdda1 <__heap_start+0x5b11>
    27c8: 9c a1 dd     	stz	$dda1                   ; 0xdda1 <__heap_start+0x5b11>
    27cb: a0 9f        	ldy	#$9f
    27cd: 8c 00 d6     	sty	$d600                   ; 0xd600 <__heap_start+0x5370>
    27d0: 8c 10 d6     	sty	$d610                   ; 0xd610 <__heap_start+0x5380>
    27d3: 8e 00 d6     	stx	$d600                   ; 0xd600 <__heap_start+0x5370>
    27d6: 8e 10 d6     	stx	$d610                   ; 0xd610 <__heap_start+0x5380>
    27d9: a2 df        	ldx	#$df
    27db: 8e 00 d6     	stx	$d600                   ; 0xd600 <__heap_start+0x5370>
    27de: 8e 10 d6     	stx	$d610                   ; 0xd610 <__heap_start+0x5380>
    27e1: a2 ff        	ldx	#$ff
    27e3: 8e 00 d6     	stx	$d600                   ; 0xd600 <__heap_start+0x5370>
    27e6: 8e 10 d6     	stx	$d610                   ; 0xd610 <__heap_start+0x5380>
    27e9: 20 df 50     	jsr	$50df <destroyTrack>
    27ec: 20 a9 4b     	jsr	$4ba9 <initTrack>
    27ef: 64 44        	stz	$44                     ; 0x44 <isJingleActive>
    27f1: a6 42        	ldx	$42                     ; 0x42 <catSelected>
    27f3: a0 03        	ldy	#$3
    27f5: e0 04        	cpx	#$4
    27f7: f0 03        	beq	$27fc <main+0x2271>
    27f9: 4c 28 22     	jmp	$2228 <main+0x1c9d>
    27fc: a2 07        	ldx	#$7
    27fe: 86 31        	stx	$31                     ; 0x31 <_col>
    2800: 8e 14 d0     	stx	$d014                   ; 0xd014 <__heap_start+0x4d84>
    2803: 86 28        	stx	$28                     ; 0x28 <__rc24>
    2805: 9c 15 d0     	stz	$d015                   ; 0xd015 <__heap_start+0x4d85>
    2808: a2 0b        	ldx	#$b
    280a: 86 32        	stx	$32                     ; 0x32 <_row>
    280c: 8e 16 d0     	stx	$d016                   ; 0xd016 <__heap_start+0x4d86>
    280f: 9c 17 d0     	stz	$d017                   ; 0xd017 <__heap_start+0x4d87>
    2812: a2 de        	ldx	#$de
    2814: 86 24        	stx	$24                     ; 0x24 <__rc20>
    2816: a2 6c        	ldx	#$6c
    2818: 86 25        	stx	$25                     ; 0x25 <__rc21>
    281a: a2 de        	ldx	#$de
    281c: 86 12        	stx	$12                     ; 0x12 <__rc2>
    281e: a2 6c        	ldx	#$6c
    2820: 86 13        	stx	$13                     ; 0x13 <__rc3>
    2822: 84 2c        	sty	$2c                     ; 0x2c <__rc28>
    2824: 20 51 57     	jsr	$5751 <printf>
    2827: a6 28        	ldx	$28                     ; 0x28 <__rc24>
    2829: 86 31        	stx	$31                     ; 0x31 <_col>
    282b: 8e 14 d0     	stx	$d014                   ; 0xd014 <__heap_start+0x4d84>
    282e: 9c 15 d0     	stz	$d015                   ; 0xd015 <__heap_start+0x4d85>
    2831: a2 0c        	ldx	#$c
    2833: 86 32        	stx	$32                     ; 0x32 <_row>
    2835: 8e 16 d0     	stx	$d016                   ; 0xd016 <__heap_start+0x4d86>
    2838: 9c 17 d0     	stz	$d017                   ; 0xd017 <__heap_start+0x4d87>
    283b: a2 de        	ldx	#$de
    283d: 86 12        	stx	$12                     ; 0x12 <__rc2>
    283f: a2 6c        	ldx	#$6c
    2841: 86 13        	stx	$13                     ; 0x13 <__rc3>
    2843: 20 51 57     	jsr	$5751 <printf>
    2846: a6 28        	ldx	$28                     ; 0x28 <__rc24>
    2848: 86 31        	stx	$31                     ; 0x31 <_col>
    284a: 8e 14 d0     	stx	$d014                   ; 0xd014 <__heap_start+0x4d84>
    284d: 9c 15 d0     	stz	$d015                   ; 0xd015 <__heap_start+0x4d85>
    2850: a2 0d        	ldx	#$d
    2852: 86 32        	stx	$32                     ; 0x32 <_row>
    2854: 8e 16 d0     	stx	$d016                   ; 0xd016 <__heap_start+0x4d86>
    2857: 9c 17 d0     	stz	$d017                   ; 0xd017 <__heap_start+0x4d87>
    285a: a2 de        	ldx	#$de
    285c: 86 12        	stx	$12                     ; 0x12 <__rc2>
    285e: a2 6c        	ldx	#$6c
    2860: 86 13        	stx	$13                     ; 0x13 <__rc3>
    2862: 20 51 57     	jsr	$5751 <printf>
    2865: a6 28        	ldx	$28                     ; 0x28 <__rc24>
    2867: 86 31        	stx	$31                     ; 0x31 <_col>
    2869: 8e 14 d0     	stx	$d014                   ; 0xd014 <__heap_start+0x4d84>
    286c: 9c 15 d0     	stz	$d015                   ; 0xd015 <__heap_start+0x4d85>
    286f: a2 0e        	ldx	#$e
    2871: 86 32        	stx	$32                     ; 0x32 <_row>
    2873: 8e 16 d0     	stx	$d016                   ; 0xd016 <__heap_start+0x4d86>
    2876: 9c 17 d0     	stz	$d017                   ; 0xd017 <__heap_start+0x4d87>
    2879: a2 de        	ldx	#$de
    287b: 86 12        	stx	$12                     ; 0x12 <__rc2>
    287d: a2 6c        	ldx	#$6c
    287f: 86 13        	stx	$13                     ; 0x13 <__rc3>
    2881: 20 51 57     	jsr	$5751 <printf>
    2884: a6 28        	ldx	$28                     ; 0x28 <__rc24>
    2886: 86 31        	stx	$31                     ; 0x31 <_col>
    2888: 8e 14 d0     	stx	$d014                   ; 0xd014 <__heap_start+0x4d84>
    288b: 9c 15 d0     	stz	$d015                   ; 0xd015 <__heap_start+0x4d85>
    288e: a2 0f        	ldx	#$f
    2890: 86 32        	stx	$32                     ; 0x32 <_row>
    2892: 8e 16 d0     	stx	$d016                   ; 0xd016 <__heap_start+0x4d86>
    2895: 9c 17 d0     	stz	$d017                   ; 0xd017 <__heap_start+0x4d87>
    2898: a2 de        	ldx	#$de
    289a: 86 12        	stx	$12                     ; 0x12 <__rc2>
    289c: a2 6c        	ldx	#$6c
    289e: 86 13        	stx	$13                     ; 0x13 <__rc3>
    28a0: 20 51 57     	jsr	$5751 <printf>
    28a3: a4 2c        	ldy	$2c                     ; 0x2c <__rc28>
    28a5: 4c 28 22     	jmp	$2228 <main+0x1c9d>
    28a8: a6 62        	ldx	$62                     ; 0x62 <kernelEventData+0x4>
    28aa: e0 03        	cpx	#$3
    28ac: d0 03        	bne	$28b1 <main+0x2326>
    28ae: 4c 1e 22     	jmp	$221e <main+0x1c93>
    28b1: e0 01        	cpx	#$1
    28b3: f0 03        	beq	$28b8 <main+0x232d>
    28b5: 4c 28 22     	jmp	$2228 <main+0x1c9d>
    28b8: a2 9f        	ldx	#$9f
    28ba: 8e 08 d6     	stx	$d608                   ; 0xd608 <__heap_start+0x5378>
    28bd: 4c 28 22     	jmp	$2228 <main+0x1c9d>
    28c0: c9 00        	cmp	#$0
    28c2: b0 03        	bcs	$28c7 <main+0x233c>
    28c4: 4c 6b 22     	jmp	$226b <main+0x1ce0>
    28c7: 4c ae 22     	jmp	$22ae <main+0x1d23>
    28ca: a2 00        	ldx	#$0
    28cc: 86 44        	stx	$44                     ; 0x44 <isJingleActive>
    28ce: a6 62        	ldx	$62                     ; 0x62 <kernelEventData+0x4>
    28d0: e0 b7        	cpx	#$b7
    28d2: d0 03        	bne	$28d7 <main+0x234c>
    28d4: 4c 3f 19     	jmp	$193f <main+0x13b4>
    28d7: e0 b6        	cpx	#$b6
    28d9: d0 03        	bne	$28de <main+0x2353>
    28db: 4c 53 19     	jmp	$1953 <main+0x13c8>
    28de: e0 b8        	cpx	#$b8
    28e0: d0 03        	bne	$28e5 <main+0x235a>
    28e2: 4c 67 19     	jmp	$1967 <main+0x13dc>
    28e5: e0 b9        	cpx	#$b9
    28e7: d0 03        	bne	$28ec <main+0x2361>
    28e9: 4c 79 19     	jmp	$1979 <main+0x13ee>
    28ec: e0 62        	cpx	#$62
    28ee: d0 03        	bne	$28f3 <main+0x2368>
    28f0: 4c 8b 19     	jmp	$198b <main+0x1400>
    28f3: e0 66        	cpx	#$66
    28f5: d0 03        	bne	$28fa <main+0x236f>
    28f7: 4c 37 1a     	jmp	$1a37 <main+0x14ac>
    28fa: e0 94        	cpx	#$94
    28fc: f0 03        	beq	$2901 <main+0x2376>
    28fe: 4c 28 22     	jmp	$2228 <main+0x1c9d>
    2901: 64 fb        	stz	$fb                     ; 0xfb <__zp_bss_size+0xc0>
    2903: a0 02        	ldy	#$2
    2905: 84 fc        	sty	$fc                     ; 0xfc <__zp_bss_size+0xc1>
    2907: 84 fd        	sty	$fd                     ; 0xfd <__zp_bss_size+0xc2>
    2909: a2 80        	ldx	#$80
    290b: 86 f8        	stx	$f8                     ; 0xf8 <__zp_bss_size+0xbd>
    290d: 84 f9        	sty	$f9                     ; 0xf9 <__zp_bss_size+0xbe>
    290f: a2 04        	ldx	#$4
    2911: 86 fa        	stx	$fa                     ; 0xfa <__zp_bss_size+0xbf>
    2913: a5 42        	lda	$42                     ; 0x42 <catSelected>
    2915: a2 65        	ldx	#$65
    2917: a0 05        	ldy	#$5
    2919: 86 12        	stx	$12                     ; 0x12 <__rc2>
    291b: 84 13        	sty	$13                     ; 0x13 <__rc3>
    291d: a2 00        	ldx	#$0
    291f: 85 24        	sta	$24                     ; 0x24 <__rc20>
    2921: 20 f6 6a     	jsr	$6af6 <__mulhi3>
    2924: 85 12        	sta	$12                     ; 0x12 <__rc2>
    2926: 86 13        	stx	$13                     ; 0x13 <__rc3>
    2928: a9 fb        	lda	#$fb
    292a: 18           	clc
    292b: 65 12        	adc	$12                     ; 0x12 <__rc2>
    292d: 85 25        	sta	$25                     ; 0x25 <__rc21>
    292f: a9 6c        	lda	#$6c
    2931: 65 13        	adc	$13                     ; 0x13 <__rc3>
    2933: 85 27        	sta	$27                     ; 0x27 <__rc23>
    2935: a5 41        	lda	$41                     ; 0x41 <selected>
    2937: a2 73        	ldx	#$73
    2939: 86 12        	stx	$12                     ; 0x12 <__rc2>
    293b: 64 13        	stz	$13                     ; 0x13 <__rc3>
    293d: a2 00        	ldx	#$0
    293f: 85 26        	sta	$26                     ; 0x26 <__rc22>
    2941: 20 f6 6a     	jsr	$6af6 <__mulhi3>
    2944: 85 12        	sta	$12                     ; 0x12 <__rc2>
    2946: 86 13        	stx	$13                     ; 0x13 <__rc3>
    2948: a5 25        	lda	$25                     ; 0x25 <__rc21>
    294a: 18           	clc
    294b: 65 12        	adc	$12                     ; 0x12 <__rc2>
    294d: 85 12        	sta	$12                     ; 0x12 <__rc2>
    294f: a5 27        	lda	$27                     ; 0x27 <__rc23>
    2951: 65 13        	adc	$13                     ; 0x13 <__rc3>
    2953: 85 13        	sta	$13                     ; 0x13 <__rc3>
    2955: a0 37        	ldy	#$37
    2957: b1 12        	lda	($12),y                 ; 0x12 <__rc2>
    2959: aa           	tax
    295a: b1 12        	lda	($12),y                 ; 0x12 <__rc2>
    295c: 8d 02 02     	sta	$202                    ; 0x202 <__zp_bss_size+0x1c7>
    295f: a0 0a        	ldy	#$a
    2961: b1 10        	lda	($10),y                 ; 0x10 <__rc0>
    2963: 85 28        	sta	$28                     ; 0x28 <__rc24>
    2965: c8           	iny
    2966: b1 10        	lda	($10),y                 ; 0x10 <__rc0>
    2968: 85 29        	sta	$29                     ; 0x29 <__rc25>
    296a: 8a           	txa
    296b: d0 03        	bne	$2970 <main+0x23e5>
    296d: 4c da 29     	jmp	$29da <main+0x244f>
    2970: a2 65        	ldx	#$65
    2972: a0 05        	ldy	#$5
    2974: 86 12        	stx	$12                     ; 0x12 <__rc2>
    2976: 84 13        	sty	$13                     ; 0x13 <__rc3>
    2978: a2 00        	ldx	#$0
    297a: a5 24        	lda	$24                     ; 0x24 <__rc20>
    297c: 20 f6 6a     	jsr	$6af6 <__mulhi3>
    297f: 85 24        	sta	$24                     ; 0x24 <__rc20>
    2981: 86 25        	stx	$25                     ; 0x25 <__rc21>
    2983: a2 73        	ldx	#$73
    2985: 64 13        	stz	$13                     ; 0x13 <__rc3>
    2987: 86 12        	stx	$12                     ; 0x12 <__rc2>
    2989: a2 00        	ldx	#$0
    298b: a5 26        	lda	$26                     ; 0x26 <__rc22>
    298d: 20 f6 6a     	jsr	$6af6 <__mulhi3>
    2990: 85 12        	sta	$12                     ; 0x12 <__rc2>
    2992: 86 13        	stx	$13                     ; 0x13 <__rc3>
    2994: a9 fb        	lda	#$fb
    2996: a0 00        	ldy	#$0
    2998: 18           	clc
    2999: 65 24        	adc	$24                     ; 0x24 <__rc20>
    299b: aa           	tax
    299c: a9 6c        	lda	#$6c
    299e: 65 25        	adc	$25                     ; 0x25 <__rc21>
    29a0: 85 14        	sta	$14                     ; 0x14 <__rc4>
    29a2: 8a           	txa
    29a3: 18           	clc
    29a4: 65 12        	adc	$12                     ; 0x12 <__rc2>
    29a6: 85 15        	sta	$15                     ; 0x15 <__rc5>
    29a8: a5 14        	lda	$14                     ; 0x14 <__rc4>
    29aa: 65 13        	adc	$13                     ; 0x13 <__rc3>
    29ac: 85 12        	sta	$12                     ; 0x12 <__rc2>
    29ae: 18           	clc
    29af: a5 15        	lda	$15                     ; 0x15 <__rc5>
    29b1: 69 38        	adc	#$38
    29b3: aa           	tax
    29b4: a5 12        	lda	$12                     ; 0x12 <__rc2>
    29b6: 69 00        	adc	#$0
    29b8: 85 13        	sta	$13                     ; 0x13 <__rc3>
    29ba: 86 12        	stx	$12                     ; 0x12 <__rc2>
    29bc: 80 0b        	bra	$29c9 <main+0x243e>
    29be: e6 29        	inc	$29                     ; 0x29 <__rc25>
    29c0: e6 12        	inc	$12                     ; 0x12 <__rc2>
    29c2: d0 02        	bne	$29c6 <main+0x243b>
    29c4: e6 13        	inc	$13                     ; 0x13 <__rc3>
    29c6: 8a           	txa
    29c7: f0 11        	beq	$29da <main+0x244f>
    29c9: b2 12        	lda	($12)                   ; 0x12 <__rc2>
    29cb: aa           	tax
    29cc: b2 12        	lda	($12)                   ; 0x12 <__rc2>
    29ce: 92 28        	sta	($28)                   ; 0x28 <__rc24>
    29d0: e6 28        	inc	$28                     ; 0x28 <__rc24>
    29d2: f0 ea        	beq	$29be <main+0x2433>
    29d4: e6 12        	inc	$12                     ; 0x12 <__rc2>
    29d6: f0 ec        	beq	$29c4 <main+0x2439>
    29d8: 80 ec        	bra	$29c6 <main+0x243b>
    29da: a2 2d        	ldx	#$2d
    29dc: 8e 00 02     	stx	$200                    ; 0x200 <__zp_bss_size+0x1c5>
    29df: 9c 01 02     	stz	$201                    ; 0x201 <__zp_bss_size+0x1c6>
    29e2: 9c 80 02     	stz	$280                    ; 0x280 <__zp_bss_size+0x245>
    29e5: a2 02        	ldx	#$2
    29e7: 8e 81 02     	stx	$281                    ; 0x281 <__zp_bss_size+0x246>
    29ea: 8e 82 02     	stx	$282                    ; 0x282 <__zp_bss_size+0x247>
    29ed: 8e 83 02     	stx	$283                    ; 0x283 <__zp_bss_size+0x248>
    29f0: 86 12        	stx	$12                     ; 0x12 <__rc2>
    29f2: 9c 84 02     	stz	$284                    ; 0x284 <__zp_bss_size+0x249>
    29f5: a6 01        	ldx	$1                      ; 0x1 <__zp_data_size>
    29f7: 86 18        	stx	$18                     ; 0x18 <__rc8>
    29f9: a2 50        	ldx	#$50
    29fb: 8e 00 de     	stx	$de00                   ; 0xde00 <__heap_start+0x5b70>
    29fe: 9c 01 de     	stz	$de01                   ; 0xde01 <__heap_start+0x5b71>
    2a01: a2 1e        	ldx	#$1e
    2a03: 8e 02 de     	stx	$de02                   ; 0xde02 <__heap_start+0x5b72>
    2a06: 9c 03 de     	stz	$de03                   ; 0xde03 <__heap_start+0x5b73>
    2a09: ae 10 de     	ldx	$de10                   ; 0xde10 <__heap_start+0x5b80>
    2a0c: ac 11 de     	ldy	$de11                   ; 0xde11 <__heap_start+0x5b81>
    2a0f: ad 12 de     	lda	$de12                   ; 0xde12 <__heap_start+0x5b82>
    2a12: ad 13 de     	lda	$de13                   ; 0xde13 <__heap_start+0x5b83>
    2a15: a5 12        	lda	$12                     ; 0x12 <__rc2>
    2a17: 85 01        	sta	$1                      ; 0x1 <__zp_data_size>
    2a19: e0 01        	cpx	#$1
    2a1b: 98           	tya
    2a1c: e9 00        	sbc	#$0
    2a1e: 48           	pha
    2a1f: 5a           	phy
    2a20: a0 0c        	ldy	#$c
    2a22: b1 10        	lda	($10),y                 ; 0x10 <__rc0>
    2a24: 85 16        	sta	$16                     ; 0x16 <__rc6>
    2a26: c8           	iny
    2a27: b1 10        	lda	($10),y                 ; 0x10 <__rc0>
    2a29: 7a           	ply
    2a2a: 85 17        	sta	$17                     ; 0x17 <__rc7>
    2a2c: 68           	pla
    2a2d: 50 02        	bvc	$2a31 <main+0x24a6>
    2a2f: 49 80        	eor	#$80
    2a31: c9 00        	cmp	#$0
    2a33: 10 03        	bpl	$2a38 <main+0x24ad>
    2a35: 4c 93 2a     	jmp	$2a93 <main+0x2508>
    2a38: a9 20        	lda	#$20
    2a3a: 86 19        	stx	$19                     ; 0x19 <__rc9>
    2a3c: 86 12        	stx	$12                     ; 0x12 <__rc2>
    2a3e: 84 13        	sty	$13                     ; 0x13 <__rc3>
    2a40: a6 16        	ldx	$16                     ; 0x16 <__rc6>
    2a42: 86 14        	stx	$14                     ; 0x14 <__rc4>
    2a44: a6 17        	ldx	$17                     ; 0x17 <__rc7>
    2a46: 86 15        	stx	$15                     ; 0x15 <__rc5>
    2a48: 80 04        	bra	$2a4e <main+0x24c3>
    2a4a: a6 13        	ldx	$13                     ; 0x13 <__rc3>
    2a4c: f0 14        	beq	$2a62 <main+0x24d7>
    2a4e: 92 14        	sta	($14)                   ; 0x14 <__rc4>
    2a50: e6 14        	inc	$14                     ; 0x14 <__rc4>
    2a52: d0 02        	bne	$2a56 <main+0x24cb>
    2a54: e6 15        	inc	$15                     ; 0x15 <__rc5>
    2a56: a2 ff        	ldx	#$ff
    2a58: c6 12        	dec	$12                     ; 0x12 <__rc2>
    2a5a: e4 12        	cpx	$12                     ; 0x12 <__rc2>
    2a5c: d0 ec        	bne	$2a4a <main+0x24bf>
    2a5e: c6 13        	dec	$13                     ; 0x13 <__rc3>
    2a60: 80 e8        	bra	$2a4a <main+0x24bf>
    2a62: a6 12        	ldx	$12                     ; 0x12 <__rc2>
    2a64: d0 e8        	bne	$2a4e <main+0x24c3>
    2a66: a2 03        	ldx	#$3
    2a68: 86 01        	stx	$1                      ; 0x1 <__zp_data_size>
    2a6a: a6 30        	ldx	$30                     ; 0x30 <_ccolor>
    2a6c: 86 12        	stx	$12                     ; 0x12 <__rc2>
    2a6e: a6 19        	ldx	$19                     ; 0x19 <__rc9>
    2a70: 80 03        	bra	$2a75 <main+0x24ea>
    2a72: 98           	tya
    2a73: f0 19        	beq	$2a8e <main+0x2503>
    2a75: a5 12        	lda	$12                     ; 0x12 <__rc2>
    2a77: 92 16        	sta	($16)                   ; 0x16 <__rc6>
    2a79: e6 16        	inc	$16                     ; 0x16 <__rc6>
    2a7b: f0 07        	beq	$2a84 <main+0x24f9>
    2a7d: ca           	dex
    2a7e: e0 ff        	cpx	#$ff
    2a80: d0 f0        	bne	$2a72 <main+0x24e7>
    2a82: 80 07        	bra	$2a8b <main+0x2500>
    2a84: e6 17        	inc	$17                     ; 0x17 <__rc7>
    2a86: ca           	dex
    2a87: e0 ff        	cpx	#$ff
    2a89: d0 e7        	bne	$2a72 <main+0x24e7>
    2a8b: 88           	dey
    2a8c: 80 e4        	bra	$2a72 <main+0x24e7>
    2a8e: 8a           	txa
    2a8f: d0 e4        	bne	$2a75 <main+0x24ea>
    2a91: 80 04        	bra	$2a97 <main+0x250c>
    2a93: a2 03        	ldx	#$3
    2a95: 86 01        	stx	$1                      ; 0x1 <__zp_data_size>
    2a97: a6 18        	ldx	$18                     ; 0x18 <__rc8>
    2a99: 86 01        	stx	$1                      ; 0x1 <__zp_data_size>
    2a9b: 64 31        	stz	$31                     ; 0x31 <_col>
    2a9d: 9c 14 d0     	stz	$d014                   ; 0xd014 <__heap_start+0x4d84>
    2aa0: 9c 15 d0     	stz	$d015                   ; 0xd015 <__heap_start+0x4d85>
    2aa3: 64 32        	stz	$32                     ; 0x32 <_row>
    2aa5: 9c 16 d0     	stz	$d016                   ; 0xd016 <__heap_start+0x4d86>
    2aa8: 9c 17 d0     	stz	$d017                   ; 0xd017 <__heap_start+0x4d87>
    2aab: a2 0f        	ldx	#$f
    2aad: 8e 00 d0     	stx	$d000                   ; 0xd000 <__heap_start+0x4d70>
    2ab0: 9c 01 d0     	stz	$d001                   ; 0xd001 <__heap_start+0x4d71>
    2ab3: a0 d9        	ldy	#$d9
    2ab5: a2 40        	ldx	#$40
    2ab7: 64 12        	stz	$12                     ; 0x12 <__rc2>
    2ab9: 84 13        	sty	$13                     ; 0x13 <__rc3>
    2abb: a9 00        	lda	#$0
    2abd: 92 12        	sta	($12)                   ; 0x12 <__rc2>
    2abf: ca           	dex
    2ac0: 18           	clc
    2ac1: a5 12        	lda	$12                     ; 0x12 <__rc2>
    2ac3: 69 08        	adc	#$8
    2ac5: 85 12        	sta	$12                     ; 0x12 <__rc2>
    2ac7: 98           	tya
    2ac8: 69 00        	adc	#$0
    2aca: a8           	tay
    2acb: 8a           	txa
    2acc: d0 eb        	bne	$2ab9 <main+0x252e>
    2ace: 9c 00 d1     	stz	$d100                   ; 0xd100 <__heap_start+0x4e70>
    2ad1: 9c 08 d1     	stz	$d108                   ; 0xd108 <__heap_start+0x4e78>
    2ad4: 9c 10 d1     	stz	$d110                   ; 0xd110 <__heap_start+0x4e80>
    2ad7: ad 01 d0     	lda	$d001                   ; 0xd001 <__heap_start+0x4d71>
    2ada: 29 ef        	and	#$ef
    2adc: 8d 01 d0     	sta	$d001                   ; 0xd001 <__heap_start+0x4d71>
    2adf: a2 b0        	ldx	#$b0
    2ae1: 8e a1 dd     	stx	$dda1                   ; 0xdda1 <__heap_start+0x5b11>
    2ae4: a2 7b        	ldx	#$7b
    2ae6: 8e a1 dd     	stx	$dda1                   ; 0xdda1 <__heap_start+0x5b11>
    2ae9: 9c a1 dd     	stz	$dda1                   ; 0xdda1 <__heap_start+0x5b11>
    2aec: a0 b1        	ldy	#$b1
    2aee: 8c a1 dd     	sty	$dda1                   ; 0xdda1 <__heap_start+0x5b11>
    2af1: 8e a1 dd     	stx	$dda1                   ; 0xdda1 <__heap_start+0x5b11>
    2af4: 9c a1 dd     	stz	$dda1                   ; 0xdda1 <__heap_start+0x5b11>
    2af7: c8           	iny
    2af8: 8c a1 dd     	sty	$dda1                   ; 0xdda1 <__heap_start+0x5b11>
    2afb: 8e a1 dd     	stx	$dda1                   ; 0xdda1 <__heap_start+0x5b11>
    2afe: 9c a1 dd     	stz	$dda1                   ; 0xdda1 <__heap_start+0x5b11>
    2b01: c8           	iny
    2b02: 8c a1 dd     	sty	$dda1                   ; 0xdda1 <__heap_start+0x5b11>
    2b05: 8e a1 dd     	stx	$dda1                   ; 0xdda1 <__heap_start+0x5b11>
    2b08: 9c a1 dd     	stz	$dda1                   ; 0xdda1 <__heap_start+0x5b11>
    2b0b: c8           	iny
    2b0c: 8c a1 dd     	sty	$dda1                   ; 0xdda1 <__heap_start+0x5b11>
    2b0f: 8e a1 dd     	stx	$dda1                   ; 0xdda1 <__heap_start+0x5b11>
    2b12: 9c a1 dd     	stz	$dda1                   ; 0xdda1 <__heap_start+0x5b11>
    2b15: c8           	iny
    2b16: 8c a1 dd     	sty	$dda1                   ; 0xdda1 <__heap_start+0x5b11>
    2b19: 8e a1 dd     	stx	$dda1                   ; 0xdda1 <__heap_start+0x5b11>
    2b1c: 9c a1 dd     	stz	$dda1                   ; 0xdda1 <__heap_start+0x5b11>
    2b1f: c8           	iny
    2b20: 8c a1 dd     	sty	$dda1                   ; 0xdda1 <__heap_start+0x5b11>
    2b23: 8e a1 dd     	stx	$dda1                   ; 0xdda1 <__heap_start+0x5b11>
    2b26: 9c a1 dd     	stz	$dda1                   ; 0xdda1 <__heap_start+0x5b11>
    2b29: c8           	iny
    2b2a: 8c a1 dd     	sty	$dda1                   ; 0xdda1 <__heap_start+0x5b11>
    2b2d: 8e a1 dd     	stx	$dda1                   ; 0xdda1 <__heap_start+0x5b11>
    2b30: 9c a1 dd     	stz	$dda1                   ; 0xdda1 <__heap_start+0x5b11>
    2b33: c8           	iny
    2b34: 8c a1 dd     	sty	$dda1                   ; 0xdda1 <__heap_start+0x5b11>
    2b37: 8e a1 dd     	stx	$dda1                   ; 0xdda1 <__heap_start+0x5b11>
    2b3a: 9c a1 dd     	stz	$dda1                   ; 0xdda1 <__heap_start+0x5b11>
    2b3d: c8           	iny
    2b3e: 8c a1 dd     	sty	$dda1                   ; 0xdda1 <__heap_start+0x5b11>
    2b41: 8e a1 dd     	stx	$dda1                   ; 0xdda1 <__heap_start+0x5b11>
    2b44: 9c a1 dd     	stz	$dda1                   ; 0xdda1 <__heap_start+0x5b11>
    2b47: c8           	iny
    2b48: 8c a1 dd     	sty	$dda1                   ; 0xdda1 <__heap_start+0x5b11>
    2b4b: 8e a1 dd     	stx	$dda1                   ; 0xdda1 <__heap_start+0x5b11>
    2b4e: 9c a1 dd     	stz	$dda1                   ; 0xdda1 <__heap_start+0x5b11>
    2b51: c8           	iny
    2b52: 8c a1 dd     	sty	$dda1                   ; 0xdda1 <__heap_start+0x5b11>
    2b55: 8e a1 dd     	stx	$dda1                   ; 0xdda1 <__heap_start+0x5b11>
    2b58: 9c a1 dd     	stz	$dda1                   ; 0xdda1 <__heap_start+0x5b11>
    2b5b: c8           	iny
    2b5c: 8c a1 dd     	sty	$dda1                   ; 0xdda1 <__heap_start+0x5b11>
    2b5f: 8e a1 dd     	stx	$dda1                   ; 0xdda1 <__heap_start+0x5b11>
    2b62: 9c a1 dd     	stz	$dda1                   ; 0xdda1 <__heap_start+0x5b11>
    2b65: c8           	iny
    2b66: 8c a1 dd     	sty	$dda1                   ; 0xdda1 <__heap_start+0x5b11>
    2b69: 8e a1 dd     	stx	$dda1                   ; 0xdda1 <__heap_start+0x5b11>
    2b6c: 9c a1 dd     	stz	$dda1                   ; 0xdda1 <__heap_start+0x5b11>
    2b6f: c8           	iny
    2b70: 8c a1 dd     	sty	$dda1                   ; 0xdda1 <__heap_start+0x5b11>
    2b73: 8e a1 dd     	stx	$dda1                   ; 0xdda1 <__heap_start+0x5b11>
    2b76: 9c a1 dd     	stz	$dda1                   ; 0xdda1 <__heap_start+0x5b11>
    2b79: c8           	iny
    2b7a: 8c a1 dd     	sty	$dda1                   ; 0xdda1 <__heap_start+0x5b11>
    2b7d: 8e a1 dd     	stx	$dda1                   ; 0xdda1 <__heap_start+0x5b11>
    2b80: 9c a1 dd     	stz	$dda1                   ; 0xdda1 <__heap_start+0x5b11>
    2b83: a2 9f        	ldx	#$9f
    2b85: 8e 00 d6     	stx	$d600                   ; 0xd600 <__heap_start+0x5370>
    2b88: 8e 10 d6     	stx	$d610                   ; 0xd610 <__heap_start+0x5380>
    2b8b: 8c 00 d6     	sty	$d600                   ; 0xd600 <__heap_start+0x5370>
    2b8e: 8c 10 d6     	sty	$d610                   ; 0xd610 <__heap_start+0x5380>
    2b91: a2 df        	ldx	#$df
    2b93: 8e 00 d6     	stx	$d600                   ; 0xd600 <__heap_start+0x5370>
    2b96: 8e 10 d6     	stx	$d610                   ; 0xd610 <__heap_start+0x5380>
    2b99: a2 ff        	ldx	#$ff
    2b9b: 8e 00 d6     	stx	$d600                   ; 0xd600 <__heap_start+0x5370>
    2b9e: 8e 10 d6     	stx	$d610                   ; 0xd610 <__heap_start+0x5380>
    2ba1: a2 65        	ldx	#$65
    2ba3: 86 12        	stx	$12                     ; 0x12 <__rc2>
    2ba5: a2 00        	ldx	#$0
    2ba7: 86 13        	stx	$13                     ; 0x13 <__rc3>
    2ba9: 20 18 ff     	jsr	$ff18 <__heap_start+0x7c88>
    2bac: 92 2a        	sta	($2a)                   ; 0x2a <__rc26>
    2bae: a9 00        	lda	#$0
    2bb0: 6a           	ror
    2bb1: 85 12        	sta	$12                     ; 0x12 <__rc2>
    2bb3: 78           	sei
    2bb4: a2 07        	ldx	#$7
    2bb6: 86 0f        	stx	$f                      ; 0xf <__zp_data_size+0xe>
    2bb8: a2 de        	ldx	#$de
    2bba: 8e a2 d6     	stx	$d6a2                   ; 0xd6a2 <__heap_start+0x5412>
    2bbd: a2 ad        	ldx	#$ad
    2bbf: 8e a3 d6     	stx	$d6a3                   ; 0xd6a3 <__heap_start+0x5413>
    2bc2: a2 f0        	ldx	#$f0
    2bc4: 8e a0 d6     	stx	$d6a0                   ; 0xd6a0 <__heap_start+0x5410>
    2bc7: 9c a0 d6     	stz	$d6a0                   ; 0xd6a0 <__heap_start+0x5410>
    2bca: 6c fc ff     	jmp	($fffc)                 ; 0xfffc <__heap_start+0x7d6c>
    2bcd: a2 00        	ldx	#$0
    2bcf: 8a           	txa
    2bd0: 85 20        	sta	$20                     ; 0x20 <__rc16>
    2bd2: a0 02        	ldy	#$2
    2bd4: b1 10        	lda	($10),y                 ; 0x10 <__rc0>
    2bd6: 85 2f        	sta	$2f                     ; 0x2f <__rc31>
    2bd8: c8           	iny
    2bd9: b1 10        	lda	($10),y                 ; 0x10 <__rc0>
    2bdb: 85 2e        	sta	$2e                     ; 0x2e <__rc30>
    2bdd: c8           	iny
    2bde: b1 10        	lda	($10),y                 ; 0x10 <__rc0>
    2be0: 85 2d        	sta	$2d                     ; 0x2d <__rc29>
    2be2: c8           	iny
    2be3: b1 10        	lda	($10),y                 ; 0x10 <__rc0>
    2be5: 85 2c        	sta	$2c                     ; 0x2c <__rc28>
    2be7: c8           	iny
    2be8: b1 10        	lda	($10),y                 ; 0x10 <__rc0>
    2bea: 85 2b        	sta	$2b                     ; 0x2b <__rc27>
    2bec: c8           	iny
    2bed: b1 10        	lda	($10),y                 ; 0x10 <__rc0>
    2bef: 85 2a        	sta	$2a                     ; 0x2a <__rc26>
    2bf1: c8           	iny
    2bf2: b1 10        	lda	($10),y                 ; 0x10 <__rc0>
    2bf4: 85 29        	sta	$29                     ; 0x29 <__rc25>
    2bf6: c8           	iny
    2bf7: b1 10        	lda	($10),y                 ; 0x10 <__rc0>
    2bf9: 85 28        	sta	$28                     ; 0x28 <__rc24>
    2bfb: 7a           	ply
    2bfc: 84 27        	sty	$27                     ; 0x27 <__rc23>
    2bfe: 7a           	ply
    2bff: 84 26        	sty	$26                     ; 0x26 <__rc22>
    2c01: 7a           	ply
    2c02: 84 25        	sty	$25                     ; 0x25 <__rc21>
    2c04: 7a           	ply
    2c05: 84 24        	sty	$24                     ; 0x24 <__rc20>
    2c07: 18           	clc
    2c08: a5 10        	lda	$10                     ; 0x10 <__rc0>
    2c0a: 69 19        	adc	#$19
    2c0c: 85 10        	sta	$10                     ; 0x10 <__rc0>
    2c0e: a5 11        	lda	$11                     ; 0x11 <__rc1>
    2c10: 69 00        	adc	#$0
    2c12: 85 11        	sta	$11                     ; 0x11 <__rc1>
    2c14: a5 20        	lda	$20                     ; 0x20 <__rc16>
    2c16: 60           	rts
    2c17: a0 01        	ldy	#$1
    2c19: a2 01        	ldx	#$1
    2c1b: 86 2e        	stx	$2e                     ; 0x2e <__rc30>
    2c1d: 84 49        	sty	$49                     ; 0x49 <doneWithFudge>
    2c1f: 4c 19 1f     	jmp	$1f19 <main+0x198e>
    2c22: a5 18        	lda	$18                     ; 0x18 <__rc8>
    2c24: c5 12        	cmp	$12                     ; 0x12 <__rc2>
    2c26: f0 03        	beq	$2c2b <main+0x26a0>
    2c28: 4c f1 1f     	jmp	$1ff1 <main+0x1a66>
    2c2b: 98           	tya
    2c2c: 20 7b 48     	jsr	$487b <exhaustZeroes>
    2c2f: a6 5c        	ldx	$5c                     ; 0x5c <theOne.8>
    2c31: a4 5d        	ldy	$5d                     ; 0x5d <theOne.8+0x1>
    2c33: 86 2a        	stx	$2a                     ; 0x2a <__rc26>
    2c35: 84 25        	sty	$25                     ; 0x25 <__rc21>
    2c37: a6 4b        	ldx	$4b                     ; 0x4b <theOne.0>
    2c39: a4 4c        	ldy	$4c                     ; 0x4c <theOne.0+0x1>
    2c3b: 86 2c        	stx	$2c                     ; 0x2c <__rc28>
    2c3d: 84 2d        	sty	$2d                     ; 0x2d <__rc29>
    2c3f: a4 27        	ldy	$27                     ; 0x27 <__rc23>
    2c41: 64 15        	stz	$15                     ; 0x15 <__rc5>
    2c43: 4c ef 1f     	jmp	$1fef <main+0x1a64>
    2c46: ae 8a d8     	ldx	$d88a                   ; 0xd88a <__heap_start+0x55fa>
    2c49: e0 fd        	cpx	#$fd
    2c4b: d0 03        	bne	$2c50 <main+0x26c5>
    2c4d: 4c 6b 1e     	jmp	$1e6b <main+0x18e0>
    2c50: ae 84 d8     	ldx	$d884                   ; 0xd884 <__heap_start+0x55f4>
    2c53: e0 fe        	cpx	#$fe
    2c55: f0 15        	beq	$2c6c <main+0x26e1>
    2c57: ae 86 d8     	ldx	$d886                   ; 0xd886 <__heap_start+0x55f6>
    2c5a: e0 fe        	cpx	#$fe
    2c5c: f0 0e        	beq	$2c6c <main+0x26e1>
    2c5e: ae 88 d8     	ldx	$d888                   ; 0xd888 <__heap_start+0x55f8>
    2c61: e0 fe        	cpx	#$fe
    2c63: f0 07        	beq	$2c6c <main+0x26e1>
    2c65: ae 8a d8     	ldx	$d88a                   ; 0xd88a <__heap_start+0x55fa>
    2c68: e0 fe        	cpx	#$fe
    2c6a: d0 42        	bne	$2cae <main+0x2723>
    2c6c: a9 00        	lda	#$0
    2c6e: 20 2d 2e     	jsr	$2e2d <goLeftOrRight>
    2c71: 20 06 2d     	jsr	$2d06 <resetPadReadiness>
    2c74: a0 03        	ldy	#$3
    2c76: 4c dc 24     	jmp	$24dc <main+0x1f51>
    2c79: ae 8a d8     	ldx	$d88a                   ; 0xd88a <__heap_start+0x55fa>
    2c7c: e0 fd        	cpx	#$fd
    2c7e: d0 03        	bne	$2c83 <main+0x26f8>
    2c80: 4c be 1e     	jmp	$1ebe <main+0x1933>
    2c83: ae 84 d8     	ldx	$d884                   ; 0xd884 <__heap_start+0x55f4>
    2c86: e0 fe        	cpx	#$fe
    2c88: f0 15        	beq	$2c9f <main+0x2714>
    2c8a: ae 86 d8     	ldx	$d886                   ; 0xd886 <__heap_start+0x55f6>
    2c8d: e0 fe        	cpx	#$fe
    2c8f: f0 0e        	beq	$2c9f <main+0x2714>
    2c91: ae 88 d8     	ldx	$d888                   ; 0xd888 <__heap_start+0x55f8>
    2c94: e0 fe        	cpx	#$fe
    2c96: f0 07        	beq	$2c9f <main+0x2714>
    2c98: ae 8a d8     	ldx	$d88a                   ; 0xd88a <__heap_start+0x55fa>
    2c9b: e0 fe        	cpx	#$fe
    2c9d: d0 3c        	bne	$2cdb <main+0x2750>
    2c9f: a9 00        	lda	#$0
    2ca1: 84 24        	sty	$24                     ; 0x24 <__rc20>
    2ca3: 20 2d 2e     	jsr	$2e2d <goLeftOrRight>
    2ca6: 20 06 2d     	jsr	$2d06 <resetPadReadiness>
    2ca9: a4 24        	ldy	$24                     ; 0x24 <__rc20>
    2cab: 4c 4a 25     	jmp	$254a <main+0x1fbf>
    2cae: ae 84 d8     	ldx	$d884                   ; 0xd884 <__heap_start+0x55f4>
    2cb1: a0 03        	ldy	#$3
    2cb3: e0 7f        	cpx	#$7f
    2cb5: d0 03        	bne	$2cba <main+0x272f>
    2cb7: 4c 01 29     	jmp	$2901 <main+0x2376>
    2cba: ae 86 d8     	ldx	$d886                   ; 0xd886 <__heap_start+0x55f6>
    2cbd: e0 7f        	cpx	#$7f
    2cbf: d0 03        	bne	$2cc4 <main+0x2739>
    2cc1: 4c 01 29     	jmp	$2901 <main+0x2376>
    2cc4: ae 88 d8     	ldx	$d888                   ; 0xd888 <__heap_start+0x55f8>
    2cc7: e0 7f        	cpx	#$7f
    2cc9: d0 03        	bne	$2cce <main+0x2743>
    2ccb: 4c 01 29     	jmp	$2901 <main+0x2376>
    2cce: ae 8a d8     	ldx	$d88a                   ; 0xd88a <__heap_start+0x55fa>
    2cd1: e0 7f        	cpx	#$7f
    2cd3: f0 03        	beq	$2cd8 <main+0x274d>
    2cd5: 4c dc 24     	jmp	$24dc <main+0x1f51>
    2cd8: 4c 01 29     	jmp	$2901 <main+0x2376>
    2cdb: ae 85 d8     	ldx	$d885                   ; 0xd885 <__heap_start+0x55f5>
    2cde: e0 f7        	cpx	#$f7
    2ce0: d0 03        	bne	$2ce5 <main+0x275a>
    2ce2: 4c 01 29     	jmp	$2901 <main+0x2376>
    2ce5: ae 87 d8     	ldx	$d887                   ; 0xd887 <__heap_start+0x55f7>
    2ce8: e0 f7        	cpx	#$f7
    2cea: d0 03        	bne	$2cef <main+0x2764>
    2cec: 4c 01 29     	jmp	$2901 <main+0x2376>
    2cef: ae 89 d8     	ldx	$d889                   ; 0xd889 <__heap_start+0x55f9>
    2cf2: e0 f7        	cpx	#$f7
    2cf4: d0 03        	bne	$2cf9 <main+0x276e>
    2cf6: 4c 01 29     	jmp	$2901 <main+0x2376>
    2cf9: ae 8b d8     	ldx	$d88b                   ; 0xd88b <__heap_start+0x55fb>
    2cfc: e0 f7        	cpx	#$f7
    2cfe: f0 03        	beq	$2d03 <main+0x2778>
    2d00: 4c 4a 25     	jmp	$254a <main+0x1fbf>
    2d03: 4c 01 29     	jmp	$2901 <main+0x2376>

00002d06 <resetPadReadiness>:
    2d06: 64 43        	stz	$43                     ; 0x43 <readyForPads>
    2d08: a2 80        	ldx	#$80
    2d0a: 86 f3        	stx	$f3                     ; 0xf3 <__zp_bss_size+0xb8>
    2d0c: a2 6d        	ldx	#$6d
    2d0e: a0 00        	ldy	#$0
    2d10: 86 14        	stx	$14                     ; 0x14 <__rc4>
    2d12: 84 15        	sty	$15                     ; 0x15 <__rc5>
    2d14: a2 65        	ldx	#$65
    2d16: 86 12        	stx	$12                     ; 0x12 <__rc2>
    2d18: a2 00        	ldx	#$0
    2d1a: 86 13        	stx	$13                     ; 0x13 <__rc3>
    2d1c: 20 f0 ff     	jsr	$fff0 <__heap_start+0x7d60>
    2d1f: 92 14        	sta	($14)                   ; 0x14 <__rc4>
    2d21: a9 00        	lda	#$0
    2d23: 6a           	ror
    2d24: 85 12        	sta	$12                     ; 0x12 <__rc2>
    2d26: a9 0c        	lda	#$c
    2d28: 18           	clc
    2d29: 65 6d        	adc	$6d                     ; 0x6d <__zp_bss_size+0x32>
    2d2b: 85 45        	sta	$45                     ; 0x45 <padDelayTimer.1>
    2d2d: 64 f3        	stz	$f3                     ; 0xf3 <__zp_bss_size+0xb8>
    2d2f: a6 45        	ldx	$45                     ; 0x45 <padDelayTimer.1>
    2d31: 86 f4        	stx	$f4                     ; 0xf4 <__zp_bss_size+0xb9>
    2d33: a5 46        	lda	$46                     ; 0x46 <padDelayTimer.2>
    2d35: 29 01        	and	#$1
    2d37: a2 03        	ldx	#$3
    2d39: a8           	tay
    2d3a: d0 02        	bne	$2d3e <resetPadReadiness+0x38>
    2d3c: a2 00        	ldx	#$0
    2d3e: 86 f5        	stx	$f5                     ; 0xf5 <__zp_bss_size+0xba>
    2d40: a2 6c        	ldx	#$6c
    2d42: a0 00        	ldy	#$0
    2d44: 86 14        	stx	$14                     ; 0x14 <__rc4>
    2d46: 84 15        	sty	$15                     ; 0x15 <__rc5>
    2d48: 20 f0 ff     	jsr	$fff0 <__heap_start+0x7d60>
    2d4b: 92 14        	sta	($14)                   ; 0x14 <__rc4>
    2d4d: a9 00        	lda	#$0
    2d4f: 6a           	ror
    2d50: 85 12        	sta	$12                     ; 0x12 <__rc2>
    2d52: 60           	rts

00002d53 <fileRead>:
    2d53: b2 14        	lda	($14)                   ; 0x14 <__rc4>
    2d55: f0 2b        	beq	$2d82 <fileRead+0x2f>
    2d57: 85 f3        	sta	$f3                     ; 0xf3 <__zp_bss_size+0xb8>
    2d59: a2 01        	ldx	#$1
    2d5b: 86 f4        	stx	$f4                     ; 0xf4 <__zp_bss_size+0xb9>
    2d5d: a2 6e        	ldx	#$6e
    2d5f: a0 00        	ldy	#$0
    2d61: 86 14        	stx	$14                     ; 0x14 <__rc4>
    2d63: 84 15        	sty	$15                     ; 0x15 <__rc5>
    2d65: a2 65        	ldx	#$65
    2d67: 86 16        	stx	$16                     ; 0x16 <__rc6>
    2d69: a2 00        	ldx	#$0
    2d6b: 86 17        	stx	$17                     ; 0x17 <__rc7>
    2d6d: 20 60 ff     	jsr	$ff60 <__heap_start+0x7cd0>
    2d70: 92 14        	sta	($14)                   ; 0x14 <__rc4>
    2d72: a9 00        	lda	#$0
    2d74: 6a           	ror
    2d75: 85 16        	sta	$16                     ; 0x16 <__rc6>
    2d77: a6 65        	ldx	$65                     ; 0x65 <kernelError>
    2d79: a0 ff        	ldy	#$ff
    2d7b: 8a           	txa
    2d7c: f0 4b        	beq	$2dc9 <fileRead+0x76>
    2d7e: a2 ff        	ldx	#$ff
    2d80: 98           	tya
    2d81: 60           	rts
    2d82: a2 6c        	ldx	#$6c
    2d84: a0 00        	ldy	#$0
    2d86: 86 14        	stx	$14                     ; 0x14 <__rc4>
    2d88: 84 15        	sty	$15                     ; 0x15 <__rc5>
    2d8a: a2 6d        	ldx	#$6d
    2d8c: a0 00        	ldy	#$0
    2d8e: a9 65        	lda	#$65
    2d90: 85 16        	sta	$16                     ; 0x16 <__rc6>
    2d92: a9 00        	lda	#$0
    2d94: 85 17        	sta	$17                     ; 0x17 <__rc7>
    2d96: 80 0e        	bra	$2da6 <fileRead+0x53>
    2d98: 86 18        	stx	$18                     ; 0x18 <__rc8>
    2d9a: 84 19        	sty	$19                     ; 0x19 <__rc9>
    2d9c: 20 0c ff     	jsr	$ff0c <__heap_start+0x7c7c>
    2d9f: 92 18        	sta	($18)                   ; 0x18 <__rc8>
    2da1: a9 00        	lda	#$0
    2da3: 6a           	ror
    2da4: 85 16        	sta	$16                     ; 0x16 <__rc6>
    2da6: 64 5e        	stz	$5e                     ; 0x5e <kernelEventData>
    2da8: 20 00 ff     	jsr	$ff00 <__heap_start+0x7c70>
    2dab: 92 14        	sta	($14)                   ; 0x14 <__rc4>
    2dad: a9 00        	lda	#$0
    2daf: 6a           	ror
    2db0: 85 16        	sta	$16                     ; 0x16 <__rc6>
    2db2: a5 65        	lda	$65                     ; 0x65 <kernelError>
    2db4: d0 e2        	bne	$2d98 <fileRead+0x45>
    2db6: a5 5e        	lda	$5e                     ; 0x5e <kernelEventData>
    2db8: c9 08        	cmp	#$8
    2dba: d0 ea        	bne	$2da6 <fileRead+0x53>
    2dbc: a5 64        	lda	$64                     ; 0x64 <kernelEventData+0x6>
    2dbe: d0 e6        	bne	$2da6 <fileRead+0x53>
    2dc0: a5 63        	lda	$63                     ; 0x63 <kernelEventData+0x5>
    2dc2: 92 12        	sta	($12)                   ; 0x12 <__rc2>
    2dc4: a9 01        	lda	#$1
    2dc6: a2 00        	ldx	#$0
    2dc8: 60           	rts
    2dc9: a2 6f        	ldx	#$6f
    2dcb: a9 00        	lda	#$0
    2dcd: 86 14        	stx	$14                     ; 0x14 <__rc4>
    2dcf: 85 15        	sta	$15                     ; 0x15 <__rc5>
    2dd1: a2 65        	ldx	#$65
    2dd3: 86 16        	stx	$16                     ; 0x16 <__rc6>
    2dd5: a2 00        	ldx	#$0
    2dd7: 86 17        	stx	$17                     ; 0x17 <__rc7>
    2dd9: 64 5e        	stz	$5e                     ; 0x5e <kernelEventData>
    2ddb: 20 00 ff     	jsr	$ff00 <__heap_start+0x7c70>
    2dde: 92 14        	sta	($14)                   ; 0x14 <__rc4>
    2de0: a9 00        	lda	#$0
    2de2: 6a           	ror
    2de3: 85 16        	sta	$16                     ; 0x16 <__rc6>
    2de5: a6 5e        	ldx	$5e                     ; 0x5e <kernelEventData>
    2de7: e0 38        	cpx	#$38
    2de9: d0 03        	bne	$2dee <fileRead+0x9b>
    2deb: 4c 7e 2d     	jmp	$2d7e <fileRead+0x2b>
    2dee: e0 30        	cpx	#$30
    2df0: f0 32        	beq	$2e24 <fileRead+0xd1>
    2df2: e0 2c        	cpx	#$2c
    2df4: d0 e3        	bne	$2dd9 <fileRead+0x86>
    2df6: a6 12        	ldx	$12                     ; 0x12 <__rc2>
    2df8: a4 13        	ldy	$13                     ; 0x13 <__rc3>
    2dfa: 86 fb        	stx	$fb                     ; 0xfb <__zp_bss_size+0xc0>
    2dfc: 84 fc        	sty	$fc                     ; 0xfc <__zp_bss_size+0xc1>
    2dfe: a6 64        	ldx	$64                     ; 0x64 <kernelEventData+0x6>
    2e00: 86 fd        	stx	$fd                     ; 0xfd <__zp_bss_size+0xc2>
    2e02: a2 70        	ldx	#$70
    2e04: a0 00        	ldy	#$0
    2e06: 86 12        	stx	$12                     ; 0x12 <__rc2>
    2e08: 84 13        	sty	$13                     ; 0x13 <__rc3>
    2e0a: a2 65        	ldx	#$65
    2e0c: 86 14        	stx	$14                     ; 0x14 <__rc4>
    2e0e: a2 00        	ldx	#$0
    2e10: 86 15        	stx	$15                     ; 0x15 <__rc5>
    2e12: 20 04 ff     	jsr	$ff04 <__heap_start+0x7c74>
    2e15: 92 12        	sta	($12)                   ; 0x12 <__rc2>
    2e17: a9 00        	lda	#$0
    2e19: 6a           	ror
    2e1a: 85 14        	sta	$14                     ; 0x14 <__rc4>
    2e1c: a4 64        	ldy	$64                     ; 0x64 <kernelEventData+0x6>
    2e1e: f0 08        	beq	$2e28 <fileRead+0xd5>
    2e20: a2 00        	ldx	#$0
    2e22: 98           	tya
    2e23: 60           	rts
    2e24: a9 00        	lda	#$0
    2e26: aa           	tax
    2e27: 60           	rts
    2e28: a9 00        	lda	#$0
    2e2a: a2 01        	ldx	#$1
    2e2c: 60           	rts

00002e2d <goLeftOrRight>:
    2e2d: 48           	pha
    2e2e: 18           	clc
    2e2f: a5 10        	lda	$10                     ; 0x10 <__rc0>
    2e31: 69 fe        	adc	#$fe
    2e33: 85 10        	sta	$10                     ; 0x10 <__rc0>
    2e35: a5 11        	lda	$11                     ; 0x11 <__rc1>
    2e37: 69 ff        	adc	#$ff
    2e39: 85 11        	sta	$11                     ; 0x11 <__rc1>
    2e3b: 68           	pla
    2e3c: aa           	tax
    2e3d: a4 42        	ldy	$42                     ; 0x42 <catSelected>
    2e3f: d0 03        	bne	$2e44 <goLeftOrRight+0x17>
    2e41: 4c a8 2e     	jmp	$2ea8 <goLeftOrRight+0x7b>
    2e44: c0 03        	cpy	#$3
    2e46: f0 03        	beq	$2e4b <goLeftOrRight+0x1e>
    2e48: 4c 03 2f     	jmp	$2f03 <goLeftOrRight+0xd6>
    2e4b: 8a           	txa
    2e4c: d0 03        	bne	$2e51 <goLeftOrRight+0x24>
    2e4e: 4c 3e 32     	jmp	$323e <goLeftOrRight+0x411>
    2e51: a2 94        	ldx	#$94
    2e53: 8e 08 d6     	stx	$d608                   ; 0xd608 <__heap_start+0x5378>
    2e56: a2 89        	ldx	#$89
    2e58: 8e 08 d6     	stx	$d608                   ; 0xd608 <__heap_start+0x5378>
    2e5b: a2 0c        	ldx	#$c
    2e5d: 8e 08 d6     	stx	$d608                   ; 0xd608 <__heap_start+0x5378>
    2e60: a2 80        	ldx	#$80
    2e62: 86 f3        	stx	$f3                     ; 0xf3 <__zp_bss_size+0xb8>
    2e64: a2 7b        	ldx	#$7b
    2e66: a0 00        	ldy	#$0
    2e68: 86 12        	stx	$12                     ; 0x12 <__rc2>
    2e6a: 84 13        	sty	$13                     ; 0x13 <__rc3>
    2e6c: a2 65        	ldx	#$65
    2e6e: 86 14        	stx	$14                     ; 0x14 <__rc4>
    2e70: a2 00        	ldx	#$0
    2e72: 86 15        	stx	$15                     ; 0x15 <__rc5>
    2e74: 20 f0 ff     	jsr	$fff0 <__heap_start+0x7d60>
    2e77: 92 12        	sta	($12)                   ; 0x12 <__rc2>
    2e79: a9 00        	lda	#$0
    2e7b: 6a           	ror
    2e7c: 85 14        	sta	$14                     ; 0x14 <__rc4>
    2e7e: a9 02        	lda	#$2
    2e80: 18           	clc
    2e81: 65 7b        	adc	$7b                     ; 0x7b <__zp_bss_size+0x40>
    2e83: 85 47        	sta	$47                     ; 0x47 <menuSoundTimer.1>
    2e85: 64 f3        	stz	$f3                     ; 0xf3 <__zp_bss_size+0xb8>
    2e87: a6 47        	ldx	$47                     ; 0x47 <menuSoundTimer.1>
    2e89: 86 f4        	stx	$f4                     ; 0xf4 <__zp_bss_size+0xb9>
    2e8b: a9 01        	lda	#$1
    2e8d: 25 48        	and	$48                     ; 0x48 <menuSoundTimer.2>
    2e8f: 85 f5        	sta	$f5                     ; 0xf5 <__zp_bss_size+0xba>
    2e91: a2 7a        	ldx	#$7a
    2e93: a0 00        	ldy	#$0
    2e95: 86 12        	stx	$12                     ; 0x12 <__rc2>
    2e97: 84 13        	sty	$13                     ; 0x13 <__rc3>
    2e99: 20 f0 ff     	jsr	$fff0 <__heap_start+0x7d60>
    2e9c: 92 12        	sta	($12)                   ; 0x12 <__rc2>
    2e9e: a9 00        	lda	#$0
    2ea0: 6a           	ror
    2ea1: 85 14        	sta	$14                     ; 0x14 <__rc4>
    2ea3: a9 ff        	lda	#$ff
    2ea5: 4c 5d 2f     	jmp	$2f5d <goLeftOrRight+0x130>
    2ea8: 8a           	txa
    2ea9: f0 03        	beq	$2eae <goLeftOrRight+0x81>
    2eab: 4c 3e 32     	jmp	$323e <goLeftOrRight+0x411>
    2eae: a2 94        	ldx	#$94
    2eb0: 8e 08 d6     	stx	$d608                   ; 0xd608 <__heap_start+0x5378>
    2eb3: a2 89        	ldx	#$89
    2eb5: 8e 08 d6     	stx	$d608                   ; 0xd608 <__heap_start+0x5378>
    2eb8: a2 0c        	ldx	#$c
    2eba: 8e 08 d6     	stx	$d608                   ; 0xd608 <__heap_start+0x5378>
    2ebd: a2 80        	ldx	#$80
    2ebf: 86 f3        	stx	$f3                     ; 0xf3 <__zp_bss_size+0xb8>
    2ec1: a2 79        	ldx	#$79
    2ec3: a0 00        	ldy	#$0
    2ec5: 86 12        	stx	$12                     ; 0x12 <__rc2>
    2ec7: 84 13        	sty	$13                     ; 0x13 <__rc3>
    2ec9: a2 65        	ldx	#$65
    2ecb: 86 14        	stx	$14                     ; 0x14 <__rc4>
    2ecd: a2 00        	ldx	#$0
    2ecf: 86 15        	stx	$15                     ; 0x15 <__rc5>
    2ed1: 20 f0 ff     	jsr	$fff0 <__heap_start+0x7d60>
    2ed4: 92 12        	sta	($12)                   ; 0x12 <__rc2>
    2ed6: a9 00        	lda	#$0
    2ed8: 6a           	ror
    2ed9: 85 14        	sta	$14                     ; 0x14 <__rc4>
    2edb: a9 02        	lda	#$2
    2edd: 18           	clc
    2ede: 65 79        	adc	$79                     ; 0x79 <__zp_bss_size+0x3e>
    2ee0: 85 47        	sta	$47                     ; 0x47 <menuSoundTimer.1>
    2ee2: 64 f3        	stz	$f3                     ; 0xf3 <__zp_bss_size+0xb8>
    2ee4: a6 47        	ldx	$47                     ; 0x47 <menuSoundTimer.1>
    2ee6: 86 f4        	stx	$f4                     ; 0xf4 <__zp_bss_size+0xb9>
    2ee8: a9 01        	lda	#$1
    2eea: 25 48        	and	$48                     ; 0x48 <menuSoundTimer.2>
    2eec: 85 f5        	sta	$f5                     ; 0xf5 <__zp_bss_size+0xba>
    2eee: a2 78        	ldx	#$78
    2ef0: a0 00        	ldy	#$0
    2ef2: 86 12        	stx	$12                     ; 0x12 <__rc2>
    2ef4: 84 13        	sty	$13                     ; 0x13 <__rc3>
    2ef6: 20 f0 ff     	jsr	$fff0 <__heap_start+0x7d60>
    2ef9: 92 12        	sta	($12)                   ; 0x12 <__rc2>
    2efb: a9 00        	lda	#$0
    2efd: 6a           	ror
    2efe: 85 14        	sta	$14                     ; 0x14 <__rc4>
    2f00: 4c 5b 2f     	jmp	$2f5b <goLeftOrRight+0x12e>
    2f03: a0 94        	ldy	#$94
    2f05: 8c 08 d6     	sty	$d608                   ; 0xd608 <__heap_start+0x5378>
    2f08: a0 89        	ldy	#$89
    2f0a: 8c 08 d6     	sty	$d608                   ; 0xd608 <__heap_start+0x5378>
    2f0d: a0 0c        	ldy	#$c
    2f0f: 8c 08 d6     	sty	$d608                   ; 0xd608 <__heap_start+0x5378>
    2f12: a0 80        	ldy	#$80
    2f14: 84 f3        	sty	$f3                     ; 0xf3 <__zp_bss_size+0xb8>
    2f16: a0 77        	ldy	#$77
    2f18: a9 00        	lda	#$0
    2f1a: 84 12        	sty	$12                     ; 0x12 <__rc2>
    2f1c: 85 13        	sta	$13                     ; 0x13 <__rc3>
    2f1e: a0 65        	ldy	#$65
    2f20: 84 14        	sty	$14                     ; 0x14 <__rc4>
    2f22: a0 00        	ldy	#$0
    2f24: 84 15        	sty	$15                     ; 0x15 <__rc5>
    2f26: 20 f0 ff     	jsr	$fff0 <__heap_start+0x7d60>
    2f29: 92 12        	sta	($12)                   ; 0x12 <__rc2>
    2f2b: a9 00        	lda	#$0
    2f2d: 6a           	ror
    2f2e: 85 14        	sta	$14                     ; 0x14 <__rc4>
    2f30: a9 02        	lda	#$2
    2f32: 18           	clc
    2f33: 65 77        	adc	$77                     ; 0x77 <__zp_bss_size+0x3c>
    2f35: 85 47        	sta	$47                     ; 0x47 <menuSoundTimer.1>
    2f37: 64 f3        	stz	$f3                     ; 0xf3 <__zp_bss_size+0xb8>
    2f39: a4 47        	ldy	$47                     ; 0x47 <menuSoundTimer.1>
    2f3b: 84 f4        	sty	$f4                     ; 0xf4 <__zp_bss_size+0xb9>
    2f3d: a9 01        	lda	#$1
    2f3f: 25 48        	and	$48                     ; 0x48 <menuSoundTimer.2>
    2f41: 85 f5        	sta	$f5                     ; 0xf5 <__zp_bss_size+0xba>
    2f43: a0 76        	ldy	#$76
    2f45: a9 00        	lda	#$0
    2f47: 84 12        	sty	$12                     ; 0x12 <__rc2>
    2f49: 85 13        	sta	$13                     ; 0x13 <__rc3>
    2f4b: 20 f0 ff     	jsr	$fff0 <__heap_start+0x7d60>
    2f4e: 92 12        	sta	($12)                   ; 0x12 <__rc2>
    2f50: a9 00        	lda	#$0
    2f52: 6a           	ror
    2f53: 85 14        	sta	$14                     ; 0x14 <__rc4>
    2f55: a9 ff        	lda	#$ff
    2f57: e0 00        	cpx	#$0
    2f59: d0 02        	bne	$2f5d <goLeftOrRight+0x130>
    2f5b: a9 01        	lda	#$1
    2f5d: 18           	clc
    2f5e: 65 42        	adc	$42                     ; 0x42 <catSelected>
    2f60: 85 42        	sta	$42                     ; 0x42 <catSelected>
    2f62: 64 41        	stz	$41                     ; 0x41 <selected>
    2f64: a2 f0        	ldx	#$f0
    2f66: 86 30        	stx	$30                     ; 0x30 <_ccolor>
    2f68: a6 01        	ldx	$1                      ; 0x1 <__zp_data_size>
    2f6a: 86 18        	stx	$18                     ; 0x18 <__rc8>
    2f6c: a2 50        	ldx	#$50
    2f6e: 8e 00 de     	stx	$de00                   ; 0xde00 <__heap_start+0x5b70>
    2f71: 9c 01 de     	stz	$de01                   ; 0xde01 <__heap_start+0x5b71>
    2f74: a2 1e        	ldx	#$1e
    2f76: 8e 02 de     	stx	$de02                   ; 0xde02 <__heap_start+0x5b72>
    2f79: 9c 03 de     	stz	$de03                   ; 0xde03 <__heap_start+0x5b73>
    2f7c: ae 10 de     	ldx	$de10                   ; 0xde10 <__heap_start+0x5b80>
    2f7f: ac 11 de     	ldy	$de11                   ; 0xde11 <__heap_start+0x5b81>
    2f82: ad 12 de     	lda	$de12                   ; 0xde12 <__heap_start+0x5b82>
    2f85: ad 13 de     	lda	$de13                   ; 0xde13 <__heap_start+0x5b83>
    2f88: a9 02        	lda	#$2
    2f8a: 85 01        	sta	$1                      ; 0x1 <__zp_data_size>
    2f8c: e0 01        	cpx	#$1
    2f8e: 98           	tya
    2f8f: e9 00        	sbc	#$0
    2f91: 50 02        	bvc	$2f95 <goLeftOrRight+0x168>
    2f93: 49 80        	eor	#$80
    2f95: c9 00        	cmp	#$0
    2f97: 10 03        	bpl	$2f9c <goLeftOrRight+0x16f>
    2f99: 4c ff 2f     	jmp	$2fff <goLeftOrRight+0x1d2>
    2f9c: a9 00        	lda	#$0
    2f9e: 85 12        	sta	$12                     ; 0x12 <__rc2>
    2fa0: a9 c0        	lda	#$c0
    2fa2: 85 13        	sta	$13                     ; 0x13 <__rc3>
    2fa4: a9 20        	lda	#$20
    2fa6: 86 19        	stx	$19                     ; 0x19 <__rc9>
    2fa8: 86 14        	stx	$14                     ; 0x14 <__rc4>
    2faa: 84 15        	sty	$15                     ; 0x15 <__rc5>
    2fac: a2 00        	ldx	#$0
    2fae: 86 16        	stx	$16                     ; 0x16 <__rc6>
    2fb0: a2 c0        	ldx	#$c0
    2fb2: 86 17        	stx	$17                     ; 0x17 <__rc7>
    2fb4: 80 04        	bra	$2fba <goLeftOrRight+0x18d>
    2fb6: a6 15        	ldx	$15                     ; 0x15 <__rc5>
    2fb8: f0 14        	beq	$2fce <goLeftOrRight+0x1a1>
    2fba: 92 16        	sta	($16)                   ; 0x16 <__rc6>
    2fbc: e6 16        	inc	$16                     ; 0x16 <__rc6>
    2fbe: d0 02        	bne	$2fc2 <goLeftOrRight+0x195>
    2fc0: e6 17        	inc	$17                     ; 0x17 <__rc7>
    2fc2: a2 ff        	ldx	#$ff
    2fc4: c6 14        	dec	$14                     ; 0x14 <__rc4>
    2fc6: e4 14        	cpx	$14                     ; 0x14 <__rc4>
    2fc8: d0 ec        	bne	$2fb6 <goLeftOrRight+0x189>
    2fca: c6 15        	dec	$15                     ; 0x15 <__rc5>
    2fcc: 80 e8        	bra	$2fb6 <goLeftOrRight+0x189>
    2fce: a6 14        	ldx	$14                     ; 0x14 <__rc4>
    2fd0: d0 e8        	bne	$2fba <goLeftOrRight+0x18d>
    2fd2: a2 03        	ldx	#$3
    2fd4: 86 01        	stx	$1                      ; 0x1 <__zp_data_size>
    2fd6: a6 30        	ldx	$30                     ; 0x30 <_ccolor>
    2fd8: 86 14        	stx	$14                     ; 0x14 <__rc4>
    2fda: a6 19        	ldx	$19                     ; 0x19 <__rc9>
    2fdc: 80 03        	bra	$2fe1 <goLeftOrRight+0x1b4>
    2fde: 98           	tya
    2fdf: f0 19        	beq	$2ffa <goLeftOrRight+0x1cd>
    2fe1: a5 14        	lda	$14                     ; 0x14 <__rc4>
    2fe3: 92 12        	sta	($12)                   ; 0x12 <__rc2>
    2fe5: e6 12        	inc	$12                     ; 0x12 <__rc2>
    2fe7: f0 07        	beq	$2ff0 <goLeftOrRight+0x1c3>
    2fe9: ca           	dex
    2fea: e0 ff        	cpx	#$ff
    2fec: d0 f0        	bne	$2fde <goLeftOrRight+0x1b1>
    2fee: 80 07        	bra	$2ff7 <goLeftOrRight+0x1ca>
    2ff0: e6 13        	inc	$13                     ; 0x13 <__rc3>
    2ff2: ca           	dex
    2ff3: e0 ff        	cpx	#$ff
    2ff5: d0 e7        	bne	$2fde <goLeftOrRight+0x1b1>
    2ff7: 88           	dey
    2ff8: 80 e4        	bra	$2fde <goLeftOrRight+0x1b1>
    2ffa: 8a           	txa
    2ffb: d0 e4        	bne	$2fe1 <goLeftOrRight+0x1b4>
    2ffd: 80 04        	bra	$3003 <goLeftOrRight+0x1d6>
    2fff: a2 03        	ldx	#$3
    3001: 86 01        	stx	$1                      ; 0x1 <__zp_data_size>
    3003: a6 18        	ldx	$18                     ; 0x18 <__rc8>
    3005: 86 01        	stx	$1                      ; 0x1 <__zp_data_size>
    3007: 9c 14 d0     	stz	$d014                   ; 0xd014 <__heap_start+0x4d84>
    300a: 9c 15 d0     	stz	$d015                   ; 0xd015 <__heap_start+0x4d85>
    300d: 9c 16 d0     	stz	$d016                   ; 0xd016 <__heap_start+0x4d86>
    3010: 9c 17 d0     	stz	$d017                   ; 0xd017 <__heap_start+0x4d87>
    3013: a5 42        	lda	$42                     ; 0x42 <catSelected>
    3015: a2 65        	ldx	#$65
    3017: a0 05        	ldy	#$5
    3019: 86 12        	stx	$12                     ; 0x12 <__rc2>
    301b: 84 13        	sty	$13                     ; 0x13 <__rc3>
    301d: 64 6c        	stz	$6c                     ; 0x6c <__zp_bss_size+0x31>
    301f: a2 00        	ldx	#$0
    3021: 85 70        	sta	$70                     ; 0x70 <__zp_bss_size+0x35>
    3023: 20 f6 6a     	jsr	$6af6 <__mulhi3>
    3026: 85 12        	sta	$12                     ; 0x12 <__rc2>
    3028: 86 13        	stx	$13                     ; 0x13 <__rc3>
    302a: a9 fb        	lda	#$fb
    302c: 18           	clc
    302d: 65 12        	adc	$12                     ; 0x12 <__rc2>
    302f: a8           	tay
    3030: a9 6c        	lda	#$6c
    3032: 65 13        	adc	$13                     ; 0x13 <__rc3>
    3034: aa           	tax
    3035: 98           	tya
    3036: 18           	clc
    3037: 69 64        	adc	#$64
    3039: 85 6e        	sta	$6e                     ; 0x6e <__zp_bss_size+0x33>
    303b: 8a           	txa
    303c: 69 05        	adc	#$5
    303e: 85 6f        	sta	$6f                     ; 0x6f <__zp_bss_size+0x34>
    3040: b2 6e        	lda	($6e)                   ; 0x6e <__zp_bss_size+0x33>
    3042: d0 03        	bne	$3047 <goLeftOrRight+0x21a>
    3044: 4c db 30     	jmp	$30db <goLeftOrRight+0x2ae>
    3047: 84 12        	sty	$12                     ; 0x12 <__rc2>
    3049: 86 13        	stx	$13                     ; 0x13 <__rc3>
    304b: 18           	clc
    304c: a6 6c        	ldx	$6c                     ; 0x6c <__zp_bss_size+0x31>
    304e: 86 71        	stx	$71                     ; 0x71 <__zp_bss_size+0x36>
    3050: a5 6c        	lda	$6c                     ; 0x6c <__zp_bss_size+0x31>
    3052: 69 0a        	adc	#$a
    3054: a2 07        	ldx	#$7
    3056: 86 31        	stx	$31                     ; 0x31 <_col>
    3058: 8e 14 d0     	stx	$d014                   ; 0xd014 <__heap_start+0x4d84>
    305b: 9c 15 d0     	stz	$d015                   ; 0xd015 <__heap_start+0x4d85>
    305e: 85 32        	sta	$32                     ; 0x32 <_row>
    3060: 8d 16 d0     	sta	$d016                   ; 0xd016 <__heap_start+0x4d86>
    3063: 85 75        	sta	$75                     ; 0x75 <__zp_bss_size+0x3a>
    3065: 9c 17 d0     	stz	$d017                   ; 0xd017 <__heap_start+0x4d87>
    3068: a5 12        	lda	$12                     ; 0x12 <__rc2>
    306a: a6 13        	ldx	$13                     ; 0x13 <__rc3>
    306c: 86 72        	stx	$72                     ; 0x72 <__zp_bss_size+0x37>
    306e: 92 10        	sta	($10)                   ; 0x10 <__rc0>
    3070: 85 73        	sta	$73                     ; 0x73 <__zp_bss_size+0x38>
    3072: a0 01        	ldy	#$1
    3074: a5 13        	lda	$13                     ; 0x13 <__rc3>
    3076: 91 10        	sta	($10),y                 ; 0x10 <__rc0>
    3078: 84 74        	sty	$74                     ; 0x74 <__zp_bss_size+0x39>
    307a: a2 c4        	ldx	#$c4
    307c: 86 6c        	stx	$6c                     ; 0x6c <__zp_bss_size+0x31>
    307e: a2 6c        	ldx	#$6c
    3080: 86 6d        	stx	$6d                     ; 0x6d <__zp_bss_size+0x32>
    3082: a2 c4        	ldx	#$c4
    3084: 86 12        	stx	$12                     ; 0x12 <__rc2>
    3086: a2 6c        	ldx	#$6c
    3088: 86 13        	stx	$13                     ; 0x13 <__rc3>
    308a: 20 51 57     	jsr	$5751 <printf>
    308d: a2 1b        	ldx	#$1b
    308f: 86 31        	stx	$31                     ; 0x31 <_col>
    3091: 8e 14 d0     	stx	$d014                   ; 0xd014 <__heap_start+0x4d84>
    3094: 9c 15 d0     	stz	$d015                   ; 0xd015 <__heap_start+0x4d85>
    3097: a6 75        	ldx	$75                     ; 0x75 <__zp_bss_size+0x3a>
    3099: 86 32        	stx	$32                     ; 0x32 <_row>
    309b: 8e 16 d0     	stx	$d016                   ; 0xd016 <__heap_start+0x4d86>
    309e: 18           	clc
    309f: a5 73        	lda	$73                     ; 0x73 <__zp_bss_size+0x38>
    30a1: 69 14        	adc	#$14
    30a3: aa           	tax
    30a4: a5 72        	lda	$72                     ; 0x72 <__zp_bss_size+0x37>
    30a6: 69 00        	adc	#$0
    30a8: 85 12        	sta	$12                     ; 0x12 <__rc2>
    30aa: 9c 17 d0     	stz	$d017                   ; 0xd017 <__heap_start+0x4d87>
    30ad: 8a           	txa
    30ae: 92 10        	sta	($10)                   ; 0x10 <__rc0>
    30b0: a4 74        	ldy	$74                     ; 0x74 <__zp_bss_size+0x39>
    30b2: a5 12        	lda	$12                     ; 0x12 <__rc2>
    30b4: 91 10        	sta	($10),y                 ; 0x10 <__rc0>
    30b6: a2 c4        	ldx	#$c4
    30b8: 86 12        	stx	$12                     ; 0x12 <__rc2>
    30ba: a2 6c        	ldx	#$6c
    30bc: 86 13        	stx	$13                     ; 0x13 <__rc3>
    30be: 20 51 57     	jsr	$5751 <printf>
    30c1: e6 71        	inc	$71                     ; 0x71 <__zp_bss_size+0x36>
    30c3: 18           	clc
    30c4: a5 73        	lda	$73                     ; 0x73 <__zp_bss_size+0x38>
    30c6: 69 73        	adc	#$73
    30c8: 85 12        	sta	$12                     ; 0x12 <__rc2>
    30ca: a5 72        	lda	$72                     ; 0x72 <__zp_bss_size+0x37>
    30cc: 69 00        	adc	#$0
    30ce: 85 13        	sta	$13                     ; 0x13 <__rc3>
    30d0: a5 71        	lda	$71                     ; 0x71 <__zp_bss_size+0x36>
    30d2: 85 6c        	sta	$6c                     ; 0x6c <__zp_bss_size+0x31>
    30d4: d2 6e        	cmp	($6e)                   ; 0x6e <__zp_bss_size+0x33>
    30d6: b0 03        	bcs	$30db <goLeftOrRight+0x2ae>
    30d8: 4c 4b 30     	jmp	$304b <goLeftOrRight+0x21e>
    30db: a5 70        	lda	$70                     ; 0x70 <__zp_bss_size+0x35>
    30dd: f0 04        	beq	$30e3 <goLeftOrRight+0x2b6>
    30df: a2 f0        	ldx	#$f0
    30e1: 80 02        	bra	$30e5 <goLeftOrRight+0x2b8>
    30e3: a2 76        	ldx	#$76
    30e5: 86 30        	stx	$30                     ; 0x30 <_ccolor>
    30e7: a2 0a        	ldx	#$a
    30e9: 86 31        	stx	$31                     ; 0x31 <_col>
    30eb: 8e 14 d0     	stx	$d014                   ; 0xd014 <__heap_start+0x4d84>
    30ee: 9c 15 d0     	stz	$d015                   ; 0xd015 <__heap_start+0x4d85>
    30f1: a2 15        	ldx	#$15
    30f3: 86 32        	stx	$32                     ; 0x32 <_row>
    30f5: 8e 16 d0     	stx	$d016                   ; 0xd016 <__heap_start+0x4d86>
    30f8: 9c 17 d0     	stz	$d017                   ; 0xd017 <__heap_start+0x4d87>
    30fb: a9 e3        	lda	#$e3
    30fd: 92 10        	sta	($10)                   ; 0x10 <__rc0>
    30ff: a0 01        	ldy	#$1
    3101: a9 6c        	lda	#$6c
    3103: 91 10        	sta	($10),y                 ; 0x10 <__rc0>
    3105: a2 c4        	ldx	#$c4
    3107: 86 12        	stx	$12                     ; 0x12 <__rc2>
    3109: a2 6c        	ldx	#$6c
    310b: 86 13        	stx	$13                     ; 0x13 <__rc3>
    310d: 20 51 57     	jsr	$5751 <printf>
    3110: a2 f0        	ldx	#$f0
    3112: 86 6c        	stx	$6c                     ; 0x6c <__zp_bss_size+0x31>
    3114: a4 70        	ldy	$70                     ; 0x70 <__zp_bss_size+0x35>
    3116: c0 01        	cpy	#$1
    3118: d0 02        	bne	$311c <goLeftOrRight+0x2ef>
    311a: a2 76        	ldx	#$76
    311c: 86 30        	stx	$30                     ; 0x30 <_ccolor>
    311e: a2 12        	ldx	#$12
    3120: 86 31        	stx	$31                     ; 0x31 <_col>
    3122: 8e 14 d0     	stx	$d014                   ; 0xd014 <__heap_start+0x4d84>
    3125: 9c 15 d0     	stz	$d015                   ; 0xd015 <__heap_start+0x4d85>
    3128: a2 15        	ldx	#$15
    312a: 86 32        	stx	$32                     ; 0x32 <_row>
    312c: 8e 16 d0     	stx	$d016                   ; 0xd016 <__heap_start+0x4d86>
    312f: 9c 17 d0     	stz	$d017                   ; 0xd017 <__heap_start+0x4d87>
    3132: a9 e9        	lda	#$e9
    3134: 92 10        	sta	($10)                   ; 0x10 <__rc0>
    3136: a0 01        	ldy	#$1
    3138: a9 6c        	lda	#$6c
    313a: 91 10        	sta	($10),y                 ; 0x10 <__rc0>
    313c: a2 c4        	ldx	#$c4
    313e: 86 12        	stx	$12                     ; 0x12 <__rc2>
    3140: a2 6c        	ldx	#$6c
    3142: 86 13        	stx	$13                     ; 0x13 <__rc3>
    3144: 20 51 57     	jsr	$5751 <printf>
    3147: a6 70        	ldx	$70                     ; 0x70 <__zp_bss_size+0x35>
    3149: a4 6c        	ldy	$6c                     ; 0x6c <__zp_bss_size+0x31>
    314b: e0 02        	cpx	#$2
    314d: d0 02        	bne	$3151 <goLeftOrRight+0x324>
    314f: a0 76        	ldy	#$76
    3151: 84 30        	sty	$30                     ; 0x30 <_ccolor>
    3153: a2 1a        	ldx	#$1a
    3155: 86 31        	stx	$31                     ; 0x31 <_col>
    3157: 8e 14 d0     	stx	$d014                   ; 0xd014 <__heap_start+0x4d84>
    315a: 9c 15 d0     	stz	$d015                   ; 0xd015 <__heap_start+0x4d85>
    315d: a2 15        	ldx	#$15
    315f: 86 32        	stx	$32                     ; 0x32 <_row>
    3161: 8e 16 d0     	stx	$d016                   ; 0xd016 <__heap_start+0x4d86>
    3164: 9c 17 d0     	stz	$d017                   ; 0xd017 <__heap_start+0x4d87>
    3167: a9 ef        	lda	#$ef
    3169: 92 10        	sta	($10)                   ; 0x10 <__rc0>
    316b: a0 01        	ldy	#$1
    316d: a9 6c        	lda	#$6c
    316f: 91 10        	sta	($10),y                 ; 0x10 <__rc0>
    3171: a2 c4        	ldx	#$c4
    3173: 86 12        	stx	$12                     ; 0x12 <__rc2>
    3175: a2 6c        	ldx	#$6c
    3177: 86 13        	stx	$13                     ; 0x13 <__rc3>
    3179: 20 51 57     	jsr	$5751 <printf>
    317c: a2 f0        	ldx	#$f0
    317e: a4 70        	ldy	$70                     ; 0x70 <__zp_bss_size+0x35>
    3180: c0 03        	cpy	#$3
    3182: d0 02        	bne	$3186 <goLeftOrRight+0x359>
    3184: a2 76        	ldx	#$76
    3186: 86 30        	stx	$30                     ; 0x30 <_ccolor>
    3188: a2 22        	ldx	#$22
    318a: 86 31        	stx	$31                     ; 0x31 <_col>
    318c: 8e 14 d0     	stx	$d014                   ; 0xd014 <__heap_start+0x4d84>
    318f: 9c 15 d0     	stz	$d015                   ; 0xd015 <__heap_start+0x4d85>
    3192: a2 15        	ldx	#$15
    3194: 86 32        	stx	$32                     ; 0x32 <_row>
    3196: 8e 16 d0     	stx	$d016                   ; 0xd016 <__heap_start+0x4d86>
    3199: 9c 17 d0     	stz	$d017                   ; 0xd017 <__heap_start+0x4d87>
    319c: a9 f5        	lda	#$f5
    319e: 92 10        	sta	($10)                   ; 0x10 <__rc0>
    31a0: a0 01        	ldy	#$1
    31a2: a9 6c        	lda	#$6c
    31a4: 91 10        	sta	($10),y                 ; 0x10 <__rc0>
    31a6: 84 6e        	sty	$6e                     ; 0x6e <__zp_bss_size+0x33>
    31a8: a2 c4        	ldx	#$c4
    31aa: 86 6c        	stx	$6c                     ; 0x6c <__zp_bss_size+0x31>
    31ac: a2 6c        	ldx	#$6c
    31ae: 86 6d        	stx	$6d                     ; 0x6d <__zp_bss_size+0x32>
    31b0: a2 c4        	ldx	#$c4
    31b2: 86 12        	stx	$12                     ; 0x12 <__rc2>
    31b4: a2 6c        	ldx	#$6c
    31b6: 86 13        	stx	$13                     ; 0x13 <__rc3>
    31b8: 20 51 57     	jsr	$5751 <printf>
    31bb: a2 d1        	ldx	#$d1
    31bd: 86 30        	stx	$30                     ; 0x30 <_ccolor>
    31bf: a5 42        	lda	$42                     ; 0x42 <catSelected>
    31c1: a0 07        	ldy	#$7
    31c3: 84 31        	sty	$31                     ; 0x31 <_col>
    31c5: 8c 14 d0     	sty	$d014                   ; 0xd014 <__heap_start+0x4d84>
    31c8: 9c 15 d0     	stz	$d015                   ; 0xd015 <__heap_start+0x4d85>
    31cb: a2 0a        	ldx	#$a
    31cd: 86 32        	stx	$32                     ; 0x32 <_row>
    31cf: 8e 16 d0     	stx	$d016                   ; 0xd016 <__heap_start+0x4d86>
    31d2: 86 6f        	stx	$6f                     ; 0x6f <__zp_bss_size+0x34>
    31d4: 9c 17 d0     	stz	$d017                   ; 0xd017 <__heap_start+0x4d87>
    31d7: a0 65        	ldy	#$65
    31d9: a2 05        	ldx	#$5
    31db: 84 12        	sty	$12                     ; 0x12 <__rc2>
    31dd: 86 13        	stx	$13                     ; 0x13 <__rc3>
    31df: a2 00        	ldx	#$0
    31e1: 20 f6 6a     	jsr	$6af6 <__mulhi3>
    31e4: 85 12        	sta	$12                     ; 0x12 <__rc2>
    31e6: 86 13        	stx	$13                     ; 0x13 <__rc3>
    31e8: a9 fb        	lda	#$fb
    31ea: 18           	clc
    31eb: 65 12        	adc	$12                     ; 0x12 <__rc2>
    31ed: aa           	tax
    31ee: a9 6c        	lda	#$6c
    31f0: 65 13        	adc	$13                     ; 0x13 <__rc3>
    31f2: 85 70        	sta	$70                     ; 0x70 <__zp_bss_size+0x35>
    31f4: 8a           	txa
    31f5: 92 10        	sta	($10)                   ; 0x10 <__rc0>
    31f7: 86 71        	stx	$71                     ; 0x71 <__zp_bss_size+0x36>
    31f9: a4 6e        	ldy	$6e                     ; 0x6e <__zp_bss_size+0x33>
    31fb: a5 70        	lda	$70                     ; 0x70 <__zp_bss_size+0x35>
    31fd: 91 10        	sta	($10),y                 ; 0x10 <__rc0>
    31ff: a2 c4        	ldx	#$c4
    3201: 86 12        	stx	$12                     ; 0x12 <__rc2>
    3203: a2 6c        	ldx	#$6c
    3205: 86 13        	stx	$13                     ; 0x13 <__rc3>
    3207: 20 51 57     	jsr	$5751 <printf>
    320a: a2 1b        	ldx	#$1b
    320c: 86 31        	stx	$31                     ; 0x31 <_col>
    320e: 8e 14 d0     	stx	$d014                   ; 0xd014 <__heap_start+0x4d84>
    3211: 9c 15 d0     	stz	$d015                   ; 0xd015 <__heap_start+0x4d85>
    3214: a6 6f        	ldx	$6f                     ; 0x6f <__zp_bss_size+0x34>
    3216: 86 32        	stx	$32                     ; 0x32 <_row>
    3218: 8e 16 d0     	stx	$d016                   ; 0xd016 <__heap_start+0x4d86>
    321b: 9c 17 d0     	stz	$d017                   ; 0xd017 <__heap_start+0x4d87>
    321e: 18           	clc
    321f: a5 71        	lda	$71                     ; 0x71 <__zp_bss_size+0x36>
    3221: 69 14        	adc	#$14
    3223: 85 12        	sta	$12                     ; 0x12 <__rc2>
    3225: a5 70        	lda	$70                     ; 0x70 <__zp_bss_size+0x35>
    3227: 69 00        	adc	#$0
    3229: aa           	tax
    322a: a5 12        	lda	$12                     ; 0x12 <__rc2>
    322c: 92 10        	sta	($10)                   ; 0x10 <__rc0>
    322e: a4 6e        	ldy	$6e                     ; 0x6e <__zp_bss_size+0x33>
    3230: 8a           	txa
    3231: 91 10        	sta	($10),y                 ; 0x10 <__rc0>
    3233: a2 c4        	ldx	#$c4
    3235: 86 12        	stx	$12                     ; 0x12 <__rc2>
    3237: a2 6c        	ldx	#$6c
    3239: 86 13        	stx	$13                     ; 0x13 <__rc3>
    323b: 20 51 57     	jsr	$5751 <printf>
    323e: 18           	clc
    323f: a5 10        	lda	$10                     ; 0x10 <__rc0>
    3241: 69 02        	adc	#$2
    3243: 85 10        	sta	$10                     ; 0x10 <__rc0>
    3245: a5 11        	lda	$11                     ; 0x11 <__rc1>
    3247: 69 00        	adc	#$0
    3249: 85 11        	sta	$11                     ; 0x11 <__rc1>
    324b: 60           	rts

0000324c <goUpOrDown>:
    324c: 48           	pha
    324d: 18           	clc
    324e: a5 10        	lda	$10                     ; 0x10 <__rc0>
    3250: 69 fe        	adc	#$fe
    3252: 85 10        	sta	$10                     ; 0x10 <__rc0>
    3254: a5 11        	lda	$11                     ; 0x11 <__rc1>
    3256: 69 ff        	adc	#$ff
    3258: 85 11        	sta	$11                     ; 0x11 <__rc1>
    325a: 68           	pla
    325b: 85 6d        	sta	$6d                     ; 0x6d <__zp_bss_size+0x32>
    325d: 8a           	txa
    325e: a6 41        	ldx	$41                     ; 0x41 <selected>
    3260: 86 6e        	stx	$6e                     ; 0x6e <__zp_bss_size+0x33>
    3262: 64 6c        	stz	$6c                     ; 0x6c <__zp_bss_size+0x31>
    3264: a2 65        	ldx	#$65
    3266: a0 05        	ldy	#$5
    3268: 86 12        	stx	$12                     ; 0x12 <__rc2>
    326a: 84 13        	sty	$13                     ; 0x13 <__rc3>
    326c: a2 00        	ldx	#$0
    326e: 20 f6 6a     	jsr	$6af6 <__mulhi3>
    3271: 85 12        	sta	$12                     ; 0x12 <__rc2>
    3273: 86 13        	stx	$13                     ; 0x13 <__rc3>
    3275: a9 fb        	lda	#$fb
    3277: 18           	clc
    3278: 65 12        	adc	$12                     ; 0x12 <__rc2>
    327a: a8           	tay
    327b: a9 6c        	lda	#$6c
    327d: 65 13        	adc	$13                     ; 0x13 <__rc3>
    327f: aa           	tax
    3280: 84 74        	sty	$74                     ; 0x74 <__zp_bss_size+0x39>
    3282: 98           	tya
    3283: 18           	clc
    3284: 69 64        	adc	#$64
    3286: 85 12        	sta	$12                     ; 0x12 <__rc2>
    3288: 8a           	txa
    3289: 86 72        	stx	$72                     ; 0x72 <__zp_bss_size+0x37>
    328b: 69 05        	adc	#$5
    328d: 85 13        	sta	$13                     ; 0x13 <__rc3>
    328f: b2 12        	lda	($12)                   ; 0x12 <__rc2>
    3291: 3a           	dec
    3292: c9 ff        	cmp	#$ff
    3294: d0 02        	bne	$3298 <goUpOrDown+0x4c>
    3296: c6 6c        	dec	$6c                     ; 0x6c <__zp_bss_size+0x31>
    3298: a6 6c        	ldx	$6c                     ; 0x6c <__zp_bss_size+0x31>
    329a: d0 12        	bne	$32ae <goUpOrDown+0x62>
    329c: c5 6e        	cmp	$6e                     ; 0x6e <__zp_bss_size+0x33>
    329e: d0 0e        	bne	$32ae <goUpOrDown+0x62>
    32a0: a5 6d        	lda	$6d                     ; 0x6d <__zp_bss_size+0x32>
    32a2: d0 03        	bne	$32a7 <goUpOrDown+0x5b>
    32a4: 4c 51 34     	jmp	$3451 <goUpOrDown+0x205>
    32a7: a5 6e        	lda	$6e                     ; 0x6e <__zp_bss_size+0x33>
    32a9: d0 0a        	bne	$32b5 <goUpOrDown+0x69>
    32ab: 4c 51 34     	jmp	$3451 <goUpOrDown+0x205>
    32ae: a5 6e        	lda	$6e                     ; 0x6e <__zp_bss_size+0x33>
    32b0: d0 03        	bne	$32b5 <goUpOrDown+0x69>
    32b2: 4c 4a 34     	jmp	$344a <goUpOrDown+0x1fe>
    32b5: a2 94        	ldx	#$94
    32b7: 8e 08 d6     	stx	$d608                   ; 0xd608 <__heap_start+0x5378>
    32ba: a2 8e        	ldx	#$8e
    32bc: 8e 08 d6     	stx	$d608                   ; 0xd608 <__heap_start+0x5378>
    32bf: a2 27        	ldx	#$27
    32c1: 8e 08 d6     	stx	$d608                   ; 0xd608 <__heap_start+0x5378>
    32c4: a2 80        	ldx	#$80
    32c6: 86 f3        	stx	$f3                     ; 0xf3 <__zp_bss_size+0xb8>
    32c8: a2 76        	ldx	#$76
    32ca: a0 00        	ldy	#$0
    32cc: 86 12        	stx	$12                     ; 0x12 <__rc2>
    32ce: 84 13        	sty	$13                     ; 0x13 <__rc3>
    32d0: a2 65        	ldx	#$65
    32d2: 86 14        	stx	$14                     ; 0x14 <__rc4>
    32d4: a2 00        	ldx	#$0
    32d6: 86 15        	stx	$15                     ; 0x15 <__rc5>
    32d8: 20 f0 ff     	jsr	$fff0 <__heap_start+0x7d60>
    32db: 92 12        	sta	($12)                   ; 0x12 <__rc2>
    32dd: a9 00        	lda	#$0
    32df: 6a           	ror
    32e0: 85 14        	sta	$14                     ; 0x14 <__rc4>
    32e2: a9 02        	lda	#$2
    32e4: 18           	clc
    32e5: 65 76        	adc	$76                     ; 0x76 <__zp_bss_size+0x3b>
    32e7: 85 47        	sta	$47                     ; 0x47 <menuSoundTimer.1>
    32e9: 64 f3        	stz	$f3                     ; 0xf3 <__zp_bss_size+0xb8>
    32eb: a6 47        	ldx	$47                     ; 0x47 <menuSoundTimer.1>
    32ed: 86 f4        	stx	$f4                     ; 0xf4 <__zp_bss_size+0xb9>
    32ef: a2 01        	ldx	#$1
    32f1: 8a           	txa
    32f2: 86 70        	stx	$70                     ; 0x70 <__zp_bss_size+0x35>
    32f4: 25 48        	and	$48                     ; 0x48 <menuSoundTimer.2>
    32f6: 85 f5        	sta	$f5                     ; 0xf5 <__zp_bss_size+0xba>
    32f8: a2 75        	ldx	#$75
    32fa: a0 00        	ldy	#$0
    32fc: 86 12        	stx	$12                     ; 0x12 <__rc2>
    32fe: 84 13        	sty	$13                     ; 0x13 <__rc3>
    3300: a2 f0        	ldx	#$f0
    3302: 20 f0 ff     	jsr	$fff0 <__heap_start+0x7d60>
    3305: 92 12        	sta	($12)                   ; 0x12 <__rc2>
    3307: a9 00        	lda	#$0
    3309: 6a           	ror
    330a: 85 14        	sta	$14                     ; 0x14 <__rc4>
    330c: 86 30        	stx	$30                     ; 0x30 <_ccolor>
    330e: a4 41        	ldy	$41                     ; 0x41 <selected>
    3310: a9 0a        	lda	#$a
    3312: 18           	clc
    3313: 65 41        	adc	$41                     ; 0x41 <selected>
    3315: a2 07        	ldx	#$7
    3317: 86 31        	stx	$31                     ; 0x31 <_col>
    3319: 8e 14 d0     	stx	$d014                   ; 0xd014 <__heap_start+0x4d84>
    331c: 9c 15 d0     	stz	$d015                   ; 0xd015 <__heap_start+0x4d85>
    331f: 85 32        	sta	$32                     ; 0x32 <_row>
    3321: 8d 16 d0     	sta	$d016                   ; 0xd016 <__heap_start+0x4d86>
    3324: 85 6f        	sta	$6f                     ; 0x6f <__zp_bss_size+0x34>
    3326: 9c 17 d0     	stz	$d017                   ; 0xd017 <__heap_start+0x4d87>
    3329: a2 73        	ldx	#$73
    332b: 86 12        	stx	$12                     ; 0x12 <__rc2>
    332d: 64 13        	stz	$13                     ; 0x13 <__rc3>
    332f: a2 00        	ldx	#$0
    3331: 98           	tya
    3332: 20 f6 6a     	jsr	$6af6 <__mulhi3>
    3335: 85 12        	sta	$12                     ; 0x12 <__rc2>
    3337: 86 13        	stx	$13                     ; 0x13 <__rc3>
    3339: 18           	clc
    333a: a5 74        	lda	$74                     ; 0x74 <__zp_bss_size+0x39>
    333c: 65 12        	adc	$12                     ; 0x12 <__rc2>
    333e: a8           	tay
    333f: a5 72        	lda	$72                     ; 0x72 <__zp_bss_size+0x37>
    3341: 65 13        	adc	$13                     ; 0x13 <__rc3>
    3343: 85 71        	sta	$71                     ; 0x71 <__zp_bss_size+0x36>
    3345: 98           	tya
    3346: 92 10        	sta	($10)                   ; 0x10 <__rc0>
    3348: 84 73        	sty	$73                     ; 0x73 <__zp_bss_size+0x38>
    334a: a4 70        	ldy	$70                     ; 0x70 <__zp_bss_size+0x35>
    334c: a5 71        	lda	$71                     ; 0x71 <__zp_bss_size+0x36>
    334e: 91 10        	sta	($10),y                 ; 0x10 <__rc0>
    3350: a6 6d        	ldx	$6d                     ; 0x6d <__zp_bss_size+0x32>
    3352: 86 6e        	stx	$6e                     ; 0x6e <__zp_bss_size+0x33>
    3354: a2 c4        	ldx	#$c4
    3356: 86 6c        	stx	$6c                     ; 0x6c <__zp_bss_size+0x31>
    3358: a2 6c        	ldx	#$6c
    335a: 86 6d        	stx	$6d                     ; 0x6d <__zp_bss_size+0x32>
    335c: a2 c4        	ldx	#$c4
    335e: 86 12        	stx	$12                     ; 0x12 <__rc2>
    3360: a2 6c        	ldx	#$6c
    3362: 86 13        	stx	$13                     ; 0x13 <__rc3>
    3364: 20 51 57     	jsr	$5751 <printf>
    3367: a2 1b        	ldx	#$1b
    3369: 86 31        	stx	$31                     ; 0x31 <_col>
    336b: 8e 14 d0     	stx	$d014                   ; 0xd014 <__heap_start+0x4d84>
    336e: 9c 15 d0     	stz	$d015                   ; 0xd015 <__heap_start+0x4d85>
    3371: a6 6f        	ldx	$6f                     ; 0x6f <__zp_bss_size+0x34>
    3373: 86 32        	stx	$32                     ; 0x32 <_row>
    3375: 8e 16 d0     	stx	$d016                   ; 0xd016 <__heap_start+0x4d86>
    3378: 9c 17 d0     	stz	$d017                   ; 0xd017 <__heap_start+0x4d87>
    337b: 18           	clc
    337c: a5 73        	lda	$73                     ; 0x73 <__zp_bss_size+0x38>
    337e: 69 14        	adc	#$14
    3380: 85 12        	sta	$12                     ; 0x12 <__rc2>
    3382: a5 71        	lda	$71                     ; 0x71 <__zp_bss_size+0x36>
    3384: 69 00        	adc	#$0
    3386: aa           	tax
    3387: a5 12        	lda	$12                     ; 0x12 <__rc2>
    3389: 92 10        	sta	($10)                   ; 0x10 <__rc0>
    338b: a4 70        	ldy	$70                     ; 0x70 <__zp_bss_size+0x35>
    338d: 8a           	txa
    338e: 91 10        	sta	($10),y                 ; 0x10 <__rc0>
    3390: a2 c4        	ldx	#$c4
    3392: 86 12        	stx	$12                     ; 0x12 <__rc2>
    3394: a2 6c        	ldx	#$6c
    3396: 86 13        	stx	$13                     ; 0x13 <__rc3>
    3398: 20 51 57     	jsr	$5751 <printf>
    339b: a5 41        	lda	$41                     ; 0x41 <selected>
    339d: a6 6e        	ldx	$6e                     ; 0x6e <__zp_bss_size+0x33>
    339f: f0 04        	beq	$33a5 <goUpOrDown+0x159>
    33a1: a2 ff        	ldx	#$ff
    33a3: 86 70        	stx	$70                     ; 0x70 <__zp_bss_size+0x35>
    33a5: 18           	clc
    33a6: a2 01        	ldx	#$1
    33a8: b0 02        	bcs	$33ac <goUpOrDown+0x160>
    33aa: a2 00        	ldx	#$0
    33ac: 86 13        	stx	$13                     ; 0x13 <__rc3>
    33ae: 65 70        	adc	$70                     ; 0x70 <__zp_bss_size+0x35>
    33b0: 85 41        	sta	$41                     ; 0x41 <selected>
    33b2: a2 d1        	ldx	#$d1
    33b4: 86 30        	stx	$30                     ; 0x30 <_ccolor>
    33b6: a8           	tay
    33b7: a6 13        	ldx	$13                     ; 0x13 <__rc3>
    33b9: e0 01        	cpx	#$1
    33bb: 69 0a        	adc	#$a
    33bd: a2 07        	ldx	#$7
    33bf: 86 31        	stx	$31                     ; 0x31 <_col>
    33c1: 8e 14 d0     	stx	$d014                   ; 0xd014 <__heap_start+0x4d84>
    33c4: 9c 15 d0     	stz	$d015                   ; 0xd015 <__heap_start+0x4d85>
    33c7: 85 32        	sta	$32                     ; 0x32 <_row>
    33c9: 8d 16 d0     	sta	$d016                   ; 0xd016 <__heap_start+0x4d86>
    33cc: 85 6e        	sta	$6e                     ; 0x6e <__zp_bss_size+0x33>
    33ce: 9c 17 d0     	stz	$d017                   ; 0xd017 <__heap_start+0x4d87>
    33d1: a2 73        	ldx	#$73
    33d3: 86 12        	stx	$12                     ; 0x12 <__rc2>
    33d5: 64 13        	stz	$13                     ; 0x13 <__rc3>
    33d7: a2 00        	ldx	#$0
    33d9: 98           	tya
    33da: 20 f6 6a     	jsr	$6af6 <__mulhi3>
    33dd: 85 12        	sta	$12                     ; 0x12 <__rc2>
    33df: 86 13        	stx	$13                     ; 0x13 <__rc3>
    33e1: a5 74        	lda	$74                     ; 0x74 <__zp_bss_size+0x39>
    33e3: a2 00        	ldx	#$0
    33e5: 86 73        	stx	$73                     ; 0x73 <__zp_bss_size+0x38>
    33e7: 18           	clc
    33e8: 65 12        	adc	$12                     ; 0x12 <__rc2>
    33ea: aa           	tax
    33eb: a5 72        	lda	$72                     ; 0x72 <__zp_bss_size+0x37>
    33ed: 65 13        	adc	$13                     ; 0x13 <__rc3>
    33ef: 85 6f        	sta	$6f                     ; 0x6f <__zp_bss_size+0x34>
    33f1: 8a           	txa
    33f2: 92 10        	sta	($10)                   ; 0x10 <__rc0>
    33f4: 86 70        	stx	$70                     ; 0x70 <__zp_bss_size+0x35>
    33f6: a0 01        	ldy	#$1
    33f8: a5 6f        	lda	$6f                     ; 0x6f <__zp_bss_size+0x34>
    33fa: 91 10        	sta	($10),y                 ; 0x10 <__rc0>
    33fc: 84 71        	sty	$71                     ; 0x71 <__zp_bss_size+0x36>
    33fe: a2 c4        	ldx	#$c4
    3400: 86 6c        	stx	$6c                     ; 0x6c <__zp_bss_size+0x31>
    3402: a2 6c        	ldx	#$6c
    3404: 86 6d        	stx	$6d                     ; 0x6d <__zp_bss_size+0x32>
    3406: a2 c4        	ldx	#$c4
    3408: 86 12        	stx	$12                     ; 0x12 <__rc2>
    340a: a2 6c        	ldx	#$6c
    340c: 86 13        	stx	$13                     ; 0x13 <__rc3>
    340e: 20 51 57     	jsr	$5751 <printf>
    3411: a2 1b        	ldx	#$1b
    3413: 86 31        	stx	$31                     ; 0x31 <_col>
    3415: 8e 14 d0     	stx	$d014                   ; 0xd014 <__heap_start+0x4d84>
    3418: 9c 15 d0     	stz	$d015                   ; 0xd015 <__heap_start+0x4d85>
    341b: a6 6e        	ldx	$6e                     ; 0x6e <__zp_bss_size+0x33>
    341d: 86 32        	stx	$32                     ; 0x32 <_row>
    341f: 8e 16 d0     	stx	$d016                   ; 0xd016 <__heap_start+0x4d86>
    3422: 9c 17 d0     	stz	$d017                   ; 0xd017 <__heap_start+0x4d87>
    3425: a6 73        	ldx	$73                     ; 0x73 <__zp_bss_size+0x38>
    3427: e0 01        	cpx	#$1
    3429: a5 70        	lda	$70                     ; 0x70 <__zp_bss_size+0x35>
    342b: 69 14        	adc	#$14
    342d: 85 12        	sta	$12                     ; 0x12 <__rc2>
    342f: a5 6f        	lda	$6f                     ; 0x6f <__zp_bss_size+0x34>
    3431: 69 00        	adc	#$0
    3433: aa           	tax
    3434: a5 12        	lda	$12                     ; 0x12 <__rc2>
    3436: 92 10        	sta	($10)                   ; 0x10 <__rc0>
    3438: a4 71        	ldy	$71                     ; 0x71 <__zp_bss_size+0x36>
    343a: 8a           	txa
    343b: 91 10        	sta	($10),y                 ; 0x10 <__rc0>
    343d: a2 c4        	ldx	#$c4
    343f: 86 12        	stx	$12                     ; 0x12 <__rc2>
    3441: a2 6c        	ldx	#$6c
    3443: 86 13        	stx	$13                     ; 0x13 <__rc3>
    3445: 20 51 57     	jsr	$5751 <printf>
    3448: 80 07        	bra	$3451 <goUpOrDown+0x205>
    344a: a5 6d        	lda	$6d                     ; 0x6d <__zp_bss_size+0x32>
    344c: d0 03        	bne	$3451 <goUpOrDown+0x205>
    344e: 4c b5 32     	jmp	$32b5 <goUpOrDown+0x69>
    3451: 18           	clc
    3452: a5 10        	lda	$10                     ; 0x10 <__rc0>
    3454: 69 02        	adc	#$2
    3456: 85 10        	sta	$10                     ; 0x10 <__rc0>
    3458: a5 11        	lda	$11                     ; 0x11 <__rc1>
    345a: 69 00        	adc	#$0
    345c: 85 11        	sta	$11                     ; 0x11 <__rc1>
    345e: 60           	rts

0000345f <readLine>:
    345f: 18           	clc
    3460: a5 10        	lda	$10                     ; 0x10 <__rc0>
    3462: 69 e7        	adc	#$e7
    3464: 85 10        	sta	$10                     ; 0x10 <__rc0>
    3466: a5 11        	lda	$11                     ; 0x11 <__rc1>
    3468: 69 ff        	adc	#$ff
    346a: 85 11        	sta	$11                     ; 0x11 <__rc1>
    346c: a6 24        	ldx	$24                     ; 0x24 <__rc20>
    346e: da           	phx
    346f: a6 25        	ldx	$25                     ; 0x25 <__rc21>
    3471: da           	phx
    3472: a5 12        	lda	$12                     ; 0x12 <__rc2>
    3474: a6 13        	ldx	$13                     ; 0x13 <__rc3>
    3476: 18           	clc
    3477: 48           	pha
    3478: a5 10        	lda	$10                     ; 0x10 <__rc0>
    347a: 69 17        	adc	#$17
    347c: 85 12        	sta	$12                     ; 0x12 <__rc2>
    347e: a5 11        	lda	$11                     ; 0x11 <__rc1>
    3480: 69 00        	adc	#$0
    3482: 85 13        	sta	$13                     ; 0x13 <__rc3>
    3484: 68           	pla
    3485: 92 12        	sta	($12)                   ; 0x12 <__rc2>
    3487: a0 01        	ldy	#$1
    3489: 8a           	txa
    348a: 91 12        	sta	($12),y                 ; 0x12 <__rc2>
    348c: 18           	clc
    348d: a5 10        	lda	$10                     ; 0x10 <__rc0>
    348f: 69 15        	adc	#$15
    3491: 85 14        	sta	$14                     ; 0x14 <__rc4>
    3493: a5 11        	lda	$11                     ; 0x11 <__rc1>
    3495: 69 00        	adc	#$0
    3497: 85 15        	sta	$15                     ; 0x15 <__rc5>
    3499: a9 00        	lda	#$0
    349b: 92 14        	sta	($14)                   ; 0x14 <__rc4>
    349d: 91 14        	sta	($14),y                 ; 0x14 <__rc4>
    349f: 18           	clc
    34a0: 48           	pha
    34a1: a5 10        	lda	$10                     ; 0x10 <__rc0>
    34a3: 69 13        	adc	#$13
    34a5: 85 14        	sta	$14                     ; 0x14 <__rc4>
    34a7: a5 11        	lda	$11                     ; 0x11 <__rc1>
    34a9: 69 00        	adc	#$0
    34ab: 85 15        	sta	$15                     ; 0x15 <__rc5>
    34ad: 68           	pla
    34ae: 92 14        	sta	($14)                   ; 0x14 <__rc4>
    34b0: 91 14        	sta	($14),y                 ; 0x14 <__rc4>
    34b2: 18           	clc
    34b3: 48           	pha
    34b4: a5 10        	lda	$10                     ; 0x10 <__rc0>
    34b6: 69 11        	adc	#$11
    34b8: 85 14        	sta	$14                     ; 0x14 <__rc4>
    34ba: a5 11        	lda	$11                     ; 0x11 <__rc1>
    34bc: 69 00        	adc	#$0
    34be: 85 15        	sta	$15                     ; 0x15 <__rc5>
    34c0: 68           	pla
    34c1: 92 14        	sta	($14)                   ; 0x14 <__rc4>
    34c3: 91 14        	sta	($14),y                 ; 0x14 <__rc4>
    34c5: 18           	clc
    34c6: 48           	pha
    34c7: a5 10        	lda	$10                     ; 0x10 <__rc0>
    34c9: 69 0f        	adc	#$f
    34cb: 85 14        	sta	$14                     ; 0x14 <__rc4>
    34cd: a5 11        	lda	$11                     ; 0x11 <__rc1>
    34cf: 69 00        	adc	#$0
    34d1: 85 15        	sta	$15                     ; 0x15 <__rc5>
    34d3: 68           	pla
    34d4: 92 14        	sta	($14)                   ; 0x14 <__rc4>
    34d6: 91 14        	sta	($14),y                 ; 0x14 <__rc4>
    34d8: 18           	clc
    34d9: 48           	pha
    34da: a5 10        	lda	$10                     ; 0x10 <__rc0>
    34dc: 69 0d        	adc	#$d
    34de: 85 14        	sta	$14                     ; 0x14 <__rc4>
    34e0: a5 11        	lda	$11                     ; 0x11 <__rc1>
    34e2: 69 00        	adc	#$0
    34e4: 85 15        	sta	$15                     ; 0x15 <__rc5>
    34e6: 68           	pla
    34e7: 92 14        	sta	($14)                   ; 0x14 <__rc4>
    34e9: 18           	clc
    34ea: 48           	pha
    34eb: a5 10        	lda	$10                     ; 0x10 <__rc0>
    34ed: 69 09        	adc	#$9
    34ef: 85 14        	sta	$14                     ; 0x14 <__rc4>
    34f1: a5 11        	lda	$11                     ; 0x11 <__rc1>
    34f3: 69 00        	adc	#$0
    34f5: 85 15        	sta	$15                     ; 0x15 <__rc5>
    34f7: 68           	pla
    34f8: 92 14        	sta	($14)                   ; 0x14 <__rc4>
    34fa: 18           	clc
    34fb: 48           	pha
    34fc: a5 10        	lda	$10                     ; 0x10 <__rc0>
    34fe: 69 08        	adc	#$8
    3500: 85 14        	sta	$14                     ; 0x14 <__rc4>
    3502: a5 11        	lda	$11                     ; 0x11 <__rc1>
    3504: 69 00        	adc	#$0
    3506: 85 15        	sta	$15                     ; 0x15 <__rc5>
    3508: 68           	pla
    3509: 92 14        	sta	($14)                   ; 0x14 <__rc4>
    350b: 18           	clc
    350c: 48           	pha
    350d: a5 10        	lda	$10                     ; 0x10 <__rc0>
    350f: 69 07        	adc	#$7
    3511: 85 24        	sta	$24                     ; 0x24 <__rc20>
    3513: a5 11        	lda	$11                     ; 0x11 <__rc1>
    3515: 69 00        	adc	#$0
    3517: 85 25        	sta	$25                     ; 0x25 <__rc21>
    3519: 68           	pla
    351a: 92 24        	sta	($24)                   ; 0x24 <__rc20>
    351c: b2 12        	lda	($12)                   ; 0x12 <__rc2>
    351e: 85 14        	sta	$14                     ; 0x14 <__rc4>
    3520: b1 12        	lda	($12),y                 ; 0x12 <__rc2>
    3522: 85 15        	sta	$15                     ; 0x15 <__rc5>
    3524: 18           	clc
    3525: a5 10        	lda	$10                     ; 0x10 <__rc0>
    3527: 69 0e        	adc	#$e
    3529: 85 12        	sta	$12                     ; 0x12 <__rc2>
    352b: a5 11        	lda	$11                     ; 0x11 <__rc1>
    352d: 69 00        	adc	#$0
    352f: 85 13        	sta	$13                     ; 0x13 <__rc3>
    3531: 20 53 2d     	jsr	$2d53 <fileRead>
    3534: 92 24        	sta	($24)                   ; 0x24 <__rc20>
    3536: 18           	clc
    3537: a5 10        	lda	$10                     ; 0x10 <__rc0>
    3539: 69 07        	adc	#$7
    353b: 85 12        	sta	$12                     ; 0x12 <__rc2>
    353d: a5 11        	lda	$11                     ; 0x11 <__rc1>
    353f: 69 00        	adc	#$0
    3541: 85 13        	sta	$13                     ; 0x13 <__rc3>
    3543: b2 12        	lda	($12)                   ; 0x12 <__rc2>
    3545: c9 01        	cmp	#$1
    3547: f0 02        	beq	$354b <readLine+0xec>
    3549: 80 02        	bra	$354d <readLine+0xee>
    354b: 80 03        	bra	$3550 <readLine+0xf1>
    354d: 4c d8 39     	jmp	$39d8 <readLine+0x579>
    3550: 80 00        	bra	$3552 <readLine+0xf3>
    3552: 18           	clc
    3553: a5 10        	lda	$10                     ; 0x10 <__rc0>
    3555: 69 0e        	adc	#$e
    3557: 85 12        	sta	$12                     ; 0x12 <__rc2>
    3559: a5 11        	lda	$11                     ; 0x11 <__rc1>
    355b: 69 00        	adc	#$0
    355d: 85 13        	sta	$13                     ; 0x13 <__rc3>
    355f: b2 12        	lda	($12)                   ; 0x12 <__rc2>
    3561: c9 0a        	cmp	#$a
    3563: f0 02        	beq	$3567 <readLine+0x108>
    3565: 80 02        	bra	$3569 <readLine+0x10a>
    3567: 80 02        	bra	$356b <readLine+0x10c>
    3569: 80 05        	bra	$3570 <readLine+0x111>
    356b: 80 00        	bra	$356d <readLine+0x10e>
    356d: 4c d8 39     	jmp	$39d8 <readLine+0x579>
    3570: 18           	clc
    3571: a5 10        	lda	$10                     ; 0x10 <__rc0>
    3573: 69 0e        	adc	#$e
    3575: 85 12        	sta	$12                     ; 0x12 <__rc2>
    3577: a5 11        	lda	$11                     ; 0x11 <__rc1>
    3579: 69 00        	adc	#$0
    357b: 85 13        	sta	$13                     ; 0x13 <__rc3>
    357d: b2 12        	lda	($12)                   ; 0x12 <__rc2>
    357f: c9 0d        	cmp	#$d
    3581: f0 02        	beq	$3585 <readLine+0x126>
    3583: 80 02        	bra	$3587 <readLine+0x128>
    3585: 80 02        	bra	$3589 <readLine+0x12a>
    3587: 80 05        	bra	$358e <readLine+0x12f>
    3589: 80 00        	bra	$358b <readLine+0x12c>
    358b: 4c d8 39     	jmp	$39d8 <readLine+0x579>
    358e: 18           	clc
    358f: a5 10        	lda	$10                     ; 0x10 <__rc0>
    3591: 69 0e        	adc	#$e
    3593: 85 12        	sta	$12                     ; 0x12 <__rc2>
    3595: a5 11        	lda	$11                     ; 0x11 <__rc1>
    3597: 69 00        	adc	#$0
    3599: 85 13        	sta	$13                     ; 0x13 <__rc3>
    359b: b2 12        	lda	($12)                   ; 0x12 <__rc2>
    359d: c9 2c        	cmp	#$2c
    359f: f0 02        	beq	$35a3 <readLine+0x144>
    35a1: 80 02        	bra	$35a5 <readLine+0x146>
    35a3: 80 03        	bra	$35a8 <readLine+0x149>
    35a5: 4c 7c 36     	jmp	$367c <readLine+0x21d>
    35a8: 80 00        	bra	$35aa <readLine+0x14b>
    35aa: 18           	clc
    35ab: a5 10        	lda	$10                     ; 0x10 <__rc0>
    35ad: 69 0d        	adc	#$d
    35af: 85 12        	sta	$12                     ; 0x12 <__rc2>
    35b1: a5 11        	lda	$11                     ; 0x11 <__rc1>
    35b3: 69 00        	adc	#$0
    35b5: 85 13        	sta	$13                     ; 0x13 <__rc3>
    35b7: b2 12        	lda	($12)                   ; 0x12 <__rc2>
    35b9: f0 03        	beq	$35be <readLine+0x15f>
    35bb: 4c 1e 36     	jmp	$361e <readLine+0x1bf>
    35be: 18           	clc
    35bf: a5 10        	lda	$10                     ; 0x10 <__rc0>
    35c1: 69 0a        	adc	#$a
    35c3: 85 12        	sta	$12                     ; 0x12 <__rc2>
    35c5: a5 11        	lda	$11                     ; 0x11 <__rc1>
    35c7: 69 00        	adc	#$0
    35c9: 85 13        	sta	$13                     ; 0x13 <__rc3>
    35cb: 20 82 66     	jsr	$6682 <atoi>
    35ce: 18           	clc
    35cf: 48           	pha
    35d0: a5 10        	lda	$10                     ; 0x10 <__rc0>
    35d2: 69 09        	adc	#$9
    35d4: 85 12        	sta	$12                     ; 0x12 <__rc2>
    35d6: a5 11        	lda	$11                     ; 0x11 <__rc1>
    35d8: 69 00        	adc	#$0
    35da: 85 13        	sta	$13                     ; 0x13 <__rc3>
    35dc: 68           	pla
    35dd: 92 12        	sta	($12)                   ; 0x12 <__rc2>
    35df: b2 12        	lda	($12)                   ; 0x12 <__rc2>
    35e1: a0 65        	ldy	#$65
    35e3: a2 05        	ldx	#$5
    35e5: 84 12        	sty	$12                     ; 0x12 <__rc2>
    35e7: 86 13        	stx	$13                     ; 0x13 <__rc3>
    35e9: a2 00        	ldx	#$0
    35eb: 20 f6 6a     	jsr	$6af6 <__mulhi3>
    35ee: 85 12        	sta	$12                     ; 0x12 <__rc2>
    35f0: 86 13        	stx	$13                     ; 0x13 <__rc3>
    35f2: a9 fb        	lda	#$fb
    35f4: 18           	clc
    35f5: 65 12        	adc	$12                     ; 0x12 <__rc2>
    35f7: aa           	tax
    35f8: a9 6c        	lda	#$6c
    35fa: 65 13        	adc	$13                     ; 0x13 <__rc3>
    35fc: 85 12        	sta	$12                     ; 0x12 <__rc2>
    35fe: 18           	clc
    35ff: 8a           	txa
    3600: 69 64        	adc	#$64
    3602: aa           	tax
    3603: a5 12        	lda	$12                     ; 0x12 <__rc2>
    3605: 69 05        	adc	#$5
    3607: 85 13        	sta	$13                     ; 0x13 <__rc3>
    3609: 86 12        	stx	$12                     ; 0x12 <__rc2>
    360b: b2 12        	lda	($12)                   ; 0x12 <__rc2>
    360d: 18           	clc
    360e: 48           	pha
    360f: a5 10        	lda	$10                     ; 0x10 <__rc0>
    3611: 69 08        	adc	#$8
    3613: 85 12        	sta	$12                     ; 0x12 <__rc2>
    3615: a5 11        	lda	$11                     ; 0x11 <__rc1>
    3617: 69 00        	adc	#$0
    3619: 85 13        	sta	$13                     ; 0x13 <__rc3>
    361b: 68           	pla
    361c: 92 12        	sta	($12)                   ; 0x12 <__rc2>
    361e: 18           	clc
    361f: a5 10        	lda	$10                     ; 0x10 <__rc0>
    3621: 69 0d        	adc	#$d
    3623: 85 12        	sta	$12                     ; 0x12 <__rc2>
    3625: a5 11        	lda	$11                     ; 0x11 <__rc1>
    3627: 69 00        	adc	#$0
    3629: 85 13        	sta	$13                     ; 0x13 <__rc3>
    362b: b2 12        	lda	($12)                   ; 0x12 <__rc2>
    362d: 1a           	inc
    362e: 92 12        	sta	($12)                   ; 0x12 <__rc2>
    3630: b2 12        	lda	($12)                   ; 0x12 <__rc2>
    3632: c9 04        	cmp	#$4
    3634: f0 02        	beq	$3638 <readLine+0x1d9>
    3636: 80 02        	bra	$363a <readLine+0x1db>
    3638: 80 02        	bra	$363c <readLine+0x1dd>
    363a: 80 05        	bra	$3641 <readLine+0x1e2>
    363c: 80 00        	bra	$363e <readLine+0x1df>
    363e: 4c d8 39     	jmp	$39d8 <readLine+0x579>
    3641: 18           	clc
    3642: a5 10        	lda	$10                     ; 0x10 <__rc0>
    3644: 69 17        	adc	#$17
    3646: 85 12        	sta	$12                     ; 0x12 <__rc2>
    3648: a5 11        	lda	$11                     ; 0x11 <__rc1>
    364a: 69 00        	adc	#$0
    364c: 85 13        	sta	$13                     ; 0x13 <__rc3>
    364e: b2 12        	lda	($12)                   ; 0x12 <__rc2>
    3650: 85 14        	sta	$14                     ; 0x14 <__rc4>
    3652: a0 01        	ldy	#$1
    3654: b1 12        	lda	($12),y                 ; 0x12 <__rc2>
    3656: 85 15        	sta	$15                     ; 0x15 <__rc5>
    3658: 18           	clc
    3659: a5 10        	lda	$10                     ; 0x10 <__rc0>
    365b: 69 0e        	adc	#$e
    365d: 85 12        	sta	$12                     ; 0x12 <__rc2>
    365f: a5 11        	lda	$11                     ; 0x11 <__rc1>
    3661: 69 00        	adc	#$0
    3663: 85 13        	sta	$13                     ; 0x13 <__rc3>
    3665: 20 53 2d     	jsr	$2d53 <fileRead>
    3668: 18           	clc
    3669: 48           	pha
    366a: a5 10        	lda	$10                     ; 0x10 <__rc0>
    366c: 69 07        	adc	#$7
    366e: 85 12        	sta	$12                     ; 0x12 <__rc2>
    3670: a5 11        	lda	$11                     ; 0x11 <__rc1>
    3672: 69 00        	adc	#$0
    3674: 85 13        	sta	$13                     ; 0x13 <__rc3>
    3676: 68           	pla
    3677: 92 12        	sta	($12)                   ; 0x12 <__rc2>
    3679: 4c 36 35     	jmp	$3536 <readLine+0xd7>
    367c: 18           	clc
    367d: a5 10        	lda	$10                     ; 0x10 <__rc0>
    367f: 69 0d        	adc	#$d
    3681: 85 12        	sta	$12                     ; 0x12 <__rc2>
    3683: a5 11        	lda	$11                     ; 0x11 <__rc1>
    3685: 69 00        	adc	#$0
    3687: 85 13        	sta	$13                     ; 0x13 <__rc3>
    3689: b2 12        	lda	($12)                   ; 0x12 <__rc2>
    368b: c9 04        	cmp	#$4
    368d: 90 03        	bcc	$3692 <readLine+0x233>
    368f: 4c 9d 39     	jmp	$399d <readLine+0x53e>
    3692: 0a           	asl
    3693: aa           	tax
    3694: 7c 98 6b     	jmp	($6b98,x)               ; 0x6b98 <__BLOCK_SIZE+0x4b98>
    3697: 18           	clc
    3698: a5 10        	lda	$10                     ; 0x10 <__rc0>
    369a: 69 0f        	adc	#$f
    369c: 85 12        	sta	$12                     ; 0x12 <__rc2>
    369e: a5 11        	lda	$11                     ; 0x11 <__rc1>
    36a0: 69 00        	adc	#$0
    36a2: 85 13        	sta	$13                     ; 0x13 <__rc3>
    36a4: b2 12        	lda	($12)                   ; 0x12 <__rc2>
    36a6: 85 14        	sta	$14                     ; 0x14 <__rc4>
    36a8: a0 01        	ldy	#$1
    36aa: b1 12        	lda	($12),y                 ; 0x12 <__rc2>
    36ac: a6 14        	ldx	$14                     ; 0x14 <__rc4>
    36ae: e0 02        	cpx	#$2
    36b0: e9 00        	sbc	#$0
    36b2: 70 02        	bvs	$36b6 <readLine+0x257>
    36b4: 80 04        	bra	$36ba <readLine+0x25b>
    36b6: 49 80        	eor	#$80
    36b8: 80 02        	bra	$36bc <readLine+0x25d>
    36ba: 80 00        	bra	$36bc <readLine+0x25d>
    36bc: aa           	tax
    36bd: 30 03        	bmi	$36c2 <readLine+0x263>
    36bf: 4c 19 37     	jmp	$3719 <readLine+0x2ba>
    36c2: 18           	clc
    36c3: a5 10        	lda	$10                     ; 0x10 <__rc0>
    36c5: 69 0e        	adc	#$e
    36c7: 85 12        	sta	$12                     ; 0x12 <__rc2>
    36c9: a5 11        	lda	$11                     ; 0x11 <__rc1>
    36cb: 69 00        	adc	#$0
    36cd: 85 13        	sta	$13                     ; 0x13 <__rc3>
    36cf: b2 12        	lda	($12)                   ; 0x12 <__rc2>
    36d1: 85 16        	sta	$16                     ; 0x16 <__rc6>
    36d3: 18           	clc
    36d4: a5 10        	lda	$10                     ; 0x10 <__rc0>
    36d6: 69 0f        	adc	#$f
    36d8: 85 12        	sta	$12                     ; 0x12 <__rc2>
    36da: a5 11        	lda	$11                     ; 0x11 <__rc1>
    36dc: 69 00        	adc	#$0
    36de: 85 13        	sta	$13                     ; 0x13 <__rc3>
    36e0: b2 12        	lda	($12)                   ; 0x12 <__rc2>
    36e2: 85 14        	sta	$14                     ; 0x14 <__rc4>
    36e4: a0 01        	ldy	#$1
    36e6: b1 12        	lda	($12),y                 ; 0x12 <__rc2>
    36e8: 85 15        	sta	$15                     ; 0x15 <__rc5>
    36ea: aa           	tax
    36eb: a5 14        	lda	$14                     ; 0x14 <__rc4>
    36ed: 1a           	inc
    36ee: f0 03        	beq	$36f3 <readLine+0x294>
    36f0: 4c f7 36     	jmp	$36f7 <readLine+0x298>
    36f3: e8           	inx
    36f4: 4c f7 36     	jmp	$36f7 <readLine+0x298>
    36f7: 92 12        	sta	($12)                   ; 0x12 <__rc2>
    36f9: 8a           	txa
    36fa: 91 12        	sta	($12),y                 ; 0x12 <__rc2>
    36fc: 18           	clc
    36fd: a5 10        	lda	$10                     ; 0x10 <__rc0>
    36ff: 69 0a        	adc	#$a
    3701: 48           	pha
    3702: a5 11        	lda	$11                     ; 0x11 <__rc1>
    3704: 69 00        	adc	#$0
    3706: 85 12        	sta	$12                     ; 0x12 <__rc2>
    3708: 68           	pla
    3709: 18           	clc
    370a: 65 14        	adc	$14                     ; 0x14 <__rc4>
    370c: aa           	tax
    370d: a5 12        	lda	$12                     ; 0x12 <__rc2>
    370f: 65 15        	adc	$15                     ; 0x15 <__rc5>
    3711: 86 12        	stx	$12                     ; 0x12 <__rc2>
    3713: 85 13        	sta	$13                     ; 0x13 <__rc3>
    3715: a5 16        	lda	$16                     ; 0x16 <__rc6>
    3717: 92 12        	sta	($12)                   ; 0x12 <__rc2>
    3719: 4c 9d 39     	jmp	$399d <readLine+0x53e>
    371c: 18           	clc
    371d: a5 10        	lda	$10                     ; 0x10 <__rc0>
    371f: 69 15        	adc	#$15
    3721: 85 12        	sta	$12                     ; 0x12 <__rc2>
    3723: a5 11        	lda	$11                     ; 0x11 <__rc1>
    3725: 69 00        	adc	#$0
    3727: 85 13        	sta	$13                     ; 0x13 <__rc3>
    3729: b2 12        	lda	($12)                   ; 0x12 <__rc2>
    372b: 85 14        	sta	$14                     ; 0x14 <__rc4>
    372d: a0 01        	ldy	#$1
    372f: b1 12        	lda	($12),y                 ; 0x12 <__rc2>
    3731: a6 14        	ldx	$14                     ; 0x14 <__rc4>
    3733: e0 13        	cpx	#$13
    3735: e9 00        	sbc	#$0
    3737: 70 02        	bvs	$373b <readLine+0x2dc>
    3739: 80 04        	bra	$373f <readLine+0x2e0>
    373b: 49 80        	eor	#$80
    373d: 80 02        	bra	$3741 <readLine+0x2e2>
    373f: 80 00        	bra	$3741 <readLine+0x2e2>
    3741: aa           	tax
    3742: 30 03        	bmi	$3747 <readLine+0x2e8>
    3744: 4c ed 37     	jmp	$37ed <readLine+0x38e>
    3747: 18           	clc
    3748: a5 10        	lda	$10                     ; 0x10 <__rc0>
    374a: 69 0e        	adc	#$e
    374c: 85 12        	sta	$12                     ; 0x12 <__rc2>
    374e: a5 11        	lda	$11                     ; 0x11 <__rc1>
    3750: 69 00        	adc	#$0
    3752: 85 13        	sta	$13                     ; 0x13 <__rc3>
    3754: b2 12        	lda	($12)                   ; 0x12 <__rc2>
    3756: a0 02        	ldy	#$2
    3758: 91 10        	sta	($10),y                 ; 0x10 <__rc0>
    375a: 18           	clc
    375b: a5 10        	lda	$10                     ; 0x10 <__rc0>
    375d: 69 09        	adc	#$9
    375f: 85 12        	sta	$12                     ; 0x12 <__rc2>
    3761: a5 11        	lda	$11                     ; 0x11 <__rc1>
    3763: 69 00        	adc	#$0
    3765: 85 13        	sta	$13                     ; 0x13 <__rc3>
    3767: b2 12        	lda	($12)                   ; 0x12 <__rc2>
    3769: a2 65        	ldx	#$65
    376b: a0 05        	ldy	#$5
    376d: 86 12        	stx	$12                     ; 0x12 <__rc2>
    376f: 84 13        	sty	$13                     ; 0x13 <__rc3>
    3771: a2 00        	ldx	#$0
    3773: 20 f6 6a     	jsr	$6af6 <__mulhi3>
    3776: 85 12        	sta	$12                     ; 0x12 <__rc2>
    3778: 86 13        	stx	$13                     ; 0x13 <__rc3>
    377a: 18           	clc
    377b: a9 fb        	lda	#$fb
    377d: 65 12        	adc	$12                     ; 0x12 <__rc2>
    377f: 85 25        	sta	$25                     ; 0x25 <__rc21>
    3781: a9 6c        	lda	#$6c
    3783: 65 13        	adc	$13                     ; 0x13 <__rc3>
    3785: 85 24        	sta	$24                     ; 0x24 <__rc20>
    3787: 18           	clc
    3788: a5 10        	lda	$10                     ; 0x10 <__rc0>
    378a: 69 08        	adc	#$8
    378c: 85 12        	sta	$12                     ; 0x12 <__rc2>
    378e: a5 11        	lda	$11                     ; 0x11 <__rc1>
    3790: 69 00        	adc	#$0
    3792: 85 13        	sta	$13                     ; 0x13 <__rc3>
    3794: b2 12        	lda	($12)                   ; 0x12 <__rc2>
    3796: a2 73        	ldx	#$73
    3798: 86 12        	stx	$12                     ; 0x12 <__rc2>
    379a: 64 13        	stz	$13                     ; 0x13 <__rc3>
    379c: a2 00        	ldx	#$0
    379e: 20 f6 6a     	jsr	$6af6 <__mulhi3>
    37a1: 85 12        	sta	$12                     ; 0x12 <__rc2>
    37a3: 86 13        	stx	$13                     ; 0x13 <__rc3>
    37a5: 18           	clc
    37a6: a5 10        	lda	$10                     ; 0x10 <__rc0>
    37a8: 69 15        	adc	#$15
    37aa: 85 14        	sta	$14                     ; 0x14 <__rc4>
    37ac: a5 11        	lda	$11                     ; 0x11 <__rc1>
    37ae: 69 00        	adc	#$0
    37b0: 85 15        	sta	$15                     ; 0x15 <__rc5>
    37b2: b2 14        	lda	($14)                   ; 0x14 <__rc4>
    37b4: 85 16        	sta	$16                     ; 0x16 <__rc6>
    37b6: a0 01        	ldy	#$1
    37b8: b1 14        	lda	($14),y                 ; 0x14 <__rc4>
    37ba: 85 17        	sta	$17                     ; 0x17 <__rc7>
    37bc: a6 16        	ldx	$16                     ; 0x16 <__rc6>
    37be: 86 18        	stx	$18                     ; 0x18 <__rc8>
    37c0: e6 18        	inc	$18                     ; 0x18 <__rc8>
    37c2: f0 03        	beq	$37c7 <readLine+0x368>
    37c4: 4c cb 37     	jmp	$37cb <readLine+0x36c>
    37c7: 1a           	inc
    37c8: 4c cb 37     	jmp	$37cb <readLine+0x36c>
    37cb: 91 14        	sta	($14),y                 ; 0x14 <__rc4>
    37cd: a5 25        	lda	$25                     ; 0x25 <__rc21>
    37cf: 18           	clc
    37d0: 65 12        	adc	$12                     ; 0x12 <__rc2>
    37d2: a8           	tay
    37d3: a5 24        	lda	$24                     ; 0x24 <__rc20>
    37d5: 65 13        	adc	$13                     ; 0x13 <__rc3>
    37d7: aa           	tax
    37d8: a5 18        	lda	$18                     ; 0x18 <__rc8>
    37da: 92 14        	sta	($14)                   ; 0x14 <__rc4>
    37dc: 18           	clc
    37dd: 98           	tya
    37de: 65 16        	adc	$16                     ; 0x16 <__rc6>
    37e0: 85 12        	sta	$12                     ; 0x12 <__rc2>
    37e2: 8a           	txa
    37e3: 65 17        	adc	$17                     ; 0x17 <__rc7>
    37e5: 85 13        	sta	$13                     ; 0x13 <__rc3>
    37e7: a0 02        	ldy	#$2
    37e9: b1 10        	lda	($10),y                 ; 0x10 <__rc0>
    37eb: 92 12        	sta	($12)                   ; 0x12 <__rc2>
    37ed: 4c 9d 39     	jmp	$399d <readLine+0x53e>
    37f0: 18           	clc
    37f1: a5 10        	lda	$10                     ; 0x10 <__rc0>
    37f3: 69 13        	adc	#$13
    37f5: 85 12        	sta	$12                     ; 0x12 <__rc2>
    37f7: a5 11        	lda	$11                     ; 0x11 <__rc1>
    37f9: 69 00        	adc	#$0
    37fb: 85 13        	sta	$13                     ; 0x13 <__rc3>
    37fd: b2 12        	lda	($12)                   ; 0x12 <__rc2>
    37ff: 85 14        	sta	$14                     ; 0x14 <__rc4>
    3801: a0 01        	ldy	#$1
    3803: b1 12        	lda	($12),y                 ; 0x12 <__rc2>
    3805: a6 14        	ldx	$14                     ; 0x14 <__rc4>
    3807: e0 22        	cpx	#$22
    3809: e9 00        	sbc	#$0
    380b: 70 02        	bvs	$380f <readLine+0x3b0>
    380d: 80 04        	bra	$3813 <readLine+0x3b4>
    380f: 49 80        	eor	#$80
    3811: 80 02        	bra	$3815 <readLine+0x3b6>
    3813: 80 00        	bra	$3815 <readLine+0x3b6>
    3815: aa           	tax
    3816: 30 03        	bmi	$381b <readLine+0x3bc>
    3818: 4c c5 38     	jmp	$38c5 <readLine+0x466>
    381b: 18           	clc
    381c: a5 10        	lda	$10                     ; 0x10 <__rc0>
    381e: 69 0e        	adc	#$e
    3820: 85 12        	sta	$12                     ; 0x12 <__rc2>
    3822: a5 11        	lda	$11                     ; 0x11 <__rc1>
    3824: 69 00        	adc	#$0
    3826: 85 13        	sta	$13                     ; 0x13 <__rc3>
    3828: b2 12        	lda	($12)                   ; 0x12 <__rc2>
    382a: a0 01        	ldy	#$1
    382c: 91 10        	sta	($10),y                 ; 0x10 <__rc0>
    382e: 18           	clc
    382f: a5 10        	lda	$10                     ; 0x10 <__rc0>
    3831: 69 09        	adc	#$9
    3833: 85 12        	sta	$12                     ; 0x12 <__rc2>
    3835: a5 11        	lda	$11                     ; 0x11 <__rc1>
    3837: 69 00        	adc	#$0
    3839: 85 13        	sta	$13                     ; 0x13 <__rc3>
    383b: b2 12        	lda	($12)                   ; 0x12 <__rc2>
    383d: a2 65        	ldx	#$65
    383f: a0 05        	ldy	#$5
    3841: 86 12        	stx	$12                     ; 0x12 <__rc2>
    3843: 84 13        	sty	$13                     ; 0x13 <__rc3>
    3845: a2 00        	ldx	#$0
    3847: 20 f6 6a     	jsr	$6af6 <__mulhi3>
    384a: 85 12        	sta	$12                     ; 0x12 <__rc2>
    384c: 86 13        	stx	$13                     ; 0x13 <__rc3>
    384e: a9 fb        	lda	#$fb
    3850: 18           	clc
    3851: 65 12        	adc	$12                     ; 0x12 <__rc2>
    3853: 85 25        	sta	$25                     ; 0x25 <__rc21>
    3855: a9 6c        	lda	#$6c
    3857: 65 13        	adc	$13                     ; 0x13 <__rc3>
    3859: 85 24        	sta	$24                     ; 0x24 <__rc20>
    385b: 18           	clc
    385c: a5 10        	lda	$10                     ; 0x10 <__rc0>
    385e: 69 08        	adc	#$8
    3860: 85 12        	sta	$12                     ; 0x12 <__rc2>
    3862: a5 11        	lda	$11                     ; 0x11 <__rc1>
    3864: 69 00        	adc	#$0
    3866: 85 13        	sta	$13                     ; 0x13 <__rc3>
    3868: b2 12        	lda	($12)                   ; 0x12 <__rc2>
    386a: a2 73        	ldx	#$73
    386c: 86 12        	stx	$12                     ; 0x12 <__rc2>
    386e: 64 13        	stz	$13                     ; 0x13 <__rc3>
    3870: a2 00        	ldx	#$0
    3872: 20 f6 6a     	jsr	$6af6 <__mulhi3>
    3875: 85 12        	sta	$12                     ; 0x12 <__rc2>
    3877: 86 13        	stx	$13                     ; 0x13 <__rc3>
    3879: 18           	clc
    387a: a5 10        	lda	$10                     ; 0x10 <__rc0>
    387c: 69 13        	adc	#$13
    387e: 85 14        	sta	$14                     ; 0x14 <__rc4>
    3880: a5 11        	lda	$11                     ; 0x11 <__rc1>
    3882: 69 00        	adc	#$0
    3884: 85 15        	sta	$15                     ; 0x15 <__rc5>
    3886: b2 14        	lda	($14)                   ; 0x14 <__rc4>
    3888: 85 16        	sta	$16                     ; 0x16 <__rc6>
    388a: a0 01        	ldy	#$1
    388c: b1 14        	lda	($14),y                 ; 0x14 <__rc4>
    388e: 85 17        	sta	$17                     ; 0x17 <__rc7>
    3890: a6 16        	ldx	$16                     ; 0x16 <__rc6>
    3892: 86 18        	stx	$18                     ; 0x18 <__rc8>
    3894: e6 18        	inc	$18                     ; 0x18 <__rc8>
    3896: f0 03        	beq	$389b <readLine+0x43c>
    3898: 4c 9f 38     	jmp	$389f <readLine+0x440>
    389b: 1a           	inc
    389c: 4c 9f 38     	jmp	$389f <readLine+0x440>
    389f: 91 14        	sta	($14),y                 ; 0x14 <__rc4>
    38a1: a5 25        	lda	$25                     ; 0x25 <__rc21>
    38a3: 18           	clc
    38a4: 65 12        	adc	$12                     ; 0x12 <__rc2>
    38a6: a8           	tay
    38a7: a5 24        	lda	$24                     ; 0x24 <__rc20>
    38a9: 65 13        	adc	$13                     ; 0x13 <__rc3>
    38ab: aa           	tax
    38ac: 18           	clc
    38ad: 98           	tya
    38ae: 65 16        	adc	$16                     ; 0x16 <__rc6>
    38b0: 85 12        	sta	$12                     ; 0x12 <__rc2>
    38b2: 8a           	txa
    38b3: 65 17        	adc	$17                     ; 0x17 <__rc7>
    38b5: 85 13        	sta	$13                     ; 0x13 <__rc3>
    38b7: a0 14        	ldy	#$14
    38b9: 5a           	phy
    38ba: a0 01        	ldy	#$1
    38bc: b1 10        	lda	($10),y                 ; 0x10 <__rc0>
    38be: 7a           	ply
    38bf: 91 12        	sta	($12),y                 ; 0x12 <__rc2>
    38c1: a5 18        	lda	$18                     ; 0x18 <__rc8>
    38c3: 92 14        	sta	($14)                   ; 0x14 <__rc4>
    38c5: 4c 9d 39     	jmp	$399d <readLine+0x53e>
    38c8: 18           	clc
    38c9: a5 10        	lda	$10                     ; 0x10 <__rc0>
    38cb: 69 11        	adc	#$11
    38cd: 85 12        	sta	$12                     ; 0x12 <__rc2>
    38cf: a5 11        	lda	$11                     ; 0x11 <__rc1>
    38d1: 69 00        	adc	#$0
    38d3: 85 13        	sta	$13                     ; 0x13 <__rc3>
    38d5: b2 12        	lda	($12)                   ; 0x12 <__rc2>
    38d7: 85 14        	sta	$14                     ; 0x14 <__rc4>
    38d9: a0 01        	ldy	#$1
    38db: b1 12        	lda	($12),y                 ; 0x12 <__rc2>
    38dd: a6 14        	ldx	$14                     ; 0x14 <__rc4>
    38df: e0 3b        	cpx	#$3b
    38e1: e9 00        	sbc	#$0
    38e3: 70 02        	bvs	$38e7 <readLine+0x488>
    38e5: 80 04        	bra	$38eb <readLine+0x48c>
    38e7: 49 80        	eor	#$80
    38e9: 80 02        	bra	$38ed <readLine+0x48e>
    38eb: 80 00        	bra	$38ed <readLine+0x48e>
    38ed: aa           	tax
    38ee: 30 03        	bmi	$38f3 <readLine+0x494>
    38f0: 4c 9d 39     	jmp	$399d <readLine+0x53e>
    38f3: 18           	clc
    38f4: a5 10        	lda	$10                     ; 0x10 <__rc0>
    38f6: 69 0e        	adc	#$e
    38f8: 85 12        	sta	$12                     ; 0x12 <__rc2>
    38fa: a5 11        	lda	$11                     ; 0x11 <__rc1>
    38fc: 69 00        	adc	#$0
    38fe: 85 13        	sta	$13                     ; 0x13 <__rc3>
    3900: b2 12        	lda	($12)                   ; 0x12 <__rc2>
    3902: a0 00        	ldy	#$0
    3904: 91 10        	sta	($10),y                 ; 0x10 <__rc0>
    3906: 18           	clc
    3907: a5 10        	lda	$10                     ; 0x10 <__rc0>
    3909: 69 09        	adc	#$9
    390b: 85 12        	sta	$12                     ; 0x12 <__rc2>
    390d: a5 11        	lda	$11                     ; 0x11 <__rc1>
    390f: 69 00        	adc	#$0
    3911: 85 13        	sta	$13                     ; 0x13 <__rc3>
    3913: b2 12        	lda	($12)                   ; 0x12 <__rc2>
    3915: a2 65        	ldx	#$65
    3917: a0 05        	ldy	#$5
    3919: 86 12        	stx	$12                     ; 0x12 <__rc2>
    391b: 84 13        	sty	$13                     ; 0x13 <__rc3>
    391d: a2 00        	ldx	#$0
    391f: 20 f6 6a     	jsr	$6af6 <__mulhi3>
    3922: 85 12        	sta	$12                     ; 0x12 <__rc2>
    3924: 86 13        	stx	$13                     ; 0x13 <__rc3>
    3926: a9 fb        	lda	#$fb
    3928: 18           	clc
    3929: 65 12        	adc	$12                     ; 0x12 <__rc2>
    392b: 85 25        	sta	$25                     ; 0x25 <__rc21>
    392d: a9 6c        	lda	#$6c
    392f: 65 13        	adc	$13                     ; 0x13 <__rc3>
    3931: 85 24        	sta	$24                     ; 0x24 <__rc20>
    3933: 18           	clc
    3934: a5 10        	lda	$10                     ; 0x10 <__rc0>
    3936: 69 08        	adc	#$8
    3938: 85 12        	sta	$12                     ; 0x12 <__rc2>
    393a: a5 11        	lda	$11                     ; 0x11 <__rc1>
    393c: 69 00        	adc	#$0
    393e: 85 13        	sta	$13                     ; 0x13 <__rc3>
    3940: b2 12        	lda	($12)                   ; 0x12 <__rc2>
    3942: a2 73        	ldx	#$73
    3944: 86 12        	stx	$12                     ; 0x12 <__rc2>
    3946: 64 13        	stz	$13                     ; 0x13 <__rc3>
    3948: a2 00        	ldx	#$0
    394a: 20 f6 6a     	jsr	$6af6 <__mulhi3>
    394d: 85 12        	sta	$12                     ; 0x12 <__rc2>
    394f: 86 13        	stx	$13                     ; 0x13 <__rc3>
    3951: 18           	clc
    3952: a5 10        	lda	$10                     ; 0x10 <__rc0>
    3954: 69 11        	adc	#$11
    3956: 85 14        	sta	$14                     ; 0x14 <__rc4>
    3958: a5 11        	lda	$11                     ; 0x11 <__rc1>
    395a: 69 00        	adc	#$0
    395c: 85 15        	sta	$15                     ; 0x15 <__rc5>
    395e: b2 14        	lda	($14)                   ; 0x14 <__rc4>
    3960: 85 16        	sta	$16                     ; 0x16 <__rc6>
    3962: a0 01        	ldy	#$1
    3964: b1 14        	lda	($14),y                 ; 0x14 <__rc4>
    3966: 85 17        	sta	$17                     ; 0x17 <__rc7>
    3968: a6 16        	ldx	$16                     ; 0x16 <__rc6>
    396a: 86 18        	stx	$18                     ; 0x18 <__rc8>
    396c: e6 18        	inc	$18                     ; 0x18 <__rc8>
    396e: f0 03        	beq	$3973 <readLine+0x514>
    3970: 4c 77 39     	jmp	$3977 <readLine+0x518>
    3973: 1a           	inc
    3974: 4c 77 39     	jmp	$3977 <readLine+0x518>
    3977: 91 14        	sta	($14),y                 ; 0x14 <__rc4>
    3979: a5 25        	lda	$25                     ; 0x25 <__rc21>
    397b: 18           	clc
    397c: 65 12        	adc	$12                     ; 0x12 <__rc2>
    397e: a8           	tay
    397f: a5 24        	lda	$24                     ; 0x24 <__rc20>
    3981: 65 13        	adc	$13                     ; 0x13 <__rc3>
    3983: aa           	tax
    3984: 18           	clc
    3985: 98           	tya
    3986: 65 16        	adc	$16                     ; 0x16 <__rc6>
    3988: 85 12        	sta	$12                     ; 0x12 <__rc2>
    398a: 8a           	txa
    398b: 65 17        	adc	$17                     ; 0x17 <__rc7>
    398d: 85 13        	sta	$13                     ; 0x13 <__rc3>
    398f: a0 37        	ldy	#$37
    3991: 5a           	phy
    3992: a0 00        	ldy	#$0
    3994: b1 10        	lda	($10),y                 ; 0x10 <__rc0>
    3996: 7a           	ply
    3997: 91 12        	sta	($12),y                 ; 0x12 <__rc2>
    3999: a5 18        	lda	$18                     ; 0x18 <__rc8>
    399b: 92 14        	sta	($14)                   ; 0x14 <__rc4>
    399d: 18           	clc
    399e: a5 10        	lda	$10                     ; 0x10 <__rc0>
    39a0: 69 17        	adc	#$17
    39a2: 85 12        	sta	$12                     ; 0x12 <__rc2>
    39a4: a5 11        	lda	$11                     ; 0x11 <__rc1>
    39a6: 69 00        	adc	#$0
    39a8: 85 13        	sta	$13                     ; 0x13 <__rc3>
    39aa: b2 12        	lda	($12)                   ; 0x12 <__rc2>
    39ac: 85 14        	sta	$14                     ; 0x14 <__rc4>
    39ae: a0 01        	ldy	#$1
    39b0: b1 12        	lda	($12),y                 ; 0x12 <__rc2>
    39b2: 85 15        	sta	$15                     ; 0x15 <__rc5>
    39b4: 18           	clc
    39b5: a5 10        	lda	$10                     ; 0x10 <__rc0>
    39b7: 69 0e        	adc	#$e
    39b9: 85 12        	sta	$12                     ; 0x12 <__rc2>
    39bb: a5 11        	lda	$11                     ; 0x11 <__rc1>
    39bd: 69 00        	adc	#$0
    39bf: 85 13        	sta	$13                     ; 0x13 <__rc3>
    39c1: 20 53 2d     	jsr	$2d53 <fileRead>
    39c4: 18           	clc
    39c5: 48           	pha
    39c6: a5 10        	lda	$10                     ; 0x10 <__rc0>
    39c8: 69 07        	adc	#$7
    39ca: 85 12        	sta	$12                     ; 0x12 <__rc2>
    39cc: a5 11        	lda	$11                     ; 0x11 <__rc1>
    39ce: 69 00        	adc	#$0
    39d0: 85 13        	sta	$13                     ; 0x13 <__rc3>
    39d2: 68           	pla
    39d3: 92 12        	sta	($12)                   ; 0x12 <__rc2>
    39d5: 4c 79 36     	jmp	$3679 <readLine+0x21a>
    39d8: 18           	clc
    39d9: a5 10        	lda	$10                     ; 0x10 <__rc0>
    39db: 69 08        	adc	#$8
    39dd: 85 12        	sta	$12                     ; 0x12 <__rc2>
    39df: a5 11        	lda	$11                     ; 0x11 <__rc1>
    39e1: 69 00        	adc	#$0
    39e3: 85 13        	sta	$13                     ; 0x13 <__rc3>
    39e5: b2 12        	lda	($12)                   ; 0x12 <__rc2>
    39e7: 85 12        	sta	$12                     ; 0x12 <__rc2>
    39e9: a9 00        	lda	#$0
    39eb: a6 12        	ldx	$12                     ; 0x12 <__rc2>
    39ed: e0 0c        	cpx	#$c
    39ef: e9 00        	sbc	#$0
    39f1: 70 02        	bvs	$39f5 <readLine+0x596>
    39f3: 80 04        	bra	$39f9 <readLine+0x59a>
    39f5: 49 80        	eor	#$80
    39f7: 80 02        	bra	$39fb <readLine+0x59c>
    39f9: 80 00        	bra	$39fb <readLine+0x59c>
    39fb: aa           	tax
    39fc: 30 03        	bmi	$3a01 <readLine+0x5a2>
    39fe: 4c cb 3b     	jmp	$3bcb <readLine+0x76c>
    3a01: 18           	clc
    3a02: a5 10        	lda	$10                     ; 0x10 <__rc0>
    3a04: 69 07        	adc	#$7
    3a06: 85 12        	sta	$12                     ; 0x12 <__rc2>
    3a08: a5 11        	lda	$11                     ; 0x11 <__rc1>
    3a0a: 69 00        	adc	#$0
    3a0c: 85 13        	sta	$13                     ; 0x13 <__rc3>
    3a0e: b2 12        	lda	($12)                   ; 0x12 <__rc2>
    3a10: c9 01        	cmp	#$1
    3a12: f0 02        	beq	$3a16 <readLine+0x5b7>
    3a14: 80 02        	bra	$3a18 <readLine+0x5b9>
    3a16: 80 03        	bra	$3a1b <readLine+0x5bc>
    3a18: 4c cb 3b     	jmp	$3bcb <readLine+0x76c>
    3a1b: 80 00        	bra	$3a1d <readLine+0x5be>
    3a1d: 18           	clc
    3a1e: a5 10        	lda	$10                     ; 0x10 <__rc0>
    3a20: 69 09        	adc	#$9
    3a22: 85 14        	sta	$14                     ; 0x14 <__rc4>
    3a24: a5 11        	lda	$11                     ; 0x11 <__rc1>
    3a26: 69 00        	adc	#$0
    3a28: 85 15        	sta	$15                     ; 0x15 <__rc5>
    3a2a: a5 14        	lda	$14                     ; 0x14 <__rc4>
    3a2c: a0 03        	ldy	#$3
    3a2e: 91 10        	sta	($10),y                 ; 0x10 <__rc0>
    3a30: a5 15        	lda	$15                     ; 0x15 <__rc5>
    3a32: c8           	iny
    3a33: 91 10        	sta	($10),y                 ; 0x10 <__rc0>
    3a35: b2 14        	lda	($14)                   ; 0x14 <__rc4>
    3a37: a0 65        	ldy	#$65
    3a39: a2 05        	ldx	#$5
    3a3b: 84 12        	sty	$12                     ; 0x12 <__rc2>
    3a3d: 86 13        	stx	$13                     ; 0x13 <__rc3>
    3a3f: a2 00        	ldx	#$0
    3a41: 20 f6 6a     	jsr	$6af6 <__mulhi3>
    3a44: 85 12        	sta	$12                     ; 0x12 <__rc2>
    3a46: 86 13        	stx	$13                     ; 0x13 <__rc3>
    3a48: 18           	clc
    3a49: a9 fb        	lda	#$fb
    3a4b: 65 12        	adc	$12                     ; 0x12 <__rc2>
    3a4d: 85 25        	sta	$25                     ; 0x25 <__rc21>
    3a4f: a9 6c        	lda	#$6c
    3a51: 65 13        	adc	$13                     ; 0x13 <__rc3>
    3a53: 85 24        	sta	$24                     ; 0x24 <__rc20>
    3a55: 18           	clc
    3a56: a5 10        	lda	$10                     ; 0x10 <__rc0>
    3a58: 69 08        	adc	#$8
    3a5a: 85 14        	sta	$14                     ; 0x14 <__rc4>
    3a5c: a5 11        	lda	$11                     ; 0x11 <__rc1>
    3a5e: 69 00        	adc	#$0
    3a60: 85 15        	sta	$15                     ; 0x15 <__rc5>
    3a62: a5 14        	lda	$14                     ; 0x14 <__rc4>
    3a64: a0 05        	ldy	#$5
    3a66: 91 10        	sta	($10),y                 ; 0x10 <__rc0>
    3a68: a5 15        	lda	$15                     ; 0x15 <__rc5>
    3a6a: c8           	iny
    3a6b: 91 10        	sta	($10),y                 ; 0x10 <__rc0>
    3a6d: b2 14        	lda	($14)                   ; 0x14 <__rc4>
    3a6f: a2 73        	ldx	#$73
    3a71: 86 12        	stx	$12                     ; 0x12 <__rc2>
    3a73: 64 13        	stz	$13                     ; 0x13 <__rc3>
    3a75: a2 00        	ldx	#$0
    3a77: 20 f6 6a     	jsr	$6af6 <__mulhi3>
    3a7a: 85 12        	sta	$12                     ; 0x12 <__rc2>
    3a7c: 86 13        	stx	$13                     ; 0x13 <__rc3>
    3a7e: 18           	clc
    3a7f: a5 25        	lda	$25                     ; 0x25 <__rc21>
    3a81: 65 12        	adc	$12                     ; 0x12 <__rc2>
    3a83: aa           	tax
    3a84: a5 24        	lda	$24                     ; 0x24 <__rc20>
    3a86: 65 13        	adc	$13                     ; 0x13 <__rc3>
    3a88: 85 14        	sta	$14                     ; 0x14 <__rc4>
    3a8a: 18           	clc
    3a8b: a5 10        	lda	$10                     ; 0x10 <__rc0>
    3a8d: 69 15        	adc	#$15
    3a8f: 85 12        	sta	$12                     ; 0x12 <__rc2>
    3a91: a5 11        	lda	$11                     ; 0x11 <__rc1>
    3a93: 69 00        	adc	#$0
    3a95: 85 13        	sta	$13                     ; 0x13 <__rc3>
    3a97: a0 01        	ldy	#$1
    3a99: 18           	clc
    3a9a: 8a           	txa
    3a9b: 72 12        	adc	($12)                   ; 0x12 <__rc2>
    3a9d: aa           	tax
    3a9e: a5 14        	lda	$14                     ; 0x14 <__rc4>
    3aa0: 71 12        	adc	($12),y                 ; 0x12 <__rc2>
    3aa2: 86 12        	stx	$12                     ; 0x12 <__rc2>
    3aa4: 85 13        	sta	$13                     ; 0x13 <__rc3>
    3aa6: a9 00        	lda	#$0
    3aa8: 92 12        	sta	($12)                   ; 0x12 <__rc2>
    3aaa: a0 03        	ldy	#$3
    3aac: b1 10        	lda	($10),y                 ; 0x10 <__rc0>
    3aae: 85 12        	sta	$12                     ; 0x12 <__rc2>
    3ab0: c8           	iny
    3ab1: b1 10        	lda	($10),y                 ; 0x10 <__rc0>
    3ab3: 85 13        	sta	$13                     ; 0x13 <__rc3>
    3ab5: b2 12        	lda	($12)                   ; 0x12 <__rc2>
    3ab7: a2 65        	ldx	#$65
    3ab9: 86 12        	stx	$12                     ; 0x12 <__rc2>
    3abb: a2 05        	ldx	#$5
    3abd: 86 13        	stx	$13                     ; 0x13 <__rc3>
    3abf: a2 00        	ldx	#$0
    3ac1: 20 f6 6a     	jsr	$6af6 <__mulhi3>
    3ac4: 85 12        	sta	$12                     ; 0x12 <__rc2>
    3ac6: 86 13        	stx	$13                     ; 0x13 <__rc3>
    3ac8: 18           	clc
    3ac9: a9 fb        	lda	#$fb
    3acb: 65 12        	adc	$12                     ; 0x12 <__rc2>
    3acd: 85 25        	sta	$25                     ; 0x25 <__rc21>
    3acf: a9 6c        	lda	#$6c
    3ad1: 65 13        	adc	$13                     ; 0x13 <__rc3>
    3ad3: 85 24        	sta	$24                     ; 0x24 <__rc20>
    3ad5: a0 05        	ldy	#$5
    3ad7: b1 10        	lda	($10),y                 ; 0x10 <__rc0>
    3ad9: 85 12        	sta	$12                     ; 0x12 <__rc2>
    3adb: c8           	iny
    3adc: b1 10        	lda	($10),y                 ; 0x10 <__rc0>
    3ade: 85 13        	sta	$13                     ; 0x13 <__rc3>
    3ae0: b2 12        	lda	($12)                   ; 0x12 <__rc2>
    3ae2: a2 73        	ldx	#$73
    3ae4: 86 12        	stx	$12                     ; 0x12 <__rc2>
    3ae6: 64 13        	stz	$13                     ; 0x13 <__rc3>
    3ae8: a2 00        	ldx	#$0
    3aea: 20 f6 6a     	jsr	$6af6 <__mulhi3>
    3aed: 85 12        	sta	$12                     ; 0x12 <__rc2>
    3aef: 86 13        	stx	$13                     ; 0x13 <__rc3>
    3af1: 18           	clc
    3af2: a5 25        	lda	$25                     ; 0x25 <__rc21>
    3af4: 65 12        	adc	$12                     ; 0x12 <__rc2>
    3af6: aa           	tax
    3af7: a5 24        	lda	$24                     ; 0x24 <__rc20>
    3af9: 65 13        	adc	$13                     ; 0x13 <__rc3>
    3afb: 85 14        	sta	$14                     ; 0x14 <__rc4>
    3afd: 18           	clc
    3afe: a5 10        	lda	$10                     ; 0x10 <__rc0>
    3b00: 69 13        	adc	#$13
    3b02: 85 12        	sta	$12                     ; 0x12 <__rc2>
    3b04: a5 11        	lda	$11                     ; 0x11 <__rc1>
    3b06: 69 00        	adc	#$0
    3b08: 85 13        	sta	$13                     ; 0x13 <__rc3>
    3b0a: 18           	clc
    3b0b: 8a           	txa
    3b0c: 72 12        	adc	($12)                   ; 0x12 <__rc2>
    3b0e: aa           	tax
    3b0f: a0 01        	ldy	#$1
    3b11: a5 14        	lda	$14                     ; 0x14 <__rc4>
    3b13: 71 12        	adc	($12),y                 ; 0x12 <__rc2>
    3b15: 86 12        	stx	$12                     ; 0x12 <__rc2>
    3b17: 85 13        	sta	$13                     ; 0x13 <__rc3>
    3b19: a0 14        	ldy	#$14
    3b1b: a9 00        	lda	#$0
    3b1d: 91 12        	sta	($12),y                 ; 0x12 <__rc2>
    3b1f: a0 03        	ldy	#$3
    3b21: b1 10        	lda	($10),y                 ; 0x10 <__rc0>
    3b23: 85 12        	sta	$12                     ; 0x12 <__rc2>
    3b25: c8           	iny
    3b26: b1 10        	lda	($10),y                 ; 0x10 <__rc0>
    3b28: 85 13        	sta	$13                     ; 0x13 <__rc3>
    3b2a: b2 12        	lda	($12)                   ; 0x12 <__rc2>
    3b2c: a2 65        	ldx	#$65
    3b2e: 86 12        	stx	$12                     ; 0x12 <__rc2>
    3b30: a2 05        	ldx	#$5
    3b32: 86 13        	stx	$13                     ; 0x13 <__rc3>
    3b34: a2 00        	ldx	#$0
    3b36: 20 f6 6a     	jsr	$6af6 <__mulhi3>
    3b39: 85 12        	sta	$12                     ; 0x12 <__rc2>
    3b3b: 86 13        	stx	$13                     ; 0x13 <__rc3>
    3b3d: 18           	clc
    3b3e: a9 fb        	lda	#$fb
    3b40: 65 12        	adc	$12                     ; 0x12 <__rc2>
    3b42: 85 25        	sta	$25                     ; 0x25 <__rc21>
    3b44: a9 6c        	lda	#$6c
    3b46: 65 13        	adc	$13                     ; 0x13 <__rc3>
    3b48: 85 24        	sta	$24                     ; 0x24 <__rc20>
    3b4a: a0 05        	ldy	#$5
    3b4c: b1 10        	lda	($10),y                 ; 0x10 <__rc0>
    3b4e: 85 12        	sta	$12                     ; 0x12 <__rc2>
    3b50: c8           	iny
    3b51: b1 10        	lda	($10),y                 ; 0x10 <__rc0>
    3b53: 85 13        	sta	$13                     ; 0x13 <__rc3>
    3b55: b2 12        	lda	($12)                   ; 0x12 <__rc2>
    3b57: a2 73        	ldx	#$73
    3b59: 86 12        	stx	$12                     ; 0x12 <__rc2>
    3b5b: 64 13        	stz	$13                     ; 0x13 <__rc3>
    3b5d: a2 00        	ldx	#$0
    3b5f: 20 f6 6a     	jsr	$6af6 <__mulhi3>
    3b62: 85 12        	sta	$12                     ; 0x12 <__rc2>
    3b64: 86 13        	stx	$13                     ; 0x13 <__rc3>
    3b66: 18           	clc
    3b67: a5 25        	lda	$25                     ; 0x25 <__rc21>
    3b69: 65 12        	adc	$12                     ; 0x12 <__rc2>
    3b6b: aa           	tax
    3b6c: a5 24        	lda	$24                     ; 0x24 <__rc20>
    3b6e: 65 13        	adc	$13                     ; 0x13 <__rc3>
    3b70: a8           	tay
    3b71: 18           	clc
    3b72: a5 10        	lda	$10                     ; 0x10 <__rc0>
    3b74: 69 11        	adc	#$11
    3b76: 85 12        	sta	$12                     ; 0x12 <__rc2>
    3b78: a5 11        	lda	$11                     ; 0x11 <__rc1>
    3b7a: 69 00        	adc	#$0
    3b7c: 85 13        	sta	$13                     ; 0x13 <__rc3>
    3b7e: 18           	clc
    3b7f: 8a           	txa
    3b80: 72 12        	adc	($12)                   ; 0x12 <__rc2>
    3b82: aa           	tax
    3b83: 98           	tya
    3b84: a0 01        	ldy	#$1
    3b86: 71 12        	adc	($12),y                 ; 0x12 <__rc2>
    3b88: 86 12        	stx	$12                     ; 0x12 <__rc2>
    3b8a: 85 13        	sta	$13                     ; 0x13 <__rc3>
    3b8c: a0 37        	ldy	#$37
    3b8e: a9 00        	lda	#$0
    3b90: 91 12        	sta	($12),y                 ; 0x12 <__rc2>
    3b92: a0 03        	ldy	#$3
    3b94: b1 10        	lda	($10),y                 ; 0x10 <__rc0>
    3b96: 85 12        	sta	$12                     ; 0x12 <__rc2>
    3b98: c8           	iny
    3b99: b1 10        	lda	($10),y                 ; 0x10 <__rc0>
    3b9b: 85 13        	sta	$13                     ; 0x13 <__rc3>
    3b9d: b2 12        	lda	($12)                   ; 0x12 <__rc2>
    3b9f: a2 65        	ldx	#$65
    3ba1: 86 12        	stx	$12                     ; 0x12 <__rc2>
    3ba3: a2 05        	ldx	#$5
    3ba5: 86 13        	stx	$13                     ; 0x13 <__rc3>
    3ba7: a2 00        	ldx	#$0
    3ba9: 20 f6 6a     	jsr	$6af6 <__mulhi3>
    3bac: 85 12        	sta	$12                     ; 0x12 <__rc2>
    3bae: 86 13        	stx	$13                     ; 0x13 <__rc3>
    3bb0: a9 fb        	lda	#$fb
    3bb2: 18           	clc
    3bb3: 65 12        	adc	$12                     ; 0x12 <__rc2>
    3bb5: a8           	tay
    3bb6: a9 6c        	lda	#$6c
    3bb8: 65 13        	adc	$13                     ; 0x13 <__rc3>
    3bba: aa           	tax
    3bbb: 98           	tya
    3bbc: 18           	clc
    3bbd: 69 64        	adc	#$64
    3bbf: 85 12        	sta	$12                     ; 0x12 <__rc2>
    3bc1: 8a           	txa
    3bc2: 69 05        	adc	#$5
    3bc4: 85 13        	sta	$13                     ; 0x13 <__rc3>
    3bc6: b2 12        	lda	($12)                   ; 0x12 <__rc2>
    3bc8: 1a           	inc
    3bc9: 92 12        	sta	($12)                   ; 0x12 <__rc2>
    3bcb: fa           	plx
    3bcc: 86 25        	stx	$25                     ; 0x25 <__rc21>
    3bce: fa           	plx
    3bcf: 86 24        	stx	$24                     ; 0x24 <__rc20>
    3bd1: 18           	clc
    3bd2: a5 10        	lda	$10                     ; 0x10 <__rc0>
    3bd4: 69 19        	adc	#$19
    3bd6: 85 10        	sta	$10                     ; 0x10 <__rc0>
    3bd8: a5 11        	lda	$11                     ; 0x11 <__rc1>
    3bda: 69 00        	adc	#$0
    3bdc: 85 11        	sta	$11                     ; 0x11 <__rc1>
    3bde: 60           	rts

00003bdf <readDelta>:
    3bdf: 48           	pha
    3be0: 18           	clc
    3be1: a5 10        	lda	$10                     ; 0x10 <__rc0>
    3be3: 69 f7        	adc	#$f7
    3be5: 85 10        	sta	$10                     ; 0x10 <__rc0>
    3be7: a5 11        	lda	$11                     ; 0x11 <__rc1>
    3be9: 69 ff        	adc	#$ff
    3beb: 85 11        	sta	$11                     ; 0x11 <__rc1>
    3bed: 68           	pla
    3bee: a6 24        	ldx	$24                     ; 0x24 <__rc20>
    3bf0: da           	phx
    3bf1: a6 25        	ldx	$25                     ; 0x25 <__rc21>
    3bf3: da           	phx
    3bf4: a6 26        	ldx	$26                     ; 0x26 <__rc22>
    3bf6: da           	phx
    3bf7: a6 27        	ldx	$27                     ; 0x27 <__rc23>
    3bf9: da           	phx
    3bfa: 48           	pha
    3bfb: a5 28        	lda	$28                     ; 0x28 <__rc24>
    3bfd: a0 02        	ldy	#$2
    3bff: 91 10        	sta	($10),y                 ; 0x10 <__rc0>
    3c01: a5 29        	lda	$29                     ; 0x29 <__rc25>
    3c03: 88           	dey
    3c04: 91 10        	sta	($10),y                 ; 0x10 <__rc0>
    3c06: a5 2a        	lda	$2a                     ; 0x2a <__rc26>
    3c08: 88           	dey
    3c09: 91 10        	sta	($10),y                 ; 0x10 <__rc0>
    3c0b: 68           	pla
    3c0c: 85 25        	sta	$25                     ; 0x25 <__rc21>
    3c0e: a6 5c        	ldx	$5c                     ; 0x5c <theOne.8>
    3c10: 86 27        	stx	$27                     ; 0x27 <__rc23>
    3c12: a6 5d        	ldx	$5d                     ; 0x5d <theOne.8+0x1>
    3c14: 86 26        	stx	$26                     ; 0x26 <__rc22>
    3c16: 64 24        	stz	$24                     ; 0x24 <__rc20>
    3c18: a2 19        	ldx	#$19
    3c1a: 86 12        	stx	$12                     ; 0x12 <__rc2>
    3c1c: 64 13        	stz	$13                     ; 0x13 <__rc3>
    3c1e: a2 00        	ldx	#$0
    3c20: 20 f6 6a     	jsr	$6af6 <__mulhi3>
    3c23: 85 12        	sta	$12                     ; 0x12 <__rc2>
    3c25: 86 13        	stx	$13                     ; 0x13 <__rc3>
    3c27: 18           	clc
    3c28: a5 27        	lda	$27                     ; 0x27 <__rc23>
    3c2a: 65 12        	adc	$12                     ; 0x12 <__rc2>
    3c2c: a8           	tay
    3c2d: a5 26        	lda	$26                     ; 0x26 <__rc22>
    3c2f: 65 13        	adc	$13                     ; 0x13 <__rc3>
    3c31: aa           	tax
    3c32: 84 12        	sty	$12                     ; 0x12 <__rc2>
    3c34: 85 13        	sta	$13                     ; 0x13 <__rc3>
    3c36: 98           	tya
    3c37: 18           	clc
    3c38: 69 08        	adc	#$8
    3c3a: 85 14        	sta	$14                     ; 0x14 <__rc4>
    3c3c: 8a           	txa
    3c3d: 69 00        	adc	#$0
    3c3f: 85 15        	sta	$15                     ; 0x15 <__rc5>
    3c41: 18           	clc
    3c42: 98           	tya
    3c43: 69 04        	adc	#$4
    3c45: 85 16        	sta	$16                     ; 0x16 <__rc6>
    3c47: 8a           	txa
    3c48: 69 00        	adc	#$0
    3c4a: a0 04        	ldy	#$4
    3c4c: 85 17        	sta	$17                     ; 0x17 <__rc7>
    3c4e: b1 12        	lda	($12),y                 ; 0x12 <__rc2>
    3c50: a2 04        	ldx	#$4
    3c52: 86 1d        	stx	$1d                     ; 0x1d <__rc13>
    3c54: 85 18        	sta	$18                     ; 0x18 <__rc8>
    3c56: a0 01        	ldy	#$1
    3c58: b1 16        	lda	($16),y                 ; 0x16 <__rc6>
    3c5a: 85 1a        	sta	$1a                     ; 0x1a <__rc10>
    3c5c: a2 01        	ldx	#$1
    3c5e: 86 1b        	stx	$1b                     ; 0x1b <__rc11>
    3c60: c8           	iny
    3c61: b1 16        	lda	($16),y                 ; 0x16 <__rc6>
    3c63: 85 19        	sta	$19                     ; 0x19 <__rc9>
    3c65: e8           	inx
    3c66: 86 1c        	stx	$1c                     ; 0x1c <__rc12>
    3c68: c8           	iny
    3c69: b1 16        	lda	($16),y                 ; 0x16 <__rc6>
    3c6b: e8           	inx
    3c6c: 86 1e        	stx	$1e                     ; 0x1e <__rc14>
    3c6e: a6 18        	ldx	$18                     ; 0x18 <__rc8>
    3c70: a4 1a        	ldy	$1a                     ; 0x1a <__rc10>
    3c72: 84 1f        	sty	$1f                     ; 0x1f <__rc15>
    3c74: a4 19        	ldy	$19                     ; 0x19 <__rc9>
    3c76: 84 22        	sty	$22                     ; 0x22 <__rc18>
    3c78: e8           	inx
    3c79: d0 09        	bne	$3c84 <readDelta+0xa5>
    3c7b: e6 1f        	inc	$1f                     ; 0x1f <__rc15>
    3c7d: d0 05        	bne	$3c84 <readDelta+0xa5>
    3c7f: e6 22        	inc	$22                     ; 0x22 <__rc18>
    3c81: d0 01        	bne	$3c84 <readDelta+0xa5>
    3c83: 1a           	inc
    3c84: 85 23        	sta	$23                     ; 0x23 <__rc19>
    3c86: a4 1d        	ldy	$1d                     ; 0x1d <__rc13>
    3c88: 8a           	txa
    3c89: 91 12        	sta	($12),y                 ; 0x12 <__rc2>
    3c8b: a4 1b        	ldy	$1b                     ; 0x1b <__rc11>
    3c8d: a5 1f        	lda	$1f                     ; 0x1f <__rc15>
    3c8f: 91 16        	sta	($16),y                 ; 0x16 <__rc6>
    3c91: a4 1c        	ldy	$1c                     ; 0x1c <__rc12>
    3c93: a5 22        	lda	$22                     ; 0x22 <__rc18>
    3c95: 91 16        	sta	($16),y                 ; 0x16 <__rc6>
    3c97: a4 1e        	ldy	$1e                     ; 0x1e <__rc14>
    3c99: a5 23        	lda	$23                     ; 0x23 <__rc19>
    3c9b: 91 16        	sta	($16),y                 ; 0x16 <__rc6>
    3c9d: 18           	clc
    3c9e: a0 08        	ldy	#$8
    3ca0: a5 18        	lda	$18                     ; 0x18 <__rc8>
    3ca2: 71 12        	adc	($12),y                 ; 0x12 <__rc2>
    3ca4: 85 13        	sta	$13                     ; 0x13 <__rc3>
    3ca6: a5 1a        	lda	$1a                     ; 0x1a <__rc10>
    3ca8: a4 1b        	ldy	$1b                     ; 0x1b <__rc11>
    3caa: 71 14        	adc	($14),y                 ; 0x14 <__rc4>
    3cac: 85 12        	sta	$12                     ; 0x12 <__rc2>
    3cae: a2 02        	ldx	#$2
    3cb0: 86 27        	stx	$27                     ; 0x27 <__rc23>
    3cb2: a5 19        	lda	$19                     ; 0x19 <__rc9>
    3cb4: a4 1c        	ldy	$1c                     ; 0x1c <__rc12>
    3cb6: 71 14        	adc	($14),y                 ; 0x14 <__rc4>
    3cb8: 85 14        	sta	$14                     ; 0x14 <__rc4>
    3cba: a5 12        	lda	$12                     ; 0x12 <__rc2>
    3cbc: 06 12        	asl	$12                     ; 0x12 <__rc2>
    3cbe: 26 14        	rol	$14                     ; 0x14 <__rc4>
    3cc0: 06 12        	asl	$12                     ; 0x12 <__rc2>
    3cc2: 26 14        	rol	$14                     ; 0x14 <__rc4>
    3cc4: 06 12        	asl	$12                     ; 0x12 <__rc2>
    3cc6: 26 14        	rol	$14                     ; 0x14 <__rc4>
    3cc8: a4 14        	ldy	$14                     ; 0x14 <__rc4>
    3cca: a6 0f        	ldx	$f                      ; 0xf <__zp_data_size+0xe>
    3ccc: 78           	sei
    3ccd: 84 0f        	sty	$f                      ; 0xf <__zp_data_size+0xe>
    3ccf: a4 13        	ldy	$13                     ; 0x13 <__rc3>
    3cd1: 84 12        	sty	$12                     ; 0x12 <__rc2>
    3cd3: 09 e0        	ora	#$e0
    3cd5: 85 13        	sta	$13                     ; 0x13 <__rc3>
    3cd7: b2 12        	lda	($12)                   ; 0x12 <__rc2>
    3cd9: 86 0f        	stx	$f                      ; 0xf <__zp_data_size+0xe>
    3cdb: 58           	cli
    3cdc: aa           	tax
    3cdd: 30 15        	bmi	$3cf4 <readDelta+0x115>
    3cdf: 64 26        	stz	$26                     ; 0x26 <__rc22>
    3ce1: 64 27        	stz	$27                     ; 0x27 <__rc23>
    3ce3: 64 13        	stz	$13                     ; 0x13 <__rc3>
    3ce5: 85 29        	sta	$29                     ; 0x29 <__rc25>
    3ce7: a9 00        	lda	#$0
    3ce9: 64 28        	stz	$28                     ; 0x28 <__rc24>
    3ceb: 64 15        	stz	$15                     ; 0x15 <__rc5>
    3ced: 64 12        	stz	$12                     ; 0x12 <__rc2>
    3cef: 64 14        	stz	$14                     ; 0x14 <__rc4>
    3cf1: 4c 50 40     	jmp	$4050 <readDelta+0x471>
    3cf4: 4a           	lsr
    3cf5: aa           	tax
    3cf6: a9 00        	lda	#$0
    3cf8: 6a           	ror
    3cf9: 29 80        	and	#$80
    3cfb: 85 2a        	sta	$2a                     ; 0x2a <__rc26>
    3cfd: 8a           	txa
    3cfe: 29 3f        	and	#$3f
    3d00: 85 26        	sta	$26                     ; 0x26 <__rc22>
    3d02: a6 5c        	ldx	$5c                     ; 0x5c <theOne.8>
    3d04: 86 29        	stx	$29                     ; 0x29 <__rc25>
    3d06: a6 5d        	ldx	$5d                     ; 0x5d <theOne.8+0x1>
    3d08: 86 28        	stx	$28                     ; 0x28 <__rc24>
    3d0a: a2 19        	ldx	#$19
    3d0c: 86 12        	stx	$12                     ; 0x12 <__rc2>
    3d0e: 64 13        	stz	$13                     ; 0x13 <__rc3>
    3d10: a2 00        	ldx	#$0
    3d12: a5 25        	lda	$25                     ; 0x25 <__rc21>
    3d14: 20 f6 6a     	jsr	$6af6 <__mulhi3>
    3d17: 85 12        	sta	$12                     ; 0x12 <__rc2>
    3d19: 86 13        	stx	$13                     ; 0x13 <__rc3>
    3d1b: a2 00        	ldx	#$0
    3d1d: 86 17        	stx	$17                     ; 0x17 <__rc7>
    3d1f: 18           	clc
    3d20: a5 29        	lda	$29                     ; 0x29 <__rc25>
    3d22: 65 12        	adc	$12                     ; 0x12 <__rc2>
    3d24: a8           	tay
    3d25: a5 28        	lda	$28                     ; 0x28 <__rc24>
    3d27: 65 13        	adc	$13                     ; 0x13 <__rc3>
    3d29: aa           	tax
    3d2a: 98           	tya
    3d2b: 84 12        	sty	$12                     ; 0x12 <__rc2>
    3d2d: 86 13        	stx	$13                     ; 0x13 <__rc3>
    3d2f: 84 18        	sty	$18                     ; 0x18 <__rc8>
    3d31: 18           	clc
    3d32: 69 04        	adc	#$4
    3d34: 85 14        	sta	$14                     ; 0x14 <__rc4>
    3d36: 8a           	txa
    3d37: 86 19        	stx	$19                     ; 0x19 <__rc9>
    3d39: 69 00        	adc	#$0
    3d3b: 85 15        	sta	$15                     ; 0x15 <__rc5>
    3d3d: a0 04        	ldy	#$4
    3d3f: b1 12        	lda	($12),y                 ; 0x12 <__rc2>
    3d41: 84 1e        	sty	$1e                     ; 0x1e <__rc14>
    3d43: 85 16        	sta	$16                     ; 0x16 <__rc6>
    3d45: a0 01        	ldy	#$1
    3d47: b1 14        	lda	($14),y                 ; 0x14 <__rc4>
    3d49: 85 1c        	sta	$1c                     ; 0x1c <__rc12>
    3d4b: 84 1b        	sty	$1b                     ; 0x1b <__rc11>
    3d4d: a4 27        	ldy	$27                     ; 0x27 <__rc23>
    3d4f: b1 14        	lda	($14),y                 ; 0x14 <__rc4>
    3d51: 85 1a        	sta	$1a                     ; 0x1a <__rc10>
    3d53: 84 1d        	sty	$1d                     ; 0x1d <__rc13>
    3d55: a0 03        	ldy	#$3
    3d57: b1 14        	lda	($14),y                 ; 0x14 <__rc4>
    3d59: 84 1f        	sty	$1f                     ; 0x1f <__rc15>
    3d5b: a6 16        	ldx	$16                     ; 0x16 <__rc6>
    3d5d: 86 23        	stx	$23                     ; 0x23 <__rc19>
    3d5f: a6 1c        	ldx	$1c                     ; 0x1c <__rc12>
    3d61: a4 1a        	ldy	$1a                     ; 0x1a <__rc10>
    3d63: 84 22        	sty	$22                     ; 0x22 <__rc18>
    3d65: e6 23        	inc	$23                     ; 0x23 <__rc19>
    3d67: d0 08        	bne	$3d71 <readDelta+0x192>
    3d69: e8           	inx
    3d6a: d0 05        	bne	$3d71 <readDelta+0x192>
    3d6c: e6 22        	inc	$22                     ; 0x22 <__rc18>
    3d6e: d0 01        	bne	$3d71 <readDelta+0x192>
    3d70: 1a           	inc
    3d71: 85 27        	sta	$27                     ; 0x27 <__rc23>
    3d73: a4 1e        	ldy	$1e                     ; 0x1e <__rc14>
    3d75: a5 23        	lda	$23                     ; 0x23 <__rc19>
    3d77: 91 12        	sta	($12),y                 ; 0x12 <__rc2>
    3d79: a4 1f        	ldy	$1f                     ; 0x1f <__rc15>
    3d7b: a5 27        	lda	$27                     ; 0x27 <__rc23>
    3d7d: 91 14        	sta	($14),y                 ; 0x14 <__rc4>
    3d7f: a4 1b        	ldy	$1b                     ; 0x1b <__rc11>
    3d81: 8a           	txa
    3d82: 91 14        	sta	($14),y                 ; 0x14 <__rc4>
    3d84: a4 1d        	ldy	$1d                     ; 0x1d <__rc13>
    3d86: a5 22        	lda	$22                     ; 0x22 <__rc18>
    3d88: 91 14        	sta	($14),y                 ; 0x14 <__rc4>
    3d8a: 84 15        	sty	$15                     ; 0x15 <__rc5>
    3d8c: a0 08        	ldy	#$8
    3d8e: a5 16        	lda	$16                     ; 0x16 <__rc6>
    3d90: a6 17        	ldx	$17                     ; 0x17 <__rc7>
    3d92: e0 01        	cpx	#$1
    3d94: 71 12        	adc	($12),y                 ; 0x12 <__rc2>
    3d96: a2 01        	ldx	#$1
    3d98: b0 02        	bcs	$3d9c <readDelta+0x1bd>
    3d9a: a2 00        	ldx	#$0
    3d9c: 85 14        	sta	$14                     ; 0x14 <__rc4>
    3d9e: 18           	clc
    3d9f: a5 18        	lda	$18                     ; 0x18 <__rc8>
    3da1: 69 08        	adc	#$8
    3da3: 85 12        	sta	$12                     ; 0x12 <__rc2>
    3da5: a5 19        	lda	$19                     ; 0x19 <__rc9>
    3da7: 69 00        	adc	#$0
    3da9: 85 13        	sta	$13                     ; 0x13 <__rc3>
    3dab: a5 1c        	lda	$1c                     ; 0x1c <__rc12>
    3dad: e0 01        	cpx	#$1
    3daf: a4 1b        	ldy	$1b                     ; 0x1b <__rc11>
    3db1: 71 12        	adc	($12),y                 ; 0x12 <__rc2>
    3db3: aa           	tax
    3db4: a5 1a        	lda	$1a                     ; 0x1a <__rc10>
    3db6: a4 15        	ldy	$15                     ; 0x15 <__rc5>
    3db8: 71 12        	adc	($12),y                 ; 0x12 <__rc2>
    3dba: 85 13        	sta	$13                     ; 0x13 <__rc3>
    3dbc: 8a           	txa
    3dbd: 86 12        	stx	$12                     ; 0x12 <__rc2>
    3dbf: 06 12        	asl	$12                     ; 0x12 <__rc2>
    3dc1: 26 13        	rol	$13                     ; 0x13 <__rc3>
    3dc3: 06 12        	asl	$12                     ; 0x12 <__rc2>
    3dc5: 26 13        	rol	$13                     ; 0x13 <__rc3>
    3dc7: 06 12        	asl	$12                     ; 0x12 <__rc2>
    3dc9: 26 13        	rol	$13                     ; 0x13 <__rc3>
    3dcb: a4 13        	ldy	$13                     ; 0x13 <__rc3>
    3dcd: a6 0f        	ldx	$f                      ; 0xf <__zp_data_size+0xe>
    3dcf: 78           	sei
    3dd0: 84 0f        	sty	$f                      ; 0xf <__zp_data_size+0xe>
    3dd2: a4 14        	ldy	$14                     ; 0x14 <__rc4>
    3dd4: 84 12        	sty	$12                     ; 0x12 <__rc2>
    3dd6: 09 e0        	ora	#$e0
    3dd8: 85 13        	sta	$13                     ; 0x13 <__rc3>
    3dda: b2 12        	lda	($12)                   ; 0x12 <__rc2>
    3ddc: 86 0f        	stx	$f                      ; 0xf <__zp_data_size+0xe>
    3dde: 58           	cli
    3ddf: aa           	tax
    3de0: 30 13        	bmi	$3df5 <readDelta+0x216>
    3de2: 64 13        	stz	$13                     ; 0x13 <__rc3>
    3de4: 64 28        	stz	$28                     ; 0x28 <__rc24>
    3de6: 64 15        	stz	$15                     ; 0x15 <__rc5>
    3de8: 64 12        	stz	$12                     ; 0x12 <__rc2>
    3dea: 64 27        	stz	$27                     ; 0x27 <__rc23>
    3dec: 64 14        	stz	$14                     ; 0x14 <__rc4>
    3dee: a6 2a        	ldx	$2a                     ; 0x2a <__rc26>
    3df0: 86 29        	stx	$29                     ; 0x29 <__rc25>
    3df2: 4c 50 40     	jmp	$4050 <readDelta+0x471>
    3df5: 4a           	lsr
    3df6: aa           	tax
    3df7: a9 00        	lda	#$0
    3df9: 6a           	ror
    3dfa: 46 26        	lsr	$26                     ; 0x26 <__rc22>
    3dfc: a4 26        	ldy	$26                     ; 0x26 <__rc22>
    3dfe: 84 27        	sty	$27                     ; 0x27 <__rc23>
    3e00: a4 2a        	ldy	$2a                     ; 0x2a <__rc26>
    3e02: 84 26        	sty	$26                     ; 0x26 <__rc22>
    3e04: 66 26        	ror	$26                     ; 0x26 <__rc22>
    3e06: 64 14        	stz	$14                     ; 0x14 <__rc4>
    3e08: 66 14        	ror	$14                     ; 0x14 <__rc4>
    3e0a: 48           	pha
    3e0b: a5 14        	lda	$14                     ; 0x14 <__rc4>
    3e0d: a0 07        	ldy	#$7
    3e0f: 91 10        	sta	($10),y                 ; 0x10 <__rc0>
    3e11: 68           	pla
    3e12: 64 13        	stz	$13                     ; 0x13 <__rc3>
    3e14: 29 80        	and	#$80
    3e16: c8           	iny
    3e17: 91 10        	sta	($10),y                 ; 0x10 <__rc0>
    3e19: 8a           	txa
    3e1a: 29 3f        	and	#$3f
    3e1c: 85 28        	sta	$28                     ; 0x28 <__rc24>
    3e1e: a6 5c        	ldx	$5c                     ; 0x5c <theOne.8>
    3e20: 86 2a        	stx	$2a                     ; 0x2a <__rc26>
    3e22: a6 5d        	ldx	$5d                     ; 0x5d <theOne.8+0x1>
    3e24: 86 29        	stx	$29                     ; 0x29 <__rc25>
    3e26: a0 19        	ldy	#$19
    3e28: a2 00        	ldx	#$0
    3e2a: 84 12        	sty	$12                     ; 0x12 <__rc2>
    3e2c: a5 25        	lda	$25                     ; 0x25 <__rc21>
    3e2e: 20 f6 6a     	jsr	$6af6 <__mulhi3>
    3e31: 85 12        	sta	$12                     ; 0x12 <__rc2>
    3e33: 86 13        	stx	$13                     ; 0x13 <__rc3>
    3e35: a5 2a        	lda	$2a                     ; 0x2a <__rc26>
    3e37: 18           	clc
    3e38: 65 12        	adc	$12                     ; 0x12 <__rc2>
    3e3a: a8           	tay
    3e3b: a5 29        	lda	$29                     ; 0x29 <__rc25>
    3e3d: 65 13        	adc	$13                     ; 0x13 <__rc3>
    3e3f: aa           	tax
    3e40: 84 12        	sty	$12                     ; 0x12 <__rc2>
    3e42: 85 13        	sta	$13                     ; 0x13 <__rc3>
    3e44: 18           	clc
    3e45: 98           	tya
    3e46: 84 16        	sty	$16                     ; 0x16 <__rc6>
    3e48: 69 08        	adc	#$8
    3e4a: 85 14        	sta	$14                     ; 0x14 <__rc4>
    3e4c: 8a           	txa
    3e4d: 69 00        	adc	#$0
    3e4f: 85 15        	sta	$15                     ; 0x15 <__rc5>
    3e51: a0 04        	ldy	#$4
    3e53: 18           	clc
    3e54: a5 16        	lda	$16                     ; 0x16 <__rc6>
    3e56: 69 04        	adc	#$4
    3e58: 85 16        	sta	$16                     ; 0x16 <__rc6>
    3e5a: 8a           	txa
    3e5b: 69 00        	adc	#$0
    3e5d: 85 17        	sta	$17                     ; 0x17 <__rc7>
    3e5f: b1 12        	lda	($12),y                 ; 0x12 <__rc2>
    3e61: a2 04        	ldx	#$4
    3e63: 86 1d        	stx	$1d                     ; 0x1d <__rc13>
    3e65: 85 18        	sta	$18                     ; 0x18 <__rc8>
    3e67: a2 01        	ldx	#$1
    3e69: 86 19        	stx	$19                     ; 0x19 <__rc9>
    3e6b: a4 19        	ldy	$19                     ; 0x19 <__rc9>
    3e6d: b1 16        	lda	($16),y                 ; 0x16 <__rc6>
    3e6f: 85 1b        	sta	$1b                     ; 0x1b <__rc11>
    3e71: a0 02        	ldy	#$2
    3e73: b1 16        	lda	($16),y                 ; 0x16 <__rc6>
    3e75: 85 1f        	sta	$1f                     ; 0x1f <__rc15>
    3e77: e8           	inx
    3e78: 86 1a        	stx	$1a                     ; 0x1a <__rc10>
    3e7a: c8           	iny
    3e7b: b1 16        	lda	($16),y                 ; 0x16 <__rc6>
    3e7d: 85 22        	sta	$22                     ; 0x22 <__rc18>
    3e7f: e8           	inx
    3e80: 86 1c        	stx	$1c                     ; 0x1c <__rc12>
    3e82: a6 18        	ldx	$18                     ; 0x18 <__rc8>
    3e84: 86 1e        	stx	$1e                     ; 0x1e <__rc14>
    3e86: a4 1b        	ldy	$1b                     ; 0x1b <__rc11>
    3e88: a5 1f        	lda	$1f                     ; 0x1f <__rc15>
    3e8a: a6 1f        	ldx	$1f                     ; 0x1f <__rc15>
    3e8c: 5a           	phy
    3e8d: a4 22        	ldy	$22                     ; 0x22 <__rc18>
    3e8f: 84 1f        	sty	$1f                     ; 0x1f <__rc15>
    3e91: 7a           	ply
    3e92: e6 1e        	inc	$1e                     ; 0x1e <__rc14>
    3e94: d0 08        	bne	$3e9e <readDelta+0x2bf>
    3e96: c8           	iny
    3e97: d0 05        	bne	$3e9e <readDelta+0x2bf>
    3e99: 1a           	inc
    3e9a: d0 02        	bne	$3e9e <readDelta+0x2bf>
    3e9c: e6 1f        	inc	$1f                     ; 0x1f <__rc15>
    3e9e: 85 22        	sta	$22                     ; 0x22 <__rc18>
    3ea0: 84 23        	sty	$23                     ; 0x23 <__rc19>
    3ea2: a4 1d        	ldy	$1d                     ; 0x1d <__rc13>
    3ea4: a5 1e        	lda	$1e                     ; 0x1e <__rc14>
    3ea6: 91 12        	sta	($12),y                 ; 0x12 <__rc2>
    3ea8: a4 19        	ldy	$19                     ; 0x19 <__rc9>
    3eaa: a5 23        	lda	$23                     ; 0x23 <__rc19>
    3eac: 91 16        	sta	($16),y                 ; 0x16 <__rc6>
    3eae: a0 01        	ldy	#$1
    3eb0: 84 19        	sty	$19                     ; 0x19 <__rc9>
    3eb2: a4 1a        	ldy	$1a                     ; 0x1a <__rc10>
    3eb4: a5 22        	lda	$22                     ; 0x22 <__rc18>
    3eb6: 91 16        	sta	($16),y                 ; 0x16 <__rc6>
    3eb8: a4 1c        	ldy	$1c                     ; 0x1c <__rc12>
    3eba: a5 1f        	lda	$1f                     ; 0x1f <__rc15>
    3ebc: 91 16        	sta	($16),y                 ; 0x16 <__rc6>
    3ebe: 18           	clc
    3ebf: a0 08        	ldy	#$8
    3ec1: a5 18        	lda	$18                     ; 0x18 <__rc8>
    3ec3: 71 12        	adc	($12),y                 ; 0x12 <__rc2>
    3ec5: 85 17        	sta	$17                     ; 0x17 <__rc7>
    3ec7: a5 1b        	lda	$1b                     ; 0x1b <__rc11>
    3ec9: a4 19        	ldy	$19                     ; 0x19 <__rc9>
    3ecb: 71 14        	adc	($14),y                 ; 0x14 <__rc4>
    3ecd: 85 12        	sta	$12                     ; 0x12 <__rc2>
    3ecf: a4 1a        	ldy	$1a                     ; 0x1a <__rc10>
    3ed1: 8a           	txa
    3ed2: 71 14        	adc	($14),y                 ; 0x14 <__rc4>
    3ed4: 85 13        	sta	$13                     ; 0x13 <__rc3>
    3ed6: a5 12        	lda	$12                     ; 0x12 <__rc2>
    3ed8: 06 12        	asl	$12                     ; 0x12 <__rc2>
    3eda: 26 13        	rol	$13                     ; 0x13 <__rc3>
    3edc: 06 12        	asl	$12                     ; 0x12 <__rc2>
    3ede: 26 13        	rol	$13                     ; 0x13 <__rc3>
    3ee0: 06 12        	asl	$12                     ; 0x12 <__rc2>
    3ee2: 26 13        	rol	$13                     ; 0x13 <__rc3>
    3ee4: a4 13        	ldy	$13                     ; 0x13 <__rc3>
    3ee6: a6 0f        	ldx	$f                      ; 0xf <__zp_data_size+0xe>
    3ee8: 78           	sei
    3ee9: 84 0f        	sty	$f                      ; 0xf <__zp_data_size+0xe>
    3eeb: a4 17        	ldy	$17                     ; 0x17 <__rc7>
    3eed: 84 12        	sty	$12                     ; 0x12 <__rc2>
    3eef: 09 e0        	ora	#$e0
    3ef1: 85 13        	sta	$13                     ; 0x13 <__rc3>
    3ef3: b2 12        	lda	($12)                   ; 0x12 <__rc2>
    3ef5: 86 0f        	stx	$f                      ; 0xf <__zp_data_size+0xe>
    3ef7: 58           	cli
    3ef8: aa           	tax
    3ef9: 30 14        	bmi	$3f0f <readDelta+0x330>
    3efb: 64 15        	stz	$15                     ; 0x15 <__rc5>
    3efd: 85 12        	sta	$12                     ; 0x12 <__rc2>
    3eff: 64 14        	stz	$14                     ; 0x14 <__rc4>
    3f01: 64 13        	stz	$13                     ; 0x13 <__rc3>
    3f03: a0 07        	ldy	#$7
    3f05: b1 10        	lda	($10),y                 ; 0x10 <__rc0>
    3f07: 85 29        	sta	$29                     ; 0x29 <__rc25>
    3f09: c8           	iny
    3f0a: b1 10        	lda	($10),y                 ; 0x10 <__rc0>
    3f0c: 4c 50 40     	jmp	$4050 <readDelta+0x471>
    3f0f: 4a           	lsr
    3f10: 64 14        	stz	$14                     ; 0x14 <__rc4>
    3f12: 66 14        	ror	$14                     ; 0x14 <__rc4>
    3f14: 46 28        	lsr	$28                     ; 0x28 <__rc24>
    3f16: 48           	pha
    3f17: a5 28        	lda	$28                     ; 0x28 <__rc24>
    3f19: a0 06        	ldy	#$6
    3f1b: 91 10        	sta	($10),y                 ; 0x10 <__rc0>
    3f1d: a0 08        	ldy	#$8
    3f1f: b1 10        	lda	($10),y                 ; 0x10 <__rc0>
    3f21: 85 28        	sta	$28                     ; 0x28 <__rc24>
    3f23: 68           	pla
    3f24: 66 28        	ror	$28                     ; 0x28 <__rc24>
    3f26: aa           	tax
    3f27: a9 00        	lda	#$0
    3f29: 6a           	ror
    3f2a: 91 10        	sta	($10),y                 ; 0x10 <__rc0>
    3f2c: a4 27        	ldy	$27                     ; 0x27 <__rc23>
    3f2e: 84 24        	sty	$24                     ; 0x24 <__rc20>
    3f30: 46 24        	lsr	$24                     ; 0x24 <__rc20>
    3f32: 66 26        	ror	$26                     ; 0x26 <__rc22>
    3f34: a4 26        	ldy	$26                     ; 0x26 <__rc22>
    3f36: 84 27        	sty	$27                     ; 0x27 <__rc23>
    3f38: a0 07        	ldy	#$7
    3f3a: b1 10        	lda	($10),y                 ; 0x10 <__rc0>
    3f3c: 85 26        	sta	$26                     ; 0x26 <__rc22>
    3f3e: 66 26        	ror	$26                     ; 0x26 <__rc22>
    3f40: a9 00        	lda	#$0
    3f42: 6a           	ror
    3f43: 91 10        	sta	($10),y                 ; 0x10 <__rc0>
    3f45: a5 14        	lda	$14                     ; 0x14 <__rc4>
    3f47: 29 80        	and	#$80
    3f49: 85 29        	sta	$29                     ; 0x29 <__rc25>
    3f4b: 8a           	txa
    3f4c: 29 3f        	and	#$3f
    3f4e: a0 04        	ldy	#$4
    3f50: 91 10        	sta	($10),y                 ; 0x10 <__rc0>
    3f52: a6 5c        	ldx	$5c                     ; 0x5c <theOne.8>
    3f54: 8a           	txa
    3f55: 88           	dey
    3f56: 91 10        	sta	($10),y                 ; 0x10 <__rc0>
    3f58: a6 5d        	ldx	$5d                     ; 0x5d <theOne.8+0x1>
    3f5a: 8a           	txa
    3f5b: a0 05        	ldy	#$5
    3f5d: 91 10        	sta	($10),y                 ; 0x10 <__rc0>
    3f5f: a0 19        	ldy	#$19
    3f61: a2 00        	ldx	#$0
    3f63: 84 12        	sty	$12                     ; 0x12 <__rc2>
    3f65: 64 13        	stz	$13                     ; 0x13 <__rc3>
    3f67: a5 25        	lda	$25                     ; 0x25 <__rc21>
    3f69: 20 f6 6a     	jsr	$6af6 <__mulhi3>
    3f6c: a4 24        	ldy	$24                     ; 0x24 <__rc20>
    3f6e: 84 13        	sty	$13                     ; 0x13 <__rc3>
    3f70: 85 15        	sta	$15                     ; 0x15 <__rc5>
    3f72: 86 16        	stx	$16                     ; 0x16 <__rc6>
    3f74: a6 29        	ldx	$29                     ; 0x29 <__rc25>
    3f76: 86 12        	stx	$12                     ; 0x12 <__rc2>
    3f78: a0 04        	ldy	#$4
    3f7a: b1 10        	lda	($10),y                 ; 0x10 <__rc0>
    3f7c: 85 14        	sta	$14                     ; 0x14 <__rc4>
    3f7e: a2 00        	ldx	#$0
    3f80: 86 1a        	stx	$1a                     ; 0x1a <__rc10>
    3f82: 18           	clc
    3f83: 88           	dey
    3f84: b1 10        	lda	($10),y                 ; 0x10 <__rc0>
    3f86: 65 15        	adc	$15                     ; 0x15 <__rc5>
    3f88: a8           	tay
    3f89: 5a           	phy
    3f8a: a0 05        	ldy	#$5
    3f8c: b1 10        	lda	($10),y                 ; 0x10 <__rc0>
    3f8e: 7a           	ply
    3f8f: 65 16        	adc	$16                     ; 0x16 <__rc6>
    3f91: aa           	tax
    3f92: 98           	tya
    3f93: 84 16        	sty	$16                     ; 0x16 <__rc6>
    3f95: 86 17        	stx	$17                     ; 0x17 <__rc7>
    3f97: 84 1c        	sty	$1c                     ; 0x1c <__rc12>
    3f99: 18           	clc
    3f9a: 69 04        	adc	#$4
    3f9c: 85 18        	sta	$18                     ; 0x18 <__rc8>
    3f9e: 8a           	txa
    3f9f: 86 1d        	stx	$1d                     ; 0x1d <__rc13>
    3fa1: 69 00        	adc	#$0
    3fa3: 85 19        	sta	$19                     ; 0x19 <__rc9>
    3fa5: a0 04        	ldy	#$4
    3fa7: b1 16        	lda	($16),y                 ; 0x16 <__rc6>
    3fa9: 84 23        	sty	$23                     ; 0x23 <__rc19>
    3fab: aa           	tax
    3fac: a0 01        	ldy	#$1
    3fae: b1 18        	lda	($18),y                 ; 0x18 <__rc8>
    3fb0: 85 1b        	sta	$1b                     ; 0x1b <__rc11>
    3fb2: 84 1e        	sty	$1e                     ; 0x1e <__rc14>
    3fb4: c8           	iny
    3fb5: b1 18        	lda	($18),y                 ; 0x18 <__rc8>
    3fb7: 84 1f        	sty	$1f                     ; 0x1f <__rc15>
    3fb9: 85 15        	sta	$15                     ; 0x15 <__rc5>
    3fbb: c8           	iny
    3fbc: b1 18        	lda	($18),y                 ; 0x18 <__rc8>
    3fbe: 84 24        	sty	$24                     ; 0x24 <__rc20>
    3fc0: 85 22        	sta	$22                     ; 0x22 <__rc18>
    3fc2: a4 1b        	ldy	$1b                     ; 0x1b <__rc11>
    3fc4: 84 25        	sty	$25                     ; 0x25 <__rc21>
    3fc6: a4 15        	ldy	$15                     ; 0x15 <__rc5>
    3fc8: 84 29        	sty	$29                     ; 0x29 <__rc25>
    3fca: 8a           	txa
    3fcb: 1a           	inc
    3fcc: d0 0a        	bne	$3fd8 <readDelta+0x3f9>
    3fce: e6 25        	inc	$25                     ; 0x25 <__rc21>
    3fd0: d0 06        	bne	$3fd8 <readDelta+0x3f9>
    3fd2: e6 29        	inc	$29                     ; 0x29 <__rc25>
    3fd4: d0 02        	bne	$3fd8 <readDelta+0x3f9>
    3fd6: e6 22        	inc	$22                     ; 0x22 <__rc18>
    3fd8: a4 23        	ldy	$23                     ; 0x23 <__rc19>
    3fda: 91 16        	sta	($16),y                 ; 0x16 <__rc6>
    3fdc: a5 22        	lda	$22                     ; 0x22 <__rc18>
    3fde: a4 24        	ldy	$24                     ; 0x24 <__rc20>
    3fe0: 91 18        	sta	($18),y                 ; 0x18 <__rc8>
    3fe2: a4 1e        	ldy	$1e                     ; 0x1e <__rc14>
    3fe4: a5 25        	lda	$25                     ; 0x25 <__rc21>
    3fe6: 91 18        	sta	($18),y                 ; 0x18 <__rc8>
    3fe8: a4 1f        	ldy	$1f                     ; 0x1f <__rc15>
    3fea: a5 29        	lda	$29                     ; 0x29 <__rc25>
    3fec: 91 18        	sta	($18),y                 ; 0x18 <__rc8>
    3fee: a0 08        	ldy	#$8
    3ff0: 8a           	txa
    3ff1: a6 1a        	ldx	$1a                     ; 0x1a <__rc10>
    3ff3: e0 01        	cpx	#$1
    3ff5: 71 16        	adc	($16),y                 ; 0x16 <__rc6>
    3ff7: a2 01        	ldx	#$1
    3ff9: b0 02        	bcs	$3ffd <readDelta+0x41e>
    3ffb: a2 00        	ldx	#$0
    3ffd: 85 19        	sta	$19                     ; 0x19 <__rc9>
    3fff: 18           	clc
    4000: a5 1c        	lda	$1c                     ; 0x1c <__rc12>
    4002: 69 08        	adc	#$8
    4004: 85 16        	sta	$16                     ; 0x16 <__rc6>
    4006: a5 1d        	lda	$1d                     ; 0x1d <__rc13>
    4008: 69 00        	adc	#$0
    400a: 85 17        	sta	$17                     ; 0x17 <__rc7>
    400c: e0 01        	cpx	#$1
    400e: a5 1b        	lda	$1b                     ; 0x1b <__rc11>
    4010: a4 1e        	ldy	$1e                     ; 0x1e <__rc14>
    4012: 71 16        	adc	($16),y                 ; 0x16 <__rc6>
    4014: 85 18        	sta	$18                     ; 0x18 <__rc8>
    4016: a5 15        	lda	$15                     ; 0x15 <__rc5>
    4018: a4 1f        	ldy	$1f                     ; 0x1f <__rc15>
    401a: 71 16        	adc	($16),y                 ; 0x16 <__rc6>
    401c: 85 15        	sta	$15                     ; 0x15 <__rc5>
    401e: a6 0f        	ldx	$f                      ; 0xf <__zp_data_size+0xe>
    4020: 78           	sei
    4021: a5 18        	lda	$18                     ; 0x18 <__rc8>
    4023: 0a           	asl
    4024: 26 15        	rol	$15                     ; 0x15 <__rc5>
    4026: 0a           	asl
    4027: 26 15        	rol	$15                     ; 0x15 <__rc5>
    4029: 0a           	asl
    402a: a5 15        	lda	$15                     ; 0x15 <__rc5>
    402c: 2a           	rol
    402d: 85 0f        	sta	$f                      ; 0xf <__zp_data_size+0xe>
    402f: a5 18        	lda	$18                     ; 0x18 <__rc8>
    4031: 09 e0        	ora	#$e0
    4033: a4 19        	ldy	$19                     ; 0x19 <__rc9>
    4035: 84 16        	sty	$16                     ; 0x16 <__rc6>
    4037: 85 17        	sta	$17                     ; 0x17 <__rc7>
    4039: b2 16        	lda	($16)                   ; 0x16 <__rc6>
    403b: 86 0f        	stx	$f                      ; 0xf <__zp_data_size+0xe>
    403d: 58           	cli
    403e: 85 24        	sta	$24                     ; 0x24 <__rc20>
    4040: a0 08        	ldy	#$8
    4042: b1 10        	lda	($10),y                 ; 0x10 <__rc0>
    4044: 48           	pha
    4045: 88           	dey
    4046: b1 10        	lda	($10),y                 ; 0x10 <__rc0>
    4048: 85 29        	sta	$29                     ; 0x29 <__rc25>
    404a: 88           	dey
    404b: b1 10        	lda	($10),y                 ; 0x10 <__rc0>
    404d: 85 15        	sta	$15                     ; 0x15 <__rc5>
    404f: 68           	pla
    4050: 85 17        	sta	$17                     ; 0x17 <__rc7>
    4052: a5 29        	lda	$29                     ; 0x29 <__rc25>
    4054: 05 17        	ora	$17                     ; 0x17 <__rc7>
    4056: aa           	tax
    4057: a5 26        	lda	$26                     ; 0x26 <__rc22>
    4059: 05 28        	ora	$28                     ; 0x28 <__rc24>
    405b: 85 16        	sta	$16                     ; 0x16 <__rc6>
    405d: a5 27        	lda	$27                     ; 0x27 <__rc23>
    405f: 05 15        	ora	$15                     ; 0x15 <__rc5>
    4061: a8           	tay
    4062: 8a           	txa
    4063: 05 12        	ora	$12                     ; 0x12 <__rc2>
    4065: 85 12        	sta	$12                     ; 0x12 <__rc2>
    4067: a5 16        	lda	$16                     ; 0x16 <__rc6>
    4069: 05 14        	ora	$14                     ; 0x14 <__rc4>
    406b: aa           	tax
    406c: a5 12        	lda	$12                     ; 0x12 <__rc2>
    406e: 05 24        	ora	$24                     ; 0x24 <__rc20>
    4070: 84 12        	sty	$12                     ; 0x12 <__rc2>
    4072: 85 20        	sta	$20                     ; 0x20 <__rc16>
    4074: a0 00        	ldy	#$0
    4076: b1 10        	lda	($10),y                 ; 0x10 <__rc0>
    4078: 85 2a        	sta	$2a                     ; 0x2a <__rc26>
    407a: c8           	iny
    407b: b1 10        	lda	($10),y                 ; 0x10 <__rc0>
    407d: 85 29        	sta	$29                     ; 0x29 <__rc25>
    407f: c8           	iny
    4080: b1 10        	lda	($10),y                 ; 0x10 <__rc0>
    4082: 85 28        	sta	$28                     ; 0x28 <__rc24>
    4084: 7a           	ply
    4085: 84 27        	sty	$27                     ; 0x27 <__rc23>
    4087: 7a           	ply
    4088: 84 26        	sty	$26                     ; 0x26 <__rc22>
    408a: 7a           	ply
    408b: 84 25        	sty	$25                     ; 0x25 <__rc21>
    408d: 7a           	ply
    408e: 84 24        	sty	$24                     ; 0x24 <__rc20>
    4090: 18           	clc
    4091: a5 10        	lda	$10                     ; 0x10 <__rc0>
    4093: 69 09        	adc	#$9
    4095: 85 10        	sta	$10                     ; 0x10 <__rc0>
    4097: a5 11        	lda	$11                     ; 0x11 <__rc1>
    4099: 69 00        	adc	#$0
    409b: 85 11        	sta	$11                     ; 0x11 <__rc1>
    409d: a5 20        	lda	$20                     ; 0x20 <__rc16>
    409f: 60           	rts

000040a0 <readMIDICmd>:
    40a0: 48           	pha
    40a1: 18           	clc
    40a2: a5 10        	lda	$10                     ; 0x10 <__rc0>
    40a4: 69 fd        	adc	#$fd
    40a6: 85 10        	sta	$10                     ; 0x10 <__rc0>
    40a8: a5 11        	lda	$11                     ; 0x11 <__rc1>
    40aa: 69 ff        	adc	#$ff
    40ac: 85 11        	sta	$11                     ; 0x11 <__rc1>
    40ae: 68           	pla
    40af: a6 24        	ldx	$24                     ; 0x24 <__rc20>
    40b1: da           	phx
    40b2: a6 25        	ldx	$25                     ; 0x25 <__rc21>
    40b4: da           	phx
    40b5: a6 26        	ldx	$26                     ; 0x26 <__rc22>
    40b7: da           	phx
    40b8: a6 27        	ldx	$27                     ; 0x27 <__rc23>
    40ba: da           	phx
    40bb: 48           	pha
    40bc: a5 28        	lda	$28                     ; 0x28 <__rc24>
    40be: a0 02        	ldy	#$2
    40c0: 91 10        	sta	($10),y                 ; 0x10 <__rc0>
    40c2: a5 29        	lda	$29                     ; 0x29 <__rc25>
    40c4: 88           	dey
    40c5: 91 10        	sta	($10),y                 ; 0x10 <__rc0>
    40c7: a5 2a        	lda	$2a                     ; 0x2a <__rc26>
    40c9: 88           	dey
    40ca: 91 10        	sta	($10),y                 ; 0x10 <__rc0>
    40cc: 68           	pla
    40cd: 85 24        	sta	$24                     ; 0x24 <__rc20>
    40cf: a6 5c        	ldx	$5c                     ; 0x5c <theOne.8>
    40d1: 86 25        	stx	$25                     ; 0x25 <__rc21>
    40d3: a6 5d        	ldx	$5d                     ; 0x5d <theOne.8+0x1>
    40d5: 86 26        	stx	$26                     ; 0x26 <__rc22>
    40d7: a2 19        	ldx	#$19
    40d9: 86 12        	stx	$12                     ; 0x12 <__rc2>
    40db: 64 13        	stz	$13                     ; 0x13 <__rc3>
    40dd: a2 00        	ldx	#$0
    40df: 20 f6 6a     	jsr	$6af6 <__mulhi3>
    40e2: 85 19        	sta	$19                     ; 0x19 <__rc9>
    40e4: 18           	clc
    40e5: 85 12        	sta	$12                     ; 0x12 <__rc2>
    40e7: a5 25        	lda	$25                     ; 0x25 <__rc21>
    40e9: 65 12        	adc	$12                     ; 0x12 <__rc2>
    40eb: 85 16        	sta	$16                     ; 0x16 <__rc6>
    40ed: 86 12        	stx	$12                     ; 0x12 <__rc2>
    40ef: 86 18        	stx	$18                     ; 0x18 <__rc8>
    40f1: a5 26        	lda	$26                     ; 0x26 <__rc22>
    40f3: 65 12        	adc	$12                     ; 0x12 <__rc2>
    40f5: a6 16        	ldx	$16                     ; 0x16 <__rc6>
    40f7: 86 12        	stx	$12                     ; 0x12 <__rc2>
    40f9: 85 13        	sta	$13                     ; 0x13 <__rc3>
    40fb: 85 17        	sta	$17                     ; 0x17 <__rc7>
    40fd: 18           	clc
    40fe: a5 16        	lda	$16                     ; 0x16 <__rc6>
    4100: 69 08        	adc	#$8
    4102: 85 14        	sta	$14                     ; 0x14 <__rc4>
    4104: a5 17        	lda	$17                     ; 0x17 <__rc7>
    4106: 69 00        	adc	#$0
    4108: a0 08        	ldy	#$8
    410a: 85 15        	sta	$15                     ; 0x15 <__rc5>
    410c: b1 12        	lda	($12),y                 ; 0x12 <__rc2>
    410e: 85 1a        	sta	$1a                     ; 0x1a <__rc10>
    4110: a2 08        	ldx	#$8
    4112: 86 22        	stx	$22                     ; 0x22 <__rc18>
    4114: 18           	clc
    4115: a5 16        	lda	$16                     ; 0x16 <__rc6>
    4117: 69 04        	adc	#$4
    4119: 85 16        	sta	$16                     ; 0x16 <__rc6>
    411b: a5 17        	lda	$17                     ; 0x17 <__rc7>
    411d: 69 00        	adc	#$0
    411f: 85 17        	sta	$17                     ; 0x17 <__rc7>
    4121: a0 01        	ldy	#$1
    4123: b1 14        	lda	($14),y                 ; 0x14 <__rc4>
    4125: 85 1c        	sta	$1c                     ; 0x1c <__rc12>
    4127: a2 01        	ldx	#$1
    4129: 86 1d        	stx	$1d                     ; 0x1d <__rc13>
    412b: c8           	iny
    412c: b1 14        	lda	($14),y                 ; 0x14 <__rc4>
    412e: 85 14        	sta	$14                     ; 0x14 <__rc4>
    4130: e8           	inx
    4131: 86 15        	stx	$15                     ; 0x15 <__rc5>
    4133: 18           	clc
    4134: a0 04        	ldy	#$4
    4136: a5 1a        	lda	$1a                     ; 0x1a <__rc10>
    4138: 71 12        	adc	($12),y                 ; 0x12 <__rc2>
    413a: 85 13        	sta	$13                     ; 0x13 <__rc3>
    413c: a2 04        	ldx	#$4
    413e: 86 1b        	stx	$1b                     ; 0x1b <__rc11>
    4140: a5 1c        	lda	$1c                     ; 0x1c <__rc12>
    4142: a4 1d        	ldy	$1d                     ; 0x1d <__rc13>
    4144: 71 16        	adc	($16),y                 ; 0x16 <__rc6>
    4146: aa           	tax
    4147: 84 1c        	sty	$1c                     ; 0x1c <__rc12>
    4149: a5 14        	lda	$14                     ; 0x14 <__rc4>
    414b: a4 15        	ldy	$15                     ; 0x15 <__rc5>
    414d: 71 16        	adc	($16),y                 ; 0x16 <__rc6>
    414f: 85 14        	sta	$14                     ; 0x14 <__rc4>
    4151: 84 1d        	sty	$1d                     ; 0x1d <__rc13>
    4153: 8a           	txa
    4154: 86 12        	stx	$12                     ; 0x12 <__rc2>
    4156: 06 12        	asl	$12                     ; 0x12 <__rc2>
    4158: 26 14        	rol	$14                     ; 0x14 <__rc4>
    415a: 06 12        	asl	$12                     ; 0x12 <__rc2>
    415c: 26 14        	rol	$14                     ; 0x14 <__rc4>
    415e: 06 12        	asl	$12                     ; 0x12 <__rc2>
    4160: 26 14        	rol	$14                     ; 0x14 <__rc4>
    4162: a6 14        	ldx	$14                     ; 0x14 <__rc4>
    4164: a4 0f        	ldy	$f                      ; 0xf <__zp_data_size+0xe>
    4166: 78           	sei
    4167: 86 0f        	stx	$f                      ; 0xf <__zp_data_size+0xe>
    4169: a6 13        	ldx	$13                     ; 0x13 <__rc3>
    416b: 86 12        	stx	$12                     ; 0x12 <__rc2>
    416d: 09 e0        	ora	#$e0
    416f: 85 13        	sta	$13                     ; 0x13 <__rc3>
    4171: b2 12        	lda	($12)                   ; 0x12 <__rc2>
    4173: 85 1a        	sta	$1a                     ; 0x1a <__rc10>
    4175: 84 0f        	sty	$f                      ; 0xf <__zp_data_size+0xe>
    4177: 58           	cli
    4178: 18           	clc
    4179: a5 19        	lda	$19                     ; 0x19 <__rc9>
    417b: 65 5c        	adc	$5c                     ; 0x5c <theOne.8>
    417d: aa           	tax
    417e: a5 18        	lda	$18                     ; 0x18 <__rc8>
    4180: 65 5d        	adc	$5d                     ; 0x5d <theOne.8+0x1>
    4182: a8           	tay
    4183: 18           	clc
    4184: 8a           	txa
    4185: 69 08        	adc	#$8
    4187: 85 12        	sta	$12                     ; 0x12 <__rc2>
    4189: 98           	tya
    418a: 69 00        	adc	#$0
    418c: 85 13        	sta	$13                     ; 0x13 <__rc3>
    418e: 86 14        	stx	$14                     ; 0x14 <__rc4>
    4190: 84 15        	sty	$15                     ; 0x15 <__rc5>
    4192: 18           	clc
    4193: 8a           	txa
    4194: 69 04        	adc	#$4
    4196: 85 16        	sta	$16                     ; 0x16 <__rc6>
    4198: 98           	tya
    4199: 69 00        	adc	#$0
    419b: 85 17        	sta	$17                     ; 0x17 <__rc7>
    419d: a4 1b        	ldy	$1b                     ; 0x1b <__rc11>
    419f: b1 14        	lda	($14),y                 ; 0x14 <__rc4>
    41a1: 85 1e        	sta	$1e                     ; 0x1e <__rc14>
    41a3: a4 1c        	ldy	$1c                     ; 0x1c <__rc12>
    41a5: b1 16        	lda	($16),y                 ; 0x16 <__rc6>
    41a7: 85 23        	sta	$23                     ; 0x23 <__rc19>
    41a9: a4 1d        	ldy	$1d                     ; 0x1d <__rc13>
    41ab: b1 16        	lda	($16),y                 ; 0x16 <__rc6>
    41ad: 85 1f        	sta	$1f                     ; 0x1f <__rc15>
    41af: a0 03        	ldy	#$3
    41b1: b1 16        	lda	($16),y                 ; 0x16 <__rc6>
    41b3: 85 16        	sta	$16                     ; 0x16 <__rc6>
    41b5: a2 03        	ldx	#$3
    41b7: 86 17        	stx	$17                     ; 0x17 <__rc7>
    41b9: 18           	clc
    41ba: a4 22        	ldy	$22                     ; 0x22 <__rc18>
    41bc: a5 1e        	lda	$1e                     ; 0x1e <__rc14>
    41be: 71 14        	adc	($14),y                 ; 0x14 <__rc4>
    41c0: 85 14        	sta	$14                     ; 0x14 <__rc4>
    41c2: a4 1c        	ldy	$1c                     ; 0x1c <__rc12>
    41c4: a5 23        	lda	$23                     ; 0x23 <__rc19>
    41c6: 71 12        	adc	($12),y                 ; 0x12 <__rc2>
    41c8: 85 15        	sta	$15                     ; 0x15 <__rc5>
    41ca: a4 1d        	ldy	$1d                     ; 0x1d <__rc13>
    41cc: a5 1f        	lda	$1f                     ; 0x1f <__rc15>
    41ce: 71 12        	adc	($12),y                 ; 0x12 <__rc2>
    41d0: aa           	tax
    41d1: a5 16        	lda	$16                     ; 0x16 <__rc6>
    41d3: a4 17        	ldy	$17                     ; 0x17 <__rc7>
    41d5: 84 1e        	sty	$1e                     ; 0x1e <__rc14>
    41d7: a4 17        	ldy	$17                     ; 0x17 <__rc7>
    41d9: 71 12        	adc	($12),y                 ; 0x12 <__rc2>
    41db: a8           	tay
    41dc: a5 15        	lda	$15                     ; 0x15 <__rc5>
    41de: e6 14        	inc	$14                     ; 0x14 <__rc4>
    41e0: d0 07        	bne	$41e9 <readMIDICmd+0x149>
    41e2: 1a           	inc
    41e3: d0 04        	bne	$41e9 <readMIDICmd+0x149>
    41e5: e8           	inx
    41e6: d0 01        	bne	$41e9 <readMIDICmd+0x149>
    41e8: c8           	iny
    41e9: 85 12        	sta	$12                     ; 0x12 <__rc2>
    41eb: 06 12        	asl	$12                     ; 0x12 <__rc2>
    41ed: 86 13        	stx	$13                     ; 0x13 <__rc3>
    41ef: 26 13        	rol	$13                     ; 0x13 <__rc3>
    41f1: 06 12        	asl	$12                     ; 0x12 <__rc2>
    41f3: 26 13        	rol	$13                     ; 0x13 <__rc3>
    41f5: 06 12        	asl	$12                     ; 0x12 <__rc2>
    41f7: 26 13        	rol	$13                     ; 0x13 <__rc3>
    41f9: a4 13        	ldy	$13                     ; 0x13 <__rc3>
    41fb: a6 0f        	ldx	$f                      ; 0xf <__zp_data_size+0xe>
    41fd: 78           	sei
    41fe: 84 0f        	sty	$f                      ; 0xf <__zp_data_size+0xe>
    4200: a4 14        	ldy	$14                     ; 0x14 <__rc4>
    4202: 84 12        	sty	$12                     ; 0x12 <__rc2>
    4204: 09 e0        	ora	#$e0
    4206: 85 13        	sta	$13                     ; 0x13 <__rc3>
    4208: b2 12        	lda	($12)                   ; 0x12 <__rc2>
    420a: 85 1f        	sta	$1f                     ; 0x1f <__rc15>
    420c: 86 0f        	stx	$f                      ; 0xf <__zp_data_size+0xe>
    420e: 58           	cli
    420f: 18           	clc
    4210: a5 19        	lda	$19                     ; 0x19 <__rc9>
    4212: 65 5c        	adc	$5c                     ; 0x5c <theOne.8>
    4214: aa           	tax
    4215: a5 18        	lda	$18                     ; 0x18 <__rc8>
    4217: 65 5d        	adc	$5d                     ; 0x5d <theOne.8+0x1>
    4219: a8           	tay
    421a: 18           	clc
    421b: 8a           	txa
    421c: 69 08        	adc	#$8
    421e: 85 12        	sta	$12                     ; 0x12 <__rc2>
    4220: 98           	tya
    4221: 69 00        	adc	#$0
    4223: 85 13        	sta	$13                     ; 0x13 <__rc3>
    4225: 86 14        	stx	$14                     ; 0x14 <__rc4>
    4227: 84 15        	sty	$15                     ; 0x15 <__rc5>
    4229: 18           	clc
    422a: 8a           	txa
    422b: 69 04        	adc	#$4
    422d: 85 16        	sta	$16                     ; 0x16 <__rc6>
    422f: 98           	tya
    4230: 69 00        	adc	#$0
    4232: 85 17        	sta	$17                     ; 0x17 <__rc7>
    4234: a4 1b        	ldy	$1b                     ; 0x1b <__rc11>
    4236: b1 14        	lda	($14),y                 ; 0x14 <__rc4>
    4238: 85 1b        	sta	$1b                     ; 0x1b <__rc11>
    423a: 84 23        	sty	$23                     ; 0x23 <__rc19>
    423c: a4 1c        	ldy	$1c                     ; 0x1c <__rc12>
    423e: b1 16        	lda	($16),y                 ; 0x16 <__rc6>
    4240: 84 25        	sty	$25                     ; 0x25 <__rc21>
    4242: 85 1c        	sta	$1c                     ; 0x1c <__rc12>
    4244: a4 1d        	ldy	$1d                     ; 0x1d <__rc13>
    4246: b1 16        	lda	($16),y                 ; 0x16 <__rc6>
    4248: 84 17        	sty	$17                     ; 0x17 <__rc7>
    424a: 85 16        	sta	$16                     ; 0x16 <__rc6>
    424c: 18           	clc
    424d: a4 22        	ldy	$22                     ; 0x22 <__rc18>
    424f: a5 1b        	lda	$1b                     ; 0x1b <__rc11>
    4251: 71 14        	adc	($14),y                 ; 0x14 <__rc4>
    4253: 85 14        	sta	$14                     ; 0x14 <__rc4>
    4255: a5 1c        	lda	$1c                     ; 0x1c <__rc12>
    4257: a4 25        	ldy	$25                     ; 0x25 <__rc21>
    4259: 71 12        	adc	($12),y                 ; 0x12 <__rc2>
    425b: 85 15        	sta	$15                     ; 0x15 <__rc5>
    425d: a5 16        	lda	$16                     ; 0x16 <__rc6>
    425f: a4 17        	ldy	$17                     ; 0x17 <__rc7>
    4261: 71 12        	adc	($12),y                 ; 0x12 <__rc2>
    4263: 85 12        	sta	$12                     ; 0x12 <__rc2>
    4265: 84 1c        	sty	$1c                     ; 0x1c <__rc12>
    4267: 18           	clc
    4268: a5 14        	lda	$14                     ; 0x14 <__rc4>
    426a: 69 02        	adc	#$2
    426c: 85 14        	sta	$14                     ; 0x14 <__rc4>
    426e: a5 15        	lda	$15                     ; 0x15 <__rc5>
    4270: 69 00        	adc	#$0
    4272: aa           	tax
    4273: a5 12        	lda	$12                     ; 0x12 <__rc2>
    4275: 69 00        	adc	#$0
    4277: 85 13        	sta	$13                     ; 0x13 <__rc3>
    4279: 8a           	txa
    427a: 86 12        	stx	$12                     ; 0x12 <__rc2>
    427c: 06 12        	asl	$12                     ; 0x12 <__rc2>
    427e: 26 13        	rol	$13                     ; 0x13 <__rc3>
    4280: 06 12        	asl	$12                     ; 0x12 <__rc2>
    4282: 26 13        	rol	$13                     ; 0x13 <__rc3>
    4284: 06 12        	asl	$12                     ; 0x12 <__rc2>
    4286: 26 13        	rol	$13                     ; 0x13 <__rc3>
    4288: a4 13        	ldy	$13                     ; 0x13 <__rc3>
    428a: a6 0f        	ldx	$f                      ; 0xf <__zp_data_size+0xe>
    428c: 78           	sei
    428d: 84 0f        	sty	$f                      ; 0xf <__zp_data_size+0xe>
    428f: a4 14        	ldy	$14                     ; 0x14 <__rc4>
    4291: 84 12        	sty	$12                     ; 0x12 <__rc2>
    4293: 09 e0        	ora	#$e0
    4295: 85 13        	sta	$13                     ; 0x13 <__rc3>
    4297: b2 12        	lda	($12)                   ; 0x12 <__rc2>
    4299: 85 1b        	sta	$1b                     ; 0x1b <__rc11>
    429b: 86 0f        	stx	$f                      ; 0xf <__zp_data_size+0xe>
    429d: 58           	cli
    429e: 18           	clc
    429f: a5 19        	lda	$19                     ; 0x19 <__rc9>
    42a1: 65 5c        	adc	$5c                     ; 0x5c <theOne.8>
    42a3: aa           	tax
    42a4: a5 18        	lda	$18                     ; 0x18 <__rc8>
    42a6: 65 5d        	adc	$5d                     ; 0x5d <theOne.8+0x1>
    42a8: a8           	tay
    42a9: 18           	clc
    42aa: 8a           	txa
    42ab: 69 08        	adc	#$8
    42ad: 85 12        	sta	$12                     ; 0x12 <__rc2>
    42af: 98           	tya
    42b0: 69 00        	adc	#$0
    42b2: 85 13        	sta	$13                     ; 0x13 <__rc3>
    42b4: 86 14        	stx	$14                     ; 0x14 <__rc4>
    42b6: 84 15        	sty	$15                     ; 0x15 <__rc5>
    42b8: 18           	clc
    42b9: 8a           	txa
    42ba: 69 04        	adc	#$4
    42bc: 85 16        	sta	$16                     ; 0x16 <__rc6>
    42be: 98           	tya
    42bf: 69 00        	adc	#$0
    42c1: 85 17        	sta	$17                     ; 0x17 <__rc7>
    42c3: a4 23        	ldy	$23                     ; 0x23 <__rc19>
    42c5: b1 14        	lda	($14),y                 ; 0x14 <__rc4>
    42c7: 85 23        	sta	$23                     ; 0x23 <__rc19>
    42c9: 84 1d        	sty	$1d                     ; 0x1d <__rc13>
    42cb: a4 25        	ldy	$25                     ; 0x25 <__rc21>
    42cd: b1 16        	lda	($16),y                 ; 0x16 <__rc6>
    42cf: aa           	tax
    42d0: a4 1c        	ldy	$1c                     ; 0x1c <__rc12>
    42d2: b1 16        	lda	($16),y                 ; 0x16 <__rc6>
    42d4: 84 17        	sty	$17                     ; 0x17 <__rc7>
    42d6: 85 16        	sta	$16                     ; 0x16 <__rc6>
    42d8: 18           	clc
    42d9: a4 22        	ldy	$22                     ; 0x22 <__rc18>
    42db: a5 23        	lda	$23                     ; 0x23 <__rc19>
    42dd: 71 14        	adc	($14),y                 ; 0x14 <__rc4>
    42df: 85 14        	sta	$14                     ; 0x14 <__rc4>
    42e1: 8a           	txa
    42e2: a4 25        	ldy	$25                     ; 0x25 <__rc21>
    42e4: 71 12        	adc	($12),y                 ; 0x12 <__rc2>
    42e6: 85 15        	sta	$15                     ; 0x15 <__rc5>
    42e8: a4 17        	ldy	$17                     ; 0x17 <__rc7>
    42ea: a5 16        	lda	$16                     ; 0x16 <__rc6>
    42ec: 71 12        	adc	($12),y                 ; 0x12 <__rc2>
    42ee: 85 12        	sta	$12                     ; 0x12 <__rc2>
    42f0: 84 23        	sty	$23                     ; 0x23 <__rc19>
    42f2: 18           	clc
    42f3: a5 14        	lda	$14                     ; 0x14 <__rc4>
    42f5: 69 03        	adc	#$3
    42f7: 85 14        	sta	$14                     ; 0x14 <__rc4>
    42f9: a5 15        	lda	$15                     ; 0x15 <__rc5>
    42fb: 69 00        	adc	#$0
    42fd: aa           	tax
    42fe: a5 12        	lda	$12                     ; 0x12 <__rc2>
    4300: 69 00        	adc	#$0
    4302: 85 13        	sta	$13                     ; 0x13 <__rc3>
    4304: 8a           	txa
    4305: 86 12        	stx	$12                     ; 0x12 <__rc2>
    4307: 06 12        	asl	$12                     ; 0x12 <__rc2>
    4309: 26 13        	rol	$13                     ; 0x13 <__rc3>
    430b: 06 12        	asl	$12                     ; 0x12 <__rc2>
    430d: 26 13        	rol	$13                     ; 0x13 <__rc3>
    430f: 06 12        	asl	$12                     ; 0x12 <__rc2>
    4311: 26 13        	rol	$13                     ; 0x13 <__rc3>
    4313: a4 13        	ldy	$13                     ; 0x13 <__rc3>
    4315: a6 0f        	ldx	$f                      ; 0xf <__zp_data_size+0xe>
    4317: 78           	sei
    4318: 84 0f        	sty	$f                      ; 0xf <__zp_data_size+0xe>
    431a: a4 14        	ldy	$14                     ; 0x14 <__rc4>
    431c: 84 12        	sty	$12                     ; 0x12 <__rc2>
    431e: 09 e0        	ora	#$e0
    4320: 85 13        	sta	$13                     ; 0x13 <__rc3>
    4322: b2 12        	lda	($12)                   ; 0x12 <__rc2>
    4324: 85 1c        	sta	$1c                     ; 0x1c <__rc12>
    4326: 86 0f        	stx	$f                      ; 0xf <__zp_data_size+0xe>
    4328: 58           	cli
    4329: 18           	clc
    432a: a5 19        	lda	$19                     ; 0x19 <__rc9>
    432c: 65 5c        	adc	$5c                     ; 0x5c <theOne.8>
    432e: aa           	tax
    432f: a5 18        	lda	$18                     ; 0x18 <__rc8>
    4331: 65 5d        	adc	$5d                     ; 0x5d <theOne.8+0x1>
    4333: a8           	tay
    4334: 8a           	txa
    4335: 18           	clc
    4336: 69 08        	adc	#$8
    4338: 85 12        	sta	$12                     ; 0x12 <__rc2>
    433a: 98           	tya
    433b: 69 00        	adc	#$0
    433d: 85 13        	sta	$13                     ; 0x13 <__rc3>
    433f: 86 14        	stx	$14                     ; 0x14 <__rc4>
    4341: 84 15        	sty	$15                     ; 0x15 <__rc5>
    4343: 18           	clc
    4344: 8a           	txa
    4345: 69 04        	adc	#$4
    4347: 85 16        	sta	$16                     ; 0x16 <__rc6>
    4349: 98           	tya
    434a: 69 00        	adc	#$0
    434c: 85 17        	sta	$17                     ; 0x17 <__rc7>
    434e: a4 1d        	ldy	$1d                     ; 0x1d <__rc13>
    4350: b1 14        	lda	($14),y                 ; 0x14 <__rc4>
    4352: 85 26        	sta	$26                     ; 0x26 <__rc22>
    4354: a4 25        	ldy	$25                     ; 0x25 <__rc21>
    4356: b1 16        	lda	($16),y                 ; 0x16 <__rc6>
    4358: 85 25        	sta	$25                     ; 0x25 <__rc21>
    435a: 5a           	phy
    435b: fa           	plx
    435c: a4 23        	ldy	$23                     ; 0x23 <__rc19>
    435e: b1 16        	lda	($16),y                 ; 0x16 <__rc6>
    4360: 84 27        	sty	$27                     ; 0x27 <__rc23>
    4362: 85 16        	sta	$16                     ; 0x16 <__rc6>
    4364: 18           	clc
    4365: a4 22        	ldy	$22                     ; 0x22 <__rc18>
    4367: a5 26        	lda	$26                     ; 0x26 <__rc22>
    4369: 71 14        	adc	($14),y                 ; 0x14 <__rc4>
    436b: 85 14        	sta	$14                     ; 0x14 <__rc4>
    436d: 84 17        	sty	$17                     ; 0x17 <__rc7>
    436f: da           	phx
    4370: 7a           	ply
    4371: a5 25        	lda	$25                     ; 0x25 <__rc21>
    4373: 71 12        	adc	($12),y                 ; 0x12 <__rc2>
    4375: 85 15        	sta	$15                     ; 0x15 <__rc5>
    4377: 86 23        	stx	$23                     ; 0x23 <__rc19>
    4379: a4 27        	ldy	$27                     ; 0x27 <__rc23>
    437b: a5 16        	lda	$16                     ; 0x16 <__rc6>
    437d: 71 12        	adc	($12),y                 ; 0x12 <__rc2>
    437f: 85 12        	sta	$12                     ; 0x12 <__rc2>
    4381: 84 16        	sty	$16                     ; 0x16 <__rc6>
    4383: 18           	clc
    4384: a5 14        	lda	$14                     ; 0x14 <__rc4>
    4386: 69 04        	adc	#$4
    4388: 85 14        	sta	$14                     ; 0x14 <__rc4>
    438a: a5 15        	lda	$15                     ; 0x15 <__rc5>
    438c: 69 00        	adc	#$0
    438e: aa           	tax
    438f: a5 12        	lda	$12                     ; 0x12 <__rc2>
    4391: 69 00        	adc	#$0
    4393: 85 13        	sta	$13                     ; 0x13 <__rc3>
    4395: 8a           	txa
    4396: 86 12        	stx	$12                     ; 0x12 <__rc2>
    4398: 06 12        	asl	$12                     ; 0x12 <__rc2>
    439a: 26 13        	rol	$13                     ; 0x13 <__rc3>
    439c: 06 12        	asl	$12                     ; 0x12 <__rc2>
    439e: 26 13        	rol	$13                     ; 0x13 <__rc3>
    43a0: 06 12        	asl	$12                     ; 0x12 <__rc2>
    43a2: 26 13        	rol	$13                     ; 0x13 <__rc3>
    43a4: a4 13        	ldy	$13                     ; 0x13 <__rc3>
    43a6: a6 0f        	ldx	$f                      ; 0xf <__zp_data_size+0xe>
    43a8: 78           	sei
    43a9: 84 0f        	sty	$f                      ; 0xf <__zp_data_size+0xe>
    43ab: a4 14        	ldy	$14                     ; 0x14 <__rc4>
    43ad: 84 12        	sty	$12                     ; 0x12 <__rc2>
    43af: 09 e0        	ora	#$e0
    43b1: 85 13        	sta	$13                     ; 0x13 <__rc3>
    43b3: b2 12        	lda	($12)                   ; 0x12 <__rc2>
    43b5: 85 22        	sta	$22                     ; 0x22 <__rc18>
    43b7: 86 0f        	stx	$f                      ; 0xf <__zp_data_size+0xe>
    43b9: 58           	cli
    43ba: 18           	clc
    43bb: a5 19        	lda	$19                     ; 0x19 <__rc9>
    43bd: 65 5c        	adc	$5c                     ; 0x5c <theOne.8>
    43bf: aa           	tax
    43c0: a5 18        	lda	$18                     ; 0x18 <__rc8>
    43c2: 65 5d        	adc	$5d                     ; 0x5d <theOne.8+0x1>
    43c4: 86 12        	stx	$12                     ; 0x12 <__rc2>
    43c6: 85 13        	sta	$13                     ; 0x13 <__rc3>
    43c8: a8           	tay
    43c9: 86 25        	stx	$25                     ; 0x25 <__rc21>
    43cb: 18           	clc
    43cc: 8a           	txa
    43cd: 69 04        	adc	#$4
    43cf: 85 14        	sta	$14                     ; 0x14 <__rc4>
    43d1: 98           	tya
    43d2: 84 26        	sty	$26                     ; 0x26 <__rc22>
    43d4: 69 00        	adc	#$0
    43d6: 85 15        	sta	$15                     ; 0x15 <__rc5>
    43d8: a4 1d        	ldy	$1d                     ; 0x1d <__rc13>
    43da: b1 12        	lda	($12),y                 ; 0x12 <__rc2>
    43dc: aa           	tax
    43dd: a4 23        	ldy	$23                     ; 0x23 <__rc19>
    43df: b1 14        	lda	($14),y                 ; 0x14 <__rc4>
    43e1: 84 28        	sty	$28                     ; 0x28 <__rc24>
    43e3: 85 23        	sta	$23                     ; 0x23 <__rc19>
    43e5: a4 16        	ldy	$16                     ; 0x16 <__rc6>
    43e7: b1 14        	lda	($14),y                 ; 0x14 <__rc4>
    43e9: 84 27        	sty	$27                     ; 0x27 <__rc23>
    43eb: 85 15        	sta	$15                     ; 0x15 <__rc5>
    43ed: 18           	clc
    43ee: a4 17        	ldy	$17                     ; 0x17 <__rc7>
    43f0: 8a           	txa
    43f1: 71 12        	adc	($12),y                 ; 0x12 <__rc2>
    43f3: a2 01        	ldx	#$1
    43f5: b0 02        	bcs	$43f9 <readMIDICmd+0x359>
    43f7: a2 00        	ldx	#$0
    43f9: 85 14        	sta	$14                     ; 0x14 <__rc4>
    43fb: 18           	clc
    43fc: a5 25        	lda	$25                     ; 0x25 <__rc21>
    43fe: 69 08        	adc	#$8
    4400: 85 12        	sta	$12                     ; 0x12 <__rc2>
    4402: a5 26        	lda	$26                     ; 0x26 <__rc22>
    4404: 69 00        	adc	#$0
    4406: 85 13        	sta	$13                     ; 0x13 <__rc3>
    4408: a5 23        	lda	$23                     ; 0x23 <__rc19>
    440a: a4 28        	ldy	$28                     ; 0x28 <__rc24>
    440c: e0 01        	cpx	#$1
    440e: 71 12        	adc	($12),y                 ; 0x12 <__rc2>
    4410: 85 16        	sta	$16                     ; 0x16 <__rc6>
    4412: 84 25        	sty	$25                     ; 0x25 <__rc21>
    4414: a5 15        	lda	$15                     ; 0x15 <__rc5>
    4416: a4 27        	ldy	$27                     ; 0x27 <__rc23>
    4418: 71 12        	adc	($12),y                 ; 0x12 <__rc2>
    441a: 85 12        	sta	$12                     ; 0x12 <__rc2>
    441c: 84 26        	sty	$26                     ; 0x26 <__rc22>
    441e: 18           	clc
    441f: a5 14        	lda	$14                     ; 0x14 <__rc4>
    4421: 69 05        	adc	#$5
    4423: 85 14        	sta	$14                     ; 0x14 <__rc4>
    4425: a5 16        	lda	$16                     ; 0x16 <__rc6>
    4427: 69 00        	adc	#$0
    4429: aa           	tax
    442a: a5 12        	lda	$12                     ; 0x12 <__rc2>
    442c: 69 00        	adc	#$0
    442e: 85 13        	sta	$13                     ; 0x13 <__rc3>
    4430: 8a           	txa
    4431: 86 12        	stx	$12                     ; 0x12 <__rc2>
    4433: 06 12        	asl	$12                     ; 0x12 <__rc2>
    4435: 26 13        	rol	$13                     ; 0x13 <__rc3>
    4437: 06 12        	asl	$12                     ; 0x12 <__rc2>
    4439: 26 13        	rol	$13                     ; 0x13 <__rc3>
    443b: 06 12        	asl	$12                     ; 0x12 <__rc2>
    443d: 26 13        	rol	$13                     ; 0x13 <__rc3>
    443f: a4 13        	ldy	$13                     ; 0x13 <__rc3>
    4441: a6 0f        	ldx	$f                      ; 0xf <__zp_data_size+0xe>
    4443: 78           	sei
    4444: 84 0f        	sty	$f                      ; 0xf <__zp_data_size+0xe>
    4446: a4 14        	ldy	$14                     ; 0x14 <__rc4>
    4448: 84 12        	sty	$12                     ; 0x12 <__rc2>
    444a: 09 e0        	ora	#$e0
    444c: 85 13        	sta	$13                     ; 0x13 <__rc3>
    444e: b2 12        	lda	($12)                   ; 0x12 <__rc2>
    4450: 85 23        	sta	$23                     ; 0x23 <__rc19>
    4452: 86 0f        	stx	$f                      ; 0xf <__zp_data_size+0xe>
    4454: 58           	cli
    4455: 18           	clc
    4456: a5 19        	lda	$19                     ; 0x19 <__rc9>
    4458: 65 5c        	adc	$5c                     ; 0x5c <theOne.8>
    445a: aa           	tax
    445b: a5 18        	lda	$18                     ; 0x18 <__rc8>
    445d: 65 5d        	adc	$5d                     ; 0x5d <theOne.8+0x1>
    445f: 85 13        	sta	$13                     ; 0x13 <__rc3>
    4461: 8a           	txa
    4462: 18           	clc
    4463: 69 04        	adc	#$4
    4465: 85 14        	sta	$14                     ; 0x14 <__rc4>
    4467: a5 13        	lda	$13                     ; 0x13 <__rc3>
    4469: 69 00        	adc	#$0
    446b: 85 15        	sta	$15                     ; 0x15 <__rc5>
    446d: 86 17        	stx	$17                     ; 0x17 <__rc7>
    446f: 86 12        	stx	$12                     ; 0x12 <__rc2>
    4471: a6 13        	ldx	$13                     ; 0x13 <__rc3>
    4473: 86 16        	stx	$16                     ; 0x16 <__rc6>
    4475: a0 10        	ldy	#$10
    4477: a5 1a        	lda	$1a                     ; 0x1a <__rc10>
    4479: 91 12        	sta	($12),y                 ; 0x12 <__rc2>
    447b: c8           	iny
    447c: a5 1f        	lda	$1f                     ; 0x1f <__rc15>
    447e: 85 18        	sta	$18                     ; 0x18 <__rc8>
    4480: 91 12        	sta	($12),y                 ; 0x12 <__rc2>
    4482: c8           	iny
    4483: a5 1b        	lda	$1b                     ; 0x1b <__rc11>
    4485: 85 19        	sta	$19                     ; 0x19 <__rc9>
    4487: 91 12        	sta	($12),y                 ; 0x12 <__rc2>
    4489: a4 1d        	ldy	$1d                     ; 0x1d <__rc13>
    448b: b1 12        	lda	($12),y                 ; 0x12 <__rc2>
    448d: 85 1b        	sta	$1b                     ; 0x1b <__rc11>
    448f: 84 27        	sty	$27                     ; 0x27 <__rc23>
    4491: a4 25        	ldy	$25                     ; 0x25 <__rc21>
    4493: b1 14        	lda	($14),y                 ; 0x14 <__rc4>
    4495: 85 2a        	sta	$2a                     ; 0x2a <__rc26>
    4497: a4 26        	ldy	$26                     ; 0x26 <__rc22>
    4499: b1 14        	lda	($14),y                 ; 0x14 <__rc4>
    449b: 85 28        	sta	$28                     ; 0x28 <__rc24>
    449d: a6 1e        	ldx	$1e                     ; 0x1e <__rc14>
    449f: a4 1e        	ldy	$1e                     ; 0x1e <__rc14>
    44a1: b1 14        	lda	($14),y                 ; 0x14 <__rc4>
    44a3: a8           	tay
    44a4: a5 1b        	lda	$1b                     ; 0x1b <__rc11>
    44a6: 5a           	phy
    44a7: a4 2a        	ldy	$2a                     ; 0x2a <__rc26>
    44a9: 84 1f        	sty	$1f                     ; 0x1f <__rc15>
    44ab: a4 28        	ldy	$28                     ; 0x28 <__rc24>
    44ad: 84 1e        	sty	$1e                     ; 0x1e <__rc14>
    44af: 7a           	ply
    44b0: 84 1d        	sty	$1d                     ; 0x1d <__rc13>
    44b2: 84 29        	sty	$29                     ; 0x29 <__rc25>
    44b4: 1a           	inc
    44b5: d0 0a        	bne	$44c1 <readMIDICmd+0x421>
    44b7: e6 2a        	inc	$2a                     ; 0x2a <__rc26>
    44b9: d0 06        	bne	$44c1 <readMIDICmd+0x421>
    44bb: e6 28        	inc	$28                     ; 0x28 <__rc24>
    44bd: d0 02        	bne	$44c1 <readMIDICmd+0x421>
    44bf: e6 29        	inc	$29                     ; 0x29 <__rc25>
    44c1: a4 27        	ldy	$27                     ; 0x27 <__rc23>
    44c3: 85 27        	sta	$27                     ; 0x27 <__rc23>
    44c5: 91 12        	sta	($12),y                 ; 0x12 <__rc2>
    44c7: a4 25        	ldy	$25                     ; 0x25 <__rc21>
    44c9: a5 2a        	lda	$2a                     ; 0x2a <__rc26>
    44cb: 85 25        	sta	$25                     ; 0x25 <__rc21>
    44cd: 91 14        	sta	($14),y                 ; 0x14 <__rc4>
    44cf: a4 26        	ldy	$26                     ; 0x26 <__rc22>
    44d1: a5 28        	lda	$28                     ; 0x28 <__rc24>
    44d3: 91 14        	sta	($14),y                 ; 0x14 <__rc4>
    44d5: da           	phx
    44d6: 7a           	ply
    44d7: a5 29        	lda	$29                     ; 0x29 <__rc25>
    44d9: 91 14        	sta	($14),y                 ; 0x14 <__rc4>
    44db: a6 1a        	ldx	$1a                     ; 0x1a <__rc10>
    44dd: 10 03        	bpl	$44e2 <readMIDICmd+0x442>
    44df: 4c 6f 45     	jmp	$456f <readMIDICmd+0x4cf>
    44e2: 8a           	txa
    44e3: a0 11        	ldy	#$11
    44e5: 91 12        	sta	($12),y                 ; 0x12 <__rc2>
    44e7: a5 18        	lda	$18                     ; 0x18 <__rc8>
    44e9: c8           	iny
    44ea: 91 12        	sta	($12),y                 ; 0x12 <__rc2>
    44ec: 85 25        	sta	$25                     ; 0x25 <__rc21>
    44ee: a0 04        	ldy	#$4
    44f0: a5 1b        	lda	$1b                     ; 0x1b <__rc11>
    44f2: 91 12        	sta	($12),y                 ; 0x12 <__rc2>
    44f4: a0 01        	ldy	#$1
    44f6: a5 1f        	lda	$1f                     ; 0x1f <__rc15>
    44f8: 85 1a        	sta	$1a                     ; 0x1a <__rc10>
    44fa: 91 14        	sta	($14),y                 ; 0x14 <__rc4>
    44fc: a0 16        	ldy	#$16
    44fe: b1 12        	lda	($12),y                 ; 0x12 <__rc2>
    4500: a0 10        	ldy	#$10
    4502: 91 12        	sta	($12),y                 ; 0x12 <__rc2>
    4504: 85 1f        	sta	$1f                     ; 0x1f <__rc15>
    4506: a0 02        	ldy	#$2
    4508: a5 1e        	lda	$1e                     ; 0x1e <__rc14>
    450a: 85 19        	sta	$19                     ; 0x19 <__rc9>
    450c: 91 14        	sta	($14),y                 ; 0x14 <__rc4>
    450e: c8           	iny
    450f: a5 1d        	lda	$1d                     ; 0x1d <__rc13>
    4511: 85 18        	sta	$18                     ; 0x18 <__rc8>
    4513: 91 14        	sta	($14),y                 ; 0x14 <__rc4>
    4515: a4 25        	ldy	$25                     ; 0x25 <__rc21>
    4517: 84 15        	sty	$15                     ; 0x15 <__rc5>
    4519: 86 14        	stx	$14                     ; 0x14 <__rc4>
    451b: a5 1f        	lda	$1f                     ; 0x1f <__rc15>
    451d: c9 ff        	cmp	#$ff
    451f: d0 03        	bne	$4524 <readMIDICmd+0x484>
    4521: 4c 8d 45     	jmp	$458d <readMIDICmd+0x4ed>
    4524: c9 c0        	cmp	#$c0
    4526: b0 03        	bcs	$452b <readMIDICmd+0x48b>
    4528: 4c e8 45     	jmp	$45e8 <readMIDICmd+0x548>
    452b: c9 e0        	cmp	#$e0
    452d: 90 03        	bcc	$4532 <readMIDICmd+0x492>
    452f: 4c f9 45     	jmp	$45f9 <readMIDICmd+0x559>
    4532: e6 1b        	inc	$1b                     ; 0x1b <__rc11>
    4534: d0 0a        	bne	$4540 <readMIDICmd+0x4a0>
    4536: e6 1a        	inc	$1a                     ; 0x1a <__rc10>
    4538: d0 06        	bne	$4540 <readMIDICmd+0x4a0>
    453a: e6 19        	inc	$19                     ; 0x19 <__rc9>
    453c: d0 02        	bne	$4540 <readMIDICmd+0x4a0>
    453e: e6 18        	inc	$18                     ; 0x18 <__rc8>
    4540: a0 04        	ldy	#$4
    4542: aa           	tax
    4543: a5 1b        	lda	$1b                     ; 0x1b <__rc11>
    4545: 91 12        	sta	($12),y                 ; 0x12 <__rc2>
    4547: 18           	clc
    4548: a5 17        	lda	$17                     ; 0x17 <__rc7>
    454a: 69 04        	adc	#$4
    454c: 85 14        	sta	$14                     ; 0x14 <__rc4>
    454e: a5 16        	lda	$16                     ; 0x16 <__rc6>
    4550: 69 00        	adc	#$0
    4552: 85 15        	sta	$15                     ; 0x15 <__rc5>
    4554: a0 01        	ldy	#$1
    4556: a5 1a        	lda	$1a                     ; 0x1a <__rc10>
    4558: 91 14        	sta	($14),y                 ; 0x14 <__rc4>
    455a: c8           	iny
    455b: a5 19        	lda	$19                     ; 0x19 <__rc9>
    455d: 91 14        	sta	($14),y                 ; 0x14 <__rc4>
    455f: c8           	iny
    4560: a5 18        	lda	$18                     ; 0x18 <__rc8>
    4562: 91 14        	sta	($14),y                 ; 0x14 <__rc4>
    4564: a0 17        	ldy	#$17
    4566: a9 01        	lda	#$1
    4568: 91 12        	sta	($12),y                 ; 0x12 <__rc2>
    456a: 88           	dey
    456b: 8a           	txa
    456c: 4c 39 46     	jmp	$4639 <readMIDICmd+0x599>
    456f: a4 19        	ldy	$19                     ; 0x19 <__rc9>
    4571: 84 15        	sty	$15                     ; 0x15 <__rc5>
    4573: a4 18        	ldy	$18                     ; 0x18 <__rc8>
    4575: 84 14        	sty	$14                     ; 0x14 <__rc4>
    4577: a4 27        	ldy	$27                     ; 0x27 <__rc23>
    4579: 84 1b        	sty	$1b                     ; 0x1b <__rc11>
    457b: a4 25        	ldy	$25                     ; 0x25 <__rc21>
    457d: 84 1a        	sty	$1a                     ; 0x1a <__rc10>
    457f: a4 28        	ldy	$28                     ; 0x28 <__rc24>
    4581: 84 19        	sty	$19                     ; 0x19 <__rc9>
    4583: 85 18        	sta	$18                     ; 0x18 <__rc8>
    4585: 8a           	txa
    4586: c9 ff        	cmp	#$ff
    4588: f0 03        	beq	$458d <readMIDICmd+0x4ed>
    458a: 4c 24 45     	jmp	$4524 <readMIDICmd+0x484>
    458d: a0 10        	ldy	#$10
    458f: a9 ff        	lda	#$ff
    4591: 91 12        	sta	($12),y                 ; 0x12 <__rc2>
    4593: c8           	iny
    4594: a5 14        	lda	$14                     ; 0x14 <__rc4>
    4596: 91 12        	sta	($12),y                 ; 0x12 <__rc2>
    4598: c8           	iny
    4599: a5 15        	lda	$15                     ; 0x15 <__rc5>
    459b: 91 12        	sta	($12),y                 ; 0x12 <__rc2>
    459d: a5 14        	lda	$14                     ; 0x14 <__rc4>
    459f: c9 51        	cmp	#$51
    45a1: d0 4a        	bne	$45ed <readMIDICmd+0x54d>
    45a3: a0 13        	ldy	#$13
    45a5: a5 1c        	lda	$1c                     ; 0x1c <__rc12>
    45a7: 91 12        	sta	($12),y                 ; 0x12 <__rc2>
    45a9: c8           	iny
    45aa: a5 22        	lda	$22                     ; 0x22 <__rc18>
    45ac: 91 12        	sta	($12),y                 ; 0x12 <__rc2>
    45ae: c8           	iny
    45af: a5 23        	lda	$23                     ; 0x23 <__rc19>
    45b1: 91 12        	sta	($12),y                 ; 0x12 <__rc2>
    45b3: 18           	clc
    45b4: a5 1b        	lda	$1b                     ; 0x1b <__rc11>
    45b6: 69 05        	adc	#$5
    45b8: a2 01        	ldx	#$1
    45ba: b0 02        	bcs	$45be <readMIDICmd+0x51e>
    45bc: a2 00        	ldx	#$0
    45be: a0 04        	ldy	#$4
    45c0: 91 12        	sta	($12),y                 ; 0x12 <__rc2>
    45c2: 18           	clc
    45c3: a5 17        	lda	$17                     ; 0x17 <__rc7>
    45c5: 69 04        	adc	#$4
    45c7: 85 12        	sta	$12                     ; 0x12 <__rc2>
    45c9: a5 16        	lda	$16                     ; 0x16 <__rc6>
    45cb: 69 00        	adc	#$0
    45cd: 85 13        	sta	$13                     ; 0x13 <__rc3>
    45cf: a5 1a        	lda	$1a                     ; 0x1a <__rc10>
    45d1: e0 01        	cpx	#$1
    45d3: 69 00        	adc	#$0
    45d5: a0 01        	ldy	#$1
    45d7: 91 12        	sta	($12),y                 ; 0x12 <__rc2>
    45d9: a5 19        	lda	$19                     ; 0x19 <__rc9>
    45db: 69 00        	adc	#$0
    45dd: c8           	iny
    45de: 91 12        	sta	($12),y                 ; 0x12 <__rc2>
    45e0: a5 18        	lda	$18                     ; 0x18 <__rc8>
    45e2: 69 00        	adc	#$0
    45e4: c8           	iny
    45e5: 4c 39 46     	jmp	$4639 <readMIDICmd+0x599>
    45e8: aa           	tax
    45e9: 10 50        	bpl	$463b <readMIDICmd+0x59b>
    45eb: 80 10        	bra	$45fd <readMIDICmd+0x55d>
    45ed: a6 15        	ldx	$15                     ; 0x15 <__rc5>
    45ef: 86 12        	stx	$12                     ; 0x12 <__rc2>
    45f1: aa           	tax
    45f2: a5 24        	lda	$24                     ; 0x24 <__rc20>
    45f4: 20 65 46     	jsr	$4665 <skipWhenFFCmd>
    45f7: 80 42        	bra	$463b <readMIDICmd+0x59b>
    45f9: c9 f0        	cmp	#$f0
    45fb: b0 3e        	bcs	$463b <readMIDICmd+0x59b>
    45fd: a0 16        	ldy	#$16
    45ff: 91 12        	sta	($12),y                 ; 0x12 <__rc2>
    4601: 18           	clc
    4602: a5 1b        	lda	$1b                     ; 0x1b <__rc11>
    4604: 69 02        	adc	#$2
    4606: a2 01        	ldx	#$1
    4608: b0 02        	bcs	$460c <readMIDICmd+0x56c>
    460a: a2 00        	ldx	#$0
    460c: a0 04        	ldy	#$4
    460e: 91 12        	sta	($12),y                 ; 0x12 <__rc2>
    4610: 18           	clc
    4611: a5 17        	lda	$17                     ; 0x17 <__rc7>
    4613: 69 04        	adc	#$4
    4615: 85 14        	sta	$14                     ; 0x14 <__rc4>
    4617: a5 16        	lda	$16                     ; 0x16 <__rc6>
    4619: 69 00        	adc	#$0
    461b: 85 15        	sta	$15                     ; 0x15 <__rc5>
    461d: a5 1a        	lda	$1a                     ; 0x1a <__rc10>
    461f: e0 01        	cpx	#$1
    4621: 69 00        	adc	#$0
    4623: a0 01        	ldy	#$1
    4625: 91 14        	sta	($14),y                 ; 0x14 <__rc4>
    4627: a5 19        	lda	$19                     ; 0x19 <__rc9>
    4629: 69 00        	adc	#$0
    462b: c8           	iny
    462c: 91 14        	sta	($14),y                 ; 0x14 <__rc4>
    462e: a5 18        	lda	$18                     ; 0x18 <__rc8>
    4630: 69 00        	adc	#$0
    4632: c8           	iny
    4633: 91 14        	sta	($14),y                 ; 0x14 <__rc4>
    4635: a9 00        	lda	#$0
    4637: a0 17        	ldy	#$17
    4639: 91 12        	sta	($12),y                 ; 0x12 <__rc2>
    463b: a0 00        	ldy	#$0
    463d: b1 10        	lda	($10),y                 ; 0x10 <__rc0>
    463f: 85 2a        	sta	$2a                     ; 0x2a <__rc26>
    4641: c8           	iny
    4642: b1 10        	lda	($10),y                 ; 0x10 <__rc0>
    4644: 85 29        	sta	$29                     ; 0x29 <__rc25>
    4646: c8           	iny
    4647: b1 10        	lda	($10),y                 ; 0x10 <__rc0>
    4649: 85 28        	sta	$28                     ; 0x28 <__rc24>
    464b: fa           	plx
    464c: 86 27        	stx	$27                     ; 0x27 <__rc23>
    464e: fa           	plx
    464f: 86 26        	stx	$26                     ; 0x26 <__rc22>
    4651: fa           	plx
    4652: 86 25        	stx	$25                     ; 0x25 <__rc21>
    4654: fa           	plx
    4655: 86 24        	stx	$24                     ; 0x24 <__rc20>
    4657: 18           	clc
    4658: a5 10        	lda	$10                     ; 0x10 <__rc0>
    465a: 69 03        	adc	#$3
    465c: 85 10        	sta	$10                     ; 0x10 <__rc0>
    465e: a5 11        	lda	$11                     ; 0x11 <__rc1>
    4660: 69 00        	adc	#$0
    4662: 85 11        	sta	$11                     ; 0x11 <__rc1>
    4664: 60           	rts

00004665 <skipWhenFFCmd>:
    4665: a8           	tay
    4666: 8a           	txa
    4667: a6 12        	ldx	$12                     ; 0x12 <__rc2>
    4669: 86 6c        	stx	$6c                     ; 0x6c <__zp_bss_size+0x31>
    466b: c9 5a        	cmp	#$5a
    466d: 90 03        	bcc	$4672 <skipWhenFFCmd+0xd>
    466f: 4c 7a 48     	jmp	$487a <skipWhenFFCmd+0x215>
    4672: 0a           	asl
    4673: aa           	tax
    4674: 7c a0 6b     	jmp	($6ba0,x)               ; 0x6ba0 <__BLOCK_SIZE+0x4ba0>
    4677: a6 5c        	ldx	$5c                     ; 0x5c <theOne.8>
    4679: 86 6e        	stx	$6e                     ; 0x6e <__zp_bss_size+0x33>
    467b: a6 5d        	ldx	$5d                     ; 0x5d <theOne.8+0x1>
    467d: 86 6d        	stx	$6d                     ; 0x6d <__zp_bss_size+0x32>
    467f: a2 19        	ldx	#$19
    4681: 86 12        	stx	$12                     ; 0x12 <__rc2>
    4683: 64 13        	stz	$13                     ; 0x13 <__rc3>
    4685: a2 00        	ldx	#$0
    4687: 98           	tya
    4688: 20 f6 6a     	jsr	$6af6 <__mulhi3>
    468b: 85 12        	sta	$12                     ; 0x12 <__rc2>
    468d: 86 13        	stx	$13                     ; 0x13 <__rc3>
    468f: 18           	clc
    4690: a6 6e        	ldx	$6e                     ; 0x6e <__zp_bss_size+0x33>
    4692: 8a           	txa
    4693: 65 12        	adc	$12                     ; 0x12 <__rc2>
    4695: a8           	tay
    4696: a5 6d        	lda	$6d                     ; 0x6d <__zp_bss_size+0x32>
    4698: 65 13        	adc	$13                     ; 0x13 <__rc3>
    469a: aa           	tax
    469b: 98           	tya
    469c: 84 12        	sty	$12                     ; 0x12 <__rc2>
    469e: 86 13        	stx	$13                     ; 0x13 <__rc3>
    46a0: 18           	clc
    46a1: 69 04        	adc	#$4
    46a3: 85 14        	sta	$14                     ; 0x14 <__rc4>
    46a5: 8a           	txa
    46a6: 69 00        	adc	#$0
    46a8: 85 15        	sta	$15                     ; 0x15 <__rc5>
    46aa: 18           	clc
    46ab: a6 6c        	ldx	$6c                     ; 0x6c <__zp_bss_size+0x31>
    46ad: 8a           	txa
    46ae: a0 04        	ldy	#$4
    46b0: 71 12        	adc	($12),y                 ; 0x12 <__rc2>
    46b2: 85 16        	sta	$16                     ; 0x16 <__rc6>
    46b4: a2 04        	ldx	#$4
    46b6: 86 17        	stx	$17                     ; 0x17 <__rc7>
    46b8: a9 00        	lda	#$0
    46ba: a0 01        	ldy	#$1
    46bc: 71 14        	adc	($14),y                 ; 0x14 <__rc4>
    46be: 85 19        	sta	$19                     ; 0x19 <__rc9>
    46c0: a2 01        	ldx	#$1
    46c2: 86 18        	stx	$18                     ; 0x18 <__rc8>
    46c4: c8           	iny
    46c5: a9 00        	lda	#$0
    46c7: 71 14        	adc	($14),y                 ; 0x14 <__rc4>
    46c9: 85 1b        	sta	$1b                     ; 0x1b <__rc11>
    46cb: e8           	inx
    46cc: 86 1a        	stx	$1a                     ; 0x1a <__rc10>
    46ce: c8           	iny
    46cf: a9 00        	lda	#$0
    46d1: 71 14        	adc	($14),y                 ; 0x14 <__rc4>
    46d3: e8           	inx
    46d4: 86 1c        	stx	$1c                     ; 0x1c <__rc12>
    46d6: aa           	tax
    46d7: 18           	clc
    46d8: a5 16        	lda	$16                     ; 0x16 <__rc6>
    46da: 69 02        	adc	#$2
    46dc: a4 17        	ldy	$17                     ; 0x17 <__rc7>
    46de: 91 12        	sta	($12),y                 ; 0x12 <__rc2>
    46e0: a5 19        	lda	$19                     ; 0x19 <__rc9>
    46e2: 69 00        	adc	#$0
    46e4: a4 18        	ldy	$18                     ; 0x18 <__rc8>
    46e6: 91 14        	sta	($14),y                 ; 0x14 <__rc4>
    46e8: a5 1b        	lda	$1b                     ; 0x1b <__rc11>
    46ea: 69 00        	adc	#$0
    46ec: a4 1a        	ldy	$1a                     ; 0x1a <__rc10>
    46ee: 91 14        	sta	($14),y                 ; 0x14 <__rc4>
    46f0: 8a           	txa
    46f1: 69 00        	adc	#$0
    46f3: a4 1c        	ldy	$1c                     ; 0x1c <__rc12>
    46f5: 91 14        	sta	($14),y                 ; 0x14 <__rc4>
    46f7: 60           	rts
    46f8: a6 5c        	ldx	$5c                     ; 0x5c <theOne.8>
    46fa: 86 6d        	stx	$6d                     ; 0x6d <__zp_bss_size+0x32>
    46fc: a6 5d        	ldx	$5d                     ; 0x5d <theOne.8+0x1>
    46fe: 86 6c        	stx	$6c                     ; 0x6c <__zp_bss_size+0x31>
    4700: a2 19        	ldx	#$19
    4702: 86 12        	stx	$12                     ; 0x12 <__rc2>
    4704: 64 13        	stz	$13                     ; 0x13 <__rc3>
    4706: a2 00        	ldx	#$0
    4708: 98           	tya
    4709: 20 f6 6a     	jsr	$6af6 <__mulhi3>
    470c: 85 12        	sta	$12                     ; 0x12 <__rc2>
    470e: 86 13        	stx	$13                     ; 0x13 <__rc3>
    4710: 18           	clc
    4711: a6 6d        	ldx	$6d                     ; 0x6d <__zp_bss_size+0x32>
    4713: 8a           	txa
    4714: 65 12        	adc	$12                     ; 0x12 <__rc2>
    4716: a8           	tay
    4717: a5 6c        	lda	$6c                     ; 0x6c <__zp_bss_size+0x31>
    4719: 65 13        	adc	$13                     ; 0x13 <__rc3>
    471b: aa           	tax
    471c: 98           	tya
    471d: 84 14        	sty	$14                     ; 0x14 <__rc4>
    471f: 86 15        	stx	$15                     ; 0x15 <__rc5>
    4721: 18           	clc
    4722: 69 04        	adc	#$4
    4724: 85 12        	sta	$12                     ; 0x12 <__rc2>
    4726: 8a           	txa
    4727: 69 00        	adc	#$0
    4729: a0 04        	ldy	#$4
    472b: 85 13        	sta	$13                     ; 0x13 <__rc3>
    472d: b1 14        	lda	($14),y                 ; 0x14 <__rc4>
    472f: 18           	clc
    4730: 69 03        	adc	#$3
    4732: 4c 62 48     	jmp	$4862 <skipWhenFFCmd+0x1fd>
    4735: a6 5c        	ldx	$5c                     ; 0x5c <theOne.8>
    4737: 86 6d        	stx	$6d                     ; 0x6d <__zp_bss_size+0x32>
    4739: a6 5d        	ldx	$5d                     ; 0x5d <theOne.8+0x1>
    473b: 86 6c        	stx	$6c                     ; 0x6c <__zp_bss_size+0x31>
    473d: a2 19        	ldx	#$19
    473f: 86 12        	stx	$12                     ; 0x12 <__rc2>
    4741: 64 13        	stz	$13                     ; 0x13 <__rc3>
    4743: a2 00        	ldx	#$0
    4745: 98           	tya
    4746: 20 f6 6a     	jsr	$6af6 <__mulhi3>
    4749: 85 12        	sta	$12                     ; 0x12 <__rc2>
    474b: 86 13        	stx	$13                     ; 0x13 <__rc3>
    474d: 18           	clc
    474e: a6 6d        	ldx	$6d                     ; 0x6d <__zp_bss_size+0x32>
    4750: 8a           	txa
    4751: 65 12        	adc	$12                     ; 0x12 <__rc2>
    4753: a8           	tay
    4754: a5 6c        	lda	$6c                     ; 0x6c <__zp_bss_size+0x31>
    4756: 65 13        	adc	$13                     ; 0x13 <__rc3>
    4758: aa           	tax
    4759: 98           	tya
    475a: 84 14        	sty	$14                     ; 0x14 <__rc4>
    475c: 86 15        	stx	$15                     ; 0x15 <__rc5>
    475e: 18           	clc
    475f: 69 04        	adc	#$4
    4761: 85 12        	sta	$12                     ; 0x12 <__rc2>
    4763: 8a           	txa
    4764: 69 00        	adc	#$0
    4766: a0 04        	ldy	#$4
    4768: 85 13        	sta	$13                     ; 0x13 <__rc3>
    476a: b1 14        	lda	($14),y                 ; 0x14 <__rc4>
    476c: 18           	clc
    476d: 69 07        	adc	#$7
    476f: 4c 62 48     	jmp	$4862 <skipWhenFFCmd+0x1fd>
    4772: a6 5c        	ldx	$5c                     ; 0x5c <theOne.8>
    4774: 86 6d        	stx	$6d                     ; 0x6d <__zp_bss_size+0x32>
    4776: a6 5d        	ldx	$5d                     ; 0x5d <theOne.8+0x1>
    4778: 86 6c        	stx	$6c                     ; 0x6c <__zp_bss_size+0x31>
    477a: a2 19        	ldx	#$19
    477c: 86 12        	stx	$12                     ; 0x12 <__rc2>
    477e: 64 13        	stz	$13                     ; 0x13 <__rc3>
    4780: a2 00        	ldx	#$0
    4782: 98           	tya
    4783: 20 f6 6a     	jsr	$6af6 <__mulhi3>
    4786: 85 12        	sta	$12                     ; 0x12 <__rc2>
    4788: 86 13        	stx	$13                     ; 0x13 <__rc3>
    478a: 18           	clc
    478b: a6 6d        	ldx	$6d                     ; 0x6d <__zp_bss_size+0x32>
    478d: 8a           	txa
    478e: 65 12        	adc	$12                     ; 0x12 <__rc2>
    4790: a8           	tay
    4791: a5 6c        	lda	$6c                     ; 0x6c <__zp_bss_size+0x31>
    4793: 65 13        	adc	$13                     ; 0x13 <__rc3>
    4795: aa           	tax
    4796: 98           	tya
    4797: 84 14        	sty	$14                     ; 0x14 <__rc4>
    4799: 86 15        	stx	$15                     ; 0x15 <__rc5>
    479b: 18           	clc
    479c: 69 04        	adc	#$4
    479e: 85 12        	sta	$12                     ; 0x12 <__rc2>
    47a0: 8a           	txa
    47a1: 69 00        	adc	#$0
    47a3: a0 04        	ldy	#$4
    47a5: 85 13        	sta	$13                     ; 0x13 <__rc3>
    47a7: b1 14        	lda	($14),y                 ; 0x14 <__rc4>
    47a9: 18           	clc
    47aa: 69 05        	adc	#$5
    47ac: 4c 62 48     	jmp	$4862 <skipWhenFFCmd+0x1fd>
    47af: a6 5c        	ldx	$5c                     ; 0x5c <theOne.8>
    47b1: 86 6d        	stx	$6d                     ; 0x6d <__zp_bss_size+0x32>
    47b3: a6 5d        	ldx	$5d                     ; 0x5d <theOne.8+0x1>
    47b5: 86 6c        	stx	$6c                     ; 0x6c <__zp_bss_size+0x31>
    47b7: a2 19        	ldx	#$19
    47b9: 86 12        	stx	$12                     ; 0x12 <__rc2>
    47bb: 64 13        	stz	$13                     ; 0x13 <__rc3>
    47bd: a2 00        	ldx	#$0
    47bf: 98           	tya
    47c0: 20 f6 6a     	jsr	$6af6 <__mulhi3>
    47c3: 85 12        	sta	$12                     ; 0x12 <__rc2>
    47c5: 86 13        	stx	$13                     ; 0x13 <__rc3>
    47c7: 18           	clc
    47c8: a6 6d        	ldx	$6d                     ; 0x6d <__zp_bss_size+0x32>
    47ca: 8a           	txa
    47cb: 65 12        	adc	$12                     ; 0x12 <__rc2>
    47cd: a8           	tay
    47ce: a5 6c        	lda	$6c                     ; 0x6c <__zp_bss_size+0x31>
    47d0: 65 13        	adc	$13                     ; 0x13 <__rc3>
    47d2: aa           	tax
    47d3: 98           	tya
    47d4: 84 14        	sty	$14                     ; 0x14 <__rc4>
    47d6: 86 15        	stx	$15                     ; 0x15 <__rc5>
    47d8: 18           	clc
    47d9: 69 04        	adc	#$4
    47db: 85 12        	sta	$12                     ; 0x12 <__rc2>
    47dd: 8a           	txa
    47de: 69 00        	adc	#$0
    47e0: a0 04        	ldy	#$4
    47e2: 85 13        	sta	$13                     ; 0x13 <__rc3>
    47e4: b1 14        	lda	($14),y                 ; 0x14 <__rc4>
    47e6: 18           	clc
    47e7: 69 04        	adc	#$4
    47e9: 4c 62 48     	jmp	$4862 <skipWhenFFCmd+0x1fd>
    47ec: a6 5c        	ldx	$5c                     ; 0x5c <theOne.8>
    47ee: 86 6d        	stx	$6d                     ; 0x6d <__zp_bss_size+0x32>
    47f0: a6 5d        	ldx	$5d                     ; 0x5d <theOne.8+0x1>
    47f2: 86 6c        	stx	$6c                     ; 0x6c <__zp_bss_size+0x31>
    47f4: a2 19        	ldx	#$19
    47f6: 86 12        	stx	$12                     ; 0x12 <__rc2>
    47f8: 64 13        	stz	$13                     ; 0x13 <__rc3>
    47fa: a2 00        	ldx	#$0
    47fc: 98           	tya
    47fd: 20 f6 6a     	jsr	$6af6 <__mulhi3>
    4800: 85 12        	sta	$12                     ; 0x12 <__rc2>
    4802: 86 13        	stx	$13                     ; 0x13 <__rc3>
    4804: 18           	clc
    4805: a6 6d        	ldx	$6d                     ; 0x6d <__zp_bss_size+0x32>
    4807: 8a           	txa
    4808: 65 12        	adc	$12                     ; 0x12 <__rc2>
    480a: a8           	tay
    480b: a5 6c        	lda	$6c                     ; 0x6c <__zp_bss_size+0x31>
    480d: 65 13        	adc	$13                     ; 0x13 <__rc3>
    480f: aa           	tax
    4810: 98           	tya
    4811: 84 14        	sty	$14                     ; 0x14 <__rc4>
    4813: 86 15        	stx	$15                     ; 0x15 <__rc5>
    4815: 18           	clc
    4816: 69 04        	adc	#$4
    4818: 85 12        	sta	$12                     ; 0x12 <__rc2>
    481a: 8a           	txa
    481b: 69 00        	adc	#$0
    481d: a0 04        	ldy	#$4
    481f: 85 13        	sta	$13                     ; 0x13 <__rc3>
    4821: b1 14        	lda	($14),y                 ; 0x14 <__rc4>
    4823: 18           	clc
    4824: 69 02        	adc	#$2
    4826: 80 3a        	bra	$4862 <skipWhenFFCmd+0x1fd>
    4828: a6 5c        	ldx	$5c                     ; 0x5c <theOne.8>
    482a: 86 6d        	stx	$6d                     ; 0x6d <__zp_bss_size+0x32>
    482c: a6 5d        	ldx	$5d                     ; 0x5d <theOne.8+0x1>
    482e: 86 6c        	stx	$6c                     ; 0x6c <__zp_bss_size+0x31>
    4830: a2 19        	ldx	#$19
    4832: 86 12        	stx	$12                     ; 0x12 <__rc2>
    4834: 64 13        	stz	$13                     ; 0x13 <__rc3>
    4836: a2 00        	ldx	#$0
    4838: 98           	tya
    4839: 20 f6 6a     	jsr	$6af6 <__mulhi3>
    483c: 85 12        	sta	$12                     ; 0x12 <__rc2>
    483e: 86 13        	stx	$13                     ; 0x13 <__rc3>
    4840: 18           	clc
    4841: a6 6d        	ldx	$6d                     ; 0x6d <__zp_bss_size+0x32>
    4843: 8a           	txa
    4844: 65 12        	adc	$12                     ; 0x12 <__rc2>
    4846: a8           	tay
    4847: a5 6c        	lda	$6c                     ; 0x6c <__zp_bss_size+0x31>
    4849: 65 13        	adc	$13                     ; 0x13 <__rc3>
    484b: aa           	tax
    484c: 98           	tya
    484d: 84 14        	sty	$14                     ; 0x14 <__rc4>
    484f: 86 15        	stx	$15                     ; 0x15 <__rc5>
    4851: 18           	clc
    4852: 69 04        	adc	#$4
    4854: 85 12        	sta	$12                     ; 0x12 <__rc2>
    4856: 8a           	txa
    4857: 69 00        	adc	#$0
    4859: a0 04        	ldy	#$4
    485b: 85 13        	sta	$13                     ; 0x13 <__rc3>
    485d: b1 14        	lda	($14),y                 ; 0x14 <__rc4>
    485f: 18           	clc
    4860: 69 06        	adc	#$6
    4862: 91 14        	sta	($14),y                 ; 0x14 <__rc4>
    4864: a0 01        	ldy	#$1
    4866: b1 12        	lda	($12),y                 ; 0x12 <__rc2>
    4868: 69 00        	adc	#$0
    486a: 91 12        	sta	($12),y                 ; 0x12 <__rc2>
    486c: c8           	iny
    486d: b1 12        	lda	($12),y                 ; 0x12 <__rc2>
    486f: 69 00        	adc	#$0
    4871: 91 12        	sta	($12),y                 ; 0x12 <__rc2>
    4873: c8           	iny
    4874: b1 12        	lda	($12),y                 ; 0x12 <__rc2>
    4876: 69 00        	adc	#$0
    4878: 91 12        	sta	($12),y                 ; 0x12 <__rc2>
    487a: 60           	rts

0000487b <exhaustZeroes>:
    487b: 48           	pha
    487c: 18           	clc
    487d: a5 10        	lda	$10                     ; 0x10 <__rc0>
    487f: 69 f9        	adc	#$f9
    4881: 85 10        	sta	$10                     ; 0x10 <__rc0>
    4883: a5 11        	lda	$11                     ; 0x11 <__rc1>
    4885: 69 ff        	adc	#$ff
    4887: 85 11        	sta	$11                     ; 0x11 <__rc1>
    4889: 68           	pla
    488a: a6 24        	ldx	$24                     ; 0x24 <__rc20>
    488c: da           	phx
    488d: a6 25        	ldx	$25                     ; 0x25 <__rc21>
    488f: da           	phx
    4890: a6 26        	ldx	$26                     ; 0x26 <__rc22>
    4892: da           	phx
    4893: a6 27        	ldx	$27                     ; 0x27 <__rc23>
    4895: da           	phx
    4896: 48           	pha
    4897: a5 28        	lda	$28                     ; 0x28 <__rc24>
    4899: a0 01        	ldy	#$1
    489b: 91 10        	sta	($10),y                 ; 0x10 <__rc0>
    489d: a5 29        	lda	$29                     ; 0x29 <__rc25>
    489f: 88           	dey
    48a0: 91 10        	sta	($10),y                 ; 0x10 <__rc0>
    48a2: 68           	pla
    48a3: 85 24        	sta	$24                     ; 0x24 <__rc20>
    48a5: a6 5c        	ldx	$5c                     ; 0x5c <theOne.8>
    48a7: 86 26        	stx	$26                     ; 0x26 <__rc22>
    48a9: a6 5d        	ldx	$5d                     ; 0x5d <theOne.8+0x1>
    48ab: 86 25        	stx	$25                     ; 0x25 <__rc21>
    48ad: a2 19        	ldx	#$19
    48af: 86 12        	stx	$12                     ; 0x12 <__rc2>
    48b1: 64 13        	stz	$13                     ; 0x13 <__rc3>
    48b3: a2 00        	ldx	#$0
    48b5: 20 f6 6a     	jsr	$6af6 <__mulhi3>
    48b8: 85 12        	sta	$12                     ; 0x12 <__rc2>
    48ba: 86 13        	stx	$13                     ; 0x13 <__rc3>
    48bc: 18           	clc
    48bd: a5 26        	lda	$26                     ; 0x26 <__rc22>
    48bf: 65 12        	adc	$12                     ; 0x12 <__rc2>
    48c1: aa           	tax
    48c2: a5 25        	lda	$25                     ; 0x25 <__rc21>
    48c4: 65 13        	adc	$13                     ; 0x13 <__rc3>
    48c6: 86 12        	stx	$12                     ; 0x12 <__rc2>
    48c8: 85 15        	sta	$15                     ; 0x15 <__rc5>
    48ca: 85 13        	sta	$13                     ; 0x13 <__rc3>
    48cc: a0 18        	ldy	#$18
    48ce: b1 12        	lda	($12),y                 ; 0x12 <__rc2>
    48d0: f0 03        	beq	$48d5 <exhaustZeroes+0x5a>
    48d2: 4c 7d 4b     	jmp	$4b7d <exhaustZeroes+0x302>
    48d5: a0 0c        	ldy	#$c
    48d7: 18           	clc
    48d8: 8a           	txa
    48d9: 69 0c        	adc	#$c
    48db: 85 14        	sta	$14                     ; 0x14 <__rc4>
    48dd: a5 15        	lda	$15                     ; 0x15 <__rc5>
    48df: 69 00        	adc	#$0
    48e1: 85 15        	sta	$15                     ; 0x15 <__rc5>
    48e3: b1 12        	lda	($12),y                 ; 0x12 <__rc2>
    48e5: 85 12        	sta	$12                     ; 0x12 <__rc2>
    48e7: a0 01        	ldy	#$1
    48e9: b1 14        	lda	($14),y                 ; 0x14 <__rc4>
    48eb: 85 13        	sta	$13                     ; 0x13 <__rc3>
    48ed: c8           	iny
    48ee: b1 14        	lda	($14),y                 ; 0x14 <__rc4>
    48f0: 85 16        	sta	$16                     ; 0x16 <__rc6>
    48f2: c8           	iny
    48f3: b1 14        	lda	($14),y                 ; 0x14 <__rc4>
    48f5: f0 03        	beq	$48fa <exhaustZeroes+0x7f>
    48f7: 4c 7d 4b     	jmp	$4b7d <exhaustZeroes+0x302>
    48fa: a5 16        	lda	$16                     ; 0x16 <__rc6>
    48fc: f0 03        	beq	$4901 <exhaustZeroes+0x86>
    48fe: 4c 7d 4b     	jmp	$4b7d <exhaustZeroes+0x302>
    4901: a5 13        	lda	$13                     ; 0x13 <__rc3>
    4903: f0 03        	beq	$4908 <exhaustZeroes+0x8d>
    4905: 4c 7d 4b     	jmp	$4b7d <exhaustZeroes+0x302>
    4908: a5 12        	lda	$12                     ; 0x12 <__rc2>
    490a: f0 03        	beq	$490f <exhaustZeroes+0x94>
    490c: 4c 7d 4b     	jmp	$4b7d <exhaustZeroes+0x302>
    490f: a2 19        	ldx	#$19
    4911: 64 16        	stz	$16                     ; 0x16 <__rc6>
    4913: a0 00        	ldy	#$0
    4915: 84 28        	sty	$28                     ; 0x28 <__rc24>
    4917: 86 29        	stx	$29                     ; 0x29 <__rc25>
    4919: 86 12        	stx	$12                     ; 0x12 <__rc2>
    491b: 64 13        	stz	$13                     ; 0x13 <__rc3>
    491d: a2 00        	ldx	#$0
    491f: a5 24        	lda	$24                     ; 0x24 <__rc20>
    4921: 20 f6 6a     	jsr	$6af6 <__mulhi3>
    4924: 86 12        	stx	$12                     ; 0x12 <__rc2>
    4926: a6 28        	ldx	$28                     ; 0x28 <__rc24>
    4928: e0 01        	cpx	#$1
    492a: 65 26        	adc	$26                     ; 0x26 <__rc22>
    492c: 85 14        	sta	$14                     ; 0x14 <__rc4>
    492e: a5 25        	lda	$25                     ; 0x25 <__rc21>
    4930: 65 12        	adc	$12                     ; 0x12 <__rc2>
    4932: 85 15        	sta	$15                     ; 0x15 <__rc5>
    4934: a0 10        	ldy	#$10
    4936: b1 14        	lda	($14),y                 ; 0x14 <__rc4>
    4938: aa           	tax
    4939: c8           	iny
    493a: b1 14        	lda	($14),y                 ; 0x14 <__rc4>
    493c: 85 13        	sta	$13                     ; 0x13 <__rc3>
    493e: e0 ff        	cpx	#$ff
    4940: f0 26        	beq	$4968 <exhaustZeroes+0xed>
    4942: a0 12        	ldy	#$12
    4944: b1 14        	lda	($14),y                 ; 0x14 <__rc4>
    4946: 85 16        	sta	$16                     ; 0x16 <__rc6>
    4948: a0 17        	ldy	#$17
    494a: b1 14        	lda	($14),y                 ; 0x14 <__rc4>
    494c: 85 14        	sta	$14                     ; 0x14 <__rc4>
    494e: 8a           	txa
    494f: a8           	tay
    4950: 29 f0        	and	#$f0
    4952: c9 90        	cmp	#$90
    4954: f0 2b        	beq	$4981 <exhaustZeroes+0x106>
    4956: a6 29        	ldx	$29                     ; 0x29 <__rc25>
    4958: 86 12        	stx	$12                     ; 0x12 <__rc2>
    495a: c9 c0        	cmp	#$c0
    495c: d0 31        	bne	$498f <exhaustZeroes+0x114>
    495e: 8c b1 dd     	sty	$ddb1                   ; 0xddb1 <__heap_start+0x5b21>
    4961: a6 13        	ldx	$13                     ; 0x13 <__rc3>
    4963: 8e b1 dd     	stx	$ddb1                   ; 0xddb1 <__heap_start+0x5b21>
    4966: 80 27        	bra	$498f <exhaustZeroes+0x114>
    4968: aa           	tax
    4969: e0 51        	cpx	#$51
    496b: f0 39        	beq	$49a6 <exhaustZeroes+0x12b>
    496d: a4 29        	ldy	$29                     ; 0x29 <__rc25>
    496f: 84 12        	sty	$12                     ; 0x12 <__rc2>
    4971: e0 2f        	cpx	#$2f
    4973: f0 03        	beq	$4978 <exhaustZeroes+0xfd>
    4975: 4c 1c 4a     	jmp	$4a1c <exhaustZeroes+0x1a1>
    4978: a9 01        	lda	#$1
    497a: a0 18        	ldy	#$18
    497c: 91 14        	sta	($14),y                 ; 0x14 <__rc4>
    497e: 4c 1c 4a     	jmp	$4a1c <exhaustZeroes+0x1a1>
    4981: a5 49        	lda	$49                     ; 0x49 <doneWithFudge>
    4983: 29 01        	and	#$1
    4985: a6 29        	ldx	$29                     ; 0x29 <__rc25>
    4987: 86 12        	stx	$12                     ; 0x12 <__rc2>
    4989: aa           	tax
    498a: d0 03        	bne	$498f <exhaustZeroes+0x114>
    498c: 4c 12 4a     	jmp	$4a12 <exhaustZeroes+0x197>
    498f: 8c a1 dd     	sty	$dda1                   ; 0xdda1 <__heap_start+0x5b11>
    4992: a6 13        	ldx	$13                     ; 0x13 <__rc3>
    4994: 8e a1 dd     	stx	$dda1                   ; 0xdda1 <__heap_start+0x5b11>
    4997: a5 14        	lda	$14                     ; 0x14 <__rc4>
    4999: f0 03        	beq	$499e <exhaustZeroes+0x123>
    499b: 4c 1c 4a     	jmp	$4a1c <exhaustZeroes+0x1a1>
    499e: a6 16        	ldx	$16                     ; 0x16 <__rc6>
    49a0: 8e a1 dd     	stx	$dda1                   ; 0xdda1 <__heap_start+0x5b11>
    49a3: 4c 1c 4a     	jmp	$4a1c <exhaustZeroes+0x1a1>
    49a6: a0 13        	ldy	#$13
    49a8: b1 14        	lda	($14),y                 ; 0x14 <__rc4>
    49aa: 85 12        	sta	$12                     ; 0x12 <__rc2>
    49ac: c8           	iny
    49ad: b1 14        	lda	($14),y                 ; 0x14 <__rc4>
    49af: 85 19        	sta	$19                     ; 0x19 <__rc9>
    49b1: c8           	iny
    49b2: b1 14        	lda	($14),y                 ; 0x14 <__rc4>
    49b4: a6 4d        	ldx	$4d                     ; 0x4d <theOne.1>
    49b6: a4 4e        	ldy	$4e                     ; 0x4e <theOne.1+0x1>
    49b8: 64 13        	stz	$13                     ; 0x13 <__rc3>
    49ba: 86 14        	stx	$14                     ; 0x14 <__rc4>
    49bc: 84 15        	sty	$15                     ; 0x15 <__rc5>
    49be: 64 16        	stz	$16                     ; 0x16 <__rc6>
    49c0: 64 17        	stz	$17                     ; 0x17 <__rc7>
    49c2: a6 19        	ldx	$19                     ; 0x19 <__rc9>
    49c4: 20 97 69     	jsr	$6997 <__udivsi3>
    49c7: 86 14        	stx	$14                     ; 0x14 <__rc4>
    49c9: 0a           	asl
    49ca: 26 14        	rol	$14                     ; 0x14 <__rc4>
    49cc: 26 12        	rol	$12                     ; 0x12 <__rc2>
    49ce: 26 13        	rol	$13                     ; 0x13 <__rc3>
    49d0: 0a           	asl
    49d1: 85 15        	sta	$15                     ; 0x15 <__rc5>
    49d3: 26 14        	rol	$14                     ; 0x14 <__rc4>
    49d5: 26 12        	rol	$12                     ; 0x12 <__rc2>
    49d7: 26 13        	rol	$13                     ; 0x13 <__rc3>
    49d9: 0a           	asl
    49da: aa           	tax
    49db: a5 14        	lda	$14                     ; 0x14 <__rc4>
    49dd: 2a           	rol
    49de: a8           	tay
    49df: a5 12        	lda	$12                     ; 0x12 <__rc2>
    49e1: 2a           	rol
    49e2: 85 16        	sta	$16                     ; 0x16 <__rc6>
    49e4: a5 13        	lda	$13                     ; 0x13 <__rc3>
    49e6: 2a           	rol
    49e7: 85 17        	sta	$17                     ; 0x17 <__rc7>
    49e9: 18           	clc
    49ea: 8a           	txa
    49eb: 65 15        	adc	$15                     ; 0x15 <__rc5>
    49ed: 85 15        	sta	$15                     ; 0x15 <__rc5>
    49ef: 98           	tya
    49f0: 65 14        	adc	$14                     ; 0x14 <__rc4>
    49f2: 85 14        	sta	$14                     ; 0x14 <__rc4>
    49f4: a5 16        	lda	$16                     ; 0x16 <__rc6>
    49f6: 65 12        	adc	$12                     ; 0x12 <__rc2>
    49f8: 85 12        	sta	$12                     ; 0x12 <__rc2>
    49fa: a5 17        	lda	$17                     ; 0x17 <__rc7>
    49fc: 65 13        	adc	$13                     ; 0x13 <__rc3>
    49fe: a6 15        	ldx	$15                     ; 0x15 <__rc5>
    4a00: 86 4f        	stx	$4f                     ; 0x4f <theOne.2>
    4a02: a6 14        	ldx	$14                     ; 0x14 <__rc4>
    4a04: 86 50        	stx	$50                     ; 0x50 <theOne.2+0x1>
    4a06: a6 12        	ldx	$12                     ; 0x12 <__rc2>
    4a08: 86 51        	stx	$51                     ; 0x51 <theOne.2+0x2>
    4a0a: 85 52        	sta	$52                     ; 0x52 <theOne.2+0x3>
    4a0c: a6 29        	ldx	$29                     ; 0x29 <__rc25>
    4a0e: 86 12        	stx	$12                     ; 0x12 <__rc2>
    4a10: 80 0a        	bra	$4a1c <exhaustZeroes+0x1a1>
    4a12: a6 4a        	ldx	$4a                     ; 0x4a <fudge>
    4a14: e6 4a        	inc	$4a                     ; 0x4a <fudge>
    4a16: 8a           	txa
    4a17: f0 03        	beq	$4a1c <exhaustZeroes+0x1a1>
    4a19: 4c a2 4b     	jmp	$4ba2 <exhaustZeroes+0x327>
    4a1c: a6 5c        	ldx	$5c                     ; 0x5c <theOne.8>
    4a1e: 86 26        	stx	$26                     ; 0x26 <__rc22>
    4a20: a6 5d        	ldx	$5d                     ; 0x5d <theOne.8+0x1>
    4a22: 86 25        	stx	$25                     ; 0x25 <__rc21>
    4a24: 64 13        	stz	$13                     ; 0x13 <__rc3>
    4a26: a2 00        	ldx	#$0
    4a28: a5 24        	lda	$24                     ; 0x24 <__rc20>
    4a2a: 20 f6 6a     	jsr	$6af6 <__mulhi3>
    4a2d: 85 12        	sta	$12                     ; 0x12 <__rc2>
    4a2f: 86 13        	stx	$13                     ; 0x13 <__rc3>
    4a31: 18           	clc
    4a32: a5 26        	lda	$26                     ; 0x26 <__rc22>
    4a34: 65 12        	adc	$12                     ; 0x12 <__rc2>
    4a36: a8           	tay
    4a37: a5 25        	lda	$25                     ; 0x25 <__rc21>
    4a39: 65 13        	adc	$13                     ; 0x13 <__rc3>
    4a3b: aa           	tax
    4a3c: 98           	tya
    4a3d: 84 12        	sty	$12                     ; 0x12 <__rc2>
    4a3f: 86 13        	stx	$13                     ; 0x13 <__rc3>
    4a41: 18           	clc
    4a42: 69 04        	adc	#$4
    4a44: 85 14        	sta	$14                     ; 0x14 <__rc4>
    4a46: 8a           	txa
    4a47: 69 00        	adc	#$0
    4a49: 85 15        	sta	$15                     ; 0x15 <__rc5>
    4a4b: a0 03        	ldy	#$3
    4a4d: b1 14        	lda	($14),y                 ; 0x14 <__rc4>
    4a4f: d1 12        	cmp	($12),y                 ; 0x12 <__rc2>
    4a51: d0 2d        	bne	$4a80 <exhaustZeroes+0x205>
    4a53: a0 02        	ldy	#$2
    4a55: b1 14        	lda	($14),y                 ; 0x14 <__rc4>
    4a57: aa           	tax
    4a58: b1 12        	lda	($12),y                 ; 0x12 <__rc2>
    4a5a: 85 16        	sta	$16                     ; 0x16 <__rc6>
    4a5c: e4 16        	cpx	$16                     ; 0x16 <__rc6>
    4a5e: d0 27        	bne	$4a87 <exhaustZeroes+0x20c>
    4a60: a0 01        	ldy	#$1
    4a62: b1 14        	lda	($14),y                 ; 0x14 <__rc4>
    4a64: aa           	tax
    4a65: b1 12        	lda	($12),y                 ; 0x12 <__rc2>
    4a67: 85 14        	sta	$14                     ; 0x14 <__rc4>
    4a69: e4 14        	cpx	$14                     ; 0x14 <__rc4>
    4a6b: d0 0c        	bne	$4a79 <exhaustZeroes+0x1fe>
    4a6d: a0 04        	ldy	#$4
    4a6f: b1 12        	lda	($12),y                 ; 0x12 <__rc2>
    4a71: 85 15        	sta	$15                     ; 0x15 <__rc5>
    4a73: b2 12        	lda	($12)                   ; 0x12 <__rc2>
    4a75: 85 14        	sta	$14                     ; 0x14 <__rc4>
    4a77: a6 15        	ldx	$15                     ; 0x15 <__rc5>
    4a79: e4 14        	cpx	$14                     ; 0x14 <__rc4>
    4a7b: 90 11        	bcc	$4a8e <exhaustZeroes+0x213>
    4a7d: 4c 71 4b     	jmp	$4b71 <exhaustZeroes+0x2f6>
    4a80: d1 12        	cmp	($12),y                 ; 0x12 <__rc2>
    4a82: 90 0a        	bcc	$4a8e <exhaustZeroes+0x213>
    4a84: 4c 71 4b     	jmp	$4b71 <exhaustZeroes+0x2f6>
    4a87: e4 16        	cpx	$16                     ; 0x16 <__rc6>
    4a89: 90 03        	bcc	$4a8e <exhaustZeroes+0x213>
    4a8b: 4c 71 4b     	jmp	$4b71 <exhaustZeroes+0x2f6>
    4a8e: a5 24        	lda	$24                     ; 0x24 <__rc20>
    4a90: 20 df 3b     	jsr	$3bdf <readDelta>
    4a93: a0 03        	ldy	#$3
    4a95: 91 10        	sta	($10),y                 ; 0x10 <__rc0>
    4a97: 8a           	txa
    4a98: a0 06        	ldy	#$6
    4a9a: 91 10        	sta	($10),y                 ; 0x10 <__rc0>
    4a9c: a5 12        	lda	$12                     ; 0x12 <__rc2>
    4a9e: 88           	dey
    4a9f: 91 10        	sta	($10),y                 ; 0x10 <__rc0>
    4aa1: a5 13        	lda	$13                     ; 0x13 <__rc3>
    4aa3: 88           	dey
    4aa4: 91 10        	sta	($10),y                 ; 0x10 <__rc0>
    4aa6: a6 5c        	ldx	$5c                     ; 0x5c <theOne.8>
    4aa8: 86 27        	stx	$27                     ; 0x27 <__rc23>
    4aaa: a6 5d        	ldx	$5d                     ; 0x5d <theOne.8+0x1>
    4aac: 86 26        	stx	$26                     ; 0x26 <__rc22>
    4aae: a6 29        	ldx	$29                     ; 0x29 <__rc25>
    4ab0: 86 12        	stx	$12                     ; 0x12 <__rc2>
    4ab2: 64 13        	stz	$13                     ; 0x13 <__rc3>
    4ab4: a2 00        	ldx	#$0
    4ab6: a5 24        	lda	$24                     ; 0x24 <__rc20>
    4ab8: 20 f6 6a     	jsr	$6af6 <__mulhi3>
    4abb: 85 25        	sta	$25                     ; 0x25 <__rc21>
    4abd: 86 13        	stx	$13                     ; 0x13 <__rc3>
    4abf: 48           	pha
    4ac0: 8a           	txa
    4ac1: a0 02        	ldy	#$2
    4ac3: 91 10        	sta	($10),y                 ; 0x10 <__rc0>
    4ac5: 68           	pla
    4ac6: 85 12        	sta	$12                     ; 0x12 <__rc2>
    4ac8: 18           	clc
    4ac9: a2 00        	ldx	#$0
    4acb: 86 28        	stx	$28                     ; 0x28 <__rc24>
    4acd: a5 27        	lda	$27                     ; 0x27 <__rc23>
    4acf: 65 12        	adc	$12                     ; 0x12 <__rc2>
    4ad1: a8           	tay
    4ad2: a5 26        	lda	$26                     ; 0x26 <__rc22>
    4ad4: 65 13        	adc	$13                     ; 0x13 <__rc3>
    4ad6: aa           	tax
    4ad7: 98           	tya
    4ad8: 84 12        	sty	$12                     ; 0x12 <__rc2>
    4ada: 86 13        	stx	$13                     ; 0x13 <__rc3>
    4adc: 18           	clc
    4add: 69 0c        	adc	#$c
    4adf: 85 14        	sta	$14                     ; 0x14 <__rc4>
    4ae1: 8a           	txa
    4ae2: 69 00        	adc	#$0
    4ae4: 85 15        	sta	$15                     ; 0x15 <__rc5>
    4ae6: a0 0c        	ldy	#$c
    4ae8: 5a           	phy
    4ae9: a0 03        	ldy	#$3
    4aeb: b1 10        	lda	($10),y                 ; 0x10 <__rc0>
    4aed: 7a           	ply
    4aee: 91 12        	sta	($12),y                 ; 0x12 <__rc2>
    4af0: a0 01        	ldy	#$1
    4af2: 5a           	phy
    4af3: a0 06        	ldy	#$6
    4af5: b1 10        	lda	($10),y                 ; 0x10 <__rc0>
    4af7: 7a           	ply
    4af8: 91 14        	sta	($14),y                 ; 0x14 <__rc4>
    4afa: a0 02        	ldy	#$2
    4afc: 5a           	phy
    4afd: a0 05        	ldy	#$5
    4aff: b1 10        	lda	($10),y                 ; 0x10 <__rc0>
    4b01: 7a           	ply
    4b02: 91 14        	sta	($14),y                 ; 0x14 <__rc4>
    4b04: a0 03        	ldy	#$3
    4b06: 5a           	phy
    4b07: c8           	iny
    4b08: b1 10        	lda	($10),y                 ; 0x10 <__rc0>
    4b0a: 7a           	ply
    4b0b: 91 14        	sta	($14),y                 ; 0x14 <__rc4>
    4b0d: a5 24        	lda	$24                     ; 0x24 <__rc20>
    4b0f: 20 a0 40     	jsr	$40a0 <readMIDICmd>
    4b12: 64 16        	stz	$16                     ; 0x16 <__rc6>
    4b14: a6 5c        	ldx	$5c                     ; 0x5c <theOne.8>
    4b16: a4 5d        	ldy	$5d                     ; 0x5d <theOne.8+0x1>
    4b18: 84 17        	sty	$17                     ; 0x17 <__rc7>
    4b1a: 18           	clc
    4b1b: a5 25        	lda	$25                     ; 0x25 <__rc21>
    4b1d: 65 5c        	adc	$5c                     ; 0x5c <theOne.8>
    4b1f: 85 14        	sta	$14                     ; 0x14 <__rc4>
    4b21: a0 02        	ldy	#$2
    4b23: b1 10        	lda	($10),y                 ; 0x10 <__rc0>
    4b25: 65 5d        	adc	$5d                     ; 0x5d <theOne.8+0x1>
    4b27: a8           	tay
    4b28: a5 14        	lda	$14                     ; 0x14 <__rc4>
    4b2a: 85 12        	sta	$12                     ; 0x12 <__rc2>
    4b2c: 84 15        	sty	$15                     ; 0x15 <__rc5>
    4b2e: 84 13        	sty	$13                     ; 0x13 <__rc3>
    4b30: a0 18        	ldy	#$18
    4b32: b1 12        	lda	($12),y                 ; 0x12 <__rc2>
    4b34: d0 47        	bne	$4b7d <exhaustZeroes+0x302>
    4b36: 86 26        	stx	$26                     ; 0x26 <__rc22>
    4b38: a6 17        	ldx	$17                     ; 0x17 <__rc7>
    4b3a: 86 25        	stx	$25                     ; 0x25 <__rc21>
    4b3c: 18           	clc
    4b3d: a5 14        	lda	$14                     ; 0x14 <__rc4>
    4b3f: 69 0c        	adc	#$c
    4b41: 85 14        	sta	$14                     ; 0x14 <__rc4>
    4b43: a5 15        	lda	$15                     ; 0x15 <__rc5>
    4b45: 69 00        	adc	#$0
    4b47: 85 15        	sta	$15                     ; 0x15 <__rc5>
    4b49: a0 0c        	ldy	#$c
    4b4b: b1 12        	lda	($12),y                 ; 0x12 <__rc2>
    4b4d: 85 12        	sta	$12                     ; 0x12 <__rc2>
    4b4f: a0 01        	ldy	#$1
    4b51: b1 14        	lda	($14),y                 ; 0x14 <__rc4>
    4b53: 85 13        	sta	$13                     ; 0x13 <__rc3>
    4b55: c8           	iny
    4b56: b1 14        	lda	($14),y                 ; 0x14 <__rc4>
    4b58: 85 17        	sta	$17                     ; 0x17 <__rc7>
    4b5a: c8           	iny
    4b5b: b1 14        	lda	($14),y                 ; 0x14 <__rc4>
    4b5d: a6 29        	ldx	$29                     ; 0x29 <__rc25>
    4b5f: a8           	tay
    4b60: d0 1b        	bne	$4b7d <exhaustZeroes+0x302>
    4b62: a5 17        	lda	$17                     ; 0x17 <__rc7>
    4b64: d0 17        	bne	$4b7d <exhaustZeroes+0x302>
    4b66: a5 13        	lda	$13                     ; 0x13 <__rc3>
    4b68: d0 13        	bne	$4b7d <exhaustZeroes+0x302>
    4b6a: a5 12        	lda	$12                     ; 0x12 <__rc2>
    4b6c: d0 0f        	bne	$4b7d <exhaustZeroes+0x302>
    4b6e: 4c 17 49     	jmp	$4917 <exhaustZeroes+0x9c>
    4b71: a0 18        	ldy	#$18
    4b73: a9 01        	lda	#$1
    4b75: 91 12        	sta	($12),y                 ; 0x12 <__rc2>
    4b77: e6 5a        	inc	$5a                     ; 0x5a <theOne.7>
    4b79: d0 02        	bne	$4b7d <exhaustZeroes+0x302>
    4b7b: e6 5b        	inc	$5b                     ; 0x5b <theOne.7+0x1>
    4b7d: a0 00        	ldy	#$0
    4b7f: b1 10        	lda	($10),y                 ; 0x10 <__rc0>
    4b81: 85 29        	sta	$29                     ; 0x29 <__rc25>
    4b83: c8           	iny
    4b84: b1 10        	lda	($10),y                 ; 0x10 <__rc0>
    4b86: 85 28        	sta	$28                     ; 0x28 <__rc24>
    4b88: fa           	plx
    4b89: 86 27        	stx	$27                     ; 0x27 <__rc23>
    4b8b: fa           	plx
    4b8c: 86 26        	stx	$26                     ; 0x26 <__rc22>
    4b8e: fa           	plx
    4b8f: 86 25        	stx	$25                     ; 0x25 <__rc21>
    4b91: fa           	plx
    4b92: 86 24        	stx	$24                     ; 0x24 <__rc20>
    4b94: 18           	clc
    4b95: a5 10        	lda	$10                     ; 0x10 <__rc0>
    4b97: 69 07        	adc	#$7
    4b99: 85 10        	sta	$10                     ; 0x10 <__rc0>
    4b9b: a5 11        	lda	$11                     ; 0x11 <__rc1>
    4b9d: 69 00        	adc	#$0
    4b9f: 85 11        	sta	$11                     ; 0x11 <__rc1>
    4ba1: 60           	rts
    4ba2: a2 01        	ldx	#$1
    4ba4: 86 49        	stx	$49                     ; 0x49 <doneWithFudge>
    4ba6: 4c 8f 49     	jmp	$498f <exhaustZeroes+0x114>

00004ba9 <initTrack>:
    4ba9: 18           	clc
    4baa: a5 10        	lda	$10                     ; 0x10 <__rc0>
    4bac: 69 f9        	adc	#$f9
    4bae: 85 10        	sta	$10                     ; 0x10 <__rc0>
    4bb0: a5 11        	lda	$11                     ; 0x11 <__rc1>
    4bb2: 69 ff        	adc	#$ff
    4bb4: 85 11        	sta	$11                     ; 0x11 <__rc1>
    4bb6: a6 24        	ldx	$24                     ; 0x24 <__rc20>
    4bb8: da           	phx
    4bb9: a6 25        	ldx	$25                     ; 0x25 <__rc21>
    4bbb: da           	phx
    4bbc: a6 26        	ldx	$26                     ; 0x26 <__rc22>
    4bbe: da           	phx
    4bbf: a6 27        	ldx	$27                     ; 0x27 <__rc23>
    4bc1: da           	phx
    4bc2: a5 28        	lda	$28                     ; 0x28 <__rc24>
    4bc4: a0 02        	ldy	#$2
    4bc6: 91 10        	sta	($10),y                 ; 0x10 <__rc0>
    4bc8: a5 29        	lda	$29                     ; 0x29 <__rc25>
    4bca: 88           	dey
    4bcb: 91 10        	sta	($10),y                 ; 0x10 <__rc0>
    4bcd: a5 2a        	lda	$2a                     ; 0x2a <__rc26>
    4bcf: 88           	dey
    4bd0: 91 10        	sta	($10),y                 ; 0x10 <__rc0>
    4bd2: a4 0f        	ldy	$f                      ; 0xf <__zp_data_size+0xe>
    4bd4: 78           	sei
    4bd5: a9 18        	lda	#$18
    4bd7: 85 0f        	sta	$f                      ; 0xf <__zp_data_size+0xe>
    4bd9: ae 0a e0     	ldx	$e00a                   ; 0xe00a <__heap_start+0x5d7a>
    4bdc: 84 0f        	sty	$f                      ; 0xf <__zp_data_size+0xe>
    4bde: 58           	cli
    4bdf: a4 0f        	ldy	$f                      ; 0xf <__zp_data_size+0xe>
    4be1: 78           	sei
    4be2: 85 0f        	sta	$f                      ; 0xf <__zp_data_size+0xe>
    4be4: 85 24        	sta	$24                     ; 0x24 <__rc20>
    4be6: ad 0b e0     	lda	$e00b                   ; 0xe00b <__heap_start+0x5d7b>
    4be9: 84 0f        	sty	$f                      ; 0xf <__zp_data_size+0xe>
    4beb: 58           	cli
    4bec: 85 4b        	sta	$4b                     ; 0x4b <theOne.0>
    4bee: 86 4c        	stx	$4c                     ; 0x4c <theOne.0+0x1>
    4bf0: a0 19        	ldy	#$19
    4bf2: 64 13        	stz	$13                     ; 0x13 <__rc3>
    4bf4: 84 12        	sty	$12                     ; 0x12 <__rc2>
    4bf6: 20 f6 6a     	jsr	$6af6 <__mulhi3>
    4bf9: 20 69 67     	jsr	$6769 <malloc>
    4bfc: a6 12        	ldx	$12                     ; 0x12 <__rc2>
    4bfe: a4 13        	ldy	$13                     ; 0x13 <__rc3>
    4c00: 86 5c        	stx	$5c                     ; 0x5c <theOne.8>
    4c02: 84 5d        	sty	$5d                     ; 0x5d <theOne.8+0x1>
    4c04: 64 53        	stz	$53                     ; 0x53 <theOne.4>
    4c06: a2 20        	ldx	#$20
    4c08: 86 4f        	stx	$4f                     ; 0x4f <theOne.2>
    4c0a: a2 a1        	ldx	#$a1
    4c0c: 86 50        	stx	$50                     ; 0x50 <theOne.2+0x1>
    4c0e: a2 07        	ldx	#$7
    4c10: 86 51        	stx	$51                     ; 0x51 <theOne.2+0x2>
    4c12: 64 52        	stz	$52                     ; 0x52 <theOne.2+0x3>
    4c14: a2 ff        	ldx	#$ff
    4c16: 86 54        	stx	$54                     ; 0x54 <theOne.5>
    4c18: 86 55        	stx	$55                     ; 0x55 <theOne.5+0x1>
    4c1a: 86 56        	stx	$56                     ; 0x56 <theOne.5+0x2>
    4c1c: 86 57        	stx	$57                     ; 0x57 <theOne.5+0x3>
    4c1e: 64 58        	stz	$58                     ; 0x58 <theOne.6>
    4c20: 64 59        	stz	$59                     ; 0x59 <theOne.6+0x1>
    4c22: a2 30        	ldx	#$30
    4c24: 86 4d        	stx	$4d                     ; 0x4d <theOne.1>
    4c26: 64 4e        	stz	$4e                     ; 0x4e <theOne.1+0x1>
    4c28: 64 5a        	stz	$5a                     ; 0x5a <theOne.7>
    4c2a: 64 5b        	stz	$5b                     ; 0x5b <theOne.7+0x1>
    4c2c: a4 0f        	ldy	$f                      ; 0xf <__zp_data_size+0xe>
    4c2e: 78           	sei
    4c2f: a6 24        	ldx	$24                     ; 0x24 <__rc20>
    4c31: 86 0f        	stx	$f                      ; 0xf <__zp_data_size+0xe>
    4c33: ae 0c e0     	ldx	$e00c                   ; 0xe00c <__heap_start+0x5d7c>
    4c36: 84 0f        	sty	$f                      ; 0xf <__zp_data_size+0xe>
    4c38: 58           	cli
    4c39: a4 0f        	ldy	$f                      ; 0xf <__zp_data_size+0xe>
    4c3b: 78           	sei
    4c3c: a9 18        	lda	#$18
    4c3e: 85 12        	sta	$12                     ; 0x12 <__rc2>
    4c40: a5 24        	lda	$24                     ; 0x24 <__rc20>
    4c42: 85 0f        	sta	$f                      ; 0xf <__zp_data_size+0xe>
    4c44: ad 0d e0     	lda	$e00d                   ; 0xe00d <__heap_start+0x5d7d>
    4c47: 84 0f        	sty	$f                      ; 0xf <__zp_data_size+0xe>
    4c49: 58           	cli
    4c4a: 85 4d        	sta	$4d                     ; 0x4d <theOne.1>
    4c4c: 86 4e        	stx	$4e                     ; 0x4e <theOne.1+0x1>
    4c4e: a6 4b        	ldx	$4b                     ; 0x4b <theOne.0>
    4c50: a5 4c        	lda	$4c                     ; 0x4c <theOne.0+0x1>
    4c52: d0 07        	bne	$4c5b <initTrack+0xb2>
    4c54: e0 00        	cpx	#$0
    4c56: d0 03        	bne	$4c5b <initTrack+0xb2>
    4c58: 4c 63 50     	jmp	$5063 <initTrack+0x4ba>
    4c5b: a4 5c        	ldy	$5c                     ; 0x5c <theOne.8>
    4c5d: 84 24        	sty	$24                     ; 0x24 <__rc20>
    4c5f: a4 5d        	ldy	$5d                     ; 0x5d <theOne.8+0x1>
    4c61: 84 25        	sty	$25                     ; 0x25 <__rc21>
    4c63: a0 17        	ldy	#$17
    4c65: 84 15        	sty	$15                     ; 0x15 <__rc5>
    4c67: 86 26        	stx	$26                     ; 0x26 <__rc22>
    4c69: 85 27        	sta	$27                     ; 0x27 <__rc23>
    4c6b: a6 12        	ldx	$12                     ; 0x12 <__rc2>
    4c6d: 86 28        	stx	$28                     ; 0x28 <__rc24>
    4c6f: 80 06        	bra	$4c77 <initTrack+0xce>
    4c71: 85 25        	sta	$25                     ; 0x25 <__rc21>
    4c73: a5 27        	lda	$27                     ; 0x27 <__rc23>
    4c75: f0 3b        	beq	$4cb2 <initTrack+0x109>
    4c77: a6 24        	ldx	$24                     ; 0x24 <__rc20>
    4c79: 86 12        	stx	$12                     ; 0x12 <__rc2>
    4c7b: a6 25        	ldx	$25                     ; 0x25 <__rc21>
    4c7d: 86 13        	stx	$13                     ; 0x13 <__rc3>
    4c7f: 64 14        	stz	$14                     ; 0x14 <__rc4>
    4c81: a9 00        	lda	#$0
    4c83: a6 15        	ldx	$15                     ; 0x15 <__rc5>
    4c85: a4 15        	ldy	$15                     ; 0x15 <__rc5>
    4c87: 84 29        	sty	$29                     ; 0x29 <__rc25>
    4c89: 20 77 69     	jsr	$6977 <__memset>
    4c8c: a2 17        	ldx	#$17
    4c8e: 86 15        	stx	$15                     ; 0x15 <__rc5>
    4c90: a9 01        	lda	#$1
    4c92: a4 29        	ldy	$29                     ; 0x29 <__rc25>
    4c94: 91 24        	sta	($24),y                 ; 0x24 <__rc20>
    4c96: a4 28        	ldy	$28                     ; 0x28 <__rc24>
    4c98: 3a           	dec
    4c99: 91 24        	sta	($24),y                 ; 0x24 <__rc20>
    4c9b: a5 24        	lda	$24                     ; 0x24 <__rc20>
    4c9d: 18           	clc
    4c9e: 69 19        	adc	#$19
    4ca0: 85 24        	sta	$24                     ; 0x24 <__rc20>
    4ca2: a5 25        	lda	$25                     ; 0x25 <__rc21>
    4ca4: 69 00        	adc	#$0
    4ca6: a2 ff        	ldx	#$ff
    4ca8: c6 26        	dec	$26                     ; 0x26 <__rc22>
    4caa: e4 26        	cpx	$26                     ; 0x26 <__rc22>
    4cac: d0 c3        	bne	$4c71 <initTrack+0xc8>
    4cae: c6 27        	dec	$27                     ; 0x27 <__rc23>
    4cb0: 80 bf        	bra	$4c71 <initTrack+0xc8>
    4cb2: a5 26        	lda	$26                     ; 0x26 <__rc22>
    4cb4: d0 c1        	bne	$4c77 <initTrack+0xce>
    4cb6: a2 0e        	ldx	#$e
    4cb8: 86 16        	stx	$16                     ; 0x16 <__rc6>
    4cba: 64 18        	stz	$18                     ; 0x18 <__rc8>
    4cbc: a2 08        	ldx	#$8
    4cbe: 86 19        	stx	$19                     ; 0x19 <__rc9>
    4cc0: 64 15        	stz	$15                     ; 0x15 <__rc5>
    4cc2: 64 14        	stz	$14                     ; 0x14 <__rc4>
    4cc4: a9 00        	lda	#$0
    4cc6: aa           	tax
    4cc7: 64 27        	stz	$27                     ; 0x27 <__rc23>
    4cc9: 85 12        	sta	$12                     ; 0x12 <__rc2>
    4ccb: a4 14        	ldy	$14                     ; 0x14 <__rc4>
    4ccd: 84 13        	sty	$13                     ; 0x13 <__rc3>
    4ccf: a4 15        	ldy	$15                     ; 0x15 <__rc5>
    4cd1: 84 14        	sty	$14                     ; 0x14 <__rc4>
    4cd3: a4 16        	ldy	$16                     ; 0x16 <__rc6>
    4cd5: 84 15        	sty	$15                     ; 0x15 <__rc5>
    4cd7: a5 16        	lda	$16                     ; 0x16 <__rc6>
    4cd9: 18           	clc
    4cda: 69 04        	adc	#$4
    4cdc: 85 17        	sta	$17                     ; 0x17 <__rc7>
    4cde: a5 14        	lda	$14                     ; 0x14 <__rc4>
    4ce0: 69 00        	adc	#$0
    4ce2: 85 1b        	sta	$1b                     ; 0x1b <__rc11>
    4ce4: a5 13        	lda	$13                     ; 0x13 <__rc3>
    4ce6: 69 03        	adc	#$3
    4ce8: a4 1b        	ldy	$1b                     ; 0x1b <__rc11>
    4cea: 84 16        	sty	$16                     ; 0x16 <__rc6>
    4cec: 06 16        	asl	$16                     ; 0x16 <__rc6>
    4cee: 2a           	rol
    4cef: 06 16        	asl	$16                     ; 0x16 <__rc6>
    4cf1: 2a           	rol
    4cf2: 06 16        	asl	$16                     ; 0x16 <__rc6>
    4cf4: 2a           	rol
    4cf5: 86 1a        	stx	$1a                     ; 0x1a <__rc10>
    4cf7: a6 0f        	ldx	$f                      ; 0xf <__zp_data_size+0xe>
    4cf9: 78           	sei
    4cfa: 85 0f        	sta	$f                      ; 0xf <__zp_data_size+0xe>
    4cfc: a5 1b        	lda	$1b                     ; 0x1b <__rc11>
    4cfe: 09 e0        	ora	#$e0
    4d00: a4 17        	ldy	$17                     ; 0x17 <__rc7>
    4d02: 84 16        	sty	$16                     ; 0x16 <__rc6>
    4d04: 85 17        	sta	$17                     ; 0x17 <__rc7>
    4d06: b2 16        	lda	($16)                   ; 0x16 <__rc6>
    4d08: 85 1c        	sta	$1c                     ; 0x1c <__rc12>
    4d0a: 86 0f        	stx	$f                      ; 0xf <__zp_data_size+0xe>
    4d0c: a5 15        	lda	$15                     ; 0x15 <__rc5>
    4d0e: 18           	clc
    4d0f: 69 05        	adc	#$5
    4d11: 85 17        	sta	$17                     ; 0x17 <__rc7>
    4d13: a5 14        	lda	$14                     ; 0x14 <__rc4>
    4d15: 69 00        	adc	#$0
    4d17: 85 1b        	sta	$1b                     ; 0x1b <__rc11>
    4d19: a5 13        	lda	$13                     ; 0x13 <__rc3>
    4d1b: 69 03        	adc	#$3
    4d1d: a6 1b        	ldx	$1b                     ; 0x1b <__rc11>
    4d1f: 86 16        	stx	$16                     ; 0x16 <__rc6>
    4d21: 06 16        	asl	$16                     ; 0x16 <__rc6>
    4d23: 2a           	rol
    4d24: 06 16        	asl	$16                     ; 0x16 <__rc6>
    4d26: 2a           	rol
    4d27: 06 16        	asl	$16                     ; 0x16 <__rc6>
    4d29: 2a           	rol
    4d2a: 58           	cli
    4d2b: a6 0f        	ldx	$f                      ; 0xf <__zp_data_size+0xe>
    4d2d: 78           	sei
    4d2e: 85 0f        	sta	$f                      ; 0xf <__zp_data_size+0xe>
    4d30: a5 1b        	lda	$1b                     ; 0x1b <__rc11>
    4d32: 09 e0        	ora	#$e0
    4d34: a4 17        	ldy	$17                     ; 0x17 <__rc7>
    4d36: 84 16        	sty	$16                     ; 0x16 <__rc6>
    4d38: 85 17        	sta	$17                     ; 0x17 <__rc7>
    4d3a: b2 16        	lda	($16)                   ; 0x16 <__rc6>
    4d3c: 85 1d        	sta	$1d                     ; 0x1d <__rc13>
    4d3e: 86 0f        	stx	$f                      ; 0xf <__zp_data_size+0xe>
    4d40: a5 15        	lda	$15                     ; 0x15 <__rc5>
    4d42: 18           	clc
    4d43: 69 06        	adc	#$6
    4d45: 85 17        	sta	$17                     ; 0x17 <__rc7>
    4d47: a5 14        	lda	$14                     ; 0x14 <__rc4>
    4d49: 69 00        	adc	#$0
    4d4b: 85 1b        	sta	$1b                     ; 0x1b <__rc11>
    4d4d: a5 13        	lda	$13                     ; 0x13 <__rc3>
    4d4f: 69 03        	adc	#$3
    4d51: a6 1b        	ldx	$1b                     ; 0x1b <__rc11>
    4d53: 86 16        	stx	$16                     ; 0x16 <__rc6>
    4d55: 06 16        	asl	$16                     ; 0x16 <__rc6>
    4d57: 2a           	rol
    4d58: 06 16        	asl	$16                     ; 0x16 <__rc6>
    4d5a: 2a           	rol
    4d5b: 06 16        	asl	$16                     ; 0x16 <__rc6>
    4d5d: 2a           	rol
    4d5e: 58           	cli
    4d5f: a6 0f        	ldx	$f                      ; 0xf <__zp_data_size+0xe>
    4d61: 78           	sei
    4d62: 85 0f        	sta	$f                      ; 0xf <__zp_data_size+0xe>
    4d64: a4 17        	ldy	$17                     ; 0x17 <__rc7>
    4d66: 84 16        	sty	$16                     ; 0x16 <__rc6>
    4d68: a5 1b        	lda	$1b                     ; 0x1b <__rc11>
    4d6a: 09 e0        	ora	#$e0
    4d6c: 85 17        	sta	$17                     ; 0x17 <__rc7>
    4d6e: b2 16        	lda	($16)                   ; 0x16 <__rc6>
    4d70: 85 22        	sta	$22                     ; 0x22 <__rc18>
    4d72: 86 0f        	stx	$f                      ; 0xf <__zp_data_size+0xe>
    4d74: a5 15        	lda	$15                     ; 0x15 <__rc5>
    4d76: 18           	clc
    4d77: 69 07        	adc	#$7
    4d79: 85 17        	sta	$17                     ; 0x17 <__rc7>
    4d7b: a5 14        	lda	$14                     ; 0x14 <__rc4>
    4d7d: 69 00        	adc	#$0
    4d7f: 85 1b        	sta	$1b                     ; 0x1b <__rc11>
    4d81: a5 13        	lda	$13                     ; 0x13 <__rc3>
    4d83: 69 03        	adc	#$3
    4d85: a6 1b        	ldx	$1b                     ; 0x1b <__rc11>
    4d87: 86 16        	stx	$16                     ; 0x16 <__rc6>
    4d89: 06 16        	asl	$16                     ; 0x16 <__rc6>
    4d8b: 2a           	rol
    4d8c: 06 16        	asl	$16                     ; 0x16 <__rc6>
    4d8e: 2a           	rol
    4d8f: 06 16        	asl	$16                     ; 0x16 <__rc6>
    4d91: 2a           	rol
    4d92: 58           	cli
    4d93: a6 0f        	ldx	$f                      ; 0xf <__zp_data_size+0xe>
    4d95: 78           	sei
    4d96: 85 0f        	sta	$f                      ; 0xf <__zp_data_size+0xe>
    4d98: a4 17        	ldy	$17                     ; 0x17 <__rc7>
    4d9a: 84 16        	sty	$16                     ; 0x16 <__rc6>
    4d9c: a5 1b        	lda	$1b                     ; 0x1b <__rc11>
    4d9e: 09 e0        	ora	#$e0
    4da0: 85 17        	sta	$17                     ; 0x17 <__rc7>
    4da2: b2 16        	lda	($16)                   ; 0x16 <__rc6>
    4da4: 85 25        	sta	$25                     ; 0x25 <__rc21>
    4da6: 86 0f        	stx	$f                      ; 0xf <__zp_data_size+0xe>
    4da8: 58           	cli
    4da9: a6 5c        	ldx	$5c                     ; 0x5c <theOne.8>
    4dab: 86 1e        	stx	$1e                     ; 0x1e <__rc14>
    4dad: a6 5d        	ldx	$5d                     ; 0x5d <theOne.8+0x1>
    4daf: 86 1f        	stx	$1f                     ; 0x1f <__rc15>
    4db1: a6 19        	ldx	$19                     ; 0x19 <__rc9>
    4db3: 86 24        	stx	$24                     ; 0x24 <__rc20>
    4db5: a5 19        	lda	$19                     ; 0x19 <__rc9>
    4db7: 18           	clc
    4db8: 65 5c        	adc	$5c                     ; 0x5c <theOne.8>
    4dba: aa           	tax
    4dbb: a4 18        	ldy	$18                     ; 0x18 <__rc8>
    4dbd: 84 23        	sty	$23                     ; 0x23 <__rc19>
    4dbf: a5 18        	lda	$18                     ; 0x18 <__rc8>
    4dc1: 65 5d        	adc	$5d                     ; 0x5d <theOne.8+0x1>
    4dc3: 86 16        	stx	$16                     ; 0x16 <__rc6>
    4dc5: 85 17        	sta	$17                     ; 0x17 <__rc7>
    4dc7: 85 19        	sta	$19                     ; 0x19 <__rc9>
    4dc9: 18           	clc
    4dca: 8a           	txa
    4dcb: 69 f8        	adc	#$f8
    4dcd: 85 18        	sta	$18                     ; 0x18 <__rc8>
    4dcf: a5 19        	lda	$19                     ; 0x19 <__rc9>
    4dd1: 69 ff        	adc	#$ff
    4dd3: 85 19        	sta	$19                     ; 0x19 <__rc9>
    4dd5: a5 15        	lda	$15                     ; 0x15 <__rc5>
    4dd7: 18           	clc
    4dd8: 69 08        	adc	#$8
    4dda: aa           	tax
    4ddb: a5 14        	lda	$14                     ; 0x14 <__rc4>
    4ddd: 69 00        	adc	#$0
    4ddf: 85 1b        	sta	$1b                     ; 0x1b <__rc11>
    4de1: a5 13        	lda	$13                     ; 0x13 <__rc3>
    4de3: 69 03        	adc	#$3
    4de5: 85 26        	sta	$26                     ; 0x26 <__rc22>
    4de7: a5 12        	lda	$12                     ; 0x12 <__rc2>
    4de9: 69 00        	adc	#$0
    4deb: 85 29        	sta	$29                     ; 0x29 <__rc25>
    4ded: 8a           	txa
    4dee: 92 16        	sta	($16)                   ; 0x16 <__rc6>
    4df0: a0 01        	ldy	#$1
    4df2: a5 1b        	lda	$1b                     ; 0x1b <__rc11>
    4df4: 91 16        	sta	($16),y                 ; 0x16 <__rc6>
    4df6: 84 28        	sty	$28                     ; 0x28 <__rc24>
    4df8: c8           	iny
    4df9: a5 26        	lda	$26                     ; 0x26 <__rc22>
    4dfb: 91 16        	sta	($16),y                 ; 0x16 <__rc6>
    4dfd: 84 26        	sty	$26                     ; 0x26 <__rc22>
    4dff: c8           	iny
    4e00: a5 29        	lda	$29                     ; 0x29 <__rc25>
    4e02: 91 16        	sta	($16),y                 ; 0x16 <__rc6>
    4e04: 84 16        	sty	$16                     ; 0x16 <__rc6>
    4e06: a5 25        	lda	$25                     ; 0x25 <__rc21>
    4e08: 92 18        	sta	($18)                   ; 0x18 <__rc8>
    4e0a: a5 22        	lda	$22                     ; 0x22 <__rc18>
    4e0c: a4 28        	ldy	$28                     ; 0x28 <__rc24>
    4e0e: 91 18        	sta	($18),y                 ; 0x18 <__rc8>
    4e10: a5 1d        	lda	$1d                     ; 0x1d <__rc13>
    4e12: a4 26        	ldy	$26                     ; 0x26 <__rc22>
    4e14: 91 18        	sta	($18),y                 ; 0x18 <__rc8>
    4e16: a5 1c        	lda	$1c                     ; 0x1c <__rc12>
    4e18: a4 16        	ldy	$16                     ; 0x16 <__rc6>
    4e1a: 91 18        	sta	($18),y                 ; 0x18 <__rc8>
    4e1c: 85 16        	sta	$16                     ; 0x16 <__rc6>
    4e1e: 18           	clc
    4e1f: a5 25        	lda	$25                     ; 0x25 <__rc21>
    4e21: 65 15        	adc	$15                     ; 0x15 <__rc5>
    4e23: 85 15        	sta	$15                     ; 0x15 <__rc5>
    4e25: a5 22        	lda	$22                     ; 0x22 <__rc18>
    4e27: 65 14        	adc	$14                     ; 0x14 <__rc4>
    4e29: a8           	tay
    4e2a: a5 1d        	lda	$1d                     ; 0x1d <__rc13>
    4e2c: 65 13        	adc	$13                     ; 0x13 <__rc3>
    4e2e: aa           	tax
    4e2f: a5 16        	lda	$16                     ; 0x16 <__rc6>
    4e31: 65 12        	adc	$12                     ; 0x12 <__rc2>
    4e33: 85 12        	sta	$12                     ; 0x12 <__rc2>
    4e35: 18           	clc
    4e36: a5 15        	lda	$15                     ; 0x15 <__rc5>
    4e38: 69 08        	adc	#$8
    4e3a: 85 16        	sta	$16                     ; 0x16 <__rc6>
    4e3c: 98           	tya
    4e3d: 69 00        	adc	#$0
    4e3f: 85 15        	sta	$15                     ; 0x15 <__rc5>
    4e41: 8a           	txa
    4e42: 69 00        	adc	#$0
    4e44: 85 14        	sta	$14                     ; 0x14 <__rc4>
    4e46: a5 12        	lda	$12                     ; 0x12 <__rc2>
    4e48: 69 00        	adc	#$0
    4e4a: 85 13        	sta	$13                     ; 0x13 <__rc3>
    4e4c: a6 1a        	ldx	$1a                     ; 0x1a <__rc10>
    4e4e: a4 27        	ldy	$27                     ; 0x27 <__rc23>
    4e50: e8           	inx
    4e51: d0 01        	bne	$4e54 <initTrack+0x2ab>
    4e53: c8           	iny
    4e54: a5 4b        	lda	$4b                     ; 0x4b <theOne.0>
    4e56: 85 12        	sta	$12                     ; 0x12 <__rc2>
    4e58: 18           	clc
    4e59: a5 24        	lda	$24                     ; 0x24 <__rc20>
    4e5b: 69 19        	adc	#$19
    4e5d: 85 19        	sta	$19                     ; 0x19 <__rc9>
    4e5f: a5 23        	lda	$23                     ; 0x23 <__rc19>
    4e61: 69 00        	adc	#$0
    4e63: 85 18        	sta	$18                     ; 0x18 <__rc8>
    4e65: 84 27        	sty	$27                     ; 0x27 <__rc23>
    4e67: c4 4c        	cpy	$4c                     ; 0x4c <theOne.0+0x1>
    4e69: d0 09        	bne	$4e74 <initTrack+0x2cb>
    4e6b: e4 12        	cpx	$12                     ; 0x12 <__rc2>
    4e6d: a5 13        	lda	$13                     ; 0x13 <__rc3>
    4e6f: b0 0c        	bcs	$4e7d <initTrack+0x2d4>
    4e71: 4c c9 4c     	jmp	$4cc9 <initTrack+0x120>
    4e74: c4 4c        	cpy	$4c                     ; 0x4c <theOne.0+0x1>
    4e76: a5 13        	lda	$13                     ; 0x13 <__rc3>
    4e78: b0 03        	bcs	$4e7d <initTrack+0x2d4>
    4e7a: 4c c9 4c     	jmp	$4cc9 <initTrack+0x120>
    4e7d: a6 4c        	ldx	$4c                     ; 0x4c <theOne.0+0x1>
    4e7f: d0 07        	bne	$4e88 <initTrack+0x2df>
    4e81: a5 12        	lda	$12                     ; 0x12 <__rc2>
    4e83: d0 03        	bne	$4e88 <initTrack+0x2df>
    4e85: 4c 63 50     	jmp	$5063 <initTrack+0x4ba>
    4e88: a6 1e        	ldx	$1e                     ; 0x1e <__rc14>
    4e8a: 86 12        	stx	$12                     ; 0x12 <__rc2>
    4e8c: a6 1f        	ldx	$1f                     ; 0x1f <__rc15>
    4e8e: 86 13        	stx	$13                     ; 0x13 <__rc3>
    4e90: a2 19        	ldx	#$19
    4e92: 86 2a        	stx	$2a                     ; 0x2a <__rc26>
    4e94: 64 15        	stz	$15                     ; 0x15 <__rc5>
    4e96: 64 27        	stz	$27                     ; 0x27 <__rc23>
    4e98: a0 00        	ldy	#$0
    4e9a: 98           	tya
    4e9b: 85 29        	sta	$29                     ; 0x29 <__rc25>
    4e9d: 84 28        	sty	$28                     ; 0x28 <__rc24>
    4e9f: a5 15        	lda	$15                     ; 0x15 <__rc5>
    4ea1: 18           	clc
    4ea2: a2 01        	ldx	#$1
    4ea4: b0 02        	bcs	$4ea8 <initTrack+0x2ff>
    4ea6: a2 00        	ldx	#$0
    4ea8: 86 17        	stx	$17                     ; 0x17 <__rc7>
    4eaa: 65 12        	adc	$12                     ; 0x12 <__rc2>
    4eac: 85 14        	sta	$14                     ; 0x14 <__rc4>
    4eae: a6 15        	ldx	$15                     ; 0x15 <__rc5>
    4eb0: a5 27        	lda	$27                     ; 0x27 <__rc23>
    4eb2: 65 13        	adc	$13                     ; 0x13 <__rc3>
    4eb4: 85 15        	sta	$15                     ; 0x15 <__rc5>
    4eb6: a0 18        	ldy	#$18
    4eb8: b1 14        	lda	($14),y                 ; 0x14 <__rc4>
    4eba: f0 07        	beq	$4ec3 <initTrack+0x31a>
    4ebc: 86 26        	stx	$26                     ; 0x26 <__rc22>
    4ebe: a4 28        	ldy	$28                     ; 0x28 <__rc24>
    4ec0: 4c 93 4f     	jmp	$4f93 <initTrack+0x3ea>
    4ec3: 86 26        	stx	$26                     ; 0x26 <__rc22>
    4ec5: 8a           	txa
    4ec6: a6 17        	ldx	$17                     ; 0x17 <__rc7>
    4ec8: e0 01        	cpx	#$1
    4eca: 65 12        	adc	$12                     ; 0x12 <__rc2>
    4ecc: aa           	tax
    4ecd: a5 27        	lda	$27                     ; 0x27 <__rc23>
    4ecf: 65 13        	adc	$13                     ; 0x13 <__rc3>
    4ed1: a8           	tay
    4ed2: 18           	clc
    4ed3: 8a           	txa
    4ed4: 69 04        	adc	#$4
    4ed6: 85 16        	sta	$16                     ; 0x16 <__rc6>
    4ed8: 98           	tya
    4ed9: 84 19        	sty	$19                     ; 0x19 <__rc9>
    4edb: 69 00        	adc	#$0
    4edd: 85 17        	sta	$17                     ; 0x17 <__rc7>
    4edf: a0 03        	ldy	#$3
    4ee1: b1 16        	lda	($16),y                 ; 0x16 <__rc6>
    4ee3: d1 14        	cmp	($14),y                 ; 0x14 <__rc4>
    4ee5: d0 29        	bne	$4f10 <initTrack+0x367>
    4ee7: a0 02        	ldy	#$2
    4ee9: b1 16        	lda	($16),y                 ; 0x16 <__rc6>
    4eeb: 85 1a        	sta	$1a                     ; 0x1a <__rc10>
    4eed: b1 14        	lda	($14),y                 ; 0x14 <__rc4>
    4eef: 85 18        	sta	$18                     ; 0x18 <__rc8>
    4ef1: a4 1a        	ldy	$1a                     ; 0x1a <__rc10>
    4ef3: c4 18        	cpy	$18                     ; 0x18 <__rc8>
    4ef5: f0 03        	beq	$4efa <initTrack+0x351>
    4ef7: 4c 80 4f     	jmp	$4f80 <initTrack+0x3d7>
    4efa: a0 01        	ldy	#$1
    4efc: b1 16        	lda	($16),y                 ; 0x16 <__rc6>
    4efe: 85 17        	sta	$17                     ; 0x17 <__rc7>
    4f00: b1 14        	lda	($14),y                 ; 0x14 <__rc4>
    4f02: 85 16        	sta	$16                     ; 0x16 <__rc6>
    4f04: a4 17        	ldy	$17                     ; 0x17 <__rc7>
    4f06: c4 16        	cpy	$16                     ; 0x16 <__rc6>
    4f08: f0 03        	beq	$4f0d <initTrack+0x364>
    4f0a: 4c ab 50     	jmp	$50ab <initTrack+0x502>
    4f0d: 4c 8d 50     	jmp	$508d <initTrack+0x4e4>
    4f10: d1 14        	cmp	($14),y                 ; 0x14 <__rc4>
    4f12: a4 28        	ldy	$28                     ; 0x28 <__rc24>
    4f14: 90 03        	bcc	$4f19 <initTrack+0x370>
    4f16: 4c 89 4f     	jmp	$4f89 <initTrack+0x3e0>
    4f19: 64 31        	stz	$31                     ; 0x31 <_col>
    4f1b: 9c 14 d0     	stz	$d014                   ; 0xd014 <__heap_start+0x4d84>
    4f1e: 9c 15 d0     	stz	$d015                   ; 0xd015 <__heap_start+0x4d85>
    4f21: 98           	tya
    4f22: 18           	clc
    4f23: 69 0f        	adc	#$f
    4f25: 85 32        	sta	$32                     ; 0x32 <_row>
    4f27: 8d 16 d0     	sta	$d016                   ; 0xd016 <__heap_start+0x4d86>
    4f2a: 9c 17 d0     	stz	$d017                   ; 0xd017 <__heap_start+0x4d87>
    4f2d: a6 5c        	ldx	$5c                     ; 0x5c <theOne.8>
    4f2f: 86 25        	stx	$25                     ; 0x25 <__rc21>
    4f31: a6 5d        	ldx	$5d                     ; 0x5d <theOne.8+0x1>
    4f33: 86 24        	stx	$24                     ; 0x24 <__rc20>
    4f35: a6 2a        	ldx	$2a                     ; 0x2a <__rc26>
    4f37: 86 12        	stx	$12                     ; 0x12 <__rc2>
    4f39: 64 13        	stz	$13                     ; 0x13 <__rc3>
    4f3b: a2 00        	ldx	#$0
    4f3d: 98           	tya
    4f3e: 20 f6 6a     	jsr	$6af6 <__mulhi3>
    4f41: 85 12        	sta	$12                     ; 0x12 <__rc2>
    4f43: 86 13        	stx	$13                     ; 0x13 <__rc3>
    4f45: a6 25        	ldx	$25                     ; 0x25 <__rc21>
    4f47: 86 17        	stx	$17                     ; 0x17 <__rc7>
    4f49: a5 25        	lda	$25                     ; 0x25 <__rc21>
    4f4b: 18           	clc
    4f4c: 65 12        	adc	$12                     ; 0x12 <__rc2>
    4f4e: aa           	tax
    4f4f: a5 24        	lda	$24                     ; 0x24 <__rc20>
    4f51: 85 18        	sta	$18                     ; 0x18 <__rc8>
    4f53: 65 13        	adc	$13                     ; 0x13 <__rc3>
    4f55: 86 14        	stx	$14                     ; 0x14 <__rc4>
    4f57: 85 15        	sta	$15                     ; 0x15 <__rc5>
    4f59: a8           	tay
    4f5a: 18           	clc
    4f5b: 8a           	txa
    4f5c: 69 04        	adc	#$4
    4f5e: 85 12        	sta	$12                     ; 0x12 <__rc2>
    4f60: 98           	tya
    4f61: 69 00        	adc	#$0
    4f63: 85 13        	sta	$13                     ; 0x13 <__rc3>
    4f65: a0 03        	ldy	#$3
    4f67: b1 12        	lda	($12),y                 ; 0x12 <__rc2>
    4f69: d1 14        	cmp	($14),y                 ; 0x14 <__rc4>
    4f6b: d0 56        	bne	$4fc3 <initTrack+0x41a>
    4f6d: a0 02        	ldy	#$2
    4f6f: b1 12        	lda	($12),y                 ; 0x12 <__rc2>
    4f71: aa           	tax
    4f72: b1 14        	lda	($14),y                 ; 0x14 <__rc4>
    4f74: 85 16        	sta	$16                     ; 0x16 <__rc6>
    4f76: e4 16        	cpx	$16                     ; 0x16 <__rc6>
    4f78: f0 03        	beq	$4f7d <initTrack+0x3d4>
    4f7a: 4c d5 50     	jmp	$50d5 <initTrack+0x52c>
    4f7d: 4c b7 50     	jmp	$50b7 <initTrack+0x50e>
    4f80: c4 18        	cpy	$18                     ; 0x18 <__rc8>
    4f82: a4 28        	ldy	$28                     ; 0x28 <__rc24>
    4f84: b0 03        	bcs	$4f89 <initTrack+0x3e0>
    4f86: 4c 19 4f     	jmp	$4f19 <initTrack+0x370>
    4f89: 84 16        	sty	$16                     ; 0x16 <__rc6>
    4f8b: a9 01        	lda	#$1
    4f8d: a0 18        	ldy	#$18
    4f8f: 91 14        	sta	($14),y                 ; 0x14 <__rc4>
    4f91: a4 16        	ldy	$16                     ; 0x16 <__rc6>
    4f93: a6 29        	ldx	$29                     ; 0x29 <__rc25>
    4f95: c8           	iny
    4f96: d0 01        	bne	$4f99 <initTrack+0x3f0>
    4f98: e8           	inx
    4f99: 18           	clc
    4f9a: a5 26        	lda	$26                     ; 0x26 <__rc22>
    4f9c: 69 19        	adc	#$19
    4f9e: 85 15        	sta	$15                     ; 0x15 <__rc5>
    4fa0: a5 27        	lda	$27                     ; 0x27 <__rc23>
    4fa2: 69 00        	adc	#$0
    4fa4: 85 27        	sta	$27                     ; 0x27 <__rc23>
    4fa6: 8a           	txa
    4fa7: e4 4c        	cpx	$4c                     ; 0x4c <theOne.0+0x1>
    4fa9: d0 0e        	bne	$4fb9 <initTrack+0x410>
    4fab: a6 4b        	ldx	$4b                     ; 0x4b <theOne.0>
    4fad: 86 14        	stx	$14                     ; 0x14 <__rc4>
    4faf: c4 14        	cpy	$14                     ; 0x14 <__rc4>
    4fb1: b0 03        	bcs	$4fb6 <initTrack+0x40d>
    4fb3: 4c 9b 4e     	jmp	$4e9b <initTrack+0x2f2>
    4fb6: 4c 63 50     	jmp	$5063 <initTrack+0x4ba>
    4fb9: c5 4c        	cmp	$4c                     ; 0x4c <theOne.0+0x1>
    4fbb: b0 03        	bcs	$4fc0 <initTrack+0x417>
    4fbd: 4c 9b 4e     	jmp	$4e9b <initTrack+0x2f2>
    4fc0: 4c 63 50     	jmp	$5063 <initTrack+0x4ba>
    4fc3: d1 14        	cmp	($14),y                 ; 0x14 <__rc4>
    4fc5: a6 28        	ldx	$28                     ; 0x28 <__rc24>
    4fc7: 90 19        	bcc	$4fe2 <initTrack+0x439>
    4fc9: a4 17        	ldy	$17                     ; 0x17 <__rc7>
    4fcb: 84 12        	sty	$12                     ; 0x12 <__rc2>
    4fcd: a4 18        	ldy	$18                     ; 0x18 <__rc8>
    4fcf: 84 13        	sty	$13                     ; 0x13 <__rc3>
    4fd1: a9 01        	lda	#$1
    4fd3: 86 16        	stx	$16                     ; 0x16 <__rc6>
    4fd5: a0 18        	ldy	#$18
    4fd7: 91 14        	sta	($14),y                 ; 0x14 <__rc4>
    4fd9: a4 16        	ldy	$16                     ; 0x16 <__rc6>
    4fdb: e6 5a        	inc	$5a                     ; 0x5a <theOne.7>
    4fdd: d0 b4        	bne	$4f93 <initTrack+0x3ea>
    4fdf: 4c da 50     	jmp	$50da <initTrack+0x531>
    4fe2: 8a           	txa
    4fe3: 20 df 3b     	jsr	$3bdf <readDelta>
    4fe6: a0 03        	ldy	#$3
    4fe8: 91 10        	sta	($10),y                 ; 0x10 <__rc0>
    4fea: 8a           	txa
    4feb: a0 06        	ldy	#$6
    4fed: 91 10        	sta	($10),y                 ; 0x10 <__rc0>
    4fef: a5 12        	lda	$12                     ; 0x12 <__rc2>
    4ff1: 88           	dey
    4ff2: 91 10        	sta	($10),y                 ; 0x10 <__rc0>
    4ff4: a5 13        	lda	$13                     ; 0x13 <__rc3>
    4ff6: 88           	dey
    4ff7: 91 10        	sta	($10),y                 ; 0x10 <__rc0>
    4ff9: a6 5c        	ldx	$5c                     ; 0x5c <theOne.8>
    4ffb: 86 25        	stx	$25                     ; 0x25 <__rc21>
    4ffd: a6 5d        	ldx	$5d                     ; 0x5d <theOne.8+0x1>
    4fff: 86 24        	stx	$24                     ; 0x24 <__rc20>
    5001: a6 2a        	ldx	$2a                     ; 0x2a <__rc26>
    5003: 86 12        	stx	$12                     ; 0x12 <__rc2>
    5005: 64 13        	stz	$13                     ; 0x13 <__rc3>
    5007: a2 00        	ldx	#$0
    5009: a5 28        	lda	$28                     ; 0x28 <__rc24>
    500b: 20 f6 6a     	jsr	$6af6 <__mulhi3>
    500e: 85 12        	sta	$12                     ; 0x12 <__rc2>
    5010: 86 13        	stx	$13                     ; 0x13 <__rc3>
    5012: 18           	clc
    5013: a5 25        	lda	$25                     ; 0x25 <__rc21>
    5015: 65 12        	adc	$12                     ; 0x12 <__rc2>
    5017: a8           	tay
    5018: a5 24        	lda	$24                     ; 0x24 <__rc20>
    501a: 65 13        	adc	$13                     ; 0x13 <__rc3>
    501c: aa           	tax
    501d: 98           	tya
    501e: 84 12        	sty	$12                     ; 0x12 <__rc2>
    5020: 86 13        	stx	$13                     ; 0x13 <__rc3>
    5022: 18           	clc
    5023: 69 0c        	adc	#$c
    5025: 85 14        	sta	$14                     ; 0x14 <__rc4>
    5027: 8a           	txa
    5028: 69 00        	adc	#$0
    502a: 85 15        	sta	$15                     ; 0x15 <__rc5>
    502c: a0 0c        	ldy	#$c
    502e: 5a           	phy
    502f: a0 03        	ldy	#$3
    5031: b1 10        	lda	($10),y                 ; 0x10 <__rc0>
    5033: 7a           	ply
    5034: 91 12        	sta	($12),y                 ; 0x12 <__rc2>
    5036: a0 01        	ldy	#$1
    5038: 5a           	phy
    5039: a0 06        	ldy	#$6
    503b: b1 10        	lda	($10),y                 ; 0x10 <__rc0>
    503d: 7a           	ply
    503e: 91 14        	sta	($14),y                 ; 0x14 <__rc4>
    5040: a0 02        	ldy	#$2
    5042: 5a           	phy
    5043: a0 05        	ldy	#$5
    5045: b1 10        	lda	($10),y                 ; 0x10 <__rc0>
    5047: 7a           	ply
    5048: 91 14        	sta	($14),y                 ; 0x14 <__rc4>
    504a: a0 03        	ldy	#$3
    504c: 5a           	phy
    504d: c8           	iny
    504e: b1 10        	lda	($10),y                 ; 0x10 <__rc0>
    5050: 7a           	ply
    5051: 91 14        	sta	($14),y                 ; 0x14 <__rc4>
    5053: a5 28        	lda	$28                     ; 0x28 <__rc24>
    5055: 20 a0 40     	jsr	$40a0 <readMIDICmd>
    5058: a6 5c        	ldx	$5c                     ; 0x5c <theOne.8>
    505a: a4 5d        	ldy	$5d                     ; 0x5d <theOne.8+0x1>
    505c: 86 12        	stx	$12                     ; 0x12 <__rc2>
    505e: 84 13        	sty	$13                     ; 0x13 <__rc3>
    5060: 4c be 4e     	jmp	$4ebe <initTrack+0x315>
    5063: a0 00        	ldy	#$0
    5065: b1 10        	lda	($10),y                 ; 0x10 <__rc0>
    5067: 85 2a        	sta	$2a                     ; 0x2a <__rc26>
    5069: c8           	iny
    506a: b1 10        	lda	($10),y                 ; 0x10 <__rc0>
    506c: 85 29        	sta	$29                     ; 0x29 <__rc25>
    506e: c8           	iny
    506f: b1 10        	lda	($10),y                 ; 0x10 <__rc0>
    5071: 85 28        	sta	$28                     ; 0x28 <__rc24>
    5073: fa           	plx
    5074: 86 27        	stx	$27                     ; 0x27 <__rc23>
    5076: fa           	plx
    5077: 86 26        	stx	$26                     ; 0x26 <__rc22>
    5079: fa           	plx
    507a: 86 25        	stx	$25                     ; 0x25 <__rc21>
    507c: fa           	plx
    507d: 86 24        	stx	$24                     ; 0x24 <__rc20>
    507f: 18           	clc
    5080: a5 10        	lda	$10                     ; 0x10 <__rc0>
    5082: 69 07        	adc	#$7
    5084: 85 10        	sta	$10                     ; 0x10 <__rc0>
    5086: a5 11        	lda	$11                     ; 0x11 <__rc1>
    5088: 69 00        	adc	#$0
    508a: 85 11        	sta	$11                     ; 0x11 <__rc1>
    508c: 60           	rts
    508d: 86 16        	stx	$16                     ; 0x16 <__rc6>
    508f: a6 19        	ldx	$19                     ; 0x19 <__rc9>
    5091: 86 17        	stx	$17                     ; 0x17 <__rc7>
    5093: a0 04        	ldy	#$4
    5095: b1 16        	lda	($16),y                 ; 0x16 <__rc6>
    5097: 85 17        	sta	$17                     ; 0x17 <__rc7>
    5099: b2 14        	lda	($14)                   ; 0x14 <__rc4>
    509b: 85 16        	sta	$16                     ; 0x16 <__rc6>
    509d: a6 17        	ldx	$17                     ; 0x17 <__rc7>
    509f: e4 16        	cpx	$16                     ; 0x16 <__rc6>
    50a1: a4 28        	ldy	$28                     ; 0x28 <__rc24>
    50a3: b0 03        	bcs	$50a8 <initTrack+0x4ff>
    50a5: 4c 19 4f     	jmp	$4f19 <initTrack+0x370>
    50a8: 4c 89 4f     	jmp	$4f89 <initTrack+0x3e0>
    50ab: c4 16        	cpy	$16                     ; 0x16 <__rc6>
    50ad: a4 28        	ldy	$28                     ; 0x28 <__rc24>
    50af: b0 03        	bcs	$50b4 <initTrack+0x50b>
    50b1: 4c 19 4f     	jmp	$4f19 <initTrack+0x370>
    50b4: 4c 89 4f     	jmp	$4f89 <initTrack+0x3e0>
    50b7: a0 01        	ldy	#$1
    50b9: b1 12        	lda	($12),y                 ; 0x12 <__rc2>
    50bb: aa           	tax
    50bc: b1 14        	lda	($14),y                 ; 0x14 <__rc4>
    50be: 85 12        	sta	$12                     ; 0x12 <__rc2>
    50c0: e4 12        	cpx	$12                     ; 0x12 <__rc2>
    50c2: d0 0c        	bne	$50d0 <initTrack+0x527>
    50c4: a0 04        	ldy	#$4
    50c6: b1 14        	lda	($14),y                 ; 0x14 <__rc4>
    50c8: 85 13        	sta	$13                     ; 0x13 <__rc3>
    50ca: b2 14        	lda	($14)                   ; 0x14 <__rc4>
    50cc: 85 12        	sta	$12                     ; 0x12 <__rc2>
    50ce: a6 13        	ldx	$13                     ; 0x13 <__rc3>
    50d0: e4 12        	cpx	$12                     ; 0x12 <__rc2>
    50d2: 4c c5 4f     	jmp	$4fc5 <initTrack+0x41c>
    50d5: e4 16        	cpx	$16                     ; 0x16 <__rc6>
    50d7: 4c c5 4f     	jmp	$4fc5 <initTrack+0x41c>
    50da: e6 5b        	inc	$5b                     ; 0x5b <theOne.7+0x1>
    50dc: 4c 93 4f     	jmp	$4f93 <initTrack+0x3ea>

000050df <destroyTrack>:
    50df: a4 5c        	ldy	$5c                     ; 0x5c <theOne.8>
    50e1: a5 5d        	lda	$5d                     ; 0x5d <theOne.8+0x1>
    50e3: a2 00        	ldx	#$0
    50e5: 86 12        	stx	$12                     ; 0x12 <__rc2>
    50e7: a2 00        	ldx	#$0
    50e9: 86 13        	stx	$13                     ; 0x13 <__rc3>
    50eb: 85 1d        	sta	$1d                     ; 0x1d <__rc13>
    50ed: c5 13        	cmp	$13                     ; 0x13 <__rc3>
    50ef: d0 07        	bne	$50f8 <destroyTrack+0x19>
    50f1: c4 12        	cpy	$12                     ; 0x12 <__rc2>
    50f3: d0 03        	bne	$50f8 <destroyTrack+0x19>
    50f5: 4c 51 55     	jmp	$5551 <destroyTrack+0x472>
    50f8: 84 1a        	sty	$1a                     ; 0x1a <__rc10>
    50fa: a2 00        	ldx	#$0
    50fc: a0 10        	ldy	#$10
    50fe: a9 90        	lda	#$90
    5100: 86 12        	stx	$12                     ; 0x12 <__rc2>
    5102: 84 13        	sty	$13                     ; 0x13 <__rc3>
    5104: 18           	clc
    5105: 65 12        	adc	$12                     ; 0x12 <__rc2>
    5107: 85 18        	sta	$18                     ; 0x18 <__rc8>
    5109: a9 82        	lda	#$82
    510b: 65 13        	adc	$13                     ; 0x13 <__rc3>
    510d: 85 19        	sta	$19                     ; 0x19 <__rc9>
    510f: a5 1a        	lda	$1a                     ; 0x1a <__rc10>
    5111: 18           	clc
    5112: 69 fe        	adc	#$fe
    5114: 85 12        	sta	$12                     ; 0x12 <__rc2>
    5116: a5 1d        	lda	$1d                     ; 0x1d <__rc13>
    5118: 69 ff        	adc	#$ff
    511a: 85 16        	sta	$16                     ; 0x16 <__rc6>
    511c: a6 12        	ldx	$12                     ; 0x12 <__rc2>
    511e: 85 13        	sta	$13                     ; 0x13 <__rc3>
    5120: b2 12        	lda	($12)                   ; 0x12 <__rc2>
    5122: 85 1e        	sta	$1e                     ; 0x1e <__rc14>
    5124: a0 01        	ldy	#$1
    5126: b1 12        	lda	($12),y                 ; 0x12 <__rc2>
    5128: 85 14        	sta	$14                     ; 0x14 <__rc4>
    512a: a9 fe        	lda	#$fe
    512c: 32 12        	and	($12)                   ; 0x12 <__rc2>
    512e: 85 15        	sta	$15                     ; 0x15 <__rc5>
    5130: 86 1b        	stx	$1b                     ; 0x1b <__rc11>
    5132: a5 12        	lda	$12                     ; 0x12 <__rc2>
    5134: 18           	clc
    5135: 65 15        	adc	$15                     ; 0x15 <__rc5>
    5137: aa           	tax
    5138: a5 16        	lda	$16                     ; 0x16 <__rc6>
    513a: 85 1c        	sta	$1c                     ; 0x1c <__rc12>
    513c: 65 14        	adc	$14                     ; 0x14 <__rc4>
    513e: c5 19        	cmp	$19                     ; 0x19 <__rc9>
    5140: d0 15        	bne	$5157 <destroyTrack+0x78>
    5142: e4 18        	cpx	$18                     ; 0x18 <__rc8>
    5144: d0 11        	bne	$5157 <destroyTrack+0x78>
    5146: a2 00        	ldx	#$0
    5148: 86 16        	stx	$16                     ; 0x16 <__rc6>
    514a: a2 00        	ldx	#$0
    514c: 86 17        	stx	$17                     ; 0x17 <__rc7>
    514e: a5 1e        	lda	$1e                     ; 0x1e <__rc14>
    5150: 29 01        	and	#$1
    5152: d0 10        	bne	$5164 <destroyTrack+0x85>
    5154: 4c b6 52     	jmp	$52b6 <destroyTrack+0x1d7>
    5157: 86 16        	stx	$16                     ; 0x16 <__rc6>
    5159: 85 17        	sta	$17                     ; 0x17 <__rc7>
    515b: a5 1e        	lda	$1e                     ; 0x1e <__rc14>
    515d: 29 01        	and	#$1
    515f: d0 03        	bne	$5164 <destroyTrack+0x85>
    5161: 4c b6 52     	jmp	$52b6 <destroyTrack+0x1d7>
    5164: 18           	clc
    5165: a5 1a        	lda	$1a                     ; 0x1a <__rc10>
    5167: 69 fc        	adc	#$fc
    5169: 85 12        	sta	$12                     ; 0x12 <__rc2>
    516b: a5 1d        	lda	$1d                     ; 0x1d <__rc13>
    516d: 69 ff        	adc	#$ff
    516f: 85 13        	sta	$13                     ; 0x13 <__rc3>
    5171: a9 00        	lda	#$0
    5173: 38           	sec
    5174: f2 12        	sbc	($12)                   ; 0x12 <__rc2>
    5176: 85 1a        	sta	$1a                     ; 0x1a <__rc10>
    5178: a9 00        	lda	#$0
    517a: f1 12        	sbc	($12),y                 ; 0x12 <__rc2>
    517c: 85 13        	sta	$13                     ; 0x13 <__rc3>
    517e: a5 1b        	lda	$1b                     ; 0x1b <__rc11>
    5180: 18           	clc
    5181: 65 1a        	adc	$1a                     ; 0x1a <__rc10>
    5183: 85 12        	sta	$12                     ; 0x12 <__rc2>
    5185: 85 1b        	sta	$1b                     ; 0x1b <__rc11>
    5187: a5 1c        	lda	$1c                     ; 0x1c <__rc12>
    5189: 65 13        	adc	$13                     ; 0x13 <__rc3>
    518b: 85 13        	sta	$13                     ; 0x13 <__rc3>
    518d: 85 1f        	sta	$1f                     ; 0x1f <__rc15>
    518f: b1 12        	lda	($12),y                 ; 0x12 <__rc2>
    5191: a8           	tay
    5192: a2 01        	ldx	#$1
    5194: 86 1e        	stx	$1e                     ; 0x1e <__rc14>
    5196: a9 fe        	lda	#$fe
    5198: 32 12        	and	($12)                   ; 0x12 <__rc2>
    519a: a6 68        	ldx	$68                     ; 0x68 <_ZN12_GLOBAL__N_19free_sizeE>
    519c: 85 6c        	sta	$6c                     ; 0x6c <__zp_bss_size+0x31>
    519e: 85 1a        	sta	$1a                     ; 0x1a <__rc10>
    51a0: 38           	sec
    51a1: 8a           	txa
    51a2: e5 1a        	sbc	$1a                     ; 0x1a <__rc10>
    51a4: 85 1c        	sta	$1c                     ; 0x1c <__rc12>
    51a6: 84 1a        	sty	$1a                     ; 0x1a <__rc10>
    51a8: a6 1a        	ldx	$1a                     ; 0x1a <__rc10>
    51aa: 86 6d        	stx	$6d                     ; 0x6d <__zp_bss_size+0x32>
    51ac: a5 69        	lda	$69                     ; 0x69 <_ZN12_GLOBAL__N_19free_sizeE+0x1>
    51ae: e5 1a        	sbc	$1a                     ; 0x1a <__rc10>
    51b0: aa           	tax
    51b1: 18           	clc
    51b2: a5 1c        	lda	$1c                     ; 0x1c <__rc12>
    51b4: 69 02        	adc	#$2
    51b6: 85 1a        	sta	$1a                     ; 0x1a <__rc10>
    51b8: 8a           	txa
    51b9: 69 00        	adc	#$0
    51bb: a6 1a        	ldx	$1a                     ; 0x1a <__rc10>
    51bd: 86 68        	stx	$68                     ; 0x68 <_ZN12_GLOBAL__N_19free_sizeE>
    51bf: 85 69        	sta	$69                     ; 0x69 <_ZN12_GLOBAL__N_19free_sizeE+0x1>
    51c1: a6 1b        	ldx	$1b                     ; 0x1b <__rc11>
    51c3: 86 1c        	stx	$1c                     ; 0x1c <__rc12>
    51c5: a5 1b        	lda	$1b                     ; 0x1b <__rc11>
    51c7: 18           	clc
    51c8: 69 02        	adc	#$2
    51ca: 85 1a        	sta	$1a                     ; 0x1a <__rc10>
    51cc: a6 1f        	ldx	$1f                     ; 0x1f <__rc15>
    51ce: 86 1d        	stx	$1d                     ; 0x1d <__rc13>
    51d0: a5 1f        	lda	$1f                     ; 0x1f <__rc15>
    51d2: 69 00        	adc	#$0
    51d4: a0 02        	ldy	#$2
    51d6: 85 1b        	sta	$1b                     ; 0x1b <__rc11>
    51d8: b1 12        	lda	($12),y                 ; 0x12 <__rc2>
    51da: 85 1f        	sta	$1f                     ; 0x1f <__rc15>
    51dc: a4 1e        	ldy	$1e                     ; 0x1e <__rc14>
    51de: b1 1a        	lda	($1a),y                 ; 0x1a <__rc10>
    51e0: 85 23        	sta	$23                     ; 0x23 <__rc19>
    51e2: c5 13        	cmp	$13                     ; 0x13 <__rc3>
    51e4: d0 11        	bne	$51f7 <destroyTrack+0x118>
    51e6: a4 1f        	ldy	$1f                     ; 0x1f <__rc15>
    51e8: c4 12        	cpy	$12                     ; 0x12 <__rc2>
    51ea: d0 0d        	bne	$51f9 <destroyTrack+0x11a>
    51ec: a2 00        	ldx	#$0
    51ee: 86 1a        	stx	$1a                     ; 0x1a <__rc10>
    51f0: a2 00        	ldx	#$0
    51f2: 86 1b        	stx	$1b                     ; 0x1b <__rc11>
    51f4: 4c a0 52     	jmp	$52a0 <destroyTrack+0x1c1>
    51f7: a4 1f        	ldy	$1f                     ; 0x1f <__rc15>
    51f9: a6 15        	ldx	$15                     ; 0x15 <__rc5>
    51fb: 86 70        	stx	$70                     ; 0x70 <__zp_bss_size+0x35>
    51fd: a6 14        	ldx	$14                     ; 0x14 <__rc4>
    51ff: 86 6f        	stx	$6f                     ; 0x6f <__zp_bss_size+0x34>
    5201: a6 18        	ldx	$18                     ; 0x18 <__rc8>
    5203: 86 6e        	stx	$6e                     ; 0x6e <__zp_bss_size+0x33>
    5205: 84 22        	sty	$22                     ; 0x22 <__rc18>
    5207: a6 1c        	ldx	$1c                     ; 0x1c <__rc12>
    5209: 86 18        	stx	$18                     ; 0x18 <__rc8>
    520b: a5 1c        	lda	$1c                     ; 0x1c <__rc12>
    520d: 18           	clc
    520e: 69 04        	adc	#$4
    5210: 85 1a        	sta	$1a                     ; 0x1a <__rc10>
    5212: a6 1d        	ldx	$1d                     ; 0x1d <__rc13>
    5214: 86 1e        	stx	$1e                     ; 0x1e <__rc14>
    5216: a5 1d        	lda	$1d                     ; 0x1d <__rc13>
    5218: 69 00        	adc	#$0
    521a: a0 04        	ldy	#$4
    521c: 85 1b        	sta	$1b                     ; 0x1b <__rc11>
    521e: b1 12        	lda	($12),y                 ; 0x12 <__rc2>
    5220: 85 14        	sta	$14                     ; 0x14 <__rc4>
    5222: a2 04        	ldx	#$4
    5224: 18           	clc
    5225: 69 02        	adc	#$2
    5227: 85 1c        	sta	$1c                     ; 0x1c <__rc12>
    5229: a0 01        	ldy	#$1
    522b: b1 1a        	lda	($1a),y                 ; 0x1a <__rc10>
    522d: 85 1f        	sta	$1f                     ; 0x1f <__rc15>
    522f: 84 15        	sty	$15                     ; 0x15 <__rc5>
    5231: 69 00        	adc	#$0
    5233: a6 1c        	ldx	$1c                     ; 0x1c <__rc12>
    5235: 86 1a        	stx	$1a                     ; 0x1a <__rc10>
    5237: 85 1b        	sta	$1b                     ; 0x1b <__rc11>
    5239: a6 14        	ldx	$14                     ; 0x14 <__rc4>
    523b: 86 1c        	stx	$1c                     ; 0x1c <__rc12>
    523d: a6 1f        	ldx	$1f                     ; 0x1f <__rc15>
    523f: 86 1d        	stx	$1d                     ; 0x1d <__rc13>
    5241: a5 22        	lda	$22                     ; 0x22 <__rc18>
    5243: c8           	iny
    5244: 91 1c        	sta	($1c),y                 ; 0x1c <__rc12>
    5246: 84 1c        	sty	$1c                     ; 0x1c <__rc12>
    5248: a5 23        	lda	$23                     ; 0x23 <__rc19>
    524a: a4 15        	ldy	$15                     ; 0x15 <__rc5>
    524c: 91 1a        	sta	($1a),y                 ; 0x1a <__rc10>
    524e: 18           	clc
    524f: a5 18        	lda	$18                     ; 0x18 <__rc8>
    5251: 69 02        	adc	#$2
    5253: 85 1a        	sta	$1a                     ; 0x1a <__rc10>
    5255: a5 1e        	lda	$1e                     ; 0x1e <__rc14>
    5257: 69 00        	adc	#$0
    5259: 85 1b        	sta	$1b                     ; 0x1b <__rc11>
    525b: a4 1c        	ldy	$1c                     ; 0x1c <__rc12>
    525d: b1 12        	lda	($12),y                 ; 0x12 <__rc2>
    525f: 85 1c        	sta	$1c                     ; 0x1c <__rc12>
    5261: a4 15        	ldy	$15                     ; 0x15 <__rc5>
    5263: b1 1a        	lda	($1a),y                 ; 0x1a <__rc10>
    5265: 84 18        	sty	$18                     ; 0x18 <__rc8>
    5267: a6 1c        	ldx	$1c                     ; 0x1c <__rc12>
    5269: 86 1a        	stx	$1a                     ; 0x1a <__rc10>
    526b: 85 1b        	sta	$1b                     ; 0x1b <__rc11>
    526d: 85 1d        	sta	$1d                     ; 0x1d <__rc13>
    526f: a0 04        	ldy	#$4
    5271: a5 14        	lda	$14                     ; 0x14 <__rc4>
    5273: 91 1a        	sta	($1a),y                 ; 0x1a <__rc10>
    5275: 18           	clc
    5276: a5 1c        	lda	$1c                     ; 0x1c <__rc12>
    5278: 69 04        	adc	#$4
    527a: 85 1c        	sta	$1c                     ; 0x1c <__rc12>
    527c: a5 1d        	lda	$1d                     ; 0x1d <__rc13>
    527e: 69 00        	adc	#$0
    5280: 85 1d        	sta	$1d                     ; 0x1d <__rc13>
    5282: a5 1f        	lda	$1f                     ; 0x1f <__rc15>
    5284: a4 18        	ldy	$18                     ; 0x18 <__rc8>
    5286: 91 1c        	sta	($1c),y                 ; 0x1c <__rc12>
    5288: a6 6b        	ldx	$6b                     ; 0x6b <_ZN12_GLOBAL__N_19free_listE+0x1>
    528a: a4 6e        	ldy	$6e                     ; 0x6e <__zp_bss_size+0x33>
    528c: 84 18        	sty	$18                     ; 0x18 <__rc8>
    528e: a4 6f        	ldy	$6f                     ; 0x6f <__zp_bss_size+0x34>
    5290: 84 14        	sty	$14                     ; 0x14 <__rc4>
    5292: a4 70        	ldy	$70                     ; 0x70 <__zp_bss_size+0x35>
    5294: 84 15        	sty	$15                     ; 0x15 <__rc5>
    5296: e4 13        	cpx	$13                     ; 0x13 <__rc3>
    5298: d0 0e        	bne	$52a8 <destroyTrack+0x1c9>
    529a: a6 6a        	ldx	$6a                     ; 0x6a <_ZN12_GLOBAL__N_19free_listE>
    529c: e4 12        	cpx	$12                     ; 0x12 <__rc2>
    529e: d0 08        	bne	$52a8 <destroyTrack+0x1c9>
    52a0: a6 1a        	ldx	$1a                     ; 0x1a <__rc10>
    52a2: a4 1b        	ldy	$1b                     ; 0x1b <__rc11>
    52a4: 86 6a        	stx	$6a                     ; 0x6a <_ZN12_GLOBAL__N_19free_listE>
    52a6: 84 6b        	sty	$6b                     ; 0x6b <_ZN12_GLOBAL__N_19free_listE+0x1>
    52a8: 18           	clc
    52a9: a6 6c        	ldx	$6c                     ; 0x6c <__zp_bss_size+0x31>
    52ab: 8a           	txa
    52ac: 65 15        	adc	$15                     ; 0x15 <__rc5>
    52ae: 85 15        	sta	$15                     ; 0x15 <__rc5>
    52b0: a5 6d        	lda	$6d                     ; 0x6d <__zp_bss_size+0x32>
    52b2: 65 14        	adc	$14                     ; 0x14 <__rc4>
    52b4: 85 14        	sta	$14                     ; 0x14 <__rc4>
    52b6: a2 00        	ldx	#$0
    52b8: 86 1a        	stx	$1a                     ; 0x1a <__rc10>
    52ba: a2 00        	ldx	#$0
    52bc: 86 1b        	stx	$1b                     ; 0x1b <__rc11>
    52be: a6 17        	ldx	$17                     ; 0x17 <__rc7>
    52c0: e4 1b        	cpx	$1b                     ; 0x1b <__rc11>
    52c2: d0 0c        	bne	$52d0 <destroyTrack+0x1f1>
    52c4: a6 16        	ldx	$16                     ; 0x16 <__rc6>
    52c6: e4 1a        	cpx	$1a                     ; 0x1a <__rc10>
    52c8: d0 06        	bne	$52d0 <destroyTrack+0x1f1>
    52ca: a2 01        	ldx	#$1
    52cc: 86 67        	stx	$67                     ; 0x67 <_ZN12_GLOBAL__N_19last_freeE>
    52ce: 80 32        	bra	$5302 <destroyTrack+0x223>
    52d0: b2 16        	lda	($16)                   ; 0x16 <__rc6>
    52d2: 85 1a        	sta	$1a                     ; 0x1a <__rc10>
    52d4: a0 01        	ldy	#$1
    52d6: b1 16        	lda	($16),y                 ; 0x16 <__rc6>
    52d8: a8           	tay
    52d9: a9 fe        	lda	#$fe
    52db: 32 16        	and	($16)                   ; 0x16 <__rc6>
    52dd: 18           	clc
    52de: 85 6c        	sta	$6c                     ; 0x6c <__zp_bss_size+0x31>
    52e0: 65 16        	adc	$16                     ; 0x16 <__rc6>
    52e2: aa           	tax
    52e3: 98           	tya
    52e4: 84 1c        	sty	$1c                     ; 0x1c <__rc12>
    52e6: 65 17        	adc	$17                     ; 0x17 <__rc7>
    52e8: c5 19        	cmp	$19                     ; 0x19 <__rc9>
    52ea: d0 1b        	bne	$5307 <destroyTrack+0x228>
    52ec: e4 18        	cpx	$18                     ; 0x18 <__rc8>
    52ee: d0 17        	bne	$5307 <destroyTrack+0x228>
    52f0: a5 67        	lda	$67                     ; 0x67 <_ZN12_GLOBAL__N_19last_freeE>
    52f2: 29 01        	and	#$1
    52f4: d0 1b        	bne	$5311 <destroyTrack+0x232>
    52f6: a5 1a        	lda	$1a                     ; 0x1a <__rc10>
    52f8: 09 01        	ora	#$1
    52fa: 92 16        	sta	($16)                   ; 0x16 <__rc6>
    52fc: a0 01        	ldy	#$1
    52fe: a5 1c        	lda	$1c                     ; 0x1c <__rc12>
    5300: 91 16        	sta	($16),y                 ; 0x16 <__rc6>
    5302: a6 14        	ldx	$14                     ; 0x14 <__rc4>
    5304: 4c fe 53     	jmp	$53fe <destroyTrack+0x31f>
    5307: 86 18        	stx	$18                     ; 0x18 <__rc8>
    5309: 85 19        	sta	$19                     ; 0x19 <__rc9>
    530b: a9 01        	lda	#$1
    530d: 32 18        	and	($18)                   ; 0x18 <__rc8>
    530f: f0 e5        	beq	$52f6 <destroyTrack+0x217>
    5311: a5 68        	lda	$68                     ; 0x68 <_ZN12_GLOBAL__N_19free_sizeE>
    5313: a6 69        	ldx	$69                     ; 0x69 <_ZN12_GLOBAL__N_19free_sizeE+0x1>
    5315: 86 19        	stx	$19                     ; 0x19 <__rc9>
    5317: 38           	sec
    5318: a6 6c        	ldx	$6c                     ; 0x6c <__zp_bss_size+0x31>
    531a: 86 18        	stx	$18                     ; 0x18 <__rc8>
    531c: e5 18        	sbc	$18                     ; 0x18 <__rc8>
    531e: aa           	tax
    531f: a5 19        	lda	$19                     ; 0x19 <__rc9>
    5321: e5 1c        	sbc	$1c                     ; 0x1c <__rc12>
    5323: 85 18        	sta	$18                     ; 0x18 <__rc8>
    5325: 18           	clc
    5326: 8a           	txa
    5327: 69 02        	adc	#$2
    5329: 85 19        	sta	$19                     ; 0x19 <__rc9>
    532b: a5 18        	lda	$18                     ; 0x18 <__rc8>
    532d: 69 00        	adc	#$0
    532f: a6 19        	ldx	$19                     ; 0x19 <__rc9>
    5331: 86 68        	stx	$68                     ; 0x68 <_ZN12_GLOBAL__N_19free_sizeE>
    5333: 85 69        	sta	$69                     ; 0x69 <_ZN12_GLOBAL__N_19free_sizeE+0x1>
    5335: a5 16        	lda	$16                     ; 0x16 <__rc6>
    5337: 18           	clc
    5338: 69 02        	adc	#$2
    533a: 85 18        	sta	$18                     ; 0x18 <__rc8>
    533c: a5 17        	lda	$17                     ; 0x17 <__rc7>
    533e: 69 00        	adc	#$0
    5340: a0 02        	ldy	#$2
    5342: 85 19        	sta	$19                     ; 0x19 <__rc9>
    5344: b1 16        	lda	($16),y                 ; 0x16 <__rc6>
    5346: 85 1a        	sta	$1a                     ; 0x1a <__rc10>
    5348: 88           	dey
    5349: b1 18        	lda	($18),y                 ; 0x18 <__rc8>
    534b: 85 6d        	sta	$6d                     ; 0x6d <__zp_bss_size+0x32>
    534d: c5 17        	cmp	$17                     ; 0x17 <__rc7>
    534f: d0 11        	bne	$5362 <destroyTrack+0x283>
    5351: a6 1a        	ldx	$1a                     ; 0x1a <__rc10>
    5353: e4 16        	cpx	$16                     ; 0x16 <__rc6>
    5355: d0 0d        	bne	$5364 <destroyTrack+0x285>
    5357: a2 00        	ldx	#$0
    5359: 86 18        	stx	$18                     ; 0x18 <__rc8>
    535b: a2 00        	ldx	#$0
    535d: 86 19        	stx	$19                     ; 0x19 <__rc9>
    535f: 4c ea 53     	jmp	$53ea <destroyTrack+0x30b>
    5362: a6 1a        	ldx	$1a                     ; 0x1a <__rc10>
    5364: 86 1e        	stx	$1e                     ; 0x1e <__rc14>
    5366: 18           	clc
    5367: a5 16        	lda	$16                     ; 0x16 <__rc6>
    5369: 69 04        	adc	#$4
    536b: 85 18        	sta	$18                     ; 0x18 <__rc8>
    536d: a5 17        	lda	$17                     ; 0x17 <__rc7>
    536f: 69 00        	adc	#$0
    5371: a0 04        	ldy	#$4
    5373: 85 19        	sta	$19                     ; 0x19 <__rc9>
    5375: b1 16        	lda	($16),y                 ; 0x16 <__rc6>
    5377: 85 1f        	sta	$1f                     ; 0x1f <__rc15>
    5379: a2 04        	ldx	#$4
    537b: 18           	clc
    537c: 69 02        	adc	#$2
    537e: 85 1a        	sta	$1a                     ; 0x1a <__rc10>
    5380: a0 01        	ldy	#$1
    5382: b1 18        	lda	($18),y                 ; 0x18 <__rc8>
    5384: 85 1d        	sta	$1d                     ; 0x1d <__rc13>
    5386: 69 00        	adc	#$0
    5388: a6 1a        	ldx	$1a                     ; 0x1a <__rc10>
    538a: 86 18        	stx	$18                     ; 0x18 <__rc8>
    538c: 85 19        	sta	$19                     ; 0x19 <__rc9>
    538e: a6 1f        	ldx	$1f                     ; 0x1f <__rc15>
    5390: 86 1a        	stx	$1a                     ; 0x1a <__rc10>
    5392: a6 1d        	ldx	$1d                     ; 0x1d <__rc13>
    5394: 86 1b        	stx	$1b                     ; 0x1b <__rc11>
    5396: a5 1e        	lda	$1e                     ; 0x1e <__rc14>
    5398: c8           	iny
    5399: 91 1a        	sta	($1a),y                 ; 0x1a <__rc10>
    539b: 84 1a        	sty	$1a                     ; 0x1a <__rc10>
    539d: a5 6d        	lda	$6d                     ; 0x6d <__zp_bss_size+0x32>
    539f: 88           	dey
    53a0: 84 1b        	sty	$1b                     ; 0x1b <__rc11>
    53a2: 91 18        	sta	($18),y                 ; 0x18 <__rc8>
    53a4: 18           	clc
    53a5: a5 16        	lda	$16                     ; 0x16 <__rc6>
    53a7: 69 02        	adc	#$2
    53a9: 85 18        	sta	$18                     ; 0x18 <__rc8>
    53ab: a5 17        	lda	$17                     ; 0x17 <__rc7>
    53ad: 69 00        	adc	#$0
    53af: 85 19        	sta	$19                     ; 0x19 <__rc9>
    53b1: a4 1a        	ldy	$1a                     ; 0x1a <__rc10>
    53b3: b1 16        	lda	($16),y                 ; 0x16 <__rc6>
    53b5: 85 1a        	sta	$1a                     ; 0x1a <__rc10>
    53b7: a4 1b        	ldy	$1b                     ; 0x1b <__rc11>
    53b9: b1 18        	lda	($18),y                 ; 0x18 <__rc8>
    53bb: 84 1e        	sty	$1e                     ; 0x1e <__rc14>
    53bd: a6 1a        	ldx	$1a                     ; 0x1a <__rc10>
    53bf: 86 18        	stx	$18                     ; 0x18 <__rc8>
    53c1: 85 19        	sta	$19                     ; 0x19 <__rc9>
    53c3: 85 1b        	sta	$1b                     ; 0x1b <__rc11>
    53c5: a0 04        	ldy	#$4
    53c7: a5 1f        	lda	$1f                     ; 0x1f <__rc15>
    53c9: 91 18        	sta	($18),y                 ; 0x18 <__rc8>
    53cb: 18           	clc
    53cc: a5 1a        	lda	$1a                     ; 0x1a <__rc10>
    53ce: 69 04        	adc	#$4
    53d0: 85 1a        	sta	$1a                     ; 0x1a <__rc10>
    53d2: a5 1b        	lda	$1b                     ; 0x1b <__rc11>
    53d4: 69 00        	adc	#$0
    53d6: 85 1b        	sta	$1b                     ; 0x1b <__rc11>
    53d8: a5 1d        	lda	$1d                     ; 0x1d <__rc13>
    53da: a4 1e        	ldy	$1e                     ; 0x1e <__rc14>
    53dc: 91 1a        	sta	($1a),y                 ; 0x1a <__rc10>
    53de: a6 6b        	ldx	$6b                     ; 0x6b <_ZN12_GLOBAL__N_19free_listE+0x1>
    53e0: e4 17        	cpx	$17                     ; 0x17 <__rc7>
    53e2: d0 0e        	bne	$53f2 <destroyTrack+0x313>
    53e4: a6 6a        	ldx	$6a                     ; 0x6a <_ZN12_GLOBAL__N_19free_listE>
    53e6: e4 16        	cpx	$16                     ; 0x16 <__rc6>
    53e8: d0 08        	bne	$53f2 <destroyTrack+0x313>
    53ea: a6 18        	ldx	$18                     ; 0x18 <__rc8>
    53ec: a4 19        	ldy	$19                     ; 0x19 <__rc9>
    53ee: 86 6a        	stx	$6a                     ; 0x6a <_ZN12_GLOBAL__N_19free_listE>
    53f0: 84 6b        	sty	$6b                     ; 0x6b <_ZN12_GLOBAL__N_19free_listE+0x1>
    53f2: 18           	clc
    53f3: a5 6c        	lda	$6c                     ; 0x6c <__zp_bss_size+0x31>
    53f5: 65 15        	adc	$15                     ; 0x15 <__rc5>
    53f7: 85 15        	sta	$15                     ; 0x15 <__rc5>
    53f9: a5 1c        	lda	$1c                     ; 0x1c <__rc12>
    53fb: 65 14        	adc	$14                     ; 0x14 <__rc4>
    53fd: aa           	tax
    53fe: a9 01        	lda	#$1
    5400: 32 12        	and	($12)                   ; 0x12 <__rc2>
    5402: a4 15        	ldy	$15                     ; 0x15 <__rc5>
    5404: 84 16        	sty	$16                     ; 0x16 <__rc6>
    5406: 05 15        	ora	$15                     ; 0x15 <__rc5>
    5408: 92 12        	sta	($12)                   ; 0x12 <__rc2>
    540a: a5 12        	lda	$12                     ; 0x12 <__rc2>
    540c: 18           	clc
    540d: 65 15        	adc	$15                     ; 0x15 <__rc5>
    540f: a8           	tay
    5410: 8a           	txa
    5411: 65 13        	adc	$13                     ; 0x13 <__rc3>
    5413: 85 15        	sta	$15                     ; 0x15 <__rc5>
    5415: 18           	clc
    5416: 98           	tya
    5417: 69 fe        	adc	#$fe
    5419: 85 14        	sta	$14                     ; 0x14 <__rc4>
    541b: a5 15        	lda	$15                     ; 0x15 <__rc5>
    541d: 69 ff        	adc	#$ff
    541f: 85 15        	sta	$15                     ; 0x15 <__rc5>
    5421: a0 01        	ldy	#$1
    5423: 8a           	txa
    5424: 91 12        	sta	($12),y                 ; 0x12 <__rc2>
    5426: a5 16        	lda	$16                     ; 0x16 <__rc6>
    5428: 92 14        	sta	($14)                   ; 0x14 <__rc4>
    542a: 8a           	txa
    542b: 91 14        	sta	($14),y                 ; 0x14 <__rc4>
    542d: b1 12        	lda	($12),y                 ; 0x12 <__rc2>
    542f: 85 14        	sta	$14                     ; 0x14 <__rc4>
    5431: a9 fe        	lda	#$fe
    5433: 32 12        	and	($12)                   ; 0x12 <__rc2>
    5435: 18           	clc
    5436: 65 68        	adc	$68                     ; 0x68 <_ZN12_GLOBAL__N_19free_sizeE>
    5438: aa           	tax
    5439: a5 14        	lda	$14                     ; 0x14 <__rc4>
    543b: 65 69        	adc	$69                     ; 0x69 <_ZN12_GLOBAL__N_19free_sizeE+0x1>
    543d: 85 14        	sta	$14                     ; 0x14 <__rc4>
    543f: 18           	clc
    5440: 8a           	txa
    5441: 69 fe        	adc	#$fe
    5443: 85 15        	sta	$15                     ; 0x15 <__rc5>
    5445: a5 14        	lda	$14                     ; 0x14 <__rc4>
    5447: 69 ff        	adc	#$ff
    5449: a6 15        	ldx	$15                     ; 0x15 <__rc5>
    544b: 86 68        	stx	$68                     ; 0x68 <_ZN12_GLOBAL__N_19free_sizeE>
    544d: 85 69        	sta	$69                     ; 0x69 <_ZN12_GLOBAL__N_19free_sizeE+0x1>
    544f: a4 6a        	ldy	$6a                     ; 0x6a <_ZN12_GLOBAL__N_19free_listE>
    5451: a5 6b        	lda	$6b                     ; 0x6b <_ZN12_GLOBAL__N_19free_listE+0x1>
    5453: a2 00        	ldx	#$0
    5455: 86 14        	stx	$14                     ; 0x14 <__rc4>
    5457: a2 00        	ldx	#$0
    5459: 86 15        	stx	$15                     ; 0x15 <__rc5>
    545b: c5 15        	cmp	$15                     ; 0x15 <__rc5>
    545d: d0 3c        	bne	$549b <destroyTrack+0x3bc>
    545f: c4 14        	cpy	$14                     ; 0x14 <__rc4>
    5461: d0 38        	bne	$549b <destroyTrack+0x3bc>
    5463: a0 04        	ldy	#$4
    5465: 18           	clc
    5466: a5 12        	lda	$12                     ; 0x12 <__rc2>
    5468: 69 04        	adc	#$4
    546a: 85 14        	sta	$14                     ; 0x14 <__rc4>
    546c: a5 13        	lda	$13                     ; 0x13 <__rc3>
    546e: 69 00        	adc	#$0
    5470: 18           	clc
    5471: 85 15        	sta	$15                     ; 0x15 <__rc5>
    5473: a5 12        	lda	$12                     ; 0x12 <__rc2>
    5475: 91 12        	sta	($12),y                 ; 0x12 <__rc2>
    5477: a0 02        	ldy	#$2
    5479: 85 17        	sta	$17                     ; 0x17 <__rc7>
    547b: 69 02        	adc	#$2
    547d: 85 16        	sta	$16                     ; 0x16 <__rc6>
    547f: a5 17        	lda	$17                     ; 0x17 <__rc7>
    5481: 91 12        	sta	($12),y                 ; 0x12 <__rc2>
    5483: a5 13        	lda	$13                     ; 0x13 <__rc3>
    5485: 69 00        	adc	#$0
    5487: 85 17        	sta	$17                     ; 0x17 <__rc7>
    5489: 88           	dey
    548a: a5 13        	lda	$13                     ; 0x13 <__rc3>
    548c: 91 14        	sta	($14),y                 ; 0x14 <__rc4>
    548e: 91 16        	sta	($16),y                 ; 0x16 <__rc6>
    5490: a6 12        	ldx	$12                     ; 0x12 <__rc2>
    5492: 86 6a        	stx	$6a                     ; 0x6a <_ZN12_GLOBAL__N_19free_listE>
    5494: a6 13        	ldx	$13                     ; 0x13 <__rc3>
    5496: 86 6b        	stx	$6b                     ; 0x6b <_ZN12_GLOBAL__N_19free_listE+0x1>
    5498: 4c 51 55     	jmp	$5551 <destroyTrack+0x472>
    549b: a6 12        	ldx	$12                     ; 0x12 <__rc2>
    549d: 18           	clc
    549e: 84 18        	sty	$18                     ; 0x18 <__rc8>
    54a0: a8           	tay
    54a1: a5 12        	lda	$12                     ; 0x12 <__rc2>
    54a3: 69 02        	adc	#$2
    54a5: 85 16        	sta	$16                     ; 0x16 <__rc6>
    54a7: 5a           	phy
    54a8: a4 13        	ldy	$13                     ; 0x13 <__rc3>
    54aa: 84 1c        	sty	$1c                     ; 0x1c <__rc12>
    54ac: a5 13        	lda	$13                     ; 0x13 <__rc3>
    54ae: 69 00        	adc	#$0
    54b0: a4 16        	ldy	$16                     ; 0x16 <__rc6>
    54b2: 84 14        	sty	$14                     ; 0x14 <__rc4>
    54b4: a4 18        	ldy	$18                     ; 0x18 <__rc8>
    54b6: 84 16        	sty	$16                     ; 0x16 <__rc6>
    54b8: 7a           	ply
    54b9: 84 19        	sty	$19                     ; 0x19 <__rc9>
    54bb: 84 17        	sty	$17                     ; 0x17 <__rc7>
    54bd: 85 15        	sta	$15                     ; 0x15 <__rc5>
    54bf: a0 02        	ldy	#$2
    54c1: a5 18        	lda	$18                     ; 0x18 <__rc8>
    54c3: 91 12        	sta	($12),y                 ; 0x12 <__rc2>
    54c5: 84 1d        	sty	$1d                     ; 0x1d <__rc13>
    54c7: 88           	dey
    54c8: a5 19        	lda	$19                     ; 0x19 <__rc9>
    54ca: 91 14        	sta	($14),y                 ; 0x14 <__rc4>
    54cc: 84 1e        	sty	$1e                     ; 0x1e <__rc14>
    54ce: 18           	clc
    54cf: a5 18        	lda	$18                     ; 0x18 <__rc8>
    54d1: 69 04        	adc	#$4
    54d3: 85 18        	sta	$18                     ; 0x18 <__rc8>
    54d5: a5 19        	lda	$19                     ; 0x19 <__rc9>
    54d7: 69 00        	adc	#$0
    54d9: 85 19        	sta	$19                     ; 0x19 <__rc9>
    54db: 18           	clc
    54dc: a5 12        	lda	$12                     ; 0x12 <__rc2>
    54de: 69 04        	adc	#$4
    54e0: 85 1a        	sta	$1a                     ; 0x1a <__rc10>
    54e2: a5 13        	lda	$13                     ; 0x13 <__rc3>
    54e4: 69 00        	adc	#$0
    54e6: 85 1b        	sta	$1b                     ; 0x1b <__rc11>
    54e8: a0 04        	ldy	#$4
    54ea: b1 16        	lda	($16),y                 ; 0x16 <__rc6>
    54ec: 85 16        	sta	$16                     ; 0x16 <__rc6>
    54ee: 85 1f        	sta	$1f                     ; 0x1f <__rc15>
    54f0: a4 1e        	ldy	$1e                     ; 0x1e <__rc14>
    54f2: b1 18        	lda	($18),y                 ; 0x18 <__rc8>
    54f4: a4 1e        	ldy	$1e                     ; 0x1e <__rc14>
    54f6: 84 18        	sty	$18                     ; 0x18 <__rc8>
    54f8: 85 17        	sta	$17                     ; 0x17 <__rc7>
    54fa: 85 19        	sta	$19                     ; 0x19 <__rc9>
    54fc: a0 04        	ldy	#$4
    54fe: a5 1f        	lda	$1f                     ; 0x1f <__rc15>
    5500: 91 12        	sta	($12),y                 ; 0x12 <__rc2>
    5502: 84 1e        	sty	$1e                     ; 0x1e <__rc14>
    5504: a4 18        	ldy	$18                     ; 0x18 <__rc8>
    5506: a5 19        	lda	$19                     ; 0x19 <__rc9>
    5508: 91 1a        	sta	($1a),y                 ; 0x1a <__rc10>
    550a: 84 1a        	sty	$1a                     ; 0x1a <__rc10>
    550c: 18           	clc
    550d: a5 1f        	lda	$1f                     ; 0x1f <__rc15>
    550f: 69 02        	adc	#$2
    5511: 85 18        	sta	$18                     ; 0x18 <__rc8>
    5513: a5 19        	lda	$19                     ; 0x19 <__rc9>
    5515: 69 00        	adc	#$0
    5517: 85 19        	sta	$19                     ; 0x19 <__rc9>
    5519: a5 12        	lda	$12                     ; 0x12 <__rc2>
    551b: a4 1d        	ldy	$1d                     ; 0x1d <__rc13>
    551d: 91 16        	sta	($16),y                 ; 0x16 <__rc6>
    551f: a5 13        	lda	$13                     ; 0x13 <__rc3>
    5521: a4 1a        	ldy	$1a                     ; 0x1a <__rc10>
    5523: 91 18        	sta	($18),y                 ; 0x18 <__rc8>
    5525: 84 17        	sty	$17                     ; 0x17 <__rc7>
    5527: a4 1d        	ldy	$1d                     ; 0x1d <__rc13>
    5529: b1 12        	lda	($12),y                 ; 0x12 <__rc2>
    552b: 85 12        	sta	$12                     ; 0x12 <__rc2>
    552d: 85 16        	sta	$16                     ; 0x16 <__rc6>
    552f: a4 17        	ldy	$17                     ; 0x17 <__rc7>
    5531: b1 14        	lda	($14),y                 ; 0x14 <__rc4>
    5533: 84 14        	sty	$14                     ; 0x14 <__rc4>
    5535: 85 13        	sta	$13                     ; 0x13 <__rc3>
    5537: 85 15        	sta	$15                     ; 0x15 <__rc5>
    5539: 8a           	txa
    553a: a4 1e        	ldy	$1e                     ; 0x1e <__rc14>
    553c: 91 12        	sta	($12),y                 ; 0x12 <__rc2>
    553e: 18           	clc
    553f: a5 16        	lda	$16                     ; 0x16 <__rc6>
    5541: 69 04        	adc	#$4
    5543: 85 12        	sta	$12                     ; 0x12 <__rc2>
    5545: a5 15        	lda	$15                     ; 0x15 <__rc5>
    5547: 69 00        	adc	#$0
    5549: 85 13        	sta	$13                     ; 0x13 <__rc3>
    554b: a5 1c        	lda	$1c                     ; 0x1c <__rc12>
    554d: a4 14        	ldy	$14                     ; 0x14 <__rc4>
    554f: 91 12        	sta	($12),y                 ; 0x12 <__rc2>
    5551: a2 00        	ldx	#$0
    5553: 86 12        	stx	$12                     ; 0x12 <__rc2>
    5555: a2 00        	ldx	#$0
    5557: 86 13        	stx	$13                     ; 0x13 <__rc3>
    5559: a6 12        	ldx	$12                     ; 0x12 <__rc2>
    555b: a4 13        	ldy	$13                     ; 0x13 <__rc3>
    555d: 86 5c        	stx	$5c                     ; 0x5c <theOne.8>
    555f: 84 5d        	sty	$5d                     ; 0x5d <theOne.8+0x1>
    5561: 64 4a        	stz	$4a                     ; 0x4a <fudge>
    5563: 64 49        	stz	$49                     ; 0x49 <doneWithFudge>
    5565: 60           	rts

00005566 <exit>:
    5566: 20 19 03     	jsr	$319 <_fini>
    5569: 80 fe        	bra	$5569 <exit+0x3>

0000556b <_ZN12_GLOBAL__N_13putEcP6Status>:
    556b: 85 18        	sta	$18                     ; 0x18 <__rc8>
    556d: a6 13        	ldx	$13                     ; 0x13 <__rc3>
    556f: 18           	clc
    5570: a5 12        	lda	$12                     ; 0x12 <__rc2>
    5572: 69 05        	adc	#$5
    5574: a8           	tay
    5575: a5 13        	lda	$13                     ; 0x13 <__rc3>
    5577: 86 15        	stx	$15                     ; 0x15 <__rc5>
    5579: 69 00        	adc	#$0
    557b: 18           	clc
    557c: 84 16        	sty	$16                     ; 0x16 <__rc6>
    557e: a0 05        	ldy	#$5
    5580: 85 17        	sta	$17                     ; 0x17 <__rc7>
    5582: b1 12        	lda	($12),y                 ; 0x12 <__rc2>
    5584: aa           	tax
    5585: a5 12        	lda	$12                     ; 0x12 <__rc2>
    5587: 69 03        	adc	#$3
    5589: 85 14        	sta	$14                     ; 0x14 <__rc4>
    558b: a5 15        	lda	$15                     ; 0x15 <__rc5>
    558d: 69 00        	adc	#$0
    558f: 85 15        	sta	$15                     ; 0x15 <__rc5>
    5591: a0 01        	ldy	#$1
    5593: b1 16        	lda	($16),y                 ; 0x16 <__rc6>
    5595: d1 14        	cmp	($14),y                 ; 0x14 <__rc4>
    5597: d0 11        	bne	$55aa <_ZN12_GLOBAL__N_13putEcP6Status+0x3f>
    5599: a0 03        	ldy	#$3
    559b: 85 17        	sta	$17                     ; 0x17 <__rc7>
    559d: b1 12        	lda	($12),y                 ; 0x12 <__rc2>
    559f: 85 14        	sta	$14                     ; 0x14 <__rc4>
    55a1: 86 16        	stx	$16                     ; 0x16 <__rc6>
    55a3: e4 14        	cpx	$14                     ; 0x14 <__rc4>
    55a5: 90 0e        	bcc	$55b5 <_ZN12_GLOBAL__N_13putEcP6Status+0x4a>
    55a7: 4c 16 56     	jmp	$5616 <_ZN12_GLOBAL__N_13putEcP6Status+0xab>
    55aa: 86 16        	stx	$16                     ; 0x16 <__rc6>
    55ac: d1 14        	cmp	($14),y                 ; 0x14 <__rc4>
    55ae: 85 17        	sta	$17                     ; 0x17 <__rc7>
    55b0: 90 03        	bcc	$55b5 <_ZN12_GLOBAL__N_13putEcP6Status+0x4a>
    55b2: 4c 16 56     	jmp	$5616 <_ZN12_GLOBAL__N_13putEcP6Status+0xab>
    55b5: a5 12        	lda	$12                     ; 0x12 <__rc2>
    55b7: 18           	clc
    55b8: 69 0f        	adc	#$f
    55ba: 85 14        	sta	$14                     ; 0x14 <__rc4>
    55bc: a5 13        	lda	$13                     ; 0x13 <__rc3>
    55be: 69 00        	adc	#$0
    55c0: 85 15        	sta	$15                     ; 0x15 <__rc5>
    55c2: a0 01        	ldy	#$1
    55c4: b1 14        	lda	($14),y                 ; 0x14 <__rc4>
    55c6: a2 00        	ldx	#$0
    55c8: 86 14        	stx	$14                     ; 0x14 <__rc4>
    55ca: a2 00        	ldx	#$0
    55cc: 86 15        	stx	$15                     ; 0x15 <__rc5>
    55ce: c5 15        	cmp	$15                     ; 0x15 <__rc5>
    55d0: d0 2d        	bne	$55ff <_ZN12_GLOBAL__N_13putEcP6Status+0x94>
    55d2: a0 0f        	ldy	#$f
    55d4: b1 12        	lda	($12),y                 ; 0x12 <__rc2>
    55d6: c5 14        	cmp	$14                     ; 0x14 <__rc4>
    55d8: d0 25        	bne	$55ff <_ZN12_GLOBAL__N_13putEcP6Status+0x94>
    55da: a5 12        	lda	$12                     ; 0x12 <__rc2>
    55dc: 18           	clc
    55dd: 69 09        	adc	#$9
    55df: 85 14        	sta	$14                     ; 0x14 <__rc4>
    55e1: a5 13        	lda	$13                     ; 0x13 <__rc3>
    55e3: 69 00        	adc	#$0
    55e5: a0 09        	ldy	#$9
    55e7: 85 15        	sta	$15                     ; 0x15 <__rc5>
    55e9: 18           	clc
    55ea: a5 16        	lda	$16                     ; 0x16 <__rc6>
    55ec: 71 12        	adc	($12),y                 ; 0x12 <__rc2>
    55ee: aa           	tax
    55ef: a0 01        	ldy	#$1
    55f1: a5 17        	lda	$17                     ; 0x17 <__rc7>
    55f3: 71 14        	adc	($14),y                 ; 0x14 <__rc4>
    55f5: 86 14        	stx	$14                     ; 0x14 <__rc4>
    55f7: 85 15        	sta	$15                     ; 0x15 <__rc5>
    55f9: a5 18        	lda	$18                     ; 0x18 <__rc8>
    55fb: 92 14        	sta	($14)                   ; 0x14 <__rc4>
    55fd: 80 17        	bra	$5616 <_ZN12_GLOBAL__N_13putEcP6Status+0xab>
    55ff: a6 12        	ldx	$12                     ; 0x12 <__rc2>
    5601: 86 d3        	stx	$d3                     ; 0xd3 <__zp_bss_size+0x98>
    5603: a6 13        	ldx	$13                     ; 0x13 <__rc3>
    5605: 86 d4        	stx	$d4                     ; 0xd4 <__zp_bss_size+0x99>
    5607: a2 00        	ldx	#$0
    5609: a5 18        	lda	$18                     ; 0x18 <__rc8>
    560b: 20 8b 64     	jsr	$648b <putchar>
    560e: a6 d3        	ldx	$d3                     ; 0xd3 <__zp_bss_size+0x98>
    5610: 86 12        	stx	$12                     ; 0x12 <__rc2>
    5612: a6 d4        	ldx	$d4                     ; 0xd4 <__zp_bss_size+0x99>
    5614: 86 13        	stx	$13                     ; 0x13 <__rc3>
    5616: a0 05        	ldy	#$5
    5618: a5 12        	lda	$12                     ; 0x12 <__rc2>
    561a: 18           	clc
    561b: 69 05        	adc	#$5
    561d: 85 14        	sta	$14                     ; 0x14 <__rc4>
    561f: a5 13        	lda	$13                     ; 0x13 <__rc3>
    5621: 69 00        	adc	#$0
    5623: 85 15        	sta	$15                     ; 0x15 <__rc5>
    5625: b1 12        	lda	($12),y                 ; 0x12 <__rc2>
    5627: aa           	tax
    5628: 84 16        	sty	$16                     ; 0x16 <__rc6>
    562a: a0 01        	ldy	#$1
    562c: b1 14        	lda	($14),y                 ; 0x14 <__rc4>
    562e: 84 17        	sty	$17                     ; 0x17 <__rc7>
    5630: e8           	inx
    5631: d0 01        	bne	$5634 <_ZN12_GLOBAL__N_13putEcP6Status+0xc9>
    5633: 1a           	inc
    5634: 85 18        	sta	$18                     ; 0x18 <__rc8>
    5636: 8a           	txa
    5637: a4 16        	ldy	$16                     ; 0x16 <__rc6>
    5639: 91 12        	sta	($12),y                 ; 0x12 <__rc2>
    563b: a4 17        	ldy	$17                     ; 0x17 <__rc7>
    563d: a5 18        	lda	$18                     ; 0x18 <__rc8>
    563f: 91 14        	sta	($14),y                 ; 0x14 <__rc4>
    5641: 60           	rts

00005642 <_ZN12_GLOBAL__N_112print_stringEPKcP6Status>:
    5642: a6 12        	ldx	$12                     ; 0x12 <__rc2>
    5644: 86 ca        	stx	$ca                     ; 0xca <__zp_bss_size+0x8f>
    5646: a6 13        	ldx	$13                     ; 0x13 <__rc3>
    5648: 86 cb        	stx	$cb                     ; 0xcb <__zp_bss_size+0x90>
    564a: a6 14        	ldx	$14                     ; 0x14 <__rc4>
    564c: 86 cc        	stx	$cc                     ; 0xcc <__zp_bss_size+0x91>
    564e: a6 15        	ldx	$15                     ; 0x15 <__rc5>
    5650: 86 cd        	stx	$cd                     ; 0xcd <__zp_bss_size+0x92>
    5652: a5 cc        	lda	$cc                     ; 0xcc <__zp_bss_size+0x91>
    5654: 18           	clc
    5655: 69 0d        	adc	#$d
    5657: 85 12        	sta	$12                     ; 0x12 <__rc2>
    5659: a5 cd        	lda	$cd                     ; 0xcd <__zp_bss_size+0x92>
    565b: 69 00        	adc	#$0
    565d: 85 13        	sta	$13                     ; 0x13 <__rc3>
    565f: a0 01        	ldy	#$1
    5661: b1 12        	lda	($12),y                 ; 0x12 <__rc2>
    5663: 30 14        	bmi	$5679 <_ZN12_GLOBAL__N_112print_stringEPKcP6Status+0x37>
    5665: a0 0d        	ldy	#$d
    5667: aa           	tax
    5668: b1 cc        	lda	($cc),y                 ; 0xcc <__zp_bss_size+0x91>
    566a: 86 cf        	stx	$cf                     ; 0xcf <__zp_bss_size+0x94>
    566c: e0 00        	cpx	#$0
    566e: d0 0e        	bne	$567e <_ZN12_GLOBAL__N_112print_stringEPKcP6Status+0x3c>
    5670: aa           	tax
    5671: d0 0b        	bne	$567e <_ZN12_GLOBAL__N_112print_stringEPKcP6Status+0x3c>
    5673: 64 ce        	stz	$ce                     ; 0xce <__zp_bss_size+0x93>
    5675: 64 cf        	stz	$cf                     ; 0xcf <__zp_bss_size+0x94>
    5677: 80 36        	bra	$56af <_ZN12_GLOBAL__N_112print_stringEPKcP6Status+0x6d>
    5679: a9 ff        	lda	#$ff
    567b: aa           	tax
    567c: 86 cf        	stx	$cf                     ; 0xcf <__zp_bss_size+0x94>
    567e: 85 ce        	sta	$ce                     ; 0xce <__zp_bss_size+0x93>
    5680: 64 12        	stz	$12                     ; 0x12 <__rc2>
    5682: a4 ca        	ldy	$ca                     ; 0xca <__zp_bss_size+0x8f>
    5684: a6 cb        	ldx	$cb                     ; 0xcb <__zp_bss_size+0x90>
    5686: 86 16        	stx	$16                     ; 0x16 <__rc6>
    5688: 64 13        	stz	$13                     ; 0x13 <__rc3>
    568a: 98           	tya
    568b: 18           	clc
    568c: 65 12        	adc	$12                     ; 0x12 <__rc2>
    568e: 85 14        	sta	$14                     ; 0x14 <__rc4>
    5690: a5 cb        	lda	$cb                     ; 0xcb <__zp_bss_size+0x90>
    5692: 65 13        	adc	$13                     ; 0x13 <__rc3>
    5694: 85 15        	sta	$15                     ; 0x15 <__rc5>
    5696: b2 14        	lda	($14)                   ; 0x14 <__rc4>
    5698: d0 03        	bne	$569d <_ZN12_GLOBAL__N_112print_stringEPKcP6Status+0x5b>
    569a: 4c 46 57     	jmp	$5746 <_ZN12_GLOBAL__N_112print_stringEPKcP6Status+0x104>
    569d: e6 12        	inc	$12                     ; 0x12 <__rc2>
    569f: d0 02        	bne	$56a3 <_ZN12_GLOBAL__N_112print_stringEPKcP6Status+0x61>
    56a1: e6 13        	inc	$13                     ; 0x13 <__rc3>
    56a3: a6 cf        	ldx	$cf                     ; 0xcf <__zp_bss_size+0x94>
    56a5: e4 13        	cpx	$13                     ; 0x13 <__rc3>
    56a7: d0 e1        	bne	$568a <_ZN12_GLOBAL__N_112print_stringEPKcP6Status+0x48>
    56a9: a6 ce        	ldx	$ce                     ; 0xce <__zp_bss_size+0x93>
    56ab: e4 12        	cpx	$12                     ; 0x12 <__rc2>
    56ad: d0 db        	bne	$568a <_ZN12_GLOBAL__N_112print_stringEPKcP6Status+0x48>
    56af: a0 01        	ldy	#$1
    56b1: b1 cc        	lda	($cc),y                 ; 0xcc <__zp_bss_size+0x91>
    56b3: 29 01        	and	#$1
    56b5: f0 03        	beq	$56ba <_ZN12_GLOBAL__N_112print_stringEPKcP6Status+0x78>
    56b7: 4c 18 57     	jmp	$5718 <_ZN12_GLOBAL__N_112print_stringEPKcP6Status+0xd6>
    56ba: a5 cc        	lda	$cc                     ; 0xcc <__zp_bss_size+0x91>
    56bc: 18           	clc
    56bd: 69 0b        	adc	#$b
    56bf: 85 14        	sta	$14                     ; 0x14 <__rc4>
    56c1: a5 cd        	lda	$cd                     ; 0xcd <__zp_bss_size+0x92>
    56c3: 69 00        	adc	#$0
    56c5: 85 15        	sta	$15                     ; 0x15 <__rc5>
    56c7: 84 12        	sty	$12                     ; 0x12 <__rc2>
    56c9: a0 0b        	ldy	#$b
    56cb: b1 cc        	lda	($cc),y                 ; 0xcc <__zp_bss_size+0x91>
    56cd: 85 13        	sta	$13                     ; 0x13 <__rc3>
    56cf: a4 12        	ldy	$12                     ; 0x12 <__rc2>
    56d1: b1 14        	lda	($14),y                 ; 0x14 <__rc4>
    56d3: 85 12        	sta	$12                     ; 0x12 <__rc2>
    56d5: a6 cf        	ldx	$cf                     ; 0xcf <__zp_bss_size+0x94>
    56d7: e4 12        	cpx	$12                     ; 0x12 <__rc2>
    56d9: d0 08        	bne	$56e3 <_ZN12_GLOBAL__N_112print_stringEPKcP6Status+0xa1>
    56db: a6 ce        	ldx	$ce                     ; 0xce <__zp_bss_size+0x93>
    56dd: e4 13        	cpx	$13                     ; 0x13 <__rc3>
    56df: 90 06        	bcc	$56e7 <_ZN12_GLOBAL__N_112print_stringEPKcP6Status+0xa5>
    56e1: 80 35        	bra	$5718 <_ZN12_GLOBAL__N_112print_stringEPKcP6Status+0xd6>
    56e3: e4 12        	cpx	$12                     ; 0x12 <__rc2>
    56e5: b0 31        	bcs	$5718 <_ZN12_GLOBAL__N_112print_stringEPKcP6Status+0xd6>
    56e7: 38           	sec
    56e8: a5 ce        	lda	$ce                     ; 0xce <__zp_bss_size+0x93>
    56ea: e5 13        	sbc	$13                     ; 0x13 <__rc3>
    56ec: a8           	tay
    56ed: a5 cf        	lda	$cf                     ; 0xcf <__zp_bss_size+0x94>
    56ef: e5 12        	sbc	$12                     ; 0x12 <__rc2>
    56f1: 85 d1        	sta	$d1                     ; 0xd1 <__zp_bss_size+0x96>
    56f3: a2 20        	ldx	#$20
    56f5: 86 d2        	stx	$d2                     ; 0xd2 <__zp_bss_size+0x97>
    56f7: a6 cc        	ldx	$cc                     ; 0xcc <__zp_bss_size+0x91>
    56f9: 86 12        	stx	$12                     ; 0x12 <__rc2>
    56fb: a6 cd        	ldx	$cd                     ; 0xcd <__zp_bss_size+0x92>
    56fd: 86 13        	stx	$13                     ; 0x13 <__rc3>
    56ff: 84 d0        	sty	$d0                     ; 0xd0 <__zp_bss_size+0x95>
    5701: a5 d2        	lda	$d2                     ; 0xd2 <__zp_bss_size+0x97>
    5703: 20 6b 55     	jsr	$556b <_ZN12_GLOBAL__N_13putEcP6Status>
    5706: a6 d1        	ldx	$d1                     ; 0xd1 <__zp_bss_size+0x96>
    5708: e6 d0        	inc	$d0                     ; 0xd0 <__zp_bss_size+0x95>
    570a: d0 01        	bne	$570d <_ZN12_GLOBAL__N_112print_stringEPKcP6Status+0xcb>
    570c: e8           	inx
    570d: 86 d1        	stx	$d1                     ; 0xd1 <__zp_bss_size+0x96>
    570f: a4 d0        	ldy	$d0                     ; 0xd0 <__zp_bss_size+0x95>
    5711: 8a           	txa
    5712: d0 e3        	bne	$56f7 <_ZN12_GLOBAL__N_112print_stringEPKcP6Status+0xb5>
    5714: a5 d0        	lda	$d0                     ; 0xd0 <__zp_bss_size+0x95>
    5716: d0 df        	bne	$56f7 <_ZN12_GLOBAL__N_112print_stringEPKcP6Status+0xb5>
    5718: a5 cf        	lda	$cf                     ; 0xcf <__zp_bss_size+0x94>
    571a: d0 04        	bne	$5720 <_ZN12_GLOBAL__N_112print_stringEPKcP6Status+0xde>
    571c: a5 ce        	lda	$ce                     ; 0xce <__zp_bss_size+0x93>
    571e: f0 25        	beq	$5745 <_ZN12_GLOBAL__N_112print_stringEPKcP6Status+0x103>
    5720: a2 ff        	ldx	#$ff
    5722: c6 ce        	dec	$ce                     ; 0xce <__zp_bss_size+0x93>
    5724: e4 ce        	cpx	$ce                     ; 0xce <__zp_bss_size+0x93>
    5726: d0 02        	bne	$572a <_ZN12_GLOBAL__N_112print_stringEPKcP6Status+0xe8>
    5728: c6 cf        	dec	$cf                     ; 0xcf <__zp_bss_size+0x94>
    572a: b2 ca        	lda	($ca)                   ; 0xca <__zp_bss_size+0x8f>
    572c: e6 ca        	inc	$ca                     ; 0xca <__zp_bss_size+0x8f>
    572e: d0 02        	bne	$5732 <_ZN12_GLOBAL__N_112print_stringEPKcP6Status+0xf0>
    5730: e6 cb        	inc	$cb                     ; 0xcb <__zp_bss_size+0x90>
    5732: a6 cc        	ldx	$cc                     ; 0xcc <__zp_bss_size+0x91>
    5734: 86 12        	stx	$12                     ; 0x12 <__rc2>
    5736: a6 cd        	ldx	$cd                     ; 0xcd <__zp_bss_size+0x92>
    5738: 86 13        	stx	$13                     ; 0x13 <__rc3>
    573a: 20 6b 55     	jsr	$556b <_ZN12_GLOBAL__N_13putEcP6Status>
    573d: a5 cf        	lda	$cf                     ; 0xcf <__zp_bss_size+0x94>
    573f: d0 df        	bne	$5720 <_ZN12_GLOBAL__N_112print_stringEPKcP6Status+0xde>
    5741: a5 ce        	lda	$ce                     ; 0xce <__zp_bss_size+0x93>
    5743: d0 db        	bne	$5720 <_ZN12_GLOBAL__N_112print_stringEPKcP6Status+0xde>
    5745: 60           	rts
    5746: a6 12        	ldx	$12                     ; 0x12 <__rc2>
    5748: 86 ce        	stx	$ce                     ; 0xce <__zp_bss_size+0x93>
    574a: a6 13        	ldx	$13                     ; 0x13 <__rc3>
    574c: 86 cf        	stx	$cf                     ; 0xcf <__zp_bss_size+0x94>
    574e: 4c af 56     	jmp	$56af <_ZN12_GLOBAL__N_112print_stringEPKcP6Status+0x6d>

00005751 <printf>:
    5751: a6 12        	ldx	$12                     ; 0x12 <__rc2>
    5753: 86 7e        	stx	$7e                     ; 0x7e <__zp_bss_size+0x43>
    5755: a6 13        	ldx	$13                     ; 0x13 <__rc3>
    5757: 86 7f        	stx	$7f                     ; 0x7f <__zp_bss_size+0x44>
    5759: 18           	clc
    575a: a6 10        	ldx	$10                     ; 0x10 <__rc0>
    575c: a4 11        	ldy	$11                     ; 0x11 <__rc1>
    575e: 86 bf        	stx	$bf                     ; 0xbf <__zp_bss_size+0x84>
    5760: 84 c0        	sty	$c0                     ; 0xc0 <__zp_bss_size+0x85>
    5762: a6 bf        	ldx	$bf                     ; 0xbf <__zp_bss_size+0x84>
    5764: a4 c0        	ldy	$c0                     ; 0xc0 <__zp_bss_size+0x85>
    5766: 86 aa        	stx	$aa                     ; 0xaa <__zp_bss_size+0x6f>
    5768: 84 ab        	sty	$ab                     ; 0xab <__zp_bss_size+0x70>
    576a: a2 ff        	ldx	#$ff
    576c: 86 af        	stx	$af                     ; 0xaf <__zp_bss_size+0x74>
    576e: 86 b0        	stx	$b0                     ; 0xb0 <__zp_bss_size+0x75>
    5770: 64 b1        	stz	$b1                     ; 0xb1 <__zp_bss_size+0x76>
    5772: 64 b2        	stz	$b2                     ; 0xb2 <__zp_bss_size+0x77>
    5774: e8           	inx
    5775: 86 12        	stx	$12                     ; 0x12 <__rc2>
    5777: a2 00        	ldx	#$0
    5779: 86 13        	stx	$13                     ; 0x13 <__rc3>
    577b: a6 12        	ldx	$12                     ; 0x12 <__rc2>
    577d: a4 13        	ldy	$13                     ; 0x13 <__rc3>
    577f: 86 b5        	stx	$b5                     ; 0xb5 <__zp_bss_size+0x7a>
    5781: 84 b6        	sty	$b6                     ; 0xb6 <__zp_bss_size+0x7b>
    5783: a2 02        	ldx	#$2
    5785: 86 bb        	stx	$bb                     ; 0xbb <__zp_bss_size+0x80>
    5787: 64 bc        	stz	$bc                     ; 0xbc <__zp_bss_size+0x81>
    5789: a6 aa        	ldx	$aa                     ; 0xaa <__zp_bss_size+0x6f>
    578b: a4 ab        	ldy	$ab                     ; 0xab <__zp_bss_size+0x70>
    578d: 86 bd        	stx	$bd                     ; 0xbd <__zp_bss_size+0x82>
    578f: 84 be        	sty	$be                     ; 0xbe <__zp_bss_size+0x83>
    5791: a2 a1        	ldx	#$a1
    5793: a0 00        	ldy	#$0
    5795: 86 12        	stx	$12                     ; 0x12 <__rc2>
    5797: 84 13        	sty	$13                     ; 0x13 <__rc3>
    5799: a0 01        	ldy	#$1
    579b: a9 88        	lda	#$88
    579d: 18           	clc
    579e: 69 02        	adc	#$2
    57a0: 85 c8        	sta	$c8                     ; 0xc8 <__zp_bss_size+0x8d>
    57a2: a9 00        	lda	#$0
    57a4: 69 00        	adc	#$0
    57a6: 85 c9        	sta	$c9                     ; 0xc9 <__zp_bss_size+0x8e>
    57a8: e6 12        	inc	$12                     ; 0x12 <__rc2>
    57aa: d0 02        	bne	$57ae <printf+0x5d>
    57ac: e6 13        	inc	$13                     ; 0x13 <__rc3>
    57ae: a6 12        	ldx	$12                     ; 0x12 <__rc2>
    57b0: 86 c4        	stx	$c4                     ; 0xc4 <__zp_bss_size+0x89>
    57b2: a6 13        	ldx	$13                     ; 0x13 <__rc3>
    57b4: 86 c5        	stx	$c5                     ; 0xc5 <__zp_bss_size+0x8a>
    57b6: a6 7e        	ldx	$7e                     ; 0x7e <__zp_bss_size+0x43>
    57b8: 86 80        	stx	$80                     ; 0x80 <__zp_bss_size+0x45>
    57ba: a6 7f        	ldx	$7f                     ; 0x7f <__zp_bss_size+0x44>
    57bc: 86 81        	stx	$81                     ; 0x81 <__zp_bss_size+0x46>
    57be: b2 7e        	lda	($7e)                   ; 0x7e <__zp_bss_size+0x43>
    57c0: c9 25        	cmp	#$25
    57c2: f0 26        	beq	$57ea <printf+0x99>
    57c4: a2 00        	ldx	#$0
    57c6: c9 00        	cmp	#$0
    57c8: d0 03        	bne	$57cd <printf+0x7c>
    57ca: 4c 8a 64     	jmp	$648a <printf+0xd39>
    57cd: 84 7e        	sty	$7e                     ; 0x7e <__zp_bss_size+0x43>
    57cf: 20 8b 64     	jsr	$648b <putchar>
    57d2: a4 7e        	ldy	$7e                     ; 0x7e <__zp_bss_size+0x43>
    57d4: e6 80        	inc	$80                     ; 0x80 <__zp_bss_size+0x45>
    57d6: d0 02        	bne	$57da <printf+0x89>
    57d8: e6 81        	inc	$81                     ; 0x81 <__zp_bss_size+0x46>
    57da: e6 b1        	inc	$b1                     ; 0xb1 <__zp_bss_size+0x76>
    57dc: d0 02        	bne	$57e0 <printf+0x8f>
    57de: e6 b2        	inc	$b2                     ; 0xb2 <__zp_bss_size+0x77>
    57e0: a6 80        	ldx	$80                     ; 0x80 <__zp_bss_size+0x45>
    57e2: 86 7e        	stx	$7e                     ; 0x7e <__zp_bss_size+0x43>
    57e4: a6 81        	ldx	$81                     ; 0x81 <__zp_bss_size+0x46>
    57e6: 86 7f        	stx	$7f                     ; 0x7f <__zp_bss_size+0x44>
    57e8: 80 cc        	bra	$57b6 <printf+0x65>
    57ea: a6 7e        	ldx	$7e                     ; 0x7e <__zp_bss_size+0x43>
    57ec: 86 12        	stx	$12                     ; 0x12 <__rc2>
    57ee: a6 7f        	ldx	$7f                     ; 0x7f <__zp_bss_size+0x44>
    57f0: 86 13        	stx	$13                     ; 0x13 <__rc3>
    57f2: e6 12        	inc	$12                     ; 0x12 <__rc2>
    57f4: d0 02        	bne	$57f8 <printf+0xa7>
    57f6: e6 13        	inc	$13                     ; 0x13 <__rc3>
    57f8: b1 80        	lda	($80),y                 ; 0x80 <__zp_bss_size+0x45>
    57fa: c9 25        	cmp	#$25
    57fc: d0 18        	bne	$5816 <printf+0xc5>
    57fe: a2 01        	ldx	#$1
    5800: 86 13        	stx	$13                     ; 0x13 <__rc3>
    5802: a5 b1        	lda	$b1                     ; 0xb1 <__zp_bss_size+0x76>
    5804: a4 b2        	ldy	$b2                     ; 0xb2 <__zp_bss_size+0x77>
    5806: c4 b0        	cpy	$b0                     ; 0xb0 <__zp_bss_size+0x75>
    5808: f0 03        	beq	$580d <printf+0xbc>
    580a: 4c 26 59     	jmp	$5926 <printf+0x1d5>
    580d: a6 af        	ldx	$af                     ; 0xaf <__zp_bss_size+0x74>
    580f: 86 12        	stx	$12                     ; 0x12 <__rc2>
    5811: c5 12        	cmp	$12                     ; 0x12 <__rc2>
    5813: 4c 28 59     	jmp	$5928 <printf+0x1d7>
    5816: a2 01        	ldx	#$1
    5818: 86 15        	stx	$15                     ; 0x15 <__rc5>
    581a: 64 ad        	stz	$ad                     ; 0xad <__zp_bss_size+0x72>
    581c: 64 ae        	stz	$ae                     ; 0xae <__zp_bss_size+0x73>
    581e: 64 ac        	stz	$ac                     ; 0xac <__zp_bss_size+0x71>
    5820: 64 b7        	stz	$b7                     ; 0xb7 <__zp_bss_size+0x7c>
    5822: 64 b8        	stz	$b8                     ; 0xb8 <__zp_bss_size+0x7d>
    5824: a2 ff        	ldx	#$ff
    5826: 86 b9        	stx	$b9                     ; 0xb9 <__zp_bss_size+0x7e>
    5828: 86 ba        	stx	$ba                     ; 0xba <__zp_bss_size+0x7f>
    582a: 64 7c        	stz	$7c                     ; 0x7c <__zp_bss_size+0x41>
    582c: 80 33        	bra	$5861 <printf+0x110>
    582e: a2 02        	ldx	#$2
    5830: 80 15        	bra	$5847 <printf+0xf6>
    5832: e0 20        	cpx	#$20
    5834: f0 15        	beq	$584b <printf+0xfa>
    5836: 86 16        	stx	$16                     ; 0x16 <__rc6>
    5838: e0 23        	cpx	#$23
    583a: f0 03        	beq	$583f <printf+0xee>
    583c: 4c be 58     	jmp	$58be <printf+0x16d>
    583f: a5 7c        	lda	$7c                     ; 0x7c <__zp_bss_size+0x41>
    5841: a2 04        	ldx	#$4
    5843: 80 02        	bra	$5847 <printf+0xf6>
    5845: a2 10        	ldx	#$10
    5847: 86 14        	stx	$14                     ; 0x14 <__rc4>
    5849: 80 06        	bra	$5851 <printf+0x100>
    584b: a2 08        	ldx	#$8
    584d: 86 14        	stx	$14                     ; 0x14 <__rc4>
    584f: a5 7c        	lda	$7c                     ; 0x7c <__zp_bss_size+0x41>
    5851: 05 14        	ora	$14                     ; 0x14 <__rc4>
    5853: 85 7c        	sta	$7c                     ; 0x7c <__zp_bss_size+0x41>
    5855: 85 ad        	sta	$ad                     ; 0xad <__zp_bss_size+0x72>
    5857: a2 00        	ldx	#$0
    5859: 86 ae        	stx	$ae                     ; 0xae <__zp_bss_size+0x73>
    585b: e6 12        	inc	$12                     ; 0x12 <__rc2>
    585d: d0 02        	bne	$5861 <printf+0x110>
    585f: e6 13        	inc	$13                     ; 0x13 <__rc3>
    5861: b2 12        	lda	($12)                   ; 0x12 <__rc2>
    5863: 18           	clc
    5864: aa           	tax
    5865: 69 d6        	adc	#$d6
    5867: c9 07        	cmp	#$7
    5869: b0 c7        	bcs	$5832 <printf+0xe1>
    586b: 86 16        	stx	$16                     ; 0x16 <__rc6>
    586d: 0a           	asl
    586e: aa           	tax
    586f: a0 01        	ldy	#$1
    5871: 84 14        	sty	$14                     ; 0x14 <__rc4>
    5873: a5 7c        	lda	$7c                     ; 0x7c <__zp_bss_size+0x41>
    5875: 7c 54 6c     	jmp	($6c54,x)               ; 0x6c54 <__BLOCK_SIZE+0x4c54>
    5878: a5 bd        	lda	$bd                     ; 0xbd <__zp_bss_size+0x82>
    587a: a6 be        	ldx	$be                     ; 0xbe <__zp_bss_size+0x83>
    587c: 85 16        	sta	$16                     ; 0x16 <__rc6>
    587e: 86 17        	stx	$17                     ; 0x17 <__rc7>
    5880: 18           	clc
    5881: 69 02        	adc	#$2
    5883: a8           	tay
    5884: 8a           	txa
    5885: 69 00        	adc	#$0
    5887: 84 bd        	sty	$bd                     ; 0xbd <__zp_bss_size+0x82>
    5889: 85 be        	sta	$be                     ; 0xbe <__zp_bss_size+0x83>
    588b: b2 16        	lda	($16)                   ; 0x16 <__rc6>
    588d: 85 15        	sta	$15                     ; 0x15 <__rc5>
    588f: a0 01        	ldy	#$1
    5891: b1 16        	lda	($16),y                 ; 0x16 <__rc6>
    5893: 85 14        	sta	$14                     ; 0x14 <__rc4>
    5895: 10 15        	bpl	$58ac <printf+0x15b>
    5897: a5 7c        	lda	$7c                     ; 0x7c <__zp_bss_size+0x41>
    5899: 09 01        	ora	#$1
    589b: 85 7c        	sta	$7c                     ; 0x7c <__zp_bss_size+0x41>
    589d: 85 ad        	sta	$ad                     ; 0xad <__zp_bss_size+0x72>
    589f: a2 00        	ldx	#$0
    58a1: 86 ae        	stx	$ae                     ; 0xae <__zp_bss_size+0x73>
    58a3: 8a           	txa
    58a4: 38           	sec
    58a5: e5 15        	sbc	$15                     ; 0x15 <__rc5>
    58a7: 85 15        	sta	$15                     ; 0x15 <__rc5>
    58a9: 8a           	txa
    58aa: e5 14        	sbc	$14                     ; 0x14 <__rc4>
    58ac: a6 15        	ldx	$15                     ; 0x15 <__rc5>
    58ae: 86 b7        	stx	$b7                     ; 0xb7 <__zp_bss_size+0x7c>
    58b0: 85 b8        	sta	$b8                     ; 0xb8 <__zp_bss_size+0x7d>
    58b2: e6 12        	inc	$12                     ; 0x12 <__rc2>
    58b4: f0 03        	beq	$58b9 <printf+0x168>
    58b6: 4c 89 59     	jmp	$5989 <printf+0x238>
    58b9: e6 13        	inc	$13                     ; 0x13 <__rc3>
    58bb: 4c 89 59     	jmp	$5989 <printf+0x238>
    58be: 18           	clc
    58bf: a5 16        	lda	$16                     ; 0x16 <__rc6>
    58c1: 69 d0        	adc	#$d0
    58c3: c9 0a        	cmp	#$a
    58c5: 90 03        	bcc	$58ca <printf+0x179>
    58c7: 4c 7b 59     	jmp	$597b <printf+0x22a>
    58ca: a6 16        	ldx	$16                     ; 0x16 <__rc6>
    58cc: 86 14        	stx	$14                     ; 0x14 <__rc4>
    58ce: 64 16        	stz	$16                     ; 0x16 <__rc6>
    58d0: 64 15        	stz	$15                     ; 0x15 <__rc5>
    58d2: 64 17        	stz	$17                     ; 0x17 <__rc7>
    58d4: a0 01        	ldy	#$1
    58d6: a2 00        	ldx	#$0
    58d8: 06 16        	asl	$16                     ; 0x16 <__rc6>
    58da: 26 17        	rol	$17                     ; 0x17 <__rc7>
    58dc: a5 16        	lda	$16                     ; 0x16 <__rc6>
    58de: 0a           	asl
    58df: 85 18        	sta	$18                     ; 0x18 <__rc8>
    58e1: a5 17        	lda	$17                     ; 0x17 <__rc7>
    58e3: 2a           	rol
    58e4: 06 18        	asl	$18                     ; 0x18 <__rc8>
    58e6: 2a           	rol
    58e7: 85 19        	sta	$19                     ; 0x19 <__rc9>
    58e9: a5 18        	lda	$18                     ; 0x18 <__rc8>
    58eb: 18           	clc
    58ec: 65 16        	adc	$16                     ; 0x16 <__rc6>
    58ee: 85 16        	sta	$16                     ; 0x16 <__rc6>
    58f0: a5 19        	lda	$19                     ; 0x19 <__rc9>
    58f2: 65 17        	adc	$17                     ; 0x17 <__rc7>
    58f4: 85 17        	sta	$17                     ; 0x17 <__rc7>
    58f6: a5 16        	lda	$16                     ; 0x16 <__rc6>
    58f8: 18           	clc
    58f9: 65 14        	adc	$14                     ; 0x14 <__rc4>
    58fb: 85 14        	sta	$14                     ; 0x14 <__rc4>
    58fd: a5 17        	lda	$17                     ; 0x17 <__rc7>
    58ff: 65 15        	adc	$15                     ; 0x15 <__rc5>
    5901: 85 15        	sta	$15                     ; 0x15 <__rc5>
    5903: 18           	clc
    5904: a5 14        	lda	$14                     ; 0x14 <__rc4>
    5906: 69 d0        	adc	#$d0
    5908: 85 16        	sta	$16                     ; 0x16 <__rc6>
    590a: a5 15        	lda	$15                     ; 0x15 <__rc5>
    590c: 69 ff        	adc	#$ff
    590e: 85 17        	sta	$17                     ; 0x17 <__rc7>
    5910: b1 12        	lda	($12),y                 ; 0x12 <__rc2>
    5912: 85 14        	sta	$14                     ; 0x14 <__rc4>
    5914: 18           	clc
    5915: 69 d0        	adc	#$d0
    5917: e6 12        	inc	$12                     ; 0x12 <__rc2>
    5919: d0 02        	bne	$591d <printf+0x1cc>
    591b: e6 13        	inc	$13                     ; 0x13 <__rc3>
    591d: c9 0a        	cmp	#$a
    591f: 64 15        	stz	$15                     ; 0x15 <__rc5>
    5921: 90 b5        	bcc	$58d8 <printf+0x187>
    5923: 4c 81 59     	jmp	$5981 <printf+0x230>
    5926: c4 b0        	cpy	$b0                     ; 0xb0 <__zp_bss_size+0x75>
    5928: 84 16        	sty	$16                     ; 0x16 <__rc6>
    592a: a4 13        	ldy	$13                     ; 0x13 <__rc3>
    592c: b0 37        	bcs	$5965 <printf+0x214>
    592e: a2 01        	ldx	#$1
    5930: 86 14        	stx	$14                     ; 0x14 <__rc4>
    5932: a6 bc        	ldx	$bc                     ; 0xbc <__zp_bss_size+0x81>
    5934: a0 00        	ldy	#$0
    5936: 84 12        	sty	$12                     ; 0x12 <__rc2>
    5938: a0 00        	ldy	#$0
    593a: 84 13        	sty	$13                     ; 0x13 <__rc3>
    593c: e4 13        	cpx	$13                     ; 0x13 <__rc3>
    593e: d0 19        	bne	$5959 <printf+0x208>
    5940: a6 bb        	ldx	$bb                     ; 0xbb <__zp_bss_size+0x80>
    5942: e4 12        	cpx	$12                     ; 0x12 <__rc2>
    5944: d0 13        	bne	$5959 <printf+0x208>
    5946: a4 14        	ldy	$14                     ; 0x14 <__rc4>
    5948: 18           	clc
    5949: 65 b5        	adc	$b5                     ; 0xb5 <__zp_bss_size+0x7a>
    594b: 85 12        	sta	$12                     ; 0x12 <__rc2>
    594d: a5 16        	lda	$16                     ; 0x16 <__rc6>
    594f: 65 b6        	adc	$b6                     ; 0xb6 <__zp_bss_size+0x7b>
    5951: 85 13        	sta	$13                     ; 0x13 <__rc3>
    5953: a9 25        	lda	#$25
    5955: 92 12        	sta	($12)                   ; 0x12 <__rc2>
    5957: 80 0c        	bra	$5965 <printf+0x214>
    5959: a2 01        	ldx	#$1
    595b: 86 7e        	stx	$7e                     ; 0x7e <__zp_bss_size+0x43>
    595d: ca           	dex
    595e: a9 25        	lda	#$25
    5960: 20 8b 64     	jsr	$648b <putchar>
    5963: a4 7e        	ldy	$7e                     ; 0x7e <__zp_bss_size+0x43>
    5965: e6 b1        	inc	$b1                     ; 0xb1 <__zp_bss_size+0x76>
    5967: d0 02        	bne	$596b <printf+0x21a>
    5969: e6 b2        	inc	$b2                     ; 0xb2 <__zp_bss_size+0x77>
    596b: a5 80        	lda	$80                     ; 0x80 <__zp_bss_size+0x45>
    596d: 18           	clc
    596e: 69 02        	adc	#$2
    5970: 85 7e        	sta	$7e                     ; 0x7e <__zp_bss_size+0x43>
    5972: a5 81        	lda	$81                     ; 0x81 <__zp_bss_size+0x46>
    5974: 69 00        	adc	#$0
    5976: 85 7f        	sta	$7f                     ; 0x7f <__zp_bss_size+0x44>
    5978: 4c b6 57     	jmp	$57b6 <printf+0x65>
    597b: 64 16        	stz	$16                     ; 0x16 <__rc6>
    597d: 64 17        	stz	$17                     ; 0x17 <__rc7>
    597f: a4 15        	ldy	$15                     ; 0x15 <__rc5>
    5981: a6 16        	ldx	$16                     ; 0x16 <__rc6>
    5983: 86 b7        	stx	$b7                     ; 0xb7 <__zp_bss_size+0x7c>
    5985: a5 17        	lda	$17                     ; 0x17 <__rc7>
    5987: 85 b8        	sta	$b8                     ; 0xb8 <__zp_bss_size+0x7d>
    5989: 86 1a        	stx	$1a                     ; 0x1a <__rc10>
    598b: 85 1e        	sta	$1e                     ; 0x1e <__rc14>
    598d: b2 12        	lda	($12)                   ; 0x12 <__rc2>
    598f: a2 ff        	ldx	#$ff
    5991: c9 2e        	cmp	#$2e
    5993: d0 39        	bne	$59ce <printf+0x27d>
    5995: b1 12        	lda	($12),y                 ; 0x12 <__rc2>
    5997: c9 2a        	cmp	#$2a
    5999: d0 38        	bne	$59d3 <printf+0x282>
    599b: a5 bd        	lda	$bd                     ; 0xbd <__zp_bss_size+0x82>
    599d: a6 be        	ldx	$be                     ; 0xbe <__zp_bss_size+0x83>
    599f: 85 14        	sta	$14                     ; 0x14 <__rc4>
    59a1: 86 15        	stx	$15                     ; 0x15 <__rc5>
    59a3: 18           	clc
    59a4: 69 02        	adc	#$2
    59a6: 85 16        	sta	$16                     ; 0x16 <__rc6>
    59a8: 8a           	txa
    59a9: 69 00        	adc	#$0
    59ab: a6 16        	ldx	$16                     ; 0x16 <__rc6>
    59ad: 86 bd        	stx	$bd                     ; 0xbd <__zp_bss_size+0x82>
    59af: 85 be        	sta	$be                     ; 0xbe <__zp_bss_size+0x83>
    59b1: a5 12        	lda	$12                     ; 0x12 <__rc2>
    59b3: 18           	clc
    59b4: 69 02        	adc	#$2
    59b6: 85 12        	sta	$12                     ; 0x12 <__rc2>
    59b8: a5 13        	lda	$13                     ; 0x13 <__rc3>
    59ba: 69 00        	adc	#$0
    59bc: 85 13        	sta	$13                     ; 0x13 <__rc3>
    59be: b2 14        	lda	($14)                   ; 0x14 <__rc4>
    59c0: aa           	tax
    59c1: b1 14        	lda	($14),y                 ; 0x14 <__rc4>
    59c3: 86 18        	stx	$18                     ; 0x18 <__rc8>
    59c5: 86 b9        	stx	$b9                     ; 0xb9 <__zp_bss_size+0x7e>
    59c7: 85 19        	sta	$19                     ; 0x19 <__rc9>
    59c9: 85 ba        	sta	$ba                     ; 0xba <__zp_bss_size+0x7f>
    59cb: 4c 91 5a     	jmp	$5a91 <printf+0x340>
    59ce: 86 18        	stx	$18                     ; 0x18 <__rc8>
    59d0: 4c a1 5a     	jmp	$5aa1 <printf+0x350>
    59d3: 85 17        	sta	$17                     ; 0x17 <__rc7>
    59d5: 18           	clc
    59d6: 69 d0        	adc	#$d0
    59d8: c9 0a        	cmp	#$a
    59da: 90 03        	bcc	$59df <printf+0x28e>
    59dc: 4c 83 5a     	jmp	$5a83 <printf+0x332>
    59df: 64 16        	stz	$16                     ; 0x16 <__rc6>
    59e1: a2 01        	ldx	#$1
    59e3: 64 18        	stz	$18                     ; 0x18 <__rc8>
    59e5: 64 19        	stz	$19                     ; 0x19 <__rc9>
    59e7: 84 1b        	sty	$1b                     ; 0x1b <__rc11>
    59e9: 64 1c        	stz	$1c                     ; 0x1c <__rc12>
    59eb: 18           	clc
    59ec: a0 01        	ldy	#$1
    59ee: b0 02        	bcs	$59f2 <printf+0x2a1>
    59f0: a0 00        	ldy	#$0
    59f2: 84 1d        	sty	$1d                     ; 0x1d <__rc13>
    59f4: a4 1c        	ldy	$1c                     ; 0x1c <__rc12>
    59f6: 84 14        	sty	$14                     ; 0x14 <__rc4>
    59f8: 86 15        	stx	$15                     ; 0x15 <__rc5>
    59fa: 06 18        	asl	$18                     ; 0x18 <__rc8>
    59fc: 26 19        	rol	$19                     ; 0x19 <__rc9>
    59fe: a5 18        	lda	$18                     ; 0x18 <__rc8>
    5a00: 0a           	asl
    5a01: a8           	tay
    5a02: a5 19        	lda	$19                     ; 0x19 <__rc9>
    5a04: 2a           	rol
    5a05: 84 1f        	sty	$1f                     ; 0x1f <__rc15>
    5a07: 06 1f        	asl	$1f                     ; 0x1f <__rc15>
    5a09: 2a           	rol
    5a0a: 85 22        	sta	$22                     ; 0x22 <__rc18>
    5a0c: a5 1f        	lda	$1f                     ; 0x1f <__rc15>
    5a0e: a4 1d        	ldy	$1d                     ; 0x1d <__rc13>
    5a10: c0 01        	cpy	#$1
    5a12: 65 18        	adc	$18                     ; 0x18 <__rc8>
    5a14: 85 18        	sta	$18                     ; 0x18 <__rc8>
    5a16: a5 22        	lda	$22                     ; 0x22 <__rc18>
    5a18: 65 19        	adc	$19                     ; 0x19 <__rc9>
    5a1a: 85 19        	sta	$19                     ; 0x19 <__rc9>
    5a1c: a5 18        	lda	$18                     ; 0x18 <__rc8>
    5a1e: a4 1d        	ldy	$1d                     ; 0x1d <__rc13>
    5a20: c0 01        	cpy	#$1
    5a22: 65 17        	adc	$17                     ; 0x17 <__rc7>
    5a24: 85 17        	sta	$17                     ; 0x17 <__rc7>
    5a26: a5 19        	lda	$19                     ; 0x19 <__rc9>
    5a28: 65 16        	adc	$16                     ; 0x16 <__rc6>
    5a2a: 85 16        	sta	$16                     ; 0x16 <__rc6>
    5a2c: 18           	clc
    5a2d: a5 17        	lda	$17                     ; 0x17 <__rc7>
    5a2f: 69 d0        	adc	#$d0
    5a31: 85 18        	sta	$18                     ; 0x18 <__rc8>
    5a33: a5 16        	lda	$16                     ; 0x16 <__rc6>
    5a35: 69 ff        	adc	#$ff
    5a37: 85 19        	sta	$19                     ; 0x19 <__rc9>
    5a39: e8           	inx
    5a3a: d0 02        	bne	$5a3e <printf+0x2ed>
    5a3c: e6 1c        	inc	$1c                     ; 0x1c <__rc12>
    5a3e: a5 12        	lda	$12                     ; 0x12 <__rc2>
    5a40: a4 1d        	ldy	$1d                     ; 0x1d <__rc13>
    5a42: c0 01        	cpy	#$1
    5a44: 65 15        	adc	$15                     ; 0x15 <__rc5>
    5a46: a8           	tay
    5a47: a5 13        	lda	$13                     ; 0x13 <__rc3>
    5a49: 65 14        	adc	$14                     ; 0x14 <__rc4>
    5a4b: 84 16        	sty	$16                     ; 0x16 <__rc6>
    5a4d: 85 17        	sta	$17                     ; 0x17 <__rc7>
    5a4f: a4 1b        	ldy	$1b                     ; 0x1b <__rc11>
    5a51: b1 16        	lda	($16),y                 ; 0x16 <__rc6>
    5a53: 85 17        	sta	$17                     ; 0x17 <__rc7>
    5a55: 18           	clc
    5a56: 69 d0        	adc	#$d0
    5a58: c9 0a        	cmp	#$a
    5a5a: 64 16        	stz	$16                     ; 0x16 <__rc6>
    5a5c: b0 03        	bcs	$5a61 <printf+0x310>
    5a5e: 4c f4 59     	jmp	$59f4 <printf+0x2a3>
    5a61: a5 12        	lda	$12                     ; 0x12 <__rc2>
    5a63: a6 1d        	ldx	$1d                     ; 0x1d <__rc13>
    5a65: e0 01        	cpx	#$1
    5a67: 65 15        	adc	$15                     ; 0x15 <__rc5>
    5a69: 85 12        	sta	$12                     ; 0x12 <__rc2>
    5a6b: a5 13        	lda	$13                     ; 0x13 <__rc3>
    5a6d: 65 14        	adc	$14                     ; 0x14 <__rc4>
    5a6f: 85 13        	sta	$13                     ; 0x13 <__rc3>
    5a71: e6 12        	inc	$12                     ; 0x12 <__rc2>
    5a73: d0 02        	bne	$5a77 <printf+0x326>
    5a75: e6 13        	inc	$13                     ; 0x13 <__rc3>
    5a77: a6 18        	ldx	$18                     ; 0x18 <__rc8>
    5a79: 86 b9        	stx	$b9                     ; 0xb9 <__zp_bss_size+0x7e>
    5a7b: a6 19        	ldx	$19                     ; 0x19 <__rc9>
    5a7d: 86 ba        	stx	$ba                     ; 0xba <__zp_bss_size+0x7f>
    5a7f: a4 1b        	ldy	$1b                     ; 0x1b <__rc11>
    5a81: 80 0e        	bra	$5a91 <printf+0x340>
    5a83: e6 12        	inc	$12                     ; 0x12 <__rc2>
    5a85: d0 02        	bne	$5a89 <printf+0x338>
    5a87: e6 13        	inc	$13                     ; 0x13 <__rc3>
    5a89: 64 18        	stz	$18                     ; 0x18 <__rc8>
    5a8b: 64 b9        	stz	$b9                     ; 0xb9 <__zp_bss_size+0x7e>
    5a8d: 64 ba        	stz	$ba                     ; 0xba <__zp_bss_size+0x7f>
    5a8f: 64 19        	stz	$19                     ; 0x19 <__rc9>
    5a91: a5 7c        	lda	$7c                     ; 0x7c <__zp_bss_size+0x41>
    5a93: 29 ef        	and	#$ef
    5a95: 85 7c        	sta	$7c                     ; 0x7c <__zp_bss_size+0x41>
    5a97: 85 ad        	sta	$ad                     ; 0xad <__zp_bss_size+0x72>
    5a99: a2 00        	ldx	#$0
    5a9b: 86 ae        	stx	$ae                     ; 0xae <__zp_bss_size+0x73>
    5a9d: b2 12        	lda	($12)                   ; 0x12 <__rc2>
    5a9f: a6 19        	ldx	$19                     ; 0x19 <__rc9>
    5aa1: 86 15        	stx	$15                     ; 0x15 <__rc5>
    5aa3: a6 12        	ldx	$12                     ; 0x12 <__rc2>
    5aa5: 86 7e        	stx	$7e                     ; 0x7e <__zp_bss_size+0x43>
    5aa7: a6 13        	ldx	$13                     ; 0x13 <__rc3>
    5aa9: 86 7f        	stx	$7f                     ; 0x7f <__zp_bss_size+0x44>
    5aab: e6 7e        	inc	$7e                     ; 0x7e <__zp_bss_size+0x43>
    5aad: d0 02        	bne	$5ab1 <printf+0x360>
    5aaf: e6 7f        	inc	$7f                     ; 0x7f <__zp_bss_size+0x44>
    5ab1: 85 14        	sta	$14                     ; 0x14 <__rc4>
    5ab3: 38           	sec
    5ab4: e9 6c        	sbc	#$6c
    5ab6: 50 02        	bvc	$5aba <printf+0x369>
    5ab8: 49 80        	eor	#$80
    5aba: aa           	tax
    5abb: 10 21        	bpl	$5ade <printf+0x38d>
    5abd: a6 14        	ldx	$14                     ; 0x14 <__rc4>
    5abf: e0 4c        	cpx	#$4c
    5ac1: f0 37        	beq	$5afa <printf+0x3a9>
    5ac3: e0 68        	cpx	#$68
    5ac5: d0 03        	bne	$5aca <printf+0x379>
    5ac7: 4c 75 5b     	jmp	$5b75 <printf+0x424>
    5aca: a4 14        	ldy	$14                     ; 0x14 <__rc4>
    5acc: a9 01        	lda	#$1
    5ace: a2 08        	ldx	#$8
    5ad0: c0 6a        	cpy	#$6a
    5ad2: d0 22        	bne	$5af6 <printf+0x3a5>
    5ad4: a4 7e        	ldy	$7e                     ; 0x7e <__zp_bss_size+0x43>
    5ad6: 84 12        	sty	$12                     ; 0x12 <__rc2>
    5ad8: a4 7f        	ldy	$7f                     ; 0x7f <__zp_bss_size+0x44>
    5ada: 84 13        	sty	$13                     ; 0x13 <__rc3>
    5adc: 80 52        	bra	$5b30 <printf+0x3df>
    5ade: a6 14        	ldx	$14                     ; 0x14 <__rc4>
    5ae0: e0 6c        	cpx	#$6c
    5ae2: f0 31        	beq	$5b15 <printf+0x3c4>
    5ae4: e0 74        	cpx	#$74
    5ae6: f0 1e        	beq	$5b06 <printf+0x3b5>
    5ae8: a9 01        	lda	#$1
    5aea: e0 7a        	cpx	#$7a
    5aec: d0 08        	bne	$5af6 <printf+0x3a5>
    5aee: a6 7e        	ldx	$7e                     ; 0x7e <__zp_bss_size+0x43>
    5af0: 86 12        	stx	$12                     ; 0x12 <__rc2>
    5af2: a6 7f        	ldx	$7f                     ; 0x7f <__zp_bss_size+0x44>
    5af4: 86 13        	stx	$13                     ; 0x13 <__rc3>
    5af6: a2 02        	ldx	#$2
    5af8: 80 17        	bra	$5b11 <printf+0x3c0>
    5afa: a5 7c        	lda	$7c                     ; 0x7c <__zp_bss_size+0x41>
    5afc: 09 40        	ora	#$40
    5afe: 85 7c        	sta	$7c                     ; 0x7c <__zp_bss_size+0x41>
    5b00: 85 ad        	sta	$ad                     ; 0xad <__zp_bss_size+0x72>
    5b02: a2 00        	ldx	#$0
    5b04: 86 ae        	stx	$ae                     ; 0xae <__zp_bss_size+0x73>
    5b06: a6 7e        	ldx	$7e                     ; 0x7e <__zp_bss_size+0x43>
    5b08: 86 12        	stx	$12                     ; 0x12 <__rc2>
    5b0a: a6 7f        	ldx	$7f                     ; 0x7f <__zp_bss_size+0x44>
    5b0c: 86 13        	stx	$13                     ; 0x13 <__rc3>
    5b0e: a2 02        	ldx	#$2
    5b10: 98           	tya
    5b11: a0 02        	ldy	#$2
    5b13: 80 1d        	bra	$5b32 <printf+0x3e1>
    5b15: b1 12        	lda	($12),y                 ; 0x12 <__rc2>
    5b17: a2 04        	ldx	#$4
    5b19: c9 6c        	cmp	#$6c
    5b1b: f0 03        	beq	$5b20 <printf+0x3cf>
    5b1d: 4c 92 5b     	jmp	$5b92 <printf+0x441>
    5b20: a5 12        	lda	$12                     ; 0x12 <__rc2>
    5b22: 18           	clc
    5b23: 69 02        	adc	#$2
    5b25: 85 12        	sta	$12                     ; 0x12 <__rc2>
    5b27: a5 13        	lda	$13                     ; 0x13 <__rc3>
    5b29: 69 00        	adc	#$0
    5b2b: 85 13        	sta	$13                     ; 0x13 <__rc3>
    5b2d: a2 08        	ldx	#$8
    5b2f: 98           	tya
    5b30: a0 08        	ldy	#$8
    5b32: 84 7d        	sty	$7d                     ; 0x7d <__zp_bss_size+0x42>
    5b34: a8           	tay
    5b35: b2 12        	lda	($12)                   ; 0x12 <__rc2>
    5b37: 5a           	phy
    5b38: a4 12        	ldy	$12                     ; 0x12 <__rc2>
    5b3a: 84 7e        	sty	$7e                     ; 0x7e <__zp_bss_size+0x43>
    5b3c: a4 13        	ldy	$13                     ; 0x13 <__rc3>
    5b3e: 84 7f        	sty	$7f                     ; 0x7f <__zp_bss_size+0x44>
    5b40: 7a           	ply
    5b41: 86 86        	stx	$86                     ; 0x86 <__zp_bss_size+0x4b>
    5b43: aa           	tax
    5b44: 18           	clc
    5b45: 69 9d        	adc	#$9d
    5b47: c9 16        	cmp	#$16
    5b49: b0 4c        	bcs	$5b97 <printf+0x446>
    5b4b: 0a           	asl
    5b4c: aa           	tax
    5b4d: 7c 62 6c     	jmp	($6c62,x)               ; 0x6c62 <__BLOCK_SIZE+0x4c62>
    5b50: a6 7e        	ldx	$7e                     ; 0x7e <__zp_bss_size+0x43>
    5b52: 86 c2        	stx	$c2                     ; 0xc2 <__zp_bss_size+0x87>
    5b54: a6 7f        	ldx	$7f                     ; 0x7f <__zp_bss_size+0x44>
    5b56: 86 c3        	stx	$c3                     ; 0xc3 <__zp_bss_size+0x88>
    5b58: a6 15        	ldx	$15                     ; 0x15 <__rc5>
    5b5a: 86 c6        	stx	$c6                     ; 0xc6 <__zp_bss_size+0x8b>
    5b5c: a6 18        	ldx	$18                     ; 0x18 <__rc8>
    5b5e: 86 c1        	stx	$c1                     ; 0xc1 <__zp_bss_size+0x86>
    5b60: a6 1e        	ldx	$1e                     ; 0x1e <__rc14>
    5b62: 86 c7        	stx	$c7                     ; 0xc7 <__zp_bss_size+0x8c>
    5b64: a6 1a        	ldx	$1a                     ; 0x1a <__rc10>
    5b66: 86 85        	stx	$85                     ; 0x85 <__zp_bss_size+0x4a>
    5b68: a0 0a        	ldy	#$a
    5b6a: a2 0a        	ldx	#$a
    5b6c: 86 87        	stx	$87                     ; 0x87 <__zp_bss_size+0x4c>
    5b6e: 84 ac        	sty	$ac                     ; 0xac <__zp_bss_size+0x71>
    5b70: 64 84        	stz	$84                     ; 0x84 <__zp_bss_size+0x49>
    5b72: 4c e4 5c     	jmp	$5ce4 <printf+0x593>
    5b75: b1 12        	lda	($12),y                 ; 0x12 <__rc2>
    5b77: a2 02        	ldx	#$2
    5b79: c9 68        	cmp	#$68
    5b7b: d0 15        	bne	$5b92 <printf+0x441>
    5b7d: a5 12        	lda	$12                     ; 0x12 <__rc2>
    5b7f: 18           	clc
    5b80: 69 02        	adc	#$2
    5b82: 85 12        	sta	$12                     ; 0x12 <__rc2>
    5b84: a5 13        	lda	$13                     ; 0x13 <__rc3>
    5b86: 69 00        	adc	#$0
    5b88: 85 13        	sta	$13                     ; 0x13 <__rc3>
    5b8a: a2 01        	ldx	#$1
    5b8c: 86 7d        	stx	$7d                     ; 0x7d <__zp_bss_size+0x42>
    5b8e: e8           	inx
    5b8f: 4c 35 5b     	jmp	$5b35 <printf+0x3e4>
    5b92: 86 7d        	stx	$7d                     ; 0x7d <__zp_bss_size+0x42>
    5b94: 4c 41 5b     	jmp	$5b41 <printf+0x3f0>
    5b97: e0 58        	cpx	#$58
    5b99: f0 03        	beq	$5b9e <printf+0x44d>
    5b9b: 4c 3f 64     	jmp	$643f <printf+0xcee>
    5b9e: a6 7e        	ldx	$7e                     ; 0x7e <__zp_bss_size+0x43>
    5ba0: 86 c2        	stx	$c2                     ; 0xc2 <__zp_bss_size+0x87>
    5ba2: a6 7f        	ldx	$7f                     ; 0x7f <__zp_bss_size+0x44>
    5ba4: 86 c3        	stx	$c3                     ; 0xc3 <__zp_bss_size+0x88>
    5ba6: a6 15        	ldx	$15                     ; 0x15 <__rc5>
    5ba8: 86 c6        	stx	$c6                     ; 0xc6 <__zp_bss_size+0x8b>
    5baa: a6 18        	ldx	$18                     ; 0x18 <__rc8>
    5bac: 86 c1        	stx	$c1                     ; 0xc1 <__zp_bss_size+0x86>
    5bae: a6 1e        	ldx	$1e                     ; 0x1e <__rc14>
    5bb0: 86 c7        	stx	$c7                     ; 0xc7 <__zp_bss_size+0x8c>
    5bb2: a6 1a        	ldx	$1a                     ; 0x1a <__rc10>
    5bb4: 86 85        	stx	$85                     ; 0x85 <__zp_bss_size+0x4a>
    5bb6: a2 10        	ldx	#$10
    5bb8: 86 ac        	stx	$ac                     ; 0xac <__zp_bss_size+0x71>
    5bba: a9 00        	lda	#$0
    5bbc: 09 01        	ora	#$1
    5bbe: a6 7c        	ldx	$7c                     ; 0x7c <__zp_bss_size+0x41>
    5bc0: 80 49        	bra	$5c0b <printf+0x4ba>
    5bc2: a6 7e        	ldx	$7e                     ; 0x7e <__zp_bss_size+0x43>
    5bc4: 86 c2        	stx	$c2                     ; 0xc2 <__zp_bss_size+0x87>
    5bc6: a6 7f        	ldx	$7f                     ; 0x7f <__zp_bss_size+0x44>
    5bc8: 86 c3        	stx	$c3                     ; 0xc3 <__zp_bss_size+0x88>
    5bca: a6 15        	ldx	$15                     ; 0x15 <__rc5>
    5bcc: 86 c6        	stx	$c6                     ; 0xc6 <__zp_bss_size+0x8b>
    5bce: a6 18        	ldx	$18                     ; 0x18 <__rc8>
    5bd0: 86 c1        	stx	$c1                     ; 0xc1 <__zp_bss_size+0x86>
    5bd2: a6 1e        	ldx	$1e                     ; 0x1e <__rc14>
    5bd4: 86 c7        	stx	$c7                     ; 0xc7 <__zp_bss_size+0x8c>
    5bd6: a6 1a        	ldx	$1a                     ; 0x1a <__rc10>
    5bd8: 86 85        	stx	$85                     ; 0x85 <__zp_bss_size+0x4a>
    5bda: a2 10        	ldx	#$10
    5bdc: 86 ac        	stx	$ac                     ; 0xac <__zp_bss_size+0x71>
    5bde: a5 7c        	lda	$7c                     ; 0x7c <__zp_bss_size+0x41>
    5be0: 09 84        	ora	#$84
    5be2: 80 20        	bra	$5c04 <printf+0x4b3>
    5be4: a6 7e        	ldx	$7e                     ; 0x7e <__zp_bss_size+0x43>
    5be6: 86 c2        	stx	$c2                     ; 0xc2 <__zp_bss_size+0x87>
    5be8: a6 7f        	ldx	$7f                     ; 0x7f <__zp_bss_size+0x44>
    5bea: 86 c3        	stx	$c3                     ; 0xc3 <__zp_bss_size+0x88>
    5bec: a6 15        	ldx	$15                     ; 0x15 <__rc5>
    5bee: 86 c6        	stx	$c6                     ; 0xc6 <__zp_bss_size+0x8b>
    5bf0: a6 18        	ldx	$18                     ; 0x18 <__rc8>
    5bf2: 86 c1        	stx	$c1                     ; 0xc1 <__zp_bss_size+0x86>
    5bf4: a6 1e        	ldx	$1e                     ; 0x1e <__rc14>
    5bf6: 86 c7        	stx	$c7                     ; 0xc7 <__zp_bss_size+0x8c>
    5bf8: a6 1a        	ldx	$1a                     ; 0x1a <__rc10>
    5bfa: 86 85        	stx	$85                     ; 0x85 <__zp_bss_size+0x4a>
    5bfc: a2 10        	ldx	#$10
    5bfe: 86 ac        	stx	$ac                     ; 0xac <__zp_bss_size+0x71>
    5c00: a5 7c        	lda	$7c                     ; 0x7c <__zp_bss_size+0x41>
    5c02: 09 80        	ora	#$80
    5c04: aa           	tax
    5c05: a9 00        	lda	#$0
    5c07: 09 01        	ora	#$1
    5c09: 86 7c        	stx	$7c                     ; 0x7c <__zp_bss_size+0x41>
    5c0b: 86 ad        	stx	$ad                     ; 0xad <__zp_bss_size+0x72>
    5c0d: 85 84        	sta	$84                     ; 0x84 <__zp_bss_size+0x49>
    5c0f: 85 ae        	sta	$ae                     ; 0xae <__zp_bss_size+0x73>
    5c11: a2 10        	ldx	#$10
    5c13: 86 87        	stx	$87                     ; 0x87 <__zp_bss_size+0x4c>
    5c15: 4c e4 5c     	jmp	$5ce4 <printf+0x593>
    5c18: a5 bd        	lda	$bd                     ; 0xbd <__zp_bss_size+0x82>
    5c1a: a6 be        	ldx	$be                     ; 0xbe <__zp_bss_size+0x83>
    5c1c: 85 12        	sta	$12                     ; 0x12 <__rc2>
    5c1e: 86 13        	stx	$13                     ; 0x13 <__rc3>
    5c20: 18           	clc
    5c21: 69 02        	adc	#$2
    5c23: 85 14        	sta	$14                     ; 0x14 <__rc4>
    5c25: 8a           	txa
    5c26: 69 00        	adc	#$0
    5c28: a6 14        	ldx	$14                     ; 0x14 <__rc4>
    5c2a: 86 bd        	stx	$bd                     ; 0xbd <__zp_bss_size+0x82>
    5c2c: 85 be        	sta	$be                     ; 0xbe <__zp_bss_size+0x83>
    5c2e: b2 12        	lda	($12)                   ; 0x12 <__rc2>
    5c30: aa           	tax
    5c31: b1 12        	lda	($12),y                 ; 0x12 <__rc2>
    5c33: 86 12        	stx	$12                     ; 0x12 <__rc2>
    5c35: 85 13        	sta	$13                     ; 0x13 <__rc3>
    5c37: a5 b1        	lda	$b1                     ; 0xb1 <__zp_bss_size+0x76>
    5c39: a6 b2        	ldx	$b2                     ; 0xb2 <__zp_bss_size+0x77>
    5c3b: 92 12        	sta	($12)                   ; 0x12 <__rc2>
    5c3d: 8a           	txa
    5c3e: 91 12        	sta	($12),y                 ; 0x12 <__rc2>
    5c40: 4c 27 64     	jmp	$6427 <printf+0xcd6>
    5c43: a5 bd        	lda	$bd                     ; 0xbd <__zp_bss_size+0x82>
    5c45: a6 be        	ldx	$be                     ; 0xbe <__zp_bss_size+0x83>
    5c47: 85 12        	sta	$12                     ; 0x12 <__rc2>
    5c49: 86 13        	stx	$13                     ; 0x13 <__rc3>
    5c4b: 18           	clc
    5c4c: 69 02        	adc	#$2
    5c4e: 85 14        	sta	$14                     ; 0x14 <__rc4>
    5c50: 8a           	txa
    5c51: 69 00        	adc	#$0
    5c53: a6 14        	ldx	$14                     ; 0x14 <__rc4>
    5c55: 86 bd        	stx	$bd                     ; 0xbd <__zp_bss_size+0x82>
    5c57: 85 be        	sta	$be                     ; 0xbe <__zp_bss_size+0x83>
    5c59: b2 12        	lda	($12)                   ; 0x12 <__rc2>
    5c5b: aa           	tax
    5c5c: b1 12        	lda	($12),y                 ; 0x12 <__rc2>
    5c5e: 86 12        	stx	$12                     ; 0x12 <__rc2>
    5c60: 85 13        	sta	$13                     ; 0x13 <__rc3>
    5c62: 80 42        	bra	$5ca6 <printf+0x555>
    5c64: a6 7e        	ldx	$7e                     ; 0x7e <__zp_bss_size+0x43>
    5c66: 86 c2        	stx	$c2                     ; 0xc2 <__zp_bss_size+0x87>
    5c68: a6 7f        	ldx	$7f                     ; 0x7f <__zp_bss_size+0x44>
    5c6a: 86 c3        	stx	$c3                     ; 0xc3 <__zp_bss_size+0x88>
    5c6c: a6 15        	ldx	$15                     ; 0x15 <__rc5>
    5c6e: 86 c6        	stx	$c6                     ; 0xc6 <__zp_bss_size+0x8b>
    5c70: a6 18        	ldx	$18                     ; 0x18 <__rc8>
    5c72: 86 c1        	stx	$c1                     ; 0xc1 <__zp_bss_size+0x86>
    5c74: a6 1e        	ldx	$1e                     ; 0x1e <__rc14>
    5c76: 86 c7        	stx	$c7                     ; 0xc7 <__zp_bss_size+0x8c>
    5c78: a6 1a        	ldx	$1a                     ; 0x1a <__rc10>
    5c7a: 86 85        	stx	$85                     ; 0x85 <__zp_bss_size+0x4a>
    5c7c: a0 08        	ldy	#$8
    5c7e: a2 08        	ldx	#$8
    5c80: 80 52        	bra	$5cd4 <printf+0x583>
    5c82: a5 bd        	lda	$bd                     ; 0xbd <__zp_bss_size+0x82>
    5c84: a6 be        	ldx	$be                     ; 0xbe <__zp_bss_size+0x83>
    5c86: 85 12        	sta	$12                     ; 0x12 <__rc2>
    5c88: 86 13        	stx	$13                     ; 0x13 <__rc3>
    5c8a: 18           	clc
    5c8b: 69 02        	adc	#$2
    5c8d: 85 14        	sta	$14                     ; 0x14 <__rc4>
    5c8f: 8a           	txa
    5c90: 69 00        	adc	#$0
    5c92: a6 14        	ldx	$14                     ; 0x14 <__rc4>
    5c94: 86 bd        	stx	$bd                     ; 0xbd <__zp_bss_size+0x82>
    5c96: 85 be        	sta	$be                     ; 0xbe <__zp_bss_size+0x83>
    5c98: b2 12        	lda	($12)                   ; 0x12 <__rc2>
    5c9a: 85 9f        	sta	$9f                     ; 0x9f <__zp_bss_size+0x64>
    5c9c: 64 a0        	stz	$a0                     ; 0xa0 <__zp_bss_size+0x65>
    5c9e: a2 9f        	ldx	#$9f
    5ca0: 86 12        	stx	$12                     ; 0x12 <__rc2>
    5ca2: a2 00        	ldx	#$0
    5ca4: 86 13        	stx	$13                     ; 0x13 <__rc3>
    5ca6: a2 ac        	ldx	#$ac
    5ca8: 86 14        	stx	$14                     ; 0x14 <__rc4>
    5caa: a2 00        	ldx	#$0
    5cac: 86 15        	stx	$15                     ; 0x15 <__rc5>
    5cae: 84 82        	sty	$82                     ; 0x82 <__zp_bss_size+0x47>
    5cb0: 20 42 56     	jsr	$5642 <_ZN12_GLOBAL__N_112print_stringEPKcP6Status>
    5cb3: a4 82        	ldy	$82                     ; 0x82 <__zp_bss_size+0x47>
    5cb5: 4c 27 64     	jmp	$6427 <printf+0xcd6>
    5cb8: a6 7e        	ldx	$7e                     ; 0x7e <__zp_bss_size+0x43>
    5cba: 86 c2        	stx	$c2                     ; 0xc2 <__zp_bss_size+0x87>
    5cbc: a6 7f        	ldx	$7f                     ; 0x7f <__zp_bss_size+0x44>
    5cbe: 86 c3        	stx	$c3                     ; 0xc3 <__zp_bss_size+0x88>
    5cc0: a6 15        	ldx	$15                     ; 0x15 <__rc5>
    5cc2: 86 c6        	stx	$c6                     ; 0xc6 <__zp_bss_size+0x8b>
    5cc4: a6 18        	ldx	$18                     ; 0x18 <__rc8>
    5cc6: 86 c1        	stx	$c1                     ; 0xc1 <__zp_bss_size+0x86>
    5cc8: a6 1e        	ldx	$1e                     ; 0x1e <__rc14>
    5cca: 86 c7        	stx	$c7                     ; 0xc7 <__zp_bss_size+0x8c>
    5ccc: a6 1a        	ldx	$1a                     ; 0x1a <__rc10>
    5cce: 86 85        	stx	$85                     ; 0x85 <__zp_bss_size+0x4a>
    5cd0: a0 0a        	ldy	#$a
    5cd2: a2 0a        	ldx	#$a
    5cd4: 86 87        	stx	$87                     ; 0x87 <__zp_bss_size+0x4c>
    5cd6: 84 ac        	sty	$ac                     ; 0xac <__zp_bss_size+0x71>
    5cd8: a9 00        	lda	#$0
    5cda: 09 01        	ora	#$1
    5cdc: a6 7c        	ldx	$7c                     ; 0x7c <__zp_bss_size+0x41>
    5cde: 86 ad        	stx	$ad                     ; 0xad <__zp_bss_size+0x72>
    5ce0: 85 84        	sta	$84                     ; 0x84 <__zp_bss_size+0x49>
    5ce2: 85 ae        	sta	$ae                     ; 0xae <__zp_bss_size+0x73>
    5ce4: a5 7d        	lda	$7d                     ; 0x7d <__zp_bss_size+0x42>
    5ce6: 85 a1        	sta	$a1                     ; 0xa1 <__zp_bss_size+0x66>
    5ce8: a4 bd        	ldy	$bd                     ; 0xbd <__zp_bss_size+0x82>
    5cea: a6 be        	ldx	$be                     ; 0xbe <__zp_bss_size+0x83>
    5cec: 86 82        	stx	$82                     ; 0x82 <__zp_bss_size+0x47>
    5cee: 84 14        	sty	$14                     ; 0x14 <__rc4>
    5cf0: 84 7e        	sty	$7e                     ; 0x7e <__zp_bss_size+0x43>
    5cf2: 86 15        	stx	$15                     ; 0x15 <__rc5>
    5cf4: a6 c4        	ldx	$c4                     ; 0xc4 <__zp_bss_size+0x89>
    5cf6: 86 12        	stx	$12                     ; 0x12 <__rc2>
    5cf8: a6 c5        	ldx	$c5                     ; 0xc5 <__zp_bss_size+0x8a>
    5cfa: 86 13        	stx	$13                     ; 0x13 <__rc3>
    5cfc: a2 00        	ldx	#$0
    5cfe: 85 83        	sta	$83                     ; 0x83 <__zp_bss_size+0x48>
    5d00: 20 4b 69     	jsr	$694b <memcpy>
    5d03: 18           	clc
    5d04: a5 7e        	lda	$7e                     ; 0x7e <__zp_bss_size+0x43>
    5d06: 65 86        	adc	$86                     ; 0x86 <__zp_bss_size+0x4b>
    5d08: aa           	tax
    5d09: a5 82        	lda	$82                     ; 0x82 <__zp_bss_size+0x47>
    5d0b: 69 00        	adc	#$0
    5d0d: 86 bd        	stx	$bd                     ; 0xbd <__zp_bss_size+0x82>
    5d0f: 85 be        	sta	$be                     ; 0xbe <__zp_bss_size+0x83>
    5d11: a5 84        	lda	$84                     ; 0x84 <__zp_bss_size+0x49>
    5d13: 29 01        	and	#$1
    5d15: a0 00        	ldy	#$0
    5d17: aa           	tax
    5d18: f0 03        	beq	$5d1d <printf+0x5cc>
    5d1a: 4c 6f 5d     	jmp	$5d6f <printf+0x61e>
    5d1d: a6 83        	ldx	$83                     ; 0x83 <__zp_bss_size+0x48>
    5d1f: b5 a1        	lda	$a1,x                   ; 0xa1 <__zp_bss_size+0x66>
    5d21: aa           	tax
    5d22: a5 85        	lda	$85                     ; 0x85 <__zp_bss_size+0x4a>
    5d24: 85 17        	sta	$17                     ; 0x17 <__rc7>
    5d26: a5 c7        	lda	$c7                     ; 0xc7 <__zp_bss_size+0x8c>
    5d28: 85 1a        	sta	$1a                     ; 0x1a <__rc10>
    5d2a: a5 c6        	lda	$c6                     ; 0xc6 <__zp_bss_size+0x8b>
    5d2c: 85 83        	sta	$83                     ; 0x83 <__zp_bss_size+0x48>
    5d2e: a5 c2        	lda	$c2                     ; 0xc2 <__zp_bss_size+0x87>
    5d30: 85 7e        	sta	$7e                     ; 0x7e <__zp_bss_size+0x43>
    5d32: a5 c3        	lda	$c3                     ; 0xc3 <__zp_bss_size+0x88>
    5d34: 85 7f        	sta	$7f                     ; 0x7f <__zp_bss_size+0x44>
    5d36: 8a           	txa
    5d37: 10 4a        	bpl	$5d83 <printf+0x632>
    5d39: a2 00        	ldx	#$0
    5d3b: 64 12        	stz	$12                     ; 0x12 <__rc2>
    5d3d: a9 00        	lda	#$0
    5d3f: 38           	sec
    5d40: f5 a2        	sbc	$a2,x                   ; 0xa2 <__zp_bss_size+0x67>
    5d42: a0 01        	ldy	#$1
    5d44: 84 14        	sty	$14                     ; 0x14 <__rc4>
    5d46: 88           	dey
    5d47: b0 02        	bcs	$5d4b <printf+0x5fa>
    5d49: a0 01        	ldy	#$1
    5d4b: 38           	sec
    5d4c: e5 12        	sbc	$12                     ; 0x12 <__rc2>
    5d4e: 85 13        	sta	$13                     ; 0x13 <__rc3>
    5d50: 64 12        	stz	$12                     ; 0x12 <__rc2>
    5d52: b0 04        	bcs	$5d58 <printf+0x607>
    5d54: a5 14        	lda	$14                     ; 0x14 <__rc4>
    5d56: 85 12        	sta	$12                     ; 0x12 <__rc2>
    5d58: 98           	tya
    5d59: 05 12        	ora	$12                     ; 0x12 <__rc2>
    5d5b: 85 12        	sta	$12                     ; 0x12 <__rc2>
    5d5d: a5 13        	lda	$13                     ; 0x13 <__rc3>
    5d5f: 9d a2 00     	sta	$a2,x                   ; 0xa2 <__zp_bss_size+0x67>
    5d62: e8           	inx
    5d63: 86 13        	stx	$13                     ; 0x13 <__rc3>
    5d65: a4 7d        	ldy	$7d                     ; 0x7d <__zp_bss_size+0x42>
    5d67: c4 13        	cpy	$13                     ; 0x13 <__rc3>
    5d69: d0 d2        	bne	$5d3d <printf+0x5ec>
    5d6b: a0 01        	ldy	#$1
    5d6d: 80 14        	bra	$5d83 <printf+0x632>
    5d6f: a6 85        	ldx	$85                     ; 0x85 <__zp_bss_size+0x4a>
    5d71: 86 17        	stx	$17                     ; 0x17 <__rc7>
    5d73: a6 c7        	ldx	$c7                     ; 0xc7 <__zp_bss_size+0x8c>
    5d75: 86 1a        	stx	$1a                     ; 0x1a <__rc10>
    5d77: a6 c6        	ldx	$c6                     ; 0xc6 <__zp_bss_size+0x8b>
    5d79: 86 83        	stx	$83                     ; 0x83 <__zp_bss_size+0x48>
    5d7b: a6 c2        	ldx	$c2                     ; 0xc2 <__zp_bss_size+0x87>
    5d7d: 86 7e        	stx	$7e                     ; 0x7e <__zp_bss_size+0x43>
    5d7f: a6 c3        	ldx	$c3                     ; 0xc3 <__zp_bss_size+0x88>
    5d81: 86 7f        	stx	$7f                     ; 0x7f <__zp_bss_size+0x44>
    5d83: 84 18        	sty	$18                     ; 0x18 <__rc8>
    5d85: a5 7d        	lda	$7d                     ; 0x7d <__zp_bss_size+0x42>
    5d87: 0a           	asl
    5d88: 0a           	asl
    5d89: 0a           	asl
    5d8a: 85 12        	sta	$12                     ; 0x12 <__rc2>
    5d8c: a2 00        	ldx	#$0
    5d8e: 8a           	txa
    5d8f: 4c 46 5e     	jmp	$5e46 <printf+0x6f5>
    5d92: a4 13        	ldy	$13                     ; 0x13 <__rc3>
    5d94: 99 8a 00     	sta	$8a,y                   ; 0x8a <__zp_bss_size+0x4f>
    5d97: a4 15        	ldy	$15                     ; 0x15 <__rc5>
    5d99: c4 13        	cpy	$13                     ; 0x13 <__rc3>
    5d9b: f0 38        	beq	$5dd5 <printf+0x684>
    5d9d: e6 13        	inc	$13                     ; 0x13 <__rc3>
    5d9f: a4 13        	ldy	$13                     ; 0x13 <__rc3>
    5da1: b9 8a 00     	lda	$8a,y                   ; 0x8a <__zp_bss_size+0x4f>
    5da4: 0a           	asl
    5da5: e0 00        	cpx	#$0
    5da7: f0 02        	beq	$5dab <printf+0x65a>
    5da9: 09 01        	ora	#$1
    5dab: a4 87        	ldy	$87                     ; 0x87 <__zp_bss_size+0x4c>
    5dad: 84 14        	sty	$14                     ; 0x14 <__rc4>
    5daf: c5 14        	cmp	$14                     ; 0x14 <__rc4>
    5db1: a2 01        	ldx	#$1
    5db3: b0 02        	bcs	$5db7 <printf+0x666>
    5db5: a2 00        	ldx	#$0
    5db7: 90 d9        	bcc	$5d92 <printf+0x641>
    5db9: 84 14        	sty	$14                     ; 0x14 <__rc4>
    5dbb: 38           	sec
    5dbc: e5 14        	sbc	$14                     ; 0x14 <__rc4>
    5dbe: a4 13        	ldy	$13                     ; 0x13 <__rc3>
    5dc0: 99 8a 00     	sta	$8a,y                   ; 0x8a <__zp_bss_size+0x4f>
    5dc3: a4 15        	ldy	$15                     ; 0x15 <__rc5>
    5dc5: c4 13        	cpy	$13                     ; 0x13 <__rc3>
    5dc7: d0 d4        	bne	$5d9d <printf+0x64c>
    5dc9: a4 86        	ldy	$86                     ; 0x86 <__zp_bss_size+0x4b>
    5dcb: a6 86        	ldx	$86                     ; 0x86 <__zp_bss_size+0x4b>
    5dcd: e8           	inx
    5dce: a9 01        	lda	#$1
    5dd0: 99 8a 00     	sta	$8a,y                   ; 0x8a <__zp_bss_size+0x4f>
    5dd3: 86 86        	stx	$86                     ; 0x86 <__zp_bss_size+0x4b>
    5dd5: a6 7d        	ldx	$7d                     ; 0x7d <__zp_bss_size+0x42>
    5dd7: b5 a1        	lda	$a1,x                   ; 0xa1 <__zp_bss_size+0x66>
    5dd9: aa           	tax
    5dda: 10 41        	bpl	$5e1d <printf+0x6cc>
    5ddc: a5 86        	lda	$86                     ; 0x86 <__zp_bss_size+0x4b>
    5dde: f0 2f        	beq	$5e0f <printf+0x6be>
    5de0: a2 00        	ldx	#$0
    5de2: a4 87        	ldy	$87                     ; 0x87 <__zp_bss_size+0x4c>
    5de4: 84 14        	sty	$14                     ; 0x14 <__rc4>
    5de6: b5 8a        	lda	$8a,x                   ; 0x8a <__zp_bss_size+0x4f>
    5de8: 1a           	inc
    5de9: f6 8a        	inc	$8a,x                   ; 0x8a <__zp_bss_size+0x4f>
    5deb: c5 14        	cmp	$14                     ; 0x14 <__rc4>
    5ded: 90 2e        	bcc	$5e1d <printf+0x6cc>
    5def: a4 87        	ldy	$87                     ; 0x87 <__zp_bss_size+0x4c>
    5df1: 84 13        	sty	$13                     ; 0x13 <__rc3>
    5df3: 38           	sec
    5df4: e5 13        	sbc	$13                     ; 0x13 <__rc3>
    5df6: 9d 8a 00     	sta	$8a,x                   ; 0x8a <__zp_bss_size+0x4f>
    5df9: e8           	inx
    5dfa: 86 13        	stx	$13                     ; 0x13 <__rc3>
    5dfc: a4 86        	ldy	$86                     ; 0x86 <__zp_bss_size+0x4b>
    5dfe: c4 13        	cpy	$13                     ; 0x13 <__rc3>
    5e00: d0 e4        	bne	$5de6 <printf+0x695>
    5e02: 80 0d        	bra	$5e11 <printf+0x6c0>
    5e04: a6 7d        	ldx	$7d                     ; 0x7d <__zp_bss_size+0x42>
    5e06: b5 a1        	lda	$a1,x                   ; 0xa1 <__zp_bss_size+0x66>
    5e08: aa           	tax
    5e09: 64 86        	stz	$86                     ; 0x86 <__zp_bss_size+0x4b>
    5e0b: 30 04        	bmi	$5e11 <printf+0x6c0>
    5e0d: 80 0e        	bra	$5e1d <printf+0x6cc>
    5e0f: 64 86        	stz	$86                     ; 0x86 <__zp_bss_size+0x4b>
    5e11: a4 86        	ldy	$86                     ; 0x86 <__zp_bss_size+0x4b>
    5e13: a6 86        	ldx	$86                     ; 0x86 <__zp_bss_size+0x4b>
    5e15: e8           	inx
    5e16: a9 01        	lda	#$1
    5e18: 99 8a 00     	sta	$8a,y                   ; 0x8a <__zp_bss_size+0x4f>
    5e1b: 86 86        	stx	$86                     ; 0x86 <__zp_bss_size+0x4b>
    5e1d: a2 01        	ldx	#$1
    5e1f: 86 16        	stx	$16                     ; 0x16 <__rc6>
    5e21: 64 13        	stz	$13                     ; 0x13 <__rc3>
    5e23: ca           	dex
    5e24: a4 7d        	ldy	$7d                     ; 0x7d <__zp_bss_size+0x42>
    5e26: b5 a2        	lda	$a2,x                   ; 0xa2 <__zp_bss_size+0x67>
    5e28: 0a           	asl
    5e29: 64 14        	stz	$14                     ; 0x14 <__rc4>
    5e2b: 26 14        	rol	$14                     ; 0x14 <__rc4>
    5e2d: 05 13        	ora	$13                     ; 0x13 <__rc3>
    5e2f: 9d a2 00     	sta	$a2,x                   ; 0xa2 <__zp_bss_size+0x67>
    5e32: e8           	inx
    5e33: 86 15        	stx	$15                     ; 0x15 <__rc5>
    5e35: a5 14        	lda	$14                     ; 0x14 <__rc4>
    5e37: 85 13        	sta	$13                     ; 0x13 <__rc3>
    5e39: c4 15        	cpy	$15                     ; 0x15 <__rc5>
    5e3b: d0 e9        	bne	$5e26 <printf+0x6d5>
    5e3d: a5 19        	lda	$19                     ; 0x19 <__rc9>
    5e3f: 1a           	inc
    5e40: c5 12        	cmp	$12                     ; 0x12 <__rc2>
    5e42: a6 86        	ldx	$86                     ; 0x86 <__zp_bss_size+0x4b>
    5e44: b0 12        	bcs	$5e58 <printf+0x707>
    5e46: 85 19        	sta	$19                     ; 0x19 <__rc9>
    5e48: 8a           	txa
    5e49: f0 b9        	beq	$5e04 <printf+0x6b3>
    5e4b: 8a           	txa
    5e4c: 86 86        	stx	$86                     ; 0x86 <__zp_bss_size+0x4b>
    5e4e: 3a           	dec
    5e4f: 85 15        	sta	$15                     ; 0x15 <__rc5>
    5e51: a2 00        	ldx	#$0
    5e53: 64 13        	stz	$13                     ; 0x13 <__rc3>
    5e55: 4c 9f 5d     	jmp	$5d9f <printf+0x64e>
    5e58: a4 16        	ldy	$16                     ; 0x16 <__rc6>
    5e5a: a5 83        	lda	$83                     ; 0x83 <__zp_bss_size+0x48>
    5e5c: 30 06        	bmi	$5e64 <printf+0x713>
    5e5e: a5 c1        	lda	$c1                     ; 0xc1 <__zp_bss_size+0x86>
    5e60: 85 82        	sta	$82                     ; 0x82 <__zp_bss_size+0x47>
    5e62: 80 08        	bra	$5e6c <printf+0x71b>
    5e64: a2 01        	ldx	#$1
    5e66: 64 83        	stz	$83                     ; 0x83 <__zp_bss_size+0x48>
    5e68: 86 82        	stx	$82                     ; 0x82 <__zp_bss_size+0x47>
    5e6a: a6 86        	ldx	$86                     ; 0x86 <__zp_bss_size+0x4b>
    5e6c: a5 7c        	lda	$7c                     ; 0x7c <__zp_bss_size+0x41>
    5e6e: 29 04        	and	#$4
    5e70: f0 2f        	beq	$5ea1 <printf+0x750>
    5e72: a5 87        	lda	$87                     ; 0x87 <__zp_bss_size+0x4c>
    5e74: c9 10        	cmp	#$10
    5e76: f0 14        	beq	$5e8c <printf+0x73b>
    5e78: c9 08        	cmp	#$8
    5e7a: d0 25        	bne	$5ea1 <printf+0x750>
    5e7c: a2 00        	ldx	#$0
    5e7e: e4 83        	cpx	$83                     ; 0x83 <__zp_bss_size+0x48>
    5e80: f0 03        	beq	$5e85 <printf+0x734>
    5e82: 4c 4d 64     	jmp	$644d <printf+0xcfc>
    5e85: a6 86        	ldx	$86                     ; 0x86 <__zp_bss_size+0x4b>
    5e87: e4 82        	cpx	$82                     ; 0x82 <__zp_bss_size+0x47>
    5e89: 4c 4f 64     	jmp	$644f <printf+0xcfe>
    5e8c: 8a           	txa
    5e8d: f0 12        	beq	$5ea1 <printf+0x750>
    5e8f: a5 7c        	lda	$7c                     ; 0x7c <__zp_bss_size+0x41>
    5e91: a6 82        	ldx	$82                     ; 0x82 <__zp_bss_size+0x47>
    5e93: 29 80        	and	#$80
    5e95: d0 03        	bne	$5e9a <printf+0x749>
    5e97: 4c 68 64     	jmp	$6468 <printf+0xd17>
    5e9a: 86 c1        	stx	$c1                     ; 0xc1 <__zp_bss_size+0x86>
    5e9c: a2 78        	ldx	#$78
    5e9e: 4c 6c 64     	jmp	$646c <printf+0xd1b>
    5ea1: a6 7c        	ldx	$7c                     ; 0x7c <__zp_bss_size+0x41>
    5ea3: a9 2d        	lda	#$2d
    5ea5: 85 c2        	sta	$c2                     ; 0xc2 <__zp_bss_size+0x87>
    5ea7: a5 18        	lda	$18                     ; 0x18 <__rc8>
    5ea9: d0 22        	bne	$5ecd <printf+0x77c>
    5eab: 86 12        	stx	$12                     ; 0x12 <__rc2>
    5ead: 8a           	txa
    5eae: 29 02        	and	#$2
    5eb0: a2 2b        	ldx	#$2b
    5eb2: 86 c2        	stx	$c2                     ; 0xc2 <__zp_bss_size+0x87>
    5eb4: aa           	tax
    5eb5: d0 16        	bne	$5ecd <printf+0x77c>
    5eb7: a6 82        	ldx	$82                     ; 0x82 <__zp_bss_size+0x47>
    5eb9: 86 c1        	stx	$c1                     ; 0xc1 <__zp_bss_size+0x86>
    5ebb: a5 12        	lda	$12                     ; 0x12 <__rc2>
    5ebd: 29 08        	and	#$8
    5ebf: f0 03        	beq	$5ec4 <printf+0x773>
    5ec1: 4c 46 64     	jmp	$6446 <printf+0xcf5>
    5ec4: a2 01        	ldx	#$1
    5ec6: 86 85        	stx	$85                     ; 0x85 <__zp_bss_size+0x4a>
    5ec8: 64 16        	stz	$16                     ; 0x16 <__rc6>
    5eca: ca           	dex
    5ecb: 80 08        	bra	$5ed5 <printf+0x784>
    5ecd: a6 82        	ldx	$82                     ; 0x82 <__zp_bss_size+0x47>
    5ecf: 86 c1        	stx	$c1                     ; 0xc1 <__zp_bss_size+0x86>
    5ed1: a2 00        	ldx	#$0
    5ed3: 86 85        	stx	$85                     ; 0x85 <__zp_bss_size+0x4a>
    5ed5: 86 82        	stx	$82                     ; 0x82 <__zp_bss_size+0x47>
    5ed7: a5 83        	lda	$83                     ; 0x83 <__zp_bss_size+0x48>
    5ed9: d0 08        	bne	$5ee3 <printf+0x792>
    5edb: a5 c1        	lda	$c1                     ; 0xc1 <__zp_bss_size+0x86>
    5edd: c5 86        	cmp	$86                     ; 0x86 <__zp_bss_size+0x4b>
    5edf: 85 12        	sta	$12                     ; 0x12 <__rc2>
    5ee1: 80 08        	bra	$5eeb <printf+0x79a>
    5ee3: a6 83        	ldx	$83                     ; 0x83 <__zp_bss_size+0x48>
    5ee5: e0 00        	cpx	#$0
    5ee7: a6 c1        	ldx	$c1                     ; 0xc1 <__zp_bss_size+0x86>
    5ee9: 86 12        	stx	$12                     ; 0x12 <__rc2>
    5eeb: a6 83        	ldx	$83                     ; 0x83 <__zp_bss_size+0x48>
    5eed: 86 13        	stx	$13                     ; 0x13 <__rc3>
    5eef: b0 06        	bcs	$5ef7 <printf+0x7a6>
    5ef1: a6 86        	ldx	$86                     ; 0x86 <__zp_bss_size+0x4b>
    5ef3: 86 12        	stx	$12                     ; 0x12 <__rc2>
    5ef5: 64 13        	stz	$13                     ; 0x13 <__rc3>
    5ef7: a5 16        	lda	$16                     ; 0x16 <__rc6>
    5ef9: 18           	clc
    5efa: 65 12        	adc	$12                     ; 0x12 <__rc2>
    5efc: aa           	tax
    5efd: 85 14        	sta	$14                     ; 0x14 <__rc4>
    5eff: a5 13        	lda	$13                     ; 0x13 <__rc3>
    5f01: 69 00        	adc	#$0
    5f03: 85 15        	sta	$15                     ; 0x15 <__rc5>
    5f05: c5 1a        	cmp	$1a                     ; 0x1a <__rc10>
    5f07: d0 04        	bne	$5f0d <printf+0x7bc>
    5f09: e4 17        	cpx	$17                     ; 0x17 <__rc7>
    5f0b: 80 02        	bra	$5f0f <printf+0x7be>
    5f0d: c5 1a        	cmp	$1a                     ; 0x1a <__rc10>
    5f0f: 64 87        	stz	$87                     ; 0x87 <__zp_bss_size+0x4c>
    5f11: 64 7d        	stz	$7d                     ; 0x7d <__zp_bss_size+0x42>
    5f13: a6 86        	ldx	$86                     ; 0x86 <__zp_bss_size+0x4b>
    5f15: 90 03        	bcc	$5f1a <printf+0x7c9>
    5f17: 4c d5 5f     	jmp	$5fd5 <printf+0x884>
    5f1a: a5 7c        	lda	$7c                     ; 0x7c <__zp_bss_size+0x41>
    5f1c: 29 11        	and	#$11
    5f1e: f0 10        	beq	$5f30 <printf+0x7df>
    5f20: a5 17        	lda	$17                     ; 0x17 <__rc7>
    5f22: 38           	sec
    5f23: e5 14        	sbc	$14                     ; 0x14 <__rc4>
    5f25: 85 87        	sta	$87                     ; 0x87 <__zp_bss_size+0x4c>
    5f27: a5 1a        	lda	$1a                     ; 0x1a <__rc10>
    5f29: e5 15        	sbc	$15                     ; 0x15 <__rc5>
    5f2b: 85 7d        	sta	$7d                     ; 0x7d <__zp_bss_size+0x42>
    5f2d: 4c d5 5f     	jmp	$5fd5 <printf+0x884>
    5f30: a6 b1        	ldx	$b1                     ; 0xb1 <__zp_bss_size+0x76>
    5f32: 86 15        	stx	$15                     ; 0x15 <__rc5>
    5f34: 38           	sec
    5f35: a5 16        	lda	$16                     ; 0x16 <__rc6>
    5f37: e5 17        	sbc	$17                     ; 0x17 <__rc7>
    5f39: aa           	tax
    5f3a: a9 00        	lda	#$0
    5f3c: e5 1a        	sbc	$1a                     ; 0x1a <__rc10>
    5f3e: 85 14        	sta	$14                     ; 0x14 <__rc4>
    5f40: 18           	clc
    5f41: 8a           	txa
    5f42: 65 12        	adc	$12                     ; 0x12 <__rc2>
    5f44: 85 7c        	sta	$7c                     ; 0x7c <__zp_bss_size+0x41>
    5f46: a5 14        	lda	$14                     ; 0x14 <__rc4>
    5f48: 65 13        	adc	$13                     ; 0x13 <__rc3>
    5f4a: 85 7d        	sta	$7d                     ; 0x7d <__zp_bss_size+0x42>
    5f4c: a5 b2        	lda	$b2                     ; 0xb2 <__zp_bss_size+0x77>
    5f4e: 4c bd 5f     	jmp	$5fbd <printf+0x86c>
    5f51: c5 b0        	cmp	$b0                     ; 0xb0 <__zp_bss_size+0x75>
    5f53: a6 7d        	ldx	$7d                     ; 0x7d <__zp_bss_size+0x42>
    5f55: 86 12        	stx	$12                     ; 0x12 <__rc2>
    5f57: b0 3d        	bcs	$5f96 <printf+0x845>
    5f59: a2 01        	ldx	#$1
    5f5b: 86 14        	stx	$14                     ; 0x14 <__rc4>
    5f5d: a6 bc        	ldx	$bc                     ; 0xbc <__zp_bss_size+0x81>
    5f5f: a0 00        	ldy	#$0
    5f61: 84 12        	sty	$12                     ; 0x12 <__rc2>
    5f63: a0 00        	ldy	#$0
    5f65: 84 13        	sty	$13                     ; 0x13 <__rc3>
    5f67: e4 13        	cpx	$13                     ; 0x13 <__rc3>
    5f69: d0 1b        	bne	$5f86 <printf+0x835>
    5f6b: a6 bb        	ldx	$bb                     ; 0xbb <__zp_bss_size+0x80>
    5f6d: e4 12        	cpx	$12                     ; 0x12 <__rc2>
    5f6f: d0 15        	bne	$5f86 <printf+0x835>
    5f71: a4 14        	ldy	$14                     ; 0x14 <__rc4>
    5f73: 18           	clc
    5f74: aa           	tax
    5f75: a5 15        	lda	$15                     ; 0x15 <__rc5>
    5f77: 65 b5        	adc	$b5                     ; 0xb5 <__zp_bss_size+0x7a>
    5f79: 85 12        	sta	$12                     ; 0x12 <__rc2>
    5f7b: 8a           	txa
    5f7c: 65 b6        	adc	$b6                     ; 0xb6 <__zp_bss_size+0x7b>
    5f7e: 85 13        	sta	$13                     ; 0x13 <__rc3>
    5f80: a9 20        	lda	#$20
    5f82: 92 12        	sta	($12)                   ; 0x12 <__rc2>
    5f84: 80 0c        	bra	$5f92 <printf+0x841>
    5f86: a2 01        	ldx	#$1
    5f88: 86 84        	stx	$84                     ; 0x84 <__zp_bss_size+0x49>
    5f8a: ca           	dex
    5f8b: a9 20        	lda	#$20
    5f8d: 20 8b 64     	jsr	$648b <putchar>
    5f90: a4 84        	ldy	$84                     ; 0x84 <__zp_bss_size+0x49>
    5f92: a6 7d        	ldx	$7d                     ; 0x7d <__zp_bss_size+0x42>
    5f94: 86 12        	stx	$12                     ; 0x12 <__rc2>
    5f96: a6 b1        	ldx	$b1                     ; 0xb1 <__zp_bss_size+0x76>
    5f98: a5 b2        	lda	$b2                     ; 0xb2 <__zp_bss_size+0x77>
    5f9a: e8           	inx
    5f9b: d0 01        	bne	$5f9e <printf+0x84d>
    5f9d: 1a           	inc
    5f9e: 86 15        	stx	$15                     ; 0x15 <__rc5>
    5fa0: 86 b1        	stx	$b1                     ; 0xb1 <__zp_bss_size+0x76>
    5fa2: 85 b2        	sta	$b2                     ; 0xb2 <__zp_bss_size+0x77>
    5fa4: a6 7c        	ldx	$7c                     ; 0x7c <__zp_bss_size+0x41>
    5fa6: e8           	inx
    5fa7: d0 02        	bne	$5fab <printf+0x85a>
    5fa9: e6 12        	inc	$12                     ; 0x12 <__rc2>
    5fab: 86 7c        	stx	$7c                     ; 0x7c <__zp_bss_size+0x41>
    5fad: 5a           	phy
    5fae: a4 12        	ldy	$12                     ; 0x12 <__rc2>
    5fb0: 84 7d        	sty	$7d                     ; 0x7d <__zp_bss_size+0x42>
    5fb2: 7a           	ply
    5fb3: e6 12        	inc	$12                     ; 0x12 <__rc2>
    5fb5: c6 12        	dec	$12                     ; 0x12 <__rc2>
    5fb7: d0 04        	bne	$5fbd <printf+0x86c>
    5fb9: e0 00        	cpx	#$0
    5fbb: f0 12        	beq	$5fcf <printf+0x87e>
    5fbd: c5 b0        	cmp	$b0                     ; 0xb0 <__zp_bss_size+0x75>
    5fbf: f0 03        	beq	$5fc4 <printf+0x873>
    5fc1: 4c 51 5f     	jmp	$5f51 <printf+0x800>
    5fc4: a6 af        	ldx	$af                     ; 0xaf <__zp_bss_size+0x74>
    5fc6: 86 12        	stx	$12                     ; 0x12 <__rc2>
    5fc8: a6 15        	ldx	$15                     ; 0x15 <__rc5>
    5fca: e4 12        	cpx	$12                     ; 0x12 <__rc2>
    5fcc: 4c 53 5f     	jmp	$5f53 <printf+0x802>
    5fcf: 64 87        	stz	$87                     ; 0x87 <__zp_bss_size+0x4c>
    5fd1: 64 7d        	stz	$7d                     ; 0x7d <__zp_bss_size+0x42>
    5fd3: a6 86        	ldx	$86                     ; 0x86 <__zp_bss_size+0x4b>
    5fd5: a5 85        	lda	$85                     ; 0x85 <__zp_bss_size+0x4a>
    5fd7: f0 03        	beq	$5fdc <printf+0x88b>
    5fd9: 4c 3d 60     	jmp	$603d <printf+0x8ec>
    5fdc: a6 b1        	ldx	$b1                     ; 0xb1 <__zp_bss_size+0x76>
    5fde: a5 b2        	lda	$b2                     ; 0xb2 <__zp_bss_size+0x77>
    5fe0: c5 b0        	cmp	$b0                     ; 0xb0 <__zp_bss_size+0x75>
    5fe2: d0 10        	bne	$5ff4 <printf+0x8a3>
    5fe4: 86 13        	stx	$13                     ; 0x13 <__rc3>
    5fe6: a6 af        	ldx	$af                     ; 0xaf <__zp_bss_size+0x74>
    5fe8: 86 12        	stx	$12                     ; 0x12 <__rc2>
    5fea: a6 13        	ldx	$13                     ; 0x13 <__rc3>
    5fec: 86 15        	stx	$15                     ; 0x15 <__rc5>
    5fee: e4 12        	cpx	$12                     ; 0x12 <__rc2>
    5ff0: 90 08        	bcc	$5ffa <printf+0x8a9>
    5ff2: 80 41        	bra	$6035 <printf+0x8e4>
    5ff4: 86 15        	stx	$15                     ; 0x15 <__rc5>
    5ff6: c5 b0        	cmp	$b0                     ; 0xb0 <__zp_bss_size+0x75>
    5ff8: b0 3b        	bcs	$6035 <printf+0x8e4>
    5ffa: a2 01        	ldx	#$1
    5ffc: 86 14        	stx	$14                     ; 0x14 <__rc4>
    5ffe: a6 bc        	ldx	$bc                     ; 0xbc <__zp_bss_size+0x81>
    6000: a0 00        	ldy	#$0
    6002: 84 12        	sty	$12                     ; 0x12 <__rc2>
    6004: a0 00        	ldy	#$0
    6006: 84 13        	sty	$13                     ; 0x13 <__rc3>
    6008: e4 13        	cpx	$13                     ; 0x13 <__rc3>
    600a: d0 1d        	bne	$6029 <printf+0x8d8>
    600c: a6 bb        	ldx	$bb                     ; 0xbb <__zp_bss_size+0x80>
    600e: e4 12        	cpx	$12                     ; 0x12 <__rc2>
    6010: d0 17        	bne	$6029 <printf+0x8d8>
    6012: a4 14        	ldy	$14                     ; 0x14 <__rc4>
    6014: 18           	clc
    6015: 85 16        	sta	$16                     ; 0x16 <__rc6>
    6017: a5 15        	lda	$15                     ; 0x15 <__rc5>
    6019: 65 b5        	adc	$b5                     ; 0xb5 <__zp_bss_size+0x7a>
    601b: 85 12        	sta	$12                     ; 0x12 <__rc2>
    601d: a5 16        	lda	$16                     ; 0x16 <__rc6>
    601f: 65 b6        	adc	$b6                     ; 0xb6 <__zp_bss_size+0x7b>
    6021: 85 13        	sta	$13                     ; 0x13 <__rc3>
    6023: a5 c2        	lda	$c2                     ; 0xc2 <__zp_bss_size+0x87>
    6025: 92 12        	sta	($12)                   ; 0x12 <__rc2>
    6027: 80 0c        	bra	$6035 <printf+0x8e4>
    6029: a2 01        	ldx	#$1
    602b: 86 84        	stx	$84                     ; 0x84 <__zp_bss_size+0x49>
    602d: ca           	dex
    602e: a5 c2        	lda	$c2                     ; 0xc2 <__zp_bss_size+0x87>
    6030: 20 8b 64     	jsr	$648b <putchar>
    6033: a4 84        	ldy	$84                     ; 0x84 <__zp_bss_size+0x49>
    6035: e6 b1        	inc	$b1                     ; 0xb1 <__zp_bss_size+0x76>
    6037: d0 02        	bne	$603b <printf+0x8ea>
    6039: e6 b2        	inc	$b2                     ; 0xb2 <__zp_bss_size+0x77>
    603b: a6 86        	ldx	$86                     ; 0x86 <__zp_bss_size+0x4b>
    603d: a5 82        	lda	$82                     ; 0x82 <__zp_bss_size+0x47>
    603f: d0 03        	bne	$6044 <printf+0x8f3>
    6041: 4c a5 60     	jmp	$60a5 <printf+0x954>
    6044: a6 b1        	ldx	$b1                     ; 0xb1 <__zp_bss_size+0x76>
    6046: a5 b2        	lda	$b2                     ; 0xb2 <__zp_bss_size+0x77>
    6048: c5 b0        	cmp	$b0                     ; 0xb0 <__zp_bss_size+0x75>
    604a: d0 10        	bne	$605c <printf+0x90b>
    604c: 86 13        	stx	$13                     ; 0x13 <__rc3>
    604e: a6 af        	ldx	$af                     ; 0xaf <__zp_bss_size+0x74>
    6050: 86 12        	stx	$12                     ; 0x12 <__rc2>
    6052: a6 13        	ldx	$13                     ; 0x13 <__rc3>
    6054: 86 15        	stx	$15                     ; 0x15 <__rc5>
    6056: e4 12        	cpx	$12                     ; 0x12 <__rc2>
    6058: 90 08        	bcc	$6062 <printf+0x911>
    605a: 80 41        	bra	$609d <printf+0x94c>
    605c: 86 15        	stx	$15                     ; 0x15 <__rc5>
    605e: c5 b0        	cmp	$b0                     ; 0xb0 <__zp_bss_size+0x75>
    6060: b0 3b        	bcs	$609d <printf+0x94c>
    6062: a2 01        	ldx	#$1
    6064: 86 14        	stx	$14                     ; 0x14 <__rc4>
    6066: a6 bc        	ldx	$bc                     ; 0xbc <__zp_bss_size+0x81>
    6068: a0 00        	ldy	#$0
    606a: 84 12        	sty	$12                     ; 0x12 <__rc2>
    606c: a0 00        	ldy	#$0
    606e: 84 13        	sty	$13                     ; 0x13 <__rc3>
    6070: e4 13        	cpx	$13                     ; 0x13 <__rc3>
    6072: d0 1d        	bne	$6091 <printf+0x940>
    6074: a6 bb        	ldx	$bb                     ; 0xbb <__zp_bss_size+0x80>
    6076: e4 12        	cpx	$12                     ; 0x12 <__rc2>
    6078: d0 17        	bne	$6091 <printf+0x940>
    607a: a4 14        	ldy	$14                     ; 0x14 <__rc4>
    607c: 18           	clc
    607d: 85 16        	sta	$16                     ; 0x16 <__rc6>
    607f: a5 15        	lda	$15                     ; 0x15 <__rc5>
    6081: 65 b5        	adc	$b5                     ; 0xb5 <__zp_bss_size+0x7a>
    6083: 85 12        	sta	$12                     ; 0x12 <__rc2>
    6085: a5 16        	lda	$16                     ; 0x16 <__rc6>
    6087: 65 b6        	adc	$b6                     ; 0xb6 <__zp_bss_size+0x7b>
    6089: 85 13        	sta	$13                     ; 0x13 <__rc3>
    608b: a5 c6        	lda	$c6                     ; 0xc6 <__zp_bss_size+0x8b>
    608d: 92 12        	sta	($12)                   ; 0x12 <__rc2>
    608f: 80 0c        	bra	$609d <printf+0x94c>
    6091: a2 01        	ldx	#$1
    6093: 86 84        	stx	$84                     ; 0x84 <__zp_bss_size+0x49>
    6095: ca           	dex
    6096: a5 c6        	lda	$c6                     ; 0xc6 <__zp_bss_size+0x8b>
    6098: 20 8b 64     	jsr	$648b <putchar>
    609b: a4 84        	ldy	$84                     ; 0x84 <__zp_bss_size+0x49>
    609d: e6 b1        	inc	$b1                     ; 0xb1 <__zp_bss_size+0x76>
    609f: d0 02        	bne	$60a3 <printf+0x952>
    60a1: e6 b2        	inc	$b2                     ; 0xb2 <__zp_bss_size+0x77>
    60a3: a6 86        	ldx	$86                     ; 0x86 <__zp_bss_size+0x4b>
    60a5: a9 10        	lda	#$10
    60a7: 25 ad        	and	$ad                     ; 0xad <__zp_bss_size+0x72>
    60a9: d0 07        	bne	$60b2 <printf+0x961>
    60ab: a5 c1        	lda	$c1                     ; 0xc1 <__zp_bss_size+0x86>
    60ad: 85 85        	sta	$85                     ; 0x85 <__zp_bss_size+0x4a>
    60af: 4c 64 61     	jmp	$6164 <printf+0xa13>
    60b2: 86 13        	stx	$13                     ; 0x13 <__rc3>
    60b4: a5 ad        	lda	$ad                     ; 0xad <__zp_bss_size+0x72>
    60b6: 29 01        	and	#$1
    60b8: a6 c1        	ldx	$c1                     ; 0xc1 <__zp_bss_size+0x86>
    60ba: 86 85        	stx	$85                     ; 0x85 <__zp_bss_size+0x4a>
    60bc: aa           	tax
    60bd: f0 03        	beq	$60c2 <printf+0x971>
    60bf: 4c 5a 61     	jmp	$615a <printf+0xa09>
    60c2: a5 87        	lda	$87                     ; 0x87 <__zp_bss_size+0x4c>
    60c4: a6 7d        	ldx	$7d                     ; 0x7d <__zp_bss_size+0x42>
    60c6: 86 12        	stx	$12                     ; 0x12 <__rc2>
    60c8: a6 12        	ldx	$12                     ; 0x12 <__rc2>
    60ca: d0 06        	bne	$60d2 <printf+0x981>
    60cc: aa           	tax
    60cd: d0 03        	bne	$60d2 <printf+0x981>
    60cf: 4c 81 64     	jmp	$6481 <printf+0xd30>
    60d2: a6 b1        	ldx	$b1                     ; 0xb1 <__zp_bss_size+0x76>
    60d4: 86 15        	stx	$15                     ; 0x15 <__rc5>
    60d6: a5 b2        	lda	$b2                     ; 0xb2 <__zp_bss_size+0x77>
    60d8: 4c 46 61     	jmp	$6146 <printf+0x9f5>
    60db: c5 b0        	cmp	$b0                     ; 0xb0 <__zp_bss_size+0x75>
    60dd: b0 39        	bcs	$6118 <printf+0x9c7>
    60df: a2 01        	ldx	#$1
    60e1: 86 14        	stx	$14                     ; 0x14 <__rc4>
    60e3: a6 bc        	ldx	$bc                     ; 0xbc <__zp_bss_size+0x81>
    60e5: a0 00        	ldy	#$0
    60e7: 84 12        	sty	$12                     ; 0x12 <__rc2>
    60e9: a0 00        	ldy	#$0
    60eb: 84 13        	sty	$13                     ; 0x13 <__rc3>
    60ed: e4 13        	cpx	$13                     ; 0x13 <__rc3>
    60ef: d0 1b        	bne	$610c <printf+0x9bb>
    60f1: a6 bb        	ldx	$bb                     ; 0xbb <__zp_bss_size+0x80>
    60f3: e4 12        	cpx	$12                     ; 0x12 <__rc2>
    60f5: d0 15        	bne	$610c <printf+0x9bb>
    60f7: a4 14        	ldy	$14                     ; 0x14 <__rc4>
    60f9: 18           	clc
    60fa: aa           	tax
    60fb: a5 15        	lda	$15                     ; 0x15 <__rc5>
    60fd: 65 b5        	adc	$b5                     ; 0xb5 <__zp_bss_size+0x7a>
    60ff: 85 12        	sta	$12                     ; 0x12 <__rc2>
    6101: 8a           	txa
    6102: 65 b6        	adc	$b6                     ; 0xb6 <__zp_bss_size+0x7b>
    6104: 85 13        	sta	$13                     ; 0x13 <__rc3>
    6106: a9 30        	lda	#$30
    6108: 92 12        	sta	($12)                   ; 0x12 <__rc2>
    610a: 80 0c        	bra	$6118 <printf+0x9c7>
    610c: a2 01        	ldx	#$1
    610e: 86 84        	stx	$84                     ; 0x84 <__zp_bss_size+0x49>
    6110: ca           	dex
    6111: a9 30        	lda	#$30
    6113: 20 8b 64     	jsr	$648b <putchar>
    6116: a4 84        	ldy	$84                     ; 0x84 <__zp_bss_size+0x49>
    6118: a6 b1        	ldx	$b1                     ; 0xb1 <__zp_bss_size+0x76>
    611a: a5 b2        	lda	$b2                     ; 0xb2 <__zp_bss_size+0x77>
    611c: e8           	inx
    611d: d0 01        	bne	$6120 <printf+0x9cf>
    611f: 1a           	inc
    6120: 86 15        	stx	$15                     ; 0x15 <__rc5>
    6122: 86 b1        	stx	$b1                     ; 0xb1 <__zp_bss_size+0x76>
    6124: 85 b2        	sta	$b2                     ; 0xb2 <__zp_bss_size+0x77>
    6126: a6 87        	ldx	$87                     ; 0x87 <__zp_bss_size+0x4c>
    6128: 86 12        	stx	$12                     ; 0x12 <__rc2>
    612a: a6 7d        	ldx	$7d                     ; 0x7d <__zp_bss_size+0x42>
    612c: 86 13        	stx	$13                     ; 0x13 <__rc3>
    612e: a2 ff        	ldx	#$ff
    6130: c6 12        	dec	$12                     ; 0x12 <__rc2>
    6132: e4 12        	cpx	$12                     ; 0x12 <__rc2>
    6134: d0 02        	bne	$6138 <printf+0x9e7>
    6136: c6 13        	dec	$13                     ; 0x13 <__rc3>
    6138: a6 12        	ldx	$12                     ; 0x12 <__rc2>
    613a: 86 87        	stx	$87                     ; 0x87 <__zp_bss_size+0x4c>
    613c: a6 13        	ldx	$13                     ; 0x13 <__rc3>
    613e: 86 7d        	stx	$7d                     ; 0x7d <__zp_bss_size+0x42>
    6140: d0 04        	bne	$6146 <printf+0x9f5>
    6142: a6 12        	ldx	$12                     ; 0x12 <__rc2>
    6144: f0 18        	beq	$615e <printf+0xa0d>
    6146: c5 b0        	cmp	$b0                     ; 0xb0 <__zp_bss_size+0x75>
    6148: f0 03        	beq	$614d <printf+0x9fc>
    614a: 4c db 60     	jmp	$60db <printf+0x98a>
    614d: a6 af        	ldx	$af                     ; 0xaf <__zp_bss_size+0x74>
    614f: 86 12        	stx	$12                     ; 0x12 <__rc2>
    6151: a6 15        	ldx	$15                     ; 0x15 <__rc5>
    6153: e4 12        	cpx	$12                     ; 0x12 <__rc2>
    6155: b0 c1        	bcs	$6118 <printf+0x9c7>
    6157: 4c df 60     	jmp	$60df <printf+0x98e>
    615a: a6 13        	ldx	$13                     ; 0x13 <__rc3>
    615c: 80 06        	bra	$6164 <printf+0xa13>
    615e: 64 87        	stz	$87                     ; 0x87 <__zp_bss_size+0x4c>
    6160: 64 7d        	stz	$7d                     ; 0x7d <__zp_bss_size+0x42>
    6162: a6 86        	ldx	$86                     ; 0x86 <__zp_bss_size+0x4b>
    6164: a9 00        	lda	#$0
    6166: c5 83        	cmp	$83                     ; 0x83 <__zp_bss_size+0x48>
    6168: d0 07        	bne	$6171 <printf+0xa20>
    616a: e4 85        	cpx	$85                     ; 0x85 <__zp_bss_size+0x4a>
    616c: 90 0a        	bcc	$6178 <printf+0xa27>
    616e: 4c fb 61     	jmp	$61fb <printf+0xaaa>
    6171: c5 83        	cmp	$83                     ; 0x83 <__zp_bss_size+0x48>
    6173: 90 03        	bcc	$6178 <printf+0xa27>
    6175: 4c fb 61     	jmp	$61fb <printf+0xaaa>
    6178: a6 b1        	ldx	$b1                     ; 0xb1 <__zp_bss_size+0x76>
    617a: 86 15        	stx	$15                     ; 0x15 <__rc5>
    617c: a5 b2        	lda	$b2                     ; 0xb2 <__zp_bss_size+0x77>
    617e: a2 ff        	ldx	#$ff
    6180: c6 85        	dec	$85                     ; 0x85 <__zp_bss_size+0x4a>
    6182: e4 85        	cpx	$85                     ; 0x85 <__zp_bss_size+0x4a>
    6184: d0 02        	bne	$6188 <printf+0xa37>
    6186: c6 83        	dec	$83                     ; 0x83 <__zp_bss_size+0x48>
    6188: c5 b0        	cmp	$b0                     ; 0xb0 <__zp_bss_size+0x75>
    618a: d0 0c        	bne	$6198 <printf+0xa47>
    618c: a6 af        	ldx	$af                     ; 0xaf <__zp_bss_size+0x74>
    618e: 86 12        	stx	$12                     ; 0x12 <__rc2>
    6190: a6 15        	ldx	$15                     ; 0x15 <__rc5>
    6192: e4 12        	cpx	$12                     ; 0x12 <__rc2>
    6194: 90 06        	bcc	$619c <printf+0xa4b>
    6196: 80 3d        	bra	$61d5 <printf+0xa84>
    6198: c5 b0        	cmp	$b0                     ; 0xb0 <__zp_bss_size+0x75>
    619a: b0 39        	bcs	$61d5 <printf+0xa84>
    619c: a2 01        	ldx	#$1
    619e: 86 14        	stx	$14                     ; 0x14 <__rc4>
    61a0: a6 bc        	ldx	$bc                     ; 0xbc <__zp_bss_size+0x81>
    61a2: a0 00        	ldy	#$0
    61a4: 84 12        	sty	$12                     ; 0x12 <__rc2>
    61a6: a0 00        	ldy	#$0
    61a8: 84 13        	sty	$13                     ; 0x13 <__rc3>
    61aa: e4 13        	cpx	$13                     ; 0x13 <__rc3>
    61ac: d0 1b        	bne	$61c9 <printf+0xa78>
    61ae: a6 bb        	ldx	$bb                     ; 0xbb <__zp_bss_size+0x80>
    61b0: e4 12        	cpx	$12                     ; 0x12 <__rc2>
    61b2: d0 15        	bne	$61c9 <printf+0xa78>
    61b4: a4 14        	ldy	$14                     ; 0x14 <__rc4>
    61b6: 18           	clc
    61b7: aa           	tax
    61b8: a5 15        	lda	$15                     ; 0x15 <__rc5>
    61ba: 65 b5        	adc	$b5                     ; 0xb5 <__zp_bss_size+0x7a>
    61bc: 85 12        	sta	$12                     ; 0x12 <__rc2>
    61be: 8a           	txa
    61bf: 65 b6        	adc	$b6                     ; 0xb6 <__zp_bss_size+0x7b>
    61c1: 85 13        	sta	$13                     ; 0x13 <__rc3>
    61c3: a9 30        	lda	#$30
    61c5: 92 12        	sta	($12)                   ; 0x12 <__rc2>
    61c7: 80 0c        	bra	$61d5 <printf+0xa84>
    61c9: a2 01        	ldx	#$1
    61cb: 86 84        	stx	$84                     ; 0x84 <__zp_bss_size+0x49>
    61cd: ca           	dex
    61ce: a9 30        	lda	#$30
    61d0: 20 8b 64     	jsr	$648b <putchar>
    61d3: a4 84        	ldy	$84                     ; 0x84 <__zp_bss_size+0x49>
    61d5: a6 b1        	ldx	$b1                     ; 0xb1 <__zp_bss_size+0x76>
    61d7: a5 b2        	lda	$b2                     ; 0xb2 <__zp_bss_size+0x77>
    61d9: e8           	inx
    61da: d0 01        	bne	$61dd <printf+0xa8c>
    61dc: 1a           	inc
    61dd: 86 15        	stx	$15                     ; 0x15 <__rc5>
    61df: 86 b1        	stx	$b1                     ; 0xb1 <__zp_bss_size+0x76>
    61e1: 85 b2        	sta	$b2                     ; 0xb2 <__zp_bss_size+0x77>
    61e3: a2 00        	ldx	#$0
    61e5: e4 83        	cpx	$83                     ; 0x83 <__zp_bss_size+0x48>
    61e7: d0 09        	bne	$61f2 <printf+0xaa1>
    61e9: a6 86        	ldx	$86                     ; 0x86 <__zp_bss_size+0x4b>
    61eb: e4 85        	cpx	$85                     ; 0x85 <__zp_bss_size+0x4a>
    61ed: b0 0c        	bcs	$61fb <printf+0xaaa>
    61ef: 4c 7e 61     	jmp	$617e <printf+0xa2d>
    61f2: e4 83        	cpx	$83                     ; 0x83 <__zp_bss_size+0x48>
    61f4: a6 86        	ldx	$86                     ; 0x86 <__zp_bss_size+0x4b>
    61f6: b0 03        	bcs	$61fb <printf+0xaaa>
    61f8: 4c 7e 61     	jmp	$617e <printf+0xa2d>
    61fb: 8a           	txa
    61fc: d0 03        	bne	$6201 <printf+0xab0>
    61fe: 4c 32 63     	jmp	$6332 <printf+0xbe1>
    6201: ca           	dex
    6202: d0 03        	bne	$6207 <printf+0xab6>
    6204: 4c b4 62     	jmp	$62b4 <printf+0xb63>
    6207: 86 84        	stx	$84                     ; 0x84 <__zp_bss_size+0x49>
    6209: a6 c8        	ldx	$c8                     ; 0xc8 <__zp_bss_size+0x8d>
    620b: 8a           	txa
    620c: 18           	clc
    620d: 65 84        	adc	$84                     ; 0x84 <__zp_bss_size+0x49>
    620f: 85 82        	sta	$82                     ; 0x82 <__zp_bss_size+0x47>
    6211: a5 c9        	lda	$c9                     ; 0xc9 <__zp_bss_size+0x8e>
    6213: 69 00        	adc	#$0
    6215: 85 83        	sta	$83                     ; 0x83 <__zp_bss_size+0x48>
    6217: 4c a2 62     	jmp	$62a2 <printf+0xb51>
    621a: 85 13        	sta	$13                     ; 0x13 <__rc3>
    621c: a9 80        	lda	#$80
    621e: 25 ad        	and	$ad                     ; 0xad <__zp_bss_size+0x72>
    6220: f0 04        	beq	$6226 <printf+0xad5>
    6222: a2 61        	ldx	#$61
    6224: 80 02        	bra	$6228 <printf+0xad7>
    6226: a2 41        	ldx	#$41
    6228: 86 12        	stx	$12                     ; 0x12 <__rc2>
    622a: a2 01        	ldx	#$1
    622c: 86 14        	stx	$14                     ; 0x14 <__rc4>
    622e: 18           	clc
    622f: a5 13        	lda	$13                     ; 0x13 <__rc3>
    6231: 65 12        	adc	$12                     ; 0x12 <__rc2>
    6233: 18           	clc
    6234: 69 f6        	adc	#$f6
    6236: a4 b1        	ldy	$b1                     ; 0xb1 <__zp_bss_size+0x76>
    6238: a6 b2        	ldx	$b2                     ; 0xb2 <__zp_bss_size+0x77>
    623a: e4 b0        	cpx	$b0                     ; 0xb0 <__zp_bss_size+0x75>
    623c: d0 0c        	bne	$624a <printf+0xaf9>
    623e: 86 16        	stx	$16                     ; 0x16 <__rc6>
    6240: a6 af        	ldx	$af                     ; 0xaf <__zp_bss_size+0x74>
    6242: 86 12        	stx	$12                     ; 0x12 <__rc2>
    6244: 84 15        	sty	$15                     ; 0x15 <__rc5>
    6246: c4 12        	cpy	$12                     ; 0x12 <__rc2>
    6248: 80 06        	bra	$6250 <printf+0xaff>
    624a: 84 15        	sty	$15                     ; 0x15 <__rc5>
    624c: 86 16        	stx	$16                     ; 0x16 <__rc6>
    624e: e4 b0        	cpx	$b0                     ; 0xb0 <__zp_bss_size+0x75>
    6250: a4 14        	ldy	$14                     ; 0x14 <__rc4>
    6252: b0 38        	bcs	$628c <printf+0xb3b>
    6254: 85 14        	sta	$14                     ; 0x14 <__rc4>
    6256: a9 01        	lda	#$1
    6258: a6 bc        	ldx	$bc                     ; 0xbc <__zp_bss_size+0x81>
    625a: a0 00        	ldy	#$0
    625c: 84 12        	sty	$12                     ; 0x12 <__rc2>
    625e: a0 00        	ldy	#$0
    6260: 84 13        	sty	$13                     ; 0x13 <__rc3>
    6262: e4 13        	cpx	$13                     ; 0x13 <__rc3>
    6264: d0 1a        	bne	$6280 <printf+0xb2f>
    6266: a6 bb        	ldx	$bb                     ; 0xbb <__zp_bss_size+0x80>
    6268: e4 12        	cpx	$12                     ; 0x12 <__rc2>
    626a: d0 14        	bne	$6280 <printf+0xb2f>
    626c: a8           	tay
    626d: 18           	clc
    626e: a5 15        	lda	$15                     ; 0x15 <__rc5>
    6270: 65 b5        	adc	$b5                     ; 0xb5 <__zp_bss_size+0x7a>
    6272: 85 12        	sta	$12                     ; 0x12 <__rc2>
    6274: a5 16        	lda	$16                     ; 0x16 <__rc6>
    6276: 65 b6        	adc	$b6                     ; 0xb6 <__zp_bss_size+0x7b>
    6278: 85 13        	sta	$13                     ; 0x13 <__rc3>
    627a: a5 14        	lda	$14                     ; 0x14 <__rc4>
    627c: 92 12        	sta	($12)                   ; 0x12 <__rc2>
    627e: 80 0c        	bra	$628c <printf+0xb3b>
    6280: a2 01        	ldx	#$1
    6282: 86 85        	stx	$85                     ; 0x85 <__zp_bss_size+0x4a>
    6284: ca           	dex
    6285: a5 14        	lda	$14                     ; 0x14 <__rc4>
    6287: 20 8b 64     	jsr	$648b <putchar>
    628a: a4 85        	ldy	$85                     ; 0x85 <__zp_bss_size+0x4a>
    628c: e6 b1        	inc	$b1                     ; 0xb1 <__zp_bss_size+0x76>
    628e: d0 02        	bne	$6292 <printf+0xb41>
    6290: e6 b2        	inc	$b2                     ; 0xb2 <__zp_bss_size+0x77>
    6292: c6 84        	dec	$84                     ; 0x84 <__zp_bss_size+0x49>
    6294: a2 ff        	ldx	#$ff
    6296: c6 82        	dec	$82                     ; 0x82 <__zp_bss_size+0x47>
    6298: e4 82        	cpx	$82                     ; 0x82 <__zp_bss_size+0x47>
    629a: d0 02        	bne	$629e <printf+0xb4d>
    629c: c6 83        	dec	$83                     ; 0x83 <__zp_bss_size+0x48>
    629e: a5 84        	lda	$84                     ; 0x84 <__zp_bss_size+0x49>
    62a0: f0 12        	beq	$62b4 <printf+0xb63>
    62a2: b2 82        	lda	($82)                   ; 0x82 <__zp_bss_size+0x47>
    62a4: c9 0a        	cmp	#$a
    62a6: 90 03        	bcc	$62ab <printf+0xb5a>
    62a8: 4c 1a 62     	jmp	$621a <printf+0xac9>
    62ab: a2 01        	ldx	#$1
    62ad: 86 14        	stx	$14                     ; 0x14 <__rc4>
    62af: 09 30        	ora	#$30
    62b1: 4c 36 62     	jmp	$6236 <printf+0xae5>
    62b4: a5 8a        	lda	$8a                     ; 0x8a <__zp_bss_size+0x4f>
    62b6: c9 0a        	cmp	#$a
    62b8: b0 04        	bcs	$62be <printf+0xb6d>
    62ba: 09 30        	ora	#$30
    62bc: 80 18        	bra	$62d6 <printf+0xb85>
    62be: 85 13        	sta	$13                     ; 0x13 <__rc3>
    62c0: a9 80        	lda	#$80
    62c2: 25 ad        	and	$ad                     ; 0xad <__zp_bss_size+0x72>
    62c4: f0 04        	beq	$62ca <printf+0xb79>
    62c6: a2 61        	ldx	#$61
    62c8: 80 02        	bra	$62cc <printf+0xb7b>
    62ca: a2 41        	ldx	#$41
    62cc: 86 12        	stx	$12                     ; 0x12 <__rc2>
    62ce: 18           	clc
    62cf: a5 13        	lda	$13                     ; 0x13 <__rc3>
    62d1: 65 12        	adc	$12                     ; 0x12 <__rc2>
    62d3: 18           	clc
    62d4: 69 f6        	adc	#$f6
    62d6: a6 b1        	ldx	$b1                     ; 0xb1 <__zp_bss_size+0x76>
    62d8: 86 15        	stx	$15                     ; 0x15 <__rc5>
    62da: a6 b2        	ldx	$b2                     ; 0xb2 <__zp_bss_size+0x77>
    62dc: e4 b0        	cpx	$b0                     ; 0xb0 <__zp_bss_size+0x75>
    62de: d0 0e        	bne	$62ee <printf+0xb9d>
    62e0: 86 16        	stx	$16                     ; 0x16 <__rc6>
    62e2: a6 af        	ldx	$af                     ; 0xaf <__zp_bss_size+0x74>
    62e4: 86 12        	stx	$12                     ; 0x12 <__rc2>
    62e6: a6 15        	ldx	$15                     ; 0x15 <__rc5>
    62e8: e4 12        	cpx	$12                     ; 0x12 <__rc2>
    62ea: 90 08        	bcc	$62f4 <printf+0xba3>
    62ec: 80 3e        	bra	$632c <printf+0xbdb>
    62ee: 86 16        	stx	$16                     ; 0x16 <__rc6>
    62f0: e4 b0        	cpx	$b0                     ; 0xb0 <__zp_bss_size+0x75>
    62f2: b0 38        	bcs	$632c <printf+0xbdb>
    62f4: 85 14        	sta	$14                     ; 0x14 <__rc4>
    62f6: a9 01        	lda	#$1
    62f8: a6 bc        	ldx	$bc                     ; 0xbc <__zp_bss_size+0x81>
    62fa: a0 00        	ldy	#$0
    62fc: 84 12        	sty	$12                     ; 0x12 <__rc2>
    62fe: a0 00        	ldy	#$0
    6300: 84 13        	sty	$13                     ; 0x13 <__rc3>
    6302: e4 13        	cpx	$13                     ; 0x13 <__rc3>
    6304: d0 1a        	bne	$6320 <printf+0xbcf>
    6306: a6 bb        	ldx	$bb                     ; 0xbb <__zp_bss_size+0x80>
    6308: e4 12        	cpx	$12                     ; 0x12 <__rc2>
    630a: d0 14        	bne	$6320 <printf+0xbcf>
    630c: a8           	tay
    630d: 18           	clc
    630e: a5 15        	lda	$15                     ; 0x15 <__rc5>
    6310: 65 b5        	adc	$b5                     ; 0xb5 <__zp_bss_size+0x7a>
    6312: 85 12        	sta	$12                     ; 0x12 <__rc2>
    6314: a5 16        	lda	$16                     ; 0x16 <__rc6>
    6316: 65 b6        	adc	$b6                     ; 0xb6 <__zp_bss_size+0x7b>
    6318: 85 13        	sta	$13                     ; 0x13 <__rc3>
    631a: a5 14        	lda	$14                     ; 0x14 <__rc4>
    631c: 92 12        	sta	($12)                   ; 0x12 <__rc2>
    631e: 80 0c        	bra	$632c <printf+0xbdb>
    6320: a2 01        	ldx	#$1
    6322: 86 82        	stx	$82                     ; 0x82 <__zp_bss_size+0x47>
    6324: ca           	dex
    6325: a5 14        	lda	$14                     ; 0x14 <__rc4>
    6327: 20 8b 64     	jsr	$648b <putchar>
    632a: a4 82        	ldy	$82                     ; 0x82 <__zp_bss_size+0x47>
    632c: e6 b1        	inc	$b1                     ; 0xb1 <__zp_bss_size+0x76>
    632e: d0 02        	bne	$6332 <printf+0xbe1>
    6330: e6 b2        	inc	$b2                     ; 0xb2 <__zp_bss_size+0x77>
    6332: a5 ad        	lda	$ad                     ; 0xad <__zp_bss_size+0x72>
    6334: 29 01        	and	#$1
    6336: d0 27        	bne	$635f <printf+0xc0e>
    6338: a6 b1        	ldx	$b1                     ; 0xb1 <__zp_bss_size+0x76>
    633a: 86 15        	stx	$15                     ; 0x15 <__rc5>
    633c: a5 b2        	lda	$b2                     ; 0xb2 <__zp_bss_size+0x77>
    633e: a6 af        	ldx	$af                     ; 0xaf <__zp_bss_size+0x74>
    6340: 86 14        	stx	$14                     ; 0x14 <__rc4>
    6342: a6 b0        	ldx	$b0                     ; 0xb0 <__zp_bss_size+0x75>
    6344: 86 12        	stx	$12                     ; 0x12 <__rc2>
    6346: 86 13        	stx	$13                     ; 0x13 <__rc3>
    6348: c5 12        	cmp	$12                     ; 0x12 <__rc2>
    634a: f0 03        	beq	$634f <printf+0xbfe>
    634c: 4c ff 63     	jmp	$63ff <printf+0xcae>
    634f: a5 14        	lda	$14                     ; 0x14 <__rc4>
    6351: 85 12        	sta	$12                     ; 0x12 <__rc2>
    6353: a6 15        	ldx	$15                     ; 0x15 <__rc5>
    6355: e4 12        	cpx	$12                     ; 0x12 <__rc2>
    6357: 90 03        	bcc	$635c <printf+0xc0b>
    6359: 4c 07 64     	jmp	$6407 <printf+0xcb6>
    635c: 4c 27 64     	jmp	$6427 <printf+0xcd6>
    635f: a6 b1        	ldx	$b1                     ; 0xb1 <__zp_bss_size+0x76>
    6361: 86 15        	stx	$15                     ; 0x15 <__rc5>
    6363: a5 b2        	lda	$b2                     ; 0xb2 <__zp_bss_size+0x77>
    6365: a6 87        	ldx	$87                     ; 0x87 <__zp_bss_size+0x4c>
    6367: 5a           	phy
    6368: a4 7d        	ldy	$7d                     ; 0x7d <__zp_bss_size+0x42>
    636a: 84 12        	sty	$12                     ; 0x12 <__rc2>
    636c: 7a           	ply
    636d: e6 12        	inc	$12                     ; 0x12 <__rc2>
    636f: c6 12        	dec	$12                     ; 0x12 <__rc2>
    6371: f0 03        	beq	$6376 <printf+0xc25>
    6373: 4c eb 63     	jmp	$63eb <printf+0xc9a>
    6376: e0 00        	cpx	#$0
    6378: f0 c4        	beq	$633e <printf+0xbed>
    637a: 4c eb 63     	jmp	$63eb <printf+0xc9a>
    637d: c5 b0        	cmp	$b0                     ; 0xb0 <__zp_bss_size+0x75>
    637f: b0 39        	bcs	$63ba <printf+0xc69>
    6381: a2 01        	ldx	#$1
    6383: 86 14        	stx	$14                     ; 0x14 <__rc4>
    6385: a6 bc        	ldx	$bc                     ; 0xbc <__zp_bss_size+0x81>
    6387: a0 00        	ldy	#$0
    6389: 84 12        	sty	$12                     ; 0x12 <__rc2>
    638b: a0 00        	ldy	#$0
    638d: 84 13        	sty	$13                     ; 0x13 <__rc3>
    638f: e4 13        	cpx	$13                     ; 0x13 <__rc3>
    6391: d0 1b        	bne	$63ae <printf+0xc5d>
    6393: a6 bb        	ldx	$bb                     ; 0xbb <__zp_bss_size+0x80>
    6395: e4 12        	cpx	$12                     ; 0x12 <__rc2>
    6397: d0 15        	bne	$63ae <printf+0xc5d>
    6399: a4 14        	ldy	$14                     ; 0x14 <__rc4>
    639b: 18           	clc
    639c: aa           	tax
    639d: a5 15        	lda	$15                     ; 0x15 <__rc5>
    639f: 65 b5        	adc	$b5                     ; 0xb5 <__zp_bss_size+0x7a>
    63a1: 85 12        	sta	$12                     ; 0x12 <__rc2>
    63a3: 8a           	txa
    63a4: 65 b6        	adc	$b6                     ; 0xb6 <__zp_bss_size+0x7b>
    63a6: 85 13        	sta	$13                     ; 0x13 <__rc3>
    63a8: a9 20        	lda	#$20
    63aa: 92 12        	sta	($12)                   ; 0x12 <__rc2>
    63ac: 80 0c        	bra	$63ba <printf+0xc69>
    63ae: a2 01        	ldx	#$1
    63b0: 86 82        	stx	$82                     ; 0x82 <__zp_bss_size+0x47>
    63b2: ca           	dex
    63b3: a9 20        	lda	#$20
    63b5: 20 8b 64     	jsr	$648b <putchar>
    63b8: a4 82        	ldy	$82                     ; 0x82 <__zp_bss_size+0x47>
    63ba: a6 b1        	ldx	$b1                     ; 0xb1 <__zp_bss_size+0x76>
    63bc: a5 b2        	lda	$b2                     ; 0xb2 <__zp_bss_size+0x77>
    63be: e8           	inx
    63bf: d0 01        	bne	$63c2 <printf+0xc71>
    63c1: 1a           	inc
    63c2: 86 15        	stx	$15                     ; 0x15 <__rc5>
    63c4: 86 b1        	stx	$b1                     ; 0xb1 <__zp_bss_size+0x76>
    63c6: 85 b2        	sta	$b2                     ; 0xb2 <__zp_bss_size+0x77>
    63c8: a6 87        	ldx	$87                     ; 0x87 <__zp_bss_size+0x4c>
    63ca: 86 12        	stx	$12                     ; 0x12 <__rc2>
    63cc: a6 7d        	ldx	$7d                     ; 0x7d <__zp_bss_size+0x42>
    63ce: 86 13        	stx	$13                     ; 0x13 <__rc3>
    63d0: a2 ff        	ldx	#$ff
    63d2: c6 12        	dec	$12                     ; 0x12 <__rc2>
    63d4: e4 12        	cpx	$12                     ; 0x12 <__rc2>
    63d6: d0 02        	bne	$63da <printf+0xc89>
    63d8: c6 13        	dec	$13                     ; 0x13 <__rc3>
    63da: a6 12        	ldx	$12                     ; 0x12 <__rc2>
    63dc: 86 87        	stx	$87                     ; 0x87 <__zp_bss_size+0x4c>
    63de: a6 13        	ldx	$13                     ; 0x13 <__rc3>
    63e0: 86 7d        	stx	$7d                     ; 0x7d <__zp_bss_size+0x42>
    63e2: d0 07        	bne	$63eb <printf+0xc9a>
    63e4: a6 12        	ldx	$12                     ; 0x12 <__rc2>
    63e6: d0 03        	bne	$63eb <printf+0xc9a>
    63e8: 4c 3e 63     	jmp	$633e <printf+0xbed>
    63eb: c5 b0        	cmp	$b0                     ; 0xb0 <__zp_bss_size+0x75>
    63ed: f0 03        	beq	$63f2 <printf+0xca1>
    63ef: 4c 7d 63     	jmp	$637d <printf+0xc2c>
    63f2: a6 af        	ldx	$af                     ; 0xaf <__zp_bss_size+0x74>
    63f4: 86 12        	stx	$12                     ; 0x12 <__rc2>
    63f6: a6 15        	ldx	$15                     ; 0x15 <__rc5>
    63f8: e4 12        	cpx	$12                     ; 0x12 <__rc2>
    63fa: b0 be        	bcs	$63ba <printf+0xc69>
    63fc: 4c 81 63     	jmp	$6381 <printf+0xc30>
    63ff: 86 12        	stx	$12                     ; 0x12 <__rc2>
    6401: c5 12        	cmp	$12                     ; 0x12 <__rc2>
    6403: a5 14        	lda	$14                     ; 0x14 <__rc4>
    6405: 90 20        	bcc	$6427 <printf+0xcd6>
    6407: a6 13        	ldx	$13                     ; 0x13 <__rc3>
    6409: d0 03        	bne	$640e <printf+0xcbd>
    640b: aa           	tax
    640c: f0 19        	beq	$6427 <printf+0xcd6>
    640e: 18           	clc
    640f: 65 b5        	adc	$b5                     ; 0xb5 <__zp_bss_size+0x7a>
    6411: 85 12        	sta	$12                     ; 0x12 <__rc2>
    6413: a5 13        	lda	$13                     ; 0x13 <__rc3>
    6415: 65 b6        	adc	$b6                     ; 0xb6 <__zp_bss_size+0x7b>
    6417: 85 13        	sta	$13                     ; 0x13 <__rc3>
    6419: a2 ff        	ldx	#$ff
    641b: c6 12        	dec	$12                     ; 0x12 <__rc2>
    641d: e4 12        	cpx	$12                     ; 0x12 <__rc2>
    641f: d0 02        	bne	$6423 <printf+0xcd2>
    6421: c6 13        	dec	$13                     ; 0x13 <__rc3>
    6423: a9 00        	lda	#$0
    6425: 92 12        	sta	($12)                   ; 0x12 <__rc2>
    6427: e6 7e        	inc	$7e                     ; 0x7e <__zp_bss_size+0x43>
    6429: d0 02        	bne	$642d <printf+0xcdc>
    642b: e6 7f        	inc	$7f                     ; 0x7f <__zp_bss_size+0x44>
    642d: a6 7f        	ldx	$7f                     ; 0x7f <__zp_bss_size+0x44>
    642f: e4 81        	cpx	$81                     ; 0x81 <__zp_bss_size+0x46>
    6431: f0 03        	beq	$6436 <printf+0xce5>
    6433: 4c b6 57     	jmp	$57b6 <printf+0x65>
    6436: a6 7e        	ldx	$7e                     ; 0x7e <__zp_bss_size+0x43>
    6438: e4 80        	cpx	$80                     ; 0x80 <__zp_bss_size+0x45>
    643a: f0 03        	beq	$643f <printf+0xcee>
    643c: 4c b6 57     	jmp	$57b6 <printf+0x65>
    643f: b2 80        	lda	($80)                   ; 0x80 <__zp_bss_size+0x45>
    6441: a2 00        	ldx	#$0
    6443: 4c cd 57     	jmp	$57cd <printf+0x7c>
    6446: a2 20        	ldx	#$20
    6448: 86 c2        	stx	$c2                     ; 0xc2 <__zp_bss_size+0x87>
    644a: 4c d1 5e     	jmp	$5ed1 <printf+0x780>
    644d: e4 83        	cpx	$83                     ; 0x83 <__zp_bss_size+0x48>
    644f: a6 7c        	ldx	$7c                     ; 0x7c <__zp_bss_size+0x41>
    6451: b0 03        	bcs	$6456 <printf+0xd05>
    6453: 4c a3 5e     	jmp	$5ea3 <printf+0x752>
    6456: a5 86        	lda	$86                     ; 0x86 <__zp_bss_size+0x4b>
    6458: 85 82        	sta	$82                     ; 0x82 <__zp_bss_size+0x47>
    645a: 64 83        	stz	$83                     ; 0x83 <__zp_bss_size+0x48>
    645c: e6 82        	inc	$82                     ; 0x82 <__zp_bss_size+0x47>
    645e: f0 03        	beq	$6463 <printf+0xd12>
    6460: 4c a3 5e     	jmp	$5ea3 <printf+0x752>
    6463: e6 83        	inc	$83                     ; 0x83 <__zp_bss_size+0x48>
    6465: 4c a3 5e     	jmp	$5ea3 <printf+0x752>
    6468: 86 c1        	stx	$c1                     ; 0xc1 <__zp_bss_size+0x86>
    646a: a2 58        	ldx	#$58
    646c: 86 c6        	stx	$c6                     ; 0xc6 <__zp_bss_size+0x8b>
    646e: a2 01        	ldx	#$1
    6470: 86 82        	stx	$82                     ; 0x82 <__zp_bss_size+0x47>
    6472: a2 30        	ldx	#$30
    6474: 86 c2        	stx	$c2                     ; 0xc2 <__zp_bss_size+0x87>
    6476: a2 02        	ldx	#$2
    6478: 86 16        	stx	$16                     ; 0x16 <__rc6>
    647a: a2 00        	ldx	#$0
    647c: 86 85        	stx	$85                     ; 0x85 <__zp_bss_size+0x4a>
    647e: 4c d7 5e     	jmp	$5ed7 <printf+0x786>
    6481: a6 13        	ldx	$13                     ; 0x13 <__rc3>
    6483: 64 87        	stz	$87                     ; 0x87 <__zp_bss_size+0x4c>
    6485: 64 7d        	stz	$7d                     ; 0x7d <__zp_bss_size+0x42>
    6487: 4c 64 61     	jmp	$6164 <printf+0xa13>
    648a: 60           	rts

0000648b <putchar>:
    648b: 86 12        	stx	$12                     ; 0x12 <__rc2>
    648d: 85 1b        	sta	$1b                     ; 0x1b <__rc11>
    648f: 85 3f        	sta	$3f                     ; 0x3f <__putchar.s>
    6491: a6 01        	ldx	$1                      ; 0x1 <__zp_data_size>
    6493: 86 d5        	stx	$d5                     ; 0xd5 <__zp_bss_size+0x9a>
    6495: a6 32        	ldx	$32                     ; 0x32 <_row>
    6497: a0 50        	ldy	#$50
    6499: 8c 00 de     	sty	$de00                   ; 0xde00 <__heap_start+0x5b70>
    649c: 9c 01 de     	stz	$de01                   ; 0xde01 <__heap_start+0x5b71>
    649f: 8e 02 de     	stx	$de02                   ; 0xde02 <__heap_start+0x5b72>
    64a2: 9c 03 de     	stz	$de03                   ; 0xde03 <__heap_start+0x5b73>
    64a5: ae 10 de     	ldx	$de10                   ; 0xde10 <__heap_start+0x5b80>
    64a8: 86 13        	stx	$13                     ; 0x13 <__rc3>
    64aa: ad 11 de     	lda	$de11                   ; 0xde11 <__heap_start+0x5b81>
    64ad: ae 12 de     	ldx	$de12                   ; 0xde12 <__heap_start+0x5b82>
    64b0: 86 1a        	stx	$1a                     ; 0x1a <__rc10>
    64b2: ae 13 de     	ldx	$de13                   ; 0xde13 <__heap_start+0x5b83>
    64b5: 86 1c        	stx	$1c                     ; 0x1c <__rc12>
    64b7: 9c 08 de     	stz	$de08                   ; 0xde08 <__heap_start+0x5b78>
    64ba: a2 c0        	ldx	#$c0
    64bc: 8e 09 de     	stx	$de09                   ; 0xde09 <__heap_start+0x5b79>
    64bf: 9c 0a de     	stz	$de0a                   ; 0xde0a <__heap_start+0x5b7a>
    64c2: 9c 0b de     	stz	$de0b                   ; 0xde0b <__heap_start+0x5b7b>
    64c5: a6 13        	ldx	$13                     ; 0x13 <__rc3>
    64c7: 8e 0c de     	stx	$de0c                   ; 0xde0c <__heap_start+0x5b7c>
    64ca: 8d 0d de     	sta	$de0d                   ; 0xde0d <__heap_start+0x5b7d>
    64cd: 64 13        	stz	$13                     ; 0x13 <__rc3>
    64cf: a2 00        	ldx	#$0
    64d1: 86 14        	stx	$14                     ; 0x14 <__rc4>
    64d3: a2 c0        	ldx	#$c0
    64d5: 86 15        	stx	$15                     ; 0x15 <__rc5>
    64d7: a2 11        	ldx	#$11
    64d9: 86 16        	stx	$16                     ; 0x16 <__rc6>
    64db: a2 c9        	ldx	#$c9
    64dd: 86 17        	stx	$17                     ; 0x17 <__rc7>
    64df: a2 10        	ldx	#$10
    64e1: 86 18        	stx	$18                     ; 0x18 <__rc8>
    64e3: a2 c9        	ldx	#$c9
    64e5: 86 19        	stx	$19                     ; 0x19 <__rc9>
    64e7: a6 1a        	ldx	$1a                     ; 0x1a <__rc10>
    64e9: 8e 0e de     	stx	$de0e                   ; 0xde0e <__heap_start+0x5b7e>
    64ec: a6 1c        	ldx	$1c                     ; 0x1c <__rc12>
    64ee: 8e 0f de     	stx	$de0f                   ; 0xde0f <__heap_start+0x5b7f>
    64f1: ae 18 de     	ldx	$de18                   ; 0xde18 <__heap_start+0x5b88>
    64f4: 86 1c        	stx	$1c                     ; 0x1c <__rc12>
    64f6: ad 19 de     	lda	$de19                   ; 0xde19 <__heap_start+0x5b89>
    64f9: ae 1a de     	ldx	$de1a                   ; 0xde1a <__heap_start+0x5b8a>
    64fc: ae 1b de     	ldx	$de1b                   ; 0xde1b <__heap_start+0x5b8b>
    64ff: 85 1d        	sta	$1d                     ; 0x1d <__rc13>
    6501: 64 1a        	stz	$1a                     ; 0x1a <__rc10>
    6503: a2 20        	ldx	#$20
    6505: 86 d7        	stx	$d7                     ; 0xd7 <__zp_bss_size+0x9c>
    6507: 80 13        	bra	$651c <putchar+0x91>
    6509: a5 1c        	lda	$1c                     ; 0x1c <__rc12>
    650b: 18           	clc
    650c: 69 50        	adc	#$50
    650e: 85 1c        	sta	$1c                     ; 0x1c <__rc12>
    6510: a5 1d        	lda	$1d                     ; 0x1d <__rc13>
    6512: 69 00        	adc	#$0
    6514: 85 1d        	sta	$1d                     ; 0x1d <__rc13>
    6516: e6 13        	inc	$13                     ; 0x13 <__rc3>
    6518: d0 02        	bne	$651c <putchar+0x91>
    651a: e6 1a        	inc	$1a                     ; 0x1a <__rc10>
    651c: a9 3f        	lda	#$3f
    651e: 18           	clc
    651f: 65 13        	adc	$13                     ; 0x13 <__rc3>
    6521: 85 1e        	sta	$1e                     ; 0x1e <__rc14>
    6523: a9 00        	lda	#$0
    6525: 65 1a        	adc	$1a                     ; 0x1a <__rc10>
    6527: 85 1f        	sta	$1f                     ; 0x1f <__rc15>
    6529: b2 1e        	lda	($1e)                   ; 0x1e <__rc14>
    652b: c9 0a        	cmp	#$a
    652d: f0 2a        	beq	$6559 <putchar+0xce>
    652f: c9 0d        	cmp	#$d
    6531: f0 26        	beq	$6559 <putchar+0xce>
    6533: aa           	tax
    6534: d0 03        	bne	$6539 <putchar+0xae>
    6536: 4c 67 66     	jmp	$6667 <putchar+0x1dc>
    6539: a2 03        	ldx	#$3
    653b: 86 01        	stx	$1                      ; 0x1 <__zp_data_size>
    653d: a5 30        	lda	$30                     ; 0x30 <_ccolor>
    653f: 84 22        	sty	$22                     ; 0x22 <__rc18>
    6541: a4 31        	ldy	$31                     ; 0x31 <_col>
    6543: 91 1c        	sta	($1c),y                 ; 0x1c <__rc12>
    6545: ca           	dex
    6546: 86 01        	stx	$1                      ; 0x1 <__zp_data_size>
    6548: b2 1e        	lda	($1e)                   ; 0x1e <__rc14>
    654a: a4 31        	ldy	$31                     ; 0x31 <_col>
    654c: 91 1c        	sta	($1c),y                 ; 0x1c <__rc12>
    654e: a4 22        	ldy	$22                     ; 0x22 <__rc18>
    6550: a6 31        	ldx	$31                     ; 0x31 <_col>
    6552: e8           	inx
    6553: e6 31        	inc	$31                     ; 0x31 <_col>
    6555: e0 50        	cpx	#$50
    6557: d0 bd        	bne	$6516 <putchar+0x8b>
    6559: 64 31        	stz	$31                     ; 0x31 <_col>
    655b: a6 32        	ldx	$32                     ; 0x32 <_row>
    655d: e8           	inx
    655e: e6 32        	inc	$32                     ; 0x32 <_row>
    6560: e0 1e        	cpx	#$1e
    6562: f0 03        	beq	$6567 <putchar+0xdc>
    6564: 4c 09 65     	jmp	$6509 <putchar+0x7e>
    6567: a2 03        	ldx	#$3
    6569: 86 01        	stx	$1                      ; 0x1 <__zp_data_size>
    656b: a2 09        	ldx	#$9
    656d: a9 10        	lda	#$10
    656f: 5a           	phy
    6570: a0 00        	ldy	#$0
    6572: 84 1c        	sty	$1c                     ; 0x1c <__rc12>
    6574: a0 c0        	ldy	#$c0
    6576: 84 1d        	sty	$1d                     ; 0x1d <__rc13>
    6578: 7a           	ply
    6579: 85 1e        	sta	$1e                     ; 0x1e <__rc14>
    657b: b1 1c        	lda	($1c),y                 ; 0x1c <__rc12>
    657d: 92 1c        	sta	($1c)                   ; 0x1c <__rc12>
    657f: a9 ff        	lda	#$ff
    6581: c6 1e        	dec	$1e                     ; 0x1e <__rc14>
    6583: c5 1e        	cmp	$1e                     ; 0x1e <__rc14>
    6585: d0 01        	bne	$6588 <putchar+0xfd>
    6587: ca           	dex
    6588: e6 1c        	inc	$1c                     ; 0x1c <__rc12>
    658a: d0 02        	bne	$658e <putchar+0x103>
    658c: e6 1d        	inc	$1d                     ; 0x1d <__rc13>
    658e: 8a           	txa
    658f: d0 ea        	bne	$657b <putchar+0xf0>
    6591: a5 1e        	lda	$1e                     ; 0x1e <__rc14>
    6593: d0 e6        	bne	$657b <putchar+0xf0>
    6595: a2 02        	ldx	#$2
    6597: 86 01        	stx	$1                      ; 0x1 <__zp_data_size>
    6599: a2 09        	ldx	#$9
    659b: a9 10        	lda	#$10
    659d: 5a           	phy
    659e: a0 00        	ldy	#$0
    65a0: 84 1c        	sty	$1c                     ; 0x1c <__rc12>
    65a2: a0 c0        	ldy	#$c0
    65a4: 84 1d        	sty	$1d                     ; 0x1d <__rc13>
    65a6: 7a           	ply
    65a7: 85 1e        	sta	$1e                     ; 0x1e <__rc14>
    65a9: b1 1c        	lda	($1c),y                 ; 0x1c <__rc12>
    65ab: 92 1c        	sta	($1c)                   ; 0x1c <__rc12>
    65ad: a9 ff        	lda	#$ff
    65af: c6 1e        	dec	$1e                     ; 0x1e <__rc14>
    65b1: c5 1e        	cmp	$1e                     ; 0x1e <__rc14>
    65b3: d0 01        	bne	$65b6 <putchar+0x12b>
    65b5: ca           	dex
    65b6: e6 1c        	inc	$1c                     ; 0x1c <__rc12>
    65b8: d0 02        	bne	$65bc <putchar+0x131>
    65ba: e6 1d        	inc	$1d                     ; 0x1d <__rc13>
    65bc: 8a           	txa
    65bd: d0 ea        	bne	$65a9 <putchar+0x11e>
    65bf: a5 1e        	lda	$1e                     ; 0x1e <__rc14>
    65c1: d0 e6        	bne	$65a9 <putchar+0x11e>
    65c3: a2 50        	ldx	#$50
    65c5: 86 d6        	stx	$d6                     ; 0xd6 <__zp_bss_size+0x9b>
    65c7: a2 02        	ldx	#$2
    65c9: 86 01        	stx	$1                      ; 0x1 <__zp_data_size>
    65cb: e8           	inx
    65cc: 86 01        	stx	$1                      ; 0x1 <__zp_data_size>
    65ce: a5 30        	lda	$30                     ; 0x30 <_ccolor>
    65d0: a2 50        	ldx	#$50
    65d2: a0 11        	ldy	#$11
    65d4: 84 1c        	sty	$1c                     ; 0x1c <__rc12>
    65d6: a0 c9        	ldy	#$c9
    65d8: 84 1d        	sty	$1d                     ; 0x1d <__rc13>
    65da: a0 10        	ldy	#$10
    65dc: 84 1e        	sty	$1e                     ; 0x1e <__rc14>
    65de: a0 c9        	ldy	#$c9
    65e0: 84 1f        	sty	$1f                     ; 0x1f <__rc15>
    65e2: a4 1e        	ldy	$1e                     ; 0x1e <__rc14>
    65e4: 84 22        	sty	$22                     ; 0x22 <__rc18>
    65e6: a4 1f        	ldy	$1f                     ; 0x1f <__rc15>
    65e8: 84 23        	sty	$23                     ; 0x23 <__rc19>
    65ea: a4 1c        	ldy	$1c                     ; 0x1c <__rc12>
    65ec: 84 1e        	sty	$1e                     ; 0x1e <__rc14>
    65ee: a4 1d        	ldy	$1d                     ; 0x1d <__rc13>
    65f0: 84 1f        	sty	$1f                     ; 0x1f <__rc15>
    65f2: 92 22        	sta	($22)                   ; 0x22 <__rc18>
    65f4: e6 1c        	inc	$1c                     ; 0x1c <__rc12>
    65f6: d0 02        	bne	$65fa <putchar+0x16f>
    65f8: e6 1d        	inc	$1d                     ; 0x1d <__rc13>
    65fa: ca           	dex
    65fb: d0 e5        	bne	$65e2 <putchar+0x157>
    65fd: a2 02        	ldx	#$2
    65ff: 86 01        	stx	$1                      ; 0x1 <__zp_data_size>
    6601: a2 50        	ldx	#$50
    6603: a0 11        	ldy	#$11
    6605: 84 1c        	sty	$1c                     ; 0x1c <__rc12>
    6607: a0 c9        	ldy	#$c9
    6609: 84 1d        	sty	$1d                     ; 0x1d <__rc13>
    660b: a0 10        	ldy	#$10
    660d: 84 1e        	sty	$1e                     ; 0x1e <__rc14>
    660f: a0 c9        	ldy	#$c9
    6611: 84 1f        	sty	$1f                     ; 0x1f <__rc15>
    6613: a5 d7        	lda	$d7                     ; 0xd7 <__zp_bss_size+0x9c>
    6615: a4 1e        	ldy	$1e                     ; 0x1e <__rc14>
    6617: 84 22        	sty	$22                     ; 0x22 <__rc18>
    6619: a4 1f        	ldy	$1f                     ; 0x1f <__rc15>
    661b: 84 23        	sty	$23                     ; 0x23 <__rc19>
    661d: a4 1c        	ldy	$1c                     ; 0x1c <__rc12>
    661f: 84 1e        	sty	$1e                     ; 0x1e <__rc14>
    6621: a4 1d        	ldy	$1d                     ; 0x1d <__rc13>
    6623: 84 1f        	sty	$1f                     ; 0x1f <__rc15>
    6625: 92 22        	sta	($22)                   ; 0x22 <__rc18>
    6627: e6 1c        	inc	$1c                     ; 0x1c <__rc12>
    6629: d0 02        	bne	$662d <putchar+0x1a2>
    662b: e6 1d        	inc	$1d                     ; 0x1d <__rc13>
    662d: ca           	dex
    662e: d0 e5        	bne	$6615 <putchar+0x18a>
    6630: a2 20        	ldx	#$20
    6632: 86 d7        	stx	$d7                     ; 0xd7 <__zp_bss_size+0x9c>
    6634: c6 32        	dec	$32                     ; 0x32 <_row>
    6636: 9c 08 de     	stz	$de08                   ; 0xde08 <__heap_start+0x5b78>
    6639: a2 c0        	ldx	#$c0
    663b: 8e 09 de     	stx	$de09                   ; 0xde09 <__heap_start+0x5b79>
    663e: 9c 0a de     	stz	$de0a                   ; 0xde0a <__heap_start+0x5b7a>
    6641: 9c 0b de     	stz	$de0b                   ; 0xde0b <__heap_start+0x5b7b>
    6644: a2 1d        	ldx	#$1d
    6646: 8e 0c de     	stx	$de0c                   ; 0xde0c <__heap_start+0x5b7c>
    6649: 9c 0d de     	stz	$de0d                   ; 0xde0d <__heap_start+0x5b7d>
    664c: 9c 0e de     	stz	$de0e                   ; 0xde0e <__heap_start+0x5b7e>
    664f: 9c 0f de     	stz	$de0f                   ; 0xde0f <__heap_start+0x5b7f>
    6652: ae 18 de     	ldx	$de18                   ; 0xde18 <__heap_start+0x5b88>
    6655: ac 19 de     	ldy	$de19                   ; 0xde19 <__heap_start+0x5b89>
    6658: ad 1a de     	lda	$de1a                   ; 0xde1a <__heap_start+0x5b8a>
    665b: ad 1b de     	lda	$de1b                   ; 0xde1b <__heap_start+0x5b8b>
    665e: 86 1c        	stx	$1c                     ; 0x1c <__rc12>
    6660: 84 1d        	sty	$1d                     ; 0x1d <__rc13>
    6662: a4 d6        	ldy	$d6                     ; 0xd6 <__zp_bss_size+0x9b>
    6664: 4c 16 65     	jmp	$6516 <putchar+0x8b>
    6667: a6 d5        	ldx	$d5                     ; 0xd5 <__zp_bss_size+0x9a>
    6669: 86 01        	stx	$1                      ; 0x1 <__zp_data_size>
    666b: a6 31        	ldx	$31                     ; 0x31 <_col>
    666d: a4 32        	ldy	$32                     ; 0x32 <_row>
    666f: 8e 14 d0     	stx	$d014                   ; 0xd014 <__heap_start+0x4d84>
    6672: 9c 15 d0     	stz	$d015                   ; 0xd015 <__heap_start+0x4d85>
    6675: 84 32        	sty	$32                     ; 0x32 <_row>
    6677: 8c 16 d0     	sty	$d016                   ; 0xd016 <__heap_start+0x4d86>
    667a: 9c 17 d0     	stz	$d017                   ; 0xd017 <__heap_start+0x4d87>
    667d: a6 12        	ldx	$12                     ; 0x12 <__rc2>
    667f: a5 1b        	lda	$1b                     ; 0x1b <__rc11>
    6681: 60           	rts

00006682 <atoi>:
    6682: b2 12        	lda	($12)                   ; 0x12 <__rc2>
    6684: a8           	tay
    6685: 18           	clc
    6686: 69 f7        	adc	#$f7
    6688: c9 05        	cmp	#$5
    668a: b0 08        	bcs	$6694 <atoi+0x12>
    668c: e6 12        	inc	$12                     ; 0x12 <__rc2>
    668e: d0 02        	bne	$6692 <atoi+0x10>
    6690: e6 13        	inc	$13                     ; 0x13 <__rc3>
    6692: 80 ee        	bra	$6682 <atoi>
    6694: c0 20        	cpy	#$20
    6696: f0 f4        	beq	$668c <atoi+0xa>
    6698: a6 12        	ldx	$12                     ; 0x12 <__rc2>
    669a: 86 14        	stx	$14                     ; 0x14 <__rc4>
    669c: a6 13        	ldx	$13                     ; 0x13 <__rc3>
    669e: 86 15        	stx	$15                     ; 0x15 <__rc5>
    66a0: e6 14        	inc	$14                     ; 0x14 <__rc4>
    66a2: d0 02        	bne	$66a6 <atoi+0x24>
    66a4: e6 15        	inc	$15                     ; 0x15 <__rc5>
    66a6: c0 2d        	cpy	#$2d
    66a8: f0 10        	beq	$66ba <atoi+0x38>
    66aa: a2 00        	ldx	#$0
    66ac: c0 2b        	cpy	#$2b
    66ae: f0 0c        	beq	$66bc <atoi+0x3a>
    66b0: a4 12        	ldy	$12                     ; 0x12 <__rc2>
    66b2: 84 14        	sty	$14                     ; 0x14 <__rc4>
    66b4: a4 13        	ldy	$13                     ; 0x13 <__rc3>
    66b6: 84 15        	sty	$15                     ; 0x15 <__rc5>
    66b8: 80 02        	bra	$66bc <atoi+0x3a>
    66ba: a2 01        	ldx	#$1
    66bc: a9 d0        	lda	#$d0
    66be: 18           	clc
    66bf: 72 14        	adc	($14)                   ; 0x14 <__rc4>
    66c1: c9 0a        	cmp	#$a
    66c3: 64 17        	stz	$17                     ; 0x17 <__rc7>
    66c5: 64 18        	stz	$18                     ; 0x18 <__rc8>
    66c7: 90 03        	bcc	$66cc <atoi+0x4a>
    66c9: 4c 54 67     	jmp	$6754 <atoi+0xd2>
    66cc: b2 14        	lda	($14)                   ; 0x14 <__rc4>
    66ce: 85 1a        	sta	$1a                     ; 0x1a <__rc10>
    66d0: 64 16        	stz	$16                     ; 0x16 <__rc6>
    66d2: 64 19        	stz	$19                     ; 0x19 <__rc9>
    66d4: a0 01        	ldy	#$1
    66d6: a9 00        	lda	#$0
    66d8: 5a           	phy
    66d9: a4 14        	ldy	$14                     ; 0x14 <__rc4>
    66db: 84 12        	sty	$12                     ; 0x12 <__rc2>
    66dd: a4 15        	ldy	$15                     ; 0x15 <__rc5>
    66df: 84 13        	sty	$13                     ; 0x13 <__rc3>
    66e1: 7a           	ply
    66e2: 5a           	phy
    66e3: a4 1a        	ldy	$1a                     ; 0x1a <__rc10>
    66e5: 84 17        	sty	$17                     ; 0x17 <__rc7>
    66e7: a4 19        	ldy	$19                     ; 0x19 <__rc9>
    66e9: 84 18        	sty	$18                     ; 0x18 <__rc8>
    66eb: 06 18        	asl	$18                     ; 0x18 <__rc8>
    66ed: 85 19        	sta	$19                     ; 0x19 <__rc9>
    66ef: 26 19        	rol	$19                     ; 0x19 <__rc9>
    66f1: a5 18        	lda	$18                     ; 0x18 <__rc8>
    66f3: 0a           	asl
    66f4: 85 1a        	sta	$1a                     ; 0x1a <__rc10>
    66f6: a5 19        	lda	$19                     ; 0x19 <__rc9>
    66f8: 2a           	rol
    66f9: 06 1a        	asl	$1a                     ; 0x1a <__rc10>
    66fb: 2a           	rol
    66fc: 85 1b        	sta	$1b                     ; 0x1b <__rc11>
    66fe: a9 00        	lda	#$0
    6700: 85 1c        	sta	$1c                     ; 0x1c <__rc12>
    6702: a5 1a        	lda	$1a                     ; 0x1a <__rc10>
    6704: a4 1c        	ldy	$1c                     ; 0x1c <__rc12>
    6706: c0 01        	cpy	#$1
    6708: 65 18        	adc	$18                     ; 0x18 <__rc8>
    670a: 85 18        	sta	$18                     ; 0x18 <__rc8>
    670c: a5 1b        	lda	$1b                     ; 0x1b <__rc11>
    670e: 65 19        	adc	$19                     ; 0x19 <__rc9>
    6710: 85 19        	sta	$19                     ; 0x19 <__rc9>
    6712: a5 18        	lda	$18                     ; 0x18 <__rc8>
    6714: a4 1c        	ldy	$1c                     ; 0x1c <__rc12>
    6716: c0 01        	cpy	#$1
    6718: 7a           	ply
    6719: 65 17        	adc	$17                     ; 0x17 <__rc7>
    671b: 85 17        	sta	$17                     ; 0x17 <__rc7>
    671d: a5 19        	lda	$19                     ; 0x19 <__rc9>
    671f: 65 16        	adc	$16                     ; 0x16 <__rc6>
    6721: 85 16        	sta	$16                     ; 0x16 <__rc6>
    6723: 18           	clc
    6724: a5 17        	lda	$17                     ; 0x17 <__rc7>
    6726: 69 d0        	adc	#$d0
    6728: 85 17        	sta	$17                     ; 0x17 <__rc7>
    672a: a5 16        	lda	$16                     ; 0x16 <__rc6>
    672c: 69 ff        	adc	#$ff
    672e: 85 18        	sta	$18                     ; 0x18 <__rc8>
    6730: b1 14        	lda	($14),y                 ; 0x14 <__rc4>
    6732: 85 1a        	sta	$1a                     ; 0x1a <__rc10>
    6734: 18           	clc
    6735: 69 d0        	adc	#$d0
    6737: e6 12        	inc	$12                     ; 0x12 <__rc2>
    6739: d0 02        	bne	$673d <atoi+0xbb>
    673b: e6 13        	inc	$13                     ; 0x13 <__rc3>
    673d: c9 0a        	cmp	#$a
    673f: a5 12        	lda	$12                     ; 0x12 <__rc2>
    6741: 85 14        	sta	$14                     ; 0x14 <__rc4>
    6743: a5 13        	lda	$13                     ; 0x13 <__rc3>
    6745: 85 15        	sta	$15                     ; 0x15 <__rc5>
    6747: 64 16        	stz	$16                     ; 0x16 <__rc6>
    6749: a5 17        	lda	$17                     ; 0x17 <__rc7>
    674b: 85 19        	sta	$19                     ; 0x19 <__rc9>
    674d: a5 18        	lda	$18                     ; 0x18 <__rc8>
    674f: b0 03        	bcs	$6754 <atoi+0xd2>
    6751: 4c e2 66     	jmp	$66e2 <atoi+0x60>
    6754: 8a           	txa
    6755: f0 0d        	beq	$6764 <atoi+0xe2>
    6757: 38           	sec
    6758: a9 00        	lda	#$0
    675a: e5 17        	sbc	$17                     ; 0x17 <__rc7>
    675c: 85 17        	sta	$17                     ; 0x17 <__rc7>
    675e: a9 00        	lda	#$0
    6760: e5 18        	sbc	$18                     ; 0x18 <__rc8>
    6762: 85 18        	sta	$18                     ; 0x18 <__rc8>
    6764: a6 18        	ldx	$18                     ; 0x18 <__rc8>
    6766: a5 17        	lda	$17                     ; 0x17 <__rc7>
    6768: 60           	rts

00006769 <malloc>:
    6769: a8           	tay
    676a: 8a           	txa
    676b: a2 00        	ldx	#$0
    676d: 86 12        	stx	$12                     ; 0x12 <__rc2>
    676f: a2 00        	ldx	#$0
    6771: 86 13        	stx	$13                     ; 0x13 <__rc3>
    6773: aa           	tax
    6774: d0 07        	bne	$677d <malloc+0x14>
    6776: c0 00        	cpy	#$0
    6778: d0 03        	bne	$677d <malloc+0x14>
    677a: 4c 7c 68     	jmp	$687c <malloc+0x113>
    677d: 84 16        	sty	$16                     ; 0x16 <__rc6>
    677f: aa           	tax
    6780: d0 0e        	bne	$6790 <malloc+0x27>
    6782: a6 16        	ldx	$16                     ; 0x16 <__rc6>
    6784: e0 07        	cpx	#$7
    6786: b0 0c        	bcs	$6794 <malloc+0x2b>
    6788: a2 08        	ldx	#$8
    678a: 86 6d        	stx	$6d                     ; 0x6d <__zp_bss_size+0x32>
    678c: a9 00        	lda	#$0
    678e: 80 31        	bra	$67c1 <malloc+0x58>
    6790: c9 00        	cmp	#$0
    6792: 90 f4        	bcc	$6788 <malloc+0x1f>
    6794: a8           	tay
    6795: a5 16        	lda	$16                     ; 0x16 <__rc6>
    6797: 29 01        	and	#$1
    6799: a2 02        	ldx	#$2
    679b: 64 14        	stz	$14                     ; 0x14 <__rc4>
    679d: c9 00        	cmp	#$0
    679f: f0 02        	beq	$67a3 <malloc+0x3a>
    67a1: a2 03        	ldx	#$3
    67a3: 86 15        	stx	$15                     ; 0x15 <__rc5>
    67a5: 18           	clc
    67a6: a5 16        	lda	$16                     ; 0x16 <__rc6>
    67a8: 65 15        	adc	$15                     ; 0x15 <__rc5>
    67aa: aa           	tax
    67ab: 98           	tya
    67ac: 65 14        	adc	$14                     ; 0x14 <__rc4>
    67ae: 90 03        	bcc	$67b3 <malloc+0x4a>
    67b0: 4c 7c 68     	jmp	$687c <malloc+0x113>
    67b3: 86 14        	stx	$14                     ; 0x14 <__rc4>
    67b5: 86 6d        	stx	$6d                     ; 0x6d <__zp_bss_size+0x32>
    67b7: aa           	tax
    67b8: d0 07        	bne	$67c1 <malloc+0x58>
    67ba: a6 14        	ldx	$14                     ; 0x14 <__rc4>
    67bc: d0 03        	bne	$67c1 <malloc+0x58>
    67be: 4c 7c 68     	jmp	$687c <malloc+0x113>
    67c1: 85 6c        	sta	$6c                     ; 0x6c <__zp_bss_size+0x31>
    67c3: a5 66        	lda	$66                     ; 0x66 <_ZN12_GLOBAL__N_111initializedE>
    67c5: 29 01        	and	#$1
    67c7: d0 3b        	bne	$6804 <malloc+0x9b>
    67c9: a9 00        	lda	#$0
    67cb: a2 10        	ldx	#$10
    67cd: a0 90        	ldy	#$90
    67cf: 84 14        	sty	$14                     ; 0x14 <__rc4>
    67d1: a0 82        	ldy	#$82
    67d3: 84 15        	sty	$15                     ; 0x15 <__rc5>
    67d5: a4 12        	ldy	$12                     ; 0x12 <__rc2>
    67d7: 84 6e        	sty	$6e                     ; 0x6e <__zp_bss_size+0x33>
    67d9: a4 13        	ldy	$13                     ; 0x13 <__rc3>
    67db: 84 6f        	sty	$6f                     ; 0x6f <__zp_bss_size+0x34>
    67dd: a0 90        	ldy	#$90
    67df: 84 12        	sty	$12                     ; 0x12 <__rc2>
    67e1: a0 82        	ldy	#$82
    67e3: 84 13        	sty	$13                     ; 0x13 <__rc3>
    67e5: 20 1a 03     	jsr	$31a <_ZN12_GLOBAL__N_19FreeChunk6insertEPvj>
    67e8: a6 6e        	ldx	$6e                     ; 0x6e <__zp_bss_size+0x33>
    67ea: 86 12        	stx	$12                     ; 0x12 <__rc2>
    67ec: a6 6f        	ldx	$6f                     ; 0x6f <__zp_bss_size+0x34>
    67ee: 86 13        	stx	$13                     ; 0x13 <__rc3>
    67f0: ae 91 82     	ldx	$8291                   ; 0x8291 <__heap_start+0x1>
    67f3: a9 fe        	lda	#$fe
    67f5: 2d 90 82     	and	$8290                   ; 0x8290 <__heap_start>
    67f8: 8d 90 82     	sta	$8290                   ; 0x8290 <__heap_start>
    67fb: 8e 91 82     	stx	$8291                   ; 0x8291 <__heap_start+0x1>
    67fe: a2 01        	ldx	#$1
    6800: 86 67        	stx	$67                     ; 0x67 <_ZN12_GLOBAL__N_19last_freeE>
    6802: 86 66        	stx	$66                     ; 0x66 <_ZN12_GLOBAL__N_111initializedE>
    6804: a6 6a        	ldx	$6a                     ; 0x6a <_ZN12_GLOBAL__N_19free_listE>
    6806: 86 16        	stx	$16                     ; 0x16 <__rc6>
    6808: a4 6b        	ldy	$6b                     ; 0x6b <_ZN12_GLOBAL__N_19free_listE+0x1>
    680a: 84 17        	sty	$17                     ; 0x17 <__rc7>
    680c: a9 00        	lda	#$0
    680e: 85 14        	sta	$14                     ; 0x14 <__rc4>
    6810: a9 00        	lda	#$0
    6812: 85 15        	sta	$15                     ; 0x15 <__rc5>
    6814: c4 15        	cpy	$15                     ; 0x15 <__rc5>
    6816: d0 07        	bne	$681f <malloc+0xb6>
    6818: e4 14        	cpx	$14                     ; 0x14 <__rc4>
    681a: d0 03        	bne	$681f <malloc+0xb6>
    681c: 4c 7c 68     	jmp	$687c <malloc+0x113>
    681f: a2 00        	ldx	#$0
    6821: a0 10        	ldy	#$10
    6823: 86 14        	stx	$14                     ; 0x14 <__rc4>
    6825: 84 15        	sty	$15                     ; 0x15 <__rc5>
    6827: 18           	clc
    6828: a9 90        	lda	#$90
    682a: 65 14        	adc	$14                     ; 0x14 <__rc4>
    682c: 85 18        	sta	$18                     ; 0x18 <__rc8>
    682e: a9 82        	lda	#$82
    6830: 65 15        	adc	$15                     ; 0x15 <__rc5>
    6832: 85 70        	sta	$70                     ; 0x70 <__zp_bss_size+0x35>
    6834: a0 01        	ldy	#$1
    6836: a6 6c        	ldx	$6c                     ; 0x6c <__zp_bss_size+0x31>
    6838: 86 19        	stx	$19                     ; 0x19 <__rc9>
    683a: a6 16        	ldx	$16                     ; 0x16 <__rc6>
    683c: 86 14        	stx	$14                     ; 0x14 <__rc4>
    683e: a6 17        	ldx	$17                     ; 0x17 <__rc7>
    6840: 86 15        	stx	$15                     ; 0x15 <__rc5>
    6842: b1 14        	lda	($14),y                 ; 0x14 <__rc4>
    6844: c5 19        	cmp	$19                     ; 0x19 <__rc9>
    6846: d0 0e        	bne	$6856 <malloc+0xed>
    6848: b2 14        	lda	($14)                   ; 0x14 <__rc4>
    684a: 29 fe        	and	#$fe
    684c: a6 6d        	ldx	$6d                     ; 0x6d <__zp_bss_size+0x32>
    684e: 86 1a        	stx	$1a                     ; 0x1a <__rc10>
    6850: c5 1a        	cmp	$1a                     ; 0x1a <__rc10>
    6852: b0 29        	bcs	$687d <malloc+0x114>
    6854: 80 04        	bra	$685a <malloc+0xf1>
    6856: c5 19        	cmp	$19                     ; 0x19 <__rc9>
    6858: b0 23        	bcs	$687d <malloc+0x114>
    685a: a5 14        	lda	$14                     ; 0x14 <__rc4>
    685c: 18           	clc
    685d: 69 02        	adc	#$2
    685f: 85 1a        	sta	$1a                     ; 0x1a <__rc10>
    6861: a5 15        	lda	$15                     ; 0x15 <__rc5>
    6863: 69 00        	adc	#$0
    6865: 85 1b        	sta	$1b                     ; 0x1b <__rc11>
    6867: a0 02        	ldy	#$2
    6869: b1 14        	lda	($14),y                 ; 0x14 <__rc4>
    686b: 85 14        	sta	$14                     ; 0x14 <__rc4>
    686d: 88           	dey
    686e: b1 1a        	lda	($1a),y                 ; 0x1a <__rc10>
    6870: 85 15        	sta	$15                     ; 0x15 <__rc5>
    6872: c5 17        	cmp	$17                     ; 0x17 <__rc7>
    6874: d0 cc        	bne	$6842 <malloc+0xd9>
    6876: a5 14        	lda	$14                     ; 0x14 <__rc4>
    6878: c5 16        	cmp	$16                     ; 0x16 <__rc6>
    687a: d0 c6        	bne	$6842 <malloc+0xd9>
    687c: 60           	rts
    687d: a6 18        	ldx	$18                     ; 0x18 <__rc8>
    687f: 86 71        	stx	$71                     ; 0x71 <__zp_bss_size+0x36>
    6881: a6 14        	ldx	$14                     ; 0x14 <__rc4>
    6883: 86 12        	stx	$12                     ; 0x12 <__rc2>
    6885: a6 15        	ldx	$15                     ; 0x15 <__rc5>
    6887: 86 13        	stx	$13                     ; 0x13 <__rc3>
    6889: a6 14        	ldx	$14                     ; 0x14 <__rc4>
    688b: 86 6e        	stx	$6e                     ; 0x6e <__zp_bss_size+0x33>
    688d: a6 15        	ldx	$15                     ; 0x15 <__rc5>
    688f: 86 6f        	stx	$6f                     ; 0x6f <__zp_bss_size+0x34>
    6891: 20 66 04     	jsr	$466 <_ZN12_GLOBAL__N_19FreeChunk6removeEv>
    6894: a6 6e        	ldx	$6e                     ; 0x6e <__zp_bss_size+0x33>
    6896: 86 12        	stx	$12                     ; 0x12 <__rc2>
    6898: a6 6f        	ldx	$6f                     ; 0x6f <__zp_bss_size+0x34>
    689a: 86 13        	stx	$13                     ; 0x13 <__rc3>
    689c: a0 01        	ldy	#$1
    689e: b1 12        	lda	($12),y                 ; 0x12 <__rc2>
    68a0: 85 15        	sta	$15                     ; 0x15 <__rc5>
    68a2: a9 fe        	lda	#$fe
    68a4: 32 12        	and	($12)                   ; 0x12 <__rc2>
    68a6: 38           	sec
    68a7: a6 6d        	ldx	$6d                     ; 0x6d <__zp_bss_size+0x32>
    68a9: 86 14        	stx	$14                     ; 0x14 <__rc4>
    68ab: 85 17        	sta	$17                     ; 0x17 <__rc7>
    68ad: e5 14        	sbc	$14                     ; 0x14 <__rc4>
    68af: a8           	tay
    68b0: a6 6c        	ldx	$6c                     ; 0x6c <__zp_bss_size+0x31>
    68b2: 86 14        	stx	$14                     ; 0x14 <__rc4>
    68b4: a5 15        	lda	$15                     ; 0x15 <__rc5>
    68b6: 85 16        	sta	$16                     ; 0x16 <__rc6>
    68b8: e5 14        	sbc	$14                     ; 0x14 <__rc4>
    68ba: d0 06        	bne	$68c2 <malloc+0x159>
    68bc: 85 18        	sta	$18                     ; 0x18 <__rc8>
    68be: c0 08        	cpy	#$8
    68c0: 80 04        	bra	$68c6 <malloc+0x15d>
    68c2: 85 18        	sta	$18                     ; 0x18 <__rc8>
    68c4: c9 00        	cmp	#$0
    68c6: a6 71        	ldx	$71                     ; 0x71 <__zp_bss_size+0x36>
    68c8: 86 14        	stx	$14                     ; 0x14 <__rc4>
    68ca: a6 70        	ldx	$70                     ; 0x70 <__zp_bss_size+0x35>
    68cc: 86 15        	stx	$15                     ; 0x15 <__rc5>
    68ce: a5 17        	lda	$17                     ; 0x17 <__rc7>
    68d0: 90 43        	bcc	$6915 <malloc+0x1ac>
    68d2: 18           	clc
    68d3: a6 6d        	ldx	$6d                     ; 0x6d <__zp_bss_size+0x32>
    68d5: 86 6d        	stx	$6d                     ; 0x6d <__zp_bss_size+0x32>
    68d7: 8a           	txa
    68d8: 65 12        	adc	$12                     ; 0x12 <__rc2>
    68da: 85 12        	sta	$12                     ; 0x12 <__rc2>
    68dc: a6 6c        	ldx	$6c                     ; 0x6c <__zp_bss_size+0x31>
    68de: 86 6c        	stx	$6c                     ; 0x6c <__zp_bss_size+0x31>
    68e0: a5 6c        	lda	$6c                     ; 0x6c <__zp_bss_size+0x31>
    68e2: 65 13        	adc	$13                     ; 0x13 <__rc3>
    68e4: 85 13        	sta	$13                     ; 0x13 <__rc3>
    68e6: a6 18        	ldx	$18                     ; 0x18 <__rc8>
    68e8: 98           	tya
    68e9: 20 1a 03     	jsr	$31a <_ZN12_GLOBAL__N_19FreeChunk6insertEPvj>
    68ec: a6 6e        	ldx	$6e                     ; 0x6e <__zp_bss_size+0x33>
    68ee: 86 12        	stx	$12                     ; 0x12 <__rc2>
    68f0: a6 6f        	ldx	$6f                     ; 0x6f <__zp_bss_size+0x34>
    68f2: 86 13        	stx	$13                     ; 0x13 <__rc3>
    68f4: a5 6d        	lda	$6d                     ; 0x6d <__zp_bss_size+0x32>
    68f6: 29 fe        	and	#$fe
    68f8: 85 14        	sta	$14                     ; 0x14 <__rc4>
    68fa: a0 01        	ldy	#$1
    68fc: 98           	tya
    68fd: 32 12        	and	($12)                   ; 0x12 <__rc2>
    68ff: 05 14        	ora	$14                     ; 0x14 <__rc4>
    6901: 92 12        	sta	($12)                   ; 0x12 <__rc2>
    6903: a5 6c        	lda	$6c                     ; 0x6c <__zp_bss_size+0x31>
    6905: 91 12        	sta	($12),y                 ; 0x12 <__rc2>
    6907: a5 14        	lda	$14                     ; 0x14 <__rc4>
    6909: a6 6c        	ldx	$6c                     ; 0x6c <__zp_bss_size+0x31>
    690b: 86 16        	stx	$16                     ; 0x16 <__rc6>
    690d: a6 71        	ldx	$71                     ; 0x71 <__zp_bss_size+0x36>
    690f: 86 14        	stx	$14                     ; 0x14 <__rc4>
    6911: a6 70        	ldx	$70                     ; 0x70 <__zp_bss_size+0x35>
    6913: 86 15        	stx	$15                     ; 0x15 <__rc5>
    6915: 18           	clc
    6916: 65 12        	adc	$12                     ; 0x12 <__rc2>
    6918: a8           	tay
    6919: a5 16        	lda	$16                     ; 0x16 <__rc6>
    691b: 65 13        	adc	$13                     ; 0x13 <__rc3>
    691d: c5 15        	cmp	$15                     ; 0x15 <__rc5>
    691f: d0 08        	bne	$6929 <malloc+0x1c0>
    6921: c4 14        	cpy	$14                     ; 0x14 <__rc4>
    6923: d0 04        	bne	$6929 <malloc+0x1c0>
    6925: 64 67        	stz	$67                     ; 0x67 <_ZN12_GLOBAL__N_19last_freeE>
    6927: 80 14        	bra	$693d <malloc+0x1d4>
    6929: 84 14        	sty	$14                     ; 0x14 <__rc4>
    692b: 85 15        	sta	$15                     ; 0x15 <__rc5>
    692d: a0 01        	ldy	#$1
    692f: b1 14        	lda	($14),y                 ; 0x14 <__rc4>
    6931: 85 16        	sta	$16                     ; 0x16 <__rc6>
    6933: a9 fe        	lda	#$fe
    6935: 32 14        	and	($14)                   ; 0x14 <__rc4>
    6937: 92 14        	sta	($14)                   ; 0x14 <__rc4>
    6939: a5 16        	lda	$16                     ; 0x16 <__rc6>
    693b: 91 14        	sta	($14),y                 ; 0x14 <__rc4>
    693d: a5 12        	lda	$12                     ; 0x12 <__rc2>
    693f: 18           	clc
    6940: 69 02        	adc	#$2
    6942: 85 12        	sta	$12                     ; 0x12 <__rc2>
    6944: a5 13        	lda	$13                     ; 0x13 <__rc3>
    6946: 69 00        	adc	#$0
    6948: 85 13        	sta	$13                     ; 0x13 <__rc3>
    694a: 60           	rts

0000694b <memcpy>:
    694b: a8           	tay
    694c: 8a           	txa
    694d: d0 03        	bne	$6952 <memcpy+0x7>
    694f: 98           	tya
    6950: f0 24        	beq	$6976 <memcpy+0x2b>
    6952: a5 12        	lda	$12                     ; 0x12 <__rc2>
    6954: 85 16        	sta	$16                     ; 0x16 <__rc6>
    6956: a5 13        	lda	$13                     ; 0x13 <__rc3>
    6958: 85 17        	sta	$17                     ; 0x17 <__rc7>
    695a: b2 14        	lda	($14)                   ; 0x14 <__rc4>
    695c: 92 16        	sta	($16)                   ; 0x16 <__rc6>
    695e: e6 16        	inc	$16                     ; 0x16 <__rc6>
    6960: d0 02        	bne	$6964 <memcpy+0x19>
    6962: e6 17        	inc	$17                     ; 0x17 <__rc7>
    6964: e6 14        	inc	$14                     ; 0x14 <__rc4>
    6966: d0 02        	bne	$696a <memcpy+0x1f>
    6968: e6 15        	inc	$15                     ; 0x15 <__rc5>
    696a: 88           	dey
    696b: c0 ff        	cpy	#$ff
    696d: d0 01        	bne	$6970 <memcpy+0x25>
    696f: ca           	dex
    6970: 8a           	txa
    6971: d0 e7        	bne	$695a <memcpy+0xf>
    6973: 98           	tya
    6974: d0 e4        	bne	$695a <memcpy+0xf>
    6976: 60           	rts

00006977 <__memset>:
    6977: a4 14        	ldy	$14                     ; 0x14 <__rc4>
    6979: d0 04        	bne	$697f <__memset+0x8>
    697b: e0 00        	cpx	#$0
    697d: f0 17        	beq	$6996 <__memset+0x1f>
    697f: 92 12        	sta	($12)                   ; 0x12 <__rc2>
    6981: e6 12        	inc	$12                     ; 0x12 <__rc2>
    6983: d0 02        	bne	$6987 <__memset+0x10>
    6985: e6 13        	inc	$13                     ; 0x13 <__rc3>
    6987: ca           	dex
    6988: e0 ff        	cpx	#$ff
    698a: d0 02        	bne	$698e <__memset+0x17>
    698c: c6 14        	dec	$14                     ; 0x14 <__rc4>
    698e: a4 14        	ldy	$14                     ; 0x14 <__rc4>
    6990: d0 ed        	bne	$697f <__memset+0x8>
    6992: e0 00        	cpx	#$0
    6994: d0 e9        	bne	$697f <__memset+0x8>
    6996: 60           	rts

00006997 <__udivsi3>:
    6997: 64 18        	stz	$18                     ; 0x18 <__rc8>
    6999: a4 17        	ldy	$17                     ; 0x17 <__rc7>
    699b: d0 0c        	bne	$69a9 <__udivsi3+0x12>
    699d: a4 16        	ldy	$16                     ; 0x16 <__rc6>
    699f: d0 08        	bne	$69a9 <__udivsi3+0x12>
    69a1: a4 15        	ldy	$15                     ; 0x15 <__rc5>
    69a3: d0 04        	bne	$69a9 <__udivsi3+0x12>
    69a5: a4 14        	ldy	$14                     ; 0x14 <__rc4>
    69a7: f0 27        	beq	$69d0 <__udivsi3+0x39>
    69a9: 86 1e        	stx	$1e                     ; 0x1e <__rc14>
    69ab: a6 12        	ldx	$12                     ; 0x12 <__rc2>
    69ad: 86 1f        	stx	$1f                     ; 0x1f <__rc15>
    69af: a6 13        	ldx	$13                     ; 0x13 <__rc3>
    69b1: 86 22        	stx	$22                     ; 0x22 <__rc18>
    69b3: e4 17        	cpx	$17                     ; 0x17 <__rc7>
    69b5: d0 15        	bne	$69cc <__udivsi3+0x35>
    69b7: a6 12        	ldx	$12                     ; 0x12 <__rc2>
    69b9: e4 16        	cpx	$16                     ; 0x16 <__rc6>
    69bb: d0 18        	bne	$69d5 <__udivsi3+0x3e>
    69bd: a6 1e        	ldx	$1e                     ; 0x1e <__rc14>
    69bf: e4 15        	cpx	$15                     ; 0x15 <__rc5>
    69c1: f0 03        	beq	$69c6 <__udivsi3+0x2f>
    69c3: 4c ec 6a     	jmp	$6aec <__udivsi3+0x155>
    69c6: c5 14        	cmp	$14                     ; 0x14 <__rc4>
    69c8: 90 06        	bcc	$69d0 <__udivsi3+0x39>
    69ca: 80 0d        	bra	$69d9 <__udivsi3+0x42>
    69cc: e4 17        	cpx	$17                     ; 0x17 <__rc7>
    69ce: b0 09        	bcs	$69d9 <__udivsi3+0x42>
    69d0: 64 23        	stz	$23                     ; 0x23 <__rc19>
    69d2: 4c 3f 6a     	jmp	$6a3f <__udivsi3+0xa8>
    69d5: e4 16        	cpx	$16                     ; 0x16 <__rc6>
    69d7: 90 f7        	bcc	$69d0 <__udivsi3+0x39>
    69d9: 85 1d        	sta	$1d                     ; 0x1d <__rc13>
    69db: a9 01        	lda	#$1
    69dd: 85 23        	sta	$23                     ; 0x23 <__rc19>
    69df: a5 17        	lda	$17                     ; 0x17 <__rc7>
    69e1: 10 03        	bpl	$69e6 <__udivsi3+0x4f>
    69e3: 4c 3f 6a     	jmp	$6a3f <__udivsi3+0xa8>
    69e6: a5 1e        	lda	$1e                     ; 0x1e <__rc14>
    69e8: a2 00        	ldx	#$0
    69ea: a4 14        	ldy	$14                     ; 0x14 <__rc4>
    69ec: 84 19        	sty	$19                     ; 0x19 <__rc9>
    69ee: a4 15        	ldy	$15                     ; 0x15 <__rc5>
    69f0: 84 1a        	sty	$1a                     ; 0x1a <__rc10>
    69f2: a4 16        	ldy	$16                     ; 0x16 <__rc6>
    69f4: 84 1b        	sty	$1b                     ; 0x1b <__rc11>
    69f6: a4 17        	ldy	$17                     ; 0x17 <__rc7>
    69f8: 84 1c        	sty	$1c                     ; 0x1c <__rc12>
    69fa: 06 19        	asl	$19                     ; 0x19 <__rc9>
    69fc: 26 1a        	rol	$1a                     ; 0x1a <__rc10>
    69fe: 26 1b        	rol	$1b                     ; 0x1b <__rc11>
    6a00: 26 1c        	rol	$1c                     ; 0x1c <__rc12>
    6a02: a4 22        	ldy	$22                     ; 0x22 <__rc18>
    6a04: c4 1c        	cpy	$1c                     ; 0x1c <__rc12>
    6a06: d0 12        	bne	$6a1a <__udivsi3+0x83>
    6a08: a4 12        	ldy	$12                     ; 0x12 <__rc2>
    6a0a: c4 1b        	cpy	$1b                     ; 0x1b <__rc11>
    6a0c: d0 12        	bne	$6a20 <__udivsi3+0x89>
    6a0e: c5 1a        	cmp	$1a                     ; 0x1a <__rc10>
    6a10: d0 14        	bne	$6a26 <__udivsi3+0x8f>
    6a12: a4 1d        	ldy	$1d                     ; 0x1d <__rc13>
    6a14: c4 19        	cpy	$19                     ; 0x19 <__rc9>
    6a16: 90 30        	bcc	$6a48 <__udivsi3+0xb1>
    6a18: 80 10        	bra	$6a2a <__udivsi3+0x93>
    6a1a: c4 1c        	cpy	$1c                     ; 0x1c <__rc12>
    6a1c: 90 2a        	bcc	$6a48 <__udivsi3+0xb1>
    6a1e: 80 0a        	bra	$6a2a <__udivsi3+0x93>
    6a20: c4 1b        	cpy	$1b                     ; 0x1b <__rc11>
    6a22: 90 24        	bcc	$6a48 <__udivsi3+0xb1>
    6a24: 80 04        	bra	$6a2a <__udivsi3+0x93>
    6a26: c5 1a        	cmp	$1a                     ; 0x1a <__rc10>
    6a28: 90 1e        	bcc	$6a48 <__udivsi3+0xb1>
    6a2a: e8           	inx
    6a2b: a4 19        	ldy	$19                     ; 0x19 <__rc9>
    6a2d: 84 14        	sty	$14                     ; 0x14 <__rc4>
    6a2f: a4 1a        	ldy	$1a                     ; 0x1a <__rc10>
    6a31: 84 15        	sty	$15                     ; 0x15 <__rc5>
    6a33: a4 1b        	ldy	$1b                     ; 0x1b <__rc11>
    6a35: 84 16        	sty	$16                     ; 0x16 <__rc6>
    6a37: a4 1c        	ldy	$1c                     ; 0x1c <__rc12>
    6a39: 84 17        	sty	$17                     ; 0x17 <__rc7>
    6a3b: 10 bd        	bpl	$69fa <__udivsi3+0x63>
    6a3d: 80 19        	bra	$6a58 <__udivsi3+0xc1>
    6a3f: 64 12        	stz	$12                     ; 0x12 <__rc2>
    6a41: 64 13        	stz	$13                     ; 0x13 <__rc3>
    6a43: a6 18        	ldx	$18                     ; 0x18 <__rc8>
    6a45: a5 23        	lda	$23                     ; 0x23 <__rc19>
    6a47: 60           	rts
    6a48: a4 14        	ldy	$14                     ; 0x14 <__rc4>
    6a4a: 84 19        	sty	$19                     ; 0x19 <__rc9>
    6a4c: a4 15        	ldy	$15                     ; 0x15 <__rc5>
    6a4e: 84 1a        	sty	$1a                     ; 0x1a <__rc10>
    6a50: a4 16        	ldy	$16                     ; 0x16 <__rc6>
    6a52: 84 1b        	sty	$1b                     ; 0x1b <__rc11>
    6a54: a4 17        	ldy	$17                     ; 0x17 <__rc7>
    6a56: 84 1c        	sty	$1c                     ; 0x1c <__rc12>
    6a58: 64 12        	stz	$12                     ; 0x12 <__rc2>
    6a5a: 64 13        	stz	$13                     ; 0x13 <__rc3>
    6a5c: 8a           	txa
    6a5d: f0 e4        	beq	$6a43 <__udivsi3+0xac>
    6a5f: 38           	sec
    6a60: a5 1d        	lda	$1d                     ; 0x1d <__rc13>
    6a62: e5 19        	sbc	$19                     ; 0x19 <__rc9>
    6a64: 85 14        	sta	$14                     ; 0x14 <__rc4>
    6a66: a5 1e        	lda	$1e                     ; 0x1e <__rc14>
    6a68: e5 1a        	sbc	$1a                     ; 0x1a <__rc10>
    6a6a: 85 17        	sta	$17                     ; 0x17 <__rc7>
    6a6c: a5 1f        	lda	$1f                     ; 0x1f <__rc15>
    6a6e: e5 1b        	sbc	$1b                     ; 0x1b <__rc11>
    6a70: 85 15        	sta	$15                     ; 0x15 <__rc5>
    6a72: a5 22        	lda	$22                     ; 0x22 <__rc18>
    6a74: e5 1c        	sbc	$1c                     ; 0x1c <__rc12>
    6a76: 85 16        	sta	$16                     ; 0x16 <__rc6>
    6a78: a9 01        	lda	#$1
    6a7a: 85 23        	sta	$23                     ; 0x23 <__rc19>
    6a7c: 64 18        	stz	$18                     ; 0x18 <__rc8>
    6a7e: 46 1c        	lsr	$1c                     ; 0x1c <__rc12>
    6a80: 66 1b        	ror	$1b                     ; 0x1b <__rc11>
    6a82: 66 1a        	ror	$1a                     ; 0x1a <__rc10>
    6a84: 66 19        	ror	$19                     ; 0x19 <__rc9>
    6a86: 06 23        	asl	$23                     ; 0x23 <__rc19>
    6a88: a0 01        	ldy	#$1
    6a8a: b0 02        	bcs	$6a8e <__udivsi3+0xf7>
    6a8c: a0 00        	ldy	#$0
    6a8e: 84 1d        	sty	$1d                     ; 0x1d <__rc13>
    6a90: a5 16        	lda	$16                     ; 0x16 <__rc6>
    6a92: c5 1c        	cmp	$1c                     ; 0x1c <__rc12>
    6a94: d0 14        	bne	$6aaa <__udivsi3+0x113>
    6a96: a4 15        	ldy	$15                     ; 0x15 <__rc5>
    6a98: c4 1b        	cpy	$1b                     ; 0x1b <__rc11>
    6a9a: d0 44        	bne	$6ae0 <__udivsi3+0x149>
    6a9c: a4 17        	ldy	$17                     ; 0x17 <__rc7>
    6a9e: c4 1a        	cpy	$1a                     ; 0x1a <__rc10>
    6aa0: d0 44        	bne	$6ae6 <__udivsi3+0x14f>
    6aa2: a4 14        	ldy	$14                     ; 0x14 <__rc4>
    6aa4: c4 19        	cpy	$19                     ; 0x19 <__rc9>
    6aa6: b0 06        	bcs	$6aae <__udivsi3+0x117>
    6aa8: 80 23        	bra	$6acd <__udivsi3+0x136>
    6aaa: c5 1c        	cmp	$1c                     ; 0x1c <__rc12>
    6aac: 90 1f        	bcc	$6acd <__udivsi3+0x136>
    6aae: 38           	sec
    6aaf: a5 14        	lda	$14                     ; 0x14 <__rc4>
    6ab1: e5 19        	sbc	$19                     ; 0x19 <__rc9>
    6ab3: 85 14        	sta	$14                     ; 0x14 <__rc4>
    6ab5: a5 17        	lda	$17                     ; 0x17 <__rc7>
    6ab7: e5 1a        	sbc	$1a                     ; 0x1a <__rc10>
    6ab9: 85 17        	sta	$17                     ; 0x17 <__rc7>
    6abb: a5 15        	lda	$15                     ; 0x15 <__rc5>
    6abd: e5 1b        	sbc	$1b                     ; 0x1b <__rc11>
    6abf: 85 15        	sta	$15                     ; 0x15 <__rc5>
    6ac1: a5 16        	lda	$16                     ; 0x16 <__rc6>
    6ac3: e5 1c        	sbc	$1c                     ; 0x1c <__rc12>
    6ac5: 85 16        	sta	$16                     ; 0x16 <__rc6>
    6ac7: a5 23        	lda	$23                     ; 0x23 <__rc19>
    6ac9: 09 01        	ora	#$1
    6acb: 85 23        	sta	$23                     ; 0x23 <__rc19>
    6acd: a4 1d        	ldy	$1d                     ; 0x1d <__rc13>
    6acf: c0 01        	cpy	#$1
    6ad1: 26 18        	rol	$18                     ; 0x18 <__rc8>
    6ad3: 26 12        	rol	$12                     ; 0x12 <__rc2>
    6ad5: 26 13        	rol	$13                     ; 0x13 <__rc3>
    6ad7: ca           	dex
    6ad8: f0 03        	beq	$6add <__udivsi3+0x146>
    6ada: 4c 7e 6a     	jmp	$6a7e <__udivsi3+0xe7>
    6add: 4c 43 6a     	jmp	$6a43 <__udivsi3+0xac>
    6ae0: c4 1b        	cpy	$1b                     ; 0x1b <__rc11>
    6ae2: b0 ca        	bcs	$6aae <__udivsi3+0x117>
    6ae4: 80 e7        	bra	$6acd <__udivsi3+0x136>
    6ae6: c4 1a        	cpy	$1a                     ; 0x1a <__rc10>
    6ae8: b0 c4        	bcs	$6aae <__udivsi3+0x117>
    6aea: 80 e1        	bra	$6acd <__udivsi3+0x136>
    6aec: e4 15        	cpx	$15                     ; 0x15 <__rc5>
    6aee: b0 03        	bcs	$6af3 <__udivsi3+0x15c>
    6af0: 4c d0 69     	jmp	$69d0 <__udivsi3+0x39>
    6af3: 4c d9 69     	jmp	$69d9 <__udivsi3+0x42>

00006af6 <__mulhi3>:
    6af6: a4 13        	ldy	$13                     ; 0x13 <__rc3>
    6af8: d0 04        	bne	$6afe <__mulhi3+0x8>
    6afa: a4 12        	ldy	$12                     ; 0x12 <__rc2>
    6afc: f0 25        	beq	$6b23 <__mulhi3+0x2d>
    6afe: 85 14        	sta	$14                     ; 0x14 <__rc4>
    6b00: 86 15        	stx	$15                     ; 0x15 <__rc5>
    6b02: a0 00        	ldy	#$0
    6b04: 98           	tya
    6b05: 46 13        	lsr	$13                     ; 0x13 <__rc3>
    6b07: 66 12        	ror	$12                     ; 0x12 <__rc2>
    6b09: 90 09        	bcc	$6b14 <__mulhi3+0x1e>
    6b0b: aa           	tax
    6b0c: 98           	tya
    6b0d: 18           	clc
    6b0e: 65 14        	adc	$14                     ; 0x14 <__rc4>
    6b10: a8           	tay
    6b11: 8a           	txa
    6b12: 65 15        	adc	$15                     ; 0x15 <__rc5>
    6b14: 06 14        	asl	$14                     ; 0x14 <__rc4>
    6b16: 26 15        	rol	$15                     ; 0x15 <__rc5>
    6b18: a6 13        	ldx	$13                     ; 0x13 <__rc3>
    6b1a: d0 e9        	bne	$6b05 <__mulhi3+0xf>
    6b1c: a6 12        	ldx	$12                     ; 0x12 <__rc2>
    6b1e: d0 e5        	bne	$6b05 <__mulhi3+0xf>
    6b20: aa           	tax
    6b21: 98           	tya
    6b22: 60           	rts
    6b23: a0 00        	ldy	#$0
    6b25: 98           	tya
    6b26: 80 f8        	bra	$6b20 <__mulhi3+0x2a>

00006b28 <__mulsi3>:
    6b28: a4 17        	ldy	$17                     ; 0x17 <__rc7>
    6b2a: d0 0f        	bne	$6b3b <__mulsi3+0x13>
    6b2c: a4 16        	ldy	$16                     ; 0x16 <__rc6>
    6b2e: d0 0b        	bne	$6b3b <__mulsi3+0x13>
    6b30: a4 15        	ldy	$15                     ; 0x15 <__rc5>
    6b32: d0 07        	bne	$6b3b <__mulsi3+0x13>
    6b34: a4 14        	ldy	$14                     ; 0x14 <__rc4>
    6b36: d0 03        	bne	$6b3b <__mulsi3+0x13>
    6b38: 4c 8f 6b     	jmp	$6b8f <__mulsi3+0x67>
    6b3b: 85 18        	sta	$18                     ; 0x18 <__rc8>
    6b3d: 86 19        	stx	$19                     ; 0x19 <__rc9>
    6b3f: a0 00        	ldy	#$0
    6b41: a2 00        	ldx	#$0
    6b43: 64 1a        	stz	$1a                     ; 0x1a <__rc10>
    6b45: 98           	tya
    6b46: 46 17        	lsr	$17                     ; 0x17 <__rc7>
    6b48: 66 16        	ror	$16                     ; 0x16 <__rc6>
    6b4a: 66 15        	ror	$15                     ; 0x15 <__rc5>
    6b4c: 66 14        	ror	$14                     ; 0x14 <__rc4>
    6b4e: 90 15        	bcc	$6b65 <__mulsi3+0x3d>
    6b50: 85 1b        	sta	$1b                     ; 0x1b <__rc11>
    6b52: 98           	tya
    6b53: 18           	clc
    6b54: 65 18        	adc	$18                     ; 0x18 <__rc8>
    6b56: a8           	tay
    6b57: 8a           	txa
    6b58: 65 19        	adc	$19                     ; 0x19 <__rc9>
    6b5a: aa           	tax
    6b5b: a5 1a        	lda	$1a                     ; 0x1a <__rc10>
    6b5d: 65 12        	adc	$12                     ; 0x12 <__rc2>
    6b5f: 85 1a        	sta	$1a                     ; 0x1a <__rc10>
    6b61: a5 1b        	lda	$1b                     ; 0x1b <__rc11>
    6b63: 65 13        	adc	$13                     ; 0x13 <__rc3>
    6b65: 06 18        	asl	$18                     ; 0x18 <__rc8>
    6b67: 26 19        	rol	$19                     ; 0x19 <__rc9>
    6b69: 26 12        	rol	$12                     ; 0x12 <__rc2>
    6b6b: 26 13        	rol	$13                     ; 0x13 <__rc3>
    6b6d: e6 17        	inc	$17                     ; 0x17 <__rc7>
    6b6f: c6 17        	dec	$17                     ; 0x17 <__rc7>
    6b71: d0 d3        	bne	$6b46 <__mulsi3+0x1e>
    6b73: e6 16        	inc	$16                     ; 0x16 <__rc6>
    6b75: c6 16        	dec	$16                     ; 0x16 <__rc6>
    6b77: d0 cd        	bne	$6b46 <__mulsi3+0x1e>
    6b79: e6 15        	inc	$15                     ; 0x15 <__rc5>
    6b7b: c6 15        	dec	$15                     ; 0x15 <__rc5>
    6b7d: d0 c7        	bne	$6b46 <__mulsi3+0x1e>
    6b7f: e6 14        	inc	$14                     ; 0x14 <__rc4>
    6b81: c6 14        	dec	$14                     ; 0x14 <__rc4>
    6b83: d0 c1        	bne	$6b46 <__mulsi3+0x1e>
    6b85: 5a           	phy
    6b86: a4 1a        	ldy	$1a                     ; 0x1a <__rc10>
    6b88: 84 12        	sty	$12                     ; 0x12 <__rc2>
    6b8a: 7a           	ply
    6b8b: 85 13        	sta	$13                     ; 0x13 <__rc3>
    6b8d: 98           	tya
    6b8e: 60           	rts
    6b8f: a0 00        	ldy	#$0
    6b91: a2 00        	ldx	#$0
    6b93: 64 1a        	stz	$1a                     ; 0x1a <__rc10>
    6b95: 98           	tya
    6b96: 80 ed        	bra	$6b85 <__mulsi3+0x5d>
