
digestMidi.elf:	file format elf32-mos

SYMBOL TABLE:
00000000 l    df *ABS*	00000000 zero-bss.c
00000000 l    df *ABS*	00000000 zero-zp-bss.c
00000000 l    df *ABS*	00000000 ld-temp.o
00000035 l     O .zp.bss	00000007 kernelEventData
000062dc l     O .rodata	00000030 textColors
00000030 l     O .zp.bss	00000001 _col
00000031 l     O .zp.bss	00000001 _row
00000034 l     O .zp.bss	00000001 kernelError
0000465e l     F .text	000001d5 malloc
00001af2 l     F .text	00000130 fileOpen
0000388a l     F .text	00000bd9 printf
00001c22 l     F .text	0000014b fileRead
00001944 l     F .text	000001ae fileClose
00004625 l     F .text	00000039 puts
00001d6d l     F .text	00001939 parse
00000454 l     F .text	000000df _ZN12_GLOBAL__N_19FreeChunk6removeEv
0000645e l     O .bss	00000001 _ZN12_GLOBAL__N_19last_freeE
00000316 l     F .text	0000013d _ZN12_GLOBAL__N_19FreeChunk6insertEPvj
000048bd l     F .text	00000070 __mulsi3
00004a25 l     F .text	0000016f __udivsi3
00005ffb l     F .text	00000284 __floatunsidf
00004b94 l     F .text	000013e4 __muldf3
00005f78 l     F .text	00000083 __fixunsdfsi
000036ab l     F .text	000000d3 _ZN12_GLOBAL__N_13putEcP6Status
00004463 l     F .text	000001c2 putchar
0000377e l     F .text	0000010c _ZN12_GLOBAL__N_112print_stringEPKcP6Status
00000032 l     O .zp.bss	00000002 __putchar.s
0000645d l     O .bss	00000001 _ZN12_GLOBAL__N_111initializedE
00006461 l     O .bss	00000002 _ZN12_GLOBAL__N_19free_listE
0000645f l     O .bss	00000002 _ZN12_GLOBAL__N_19free_sizeE
0000487f l     F .text	0000001f __ashldi3
0000489e l     F .text	0000001f __lshrdi3
0000492d l     F .text	000000f8 __muldi3
00000559 g     F .text	000013eb main
00000311 g       .text	00000000 __after_main
00000300 g       .text	00000000 __do_init_stack
00000308 g       .text	00000000 __do_zero_bss
00000533 g     F .text	00000013 __zero_bss
0000030b g       .text	00000000 __do_zero_zp_bss
00000546 g     F .text	00000013 __zero_zp_bss
000036a6 g     F .text	00000005 exit
00000314 g       .text	00000000 _fini
0000627f g       .rodata	00000000 __set_v
0000485f  w    F .text	00000020 __memset
00001000  w      *ABS*	00000000 __heap_default_limit
00006464 g       .noinit	00000000 __heap_start
00004833  w    F .text	0000002c memcpy
00000010 g       *ABS*	00000000 __rc0
00000012 g       *ABS*	00000000 __rc2
00000014 g       *ABS*	00000000 __rc4
00000016 g       *ABS*	00000000 __rc6
00000018 g       *ABS*	00000000 __rc8
0000001a g       *ABS*	00000000 __rc10
0000001c g       *ABS*	00000000 __rc12
0000001e g       *ABS*	00000000 __rc14
00000020 g       *ABS*	00000000 __rc16
00000022 g       *ABS*	00000000 __rc18
00000024 g       *ABS*	00000000 __rc20
00000026 g       *ABS*	00000000 __rc22
00000028 g       *ABS*	00000000 __rc24
0000002a g       *ABS*	00000000 __rc26
0000002c g       *ABS*	00000000 __rc28
0000002e g       *ABS*	00000000 __rc30
0000002f g       *ABS*	00000000 __rc31
00000300 g       *ABS*	00000000 __f256_start
0000c000 g       *ABS*	00000000 __stack
0000c000 g       *ABS*	00000000 __SLOT_ADDR
0800c000 g       *ABS*	00000000 __block8_lma
00002000 g       *ABS*	00000000 __BLOCK_SIZE
0900c000 g       *ABS*	00000000 __block9_lma
0a00c000 g       *ABS*	00000000 __block10_lma
0b00c000 g       *ABS*	00000000 __block11_lma
0c00c000 g       *ABS*	00000000 __block12_lma
0d00c000 g       *ABS*	00000000 __block13_lma
0e00c000 g       *ABS*	00000000 __block14_lma
0f00c000 g       *ABS*	00000000 __block15_lma
1000c000 g       *ABS*	00000000 __block16_lma
1100c000 g       *ABS*	00000000 __block17_lma
1200c000 g       *ABS*	00000000 __block18_lma
1300c000 g       *ABS*	00000000 __block19_lma
1400c000 g       *ABS*	00000000 __block20_lma
1500c000 g       *ABS*	00000000 __block21_lma
1600c000 g       *ABS*	00000000 __block22_lma
1700c000 g       *ABS*	00000000 __block23_lma
0000645d g       .bss	00000000 __bss_start
00000300 g       .text	00000000 _start
0000002d g       *ABS*	00000000 __rc29
0000002b g       *ABS*	00000000 __rc27
00000029 g       *ABS*	00000000 __rc25
00000027 g       *ABS*	00000000 __rc23
00000025 g       *ABS*	00000000 __rc21
00000023 g       *ABS*	00000000 __rc19
00000021 g       *ABS*	00000000 __rc17
0000001f g       *ABS*	00000000 __rc15
0000001d g       *ABS*	00000000 __rc13
0000001b g       *ABS*	00000000 __rc11
00000019 g       *ABS*	00000000 __rc9
00000017 g       *ABS*	00000000 __rc7
00000015 g       *ABS*	00000000 __rc5
00000013 g       *ABS*	00000000 __rc3
00000011 g       *ABS*	00000000 __rc1
00000030 g       .zp.data	00000000 __zp_data_start
00000300 g       *ABS*	00000000 __zp_data_load_start
00000000 g       *ABS*	00000000 __zp_data_size
00000030 g       .zp.bss	00000000 __zp_bss_start
0000000c g       *ABS*	00000000 __zp_bss_size
00000300 g       .text	00000000 _init
0000627f g       .text	00000000 __init_array_start
0000627f g       .text	00000000 __init_array_end
0000627f g       .text	00000000 __fini_array_start
0000627f g       .text	00000000 __fini_array_end
0000645d g       .data	00000000 __data_start
0000645d g       .data	00000000 __data_end
0000645d g       *ABS*	00000000 __data_load_start
00000000 g       *ABS*	00000000 __data_size
00006463 g       .bss	00000000 __bss_end
00000006 g       *ABS*	00000000 __bss_size
00006463 g       .noinit	00000000 end_block8
00006463 g       .noinit	00000000 end_block9
00006463 g       .noinit	00000000 end_block10
00006463 g       .noinit	00000000 end_block11
00006463 g       .noinit	00000000 end_block12
00006463 g       .noinit	00000000 end_block13
00006463 g       .noinit	00000000 end_block14
00006463 g       .noinit	00000000 end_block15
00006463 g       .noinit	00000000 end_block16
00006463 g       .noinit	00000000 end_block17
00006463 g       .noinit	00000000 end_block18
00006463 g       .noinit	00000000 end_block19
00006463 g       .noinit	00000000 end_block20
00006463 g       .noinit	00000000 end_block21
00006463 g       .noinit	00000000 end_block22
00006463 g       .noinit	00000000 end_block23

Disassembly of section .text:

00000300 <_start>:
     300: a9 00        	lda	#$0
     302: 85 10        	sta	$10                     ; 0x2010 <parse+0x2a3>
     304: a9 c0        	lda	#$c0
     306: 85 11        	sta	$11                     ; 0x2011 <parse+0x2a4>

00000308 <__do_zero_bss>:
     308: 20 33 05     	jsr	$533 <__zero_bss>

0000030b <__do_zero_zp_bss>:
     30b: 20 46 05     	jsr	$546 <__zero_zp_bss>
     30e: 20 59 05     	jsr	$559 <main>

00000311 <__after_main>:
     311: 4c a6 36     	jmp	$36a6 <exit>

00000314 <_fini>:
     314: 60           	rts
     315: 00           	brk

00000316 <_ZN12_GLOBAL__N_19FreeChunk6insertEPvj>:
     316: 85 16        	sta	$16                     ; 0x2016 <parse+0x2a9>
     318: 29 fe        	and	#$fe
     31a: 85 14        	sta	$14                     ; 0x2014 <parse+0x2a7>
     31c: a0 01        	ldy	#$1
     31e: 98           	tya
     31f: 32 12        	and	($12)                   ; 0x2012 <parse+0x2a5>
     321: 05 14        	ora	$14                     ; 0x2014 <parse+0x2a7>
     323: 92 12        	sta	($12)                   ; 0x2012 <parse+0x2a5>
     325: a5 12        	lda	$12                     ; 0x2012 <parse+0x2a5>
     327: 18           	clc
     328: 65 14        	adc	$14                     ; 0x2014 <parse+0x2a7>
     32a: 85 15        	sta	$15                     ; 0x2015 <parse+0x2a8>
     32c: 8a           	txa
     32d: 65 13        	adc	$13                     ; 0x2013 <parse+0x2a6>
     32f: 85 14        	sta	$14                     ; 0x2014 <parse+0x2a7>
     331: 18           	clc
     332: a5 15        	lda	$15                     ; 0x2015 <parse+0x2a8>
     334: 69 fe        	adc	#$fe
     336: 85 17        	sta	$17                     ; 0x2017 <parse+0x2aa>
     338: a5 14        	lda	$14                     ; 0x2014 <parse+0x2a7>
     33a: 69 ff        	adc	#$ff
     33c: 85 15        	sta	$15                     ; 0x2015 <parse+0x2a8>
     33e: a5 17        	lda	$17                     ; 0x2017 <parse+0x2aa>
     340: 85 14        	sta	$14                     ; 0x2014 <parse+0x2a7>
     342: 8a           	txa
     343: 91 12        	sta	($12),y                 ; 0x2012 <parse+0x2a5>
     345: a5 16        	lda	$16                     ; 0x2016 <parse+0x2a9>
     347: 92 14        	sta	($14)                   ; 0x2014 <parse+0x2a7>
     349: 8a           	txa
     34a: 91 14        	sta	($14),y                 ; 0x2014 <parse+0x2a7>
     34c: b1 12        	lda	($12),y                 ; 0x2012 <parse+0x2a5>
     34e: 85 14        	sta	$14                     ; 0x2014 <parse+0x2a7>
     350: a9 fe        	lda	#$fe
     352: 32 12        	and	($12)                   ; 0x2012 <parse+0x2a5>
     354: 18           	clc
     355: 6d 5f 64     	adc	$645f                   ; 0x645f <_ZN12_GLOBAL__N_19free_sizeE>
     358: aa           	tax
     359: a5 14        	lda	$14                     ; 0x2014 <parse+0x2a7>
     35b: 6d 60 64     	adc	$6460                   ; 0x6460 <_ZN12_GLOBAL__N_19free_sizeE+0x1>
     35e: a8           	tay
     35f: 18           	clc
     360: 8a           	txa
     361: 69 fe        	adc	#$fe
     363: aa           	tax
     364: 98           	tya
     365: 69 ff        	adc	#$ff
     367: 8e 5f 64     	stx	$645f                   ; 0x645f <_ZN12_GLOBAL__N_19free_sizeE>
     36a: 8d 60 64     	sta	$6460                   ; 0x6460 <_ZN12_GLOBAL__N_19free_sizeE+0x1>
     36d: ae 61 64     	ldx	$6461                   ; 0x6461 <_ZN12_GLOBAL__N_19free_listE>
     370: 86 16        	stx	$16                     ; 0x2016 <parse+0x2a9>
     372: ac 62 64     	ldy	$6462                   ; 0x6462 <_ZN12_GLOBAL__N_19free_listE+0x1>
     375: a2 00        	ldx	#$0
     377: 86 14        	stx	$14                     ; 0x2014 <parse+0x2a7>
     379: a2 00        	ldx	#$0
     37b: 86 15        	stx	$15                     ; 0x2015 <parse+0x2a8>
     37d: c4 15        	cpy	$15                     ; 0x2015 <parse+0x2a8>
     37f: d0 3e        	bne	$3bf <_ZN12_GLOBAL__N_19FreeChunk6insertEPvj+0xa9>
     381: a6 16        	ldx	$16                     ; 0x2016 <parse+0x2a9>
     383: e4 14        	cpx	$14                     ; 0x2014 <parse+0x2a7>
     385: d0 38        	bne	$3bf <_ZN12_GLOBAL__N_19FreeChunk6insertEPvj+0xa9>
     387: a0 04        	ldy	#$4
     389: a5 12        	lda	$12                     ; 0x2012 <parse+0x2a5>
     38b: 18           	clc
     38c: 69 04        	adc	#$4
     38e: 85 14        	sta	$14                     ; 0x2014 <parse+0x2a7>
     390: a5 13        	lda	$13                     ; 0x2013 <parse+0x2a6>
     392: 69 00        	adc	#$0
     394: 18           	clc
     395: 85 15        	sta	$15                     ; 0x2015 <parse+0x2a8>
     397: a5 12        	lda	$12                     ; 0x2012 <parse+0x2a5>
     399: 91 12        	sta	($12),y                 ; 0x2012 <parse+0x2a5>
     39b: a0 02        	ldy	#$2
     39d: 85 17        	sta	$17                     ; 0x2017 <parse+0x2aa>
     39f: 69 02        	adc	#$2
     3a1: 85 16        	sta	$16                     ; 0x2016 <parse+0x2a9>
     3a3: a5 17        	lda	$17                     ; 0x2017 <parse+0x2aa>
     3a5: 91 12        	sta	($12),y                 ; 0x2012 <parse+0x2a5>
     3a7: a5 13        	lda	$13                     ; 0x2013 <parse+0x2a6>
     3a9: 69 00        	adc	#$0
     3ab: 85 17        	sta	$17                     ; 0x2017 <parse+0x2aa>
     3ad: 88           	dey
     3ae: a5 13        	lda	$13                     ; 0x2013 <parse+0x2a6>
     3b0: 91 14        	sta	($14),y                 ; 0x2014 <parse+0x2a7>
     3b2: 91 16        	sta	($16),y                 ; 0x2016 <parse+0x2a9>
     3b4: a6 12        	ldx	$12                     ; 0x2012 <parse+0x2a5>
     3b6: 8e 61 64     	stx	$6461                   ; 0x6461 <_ZN12_GLOBAL__N_19free_listE>
     3b9: a6 13        	ldx	$13                     ; 0x2013 <parse+0x2a6>
     3bb: 8e 62 64     	stx	$6462                   ; 0x6462 <_ZN12_GLOBAL__N_19free_listE+0x1>
     3be: 60           	rts
     3bf: a6 12        	ldx	$12                     ; 0x2012 <parse+0x2a5>
     3c1: a5 12        	lda	$12                     ; 0x2012 <parse+0x2a5>
     3c3: 18           	clc
     3c4: 69 02        	adc	#$2
     3c6: 85 14        	sta	$14                     ; 0x2014 <parse+0x2a7>
     3c8: 84 18        	sty	$18                     ; 0x2018 <parse+0x2ab>
     3ca: a5 13        	lda	$13                     ; 0x2013 <parse+0x2a6>
     3cc: 69 00        	adc	#$0
     3ce: 85 15        	sta	$15                     ; 0x2015 <parse+0x2a8>
     3d0: a5 16        	lda	$16                     ; 0x2016 <parse+0x2a9>
     3d2: 84 17        	sty	$17                     ; 0x2017 <parse+0x2aa>
     3d4: a0 02        	ldy	#$2
     3d6: 91 12        	sta	($12),y                 ; 0x2012 <parse+0x2a5>
     3d8: 85 19        	sta	$19                     ; 0x2019 <parse+0x2ac>
     3da: 88           	dey
     3db: a5 18        	lda	$18                     ; 0x2018 <parse+0x2ab>
     3dd: 91 14        	sta	($14),y                 ; 0x2014 <parse+0x2a7>
     3df: 18           	clc
     3e0: a5 19        	lda	$19                     ; 0x2019 <parse+0x2ac>
     3e2: 69 04        	adc	#$4
     3e4: a8           	tay
     3e5: a5 18        	lda	$18                     ; 0x2018 <parse+0x2ab>
     3e7: 69 00        	adc	#$0
     3e9: 85 19        	sta	$19                     ; 0x2019 <parse+0x2ac>
     3eb: 84 18        	sty	$18                     ; 0x2018 <parse+0x2ab>
     3ed: 8a           	txa
     3ee: 18           	clc
     3ef: 69 04        	adc	#$4
     3f1: 85 1a        	sta	$1a                     ; 0x201a <parse+0x2ad>
     3f3: a5 13        	lda	$13                     ; 0x2013 <parse+0x2a6>
     3f5: 69 00        	adc	#$0
     3f7: 85 1b        	sta	$1b                     ; 0x201b <parse+0x2ae>
     3f9: a0 04        	ldy	#$4
     3fb: b1 16        	lda	($16),y                 ; 0x2016 <parse+0x2a9>
     3fd: 85 16        	sta	$16                     ; 0x2016 <parse+0x2a9>
     3ff: 85 1d        	sta	$1d                     ; 0x201d <parse+0x2b0>
     401: a0 01        	ldy	#$1
     403: b1 18        	lda	($18),y                 ; 0x2018 <parse+0x2ab>
     405: 85 17        	sta	$17                     ; 0x2017 <parse+0x2aa>
     407: 85 19        	sta	$19                     ; 0x2019 <parse+0x2ac>
     409: a0 04        	ldy	#$4
     40b: a5 1d        	lda	$1d                     ; 0x201d <parse+0x2b0>
     40d: 91 12        	sta	($12),y                 ; 0x2012 <parse+0x2a5>
     40f: a5 19        	lda	$19                     ; 0x2019 <parse+0x2ac>
     411: a0 01        	ldy	#$1
     413: 91 1a        	sta	($1a),y                 ; 0x201a <parse+0x2ad>
     415: 18           	clc
     416: a5 1d        	lda	$1d                     ; 0x201d <parse+0x2b0>
     418: 69 02        	adc	#$2
     41a: 85 18        	sta	$18                     ; 0x2018 <parse+0x2ab>
     41c: a5 19        	lda	$19                     ; 0x2019 <parse+0x2ac>
     41e: 69 00        	adc	#$0
     420: 85 19        	sta	$19                     ; 0x2019 <parse+0x2ac>
     422: 8a           	txa
     423: c8           	iny
     424: 91 16        	sta	($16),y                 ; 0x2016 <parse+0x2a9>
     426: a5 13        	lda	$13                     ; 0x2013 <parse+0x2a6>
     428: 88           	dey
     429: 91 18        	sta	($18),y                 ; 0x2018 <parse+0x2ab>
     42b: c8           	iny
     42c: b1 12        	lda	($12),y                 ; 0x2012 <parse+0x2a5>
     42e: 85 16        	sta	$16                     ; 0x2016 <parse+0x2a9>
     430: 85 18        	sta	$18                     ; 0x2018 <parse+0x2ab>
     432: 88           	dey
     433: b1 14        	lda	($14),y                 ; 0x2014 <parse+0x2a7>
     435: 85 17        	sta	$17                     ; 0x2017 <parse+0x2aa>
     437: 85 14        	sta	$14                     ; 0x2014 <parse+0x2a7>
     439: 8a           	txa
     43a: a0 04        	ldy	#$4
     43c: 91 16        	sta	($16),y                 ; 0x2016 <parse+0x2a9>
     43e: 18           	clc
     43f: a5 18        	lda	$18                     ; 0x2018 <parse+0x2ab>
     441: 69 04        	adc	#$4
     443: a8           	tay
     444: a5 14        	lda	$14                     ; 0x2014 <parse+0x2a7>
     446: 69 00        	adc	#$0
     448: 84 14        	sty	$14                     ; 0x2014 <parse+0x2a7>
     44a: 85 15        	sta	$15                     ; 0x2015 <parse+0x2a8>
     44c: a5 13        	lda	$13                     ; 0x2013 <parse+0x2a6>
     44e: a0 01        	ldy	#$1
     450: 91 14        	sta	($14),y                 ; 0x2014 <parse+0x2a7>
     452: 60           	rts
     453: 00           	brk

00000454 <_ZN12_GLOBAL__N_19FreeChunk6removeEv>:
     454: a0 01        	ldy	#$1
     456: a9 fe        	lda	#$fe
     458: 32 12        	and	($12)                   ; 0x2012 <parse+0x2a5>
     45a: 85 14        	sta	$14                     ; 0x2014 <parse+0x2a7>
     45c: ad 5f 64     	lda	$645f                   ; 0x645f <_ZN12_GLOBAL__N_19free_sizeE>
     45f: ae 60 64     	ldx	$6460                   ; 0x6460 <_ZN12_GLOBAL__N_19free_sizeE+0x1>
     462: 86 15        	stx	$15                     ; 0x2015 <parse+0x2a8>
     464: 38           	sec
     465: e5 14        	sbc	$14                     ; 0x2014 <parse+0x2a7>
     467: aa           	tax
     468: a5 15        	lda	$15                     ; 0x2015 <parse+0x2a8>
     46a: f1 12        	sbc	($12),y                 ; 0x2012 <parse+0x2a5>
     46c: 85 14        	sta	$14                     ; 0x2014 <parse+0x2a7>
     46e: 18           	clc
     46f: 8a           	txa
     470: 69 02        	adc	#$2
     472: 85 15        	sta	$15                     ; 0x2015 <parse+0x2a8>
     474: a5 14        	lda	$14                     ; 0x2014 <parse+0x2a7>
     476: 69 00        	adc	#$0
     478: a6 15        	ldx	$15                     ; 0x2015 <parse+0x2a8>
     47a: 8e 5f 64     	stx	$645f                   ; 0x645f <_ZN12_GLOBAL__N_19free_sizeE>
     47d: 8d 60 64     	sta	$6460                   ; 0x6460 <_ZN12_GLOBAL__N_19free_sizeE+0x1>
     480: a5 12        	lda	$12                     ; 0x2012 <parse+0x2a5>
     482: 18           	clc
     483: 69 02        	adc	#$2
     485: 85 14        	sta	$14                     ; 0x2014 <parse+0x2a7>
     487: a5 13        	lda	$13                     ; 0x2013 <parse+0x2a6>
     489: 69 00        	adc	#$0
     48b: c8           	iny
     48c: 85 15        	sta	$15                     ; 0x2015 <parse+0x2a8>
     48e: b1 12        	lda	($12),y                 ; 0x2012 <parse+0x2a5>
     490: aa           	tax
     491: 88           	dey
     492: b1 14        	lda	($14),y                 ; 0x2014 <parse+0x2a7>
     494: 85 19        	sta	$19                     ; 0x2019 <parse+0x2ac>
     496: c5 13        	cmp	$13                     ; 0x2013 <parse+0x2a6>
     498: d0 0f        	bne	$4a9 <_ZN12_GLOBAL__N_19FreeChunk6removeEv+0x55>
     49a: e4 12        	cpx	$12                     ; 0x2012 <parse+0x2a5>
     49c: d0 0b        	bne	$4a9 <_ZN12_GLOBAL__N_19FreeChunk6removeEv+0x55>
     49e: a2 00        	ldx	#$0
     4a0: 86 14        	stx	$14                     ; 0x2014 <parse+0x2a7>
     4a2: a2 00        	ldx	#$0
     4a4: 86 15        	stx	$15                     ; 0x2015 <parse+0x2a8>
     4a6: 4c 28 05     	jmp	$528 <_ZN12_GLOBAL__N_19FreeChunk6removeEv+0xd4>
     4a9: 86 18        	stx	$18                     ; 0x2018 <parse+0x2ab>
     4ab: a6 12        	ldx	$12                     ; 0x2012 <parse+0x2a5>
     4ad: a5 12        	lda	$12                     ; 0x2012 <parse+0x2a5>
     4af: 86 1b        	stx	$1b                     ; 0x201b <parse+0x2ae>
     4b1: 18           	clc
     4b2: 69 04        	adc	#$4
     4b4: 85 14        	sta	$14                     ; 0x2014 <parse+0x2a7>
     4b6: a5 13        	lda	$13                     ; 0x2013 <parse+0x2a6>
     4b8: 69 00        	adc	#$0
     4ba: a0 04        	ldy	#$4
     4bc: 85 15        	sta	$15                     ; 0x2015 <parse+0x2a8>
     4be: b1 12        	lda	($12),y                 ; 0x2012 <parse+0x2a5>
     4c0: 85 1c        	sta	$1c                     ; 0x201c <parse+0x2af>
     4c2: 18           	clc
     4c3: 69 02        	adc	#$2
     4c5: 85 16        	sta	$16                     ; 0x2016 <parse+0x2a9>
     4c7: a0 01        	ldy	#$1
     4c9: b1 14        	lda	($14),y                 ; 0x2014 <parse+0x2a7>
     4cb: aa           	tax
     4cc: 69 00        	adc	#$0
     4ce: a4 16        	ldy	$16                     ; 0x2016 <parse+0x2a9>
     4d0: 84 14        	sty	$14                     ; 0x2014 <parse+0x2a7>
     4d2: 85 15        	sta	$15                     ; 0x2015 <parse+0x2a8>
     4d4: a4 1c        	ldy	$1c                     ; 0x201c <parse+0x2af>
     4d6: 84 16        	sty	$16                     ; 0x2016 <parse+0x2a9>
     4d8: 86 17        	stx	$17                     ; 0x2017 <parse+0x2aa>
     4da: a0 02        	ldy	#$2
     4dc: a5 18        	lda	$18                     ; 0x2018 <parse+0x2ab>
     4de: 91 16        	sta	($16),y                 ; 0x2016 <parse+0x2a9>
     4e0: a5 19        	lda	$19                     ; 0x2019 <parse+0x2ac>
     4e2: 88           	dey
     4e3: 91 14        	sta	($14),y                 ; 0x2014 <parse+0x2a7>
     4e5: 18           	clc
     4e6: a5 1b        	lda	$1b                     ; 0x201b <parse+0x2ae>
     4e8: 69 02        	adc	#$2
     4ea: 85 14        	sta	$14                     ; 0x2014 <parse+0x2a7>
     4ec: a5 13        	lda	$13                     ; 0x2013 <parse+0x2a6>
     4ee: 69 00        	adc	#$0
     4f0: 85 15        	sta	$15                     ; 0x2015 <parse+0x2a8>
     4f2: c8           	iny
     4f3: b1 12        	lda	($12),y                 ; 0x2012 <parse+0x2a5>
     4f5: 85 16        	sta	$16                     ; 0x2016 <parse+0x2a9>
     4f7: 88           	dey
     4f8: b1 14        	lda	($14),y                 ; 0x2014 <parse+0x2a7>
     4fa: a4 16        	ldy	$16                     ; 0x2016 <parse+0x2a9>
     4fc: 84 14        	sty	$14                     ; 0x2014 <parse+0x2a7>
     4fe: 85 15        	sta	$15                     ; 0x2015 <parse+0x2a8>
     500: 85 17        	sta	$17                     ; 0x2017 <parse+0x2aa>
     502: a0 04        	ldy	#$4
     504: a5 1c        	lda	$1c                     ; 0x201c <parse+0x2af>
     506: 91 14        	sta	($14),y                 ; 0x2014 <parse+0x2a7>
     508: 18           	clc
     509: a5 16        	lda	$16                     ; 0x2016 <parse+0x2a9>
     50b: 69 04        	adc	#$4
     50d: 85 16        	sta	$16                     ; 0x2016 <parse+0x2a9>
     50f: a5 17        	lda	$17                     ; 0x2017 <parse+0x2aa>
     511: 69 00        	adc	#$0
     513: 85 17        	sta	$17                     ; 0x2017 <parse+0x2aa>
     515: 8a           	txa
     516: a0 01        	ldy	#$1
     518: 91 16        	sta	($16),y                 ; 0x2016 <parse+0x2a9>
     51a: ae 62 64     	ldx	$6462                   ; 0x6462 <_ZN12_GLOBAL__N_19free_listE+0x1>
     51d: e4 13        	cpx	$13                     ; 0x2013 <parse+0x2a6>
     51f: d0 11        	bne	$532 <_ZN12_GLOBAL__N_19FreeChunk6removeEv+0xde>
     521: ae 61 64     	ldx	$6461                   ; 0x6461 <_ZN12_GLOBAL__N_19free_listE>
     524: e4 12        	cpx	$12                     ; 0x2012 <parse+0x2a5>
     526: d0 0a        	bne	$532 <_ZN12_GLOBAL__N_19FreeChunk6removeEv+0xde>
     528: a6 14        	ldx	$14                     ; 0x2014 <parse+0x2a7>
     52a: a4 15        	ldy	$15                     ; 0x2015 <parse+0x2a8>
     52c: 8e 61 64     	stx	$6461                   ; 0x6461 <_ZN12_GLOBAL__N_19free_listE>
     52f: 8c 62 64     	sty	$6462                   ; 0x6462 <_ZN12_GLOBAL__N_19free_listE+0x1>
     532: 60           	rts

00000533 <__zero_bss>:
     533: a2 06        	ldx	#$6
     535: a0 00        	ldy	#$0
     537: a9 5d        	lda	#$5d
     539: 85 12        	sta	$12                     ; 0x2012 <parse+0x2a5>
     53b: a9 64        	lda	#$64
     53d: 85 13        	sta	$13                     ; 0x2013 <parse+0x2a6>
     53f: a9 00        	lda	#$0
     541: 84 14        	sty	$14                     ; 0x2014 <parse+0x2a7>
     543: 4c 5f 48     	jmp	$485f <__memset>

00000546 <__zero_zp_bss>:
     546: a2 0c        	ldx	#$c
     548: a0 00        	ldy	#$0
     54a: a9 30        	lda	#$30
     54c: 85 12        	sta	$12                     ; 0x2012 <parse+0x2a5>
     54e: a9 00        	lda	#$0
     550: 85 13        	sta	$13                     ; 0x2013 <parse+0x2a6>
     552: a9 00        	lda	#$0
     554: 84 14        	sty	$14                     ; 0x2014 <parse+0x2a7>
     556: 4c 5f 48     	jmp	$485f <__memset>

00000559 <main>:
     559: 18           	clc
     55a: a5 10        	lda	$10                     ; 0x2010 <parse+0x2a3>
     55c: 69 9d        	adc	#$9d
     55e: 85 10        	sta	$10                     ; 0x2010 <parse+0x2a3>
     560: a5 11        	lda	$11                     ; 0x2011 <parse+0x2a4>
     562: 69 fe        	adc	#$fe
     564: 85 11        	sta	$11                     ; 0x2011 <parse+0x2a4>
     566: a6 24        	ldx	$24                     ; 0x2024 <parse+0x2b7>
     568: da           	phx
     569: a6 25        	ldx	$25                     ; 0x2025 <parse+0x2b8>
     56b: da           	phx
     56c: a6 26        	ldx	$26                     ; 0x2026 <parse+0x2b9>
     56e: da           	phx
     56f: a6 27        	ldx	$27                     ; 0x2027 <parse+0x2ba>
     571: da           	phx
     572: a5 28        	lda	$28                     ; 0x2028 <parse+0x2bb>
     574: a0 0d        	ldy	#$d
     576: 91 10        	sta	($10),y                 ; 0x2010 <parse+0x2a3>
     578: a5 29        	lda	$29                     ; 0x2029 <parse+0x2bc>
     57a: 88           	dey
     57b: 91 10        	sta	($10),y                 ; 0x2010 <parse+0x2a3>
     57d: a5 2a        	lda	$2a                     ; 0x202a <parse+0x2bd>
     57f: 88           	dey
     580: 91 10        	sta	($10),y                 ; 0x2010 <parse+0x2a3>
     582: a5 2b        	lda	$2b                     ; 0x202b <parse+0x2be>
     584: 88           	dey
     585: 91 10        	sta	($10),y                 ; 0x2010 <parse+0x2a3>
     587: a5 2c        	lda	$2c                     ; 0x202c <parse+0x2bf>
     589: 88           	dey
     58a: 91 10        	sta	($10),y                 ; 0x2010 <parse+0x2a3>
     58c: a5 2d        	lda	$2d                     ; 0x202d <parse+0x2c0>
     58e: 88           	dey
     58f: 91 10        	sta	($10),y                 ; 0x2010 <parse+0x2a3>
     591: a5 2e        	lda	$2e                     ; 0x202e <parse+0x2c1>
     593: 88           	dey
     594: 91 10        	sta	($10),y                 ; 0x2010 <parse+0x2a3>
     596: a5 2f        	lda	$2f                     ; 0x202f <parse+0x2c2>
     598: 88           	dey
     599: 91 10        	sta	($10),y                 ; 0x2010 <parse+0x2a3>
     59b: 64 14        	stz	$14                     ; 0x2014 <parse+0x2a7>
     59d: a2 00        	ldx	#$0
     59f: 86 12        	stx	$12                     ; 0x2012 <parse+0x2a5>
     5a1: a2 c0        	ldx	#$c0
     5a3: 86 13        	stx	$13                     ; 0x2013 <parse+0x2a6>
     5a5: 64 01        	stz	$1                      ; 0x2001 <parse+0x294>
     5a7: a2 3f        	ldx	#$3f
     5a9: 8e 00 d0     	stx	$d000                   ; 0xd000 <__heap_start+0x6b9c>
     5ac: a2 b3        	ldx	#$b3
     5ae: 86 00        	stx	$0                      ; 0x2000 <parse+0x293>
     5b0: 64 08        	stz	$8                      ; 0x2008 <parse+0x29b>
     5b2: a2 01        	ldx	#$1
     5b4: 86 09        	stx	$9                      ; 0x2009 <parse+0x29c>
     5b6: e8           	inx
     5b7: 86 0a        	stx	$a                      ; 0x200a <parse+0x29d>
     5b9: e8           	inx
     5ba: 86 0b        	stx	$b                      ; 0x200b <parse+0x29e>
     5bc: e8           	inx
     5bd: 86 0c        	stx	$c                      ; 0x200c <parse+0x29f>
     5bf: e8           	inx
     5c0: 86 0d        	stx	$d                      ; 0x200d <parse+0x2a0>
     5c2: a2 35        	ldx	#$35
     5c4: a0 00        	ldy	#$0
     5c6: 86 f0        	stx	$f0                     ; 0x20f0 <parse+0x383>
     5c8: 84 f1        	sty	$f1                     ; 0x20f1 <parse+0x384>
     5ca: a2 00        	ldx	#$0
     5cc: 86 18        	stx	$18                     ; 0x2018 <parse+0x2ab>
     5ce: ca           	dex
     5cf: 86 19        	stx	$19                     ; 0x2019 <parse+0x2ac>
     5d1: 8a           	txa
     5d2: 0a           	asl
     5d3: 0a           	asl
     5d4: 18           	clc
     5d5: 69 d4        	adc	#$d4
     5d7: 85 1a        	sta	$1a                     ; 0x201a <parse+0x2ad>
     5d9: a0 00        	ldy	#$0
     5db: 64 17        	stz	$17                     ; 0x2017 <parse+0x2aa>
     5dd: 64 16        	stz	$16                     ; 0x2016 <parse+0x2a9>
     5df: a6 19        	ldx	$19                     ; 0x2019 <parse+0x2ac>
     5e1: e0 03        	cpx	#$3
     5e3: a6 01        	ldx	$1                      ; 0x2001 <parse+0x294>
     5e5: 86 1c        	stx	$1c                     ; 0x201c <parse+0x2af>
     5e7: a2 d0        	ldx	#$d0
     5e9: 84 1b        	sty	$1b                     ; 0x201b <parse+0x2ae>
     5eb: b0 02        	bcs	$5ef <main+0x96>
     5ed: a6 1a        	ldx	$1a                     ; 0x201a <parse+0x2ad>
     5ef: 86 15        	stx	$15                     ; 0x2015 <parse+0x2a8>
     5f1: a5 17        	lda	$17                     ; 0x2017 <parse+0x2aa>
     5f3: 18           	clc
     5f4: 65 14        	adc	$14                     ; 0x2014 <parse+0x2a7>
     5f6: a8           	tay
     5f7: a6 17        	ldx	$17                     ; 0x2017 <parse+0x2aa>
     5f9: a5 16        	lda	$16                     ; 0x2016 <parse+0x2a9>
     5fb: 85 1d        	sta	$1d                     ; 0x201d <parse+0x2b0>
     5fd: a5 16        	lda	$16                     ; 0x2016 <parse+0x2a9>
     5ff: 65 15        	adc	$15                     ; 0x2015 <parse+0x2a8>
     601: 84 16        	sty	$16                     ; 0x2016 <parse+0x2a9>
     603: a0 01        	ldy	#$1
     605: 84 01        	sty	$1                      ; 0x2001 <parse+0x294>
     607: 85 17        	sta	$17                     ; 0x2017 <parse+0x2aa>
     609: a5 1b        	lda	$1b                     ; 0x201b <parse+0x2ae>
     60b: 92 16        	sta	($16)                   ; 0x2016 <parse+0x2a9>
     60d: 91 16        	sta	($16),y                 ; 0x2016 <parse+0x2a9>
     60f: c8           	iny
     610: 91 16        	sta	($16),y                 ; 0x2016 <parse+0x2a9>
     612: 85 15        	sta	$15                     ; 0x2015 <parse+0x2a8>
     614: c8           	iny
     615: a9 ff        	lda	#$ff
     617: 91 16        	sta	($16),y                 ; 0x2016 <parse+0x2a9>
     619: 8a           	txa
     61a: a6 1c        	ldx	$1c                     ; 0x201c <parse+0x2af>
     61c: 86 01        	stx	$1                      ; 0x2001 <parse+0x294>
     61e: 18           	clc
     61f: 69 04        	adc	#$4
     621: 85 17        	sta	$17                     ; 0x2017 <parse+0x2aa>
     623: a5 1d        	lda	$1d                     ; 0x201d <parse+0x2b0>
     625: 69 00        	adc	#$0
     627: e6 15        	inc	$15                     ; 0x2015 <parse+0x2a8>
     629: a4 15        	ldy	$15                     ; 0x2015 <parse+0x2a8>
     62b: 85 16        	sta	$16                     ; 0x2016 <parse+0x2a9>
     62d: c9 04        	cmp	#$4
     62f: f0 03        	beq	$634 <main+0xdb>
     631: 4c df 05     	jmp	$5df <main+0x86>
     634: a5 17        	lda	$17                     ; 0x2017 <parse+0x2aa>
     636: f0 03        	beq	$63b <main+0xe2>
     638: 4c df 05     	jmp	$5df <main+0x86>
     63b: a6 18        	ldx	$18                     ; 0x2018 <parse+0x2ab>
     63d: e8           	inx
     63e: e0 04        	cpx	#$4
     640: f0 03        	beq	$645 <main+0xec>
     642: 4c cc 05     	jmp	$5cc <main+0x73>
     645: ad 02 d0     	lda	$d002                   ; 0xd002 <__heap_start+0x6b9e>
     648: 29 f0        	and	#$f0
     64a: 8d 02 d0     	sta	$d002                   ; 0xd002 <__heap_start+0x6b9e>
     64d: ad 02 d0     	lda	$d002                   ; 0xd002 <__heap_start+0x6b9e>
     650: 29 0f        	and	#$f
     652: 09 10        	ora	#$10
     654: 8d 02 d0     	sta	$d002                   ; 0xd002 <__heap_start+0x6b9e>
     657: a2 02        	ldx	#$2
     659: 8e 03 d0     	stx	$d003                   ; 0xd003 <__heap_start+0x6b9f>
     65c: ad 01 d0     	lda	$d001                   ; 0xd001 <__heap_start+0x6b9d>
     65f: 29 f9        	and	#$f9
     661: 09 04        	ora	#$4
     663: 8d 01 d0     	sta	$d001                   ; 0xd001 <__heap_start+0x6b9d>
     666: 64 14        	stz	$14                     ; 0x2014 <parse+0x2a7>
     668: 9c 10 d0     	stz	$d010                   ; 0xd010 <__heap_start+0x6bac>
     66b: a2 00        	ldx	#$0
     66d: 64 15        	stz	$15                     ; 0x2015 <parse+0x2a8>
     66f: 86 18        	stx	$18                     ; 0x2018 <parse+0x2ab>
     671: a4 18        	ldy	$18                     ; 0x2018 <parse+0x2ab>
     673: be dc 62     	ldx	$62dc,y                 ; 0x62dc <textColors>
     676: 86 19        	stx	$19                     ; 0x2019 <parse+0x2ac>
     678: be dd 62     	ldx	$62dd,y                 ; 0x62dd <textColors+0x1>
     67b: 86 1a        	stx	$1a                     ; 0x201a <parse+0x2ad>
     67d: be de 62     	ldx	$62de,y                 ; 0x62de <textColors+0x2>
     680: 86 1b        	stx	$1b                     ; 0x201b <parse+0x2ae>
     682: a6 15        	ldx	$15                     ; 0x2015 <parse+0x2a8>
     684: 8e 00 de     	stx	$de00                   ; 0xde00 <__heap_start+0x799c>
     687: 86 17        	stx	$17                     ; 0x2017 <parse+0x2aa>
     689: 9c 01 de     	stz	$de01                   ; 0xde01 <__heap_start+0x799d>
     68c: a2 04        	ldx	#$4
     68e: 8e 02 de     	stx	$de02                   ; 0xde02 <__heap_start+0x799e>
     691: 9c 03 de     	stz	$de03                   ; 0xde03 <__heap_start+0x799f>
     694: ad 10 de     	lda	$de10                   ; 0xde10 <__heap_start+0x79ac>
     697: ac 11 de     	ldy	$de11                   ; 0xde11 <__heap_start+0x79ad>
     69a: 84 15        	sty	$15                     ; 0x2015 <parse+0x2a8>
     69c: ac 12 de     	ldy	$de12                   ; 0xde12 <__heap_start+0x79ae>
     69f: ac 13 de     	ldy	$de13                   ; 0xde13 <__heap_start+0x79af>
     6a2: 18           	clc
     6a3: 65 14        	adc	$14                     ; 0x2014 <parse+0x2a7>
     6a5: 85 16        	sta	$16                     ; 0x2016 <parse+0x2a9>
     6a7: a6 17        	ldx	$17                     ; 0x2017 <parse+0x2aa>
     6a9: a9 d8        	lda	#$d8
     6ab: 65 15        	adc	$15                     ; 0x2015 <parse+0x2a8>
     6ad: 85 17        	sta	$17                     ; 0x2017 <parse+0x2aa>
     6af: a5 1b        	lda	$1b                     ; 0x201b <parse+0x2ae>
     6b1: 92 16        	sta	($16)                   ; 0x2016 <parse+0x2a9>
     6b3: a0 01        	ldy	#$1
     6b5: a5 1a        	lda	$1a                     ; 0x201a <parse+0x2ad>
     6b7: 91 16        	sta	($16),y                 ; 0x2016 <parse+0x2a9>
     6b9: c8           	iny
     6ba: a5 19        	lda	$19                     ; 0x2019 <parse+0x2ac>
     6bc: 91 16        	sta	($16),y                 ; 0x2016 <parse+0x2a9>
     6be: c8           	iny
     6bf: a9 ff        	lda	#$ff
     6c1: 91 16        	sta	($16),y                 ; 0x2016 <parse+0x2a9>
     6c3: 8e 00 de     	stx	$de00                   ; 0xde00 <__heap_start+0x799c>
     6c6: 9c 01 de     	stz	$de01                   ; 0xde01 <__heap_start+0x799d>
     6c9: c8           	iny
     6ca: 8c 02 de     	sty	$de02                   ; 0xde02 <__heap_start+0x799e>
     6cd: 9c 03 de     	stz	$de03                   ; 0xde03 <__heap_start+0x799f>
     6d0: ad 10 de     	lda	$de10                   ; 0xde10 <__heap_start+0x79ac>
     6d3: 85 15        	sta	$15                     ; 0x2015 <parse+0x2a8>
     6d5: ad 11 de     	lda	$de11                   ; 0xde11 <__heap_start+0x79ad>
     6d8: 85 16        	sta	$16                     ; 0x2016 <parse+0x2a9>
     6da: a9 40        	lda	#$40
     6dc: 18           	clc
     6dd: 65 15        	adc	$15                     ; 0x2015 <parse+0x2a8>
     6df: a8           	tay
     6e0: a9 d8        	lda	#$d8
     6e2: 65 16        	adc	$16                     ; 0x2016 <parse+0x2a9>
     6e4: 85 17        	sta	$17                     ; 0x2017 <parse+0x2aa>
     6e6: 84 16        	sty	$16                     ; 0x2016 <parse+0x2a9>
     6e8: ad 12 de     	lda	$de12                   ; 0xde12 <__heap_start+0x79ae>
     6eb: ad 13 de     	lda	$de13                   ; 0xde13 <__heap_start+0x79af>
     6ee: a5 1b        	lda	$1b                     ; 0x201b <parse+0x2ae>
     6f0: 92 16        	sta	($16)                   ; 0x2016 <parse+0x2a9>
     6f2: a5 1a        	lda	$1a                     ; 0x201a <parse+0x2ad>
     6f4: a0 01        	ldy	#$1
     6f6: 91 16        	sta	($16),y                 ; 0x2016 <parse+0x2a9>
     6f8: a5 19        	lda	$19                     ; 0x2019 <parse+0x2ac>
     6fa: c8           	iny
     6fb: 91 16        	sta	($16),y                 ; 0x2016 <parse+0x2a9>
     6fd: c8           	iny
     6fe: a9 ff        	lda	#$ff
     700: 91 16        	sta	($16),y                 ; 0x2016 <parse+0x2a9>
     702: e8           	inx
     703: 86 15        	stx	$15                     ; 0x2015 <parse+0x2a8>
     705: 18           	clc
     706: a5 18        	lda	$18                     ; 0x2018 <parse+0x2ab>
     708: 69 03        	adc	#$3
     70a: aa           	tax
     70b: c9 30        	cmp	#$30
     70d: f0 03        	beq	$712 <main+0x1b9>
     70f: 4c 6f 06     	jmp	$66f <main+0x116>
     712: a6 01        	ldx	$1                      ; 0x2001 <parse+0x294>
     714: 86 18        	stx	$18                     ; 0x2018 <parse+0x2ab>
     716: a2 50        	ldx	#$50
     718: 8e 00 de     	stx	$de00                   ; 0xde00 <__heap_start+0x799c>
     71b: 9c 01 de     	stz	$de01                   ; 0xde01 <__heap_start+0x799d>
     71e: a2 1e        	ldx	#$1e
     720: 8e 02 de     	stx	$de02                   ; 0xde02 <__heap_start+0x799e>
     723: 9c 03 de     	stz	$de03                   ; 0xde03 <__heap_start+0x799f>
     726: ae 10 de     	ldx	$de10                   ; 0xde10 <__heap_start+0x79ac>
     729: ac 11 de     	ldy	$de11                   ; 0xde11 <__heap_start+0x79ad>
     72c: ad 12 de     	lda	$de12                   ; 0xde12 <__heap_start+0x79ae>
     72f: ad 13 de     	lda	$de13                   ; 0xde13 <__heap_start+0x79af>
     732: a9 02        	lda	#$2
     734: 85 01        	sta	$1                      ; 0x2001 <parse+0x294>
     736: e0 01        	cpx	#$1
     738: 98           	tya
     739: e9 00        	sbc	#$0
     73b: 50 02        	bvc	$73f <main+0x1e6>
     73d: 49 80        	eor	#$80
     73f: c9 00        	cmp	#$0
     741: 30 48        	bmi	$78b <main+0x232>
     743: a9 20        	lda	#$20
     745: 86 19        	stx	$19                     ; 0x2019 <parse+0x2ac>
     747: 86 14        	stx	$14                     ; 0x2014 <parse+0x2a7>
     749: 84 15        	sty	$15                     ; 0x2015 <parse+0x2a8>
     74b: a2 00        	ldx	#$0
     74d: 86 16        	stx	$16                     ; 0x2016 <parse+0x2a9>
     74f: a2 c0        	ldx	#$c0
     751: 86 17        	stx	$17                     ; 0x2017 <parse+0x2aa>
     753: 92 16        	sta	($16)                   ; 0x2016 <parse+0x2a9>
     755: e6 16        	inc	$16                     ; 0x2016 <parse+0x2a9>
     757: d0 02        	bne	$75b <main+0x202>
     759: e6 17        	inc	$17                     ; 0x2017 <parse+0x2aa>
     75b: a2 ff        	ldx	#$ff
     75d: c6 14        	dec	$14                     ; 0x2014 <parse+0x2a7>
     75f: e4 14        	cpx	$14                     ; 0x2014 <parse+0x2a7>
     761: d0 02        	bne	$765 <main+0x20c>
     763: c6 15        	dec	$15                     ; 0x2015 <parse+0x2a8>
     765: a6 15        	ldx	$15                     ; 0x2015 <parse+0x2a8>
     767: d0 ea        	bne	$753 <main+0x1fa>
     769: a6 14        	ldx	$14                     ; 0x2014 <parse+0x2a7>
     76b: d0 e6        	bne	$753 <main+0x1fa>
     76d: a2 03        	ldx	#$3
     76f: 86 01        	stx	$1                      ; 0x2001 <parse+0x294>
     771: a6 19        	ldx	$19                     ; 0x2019 <parse+0x2ac>
     773: a9 f0        	lda	#$f0
     775: 92 12        	sta	($12)                   ; 0x2012 <parse+0x2a5>
     777: e6 12        	inc	$12                     ; 0x2012 <parse+0x2a5>
     779: d0 02        	bne	$77d <main+0x224>
     77b: e6 13        	inc	$13                     ; 0x2013 <parse+0x2a6>
     77d: ca           	dex
     77e: e0 ff        	cpx	#$ff
     780: d0 01        	bne	$783 <main+0x22a>
     782: 88           	dey
     783: 98           	tya
     784: d0 ed        	bne	$773 <main+0x21a>
     786: 8a           	txa
     787: d0 ea        	bne	$773 <main+0x21a>
     789: 80 04        	bra	$78f <main+0x236>
     78b: a2 03        	ldx	#$3
     78d: 86 01        	stx	$1                      ; 0x2001 <parse+0x294>
     78f: a6 18        	ldx	$18                     ; 0x2018 <parse+0x2ab>
     791: 86 01        	stx	$1                      ; 0x2001 <parse+0x294>
     793: 64 30        	stz	$30                     ; 0x2030 <parse+0x2c3>
     795: 9c 14 d0     	stz	$d014                   ; 0xd014 <__heap_start+0x6bb0>
     798: 9c 15 d0     	stz	$d015                   ; 0xd015 <__heap_start+0x6bb1>
     79b: 64 31        	stz	$31                     ; 0x2031 <parse+0x2c4>
     79d: 9c 16 d0     	stz	$d016                   ; 0xd016 <__heap_start+0x6bb2>
     7a0: 9c 17 d0     	stz	$d017                   ; 0xd017 <__heap_start+0x6bb3>
     7a3: a2 40        	ldx	#$40
     7a5: 8e 00 de     	stx	$de00                   ; 0xde00 <__heap_start+0x799c>
     7a8: a2 01        	ldx	#$1
     7aa: 8e 01 de     	stx	$de01                   ; 0xde01 <__heap_start+0x799d>
     7ad: a2 f0        	ldx	#$f0
     7af: 8e 02 de     	stx	$de02                   ; 0xde02 <__heap_start+0x799e>
     7b2: 9c 03 de     	stz	$de03                   ; 0xde03 <__heap_start+0x799f>
     7b5: ae 10 de     	ldx	$de10                   ; 0xde10 <__heap_start+0x79ac>
     7b8: 86 17        	stx	$17                     ; 0x2017 <parse+0x2aa>
     7ba: ae 11 de     	ldx	$de11                   ; 0xde11 <__heap_start+0x79ad>
     7bd: 86 12        	stx	$12                     ; 0x2012 <parse+0x2a5>
     7bf: ae 12 de     	ldx	$de12                   ; 0xde12 <__heap_start+0x79ae>
     7c2: 86 13        	stx	$13                     ; 0x2013 <parse+0x2a6>
     7c4: ae 13 de     	ldx	$de13                   ; 0xde13 <__heap_start+0x79af>
     7c7: 86 14        	stx	$14                     ; 0x2014 <parse+0x2a7>
     7c9: a4 12        	ldy	$12                     ; 0x2012 <parse+0x2a5>
     7cb: 84 15        	sty	$15                     ; 0x2015 <parse+0x2a8>
     7cd: 06 15        	asl	$15                     ; 0x2015 <parse+0x2a8>
     7cf: a5 13        	lda	$13                     ; 0x2013 <parse+0x2a6>
     7d1: 2a           	rol
     7d2: 86 16        	stx	$16                     ; 0x2016 <parse+0x2a9>
     7d4: 26 16        	rol	$16                     ; 0x2016 <parse+0x2a9>
     7d6: 06 15        	asl	$15                     ; 0x2015 <parse+0x2a8>
     7d8: 2a           	rol
     7d9: 26 16        	rol	$16                     ; 0x2016 <parse+0x2a9>
     7db: 06 15        	asl	$15                     ; 0x2015 <parse+0x2a8>
     7dd: 2a           	rol
     7de: 26 16        	rol	$16                     ; 0x2016 <parse+0x2a9>
     7e0: 85 15        	sta	$15                     ; 0x2015 <parse+0x2a8>
     7e2: 8d 00 de     	sta	$de00                   ; 0xde00 <__heap_start+0x799c>
     7e5: a5 16        	lda	$16                     ; 0x2016 <parse+0x2a9>
     7e7: 8d 01 de     	sta	$de01                   ; 0xde01 <__heap_start+0x799d>
     7ea: 9c 02 de     	stz	$de02                   ; 0xde02 <__heap_start+0x799e>
     7ed: a2 20        	ldx	#$20
     7ef: 8e 03 de     	stx	$de03                   ; 0xde03 <__heap_start+0x799f>
     7f2: ae 10 de     	ldx	$de10                   ; 0xde10 <__heap_start+0x79ac>
     7f5: 86 16        	stx	$16                     ; 0x2016 <parse+0x2a9>
     7f7: ae 11 de     	ldx	$de11                   ; 0xde11 <__heap_start+0x79ad>
     7fa: 86 18        	stx	$18                     ; 0x2018 <parse+0x2ab>
     7fc: ac 12 de     	ldy	$de12                   ; 0xde12 <__heap_start+0x79ae>
     7ff: ae 13 de     	ldx	$de13                   ; 0xde13 <__heap_start+0x79af>
     802: e4 14        	cpx	$14                     ; 0x2014 <parse+0x2a7>
     804: d0 14        	bne	$81a <main+0x2c1>
     806: c4 13        	cpy	$13                     ; 0x2013 <parse+0x2a6>
     808: d0 10        	bne	$81a <main+0x2c1>
     80a: a6 18        	ldx	$18                     ; 0x2018 <parse+0x2ab>
     80c: e4 12        	cpx	$12                     ; 0x2012 <parse+0x2a5>
     80e: d0 0a        	bne	$81a <main+0x2c1>
     810: a6 16        	ldx	$16                     ; 0x2016 <parse+0x2a9>
     812: e4 17        	cpx	$17                     ; 0x2017 <parse+0x2aa>
     814: d0 04        	bne	$81a <main+0x2c1>
     816: a6 15        	ldx	$15                     ; 0x2015 <parse+0x2a8>
     818: 80 06        	bra	$820 <main+0x2c7>
     81a: a6 15        	ldx	$15                     ; 0x2015 <parse+0x2a8>
     81c: e8           	inx
     81d: d0 01        	bne	$820 <main+0x2c7>
     81f: 1a           	inc
     820: 8e 00 de     	stx	$de00                   ; 0xde00 <__heap_start+0x799c>
     823: 8d 01 de     	sta	$de01                   ; 0xde01 <__heap_start+0x799d>
     826: 9c 02 de     	stz	$de02                   ; 0xde02 <__heap_start+0x799e>
     829: a2 20        	ldx	#$20
     82b: 8e 03 de     	stx	$de03                   ; 0xde03 <__heap_start+0x799f>
     82e: ae 10 de     	ldx	$de10                   ; 0xde10 <__heap_start+0x79ac>
     831: 86 12        	stx	$12                     ; 0x2012 <parse+0x2a5>
     833: ae 11 de     	ldx	$de11                   ; 0xde11 <__heap_start+0x79ad>
     836: 86 13        	stx	$13                     ; 0x2013 <parse+0x2a6>
     838: ae 12 de     	ldx	$de12                   ; 0xde12 <__heap_start+0x79ae>
     83b: 86 14        	stx	$14                     ; 0x2014 <parse+0x2a7>
     83d: 38           	sec
     83e: a9 00        	lda	#$0
     840: e5 12        	sbc	$12                     ; 0x2012 <parse+0x2a5>
     842: a8           	tay
     843: a9 00        	lda	#$0
     845: e5 13        	sbc	$13                     ; 0x2013 <parse+0x2a6>
     847: 85 15        	sta	$15                     ; 0x2015 <parse+0x2a8>
     849: a9 08        	lda	#$8
     84b: e5 14        	sbc	$14                     ; 0x2014 <parse+0x2a7>
     84d: aa           	tax
     84e: 38           	sec
     84f: 98           	tya
     850: 84 17        	sty	$17                     ; 0x2017 <parse+0x2aa>
     852: e5 12        	sbc	$12                     ; 0x2012 <parse+0x2a5>
     854: 85 16        	sta	$16                     ; 0x2016 <parse+0x2a9>
     856: a5 15        	lda	$15                     ; 0x2015 <parse+0x2a8>
     858: e5 13        	sbc	$13                     ; 0x2013 <parse+0x2a6>
     85a: 85 18        	sta	$18                     ; 0x2018 <parse+0x2ab>
     85c: 8a           	txa
     85d: 86 19        	stx	$19                     ; 0x2019 <parse+0x2ac>
     85f: e5 14        	sbc	$14                     ; 0x2014 <parse+0x2a7>
     861: a8           	tay
     862: 38           	sec
     863: a5 16        	lda	$16                     ; 0x2016 <parse+0x2a9>
     865: e5 12        	sbc	$12                     ; 0x2012 <parse+0x2a5>
     867: 85 12        	sta	$12                     ; 0x2012 <parse+0x2a5>
     869: a5 18        	lda	$18                     ; 0x2018 <parse+0x2ab>
     86b: e5 13        	sbc	$13                     ; 0x2013 <parse+0x2a6>
     86d: 85 13        	sta	$13                     ; 0x2013 <parse+0x2a6>
     86f: 98           	tya
     870: e5 14        	sbc	$14                     ; 0x2014 <parse+0x2a7>
     872: ae 13 de     	ldx	$de13                   ; 0xde13 <__heap_start+0x79af>
     875: a6 17        	ldx	$17                     ; 0x2017 <parse+0x2aa>
     877: 8e 01 d1     	stx	$d101                   ; 0xd101 <__heap_start+0x6c9d>
     87a: a6 15        	ldx	$15                     ; 0x2015 <parse+0x2a8>
     87c: 8e 02 d1     	stx	$d102                   ; 0xd102 <__heap_start+0x6c9e>
     87f: a6 19        	ldx	$19                     ; 0x2019 <parse+0x2ac>
     881: 8e 03 d1     	stx	$d103                   ; 0xd103 <__heap_start+0x6c9f>
     884: a6 16        	ldx	$16                     ; 0x2016 <parse+0x2a9>
     886: 8e 09 d1     	stx	$d109                   ; 0xd109 <__heap_start+0x6ca5>
     889: a6 18        	ldx	$18                     ; 0x2018 <parse+0x2ab>
     88b: 8e 0a d1     	stx	$d10a                   ; 0xd10a <__heap_start+0x6ca6>
     88e: 8c 0b d1     	sty	$d10b                   ; 0xd10b <__heap_start+0x6ca7>
     891: a6 12        	ldx	$12                     ; 0x2012 <parse+0x2a5>
     893: 8e 11 d1     	stx	$d111                   ; 0xd111 <__heap_start+0x6cad>
     896: a6 13        	ldx	$13                     ; 0x2013 <parse+0x2a6>
     898: 8e 12 d1     	stx	$d112                   ; 0xd112 <__heap_start+0x6cae>
     89b: 8d 13 d1     	sta	$d113                   ; 0xd113 <__heap_start+0x6caf>
     89e: 9c 00 d1     	stz	$d100                   ; 0xd100 <__heap_start+0x6c9c>
     8a1: 9c 08 d1     	stz	$d108                   ; 0xd108 <__heap_start+0x6ca4>
     8a4: 9c 10 d1     	stz	$d110                   ; 0xd110 <__heap_start+0x6cac>
     8a7: a2 10        	ldx	#$10
     8a9: 8e 00 d2     	stx	$d200                   ; 0xd200 <__heap_start+0x6d9c>
     8ac: 8e 0c d2     	stx	$d20c                   ; 0xd20c <__heap_start+0x6da8>
     8af: 8e 18 d2     	stx	$d218                   ; 0xd218 <__heap_start+0x6db4>
     8b2: a0 d9        	ldy	#$d9
     8b4: a2 40        	ldx	#$40
     8b6: 64 12        	stz	$12                     ; 0x2012 <parse+0x2a5>
     8b8: 84 13        	sty	$13                     ; 0x2013 <parse+0x2a6>
     8ba: a9 00        	lda	#$0
     8bc: 92 12        	sta	($12)                   ; 0x2012 <parse+0x2a5>
     8be: ca           	dex
     8bf: 18           	clc
     8c0: a5 12        	lda	$12                     ; 0x2012 <parse+0x2a5>
     8c2: 69 08        	adc	#$8
     8c4: 85 12        	sta	$12                     ; 0x2012 <parse+0x2a5>
     8c6: 98           	tya
     8c7: 69 00        	adc	#$0
     8c9: a8           	tay
     8ca: 8a           	txa
     8cb: d0 eb        	bne	$8b8 <main+0x35f>
     8cd: 18           	clc
     8ce: a5 10        	lda	$10                     ; 0x2010 <parse+0x2a3>
     8d0: 69 58        	adc	#$58
     8d2: 85 26        	sta	$26                     ; 0x2026 <parse+0x2b9>
     8d4: a5 11        	lda	$11                     ; 0x2011 <parse+0x2a4>
     8d6: 69 00        	adc	#$0
     8d8: 85 27        	sta	$27                     ; 0x2027 <parse+0x2ba>
     8da: a6 26        	ldx	$26                     ; 0x2026 <parse+0x2b9>
     8dc: 86 fb        	stx	$fb                     ; 0x20fb <parse+0x38e>
     8de: 85 fc        	sta	$fc                     ; 0x20fc <parse+0x38f>
     8e0: a2 08        	ldx	#$8
     8e2: 86 fd        	stx	$fd                     ; 0x20fd <parse+0x390>
     8e4: 18           	clc
     8e5: a5 10        	lda	$10                     ; 0x2010 <parse+0x2a3>
     8e7: 69 24        	adc	#$24
     8e9: 85 12        	sta	$12                     ; 0x2012 <parse+0x2a5>
     8eb: a5 11        	lda	$11                     ; 0x2011 <parse+0x2a4>
     8ed: 69 00        	adc	#$0
     8ef: 85 13        	sta	$13                     ; 0x2013 <parse+0x2a6>
     8f1: a2 34        	ldx	#$34
     8f3: 86 14        	stx	$14                     ; 0x2014 <parse+0x2a7>
     8f5: a2 00        	ldx	#$0
     8f7: 86 15        	stx	$15                     ; 0x2015 <parse+0x2a8>
     8f9: a0 06        	ldy	#$6
     8fb: 20 dc ff     	jsr	$ffdc <__heap_start+0x9b78>
     8fe: 92 12        	sta	($12)                   ; 0x2012 <parse+0x2a5>
     900: a9 00        	lda	#$0
     902: 6a           	ror
     903: 85 14        	sta	$14                     ; 0x2014 <parse+0x2a7>
     905: b1 26        	lda	($26),y                 ; 0x2026 <parse+0x2b9>
     907: 85 12        	sta	$12                     ; 0x2012 <parse+0x2a5>
     909: c8           	iny
     90a: b1 26        	lda	($26),y                 ; 0x2026 <parse+0x2b9>
     90c: a6 12        	ldx	$12                     ; 0x2012 <parse+0x2a5>
     90e: 8e 00 de     	stx	$de00                   ; 0xde00 <__heap_start+0x799c>
     911: 9c 01 de     	stz	$de01                   ; 0xde01 <__heap_start+0x799d>
     914: 8d 02 de     	sta	$de02                   ; 0xde02 <__heap_start+0x799e>
     917: 9c 03 de     	stz	$de03                   ; 0xde03 <__heap_start+0x799f>
     91a: ae 10 de     	ldx	$de10                   ; 0xde10 <__heap_start+0x79ac>
     91d: ac 11 de     	ldy	$de11                   ; 0xde11 <__heap_start+0x79ad>
     920: ad 12 de     	lda	$de12                   ; 0xde12 <__heap_start+0x79ae>
     923: ad 13 de     	lda	$de13                   ; 0xde13 <__heap_start+0x79af>
     926: 8e a4 d6     	stx	$d6a4                   ; 0xd6a4 <__heap_start+0x7240>
     929: 8c a5 d6     	sty	$d6a5                   ; 0xd6a5 <__heap_start+0x7241>
     92c: a2 03        	ldx	#$3
     92e: 8e a6 d6     	stx	$d6a6                   ; 0xd6a6 <__heap_start+0x7242>
     931: 64 01        	stz	$1                      ; 0x2001 <parse+0x294>
     933: a2 0f        	ldx	#$f
     935: 8e 00 d0     	stx	$d000                   ; 0xd000 <__heap_start+0x6b9c>
     938: a2 14        	ldx	#$14
     93a: 8e 01 d0     	stx	$d001                   ; 0xd001 <__heap_start+0x6b9d>
     93d: 18           	clc
     93e: a5 10        	lda	$10                     ; 0x2010 <parse+0x2a3>
     940: 69 24        	adc	#$24
     942: a8           	tay
     943: a5 11        	lda	$11                     ; 0x2011 <parse+0x2a4>
     945: 69 00        	adc	#$0
     947: aa           	tax
     948: 84 24        	sty	$24                     ; 0x2024 <parse+0x2b7>
     94a: 84 12        	sty	$12                     ; 0x2012 <parse+0x2a5>
     94c: 85 25        	sta	$25                     ; 0x2025 <parse+0x2b8>
     94e: a0 22        	ldy	#$22
     950: a9 00        	lda	#$0
     952: 91 24        	sta	($24),y                 ; 0x2024 <parse+0x2b7>
     954: 18           	clc
     955: a5 12        	lda	$12                     ; 0x2012 <parse+0x2a5>
     957: 69 22        	adc	#$22
     959: 85 12        	sta	$12                     ; 0x2012 <parse+0x2a5>
     95b: 8a           	txa
     95c: 69 00        	adc	#$0
     95e: 85 13        	sta	$13                     ; 0x2013 <parse+0x2a6>
     960: 18           	clc
     961: a5 10        	lda	$10                     ; 0x2010 <parse+0x2a3>
     963: 69 24        	adc	#$24
     965: 85 2a        	sta	$2a                     ; 0x202a <parse+0x2bd>
     967: a5 11        	lda	$11                     ; 0x2011 <parse+0x2a4>
     969: 69 00        	adc	#$0
     96b: 85 2b        	sta	$2b                     ; 0x202b <parse+0x2be>
     96d: 18           	clc
     96e: a5 10        	lda	$10                     ; 0x2010 <parse+0x2a3>
     970: 69 24        	adc	#$24
     972: 91 10        	sta	($10),y                 ; 0x2010 <parse+0x2a3>
     974: a5 11        	lda	$11                     ; 0x2011 <parse+0x2a4>
     976: 69 00        	adc	#$0
     978: c8           	iny
     979: 91 10        	sta	($10),y                 ; 0x2010 <parse+0x2a3>
     97b: 18           	clc
     97c: a5 10        	lda	$10                     ; 0x2010 <parse+0x2a3>
     97e: 69 24        	adc	#$24
     980: a0 20        	ldy	#$20
     982: 91 10        	sta	($10),y                 ; 0x2010 <parse+0x2a3>
     984: a5 11        	lda	$11                     ; 0x2011 <parse+0x2a4>
     986: 69 00        	adc	#$0
     988: 88           	dey
     989: 91 10        	sta	($10),y                 ; 0x2010 <parse+0x2a3>
     98b: 18           	clc
     98c: a5 10        	lda	$10                     ; 0x2010 <parse+0x2a3>
     98e: 69 24        	adc	#$24
     990: a0 1d        	ldy	#$1d
     992: 91 10        	sta	($10),y                 ; 0x2010 <parse+0x2a3>
     994: a5 11        	lda	$11                     ; 0x2011 <parse+0x2a4>
     996: 69 00        	adc	#$0
     998: 88           	dey
     999: 91 10        	sta	($10),y                 ; 0x2010 <parse+0x2a3>
     99b: 18           	clc
     99c: a5 10        	lda	$10                     ; 0x2010 <parse+0x2a3>
     99e: 69 24        	adc	#$24
     9a0: 85 28        	sta	$28                     ; 0x2028 <parse+0x2bb>
     9a2: a5 11        	lda	$11                     ; 0x2011 <parse+0x2a4>
     9a4: 69 00        	adc	#$0
     9a6: 85 29        	sta	$29                     ; 0x2029 <parse+0x2bc>
     9a8: 18           	clc
     9a9: a5 10        	lda	$10                     ; 0x2010 <parse+0x2a3>
     9ab: 69 24        	adc	#$24
     9ad: 88           	dey
     9ae: 91 10        	sta	($10),y                 ; 0x2010 <parse+0x2a3>
     9b0: a5 11        	lda	$11                     ; 0x2011 <parse+0x2a4>
     9b2: 69 00        	adc	#$0
     9b4: 88           	dey
     9b5: 91 10        	sta	($10),y                 ; 0x2010 <parse+0x2a3>
     9b7: 18           	clc
     9b8: a5 10        	lda	$10                     ; 0x2010 <parse+0x2a3>
     9ba: 69 24        	adc	#$24
     9bc: a0 18        	ldy	#$18
     9be: 91 10        	sta	($10),y                 ; 0x2010 <parse+0x2a3>
     9c0: a5 11        	lda	$11                     ; 0x2011 <parse+0x2a4>
     9c2: 69 00        	adc	#$0
     9c4: a0 16        	ldy	#$16
     9c6: 91 10        	sta	($10),y                 ; 0x2010 <parse+0x2a3>
     9c8: 18           	clc
     9c9: a5 10        	lda	$10                     ; 0x2010 <parse+0x2a3>
     9cb: 69 24        	adc	#$24
     9cd: 88           	dey
     9ce: 91 10        	sta	($10),y                 ; 0x2010 <parse+0x2a3>
     9d0: a5 11        	lda	$11                     ; 0x2011 <parse+0x2a4>
     9d2: 69 00        	adc	#$0
     9d4: 88           	dey
     9d5: 91 10        	sta	($10),y                 ; 0x2010 <parse+0x2a3>
     9d7: 18           	clc
     9d8: a5 10        	lda	$10                     ; 0x2010 <parse+0x2a3>
     9da: 69 24        	adc	#$24
     9dc: 85 2c        	sta	$2c                     ; 0x202c <parse+0x2bf>
     9de: a5 11        	lda	$11                     ; 0x2011 <parse+0x2a4>
     9e0: 69 00        	adc	#$0
     9e2: 85 2d        	sta	$2d                     ; 0x202d <parse+0x2c0>
     9e4: a0 01        	ldy	#$1
     9e6: a9 00        	lda	#$0
     9e8: 91 12        	sta	($12),y                 ; 0x2012 <parse+0x2a5>
     9ea: c8           	iny
     9eb: 91 12        	sta	($12),y                 ; 0x2012 <parse+0x2a5>
     9ed: c8           	iny
     9ee: 91 12        	sta	($12),y                 ; 0x2012 <parse+0x2a5>
     9f0: aa           	tax
     9f1: 18           	clc
     9f2: a5 10        	lda	$10                     ; 0x2010 <parse+0x2a3>
     9f4: 69 24        	adc	#$24
     9f6: 85 2e        	sta	$2e                     ; 0x202e <parse+0x2c1>
     9f8: a5 11        	lda	$11                     ; 0x2011 <parse+0x2a4>
     9fa: 69 00        	adc	#$0
     9fc: 85 2f        	sta	$2f                     ; 0x202f <parse+0x2c2>
     9fe: a9 40        	lda	#$40
     a00: 20 5e 46     	jsr	$465e <malloc>
     a03: a5 2a        	lda	$2a                     ; 0x202a <parse+0x2bd>
     a05: 18           	clc
     a06: 69 30        	adc	#$30
     a08: 85 14        	sta	$14                     ; 0x2014 <parse+0x2a7>
     a0a: a5 2b        	lda	$2b                     ; 0x202b <parse+0x2be>
     a0c: 69 00        	adc	#$0
     a0e: 85 15        	sta	$15                     ; 0x2015 <parse+0x2a8>
     a10: a0 08        	ldy	#$8
     a12: a9 00        	lda	#$0
     a14: 91 24        	sta	($24),y                 ; 0x2024 <parse+0x2b7>
     a16: a0 0a        	ldy	#$a
     a18: 91 24        	sta	($24),y                 ; 0x2024 <parse+0x2b7>
     a1a: a9 30        	lda	#$30
     a1c: a0 0c        	ldy	#$c
     a1e: 91 24        	sta	($24),y                 ; 0x2024 <parse+0x2b7>
     a20: a0 10        	ldy	#$10
     a22: a9 00        	lda	#$0
     a24: 91 24        	sta	($24),y                 ; 0x2024 <parse+0x2b7>
     a26: a9 43        	lda	#$43
     a28: a0 14        	ldy	#$14
     a2a: 91 24        	sta	($24),y                 ; 0x2024 <parse+0x2b7>
     a2c: 18           	clc
     a2d: a5 28        	lda	$28                     ; 0x2028 <parse+0x2bb>
     a2f: 69 14        	adc	#$14
     a31: 85 16        	sta	$16                     ; 0x2016 <parse+0x2a9>
     a33: a5 29        	lda	$29                     ; 0x2029 <parse+0x2bc>
     a35: 69 00        	adc	#$0
     a37: 85 17        	sta	$17                     ; 0x2017 <parse+0x2aa>
     a39: a9 71        	lda	#$71
     a3b: a0 04        	ldy	#$4
     a3d: 91 16        	sta	($16),y                 ; 0x2016 <parse+0x2a9>
     a3f: a9 2a        	lda	#$2a
     a41: c8           	iny
     a42: 91 16        	sta	($16),y                 ; 0x2016 <parse+0x2a9>
     a44: a5 12        	lda	$12                     ; 0x2012 <parse+0x2a5>
     a46: c8           	iny
     a47: 91 24        	sta	($24),y                 ; 0x2024 <parse+0x2b7>
     a49: a9 39        	lda	#$39
     a4b: 91 16        	sta	($16),y                 ; 0x2016 <parse+0x2a9>
     a4d: c8           	iny
     a4e: a9 40        	lda	#$40
     a50: 91 16        	sta	($16),y                 ; 0x2016 <parse+0x2a9>
     a52: a9 04        	lda	#$4
     a54: a0 1c        	ldy	#$1c
     a56: 91 24        	sta	($24),y                 ; 0x2024 <parse+0x2b7>
     a58: a9 02        	lda	#$2
     a5a: c8           	iny
     a5b: 91 24        	sta	($24),y                 ; 0x2024 <parse+0x2b7>
     a5d: a9 18        	lda	#$18
     a5f: c8           	iny
     a60: 91 24        	sta	($24),y                 ; 0x2024 <parse+0x2b7>
     a62: c8           	iny
     a63: a9 08        	lda	#$8
     a65: 91 24        	sta	($24),y                 ; 0x2024 <parse+0x2b7>
     a67: a0 28        	ldy	#$28
     a69: a9 00        	lda	#$0
     a6b: 91 24        	sta	($24),y                 ; 0x2024 <parse+0x2b7>
     a6d: a0 26        	ldy	#$26
     a6f: 91 24        	sta	($24),y                 ; 0x2024 <parse+0x2b7>
     a71: a0 2c        	ldy	#$2c
     a73: 91 24        	sta	($24),y                 ; 0x2024 <parse+0x2b7>
     a75: a0 30        	ldy	#$30
     a77: 91 24        	sta	($24),y                 ; 0x2024 <parse+0x2b7>
     a79: 18           	clc
     a7a: a5 2e        	lda	$2e                     ; 0x202e <parse+0x2c1>
     a7c: 69 06        	adc	#$6
     a7e: 85 18        	sta	$18                     ; 0x2018 <parse+0x2ab>
     a80: a5 2f        	lda	$2f                     ; 0x202f <parse+0x2c2>
     a82: 69 00        	adc	#$0
     a84: 85 19        	sta	$19                     ; 0x2019 <parse+0x2ac>
     a86: a5 13        	lda	$13                     ; 0x2013 <parse+0x2a6>
     a88: a0 01        	ldy	#$1
     a8a: 91 18        	sta	($18),y                 ; 0x2018 <parse+0x2ab>
     a8c: 18           	clc
     a8d: a5 2c        	lda	$2c                     ; 0x202c <parse+0x2bf>
     a8f: 69 08        	adc	#$8
     a91: 85 1a        	sta	$1a                     ; 0x201a <parse+0x2ad>
     a93: a5 2d        	lda	$2d                     ; 0x202d <parse+0x2c0>
     a95: 69 00        	adc	#$0
     a97: 85 1b        	sta	$1b                     ; 0x201b <parse+0x2ae>
     a99: 18           	clc
     a9a: 5a           	phy
     a9b: a0 15        	ldy	#$15
     a9d: b1 10        	lda	($10),y                 ; 0x2010 <parse+0x2a3>
     a9f: 69 0a        	adc	#$a
     aa1: 85 1c        	sta	$1c                     ; 0x201c <parse+0x2af>
     aa3: 88           	dey
     aa4: b1 10        	lda	($10),y                 ; 0x2010 <parse+0x2a3>
     aa6: 69 00        	adc	#$0
     aa8: 85 1d        	sta	$1d                     ; 0x201d <parse+0x2b0>
     aaa: 18           	clc
     aab: a0 18        	ldy	#$18
     aad: b1 10        	lda	($10),y                 ; 0x2010 <parse+0x2a3>
     aaf: 69 0c        	adc	#$c
     ab1: 85 12        	sta	$12                     ; 0x2012 <parse+0x2a5>
     ab3: a0 16        	ldy	#$16
     ab5: b1 10        	lda	($10),y                 ; 0x2010 <parse+0x2a3>
     ab7: 69 00        	adc	#$0
     ab9: 85 13        	sta	$13                     ; 0x2013 <parse+0x2a6>
     abb: 18           	clc
     abc: a0 1b        	ldy	#$1b
     abe: b1 10        	lda	($10),y                 ; 0x2010 <parse+0x2a3>
     ac0: 69 10        	adc	#$10
     ac2: 85 18        	sta	$18                     ; 0x2018 <parse+0x2ab>
     ac4: 88           	dey
     ac5: b1 10        	lda	($10),y                 ; 0x2010 <parse+0x2a3>
     ac7: 7a           	ply
     ac8: 69 00        	adc	#$0
     aca: 85 19        	sta	$19                     ; 0x2019 <parse+0x2ac>
     acc: a9 ad        	lda	#$ad
     ace: 91 16        	sta	($16),y                 ; 0x2016 <parse+0x2a9>
     ad0: 18           	clc
     ad1: 5a           	phy
     ad2: a0 1d        	ldy	#$1d
     ad4: b1 10        	lda	($10),y                 ; 0x2010 <parse+0x2a3>
     ad6: 69 28        	adc	#$28
     ad8: 85 1e        	sta	$1e                     ; 0x201e <parse+0x2b1>
     ada: 88           	dey
     adb: b1 10        	lda	($10),y                 ; 0x2010 <parse+0x2a3>
     add: 69 00        	adc	#$0
     adf: 85 1f        	sta	$1f                     ; 0x201f <parse+0x2b2>
     ae1: 18           	clc
     ae2: a0 20        	ldy	#$20
     ae4: b1 10        	lda	($10),y                 ; 0x2010 <parse+0x2a3>
     ae6: 69 26        	adc	#$26
     ae8: 85 22        	sta	$22                     ; 0x2022 <parse+0x2b5>
     aea: 88           	dey
     aeb: b1 10        	lda	($10),y                 ; 0x2010 <parse+0x2a3>
     aed: 69 00        	adc	#$0
     aef: 85 23        	sta	$23                     ; 0x2023 <parse+0x2b6>
     af1: 18           	clc
     af2: a0 22        	ldy	#$22
     af4: b1 10        	lda	($10),y                 ; 0x2010 <parse+0x2a3>
     af6: 69 2c        	adc	#$2c
     af8: 85 24        	sta	$24                     ; 0x2024 <parse+0x2b7>
     afa: c8           	iny
     afb: b1 10        	lda	($10),y                 ; 0x2010 <parse+0x2a3>
     afd: 7a           	ply
     afe: 69 00        	adc	#$0
     b00: 85 25        	sta	$25                     ; 0x2025 <parse+0x2b8>
     b02: a9 00        	lda	#$0
     b04: 91 1a        	sta	($1a),y                 ; 0x201a <parse+0x2ad>
     b06: 91 1c        	sta	($1c),y                 ; 0x201c <parse+0x2af>
     b08: 91 12        	sta	($12),y                 ; 0x2012 <parse+0x2a5>
     b0a: 91 18        	sta	($18),y                 ; 0x2018 <parse+0x2ab>
     b0c: 91 1e        	sta	($1e),y                 ; 0x201e <parse+0x2b1>
     b0e: 91 22        	sta	($22),y                 ; 0x2022 <parse+0x2b5>
     b10: 91 24        	sta	($24),y                 ; 0x2024 <parse+0x2b7>
     b12: 91 14        	sta	($14),y                 ; 0x2014 <parse+0x2a7>
     b14: a0 02        	ldy	#$2
     b16: 91 12        	sta	($12),y                 ; 0x2012 <parse+0x2a5>
     b18: 91 18        	sta	($18),y                 ; 0x2018 <parse+0x2ab>
     b1a: a9 69        	lda	#$69
     b1c: 91 16        	sta	($16),y                 ; 0x2016 <parse+0x2a9>
     b1e: a9 04        	lda	#$4
     b20: 91 24        	sta	($24),y                 ; 0x2024 <parse+0x2b7>
     b22: 1a           	inc
     b23: 91 14        	sta	($14),y                 ; 0x2014 <parse+0x2a7>
     b25: c8           	iny
     b26: a9 00        	lda	#$0
     b28: 91 12        	sta	($12),y                 ; 0x2012 <parse+0x2a5>
     b2a: 91 18        	sta	($18),y                 ; 0x2018 <parse+0x2ab>
     b2c: a9 de        	lda	#$de
     b2e: 91 16        	sta	($16),y                 ; 0x2016 <parse+0x2a9>
     b30: a9 00        	lda	#$0
     b32: 91 24        	sta	($24),y                 ; 0x2024 <parse+0x2b7>
     b34: 91 14        	sta	($14),y                 ; 0x2014 <parse+0x2a7>
     b36: a2 c0        	ldx	#$c0
     b38: 8e a1 dd     	stx	$dda1                   ; 0xdda1 <__heap_start+0x793d>
     b3b: 9c a1 dd     	stz	$dda1                   ; 0xdda1 <__heap_start+0x793d>
     b3e: e8           	inx
     b3f: e0 d0        	cpx	#$d0
     b41: d0 f5        	bne	$b38 <main+0x5df>
     b43: a2 ff        	ldx	#$ff
     b45: 8e a1 dd     	stx	$dda1                   ; 0xdda1 <__heap_start+0x793d>
     b48: 8e a1 dd     	stx	$dda1                   ; 0xdda1 <__heap_start+0x793d>
     b4b: a2 bb        	ldx	#$bb
     b4d: 86 12        	stx	$12                     ; 0x2012 <parse+0x2a5>
     b4f: a2 63        	ldx	#$63
     b51: 86 13        	stx	$13                     ; 0x2013 <parse+0x2a6>
     b53: 20 f2 1a     	jsr	$1af2 <fileOpen>
     b56: a6 12        	ldx	$12                     ; 0x2012 <parse+0x2a5>
     b58: 86 28        	stx	$28                     ; 0x2028 <parse+0x2bb>
     b5a: a6 13        	ldx	$13                     ; 0x2013 <parse+0x2a6>
     b5c: 86 29        	stx	$29                     ; 0x2029 <parse+0x2bc>
     b5e: 64 35        	stz	$35                     ; 0x2035 <parse+0x2c8>
     b60: 18           	clc
     b61: a5 10        	lda	$10                     ; 0x2010 <parse+0x2a3>
     b63: 69 60        	adc	#$60
     b65: 85 24        	sta	$24                     ; 0x2024 <parse+0x2b7>
     b67: a5 11        	lda	$11                     ; 0x2011 <parse+0x2a4>
     b69: 69 01        	adc	#$1
     b6b: 85 25        	sta	$25                     ; 0x2025 <parse+0x2b8>
     b6d: a2 34        	ldx	#$34
     b6f: 86 14        	stx	$14                     ; 0x2014 <parse+0x2a7>
     b71: a2 00        	ldx	#$0
     b73: 86 15        	stx	$15                     ; 0x2015 <parse+0x2a8>
     b75: a2 00        	ldx	#$0
     b77: 86 12        	stx	$12                     ; 0x2012 <parse+0x2a5>
     b79: a2 00        	ldx	#$0
     b7b: 86 13        	stx	$13                     ; 0x2013 <parse+0x2a6>
     b7d: a6 29        	ldx	$29                     ; 0x2029 <parse+0x2bc>
     b7f: 20 00 ff     	jsr	$ff00 <__heap_start+0x9a9c>
     b82: 92 24        	sta	($24)                   ; 0x2024 <parse+0x2b7>
     b84: a9 00        	lda	#$0
     b86: 6a           	ror
     b87: 85 14        	sta	$14                     ; 0x2014 <parse+0x2a7>
     b89: e4 13        	cpx	$13                     ; 0x2013 <parse+0x2a6>
     b8b: d0 1f        	bne	$bac <main+0x653>
     b8d: a6 28        	ldx	$28                     ; 0x2028 <parse+0x2bb>
     b8f: e4 12        	cpx	$12                     ; 0x2012 <parse+0x2a5>
     b91: d0 19        	bne	$bac <main+0x653>
     b93: a2 30        	ldx	#$30
     b95: 86 12        	stx	$12                     ; 0x2012 <parse+0x2a5>
     b97: a2 64        	ldx	#$64
     b99: 86 13        	stx	$13                     ; 0x2013 <parse+0x2a6>
     b9b: 20 8a 38     	jsr	$388a <printf>
     b9e: a2 1b        	ldx	#$1b
     ba0: 86 12        	stx	$12                     ; 0x2012 <parse+0x2a5>
     ba2: a2 64        	ldx	#$64
     ba4: 86 13        	stx	$13                     ; 0x2013 <parse+0x2a6>
     ba6: 20 8a 38     	jsr	$388a <printf>
     ba9: 4c 81 18     	jmp	$1881 <main+0x1328>
     bac: 64 2a        	stz	$2a                     ; 0x202a <parse+0x2bd>
     bae: 64 2b        	stz	$2b                     ; 0x202b <parse+0x2be>
     bb0: 64 2c        	stz	$2c                     ; 0x202c <parse+0x2bf>
     bb2: a9 00        	lda	#$0
     bb4: 85 2d        	sta	$2d                     ; 0x202d <parse+0x2c0>
     bb6: a6 26        	ldx	$26                     ; 0x2026 <parse+0x2b9>
     bb8: 86 12        	stx	$12                     ; 0x2012 <parse+0x2a5>
     bba: a6 27        	ldx	$27                     ; 0x2027 <parse+0x2ba>
     bbc: 86 13        	stx	$13                     ; 0x2013 <parse+0x2a6>
     bbe: a6 28        	ldx	$28                     ; 0x2028 <parse+0x2bb>
     bc0: 86 14        	stx	$14                     ; 0x2014 <parse+0x2a7>
     bc2: a6 29        	ldx	$29                     ; 0x2029 <parse+0x2bc>
     bc4: 86 15        	stx	$15                     ; 0x2015 <parse+0x2a8>
     bc6: a2 00        	ldx	#$0
     bc8: a9 fa        	lda	#$fa
     bca: 20 22 1c     	jsr	$1c22 <fileRead>
     bcd: e0 00        	cpx	#$0
     bcf: d0 03        	bne	$bd4 <main+0x67b>
     bd1: 4c 3b 19     	jmp	$193b <main+0x13e2>
     bd4: 85 16        	sta	$16                     ; 0x2016 <parse+0x2a9>
     bd6: 64 12        	stz	$12                     ; 0x2012 <parse+0x2a5>
     bd8: 64 13        	stz	$13                     ; 0x2013 <parse+0x2a6>
     bda: a5 2a        	lda	$2a                     ; 0x202a <parse+0x2bd>
     bdc: 18           	clc
     bdd: 65 12        	adc	$12                     ; 0x2012 <parse+0x2a5>
     bdf: 85 14        	sta	$14                     ; 0x2014 <parse+0x2a7>
     be1: a5 2b        	lda	$2b                     ; 0x202b <parse+0x2be>
     be3: 65 13        	adc	$13                     ; 0x2013 <parse+0x2a6>
     be5: a8           	tay
     be6: a5 2c        	lda	$2c                     ; 0x202c <parse+0x2bf>
     be8: 69 00        	adc	#$0
     bea: 85 15        	sta	$15                     ; 0x2015 <parse+0x2a8>
     bec: 18           	clc
     bed: a5 14        	lda	$14                     ; 0x2014 <parse+0x2a7>
     bef: 69 00        	adc	#$0
     bf1: 85 17        	sta	$17                     ; 0x2017 <parse+0x2aa>
     bf3: 98           	tya
     bf4: 69 00        	adc	#$0
     bf6: 85 19        	sta	$19                     ; 0x2019 <parse+0x2ac>
     bf8: a5 15        	lda	$15                     ; 0x2015 <parse+0x2a8>
     bfa: 69 04        	adc	#$4
     bfc: a8           	tay
     bfd: 18           	clc
     bfe: a5 10        	lda	$10                     ; 0x2010 <parse+0x2a3>
     c00: 69 58        	adc	#$58
     c02: 48           	pha
     c03: a5 11        	lda	$11                     ; 0x2011 <parse+0x2a4>
     c05: 69 00        	adc	#$0
     c07: 85 14        	sta	$14                     ; 0x2014 <parse+0x2a7>
     c09: 68           	pla
     c0a: 18           	clc
     c0b: 65 12        	adc	$12                     ; 0x2012 <parse+0x2a5>
     c0d: 85 18        	sta	$18                     ; 0x2018 <parse+0x2ab>
     c0f: a5 14        	lda	$14                     ; 0x2014 <parse+0x2a7>
     c11: 65 13        	adc	$13                     ; 0x2013 <parse+0x2a6>
     c13: 5a           	phy
     c14: a4 18        	ldy	$18                     ; 0x2018 <parse+0x2ab>
     c16: 84 14        	sty	$14                     ; 0x2014 <parse+0x2a7>
     c18: 7a           	ply
     c19: 85 15        	sta	$15                     ; 0x2015 <parse+0x2a8>
     c1b: b2 14        	lda	($14)                   ; 0x2014 <parse+0x2a7>
     c1d: 85 18        	sta	$18                     ; 0x2018 <parse+0x2ab>
     c1f: a5 19        	lda	$19                     ; 0x2019 <parse+0x2ac>
     c21: 85 14        	sta	$14                     ; 0x2014 <parse+0x2a7>
     c23: 06 14        	asl	$14                     ; 0x2014 <parse+0x2a7>
     c25: 84 15        	sty	$15                     ; 0x2015 <parse+0x2a8>
     c27: 26 15        	rol	$15                     ; 0x2015 <parse+0x2a8>
     c29: 06 14        	asl	$14                     ; 0x2014 <parse+0x2a7>
     c2b: 26 15        	rol	$15                     ; 0x2015 <parse+0x2a8>
     c2d: 06 14        	asl	$14                     ; 0x2014 <parse+0x2a7>
     c2f: 26 15        	rol	$15                     ; 0x2015 <parse+0x2a8>
     c31: 86 14        	stx	$14                     ; 0x2014 <parse+0x2a7>
     c33: a6 15        	ldx	$15                     ; 0x2015 <parse+0x2a8>
     c35: a4 0f        	ldy	$f                      ; 0x200f <parse+0x2a2>
     c37: 78           	sei
     c38: 86 0f        	stx	$f                      ; 0x200f <parse+0x2a2>
     c3a: a6 14        	ldx	$14                     ; 0x2014 <parse+0x2a7>
     c3c: 48           	pha
     c3d: a5 17        	lda	$17                     ; 0x2017 <parse+0x2aa>
     c3f: 85 14        	sta	$14                     ; 0x2014 <parse+0x2a7>
     c41: 68           	pla
     c42: 09 e0        	ora	#$e0
     c44: 85 15        	sta	$15                     ; 0x2015 <parse+0x2a8>
     c46: a5 18        	lda	$18                     ; 0x2018 <parse+0x2ab>
     c48: 92 14        	sta	($14)                   ; 0x2014 <parse+0x2a7>
     c4a: 84 0f        	sty	$f                      ; 0x200f <parse+0x2a2>
     c4c: 58           	cli
     c4d: e6 12        	inc	$12                     ; 0x2012 <parse+0x2a5>
     c4f: d0 02        	bne	$c53 <main+0x6fa>
     c51: e6 13        	inc	$13                     ; 0x2013 <parse+0x2a6>
     c53: e4 13        	cpx	$13                     ; 0x2013 <parse+0x2a6>
     c55: f0 03        	beq	$c5a <main+0x701>
     c57: 4c da 0b     	jmp	$bda <main+0x681>
     c5a: a4 16        	ldy	$16                     ; 0x2016 <parse+0x2a9>
     c5c: c4 12        	cpy	$12                     ; 0x2012 <parse+0x2a5>
     c5e: f0 03        	beq	$c63 <main+0x70a>
     c60: 4c da 0b     	jmp	$bda <main+0x681>
     c63: a4 16        	ldy	$16                     ; 0x2016 <parse+0x2a9>
     c65: 84 12        	sty	$12                     ; 0x2012 <parse+0x2a5>
     c67: 18           	clc
     c68: a5 2a        	lda	$2a                     ; 0x202a <parse+0x2bd>
     c6a: 65 12        	adc	$12                     ; 0x2012 <parse+0x2a5>
     c6c: 85 2a        	sta	$2a                     ; 0x202a <parse+0x2bd>
     c6e: 86 12        	stx	$12                     ; 0x2012 <parse+0x2a5>
     c70: a5 2b        	lda	$2b                     ; 0x202b <parse+0x2be>
     c72: 65 12        	adc	$12                     ; 0x2012 <parse+0x2a5>
     c74: 85 2b        	sta	$2b                     ; 0x202b <parse+0x2be>
     c76: a5 2c        	lda	$2c                     ; 0x202c <parse+0x2bf>
     c78: 69 00        	adc	#$0
     c7a: 85 2c        	sta	$2c                     ; 0x202c <parse+0x2bf>
     c7c: a5 2d        	lda	$2d                     ; 0x202d <parse+0x2c0>
     c7e: 69 00        	adc	#$0
     c80: e0 00        	cpx	#$0
     c82: d0 07        	bne	$c8b <main+0x732>
     c84: c0 fa        	cpy	#$fa
     c86: 90 0a        	bcc	$c92 <main+0x739>
     c88: 4c b4 0b     	jmp	$bb4 <main+0x65b>
     c8b: e0 00        	cpx	#$0
     c8d: 90 03        	bcc	$c92 <main+0x739>
     c8f: 4c b4 0b     	jmp	$bb4 <main+0x65b>
     c92: a6 28        	ldx	$28                     ; 0x2028 <parse+0x2bb>
     c94: 86 12        	stx	$12                     ; 0x2012 <parse+0x2a5>
     c96: a6 29        	ldx	$29                     ; 0x2029 <parse+0x2bc>
     c98: 86 13        	stx	$13                     ; 0x2013 <parse+0x2a6>
     c9a: 20 44 19     	jsr	$1944 <fileClose>
     c9d: a2 14        	ldx	#$14
     c9f: 86 12        	stx	$12                     ; 0x2012 <parse+0x2a5>
     ca1: a2 63        	ldx	#$63
     ca3: 86 13        	stx	$13                     ; 0x2013 <parse+0x2a6>
     ca5: 20 25 46     	jsr	$4625 <puts>
     ca8: a2 34        	ldx	#$34
     caa: 86 12        	stx	$12                     ; 0x2012 <parse+0x2a5>
     cac: a2 00        	ldx	#$0
     cae: 86 13        	stx	$13                     ; 0x2013 <parse+0x2a6>
     cb0: 64 35        	stz	$35                     ; 0x2035 <parse+0x2c8>
     cb2: 20 00 ff     	jsr	$ff00 <__heap_start+0x9a9c>
     cb5: 92 26        	sta	($26)                   ; 0x2026 <parse+0x2b9>
     cb7: a9 00        	lda	#$0
     cb9: 6a           	ror
     cba: 85 12        	sta	$12                     ; 0x2012 <parse+0x2a5>
     cbc: a6 35        	ldx	$35                     ; 0x2035 <parse+0x2c8>
     cbe: e0 08        	cpx	#$8
     cc0: d0 ee        	bne	$cb0 <main+0x757>
     cc2: a6 39        	ldx	$39                     ; 0x2039 <parse+0x2cc>
     cc4: e0 20        	cpx	#$20
     cc6: f0 04        	beq	$ccc <main+0x773>
     cc8: e0 94        	cpx	#$94
     cca: d0 e4        	bne	$cb0 <main+0x757>
     ccc: a0 00        	ldy	#$0
     cce: a6 0f        	ldx	$f                      ; 0x200f <parse+0x2a2>
     cd0: 78           	sei
     cd1: a9 20        	lda	#$20
     cd3: 85 0f        	sta	$f                      ; 0x200f <parse+0x2a2>
     cd5: 84 12        	sty	$12                     ; 0x2012 <parse+0x2a5>
     cd7: a9 e0        	lda	#$e0
     cd9: 85 13        	sta	$13                     ; 0x2013 <parse+0x2a6>
     cdb: b2 12        	lda	($12)                   ; 0x2012 <parse+0x2a5>
     cdd: 86 0f        	stx	$f                      ; 0x200f <parse+0x2a2>
     cdf: 58           	cli
     ce0: 91 26        	sta	($26),y                 ; 0x2026 <parse+0x2b9>
     ce2: c8           	iny
     ce3: c0 40        	cpy	#$40
     ce5: d0 e7        	bne	$cce <main+0x775>
     ce7: b2 26        	lda	($26)                   ; 0x2026 <parse+0x2b9>
     ce9: d0 13        	bne	$cfe <main+0x7a5>
     ceb: 4c a5 18     	jmp	$18a5 <main+0x134c>
     cee: a0 01        	ldy	#$1
     cf0: b1 26        	lda	($26),y                 ; 0x2026 <parse+0x2b9>
     cf2: e6 26        	inc	$26                     ; 0x2026 <parse+0x2b9>
     cf4: d0 02        	bne	$cf8 <main+0x79f>
     cf6: e6 27        	inc	$27                     ; 0x2027 <parse+0x2ba>
     cf8: aa           	tax
     cf9: d0 03        	bne	$cfe <main+0x7a5>
     cfb: 4c a5 18     	jmp	$18a5 <main+0x134c>
     cfe: a2 4d        	ldx	#$4d
     d00: a0 00        	ldy	#$0
     d02: 86 12        	stx	$12                     ; 0x2012 <parse+0x2a5>
     d04: b1 26        	lda	($26),y                 ; 0x2026 <parse+0x2b9>
     d06: c5 12        	cmp	$12                     ; 0x2012 <parse+0x2a5>
     d08: d0 e4        	bne	$cee <main+0x795>
     d0a: be 94 63     	ldx	$6394,y                 ; 0x6394 <textColors+0xb8>
     d0d: c8           	iny
     d0e: 86 12        	stx	$12                     ; 0x2012 <parse+0x2a5>
     d10: c0 04        	cpy	#$4
     d12: d0 f0        	bne	$d04 <main+0x7ab>
     d14: 18           	clc
     d15: a5 10        	lda	$10                     ; 0x2010 <parse+0x2a3>
     d17: 69 58        	adc	#$58
     d19: 85 12        	sta	$12                     ; 0x2012 <parse+0x2a5>
     d1b: a5 11        	lda	$11                     ; 0x2011 <parse+0x2a4>
     d1d: 69 00        	adc	#$0
     d1f: 85 13        	sta	$13                     ; 0x2013 <parse+0x2a6>
     d21: a5 26        	lda	$26                     ; 0x2026 <parse+0x2b9>
     d23: 38           	sec
     d24: e5 12        	sbc	$12                     ; 0x2012 <parse+0x2a5>
     d26: aa           	tax
     d27: a5 27        	lda	$27                     ; 0x2027 <parse+0x2ba>
     d29: e5 13        	sbc	$13                     ; 0x2013 <parse+0x2a6>
     d2b: a0 23        	ldy	#$23
     d2d: 91 10        	sta	($10),y                 ; 0x2010 <parse+0x2a3>
     d2f: c9 ff        	cmp	#$ff
     d31: d0 07        	bne	$d3a <main+0x7e1>
     d33: e0 ff        	cpx	#$ff
     d35: d0 03        	bne	$d3a <main+0x7e1>
     d37: 4c a5 18     	jmp	$18a5 <main+0x134c>
     d3a: 86 2e        	stx	$2e                     ; 0x202e <parse+0x2c1>
     d3c: 8a           	txa
     d3d: 18           	clc
     d3e: 69 09        	adc	#$9
     d40: a8           	tay
     d41: 5a           	phy
     d42: a0 23        	ldy	#$23
     d44: b1 10        	lda	($10),y                 ; 0x2010 <parse+0x2a3>
     d46: 7a           	ply
     d47: 85 16        	sta	$16                     ; 0x2016 <parse+0x2a9>
     d49: 69 00        	adc	#$0
     d4b: 85 13        	sta	$13                     ; 0x2013 <parse+0x2a6>
     d4d: a9 00        	lda	#$0
     d4f: 69 04        	adc	#$4
     d51: a6 0f        	ldx	$f                      ; 0x200f <parse+0x2a2>
     d53: 78           	sei
     d54: 5a           	phy
     d55: a4 13        	ldy	$13                     ; 0x2013 <parse+0x2a6>
     d57: 84 12        	sty	$12                     ; 0x2012 <parse+0x2a5>
     d59: 7a           	ply
     d5a: 06 12        	asl	$12                     ; 0x2012 <parse+0x2a5>
     d5c: 2a           	rol
     d5d: 06 12        	asl	$12                     ; 0x2012 <parse+0x2a5>
     d5f: 2a           	rol
     d60: 06 12        	asl	$12                     ; 0x2012 <parse+0x2a5>
     d62: 2a           	rol
     d63: 85 0f        	sta	$f                      ; 0x200f <parse+0x2a2>
     d65: a5 13        	lda	$13                     ; 0x2013 <parse+0x2a6>
     d67: 09 e0        	ora	#$e0
     d69: 84 12        	sty	$12                     ; 0x2012 <parse+0x2a5>
     d6b: 85 13        	sta	$13                     ; 0x2013 <parse+0x2a6>
     d6d: b2 12        	lda	($12)                   ; 0x2012 <parse+0x2a5>
     d6f: 85 14        	sta	$14                     ; 0x2014 <parse+0x2a7>
     d71: 86 0f        	stx	$f                      ; 0x200f <parse+0x2a2>
     d73: 58           	cli
     d74: a5 2e        	lda	$2e                     ; 0x202e <parse+0x2c1>
     d76: 18           	clc
     d77: 69 08        	adc	#$8
     d79: a8           	tay
     d7a: a5 16        	lda	$16                     ; 0x2016 <parse+0x2a9>
     d7c: 69 00        	adc	#$0
     d7e: 85 13        	sta	$13                     ; 0x2013 <parse+0x2a6>
     d80: a9 00        	lda	#$0
     d82: 69 04        	adc	#$4
     d84: a6 13        	ldx	$13                     ; 0x2013 <parse+0x2a6>
     d86: 86 12        	stx	$12                     ; 0x2012 <parse+0x2a5>
     d88: 06 12        	asl	$12                     ; 0x2012 <parse+0x2a5>
     d8a: 2a           	rol
     d8b: 06 12        	asl	$12                     ; 0x2012 <parse+0x2a5>
     d8d: 2a           	rol
     d8e: 06 12        	asl	$12                     ; 0x2012 <parse+0x2a5>
     d90: 2a           	rol
     d91: a6 0f        	ldx	$f                      ; 0x200f <parse+0x2a2>
     d93: 78           	sei
     d94: 85 0f        	sta	$f                      ; 0x200f <parse+0x2a2>
     d96: a5 13        	lda	$13                     ; 0x2013 <parse+0x2a6>
     d98: 09 e0        	ora	#$e0
     d9a: 84 12        	sty	$12                     ; 0x2012 <parse+0x2a5>
     d9c: 85 13        	sta	$13                     ; 0x2013 <parse+0x2a6>
     d9e: b2 12        	lda	($12)                   ; 0x2012 <parse+0x2a5>
     da0: 85 15        	sta	$15                     ; 0x2015 <parse+0x2a8>
     da2: 86 0f        	stx	$f                      ; 0x200f <parse+0x2a2>
     da4: 18           	clc
     da5: a5 10        	lda	$10                     ; 0x2010 <parse+0x2a3>
     da7: 69 24        	adc	#$24
     da9: 48           	pha
     daa: a5 11        	lda	$11                     ; 0x2011 <parse+0x2a4>
     dac: 69 00        	adc	#$0
     dae: aa           	tax
     daf: 68           	pla
     db0: 85 28        	sta	$28                     ; 0x2028 <parse+0x2bb>
     db2: 86 29        	stx	$29                     ; 0x2029 <parse+0x2bc>
     db4: 18           	clc
     db5: 69 08        	adc	#$8
     db7: 85 12        	sta	$12                     ; 0x2012 <parse+0x2a5>
     db9: 8a           	txa
     dba: 69 00        	adc	#$0
     dbc: 58           	cli
     dbd: 85 13        	sta	$13                     ; 0x2013 <parse+0x2a6>
     dbf: a0 08        	ldy	#$8
     dc1: a5 14        	lda	$14                     ; 0x2014 <parse+0x2a7>
     dc3: 91 28        	sta	($28),y                 ; 0x2028 <parse+0x2bb>
     dc5: a5 15        	lda	$15                     ; 0x2015 <parse+0x2a8>
     dc7: a0 01        	ldy	#$1
     dc9: 91 12        	sta	($12),y                 ; 0x2012 <parse+0x2a5>
     dcb: a5 2e        	lda	$2e                     ; 0x202e <parse+0x2c1>
     dcd: 18           	clc
     dce: 69 0b        	adc	#$b
     dd0: a8           	tay
     dd1: a5 16        	lda	$16                     ; 0x2016 <parse+0x2a9>
     dd3: 69 00        	adc	#$0
     dd5: 85 13        	sta	$13                     ; 0x2013 <parse+0x2a6>
     dd7: a9 00        	lda	#$0
     dd9: 69 04        	adc	#$4
     ddb: a6 0f        	ldx	$f                      ; 0x200f <parse+0x2a2>
     ddd: 78           	sei
     dde: 5a           	phy
     ddf: a4 13        	ldy	$13                     ; 0x2013 <parse+0x2a6>
     de1: 84 12        	sty	$12                     ; 0x2012 <parse+0x2a5>
     de3: 7a           	ply
     de4: 06 12        	asl	$12                     ; 0x2012 <parse+0x2a5>
     de6: 2a           	rol
     de7: 06 12        	asl	$12                     ; 0x2012 <parse+0x2a5>
     de9: 2a           	rol
     dea: 06 12        	asl	$12                     ; 0x2012 <parse+0x2a5>
     dec: 2a           	rol
     ded: 85 0f        	sta	$f                      ; 0x200f <parse+0x2a2>
     def: a5 13        	lda	$13                     ; 0x2013 <parse+0x2a6>
     df1: 09 e0        	ora	#$e0
     df3: 84 12        	sty	$12                     ; 0x2012 <parse+0x2a5>
     df5: 85 13        	sta	$13                     ; 0x2013 <parse+0x2a6>
     df7: b2 12        	lda	($12)                   ; 0x2012 <parse+0x2a5>
     df9: 85 2b        	sta	$2b                     ; 0x202b <parse+0x2be>
     dfb: 86 0f        	stx	$f                      ; 0x200f <parse+0x2a2>
     dfd: 58           	cli
     dfe: a5 2e        	lda	$2e                     ; 0x202e <parse+0x2c1>
     e00: 18           	clc
     e01: 69 0a        	adc	#$a
     e03: a8           	tay
     e04: a5 16        	lda	$16                     ; 0x2016 <parse+0x2a9>
     e06: 69 00        	adc	#$0
     e08: 85 13        	sta	$13                     ; 0x2013 <parse+0x2a6>
     e0a: a9 00        	lda	#$0
     e0c: 69 04        	adc	#$4
     e0e: a6 13        	ldx	$13                     ; 0x2013 <parse+0x2a6>
     e10: 86 12        	stx	$12                     ; 0x2012 <parse+0x2a5>
     e12: 06 12        	asl	$12                     ; 0x2012 <parse+0x2a5>
     e14: 2a           	rol
     e15: 06 12        	asl	$12                     ; 0x2012 <parse+0x2a5>
     e17: 2a           	rol
     e18: 06 12        	asl	$12                     ; 0x2012 <parse+0x2a5>
     e1a: 2a           	rol
     e1b: a6 0f        	ldx	$f                      ; 0x200f <parse+0x2a2>
     e1d: 78           	sei
     e1e: 85 0f        	sta	$f                      ; 0x200f <parse+0x2a2>
     e20: 84 12        	sty	$12                     ; 0x2012 <parse+0x2a5>
     e22: 18           	clc
     e23: a5 10        	lda	$10                     ; 0x2010 <parse+0x2a3>
     e25: 69 24        	adc	#$24
     e27: a8           	tay
     e28: a5 11        	lda	$11                     ; 0x2011 <parse+0x2a4>
     e2a: 69 00        	adc	#$0
     e2c: 85 14        	sta	$14                     ; 0x2014 <parse+0x2a7>
     e2e: a5 13        	lda	$13                     ; 0x2013 <parse+0x2a6>
     e30: 09 e0        	ora	#$e0
     e32: 85 13        	sta	$13                     ; 0x2013 <parse+0x2a6>
     e34: b2 12        	lda	($12)                   ; 0x2012 <parse+0x2a5>
     e36: 85 2c        	sta	$2c                     ; 0x202c <parse+0x2bf>
     e38: 86 0f        	stx	$f                      ; 0x200f <parse+0x2a2>
     e3a: 58           	cli
     e3b: 18           	clc
     e3c: 98           	tya
     e3d: 69 0a        	adc	#$a
     e3f: 85 12        	sta	$12                     ; 0x2012 <parse+0x2a5>
     e41: a5 14        	lda	$14                     ; 0x2014 <parse+0x2a7>
     e43: 69 00        	adc	#$0
     e45: a0 0a        	ldy	#$a
     e47: 85 13        	sta	$13                     ; 0x2013 <parse+0x2a6>
     e49: a5 2b        	lda	$2b                     ; 0x202b <parse+0x2be>
     e4b: 91 28        	sta	($28),y                 ; 0x2028 <parse+0x2bb>
     e4d: a5 2e        	lda	$2e                     ; 0x202e <parse+0x2c1>
     e4f: 48           	pha
     e50: a0 1f        	ldy	#$1f
     e52: 91 10        	sta	($10),y                 ; 0x2010 <parse+0x2a3>
     e54: 68           	pla
     e55: 18           	clc
     e56: 69 0d        	adc	#$d
     e58: 85 15        	sta	$15                     ; 0x2015 <parse+0x2a8>
     e5a: a5 16        	lda	$16                     ; 0x2016 <parse+0x2a9>
     e5c: 69 00        	adc	#$0
     e5e: a8           	tay
     e5f: a9 00        	lda	#$0
     e61: 69 04        	adc	#$4
     e63: 84 14        	sty	$14                     ; 0x2014 <parse+0x2a7>
     e65: 84 17        	sty	$17                     ; 0x2017 <parse+0x2aa>
     e67: 06 14        	asl	$14                     ; 0x2014 <parse+0x2a7>
     e69: 2a           	rol
     e6a: 06 14        	asl	$14                     ; 0x2014 <parse+0x2a7>
     e6c: 2a           	rol
     e6d: 06 14        	asl	$14                     ; 0x2014 <parse+0x2a7>
     e6f: 2a           	rol
     e70: aa           	tax
     e71: a0 01        	ldy	#$1
     e73: a5 2c        	lda	$2c                     ; 0x202c <parse+0x2bf>
     e75: 91 12        	sta	($12),y                 ; 0x2012 <parse+0x2a5>
     e77: a4 0f        	ldy	$f                      ; 0x200f <parse+0x2a2>
     e79: 78           	sei
     e7a: 86 0f        	stx	$f                      ; 0x200f <parse+0x2a2>
     e7c: a5 17        	lda	$17                     ; 0x2017 <parse+0x2aa>
     e7e: 09 e0        	ora	#$e0
     e80: a6 15        	ldx	$15                     ; 0x2015 <parse+0x2a8>
     e82: 86 12        	stx	$12                     ; 0x2012 <parse+0x2a5>
     e84: 85 13        	sta	$13                     ; 0x2013 <parse+0x2a6>
     e86: b2 12        	lda	($12)                   ; 0x2012 <parse+0x2a5>
     e88: 85 14        	sta	$14                     ; 0x2014 <parse+0x2a7>
     e8a: 84 0f        	sty	$f                      ; 0x200f <parse+0x2a2>
     e8c: a5 2e        	lda	$2e                     ; 0x202e <parse+0x2c1>
     e8e: 18           	clc
     e8f: 69 0c        	adc	#$c
     e91: a8           	tay
     e92: a5 16        	lda	$16                     ; 0x2016 <parse+0x2a9>
     e94: 5a           	phy
     e95: a0 23        	ldy	#$23
     e97: 91 10        	sta	($10),y                 ; 0x2010 <parse+0x2a3>
     e99: 7a           	ply
     e9a: 69 00        	adc	#$0
     e9c: 85 13        	sta	$13                     ; 0x2013 <parse+0x2a6>
     e9e: a9 00        	lda	#$0
     ea0: 69 04        	adc	#$4
     ea2: a6 13        	ldx	$13                     ; 0x2013 <parse+0x2a6>
     ea4: 86 12        	stx	$12                     ; 0x2012 <parse+0x2a5>
     ea6: 06 12        	asl	$12                     ; 0x2012 <parse+0x2a5>
     ea8: 2a           	rol
     ea9: 06 12        	asl	$12                     ; 0x2012 <parse+0x2a5>
     eab: 2a           	rol
     eac: 06 12        	asl	$12                     ; 0x2012 <parse+0x2a5>
     eae: 2a           	rol
     eaf: 58           	cli
     eb0: a6 0f        	ldx	$f                      ; 0x200f <parse+0x2a2>
     eb2: 78           	sei
     eb3: 85 0f        	sta	$f                      ; 0x200f <parse+0x2a2>
     eb5: 84 12        	sty	$12                     ; 0x2012 <parse+0x2a5>
     eb7: a5 13        	lda	$13                     ; 0x2013 <parse+0x2a6>
     eb9: 09 e0        	ora	#$e0
     ebb: 85 13        	sta	$13                     ; 0x2013 <parse+0x2a6>
     ebd: b2 12        	lda	($12)                   ; 0x2012 <parse+0x2a5>
     ebf: 85 16        	sta	$16                     ; 0x2016 <parse+0x2a9>
     ec1: 86 0f        	stx	$f                      ; 0x200f <parse+0x2a2>
     ec3: 58           	cli
     ec4: a0 0c        	ldy	#$c
     ec6: a5 14        	lda	$14                     ; 0x2014 <parse+0x2a7>
     ec8: 91 28        	sta	($28),y                 ; 0x2028 <parse+0x2bb>
     eca: 18           	clc
     ecb: a5 10        	lda	$10                     ; 0x2010 <parse+0x2a3>
     ecd: 69 24        	adc	#$24
     ecf: 48           	pha
     ed0: a5 11        	lda	$11                     ; 0x2011 <parse+0x2a4>
     ed2: 69 00        	adc	#$0
     ed4: 85 12        	sta	$12                     ; 0x2012 <parse+0x2a5>
     ed6: 68           	pla
     ed7: 18           	clc
     ed8: 69 0c        	adc	#$c
     eda: aa           	tax
     edb: a5 12        	lda	$12                     ; 0x2012 <parse+0x2a5>
     edd: 69 00        	adc	#$0
     edf: 86 12        	stx	$12                     ; 0x2012 <parse+0x2a5>
     ee1: 85 13        	sta	$13                     ; 0x2013 <parse+0x2a6>
     ee3: a5 2b        	lda	$2b                     ; 0x202b <parse+0x2be>
     ee5: a0 22        	ldy	#$22
     ee7: 91 10        	sta	($10),y                 ; 0x2010 <parse+0x2a3>
     ee9: a5 2c        	lda	$2c                     ; 0x202c <parse+0x2bf>
     eeb: a0 20        	ldy	#$20
     eed: 91 10        	sta	($10),y                 ; 0x2010 <parse+0x2a3>
     eef: a0 01        	ldy	#$1
     ef1: a5 16        	lda	$16                     ; 0x2016 <parse+0x2a9>
     ef3: 91 12        	sta	($12),y                 ; 0x2012 <parse+0x2a5>
     ef5: a9 00        	lda	#$0
     ef7: a0 03        	ldy	#$3
     ef9: 91 12        	sta	($12),y                 ; 0x2012 <parse+0x2a5>
     efb: a6 2b        	ldx	$2b                     ; 0x202b <parse+0x2be>
     efd: 86 2a        	stx	$2a                     ; 0x202a <parse+0x2bd>
     eff: 06 2a        	asl	$2a                     ; 0x202a <parse+0x2bd>
     f01: a6 2c        	ldx	$2c                     ; 0x202c <parse+0x2bf>
     f03: 86 2d        	stx	$2d                     ; 0x202d <parse+0x2c0>
     f05: 26 2d        	rol	$2d                     ; 0x202d <parse+0x2c0>
     f07: a5 2a        	lda	$2a                     ; 0x202a <parse+0x2bd>
     f09: 0a           	asl
     f0a: a6 2d        	ldx	$2d                     ; 0x202d <parse+0x2c0>
     f0c: 86 14        	stx	$14                     ; 0x2014 <parse+0x2a7>
     f0e: 26 14        	rol	$14                     ; 0x2014 <parse+0x2a7>
     f10: 0a           	asl
     f11: a6 14        	ldx	$14                     ; 0x2014 <parse+0x2a7>
     f13: 86 15        	stx	$15                     ; 0x2015 <parse+0x2a8>
     f15: 26 15        	rol	$15                     ; 0x2015 <parse+0x2a8>
     f17: 38           	sec
     f18: e5 2b        	sbc	$2b                     ; 0x202b <parse+0x2be>
     f1a: 85 14        	sta	$14                     ; 0x2014 <parse+0x2a7>
     f1c: a5 15        	lda	$15                     ; 0x2015 <parse+0x2a8>
     f1e: e5 2c        	sbc	$2c                     ; 0x202c <parse+0x2bf>
     f20: aa           	tax
     f21: 18           	clc
     f22: a5 10        	lda	$10                     ; 0x2010 <parse+0x2a3>
     f24: 69 24        	adc	#$24
     f26: 85 26        	sta	$26                     ; 0x2026 <parse+0x2b9>
     f28: a5 11        	lda	$11                     ; 0x2011 <parse+0x2a4>
     f2a: 69 00        	adc	#$0
     f2c: 85 27        	sta	$27                     ; 0x2027 <parse+0x2ba>
     f2e: 88           	dey
     f2f: a9 00        	lda	#$0
     f31: 91 12        	sta	($12),y                 ; 0x2012 <parse+0x2a5>
     f33: a5 14        	lda	$14                     ; 0x2014 <parse+0x2a7>
     f35: 20 5e 46     	jsr	$465e <malloc>
     f38: a6 12        	ldx	$12                     ; 0x2012 <parse+0x2a5>
     f3a: 86 2e        	stx	$2e                     ; 0x202e <parse+0x2c1>
     f3c: a6 13        	ldx	$13                     ; 0x2013 <parse+0x2a6>
     f3e: 86 2f        	stx	$2f                     ; 0x202f <parse+0x2c2>
     f40: a6 2d        	ldx	$2d                     ; 0x202d <parse+0x2c0>
     f42: a5 2a        	lda	$2a                     ; 0x202a <parse+0x2bd>
     f44: 20 5e 46     	jsr	$465e <malloc>
     f47: a0 20        	ldy	#$20
     f49: 18           	clc
     f4a: a6 26        	ldx	$26                     ; 0x2026 <parse+0x2b9>
     f4c: 5a           	phy
     f4d: 88           	dey
     f4e: b1 10        	lda	($10),y                 ; 0x2010 <parse+0x2a3>
     f50: 7a           	ply
     f51: 85 26        	sta	$26                     ; 0x2026 <parse+0x2b9>
     f53: 8a           	txa
     f54: 69 20        	adc	#$20
     f56: 85 14        	sta	$14                     ; 0x2014 <parse+0x2a7>
     f58: a5 27        	lda	$27                     ; 0x2027 <parse+0x2ba>
     f5a: 69 00        	adc	#$0
     f5c: 85 15        	sta	$15                     ; 0x2015 <parse+0x2a8>
     f5e: a5 12        	lda	$12                     ; 0x2012 <parse+0x2a5>
     f60: 91 28        	sta	($28),y                 ; 0x2028 <parse+0x2bb>
     f62: a0 01        	ldy	#$1
     f64: a5 13        	lda	$13                     ; 0x2013 <parse+0x2a6>
     f66: 91 14        	sta	($14),y                 ; 0x2014 <parse+0x2a7>
     f68: a6 26        	ldx	$26                     ; 0x2026 <parse+0x2b9>
     f6a: 86 2a        	stx	$2a                     ; 0x202a <parse+0x2bd>
     f6c: a5 2c        	lda	$2c                     ; 0x202c <parse+0x2bf>
     f6e: d0 07        	bne	$f77 <main+0xa1e>
     f70: a5 2b        	lda	$2b                     ; 0x202b <parse+0x2be>
     f72: d0 03        	bne	$f77 <main+0xa1e>
     f74: 4c 09 19     	jmp	$1909 <main+0x13b0>
     f77: a6 2e        	ldx	$2e                     ; 0x202e <parse+0x2c1>
     f79: 86 28        	stx	$28                     ; 0x2028 <parse+0x2bb>
     f7b: a6 2f        	ldx	$2f                     ; 0x202f <parse+0x2c2>
     f7d: 86 29        	stx	$29                     ; 0x2029 <parse+0x2bc>
     f7f: a5 26        	lda	$26                     ; 0x2026 <parse+0x2b9>
     f81: 18           	clc
     f82: 69 0e        	adc	#$e
     f84: 85 15        	sta	$15                     ; 0x2015 <parse+0x2a8>
     f86: a0 23        	ldy	#$23
     f88: b1 10        	lda	($10),y                 ; 0x2010 <parse+0x2a3>
     f8a: 69 00        	adc	#$0
     f8c: 85 1b        	sta	$1b                     ; 0x201b <parse+0x2ae>
     f8e: a9 00        	lda	#$0
     f90: 69 00        	adc	#$0
     f92: 85 14        	sta	$14                     ; 0x2014 <parse+0x2a7>
     f94: a9 00        	lda	#$0
     f96: 69 00        	adc	#$0
     f98: 85 1c        	sta	$1c                     ; 0x201c <parse+0x2af>
     f9a: 18           	clc
     f9b: a5 10        	lda	$10                     ; 0x2010 <parse+0x2a3>
     f9d: 69 24        	adc	#$24
     f9f: aa           	tax
     fa0: a5 11        	lda	$11                     ; 0x2011 <parse+0x2a4>
     fa2: 69 00        	adc	#$0
     fa4: 85 17        	sta	$17                     ; 0x2017 <parse+0x2aa>
     fa6: 18           	clc
     fa7: 8a           	txa
     fa8: 69 2c        	adc	#$2c
     faa: 85 18        	sta	$18                     ; 0x2018 <parse+0x2ab>
     fac: a5 17        	lda	$17                     ; 0x2017 <parse+0x2aa>
     fae: 69 00        	adc	#$0
     fb0: 85 19        	sta	$19                     ; 0x2019 <parse+0x2ac>
     fb2: 86 2f        	stx	$2f                     ; 0x202f <parse+0x2c2>
     fb4: 86 16        	stx	$16                     ; 0x2016 <parse+0x2a9>
     fb6: a5 17        	lda	$17                     ; 0x2017 <parse+0x2aa>
     fb8: a0 1d        	ldy	#$1d
     fba: 91 10        	sta	($10),y                 ; 0x2010 <parse+0x2a3>
     fbc: a0 2c        	ldy	#$2c
     fbe: b1 16        	lda	($16),y                 ; 0x2016 <parse+0x2a9>
     fc0: 85 1d        	sta	$1d                     ; 0x201d <parse+0x2b0>
     fc2: a0 02        	ldy	#$2
     fc4: b1 18        	lda	($18),y                 ; 0x2018 <parse+0x2ab>
     fc6: 85 1e        	sta	$1e                     ; 0x201e <parse+0x2b1>
     fc8: a6 2b        	ldx	$2b                     ; 0x202b <parse+0x2be>
     fca: 86 16        	stx	$16                     ; 0x2016 <parse+0x2a9>
     fcc: a6 2c        	ldx	$2c                     ; 0x202c <parse+0x2bf>
     fce: 86 1a        	stx	$1a                     ; 0x201a <parse+0x2ad>
     fd0: 88           	dey
     fd1: b1 18        	lda	($18),y                 ; 0x2018 <parse+0x2ab>
     fd3: 85 1f        	sta	$1f                     ; 0x201f <parse+0x2b2>
     fd5: a6 15        	ldx	$15                     ; 0x2015 <parse+0x2a8>
     fd7: 86 22        	stx	$22                     ; 0x2022 <parse+0x2b5>
     fd9: a5 1d        	lda	$1d                     ; 0x201d <parse+0x2b0>
     fdb: 18           	clc
     fdc: 65 15        	adc	$15                     ; 0x2015 <parse+0x2a8>
     fde: 85 23        	sta	$23                     ; 0x2023 <parse+0x2b6>
     fe0: a6 1b        	ldx	$1b                     ; 0x201b <parse+0x2ae>
     fe2: 86 15        	stx	$15                     ; 0x2015 <parse+0x2a8>
     fe4: a5 1f        	lda	$1f                     ; 0x201f <parse+0x2b2>
     fe6: 65 15        	adc	$15                     ; 0x2015 <parse+0x2a8>
     fe8: 85 17        	sta	$17                     ; 0x2017 <parse+0x2aa>
     fea: a5 1e        	lda	$1e                     ; 0x201e <parse+0x2b1>
     fec: 65 14        	adc	$14                     ; 0x2014 <parse+0x2a7>
     fee: 85 2d        	sta	$2d                     ; 0x202d <parse+0x2c0>
     ff0: 18           	clc
     ff1: a5 23        	lda	$23                     ; 0x2023 <parse+0x2b6>
     ff3: 69 04        	adc	#$4
     ff5: 85 18        	sta	$18                     ; 0x2018 <parse+0x2ab>
     ff7: a5 17        	lda	$17                     ; 0x2017 <parse+0x2aa>
     ff9: 69 00        	adc	#$0
     ffb: 85 19        	sta	$19                     ; 0x2019 <parse+0x2ac>
     ffd: a5 2d        	lda	$2d                     ; 0x202d <parse+0x2c0>
     fff: 69 00        	adc	#$0
    1001: a6 19        	ldx	$19                     ; 0x2019 <parse+0x2ac>
    1003: 86 15        	stx	$15                     ; 0x2015 <parse+0x2a8>
    1005: 06 15        	asl	$15                     ; 0x2015 <parse+0x2a8>
    1007: 2a           	rol
    1008: 06 15        	asl	$15                     ; 0x2015 <parse+0x2a8>
    100a: 2a           	rol
    100b: 06 15        	asl	$15                     ; 0x2015 <parse+0x2a8>
    100d: 2a           	rol
    100e: aa           	tax
    100f: a9 00        	lda	#$0
    1011: 92 12        	sta	($12)                   ; 0x2012 <parse+0x2a5>
    1013: a0 01        	ldy	#$1
    1015: 91 12        	sta	($12),y                 ; 0x2012 <parse+0x2a5>
    1017: a4 0f        	ldy	$f                      ; 0x200f <parse+0x2a2>
    1019: 78           	sei
    101a: 86 0f        	stx	$f                      ; 0x200f <parse+0x2a2>
    101c: a5 19        	lda	$19                     ; 0x2019 <parse+0x2ac>
    101e: 09 e0        	ora	#$e0
    1020: 85 19        	sta	$19                     ; 0x2019 <parse+0x2ac>
    1022: b2 18        	lda	($18)                   ; 0x2018 <parse+0x2ab>
    1024: 84 0f        	sty	$f                      ; 0x200f <parse+0x2a2>
    1026: 18           	clc
    1027: a5 23        	lda	$23                     ; 0x2023 <parse+0x2b6>
    1029: 69 05        	adc	#$5
    102b: 85 18        	sta	$18                     ; 0x2018 <parse+0x2ab>
    102d: a5 17        	lda	$17                     ; 0x2017 <parse+0x2aa>
    102f: 69 00        	adc	#$0
    1031: a8           	tay
    1032: a5 2d        	lda	$2d                     ; 0x202d <parse+0x2c0>
    1034: 69 00        	adc	#$0
    1036: 84 15        	sty	$15                     ; 0x2015 <parse+0x2a8>
    1038: 06 15        	asl	$15                     ; 0x2015 <parse+0x2a8>
    103a: 2a           	rol
    103b: 06 15        	asl	$15                     ; 0x2015 <parse+0x2a8>
    103d: 2a           	rol
    103e: 06 15        	asl	$15                     ; 0x2015 <parse+0x2a8>
    1040: 2a           	rol
    1041: 58           	cli
    1042: a6 0f        	ldx	$f                      ; 0x200f <parse+0x2a2>
    1044: 78           	sei
    1045: 85 0f        	sta	$f                      ; 0x200f <parse+0x2a2>
    1047: 98           	tya
    1048: 09 e0        	ora	#$e0
    104a: 85 19        	sta	$19                     ; 0x2019 <parse+0x2ac>
    104c: b2 18        	lda	($18)                   ; 0x2018 <parse+0x2ab>
    104e: 85 2e        	sta	$2e                     ; 0x202e <parse+0x2c1>
    1050: 86 0f        	stx	$f                      ; 0x200f <parse+0x2a2>
    1052: 18           	clc
    1053: a5 23        	lda	$23                     ; 0x2023 <parse+0x2b6>
    1055: 69 06        	adc	#$6
    1057: 85 18        	sta	$18                     ; 0x2018 <parse+0x2ab>
    1059: a5 17        	lda	$17                     ; 0x2017 <parse+0x2aa>
    105b: 69 00        	adc	#$0
    105d: a8           	tay
    105e: a5 2d        	lda	$2d                     ; 0x202d <parse+0x2c0>
    1060: 69 00        	adc	#$0
    1062: 84 15        	sty	$15                     ; 0x2015 <parse+0x2a8>
    1064: 06 15        	asl	$15                     ; 0x2015 <parse+0x2a8>
    1066: 2a           	rol
    1067: 06 15        	asl	$15                     ; 0x2015 <parse+0x2a8>
    1069: 2a           	rol
    106a: 06 15        	asl	$15                     ; 0x2015 <parse+0x2a8>
    106c: 2a           	rol
    106d: 58           	cli
    106e: a6 0f        	ldx	$f                      ; 0x200f <parse+0x2a2>
    1070: 78           	sei
    1071: 85 0f        	sta	$f                      ; 0x200f <parse+0x2a2>
    1073: 98           	tya
    1074: 09 e0        	ora	#$e0
    1076: 85 19        	sta	$19                     ; 0x2019 <parse+0x2ac>
    1078: b2 18        	lda	($18)                   ; 0x2018 <parse+0x2ab>
    107a: 85 15        	sta	$15                     ; 0x2015 <parse+0x2a8>
    107c: 86 0f        	stx	$f                      ; 0x200f <parse+0x2a2>
    107e: 58           	cli
    107f: 18           	clc
    1080: a5 23        	lda	$23                     ; 0x2023 <parse+0x2b6>
    1082: 69 07        	adc	#$7
    1084: 85 18        	sta	$18                     ; 0x2018 <parse+0x2ab>
    1086: a5 17        	lda	$17                     ; 0x2017 <parse+0x2aa>
    1088: 69 00        	adc	#$0
    108a: a8           	tay
    108b: a5 2d        	lda	$2d                     ; 0x202d <parse+0x2c0>
    108d: 69 00        	adc	#$0
    108f: 85 17        	sta	$17                     ; 0x2017 <parse+0x2aa>
    1091: 98           	tya
    1092: 0a           	asl
    1093: 26 17        	rol	$17                     ; 0x2017 <parse+0x2aa>
    1095: 0a           	asl
    1096: 26 17        	rol	$17                     ; 0x2017 <parse+0x2aa>
    1098: 0a           	asl
    1099: a5 17        	lda	$17                     ; 0x2017 <parse+0x2aa>
    109b: 2a           	rol
    109c: a6 0f        	ldx	$f                      ; 0x200f <parse+0x2a2>
    109e: 78           	sei
    109f: 85 0f        	sta	$f                      ; 0x200f <parse+0x2a2>
    10a1: 98           	tya
    10a2: 09 e0        	ora	#$e0
    10a4: 85 19        	sta	$19                     ; 0x2019 <parse+0x2ac>
    10a6: b2 18        	lda	($18)                   ; 0x2018 <parse+0x2ab>
    10a8: 85 17        	sta	$17                     ; 0x2017 <parse+0x2aa>
    10aa: 86 0f        	stx	$f                      ; 0x200f <parse+0x2a2>
    10ac: 58           	cli
    10ad: 18           	clc
    10ae: a5 22        	lda	$22                     ; 0x2022 <parse+0x2b5>
    10b0: 69 00        	adc	#$0
    10b2: 85 18        	sta	$18                     ; 0x2018 <parse+0x2ab>
    10b4: a5 1b        	lda	$1b                     ; 0x201b <parse+0x2ae>
    10b6: 69 00        	adc	#$0
    10b8: 85 19        	sta	$19                     ; 0x2019 <parse+0x2ac>
    10ba: a5 2e        	lda	$2e                     ; 0x202e <parse+0x2c1>
    10bc: 65 14        	adc	$14                     ; 0x2014 <parse+0x2a7>
    10be: 85 1b        	sta	$1b                     ; 0x201b <parse+0x2ae>
    10c0: a5 1c        	lda	$1c                     ; 0x201c <parse+0x2af>
    10c2: 69 00        	adc	#$0
    10c4: aa           	tax
    10c5: 18           	clc
    10c6: a5 18        	lda	$18                     ; 0x2018 <parse+0x2ab>
    10c8: 69 00        	adc	#$0
    10ca: 85 14        	sta	$14                     ; 0x2014 <parse+0x2a7>
    10cc: a5 19        	lda	$19                     ; 0x2019 <parse+0x2ac>
    10ce: 65 15        	adc	$15                     ; 0x2015 <parse+0x2a8>
    10d0: 85 15        	sta	$15                     ; 0x2015 <parse+0x2a8>
    10d2: a5 1b        	lda	$1b                     ; 0x201b <parse+0x2ae>
    10d4: 69 00        	adc	#$0
    10d6: 85 18        	sta	$18                     ; 0x2018 <parse+0x2ab>
    10d8: 8a           	txa
    10d9: 69 00        	adc	#$0
    10db: 85 19        	sta	$19                     ; 0x2019 <parse+0x2ac>
    10dd: a5 14        	lda	$14                     ; 0x2014 <parse+0x2a7>
    10df: 18           	clc
    10e0: 65 17        	adc	$17                     ; 0x2017 <parse+0x2aa>
    10e2: 85 14        	sta	$14                     ; 0x2014 <parse+0x2a7>
    10e4: a5 15        	lda	$15                     ; 0x2015 <parse+0x2a8>
    10e6: 69 00        	adc	#$0
    10e8: aa           	tax
    10e9: a5 18        	lda	$18                     ; 0x2018 <parse+0x2ab>
    10eb: 69 00        	adc	#$0
    10ed: 85 17        	sta	$17                     ; 0x2017 <parse+0x2aa>
    10ef: a5 19        	lda	$19                     ; 0x2019 <parse+0x2ac>
    10f1: 69 00        	adc	#$0
    10f3: a8           	tay
    10f4: 18           	clc
    10f5: a5 14        	lda	$14                     ; 0x2014 <parse+0x2a7>
    10f7: 69 08        	adc	#$8
    10f9: 85 15        	sta	$15                     ; 0x2015 <parse+0x2a8>
    10fb: 8a           	txa
    10fc: 69 00        	adc	#$0
    10fe: 85 1b        	sta	$1b                     ; 0x201b <parse+0x2ae>
    1100: a5 17        	lda	$17                     ; 0x2017 <parse+0x2aa>
    1102: 69 00        	adc	#$0
    1104: 85 14        	sta	$14                     ; 0x2014 <parse+0x2a7>
    1106: 98           	tya
    1107: 69 00        	adc	#$0
    1109: 85 1c        	sta	$1c                     ; 0x201c <parse+0x2af>
    110b: a5 12        	lda	$12                     ; 0x2012 <parse+0x2a5>
    110d: 18           	clc
    110e: 69 02        	adc	#$2
    1110: 85 12        	sta	$12                     ; 0x2012 <parse+0x2a5>
    1112: a5 13        	lda	$13                     ; 0x2013 <parse+0x2a6>
    1114: 69 00        	adc	#$0
    1116: 85 13        	sta	$13                     ; 0x2013 <parse+0x2a6>
    1118: a2 ff        	ldx	#$ff
    111a: c6 16        	dec	$16                     ; 0x2016 <parse+0x2a9>
    111c: e4 16        	cpx	$16                     ; 0x2016 <parse+0x2a9>
    111e: d0 02        	bne	$1122 <main+0xbc9>
    1120: c6 1a        	dec	$1a                     ; 0x201a <parse+0x2ad>
    1122: a5 1a        	lda	$1a                     ; 0x201a <parse+0x2ad>
    1124: f0 03        	beq	$1129 <main+0xbd0>
    1126: 4c d5 0f     	jmp	$fd5 <main+0xa7c>
    1129: a5 16        	lda	$16                     ; 0x2016 <parse+0x2a9>
    112b: f0 03        	beq	$1130 <main+0xbd7>
    112d: 4c d5 0f     	jmp	$fd5 <main+0xa7c>
    1130: a6 28        	ldx	$28                     ; 0x2028 <parse+0x2bb>
    1132: 86 26        	stx	$26                     ; 0x2026 <parse+0x2b9>
    1134: a6 29        	ldx	$29                     ; 0x2029 <parse+0x2bc>
    1136: 86 27        	stx	$27                     ; 0x2027 <parse+0x2ba>
    1138: a6 28        	ldx	$28                     ; 0x2028 <parse+0x2bb>
    113a: 86 14        	stx	$14                     ; 0x2014 <parse+0x2a7>
    113c: a6 29        	ldx	$29                     ; 0x2029 <parse+0x2bc>
    113e: 86 15        	stx	$15                     ; 0x2015 <parse+0x2a8>
    1140: 64 19        	stz	$19                     ; 0x2019 <parse+0x2ac>
    1142: a2 00        	ldx	#$0
    1144: 64 13        	stz	$13                     ; 0x2013 <parse+0x2a6>
    1146: 64 12        	stz	$12                     ; 0x2012 <parse+0x2a5>
    1148: a4 14        	ldy	$14                     ; 0x2014 <parse+0x2a7>
    114a: 84 16        	sty	$16                     ; 0x2016 <parse+0x2a9>
    114c: a4 15        	ldy	$15                     ; 0x2015 <parse+0x2a8>
    114e: 84 17        	sty	$17                     ; 0x2017 <parse+0x2aa>
    1150: a5 14        	lda	$14                     ; 0x2014 <parse+0x2a7>
    1152: 18           	clc
    1153: 69 03        	adc	#$3
    1155: 85 18        	sta	$18                     ; 0x2018 <parse+0x2ab>
    1157: a5 15        	lda	$15                     ; 0x2015 <parse+0x2a8>
    1159: 69 00        	adc	#$0
    115b: 85 1c        	sta	$1c                     ; 0x201c <parse+0x2af>
    115d: e6 16        	inc	$16                     ; 0x2016 <parse+0x2a9>
    115f: d0 02        	bne	$1163 <main+0xc0a>
    1161: e6 17        	inc	$17                     ; 0x2017 <parse+0x2aa>
    1163: a9 00        	lda	#$0
    1165: a0 01        	ldy	#$1
    1167: 91 16        	sta	($16),y                 ; 0x2016 <parse+0x2a9>
    1169: a5 19        	lda	$19                     ; 0x2019 <parse+0x2ac>
    116b: 92 14        	sta	($14)                   ; 0x2014 <parse+0x2a7>
    116d: 85 16        	sta	$16                     ; 0x2016 <parse+0x2a9>
    116f: a9 00        	lda	#$0
    1171: 91 14        	sta	($14),y                 ; 0x2014 <parse+0x2a7>
    1173: a4 1c        	ldy	$1c                     ; 0x201c <parse+0x2af>
    1175: 84 19        	sty	$19                     ; 0x2019 <parse+0x2ac>
    1177: a0 03        	ldy	#$3
    1179: 91 14        	sta	($14),y                 ; 0x2014 <parse+0x2a7>
    117b: a0 01        	ldy	#$1
    117d: 91 18        	sta	($18),y                 ; 0x2018 <parse+0x2ab>
    117f: c8           	iny
    1180: 91 18        	sta	($18),y                 ; 0x2018 <parse+0x2ab>
    1182: c8           	iny
    1183: 91 18        	sta	($18),y                 ; 0x2018 <parse+0x2ab>
    1185: 18           	clc
    1186: a5 14        	lda	$14                     ; 0x2014 <parse+0x2a7>
    1188: 69 07        	adc	#$7
    118a: 85 14        	sta	$14                     ; 0x2014 <parse+0x2a7>
    118c: a5 15        	lda	$15                     ; 0x2015 <parse+0x2a8>
    118e: 69 00        	adc	#$0
    1190: e6 16        	inc	$16                     ; 0x2016 <parse+0x2a9>
    1192: d0 09        	bne	$119d <main+0xc44>
    1194: e8           	inx
    1195: d0 06        	bne	$119d <main+0xc44>
    1197: e6 13        	inc	$13                     ; 0x2013 <parse+0x2a6>
    1199: d0 02        	bne	$119d <main+0xc44>
    119b: e6 12        	inc	$12                     ; 0x2012 <parse+0x2a5>
    119d: a4 16        	ldy	$16                     ; 0x2016 <parse+0x2a9>
    119f: 84 19        	sty	$19                     ; 0x2019 <parse+0x2ac>
    11a1: 85 15        	sta	$15                     ; 0x2015 <parse+0x2a8>
    11a3: a5 12        	lda	$12                     ; 0x2012 <parse+0x2a5>
    11a5: f0 03        	beq	$11aa <main+0xc51>
    11a7: 4c 48 11     	jmp	$1148 <main+0xbef>
    11aa: a5 13        	lda	$13                     ; 0x2013 <parse+0x2a6>
    11ac: f0 03        	beq	$11b1 <main+0xc58>
    11ae: 4c 48 11     	jmp	$1148 <main+0xbef>
    11b1: e4 2c        	cpx	$2c                     ; 0x202c <parse+0x2bf>
    11b3: f0 03        	beq	$11b8 <main+0xc5f>
    11b5: 4c 48 11     	jmp	$1148 <main+0xbef>
    11b8: a4 16        	ldy	$16                     ; 0x2016 <parse+0x2a9>
    11ba: c4 2b        	cpy	$2b                     ; 0x202b <parse+0x2be>
    11bc: f0 03        	beq	$11c1 <main+0xc68>
    11be: 4c 48 11     	jmp	$1148 <main+0xbef>
    11c1: a2 76        	ldx	#$76
    11c3: 86 12        	stx	$12                     ; 0x2012 <parse+0x2a5>
    11c5: a2 63        	ldx	#$63
    11c7: 86 13        	stx	$13                     ; 0x2013 <parse+0x2a6>
    11c9: 20 25 46     	jsr	$4625 <puts>
    11cc: a6 2f        	ldx	$2f                     ; 0x202f <parse+0x2c2>
    11ce: 86 14        	stx	$14                     ; 0x2014 <parse+0x2a7>
    11d0: a0 1d        	ldy	#$1d
    11d2: b1 10        	lda	($10),y                 ; 0x2010 <parse+0x2a3>
    11d4: 85 15        	sta	$15                     ; 0x2015 <parse+0x2a8>
    11d6: a6 28        	ldx	$28                     ; 0x2028 <parse+0x2bb>
    11d8: 86 16        	stx	$16                     ; 0x2016 <parse+0x2a9>
    11da: a6 29        	ldx	$29                     ; 0x2029 <parse+0x2bc>
    11dc: 86 17        	stx	$17                     ; 0x2017 <parse+0x2aa>
    11de: 64 12        	stz	$12                     ; 0x2012 <parse+0x2a5>
    11e0: a0 23        	ldy	#$23
    11e2: b1 10        	lda	($10),y                 ; 0x2010 <parse+0x2a3>
    11e4: aa           	tax
    11e5: a5 2a        	lda	$2a                     ; 0x202a <parse+0x2bd>
    11e7: 20 6d 1d     	jsr	$1d6d <parse>
    11ea: a6 28        	ldx	$28                     ; 0x2028 <parse+0x2bb>
    11ec: 86 12        	stx	$12                     ; 0x2012 <parse+0x2a5>
    11ee: a6 29        	ldx	$29                     ; 0x2029 <parse+0x2bc>
    11f0: 86 13        	stx	$13                     ; 0x2013 <parse+0x2a6>
    11f2: e6 12        	inc	$12                     ; 0x2012 <parse+0x2a5>
    11f4: d0 02        	bne	$11f8 <main+0xc9f>
    11f6: e6 13        	inc	$13                     ; 0x2013 <parse+0x2a6>
    11f8: 64 14        	stz	$14                     ; 0x2014 <parse+0x2a7>
    11fa: 64 15        	stz	$15                     ; 0x2015 <parse+0x2a8>
    11fc: a5 14        	lda	$14                     ; 0x2014 <parse+0x2a7>
    11fe: 0a           	asl
    11ff: aa           	tax
    1200: a5 15        	lda	$15                     ; 0x2015 <parse+0x2a8>
    1202: 2a           	rol
    1203: 86 16        	stx	$16                     ; 0x2016 <parse+0x2a9>
    1205: 06 16        	asl	$16                     ; 0x2016 <parse+0x2a9>
    1207: 2a           	rol
    1208: 06 16        	asl	$16                     ; 0x2016 <parse+0x2a9>
    120a: 2a           	rol
    120b: aa           	tax
    120c: 38           	sec
    120d: a5 16        	lda	$16                     ; 0x2016 <parse+0x2a9>
    120f: e5 14        	sbc	$14                     ; 0x2014 <parse+0x2a7>
    1211: 85 16        	sta	$16                     ; 0x2016 <parse+0x2a9>
    1213: 8a           	txa
    1214: e5 15        	sbc	$15                     ; 0x2015 <parse+0x2a8>
    1216: 85 17        	sta	$17                     ; 0x2017 <parse+0x2aa>
    1218: 18           	clc
    1219: a5 16        	lda	$16                     ; 0x2016 <parse+0x2a9>
    121b: 65 26        	adc	$26                     ; 0x2026 <parse+0x2b9>
    121d: aa           	tax
    121e: a5 17        	lda	$17                     ; 0x2017 <parse+0x2aa>
    1220: 65 27        	adc	$27                     ; 0x2027 <parse+0x2ba>
    1222: 86 16        	stx	$16                     ; 0x2016 <parse+0x2a9>
    1224: 85 17        	sta	$17                     ; 0x2017 <parse+0x2aa>
    1226: 85 19        	sta	$19                     ; 0x2019 <parse+0x2ac>
    1228: 18           	clc
    1229: 8a           	txa
    122a: 69 03        	adc	#$3
    122c: 85 18        	sta	$18                     ; 0x2018 <parse+0x2ab>
    122e: a5 19        	lda	$19                     ; 0x2019 <parse+0x2ac>
    1230: 69 00        	adc	#$0
    1232: 85 19        	sta	$19                     ; 0x2019 <parse+0x2ac>
    1234: a9 00        	lda	#$0
    1236: a0 03        	ldy	#$3
    1238: 91 16        	sta	($16),y                 ; 0x2016 <parse+0x2a9>
    123a: a0 01        	ldy	#$1
    123c: 91 18        	sta	($18),y                 ; 0x2018 <parse+0x2ab>
    123e: c8           	iny
    123f: 91 18        	sta	($18),y                 ; 0x2018 <parse+0x2ab>
    1241: c8           	iny
    1242: 91 18        	sta	($18),y                 ; 0x2018 <parse+0x2ab>
    1244: a5 15        	lda	$15                     ; 0x2015 <parse+0x2a8>
    1246: d0 07        	bne	$124f <main+0xcf6>
    1248: a5 14        	lda	$14                     ; 0x2014 <parse+0x2a7>
    124a: d0 03        	bne	$124f <main+0xcf6>
    124c: 4c cf 12     	jmp	$12cf <main+0xd76>
    124f: 64 1f        	stz	$1f                     ; 0x201f <parse+0x2b2>
    1251: a6 12        	ldx	$12                     ; 0x2012 <parse+0x2a5>
    1253: 86 1c        	stx	$1c                     ; 0x201c <parse+0x2af>
    1255: a6 13        	ldx	$13                     ; 0x2013 <parse+0x2a6>
    1257: 86 1d        	stx	$1d                     ; 0x201d <parse+0x2b0>
    1259: a6 14        	ldx	$14                     ; 0x2014 <parse+0x2a7>
    125b: a4 15        	ldy	$15                     ; 0x2015 <parse+0x2a8>
    125d: 84 1a        	sty	$1a                     ; 0x201a <parse+0x2ad>
    125f: 64 22        	stz	$22                     ; 0x2022 <parse+0x2b5>
    1261: 64 23        	stz	$23                     ; 0x2023 <parse+0x2b6>
    1263: 64 28        	stz	$28                     ; 0x2028 <parse+0x2bb>
    1265: a0 01        	ldy	#$1
    1267: b2 1c        	lda	($1c)                   ; 0x201c <parse+0x2af>
    1269: 85 1e        	sta	$1e                     ; 0x201e <parse+0x2b1>
    126b: b1 1c        	lda	($1c),y                 ; 0x201c <parse+0x2af>
    126d: 85 1b        	sta	$1b                     ; 0x201b <parse+0x2ae>
    126f: a5 1e        	lda	$1e                     ; 0x201e <parse+0x2b1>
    1271: 0a           	asl
    1272: 26 1b        	rol	$1b                     ; 0x201b <parse+0x2ae>
    1274: 0a           	asl
    1275: 26 1b        	rol	$1b                     ; 0x201b <parse+0x2ae>
    1277: 5a           	phy
    1278: a4 1b        	ldy	$1b                     ; 0x201b <parse+0x2ae>
    127a: 84 1e        	sty	$1e                     ; 0x201e <parse+0x2b1>
    127c: 7a           	ply
    127d: 0a           	asl
    127e: 85 1b        	sta	$1b                     ; 0x201b <parse+0x2ae>
    1280: 26 1e        	rol	$1e                     ; 0x201e <parse+0x2b1>
    1282: a5 1f        	lda	$1f                     ; 0x201f <parse+0x2b2>
    1284: 18           	clc
    1285: 65 1b        	adc	$1b                     ; 0x201b <parse+0x2ae>
    1287: 85 1f        	sta	$1f                     ; 0x201f <parse+0x2b2>
    1289: a5 22        	lda	$22                     ; 0x2022 <parse+0x2b5>
    128b: 65 1e        	adc	$1e                     ; 0x201e <parse+0x2b1>
    128d: 85 22        	sta	$22                     ; 0x2022 <parse+0x2b5>
    128f: a5 23        	lda	$23                     ; 0x2023 <parse+0x2b6>
    1291: 69 00        	adc	#$0
    1293: 85 23        	sta	$23                     ; 0x2023 <parse+0x2b6>
    1295: a5 28        	lda	$28                     ; 0x2028 <parse+0x2bb>
    1297: 69 00        	adc	#$0
    1299: 85 28        	sta	$28                     ; 0x2028 <parse+0x2bb>
    129b: a5 1c        	lda	$1c                     ; 0x201c <parse+0x2af>
    129d: 18           	clc
    129e: 69 07        	adc	#$7
    12a0: 85 1c        	sta	$1c                     ; 0x201c <parse+0x2af>
    12a2: a5 1d        	lda	$1d                     ; 0x201d <parse+0x2b0>
    12a4: 69 00        	adc	#$0
    12a6: 85 1d        	sta	$1d                     ; 0x201d <parse+0x2b0>
    12a8: ca           	dex
    12a9: e0 ff        	cpx	#$ff
    12ab: d0 02        	bne	$12af <main+0xd56>
    12ad: c6 1a        	dec	$1a                     ; 0x201a <parse+0x2ad>
    12af: a5 1a        	lda	$1a                     ; 0x201a <parse+0x2ad>
    12b1: d0 b4        	bne	$1267 <main+0xd0e>
    12b3: 8a           	txa
    12b4: f0 03        	beq	$12b9 <main+0xd60>
    12b6: 4c 67 12     	jmp	$1267 <main+0xd0e>
    12b9: a5 1f        	lda	$1f                     ; 0x201f <parse+0x2b2>
    12bb: a0 03        	ldy	#$3
    12bd: 91 16        	sta	($16),y                 ; 0x2016 <parse+0x2a9>
    12bf: a5 22        	lda	$22                     ; 0x2022 <parse+0x2b5>
    12c1: a0 01        	ldy	#$1
    12c3: 91 18        	sta	($18),y                 ; 0x2018 <parse+0x2ab>
    12c5: c8           	iny
    12c6: a5 23        	lda	$23                     ; 0x2023 <parse+0x2b6>
    12c8: 91 18        	sta	($18),y                 ; 0x2018 <parse+0x2ab>
    12ca: a5 28        	lda	$28                     ; 0x2028 <parse+0x2bb>
    12cc: c8           	iny
    12cd: 91 18        	sta	($18),y                 ; 0x2018 <parse+0x2ab>
    12cf: a6 14        	ldx	$14                     ; 0x2014 <parse+0x2a7>
    12d1: a5 15        	lda	$15                     ; 0x2015 <parse+0x2a8>
    12d3: e8           	inx
    12d4: d0 01        	bne	$12d7 <main+0xd7e>
    12d6: 1a           	inc
    12d7: 86 14        	stx	$14                     ; 0x2014 <parse+0x2a7>
    12d9: 85 15        	sta	$15                     ; 0x2015 <parse+0x2a8>
    12db: c5 2c        	cmp	$2c                     ; 0x202c <parse+0x2bf>
    12dd: f0 03        	beq	$12e2 <main+0xd89>
    12df: 4c fc 11     	jmp	$11fc <main+0xca3>
    12e2: 86 14        	stx	$14                     ; 0x2014 <parse+0x2a7>
    12e4: 85 15        	sta	$15                     ; 0x2015 <parse+0x2a8>
    12e6: e4 2b        	cpx	$2b                     ; 0x202b <parse+0x2be>
    12e8: f0 03        	beq	$12ed <main+0xd94>
    12ea: 4c fc 11     	jmp	$11fc <main+0xca3>
    12ed: a0 14        	ldy	#$14
    12ef: 18           	clc
    12f0: a5 10        	lda	$10                     ; 0x2010 <parse+0x2a3>
    12f2: 69 24        	adc	#$24
    12f4: 48           	pha
    12f5: a5 11        	lda	$11                     ; 0x2011 <parse+0x2a4>
    12f7: 69 00        	adc	#$0
    12f9: aa           	tax
    12fa: 68           	pla
    12fb: 85 28        	sta	$28                     ; 0x2028 <parse+0x2bb>
    12fd: 86 29        	stx	$29                     ; 0x2029 <parse+0x2bc>
    12ff: 18           	clc
    1300: 69 14        	adc	#$14
    1302: 85 12        	sta	$12                     ; 0x2012 <parse+0x2a5>
    1304: 8a           	txa
    1305: 69 00        	adc	#$0
    1307: 85 13        	sta	$13                     ; 0x2013 <parse+0x2a6>
    1309: a9 00        	lda	#$0
    130b: 91 28        	sta	($28),y                 ; 0x2028 <parse+0x2bb>
    130d: a0 01        	ldy	#$1
    130f: 91 12        	sta	($12),y                 ; 0x2012 <parse+0x2a5>
    1311: c8           	iny
    1312: 91 12        	sta	($12),y                 ; 0x2012 <parse+0x2a5>
    1314: a0 06        	ldy	#$6
    1316: a9 34        	lda	#$34
    1318: 91 12        	sta	($12),y                 ; 0x2012 <parse+0x2a5>
    131a: c8           	iny
    131b: a9 40        	lda	#$40
    131d: 91 12        	sta	($12),y                 ; 0x2012 <parse+0x2a5>
    131f: a0 03        	ldy	#$3
    1321: a9 00        	lda	#$0
    1323: 91 12        	sta	($12),y                 ; 0x2012 <parse+0x2a5>
    1325: c8           	iny
    1326: 91 12        	sta	($12),y                 ; 0x2012 <parse+0x2a5>
    1328: c8           	iny
    1329: 91 12        	sta	($12),y                 ; 0x2012 <parse+0x2a5>
    132b: a2 84        	ldx	#$84
    132d: 86 12        	stx	$12                     ; 0x2012 <parse+0x2a5>
    132f: a2 63        	ldx	#$63
    1331: 86 13        	stx	$13                     ; 0x2013 <parse+0x2a6>
    1333: 20 25 46     	jsr	$4625 <puts>
    1336: a2 01        	ldx	#$1
    1338: a4 28        	ldy	$28                     ; 0x2028 <parse+0x2bb>
    133a: 84 14        	sty	$14                     ; 0x2014 <parse+0x2a7>
    133c: a4 29        	ldy	$29                     ; 0x2029 <parse+0x2bc>
    133e: 84 15        	sty	$15                     ; 0x2015 <parse+0x2a8>
    1340: a4 26        	ldy	$26                     ; 0x2026 <parse+0x2b9>
    1342: 84 16        	sty	$16                     ; 0x2016 <parse+0x2a9>
    1344: a4 27        	ldy	$27                     ; 0x2027 <parse+0x2ba>
    1346: 84 17        	sty	$17                     ; 0x2017 <parse+0x2aa>
    1348: 86 12        	stx	$12                     ; 0x2012 <parse+0x2a5>
    134a: a0 23        	ldy	#$23
    134c: b1 10        	lda	($10),y                 ; 0x2010 <parse+0x2a3>
    134e: aa           	tax
    134f: a5 2a        	lda	$2a                     ; 0x202a <parse+0x2bd>
    1351: 20 6d 1d     	jsr	$1d6d <parse>
    1354: a0 22        	ldy	#$22
    1356: b1 10        	lda	($10),y                 ; 0x2010 <parse+0x2a3>
    1358: 92 10        	sta	($10)                   ; 0x2010 <parse+0x2a3>
    135a: a0 20        	ldy	#$20
    135c: b1 10        	lda	($10),y                 ; 0x2010 <parse+0x2a3>
    135e: a0 01        	ldy	#$1
    1360: 91 10        	sta	($10),y                 ; 0x2010 <parse+0x2a3>
    1362: a2 4d        	ldx	#$4d
    1364: 86 12        	stx	$12                     ; 0x2012 <parse+0x2a5>
    1366: a2 64        	ldx	#$64
    1368: 86 13        	stx	$13                     ; 0x2013 <parse+0x2a6>
    136a: 20 8a 38     	jsr	$388a <printf>
    136d: a5 2c        	lda	$2c                     ; 0x202c <parse+0x2bf>
    136f: d0 07        	bne	$1378 <main+0xe1f>
    1371: a5 2b        	lda	$2b                     ; 0x202b <parse+0x2be>
    1373: d0 03        	bne	$1378 <main+0xe1f>
    1375: 4c 07 14     	jmp	$1407 <main+0xeae>
    1378: a2 01        	ldx	#$1
    137a: 8a           	txa
    137b: 3a           	dec
    137c: 85 12        	sta	$12                     ; 0x2012 <parse+0x2a5>
    137e: 85 14        	sta	$14                     ; 0x2014 <parse+0x2a7>
    1380: 06 12        	asl	$12                     ; 0x2012 <parse+0x2a5>
    1382: 86 28        	stx	$28                     ; 0x2028 <parse+0x2bb>
    1384: a9 00        	lda	#$0
    1386: 2a           	rol
    1387: 06 12        	asl	$12                     ; 0x2012 <parse+0x2a5>
    1389: 2a           	rol
    138a: 06 12        	asl	$12                     ; 0x2012 <parse+0x2a5>
    138c: 2a           	rol
    138d: aa           	tax
    138e: 38           	sec
    138f: a5 12        	lda	$12                     ; 0x2012 <parse+0x2a5>
    1391: e5 14        	sbc	$14                     ; 0x2014 <parse+0x2a7>
    1393: 85 12        	sta	$12                     ; 0x2012 <parse+0x2a5>
    1395: 8a           	txa
    1396: e9 00        	sbc	#$0
    1398: aa           	tax
    1399: 18           	clc
    139a: a5 12        	lda	$12                     ; 0x2012 <parse+0x2a5>
    139c: 65 26        	adc	$26                     ; 0x2026 <parse+0x2b9>
    139e: 85 12        	sta	$12                     ; 0x2012 <parse+0x2a5>
    13a0: 8a           	txa
    13a1: 65 27        	adc	$27                     ; 0x2027 <parse+0x2ba>
    13a3: 85 13        	sta	$13                     ; 0x2013 <parse+0x2a6>
    13a5: a0 01        	ldy	#$1
    13a7: b1 12        	lda	($12),y                 ; 0x2012 <parse+0x2a5>
    13a9: 85 15        	sta	$15                     ; 0x2015 <parse+0x2a8>
    13ab: e6 12        	inc	$12                     ; 0x2012 <parse+0x2a5>
    13ad: d0 02        	bne	$13b1 <main+0xe58>
    13af: e6 13        	inc	$13                     ; 0x2013 <parse+0x2a6>
    13b1: b1 12        	lda	($12),y                 ; 0x2012 <parse+0x2a5>
    13b3: 85 12        	sta	$12                     ; 0x2012 <parse+0x2a5>
    13b5: a5 15        	lda	$15                     ; 0x2015 <parse+0x2a8>
    13b7: 0a           	asl
    13b8: a6 12        	ldx	$12                     ; 0x2012 <parse+0x2a5>
    13ba: 86 13        	stx	$13                     ; 0x2013 <parse+0x2a6>
    13bc: 26 13        	rol	$13                     ; 0x2013 <parse+0x2a6>
    13be: 0a           	asl
    13bf: 26 13        	rol	$13                     ; 0x2013 <parse+0x2a6>
    13c1: 0a           	asl
    13c2: aa           	tax
    13c3: 26 13        	rol	$13                     ; 0x2013 <parse+0x2a6>
    13c5: a5 14        	lda	$14                     ; 0x2014 <parse+0x2a7>
    13c7: 92 10        	sta	($10)                   ; 0x2010 <parse+0x2a3>
    13c9: a0 02        	ldy	#$2
    13cb: a5 15        	lda	$15                     ; 0x2015 <parse+0x2a8>
    13cd: 91 10        	sta	($10),y                 ; 0x2010 <parse+0x2a3>
    13cf: c8           	iny
    13d0: a5 12        	lda	$12                     ; 0x2012 <parse+0x2a5>
    13d2: 91 10        	sta	($10),y                 ; 0x2010 <parse+0x2a3>
    13d4: c8           	iny
    13d5: 8a           	txa
    13d6: 91 10        	sta	($10),y                 ; 0x2010 <parse+0x2a3>
    13d8: c8           	iny
    13d9: a5 13        	lda	$13                     ; 0x2013 <parse+0x2a6>
    13db: 91 10        	sta	($10),y                 ; 0x2010 <parse+0x2a3>
    13dd: a9 00        	lda	#$0
    13df: a0 01        	ldy	#$1
    13e1: 91 10        	sta	($10),y                 ; 0x2010 <parse+0x2a3>
    13e3: a2 98        	ldx	#$98
    13e5: 86 12        	stx	$12                     ; 0x2012 <parse+0x2a5>
    13e7: a2 63        	ldx	#$63
    13e9: 86 13        	stx	$13                     ; 0x2013 <parse+0x2a6>
    13eb: 20 8a 38     	jsr	$388a <printf>
    13ee: a6 28        	ldx	$28                     ; 0x2028 <parse+0x2bb>
    13f0: e8           	inx
    13f1: a0 00        	ldy	#$0
    13f3: c4 2c        	cpy	$2c                     ; 0x202c <parse+0x2bf>
    13f5: d0 09        	bne	$1400 <main+0xea7>
    13f7: a5 28        	lda	$28                     ; 0x2028 <parse+0x2bb>
    13f9: c5 2b        	cmp	$2b                     ; 0x202b <parse+0x2be>
    13fb: b0 0a        	bcs	$1407 <main+0xeae>
    13fd: 4c 7a 13     	jmp	$137a <main+0xe21>
    1400: c4 2c        	cpy	$2c                     ; 0x202c <parse+0x2bf>
    1402: b0 03        	bcs	$1407 <main+0xeae>
    1404: 4c 7a 13     	jmp	$137a <main+0xe21>
    1407: a2 43        	ldx	#$43
    1409: 86 12        	stx	$12                     ; 0x2012 <parse+0x2a5>
    140b: a2 63        	ldx	#$63
    140d: 86 13        	stx	$13                     ; 0x2013 <parse+0x2a6>
    140f: 20 25 46     	jsr	$4625 <puts>
    1412: a0 30        	ldy	#$30
    1414: 18           	clc
    1415: a5 10        	lda	$10                     ; 0x2010 <parse+0x2a3>
    1417: 69 24        	adc	#$24
    1419: 48           	pha
    141a: a5 11        	lda	$11                     ; 0x2011 <parse+0x2a4>
    141c: 69 00        	adc	#$0
    141e: aa           	tax
    141f: 68           	pla
    1420: 85 12        	sta	$12                     ; 0x2012 <parse+0x2a5>
    1422: 86 13        	stx	$13                     ; 0x2013 <parse+0x2a6>
    1424: 18           	clc
    1425: 69 30        	adc	#$30
    1427: 85 14        	sta	$14                     ; 0x2014 <parse+0x2a7>
    1429: 8a           	txa
    142a: 69 00        	adc	#$0
    142c: 85 15        	sta	$15                     ; 0x2015 <parse+0x2a8>
    142e: b1 12        	lda	($12),y                 ; 0x2012 <parse+0x2a5>
    1430: a0 13        	ldy	#$13
    1432: 91 10        	sta	($10),y                 ; 0x2010 <parse+0x2a3>
    1434: 85 29        	sta	$29                     ; 0x2029 <parse+0x2bc>
    1436: a0 01        	ldy	#$1
    1438: b1 14        	lda	($14),y                 ; 0x2014 <parse+0x2a7>
    143a: a0 12        	ldy	#$12
    143c: 91 10        	sta	($10),y                 ; 0x2010 <parse+0x2a3>
    143e: 85 28        	sta	$28                     ; 0x2028 <parse+0x2bb>
    1440: 18           	clc
    1441: a5 10        	lda	$10                     ; 0x2010 <parse+0x2a3>
    1443: 69 5a        	adc	#$5a
    1445: 85 16        	sta	$16                     ; 0x2016 <parse+0x2a9>
    1447: a5 11        	lda	$11                     ; 0x2011 <parse+0x2a4>
    1449: 69 01        	adc	#$1
    144b: 85 17        	sta	$17                     ; 0x2017 <parse+0x2aa>
    144d: 18           	clc
    144e: a5 10        	lda	$10                     ; 0x2010 <parse+0x2a3>
    1450: 69 58        	adc	#$58
    1452: 85 1a        	sta	$1a                     ; 0x201a <parse+0x2ad>
    1454: a5 11        	lda	$11                     ; 0x2011 <parse+0x2a4>
    1456: 69 01        	adc	#$1
    1458: 85 1b        	sta	$1b                     ; 0x201b <parse+0x2ae>
    145a: 18           	clc
    145b: a5 10        	lda	$10                     ; 0x2010 <parse+0x2a3>
    145d: 69 57        	adc	#$57
    145f: 85 18        	sta	$18                     ; 0x2018 <parse+0x2ab>
    1461: a5 11        	lda	$11                     ; 0x2011 <parse+0x2a4>
    1463: 69 01        	adc	#$1
    1465: 85 19        	sta	$19                     ; 0x2019 <parse+0x2ac>
    1467: a0 02        	ldy	#$2
    1469: b1 14        	lda	($14),y                 ; 0x2014 <parse+0x2a7>
    146b: a0 10        	ldy	#$10
    146d: 91 10        	sta	($10),y                 ; 0x2010 <parse+0x2a3>
    146f: 85 2b        	sta	$2b                     ; 0x202b <parse+0x2be>
    1471: a0 03        	ldy	#$3
    1473: b1 14        	lda	($14),y                 ; 0x2014 <parse+0x2a7>
    1475: a0 11        	ldy	#$11
    1477: 91 10        	sta	($10),y                 ; 0x2010 <parse+0x2a3>
    1479: 85 2a        	sta	$2a                     ; 0x202a <parse+0x2bd>
    147b: a9 00        	lda	#$0
    147d: 92 16        	sta	($16)                   ; 0x2016 <parse+0x2a9>
    147f: 48           	pha
    1480: a5 16        	lda	$16                     ; 0x2016 <parse+0x2a9>
    1482: a0 18        	ldy	#$18
    1484: 91 10        	sta	($10),y                 ; 0x2010 <parse+0x2a3>
    1486: a5 17        	lda	$17                     ; 0x2017 <parse+0x2aa>
    1488: c8           	iny
    1489: 91 10        	sta	($10),y                 ; 0x2010 <parse+0x2a3>
    148b: 68           	pla
    148c: a0 01        	ldy	#$1
    148e: 91 16        	sta	($16),y                 ; 0x2016 <parse+0x2a9>
    1490: 92 1a        	sta	($1a)                   ; 0x201a <parse+0x2ad>
    1492: 48           	pha
    1493: 5a           	phy
    1494: a5 1a        	lda	$1a                     ; 0x201a <parse+0x2ad>
    1496: a0 16        	ldy	#$16
    1498: 91 10        	sta	($10),y                 ; 0x2010 <parse+0x2a3>
    149a: a5 1b        	lda	$1b                     ; 0x201b <parse+0x2ae>
    149c: c8           	iny
    149d: 91 10        	sta	($10),y                 ; 0x2010 <parse+0x2a3>
    149f: 7a           	ply
    14a0: 68           	pla
    14a1: 91 1a        	sta	($1a),y                 ; 0x201a <parse+0x2ad>
    14a3: 48           	pha
    14a4: a5 18        	lda	$18                     ; 0x2018 <parse+0x2ab>
    14a6: a0 1d        	ldy	#$1d
    14a8: 91 10        	sta	($10),y                 ; 0x2010 <parse+0x2a3>
    14aa: a5 19        	lda	$19                     ; 0x2019 <parse+0x2ac>
    14ac: c8           	iny
    14ad: 91 10        	sta	($10),y                 ; 0x2010 <parse+0x2a3>
    14af: 68           	pla
    14b0: 92 18        	sta	($18)                   ; 0x2018 <parse+0x2ab>
    14b2: a2 0c        	ldx	#$c
    14b4: 86 12        	stx	$12                     ; 0x2012 <parse+0x2a5>
    14b6: a2 63        	ldx	#$63
    14b8: 86 13        	stx	$13                     ; 0x2013 <parse+0x2a6>
    14ba: 20 f2 1a     	jsr	$1af2 <fileOpen>
    14bd: a6 12        	ldx	$12                     ; 0x2012 <parse+0x2a5>
    14bf: 86 26        	stx	$26                     ; 0x2026 <parse+0x2b9>
    14c1: a6 13        	ldx	$13                     ; 0x2013 <parse+0x2a6>
    14c3: 86 27        	stx	$27                     ; 0x2027 <parse+0x2ba>
    14c5: b2 12        	lda	($12)                   ; 0x2012 <parse+0x2a5>
    14c7: 92 10        	sta	($10)                   ; 0x2010 <parse+0x2a3>
    14c9: a9 00        	lda	#$0
    14cb: a0 01        	ldy	#$1
    14cd: 91 10        	sta	($10),y                 ; 0x2010 <parse+0x2a3>
    14cf: a2 20        	ldx	#$20
    14d1: 86 12        	stx	$12                     ; 0x2012 <parse+0x2a5>
    14d3: a2 63        	ldx	#$63
    14d5: 86 13        	stx	$13                     ; 0x2013 <parse+0x2a6>
    14d7: 20 8a 38     	jsr	$388a <printf>
    14da: a6 24        	ldx	$24                     ; 0x2024 <parse+0x2b7>
    14dc: 86 12        	stx	$12                     ; 0x2012 <parse+0x2a5>
    14de: a6 25        	ldx	$25                     ; 0x2025 <parse+0x2b8>
    14e0: 86 13        	stx	$13                     ; 0x2013 <parse+0x2a6>
    14e2: a5 26        	lda	$26                     ; 0x2026 <parse+0x2b9>
    14e4: a0 20        	ldy	#$20
    14e6: 91 10        	sta	($10),y                 ; 0x2010 <parse+0x2a3>
    14e8: a5 27        	lda	$27                     ; 0x2027 <parse+0x2ba>
    14ea: c8           	iny
    14eb: 91 10        	sta	($10),y                 ; 0x2010 <parse+0x2a3>
    14ed: a6 26        	ldx	$26                     ; 0x2026 <parse+0x2b9>
    14ef: 86 14        	stx	$14                     ; 0x2014 <parse+0x2a7>
    14f1: a6 27        	ldx	$27                     ; 0x2027 <parse+0x2ba>
    14f3: 86 15        	stx	$15                     ; 0x2015 <parse+0x2a8>
    14f5: a2 00        	ldx	#$0
    14f7: a9 02        	lda	#$2
    14f9: 20 22 1c     	jsr	$1c22 <fileRead>
    14fc: 18           	clc
    14fd: a5 29        	lda	$29                     ; 0x2029 <parse+0x2bc>
    14ff: 69 02        	adc	#$2
    1501: 85 29        	sta	$29                     ; 0x2029 <parse+0x2bc>
    1503: a5 28        	lda	$28                     ; 0x2028 <parse+0x2bb>
    1505: 69 00        	adc	#$0
    1507: a0 22        	ldy	#$22
    1509: 91 10        	sta	($10),y                 ; 0x2010 <parse+0x2a3>
    150b: a5 2b        	lda	$2b                     ; 0x202b <parse+0x2be>
    150d: 69 00        	adc	#$0
    150f: 85 28        	sta	$28                     ; 0x2028 <parse+0x2bb>
    1511: a5 2a        	lda	$2a                     ; 0x202a <parse+0x2bd>
    1513: 69 00        	adc	#$0
    1515: c8           	iny
    1516: 91 10        	sta	($10),y                 ; 0x2010 <parse+0x2a3>
    1518: b2 24        	lda	($24)                   ; 0x2024 <parse+0x2b7>
    151a: 85 13        	sta	$13                     ; 0x2013 <parse+0x2a6>
    151c: a0 01        	ldy	#$1
    151e: b1 24        	lda	($24),y                 ; 0x2024 <parse+0x2b7>
    1520: 85 12        	sta	$12                     ; 0x2012 <parse+0x2a5>
    1522: a5 13        	lda	$13                     ; 0x2013 <parse+0x2a6>
    1524: 92 10        	sta	($10)                   ; 0x2010 <parse+0x2a3>
    1526: a5 12        	lda	$12                     ; 0x2012 <parse+0x2a5>
    1528: 91 10        	sta	($10),y                 ; 0x2010 <parse+0x2a3>
    152a: a2 5d        	ldx	#$5d
    152c: 86 12        	stx	$12                     ; 0x2012 <parse+0x2a5>
    152e: a2 63        	ldx	#$63
    1530: 86 13        	stx	$13                     ; 0x2013 <parse+0x2a6>
    1532: 20 8a 38     	jsr	$388a <printf>
    1535: a0 01        	ldy	#$1
    1537: b2 24        	lda	($24)                   ; 0x2024 <parse+0x2b7>
    1539: 85 12        	sta	$12                     ; 0x2012 <parse+0x2a5>
    153b: b1 24        	lda	($24),y                 ; 0x2024 <parse+0x2b7>
    153d: d0 07        	bne	$1546 <main+0xfed>
    153f: a5 12        	lda	$12                     ; 0x2012 <parse+0x2a5>
    1541: d0 03        	bne	$1546 <main+0xfed>
    1543: 4c e7 17     	jmp	$17e7 <main+0x128e>
    1546: a2 00        	ldx	#$0
    1548: 64 26        	stz	$26                     ; 0x2026 <parse+0x2b9>
    154a: 18           	clc
    154b: a5 10        	lda	$10                     ; 0x2010 <parse+0x2a3>
    154d: 69 5e        	adc	#$5e
    154f: 85 2e        	sta	$2e                     ; 0x202e <parse+0x2c1>
    1551: a5 11        	lda	$11                     ; 0x2011 <parse+0x2a4>
    1553: 69 01        	adc	#$1
    1555: 85 2f        	sta	$2f                     ; 0x202f <parse+0x2c2>
    1557: a4 2e        	ldy	$2e                     ; 0x202e <parse+0x2c1>
    1559: 84 12        	sty	$12                     ; 0x2012 <parse+0x2a5>
    155b: 85 13        	sta	$13                     ; 0x2013 <parse+0x2a6>
    155d: a0 20        	ldy	#$20
    155f: b1 10        	lda	($10),y                 ; 0x2010 <parse+0x2a3>
    1561: 85 14        	sta	$14                     ; 0x2014 <parse+0x2a7>
    1563: c8           	iny
    1564: b1 10        	lda	($10),y                 ; 0x2010 <parse+0x2a3>
    1566: 85 15        	sta	$15                     ; 0x2015 <parse+0x2a8>
    1568: 86 27        	stx	$27                     ; 0x2027 <parse+0x2ba>
    156a: a2 00        	ldx	#$0
    156c: a9 02        	lda	#$2
    156e: 20 22 1c     	jsr	$1c22 <fileRead>
    1571: 18           	clc
    1572: a5 29        	lda	$29                     ; 0x2029 <parse+0x2bc>
    1574: 69 02        	adc	#$2
    1576: 85 29        	sta	$29                     ; 0x2029 <parse+0x2bc>
    1578: a0 22        	ldy	#$22
    157a: b1 10        	lda	($10),y                 ; 0x2010 <parse+0x2a3>
    157c: 69 00        	adc	#$0
    157e: 91 10        	sta	($10),y                 ; 0x2010 <parse+0x2a3>
    1580: a5 28        	lda	$28                     ; 0x2028 <parse+0x2bb>
    1582: 69 00        	adc	#$0
    1584: 85 28        	sta	$28                     ; 0x2028 <parse+0x2bb>
    1586: c8           	iny
    1587: b1 10        	lda	($10),y                 ; 0x2010 <parse+0x2a3>
    1589: 69 00        	adc	#$0
    158b: 91 10        	sta	($10),y                 ; 0x2010 <parse+0x2a3>
    158d: b2 2e        	lda	($2e)                   ; 0x202e <parse+0x2c1>
    158f: 85 13        	sta	$13                     ; 0x2013 <parse+0x2a6>
    1591: a0 01        	ldy	#$1
    1593: b1 2e        	lda	($2e),y                 ; 0x202e <parse+0x2c1>
    1595: 85 12        	sta	$12                     ; 0x2012 <parse+0x2a5>
    1597: c8           	iny
    1598: a5 13        	lda	$13                     ; 0x2013 <parse+0x2a6>
    159a: 91 10        	sta	($10),y                 ; 0x2010 <parse+0x2a3>
    159c: c8           	iny
    159d: a5 12        	lda	$12                     ; 0x2012 <parse+0x2a5>
    159f: 91 10        	sta	($10),y                 ; 0x2010 <parse+0x2a3>
    15a1: a5 27        	lda	$27                     ; 0x2027 <parse+0x2ba>
    15a3: a0 15        	ldy	#$15
    15a5: 91 10        	sta	($10),y                 ; 0x2010 <parse+0x2a3>
    15a7: 92 10        	sta	($10)                   ; 0x2010 <parse+0x2a3>
    15a9: a0 01        	ldy	#$1
    15ab: a5 26        	lda	$26                     ; 0x2026 <parse+0x2b9>
    15ad: 5a           	phy
    15ae: a0 14        	ldy	#$14
    15b0: 91 10        	sta	($10),y                 ; 0x2010 <parse+0x2a3>
    15b2: 7a           	ply
    15b3: 91 10        	sta	($10),y                 ; 0x2010 <parse+0x2a3>
    15b5: a2 05        	ldx	#$5
    15b7: 86 12        	stx	$12                     ; 0x2012 <parse+0x2a5>
    15b9: a2 64        	ldx	#$64
    15bb: 86 13        	stx	$13                     ; 0x2013 <parse+0x2a6>
    15bd: 20 8a 38     	jsr	$388a <printf>
    15c0: a0 01        	ldy	#$1
    15c2: b2 2e        	lda	($2e)                   ; 0x202e <parse+0x2c1>
    15c4: 85 12        	sta	$12                     ; 0x2012 <parse+0x2a5>
    15c6: b1 2e        	lda	($2e),y                 ; 0x202e <parse+0x2c1>
    15c8: d0 07        	bne	$15d1 <main+0x1078>
    15ca: a5 12        	lda	$12                     ; 0x2012 <parse+0x2a5>
    15cc: d0 03        	bne	$15d1 <main+0x1078>
    15ce: 4c c1 17     	jmp	$17c1 <main+0x1268>
    15d1: a2 00        	ldx	#$0
    15d3: 64 2a        	stz	$2a                     ; 0x202a <parse+0x2bd>
    15d5: 8a           	txa
    15d6: a0 1f        	ldy	#$1f
    15d8: 91 10        	sta	($10),y                 ; 0x2010 <parse+0x2a3>
    15da: a0 18        	ldy	#$18
    15dc: b1 10        	lda	($10),y                 ; 0x2010 <parse+0x2a3>
    15de: 85 12        	sta	$12                     ; 0x2012 <parse+0x2a5>
    15e0: c8           	iny
    15e1: b1 10        	lda	($10),y                 ; 0x2010 <parse+0x2a3>
    15e3: 85 13        	sta	$13                     ; 0x2013 <parse+0x2a6>
    15e5: a0 20        	ldy	#$20
    15e7: b1 10        	lda	($10),y                 ; 0x2010 <parse+0x2a3>
    15e9: 85 26        	sta	$26                     ; 0x2026 <parse+0x2b9>
    15eb: c8           	iny
    15ec: b1 10        	lda	($10),y                 ; 0x2010 <parse+0x2a3>
    15ee: 85 27        	sta	$27                     ; 0x2027 <parse+0x2ba>
    15f0: a6 26        	ldx	$26                     ; 0x2026 <parse+0x2b9>
    15f2: 86 14        	stx	$14                     ; 0x2014 <parse+0x2a7>
    15f4: 85 15        	sta	$15                     ; 0x2015 <parse+0x2a8>
    15f6: a2 00        	ldx	#$0
    15f8: a9 02        	lda	#$2
    15fa: 20 22 1c     	jsr	$1c22 <fileRead>
    15fd: a0 16        	ldy	#$16
    15ff: b1 10        	lda	($10),y                 ; 0x2010 <parse+0x2a3>
    1601: 85 12        	sta	$12                     ; 0x2012 <parse+0x2a5>
    1603: c8           	iny
    1604: b1 10        	lda	($10),y                 ; 0x2010 <parse+0x2a3>
    1606: 85 13        	sta	$13                     ; 0x2013 <parse+0x2a6>
    1608: a6 26        	ldx	$26                     ; 0x2026 <parse+0x2b9>
    160a: 86 14        	stx	$14                     ; 0x2014 <parse+0x2a7>
    160c: a6 27        	ldx	$27                     ; 0x2027 <parse+0x2ba>
    160e: 86 15        	stx	$15                     ; 0x2015 <parse+0x2a8>
    1610: a2 00        	ldx	#$0
    1612: a9 02        	lda	#$2
    1614: 20 22 1c     	jsr	$1c22 <fileRead>
    1617: 18           	clc
    1618: a5 10        	lda	$10                     ; 0x2010 <parse+0x2a3>
    161a: 69 5c        	adc	#$5c
    161c: 85 2c        	sta	$2c                     ; 0x202c <parse+0x2bf>
    161e: a5 11        	lda	$11                     ; 0x2011 <parse+0x2a4>
    1620: 69 01        	adc	#$1
    1622: 85 2d        	sta	$2d                     ; 0x202d <parse+0x2c0>
    1624: a6 2c        	ldx	$2c                     ; 0x202c <parse+0x2bf>
    1626: 86 12        	stx	$12                     ; 0x2012 <parse+0x2a5>
    1628: 85 13        	sta	$13                     ; 0x2013 <parse+0x2a6>
    162a: a6 26        	ldx	$26                     ; 0x2026 <parse+0x2b9>
    162c: 86 14        	stx	$14                     ; 0x2014 <parse+0x2a7>
    162e: a6 27        	ldx	$27                     ; 0x2027 <parse+0x2ba>
    1630: 86 15        	stx	$15                     ; 0x2015 <parse+0x2a8>
    1632: a2 00        	ldx	#$0
    1634: a9 01        	lda	#$1
    1636: 20 22 1c     	jsr	$1c22 <fileRead>
    1639: a0 01        	ldy	#$1
    163b: b2 2c        	lda	($2c)                   ; 0x202c <parse+0x2bf>
    163d: 85 12        	sta	$12                     ; 0x2012 <parse+0x2a5>
    163f: b1 2c        	lda	($2c),y                 ; 0x202c <parse+0x2bf>
    1641: d0 07        	bne	$164a <main+0x10f1>
    1643: a5 12        	lda	$12                     ; 0x2012 <parse+0x2a5>
    1645: d0 03        	bne	$164a <main+0x10f1>
    1647: 4c 7e 17     	jmp	$177e <main+0x1225>
    164a: 5a           	phy
    164b: a5 24        	lda	$24                     ; 0x2024 <parse+0x2b7>
    164d: a0 0e        	ldy	#$e
    164f: 91 10        	sta	($10),y                 ; 0x2010 <parse+0x2a3>
    1651: a5 25        	lda	$25                     ; 0x2025 <parse+0x2b8>
    1653: c8           	iny
    1654: 91 10        	sta	($10),y                 ; 0x2010 <parse+0x2a3>
    1656: 18           	clc
    1657: a5 29        	lda	$29                     ; 0x2029 <parse+0x2bc>
    1659: 69 03        	adc	#$3
    165b: aa           	tax
    165c: 64 24        	stz	$24                     ; 0x2024 <parse+0x2b7>
    165e: a0 22        	ldy	#$22
    1660: b1 10        	lda	($10),y                 ; 0x2010 <parse+0x2a3>
    1662: 69 00        	adc	#$0
    1664: 85 14        	sta	$14                     ; 0x2014 <parse+0x2a7>
    1666: a5 28        	lda	$28                     ; 0x2028 <parse+0x2bb>
    1668: 69 00        	adc	#$0
    166a: 85 28        	sta	$28                     ; 0x2028 <parse+0x2bb>
    166c: c8           	iny
    166d: b1 10        	lda	($10),y                 ; 0x2010 <parse+0x2a3>
    166f: 7a           	ply
    1670: 69 00        	adc	#$0
    1672: 85 15        	sta	$15                     ; 0x2015 <parse+0x2a8>
    1674: 8a           	txa
    1675: 64 25        	stz	$25                     ; 0x2025 <parse+0x2b8>
    1677: a6 15        	ldx	$15                     ; 0x2015 <parse+0x2a8>
    1679: 86 29        	stx	$29                     ; 0x2029 <parse+0x2bc>
    167b: 84 21        	sty	$21                     ; 0x2021 <parse+0x2b4>
    167d: 48           	pha
    167e: a5 15        	lda	$15                     ; 0x2015 <parse+0x2a8>
    1680: a0 1c        	ldy	#$1c
    1682: 91 10        	sta	($10),y                 ; 0x2010 <parse+0x2a3>
    1684: a5 28        	lda	$28                     ; 0x2028 <parse+0x2bb>
    1686: 88           	dey
    1687: 91 10        	sta	($10),y                 ; 0x2010 <parse+0x2a3>
    1689: a6 14        	ldx	$14                     ; 0x2014 <parse+0x2a7>
    168b: 86 27        	stx	$27                     ; 0x2027 <parse+0x2ba>
    168d: a5 14        	lda	$14                     ; 0x2014 <parse+0x2a7>
    168f: 88           	dey
    1690: 91 10        	sta	($10),y                 ; 0x2010 <parse+0x2a3>
    1692: 68           	pla
    1693: 85 2b        	sta	$2b                     ; 0x202b <parse+0x2be>
    1695: 48           	pha
    1696: a0 1d        	ldy	#$1d
    1698: b1 10        	lda	($10),y                 ; 0x2010 <parse+0x2a3>
    169a: 85 12        	sta	$12                     ; 0x2012 <parse+0x2a5>
    169c: c8           	iny
    169d: b1 10        	lda	($10),y                 ; 0x2010 <parse+0x2a3>
    169f: 85 13        	sta	$13                     ; 0x2013 <parse+0x2a6>
    16a1: a0 20        	ldy	#$20
    16a3: b1 10        	lda	($10),y                 ; 0x2010 <parse+0x2a3>
    16a5: 85 14        	sta	$14                     ; 0x2014 <parse+0x2a7>
    16a7: c8           	iny
    16a8: b1 10        	lda	($10),y                 ; 0x2010 <parse+0x2a3>
    16aa: a4 21        	ldy	$21                     ; 0x2021 <parse+0x2b4>
    16ac: 85 15        	sta	$15                     ; 0x2015 <parse+0x2a8>
    16ae: 68           	pla
    16af: a2 00        	ldx	#$0
    16b1: 85 26        	sta	$26                     ; 0x2026 <parse+0x2b9>
    16b3: 98           	tya
    16b4: 20 22 1c     	jsr	$1c22 <fileRead>
    16b7: a6 25        	ldx	$25                     ; 0x2025 <parse+0x2b8>
    16b9: e6 24        	inc	$24                     ; 0x2024 <parse+0x2b7>
    16bb: d0 01        	bne	$16be <main+0x1165>
    16bd: e8           	inx
    16be: a0 01        	ldy	#$1
    16c0: b2 2c        	lda	($2c)                   ; 0x202c <parse+0x2bf>
    16c2: 85 13        	sta	$13                     ; 0x2013 <parse+0x2a6>
    16c4: b1 2c        	lda	($2c),y                 ; 0x202c <parse+0x2bf>
    16c6: 85 12        	sta	$12                     ; 0x2012 <parse+0x2a5>
    16c8: a5 26        	lda	$26                     ; 0x2026 <parse+0x2b9>
    16ca: 1a           	inc
    16cb: d0 0a        	bne	$16d7 <main+0x117e>
    16cd: e6 27        	inc	$27                     ; 0x2027 <parse+0x2ba>
    16cf: d0 06        	bne	$16d7 <main+0x117e>
    16d1: e6 28        	inc	$28                     ; 0x2028 <parse+0x2bb>
    16d3: d0 02        	bne	$16d7 <main+0x117e>
    16d5: e6 29        	inc	$29                     ; 0x2029 <parse+0x2bc>
    16d7: 5a           	phy
    16d8: a4 29        	ldy	$29                     ; 0x2029 <parse+0x2bc>
    16da: 84 15        	sty	$15                     ; 0x2015 <parse+0x2a8>
    16dc: a4 27        	ldy	$27                     ; 0x2027 <parse+0x2ba>
    16de: 84 14        	sty	$14                     ; 0x2014 <parse+0x2a7>
    16e0: 7a           	ply
    16e1: e4 12        	cpx	$12                     ; 0x2012 <parse+0x2a5>
    16e3: d0 0b        	bne	$16f0 <main+0x1197>
    16e5: 86 25        	stx	$25                     ; 0x2025 <parse+0x2b8>
    16e7: a6 24        	ldx	$24                     ; 0x2024 <parse+0x2b7>
    16e9: e4 13        	cpx	$13                     ; 0x2013 <parse+0x2a6>
    16eb: b0 0c        	bcs	$16f9 <main+0x11a0>
    16ed: 4c 77 16     	jmp	$1677 <main+0x111e>
    16f0: e4 12        	cpx	$12                     ; 0x2012 <parse+0x2a5>
    16f2: 86 25        	stx	$25                     ; 0x2025 <parse+0x2b8>
    16f4: b0 03        	bcs	$16f9 <main+0x11a0>
    16f6: 4c 77 16     	jmp	$1677 <main+0x111e>
    16f9: 18           	clc
    16fa: a5 2b        	lda	$2b                     ; 0x202b <parse+0x2be>
    16fc: 69 02        	adc	#$2
    16fe: 85 29        	sta	$29                     ; 0x2029 <parse+0x2bc>
    1700: a0 1a        	ldy	#$1a
    1702: b1 10        	lda	($10),y                 ; 0x2010 <parse+0x2a3>
    1704: 69 00        	adc	#$0
    1706: a0 22        	ldy	#$22
    1708: 91 10        	sta	($10),y                 ; 0x2010 <parse+0x2a3>
    170a: a0 1b        	ldy	#$1b
    170c: b1 10        	lda	($10),y                 ; 0x2010 <parse+0x2a3>
    170e: 69 00        	adc	#$0
    1710: 85 28        	sta	$28                     ; 0x2028 <parse+0x2bb>
    1712: c8           	iny
    1713: b1 10        	lda	($10),y                 ; 0x2010 <parse+0x2a3>
    1715: 69 00        	adc	#$0
    1717: a0 23        	ldy	#$23
    1719: 91 10        	sta	($10),y                 ; 0x2010 <parse+0x2a3>
    171b: a0 1f        	ldy	#$1f
    171d: b1 10        	lda	($10),y                 ; 0x2010 <parse+0x2a3>
    171f: aa           	tax
    1720: a0 0e        	ldy	#$e
    1722: b1 10        	lda	($10),y                 ; 0x2010 <parse+0x2a3>
    1724: 85 24        	sta	$24                     ; 0x2024 <parse+0x2b7>
    1726: c8           	iny
    1727: b1 10        	lda	($10),y                 ; 0x2010 <parse+0x2a3>
    1729: 85 25        	sta	$25                     ; 0x2025 <parse+0x2b8>
    172b: a5 12        	lda	$12                     ; 0x2012 <parse+0x2a5>
    172d: f0 03        	beq	$1732 <main+0x11d9>
    172f: 4c 9f 17     	jmp	$179f <main+0x1246>
    1732: a5 2a        	lda	$2a                     ; 0x202a <parse+0x2bd>
    1734: a4 13        	ldy	$13                     ; 0x2013 <parse+0x2a6>
    1736: c0 02        	cpy	#$2
    1738: f0 03        	beq	$173d <main+0x11e4>
    173a: 4c a1 17     	jmp	$17a1 <main+0x1248>
    173d: a0 1d        	ldy	#$1d
    173f: b1 10        	lda	($10),y                 ; 0x2010 <parse+0x2a3>
    1741: 85 12        	sta	$12                     ; 0x2012 <parse+0x2a5>
    1743: c8           	iny
    1744: b1 10        	lda	($10),y                 ; 0x2010 <parse+0x2a3>
    1746: 85 13        	sta	$13                     ; 0x2013 <parse+0x2a6>
    1748: a0 20        	ldy	#$20
    174a: b1 10        	lda	($10),y                 ; 0x2010 <parse+0x2a3>
    174c: 85 14        	sta	$14                     ; 0x2014 <parse+0x2a7>
    174e: c8           	iny
    174f: b1 10        	lda	($10),y                 ; 0x2010 <parse+0x2a3>
    1751: 85 15        	sta	$15                     ; 0x2015 <parse+0x2a8>
    1753: a2 00        	ldx	#$0
    1755: a9 01        	lda	#$1
    1757: 20 22 1c     	jsr	$1c22 <fileRead>
    175a: 18           	clc
    175b: a5 2b        	lda	$2b                     ; 0x202b <parse+0x2be>
    175d: 69 03        	adc	#$3
    175f: 85 29        	sta	$29                     ; 0x2029 <parse+0x2bc>
    1761: a0 1a        	ldy	#$1a
    1763: b1 10        	lda	($10),y                 ; 0x2010 <parse+0x2a3>
    1765: 69 00        	adc	#$0
    1767: aa           	tax
    1768: c8           	iny
    1769: b1 10        	lda	($10),y                 ; 0x2010 <parse+0x2a3>
    176b: 69 00        	adc	#$0
    176d: 85 28        	sta	$28                     ; 0x2028 <parse+0x2bb>
    176f: c8           	iny
    1770: b1 10        	lda	($10),y                 ; 0x2010 <parse+0x2a3>
    1772: 69 00        	adc	#$0
    1774: 48           	pha
    1775: 8a           	txa
    1776: a0 22        	ldy	#$22
    1778: 91 10        	sta	($10),y                 ; 0x2010 <parse+0x2a3>
    177a: 68           	pla
    177b: c8           	iny
    177c: 80 1a        	bra	$1798 <main+0x123f>
    177e: 18           	clc
    177f: a5 29        	lda	$29                     ; 0x2029 <parse+0x2bc>
    1781: 69 04        	adc	#$4
    1783: 85 29        	sta	$29                     ; 0x2029 <parse+0x2bc>
    1785: a0 22        	ldy	#$22
    1787: b1 10        	lda	($10),y                 ; 0x2010 <parse+0x2a3>
    1789: 69 00        	adc	#$0
    178b: 91 10        	sta	($10),y                 ; 0x2010 <parse+0x2a3>
    178d: a5 28        	lda	$28                     ; 0x2028 <parse+0x2bb>
    178f: 69 00        	adc	#$0
    1791: 85 28        	sta	$28                     ; 0x2028 <parse+0x2bb>
    1793: c8           	iny
    1794: b1 10        	lda	($10),y                 ; 0x2010 <parse+0x2a3>
    1796: 69 00        	adc	#$0
    1798: 91 10        	sta	($10),y                 ; 0x2010 <parse+0x2a3>
    179a: a0 1f        	ldy	#$1f
    179c: b1 10        	lda	($10),y                 ; 0x2010 <parse+0x2a3>
    179e: aa           	tax
    179f: a5 2a        	lda	$2a                     ; 0x202a <parse+0x2bd>
    17a1: e8           	inx
    17a2: d0 01        	bne	$17a5 <main+0x124c>
    17a4: 1a           	inc
    17a5: a0 01        	ldy	#$1
    17a7: d1 2e        	cmp	($2e),y                 ; 0x202e <parse+0x2c1>
    17a9: d0 0d        	bne	$17b8 <main+0x125f>
    17ab: 85 2a        	sta	$2a                     ; 0x202a <parse+0x2bd>
    17ad: b2 2e        	lda	($2e)                   ; 0x202e <parse+0x2c1>
    17af: 85 12        	sta	$12                     ; 0x2012 <parse+0x2a5>
    17b1: e4 12        	cpx	$12                     ; 0x2012 <parse+0x2a5>
    17b3: b0 0c        	bcs	$17c1 <main+0x1268>
    17b5: 4c d5 15     	jmp	$15d5 <main+0x107c>
    17b8: 85 2a        	sta	$2a                     ; 0x202a <parse+0x2bd>
    17ba: d1 2e        	cmp	($2e),y                 ; 0x202e <parse+0x2c1>
    17bc: b0 03        	bcs	$17c1 <main+0x1268>
    17be: 4c d5 15     	jmp	$15d5 <main+0x107c>
    17c1: a0 15        	ldy	#$15
    17c3: b1 10        	lda	($10),y                 ; 0x2010 <parse+0x2a3>
    17c5: aa           	tax
    17c6: 88           	dey
    17c7: b1 10        	lda	($10),y                 ; 0x2010 <parse+0x2a3>
    17c9: e8           	inx
    17ca: d0 01        	bne	$17cd <main+0x1274>
    17cc: 1a           	inc
    17cd: 85 26        	sta	$26                     ; 0x2026 <parse+0x2b9>
    17cf: a0 01        	ldy	#$1
    17d1: d1 24        	cmp	($24),y                 ; 0x2024 <parse+0x2b7>
    17d3: d0 0b        	bne	$17e0 <main+0x1287>
    17d5: b2 24        	lda	($24)                   ; 0x2024 <parse+0x2b7>
    17d7: 85 12        	sta	$12                     ; 0x2012 <parse+0x2a5>
    17d9: e4 12        	cpx	$12                     ; 0x2012 <parse+0x2a5>
    17db: b0 0a        	bcs	$17e7 <main+0x128e>
    17dd: 4c 4a 15     	jmp	$154a <main+0xff1>
    17e0: d1 24        	cmp	($24),y                 ; 0x2024 <parse+0x2b7>
    17e2: b0 03        	bcs	$17e7 <main+0x128e>
    17e4: 4c 4a 15     	jmp	$154a <main+0xff1>
    17e7: a0 20        	ldy	#$20
    17e9: b1 10        	lda	($10),y                 ; 0x2010 <parse+0x2a3>
    17eb: 85 12        	sta	$12                     ; 0x2012 <parse+0x2a5>
    17ed: c8           	iny
    17ee: b1 10        	lda	($10),y                 ; 0x2010 <parse+0x2a3>
    17f0: 85 13        	sta	$13                     ; 0x2013 <parse+0x2a6>
    17f2: 20 44 19     	jsr	$1944 <fileClose>
    17f5: 38           	sec
    17f6: a0 13        	ldy	#$13
    17f8: b1 10        	lda	($10),y                 ; 0x2010 <parse+0x2a3>
    17fa: 85 12        	sta	$12                     ; 0x2012 <parse+0x2a5>
    17fc: a5 29        	lda	$29                     ; 0x2029 <parse+0x2bc>
    17fe: e5 12        	sbc	$12                     ; 0x2012 <parse+0x2a5>
    1800: aa           	tax
    1801: 88           	dey
    1802: b1 10        	lda	($10),y                 ; 0x2010 <parse+0x2a3>
    1804: 85 12        	sta	$12                     ; 0x2012 <parse+0x2a5>
    1806: a0 22        	ldy	#$22
    1808: b1 10        	lda	($10),y                 ; 0x2010 <parse+0x2a3>
    180a: e5 12        	sbc	$12                     ; 0x2012 <parse+0x2a5>
    180c: 85 13        	sta	$13                     ; 0x2013 <parse+0x2a6>
    180e: a0 10        	ldy	#$10
    1810: b1 10        	lda	($10),y                 ; 0x2010 <parse+0x2a3>
    1812: 85 12        	sta	$12                     ; 0x2012 <parse+0x2a5>
    1814: a5 28        	lda	$28                     ; 0x2028 <parse+0x2bb>
    1816: e5 12        	sbc	$12                     ; 0x2012 <parse+0x2a5>
    1818: 85 16        	sta	$16                     ; 0x2016 <parse+0x2a9>
    181a: c8           	iny
    181b: b1 10        	lda	($10),y                 ; 0x2010 <parse+0x2a3>
    181d: 85 12        	sta	$12                     ; 0x2012 <parse+0x2a5>
    181f: a0 23        	ldy	#$23
    1821: b1 10        	lda	($10),y                 ; 0x2010 <parse+0x2a3>
    1823: e5 12        	sbc	$12                     ; 0x2012 <parse+0x2a5>
    1825: 85 12        	sta	$12                     ; 0x2012 <parse+0x2a5>
    1827: 8a           	txa
    1828: 92 10        	sta	($10)                   ; 0x2010 <parse+0x2a3>
    182a: a0 01        	ldy	#$1
    182c: a5 13        	lda	$13                     ; 0x2013 <parse+0x2a6>
    182e: 91 10        	sta	($10),y                 ; 0x2010 <parse+0x2a3>
    1830: c8           	iny
    1831: a5 16        	lda	$16                     ; 0x2016 <parse+0x2a9>
    1833: 91 10        	sta	($10),y                 ; 0x2010 <parse+0x2a3>
    1835: c8           	iny
    1836: a5 12        	lda	$12                     ; 0x2012 <parse+0x2a5>
    1838: 91 10        	sta	($10),y                 ; 0x2010 <parse+0x2a3>
    183a: a2 c6        	ldx	#$c6
    183c: 86 12        	stx	$12                     ; 0x2012 <parse+0x2a5>
    183e: a2 63        	ldx	#$63
    1840: 86 13        	stx	$13                     ; 0x2013 <parse+0x2a6>
    1842: 20 8a 38     	jsr	$388a <printf>
    1845: a2 34        	ldx	#$34
    1847: 86 12        	stx	$12                     ; 0x2012 <parse+0x2a5>
    1849: a2 00        	ldx	#$0
    184b: 86 13        	stx	$13                     ; 0x2013 <parse+0x2a6>
    184d: 64 35        	stz	$35                     ; 0x2035 <parse+0x2c8>
    184f: 18           	clc
    1850: a5 10        	lda	$10                     ; 0x2010 <parse+0x2a3>
    1852: 69 62        	adc	#$62
    1854: 85 14        	sta	$14                     ; 0x2014 <parse+0x2a7>
    1856: a5 11        	lda	$11                     ; 0x2011 <parse+0x2a4>
    1858: 69 01        	adc	#$1
    185a: 85 15        	sta	$15                     ; 0x2015 <parse+0x2a8>
    185c: 20 00 ff     	jsr	$ff00 <__heap_start+0x9a9c>
    185f: 92 14        	sta	($14)                   ; 0x2014 <parse+0x2a7>
    1861: a9 00        	lda	#$0
    1863: 6a           	ror
    1864: 85 12        	sta	$12                     ; 0x2012 <parse+0x2a5>
    1866: a6 35        	ldx	$35                     ; 0x2035 <parse+0x2c8>
    1868: e0 08        	cpx	#$8
    186a: d0 e1        	bne	$184d <main+0x12f4>
    186c: a6 39        	ldx	$39                     ; 0x2039 <parse+0x2cc>
    186e: e0 20        	cpx	#$20
    1870: f0 04        	beq	$1876 <main+0x131d>
    1872: e0 94        	cpx	#$94
    1874: d0 d7        	bne	$184d <main+0x12f4>
    1876: a2 f7        	ldx	#$f7
    1878: 86 12        	stx	$12                     ; 0x2012 <parse+0x2a5>
    187a: a2 63        	ldx	#$63
    187c: 86 13        	stx	$13                     ; 0x2013 <parse+0x2a6>
    187e: 20 25 46     	jsr	$4625 <puts>
    1881: 64 35        	stz	$35                     ; 0x2035 <parse+0x2c8>
    1883: a2 34        	ldx	#$34
    1885: 86 12        	stx	$12                     ; 0x2012 <parse+0x2a5>
    1887: a2 00        	ldx	#$0
    1889: 86 13        	stx	$13                     ; 0x2013 <parse+0x2a6>
    188b: 20 00 ff     	jsr	$ff00 <__heap_start+0x9a9c>
    188e: 92 24        	sta	($24)                   ; 0x2024 <parse+0x2b7>
    1890: a9 00        	lda	#$0
    1892: 6a           	ror
    1893: 85 12        	sta	$12                     ; 0x2012 <parse+0x2a5>
    1895: a6 35        	ldx	$35                     ; 0x2035 <parse+0x2c8>
    1897: e0 08        	cpx	#$8
    1899: d0 e6        	bne	$1881 <main+0x1328>
    189b: a6 39        	ldx	$39                     ; 0x2039 <parse+0x2cc>
    189d: e0 20        	cpx	#$20
    189f: f0 04        	beq	$18a5 <main+0x134c>
    18a1: e0 94        	cpx	#$94
    18a3: d0 dc        	bne	$1881 <main+0x1328>
    18a5: 78           	sei
    18a6: a2 07        	ldx	#$7
    18a8: 86 0f        	stx	$f                      ; 0x200f <parse+0x2a2>
    18aa: a2 de        	ldx	#$de
    18ac: 8e a2 d6     	stx	$d6a2                   ; 0xd6a2 <__heap_start+0x723e>
    18af: a2 ad        	ldx	#$ad
    18b1: 8e a3 d6     	stx	$d6a3                   ; 0xd6a3 <__heap_start+0x723f>
    18b4: a2 f0        	ldx	#$f0
    18b6: 8e a0 d6     	stx	$d6a0                   ; 0xd6a0 <__heap_start+0x723c>
    18b9: 9c a0 d6     	stz	$d6a0                   ; 0xd6a0 <__heap_start+0x723c>
    18bc: 6c fc ff     	jmp	($fffc)                 ; 0xfffc <__heap_start+0x9b98>
    18bf: a2 00        	ldx	#$0
    18c1: 8a           	txa
    18c2: 85 20        	sta	$20                     ; 0x2020 <parse+0x2b3>
    18c4: a0 06        	ldy	#$6
    18c6: b1 10        	lda	($10),y                 ; 0x2010 <parse+0x2a3>
    18c8: 85 2f        	sta	$2f                     ; 0x202f <parse+0x2c2>
    18ca: c8           	iny
    18cb: b1 10        	lda	($10),y                 ; 0x2010 <parse+0x2a3>
    18cd: 85 2e        	sta	$2e                     ; 0x202e <parse+0x2c1>
    18cf: c8           	iny
    18d0: b1 10        	lda	($10),y                 ; 0x2010 <parse+0x2a3>
    18d2: 85 2d        	sta	$2d                     ; 0x202d <parse+0x2c0>
    18d4: c8           	iny
    18d5: b1 10        	lda	($10),y                 ; 0x2010 <parse+0x2a3>
    18d7: 85 2c        	sta	$2c                     ; 0x202c <parse+0x2bf>
    18d9: c8           	iny
    18da: b1 10        	lda	($10),y                 ; 0x2010 <parse+0x2a3>
    18dc: 85 2b        	sta	$2b                     ; 0x202b <parse+0x2be>
    18de: c8           	iny
    18df: b1 10        	lda	($10),y                 ; 0x2010 <parse+0x2a3>
    18e1: 85 2a        	sta	$2a                     ; 0x202a <parse+0x2bd>
    18e3: c8           	iny
    18e4: b1 10        	lda	($10),y                 ; 0x2010 <parse+0x2a3>
    18e6: 85 29        	sta	$29                     ; 0x2029 <parse+0x2bc>
    18e8: c8           	iny
    18e9: b1 10        	lda	($10),y                 ; 0x2010 <parse+0x2a3>
    18eb: 85 28        	sta	$28                     ; 0x2028 <parse+0x2bb>
    18ed: 7a           	ply
    18ee: 84 27        	sty	$27                     ; 0x2027 <parse+0x2ba>
    18f0: 7a           	ply
    18f1: 84 26        	sty	$26                     ; 0x2026 <parse+0x2b9>
    18f3: 7a           	ply
    18f4: 84 25        	sty	$25                     ; 0x2025 <parse+0x2b8>
    18f6: 7a           	ply
    18f7: 84 24        	sty	$24                     ; 0x2024 <parse+0x2b7>
    18f9: 18           	clc
    18fa: a5 10        	lda	$10                     ; 0x2010 <parse+0x2a3>
    18fc: 69 63        	adc	#$63
    18fe: 85 10        	sta	$10                     ; 0x2010 <parse+0x2a3>
    1900: a5 11        	lda	$11                     ; 0x2011 <parse+0x2a4>
    1902: 69 01        	adc	#$1
    1904: 85 11        	sta	$11                     ; 0x2011 <parse+0x2a4>
    1906: a5 20        	lda	$20                     ; 0x2020 <parse+0x2b3>
    1908: 60           	rts
    1909: a2 76        	ldx	#$76
    190b: 86 12        	stx	$12                     ; 0x2012 <parse+0x2a5>
    190d: a2 63        	ldx	#$63
    190f: 86 13        	stx	$13                     ; 0x2013 <parse+0x2a6>
    1911: 20 25 46     	jsr	$4625 <puts>
    1914: 64 12        	stz	$12                     ; 0x2012 <parse+0x2a5>
    1916: a6 28        	ldx	$28                     ; 0x2028 <parse+0x2bb>
    1918: 86 14        	stx	$14                     ; 0x2014 <parse+0x2a7>
    191a: a6 29        	ldx	$29                     ; 0x2029 <parse+0x2bc>
    191c: 86 15        	stx	$15                     ; 0x2015 <parse+0x2a8>
    191e: a6 2e        	ldx	$2e                     ; 0x202e <parse+0x2c1>
    1920: 86 16        	stx	$16                     ; 0x2016 <parse+0x2a9>
    1922: a6 2f        	ldx	$2f                     ; 0x202f <parse+0x2c2>
    1924: 86 17        	stx	$17                     ; 0x2017 <parse+0x2aa>
    1926: a0 23        	ldy	#$23
    1928: b1 10        	lda	($10),y                 ; 0x2010 <parse+0x2a3>
    192a: aa           	tax
    192b: a5 26        	lda	$26                     ; 0x2026 <parse+0x2b9>
    192d: 20 6d 1d     	jsr	$1d6d <parse>
    1930: a6 2e        	ldx	$2e                     ; 0x202e <parse+0x2c1>
    1932: 86 26        	stx	$26                     ; 0x2026 <parse+0x2b9>
    1934: a6 2f        	ldx	$2f                     ; 0x202f <parse+0x2c2>
    1936: 86 27        	stx	$27                     ; 0x2027 <parse+0x2ba>
    1938: 4c ed 12     	jmp	$12ed <main+0xd94>
    193b: a8           	tay
    193c: d0 03        	bne	$1941 <main+0x13e8>
    193e: 4c 92 0c     	jmp	$c92 <main+0x739>
    1941: 4c d4 0b     	jmp	$bd4 <main+0x67b>

00001944 <fileClose>:
    1944: a6 12        	ldx	$12                     ; 0x2012 <parse+0x2a5>
    1946: 86 14        	stx	$14                     ; 0x2014 <parse+0x2a7>
    1948: a6 13        	ldx	$13                     ; 0x2013 <parse+0x2a6>
    194a: 86 15        	stx	$15                     ; 0x2015 <parse+0x2a8>
    194c: a2 00        	ldx	#$0
    194e: a0 10        	ldy	#$10
    1950: a9 64        	lda	#$64
    1952: 86 12        	stx	$12                     ; 0x2012 <parse+0x2a5>
    1954: 84 13        	sty	$13                     ; 0x2013 <parse+0x2a6>
    1956: 18           	clc
    1957: 65 12        	adc	$12                     ; 0x2012 <parse+0x2a5>
    1959: 85 16        	sta	$16                     ; 0x2016 <parse+0x2a9>
    195b: a9 64        	lda	#$64
    195d: 65 13        	adc	$13                     ; 0x2013 <parse+0x2a6>
    195f: 85 17        	sta	$17                     ; 0x2017 <parse+0x2aa>
    1961: b2 14        	lda	($14)                   ; 0x2014 <parse+0x2a7>
    1963: 85 f3        	sta	$f3                     ; 0x20f3 <parse+0x386>
    1965: a2 41        	ldx	#$41
    1967: a0 00        	ldy	#$0
    1969: 86 12        	stx	$12                     ; 0x2012 <parse+0x2a5>
    196b: 84 13        	sty	$13                     ; 0x2013 <parse+0x2a6>
    196d: a2 34        	ldx	#$34
    196f: 86 18        	stx	$18                     ; 0x2018 <parse+0x2ab>
    1971: a2 00        	ldx	#$0
    1973: 86 19        	stx	$19                     ; 0x2019 <parse+0x2ac>
    1975: a5 14        	lda	$14                     ; 0x2014 <parse+0x2a7>
    1977: 18           	clc
    1978: 69 fe        	adc	#$fe
    197a: 85 1a        	sta	$1a                     ; 0x201a <parse+0x2ad>
    197c: a5 15        	lda	$15                     ; 0x2015 <parse+0x2a8>
    197e: 69 ff        	adc	#$ff
    1980: a6 1a        	ldx	$1a                     ; 0x201a <parse+0x2ad>
    1982: 86 3c        	stx	$3c                     ; 0x203c <parse+0x2cf>
    1984: aa           	tax
    1985: 85 3d        	sta	$3d                     ; 0x203d <parse+0x2d0>
    1987: 20 68 ff     	jsr	$ff68 <__heap_start+0x9b04>
    198a: 92 12        	sta	($12)                   ; 0x2012 <parse+0x2a5>
    198c: a9 00        	lda	#$0
    198e: 6a           	ror
    198f: 85 18        	sta	$18                     ; 0x2018 <parse+0x2ab>
    1991: b2 3c        	lda	($3c)                   ; 0x203c <parse+0x2cf>
    1993: 85 18        	sta	$18                     ; 0x2018 <parse+0x2ab>
    1995: a0 01        	ldy	#$1
    1997: b1 3c        	lda	($3c),y                 ; 0x203c <parse+0x2cf>
    1999: 85 3e        	sta	$3e                     ; 0x203e <parse+0x2d1>
    199b: a9 fe        	lda	#$fe
    199d: 32 3c        	and	($3c)                   ; 0x203c <parse+0x2cf>
    199f: 85 3f        	sta	$3f                     ; 0x203f <parse+0x2d2>
    19a1: a4 1a        	ldy	$1a                     ; 0x201a <parse+0x2ad>
    19a3: 84 19        	sty	$19                     ; 0x2019 <parse+0x2ac>
    19a5: a5 1a        	lda	$1a                     ; 0x201a <parse+0x2ad>
    19a7: 18           	clc
    19a8: 65 3f        	adc	$3f                     ; 0x203f <parse+0x2d2>
    19aa: 85 12        	sta	$12                     ; 0x2012 <parse+0x2a5>
    19ac: 8a           	txa
    19ad: 86 1a        	stx	$1a                     ; 0x201a <parse+0x2ad>
    19af: 65 3e        	adc	$3e                     ; 0x203e <parse+0x2d1>
    19b1: c5 17        	cmp	$17                     ; 0x2017 <parse+0x2aa>
    19b3: d0 10        	bne	$19c5 <fileClose+0x81>
    19b5: a6 12        	ldx	$12                     ; 0x2012 <parse+0x2a5>
    19b7: e4 16        	cpx	$16                     ; 0x2016 <parse+0x2a9>
    19b9: d0 0a        	bne	$19c5 <fileClose+0x81>
    19bb: a2 00        	ldx	#$0
    19bd: 86 12        	stx	$12                     ; 0x2012 <parse+0x2a5>
    19bf: a2 00        	ldx	#$0
    19c1: 86 13        	stx	$13                     ; 0x2013 <parse+0x2a6>
    19c3: 80 02        	bra	$19c7 <fileClose+0x83>
    19c5: 85 13        	sta	$13                     ; 0x2013 <parse+0x2a6>
    19c7: a5 18        	lda	$18                     ; 0x2018 <parse+0x2ab>
    19c9: 29 01        	and	#$1
    19cb: d0 03        	bne	$19d0 <fileClose+0x8c>
    19cd: 4c 4b 1a     	jmp	$1a4b <fileClose+0x107>
    19d0: a5 14        	lda	$14                     ; 0x2014 <parse+0x2a7>
    19d2: 18           	clc
    19d3: 69 fc        	adc	#$fc
    19d5: 85 14        	sta	$14                     ; 0x2014 <parse+0x2a7>
    19d7: a5 15        	lda	$15                     ; 0x2015 <parse+0x2a8>
    19d9: 69 ff        	adc	#$ff
    19db: 85 15        	sta	$15                     ; 0x2015 <parse+0x2a8>
    19dd: a0 01        	ldy	#$1
    19df: 38           	sec
    19e0: a9 00        	lda	#$0
    19e2: f2 14        	sbc	($14)                   ; 0x2014 <parse+0x2a7>
    19e4: 85 18        	sta	$18                     ; 0x2018 <parse+0x2ab>
    19e6: a9 00        	lda	#$0
    19e8: f1 14        	sbc	($14),y                 ; 0x2014 <parse+0x2a7>
    19ea: 85 14        	sta	$14                     ; 0x2014 <parse+0x2a7>
    19ec: a5 19        	lda	$19                     ; 0x2019 <parse+0x2ac>
    19ee: 18           	clc
    19ef: 65 18        	adc	$18                     ; 0x2018 <parse+0x2ab>
    19f1: 85 3c        	sta	$3c                     ; 0x203c <parse+0x2cf>
    19f3: a5 1a        	lda	$1a                     ; 0x201a <parse+0x2ad>
    19f5: 65 14        	adc	$14                     ; 0x2014 <parse+0x2a7>
    19f7: 85 3d        	sta	$3d                     ; 0x203d <parse+0x2d0>
    19f9: b1 3c        	lda	($3c),y                 ; 0x203c <parse+0x2cf>
    19fb: 85 45        	sta	$45                     ; 0x2045 <parse+0x2d8>
    19fd: a9 fe        	lda	#$fe
    19ff: 32 3c        	and	($3c)                   ; 0x203c <parse+0x2cf>
    1a01: 85 40        	sta	$40                     ; 0x2040 <parse+0x2d3>
    1a03: a6 3e        	ldx	$3e                     ; 0x203e <parse+0x2d1>
    1a05: 86 46        	stx	$46                     ; 0x2046 <parse+0x2d9>
    1a07: a6 3f        	ldx	$3f                     ; 0x203f <parse+0x2d2>
    1a09: 86 47        	stx	$47                     ; 0x2047 <parse+0x2da>
    1a0b: a6 12        	ldx	$12                     ; 0x2012 <parse+0x2a5>
    1a0d: 86 43        	stx	$43                     ; 0x2043 <parse+0x2d6>
    1a0f: a6 13        	ldx	$13                     ; 0x2013 <parse+0x2a6>
    1a11: 86 44        	stx	$44                     ; 0x2044 <parse+0x2d7>
    1a13: a6 3c        	ldx	$3c                     ; 0x203c <parse+0x2cf>
    1a15: 86 12        	stx	$12                     ; 0x2012 <parse+0x2a5>
    1a17: a6 3d        	ldx	$3d                     ; 0x203d <parse+0x2d0>
    1a19: 86 13        	stx	$13                     ; 0x2013 <parse+0x2a6>
    1a1b: a6 16        	ldx	$16                     ; 0x2016 <parse+0x2a9>
    1a1d: 86 3e        	stx	$3e                     ; 0x203e <parse+0x2d1>
    1a1f: a6 17        	ldx	$17                     ; 0x2017 <parse+0x2aa>
    1a21: 86 3f        	stx	$3f                     ; 0x203f <parse+0x2d2>
    1a23: 20 54 04     	jsr	$454 <_ZN12_GLOBAL__N_19FreeChunk6removeEv>
    1a26: a6 3f        	ldx	$3f                     ; 0x203f <parse+0x2d2>
    1a28: 86 17        	stx	$17                     ; 0x2017 <parse+0x2aa>
    1a2a: a6 3e        	ldx	$3e                     ; 0x203e <parse+0x2d1>
    1a2c: 86 16        	stx	$16                     ; 0x2016 <parse+0x2a9>
    1a2e: a6 43        	ldx	$43                     ; 0x2043 <parse+0x2d6>
    1a30: 86 12        	stx	$12                     ; 0x2012 <parse+0x2a5>
    1a32: a6 44        	ldx	$44                     ; 0x2044 <parse+0x2d7>
    1a34: 86 13        	stx	$13                     ; 0x2013 <parse+0x2a6>
    1a36: 18           	clc
    1a37: a5 40        	lda	$40                     ; 0x2040 <parse+0x2d3>
    1a39: a6 47        	ldx	$47                     ; 0x2047 <parse+0x2da>
    1a3b: 86 14        	stx	$14                     ; 0x2014 <parse+0x2a7>
    1a3d: 65 14        	adc	$14                     ; 0x2014 <parse+0x2a7>
    1a3f: 85 3f        	sta	$3f                     ; 0x203f <parse+0x2d2>
    1a41: a5 45        	lda	$45                     ; 0x2045 <parse+0x2d8>
    1a43: a6 46        	ldx	$46                     ; 0x2046 <parse+0x2d9>
    1a45: 86 14        	stx	$14                     ; 0x2014 <parse+0x2a7>
    1a47: 65 14        	adc	$14                     ; 0x2014 <parse+0x2a7>
    1a49: 85 3e        	sta	$3e                     ; 0x203e <parse+0x2d1>
    1a4b: a2 00        	ldx	#$0
    1a4d: 86 14        	stx	$14                     ; 0x2014 <parse+0x2a7>
    1a4f: a2 00        	ldx	#$0
    1a51: 86 15        	stx	$15                     ; 0x2015 <parse+0x2a8>
    1a53: a6 13        	ldx	$13                     ; 0x2013 <parse+0x2a6>
    1a55: e4 15        	cpx	$15                     ; 0x2015 <parse+0x2a8>
    1a57: d0 0d        	bne	$1a66 <fileClose+0x122>
    1a59: a6 12        	ldx	$12                     ; 0x2012 <parse+0x2a5>
    1a5b: e4 14        	cpx	$14                     ; 0x2014 <parse+0x2a7>
    1a5d: d0 07        	bne	$1a66 <fileClose+0x122>
    1a5f: a2 01        	ldx	#$1
    1a61: 8e 5e 64     	stx	$645e                   ; 0x645e <_ZN12_GLOBAL__N_19last_freeE>
    1a64: 80 48        	bra	$1aae <fileClose+0x16a>
    1a66: a0 01        	ldy	#$1
    1a68: b1 12        	lda	($12),y                 ; 0x2012 <parse+0x2a5>
    1a6a: a8           	tay
    1a6b: a9 fe        	lda	#$fe
    1a6d: 32 12        	and	($12)                   ; 0x2012 <parse+0x2a5>
    1a6f: 18           	clc
    1a70: 85 43        	sta	$43                     ; 0x2043 <parse+0x2d6>
    1a72: 65 12        	adc	$12                     ; 0x2012 <parse+0x2a5>
    1a74: 85 14        	sta	$14                     ; 0x2014 <parse+0x2a7>
    1a76: 98           	tya
    1a77: 84 40        	sty	$40                     ; 0x2040 <parse+0x2d3>
    1a79: 65 13        	adc	$13                     ; 0x2013 <parse+0x2a6>
    1a7b: c5 17        	cmp	$17                     ; 0x2017 <parse+0x2aa>
    1a7d: d0 0f        	bne	$1a8e <fileClose+0x14a>
    1a7f: a6 14        	ldx	$14                     ; 0x2014 <parse+0x2a7>
    1a81: e4 16        	cpx	$16                     ; 0x2016 <parse+0x2a9>
    1a83: d0 09        	bne	$1a8e <fileClose+0x14a>
    1a85: a9 01        	lda	#$1
    1a87: 64 14        	stz	$14                     ; 0x2014 <parse+0x2a7>
    1a89: 2d 5e 64     	and	$645e                   ; 0x645e <_ZN12_GLOBAL__N_19last_freeE>
    1a8c: 80 08        	bra	$1a96 <fileClose+0x152>
    1a8e: 85 15        	sta	$15                     ; 0x2015 <parse+0x2a8>
    1a90: a9 01        	lda	#$1
    1a92: 32 14        	and	($14)                   ; 0x2014 <parse+0x2a7>
    1a94: 64 14        	stz	$14                     ; 0x2014 <parse+0x2a7>
    1a96: a6 14        	ldx	$14                     ; 0x2014 <parse+0x2a7>
    1a98: d0 03        	bne	$1a9d <fileClose+0x159>
    1a9a: aa           	tax
    1a9b: f0 47        	beq	$1ae4 <fileClose+0x1a0>
    1a9d: 20 54 04     	jsr	$454 <_ZN12_GLOBAL__N_19FreeChunk6removeEv>
    1aa0: 18           	clc
    1aa1: a6 43        	ldx	$43                     ; 0x2043 <parse+0x2d6>
    1aa3: 8a           	txa
    1aa4: 65 3f        	adc	$3f                     ; 0x203f <parse+0x2d2>
    1aa6: 85 3f        	sta	$3f                     ; 0x203f <parse+0x2d2>
    1aa8: a5 40        	lda	$40                     ; 0x2040 <parse+0x2d3>
    1aaa: 65 3e        	adc	$3e                     ; 0x203e <parse+0x2d1>
    1aac: 85 3e        	sta	$3e                     ; 0x203e <parse+0x2d1>
    1aae: a6 3c        	ldx	$3c                     ; 0x203c <parse+0x2cf>
    1ab0: 86 12        	stx	$12                     ; 0x2012 <parse+0x2a5>
    1ab2: a6 3d        	ldx	$3d                     ; 0x203d <parse+0x2d0>
    1ab4: 86 13        	stx	$13                     ; 0x2013 <parse+0x2a6>
    1ab6: a6 3e        	ldx	$3e                     ; 0x203e <parse+0x2d1>
    1ab8: a5 3f        	lda	$3f                     ; 0x203f <parse+0x2d2>
    1aba: 20 16 03     	jsr	$316 <_ZN12_GLOBAL__N_19FreeChunk6insertEPvj>
    1abd: a2 42        	ldx	#$42
    1abf: a0 00        	ldy	#$0
    1ac1: 86 12        	stx	$12                     ; 0x2012 <parse+0x2a5>
    1ac3: 84 13        	sty	$13                     ; 0x2013 <parse+0x2a6>
    1ac5: a2 34        	ldx	#$34
    1ac7: 86 14        	stx	$14                     ; 0x2014 <parse+0x2a7>
    1ac9: a2 00        	ldx	#$0
    1acb: 86 15        	stx	$15                     ; 0x2015 <parse+0x2a8>
    1acd: 64 35        	stz	$35                     ; 0x2035 <parse+0x2c8>
    1acf: 20 00 ff     	jsr	$ff00 <__heap_start+0x9a9c>
    1ad2: 92 12        	sta	($12)                   ; 0x2012 <parse+0x2a5>
    1ad4: a9 00        	lda	#$0
    1ad6: 6a           	ror
    1ad7: 85 14        	sta	$14                     ; 0x2014 <parse+0x2a7>
    1ad9: a6 35        	ldx	$35                     ; 0x2035 <parse+0x2c8>
    1adb: e0 38        	cpx	#$38
    1add: f0 04        	beq	$1ae3 <fileClose+0x19f>
    1adf: e0 32        	cpx	#$32
    1ae1: d0 ea        	bne	$1acd <fileClose+0x189>
    1ae3: 60           	rts
    1ae4: b2 12        	lda	($12)                   ; 0x2012 <parse+0x2a5>
    1ae6: 09 01        	ora	#$1
    1ae8: 92 12        	sta	($12)                   ; 0x2012 <parse+0x2a5>
    1aea: a0 01        	ldy	#$1
    1aec: a5 40        	lda	$40                     ; 0x2040 <parse+0x2d3>
    1aee: 91 12        	sta	($12),y                 ; 0x2012 <parse+0x2a5>
    1af0: 80 bc        	bra	$1aae <fileClose+0x16a>

00001af2 <fileOpen>:
    1af2: b2 12        	lda	($12)                   ; 0x2012 <parse+0x2a5>
    1af4: d0 03        	bne	$1af9 <fileOpen+0x7>
    1af6: 4c 56 1b     	jmp	$1b56 <fileOpen+0x64>
    1af9: 85 16        	sta	$16                     ; 0x2016 <parse+0x2a9>
    1afb: a0 00        	ldy	#$0
    1afd: a2 00        	ldx	#$0
    1aff: 86 14        	stx	$14                     ; 0x2014 <parse+0x2a7>
    1b01: 98           	tya
    1b02: c8           	iny
    1b03: d0 01        	bne	$1b06 <fileOpen+0x14>
    1b05: e8           	inx
    1b06: 18           	clc
    1b07: 65 12        	adc	$12                     ; 0x2012 <parse+0x2a5>
    1b09: 85 18        	sta	$18                     ; 0x2018 <parse+0x2ab>
    1b0b: a5 14        	lda	$14                     ; 0x2014 <parse+0x2a7>
    1b0d: 65 13        	adc	$13                     ; 0x2013 <parse+0x2a6>
    1b0f: 84 17        	sty	$17                     ; 0x2017 <parse+0x2aa>
    1b11: a4 18        	ldy	$18                     ; 0x2018 <parse+0x2ab>
    1b13: 84 14        	sty	$14                     ; 0x2014 <parse+0x2a7>
    1b15: 85 15        	sta	$15                     ; 0x2015 <parse+0x2a8>
    1b17: a0 01        	ldy	#$1
    1b19: b1 14        	lda	($14),y                 ; 0x2014 <parse+0x2a7>
    1b1b: a4 17        	ldy	$17                     ; 0x2017 <parse+0x2aa>
    1b1d: c9 00        	cmp	#$0
    1b1f: d0 de        	bne	$1aff <fileOpen+0xd>
    1b21: 8a           	txa
    1b22: d0 06        	bne	$1b2a <fileOpen+0x38>
    1b24: c0 02        	cpy	#$2
    1b26: b0 06        	bcs	$1b2e <fileOpen+0x3c>
    1b28: 80 2c        	bra	$1b56 <fileOpen+0x64>
    1b2a: e0 00        	cpx	#$0
    1b2c: 90 28        	bcc	$1b56 <fileOpen+0x64>
    1b2e: a0 01        	ldy	#$1
    1b30: b1 12        	lda	($12),y                 ; 0x2012 <parse+0x2a5>
    1b32: c9 3a        	cmp	#$3a
    1b34: d0 20        	bne	$1b56 <fileOpen+0x64>
    1b36: a5 16        	lda	$16                     ; 0x2016 <parse+0x2a9>
    1b38: c9 30        	cmp	#$30
    1b3a: 64 19        	stz	$19                     ; 0x2019 <parse+0x2ac>
    1b3c: 90 09        	bcc	$1b47 <fileOpen+0x55>
    1b3e: c9 38        	cmp	#$38
    1b40: b0 05        	bcs	$1b47 <fileOpen+0x55>
    1b42: 18           	clc
    1b43: 69 d0        	adc	#$d0
    1b45: 85 19        	sta	$19                     ; 0x2019 <parse+0x2ac>
    1b47: a5 12        	lda	$12                     ; 0x2012 <parse+0x2a5>
    1b49: 18           	clc
    1b4a: 69 02        	adc	#$2
    1b4c: 85 12        	sta	$12                     ; 0x2012 <parse+0x2a5>
    1b4e: a5 13        	lda	$13                     ; 0x2013 <parse+0x2a6>
    1b50: 69 00        	adc	#$0
    1b52: 85 13        	sta	$13                     ; 0x2013 <parse+0x2a6>
    1b54: 80 02        	bra	$1b58 <fileOpen+0x66>
    1b56: 64 19        	stz	$19                     ; 0x2019 <parse+0x2ac>
    1b58: a2 f5        	ldx	#$f5
    1b5a: 86 14        	stx	$14                     ; 0x2014 <parse+0x2a7>
    1b5c: a2 63        	ldx	#$63
    1b5e: 86 15        	stx	$15                     ; 0x2015 <parse+0x2a8>
    1b60: 64 16        	stz	$16                     ; 0x2016 <parse+0x2a9>
    1b62: 80 0a        	bra	$1b6e <fileOpen+0x7c>
    1b64: a0 02        	ldy	#$2
    1b66: e6 14        	inc	$14                     ; 0x2014 <parse+0x2a7>
    1b68: d0 02        	bne	$1b6c <fileOpen+0x7a>
    1b6a: e6 15        	inc	$15                     ; 0x2015 <parse+0x2a8>
    1b6c: 84 16        	sty	$16                     ; 0x2016 <parse+0x2a9>
    1b6e: b2 14        	lda	($14)                   ; 0x2014 <parse+0x2a7>
    1b70: c9 61        	cmp	#$61
    1b72: f0 f0        	beq	$1b64 <fileOpen+0x72>
    1b74: a0 01        	ldy	#$1
    1b76: c9 77        	cmp	#$77
    1b78: f0 ec        	beq	$1b66 <fileOpen+0x74>
    1b7a: aa           	tax
    1b7b: f0 04        	beq	$1b81 <fileOpen+0x8f>
    1b7d: a4 16        	ldy	$16                     ; 0x2016 <parse+0x2a9>
    1b7f: 80 e5        	bra	$1b66 <fileOpen+0x74>
    1b81: a6 16        	ldx	$16                     ; 0x2016 <parse+0x2a9>
    1b83: 86 18        	stx	$18                     ; 0x2018 <parse+0x2ab>
    1b85: a6 12        	ldx	$12                     ; 0x2012 <parse+0x2a5>
    1b87: a4 13        	ldy	$13                     ; 0x2013 <parse+0x2a6>
    1b89: 86 fb        	stx	$fb                     ; 0x20fb <parse+0x38e>
    1b8b: 84 fc        	sty	$fc                     ; 0x20fc <parse+0x38f>
    1b8d: b2 12        	lda	($12)                   ; 0x2012 <parse+0x2a5>
    1b8f: f0 2b        	beq	$1bbc <fileOpen+0xca>
    1b91: 64 15        	stz	$15                     ; 0x2015 <parse+0x2a8>
    1b93: a0 01        	ldy	#$1
    1b95: a9 00        	lda	#$0
    1b97: 64 14        	stz	$14                     ; 0x2014 <parse+0x2a7>
    1b99: a6 15        	ldx	$15                     ; 0x2015 <parse+0x2a8>
    1b9b: e6 15        	inc	$15                     ; 0x2015 <parse+0x2a8>
    1b9d: d0 02        	bne	$1ba1 <fileOpen+0xaf>
    1b9f: e6 14        	inc	$14                     ; 0x2014 <parse+0x2a7>
    1ba1: 18           	clc
    1ba2: 85 17        	sta	$17                     ; 0x2017 <parse+0x2aa>
    1ba4: 8a           	txa
    1ba5: 65 12        	adc	$12                     ; 0x2012 <parse+0x2a5>
    1ba7: 85 16        	sta	$16                     ; 0x2016 <parse+0x2a9>
    1ba9: a5 17        	lda	$17                     ; 0x2017 <parse+0x2aa>
    1bab: 65 13        	adc	$13                     ; 0x2013 <parse+0x2a6>
    1bad: 85 17        	sta	$17                     ; 0x2017 <parse+0x2aa>
    1baf: b1 16        	lda	($16),y                 ; 0x2016 <parse+0x2a9>
    1bb1: aa           	tax
    1bb2: a5 14        	lda	$14                     ; 0x2014 <parse+0x2a7>
    1bb4: e0 00        	cpx	#$0
    1bb6: d0 e1        	bne	$1b99 <fileOpen+0xa7>
    1bb8: a4 15        	ldy	$15                     ; 0x2015 <parse+0x2a8>
    1bba: 80 02        	bra	$1bbe <fileOpen+0xcc>
    1bbc: a0 00        	ldy	#$0
    1bbe: a6 18        	ldx	$18                     ; 0x2018 <parse+0x2ab>
    1bc0: 84 fd        	sty	$fd                     ; 0x20fd <parse+0x390>
    1bc2: a4 19        	ldy	$19                     ; 0x2019 <parse+0x2ac>
    1bc4: 84 f3        	sty	$f3                     ; 0x20f3 <parse+0x386>
    1bc6: 86 f5        	stx	$f5                     ; 0x20f5 <parse+0x388>
    1bc8: a2 3c        	ldx	#$3c
    1bca: a0 00        	ldy	#$0
    1bcc: 86 12        	stx	$12                     ; 0x2012 <parse+0x2a5>
    1bce: 84 13        	sty	$13                     ; 0x2013 <parse+0x2a6>
    1bd0: a2 34        	ldx	#$34
    1bd2: 86 14        	stx	$14                     ; 0x2014 <parse+0x2a7>
    1bd4: a2 00        	ldx	#$0
    1bd6: 86 15        	stx	$15                     ; 0x2015 <parse+0x2a8>
    1bd8: 20 5c ff     	jsr	$ff5c <__heap_start+0x9af8>
    1bdb: 92 12        	sta	($12)                   ; 0x2012 <parse+0x2a5>
    1bdd: a9 00        	lda	#$0
    1bdf: 6a           	ror
    1be0: 85 14        	sta	$14                     ; 0x2014 <parse+0x2a7>
    1be2: a6 34        	ldx	$34                     ; 0x2034 <parse+0x2c7>
    1be4: a0 00        	ldy	#$0
    1be6: 84 12        	sty	$12                     ; 0x2012 <parse+0x2a5>
    1be8: a0 00        	ldy	#$0
    1bea: 84 13        	sty	$13                     ; 0x2013 <parse+0x2a6>
    1bec: 8a           	txa
    1bed: f0 01        	beq	$1bf0 <fileOpen+0xfe>
    1bef: 60           	rts
    1bf0: a6 3c        	ldx	$3c                     ; 0x203c <parse+0x2cf>
    1bf2: 86 3e        	stx	$3e                     ; 0x203e <parse+0x2d1>
    1bf4: a2 3d        	ldx	#$3d
    1bf6: a0 00        	ldy	#$0
    1bf8: 86 16        	stx	$16                     ; 0x2016 <parse+0x2a9>
    1bfa: 84 17        	sty	$17                     ; 0x2017 <parse+0x2aa>
    1bfc: 64 35        	stz	$35                     ; 0x2035 <parse+0x2c8>
    1bfe: 20 00 ff     	jsr	$ff00 <__heap_start+0x9a9c>
    1c01: 92 16        	sta	($16)                   ; 0x2016 <parse+0x2a9>
    1c03: a9 00        	lda	#$0
    1c05: 6a           	ror
    1c06: 85 14        	sta	$14                     ; 0x2014 <parse+0x2a7>
    1c08: a6 35        	ldx	$35                     ; 0x2035 <parse+0x2c8>
    1c0a: e0 28        	cpx	#$28
    1c0c: f0 e1        	beq	$1bef <fileOpen+0xfd>
    1c0e: e0 38        	cpx	#$38
    1c10: f0 dd        	beq	$1bef <fileOpen+0xfd>
    1c12: e0 2a        	cpx	#$2a
    1c14: d0 e6        	bne	$1bfc <fileOpen+0x10a>
    1c16: a9 01        	lda	#$1
    1c18: a2 00        	ldx	#$0
    1c1a: 20 5e 46     	jsr	$465e <malloc>
    1c1d: a5 3e        	lda	$3e                     ; 0x203e <parse+0x2d1>
    1c1f: 92 12        	sta	($12)                   ; 0x2012 <parse+0x2a5>
    1c21: 60           	rts

00001c22 <fileRead>:
    1c22: 85 16        	sta	$16                     ; 0x2016 <parse+0x2a9>
    1c24: 86 17        	stx	$17                     ; 0x2017 <parse+0x2aa>
    1c26: 64 18        	stz	$18                     ; 0x2018 <parse+0x2ab>
    1c28: a6 12        	ldx	$12                     ; 0x2012 <parse+0x2a5>
    1c2a: 86 1a        	stx	$1a                     ; 0x201a <parse+0x2ad>
    1c2c: a6 13        	ldx	$13                     ; 0x2013 <parse+0x2a6>
    1c2e: 86 1b        	stx	$1b                     ; 0x201b <parse+0x2ae>
    1c30: a2 3c        	ldx	#$3c
    1c32: a0 00        	ldy	#$0
    1c34: a9 34        	lda	#$34
    1c36: 85 12        	sta	$12                     ; 0x2012 <parse+0x2a5>
    1c38: a9 00        	lda	#$0
    1c3a: 85 13        	sta	$13                     ; 0x2013 <parse+0x2a6>
    1c3c: 64 19        	stz	$19                     ; 0x2019 <parse+0x2ac>
    1c3e: b2 14        	lda	($14)                   ; 0x2014 <parse+0x2a7>
    1c40: 85 1d        	sta	$1d                     ; 0x201d <parse+0x2b0>
    1c42: a5 1a        	lda	$1a                     ; 0x201a <parse+0x2ad>
    1c44: 85 1e        	sta	$1e                     ; 0x201e <parse+0x2b1>
    1c46: a5 1a        	lda	$1a                     ; 0x201a <parse+0x2ad>
    1c48: 18           	clc
    1c49: 65 18        	adc	$18                     ; 0x2018 <parse+0x2ab>
    1c4b: 85 1c        	sta	$1c                     ; 0x201c <parse+0x2af>
    1c4d: a5 1b        	lda	$1b                     ; 0x201b <parse+0x2ae>
    1c4f: 85 1f        	sta	$1f                     ; 0x201f <parse+0x2b2>
    1c51: a5 1b        	lda	$1b                     ; 0x201b <parse+0x2ae>
    1c53: 65 19        	adc	$19                     ; 0x2019 <parse+0x2ac>
    1c55: e6 1d        	inc	$1d                     ; 0x201d <parse+0x2b0>
    1c57: c6 1d        	dec	$1d                     ; 0x201d <parse+0x2b0>
    1c59: d0 03        	bne	$1c5e <fileRead+0x3c>
    1c5b: 4c db 1c     	jmp	$1cdb <fileRead+0xb9>
    1c5e: 5a           	phy
    1c5f: a4 1d        	ldy	$1d                     ; 0x201d <parse+0x2b0>
    1c61: 84 1a        	sty	$1a                     ; 0x201a <parse+0x2ad>
    1c63: 7a           	ply
    1c64: 85 1d        	sta	$1d                     ; 0x201d <parse+0x2b0>
    1c66: a5 16        	lda	$16                     ; 0x2016 <parse+0x2a9>
    1c68: 38           	sec
    1c69: e5 18        	sbc	$18                     ; 0x2018 <parse+0x2ab>
    1c6b: 85 1b        	sta	$1b                     ; 0x201b <parse+0x2ae>
    1c6d: a5 1a        	lda	$1a                     ; 0x201a <parse+0x2ad>
    1c6f: 85 f3        	sta	$f3                     ; 0x20f3 <parse+0x386>
    1c71: a5 1b        	lda	$1b                     ; 0x201b <parse+0x2ae>
    1c73: 85 f4        	sta	$f4                     ; 0x20f4 <parse+0x387>
    1c75: a9 3e        	lda	#$3e
    1c77: 85 1a        	sta	$1a                     ; 0x201a <parse+0x2ad>
    1c79: a9 00        	lda	#$0
    1c7b: 85 1b        	sta	$1b                     ; 0x201b <parse+0x2ae>
    1c7d: 20 60 ff     	jsr	$ff60 <__heap_start+0x9afc>
    1c80: 92 1a        	sta	($1a)                   ; 0x201a <parse+0x2ad>
    1c82: a9 00        	lda	#$0
    1c84: 6a           	ror
    1c85: 85 12        	sta	$12                     ; 0x2012 <parse+0x2a5>
    1c87: a5 34        	lda	$34                     ; 0x2034 <parse+0x2c7>
    1c89: f0 03        	beq	$1c8e <fileRead+0x6c>
    1c8b: 4c 55 1d     	jmp	$1d55 <fileRead+0x133>
    1c8e: 64 35        	stz	$35                     ; 0x2035 <parse+0x2c8>
    1c90: a9 3f        	lda	#$3f
    1c92: 85 1a        	sta	$1a                     ; 0x201a <parse+0x2ad>
    1c94: a9 00        	lda	#$0
    1c96: 85 1b        	sta	$1b                     ; 0x201b <parse+0x2ae>
    1c98: 20 00 ff     	jsr	$ff00 <__heap_start+0x9a9c>
    1c9b: 92 1a        	sta	($1a)                   ; 0x201a <parse+0x2ad>
    1c9d: a9 00        	lda	#$0
    1c9f: 6a           	ror
    1ca0: 85 12        	sta	$12                     ; 0x2012 <parse+0x2a5>
    1ca2: a5 35        	lda	$35                     ; 0x2035 <parse+0x2c8>
    1ca4: c9 38        	cmp	#$38
    1ca6: d0 03        	bne	$1cab <fileRead+0x89>
    1ca8: 4c 55 1d     	jmp	$1d55 <fileRead+0x133>
    1cab: c9 30        	cmp	#$30
    1cad: d0 03        	bne	$1cb2 <fileRead+0x90>
    1caf: 4c 5c 1d     	jmp	$1d5c <fileRead+0x13a>
    1cb2: c9 2c        	cmp	#$2c
    1cb4: d0 d8        	bne	$1c8e <fileRead+0x6c>
    1cb6: a5 1c        	lda	$1c                     ; 0x201c <parse+0x2af>
    1cb8: 85 fb        	sta	$fb                     ; 0x20fb <parse+0x38e>
    1cba: a5 1d        	lda	$1d                     ; 0x201d <parse+0x2b0>
    1cbc: 85 fc        	sta	$fc                     ; 0x20fc <parse+0x38f>
    1cbe: a5 3b        	lda	$3b                     ; 0x203b <parse+0x2ce>
    1cc0: 85 fd        	sta	$fd                     ; 0x20fd <parse+0x390>
    1cc2: a9 40        	lda	#$40
    1cc4: 85 1a        	sta	$1a                     ; 0x201a <parse+0x2ad>
    1cc6: a9 00        	lda	#$0
    1cc8: 85 1b        	sta	$1b                     ; 0x201b <parse+0x2ae>
    1cca: 20 04 ff     	jsr	$ff04 <__heap_start+0x9aa0>
    1ccd: 92 1a        	sta	($1a)                   ; 0x201a <parse+0x2ad>
    1ccf: a9 00        	lda	#$0
    1cd1: 6a           	ror
    1cd2: 85 12        	sta	$12                     ; 0x2012 <parse+0x2a5>
    1cd4: a5 3b        	lda	$3b                     ; 0x203b <parse+0x2ce>
    1cd6: d0 45        	bne	$1d1d <fileRead+0xfb>
    1cd8: 4c 66 1d     	jmp	$1d66 <fileRead+0x144>
    1cdb: 5a           	phy
    1cdc: a4 1c        	ldy	$1c                     ; 0x201c <parse+0x2af>
    1cde: 84 1a        	sty	$1a                     ; 0x201a <parse+0x2ad>
    1ce0: 7a           	ply
    1ce1: 85 1b        	sta	$1b                     ; 0x201b <parse+0x2ae>
    1ce3: 80 0a        	bra	$1cef <fileRead+0xcd>
    1ce5: a5 35        	lda	$35                     ; 0x2035 <parse+0x2c8>
    1ce7: c9 08        	cmp	#$8
    1ce9: d0 04        	bne	$1cef <fileRead+0xcd>
    1ceb: a5 3b        	lda	$3b                     ; 0x203b <parse+0x2ce>
    1ced: f0 28        	beq	$1d17 <fileRead+0xf5>
    1cef: 64 35        	stz	$35                     ; 0x2035 <parse+0x2c8>
    1cf1: 86 1c        	stx	$1c                     ; 0x201c <parse+0x2af>
    1cf3: 84 1d        	sty	$1d                     ; 0x201d <parse+0x2b0>
    1cf5: 20 00 ff     	jsr	$ff00 <__heap_start+0x9a9c>
    1cf8: 92 1c        	sta	($1c)                   ; 0x201c <parse+0x2af>
    1cfa: a9 00        	lda	#$0
    1cfc: 6a           	ror
    1cfd: 85 12        	sta	$12                     ; 0x2012 <parse+0x2a5>
    1cff: a5 34        	lda	$34                     ; 0x2034 <parse+0x2c7>
    1d01: f0 e2        	beq	$1ce5 <fileRead+0xc3>
    1d03: a9 3d        	lda	#$3d
    1d05: 85 1c        	sta	$1c                     ; 0x201c <parse+0x2af>
    1d07: a9 00        	lda	#$0
    1d09: 85 1d        	sta	$1d                     ; 0x201d <parse+0x2b0>
    1d0b: 20 0c ff     	jsr	$ff0c <__heap_start+0x9aa8>
    1d0e: 92 1c        	sta	($1c)                   ; 0x201c <parse+0x2af>
    1d10: a9 00        	lda	#$0
    1d12: 6a           	ror
    1d13: 85 12        	sta	$12                     ; 0x2012 <parse+0x2a5>
    1d15: 80 d8        	bra	$1cef <fileRead+0xcd>
    1d17: a5 3a        	lda	$3a                     ; 0x203a <parse+0x2cd>
    1d19: 92 1a        	sta	($1a)                   ; 0x201a <parse+0x2ad>
    1d1b: a9 01        	lda	#$1
    1d1d: 85 41        	sta	$41                     ; 0x2041 <parse+0x2d4>
    1d1f: a9 00        	lda	#$0
    1d21: 85 42        	sta	$42                     ; 0x2042 <parse+0x2d5>
    1d23: 18           	clc
    1d24: a5 41        	lda	$41                     ; 0x2041 <parse+0x2d4>
    1d26: 65 18        	adc	$18                     ; 0x2018 <parse+0x2ab>
    1d28: 85 41        	sta	$41                     ; 0x2041 <parse+0x2d4>
    1d2a: a5 42        	lda	$42                     ; 0x2042 <parse+0x2d5>
    1d2c: 65 19        	adc	$19                     ; 0x2019 <parse+0x2ac>
    1d2e: c5 17        	cmp	$17                     ; 0x2017 <parse+0x2aa>
    1d30: d0 0a        	bne	$1d3c <fileRead+0x11a>
    1d32: 85 19        	sta	$19                     ; 0x2019 <parse+0x2ac>
    1d34: a5 41        	lda	$41                     ; 0x2041 <parse+0x2d4>
    1d36: 85 18        	sta	$18                     ; 0x2018 <parse+0x2ab>
    1d38: c5 16        	cmp	$16                     ; 0x2016 <parse+0x2a9>
    1d3a: 80 08        	bra	$1d44 <fileRead+0x122>
    1d3c: c5 17        	cmp	$17                     ; 0x2017 <parse+0x2aa>
    1d3e: 85 19        	sta	$19                     ; 0x2019 <parse+0x2ac>
    1d40: a5 41        	lda	$41                     ; 0x2041 <parse+0x2d4>
    1d42: 85 18        	sta	$18                     ; 0x2018 <parse+0x2ab>
    1d44: a5 19        	lda	$19                     ; 0x2019 <parse+0x2ac>
    1d46: 5a           	phy
    1d47: a4 1e        	ldy	$1e                     ; 0x201e <parse+0x2b1>
    1d49: 84 1a        	sty	$1a                     ; 0x201a <parse+0x2ad>
    1d4b: a4 1f        	ldy	$1f                     ; 0x201f <parse+0x2b2>
    1d4d: 84 1b        	sty	$1b                     ; 0x201b <parse+0x2ae>
    1d4f: 7a           	ply
    1d50: b0 10        	bcs	$1d62 <fileRead+0x140>
    1d52: 4c 3e 1c     	jmp	$1c3e <fileRead+0x1c>
    1d55: a9 ff        	lda	#$ff
    1d57: aa           	tax
    1d58: 86 41        	stx	$41                     ; 0x2041 <parse+0x2d4>
    1d5a: 80 06        	bra	$1d62 <fileRead+0x140>
    1d5c: a6 18        	ldx	$18                     ; 0x2018 <parse+0x2ab>
    1d5e: 86 41        	stx	$41                     ; 0x2041 <parse+0x2d4>
    1d60: a5 19        	lda	$19                     ; 0x2019 <parse+0x2ac>
    1d62: aa           	tax
    1d63: a5 41        	lda	$41                     ; 0x2041 <parse+0x2d4>
    1d65: 60           	rts
    1d66: a9 00        	lda	#$0
    1d68: 85 41        	sta	$41                     ; 0x2041 <parse+0x2d4>
    1d6a: 1a           	inc
    1d6b: 80 b4        	bra	$1d21 <fileRead+0xff>

00001d6d <parse>:
    1d6d: 48           	pha
    1d6e: 18           	clc
    1d6f: a5 10        	lda	$10                     ; 0x2010 <parse+0x2a3>
    1d71: 69 db        	adc	#$db
    1d73: 85 10        	sta	$10                     ; 0x2010 <parse+0x2a3>
    1d75: a5 11        	lda	$11                     ; 0x2011 <parse+0x2a4>
    1d77: 69 ff        	adc	#$ff
    1d79: 85 11        	sta	$11                     ; 0x2011 <parse+0x2a4>
    1d7b: 68           	pla
    1d7c: a4 24        	ldy	$24                     ; 0x2024 <parse+0x2b7>
    1d7e: 5a           	phy
    1d7f: a4 25        	ldy	$25                     ; 0x2025 <parse+0x2b8>
    1d81: 5a           	phy
    1d82: a4 26        	ldy	$26                     ; 0x2026 <parse+0x2b9>
    1d84: 5a           	phy
    1d85: a4 27        	ldy	$27                     ; 0x2027 <parse+0x2ba>
    1d87: 5a           	phy
    1d88: 48           	pha
    1d89: a5 28        	lda	$28                     ; 0x2028 <parse+0x2bb>
    1d8b: a0 07        	ldy	#$7
    1d8d: 91 10        	sta	($10),y                 ; 0x2010 <parse+0x2a3>
    1d8f: a5 29        	lda	$29                     ; 0x2029 <parse+0x2bc>
    1d91: 88           	dey
    1d92: 91 10        	sta	($10),y                 ; 0x2010 <parse+0x2a3>
    1d94: a5 2a        	lda	$2a                     ; 0x202a <parse+0x2bd>
    1d96: 88           	dey
    1d97: 91 10        	sta	($10),y                 ; 0x2010 <parse+0x2a3>
    1d99: a5 2b        	lda	$2b                     ; 0x202b <parse+0x2be>
    1d9b: 88           	dey
    1d9c: 91 10        	sta	($10),y                 ; 0x2010 <parse+0x2a3>
    1d9e: a5 2c        	lda	$2c                     ; 0x202c <parse+0x2bf>
    1da0: 88           	dey
    1da1: 91 10        	sta	($10),y                 ; 0x2010 <parse+0x2a3>
    1da3: a5 2d        	lda	$2d                     ; 0x202d <parse+0x2c0>
    1da5: 88           	dey
    1da6: 91 10        	sta	($10),y                 ; 0x2010 <parse+0x2a3>
    1da8: a5 2e        	lda	$2e                     ; 0x202e <parse+0x2c1>
    1daa: 88           	dey
    1dab: 91 10        	sta	($10),y                 ; 0x2010 <parse+0x2a3>
    1dad: a5 2f        	lda	$2f                     ; 0x202f <parse+0x2c2>
    1daf: 88           	dey
    1db0: 91 10        	sta	($10),y                 ; 0x2010 <parse+0x2a3>
    1db2: 68           	pla
    1db3: 85 1d        	sta	$1d                     ; 0x201d <parse+0x2b0>
    1db5: 86 1c        	stx	$1c                     ; 0x201c <parse+0x2af>
    1db7: a6 12        	ldx	$12                     ; 0x2012 <parse+0x2a5>
    1db9: 86 1e        	stx	$1e                     ; 0x201e <parse+0x2b1>
    1dbb: a6 14        	ldx	$14                     ; 0x2014 <parse+0x2a7>
    1dbd: 18           	clc
    1dbe: a5 14        	lda	$14                     ; 0x2014 <parse+0x2a7>
    1dc0: 86 22        	stx	$22                     ; 0x2022 <parse+0x2b5>
    1dc2: 69 2c        	adc	#$2c
    1dc4: 85 12        	sta	$12                     ; 0x2012 <parse+0x2a5>
    1dc6: a5 15        	lda	$15                     ; 0x2015 <parse+0x2a8>
    1dc8: 69 00        	adc	#$0
    1dca: a0 2c        	ldy	#$2c
    1dcc: 85 13        	sta	$13                     ; 0x2013 <parse+0x2a6>
    1dce: a5 1d        	lda	$1d                     ; 0x201d <parse+0x2b0>
    1dd0: 18           	clc
    1dd1: 71 14        	adc	($14),y                 ; 0x2014 <parse+0x2a7>
    1dd3: aa           	tax
    1dd4: a0 01        	ldy	#$1
    1dd6: a5 1c        	lda	$1c                     ; 0x201c <parse+0x2af>
    1dd8: 71 12        	adc	($12),y                 ; 0x2012 <parse+0x2a5>
    1dda: 85 18        	sta	$18                     ; 0x2018 <parse+0x2ab>
    1ddc: c8           	iny
    1ddd: a9 00        	lda	#$0
    1ddf: 71 12        	adc	($12),y                 ; 0x2012 <parse+0x2a5>
    1de1: a8           	tay
    1de2: 18           	clc
    1de3: 8a           	txa
    1de4: 69 09        	adc	#$9
    1de6: 85 1a        	sta	$1a                     ; 0x201a <parse+0x2ad>
    1de8: a5 18        	lda	$18                     ; 0x2018 <parse+0x2ab>
    1dea: 69 00        	adc	#$0
    1dec: aa           	tax
    1ded: 98           	tya
    1dee: 69 00        	adc	#$0
    1df0: 85 19        	sta	$19                     ; 0x2019 <parse+0x2ac>
    1df2: 8a           	txa
    1df3: 86 18        	stx	$18                     ; 0x2018 <parse+0x2ab>
    1df5: 06 18        	asl	$18                     ; 0x2018 <parse+0x2ab>
    1df7: 26 19        	rol	$19                     ; 0x2019 <parse+0x2ac>
    1df9: 06 18        	asl	$18                     ; 0x2018 <parse+0x2ab>
    1dfb: 26 19        	rol	$19                     ; 0x2019 <parse+0x2ac>
    1dfd: 06 18        	asl	$18                     ; 0x2018 <parse+0x2ab>
    1dff: 26 19        	rol	$19                     ; 0x2019 <parse+0x2ac>
    1e01: a4 19        	ldy	$19                     ; 0x2019 <parse+0x2ac>
    1e03: a6 0f        	ldx	$f                      ; 0x200f <parse+0x2a2>
    1e05: 78           	sei
    1e06: 84 0f        	sty	$f                      ; 0x200f <parse+0x2a2>
    1e08: a4 1a        	ldy	$1a                     ; 0x201a <parse+0x2ad>
    1e0a: 84 18        	sty	$18                     ; 0x2018 <parse+0x2ab>
    1e0c: 09 e0        	ora	#$e0
    1e0e: 85 19        	sta	$19                     ; 0x2019 <parse+0x2ac>
    1e10: b2 18        	lda	($18)                   ; 0x2018 <parse+0x2ab>
    1e12: 85 1a        	sta	$1a                     ; 0x201a <parse+0x2ad>
    1e14: 86 0f        	stx	$f                      ; 0x200f <parse+0x2a2>
    1e16: 58           	cli
    1e17: a5 1d        	lda	$1d                     ; 0x201d <parse+0x2b0>
    1e19: 18           	clc
    1e1a: a0 2c        	ldy	#$2c
    1e1c: 71 14        	adc	($14),y                 ; 0x2014 <parse+0x2a7>
    1e1e: aa           	tax
    1e1f: a5 1c        	lda	$1c                     ; 0x201c <parse+0x2af>
    1e21: a0 01        	ldy	#$1
    1e23: 71 12        	adc	($12),y                 ; 0x2012 <parse+0x2a5>
    1e25: 85 18        	sta	$18                     ; 0x2018 <parse+0x2ab>
    1e27: a9 00        	lda	#$0
    1e29: c8           	iny
    1e2a: 71 12        	adc	($12),y                 ; 0x2012 <parse+0x2a5>
    1e2c: a8           	tay
    1e2d: 18           	clc
    1e2e: 8a           	txa
    1e2f: 69 08        	adc	#$8
    1e31: 85 1b        	sta	$1b                     ; 0x201b <parse+0x2ae>
    1e33: a5 18        	lda	$18                     ; 0x2018 <parse+0x2ab>
    1e35: 69 00        	adc	#$0
    1e37: aa           	tax
    1e38: 98           	tya
    1e39: 69 00        	adc	#$0
    1e3b: 85 19        	sta	$19                     ; 0x2019 <parse+0x2ac>
    1e3d: 8a           	txa
    1e3e: 86 18        	stx	$18                     ; 0x2018 <parse+0x2ab>
    1e40: 06 18        	asl	$18                     ; 0x2018 <parse+0x2ab>
    1e42: 26 19        	rol	$19                     ; 0x2019 <parse+0x2ac>
    1e44: 06 18        	asl	$18                     ; 0x2018 <parse+0x2ab>
    1e46: 26 19        	rol	$19                     ; 0x2019 <parse+0x2ac>
    1e48: 06 18        	asl	$18                     ; 0x2018 <parse+0x2ab>
    1e4a: 26 19        	rol	$19                     ; 0x2019 <parse+0x2ac>
    1e4c: a4 19        	ldy	$19                     ; 0x2019 <parse+0x2ac>
    1e4e: a6 0f        	ldx	$f                      ; 0x200f <parse+0x2a2>
    1e50: 78           	sei
    1e51: 84 0f        	sty	$f                      ; 0x200f <parse+0x2a2>
    1e53: a4 1b        	ldy	$1b                     ; 0x201b <parse+0x2ae>
    1e55: 84 18        	sty	$18                     ; 0x2018 <parse+0x2ab>
    1e57: 09 e0        	ora	#$e0
    1e59: 85 19        	sta	$19                     ; 0x2019 <parse+0x2ac>
    1e5b: b2 18        	lda	($18)                   ; 0x2018 <parse+0x2ab>
    1e5d: 85 1b        	sta	$1b                     ; 0x201b <parse+0x2ae>
    1e5f: 86 0f        	stx	$f                      ; 0x200f <parse+0x2a2>
    1e61: 58           	cli
    1e62: a0 08        	ldy	#$8
    1e64: a5 1a        	lda	$1a                     ; 0x201a <parse+0x2ad>
    1e66: 91 14        	sta	($14),y                 ; 0x2014 <parse+0x2a7>
    1e68: a0 01        	ldy	#$1
    1e6a: 18           	clc
    1e6b: a5 22        	lda	$22                     ; 0x2022 <parse+0x2b5>
    1e6d: 69 08        	adc	#$8
    1e6f: 85 18        	sta	$18                     ; 0x2018 <parse+0x2ab>
    1e71: a5 15        	lda	$15                     ; 0x2015 <parse+0x2a8>
    1e73: 69 00        	adc	#$0
    1e75: 85 19        	sta	$19                     ; 0x2019 <parse+0x2ac>
    1e77: a5 1b        	lda	$1b                     ; 0x201b <parse+0x2ae>
    1e79: 91 18        	sta	($18),y                 ; 0x2018 <parse+0x2ab>
    1e7b: a5 1d        	lda	$1d                     ; 0x201d <parse+0x2b0>
    1e7d: 18           	clc
    1e7e: a0 2c        	ldy	#$2c
    1e80: 71 14        	adc	($14),y                 ; 0x2014 <parse+0x2a7>
    1e82: aa           	tax
    1e83: a5 1c        	lda	$1c                     ; 0x201c <parse+0x2af>
    1e85: a0 01        	ldy	#$1
    1e87: 71 12        	adc	($12),y                 ; 0x2012 <parse+0x2a5>
    1e89: 85 18        	sta	$18                     ; 0x2018 <parse+0x2ab>
    1e8b: a9 00        	lda	#$0
    1e8d: c8           	iny
    1e8e: 71 12        	adc	($12),y                 ; 0x2012 <parse+0x2a5>
    1e90: a8           	tay
    1e91: 18           	clc
    1e92: 8a           	txa
    1e93: 69 0b        	adc	#$b
    1e95: 85 1a        	sta	$1a                     ; 0x201a <parse+0x2ad>
    1e97: a5 18        	lda	$18                     ; 0x2018 <parse+0x2ab>
    1e99: 69 00        	adc	#$0
    1e9b: aa           	tax
    1e9c: 98           	tya
    1e9d: 69 00        	adc	#$0
    1e9f: 85 19        	sta	$19                     ; 0x2019 <parse+0x2ac>
    1ea1: 8a           	txa
    1ea2: 86 18        	stx	$18                     ; 0x2018 <parse+0x2ab>
    1ea4: 06 18        	asl	$18                     ; 0x2018 <parse+0x2ab>
    1ea6: 26 19        	rol	$19                     ; 0x2019 <parse+0x2ac>
    1ea8: 06 18        	asl	$18                     ; 0x2018 <parse+0x2ab>
    1eaa: 26 19        	rol	$19                     ; 0x2019 <parse+0x2ac>
    1eac: 06 18        	asl	$18                     ; 0x2018 <parse+0x2ab>
    1eae: 26 19        	rol	$19                     ; 0x2019 <parse+0x2ac>
    1eb0: a4 19        	ldy	$19                     ; 0x2019 <parse+0x2ac>
    1eb2: a6 0f        	ldx	$f                      ; 0x200f <parse+0x2a2>
    1eb4: 78           	sei
    1eb5: 84 0f        	sty	$f                      ; 0x200f <parse+0x2a2>
    1eb7: a4 1a        	ldy	$1a                     ; 0x201a <parse+0x2ad>
    1eb9: 84 18        	sty	$18                     ; 0x2018 <parse+0x2ab>
    1ebb: 09 e0        	ora	#$e0
    1ebd: 85 19        	sta	$19                     ; 0x2019 <parse+0x2ac>
    1ebf: b2 18        	lda	($18)                   ; 0x2018 <parse+0x2ab>
    1ec1: 85 1a        	sta	$1a                     ; 0x201a <parse+0x2ad>
    1ec3: 86 0f        	stx	$f                      ; 0x200f <parse+0x2a2>
    1ec5: 58           	cli
    1ec6: a5 1d        	lda	$1d                     ; 0x201d <parse+0x2b0>
    1ec8: 18           	clc
    1ec9: a0 2c        	ldy	#$2c
    1ecb: 71 14        	adc	($14),y                 ; 0x2014 <parse+0x2a7>
    1ecd: aa           	tax
    1ece: a5 1c        	lda	$1c                     ; 0x201c <parse+0x2af>
    1ed0: a0 01        	ldy	#$1
    1ed2: 71 12        	adc	($12),y                 ; 0x2012 <parse+0x2a5>
    1ed4: 85 18        	sta	$18                     ; 0x2018 <parse+0x2ab>
    1ed6: a9 00        	lda	#$0
    1ed8: c8           	iny
    1ed9: 71 12        	adc	($12),y                 ; 0x2012 <parse+0x2a5>
    1edb: a8           	tay
    1edc: 18           	clc
    1edd: 8a           	txa
    1ede: 69 0a        	adc	#$a
    1ee0: 85 1b        	sta	$1b                     ; 0x201b <parse+0x2ae>
    1ee2: a5 18        	lda	$18                     ; 0x2018 <parse+0x2ab>
    1ee4: 69 00        	adc	#$0
    1ee6: aa           	tax
    1ee7: 98           	tya
    1ee8: 69 00        	adc	#$0
    1eea: 85 19        	sta	$19                     ; 0x2019 <parse+0x2ac>
    1eec: 8a           	txa
    1eed: 86 18        	stx	$18                     ; 0x2018 <parse+0x2ab>
    1eef: 06 18        	asl	$18                     ; 0x2018 <parse+0x2ab>
    1ef1: 26 19        	rol	$19                     ; 0x2019 <parse+0x2ac>
    1ef3: 06 18        	asl	$18                     ; 0x2018 <parse+0x2ab>
    1ef5: 26 19        	rol	$19                     ; 0x2019 <parse+0x2ac>
    1ef7: 06 18        	asl	$18                     ; 0x2018 <parse+0x2ab>
    1ef9: 26 19        	rol	$19                     ; 0x2019 <parse+0x2ac>
    1efb: a4 19        	ldy	$19                     ; 0x2019 <parse+0x2ac>
    1efd: a6 0f        	ldx	$f                      ; 0x200f <parse+0x2a2>
    1eff: 78           	sei
    1f00: 84 0f        	sty	$f                      ; 0x200f <parse+0x2a2>
    1f02: a4 1b        	ldy	$1b                     ; 0x201b <parse+0x2ae>
    1f04: 84 18        	sty	$18                     ; 0x2018 <parse+0x2ab>
    1f06: 09 e0        	ora	#$e0
    1f08: 85 19        	sta	$19                     ; 0x2019 <parse+0x2ac>
    1f0a: b2 18        	lda	($18)                   ; 0x2018 <parse+0x2ab>
    1f0c: 85 1b        	sta	$1b                     ; 0x201b <parse+0x2ae>
    1f0e: 86 0f        	stx	$f                      ; 0x200f <parse+0x2a2>
    1f10: 18           	clc
    1f11: a5 22        	lda	$22                     ; 0x2022 <parse+0x2b5>
    1f13: 69 0a        	adc	#$a
    1f15: 85 18        	sta	$18                     ; 0x2018 <parse+0x2ab>
    1f17: a5 15        	lda	$15                     ; 0x2015 <parse+0x2a8>
    1f19: 69 00        	adc	#$0
    1f1b: 85 19        	sta	$19                     ; 0x2019 <parse+0x2ac>
    1f1d: 58           	cli
    1f1e: a0 0a        	ldy	#$a
    1f20: a5 1a        	lda	$1a                     ; 0x201a <parse+0x2ad>
    1f22: 91 14        	sta	($14),y                 ; 0x2014 <parse+0x2a7>
    1f24: a0 01        	ldy	#$1
    1f26: a5 1b        	lda	$1b                     ; 0x201b <parse+0x2ae>
    1f28: 91 18        	sta	($18),y                 ; 0x2018 <parse+0x2ab>
    1f2a: a5 1d        	lda	$1d                     ; 0x201d <parse+0x2b0>
    1f2c: 18           	clc
    1f2d: a0 2c        	ldy	#$2c
    1f2f: 71 14        	adc	($14),y                 ; 0x2014 <parse+0x2a7>
    1f31: aa           	tax
    1f32: a5 1c        	lda	$1c                     ; 0x201c <parse+0x2af>
    1f34: a0 01        	ldy	#$1
    1f36: 71 12        	adc	($12),y                 ; 0x2012 <parse+0x2a5>
    1f38: 85 1a        	sta	$1a                     ; 0x201a <parse+0x2ad>
    1f3a: a9 00        	lda	#$0
    1f3c: c8           	iny
    1f3d: 71 12        	adc	($12),y                 ; 0x2012 <parse+0x2a5>
    1f3f: a8           	tay
    1f40: 18           	clc
    1f41: 8a           	txa
    1f42: 69 0d        	adc	#$d
    1f44: 85 23        	sta	$23                     ; 0x2023 <parse+0x2b6>
    1f46: a5 1a        	lda	$1a                     ; 0x201a <parse+0x2ad>
    1f48: 69 00        	adc	#$0
    1f4a: aa           	tax
    1f4b: 98           	tya
    1f4c: 69 00        	adc	#$0
    1f4e: 85 1b        	sta	$1b                     ; 0x201b <parse+0x2ae>
    1f50: 8a           	txa
    1f51: 86 1a        	stx	$1a                     ; 0x201a <parse+0x2ad>
    1f53: 06 1a        	asl	$1a                     ; 0x201a <parse+0x2ad>
    1f55: 26 1b        	rol	$1b                     ; 0x201b <parse+0x2ae>
    1f57: 06 1a        	asl	$1a                     ; 0x201a <parse+0x2ad>
    1f59: 26 1b        	rol	$1b                     ; 0x201b <parse+0x2ae>
    1f5b: 06 1a        	asl	$1a                     ; 0x201a <parse+0x2ad>
    1f5d: 26 1b        	rol	$1b                     ; 0x201b <parse+0x2ae>
    1f5f: a4 1b        	ldy	$1b                     ; 0x201b <parse+0x2ae>
    1f61: a6 0f        	ldx	$f                      ; 0x200f <parse+0x2a2>
    1f63: 78           	sei
    1f64: 84 0f        	sty	$f                      ; 0x200f <parse+0x2a2>
    1f66: a4 23        	ldy	$23                     ; 0x2023 <parse+0x2b6>
    1f68: 84 1a        	sty	$1a                     ; 0x201a <parse+0x2ad>
    1f6a: 09 e0        	ora	#$e0
    1f6c: 85 1b        	sta	$1b                     ; 0x201b <parse+0x2ae>
    1f6e: b2 1a        	lda	($1a)                   ; 0x201a <parse+0x2ad>
    1f70: 85 23        	sta	$23                     ; 0x2023 <parse+0x2b6>
    1f72: 86 0f        	stx	$f                      ; 0x200f <parse+0x2a2>
    1f74: 58           	cli
    1f75: a6 1d        	ldx	$1d                     ; 0x201d <parse+0x2b0>
    1f77: 86 1b        	stx	$1b                     ; 0x201b <parse+0x2ae>
    1f79: a5 1d        	lda	$1d                     ; 0x201d <parse+0x2b0>
    1f7b: 18           	clc
    1f7c: a0 2c        	ldy	#$2c
    1f7e: 71 14        	adc	($14),y                 ; 0x2014 <parse+0x2a7>
    1f80: aa           	tax
    1f81: a4 1c        	ldy	$1c                     ; 0x201c <parse+0x2af>
    1f83: 84 1a        	sty	$1a                     ; 0x201a <parse+0x2ad>
    1f85: a5 1c        	lda	$1c                     ; 0x201c <parse+0x2af>
    1f87: a0 01        	ldy	#$1
    1f89: 71 12        	adc	($12),y                 ; 0x2012 <parse+0x2a5>
    1f8b: 85 1d        	sta	$1d                     ; 0x201d <parse+0x2b0>
    1f8d: a9 00        	lda	#$0
    1f8f: c8           	iny
    1f90: 71 12        	adc	($12),y                 ; 0x2012 <parse+0x2a5>
    1f92: a8           	tay
    1f93: 18           	clc
    1f94: 8a           	txa
    1f95: 69 0c        	adc	#$c
    1f97: 85 1c        	sta	$1c                     ; 0x201c <parse+0x2af>
    1f99: a5 1d        	lda	$1d                     ; 0x201d <parse+0x2b0>
    1f9b: 69 00        	adc	#$0
    1f9d: aa           	tax
    1f9e: 98           	tya
    1f9f: 69 00        	adc	#$0
    1fa1: 85 13        	sta	$13                     ; 0x2013 <parse+0x2a6>
    1fa3: 8a           	txa
    1fa4: 86 12        	stx	$12                     ; 0x2012 <parse+0x2a5>
    1fa6: 06 12        	asl	$12                     ; 0x2012 <parse+0x2a5>
    1fa8: 26 13        	rol	$13                     ; 0x2013 <parse+0x2a6>
    1faa: 06 12        	asl	$12                     ; 0x2012 <parse+0x2a5>
    1fac: 26 13        	rol	$13                     ; 0x2013 <parse+0x2a6>
    1fae: 06 12        	asl	$12                     ; 0x2012 <parse+0x2a5>
    1fb0: 26 13        	rol	$13                     ; 0x2013 <parse+0x2a6>
    1fb2: a4 13        	ldy	$13                     ; 0x2013 <parse+0x2a6>
    1fb4: a6 0f        	ldx	$f                      ; 0x200f <parse+0x2a2>
    1fb6: 78           	sei
    1fb7: 84 0f        	sty	$f                      ; 0x200f <parse+0x2a2>
    1fb9: a4 1c        	ldy	$1c                     ; 0x201c <parse+0x2af>
    1fbb: 84 12        	sty	$12                     ; 0x2012 <parse+0x2a5>
    1fbd: 09 e0        	ora	#$e0
    1fbf: 85 13        	sta	$13                     ; 0x2013 <parse+0x2a6>
    1fc1: b2 12        	lda	($12)                   ; 0x2012 <parse+0x2a5>
    1fc3: 85 1c        	sta	$1c                     ; 0x201c <parse+0x2af>
    1fc5: 86 0f        	stx	$f                      ; 0x200f <parse+0x2a2>
    1fc7: 18           	clc
    1fc8: a5 22        	lda	$22                     ; 0x2022 <parse+0x2b5>
    1fca: 69 0c        	adc	#$c
    1fcc: 85 12        	sta	$12                     ; 0x2012 <parse+0x2a5>
    1fce: a5 15        	lda	$15                     ; 0x2015 <parse+0x2a8>
    1fd0: 69 00        	adc	#$0
    1fd2: 85 13        	sta	$13                     ; 0x2013 <parse+0x2a6>
    1fd4: 58           	cli
    1fd5: a0 0c        	ldy	#$c
    1fd7: a5 23        	lda	$23                     ; 0x2023 <parse+0x2b6>
    1fd9: 91 14        	sta	($14),y                 ; 0x2014 <parse+0x2a7>
    1fdb: a0 01        	ldy	#$1
    1fdd: a5 1c        	lda	$1c                     ; 0x201c <parse+0x2af>
    1fdf: 91 12        	sta	($12),y                 ; 0x2012 <parse+0x2a5>
    1fe1: a9 00        	lda	#$0
    1fe3: c8           	iny
    1fe4: 91 12        	sta	($12),y                 ; 0x2012 <parse+0x2a5>
    1fe6: c8           	iny
    1fe7: 91 12        	sta	($12),y                 ; 0x2012 <parse+0x2a5>
    1fe9: a0 0a        	ldy	#$a
    1feb: b1 14        	lda	($14),y                 ; 0x2014 <parse+0x2a7>
    1fed: 85 12        	sta	$12                     ; 0x2012 <parse+0x2a5>
    1fef: a0 01        	ldy	#$1
    1ff1: b1 18        	lda	($18),y                 ; 0x2018 <parse+0x2ab>
    1ff3: d0 07        	bne	$1ffc <parse+0x28f>
    1ff5: a5 12        	lda	$12                     ; 0x2012 <parse+0x2a5>
    1ff7: d0 03        	bne	$1ffc <parse+0x28f>
    1ff9: 4c 8c 28     	jmp	$288c <parse+0xb1f>
    1ffc: a2 00        	ldx	#$0
    1ffe: 18           	clc
    1fff: a5 1b        	lda	$1b                     ; 0x201b <parse+0x2ae>
    2001: 69 0e        	adc	#$e
    2003: 85 1c        	sta	$1c                     ; 0x201c <parse+0x2af>
    2005: a5 1a        	lda	$1a                     ; 0x201a <parse+0x2ad>
    2007: 69 00        	adc	#$0
    2009: 85 1d        	sta	$1d                     ; 0x201d <parse+0x2b0>
    200b: 8a           	txa
    200c: 69 00        	adc	#$0
    200e: 85 24        	sta	$24                     ; 0x2024 <parse+0x2b7>
    2010: 8a           	txa
    2011: 69 00        	adc	#$0
    2013: 85 25        	sta	$25                     ; 0x2025 <parse+0x2b8>
    2015: 64 1f        	stz	$1f                     ; 0x201f <parse+0x2b2>
    2017: 64 22        	stz	$22                     ; 0x2022 <parse+0x2b5>
    2019: 64 23        	stz	$23                     ; 0x2023 <parse+0x2b6>
    201b: 64 26        	stz	$26                     ; 0x2026 <parse+0x2b9>
    201d: 64 12        	stz	$12                     ; 0x2012 <parse+0x2a5>
    201f: 8a           	txa
    2020: a0 13        	ldy	#$13
    2022: 91 10        	sta	($10),y                 ; 0x2010 <parse+0x2a3>
    2024: 88           	dey
    2025: 91 10        	sta	($10),y                 ; 0x2010 <parse+0x2a3>
    2027: a0 0f        	ldy	#$f
    2029: 91 10        	sta	($10),y                 ; 0x2010 <parse+0x2a3>
    202b: 88           	dey
    202c: 91 10        	sta	($10),y                 ; 0x2010 <parse+0x2a3>
    202e: 64 1a        	stz	$1a                     ; 0x201a <parse+0x2ad>
    2030: 64 1b        	stz	$1b                     ; 0x201b <parse+0x2ae>
    2032: a5 14        	lda	$14                     ; 0x2014 <parse+0x2a7>
    2034: 18           	clc
    2035: 69 2c        	adc	#$2c
    2037: 85 12        	sta	$12                     ; 0x2012 <parse+0x2a5>
    2039: a5 15        	lda	$15                     ; 0x2015 <parse+0x2a8>
    203b: 69 00        	adc	#$0
    203d: 85 13        	sta	$13                     ; 0x2013 <parse+0x2a6>
    203f: a6 1c        	ldx	$1c                     ; 0x201c <parse+0x2af>
    2041: 86 28        	stx	$28                     ; 0x2028 <parse+0x2bb>
    2043: a5 1c        	lda	$1c                     ; 0x201c <parse+0x2af>
    2045: 18           	clc
    2046: a0 2c        	ldy	#$2c
    2048: 71 14        	adc	($14),y                 ; 0x2014 <parse+0x2a7>
    204a: aa           	tax
    204b: a5 1d        	lda	$1d                     ; 0x201d <parse+0x2b0>
    204d: a4 1d        	ldy	$1d                     ; 0x201d <parse+0x2b0>
    204f: 84 29        	sty	$29                     ; 0x2029 <parse+0x2bc>
    2051: a0 01        	ldy	#$1
    2053: 71 12        	adc	($12),y                 ; 0x2012 <parse+0x2a5>
    2055: 85 18        	sta	$18                     ; 0x2018 <parse+0x2ab>
    2057: a5 24        	lda	$24                     ; 0x2024 <parse+0x2b7>
    2059: c8           	iny
    205a: 71 12        	adc	($12),y                 ; 0x2012 <parse+0x2a5>
    205c: a8           	tay
    205d: 18           	clc
    205e: 8a           	txa
    205f: 69 04        	adc	#$4
    2061: 85 1c        	sta	$1c                     ; 0x201c <parse+0x2af>
    2063: a5 18        	lda	$18                     ; 0x2018 <parse+0x2ab>
    2065: 69 00        	adc	#$0
    2067: 85 18        	sta	$18                     ; 0x2018 <parse+0x2ab>
    2069: 98           	tya
    206a: 69 00        	adc	#$0
    206c: 85 19        	sta	$19                     ; 0x2019 <parse+0x2ac>
    206e: a6 0f        	ldx	$f                      ; 0x200f <parse+0x2a2>
    2070: 78           	sei
    2071: a5 18        	lda	$18                     ; 0x2018 <parse+0x2ab>
    2073: 06 18        	asl	$18                     ; 0x2018 <parse+0x2ab>
    2075: 26 19        	rol	$19                     ; 0x2019 <parse+0x2ac>
    2077: 06 18        	asl	$18                     ; 0x2018 <parse+0x2ab>
    2079: 26 19        	rol	$19                     ; 0x2019 <parse+0x2ac>
    207b: 06 18        	asl	$18                     ; 0x2018 <parse+0x2ab>
    207d: 26 19        	rol	$19                     ; 0x2019 <parse+0x2ac>
    207f: a4 19        	ldy	$19                     ; 0x2019 <parse+0x2ac>
    2081: 84 0f        	sty	$f                      ; 0x200f <parse+0x2a2>
    2083: 09 e0        	ora	#$e0
    2085: a4 1c        	ldy	$1c                     ; 0x201c <parse+0x2af>
    2087: 84 18        	sty	$18                     ; 0x2018 <parse+0x2ab>
    2089: 85 19        	sta	$19                     ; 0x2019 <parse+0x2ac>
    208b: b2 18        	lda	($18)                   ; 0x2018 <parse+0x2ab>
    208d: 85 27        	sta	$27                     ; 0x2027 <parse+0x2ba>
    208f: 86 0f        	stx	$f                      ; 0x200f <parse+0x2a2>
    2091: 58           	cli
    2092: a5 28        	lda	$28                     ; 0x2028 <parse+0x2bb>
    2094: 18           	clc
    2095: a0 2c        	ldy	#$2c
    2097: 71 14        	adc	($14),y                 ; 0x2014 <parse+0x2a7>
    2099: aa           	tax
    209a: a5 1d        	lda	$1d                     ; 0x201d <parse+0x2b0>
    209c: a0 01        	ldy	#$1
    209e: 71 12        	adc	($12),y                 ; 0x2012 <parse+0x2a5>
    20a0: 85 18        	sta	$18                     ; 0x2018 <parse+0x2ab>
    20a2: a5 24        	lda	$24                     ; 0x2024 <parse+0x2b7>
    20a4: c8           	iny
    20a5: 71 12        	adc	($12),y                 ; 0x2012 <parse+0x2a5>
    20a7: a8           	tay
    20a8: 18           	clc
    20a9: 8a           	txa
    20aa: 69 05        	adc	#$5
    20ac: 85 1c        	sta	$1c                     ; 0x201c <parse+0x2af>
    20ae: a5 18        	lda	$18                     ; 0x2018 <parse+0x2ab>
    20b0: 69 00        	adc	#$0
    20b2: 85 18        	sta	$18                     ; 0x2018 <parse+0x2ab>
    20b4: 98           	tya
    20b5: 69 00        	adc	#$0
    20b7: 85 19        	sta	$19                     ; 0x2019 <parse+0x2ac>
    20b9: a6 0f        	ldx	$f                      ; 0x200f <parse+0x2a2>
    20bb: 78           	sei
    20bc: a5 18        	lda	$18                     ; 0x2018 <parse+0x2ab>
    20be: 06 18        	asl	$18                     ; 0x2018 <parse+0x2ab>
    20c0: 26 19        	rol	$19                     ; 0x2019 <parse+0x2ac>
    20c2: 06 18        	asl	$18                     ; 0x2018 <parse+0x2ab>
    20c4: 26 19        	rol	$19                     ; 0x2019 <parse+0x2ac>
    20c6: 06 18        	asl	$18                     ; 0x2018 <parse+0x2ab>
    20c8: 26 19        	rol	$19                     ; 0x2019 <parse+0x2ac>
    20ca: a4 19        	ldy	$19                     ; 0x2019 <parse+0x2ac>
    20cc: 84 0f        	sty	$f                      ; 0x200f <parse+0x2a2>
    20ce: 09 e0        	ora	#$e0
    20d0: a4 1c        	ldy	$1c                     ; 0x201c <parse+0x2af>
    20d2: 84 18        	sty	$18                     ; 0x2018 <parse+0x2ab>
    20d4: 85 19        	sta	$19                     ; 0x2019 <parse+0x2ac>
    20d6: b2 18        	lda	($18)                   ; 0x2018 <parse+0x2ab>
    20d8: 85 18        	sta	$18                     ; 0x2018 <parse+0x2ab>
    20da: 86 0f        	stx	$f                      ; 0x200f <parse+0x2a2>
    20dc: 58           	cli
    20dd: a5 28        	lda	$28                     ; 0x2028 <parse+0x2bb>
    20df: 18           	clc
    20e0: a0 2c        	ldy	#$2c
    20e2: 71 14        	adc	($14),y                 ; 0x2014 <parse+0x2a7>
    20e4: aa           	tax
    20e5: a5 1d        	lda	$1d                     ; 0x201d <parse+0x2b0>
    20e7: a0 01        	ldy	#$1
    20e9: 71 12        	adc	($12),y                 ; 0x2012 <parse+0x2a5>
    20eb: 85 19        	sta	$19                     ; 0x2019 <parse+0x2ac>
    20ed: a5 24        	lda	$24                     ; 0x2024 <parse+0x2b7>
    20ef: c8           	iny
    20f0: 71 12        	adc	($12),y                 ; 0x2012 <parse+0x2a5>
    20f2: a8           	tay
    20f3: 18           	clc
    20f4: 8a           	txa
    20f5: 69 06        	adc	#$6
    20f7: 85 1c        	sta	$1c                     ; 0x201c <parse+0x2af>
    20f9: a5 19        	lda	$19                     ; 0x2019 <parse+0x2ac>
    20fb: 69 00        	adc	#$0
    20fd: 85 19        	sta	$19                     ; 0x2019 <parse+0x2ac>
    20ff: 98           	tya
    2100: 69 00        	adc	#$0
    2102: 85 1d        	sta	$1d                     ; 0x201d <parse+0x2b0>
    2104: a6 0f        	ldx	$f                      ; 0x200f <parse+0x2a2>
    2106: 78           	sei
    2107: a5 19        	lda	$19                     ; 0x2019 <parse+0x2ac>
    2109: 06 19        	asl	$19                     ; 0x2019 <parse+0x2ac>
    210b: 26 1d        	rol	$1d                     ; 0x201d <parse+0x2b0>
    210d: 06 19        	asl	$19                     ; 0x2019 <parse+0x2ac>
    210f: 26 1d        	rol	$1d                     ; 0x201d <parse+0x2b0>
    2111: 06 19        	asl	$19                     ; 0x2019 <parse+0x2ac>
    2113: 26 1d        	rol	$1d                     ; 0x201d <parse+0x2b0>
    2115: a4 1d        	ldy	$1d                     ; 0x201d <parse+0x2b0>
    2117: 84 0f        	sty	$f                      ; 0x200f <parse+0x2a2>
    2119: 09 e0        	ora	#$e0
    211b: 85 1d        	sta	$1d                     ; 0x201d <parse+0x2b0>
    211d: b2 1c        	lda	($1c)                   ; 0x201c <parse+0x2af>
    211f: 85 19        	sta	$19                     ; 0x2019 <parse+0x2ac>
    2121: 86 0f        	stx	$f                      ; 0x200f <parse+0x2a2>
    2123: 58           	cli
    2124: a5 28        	lda	$28                     ; 0x2028 <parse+0x2bb>
    2126: 18           	clc
    2127: a0 2c        	ldy	#$2c
    2129: 71 14        	adc	($14),y                 ; 0x2014 <parse+0x2a7>
    212b: aa           	tax
    212c: a5 29        	lda	$29                     ; 0x2029 <parse+0x2bc>
    212e: a0 01        	ldy	#$1
    2130: 71 12        	adc	($12),y                 ; 0x2012 <parse+0x2a5>
    2132: 85 1d        	sta	$1d                     ; 0x201d <parse+0x2b0>
    2134: a5 24        	lda	$24                     ; 0x2024 <parse+0x2b7>
    2136: c8           	iny
    2137: 71 12        	adc	($12),y                 ; 0x2012 <parse+0x2a5>
    2139: a8           	tay
    213a: 18           	clc
    213b: 8a           	txa
    213c: 69 07        	adc	#$7
    213e: 85 1c        	sta	$1c                     ; 0x201c <parse+0x2af>
    2140: a5 1d        	lda	$1d                     ; 0x201d <parse+0x2b0>
    2142: 69 00        	adc	#$0
    2144: aa           	tax
    2145: 98           	tya
    2146: 69 00        	adc	#$0
    2148: 85 13        	sta	$13                     ; 0x2013 <parse+0x2a6>
    214a: a4 0f        	ldy	$f                      ; 0x200f <parse+0x2a2>
    214c: 78           	sei
    214d: 8a           	txa
    214e: 86 12        	stx	$12                     ; 0x2012 <parse+0x2a5>
    2150: 06 12        	asl	$12                     ; 0x2012 <parse+0x2a5>
    2152: 26 13        	rol	$13                     ; 0x2013 <parse+0x2a6>
    2154: 06 12        	asl	$12                     ; 0x2012 <parse+0x2a5>
    2156: 26 13        	rol	$13                     ; 0x2013 <parse+0x2a6>
    2158: 06 12        	asl	$12                     ; 0x2012 <parse+0x2a5>
    215a: 26 13        	rol	$13                     ; 0x2013 <parse+0x2a6>
    215c: a6 13        	ldx	$13                     ; 0x2013 <parse+0x2a6>
    215e: 86 0f        	stx	$f                      ; 0x200f <parse+0x2a2>
    2160: 09 e0        	ora	#$e0
    2162: a6 1c        	ldx	$1c                     ; 0x201c <parse+0x2af>
    2164: 86 12        	stx	$12                     ; 0x2012 <parse+0x2a5>
    2166: 85 13        	sta	$13                     ; 0x2013 <parse+0x2a6>
    2168: b2 12        	lda	($12)                   ; 0x2012 <parse+0x2a5>
    216a: 85 12        	sta	$12                     ; 0x2012 <parse+0x2a5>
    216c: 84 0f        	sty	$f                      ; 0x200f <parse+0x2a2>
    216e: 18           	clc
    216f: a5 28        	lda	$28                     ; 0x2028 <parse+0x2bb>
    2171: 69 08        	adc	#$8
    2173: 85 13        	sta	$13                     ; 0x2013 <parse+0x2a6>
    2175: a5 29        	lda	$29                     ; 0x2029 <parse+0x2bc>
    2177: 69 00        	adc	#$0
    2179: aa           	tax
    217a: a5 24        	lda	$24                     ; 0x2024 <parse+0x2b7>
    217c: 69 00        	adc	#$0
    217e: 85 24        	sta	$24                     ; 0x2024 <parse+0x2b7>
    2180: a5 25        	lda	$25                     ; 0x2025 <parse+0x2b8>
    2182: 69 00        	adc	#$0
    2184: a8           	tay
    2185: a5 13        	lda	$13                     ; 0x2013 <parse+0x2a6>
    2187: 85 1c        	sta	$1c                     ; 0x201c <parse+0x2af>
    2189: a9 00        	lda	#$0
    218b: 18           	clc
    218c: 65 13        	adc	$13                     ; 0x2013 <parse+0x2a6>
    218e: 85 28        	sta	$28                     ; 0x2028 <parse+0x2bb>
    2190: 86 1d        	stx	$1d                     ; 0x201d <parse+0x2b0>
    2192: 86 13        	stx	$13                     ; 0x2013 <parse+0x2a6>
    2194: a9 00        	lda	#$0
    2196: 65 13        	adc	$13                     ; 0x2013 <parse+0x2a6>
    2198: 85 25        	sta	$25                     ; 0x2025 <parse+0x2b8>
    219a: a6 24        	ldx	$24                     ; 0x2024 <parse+0x2b7>
    219c: 86 13        	stx	$13                     ; 0x2013 <parse+0x2a6>
    219e: a9 00        	lda	#$0
    21a0: 65 13        	adc	$13                     ; 0x2013 <parse+0x2a6>
    21a2: aa           	tax
    21a3: 84 13        	sty	$13                     ; 0x2013 <parse+0x2a6>
    21a5: a5 27        	lda	$27                     ; 0x2027 <parse+0x2ba>
    21a7: 65 13        	adc	$13                     ; 0x2013 <parse+0x2a6>
    21a9: 85 13        	sta	$13                     ; 0x2013 <parse+0x2a6>
    21ab: 18           	clc
    21ac: a5 28        	lda	$28                     ; 0x2028 <parse+0x2bb>
    21ae: 69 00        	adc	#$0
    21b0: 85 27        	sta	$27                     ; 0x2027 <parse+0x2ba>
    21b2: a5 25        	lda	$25                     ; 0x2025 <parse+0x2b8>
    21b4: 69 00        	adc	#$0
    21b6: 85 25        	sta	$25                     ; 0x2025 <parse+0x2b8>
    21b8: 8a           	txa
    21b9: 65 18        	adc	$18                     ; 0x2018 <parse+0x2ab>
    21bb: 85 18        	sta	$18                     ; 0x2018 <parse+0x2ab>
    21bd: a5 13        	lda	$13                     ; 0x2013 <parse+0x2a6>
    21bf: 69 00        	adc	#$0
    21c1: 85 13        	sta	$13                     ; 0x2013 <parse+0x2a6>
    21c3: 18           	clc
    21c4: a5 27        	lda	$27                     ; 0x2027 <parse+0x2ba>
    21c6: 69 00        	adc	#$0
    21c8: 85 27        	sta	$27                     ; 0x2027 <parse+0x2ba>
    21ca: a5 25        	lda	$25                     ; 0x2025 <parse+0x2b8>
    21cc: 65 19        	adc	$19                     ; 0x2019 <parse+0x2ac>
    21ce: 85 19        	sta	$19                     ; 0x2019 <parse+0x2ac>
    21d0: a5 18        	lda	$18                     ; 0x2018 <parse+0x2ab>
    21d2: 69 00        	adc	#$0
    21d4: 85 18        	sta	$18                     ; 0x2018 <parse+0x2ab>
    21d6: a5 13        	lda	$13                     ; 0x2013 <parse+0x2a6>
    21d8: 69 00        	adc	#$0
    21da: aa           	tax
    21db: a5 27        	lda	$27                     ; 0x2027 <parse+0x2ba>
    21dd: 18           	clc
    21de: 65 12        	adc	$12                     ; 0x2012 <parse+0x2a5>
    21e0: 85 12        	sta	$12                     ; 0x2012 <parse+0x2a5>
    21e2: a5 19        	lda	$19                     ; 0x2019 <parse+0x2ac>
    21e4: 69 00        	adc	#$0
    21e6: 85 13        	sta	$13                     ; 0x2013 <parse+0x2a6>
    21e8: a5 18        	lda	$18                     ; 0x2018 <parse+0x2ab>
    21ea: 69 00        	adc	#$0
    21ec: 85 18        	sta	$18                     ; 0x2018 <parse+0x2ab>
    21ee: 8a           	txa
    21ef: 69 00        	adc	#$0
    21f1: 58           	cli
    21f2: 85 2c        	sta	$2c                     ; 0x202c <parse+0x2bf>
    21f4: c4 2c        	cpy	$2c                     ; 0x202c <parse+0x2bf>
    21f6: d0 17        	bne	$220f <parse+0x4a2>
    21f8: a5 24        	lda	$24                     ; 0x2024 <parse+0x2b7>
    21fa: c5 18        	cmp	$18                     ; 0x2018 <parse+0x2ab>
    21fc: d0 1a        	bne	$2218 <parse+0x4ab>
    21fe: a6 1d        	ldx	$1d                     ; 0x201d <parse+0x2b0>
    2200: e4 13        	cpx	$13                     ; 0x2013 <parse+0x2a6>
    2202: f0 03        	beq	$2207 <parse+0x49a>
    2204: 4c 1c 28     	jmp	$281c <parse+0xaaf>
    2207: a6 1c        	ldx	$1c                     ; 0x201c <parse+0x2af>
    2209: e4 12        	cpx	$12                     ; 0x2012 <parse+0x2a5>
    220b: b0 06        	bcs	$2213 <parse+0x4a6>
    220d: 80 0d        	bra	$221c <parse+0x4af>
    220f: c4 2c        	cpy	$2c                     ; 0x202c <parse+0x2bf>
    2211: 90 09        	bcc	$221c <parse+0x4af>
    2213: 84 25        	sty	$25                     ; 0x2025 <parse+0x2b8>
    2215: 4c ea 27     	jmp	$27ea <parse+0xa7d>
    2218: c5 18        	cmp	$18                     ; 0x2018 <parse+0x2ab>
    221a: b0 f7        	bcs	$2213 <parse+0x4a6>
    221c: 5a           	phy
    221d: a5 18        	lda	$18                     ; 0x2018 <parse+0x2ab>
    221f: a0 1a        	ldy	#$1a
    2221: 91 10        	sta	($10),y                 ; 0x2010 <parse+0x2a3>
    2223: a5 13        	lda	$13                     ; 0x2013 <parse+0x2a6>
    2225: a0 17        	ldy	#$17
    2227: 91 10        	sta	($10),y                 ; 0x2010 <parse+0x2a3>
    2229: a5 12        	lda	$12                     ; 0x2012 <parse+0x2a5>
    222b: 88           	dey
    222c: 91 10        	sta	($10),y                 ; 0x2010 <parse+0x2a3>
    222e: a5 26        	lda	$26                     ; 0x2026 <parse+0x2b9>
    2230: a0 1d        	ldy	#$1d
    2232: 91 10        	sta	($10),y                 ; 0x2010 <parse+0x2a3>
    2234: a5 23        	lda	$23                     ; 0x2023 <parse+0x2b6>
    2236: c8           	iny
    2237: 91 10        	sta	($10),y                 ; 0x2010 <parse+0x2a3>
    2239: a5 22        	lda	$22                     ; 0x2022 <parse+0x2b5>
    223b: c8           	iny
    223c: 91 10        	sta	($10),y                 ; 0x2010 <parse+0x2a3>
    223e: a5 1f        	lda	$1f                     ; 0x201f <parse+0x2b2>
    2240: c8           	iny
    2241: 91 10        	sta	($10),y                 ; 0x2010 <parse+0x2a3>
    2243: a5 1e        	lda	$1e                     ; 0x201e <parse+0x2b1>
    2245: c8           	iny
    2246: 91 10        	sta	($10),y                 ; 0x2010 <parse+0x2a3>
    2248: 7a           	ply
    2249: 84 25        	sty	$25                     ; 0x2025 <parse+0x2b8>
    224b: a5 1a        	lda	$1a                     ; 0x201a <parse+0x2ad>
    224d: 0a           	asl
    224e: aa           	tax
    224f: a5 1b        	lda	$1b                     ; 0x201b <parse+0x2ae>
    2251: 2a           	rol
    2252: 86 12        	stx	$12                     ; 0x2012 <parse+0x2a5>
    2254: 06 12        	asl	$12                     ; 0x2012 <parse+0x2a5>
    2256: 2a           	rol
    2257: 06 12        	asl	$12                     ; 0x2012 <parse+0x2a5>
    2259: 2a           	rol
    225a: aa           	tax
    225b: 38           	sec
    225c: a5 1a        	lda	$1a                     ; 0x201a <parse+0x2ad>
    225e: a0 1c        	ldy	#$1c
    2260: 91 10        	sta	($10),y                 ; 0x2010 <parse+0x2a3>
    2262: a5 12        	lda	$12                     ; 0x2012 <parse+0x2a5>
    2264: e5 1a        	sbc	$1a                     ; 0x201a <parse+0x2ad>
    2266: 85 18        	sta	$18                     ; 0x2018 <parse+0x2ab>
    2268: a5 1b        	lda	$1b                     ; 0x201b <parse+0x2ae>
    226a: 88           	dey
    226b: 91 10        	sta	($10),y                 ; 0x2010 <parse+0x2a3>
    226d: 8a           	txa
    226e: e5 1b        	sbc	$1b                     ; 0x201b <parse+0x2ae>
    2270: a8           	tay
    2271: 18           	clc
    2272: a5 18        	lda	$18                     ; 0x2018 <parse+0x2ab>
    2274: 65 16        	adc	$16                     ; 0x2016 <parse+0x2a9>
    2276: aa           	tax
    2277: 5a           	phy
    2278: a5 16        	lda	$16                     ; 0x2016 <parse+0x2a9>
    227a: a0 18        	ldy	#$18
    227c: 91 10        	sta	($10),y                 ; 0x2010 <parse+0x2a3>
    227e: a5 17        	lda	$17                     ; 0x2017 <parse+0x2aa>
    2280: c8           	iny
    2281: 91 10        	sta	($10),y                 ; 0x2010 <parse+0x2a3>
    2283: 7a           	ply
    2284: 98           	tya
    2285: 65 17        	adc	$17                     ; 0x2017 <parse+0x2aa>
    2287: 86 16        	stx	$16                     ; 0x2016 <parse+0x2a9>
    2289: 85 17        	sta	$17                     ; 0x2017 <parse+0x2aa>
    228b: a8           	tay
    228c: 18           	clc
    228d: 8a           	txa
    228e: 69 03        	adc	#$3
    2290: 85 18        	sta	$18                     ; 0x2018 <parse+0x2ab>
    2292: 98           	tya
    2293: 69 00        	adc	#$0
    2295: 85 19        	sta	$19                     ; 0x2019 <parse+0x2ac>
    2297: a5 18        	lda	$18                     ; 0x2018 <parse+0x2ab>
    2299: a0 0c        	ldy	#$c
    229b: 91 10        	sta	($10),y                 ; 0x2010 <parse+0x2a3>
    229d: a5 19        	lda	$19                     ; 0x2019 <parse+0x2ac>
    229f: c8           	iny
    22a0: 91 10        	sta	($10),y                 ; 0x2010 <parse+0x2a3>
    22a2: a5 16        	lda	$16                     ; 0x2016 <parse+0x2a9>
    22a4: a0 10        	ldy	#$10
    22a6: 91 10        	sta	($10),y                 ; 0x2010 <parse+0x2a3>
    22a8: a5 17        	lda	$17                     ; 0x2017 <parse+0x2aa>
    22aa: c8           	iny
    22ab: 91 10        	sta	($10),y                 ; 0x2010 <parse+0x2a3>
    22ad: a6 16        	ldx	$16                     ; 0x2016 <parse+0x2a9>
    22af: 86 12        	stx	$12                     ; 0x2012 <parse+0x2a5>
    22b1: a6 17        	ldx	$17                     ; 0x2017 <parse+0x2aa>
    22b3: 86 13        	stx	$13                     ; 0x2013 <parse+0x2a6>
    22b5: e6 12        	inc	$12                     ; 0x2012 <parse+0x2a5>
    22b7: d0 02        	bne	$22bb <parse+0x54e>
    22b9: e6 13        	inc	$13                     ; 0x2013 <parse+0x2a6>
    22bb: a5 12        	lda	$12                     ; 0x2012 <parse+0x2a5>
    22bd: a0 0a        	ldy	#$a
    22bf: 91 10        	sta	($10),y                 ; 0x2010 <parse+0x2a3>
    22c1: a5 13        	lda	$13                     ; 0x2013 <parse+0x2a6>
    22c3: c8           	iny
    22c4: 91 10        	sta	($10),y                 ; 0x2010 <parse+0x2a3>
    22c6: 64 12        	stz	$12                     ; 0x2012 <parse+0x2a5>
    22c8: a9 00        	lda	#$0
    22ca: a0 15        	ldy	#$15
    22cc: 91 10        	sta	($10),y                 ; 0x2010 <parse+0x2a3>
    22ce: 88           	dey
    22cf: 91 10        	sta	($10),y                 ; 0x2010 <parse+0x2a3>
    22d1: 64 2e        	stz	$2e                     ; 0x202e <parse+0x2c1>
    22d3: a6 2c        	ldx	$2c                     ; 0x202c <parse+0x2bf>
    22d5: 86 1a        	stx	$1a                     ; 0x201a <parse+0x2ad>
    22d7: a5 14        	lda	$14                     ; 0x2014 <parse+0x2a7>
    22d9: 18           	clc
    22da: 69 2c        	adc	#$2c
    22dc: 85 12        	sta	$12                     ; 0x2012 <parse+0x2a5>
    22de: a5 15        	lda	$15                     ; 0x2015 <parse+0x2a8>
    22e0: 69 00        	adc	#$0
    22e2: 85 13        	sta	$13                     ; 0x2013 <parse+0x2a6>
    22e4: 18           	clc
    22e5: a5 1c        	lda	$1c                     ; 0x201c <parse+0x2af>
    22e7: a0 2c        	ldy	#$2c
    22e9: 71 14        	adc	($14),y                 ; 0x2014 <parse+0x2a7>
    22eb: 85 16        	sta	$16                     ; 0x2016 <parse+0x2a9>
    22ed: a6 1d        	ldx	$1d                     ; 0x201d <parse+0x2b0>
    22ef: 86 2a        	stx	$2a                     ; 0x202a <parse+0x2bd>
    22f1: a5 1d        	lda	$1d                     ; 0x201d <parse+0x2b0>
    22f3: a0 01        	ldy	#$1
    22f5: 71 12        	adc	($12),y                 ; 0x2012 <parse+0x2a5>
    22f7: 85 17        	sta	$17                     ; 0x2017 <parse+0x2aa>
    22f9: a5 24        	lda	$24                     ; 0x2024 <parse+0x2b7>
    22fb: c8           	iny
    22fc: 71 12        	adc	($12),y                 ; 0x2012 <parse+0x2a5>
    22fe: a6 0f        	ldx	$f                      ; 0x200f <parse+0x2a2>
    2300: 78           	sei
    2301: a4 17        	ldy	$17                     ; 0x2017 <parse+0x2aa>
    2303: 84 12        	sty	$12                     ; 0x2012 <parse+0x2a5>
    2305: 06 12        	asl	$12                     ; 0x2012 <parse+0x2a5>
    2307: 2a           	rol
    2308: 06 12        	asl	$12                     ; 0x2012 <parse+0x2a5>
    230a: 2a           	rol
    230b: 06 12        	asl	$12                     ; 0x2012 <parse+0x2a5>
    230d: 2a           	rol
    230e: 85 0f        	sta	$f                      ; 0x200f <parse+0x2a2>
    2310: a5 17        	lda	$17                     ; 0x2017 <parse+0x2aa>
    2312: 09 e0        	ora	#$e0
    2314: a4 16        	ldy	$16                     ; 0x2016 <parse+0x2a9>
    2316: 84 12        	sty	$12                     ; 0x2012 <parse+0x2a5>
    2318: 85 13        	sta	$13                     ; 0x2013 <parse+0x2a6>
    231a: b2 12        	lda	($12)                   ; 0x2012 <parse+0x2a5>
    231c: 86 0f        	stx	$f                      ; 0x200f <parse+0x2a2>
    231e: 58           	cli
    231f: a6 25        	ldx	$25                     ; 0x2025 <parse+0x2b8>
    2321: 86 2c        	stx	$2c                     ; 0x202c <parse+0x2bf>
    2323: a6 1c        	ldx	$1c                     ; 0x201c <parse+0x2af>
    2325: 86 16        	stx	$16                     ; 0x2016 <parse+0x2a9>
    2327: a6 1c        	ldx	$1c                     ; 0x201c <parse+0x2af>
    2329: a4 1d        	ldy	$1d                     ; 0x201d <parse+0x2b0>
    232b: 84 17        	sty	$17                     ; 0x2017 <parse+0x2aa>
    232d: a4 24        	ldy	$24                     ; 0x2024 <parse+0x2b7>
    232f: 84 1c        	sty	$1c                     ; 0x201c <parse+0x2af>
    2331: e8           	inx
    2332: d0 0a        	bne	$233e <parse+0x5d1>
    2334: e6 2a        	inc	$2a                     ; 0x202a <parse+0x2bd>
    2336: d0 06        	bne	$233e <parse+0x5d1>
    2338: e6 24        	inc	$24                     ; 0x2024 <parse+0x2b7>
    233a: d0 02        	bne	$233e <parse+0x5d1>
    233c: e6 2c        	inc	$2c                     ; 0x202c <parse+0x2bf>
    233e: 85 1d        	sta	$1d                     ; 0x201d <parse+0x2b0>
    2340: a8           	tay
    2341: 30 20        	bmi	$2363 <parse+0x5f6>
    2343: a5 24        	lda	$24                     ; 0x2024 <parse+0x2b7>
    2345: a0 24        	ldy	#$24
    2347: 91 10        	sta	($10),y                 ; 0x2010 <parse+0x2a3>
    2349: 86 2b        	stx	$2b                     ; 0x202b <parse+0x2be>
    234b: 64 1c        	stz	$1c                     ; 0x201c <parse+0x2af>
    234d: 64 2f        	stz	$2f                     ; 0x202f <parse+0x2c2>
    234f: 64 13        	stz	$13                     ; 0x2013 <parse+0x2a6>
    2351: 64 12        	stz	$12                     ; 0x2012 <parse+0x2a5>
    2353: a9 00        	lda	#$0
    2355: a0 22        	ldy	#$22
    2357: 91 10        	sta	($10),y                 ; 0x2010 <parse+0x2a3>
    2359: 64 1b        	stz	$1b                     ; 0x201b <parse+0x2ae>
    235b: 64 18        	stz	$18                     ; 0x2018 <parse+0x2ab>
    235d: c8           	iny
    235e: 91 10        	sta	($10),y                 ; 0x2010 <parse+0x2a3>
    2360: 4c d6 24     	jmp	$24d6 <parse+0x769>
    2363: 64 2f        	stz	$2f                     ; 0x202f <parse+0x2c2>
    2365: 85 13        	sta	$13                     ; 0x2013 <parse+0x2a6>
    2367: 46 13        	lsr	$13                     ; 0x2013 <parse+0x2a6>
    2369: a0 00        	ldy	#$0
    236b: 64 12        	stz	$12                     ; 0x2012 <parse+0x2a5>
    236d: 66 12        	ror	$12                     ; 0x2012 <parse+0x2a5>
    236f: a5 14        	lda	$14                     ; 0x2014 <parse+0x2a7>
    2371: 18           	clc
    2372: 69 2c        	adc	#$2c
    2374: a8           	tay
    2375: a5 15        	lda	$15                     ; 0x2015 <parse+0x2a8>
    2377: 69 00        	adc	#$0
    2379: 85 19        	sta	$19                     ; 0x2019 <parse+0x2ac>
    237b: a5 12        	lda	$12                     ; 0x2012 <parse+0x2a5>
    237d: 29 80        	and	#$80
    237f: 85 1d        	sta	$1d                     ; 0x201d <parse+0x2b0>
    2381: a5 13        	lda	$13                     ; 0x2013 <parse+0x2a6>
    2383: 29 3f        	and	#$3f
    2385: 85 18        	sta	$18                     ; 0x2018 <parse+0x2ab>
    2387: 84 12        	sty	$12                     ; 0x2012 <parse+0x2a5>
    2389: a4 19        	ldy	$19                     ; 0x2019 <parse+0x2ac>
    238b: 84 13        	sty	$13                     ; 0x2013 <parse+0x2a6>
    238d: 18           	clc
    238e: a0 2c        	ldy	#$2c
    2390: 8a           	txa
    2391: 71 14        	adc	($14),y                 ; 0x2014 <parse+0x2a7>
    2393: 85 1b        	sta	$1b                     ; 0x201b <parse+0x2ae>
    2395: a5 2a        	lda	$2a                     ; 0x202a <parse+0x2bd>
    2397: a0 01        	ldy	#$1
    2399: 71 12        	adc	($12),y                 ; 0x2012 <parse+0x2a5>
    239b: 85 19        	sta	$19                     ; 0x2019 <parse+0x2ac>
    239d: a5 24        	lda	$24                     ; 0x2024 <parse+0x2b7>
    239f: c8           	iny
    23a0: 71 12        	adc	($12),y                 ; 0x2012 <parse+0x2a5>
    23a2: a6 0f        	ldx	$f                      ; 0x200f <parse+0x2a2>
    23a4: 78           	sei
    23a5: a4 19        	ldy	$19                     ; 0x2019 <parse+0x2ac>
    23a7: 84 12        	sty	$12                     ; 0x2012 <parse+0x2a5>
    23a9: 06 12        	asl	$12                     ; 0x2012 <parse+0x2a5>
    23ab: 2a           	rol
    23ac: 06 12        	asl	$12                     ; 0x2012 <parse+0x2a5>
    23ae: 2a           	rol
    23af: 06 12        	asl	$12                     ; 0x2012 <parse+0x2a5>
    23b1: 2a           	rol
    23b2: 85 0f        	sta	$f                      ; 0x200f <parse+0x2a2>
    23b4: a5 19        	lda	$19                     ; 0x2019 <parse+0x2ac>
    23b6: 09 e0        	ora	#$e0
    23b8: a4 1b        	ldy	$1b                     ; 0x201b <parse+0x2ae>
    23ba: 84 12        	sty	$12                     ; 0x2012 <parse+0x2a5>
    23bc: 85 13        	sta	$13                     ; 0x2013 <parse+0x2a6>
    23be: b2 12        	lda	($12)                   ; 0x2012 <parse+0x2a5>
    23c0: 85 12        	sta	$12                     ; 0x2012 <parse+0x2a5>
    23c2: 86 0f        	stx	$f                      ; 0x200f <parse+0x2a2>
    23c4: 58           	cli
    23c5: a5 16        	lda	$16                     ; 0x2016 <parse+0x2a9>
    23c7: 18           	clc
    23c8: 69 02        	adc	#$2
    23ca: 85 2b        	sta	$2b                     ; 0x202b <parse+0x2be>
    23cc: a5 17        	lda	$17                     ; 0x2017 <parse+0x2aa>
    23ce: 69 00        	adc	#$0
    23d0: 85 2a        	sta	$2a                     ; 0x202a <parse+0x2bd>
    23d2: a5 1c        	lda	$1c                     ; 0x201c <parse+0x2af>
    23d4: 69 00        	adc	#$0
    23d6: a0 01        	ldy	#$1
    23d8: b0 02        	bcs	$23dc <parse+0x66f>
    23da: a0 00        	ldy	#$0
    23dc: a6 12        	ldx	$12                     ; 0x2012 <parse+0x2a5>
    23de: 30 4b        	bmi	$242b <parse+0x6be>
    23e0: 5a           	phy
    23e1: 48           	pha
    23e2: 8a           	txa
    23e3: a0 23        	ldy	#$23
    23e5: 91 10        	sta	($10),y                 ; 0x2010 <parse+0x2a3>
    23e7: 68           	pla
    23e8: c8           	iny
    23e9: 91 10        	sta	($10),y                 ; 0x2010 <parse+0x2a3>
    23eb: 7a           	ply
    23ec: a5 25        	lda	$25                     ; 0x2025 <parse+0x2b8>
    23ee: c0 01        	cpy	#$1
    23f0: 69 00        	adc	#$0
    23f2: 85 2c        	sta	$2c                     ; 0x202c <parse+0x2bf>
    23f4: a6 18        	ldx	$18                     ; 0x2018 <parse+0x2ab>
    23f6: 86 1c        	stx	$1c                     ; 0x201c <parse+0x2af>
    23f8: 64 13        	stz	$13                     ; 0x2013 <parse+0x2a6>
    23fa: a9 00        	lda	#$0
    23fc: a0 22        	ldy	#$22
    23fe: 91 10        	sta	($10),y                 ; 0x2010 <parse+0x2a3>
    2400: 64 1b        	stz	$1b                     ; 0x201b <parse+0x2ae>
    2402: 64 18        	stz	$18                     ; 0x2018 <parse+0x2ab>
    2404: 4c d6 24     	jmp	$24d6 <parse+0x769>
    2407: a2 00        	ldx	#$0
    2409: 1a           	inc
    240a: d0 01        	bne	$240d <parse+0x6a0>
    240c: e8           	inx
    240d: 85 12        	sta	$12                     ; 0x2012 <parse+0x2a5>
    240f: a5 17        	lda	$17                     ; 0x2017 <parse+0x2aa>
    2411: 86 13        	stx	$13                     ; 0x2013 <parse+0x2a6>
    2413: 18           	clc
    2414: 65 12        	adc	$12                     ; 0x2012 <parse+0x2a5>
    2416: 85 1c        	sta	$1c                     ; 0x201c <parse+0x2af>
    2418: a5 1d        	lda	$1d                     ; 0x201d <parse+0x2b0>
    241a: 65 13        	adc	$13                     ; 0x2013 <parse+0x2a6>
    241c: 85 1d        	sta	$1d                     ; 0x201d <parse+0x2b0>
    241e: a5 24        	lda	$24                     ; 0x2024 <parse+0x2b7>
    2420: 69 00        	adc	#$0
    2422: 85 24        	sta	$24                     ; 0x2024 <parse+0x2b7>
    2424: a5 18        	lda	$18                     ; 0x2018 <parse+0x2ab>
    2426: 69 00        	adc	#$0
    2428: 4c 67 27     	jmp	$2767 <parse+0x9fa>
    242b: 46 12        	lsr	$12                     ; 0x2012 <parse+0x2a5>
    242d: a4 12        	ldy	$12                     ; 0x2012 <parse+0x2a5>
    242f: 64 12        	stz	$12                     ; 0x2012 <parse+0x2a5>
    2431: 66 12        	ror	$12                     ; 0x2012 <parse+0x2a5>
    2433: aa           	tax
    2434: a5 18        	lda	$18                     ; 0x2018 <parse+0x2ab>
    2436: 4a           	lsr
    2437: 85 2f        	sta	$2f                     ; 0x202f <parse+0x2c2>
    2439: 66 1d        	ror	$1d                     ; 0x201d <parse+0x2b0>
    243b: 64 1e        	stz	$1e                     ; 0x201e <parse+0x2b1>
    243d: 66 1e        	ror	$1e                     ; 0x201e <parse+0x2b1>
    243f: a5 14        	lda	$14                     ; 0x2014 <parse+0x2a7>
    2441: 18           	clc
    2442: 69 2c        	adc	#$2c
    2444: 85 18        	sta	$18                     ; 0x2018 <parse+0x2ab>
    2446: a5 15        	lda	$15                     ; 0x2015 <parse+0x2a8>
    2448: 69 00        	adc	#$0
    244a: 85 19        	sta	$19                     ; 0x2019 <parse+0x2ac>
    244c: 64 13        	stz	$13                     ; 0x2013 <parse+0x2a6>
    244e: a5 12        	lda	$12                     ; 0x2012 <parse+0x2a5>
    2450: 29 80        	and	#$80
    2452: 85 22        	sta	$22                     ; 0x2022 <parse+0x2b5>
    2454: 98           	tya
    2455: 29 3f        	and	#$3f
    2457: 85 1b        	sta	$1b                     ; 0x201b <parse+0x2ae>
    2459: 18           	clc
    245a: a0 2c        	ldy	#$2c
    245c: a5 2b        	lda	$2b                     ; 0x202b <parse+0x2be>
    245e: 71 14        	adc	($14),y                 ; 0x2014 <parse+0x2a7>
    2460: 85 1f        	sta	$1f                     ; 0x201f <parse+0x2b2>
    2462: a0 01        	ldy	#$1
    2464: a5 2a        	lda	$2a                     ; 0x202a <parse+0x2bd>
    2466: 71 18        	adc	($18),y                 ; 0x2018 <parse+0x2ab>
    2468: 85 23        	sta	$23                     ; 0x2023 <parse+0x2b6>
    246a: 8a           	txa
    246b: c8           	iny
    246c: 71 18        	adc	($18),y                 ; 0x2018 <parse+0x2ab>
    246e: a6 23        	ldx	$23                     ; 0x2023 <parse+0x2b6>
    2470: 86 12        	stx	$12                     ; 0x2012 <parse+0x2a5>
    2472: 06 12        	asl	$12                     ; 0x2012 <parse+0x2a5>
    2474: 2a           	rol
    2475: 06 12        	asl	$12                     ; 0x2012 <parse+0x2a5>
    2477: 2a           	rol
    2478: 06 12        	asl	$12                     ; 0x2012 <parse+0x2a5>
    247a: 2a           	rol
    247b: a6 0f        	ldx	$f                      ; 0x200f <parse+0x2a2>
    247d: 78           	sei
    247e: 85 0f        	sta	$f                      ; 0x200f <parse+0x2a2>
    2480: a5 23        	lda	$23                     ; 0x2023 <parse+0x2b6>
    2482: 09 e0        	ora	#$e0
    2484: a4 1f        	ldy	$1f                     ; 0x201f <parse+0x2b2>
    2486: 84 18        	sty	$18                     ; 0x2018 <parse+0x2ab>
    2488: 85 19        	sta	$19                     ; 0x2019 <parse+0x2ac>
    248a: b2 18        	lda	($18)                   ; 0x2018 <parse+0x2ab>
    248c: 85 18        	sta	$18                     ; 0x2018 <parse+0x2ab>
    248e: 86 0f        	stx	$f                      ; 0x200f <parse+0x2a2>
    2490: 58           	cli
    2491: a5 16        	lda	$16                     ; 0x2016 <parse+0x2a9>
    2493: 18           	clc
    2494: 69 03        	adc	#$3
    2496: 85 2b        	sta	$2b                     ; 0x202b <parse+0x2be>
    2498: a5 17        	lda	$17                     ; 0x2017 <parse+0x2aa>
    249a: 69 00        	adc	#$0
    249c: 85 2a        	sta	$2a                     ; 0x202a <parse+0x2bd>
    249e: a5 1c        	lda	$1c                     ; 0x201c <parse+0x2af>
    24a0: 69 00        	adc	#$0
    24a2: a2 01        	ldx	#$1
    24a4: b0 03        	bcs	$24a9 <parse+0x73c>
    24a6: 4c aa 28     	jmp	$28aa <parse+0xb3d>
    24a9: 86 12        	stx	$12                     ; 0x2012 <parse+0x2a5>
    24ab: aa           	tax
    24ac: a5 18        	lda	$18                     ; 0x2018 <parse+0x2ab>
    24ae: 10 03        	bpl	$24b3 <parse+0x746>
    24b0: 4c af 28     	jmp	$28af <parse+0xb42>
    24b3: a5 1b        	lda	$1b                     ; 0x201b <parse+0x2ae>
    24b5: a0 22        	ldy	#$22
    24b7: 91 10        	sta	($10),y                 ; 0x2010 <parse+0x2a3>
    24b9: a5 22        	lda	$22                     ; 0x2022 <parse+0x2b5>
    24bb: c8           	iny
    24bc: 91 10        	sta	($10),y                 ; 0x2010 <parse+0x2a3>
    24be: 8a           	txa
    24bf: c8           	iny
    24c0: 91 10        	sta	($10),y                 ; 0x2010 <parse+0x2a3>
    24c2: a5 25        	lda	$25                     ; 0x2025 <parse+0x2b8>
    24c4: a6 12        	ldx	$12                     ; 0x2012 <parse+0x2a5>
    24c6: e0 01        	cpx	#$1
    24c8: 69 00        	adc	#$0
    24ca: a6 1d        	ldx	$1d                     ; 0x201d <parse+0x2b0>
    24cc: 86 1c        	stx	$1c                     ; 0x201c <parse+0x2af>
    24ce: 85 2c        	sta	$2c                     ; 0x202c <parse+0x2bf>
    24d0: a6 1e        	ldx	$1e                     ; 0x201e <parse+0x2b1>
    24d2: 86 1d        	stx	$1d                     ; 0x201d <parse+0x2b0>
    24d4: 64 1b        	stz	$1b                     ; 0x201b <parse+0x2ae>
    24d6: 64 25        	stz	$25                     ; 0x2025 <parse+0x2b8>
    24d8: 64 19        	stz	$19                     ; 0x2019 <parse+0x2ac>
    24da: a5 14        	lda	$14                     ; 0x2014 <parse+0x2a7>
    24dc: 18           	clc
    24dd: 69 2c        	adc	#$2c
    24df: 85 22        	sta	$22                     ; 0x2022 <parse+0x2b5>
    24e1: a5 15        	lda	$15                     ; 0x2015 <parse+0x2a8>
    24e3: 69 00        	adc	#$0
    24e5: 85 23        	sta	$23                     ; 0x2023 <parse+0x2b6>
    24e7: a5 2b        	lda	$2b                     ; 0x202b <parse+0x2be>
    24e9: 18           	clc
    24ea: a0 2c        	ldy	#$2c
    24ec: 71 14        	adc	($14),y                 ; 0x2014 <parse+0x2a7>
    24ee: 85 12        	sta	$12                     ; 0x2012 <parse+0x2a5>
    24f0: a5 2a        	lda	$2a                     ; 0x202a <parse+0x2bd>
    24f2: a0 01        	ldy	#$1
    24f4: 71 22        	adc	($22),y                 ; 0x2022 <parse+0x2b5>
    24f6: 85 24        	sta	$24                     ; 0x2024 <parse+0x2b7>
    24f8: a0 24        	ldy	#$24
    24fa: b1 10        	lda	($10),y                 ; 0x2010 <parse+0x2a3>
    24fc: 85 16        	sta	$16                     ; 0x2016 <parse+0x2a9>
    24fe: a0 02        	ldy	#$2
    2500: 71 22        	adc	($22),y                 ; 0x2022 <parse+0x2b5>
    2502: a6 0f        	ldx	$f                      ; 0x200f <parse+0x2a2>
    2504: 78           	sei
    2505: a4 24        	ldy	$24                     ; 0x2024 <parse+0x2b7>
    2507: 84 1e        	sty	$1e                     ; 0x201e <parse+0x2b1>
    2509: 06 1e        	asl	$1e                     ; 0x201e <parse+0x2b1>
    250b: 2a           	rol
    250c: 06 1e        	asl	$1e                     ; 0x201e <parse+0x2b1>
    250e: 2a           	rol
    250f: 06 1e        	asl	$1e                     ; 0x201e <parse+0x2b1>
    2511: 2a           	rol
    2512: 85 0f        	sta	$f                      ; 0x200f <parse+0x2a2>
    2514: a5 24        	lda	$24                     ; 0x2024 <parse+0x2b7>
    2516: 09 e0        	ora	#$e0
    2518: a4 12        	ldy	$12                     ; 0x2012 <parse+0x2a5>
    251a: 84 1e        	sty	$1e                     ; 0x201e <parse+0x2b1>
    251c: 85 1f        	sta	$1f                     ; 0x201f <parse+0x2b2>
    251e: b2 1e        	lda	($1e)                   ; 0x201e <parse+0x2b1>
    2520: 85 12        	sta	$12                     ; 0x2012 <parse+0x2a5>
    2522: 86 0f        	stx	$f                      ; 0x200f <parse+0x2a2>
    2524: 58           	cli
    2525: a6 16        	ldx	$16                     ; 0x2016 <parse+0x2a9>
    2527: 86 1f        	stx	$1f                     ; 0x201f <parse+0x2b2>
    2529: a5 2b        	lda	$2b                     ; 0x202b <parse+0x2be>
    252b: a6 2c        	ldx	$2c                     ; 0x202c <parse+0x2bf>
    252d: 86 24        	stx	$24                     ; 0x2024 <parse+0x2b7>
    252f: a6 2c        	ldx	$2c                     ; 0x202c <parse+0x2bf>
    2531: 86 1e        	stx	$1e                     ; 0x201e <parse+0x2b1>
    2533: a6 2a        	ldx	$2a                     ; 0x202a <parse+0x2bd>
    2535: 1a           	inc
    2536: d0 09        	bne	$2541 <parse+0x7d4>
    2538: e8           	inx
    2539: d0 06        	bne	$2541 <parse+0x7d4>
    253b: e6 1f        	inc	$1f                     ; 0x201f <parse+0x2b2>
    253d: d0 02        	bne	$2541 <parse+0x7d4>
    253f: e6 1e        	inc	$1e                     ; 0x201e <parse+0x2b1>
    2541: 85 26        	sta	$26                     ; 0x2026 <parse+0x2b9>
    2543: 18           	clc
    2544: a0 2c        	ldy	#$2c
    2546: 71 14        	adc	($14),y                 ; 0x2014 <parse+0x2a7>
    2548: 85 2c        	sta	$2c                     ; 0x202c <parse+0x2bf>
    254a: 86 28        	stx	$28                     ; 0x2028 <parse+0x2bb>
    254c: 8a           	txa
    254d: a0 01        	ldy	#$1
    254f: 71 22        	adc	($22),y                 ; 0x2022 <parse+0x2b5>
    2551: 85 2d        	sta	$2d                     ; 0x202d <parse+0x2c0>
    2553: a6 1f        	ldx	$1f                     ; 0x201f <parse+0x2b2>
    2555: 86 27        	stx	$27                     ; 0x2027 <parse+0x2ba>
    2557: a5 1f        	lda	$1f                     ; 0x201f <parse+0x2b2>
    2559: c8           	iny
    255a: 71 22        	adc	($22),y                 ; 0x2022 <parse+0x2b5>
    255c: a6 2d        	ldx	$2d                     ; 0x202d <parse+0x2c0>
    255e: 86 1f        	stx	$1f                     ; 0x201f <parse+0x2b2>
    2560: 06 1f        	asl	$1f                     ; 0x201f <parse+0x2b2>
    2562: 2a           	rol
    2563: 06 1f        	asl	$1f                     ; 0x201f <parse+0x2b2>
    2565: 2a           	rol
    2566: 06 1f        	asl	$1f                     ; 0x201f <parse+0x2b2>
    2568: 2a           	rol
    2569: a6 0f        	ldx	$f                      ; 0x200f <parse+0x2a2>
    256b: 78           	sei
    256c: 85 0f        	sta	$f                      ; 0x200f <parse+0x2a2>
    256e: a5 2d        	lda	$2d                     ; 0x202d <parse+0x2c0>
    2570: 09 e0        	ora	#$e0
    2572: 85 2d        	sta	$2d                     ; 0x202d <parse+0x2c0>
    2574: b2 2c        	lda	($2c)                   ; 0x202c <parse+0x2bf>
    2576: 85 2c        	sta	$2c                     ; 0x202c <parse+0x2bf>
    2578: 86 0f        	stx	$f                      ; 0x200f <parse+0x2a2>
    257a: 58           	cli
    257b: a5 2b        	lda	$2b                     ; 0x202b <parse+0x2be>
    257d: 18           	clc
    257e: a0 2c        	ldy	#$2c
    2580: 71 14        	adc	($14),y                 ; 0x2014 <parse+0x2a7>
    2582: aa           	tax
    2583: a5 2a        	lda	$2a                     ; 0x202a <parse+0x2bd>
    2585: a0 01        	ldy	#$1
    2587: 71 22        	adc	($22),y                 ; 0x2022 <parse+0x2b5>
    2589: 85 1f        	sta	$1f                     ; 0x201f <parse+0x2b2>
    258b: a5 16        	lda	$16                     ; 0x2016 <parse+0x2a9>
    258d: c8           	iny
    258e: 71 22        	adc	($22),y                 ; 0x2022 <parse+0x2b5>
    2590: a8           	tay
    2591: 18           	clc
    2592: 8a           	txa
    2593: 69 02        	adc	#$2
    2595: 85 22        	sta	$22                     ; 0x2022 <parse+0x2b5>
    2597: a5 1f        	lda	$1f                     ; 0x201f <parse+0x2b2>
    2599: 69 00        	adc	#$0
    259b: aa           	tax
    259c: 98           	tya
    259d: 69 00        	adc	#$0
    259f: 85 23        	sta	$23                     ; 0x2023 <parse+0x2b6>
    25a1: 8a           	txa
    25a2: 86 1f        	stx	$1f                     ; 0x201f <parse+0x2b2>
    25a4: 06 1f        	asl	$1f                     ; 0x201f <parse+0x2b2>
    25a6: 26 23        	rol	$23                     ; 0x2023 <parse+0x2b6>
    25a8: 06 1f        	asl	$1f                     ; 0x201f <parse+0x2b2>
    25aa: 26 23        	rol	$23                     ; 0x2023 <parse+0x2b6>
    25ac: 06 1f        	asl	$1f                     ; 0x201f <parse+0x2b2>
    25ae: 26 23        	rol	$23                     ; 0x2023 <parse+0x2b6>
    25b0: a4 23        	ldy	$23                     ; 0x2023 <parse+0x2b6>
    25b2: a6 0f        	ldx	$f                      ; 0x200f <parse+0x2a2>
    25b4: 78           	sei
    25b5: 84 0f        	sty	$f                      ; 0x200f <parse+0x2a2>
    25b7: 09 e0        	ora	#$e0
    25b9: 85 23        	sta	$23                     ; 0x2023 <parse+0x2b6>
    25bb: b2 22        	lda	($22)                   ; 0x2022 <parse+0x2b5>
    25bd: 86 0f        	stx	$f                      ; 0x200f <parse+0x2a2>
    25bf: 58           	cli
    25c0: a6 12        	ldx	$12                     ; 0x2012 <parse+0x2a5>
    25c2: 10 03        	bpl	$25c7 <parse+0x85a>
    25c4: 4c 40 26     	jmp	$2640 <parse+0x8d3>
    25c7: a5 14        	lda	$14                     ; 0x2014 <parse+0x2a7>
    25c9: 18           	clc
    25ca: 69 2c        	adc	#$2c
    25cc: 85 22        	sta	$22                     ; 0x2022 <parse+0x2b5>
    25ce: a5 15        	lda	$15                     ; 0x2015 <parse+0x2a8>
    25d0: 69 00        	adc	#$0
    25d2: 85 23        	sta	$23                     ; 0x2023 <parse+0x2b6>
    25d4: a5 2b        	lda	$2b                     ; 0x202b <parse+0x2be>
    25d6: 18           	clc
    25d7: a0 2c        	ldy	#$2c
    25d9: 71 14        	adc	($14),y                 ; 0x2014 <parse+0x2a7>
    25db: 85 12        	sta	$12                     ; 0x2012 <parse+0x2a5>
    25dd: a5 2a        	lda	$2a                     ; 0x202a <parse+0x2bd>
    25df: a0 01        	ldy	#$1
    25e1: 71 22        	adc	($22),y                 ; 0x2022 <parse+0x2b5>
    25e3: 85 17        	sta	$17                     ; 0x2017 <parse+0x2aa>
    25e5: a5 16        	lda	$16                     ; 0x2016 <parse+0x2a9>
    25e7: c8           	iny
    25e8: 71 22        	adc	($22),y                 ; 0x2022 <parse+0x2b5>
    25ea: a6 17        	ldx	$17                     ; 0x2017 <parse+0x2aa>
    25ec: 86 1e        	stx	$1e                     ; 0x201e <parse+0x2b1>
    25ee: 06 1e        	asl	$1e                     ; 0x201e <parse+0x2b1>
    25f0: 2a           	rol
    25f1: 06 1e        	asl	$1e                     ; 0x201e <parse+0x2b1>
    25f3: 2a           	rol
    25f4: 06 1e        	asl	$1e                     ; 0x201e <parse+0x2b1>
    25f6: 2a           	rol
    25f7: a6 0f        	ldx	$f                      ; 0x200f <parse+0x2a2>
    25f9: 78           	sei
    25fa: 85 0f        	sta	$f                      ; 0x200f <parse+0x2a2>
    25fc: a5 17        	lda	$17                     ; 0x2017 <parse+0x2aa>
    25fe: 09 e0        	ora	#$e0
    2600: a4 12        	ldy	$12                     ; 0x2012 <parse+0x2a5>
    2602: 84 1e        	sty	$1e                     ; 0x201e <parse+0x2b1>
    2604: 85 1f        	sta	$1f                     ; 0x201f <parse+0x2b2>
    2606: b2 1e        	lda	($1e)                   ; 0x201e <parse+0x2b1>
    2608: 85 29        	sta	$29                     ; 0x2029 <parse+0x2bc>
    260a: 86 0f        	stx	$f                      ; 0x200f <parse+0x2a2>
    260c: 58           	cli
    260d: 18           	clc
    260e: a5 26        	lda	$26                     ; 0x2026 <parse+0x2b9>
    2610: a0 2c        	ldy	#$2c
    2612: 71 14        	adc	($14),y                 ; 0x2014 <parse+0x2a7>
    2614: 85 1e        	sta	$1e                     ; 0x201e <parse+0x2b1>
    2616: a5 28        	lda	$28                     ; 0x2028 <parse+0x2bb>
    2618: a0 01        	ldy	#$1
    261a: 71 22        	adc	($22),y                 ; 0x2022 <parse+0x2b5>
    261c: aa           	tax
    261d: a5 27        	lda	$27                     ; 0x2027 <parse+0x2ba>
    261f: c8           	iny
    2620: 71 22        	adc	($22),y                 ; 0x2022 <parse+0x2b5>
    2622: 86 12        	stx	$12                     ; 0x2012 <parse+0x2a5>
    2624: 06 12        	asl	$12                     ; 0x2012 <parse+0x2a5>
    2626: 2a           	rol
    2627: 06 12        	asl	$12                     ; 0x2012 <parse+0x2a5>
    2629: 2a           	rol
    262a: 06 12        	asl	$12                     ; 0x2012 <parse+0x2a5>
    262c: 2a           	rol
    262d: a4 0f        	ldy	$f                      ; 0x200f <parse+0x2a2>
    262f: 78           	sei
    2630: 85 0f        	sta	$f                      ; 0x200f <parse+0x2a2>
    2632: 8a           	txa
    2633: 09 e0        	ora	#$e0
    2635: 85 1f        	sta	$1f                     ; 0x201f <parse+0x2b2>
    2637: b2 1e        	lda	($1e)                   ; 0x201e <parse+0x2b1>
    2639: 84 0f        	sty	$f                      ; 0x200f <parse+0x2a2>
    263b: 58           	cli
    263c: a4 2e        	ldy	$2e                     ; 0x202e <parse+0x2c1>
    263e: 80 1c        	bra	$265c <parse+0x8ef>
    2640: a4 12        	ldy	$12                     ; 0x2012 <parse+0x2a5>
    2642: a6 2c        	ldx	$2c                     ; 0x202c <parse+0x2bf>
    2644: 86 29        	stx	$29                     ; 0x2029 <parse+0x2bc>
    2646: a6 26        	ldx	$26                     ; 0x2026 <parse+0x2b9>
    2648: 86 2b        	stx	$2b                     ; 0x202b <parse+0x2be>
    264a: a6 28        	ldx	$28                     ; 0x2028 <parse+0x2bb>
    264c: 86 2a        	stx	$2a                     ; 0x202a <parse+0x2bd>
    264e: 48           	pha
    264f: a5 27        	lda	$27                     ; 0x2027 <parse+0x2ba>
    2651: 5a           	phy
    2652: a0 24        	ldy	#$24
    2654: 91 10        	sta	($10),y                 ; 0x2010 <parse+0x2a3>
    2656: 7a           	ply
    2657: 68           	pla
    2658: a6 1e        	ldx	$1e                     ; 0x201e <parse+0x2b1>
    265a: 86 24        	stx	$24                     ; 0x2024 <parse+0x2b7>
    265c: a6 1a        	ldx	$1a                     ; 0x201a <parse+0x2ad>
    265e: 86 2c        	stx	$2c                     ; 0x202c <parse+0x2bf>
    2660: c0 ff        	cpy	#$ff
    2662: f0 03        	beq	$2667 <parse+0x8fa>
    2664: 4c 38 2b     	jmp	$2b38 <parse+0xdcb>
    2667: a5 14        	lda	$14                     ; 0x2014 <parse+0x2a7>
    2669: 18           	clc
    266a: 69 2c        	adc	#$2c
    266c: 85 12        	sta	$12                     ; 0x2012 <parse+0x2a5>
    266e: a5 15        	lda	$15                     ; 0x2015 <parse+0x2a8>
    2670: 69 00        	adc	#$0
    2672: 85 13        	sta	$13                     ; 0x2013 <parse+0x2a6>
    2674: a6 2b        	ldx	$2b                     ; 0x202b <parse+0x2be>
    2676: 86 17        	stx	$17                     ; 0x2017 <parse+0x2aa>
    2678: a5 2b        	lda	$2b                     ; 0x202b <parse+0x2be>
    267a: 18           	clc
    267b: a0 2c        	ldy	#$2c
    267d: 71 14        	adc	($14),y                 ; 0x2014 <parse+0x2a7>
    267f: 85 19        	sta	$19                     ; 0x2019 <parse+0x2ac>
    2681: a6 2a        	ldx	$2a                     ; 0x202a <parse+0x2bd>
    2683: a5 2a        	lda	$2a                     ; 0x202a <parse+0x2bd>
    2685: a0 01        	ldy	#$1
    2687: 71 12        	adc	($12),y                 ; 0x2012 <parse+0x2a5>
    2689: 85 1c        	sta	$1c                     ; 0x201c <parse+0x2af>
    268b: a0 24        	ldy	#$24
    268d: b1 10        	lda	($10),y                 ; 0x2010 <parse+0x2a3>
    268f: 85 16        	sta	$16                     ; 0x2016 <parse+0x2a9>
    2691: a0 02        	ldy	#$2
    2693: 71 12        	adc	($12),y                 ; 0x2012 <parse+0x2a5>
    2695: a4 0f        	ldy	$f                      ; 0x200f <parse+0x2a2>
    2697: 78           	sei
    2698: 5a           	phy
    2699: a4 1c        	ldy	$1c                     ; 0x201c <parse+0x2af>
    269b: 84 12        	sty	$12                     ; 0x2012 <parse+0x2a5>
    269d: 06 12        	asl	$12                     ; 0x2012 <parse+0x2a5>
    269f: 2a           	rol
    26a0: 06 12        	asl	$12                     ; 0x2012 <parse+0x2a5>
    26a2: 2a           	rol
    26a3: 06 12        	asl	$12                     ; 0x2012 <parse+0x2a5>
    26a5: 2a           	rol
    26a6: 85 0f        	sta	$f                      ; 0x200f <parse+0x2a2>
    26a8: a5 1c        	lda	$1c                     ; 0x201c <parse+0x2af>
    26aa: 09 e0        	ora	#$e0
    26ac: a4 19        	ldy	$19                     ; 0x2019 <parse+0x2ac>
    26ae: 84 12        	sty	$12                     ; 0x2012 <parse+0x2a5>
    26b0: 7a           	ply
    26b1: 85 13        	sta	$13                     ; 0x2013 <parse+0x2a6>
    26b3: b2 12        	lda	($12)                   ; 0x2012 <parse+0x2a5>
    26b5: 84 0f        	sty	$f                      ; 0x200f <parse+0x2a2>
    26b7: 58           	cli
    26b8: a4 16        	ldy	$16                     ; 0x2016 <parse+0x2a9>
    26ba: 48           	pha
    26bb: a5 24        	lda	$24                     ; 0x2024 <parse+0x2b7>
    26bd: 85 16        	sta	$16                     ; 0x2016 <parse+0x2a9>
    26bf: e6 17        	inc	$17                     ; 0x2017 <parse+0x2aa>
    26c1: d0 08        	bne	$26cb <parse+0x95e>
    26c3: e8           	inx
    26c4: d0 05        	bne	$26cb <parse+0x95e>
    26c6: c8           	iny
    26c7: d0 02        	bne	$26cb <parse+0x95e>
    26c9: e6 24        	inc	$24                     ; 0x2024 <parse+0x2b7>
    26cb: a5 24        	lda	$24                     ; 0x2024 <parse+0x2b7>
    26cd: 85 18        	sta	$18                     ; 0x2018 <parse+0x2ab>
    26cf: 68           	pla
    26d0: 84 24        	sty	$24                     ; 0x2024 <parse+0x2b7>
    26d2: 86 1d        	stx	$1d                     ; 0x201d <parse+0x2b0>
    26d4: a6 17        	ldx	$17                     ; 0x2017 <parse+0x2aa>
    26d6: 86 1c        	stx	$1c                     ; 0x201c <parse+0x2af>
    26d8: 38           	sec
    26d9: aa           	tax
    26da: e9 2f        	sbc	#$2f
    26dc: 50 02        	bvc	$26e0 <parse+0x973>
    26de: 49 80        	eor	#$80
    26e0: a8           	tay
    26e1: 10 0d        	bpl	$26f0 <parse+0x983>
    26e3: 8a           	txa
    26e4: e0 08        	cpx	#$8
    26e6: 90 03        	bcc	$26eb <parse+0x97e>
    26e8: 4c 46 27     	jmp	$2746 <parse+0x9d9>
    26eb: 0a           	asl
    26ec: aa           	tax
    26ed: 7c 80 62     	jmp	($6280,x)               ; 0x6280 <__set_v+0x1>
    26f0: e0 2f        	cpx	#$2f
    26f2: f0 0b        	beq	$26ff <parse+0x992>
    26f4: e0 7f        	cpx	#$7f
    26f6: f0 03        	beq	$26fb <parse+0x98e>
    26f8: 4c 8b 2e     	jmp	$2e8b <parse+0x111e>
    26fb: a5 18        	lda	$18                     ; 0x2018 <parse+0x2ab>
    26fd: 80 19        	bra	$2718 <parse+0x9ab>
    26ff: 18           	clc
    2700: a5 2b        	lda	$2b                     ; 0x202b <parse+0x2be>
    2702: 69 02        	adc	#$2
    2704: 85 1c        	sta	$1c                     ; 0x201c <parse+0x2af>
    2706: a5 2a        	lda	$2a                     ; 0x202a <parse+0x2bd>
    2708: 69 00        	adc	#$0
    270a: 85 1d        	sta	$1d                     ; 0x201d <parse+0x2b0>
    270c: a0 24        	ldy	#$24
    270e: b1 10        	lda	($10),y                 ; 0x2010 <parse+0x2a3>
    2710: 69 00        	adc	#$0
    2712: 85 24        	sta	$24                     ; 0x2024 <parse+0x2b7>
    2714: a5 16        	lda	$16                     ; 0x2016 <parse+0x2a9>
    2716: 69 00        	adc	#$0
    2718: c5 2c        	cmp	$2c                     ; 0x202c <parse+0x2bf>
    271a: d0 1e        	bne	$273a <parse+0x9cd>
    271c: a6 24        	ldx	$24                     ; 0x2024 <parse+0x2b7>
    271e: 48           	pha
    271f: a0 1a        	ldy	#$1a
    2721: b1 10        	lda	($10),y                 ; 0x2010 <parse+0x2a3>
    2723: 85 12        	sta	$12                     ; 0x2012 <parse+0x2a5>
    2725: 68           	pla
    2726: e4 12        	cpx	$12                     ; 0x2012 <parse+0x2a5>
    2728: f0 03        	beq	$272d <parse+0x9c0>
    272a: 4c b1 27     	jmp	$27b1 <parse+0xa44>
    272d: 85 25        	sta	$25                     ; 0x2025 <parse+0x2b8>
    272f: a0 17        	ldy	#$17
    2731: b1 10        	lda	($10),y                 ; 0x2010 <parse+0x2a3>
    2733: 85 12        	sta	$12                     ; 0x2012 <parse+0x2a5>
    2735: a6 1d        	ldx	$1d                     ; 0x201d <parse+0x2b0>
    2737: 4c 90 27     	jmp	$2790 <parse+0xa23>
    273a: 85 25        	sta	$25                     ; 0x2025 <parse+0x2b8>
    273c: c5 2c        	cmp	$2c                     ; 0x202c <parse+0x2bf>
    273e: b0 03        	bcs	$2743 <parse+0x9d6>
    2740: 4c d3 22     	jmp	$22d3 <parse+0x566>
    2743: 4c ba 27     	jmp	$27ba <parse+0xa4d>
    2746: c9 20        	cmp	#$20
    2748: f0 03        	beq	$274d <parse+0x9e0>
    274a: 4c 97 28     	jmp	$2897 <parse+0xb2a>
    274d: 18           	clc
    274e: a5 2b        	lda	$2b                     ; 0x202b <parse+0x2be>
    2750: 69 03        	adc	#$3
    2752: aa           	tax
    2753: a5 2a        	lda	$2a                     ; 0x202a <parse+0x2bd>
    2755: 69 00        	adc	#$0
    2757: 85 1d        	sta	$1d                     ; 0x201d <parse+0x2b0>
    2759: a0 24        	ldy	#$24
    275b: b1 10        	lda	($10),y                 ; 0x2010 <parse+0x2a3>
    275d: 69 00        	adc	#$0
    275f: 85 24        	sta	$24                     ; 0x2024 <parse+0x2b7>
    2761: a5 16        	lda	$16                     ; 0x2016 <parse+0x2a9>
    2763: 69 00        	adc	#$0
    2765: 86 1c        	stx	$1c                     ; 0x201c <parse+0x2af>
    2767: a2 ff        	ldx	#$ff
    2769: 48           	pha
    276a: 8a           	txa
    276b: a0 23        	ldy	#$23
    276d: 91 10        	sta	($10),y                 ; 0x2010 <parse+0x2a3>
    276f: 68           	pla
    2770: c5 2c        	cmp	$2c                     ; 0x202c <parse+0x2bf>
    2772: d0 2a        	bne	$279e <parse+0xa31>
    2774: 85 25        	sta	$25                     ; 0x2025 <parse+0x2b8>
    2776: a6 24        	ldx	$24                     ; 0x2024 <parse+0x2b7>
    2778: a0 1a        	ldy	#$1a
    277a: b1 10        	lda	($10),y                 ; 0x2010 <parse+0x2a3>
    277c: 85 12        	sta	$12                     ; 0x2012 <parse+0x2a5>
    277e: e4 12        	cpx	$12                     ; 0x2012 <parse+0x2a5>
    2780: d0 22        	bne	$27a4 <parse+0xa37>
    2782: a0 17        	ldy	#$17
    2784: b1 10        	lda	($10),y                 ; 0x2010 <parse+0x2a3>
    2786: 85 12        	sta	$12                     ; 0x2012 <parse+0x2a5>
    2788: a6 1d        	ldx	$1d                     ; 0x201d <parse+0x2b0>
    278a: a0 23        	ldy	#$23
    278c: b1 10        	lda	($10),y                 ; 0x2010 <parse+0x2a3>
    278e: 85 2e        	sta	$2e                     ; 0x202e <parse+0x2c1>
    2790: e4 12        	cpx	$12                     ; 0x2012 <parse+0x2a5>
    2792: d0 1f        	bne	$27b3 <parse+0xa46>
    2794: a0 16        	ldy	#$16
    2796: b1 10        	lda	($10),y                 ; 0x2010 <parse+0x2a3>
    2798: 85 12        	sta	$12                     ; 0x2012 <parse+0x2a5>
    279a: a6 1c        	ldx	$1c                     ; 0x201c <parse+0x2af>
    279c: 80 15        	bra	$27b3 <parse+0xa46>
    279e: 85 25        	sta	$25                     ; 0x2025 <parse+0x2b8>
    27a0: c5 2c        	cmp	$2c                     ; 0x202c <parse+0x2bf>
    27a2: 80 02        	bra	$27a6 <parse+0xa39>
    27a4: e4 12        	cpx	$12                     ; 0x2012 <parse+0x2a5>
    27a6: a0 23        	ldy	#$23
    27a8: b1 10        	lda	($10),y                 ; 0x2010 <parse+0x2a3>
    27aa: 85 2e        	sta	$2e                     ; 0x202e <parse+0x2c1>
    27ac: b0 0c        	bcs	$27ba <parse+0xa4d>
    27ae: 4c d3 22     	jmp	$22d3 <parse+0x566>
    27b1: 85 25        	sta	$25                     ; 0x2025 <parse+0x2b8>
    27b3: e4 12        	cpx	$12                     ; 0x2012 <parse+0x2a5>
    27b5: b0 03        	bcs	$27ba <parse+0xa4d>
    27b7: 4c d3 22     	jmp	$22d3 <parse+0x566>
    27ba: a0 21        	ldy	#$21
    27bc: b1 10        	lda	($10),y                 ; 0x2010 <parse+0x2a3>
    27be: 85 1e        	sta	$1e                     ; 0x201e <parse+0x2b1>
    27c0: 88           	dey
    27c1: b1 10        	lda	($10),y                 ; 0x2010 <parse+0x2a3>
    27c3: 85 1f        	sta	$1f                     ; 0x201f <parse+0x2b2>
    27c5: 88           	dey
    27c6: b1 10        	lda	($10),y                 ; 0x2010 <parse+0x2a3>
    27c8: 85 22        	sta	$22                     ; 0x2022 <parse+0x2b5>
    27ca: 88           	dey
    27cb: b1 10        	lda	($10),y                 ; 0x2010 <parse+0x2a3>
    27cd: 85 23        	sta	$23                     ; 0x2023 <parse+0x2b6>
    27cf: 88           	dey
    27d0: b1 10        	lda	($10),y                 ; 0x2010 <parse+0x2a3>
    27d2: 85 26        	sta	$26                     ; 0x2026 <parse+0x2b9>
    27d4: a0 18        	ldy	#$18
    27d6: b1 10        	lda	($10),y                 ; 0x2010 <parse+0x2a3>
    27d8: 85 16        	sta	$16                     ; 0x2016 <parse+0x2a9>
    27da: c8           	iny
    27db: b1 10        	lda	($10),y                 ; 0x2010 <parse+0x2a3>
    27dd: 85 17        	sta	$17                     ; 0x2017 <parse+0x2aa>
    27df: a0 1c        	ldy	#$1c
    27e1: b1 10        	lda	($10),y                 ; 0x2010 <parse+0x2a3>
    27e3: 85 1a        	sta	$1a                     ; 0x201a <parse+0x2ad>
    27e5: 88           	dey
    27e6: b1 10        	lda	($10),y                 ; 0x2010 <parse+0x2a3>
    27e8: 85 1b        	sta	$1b                     ; 0x201b <parse+0x2ae>
    27ea: a4 1a        	ldy	$1a                     ; 0x201a <parse+0x2ad>
    27ec: a5 14        	lda	$14                     ; 0x2014 <parse+0x2a7>
    27ee: 18           	clc
    27ef: 69 0a        	adc	#$a
    27f1: 85 12        	sta	$12                     ; 0x2012 <parse+0x2a5>
    27f3: a5 15        	lda	$15                     ; 0x2015 <parse+0x2a8>
    27f5: 69 00        	adc	#$0
    27f7: 85 13        	sta	$13                     ; 0x2013 <parse+0x2a6>
    27f9: a5 1b        	lda	$1b                     ; 0x201b <parse+0x2ae>
    27fb: c8           	iny
    27fc: d0 01        	bne	$27ff <parse+0xa92>
    27fe: 1a           	inc
    27ff: 5a           	phy
    2800: fa           	plx
    2801: a0 01        	ldy	#$1
    2803: 85 1b        	sta	$1b                     ; 0x201b <parse+0x2ae>
    2805: d1 12        	cmp	($12),y                 ; 0x2012 <parse+0x2a5>
    2807: d0 0a        	bne	$2813 <parse+0xaa6>
    2809: a0 0a        	ldy	#$a
    280b: b1 14        	lda	($14),y                 ; 0x2014 <parse+0x2a7>
    280d: 85 12        	sta	$12                     ; 0x2012 <parse+0x2a5>
    280f: e4 12        	cpx	$12                     ; 0x2012 <parse+0x2a5>
    2811: 80 02        	bra	$2815 <parse+0xaa8>
    2813: d1 12        	cmp	($12),y                 ; 0x2012 <parse+0x2a5>
    2815: 86 1a        	stx	$1a                     ; 0x201a <parse+0x2ad>
    2817: b0 0d        	bcs	$2826 <parse+0xab9>
    2819: 4c 32 20     	jmp	$2032 <parse+0x2c5>
    281c: e4 13        	cpx	$13                     ; 0x2013 <parse+0x2a6>
    281e: 90 03        	bcc	$2823 <parse+0xab6>
    2820: 4c 13 22     	jmp	$2213 <parse+0x4a6>
    2823: 4c 1c 22     	jmp	$221c <parse+0x4af>
    2826: a5 1f        	lda	$1f                     ; 0x201f <parse+0x2b2>
    2828: a0 22        	ldy	#$22
    282a: 91 14        	sta	($14),y                 ; 0x2014 <parse+0x2a7>
    282c: a5 14        	lda	$14                     ; 0x2014 <parse+0x2a7>
    282e: 18           	clc
    282f: 69 22        	adc	#$22
    2831: 85 12        	sta	$12                     ; 0x2012 <parse+0x2a5>
    2833: a5 15        	lda	$15                     ; 0x2015 <parse+0x2a8>
    2835: 69 00        	adc	#$0
    2837: 85 13        	sta	$13                     ; 0x2013 <parse+0x2a6>
    2839: a0 01        	ldy	#$1
    283b: a5 22        	lda	$22                     ; 0x2022 <parse+0x2b5>
    283d: 91 12        	sta	($12),y                 ; 0x2012 <parse+0x2a5>
    283f: c8           	iny
    2840: a5 23        	lda	$23                     ; 0x2023 <parse+0x2b6>
    2842: 91 12        	sta	($12),y                 ; 0x2012 <parse+0x2a5>
    2844: c8           	iny
    2845: a5 26        	lda	$26                     ; 0x2026 <parse+0x2b9>
    2847: 91 12        	sta	($12),y                 ; 0x2012 <parse+0x2a5>
    2849: a0 00        	ldy	#$0
    284b: b1 10        	lda	($10),y                 ; 0x2010 <parse+0x2a3>
    284d: 85 2f        	sta	$2f                     ; 0x202f <parse+0x2c2>
    284f: c8           	iny
    2850: b1 10        	lda	($10),y                 ; 0x2010 <parse+0x2a3>
    2852: 85 2e        	sta	$2e                     ; 0x202e <parse+0x2c1>
    2854: c8           	iny
    2855: b1 10        	lda	($10),y                 ; 0x2010 <parse+0x2a3>
    2857: 85 2d        	sta	$2d                     ; 0x202d <parse+0x2c0>
    2859: c8           	iny
    285a: b1 10        	lda	($10),y                 ; 0x2010 <parse+0x2a3>
    285c: 85 2c        	sta	$2c                     ; 0x202c <parse+0x2bf>
    285e: c8           	iny
    285f: b1 10        	lda	($10),y                 ; 0x2010 <parse+0x2a3>
    2861: 85 2b        	sta	$2b                     ; 0x202b <parse+0x2be>
    2863: c8           	iny
    2864: b1 10        	lda	($10),y                 ; 0x2010 <parse+0x2a3>
    2866: 85 2a        	sta	$2a                     ; 0x202a <parse+0x2bd>
    2868: c8           	iny
    2869: b1 10        	lda	($10),y                 ; 0x2010 <parse+0x2a3>
    286b: 85 29        	sta	$29                     ; 0x2029 <parse+0x2bc>
    286d: c8           	iny
    286e: b1 10        	lda	($10),y                 ; 0x2010 <parse+0x2a3>
    2870: 85 28        	sta	$28                     ; 0x2028 <parse+0x2bb>
    2872: fa           	plx
    2873: 86 27        	stx	$27                     ; 0x2027 <parse+0x2ba>
    2875: fa           	plx
    2876: 86 26        	stx	$26                     ; 0x2026 <parse+0x2b9>
    2878: fa           	plx
    2879: 86 25        	stx	$25                     ; 0x2025 <parse+0x2b8>
    287b: fa           	plx
    287c: 86 24        	stx	$24                     ; 0x2024 <parse+0x2b7>
    287e: 18           	clc
    287f: a5 10        	lda	$10                     ; 0x2010 <parse+0x2a3>
    2881: 69 25        	adc	#$25
    2883: 85 10        	sta	$10                     ; 0x2010 <parse+0x2a3>
    2885: a5 11        	lda	$11                     ; 0x2011 <parse+0x2a4>
    2887: 69 00        	adc	#$0
    2889: 85 11        	sta	$11                     ; 0x2011 <parse+0x2a4>
    288b: 60           	rts
    288c: 64 22        	stz	$22                     ; 0x2022 <parse+0x2b5>
    288e: 64 23        	stz	$23                     ; 0x2023 <parse+0x2b6>
    2890: 64 26        	stz	$26                     ; 0x2026 <parse+0x2b9>
    2892: a9 00        	lda	#$0
    2894: 4c 28 28     	jmp	$2828 <parse+0xabb>
    2897: c9 21        	cmp	#$21
    2899: d0 03        	bne	$289e <parse+0xb31>
    289b: 4c 4d 27     	jmp	$274d <parse+0x9e0>
    289e: a2 ff        	ldx	#$ff
    28a0: 8a           	txa
    28a1: a0 23        	ldy	#$23
    28a3: 91 10        	sta	($10),y                 ; 0x2010 <parse+0x2a3>
    28a5: a5 18        	lda	$18                     ; 0x2018 <parse+0x2ab>
    28a7: 4c 70 27     	jmp	$2770 <parse+0xa03>
    28aa: a2 00        	ldx	#$0
    28ac: 4c a9 24     	jmp	$24a9 <parse+0x73c>
    28af: a4 18        	ldy	$18                     ; 0x2018 <parse+0x2ab>
    28b1: 84 19        	sty	$19                     ; 0x2019 <parse+0x2ac>
    28b3: 46 19        	lsr	$19                     ; 0x2019 <parse+0x2ac>
    28b5: 64 1f        	stz	$1f                     ; 0x201f <parse+0x2b2>
    28b7: 66 1f        	ror	$1f                     ; 0x201f <parse+0x2b2>
    28b9: a4 22        	ldy	$22                     ; 0x2022 <parse+0x2b5>
    28bb: 84 18        	sty	$18                     ; 0x2018 <parse+0x2ab>
    28bd: 46 1b        	lsr	$1b                     ; 0x201b <parse+0x2ae>
    28bf: 66 18        	ror	$18                     ; 0x2018 <parse+0x2ab>
    28c1: a5 18        	lda	$18                     ; 0x2018 <parse+0x2ab>
    28c3: a0 22        	ldy	#$22
    28c5: 91 10        	sta	($10),y                 ; 0x2010 <parse+0x2a3>
    28c7: 64 18        	stz	$18                     ; 0x2018 <parse+0x2ab>
    28c9: 66 18        	ror	$18                     ; 0x2018 <parse+0x2ab>
    28cb: a5 18        	lda	$18                     ; 0x2018 <parse+0x2ab>
    28cd: c8           	iny
    28ce: 91 10        	sta	($10),y                 ; 0x2010 <parse+0x2a3>
    28d0: a4 2f        	ldy	$2f                     ; 0x202f <parse+0x2c2>
    28d2: 84 18        	sty	$18                     ; 0x2018 <parse+0x2ab>
    28d4: 46 18        	lsr	$18                     ; 0x2018 <parse+0x2ab>
    28d6: a4 1d        	ldy	$1d                     ; 0x201d <parse+0x2b0>
    28d8: 84 2f        	sty	$2f                     ; 0x202f <parse+0x2c2>
    28da: 66 2f        	ror	$2f                     ; 0x202f <parse+0x2c2>
    28dc: 66 1e        	ror	$1e                     ; 0x201e <parse+0x2b1>
    28de: 64 1d        	stz	$1d                     ; 0x201d <parse+0x2b0>
    28e0: 66 1d        	ror	$1d                     ; 0x201d <parse+0x2b0>
    28e2: a5 14        	lda	$14                     ; 0x2014 <parse+0x2a7>
    28e4: 18           	clc
    28e5: 69 2c        	adc	#$2c
    28e7: 85 12        	sta	$12                     ; 0x2012 <parse+0x2a5>
    28e9: a5 15        	lda	$15                     ; 0x2015 <parse+0x2a8>
    28eb: 69 00        	adc	#$0
    28ed: 85 13        	sta	$13                     ; 0x2013 <parse+0x2a6>
    28ef: 18           	clc
    28f0: a0 2c        	ldy	#$2c
    28f2: a5 2b        	lda	$2b                     ; 0x202b <parse+0x2be>
    28f4: 71 14        	adc	($14),y                 ; 0x2014 <parse+0x2a7>
    28f6: 85 23        	sta	$23                     ; 0x2023 <parse+0x2b6>
    28f8: a0 01        	ldy	#$1
    28fa: a5 2a        	lda	$2a                     ; 0x202a <parse+0x2bd>
    28fc: 71 12        	adc	($12),y                 ; 0x2012 <parse+0x2a5>
    28fe: 85 22        	sta	$22                     ; 0x2022 <parse+0x2b5>
    2900: 8a           	txa
    2901: c8           	iny
    2902: 71 12        	adc	($12),y                 ; 0x2012 <parse+0x2a5>
    2904: a6 22        	ldx	$22                     ; 0x2022 <parse+0x2b5>
    2906: 86 12        	stx	$12                     ; 0x2012 <parse+0x2a5>
    2908: 06 12        	asl	$12                     ; 0x2012 <parse+0x2a5>
    290a: 2a           	rol
    290b: 06 12        	asl	$12                     ; 0x2012 <parse+0x2a5>
    290d: 2a           	rol
    290e: 06 12        	asl	$12                     ; 0x2012 <parse+0x2a5>
    2910: 2a           	rol
    2911: a4 0f        	ldy	$f                      ; 0x200f <parse+0x2a2>
    2913: 78           	sei
    2914: 85 0f        	sta	$f                      ; 0x200f <parse+0x2a2>
    2916: a6 23        	ldx	$23                     ; 0x2023 <parse+0x2b6>
    2918: 86 12        	stx	$12                     ; 0x2012 <parse+0x2a5>
    291a: a5 22        	lda	$22                     ; 0x2022 <parse+0x2b5>
    291c: 09 e0        	ora	#$e0
    291e: 85 13        	sta	$13                     ; 0x2013 <parse+0x2a6>
    2920: b2 12        	lda	($12)                   ; 0x2012 <parse+0x2a5>
    2922: aa           	tax
    2923: 84 0f        	sty	$f                      ; 0x200f <parse+0x2a2>
    2925: 18           	clc
    2926: a5 16        	lda	$16                     ; 0x2016 <parse+0x2a9>
    2928: 69 04        	adc	#$4
    292a: 85 2b        	sta	$2b                     ; 0x202b <parse+0x2be>
    292c: a5 17        	lda	$17                     ; 0x2017 <parse+0x2aa>
    292e: 69 00        	adc	#$0
    2930: 85 2a        	sta	$2a                     ; 0x202a <parse+0x2bd>
    2932: a5 1c        	lda	$1c                     ; 0x201c <parse+0x2af>
    2934: 69 00        	adc	#$0
    2936: a8           	tay
    2937: a5 25        	lda	$25                     ; 0x2025 <parse+0x2b8>
    2939: 69 00        	adc	#$0
    293b: 85 2c        	sta	$2c                     ; 0x202c <parse+0x2bf>
    293d: a5 18        	lda	$18                     ; 0x2018 <parse+0x2ab>
    293f: 85 13        	sta	$13                     ; 0x2013 <parse+0x2a6>
    2941: a5 1f        	lda	$1f                     ; 0x201f <parse+0x2b2>
    2943: 29 80        	and	#$80
    2945: 85 18        	sta	$18                     ; 0x2018 <parse+0x2ab>
    2947: a5 19        	lda	$19                     ; 0x2019 <parse+0x2ac>
    2949: 29 3f        	and	#$3f
    294b: 85 25        	sta	$25                     ; 0x2025 <parse+0x2b8>
    294d: 86 19        	stx	$19                     ; 0x2019 <parse+0x2ac>
    294f: 58           	cli
    2950: 98           	tya
    2951: a0 24        	ldy	#$24
    2953: 91 10        	sta	($10),y                 ; 0x2010 <parse+0x2a3>
    2955: a6 1e        	ldx	$1e                     ; 0x201e <parse+0x2b1>
    2957: 86 1c        	stx	$1c                     ; 0x201c <parse+0x2af>
    2959: 4c da 24     	jmp	$24da <parse+0x76d>
    295c: a5 14        	lda	$14                     ; 0x2014 <parse+0x2a7>
    295e: 18           	clc
    295f: 69 2c        	adc	#$2c
    2961: 85 12        	sta	$12                     ; 0x2012 <parse+0x2a5>
    2963: a5 15        	lda	$15                     ; 0x2015 <parse+0x2a8>
    2965: 69 00        	adc	#$0
    2967: 85 13        	sta	$13                     ; 0x2013 <parse+0x2a6>
    2969: a5 17        	lda	$17                     ; 0x2017 <parse+0x2aa>
    296b: 18           	clc
    296c: a0 2c        	ldy	#$2c
    296e: 71 14        	adc	($14),y                 ; 0x2014 <parse+0x2a7>
    2970: aa           	tax
    2971: a5 1d        	lda	$1d                     ; 0x201d <parse+0x2b0>
    2973: a0 01        	ldy	#$1
    2975: 71 12        	adc	($12),y                 ; 0x2012 <parse+0x2a5>
    2977: 85 16        	sta	$16                     ; 0x2016 <parse+0x2a9>
    2979: a5 24        	lda	$24                     ; 0x2024 <parse+0x2b7>
    297b: c8           	iny
    297c: 71 12        	adc	($12),y                 ; 0x2012 <parse+0x2a5>
    297e: a4 16        	ldy	$16                     ; 0x2016 <parse+0x2a9>
    2980: 84 12        	sty	$12                     ; 0x2012 <parse+0x2a5>
    2982: 06 12        	asl	$12                     ; 0x2012 <parse+0x2a5>
    2984: 2a           	rol
    2985: 06 12        	asl	$12                     ; 0x2012 <parse+0x2a5>
    2987: 2a           	rol
    2988: 06 12        	asl	$12                     ; 0x2012 <parse+0x2a5>
    298a: 2a           	rol
    298b: a4 0f        	ldy	$f                      ; 0x200f <parse+0x2a2>
    298d: 78           	sei
    298e: 85 0f        	sta	$f                      ; 0x200f <parse+0x2a2>
    2990: a5 16        	lda	$16                     ; 0x2016 <parse+0x2a9>
    2992: 09 e0        	ora	#$e0
    2994: 86 12        	stx	$12                     ; 0x2012 <parse+0x2a5>
    2996: 85 13        	sta	$13                     ; 0x2013 <parse+0x2a6>
    2998: b2 12        	lda	($12)                   ; 0x2012 <parse+0x2a5>
    299a: 84 0f        	sty	$f                      ; 0x200f <parse+0x2a2>
    299c: 58           	cli
    299d: 4c 07 24     	jmp	$2407 <parse+0x69a>
    29a0: a5 14        	lda	$14                     ; 0x2014 <parse+0x2a7>
    29a2: 18           	clc
    29a3: 69 2c        	adc	#$2c
    29a5: 85 12        	sta	$12                     ; 0x2012 <parse+0x2a5>
    29a7: a5 15        	lda	$15                     ; 0x2015 <parse+0x2a8>
    29a9: 69 00        	adc	#$0
    29ab: 85 13        	sta	$13                     ; 0x2013 <parse+0x2a6>
    29ad: a5 17        	lda	$17                     ; 0x2017 <parse+0x2aa>
    29af: 18           	clc
    29b0: a0 2c        	ldy	#$2c
    29b2: 71 14        	adc	($14),y                 ; 0x2014 <parse+0x2a7>
    29b4: aa           	tax
    29b5: a5 1d        	lda	$1d                     ; 0x201d <parse+0x2b0>
    29b7: a0 01        	ldy	#$1
    29b9: 71 12        	adc	($12),y                 ; 0x2012 <parse+0x2a5>
    29bb: 85 16        	sta	$16                     ; 0x2016 <parse+0x2a9>
    29bd: a5 24        	lda	$24                     ; 0x2024 <parse+0x2b7>
    29bf: c8           	iny
    29c0: 71 12        	adc	($12),y                 ; 0x2012 <parse+0x2a5>
    29c2: a4 16        	ldy	$16                     ; 0x2016 <parse+0x2a9>
    29c4: 84 12        	sty	$12                     ; 0x2012 <parse+0x2a5>
    29c6: 06 12        	asl	$12                     ; 0x2012 <parse+0x2a5>
    29c8: 2a           	rol
    29c9: 06 12        	asl	$12                     ; 0x2012 <parse+0x2a5>
    29cb: 2a           	rol
    29cc: 06 12        	asl	$12                     ; 0x2012 <parse+0x2a5>
    29ce: 2a           	rol
    29cf: a4 0f        	ldy	$f                      ; 0x200f <parse+0x2a2>
    29d1: 78           	sei
    29d2: 85 0f        	sta	$f                      ; 0x200f <parse+0x2a2>
    29d4: a5 16        	lda	$16                     ; 0x2016 <parse+0x2a9>
    29d6: 09 e0        	ora	#$e0
    29d8: 86 12        	stx	$12                     ; 0x2012 <parse+0x2a5>
    29da: 85 13        	sta	$13                     ; 0x2013 <parse+0x2a6>
    29dc: b2 12        	lda	($12)                   ; 0x2012 <parse+0x2a5>
    29de: 84 0f        	sty	$f                      ; 0x200f <parse+0x2a2>
    29e0: 58           	cli
    29e1: 4c 07 24     	jmp	$2407 <parse+0x69a>
    29e4: a5 14        	lda	$14                     ; 0x2014 <parse+0x2a7>
    29e6: 18           	clc
    29e7: 69 2c        	adc	#$2c
    29e9: 85 12        	sta	$12                     ; 0x2012 <parse+0x2a5>
    29eb: a5 15        	lda	$15                     ; 0x2015 <parse+0x2a8>
    29ed: 69 00        	adc	#$0
    29ef: 85 13        	sta	$13                     ; 0x2013 <parse+0x2a6>
    29f1: a5 17        	lda	$17                     ; 0x2017 <parse+0x2aa>
    29f3: 18           	clc
    29f4: a0 2c        	ldy	#$2c
    29f6: 71 14        	adc	($14),y                 ; 0x2014 <parse+0x2a7>
    29f8: aa           	tax
    29f9: a5 1d        	lda	$1d                     ; 0x201d <parse+0x2b0>
    29fb: a0 01        	ldy	#$1
    29fd: 71 12        	adc	($12),y                 ; 0x2012 <parse+0x2a5>
    29ff: 85 16        	sta	$16                     ; 0x2016 <parse+0x2a9>
    2a01: a5 24        	lda	$24                     ; 0x2024 <parse+0x2b7>
    2a03: c8           	iny
    2a04: 71 12        	adc	($12),y                 ; 0x2012 <parse+0x2a5>
    2a06: a4 16        	ldy	$16                     ; 0x2016 <parse+0x2a9>
    2a08: 84 12        	sty	$12                     ; 0x2012 <parse+0x2a5>
    2a0a: 06 12        	asl	$12                     ; 0x2012 <parse+0x2a5>
    2a0c: 2a           	rol
    2a0d: 06 12        	asl	$12                     ; 0x2012 <parse+0x2a5>
    2a0f: 2a           	rol
    2a10: 06 12        	asl	$12                     ; 0x2012 <parse+0x2a5>
    2a12: 2a           	rol
    2a13: a4 0f        	ldy	$f                      ; 0x200f <parse+0x2a2>
    2a15: 78           	sei
    2a16: 85 0f        	sta	$f                      ; 0x200f <parse+0x2a2>
    2a18: a5 16        	lda	$16                     ; 0x2016 <parse+0x2a9>
    2a1a: 09 e0        	ora	#$e0
    2a1c: 86 12        	stx	$12                     ; 0x2012 <parse+0x2a5>
    2a1e: 85 13        	sta	$13                     ; 0x2013 <parse+0x2a6>
    2a20: b2 12        	lda	($12)                   ; 0x2012 <parse+0x2a5>
    2a22: 84 0f        	sty	$f                      ; 0x200f <parse+0x2a2>
    2a24: 58           	cli
    2a25: 4c 07 24     	jmp	$2407 <parse+0x69a>
    2a28: a5 14        	lda	$14                     ; 0x2014 <parse+0x2a7>
    2a2a: 18           	clc
    2a2b: 69 2c        	adc	#$2c
    2a2d: 85 12        	sta	$12                     ; 0x2012 <parse+0x2a5>
    2a2f: a5 15        	lda	$15                     ; 0x2015 <parse+0x2a8>
    2a31: 69 00        	adc	#$0
    2a33: 85 13        	sta	$13                     ; 0x2013 <parse+0x2a6>
    2a35: a5 17        	lda	$17                     ; 0x2017 <parse+0x2aa>
    2a37: 18           	clc
    2a38: a0 2c        	ldy	#$2c
    2a3a: 71 14        	adc	($14),y                 ; 0x2014 <parse+0x2a7>
    2a3c: aa           	tax
    2a3d: a5 1d        	lda	$1d                     ; 0x201d <parse+0x2b0>
    2a3f: a0 01        	ldy	#$1
    2a41: 71 12        	adc	($12),y                 ; 0x2012 <parse+0x2a5>
    2a43: 85 16        	sta	$16                     ; 0x2016 <parse+0x2a9>
    2a45: a5 24        	lda	$24                     ; 0x2024 <parse+0x2b7>
    2a47: c8           	iny
    2a48: 71 12        	adc	($12),y                 ; 0x2012 <parse+0x2a5>
    2a4a: a4 16        	ldy	$16                     ; 0x2016 <parse+0x2a9>
    2a4c: 84 12        	sty	$12                     ; 0x2012 <parse+0x2a5>
    2a4e: 06 12        	asl	$12                     ; 0x2012 <parse+0x2a5>
    2a50: 2a           	rol
    2a51: 06 12        	asl	$12                     ; 0x2012 <parse+0x2a5>
    2a53: 2a           	rol
    2a54: 06 12        	asl	$12                     ; 0x2012 <parse+0x2a5>
    2a56: 2a           	rol
    2a57: a4 0f        	ldy	$f                      ; 0x200f <parse+0x2a2>
    2a59: 78           	sei
    2a5a: 85 0f        	sta	$f                      ; 0x200f <parse+0x2a2>
    2a5c: a5 16        	lda	$16                     ; 0x2016 <parse+0x2a9>
    2a5e: 09 e0        	ora	#$e0
    2a60: 86 12        	stx	$12                     ; 0x2012 <parse+0x2a5>
    2a62: 85 13        	sta	$13                     ; 0x2013 <parse+0x2a6>
    2a64: b2 12        	lda	($12)                   ; 0x2012 <parse+0x2a5>
    2a66: 84 0f        	sty	$f                      ; 0x200f <parse+0x2a2>
    2a68: 58           	cli
    2a69: 4c 07 24     	jmp	$2407 <parse+0x69a>
    2a6c: a5 14        	lda	$14                     ; 0x2014 <parse+0x2a7>
    2a6e: 18           	clc
    2a6f: 69 2c        	adc	#$2c
    2a71: 85 12        	sta	$12                     ; 0x2012 <parse+0x2a5>
    2a73: a5 15        	lda	$15                     ; 0x2015 <parse+0x2a8>
    2a75: 69 00        	adc	#$0
    2a77: 85 13        	sta	$13                     ; 0x2013 <parse+0x2a6>
    2a79: a5 17        	lda	$17                     ; 0x2017 <parse+0x2aa>
    2a7b: 18           	clc
    2a7c: a0 2c        	ldy	#$2c
    2a7e: 71 14        	adc	($14),y                 ; 0x2014 <parse+0x2a7>
    2a80: aa           	tax
    2a81: a5 1d        	lda	$1d                     ; 0x201d <parse+0x2b0>
    2a83: a0 01        	ldy	#$1
    2a85: 71 12        	adc	($12),y                 ; 0x2012 <parse+0x2a5>
    2a87: 85 16        	sta	$16                     ; 0x2016 <parse+0x2a9>
    2a89: a5 24        	lda	$24                     ; 0x2024 <parse+0x2b7>
    2a8b: c8           	iny
    2a8c: 71 12        	adc	($12),y                 ; 0x2012 <parse+0x2a5>
    2a8e: a4 16        	ldy	$16                     ; 0x2016 <parse+0x2a9>
    2a90: 84 12        	sty	$12                     ; 0x2012 <parse+0x2a5>
    2a92: 06 12        	asl	$12                     ; 0x2012 <parse+0x2a5>
    2a94: 2a           	rol
    2a95: 06 12        	asl	$12                     ; 0x2012 <parse+0x2a5>
    2a97: 2a           	rol
    2a98: 06 12        	asl	$12                     ; 0x2012 <parse+0x2a5>
    2a9a: 2a           	rol
    2a9b: a4 0f        	ldy	$f                      ; 0x200f <parse+0x2a2>
    2a9d: 78           	sei
    2a9e: 85 0f        	sta	$f                      ; 0x200f <parse+0x2a2>
    2aa0: a5 16        	lda	$16                     ; 0x2016 <parse+0x2a9>
    2aa2: 09 e0        	ora	#$e0
    2aa4: 86 12        	stx	$12                     ; 0x2012 <parse+0x2a5>
    2aa6: 85 13        	sta	$13                     ; 0x2013 <parse+0x2a6>
    2aa8: b2 12        	lda	($12)                   ; 0x2012 <parse+0x2a5>
    2aaa: 84 0f        	sty	$f                      ; 0x200f <parse+0x2a2>
    2aac: 58           	cli
    2aad: 4c 07 24     	jmp	$2407 <parse+0x69a>
    2ab0: a5 14        	lda	$14                     ; 0x2014 <parse+0x2a7>
    2ab2: 18           	clc
    2ab3: 69 2c        	adc	#$2c
    2ab5: 85 12        	sta	$12                     ; 0x2012 <parse+0x2a5>
    2ab7: a5 15        	lda	$15                     ; 0x2015 <parse+0x2a8>
    2ab9: 69 00        	adc	#$0
    2abb: 85 13        	sta	$13                     ; 0x2013 <parse+0x2a6>
    2abd: a5 17        	lda	$17                     ; 0x2017 <parse+0x2aa>
    2abf: 18           	clc
    2ac0: a0 2c        	ldy	#$2c
    2ac2: 71 14        	adc	($14),y                 ; 0x2014 <parse+0x2a7>
    2ac4: aa           	tax
    2ac5: a5 1d        	lda	$1d                     ; 0x201d <parse+0x2b0>
    2ac7: a0 01        	ldy	#$1
    2ac9: 71 12        	adc	($12),y                 ; 0x2012 <parse+0x2a5>
    2acb: 85 16        	sta	$16                     ; 0x2016 <parse+0x2a9>
    2acd: a5 24        	lda	$24                     ; 0x2024 <parse+0x2b7>
    2acf: c8           	iny
    2ad0: 71 12        	adc	($12),y                 ; 0x2012 <parse+0x2a5>
    2ad2: a4 16        	ldy	$16                     ; 0x2016 <parse+0x2a9>
    2ad4: 84 12        	sty	$12                     ; 0x2012 <parse+0x2a5>
    2ad6: 06 12        	asl	$12                     ; 0x2012 <parse+0x2a5>
    2ad8: 2a           	rol
    2ad9: 06 12        	asl	$12                     ; 0x2012 <parse+0x2a5>
    2adb: 2a           	rol
    2adc: 06 12        	asl	$12                     ; 0x2012 <parse+0x2a5>
    2ade: 2a           	rol
    2adf: a4 0f        	ldy	$f                      ; 0x200f <parse+0x2a2>
    2ae1: 78           	sei
    2ae2: 85 0f        	sta	$f                      ; 0x200f <parse+0x2a2>
    2ae4: a5 16        	lda	$16                     ; 0x2016 <parse+0x2a9>
    2ae6: 09 e0        	ora	#$e0
    2ae8: 86 12        	stx	$12                     ; 0x2012 <parse+0x2a5>
    2aea: 85 13        	sta	$13                     ; 0x2013 <parse+0x2a6>
    2aec: b2 12        	lda	($12)                   ; 0x2012 <parse+0x2a5>
    2aee: 84 0f        	sty	$f                      ; 0x200f <parse+0x2a2>
    2af0: 58           	cli
    2af1: 4c 07 24     	jmp	$2407 <parse+0x69a>
    2af4: a5 14        	lda	$14                     ; 0x2014 <parse+0x2a7>
    2af6: 18           	clc
    2af7: 69 2c        	adc	#$2c
    2af9: 85 12        	sta	$12                     ; 0x2012 <parse+0x2a5>
    2afb: a5 15        	lda	$15                     ; 0x2015 <parse+0x2a8>
    2afd: 69 00        	adc	#$0
    2aff: 85 13        	sta	$13                     ; 0x2013 <parse+0x2a6>
    2b01: a5 17        	lda	$17                     ; 0x2017 <parse+0x2aa>
    2b03: 18           	clc
    2b04: a0 2c        	ldy	#$2c
    2b06: 71 14        	adc	($14),y                 ; 0x2014 <parse+0x2a7>
    2b08: aa           	tax
    2b09: a5 1d        	lda	$1d                     ; 0x201d <parse+0x2b0>
    2b0b: a0 01        	ldy	#$1
    2b0d: 71 12        	adc	($12),y                 ; 0x2012 <parse+0x2a5>
    2b0f: 85 16        	sta	$16                     ; 0x2016 <parse+0x2a9>
    2b11: a5 24        	lda	$24                     ; 0x2024 <parse+0x2b7>
    2b13: c8           	iny
    2b14: 71 12        	adc	($12),y                 ; 0x2012 <parse+0x2a5>
    2b16: a4 16        	ldy	$16                     ; 0x2016 <parse+0x2a9>
    2b18: 84 12        	sty	$12                     ; 0x2012 <parse+0x2a5>
    2b1a: 06 12        	asl	$12                     ; 0x2012 <parse+0x2a5>
    2b1c: 2a           	rol
    2b1d: 06 12        	asl	$12                     ; 0x2012 <parse+0x2a5>
    2b1f: 2a           	rol
    2b20: 06 12        	asl	$12                     ; 0x2012 <parse+0x2a5>
    2b22: 2a           	rol
    2b23: a4 0f        	ldy	$f                      ; 0x200f <parse+0x2a2>
    2b25: 78           	sei
    2b26: 85 0f        	sta	$f                      ; 0x200f <parse+0x2a2>
    2b28: a5 16        	lda	$16                     ; 0x2016 <parse+0x2a9>
    2b2a: 09 e0        	ora	#$e0
    2b2c: 86 12        	stx	$12                     ; 0x2012 <parse+0x2a5>
    2b2e: 85 13        	sta	$13                     ; 0x2013 <parse+0x2a6>
    2b30: b2 12        	lda	($12)                   ; 0x2012 <parse+0x2a5>
    2b32: 84 0f        	sty	$f                      ; 0x200f <parse+0x2a2>
    2b34: 58           	cli
    2b35: 4c 07 24     	jmp	$2407 <parse+0x69a>
    2b38: 5a           	phy
    2b39: a0 09        	ldy	#$9
    2b3b: 91 10        	sta	($10),y                 ; 0x2010 <parse+0x2a3>
    2b3d: a6 24        	ldx	$24                     ; 0x2024 <parse+0x2b7>
    2b3f: 86 2e        	stx	$2e                     ; 0x202e <parse+0x2c1>
    2b41: a0 23        	ldy	#$23
    2b43: b1 10        	lda	($10),y                 ; 0x2010 <parse+0x2a3>
    2b45: 05 1d        	ora	$1d                     ; 0x201d <parse+0x2b0>
    2b47: aa           	tax
    2b48: 88           	dey
    2b49: b1 10        	lda	($10),y                 ; 0x2010 <parse+0x2a3>
    2b4b: 7a           	ply
    2b4c: 05 1c        	ora	$1c                     ; 0x201c <parse+0x2af>
    2b4e: 85 16        	sta	$16                     ; 0x2016 <parse+0x2a9>
    2b50: a5 1b        	lda	$1b                     ; 0x201b <parse+0x2ae>
    2b52: 05 2f        	ora	$2f                     ; 0x202f <parse+0x2c2>
    2b54: 85 12        	sta	$12                     ; 0x2012 <parse+0x2a5>
    2b56: 8a           	txa
    2b57: 05 18        	ora	$18                     ; 0x2018 <parse+0x2ab>
    2b59: aa           	tax
    2b5a: a5 16        	lda	$16                     ; 0x2016 <parse+0x2a9>
    2b5c: 05 25        	ora	$25                     ; 0x2025 <parse+0x2b8>
    2b5e: 85 1f        	sta	$1f                     ; 0x201f <parse+0x2b2>
    2b60: 8a           	txa
    2b61: 05 19        	ora	$19                     ; 0x2019 <parse+0x2ac>
    2b63: 85 1e        	sta	$1e                     ; 0x201e <parse+0x2b1>
    2b65: c0 c0        	cpy	#$c0
    2b67: 98           	tya
    2b68: 5a           	phy
    2b69: a0 23        	ldy	#$23
    2b6b: 91 10        	sta	($10),y                 ; 0x2010 <parse+0x2a3>
    2b6d: 7a           	ply
    2b6e: b0 03        	bcs	$2b73 <parse+0xe06>
    2b70: 4c da 30     	jmp	$30da <parse+0x136d>
    2b73: c0 e0        	cpy	#$e0
    2b75: 5a           	phy
    2b76: a0 24        	ldy	#$24
    2b78: b1 10        	lda	($10),y                 ; 0x2010 <parse+0x2a3>
    2b7a: 7a           	ply
    2b7b: 85 24        	sta	$24                     ; 0x2024 <parse+0x2b7>
    2b7d: 90 03        	bcc	$2b82 <parse+0xe15>
    2b7f: 4c ed 30     	jmp	$30ed <parse+0x1380>
    2b82: a0 21        	ldy	#$21
    2b84: b1 10        	lda	($10),y                 ; 0x2010 <parse+0x2a3>
    2b86: aa           	tax
    2b87: d0 03        	bne	$2b8c <parse+0xe1f>
    2b89: 4c 31 36     	jmp	$3631 <parse+0x18c4>
    2b8c: a0 15        	ldy	#$15
    2b8e: b1 10        	lda	($10),y                 ; 0x2010 <parse+0x2a3>
    2b90: 0a           	asl
    2b91: 48           	pha
    2b92: 88           	dey
    2b93: b1 10        	lda	($10),y                 ; 0x2010 <parse+0x2a3>
    2b95: 85 17        	sta	$17                     ; 0x2017 <parse+0x2aa>
    2b97: 68           	pla
    2b98: 26 17        	rol	$17                     ; 0x2017 <parse+0x2aa>
    2b9a: 64 16        	stz	$16                     ; 0x2016 <parse+0x2a9>
    2b9c: 26 16        	rol	$16                     ; 0x2016 <parse+0x2a9>
    2b9e: 0a           	asl
    2b9f: 26 17        	rol	$17                     ; 0x2017 <parse+0x2aa>
    2ba1: 26 16        	rol	$16                     ; 0x2016 <parse+0x2a9>
    2ba3: 0a           	asl
    2ba4: 85 1a        	sta	$1a                     ; 0x201a <parse+0x2ad>
    2ba6: a5 17        	lda	$17                     ; 0x2017 <parse+0x2aa>
    2ba8: 2a           	rol
    2ba9: 85 1b        	sta	$1b                     ; 0x201b <parse+0x2ae>
    2bab: a4 16        	ldy	$16                     ; 0x2016 <parse+0x2a9>
    2bad: 84 22        	sty	$22                     ; 0x2022 <parse+0x2b5>
    2baf: 26 22        	rol	$22                     ; 0x2022 <parse+0x2b5>
    2bb1: 18           	clc
    2bb2: a0 03        	ldy	#$3
    2bb4: 5a           	phy
    2bb5: a0 10        	ldy	#$10
    2bb7: b1 10        	lda	($10),y                 ; 0x2010 <parse+0x2a3>
    2bb9: 85 18        	sta	$18                     ; 0x2018 <parse+0x2ab>
    2bbb: c8           	iny
    2bbc: b1 10        	lda	($10),y                 ; 0x2010 <parse+0x2a3>
    2bbe: 7a           	ply
    2bbf: 85 19        	sta	$19                     ; 0x2019 <parse+0x2ac>
    2bc1: a5 1a        	lda	$1a                     ; 0x201a <parse+0x2ad>
    2bc3: 71 18        	adc	($18),y                 ; 0x2018 <parse+0x2ab>
    2bc5: 85 24        	sta	$24                     ; 0x2024 <parse+0x2b7>
    2bc7: a0 0c        	ldy	#$c
    2bc9: b1 10        	lda	($10),y                 ; 0x2010 <parse+0x2a3>
    2bcb: 85 1c        	sta	$1c                     ; 0x201c <parse+0x2af>
    2bcd: c8           	iny
    2bce: b1 10        	lda	($10),y                 ; 0x2010 <parse+0x2a3>
    2bd0: 85 1d        	sta	$1d                     ; 0x201d <parse+0x2b0>
    2bd2: a5 1b        	lda	$1b                     ; 0x201b <parse+0x2ae>
    2bd4: a0 01        	ldy	#$1
    2bd6: 71 1c        	adc	($1c),y                 ; 0x201c <parse+0x2af>
    2bd8: 85 25        	sta	$25                     ; 0x2025 <parse+0x2b8>
    2bda: c8           	iny
    2bdb: a5 22        	lda	$22                     ; 0x2022 <parse+0x2b5>
    2bdd: 71 1c        	adc	($1c),y                 ; 0x201c <parse+0x2af>
    2bdf: 85 26        	sta	$26                     ; 0x2026 <parse+0x2b9>
    2be1: a4 2c        	ldy	$2c                     ; 0x202c <parse+0x2bf>
    2be3: 84 2f        	sty	$2f                     ; 0x202f <parse+0x2c2>
    2be5: a4 14        	ldy	$14                     ; 0x2014 <parse+0x2a7>
    2be7: 84 2c        	sty	$2c                     ; 0x202c <parse+0x2bf>
    2be9: a4 15        	ldy	$15                     ; 0x2015 <parse+0x2a8>
    2beb: 84 2d        	sty	$2d                     ; 0x202d <parse+0x2c0>
    2bed: a0 13        	ldy	#$13
    2bef: b1 10        	lda	($10),y                 ; 0x2010 <parse+0x2a3>
    2bf1: 85 14        	sta	$14                     ; 0x2014 <parse+0x2a7>
    2bf3: 88           	dey
    2bf4: b1 10        	lda	($10),y                 ; 0x2010 <parse+0x2a3>
    2bf6: 85 15        	sta	$15                     ; 0x2015 <parse+0x2a8>
    2bf8: a0 0f        	ldy	#$f
    2bfa: b1 10        	lda	($10),y                 ; 0x2010 <parse+0x2a3>
    2bfc: 85 16        	sta	$16                     ; 0x2016 <parse+0x2a9>
    2bfe: 88           	dey
    2bff: b1 10        	lda	($10),y                 ; 0x2010 <parse+0x2a3>
    2c01: 85 17        	sta	$17                     ; 0x2017 <parse+0x2aa>
    2c03: 8a           	txa
    2c04: a0 21        	ldy	#$21
    2c06: 91 10        	sta	($10),y                 ; 0x2010 <parse+0x2a3>
    2c08: a6 1f        	ldx	$1f                     ; 0x201f <parse+0x2b2>
    2c0a: a5 1e        	lda	$1e                     ; 0x201e <parse+0x2b1>
    2c0c: 20 bd 48     	jsr	$48bd <__mulsi3>
    2c0f: a4 2c        	ldy	$2c                     ; 0x202c <parse+0x2bf>
    2c11: 84 14        	sty	$14                     ; 0x2014 <parse+0x2a7>
    2c13: a4 2d        	ldy	$2d                     ; 0x202d <parse+0x2c0>
    2c15: 84 15        	sty	$15                     ; 0x2015 <parse+0x2a8>
    2c17: 85 16        	sta	$16                     ; 0x2016 <parse+0x2a9>
    2c19: 48           	pha
    2c1a: a4 2f        	ldy	$2f                     ; 0x202f <parse+0x2c2>
    2c1c: 84 2c        	sty	$2c                     ; 0x202c <parse+0x2bf>
    2c1e: 46 13        	lsr	$13                     ; 0x2013 <parse+0x2a6>
    2c20: a4 13        	ldy	$13                     ; 0x2013 <parse+0x2a6>
    2c22: 66 12        	ror	$12                     ; 0x2012 <parse+0x2a5>
    2c24: a5 12        	lda	$12                     ; 0x2012 <parse+0x2a5>
    2c26: 85 18        	sta	$18                     ; 0x2018 <parse+0x2ab>
    2c28: 68           	pla
    2c29: 86 13        	stx	$13                     ; 0x2013 <parse+0x2a6>
    2c2b: 86 17        	stx	$17                     ; 0x2017 <parse+0x2aa>
    2c2d: 66 13        	ror	$13                     ; 0x2013 <parse+0x2a6>
    2c2f: 6a           	ror
    2c30: 84 12        	sty	$12                     ; 0x2012 <parse+0x2a5>
    2c32: 46 12        	lsr	$12                     ; 0x2012 <parse+0x2a5>
    2c34: 66 18        	ror	$18                     ; 0x2018 <parse+0x2ab>
    2c36: 66 13        	ror	$13                     ; 0x2013 <parse+0x2a6>
    2c38: 6a           	ror
    2c39: 46 12        	lsr	$12                     ; 0x2012 <parse+0x2a5>
    2c3b: a6 12        	ldx	$12                     ; 0x2012 <parse+0x2a5>
    2c3d: 66 18        	ror	$18                     ; 0x2018 <parse+0x2ab>
    2c3f: a4 18        	ldy	$18                     ; 0x2018 <parse+0x2ab>
    2c41: 84 1e        	sty	$1e                     ; 0x201e <parse+0x2b1>
    2c43: 66 13        	ror	$13                     ; 0x2013 <parse+0x2a6>
    2c45: 6a           	ror
    2c46: 18           	clc
    2c47: 48           	pha
    2c48: a0 20        	ldy	#$20
    2c4a: b1 10        	lda	($10),y                 ; 0x2010 <parse+0x2a3>
    2c4c: 85 12        	sta	$12                     ; 0x2012 <parse+0x2a5>
    2c4e: 68           	pla
    2c4f: 65 12        	adc	$12                     ; 0x2012 <parse+0x2a5>
    2c51: 85 1a        	sta	$1a                     ; 0x201a <parse+0x2ad>
    2c53: a5 13        	lda	$13                     ; 0x2013 <parse+0x2a6>
    2c55: 48           	pha
    2c56: 88           	dey
    2c57: b1 10        	lda	($10),y                 ; 0x2010 <parse+0x2a3>
    2c59: 85 12        	sta	$12                     ; 0x2012 <parse+0x2a5>
    2c5b: 68           	pla
    2c5c: 65 12        	adc	$12                     ; 0x2012 <parse+0x2a5>
    2c5e: 85 1b        	sta	$1b                     ; 0x201b <parse+0x2ae>
    2c60: a5 18        	lda	$18                     ; 0x2018 <parse+0x2ab>
    2c62: 48           	pha
    2c63: 88           	dey
    2c64: b1 10        	lda	($10),y                 ; 0x2010 <parse+0x2a3>
    2c66: 85 12        	sta	$12                     ; 0x2012 <parse+0x2a5>
    2c68: 68           	pla
    2c69: 65 12        	adc	$12                     ; 0x2012 <parse+0x2a5>
    2c6b: 85 1c        	sta	$1c                     ; 0x201c <parse+0x2af>
    2c6d: 8a           	txa
    2c6e: 48           	pha
    2c6f: 88           	dey
    2c70: b1 10        	lda	($10),y                 ; 0x2010 <parse+0x2a3>
    2c72: 85 12        	sta	$12                     ; 0x2012 <parse+0x2a5>
    2c74: 68           	pla
    2c75: 65 12        	adc	$12                     ; 0x2012 <parse+0x2a5>
    2c77: 85 1d        	sta	$1d                     ; 0x201d <parse+0x2b0>
    2c79: a5 14        	lda	$14                     ; 0x2014 <parse+0x2a7>
    2c7b: 18           	clc
    2c7c: 69 30        	adc	#$30
    2c7e: 85 18        	sta	$18                     ; 0x2018 <parse+0x2ab>
    2c80: a5 15        	lda	$15                     ; 0x2015 <parse+0x2a8>
    2c82: 69 00        	adc	#$0
    2c84: 85 19        	sta	$19                     ; 0x2019 <parse+0x2ac>
    2c86: a5 24        	lda	$24                     ; 0x2024 <parse+0x2b7>
    2c88: 18           	clc
    2c89: a0 30        	ldy	#$30
    2c8b: 71 14        	adc	($14),y                 ; 0x2014 <parse+0x2a7>
    2c8d: 85 22        	sta	$22                     ; 0x2022 <parse+0x2b5>
    2c8f: a5 25        	lda	$25                     ; 0x2025 <parse+0x2b8>
    2c91: a0 01        	ldy	#$1
    2c93: 71 18        	adc	($18),y                 ; 0x2018 <parse+0x2ab>
    2c95: 85 23        	sta	$23                     ; 0x2023 <parse+0x2b6>
    2c97: a5 26        	lda	$26                     ; 0x2026 <parse+0x2b9>
    2c99: c8           	iny
    2c9a: 71 18        	adc	($18),y                 ; 0x2018 <parse+0x2ab>
    2c9c: 06 13        	asl	$13                     ; 0x2013 <parse+0x2a6>
    2c9e: 26 1e        	rol	$1e                     ; 0x201e <parse+0x2b1>
    2ca0: 86 12        	stx	$12                     ; 0x2012 <parse+0x2a5>
    2ca2: 26 12        	rol	$12                     ; 0x2012 <parse+0x2a5>
    2ca4: 06 13        	asl	$13                     ; 0x2013 <parse+0x2a6>
    2ca6: 26 1e        	rol	$1e                     ; 0x201e <parse+0x2b1>
    2ca8: 26 12        	rol	$12                     ; 0x2012 <parse+0x2a5>
    2caa: 06 13        	asl	$13                     ; 0x2013 <parse+0x2a6>
    2cac: 26 1e        	rol	$1e                     ; 0x201e <parse+0x2b1>
    2cae: a6 1e        	ldx	$1e                     ; 0x201e <parse+0x2b1>
    2cb0: 86 1f        	stx	$1f                     ; 0x201f <parse+0x2b2>
    2cb2: 26 12        	rol	$12                     ; 0x2012 <parse+0x2a5>
    2cb4: a6 12        	ldx	$12                     ; 0x2012 <parse+0x2a5>
    2cb6: 86 1e        	stx	$1e                     ; 0x201e <parse+0x2b1>
    2cb8: a6 23        	ldx	$23                     ; 0x2023 <parse+0x2b6>
    2cba: 86 12        	stx	$12                     ; 0x2012 <parse+0x2a5>
    2cbc: 06 12        	asl	$12                     ; 0x2012 <parse+0x2a5>
    2cbe: 2a           	rol
    2cbf: 06 12        	asl	$12                     ; 0x2012 <parse+0x2a5>
    2cc1: 2a           	rol
    2cc2: 06 12        	asl	$12                     ; 0x2012 <parse+0x2a5>
    2cc4: 2a           	rol
    2cc5: a6 0f        	ldx	$f                      ; 0x200f <parse+0x2a2>
    2cc7: 78           	sei
    2cc8: 85 0f        	sta	$f                      ; 0x200f <parse+0x2a2>
    2cca: a4 22        	ldy	$22                     ; 0x2022 <parse+0x2b5>
    2ccc: 84 12        	sty	$12                     ; 0x2012 <parse+0x2a5>
    2cce: a5 23        	lda	$23                     ; 0x2023 <parse+0x2b6>
    2cd0: 09 e0        	ora	#$e0
    2cd2: 85 13        	sta	$13                     ; 0x2013 <parse+0x2a6>
    2cd4: a5 1f        	lda	$1f                     ; 0x201f <parse+0x2b2>
    2cd6: 92 12        	sta	($12)                   ; 0x2012 <parse+0x2a5>
    2cd8: a5 1e        	lda	$1e                     ; 0x201e <parse+0x2b1>
    2cda: a0 01        	ldy	#$1
    2cdc: 91 12        	sta	($12),y                 ; 0x2012 <parse+0x2a5>
    2cde: 86 0f        	stx	$f                      ; 0x200f <parse+0x2a2>
    2ce0: 58           	cli
    2ce1: a5 24        	lda	$24                     ; 0x2024 <parse+0x2b7>
    2ce3: 18           	clc
    2ce4: a0 30        	ldy	#$30
    2ce6: 71 14        	adc	($14),y                 ; 0x2014 <parse+0x2a7>
    2ce8: aa           	tax
    2ce9: a5 25        	lda	$25                     ; 0x2025 <parse+0x2b8>
    2ceb: a0 01        	ldy	#$1
    2ced: 71 18        	adc	($18),y                 ; 0x2018 <parse+0x2ab>
    2cef: 85 12        	sta	$12                     ; 0x2012 <parse+0x2a5>
    2cf1: a5 26        	lda	$26                     ; 0x2026 <parse+0x2b9>
    2cf3: c8           	iny
    2cf4: 71 18        	adc	($18),y                 ; 0x2018 <parse+0x2ab>
    2cf6: a8           	tay
    2cf7: 18           	clc
    2cf8: 8a           	txa
    2cf9: 69 02        	adc	#$2
    2cfb: 85 1e        	sta	$1e                     ; 0x201e <parse+0x2b1>
    2cfd: a5 12        	lda	$12                     ; 0x2012 <parse+0x2a5>
    2cff: 69 00        	adc	#$0
    2d01: aa           	tax
    2d02: 98           	tya
    2d03: 69 00        	adc	#$0
    2d05: 85 13        	sta	$13                     ; 0x2013 <parse+0x2a6>
    2d07: 8a           	txa
    2d08: 86 12        	stx	$12                     ; 0x2012 <parse+0x2a5>
    2d0a: 06 12        	asl	$12                     ; 0x2012 <parse+0x2a5>
    2d0c: 26 13        	rol	$13                     ; 0x2013 <parse+0x2a6>
    2d0e: 06 12        	asl	$12                     ; 0x2012 <parse+0x2a5>
    2d10: 26 13        	rol	$13                     ; 0x2013 <parse+0x2a6>
    2d12: 06 12        	asl	$12                     ; 0x2012 <parse+0x2a5>
    2d14: 26 13        	rol	$13                     ; 0x2013 <parse+0x2a6>
    2d16: a4 13        	ldy	$13                     ; 0x2013 <parse+0x2a6>
    2d18: a6 0f        	ldx	$f                      ; 0x200f <parse+0x2a2>
    2d1a: 78           	sei
    2d1b: 84 0f        	sty	$f                      ; 0x200f <parse+0x2a2>
    2d1d: a4 1e        	ldy	$1e                     ; 0x201e <parse+0x2b1>
    2d1f: 84 12        	sty	$12                     ; 0x2012 <parse+0x2a5>
    2d21: 09 e0        	ora	#$e0
    2d23: 85 13        	sta	$13                     ; 0x2013 <parse+0x2a6>
    2d25: a5 16        	lda	$16                     ; 0x2016 <parse+0x2a9>
    2d27: 92 12        	sta	($12)                   ; 0x2012 <parse+0x2a5>
    2d29: a5 17        	lda	$17                     ; 0x2017 <parse+0x2aa>
    2d2b: a0 01        	ldy	#$1
    2d2d: 91 12        	sta	($12),y                 ; 0x2012 <parse+0x2a5>
    2d2f: 86 0f        	stx	$f                      ; 0x200f <parse+0x2a2>
    2d31: 58           	cli
    2d32: a5 24        	lda	$24                     ; 0x2024 <parse+0x2b7>
    2d34: 18           	clc
    2d35: a0 30        	ldy	#$30
    2d37: 71 14        	adc	($14),y                 ; 0x2014 <parse+0x2a7>
    2d39: aa           	tax
    2d3a: a5 25        	lda	$25                     ; 0x2025 <parse+0x2b8>
    2d3c: a0 01        	ldy	#$1
    2d3e: 71 18        	adc	($18),y                 ; 0x2018 <parse+0x2ab>
    2d40: 85 12        	sta	$12                     ; 0x2012 <parse+0x2a5>
    2d42: a5 26        	lda	$26                     ; 0x2026 <parse+0x2b9>
    2d44: c8           	iny
    2d45: 71 18        	adc	($18),y                 ; 0x2018 <parse+0x2ab>
    2d47: a8           	tay
    2d48: 18           	clc
    2d49: 8a           	txa
    2d4a: 69 04        	adc	#$4
    2d4c: 85 16        	sta	$16                     ; 0x2016 <parse+0x2a9>
    2d4e: a5 12        	lda	$12                     ; 0x2012 <parse+0x2a5>
    2d50: 69 00        	adc	#$0
    2d52: aa           	tax
    2d53: 98           	tya
    2d54: 69 00        	adc	#$0
    2d56: 85 13        	sta	$13                     ; 0x2013 <parse+0x2a6>
    2d58: 8a           	txa
    2d59: 86 12        	stx	$12                     ; 0x2012 <parse+0x2a5>
    2d5b: 06 12        	asl	$12                     ; 0x2012 <parse+0x2a5>
    2d5d: 26 13        	rol	$13                     ; 0x2013 <parse+0x2a6>
    2d5f: 06 12        	asl	$12                     ; 0x2012 <parse+0x2a5>
    2d61: 26 13        	rol	$13                     ; 0x2013 <parse+0x2a6>
    2d63: 06 12        	asl	$12                     ; 0x2012 <parse+0x2a5>
    2d65: 26 13        	rol	$13                     ; 0x2013 <parse+0x2a6>
    2d67: a4 13        	ldy	$13                     ; 0x2013 <parse+0x2a6>
    2d69: a6 0f        	ldx	$f                      ; 0x200f <parse+0x2a2>
    2d6b: 78           	sei
    2d6c: 84 0f        	sty	$f                      ; 0x200f <parse+0x2a2>
    2d6e: a4 16        	ldy	$16                     ; 0x2016 <parse+0x2a9>
    2d70: 84 12        	sty	$12                     ; 0x2012 <parse+0x2a5>
    2d72: 09 e0        	ora	#$e0
    2d74: 85 13        	sta	$13                     ; 0x2013 <parse+0x2a6>
    2d76: a9 02        	lda	#$2
    2d78: 92 12        	sta	($12)                   ; 0x2012 <parse+0x2a5>
    2d7a: 86 0f        	stx	$f                      ; 0x200f <parse+0x2a2>
    2d7c: 58           	cli
    2d7d: a5 24        	lda	$24                     ; 0x2024 <parse+0x2b7>
    2d7f: 18           	clc
    2d80: a0 30        	ldy	#$30
    2d82: 71 14        	adc	($14),y                 ; 0x2014 <parse+0x2a7>
    2d84: aa           	tax
    2d85: a5 25        	lda	$25                     ; 0x2025 <parse+0x2b8>
    2d87: a0 01        	ldy	#$1
    2d89: 71 18        	adc	($18),y                 ; 0x2018 <parse+0x2ab>
    2d8b: 85 12        	sta	$12                     ; 0x2012 <parse+0x2a5>
    2d8d: a5 26        	lda	$26                     ; 0x2026 <parse+0x2b9>
    2d8f: c8           	iny
    2d90: 71 18        	adc	($18),y                 ; 0x2018 <parse+0x2ab>
    2d92: a8           	tay
    2d93: 18           	clc
    2d94: 8a           	txa
    2d95: 69 05        	adc	#$5
    2d97: 85 16        	sta	$16                     ; 0x2016 <parse+0x2a9>
    2d99: a5 12        	lda	$12                     ; 0x2012 <parse+0x2a5>
    2d9b: 69 00        	adc	#$0
    2d9d: aa           	tax
    2d9e: 98           	tya
    2d9f: 69 00        	adc	#$0
    2da1: 85 13        	sta	$13                     ; 0x2013 <parse+0x2a6>
    2da3: 8a           	txa
    2da4: 86 12        	stx	$12                     ; 0x2012 <parse+0x2a5>
    2da6: 06 12        	asl	$12                     ; 0x2012 <parse+0x2a5>
    2da8: 26 13        	rol	$13                     ; 0x2013 <parse+0x2a6>
    2daa: 06 12        	asl	$12                     ; 0x2012 <parse+0x2a5>
    2dac: 26 13        	rol	$13                     ; 0x2013 <parse+0x2a6>
    2dae: 06 12        	asl	$12                     ; 0x2012 <parse+0x2a5>
    2db0: 26 13        	rol	$13                     ; 0x2013 <parse+0x2a6>
    2db2: a4 13        	ldy	$13                     ; 0x2013 <parse+0x2a6>
    2db4: a6 0f        	ldx	$f                      ; 0x200f <parse+0x2a2>
    2db6: 78           	sei
    2db7: 84 0f        	sty	$f                      ; 0x200f <parse+0x2a2>
    2db9: a4 16        	ldy	$16                     ; 0x2016 <parse+0x2a9>
    2dbb: 84 12        	sty	$12                     ; 0x2012 <parse+0x2a5>
    2dbd: 09 e0        	ora	#$e0
    2dbf: 85 13        	sta	$13                     ; 0x2013 <parse+0x2a6>
    2dc1: a0 23        	ldy	#$23
    2dc3: b1 10        	lda	($10),y                 ; 0x2010 <parse+0x2a3>
    2dc5: 92 12        	sta	($12)                   ; 0x2012 <parse+0x2a5>
    2dc7: 86 0f        	stx	$f                      ; 0x200f <parse+0x2a2>
    2dc9: 58           	cli
    2dca: a5 24        	lda	$24                     ; 0x2024 <parse+0x2b7>
    2dcc: 18           	clc
    2dcd: a0 30        	ldy	#$30
    2dcf: 71 14        	adc	($14),y                 ; 0x2014 <parse+0x2a7>
    2dd1: aa           	tax
    2dd2: a5 25        	lda	$25                     ; 0x2025 <parse+0x2b8>
    2dd4: a0 01        	ldy	#$1
    2dd6: 71 18        	adc	($18),y                 ; 0x2018 <parse+0x2ab>
    2dd8: 85 12        	sta	$12                     ; 0x2012 <parse+0x2a5>
    2dda: a5 26        	lda	$26                     ; 0x2026 <parse+0x2b9>
    2ddc: c8           	iny
    2ddd: 71 18        	adc	($18),y                 ; 0x2018 <parse+0x2ab>
    2ddf: a8           	tay
    2de0: 18           	clc
    2de1: 8a           	txa
    2de2: 69 06        	adc	#$6
    2de4: 85 16        	sta	$16                     ; 0x2016 <parse+0x2a9>
    2de6: a5 12        	lda	$12                     ; 0x2012 <parse+0x2a5>
    2de8: 69 00        	adc	#$0
    2dea: aa           	tax
    2deb: 98           	tya
    2dec: 69 00        	adc	#$0
    2dee: 85 13        	sta	$13                     ; 0x2013 <parse+0x2a6>
    2df0: 8a           	txa
    2df1: 86 12        	stx	$12                     ; 0x2012 <parse+0x2a5>
    2df3: 06 12        	asl	$12                     ; 0x2012 <parse+0x2a5>
    2df5: 26 13        	rol	$13                     ; 0x2013 <parse+0x2a6>
    2df7: 06 12        	asl	$12                     ; 0x2012 <parse+0x2a5>
    2df9: 26 13        	rol	$13                     ; 0x2013 <parse+0x2a6>
    2dfb: 06 12        	asl	$12                     ; 0x2012 <parse+0x2a5>
    2dfd: 26 13        	rol	$13                     ; 0x2013 <parse+0x2a6>
    2dff: a4 13        	ldy	$13                     ; 0x2013 <parse+0x2a6>
    2e01: a6 0f        	ldx	$f                      ; 0x200f <parse+0x2a2>
    2e03: 78           	sei
    2e04: 84 0f        	sty	$f                      ; 0x200f <parse+0x2a2>
    2e06: a4 16        	ldy	$16                     ; 0x2016 <parse+0x2a9>
    2e08: 84 12        	sty	$12                     ; 0x2012 <parse+0x2a5>
    2e0a: 09 e0        	ora	#$e0
    2e0c: 85 13        	sta	$13                     ; 0x2013 <parse+0x2a6>
    2e0e: a5 29        	lda	$29                     ; 0x2029 <parse+0x2bc>
    2e10: 92 12        	sta	($12)                   ; 0x2012 <parse+0x2a5>
    2e12: 86 0f        	stx	$f                      ; 0x200f <parse+0x2a2>
    2e14: 58           	cli
    2e15: 18           	clc
    2e16: a5 24        	lda	$24                     ; 0x2024 <parse+0x2b7>
    2e18: a0 30        	ldy	#$30
    2e1a: 71 14        	adc	($14),y                 ; 0x2014 <parse+0x2a7>
    2e1c: 85 12        	sta	$12                     ; 0x2012 <parse+0x2a5>
    2e1e: a5 25        	lda	$25                     ; 0x2025 <parse+0x2b8>
    2e20: a0 01        	ldy	#$1
    2e22: 71 18        	adc	($18),y                 ; 0x2018 <parse+0x2ab>
    2e24: aa           	tax
    2e25: a5 26        	lda	$26                     ; 0x2026 <parse+0x2b9>
    2e27: c8           	iny
    2e28: 71 18        	adc	($18),y                 ; 0x2018 <parse+0x2ab>
    2e2a: 85 13        	sta	$13                     ; 0x2013 <parse+0x2a6>
    2e2c: 18           	clc
    2e2d: a5 12        	lda	$12                     ; 0x2012 <parse+0x2a5>
    2e2f: 69 07        	adc	#$7
    2e31: 85 12        	sta	$12                     ; 0x2012 <parse+0x2a5>
    2e33: 8a           	txa
    2e34: 69 00        	adc	#$0
    2e36: a8           	tay
    2e37: a5 13        	lda	$13                     ; 0x2013 <parse+0x2a6>
    2e39: 69 00        	adc	#$0
    2e3b: 85 13        	sta	$13                     ; 0x2013 <parse+0x2a6>
    2e3d: 98           	tya
    2e3e: 0a           	asl
    2e3f: 26 13        	rol	$13                     ; 0x2013 <parse+0x2a6>
    2e41: 0a           	asl
    2e42: 26 13        	rol	$13                     ; 0x2013 <parse+0x2a6>
    2e44: 0a           	asl
    2e45: a5 13        	lda	$13                     ; 0x2013 <parse+0x2a6>
    2e47: 2a           	rol
    2e48: a6 0f        	ldx	$f                      ; 0x200f <parse+0x2a2>
    2e4a: 78           	sei
    2e4b: 85 0f        	sta	$f                      ; 0x200f <parse+0x2a2>
    2e4d: 98           	tya
    2e4e: 09 e0        	ora	#$e0
    2e50: 85 13        	sta	$13                     ; 0x2013 <parse+0x2a6>
    2e52: a9 00        	lda	#$0
    2e54: 92 12        	sta	($12)                   ; 0x2012 <parse+0x2a5>
    2e56: 86 0f        	stx	$f                      ; 0x200f <parse+0x2a2>
    2e58: a5 1a        	lda	$1a                     ; 0x201a <parse+0x2ad>
    2e5a: a0 20        	ldy	#$20
    2e5c: 91 10        	sta	($10),y                 ; 0x2010 <parse+0x2a3>
    2e5e: a5 1b        	lda	$1b                     ; 0x201b <parse+0x2ae>
    2e60: 88           	dey
    2e61: 91 10        	sta	($10),y                 ; 0x2010 <parse+0x2a3>
    2e63: 58           	cli
    2e64: a5 1c        	lda	$1c                     ; 0x201c <parse+0x2af>
    2e66: 88           	dey
    2e67: 91 10        	sta	($10),y                 ; 0x2010 <parse+0x2a3>
    2e69: a5 1d        	lda	$1d                     ; 0x201d <parse+0x2b0>
    2e6b: 88           	dey
    2e6c: 91 10        	sta	($10),y                 ; 0x2010 <parse+0x2a3>
    2e6e: a0 15        	ldy	#$15
    2e70: b1 10        	lda	($10),y                 ; 0x2010 <parse+0x2a3>
    2e72: a8           	tay
    2e73: 5a           	phy
    2e74: a0 14        	ldy	#$14
    2e76: b1 10        	lda	($10),y                 ; 0x2010 <parse+0x2a3>
    2e78: 7a           	ply
    2e79: c8           	iny
    2e7a: d0 01        	bne	$2e7d <parse+0x1110>
    2e7c: 1a           	inc
    2e7d: 5a           	phy
    2e7e: a0 14        	ldy	#$14
    2e80: 91 10        	sta	($10),y                 ; 0x2010 <parse+0x2a3>
    2e82: 7a           	ply
    2e83: 98           	tya
    2e84: a0 15        	ldy	#$15
    2e86: 91 10        	sta	($10),y                 ; 0x2010 <parse+0x2a3>
    2e88: 4c 5d 36     	jmp	$365d <parse+0x18f0>
    2e8b: 8a           	txa
    2e8c: 18           	clc
    2e8d: 69 af        	adc	#$af
    2e8f: c9 09        	cmp	#$9
    2e91: 90 03        	bcc	$2e96 <parse+0x1129>
    2e93: 4c 9e 28     	jmp	$289e <parse+0xb31>
    2e96: 0a           	asl
    2e97: aa           	tax
    2e98: 7c 90 62     	jmp	($6290,x)               ; 0x6290 <__set_v+0x11>
    2e9b: a6 14        	ldx	$14                     ; 0x2014 <parse+0x2a7>
    2e9d: 86 28        	stx	$28                     ; 0x2028 <parse+0x2bb>
    2e9f: a5 14        	lda	$14                     ; 0x2014 <parse+0x2a7>
    2ea1: 18           	clc
    2ea2: 69 2c        	adc	#$2c
    2ea4: 85 12        	sta	$12                     ; 0x2012 <parse+0x2a5>
    2ea6: a6 15        	ldx	$15                     ; 0x2015 <parse+0x2a8>
    2ea8: 86 29        	stx	$29                     ; 0x2029 <parse+0x2bc>
    2eaa: a6 2a        	ldx	$2a                     ; 0x202a <parse+0x2bd>
    2eac: 86 1a        	stx	$1a                     ; 0x201a <parse+0x2ad>
    2eae: a5 15        	lda	$15                     ; 0x2015 <parse+0x2a8>
    2eb0: 69 00        	adc	#$0
    2eb2: 85 13        	sta	$13                     ; 0x2013 <parse+0x2a6>
    2eb4: 18           	clc
    2eb5: a0 2c        	ldy	#$2c
    2eb7: a5 17        	lda	$17                     ; 0x2017 <parse+0x2aa>
    2eb9: 71 14        	adc	($14),y                 ; 0x2014 <parse+0x2a7>
    2ebb: 85 18        	sta	$18                     ; 0x2018 <parse+0x2ab>
    2ebd: a5 1d        	lda	$1d                     ; 0x201d <parse+0x2b0>
    2ebf: a0 01        	ldy	#$1
    2ec1: 71 12        	adc	($12),y                 ; 0x2012 <parse+0x2a5>
    2ec3: aa           	tax
    2ec4: c8           	iny
    2ec5: a5 24        	lda	$24                     ; 0x2024 <parse+0x2b7>
    2ec7: 71 12        	adc	($12),y                 ; 0x2012 <parse+0x2a5>
    2ec9: 86 17        	stx	$17                     ; 0x2017 <parse+0x2aa>
    2ecb: 06 17        	asl	$17                     ; 0x2017 <parse+0x2aa>
    2ecd: 2a           	rol
    2ece: 06 17        	asl	$17                     ; 0x2017 <parse+0x2aa>
    2ed0: 2a           	rol
    2ed1: 06 17        	asl	$17                     ; 0x2017 <parse+0x2aa>
    2ed3: 2a           	rol
    2ed4: a4 0f        	ldy	$f                      ; 0x200f <parse+0x2a2>
    2ed6: 78           	sei
    2ed7: 85 0f        	sta	$f                      ; 0x200f <parse+0x2a2>
    2ed9: 8a           	txa
    2eda: 09 e0        	ora	#$e0
    2edc: 85 19        	sta	$19                     ; 0x2019 <parse+0x2ac>
    2ede: b2 18        	lda	($18)                   ; 0x2018 <parse+0x2ab>
    2ee0: 84 0f        	sty	$f                      ; 0x200f <parse+0x2a2>
    2ee2: 58           	cli
    2ee3: a5 2b        	lda	$2b                     ; 0x202b <parse+0x2be>
    2ee5: 18           	clc
    2ee6: a0 2c        	ldy	#$2c
    2ee8: 71 14        	adc	($14),y                 ; 0x2014 <parse+0x2a7>
    2eea: 85 17        	sta	$17                     ; 0x2017 <parse+0x2aa>
    2eec: a5 2a        	lda	$2a                     ; 0x202a <parse+0x2bd>
    2eee: a0 01        	ldy	#$1
    2ef0: 71 12        	adc	($12),y                 ; 0x2012 <parse+0x2a5>
    2ef2: 85 1b        	sta	$1b                     ; 0x201b <parse+0x2ae>
    2ef4: a0 24        	ldy	#$24
    2ef6: b1 10        	lda	($10),y                 ; 0x2010 <parse+0x2a3>
    2ef8: 85 27        	sta	$27                     ; 0x2027 <parse+0x2ba>
    2efa: a0 02        	ldy	#$2
    2efc: 71 12        	adc	($12),y                 ; 0x2012 <parse+0x2a5>
    2efe: aa           	tax
    2eff: 18           	clc
    2f00: a5 17        	lda	$17                     ; 0x2017 <parse+0x2aa>
    2f02: 69 02        	adc	#$2
    2f04: 85 17        	sta	$17                     ; 0x2017 <parse+0x2aa>
    2f06: a5 1b        	lda	$1b                     ; 0x201b <parse+0x2ae>
    2f08: 69 00        	adc	#$0
    2f0a: a8           	tay
    2f0b: 8a           	txa
    2f0c: 69 00        	adc	#$0
    2f0e: 85 19        	sta	$19                     ; 0x2019 <parse+0x2ac>
    2f10: 98           	tya
    2f11: 84 18        	sty	$18                     ; 0x2018 <parse+0x2ab>
    2f13: 06 18        	asl	$18                     ; 0x2018 <parse+0x2ab>
    2f15: 26 19        	rol	$19                     ; 0x2019 <parse+0x2ac>
    2f17: 06 18        	asl	$18                     ; 0x2018 <parse+0x2ab>
    2f19: 26 19        	rol	$19                     ; 0x2019 <parse+0x2ac>
    2f1b: 06 18        	asl	$18                     ; 0x2018 <parse+0x2ab>
    2f1d: 26 19        	rol	$19                     ; 0x2019 <parse+0x2ac>
    2f1f: a6 19        	ldx	$19                     ; 0x2019 <parse+0x2ac>
    2f21: a4 0f        	ldy	$f                      ; 0x200f <parse+0x2a2>
    2f23: 78           	sei
    2f24: 86 0f        	stx	$f                      ; 0x200f <parse+0x2a2>
    2f26: 09 e0        	ora	#$e0
    2f28: a6 17        	ldx	$17                     ; 0x2017 <parse+0x2aa>
    2f2a: 86 18        	stx	$18                     ; 0x2018 <parse+0x2ab>
    2f2c: 85 19        	sta	$19                     ; 0x2019 <parse+0x2ac>
    2f2e: b2 18        	lda	($18)                   ; 0x2018 <parse+0x2ab>
    2f30: 85 2a        	sta	$2a                     ; 0x202a <parse+0x2bd>
    2f32: 84 0f        	sty	$f                      ; 0x200f <parse+0x2a2>
    2f34: 58           	cli
    2f35: a5 2b        	lda	$2b                     ; 0x202b <parse+0x2be>
    2f37: 18           	clc
    2f38: a0 2c        	ldy	#$2c
    2f3a: 71 14        	adc	($14),y                 ; 0x2014 <parse+0x2a7>
    2f3c: 85 17        	sta	$17                     ; 0x2017 <parse+0x2aa>
    2f3e: a5 1a        	lda	$1a                     ; 0x201a <parse+0x2ad>
    2f40: a0 01        	ldy	#$1
    2f42: 71 12        	adc	($12),y                 ; 0x2012 <parse+0x2a5>
    2f44: 85 18        	sta	$18                     ; 0x2018 <parse+0x2ab>
    2f46: a5 27        	lda	$27                     ; 0x2027 <parse+0x2ba>
    2f48: c8           	iny
    2f49: 71 12        	adc	($12),y                 ; 0x2012 <parse+0x2a5>
    2f4b: aa           	tax
    2f4c: 18           	clc
    2f4d: a5 17        	lda	$17                     ; 0x2017 <parse+0x2aa>
    2f4f: 69 03        	adc	#$3
    2f51: 85 17        	sta	$17                     ; 0x2017 <parse+0x2aa>
    2f53: a5 18        	lda	$18                     ; 0x2018 <parse+0x2ab>
    2f55: 69 00        	adc	#$0
    2f57: a8           	tay
    2f58: 8a           	txa
    2f59: 69 00        	adc	#$0
    2f5b: 85 19        	sta	$19                     ; 0x2019 <parse+0x2ac>
    2f5d: 98           	tya
    2f5e: 84 18        	sty	$18                     ; 0x2018 <parse+0x2ab>
    2f60: 06 18        	asl	$18                     ; 0x2018 <parse+0x2ab>
    2f62: 26 19        	rol	$19                     ; 0x2019 <parse+0x2ac>
    2f64: 06 18        	asl	$18                     ; 0x2018 <parse+0x2ab>
    2f66: 26 19        	rol	$19                     ; 0x2019 <parse+0x2ac>
    2f68: 06 18        	asl	$18                     ; 0x2018 <parse+0x2ab>
    2f6a: 26 19        	rol	$19                     ; 0x2019 <parse+0x2ac>
    2f6c: a6 19        	ldx	$19                     ; 0x2019 <parse+0x2ac>
    2f6e: a4 0f        	ldy	$f                      ; 0x200f <parse+0x2a2>
    2f70: 78           	sei
    2f71: 86 0f        	stx	$f                      ; 0x200f <parse+0x2a2>
    2f73: 09 e0        	ora	#$e0
    2f75: a6 17        	ldx	$17                     ; 0x2017 <parse+0x2aa>
    2f77: 86 18        	stx	$18                     ; 0x2018 <parse+0x2ab>
    2f79: 85 19        	sta	$19                     ; 0x2019 <parse+0x2ac>
    2f7b: b2 18        	lda	($18)                   ; 0x2018 <parse+0x2ab>
    2f7d: 85 2d        	sta	$2d                     ; 0x202d <parse+0x2c0>
    2f7f: 84 0f        	sty	$f                      ; 0x200f <parse+0x2a2>
    2f81: 58           	cli
    2f82: a5 2b        	lda	$2b                     ; 0x202b <parse+0x2be>
    2f84: 18           	clc
    2f85: a0 2c        	ldy	#$2c
    2f87: 71 14        	adc	($14),y                 ; 0x2014 <parse+0x2a7>
    2f89: 85 17        	sta	$17                     ; 0x2017 <parse+0x2aa>
    2f8b: a5 1a        	lda	$1a                     ; 0x201a <parse+0x2ad>
    2f8d: a0 01        	ldy	#$1
    2f8f: 71 12        	adc	($12),y                 ; 0x2012 <parse+0x2a5>
    2f91: 85 18        	sta	$18                     ; 0x2018 <parse+0x2ab>
    2f93: a5 27        	lda	$27                     ; 0x2027 <parse+0x2ba>
    2f95: c8           	iny
    2f96: 71 12        	adc	($12),y                 ; 0x2012 <parse+0x2a5>
    2f98: aa           	tax
    2f99: 18           	clc
    2f9a: a5 17        	lda	$17                     ; 0x2017 <parse+0x2aa>
    2f9c: 69 04        	adc	#$4
    2f9e: 85 13        	sta	$13                     ; 0x2013 <parse+0x2a6>
    2fa0: a5 18        	lda	$18                     ; 0x2018 <parse+0x2ab>
    2fa2: 69 00        	adc	#$0
    2fa4: a8           	tay
    2fa5: 8a           	txa
    2fa6: 69 00        	adc	#$0
    2fa8: 85 17        	sta	$17                     ; 0x2017 <parse+0x2aa>
    2faa: 98           	tya
    2fab: 84 12        	sty	$12                     ; 0x2012 <parse+0x2a5>
    2fad: 06 12        	asl	$12                     ; 0x2012 <parse+0x2a5>
    2faf: 26 17        	rol	$17                     ; 0x2017 <parse+0x2aa>
    2fb1: 06 12        	asl	$12                     ; 0x2012 <parse+0x2a5>
    2fb3: 26 17        	rol	$17                     ; 0x2017 <parse+0x2aa>
    2fb5: 06 12        	asl	$12                     ; 0x2012 <parse+0x2a5>
    2fb7: 26 17        	rol	$17                     ; 0x2017 <parse+0x2aa>
    2fb9: a6 17        	ldx	$17                     ; 0x2017 <parse+0x2aa>
    2fbb: a4 0f        	ldy	$f                      ; 0x200f <parse+0x2a2>
    2fbd: 78           	sei
    2fbe: 86 0f        	stx	$f                      ; 0x200f <parse+0x2a2>
    2fc0: a6 13        	ldx	$13                     ; 0x2013 <parse+0x2a6>
    2fc2: 86 12        	stx	$12                     ; 0x2012 <parse+0x2a5>
    2fc4: 09 e0        	ora	#$e0
    2fc6: 85 13        	sta	$13                     ; 0x2013 <parse+0x2a6>
    2fc8: b2 12        	lda	($12)                   ; 0x2012 <parse+0x2a5>
    2fca: 85 25        	sta	$25                     ; 0x2025 <parse+0x2b8>
    2fcc: 84 0f        	sty	$f                      ; 0x200f <parse+0x2a2>
    2fce: 18           	clc
    2fcf: a5 2b        	lda	$2b                     ; 0x202b <parse+0x2be>
    2fd1: 69 05        	adc	#$5
    2fd3: a0 23        	ldy	#$23
    2fd5: 91 10        	sta	($10),y                 ; 0x2010 <parse+0x2a3>
    2fd7: a5 1a        	lda	$1a                     ; 0x201a <parse+0x2ad>
    2fd9: 69 00        	adc	#$0
    2fdb: 85 24        	sta	$24                     ; 0x2024 <parse+0x2b7>
    2fdd: a5 27        	lda	$27                     ; 0x2027 <parse+0x2ba>
    2fdf: 69 00        	adc	#$0
    2fe1: 85 26        	sta	$26                     ; 0x2026 <parse+0x2b9>
    2fe3: a5 16        	lda	$16                     ; 0x2016 <parse+0x2a9>
    2fe5: 69 00        	adc	#$0
    2fe7: 85 27        	sta	$27                     ; 0x2027 <parse+0x2ba>
    2fe9: a5 14        	lda	$14                     ; 0x2014 <parse+0x2a7>
    2feb: 18           	clc
    2fec: 69 0c        	adc	#$c
    2fee: 85 12        	sta	$12                     ; 0x2012 <parse+0x2a5>
    2ff0: a5 15        	lda	$15                     ; 0x2015 <parse+0x2a8>
    2ff2: 69 00        	adc	#$0
    2ff4: 58           	cli
    2ff5: 85 13        	sta	$13                     ; 0x2013 <parse+0x2a6>
    2ff7: a0 0c        	ldy	#$c
    2ff9: b1 14        	lda	($14),y                 ; 0x2014 <parse+0x2a7>
    2ffb: aa           	tax
    2ffc: a0 01        	ldy	#$1
    2ffe: b1 12        	lda	($12),y                 ; 0x2012 <parse+0x2a5>
    3000: 85 17        	sta	$17                     ; 0x2017 <parse+0x2aa>
    3002: c8           	iny
    3003: b1 12        	lda	($12),y                 ; 0x2012 <parse+0x2a5>
    3005: 85 16        	sta	$16                     ; 0x2016 <parse+0x2a9>
    3007: c8           	iny
    3008: b1 12        	lda	($12),y                 ; 0x2012 <parse+0x2a5>
    300a: a4 14        	ldy	$14                     ; 0x2014 <parse+0x2a7>
    300c: 84 2e        	sty	$2e                     ; 0x202e <parse+0x2c1>
    300e: a4 15        	ldy	$15                     ; 0x2015 <parse+0x2a8>
    3010: 84 2f        	sty	$2f                     ; 0x202f <parse+0x2c2>
    3012: 86 14        	stx	$14                     ; 0x2014 <parse+0x2a7>
    3014: a6 17        	ldx	$17                     ; 0x2017 <parse+0x2aa>
    3016: 86 15        	stx	$15                     ; 0x2015 <parse+0x2a8>
    3018: a6 2a        	ldx	$2a                     ; 0x202a <parse+0x2bd>
    301a: 86 12        	stx	$12                     ; 0x2012 <parse+0x2a5>
    301c: 64 13        	stz	$13                     ; 0x2013 <parse+0x2a6>
    301e: 85 17        	sta	$17                     ; 0x2017 <parse+0x2aa>
    3020: a6 2d        	ldx	$2d                     ; 0x202d <parse+0x2c0>
    3022: a5 25        	lda	$25                     ; 0x2025 <parse+0x2b8>
    3024: 20 25 4a     	jsr	$4a25 <__udivsi3>
    3027: 20 fb 5f     	jsr	$5ffb <__floatunsidf>
    302a: 85 18        	sta	$18                     ; 0x2018 <parse+0x2ab>
    302c: 86 19        	stx	$19                     ; 0x2019 <parse+0x2ac>
    302e: a6 12        	ldx	$12                     ; 0x2012 <parse+0x2a5>
    3030: a4 13        	ldy	$13                     ; 0x2013 <parse+0x2a6>
    3032: 84 1b        	sty	$1b                     ; 0x201b <parse+0x2ae>
    3034: a4 14        	ldy	$14                     ; 0x2014 <parse+0x2a7>
    3036: 84 1c        	sty	$1c                     ; 0x201c <parse+0x2af>
    3038: a4 15        	ldy	$15                     ; 0x2015 <parse+0x2a8>
    303a: 84 1d        	sty	$1d                     ; 0x201d <parse+0x2b0>
    303c: a4 16        	ldy	$16                     ; 0x2016 <parse+0x2a9>
    303e: 84 1e        	sty	$1e                     ; 0x201e <parse+0x2b1>
    3040: a4 17        	ldy	$17                     ; 0x2017 <parse+0x2aa>
    3042: 84 1f        	sty	$1f                     ; 0x201f <parse+0x2b2>
    3044: 18           	clc
    3045: a5 28        	lda	$28                     ; 0x2028 <parse+0x2bb>
    3047: 69 14        	adc	#$14
    3049: 85 28        	sta	$28                     ; 0x2028 <parse+0x2bb>
    304b: a5 29        	lda	$29                     ; 0x2029 <parse+0x2bc>
    304d: 69 00        	adc	#$0
    304f: 85 29        	sta	$29                     ; 0x2029 <parse+0x2bc>
    3051: a0 14        	ldy	#$14
    3053: b1 2e        	lda	($2e),y                 ; 0x202e <parse+0x2c1>
    3055: 85 22        	sta	$22                     ; 0x2022 <parse+0x2b5>
    3057: a0 01        	ldy	#$1
    3059: b1 28        	lda	($28),y                 ; 0x2028 <parse+0x2bb>
    305b: 85 23        	sta	$23                     ; 0x2023 <parse+0x2b6>
    305d: c8           	iny
    305e: b1 28        	lda	($28),y                 ; 0x2028 <parse+0x2bb>
    3060: 85 12        	sta	$12                     ; 0x2012 <parse+0x2a5>
    3062: c8           	iny
    3063: b1 28        	lda	($28),y                 ; 0x2028 <parse+0x2bb>
    3065: 85 13        	sta	$13                     ; 0x2013 <parse+0x2a6>
    3067: c8           	iny
    3068: b1 28        	lda	($28),y                 ; 0x2028 <parse+0x2bb>
    306a: 85 14        	sta	$14                     ; 0x2014 <parse+0x2a7>
    306c: c8           	iny
    306d: b1 28        	lda	($28),y                 ; 0x2028 <parse+0x2bb>
    306f: 85 15        	sta	$15                     ; 0x2015 <parse+0x2a8>
    3071: c8           	iny
    3072: b1 28        	lda	($28),y                 ; 0x2028 <parse+0x2bb>
    3074: 85 16        	sta	$16                     ; 0x2016 <parse+0x2a9>
    3076: c8           	iny
    3077: b1 28        	lda	($28),y                 ; 0x2028 <parse+0x2bb>
    3079: 85 17        	sta	$17                     ; 0x2017 <parse+0x2aa>
    307b: 86 1a        	stx	$1a                     ; 0x201a <parse+0x2ad>
    307d: a6 23        	ldx	$23                     ; 0x2023 <parse+0x2b6>
    307f: a5 22        	lda	$22                     ; 0x2022 <parse+0x2b5>
    3081: 20 94 4b     	jsr	$4b94 <__muldf3>
    3084: 20 78 5f     	jsr	$5f78 <__fixunsdfsi>
    3087: a0 13        	ldy	#$13
    3089: 91 10        	sta	($10),y                 ; 0x2010 <parse+0x2a3>
    308b: 8a           	txa
    308c: 88           	dey
    308d: 91 10        	sta	($10),y                 ; 0x2010 <parse+0x2a3>
    308f: a5 12        	lda	$12                     ; 0x2012 <parse+0x2a5>
    3091: a0 0f        	ldy	#$f
    3093: 91 10        	sta	($10),y                 ; 0x2010 <parse+0x2a3>
    3095: a5 13        	lda	$13                     ; 0x2013 <parse+0x2a6>
    3097: 88           	dey
    3098: 91 10        	sta	($10),y                 ; 0x2010 <parse+0x2a3>
    309a: a6 25        	ldx	$25                     ; 0x2025 <parse+0x2b8>
    309c: 86 14        	stx	$14                     ; 0x2014 <parse+0x2a7>
    309e: a2 93        	ldx	#$93
    30a0: 86 12        	stx	$12                     ; 0x2012 <parse+0x2a5>
    30a2: a2 03        	ldx	#$3
    30a4: 86 13        	stx	$13                     ; 0x2013 <parse+0x2a6>
    30a6: a6 2d        	ldx	$2d                     ; 0x202d <parse+0x2c0>
    30a8: 86 15        	stx	$15                     ; 0x2015 <parse+0x2a8>
    30aa: a6 2a        	ldx	$2a                     ; 0x202a <parse+0x2bd>
    30ac: 86 16        	stx	$16                     ; 0x2016 <parse+0x2a9>
    30ae: 64 17        	stz	$17                     ; 0x2017 <parse+0x2aa>
    30b0: a2 87        	ldx	#$87
    30b2: a9 00        	lda	#$0
    30b4: 20 25 4a     	jsr	$4a25 <__udivsi3>
    30b7: a6 2e        	ldx	$2e                     ; 0x202e <parse+0x2c1>
    30b9: 86 14        	stx	$14                     ; 0x2014 <parse+0x2a7>
    30bb: a6 2f        	ldx	$2f                     ; 0x202f <parse+0x2c2>
    30bd: 86 15        	stx	$15                     ; 0x2015 <parse+0x2a8>
    30bf: a0 2b        	ldy	#$2b
    30c1: 91 2e        	sta	($2e),y                 ; 0x202e <parse+0x2c1>
    30c3: a0 23        	ldy	#$23
    30c5: b1 10        	lda	($10),y                 ; 0x2010 <parse+0x2a3>
    30c7: 85 1c        	sta	$1c                     ; 0x201c <parse+0x2af>
    30c9: a6 24        	ldx	$24                     ; 0x2024 <parse+0x2b7>
    30cb: 86 1d        	stx	$1d                     ; 0x201d <parse+0x2b0>
    30cd: a6 26        	ldx	$26                     ; 0x2026 <parse+0x2b9>
    30cf: 86 24        	stx	$24                     ; 0x2024 <parse+0x2b7>
    30d1: a5 27        	lda	$27                     ; 0x2027 <parse+0x2ba>
    30d3: a2 ff        	ldx	#$ff
    30d5: 48           	pha
    30d6: 8a           	txa
    30d7: 4c 6d 27     	jmp	$276d <parse+0xa00>
    30da: 5a           	phy
    30db: a0 24        	ldy	#$24
    30dd: b1 10        	lda	($10),y                 ; 0x2010 <parse+0x2a3>
    30df: 7a           	ply
    30e0: 30 12        	bmi	$30f4 <parse+0x1387>
    30e2: a6 2a        	ldx	$2a                     ; 0x202a <parse+0x2bd>
    30e4: a4 2b        	ldy	$2b                     ; 0x202b <parse+0x2be>
    30e6: 86 1d        	stx	$1d                     ; 0x201d <parse+0x2b0>
    30e8: 85 24        	sta	$24                     ; 0x2024 <parse+0x2b7>
    30ea: 4c b0 35     	jmp	$35b0 <parse+0x1843>
    30ed: c0 f0        	cpy	#$f0
    30ef: 90 03        	bcc	$30f4 <parse+0x1387>
    30f1: 4c aa 35     	jmp	$35aa <parse+0x183d>
    30f4: a0 21        	ldy	#$21
    30f6: b1 10        	lda	($10),y                 ; 0x2010 <parse+0x2a3>
    30f8: d0 03        	bne	$30fd <parse+0x1390>
    30fa: 4c b7 35     	jmp	$35b7 <parse+0x184a>
    30fd: a0 23        	ldy	#$23
    30ff: b1 10        	lda	($10),y                 ; 0x2010 <parse+0x2a3>
    3101: 29 f0        	and	#$f0
    3103: c9 90        	cmp	#$90
    3105: d0 09        	bne	$3110 <parse+0x13a3>
    3107: a0 09        	ldy	#$9
    3109: b1 10        	lda	($10),y                 ; 0x2010 <parse+0x2a3>
    310b: d0 03        	bne	$3110 <parse+0x13a3>
    310d: 4c 81 36     	jmp	$3681 <parse+0x1914>
    3110: 38           	sec
    3111: a9 01        	lda	#$1
    3113: a0 08        	ldy	#$8
    3115: 91 10        	sta	($10),y                 ; 0x2010 <parse+0x2a3>
    3117: a5 1a        	lda	$1a                     ; 0x201a <parse+0x2ad>
    3119: a0 22        	ldy	#$22
    311b: 91 10        	sta	($10),y                 ; 0x2010 <parse+0x2a3>
    311d: a6 14        	ldx	$14                     ; 0x2014 <parse+0x2a7>
    311f: 86 2c        	stx	$2c                     ; 0x202c <parse+0x2bf>
    3121: a6 15        	ldx	$15                     ; 0x2015 <parse+0x2a8>
    3123: 86 2d        	stx	$2d                     ; 0x202d <parse+0x2c0>
    3125: a0 15        	ldy	#$15
    3127: b1 10        	lda	($10),y                 ; 0x2010 <parse+0x2a3>
    3129: aa           	tax
    312a: 0a           	asl
    312b: 48           	pha
    312c: 88           	dey
    312d: b1 10        	lda	($10),y                 ; 0x2010 <parse+0x2a3>
    312f: 85 25        	sta	$25                     ; 0x2025 <parse+0x2b8>
    3131: 68           	pla
    3132: a4 25        	ldy	$25                     ; 0x2025 <parse+0x2b8>
    3134: 84 15        	sty	$15                     ; 0x2015 <parse+0x2a8>
    3136: 26 15        	rol	$15                     ; 0x2015 <parse+0x2a8>
    3138: 64 14        	stz	$14                     ; 0x2014 <parse+0x2a7>
    313a: 26 14        	rol	$14                     ; 0x2014 <parse+0x2a7>
    313c: 0a           	asl
    313d: 26 15        	rol	$15                     ; 0x2015 <parse+0x2a8>
    313f: 26 14        	rol	$14                     ; 0x2014 <parse+0x2a7>
    3141: 0a           	asl
    3142: 26 15        	rol	$15                     ; 0x2015 <parse+0x2a8>
    3144: a4 15        	ldy	$15                     ; 0x2015 <parse+0x2a8>
    3146: 84 19        	sty	$19                     ; 0x2019 <parse+0x2ac>
    3148: 26 14        	rol	$14                     ; 0x2014 <parse+0x2a7>
    314a: a4 14        	ldy	$14                     ; 0x2014 <parse+0x2a7>
    314c: 84 18        	sty	$18                     ; 0x2018 <parse+0x2ab>
    314e: 18           	clc
    314f: a0 03        	ldy	#$3
    3151: 48           	pha
    3152: 5a           	phy
    3153: a0 10        	ldy	#$10
    3155: b1 10        	lda	($10),y                 ; 0x2010 <parse+0x2a3>
    3157: 85 14        	sta	$14                     ; 0x2014 <parse+0x2a7>
    3159: c8           	iny
    315a: b1 10        	lda	($10),y                 ; 0x2010 <parse+0x2a3>
    315c: 7a           	ply
    315d: 85 15        	sta	$15                     ; 0x2015 <parse+0x2a8>
    315f: 68           	pla
    3160: 71 14        	adc	($14),y                 ; 0x2014 <parse+0x2a7>
    3162: 85 2f        	sta	$2f                     ; 0x202f <parse+0x2c2>
    3164: a0 0c        	ldy	#$c
    3166: b1 10        	lda	($10),y                 ; 0x2010 <parse+0x2a3>
    3168: 85 16        	sta	$16                     ; 0x2016 <parse+0x2a9>
    316a: c8           	iny
    316b: b1 10        	lda	($10),y                 ; 0x2010 <parse+0x2a3>
    316d: 85 17        	sta	$17                     ; 0x2017 <parse+0x2aa>
    316f: a0 01        	ldy	#$1
    3171: a5 19        	lda	$19                     ; 0x2019 <parse+0x2ac>
    3173: 71 16        	adc	($16),y                 ; 0x2016 <parse+0x2a9>
    3175: 85 27        	sta	$27                     ; 0x2027 <parse+0x2ba>
    3177: c8           	iny
    3178: a5 18        	lda	$18                     ; 0x2018 <parse+0x2ab>
    317a: 71 16        	adc	($16),y                 ; 0x2016 <parse+0x2a9>
    317c: 85 26        	sta	$26                     ; 0x2026 <parse+0x2b9>
    317e: 86 24        	stx	$24                     ; 0x2024 <parse+0x2b7>
    3180: a0 13        	ldy	#$13
    3182: b1 10        	lda	($10),y                 ; 0x2010 <parse+0x2a3>
    3184: 85 14        	sta	$14                     ; 0x2014 <parse+0x2a7>
    3186: 88           	dey
    3187: b1 10        	lda	($10),y                 ; 0x2010 <parse+0x2a3>
    3189: 85 15        	sta	$15                     ; 0x2015 <parse+0x2a8>
    318b: a0 0f        	ldy	#$f
    318d: b1 10        	lda	($10),y                 ; 0x2010 <parse+0x2a3>
    318f: 85 16        	sta	$16                     ; 0x2016 <parse+0x2a9>
    3191: 88           	dey
    3192: b1 10        	lda	($10),y                 ; 0x2010 <parse+0x2a3>
    3194: 85 17        	sta	$17                     ; 0x2017 <parse+0x2aa>
    3196: a6 1f        	ldx	$1f                     ; 0x201f <parse+0x2b2>
    3198: a5 1e        	lda	$1e                     ; 0x201e <parse+0x2b1>
    319a: 20 bd 48     	jsr	$48bd <__mulsi3>
    319d: 85 1b        	sta	$1b                     ; 0x201b <parse+0x2ae>
    319f: 86 1c        	stx	$1c                     ; 0x201c <parse+0x2af>
    31a1: a6 25        	ldx	$25                     ; 0x2025 <parse+0x2b8>
    31a3: 86 1a        	stx	$1a                     ; 0x201a <parse+0x2ad>
    31a5: a6 24        	ldx	$24                     ; 0x2024 <parse+0x2b7>
    31a7: 86 16        	stx	$16                     ; 0x2016 <parse+0x2a9>
    31a9: a6 13        	ldx	$13                     ; 0x2013 <parse+0x2a6>
    31ab: a4 2c        	ldy	$2c                     ; 0x202c <parse+0x2bf>
    31ad: 84 14        	sty	$14                     ; 0x2014 <parse+0x2a7>
    31af: a4 2d        	ldy	$2d                     ; 0x202d <parse+0x2c0>
    31b1: 84 15        	sty	$15                     ; 0x2015 <parse+0x2a8>
    31b3: a5 14        	lda	$14                     ; 0x2014 <parse+0x2a7>
    31b5: 18           	clc
    31b6: 69 30        	adc	#$30
    31b8: 85 2c        	sta	$2c                     ; 0x202c <parse+0x2bf>
    31ba: a5 15        	lda	$15                     ; 0x2015 <parse+0x2a8>
    31bc: 69 00        	adc	#$0
    31be: 85 2d        	sta	$2d                     ; 0x202d <parse+0x2c0>
    31c0: a5 2f        	lda	$2f                     ; 0x202f <parse+0x2c2>
    31c2: 18           	clc
    31c3: a0 30        	ldy	#$30
    31c5: 71 14        	adc	($14),y                 ; 0x2014 <parse+0x2a7>
    31c7: 85 13        	sta	$13                     ; 0x2013 <parse+0x2a6>
    31c9: a5 27        	lda	$27                     ; 0x2027 <parse+0x2ba>
    31cb: a0 01        	ldy	#$1
    31cd: 71 2c        	adc	($2c),y                 ; 0x202c <parse+0x2bf>
    31cf: 85 19        	sta	$19                     ; 0x2019 <parse+0x2ac>
    31d1: a5 26        	lda	$26                     ; 0x2026 <parse+0x2b9>
    31d3: c8           	iny
    31d4: 71 2c        	adc	($2c),y                 ; 0x202c <parse+0x2bf>
    31d6: 86 18        	stx	$18                     ; 0x2018 <parse+0x2ab>
    31d8: 46 18        	lsr	$18                     ; 0x2018 <parse+0x2ab>
    31da: 66 12        	ror	$12                     ; 0x2012 <parse+0x2a5>
    31dc: a6 1c        	ldx	$1c                     ; 0x201c <parse+0x2af>
    31de: 86 17        	stx	$17                     ; 0x2017 <parse+0x2aa>
    31e0: 66 17        	ror	$17                     ; 0x2017 <parse+0x2aa>
    31e2: a2 01        	ldx	#$1
    31e4: b0 02        	bcs	$31e8 <parse+0x147b>
    31e6: a2 00        	ldx	#$0
    31e8: 86 25        	stx	$25                     ; 0x2025 <parse+0x2b8>
    31ea: 46 18        	lsr	$18                     ; 0x2018 <parse+0x2ab>
    31ec: 66 12        	ror	$12                     ; 0x2012 <parse+0x2a5>
    31ee: 66 17        	ror	$17                     ; 0x2017 <parse+0x2aa>
    31f0: a2 01        	ldx	#$1
    31f2: b0 02        	bcs	$31f6 <parse+0x1489>
    31f4: a2 00        	ldx	#$0
    31f6: 86 22        	stx	$22                     ; 0x2022 <parse+0x2b5>
    31f8: 46 18        	lsr	$18                     ; 0x2018 <parse+0x2ab>
    31fa: 66 12        	ror	$12                     ; 0x2012 <parse+0x2a5>
    31fc: 66 17        	ror	$17                     ; 0x2017 <parse+0x2aa>
    31fe: a2 01        	ldx	#$1
    3200: b0 02        	bcs	$3204 <parse+0x1497>
    3202: a2 00        	ldx	#$0
    3204: 86 23        	stx	$23                     ; 0x2023 <parse+0x2b6>
    3206: a6 17        	ldx	$17                     ; 0x2017 <parse+0x2aa>
    3208: 86 1f        	stx	$1f                     ; 0x201f <parse+0x2b2>
    320a: a6 12        	ldx	$12                     ; 0x2012 <parse+0x2a5>
    320c: 86 1e        	stx	$1e                     ; 0x201e <parse+0x2b1>
    320e: 06 17        	asl	$17                     ; 0x2017 <parse+0x2aa>
    3210: 26 12        	rol	$12                     ; 0x2012 <parse+0x2a5>
    3212: a6 18        	ldx	$18                     ; 0x2018 <parse+0x2ab>
    3214: 86 24        	stx	$24                     ; 0x2024 <parse+0x2b7>
    3216: 26 18        	rol	$18                     ; 0x2018 <parse+0x2ab>
    3218: 06 17        	asl	$17                     ; 0x2017 <parse+0x2aa>
    321a: 26 12        	rol	$12                     ; 0x2012 <parse+0x2a5>
    321c: 26 18        	rol	$18                     ; 0x2018 <parse+0x2ab>
    321e: 06 17        	asl	$17                     ; 0x2017 <parse+0x2aa>
    3220: 26 12        	rol	$12                     ; 0x2012 <parse+0x2a5>
    3222: a4 12        	ldy	$12                     ; 0x2012 <parse+0x2a5>
    3224: a6 18        	ldx	$18                     ; 0x2018 <parse+0x2ab>
    3226: 86 12        	stx	$12                     ; 0x2012 <parse+0x2a5>
    3228: 26 12        	rol	$12                     ; 0x2012 <parse+0x2a5>
    322a: a6 19        	ldx	$19                     ; 0x2019 <parse+0x2ac>
    322c: 86 17        	stx	$17                     ; 0x2017 <parse+0x2aa>
    322e: 06 17        	asl	$17                     ; 0x2017 <parse+0x2aa>
    3230: 2a           	rol
    3231: 06 17        	asl	$17                     ; 0x2017 <parse+0x2aa>
    3233: 2a           	rol
    3234: 06 17        	asl	$17                     ; 0x2017 <parse+0x2aa>
    3236: 2a           	rol
    3237: a6 0f        	ldx	$f                      ; 0x200f <parse+0x2a2>
    3239: 78           	sei
    323a: 85 0f        	sta	$f                      ; 0x200f <parse+0x2a2>
    323c: a5 13        	lda	$13                     ; 0x2013 <parse+0x2a6>
    323e: 85 18        	sta	$18                     ; 0x2018 <parse+0x2ab>
    3240: a5 19        	lda	$19                     ; 0x2019 <parse+0x2ac>
    3242: 09 e0        	ora	#$e0
    3244: 85 19        	sta	$19                     ; 0x2019 <parse+0x2ac>
    3246: 98           	tya
    3247: 92 18        	sta	($18)                   ; 0x2018 <parse+0x2ab>
    3249: a0 01        	ldy	#$1
    324b: a5 12        	lda	$12                     ; 0x2012 <parse+0x2a5>
    324d: 91 18        	sta	($18),y                 ; 0x2018 <parse+0x2ab>
    324f: 86 0f        	stx	$f                      ; 0x200f <parse+0x2a2>
    3251: 58           	cli
    3252: a5 2f        	lda	$2f                     ; 0x202f <parse+0x2c2>
    3254: 18           	clc
    3255: a0 30        	ldy	#$30
    3257: 71 14        	adc	($14),y                 ; 0x2014 <parse+0x2a7>
    3259: aa           	tax
    325a: a5 27        	lda	$27                     ; 0x2027 <parse+0x2ba>
    325c: a0 01        	ldy	#$1
    325e: 71 2c        	adc	($2c),y                 ; 0x202c <parse+0x2bf>
    3260: 85 12        	sta	$12                     ; 0x2012 <parse+0x2a5>
    3262: a5 26        	lda	$26                     ; 0x2026 <parse+0x2b9>
    3264: c8           	iny
    3265: 71 2c        	adc	($2c),y                 ; 0x202c <parse+0x2bf>
    3267: a8           	tay
    3268: 18           	clc
    3269: 8a           	txa
    326a: 69 02        	adc	#$2
    326c: 85 18        	sta	$18                     ; 0x2018 <parse+0x2ab>
    326e: a5 12        	lda	$12                     ; 0x2012 <parse+0x2a5>
    3270: 69 00        	adc	#$0
    3272: aa           	tax
    3273: 98           	tya
    3274: 69 00        	adc	#$0
    3276: 85 12        	sta	$12                     ; 0x2012 <parse+0x2a5>
    3278: 8a           	txa
    3279: 86 17        	stx	$17                     ; 0x2017 <parse+0x2aa>
    327b: 06 17        	asl	$17                     ; 0x2017 <parse+0x2aa>
    327d: 26 12        	rol	$12                     ; 0x2012 <parse+0x2a5>
    327f: 06 17        	asl	$17                     ; 0x2017 <parse+0x2aa>
    3281: 26 12        	rol	$12                     ; 0x2012 <parse+0x2a5>
    3283: 06 17        	asl	$17                     ; 0x2017 <parse+0x2aa>
    3285: 26 12        	rol	$12                     ; 0x2012 <parse+0x2a5>
    3287: a4 12        	ldy	$12                     ; 0x2012 <parse+0x2a5>
    3289: a6 0f        	ldx	$f                      ; 0x200f <parse+0x2a2>
    328b: 78           	sei
    328c: 84 0f        	sty	$f                      ; 0x200f <parse+0x2a2>
    328e: 09 e0        	ora	#$e0
    3290: 85 19        	sta	$19                     ; 0x2019 <parse+0x2ac>
    3292: a5 1b        	lda	$1b                     ; 0x201b <parse+0x2ae>
    3294: 92 18        	sta	($18)                   ; 0x2018 <parse+0x2ab>
    3296: a5 1c        	lda	$1c                     ; 0x201c <parse+0x2af>
    3298: a0 01        	ldy	#$1
    329a: 91 18        	sta	($18),y                 ; 0x2018 <parse+0x2ab>
    329c: 86 0f        	stx	$f                      ; 0x200f <parse+0x2a2>
    329e: 58           	cli
    329f: a5 2f        	lda	$2f                     ; 0x202f <parse+0x2c2>
    32a1: 18           	clc
    32a2: a0 30        	ldy	#$30
    32a4: 71 14        	adc	($14),y                 ; 0x2014 <parse+0x2a7>
    32a6: aa           	tax
    32a7: a5 27        	lda	$27                     ; 0x2027 <parse+0x2ba>
    32a9: a0 01        	ldy	#$1
    32ab: 71 2c        	adc	($2c),y                 ; 0x202c <parse+0x2bf>
    32ad: 85 12        	sta	$12                     ; 0x2012 <parse+0x2a5>
    32af: a5 26        	lda	$26                     ; 0x2026 <parse+0x2b9>
    32b1: c8           	iny
    32b2: 71 2c        	adc	($2c),y                 ; 0x202c <parse+0x2bf>
    32b4: a8           	tay
    32b5: 18           	clc
    32b6: 8a           	txa
    32b7: 69 04        	adc	#$4
    32b9: 85 18        	sta	$18                     ; 0x2018 <parse+0x2ab>
    32bb: a5 12        	lda	$12                     ; 0x2012 <parse+0x2a5>
    32bd: 69 00        	adc	#$0
    32bf: aa           	tax
    32c0: 98           	tya
    32c1: 69 00        	adc	#$0
    32c3: 85 12        	sta	$12                     ; 0x2012 <parse+0x2a5>
    32c5: 8a           	txa
    32c6: 86 17        	stx	$17                     ; 0x2017 <parse+0x2aa>
    32c8: 06 17        	asl	$17                     ; 0x2017 <parse+0x2aa>
    32ca: 26 12        	rol	$12                     ; 0x2012 <parse+0x2a5>
    32cc: 06 17        	asl	$17                     ; 0x2017 <parse+0x2aa>
    32ce: 26 12        	rol	$12                     ; 0x2012 <parse+0x2a5>
    32d0: 06 17        	asl	$17                     ; 0x2017 <parse+0x2aa>
    32d2: 26 12        	rol	$12                     ; 0x2012 <parse+0x2a5>
    32d4: a4 12        	ldy	$12                     ; 0x2012 <parse+0x2a5>
    32d6: a6 0f        	ldx	$f                      ; 0x200f <parse+0x2a2>
    32d8: 78           	sei
    32d9: 84 0f        	sty	$f                      ; 0x200f <parse+0x2a2>
    32db: 09 e0        	ora	#$e0
    32dd: 85 19        	sta	$19                     ; 0x2019 <parse+0x2ac>
    32df: a9 03        	lda	#$3
    32e1: 92 18        	sta	($18)                   ; 0x2018 <parse+0x2ab>
    32e3: 86 0f        	stx	$f                      ; 0x200f <parse+0x2a2>
    32e5: 58           	cli
    32e6: a5 2f        	lda	$2f                     ; 0x202f <parse+0x2c2>
    32e8: 18           	clc
    32e9: a0 30        	ldy	#$30
    32eb: 71 14        	adc	($14),y                 ; 0x2014 <parse+0x2a7>
    32ed: aa           	tax
    32ee: a5 27        	lda	$27                     ; 0x2027 <parse+0x2ba>
    32f0: a0 01        	ldy	#$1
    32f2: 71 2c        	adc	($2c),y                 ; 0x202c <parse+0x2bf>
    32f4: 85 12        	sta	$12                     ; 0x2012 <parse+0x2a5>
    32f6: a5 26        	lda	$26                     ; 0x2026 <parse+0x2b9>
    32f8: c8           	iny
    32f9: 71 2c        	adc	($2c),y                 ; 0x202c <parse+0x2bf>
    32fb: a8           	tay
    32fc: 18           	clc
    32fd: 8a           	txa
    32fe: 69 05        	adc	#$5
    3300: 85 18        	sta	$18                     ; 0x2018 <parse+0x2ab>
    3302: a5 12        	lda	$12                     ; 0x2012 <parse+0x2a5>
    3304: 69 00        	adc	#$0
    3306: aa           	tax
    3307: 98           	tya
    3308: 69 00        	adc	#$0
    330a: 85 12        	sta	$12                     ; 0x2012 <parse+0x2a5>
    330c: 8a           	txa
    330d: 86 17        	stx	$17                     ; 0x2017 <parse+0x2aa>
    330f: 06 17        	asl	$17                     ; 0x2017 <parse+0x2aa>
    3311: 26 12        	rol	$12                     ; 0x2012 <parse+0x2a5>
    3313: 06 17        	asl	$17                     ; 0x2017 <parse+0x2aa>
    3315: 26 12        	rol	$12                     ; 0x2012 <parse+0x2a5>
    3317: 06 17        	asl	$17                     ; 0x2017 <parse+0x2aa>
    3319: 26 12        	rol	$12                     ; 0x2012 <parse+0x2a5>
    331b: a4 12        	ldy	$12                     ; 0x2012 <parse+0x2a5>
    331d: a6 0f        	ldx	$f                      ; 0x200f <parse+0x2a2>
    331f: 78           	sei
    3320: 84 0f        	sty	$f                      ; 0x200f <parse+0x2a2>
    3322: 09 e0        	ora	#$e0
    3324: 85 19        	sta	$19                     ; 0x2019 <parse+0x2ac>
    3326: a0 23        	ldy	#$23
    3328: b1 10        	lda	($10),y                 ; 0x2010 <parse+0x2a3>
    332a: 85 1d        	sta	$1d                     ; 0x201d <parse+0x2b0>
    332c: 92 18        	sta	($18)                   ; 0x2018 <parse+0x2ab>
    332e: 86 0f        	stx	$f                      ; 0x200f <parse+0x2a2>
    3330: 58           	cli
    3331: a5 2f        	lda	$2f                     ; 0x202f <parse+0x2c2>
    3333: 18           	clc
    3334: a0 30        	ldy	#$30
    3336: 71 14        	adc	($14),y                 ; 0x2014 <parse+0x2a7>
    3338: aa           	tax
    3339: a5 27        	lda	$27                     ; 0x2027 <parse+0x2ba>
    333b: a0 01        	ldy	#$1
    333d: 71 2c        	adc	($2c),y                 ; 0x202c <parse+0x2bf>
    333f: 85 12        	sta	$12                     ; 0x2012 <parse+0x2a5>
    3341: a5 26        	lda	$26                     ; 0x2026 <parse+0x2b9>
    3343: c8           	iny
    3344: 71 2c        	adc	($2c),y                 ; 0x202c <parse+0x2bf>
    3346: a8           	tay
    3347: 18           	clc
    3348: 8a           	txa
    3349: 69 06        	adc	#$6
    334b: 85 18        	sta	$18                     ; 0x2018 <parse+0x2ab>
    334d: a5 12        	lda	$12                     ; 0x2012 <parse+0x2a5>
    334f: 69 00        	adc	#$0
    3351: aa           	tax
    3352: 98           	tya
    3353: 69 00        	adc	#$0
    3355: 85 12        	sta	$12                     ; 0x2012 <parse+0x2a5>
    3357: 8a           	txa
    3358: 86 17        	stx	$17                     ; 0x2017 <parse+0x2aa>
    335a: 06 17        	asl	$17                     ; 0x2017 <parse+0x2aa>
    335c: 26 12        	rol	$12                     ; 0x2012 <parse+0x2a5>
    335e: 06 17        	asl	$17                     ; 0x2017 <parse+0x2aa>
    3360: 26 12        	rol	$12                     ; 0x2012 <parse+0x2a5>
    3362: 06 17        	asl	$17                     ; 0x2017 <parse+0x2aa>
    3364: 26 12        	rol	$12                     ; 0x2012 <parse+0x2a5>
    3366: a4 12        	ldy	$12                     ; 0x2012 <parse+0x2a5>
    3368: a6 0f        	ldx	$f                      ; 0x200f <parse+0x2a2>
    336a: 78           	sei
    336b: 84 0f        	sty	$f                      ; 0x200f <parse+0x2a2>
    336d: 09 e0        	ora	#$e0
    336f: 85 19        	sta	$19                     ; 0x2019 <parse+0x2ac>
    3371: a5 29        	lda	$29                     ; 0x2029 <parse+0x2bc>
    3373: 92 18        	sta	($18)                   ; 0x2018 <parse+0x2ab>
    3375: 86 0f        	stx	$f                      ; 0x200f <parse+0x2a2>
    3377: 58           	cli
    3378: 18           	clc
    3379: a5 2f        	lda	$2f                     ; 0x202f <parse+0x2c2>
    337b: a0 30        	ldy	#$30
    337d: 71 14        	adc	($14),y                 ; 0x2014 <parse+0x2a7>
    337f: 85 17        	sta	$17                     ; 0x2017 <parse+0x2aa>
    3381: a5 27        	lda	$27                     ; 0x2027 <parse+0x2ba>
    3383: a0 01        	ldy	#$1
    3385: 71 2c        	adc	($2c),y                 ; 0x202c <parse+0x2bf>
    3387: 85 12        	sta	$12                     ; 0x2012 <parse+0x2a5>
    3389: a5 26        	lda	$26                     ; 0x2026 <parse+0x2b9>
    338b: c8           	iny
    338c: 71 2c        	adc	($2c),y                 ; 0x202c <parse+0x2bf>
    338e: aa           	tax
    338f: a4 25        	ldy	$25                     ; 0x2025 <parse+0x2b8>
    3391: c0 01        	cpy	#$1
    3393: 66 1b        	ror	$1b                     ; 0x201b <parse+0x2ae>
    3395: 18           	clc
    3396: a5 17        	lda	$17                     ; 0x2017 <parse+0x2aa>
    3398: 69 07        	adc	#$7
    339a: 85 17        	sta	$17                     ; 0x2017 <parse+0x2aa>
    339c: a5 12        	lda	$12                     ; 0x2012 <parse+0x2a5>
    339e: 69 00        	adc	#$0
    33a0: a8           	tay
    33a1: 8a           	txa
    33a2: 69 00        	adc	#$0
    33a4: 84 12        	sty	$12                     ; 0x2012 <parse+0x2a5>
    33a6: 06 12        	asl	$12                     ; 0x2012 <parse+0x2a5>
    33a8: 2a           	rol
    33a9: 06 12        	asl	$12                     ; 0x2012 <parse+0x2a5>
    33ab: 2a           	rol
    33ac: 06 12        	asl	$12                     ; 0x2012 <parse+0x2a5>
    33ae: 2a           	rol
    33af: a6 0f        	ldx	$f                      ; 0x200f <parse+0x2a2>
    33b1: 78           	sei
    33b2: 85 0f        	sta	$f                      ; 0x200f <parse+0x2a2>
    33b4: a5 17        	lda	$17                     ; 0x2017 <parse+0x2aa>
    33b6: 85 12        	sta	$12                     ; 0x2012 <parse+0x2a5>
    33b8: 98           	tya
    33b9: 09 e0        	ora	#$e0
    33bb: 85 13        	sta	$13                     ; 0x2013 <parse+0x2a6>
    33bd: a0 09        	ldy	#$9
    33bf: b1 10        	lda	($10),y                 ; 0x2010 <parse+0x2a3>
    33c1: 92 12        	sta	($12)                   ; 0x2012 <parse+0x2a5>
    33c3: a4 1e        	ldy	$1e                     ; 0x201e <parse+0x2b1>
    33c5: 5a           	phy
    33c6: a4 22        	ldy	$22                     ; 0x2022 <parse+0x2b5>
    33c8: c0 01        	cpy	#$1
    33ca: a5 1b        	lda	$1b                     ; 0x201b <parse+0x2ae>
    33cc: 6a           	ror
    33cd: a4 23        	ldy	$23                     ; 0x2023 <parse+0x2b6>
    33cf: c0 01        	cpy	#$1
    33d1: 7a           	ply
    33d2: 6a           	ror
    33d3: 18           	clc
    33d4: 5a           	phy
    33d5: 48           	pha
    33d6: a0 20        	ldy	#$20
    33d8: b1 10        	lda	($10),y                 ; 0x2010 <parse+0x2a3>
    33da: 85 12        	sta	$12                     ; 0x2012 <parse+0x2a5>
    33dc: 68           	pla
    33dd: 65 12        	adc	$12                     ; 0x2012 <parse+0x2a5>
    33df: 85 1e        	sta	$1e                     ; 0x201e <parse+0x2b1>
    33e1: 88           	dey
    33e2: b1 10        	lda	($10),y                 ; 0x2010 <parse+0x2a3>
    33e4: 85 12        	sta	$12                     ; 0x2012 <parse+0x2a5>
    33e6: a5 1f        	lda	$1f                     ; 0x201f <parse+0x2b2>
    33e8: 65 12        	adc	$12                     ; 0x2012 <parse+0x2a5>
    33ea: 85 1b        	sta	$1b                     ; 0x201b <parse+0x2ae>
    33ec: 88           	dey
    33ed: b1 10        	lda	($10),y                 ; 0x2010 <parse+0x2a3>
    33ef: 7a           	ply
    33f0: 85 12        	sta	$12                     ; 0x2012 <parse+0x2a5>
    33f2: 98           	tya
    33f3: 65 12        	adc	$12                     ; 0x2012 <parse+0x2a5>
    33f5: 85 1c        	sta	$1c                     ; 0x201c <parse+0x2af>
    33f7: a0 1d        	ldy	#$1d
    33f9: b1 10        	lda	($10),y                 ; 0x2010 <parse+0x2a3>
    33fb: 85 12        	sta	$12                     ; 0x2012 <parse+0x2a5>
    33fd: a5 24        	lda	$24                     ; 0x2024 <parse+0x2b7>
    33ff: 65 12        	adc	$12                     ; 0x2012 <parse+0x2a5>
    3401: 85 18        	sta	$18                     ; 0x2018 <parse+0x2ab>
    3403: 86 0f        	stx	$f                      ; 0x200f <parse+0x2a2>
    3405: 58           	cli
    3406: 18           	clc
    3407: a5 2b        	lda	$2b                     ; 0x202b <parse+0x2be>
    3409: 69 02        	adc	#$2
    340b: aa           	tax
    340c: a5 2a        	lda	$2a                     ; 0x202a <parse+0x2bd>
    340e: 69 00        	adc	#$0
    3410: a8           	tay
    3411: 5a           	phy
    3412: a0 24        	ldy	#$24
    3414: b1 10        	lda	($10),y                 ; 0x2010 <parse+0x2a3>
    3416: 69 00        	adc	#$0
    3418: 85 24        	sta	$24                     ; 0x2024 <parse+0x2b7>
    341a: a5 2e        	lda	$2e                     ; 0x202e <parse+0x2c1>
    341c: 69 00        	adc	#$0
    341e: 85 19        	sta	$19                     ; 0x2019 <parse+0x2ac>
    3420: e6 16        	inc	$16                     ; 0x2016 <parse+0x2a9>
    3422: d0 02        	bne	$3426 <parse+0x16b9>
    3424: e6 1a        	inc	$1a                     ; 0x201a <parse+0x2ad>
    3426: a5 1a        	lda	$1a                     ; 0x201a <parse+0x2ad>
    3428: a0 14        	ldy	#$14
    342a: 91 10        	sta	($10),y                 ; 0x2010 <parse+0x2a3>
    342c: a5 16        	lda	$16                     ; 0x2016 <parse+0x2a9>
    342e: c8           	iny
    342f: 91 10        	sta	($10),y                 ; 0x2010 <parse+0x2a3>
    3431: a0 08        	ldy	#$8
    3433: b1 10        	lda	($10),y                 ; 0x2010 <parse+0x2a3>
    3435: 7a           	ply
    3436: 85 12        	sta	$12                     ; 0x2012 <parse+0x2a5>
    3438: a5 12        	lda	$12                     ; 0x2012 <parse+0x2a5>
    343a: d0 03        	bne	$343f <parse+0x16d2>
    343c: 4c 00 36     	jmp	$3600 <parse+0x1893>
    343f: 5a           	phy
    3440: 4c 0b 36     	jmp	$360b <parse+0x189e>
    3443: 18           	clc
    3444: a5 2b        	lda	$2b                     ; 0x202b <parse+0x2be>
    3446: 69 04        	adc	#$4
    3448: 4c 52 27     	jmp	$2752 <parse+0x9e5>
    344b: 18           	clc
    344c: a5 2b        	lda	$2b                     ; 0x202b <parse+0x2be>
    344e: 69 07        	adc	#$7
    3450: 4c 52 27     	jmp	$2752 <parse+0x9e5>
    3453: a5 14        	lda	$14                     ; 0x2014 <parse+0x2a7>
    3455: 18           	clc
    3456: 69 2c        	adc	#$2c
    3458: 85 12        	sta	$12                     ; 0x2012 <parse+0x2a5>
    345a: a5 15        	lda	$15                     ; 0x2015 <parse+0x2a8>
    345c: 69 00        	adc	#$0
    345e: 85 13        	sta	$13                     ; 0x2013 <parse+0x2a6>
    3460: a5 2b        	lda	$2b                     ; 0x202b <parse+0x2be>
    3462: 18           	clc
    3463: a0 2c        	ldy	#$2c
    3465: 71 14        	adc	($14),y                 ; 0x2014 <parse+0x2a7>
    3467: aa           	tax
    3468: a5 2a        	lda	$2a                     ; 0x202a <parse+0x2bd>
    346a: a0 01        	ldy	#$1
    346c: 71 12        	adc	($12),y                 ; 0x2012 <parse+0x2a5>
    346e: 85 1b        	sta	$1b                     ; 0x201b <parse+0x2ae>
    3470: a0 24        	ldy	#$24
    3472: b1 10        	lda	($10),y                 ; 0x2010 <parse+0x2a3>
    3474: 85 27        	sta	$27                     ; 0x2027 <parse+0x2ba>
    3476: a0 02        	ldy	#$2
    3478: 71 12        	adc	($12),y                 ; 0x2012 <parse+0x2a5>
    347a: a8           	tay
    347b: 18           	clc
    347c: 8a           	txa
    347d: 69 02        	adc	#$2
    347f: 85 1a        	sta	$1a                     ; 0x201a <parse+0x2ad>
    3481: a5 1b        	lda	$1b                     ; 0x201b <parse+0x2ae>
    3483: 69 00        	adc	#$0
    3485: aa           	tax
    3486: 98           	tya
    3487: 69 00        	adc	#$0
    3489: 85 19        	sta	$19                     ; 0x2019 <parse+0x2ac>
    348b: 8a           	txa
    348c: 86 18        	stx	$18                     ; 0x2018 <parse+0x2ab>
    348e: 06 18        	asl	$18                     ; 0x2018 <parse+0x2ab>
    3490: 26 19        	rol	$19                     ; 0x2019 <parse+0x2ac>
    3492: 06 18        	asl	$18                     ; 0x2018 <parse+0x2ab>
    3494: 26 19        	rol	$19                     ; 0x2019 <parse+0x2ac>
    3496: 06 18        	asl	$18                     ; 0x2018 <parse+0x2ab>
    3498: 26 19        	rol	$19                     ; 0x2019 <parse+0x2ac>
    349a: a4 19        	ldy	$19                     ; 0x2019 <parse+0x2ac>
    349c: a6 0f        	ldx	$f                      ; 0x200f <parse+0x2a2>
    349e: 78           	sei
    349f: 84 0f        	sty	$f                      ; 0x200f <parse+0x2a2>
    34a1: a4 1a        	ldy	$1a                     ; 0x201a <parse+0x2ad>
    34a3: 84 18        	sty	$18                     ; 0x2018 <parse+0x2ab>
    34a5: 09 e0        	ora	#$e0
    34a7: 85 19        	sta	$19                     ; 0x2019 <parse+0x2ac>
    34a9: b2 18        	lda	($18)                   ; 0x2018 <parse+0x2ab>
    34ab: 86 0f        	stx	$f                      ; 0x200f <parse+0x2a2>
    34ad: 58           	cli
    34ae: a0 1c        	ldy	#$1c
    34b0: 91 14        	sta	($14),y                 ; 0x2014 <parse+0x2a7>
    34b2: a5 2b        	lda	$2b                     ; 0x202b <parse+0x2be>
    34b4: 18           	clc
    34b5: a0 2c        	ldy	#$2c
    34b7: 71 14        	adc	($14),y                 ; 0x2014 <parse+0x2a7>
    34b9: aa           	tax
    34ba: a5 2a        	lda	$2a                     ; 0x202a <parse+0x2bd>
    34bc: a0 01        	ldy	#$1
    34be: 71 12        	adc	($12),y                 ; 0x2012 <parse+0x2a5>
    34c0: 85 18        	sta	$18                     ; 0x2018 <parse+0x2ab>
    34c2: a5 27        	lda	$27                     ; 0x2027 <parse+0x2ba>
    34c4: c8           	iny
    34c5: 71 12        	adc	($12),y                 ; 0x2012 <parse+0x2a5>
    34c7: a8           	tay
    34c8: 18           	clc
    34c9: 8a           	txa
    34ca: 69 03        	adc	#$3
    34cc: 85 1a        	sta	$1a                     ; 0x201a <parse+0x2ad>
    34ce: a5 18        	lda	$18                     ; 0x2018 <parse+0x2ab>
    34d0: 69 00        	adc	#$0
    34d2: aa           	tax
    34d3: 98           	tya
    34d4: 69 00        	adc	#$0
    34d6: 85 19        	sta	$19                     ; 0x2019 <parse+0x2ac>
    34d8: 8a           	txa
    34d9: 86 18        	stx	$18                     ; 0x2018 <parse+0x2ab>
    34db: 06 18        	asl	$18                     ; 0x2018 <parse+0x2ab>
    34dd: 26 19        	rol	$19                     ; 0x2019 <parse+0x2ac>
    34df: 06 18        	asl	$18                     ; 0x2018 <parse+0x2ab>
    34e1: 26 19        	rol	$19                     ; 0x2019 <parse+0x2ac>
    34e3: 06 18        	asl	$18                     ; 0x2018 <parse+0x2ab>
    34e5: 26 19        	rol	$19                     ; 0x2019 <parse+0x2ac>
    34e7: a4 19        	ldy	$19                     ; 0x2019 <parse+0x2ac>
    34e9: a6 0f        	ldx	$f                      ; 0x200f <parse+0x2a2>
    34eb: 78           	sei
    34ec: 84 0f        	sty	$f                      ; 0x200f <parse+0x2a2>
    34ee: a4 1a        	ldy	$1a                     ; 0x201a <parse+0x2ad>
    34f0: 84 18        	sty	$18                     ; 0x2018 <parse+0x2ab>
    34f2: 09 e0        	ora	#$e0
    34f4: 85 19        	sta	$19                     ; 0x2019 <parse+0x2ac>
    34f6: b2 18        	lda	($18)                   ; 0x2018 <parse+0x2ab>
    34f8: 86 0f        	stx	$f                      ; 0x200f <parse+0x2a2>
    34fa: 58           	cli
    34fb: a0 1d        	ldy	#$1d
    34fd: 91 14        	sta	($14),y                 ; 0x2014 <parse+0x2a7>
    34ff: a5 2b        	lda	$2b                     ; 0x202b <parse+0x2be>
    3501: 18           	clc
    3502: a0 2c        	ldy	#$2c
    3504: 71 14        	adc	($14),y                 ; 0x2014 <parse+0x2a7>
    3506: aa           	tax
    3507: a5 2a        	lda	$2a                     ; 0x202a <parse+0x2bd>
    3509: a0 01        	ldy	#$1
    350b: 71 12        	adc	($12),y                 ; 0x2012 <parse+0x2a5>
    350d: 85 18        	sta	$18                     ; 0x2018 <parse+0x2ab>
    350f: a5 27        	lda	$27                     ; 0x2027 <parse+0x2ba>
    3511: c8           	iny
    3512: 71 12        	adc	($12),y                 ; 0x2012 <parse+0x2a5>
    3514: a8           	tay
    3515: 18           	clc
    3516: 8a           	txa
    3517: 69 04        	adc	#$4
    3519: 85 1a        	sta	$1a                     ; 0x201a <parse+0x2ad>
    351b: a5 18        	lda	$18                     ; 0x2018 <parse+0x2ab>
    351d: 69 00        	adc	#$0
    351f: aa           	tax
    3520: 98           	tya
    3521: 69 00        	adc	#$0
    3523: 85 19        	sta	$19                     ; 0x2019 <parse+0x2ac>
    3525: 8a           	txa
    3526: 86 18        	stx	$18                     ; 0x2018 <parse+0x2ab>
    3528: 06 18        	asl	$18                     ; 0x2018 <parse+0x2ab>
    352a: 26 19        	rol	$19                     ; 0x2019 <parse+0x2ac>
    352c: 06 18        	asl	$18                     ; 0x2018 <parse+0x2ab>
    352e: 26 19        	rol	$19                     ; 0x2019 <parse+0x2ac>
    3530: 06 18        	asl	$18                     ; 0x2018 <parse+0x2ab>
    3532: 26 19        	rol	$19                     ; 0x2019 <parse+0x2ac>
    3534: a4 19        	ldy	$19                     ; 0x2019 <parse+0x2ac>
    3536: a6 0f        	ldx	$f                      ; 0x200f <parse+0x2a2>
    3538: 78           	sei
    3539: 84 0f        	sty	$f                      ; 0x200f <parse+0x2a2>
    353b: a4 1a        	ldy	$1a                     ; 0x201a <parse+0x2ad>
    353d: 84 18        	sty	$18                     ; 0x2018 <parse+0x2ab>
    353f: 09 e0        	ora	#$e0
    3541: 85 19        	sta	$19                     ; 0x2019 <parse+0x2ac>
    3543: b2 18        	lda	($18)                   ; 0x2018 <parse+0x2ab>
    3545: 86 0f        	stx	$f                      ; 0x200f <parse+0x2a2>
    3547: 58           	cli
    3548: a0 1e        	ldy	#$1e
    354a: 91 14        	sta	($14),y                 ; 0x2014 <parse+0x2a7>
    354c: a5 2b        	lda	$2b                     ; 0x202b <parse+0x2be>
    354e: 18           	clc
    354f: a0 2c        	ldy	#$2c
    3551: 71 14        	adc	($14),y                 ; 0x2014 <parse+0x2a7>
    3553: aa           	tax
    3554: a5 2a        	lda	$2a                     ; 0x202a <parse+0x2bd>
    3556: a0 01        	ldy	#$1
    3558: 71 12        	adc	($12),y                 ; 0x2012 <parse+0x2a5>
    355a: 85 19        	sta	$19                     ; 0x2019 <parse+0x2ac>
    355c: a5 27        	lda	$27                     ; 0x2027 <parse+0x2ba>
    355e: c8           	iny
    355f: 71 12        	adc	($12),y                 ; 0x2012 <parse+0x2a5>
    3561: a8           	tay
    3562: 18           	clc
    3563: 8a           	txa
    3564: 69 05        	adc	#$5
    3566: 85 18        	sta	$18                     ; 0x2018 <parse+0x2ab>
    3568: a5 19        	lda	$19                     ; 0x2019 <parse+0x2ac>
    356a: 69 00        	adc	#$0
    356c: aa           	tax
    356d: 98           	tya
    356e: 69 00        	adc	#$0
    3570: 85 13        	sta	$13                     ; 0x2013 <parse+0x2a6>
    3572: 8a           	txa
    3573: 86 12        	stx	$12                     ; 0x2012 <parse+0x2a5>
    3575: 06 12        	asl	$12                     ; 0x2012 <parse+0x2a5>
    3577: 26 13        	rol	$13                     ; 0x2013 <parse+0x2a6>
    3579: 06 12        	asl	$12                     ; 0x2012 <parse+0x2a5>
    357b: 26 13        	rol	$13                     ; 0x2013 <parse+0x2a6>
    357d: 06 12        	asl	$12                     ; 0x2012 <parse+0x2a5>
    357f: 26 13        	rol	$13                     ; 0x2013 <parse+0x2a6>
    3581: a6 13        	ldx	$13                     ; 0x2013 <parse+0x2a6>
    3583: a4 0f        	ldy	$f                      ; 0x200f <parse+0x2a2>
    3585: 78           	sei
    3586: 86 0f        	stx	$f                      ; 0x200f <parse+0x2a2>
    3588: a6 18        	ldx	$18                     ; 0x2018 <parse+0x2ab>
    358a: 86 12        	stx	$12                     ; 0x2012 <parse+0x2a5>
    358c: 09 e0        	ora	#$e0
    358e: 85 13        	sta	$13                     ; 0x2013 <parse+0x2a6>
    3590: b2 12        	lda	($12)                   ; 0x2012 <parse+0x2a5>
    3592: 84 0f        	sty	$f                      ; 0x200f <parse+0x2a2>
    3594: 58           	cli
    3595: a0 1f        	ldy	#$1f
    3597: 91 14        	sta	($14),y                 ; 0x2014 <parse+0x2a7>
    3599: 18           	clc
    359a: a5 2b        	lda	$2b                     ; 0x202b <parse+0x2be>
    359c: 69 06        	adc	#$6
    359e: aa           	tax
    359f: a5 2a        	lda	$2a                     ; 0x202a <parse+0x2bd>
    35a1: 69 00        	adc	#$0
    35a3: 85 1d        	sta	$1d                     ; 0x201d <parse+0x2b0>
    35a5: a5 27        	lda	$27                     ; 0x2027 <parse+0x2ba>
    35a7: 4c 5d 27     	jmp	$275d <parse+0x9f0>
    35aa: a6 2a        	ldx	$2a                     ; 0x202a <parse+0x2bd>
    35ac: a4 2b        	ldy	$2b                     ; 0x202b <parse+0x2be>
    35ae: 86 1d        	stx	$1d                     ; 0x201d <parse+0x2b0>
    35b0: 84 1c        	sty	$1c                     ; 0x201c <parse+0x2af>
    35b2: a5 2e        	lda	$2e                     ; 0x202e <parse+0x2c1>
    35b4: 4c 70 27     	jmp	$2770 <parse+0xa03>
    35b7: a0 10        	ldy	#$10
    35b9: b1 10        	lda	($10),y                 ; 0x2010 <parse+0x2a3>
    35bb: 85 16        	sta	$16                     ; 0x2016 <parse+0x2a9>
    35bd: c8           	iny
    35be: b1 10        	lda	($10),y                 ; 0x2010 <parse+0x2a3>
    35c0: 85 17        	sta	$17                     ; 0x2017 <parse+0x2aa>
    35c2: a0 01        	ldy	#$1
    35c4: b1 16        	lda	($16),y                 ; 0x2016 <parse+0x2a9>
    35c6: 85 1a        	sta	$1a                     ; 0x201a <parse+0x2ad>
    35c8: 5a           	phy
    35c9: a0 0a        	ldy	#$a
    35cb: b1 10        	lda	($10),y                 ; 0x2010 <parse+0x2a3>
    35cd: 85 18        	sta	$18                     ; 0x2018 <parse+0x2ab>
    35cf: c8           	iny
    35d0: b1 10        	lda	($10),y                 ; 0x2010 <parse+0x2a3>
    35d2: 7a           	ply
    35d3: 85 19        	sta	$19                     ; 0x2019 <parse+0x2ac>
    35d5: b1 18        	lda	($18),y                 ; 0x2018 <parse+0x2ab>
    35d7: aa           	tax
    35d8: a5 1a        	lda	$1a                     ; 0x201a <parse+0x2ad>
    35da: 1a           	inc
    35db: d0 01        	bne	$35de <parse+0x1871>
    35dd: e8           	inx
    35de: 91 16        	sta	($16),y                 ; 0x2016 <parse+0x2a9>
    35e0: 8a           	txa
    35e1: 91 18        	sta	($18),y                 ; 0x2018 <parse+0x2ab>
    35e3: 18           	clc
    35e4: a5 2b        	lda	$2b                     ; 0x202b <parse+0x2be>
    35e6: 69 02        	adc	#$2
    35e8: aa           	tax
    35e9: a5 2a        	lda	$2a                     ; 0x202a <parse+0x2bd>
    35eb: 69 00        	adc	#$0
    35ed: 85 1d        	sta	$1d                     ; 0x201d <parse+0x2b0>
    35ef: a0 24        	ldy	#$24
    35f1: b1 10        	lda	($10),y                 ; 0x2010 <parse+0x2a3>
    35f3: 69 00        	adc	#$0
    35f5: 85 24        	sta	$24                     ; 0x2024 <parse+0x2b7>
    35f7: a5 2e        	lda	$2e                     ; 0x202e <parse+0x2c1>
    35f9: 69 00        	adc	#$0
    35fb: 86 1c        	stx	$1c                     ; 0x201c <parse+0x2af>
    35fd: 4c 70 27     	jmp	$2770 <parse+0xa03>
    3600: a5 1d        	lda	$1d                     ; 0x201d <parse+0x2b0>
    3602: 29 0f        	and	#$f
    3604: 09 90        	ora	#$90
    3606: 5a           	phy
    3607: a0 23        	ldy	#$23
    3609: 91 10        	sta	($10),y                 ; 0x2010 <parse+0x2a3>
    360b: a5 1e        	lda	$1e                     ; 0x201e <parse+0x2b1>
    360d: a0 20        	ldy	#$20
    360f: 91 10        	sta	($10),y                 ; 0x2010 <parse+0x2a3>
    3611: a5 1b        	lda	$1b                     ; 0x201b <parse+0x2ae>
    3613: 88           	dey
    3614: 91 10        	sta	($10),y                 ; 0x2010 <parse+0x2a3>
    3616: a5 1c        	lda	$1c                     ; 0x201c <parse+0x2af>
    3618: 88           	dey
    3619: 91 10        	sta	($10),y                 ; 0x2010 <parse+0x2a3>
    361b: a5 18        	lda	$18                     ; 0x2018 <parse+0x2ab>
    361d: 88           	dey
    361e: 91 10        	sta	($10),y                 ; 0x2010 <parse+0x2a3>
    3620: 7a           	ply
    3621: 86 1c        	stx	$1c                     ; 0x201c <parse+0x2af>
    3623: 84 1d        	sty	$1d                     ; 0x201d <parse+0x2b0>
    3625: a5 19        	lda	$19                     ; 0x2019 <parse+0x2ac>
    3627: 48           	pha
    3628: a0 22        	ldy	#$22
    362a: b1 10        	lda	($10),y                 ; 0x2010 <parse+0x2a3>
    362c: 85 2c        	sta	$2c                     ; 0x202c <parse+0x2bf>
    362e: 4c 6f 27     	jmp	$276f <parse+0xa02>
    3631: a0 10        	ldy	#$10
    3633: b1 10        	lda	($10),y                 ; 0x2010 <parse+0x2a3>
    3635: 85 16        	sta	$16                     ; 0x2016 <parse+0x2a9>
    3637: c8           	iny
    3638: b1 10        	lda	($10),y                 ; 0x2010 <parse+0x2a3>
    363a: 85 17        	sta	$17                     ; 0x2017 <parse+0x2aa>
    363c: a0 01        	ldy	#$1
    363e: b1 16        	lda	($16),y                 ; 0x2016 <parse+0x2a9>
    3640: 85 1a        	sta	$1a                     ; 0x201a <parse+0x2ad>
    3642: 5a           	phy
    3643: a0 0a        	ldy	#$a
    3645: b1 10        	lda	($10),y                 ; 0x2010 <parse+0x2a3>
    3647: 85 18        	sta	$18                     ; 0x2018 <parse+0x2ab>
    3649: c8           	iny
    364a: b1 10        	lda	($10),y                 ; 0x2010 <parse+0x2a3>
    364c: 7a           	ply
    364d: 85 19        	sta	$19                     ; 0x2019 <parse+0x2ac>
    364f: b1 18        	lda	($18),y                 ; 0x2018 <parse+0x2ab>
    3651: aa           	tax
    3652: a5 1a        	lda	$1a                     ; 0x201a <parse+0x2ad>
    3654: 1a           	inc
    3655: d0 01        	bne	$3658 <parse+0x18eb>
    3657: e8           	inx
    3658: 91 16        	sta	($16),y                 ; 0x2016 <parse+0x2a9>
    365a: 8a           	txa
    365b: 91 18        	sta	($18),y                 ; 0x2018 <parse+0x2ab>
    365d: a0 24        	ldy	#$24
    365f: b1 10        	lda	($10),y                 ; 0x2010 <parse+0x2a3>
    3661: 85 27        	sta	$27                     ; 0x2027 <parse+0x2ba>
    3663: a5 2e        	lda	$2e                     ; 0x202e <parse+0x2c1>
    3665: e6 2b        	inc	$2b                     ; 0x202b <parse+0x2be>
    3667: d0 09        	bne	$3672 <parse+0x1905>
    3669: e6 2a        	inc	$2a                     ; 0x202a <parse+0x2bd>
    366b: d0 05        	bne	$3672 <parse+0x1905>
    366d: e6 27        	inc	$27                     ; 0x2027 <parse+0x2ba>
    366f: d0 01        	bne	$3672 <parse+0x1905>
    3671: 1a           	inc
    3672: a6 2b        	ldx	$2b                     ; 0x202b <parse+0x2be>
    3674: 86 1c        	stx	$1c                     ; 0x201c <parse+0x2af>
    3676: a6 2a        	ldx	$2a                     ; 0x202a <parse+0x2bd>
    3678: 86 1d        	stx	$1d                     ; 0x201d <parse+0x2b0>
    367a: a6 27        	ldx	$27                     ; 0x2027 <parse+0x2ba>
    367c: 86 24        	stx	$24                     ; 0x2024 <parse+0x2b7>
    367e: 4c 70 27     	jmp	$2770 <parse+0xa03>
    3681: a5 1a        	lda	$1a                     ; 0x201a <parse+0x2ad>
    3683: a0 22        	ldy	#$22
    3685: 91 10        	sta	($10),y                 ; 0x2010 <parse+0x2a3>
    3687: a6 14        	ldx	$14                     ; 0x2014 <parse+0x2a7>
    3689: 86 2c        	stx	$2c                     ; 0x202c <parse+0x2bf>
    368b: a6 15        	ldx	$15                     ; 0x2015 <parse+0x2a8>
    368d: 86 2d        	stx	$2d                     ; 0x202d <parse+0x2c0>
    368f: c8           	iny
    3690: b1 10        	lda	($10),y                 ; 0x2010 <parse+0x2a3>
    3692: 29 8f        	and	#$8f
    3694: 91 10        	sta	($10),y                 ; 0x2010 <parse+0x2a3>
    3696: 18           	clc
    3697: a9 00        	lda	#$0
    3699: a0 08        	ldy	#$8
    369b: 91 10        	sta	($10),y                 ; 0x2010 <parse+0x2a3>
    369d: a2 7f        	ldx	#$7f
    369f: 8a           	txa
    36a0: c8           	iny
    36a1: 91 10        	sta	($10),y                 ; 0x2010 <parse+0x2a3>
    36a3: 4c 25 31     	jmp	$3125 <parse+0x13b8>

000036a6 <exit>:
    36a6: 20 14 03     	jsr	$314 <_fini>
    36a9: 80 fe        	bra	$36a9 <exit+0x3>

000036ab <_ZN12_GLOBAL__N_13putEcP6Status>:
    36ab: 85 18        	sta	$18                     ; 0x2018 <parse+0x2ab>
    36ad: a6 13        	ldx	$13                     ; 0x2013 <parse+0x2a6>
    36af: 18           	clc
    36b0: a5 12        	lda	$12                     ; 0x2012 <parse+0x2a5>
    36b2: 69 05        	adc	#$5
    36b4: a8           	tay
    36b5: a5 13        	lda	$13                     ; 0x2013 <parse+0x2a6>
    36b7: 86 15        	stx	$15                     ; 0x2015 <parse+0x2a8>
    36b9: 69 00        	adc	#$0
    36bb: 18           	clc
    36bc: 84 16        	sty	$16                     ; 0x2016 <parse+0x2a9>
    36be: a0 05        	ldy	#$5
    36c0: 85 17        	sta	$17                     ; 0x2017 <parse+0x2aa>
    36c2: b1 12        	lda	($12),y                 ; 0x2012 <parse+0x2a5>
    36c4: aa           	tax
    36c5: a5 12        	lda	$12                     ; 0x2012 <parse+0x2a5>
    36c7: 69 03        	adc	#$3
    36c9: 85 14        	sta	$14                     ; 0x2014 <parse+0x2a7>
    36cb: a5 15        	lda	$15                     ; 0x2015 <parse+0x2a8>
    36cd: 69 00        	adc	#$0
    36cf: 85 15        	sta	$15                     ; 0x2015 <parse+0x2a8>
    36d1: a0 01        	ldy	#$1
    36d3: b1 16        	lda	($16),y                 ; 0x2016 <parse+0x2a9>
    36d5: d1 14        	cmp	($14),y                 ; 0x2014 <parse+0x2a7>
    36d7: d0 11        	bne	$36ea <_ZN12_GLOBAL__N_13putEcP6Status+0x3f>
    36d9: a0 03        	ldy	#$3
    36db: 85 17        	sta	$17                     ; 0x2017 <parse+0x2aa>
    36dd: b1 12        	lda	($12),y                 ; 0x2012 <parse+0x2a5>
    36df: 85 14        	sta	$14                     ; 0x2014 <parse+0x2a7>
    36e1: 86 16        	stx	$16                     ; 0x2016 <parse+0x2a9>
    36e3: e4 14        	cpx	$14                     ; 0x2014 <parse+0x2a7>
    36e5: 90 0e        	bcc	$36f5 <_ZN12_GLOBAL__N_13putEcP6Status+0x4a>
    36e7: 4c 56 37     	jmp	$3756 <_ZN12_GLOBAL__N_13putEcP6Status+0xab>
    36ea: 86 16        	stx	$16                     ; 0x2016 <parse+0x2a9>
    36ec: d1 14        	cmp	($14),y                 ; 0x2014 <parse+0x2a7>
    36ee: 85 17        	sta	$17                     ; 0x2017 <parse+0x2aa>
    36f0: 90 03        	bcc	$36f5 <_ZN12_GLOBAL__N_13putEcP6Status+0x4a>
    36f2: 4c 56 37     	jmp	$3756 <_ZN12_GLOBAL__N_13putEcP6Status+0xab>
    36f5: a5 12        	lda	$12                     ; 0x2012 <parse+0x2a5>
    36f7: 18           	clc
    36f8: 69 0f        	adc	#$f
    36fa: 85 14        	sta	$14                     ; 0x2014 <parse+0x2a7>
    36fc: a5 13        	lda	$13                     ; 0x2013 <parse+0x2a6>
    36fe: 69 00        	adc	#$0
    3700: 85 15        	sta	$15                     ; 0x2015 <parse+0x2a8>
    3702: a0 01        	ldy	#$1
    3704: b1 14        	lda	($14),y                 ; 0x2014 <parse+0x2a7>
    3706: a2 00        	ldx	#$0
    3708: 86 14        	stx	$14                     ; 0x2014 <parse+0x2a7>
    370a: a2 00        	ldx	#$0
    370c: 86 15        	stx	$15                     ; 0x2015 <parse+0x2a8>
    370e: c5 15        	cmp	$15                     ; 0x2015 <parse+0x2a8>
    3710: d0 2d        	bne	$373f <_ZN12_GLOBAL__N_13putEcP6Status+0x94>
    3712: a0 0f        	ldy	#$f
    3714: b1 12        	lda	($12),y                 ; 0x2012 <parse+0x2a5>
    3716: c5 14        	cmp	$14                     ; 0x2014 <parse+0x2a7>
    3718: d0 25        	bne	$373f <_ZN12_GLOBAL__N_13putEcP6Status+0x94>
    371a: a5 12        	lda	$12                     ; 0x2012 <parse+0x2a5>
    371c: 18           	clc
    371d: 69 09        	adc	#$9
    371f: 85 14        	sta	$14                     ; 0x2014 <parse+0x2a7>
    3721: a5 13        	lda	$13                     ; 0x2013 <parse+0x2a6>
    3723: 69 00        	adc	#$0
    3725: a0 09        	ldy	#$9
    3727: 85 15        	sta	$15                     ; 0x2015 <parse+0x2a8>
    3729: 18           	clc
    372a: a5 16        	lda	$16                     ; 0x2016 <parse+0x2a9>
    372c: 71 12        	adc	($12),y                 ; 0x2012 <parse+0x2a5>
    372e: aa           	tax
    372f: a0 01        	ldy	#$1
    3731: a5 17        	lda	$17                     ; 0x2017 <parse+0x2aa>
    3733: 71 14        	adc	($14),y                 ; 0x2014 <parse+0x2a7>
    3735: 86 14        	stx	$14                     ; 0x2014 <parse+0x2a7>
    3737: 85 15        	sta	$15                     ; 0x2015 <parse+0x2a8>
    3739: a5 18        	lda	$18                     ; 0x2018 <parse+0x2ab>
    373b: 92 14        	sta	($14)                   ; 0x2014 <parse+0x2a7>
    373d: 80 17        	bra	$3756 <_ZN12_GLOBAL__N_13putEcP6Status+0xab>
    373f: a6 12        	ldx	$12                     ; 0x2012 <parse+0x2a5>
    3741: 86 91        	stx	$91                     ; 0x2091 <parse+0x324>
    3743: a6 13        	ldx	$13                     ; 0x2013 <parse+0x2a6>
    3745: 86 92        	stx	$92                     ; 0x2092 <parse+0x325>
    3747: a2 00        	ldx	#$0
    3749: a5 18        	lda	$18                     ; 0x2018 <parse+0x2ab>
    374b: 20 63 44     	jsr	$4463 <putchar>
    374e: a6 91        	ldx	$91                     ; 0x2091 <parse+0x324>
    3750: 86 12        	stx	$12                     ; 0x2012 <parse+0x2a5>
    3752: a6 92        	ldx	$92                     ; 0x2092 <parse+0x325>
    3754: 86 13        	stx	$13                     ; 0x2013 <parse+0x2a6>
    3756: a0 05        	ldy	#$5
    3758: a5 12        	lda	$12                     ; 0x2012 <parse+0x2a5>
    375a: 18           	clc
    375b: 69 05        	adc	#$5
    375d: 85 14        	sta	$14                     ; 0x2014 <parse+0x2a7>
    375f: a5 13        	lda	$13                     ; 0x2013 <parse+0x2a6>
    3761: 69 00        	adc	#$0
    3763: 85 15        	sta	$15                     ; 0x2015 <parse+0x2a8>
    3765: b1 12        	lda	($12),y                 ; 0x2012 <parse+0x2a5>
    3767: aa           	tax
    3768: a0 01        	ldy	#$1
    376a: b1 14        	lda	($14),y                 ; 0x2014 <parse+0x2a7>
    376c: e8           	inx
    376d: d0 01        	bne	$3770 <_ZN12_GLOBAL__N_13putEcP6Status+0xc5>
    376f: 1a           	inc
    3770: 85 16        	sta	$16                     ; 0x2016 <parse+0x2a9>
    3772: 8a           	txa
    3773: a0 05        	ldy	#$5
    3775: 91 12        	sta	($12),y                 ; 0x2012 <parse+0x2a5>
    3777: a0 01        	ldy	#$1
    3779: a5 16        	lda	$16                     ; 0x2016 <parse+0x2a9>
    377b: 91 14        	sta	($14),y                 ; 0x2014 <parse+0x2a7>
    377d: 60           	rts

0000377e <_ZN12_GLOBAL__N_112print_stringEPKcP6Status>:
    377e: a6 12        	ldx	$12                     ; 0x2012 <parse+0x2a5>
    3780: 86 89        	stx	$89                     ; 0x2089 <parse+0x31c>
    3782: a6 13        	ldx	$13                     ; 0x2013 <parse+0x2a6>
    3784: 86 8a        	stx	$8a                     ; 0x208a <parse+0x31d>
    3786: a6 14        	ldx	$14                     ; 0x2014 <parse+0x2a7>
    3788: 86 8b        	stx	$8b                     ; 0x208b <parse+0x31e>
    378a: a6 15        	ldx	$15                     ; 0x2015 <parse+0x2a8>
    378c: 86 8c        	stx	$8c                     ; 0x208c <parse+0x31f>
    378e: a5 8b        	lda	$8b                     ; 0x208b <parse+0x31e>
    3790: 18           	clc
    3791: 69 0d        	adc	#$d
    3793: 85 12        	sta	$12                     ; 0x2012 <parse+0x2a5>
    3795: a5 8c        	lda	$8c                     ; 0x208c <parse+0x31f>
    3797: 69 00        	adc	#$0
    3799: 85 13        	sta	$13                     ; 0x2013 <parse+0x2a6>
    379b: a0 01        	ldy	#$1
    379d: b1 12        	lda	($12),y                 ; 0x2012 <parse+0x2a5>
    379f: 30 16        	bmi	$37b7 <_ZN12_GLOBAL__N_112print_stringEPKcP6Status+0x39>
    37a1: a0 0d        	ldy	#$d
    37a3: 85 12        	sta	$12                     ; 0x2012 <parse+0x2a5>
    37a5: b1 8b        	lda	($8b),y                 ; 0x208b <parse+0x31e>
    37a7: a6 12        	ldx	$12                     ; 0x2012 <parse+0x2a5>
    37a9: 86 90        	stx	$90                     ; 0x2090 <parse+0x323>
    37ab: d0 0f        	bne	$37bc <_ZN12_GLOBAL__N_112print_stringEPKcP6Status+0x3e>
    37ad: aa           	tax
    37ae: d0 0c        	bne	$37bc <_ZN12_GLOBAL__N_112print_stringEPKcP6Status+0x3e>
    37b0: 64 8d        	stz	$8d                     ; 0x208d <parse+0x320>
    37b2: a2 00        	ldx	#$0
    37b4: 4c 85 38     	jmp	$3885 <_ZN12_GLOBAL__N_112print_stringEPKcP6Status+0x107>
    37b7: a9 ff        	lda	#$ff
    37b9: aa           	tax
    37ba: 86 90        	stx	$90                     ; 0x2090 <parse+0x323>
    37bc: 85 8d        	sta	$8d                     ; 0x208d <parse+0x320>
    37be: 64 12        	stz	$12                     ; 0x2012 <parse+0x2a5>
    37c0: a4 89        	ldy	$89                     ; 0x2089 <parse+0x31c>
    37c2: a6 8a        	ldx	$8a                     ; 0x208a <parse+0x31d>
    37c4: 86 16        	stx	$16                     ; 0x2016 <parse+0x2a9>
    37c6: 64 13        	stz	$13                     ; 0x2013 <parse+0x2a6>
    37c8: 98           	tya
    37c9: 18           	clc
    37ca: 65 12        	adc	$12                     ; 0x2012 <parse+0x2a5>
    37cc: 85 14        	sta	$14                     ; 0x2014 <parse+0x2a7>
    37ce: a5 8a        	lda	$8a                     ; 0x208a <parse+0x31d>
    37d0: 65 13        	adc	$13                     ; 0x2013 <parse+0x2a6>
    37d2: 85 15        	sta	$15                     ; 0x2015 <parse+0x2a8>
    37d4: b2 14        	lda	($14)                   ; 0x2014 <parse+0x2a7>
    37d6: d0 03        	bne	$37db <_ZN12_GLOBAL__N_112print_stringEPKcP6Status+0x5d>
    37d8: 4c 7f 38     	jmp	$387f <_ZN12_GLOBAL__N_112print_stringEPKcP6Status+0x101>
    37db: e6 12        	inc	$12                     ; 0x2012 <parse+0x2a5>
    37dd: d0 02        	bne	$37e1 <_ZN12_GLOBAL__N_112print_stringEPKcP6Status+0x63>
    37df: e6 13        	inc	$13                     ; 0x2013 <parse+0x2a6>
    37e1: a6 90        	ldx	$90                     ; 0x2090 <parse+0x323>
    37e3: e4 13        	cpx	$13                     ; 0x2013 <parse+0x2a6>
    37e5: d0 e1        	bne	$37c8 <_ZN12_GLOBAL__N_112print_stringEPKcP6Status+0x4a>
    37e7: a6 8d        	ldx	$8d                     ; 0x208d <parse+0x320>
    37e9: e4 12        	cpx	$12                     ; 0x2012 <parse+0x2a5>
    37eb: d0 db        	bne	$37c8 <_ZN12_GLOBAL__N_112print_stringEPKcP6Status+0x4a>
    37ed: a0 01        	ldy	#$1
    37ef: b1 8b        	lda	($8b),y                 ; 0x208b <parse+0x31e>
    37f1: 29 01        	and	#$1
    37f3: f0 03        	beq	$37f8 <_ZN12_GLOBAL__N_112print_stringEPKcP6Status+0x7a>
    37f5: 4c 50 38     	jmp	$3850 <_ZN12_GLOBAL__N_112print_stringEPKcP6Status+0xd2>
    37f8: a5 8b        	lda	$8b                     ; 0x208b <parse+0x31e>
    37fa: 18           	clc
    37fb: 69 0b        	adc	#$b
    37fd: 85 14        	sta	$14                     ; 0x2014 <parse+0x2a7>
    37ff: a5 8c        	lda	$8c                     ; 0x208c <parse+0x31f>
    3801: 69 00        	adc	#$0
    3803: 85 15        	sta	$15                     ; 0x2015 <parse+0x2a8>
    3805: a0 0b        	ldy	#$b
    3807: b1 8b        	lda	($8b),y                 ; 0x208b <parse+0x31e>
    3809: 85 13        	sta	$13                     ; 0x2013 <parse+0x2a6>
    380b: a0 01        	ldy	#$1
    380d: b1 14        	lda	($14),y                 ; 0x2014 <parse+0x2a7>
    380f: 85 12        	sta	$12                     ; 0x2012 <parse+0x2a5>
    3811: a6 90        	ldx	$90                     ; 0x2090 <parse+0x323>
    3813: e4 12        	cpx	$12                     ; 0x2012 <parse+0x2a5>
    3815: d0 08        	bne	$381f <_ZN12_GLOBAL__N_112print_stringEPKcP6Status+0xa1>
    3817: a6 8d        	ldx	$8d                     ; 0x208d <parse+0x320>
    3819: e4 13        	cpx	$13                     ; 0x2013 <parse+0x2a6>
    381b: 90 06        	bcc	$3823 <_ZN12_GLOBAL__N_112print_stringEPKcP6Status+0xa5>
    381d: 80 31        	bra	$3850 <_ZN12_GLOBAL__N_112print_stringEPKcP6Status+0xd2>
    381f: e4 12        	cpx	$12                     ; 0x2012 <parse+0x2a5>
    3821: b0 2d        	bcs	$3850 <_ZN12_GLOBAL__N_112print_stringEPKcP6Status+0xd2>
    3823: 38           	sec
    3824: a5 8d        	lda	$8d                     ; 0x208d <parse+0x320>
    3826: e5 13        	sbc	$13                     ; 0x2013 <parse+0x2a6>
    3828: a8           	tay
    3829: a5 90        	lda	$90                     ; 0x2090 <parse+0x323>
    382b: e5 12        	sbc	$12                     ; 0x2012 <parse+0x2a5>
    382d: 85 8f        	sta	$8f                     ; 0x208f <parse+0x322>
    382f: a6 8b        	ldx	$8b                     ; 0x208b <parse+0x31e>
    3831: 86 12        	stx	$12                     ; 0x2012 <parse+0x2a5>
    3833: a6 8c        	ldx	$8c                     ; 0x208c <parse+0x31f>
    3835: 86 13        	stx	$13                     ; 0x2013 <parse+0x2a6>
    3837: 84 8e        	sty	$8e                     ; 0x208e <parse+0x321>
    3839: a9 20        	lda	#$20
    383b: 20 ab 36     	jsr	$36ab <_ZN12_GLOBAL__N_13putEcP6Status>
    383e: a6 8f        	ldx	$8f                     ; 0x208f <parse+0x322>
    3840: e6 8e        	inc	$8e                     ; 0x208e <parse+0x321>
    3842: d0 01        	bne	$3845 <_ZN12_GLOBAL__N_112print_stringEPKcP6Status+0xc7>
    3844: e8           	inx
    3845: 86 8f        	stx	$8f                     ; 0x208f <parse+0x322>
    3847: a4 8e        	ldy	$8e                     ; 0x208e <parse+0x321>
    3849: 8a           	txa
    384a: d0 e3        	bne	$382f <_ZN12_GLOBAL__N_112print_stringEPKcP6Status+0xb1>
    384c: a5 8e        	lda	$8e                     ; 0x208e <parse+0x321>
    384e: d0 df        	bne	$382f <_ZN12_GLOBAL__N_112print_stringEPKcP6Status+0xb1>
    3850: a4 90        	ldy	$90                     ; 0x2090 <parse+0x323>
    3852: d0 04        	bne	$3858 <_ZN12_GLOBAL__N_112print_stringEPKcP6Status+0xda>
    3854: a5 8d        	lda	$8d                     ; 0x208d <parse+0x320>
    3856: f0 26        	beq	$387e <_ZN12_GLOBAL__N_112print_stringEPKcP6Status+0x100>
    3858: a2 ff        	ldx	#$ff
    385a: c6 8d        	dec	$8d                     ; 0x208d <parse+0x320>
    385c: e4 8d        	cpx	$8d                     ; 0x208d <parse+0x320>
    385e: d0 01        	bne	$3861 <_ZN12_GLOBAL__N_112print_stringEPKcP6Status+0xe3>
    3860: 88           	dey
    3861: 84 8e        	sty	$8e                     ; 0x208e <parse+0x321>
    3863: b2 89        	lda	($89)                   ; 0x2089 <parse+0x31c>
    3865: e6 89        	inc	$89                     ; 0x2089 <parse+0x31c>
    3867: d0 02        	bne	$386b <_ZN12_GLOBAL__N_112print_stringEPKcP6Status+0xed>
    3869: e6 8a        	inc	$8a                     ; 0x208a <parse+0x31d>
    386b: a6 8b        	ldx	$8b                     ; 0x208b <parse+0x31e>
    386d: 86 12        	stx	$12                     ; 0x2012 <parse+0x2a5>
    386f: a6 8c        	ldx	$8c                     ; 0x208c <parse+0x31f>
    3871: 86 13        	stx	$13                     ; 0x2013 <parse+0x2a6>
    3873: 20 ab 36     	jsr	$36ab <_ZN12_GLOBAL__N_13putEcP6Status>
    3876: a4 8e        	ldy	$8e                     ; 0x208e <parse+0x321>
    3878: d0 de        	bne	$3858 <_ZN12_GLOBAL__N_112print_stringEPKcP6Status+0xda>
    387a: a5 8d        	lda	$8d                     ; 0x208d <parse+0x320>
    387c: d0 da        	bne	$3858 <_ZN12_GLOBAL__N_112print_stringEPKcP6Status+0xda>
    387e: 60           	rts
    387f: a6 12        	ldx	$12                     ; 0x2012 <parse+0x2a5>
    3881: 86 8d        	stx	$8d                     ; 0x208d <parse+0x320>
    3883: a6 13        	ldx	$13                     ; 0x2013 <parse+0x2a6>
    3885: 86 90        	stx	$90                     ; 0x2090 <parse+0x323>
    3887: 4c ed 37     	jmp	$37ed <_ZN12_GLOBAL__N_112print_stringEPKcP6Status+0x6f>

0000388a <printf>:
    388a: a6 12        	ldx	$12                     ; 0x2012 <parse+0x2a5>
    388c: 86 3e        	stx	$3e                     ; 0x203e <parse+0x2d1>
    388e: a6 13        	ldx	$13                     ; 0x2013 <parse+0x2a6>
    3890: 86 3f        	stx	$3f                     ; 0x203f <parse+0x2d2>
    3892: 18           	clc
    3893: a6 10        	ldx	$10                     ; 0x2010 <parse+0x2a3>
    3895: a4 11        	ldy	$11                     ; 0x2011 <parse+0x2a4>
    3897: 86 7f        	stx	$7f                     ; 0x207f <parse+0x312>
    3899: 84 80        	sty	$80                     ; 0x2080 <parse+0x313>
    389b: a6 7f        	ldx	$7f                     ; 0x207f <parse+0x312>
    389d: a4 80        	ldy	$80                     ; 0x2080 <parse+0x313>
    389f: 86 6a        	stx	$6a                     ; 0x206a <parse+0x2fd>
    38a1: 84 6b        	sty	$6b                     ; 0x206b <parse+0x2fe>
    38a3: a2 ff        	ldx	#$ff
    38a5: 86 6f        	stx	$6f                     ; 0x206f <parse+0x302>
    38a7: 86 70        	stx	$70                     ; 0x2070 <parse+0x303>
    38a9: 64 71        	stz	$71                     ; 0x2071 <parse+0x304>
    38ab: 64 72        	stz	$72                     ; 0x2072 <parse+0x305>
    38ad: e8           	inx
    38ae: 86 40        	stx	$40                     ; 0x2040 <parse+0x2d3>
    38b0: a2 00        	ldx	#$0
    38b2: 86 41        	stx	$41                     ; 0x2041 <parse+0x2d4>
    38b4: a6 40        	ldx	$40                     ; 0x2040 <parse+0x2d3>
    38b6: a4 41        	ldy	$41                     ; 0x2041 <parse+0x2d4>
    38b8: 86 75        	stx	$75                     ; 0x2075 <parse+0x308>
    38ba: 84 76        	sty	$76                     ; 0x2076 <parse+0x309>
    38bc: a2 02        	ldx	#$2
    38be: 86 7b        	stx	$7b                     ; 0x207b <parse+0x30e>
    38c0: 64 7c        	stz	$7c                     ; 0x207c <parse+0x30f>
    38c2: a6 6a        	ldx	$6a                     ; 0x206a <parse+0x2fd>
    38c4: a4 6b        	ldy	$6b                     ; 0x206b <parse+0x2fe>
    38c6: 86 7d        	stx	$7d                     ; 0x207d <parse+0x310>
    38c8: 84 7e        	sty	$7e                     ; 0x207e <parse+0x311>
    38ca: a2 61        	ldx	#$61
    38cc: a0 00        	ldy	#$0
    38ce: 86 12        	stx	$12                     ; 0x2012 <parse+0x2a5>
    38d0: 84 13        	sty	$13                     ; 0x2013 <parse+0x2a6>
    38d2: a0 01        	ldy	#$1
    38d4: a9 48        	lda	#$48
    38d6: 18           	clc
    38d7: 69 02        	adc	#$2
    38d9: 85 87        	sta	$87                     ; 0x2087 <parse+0x31a>
    38db: a9 00        	lda	#$0
    38dd: 69 00        	adc	#$0
    38df: 85 88        	sta	$88                     ; 0x2088 <parse+0x31b>
    38e1: e6 12        	inc	$12                     ; 0x2012 <parse+0x2a5>
    38e3: d0 02        	bne	$38e7 <printf+0x5d>
    38e5: e6 13        	inc	$13                     ; 0x2013 <parse+0x2a6>
    38e7: a6 12        	ldx	$12                     ; 0x2012 <parse+0x2a5>
    38e9: 86 83        	stx	$83                     ; 0x2083 <parse+0x316>
    38eb: a6 13        	ldx	$13                     ; 0x2013 <parse+0x2a6>
    38ed: 86 84        	stx	$84                     ; 0x2084 <parse+0x317>
    38ef: a6 3e        	ldx	$3e                     ; 0x203e <parse+0x2d1>
    38f1: 86 42        	stx	$42                     ; 0x2042 <parse+0x2d5>
    38f3: a6 3f        	ldx	$3f                     ; 0x203f <parse+0x2d2>
    38f5: 86 43        	stx	$43                     ; 0x2043 <parse+0x2d6>
    38f7: b2 3e        	lda	($3e)                   ; 0x203e <parse+0x2d1>
    38f9: c9 25        	cmp	#$25
    38fb: f0 23        	beq	$3920 <printf+0x96>
    38fd: a2 00        	ldx	#$0
    38ff: a8           	tay
    3900: d0 03        	bne	$3905 <printf+0x7b>
    3902: 4c 62 44     	jmp	$4462 <printf+0xbd8>
    3905: 20 63 44     	jsr	$4463 <putchar>
    3908: a0 01        	ldy	#$1
    390a: e6 42        	inc	$42                     ; 0x2042 <parse+0x2d5>
    390c: d0 02        	bne	$3910 <printf+0x86>
    390e: e6 43        	inc	$43                     ; 0x2043 <parse+0x2d6>
    3910: e6 71        	inc	$71                     ; 0x2071 <parse+0x304>
    3912: d0 02        	bne	$3916 <printf+0x8c>
    3914: e6 72        	inc	$72                     ; 0x2072 <parse+0x305>
    3916: a6 42        	ldx	$42                     ; 0x2042 <parse+0x2d5>
    3918: 86 3e        	stx	$3e                     ; 0x203e <parse+0x2d1>
    391a: a6 43        	ldx	$43                     ; 0x2043 <parse+0x2d6>
    391c: 86 3f        	stx	$3f                     ; 0x203f <parse+0x2d2>
    391e: 80 cf        	bra	$38ef <printf+0x65>
    3920: a6 3e        	ldx	$3e                     ; 0x203e <parse+0x2d1>
    3922: 86 12        	stx	$12                     ; 0x2012 <parse+0x2a5>
    3924: a6 3f        	ldx	$3f                     ; 0x203f <parse+0x2d2>
    3926: 86 13        	stx	$13                     ; 0x2013 <parse+0x2a6>
    3928: e6 12        	inc	$12                     ; 0x2012 <parse+0x2a5>
    392a: d0 02        	bne	$392e <printf+0xa4>
    392c: e6 13        	inc	$13                     ; 0x2013 <parse+0x2a6>
    392e: b1 42        	lda	($42),y                 ; 0x2042 <parse+0x2d5>
    3930: c9 25        	cmp	#$25
    3932: d0 16        	bne	$394a <printf+0xc0>
    3934: a4 71        	ldy	$71                     ; 0x2071 <parse+0x304>
    3936: a5 72        	lda	$72                     ; 0x2072 <parse+0x305>
    3938: c5 70        	cmp	$70                     ; 0x2070 <parse+0x303>
    393a: f0 03        	beq	$393f <printf+0xb5>
    393c: 4c 50 3a     	jmp	$3a50 <printf+0x1c6>
    393f: a6 6f        	ldx	$6f                     ; 0x206f <parse+0x302>
    3941: 86 12        	stx	$12                     ; 0x2012 <parse+0x2a5>
    3943: 84 13        	sty	$13                     ; 0x2013 <parse+0x2a6>
    3945: c4 12        	cpy	$12                     ; 0x2012 <parse+0x2a5>
    3947: 4c 54 3a     	jmp	$3a54 <printf+0x1ca>
    394a: 64 6d        	stz	$6d                     ; 0x206d <parse+0x300>
    394c: 64 6e        	stz	$6e                     ; 0x206e <parse+0x301>
    394e: 64 6c        	stz	$6c                     ; 0x206c <parse+0x2ff>
    3950: 64 77        	stz	$77                     ; 0x2077 <parse+0x30a>
    3952: 64 78        	stz	$78                     ; 0x2078 <parse+0x30b>
    3954: a2 ff        	ldx	#$ff
    3956: 86 79        	stx	$79                     ; 0x2079 <parse+0x30c>
    3958: 86 7a        	stx	$7a                     ; 0x207a <parse+0x30d>
    395a: 64 3d        	stz	$3d                     ; 0x203d <parse+0x2d0>
    395c: 80 33        	bra	$3991 <printf+0x107>
    395e: a2 02        	ldx	#$2
    3960: 80 15        	bra	$3977 <printf+0xed>
    3962: e0 20        	cpx	#$20
    3964: f0 15        	beq	$397b <printf+0xf1>
    3966: 86 15        	stx	$15                     ; 0x2015 <parse+0x2a8>
    3968: e0 23        	cpx	#$23
    396a: f0 03        	beq	$396f <printf+0xe5>
    396c: 4c ee 39     	jmp	$39ee <printf+0x164>
    396f: a5 3d        	lda	$3d                     ; 0x203d <parse+0x2d0>
    3971: a2 04        	ldx	#$4
    3973: 80 02        	bra	$3977 <printf+0xed>
    3975: a2 10        	ldx	#$10
    3977: 86 14        	stx	$14                     ; 0x2014 <parse+0x2a7>
    3979: 80 06        	bra	$3981 <printf+0xf7>
    397b: a2 08        	ldx	#$8
    397d: 86 14        	stx	$14                     ; 0x2014 <parse+0x2a7>
    397f: a5 3d        	lda	$3d                     ; 0x203d <parse+0x2d0>
    3981: 05 14        	ora	$14                     ; 0x2014 <parse+0x2a7>
    3983: 85 3d        	sta	$3d                     ; 0x203d <parse+0x2d0>
    3985: 85 6d        	sta	$6d                     ; 0x206d <parse+0x300>
    3987: a2 00        	ldx	#$0
    3989: 86 6e        	stx	$6e                     ; 0x206e <parse+0x301>
    398b: e6 12        	inc	$12                     ; 0x2012 <parse+0x2a5>
    398d: d0 02        	bne	$3991 <printf+0x107>
    398f: e6 13        	inc	$13                     ; 0x2013 <parse+0x2a6>
    3991: b2 12        	lda	($12)                   ; 0x2012 <parse+0x2a5>
    3993: aa           	tax
    3994: 18           	clc
    3995: 69 d6        	adc	#$d6
    3997: c9 07        	cmp	#$7
    3999: b0 c7        	bcs	$3962 <printf+0xd8>
    399b: 86 15        	stx	$15                     ; 0x2015 <parse+0x2a8>
    399d: 0a           	asl
    399e: aa           	tax
    399f: a0 01        	ldy	#$1
    39a1: 84 14        	sty	$14                     ; 0x2014 <parse+0x2a7>
    39a3: a5 3d        	lda	$3d                     ; 0x203d <parse+0x2d0>
    39a5: 7c a2 62     	jmp	($62a2,x)               ; 0x62a2 <__set_v+0x23>
    39a8: a5 7d        	lda	$7d                     ; 0x207d <parse+0x310>
    39aa: a6 7e        	ldx	$7e                     ; 0x207e <parse+0x311>
    39ac: 85 16        	sta	$16                     ; 0x2016 <parse+0x2a9>
    39ae: 86 17        	stx	$17                     ; 0x2017 <parse+0x2aa>
    39b0: 18           	clc
    39b1: 69 02        	adc	#$2
    39b3: a8           	tay
    39b4: 8a           	txa
    39b5: 69 00        	adc	#$0
    39b7: 84 7d        	sty	$7d                     ; 0x207d <parse+0x310>
    39b9: 85 7e        	sta	$7e                     ; 0x207e <parse+0x311>
    39bb: b2 16        	lda	($16)                   ; 0x2016 <parse+0x2a9>
    39bd: 85 15        	sta	$15                     ; 0x2015 <parse+0x2a8>
    39bf: a0 01        	ldy	#$1
    39c1: b1 16        	lda	($16),y                 ; 0x2016 <parse+0x2a9>
    39c3: 85 14        	sta	$14                     ; 0x2014 <parse+0x2a7>
    39c5: 10 15        	bpl	$39dc <printf+0x152>
    39c7: a5 3d        	lda	$3d                     ; 0x203d <parse+0x2d0>
    39c9: 09 01        	ora	#$1
    39cb: 85 3d        	sta	$3d                     ; 0x203d <parse+0x2d0>
    39cd: 85 6d        	sta	$6d                     ; 0x206d <parse+0x300>
    39cf: a2 00        	ldx	#$0
    39d1: 86 6e        	stx	$6e                     ; 0x206e <parse+0x301>
    39d3: 8a           	txa
    39d4: 38           	sec
    39d5: e5 15        	sbc	$15                     ; 0x2015 <parse+0x2a8>
    39d7: 85 15        	sta	$15                     ; 0x2015 <parse+0x2a8>
    39d9: 8a           	txa
    39da: e5 14        	sbc	$14                     ; 0x2014 <parse+0x2a7>
    39dc: a6 15        	ldx	$15                     ; 0x2015 <parse+0x2a8>
    39de: 86 77        	stx	$77                     ; 0x2077 <parse+0x30a>
    39e0: 85 78        	sta	$78                     ; 0x2078 <parse+0x30b>
    39e2: e6 12        	inc	$12                     ; 0x2012 <parse+0x2a5>
    39e4: f0 03        	beq	$39e9 <printf+0x15f>
    39e6: 4c a4 3a     	jmp	$3aa4 <printf+0x21a>
    39e9: e6 13        	inc	$13                     ; 0x2013 <parse+0x2a6>
    39eb: 4c a4 3a     	jmp	$3aa4 <printf+0x21a>
    39ee: a5 15        	lda	$15                     ; 0x2015 <parse+0x2a8>
    39f0: 18           	clc
    39f1: 69 d0        	adc	#$d0
    39f3: c9 0a        	cmp	#$a
    39f5: 90 03        	bcc	$39fa <printf+0x170>
    39f7: 4c 96 3a     	jmp	$3a96 <printf+0x20c>
    39fa: a6 15        	ldx	$15                     ; 0x2015 <parse+0x2a8>
    39fc: 86 14        	stx	$14                     ; 0x2014 <parse+0x2a7>
    39fe: 64 16        	stz	$16                     ; 0x2016 <parse+0x2a9>
    3a00: 64 15        	stz	$15                     ; 0x2015 <parse+0x2a8>
    3a02: 64 17        	stz	$17                     ; 0x2017 <parse+0x2aa>
    3a04: a0 01        	ldy	#$1
    3a06: 06 16        	asl	$16                     ; 0x2016 <parse+0x2a9>
    3a08: 26 17        	rol	$17                     ; 0x2017 <parse+0x2aa>
    3a0a: a5 16        	lda	$16                     ; 0x2016 <parse+0x2a9>
    3a0c: 0a           	asl
    3a0d: aa           	tax
    3a0e: a5 17        	lda	$17                     ; 0x2017 <parse+0x2aa>
    3a10: 2a           	rol
    3a11: 86 18        	stx	$18                     ; 0x2018 <parse+0x2ab>
    3a13: 06 18        	asl	$18                     ; 0x2018 <parse+0x2ab>
    3a15: 2a           	rol
    3a16: aa           	tax
    3a17: a5 18        	lda	$18                     ; 0x2018 <parse+0x2ab>
    3a19: 18           	clc
    3a1a: 65 16        	adc	$16                     ; 0x2016 <parse+0x2a9>
    3a1c: 85 16        	sta	$16                     ; 0x2016 <parse+0x2a9>
    3a1e: 8a           	txa
    3a1f: 65 17        	adc	$17                     ; 0x2017 <parse+0x2aa>
    3a21: 85 17        	sta	$17                     ; 0x2017 <parse+0x2aa>
    3a23: a5 16        	lda	$16                     ; 0x2016 <parse+0x2a9>
    3a25: 18           	clc
    3a26: 65 14        	adc	$14                     ; 0x2014 <parse+0x2a7>
    3a28: 85 14        	sta	$14                     ; 0x2014 <parse+0x2a7>
    3a2a: a5 17        	lda	$17                     ; 0x2017 <parse+0x2aa>
    3a2c: 65 15        	adc	$15                     ; 0x2015 <parse+0x2a8>
    3a2e: aa           	tax
    3a2f: 18           	clc
    3a30: a5 14        	lda	$14                     ; 0x2014 <parse+0x2a7>
    3a32: 69 d0        	adc	#$d0
    3a34: 85 16        	sta	$16                     ; 0x2016 <parse+0x2a9>
    3a36: 8a           	txa
    3a37: 69 ff        	adc	#$ff
    3a39: 85 17        	sta	$17                     ; 0x2017 <parse+0x2aa>
    3a3b: b1 12        	lda	($12),y                 ; 0x2012 <parse+0x2a5>
    3a3d: 85 14        	sta	$14                     ; 0x2014 <parse+0x2a7>
    3a3f: 18           	clc
    3a40: 69 d0        	adc	#$d0
    3a42: e6 12        	inc	$12                     ; 0x2012 <parse+0x2a5>
    3a44: d0 02        	bne	$3a48 <printf+0x1be>
    3a46: e6 13        	inc	$13                     ; 0x2013 <parse+0x2a6>
    3a48: c9 0a        	cmp	#$a
    3a4a: 64 15        	stz	$15                     ; 0x2015 <parse+0x2a8>
    3a4c: 90 b8        	bcc	$3a06 <printf+0x17c>
    3a4e: 80 4c        	bra	$3a9c <printf+0x212>
    3a50: 84 13        	sty	$13                     ; 0x2013 <parse+0x2a6>
    3a52: c5 70        	cmp	$70                     ; 0x2070 <parse+0x303>
    3a54: a0 01        	ldy	#$1
    3a56: b0 28        	bcs	$3a80 <printf+0x1f6>
    3a58: a6 7c        	ldx	$7c                     ; 0x207c <parse+0x30f>
    3a5a: e4 41        	cpx	$41                     ; 0x2041 <parse+0x2d4>
    3a5c: d0 19        	bne	$3a77 <printf+0x1ed>
    3a5e: a6 7b        	ldx	$7b                     ; 0x207b <parse+0x30e>
    3a60: e4 40        	cpx	$40                     ; 0x2040 <parse+0x2d3>
    3a62: d0 13        	bne	$3a77 <printf+0x1ed>
    3a64: 18           	clc
    3a65: aa           	tax
    3a66: a5 13        	lda	$13                     ; 0x2013 <parse+0x2a6>
    3a68: 65 75        	adc	$75                     ; 0x2075 <parse+0x308>
    3a6a: 85 12        	sta	$12                     ; 0x2012 <parse+0x2a5>
    3a6c: 8a           	txa
    3a6d: 65 76        	adc	$76                     ; 0x2076 <parse+0x309>
    3a6f: 85 13        	sta	$13                     ; 0x2013 <parse+0x2a6>
    3a71: a9 25        	lda	#$25
    3a73: 92 12        	sta	($12)                   ; 0x2012 <parse+0x2a5>
    3a75: 80 09        	bra	$3a80 <printf+0x1f6>
    3a77: a2 00        	ldx	#$0
    3a79: a9 25        	lda	#$25
    3a7b: 20 63 44     	jsr	$4463 <putchar>
    3a7e: a0 01        	ldy	#$1
    3a80: e6 71        	inc	$71                     ; 0x2071 <parse+0x304>
    3a82: d0 02        	bne	$3a86 <printf+0x1fc>
    3a84: e6 72        	inc	$72                     ; 0x2072 <parse+0x305>
    3a86: a5 42        	lda	$42                     ; 0x2042 <parse+0x2d5>
    3a88: 18           	clc
    3a89: 69 02        	adc	#$2
    3a8b: 85 3e        	sta	$3e                     ; 0x203e <parse+0x2d1>
    3a8d: a5 43        	lda	$43                     ; 0x2043 <parse+0x2d6>
    3a8f: 69 00        	adc	#$0
    3a91: 85 3f        	sta	$3f                     ; 0x203f <parse+0x2d2>
    3a93: 4c ef 38     	jmp	$38ef <printf+0x65>
    3a96: 64 16        	stz	$16                     ; 0x2016 <parse+0x2a9>
    3a98: 64 17        	stz	$17                     ; 0x2017 <parse+0x2aa>
    3a9a: a0 01        	ldy	#$1
    3a9c: a6 16        	ldx	$16                     ; 0x2016 <parse+0x2a9>
    3a9e: 86 77        	stx	$77                     ; 0x2077 <parse+0x30a>
    3aa0: a5 17        	lda	$17                     ; 0x2017 <parse+0x2aa>
    3aa2: 85 78        	sta	$78                     ; 0x2078 <parse+0x30b>
    3aa4: 86 46        	stx	$46                     ; 0x2046 <parse+0x2d9>
    3aa6: 85 44        	sta	$44                     ; 0x2044 <parse+0x2d7>
    3aa8: b2 12        	lda	($12)                   ; 0x2012 <parse+0x2a5>
    3aaa: a2 ff        	ldx	#$ff
    3aac: c9 2e        	cmp	#$2e
    3aae: d0 39        	bne	$3ae9 <printf+0x25f>
    3ab0: b1 12        	lda	($12),y                 ; 0x2012 <parse+0x2a5>
    3ab2: c9 2a        	cmp	#$2a
    3ab4: d0 38        	bne	$3aee <printf+0x264>
    3ab6: a5 7d        	lda	$7d                     ; 0x207d <parse+0x310>
    3ab8: a6 7e        	ldx	$7e                     ; 0x207e <parse+0x311>
    3aba: 85 14        	sta	$14                     ; 0x2014 <parse+0x2a7>
    3abc: 86 15        	stx	$15                     ; 0x2015 <parse+0x2a8>
    3abe: 18           	clc
    3abf: 69 02        	adc	#$2
    3ac1: 85 16        	sta	$16                     ; 0x2016 <parse+0x2a9>
    3ac3: 8a           	txa
    3ac4: 69 00        	adc	#$0
    3ac6: a6 16        	ldx	$16                     ; 0x2016 <parse+0x2a9>
    3ac8: 86 7d        	stx	$7d                     ; 0x207d <parse+0x310>
    3aca: 85 7e        	sta	$7e                     ; 0x207e <parse+0x311>
    3acc: a5 12        	lda	$12                     ; 0x2012 <parse+0x2a5>
    3ace: 18           	clc
    3acf: 69 02        	adc	#$2
    3ad1: 85 12        	sta	$12                     ; 0x2012 <parse+0x2a5>
    3ad3: a5 13        	lda	$13                     ; 0x2013 <parse+0x2a6>
    3ad5: 69 00        	adc	#$0
    3ad7: 85 13        	sta	$13                     ; 0x2013 <parse+0x2a6>
    3ad9: b2 14        	lda	($14)                   ; 0x2014 <parse+0x2a7>
    3adb: aa           	tax
    3adc: b1 14        	lda	($14),y                 ; 0x2014 <parse+0x2a7>
    3ade: 86 18        	stx	$18                     ; 0x2018 <parse+0x2ab>
    3ae0: 86 79        	stx	$79                     ; 0x2079 <parse+0x30c>
    3ae2: 85 19        	sta	$19                     ; 0x2019 <parse+0x2ac>
    3ae4: 85 7a        	sta	$7a                     ; 0x207a <parse+0x30d>
    3ae6: 4c 99 3b     	jmp	$3b99 <printf+0x30f>
    3ae9: 86 18        	stx	$18                     ; 0x2018 <parse+0x2ab>
    3aeb: 4c a9 3b     	jmp	$3ba9 <printf+0x31f>
    3aee: 85 17        	sta	$17                     ; 0x2017 <parse+0x2aa>
    3af0: 18           	clc
    3af1: 69 d0        	adc	#$d0
    3af3: c9 0a        	cmp	#$a
    3af5: 90 03        	bcc	$3afa <printf+0x270>
    3af7: 4c 8b 3b     	jmp	$3b8b <printf+0x301>
    3afa: 64 16        	stz	$16                     ; 0x2016 <parse+0x2a9>
    3afc: a2 01        	ldx	#$1
    3afe: 64 18        	stz	$18                     ; 0x2018 <parse+0x2ab>
    3b00: 64 19        	stz	$19                     ; 0x2019 <parse+0x2ac>
    3b02: a0 01        	ldy	#$1
    3b04: 64 1a        	stz	$1a                     ; 0x201a <parse+0x2ad>
    3b06: 5a           	phy
    3b07: a4 1a        	ldy	$1a                     ; 0x201a <parse+0x2ad>
    3b09: 84 14        	sty	$14                     ; 0x2014 <parse+0x2a7>
    3b0b: 86 15        	stx	$15                     ; 0x2015 <parse+0x2a8>
    3b0d: 06 18        	asl	$18                     ; 0x2018 <parse+0x2ab>
    3b0f: 26 19        	rol	$19                     ; 0x2019 <parse+0x2ac>
    3b11: a5 18        	lda	$18                     ; 0x2018 <parse+0x2ab>
    3b13: 0a           	asl
    3b14: 85 1d        	sta	$1d                     ; 0x201d <parse+0x2b0>
    3b16: a5 19        	lda	$19                     ; 0x2019 <parse+0x2ac>
    3b18: 2a           	rol
    3b19: 06 1d        	asl	$1d                     ; 0x201d <parse+0x2b0>
    3b1b: 2a           	rol
    3b1c: 85 1e        	sta	$1e                     ; 0x201e <parse+0x2b1>
    3b1e: a5 1d        	lda	$1d                     ; 0x201d <parse+0x2b0>
    3b20: 18           	clc
    3b21: 65 18        	adc	$18                     ; 0x2018 <parse+0x2ab>
    3b23: 85 18        	sta	$18                     ; 0x2018 <parse+0x2ab>
    3b25: a5 1e        	lda	$1e                     ; 0x201e <parse+0x2b1>
    3b27: 65 19        	adc	$19                     ; 0x2019 <parse+0x2ac>
    3b29: 85 19        	sta	$19                     ; 0x2019 <parse+0x2ac>
    3b2b: a5 18        	lda	$18                     ; 0x2018 <parse+0x2ab>
    3b2d: 18           	clc
    3b2e: 65 17        	adc	$17                     ; 0x2017 <parse+0x2aa>
    3b30: 85 17        	sta	$17                     ; 0x2017 <parse+0x2aa>
    3b32: a5 19        	lda	$19                     ; 0x2019 <parse+0x2ac>
    3b34: 65 16        	adc	$16                     ; 0x2016 <parse+0x2a9>
    3b36: 85 16        	sta	$16                     ; 0x2016 <parse+0x2a9>
    3b38: 18           	clc
    3b39: a5 17        	lda	$17                     ; 0x2017 <parse+0x2aa>
    3b3b: 69 d0        	adc	#$d0
    3b3d: 85 18        	sta	$18                     ; 0x2018 <parse+0x2ab>
    3b3f: a5 16        	lda	$16                     ; 0x2016 <parse+0x2a9>
    3b41: 69 ff        	adc	#$ff
    3b43: 85 19        	sta	$19                     ; 0x2019 <parse+0x2ac>
    3b45: e8           	inx
    3b46: d0 02        	bne	$3b4a <printf+0x2c0>
    3b48: e6 1a        	inc	$1a                     ; 0x201a <parse+0x2ad>
    3b4a: a5 12        	lda	$12                     ; 0x2012 <parse+0x2a5>
    3b4c: 18           	clc
    3b4d: 65 15        	adc	$15                     ; 0x2015 <parse+0x2a8>
    3b4f: 85 1d        	sta	$1d                     ; 0x201d <parse+0x2b0>
    3b51: a5 13        	lda	$13                     ; 0x2013 <parse+0x2a6>
    3b53: 65 14        	adc	$14                     ; 0x2014 <parse+0x2a7>
    3b55: a4 1d        	ldy	$1d                     ; 0x201d <parse+0x2b0>
    3b57: 84 16        	sty	$16                     ; 0x2016 <parse+0x2a9>
    3b59: 7a           	ply
    3b5a: 85 17        	sta	$17                     ; 0x2017 <parse+0x2aa>
    3b5c: b1 16        	lda	($16),y                 ; 0x2016 <parse+0x2a9>
    3b5e: 85 17        	sta	$17                     ; 0x2017 <parse+0x2aa>
    3b60: 18           	clc
    3b61: 69 d0        	adc	#$d0
    3b63: c9 0a        	cmp	#$a
    3b65: 64 16        	stz	$16                     ; 0x2016 <parse+0x2a9>
    3b67: b0 03        	bcs	$3b6c <printf+0x2e2>
    3b69: 4c 06 3b     	jmp	$3b06 <printf+0x27c>
    3b6c: a5 12        	lda	$12                     ; 0x2012 <parse+0x2a5>
    3b6e: 18           	clc
    3b6f: 65 15        	adc	$15                     ; 0x2015 <parse+0x2a8>
    3b71: 85 12        	sta	$12                     ; 0x2012 <parse+0x2a5>
    3b73: a5 13        	lda	$13                     ; 0x2013 <parse+0x2a6>
    3b75: 65 14        	adc	$14                     ; 0x2014 <parse+0x2a7>
    3b77: 85 13        	sta	$13                     ; 0x2013 <parse+0x2a6>
    3b79: e6 12        	inc	$12                     ; 0x2012 <parse+0x2a5>
    3b7b: d0 02        	bne	$3b7f <printf+0x2f5>
    3b7d: e6 13        	inc	$13                     ; 0x2013 <parse+0x2a6>
    3b7f: a6 18        	ldx	$18                     ; 0x2018 <parse+0x2ab>
    3b81: 86 79        	stx	$79                     ; 0x2079 <parse+0x30c>
    3b83: a6 19        	ldx	$19                     ; 0x2019 <parse+0x2ac>
    3b85: 86 7a        	stx	$7a                     ; 0x207a <parse+0x30d>
    3b87: a0 01        	ldy	#$1
    3b89: 80 0e        	bra	$3b99 <printf+0x30f>
    3b8b: e6 12        	inc	$12                     ; 0x2012 <parse+0x2a5>
    3b8d: d0 02        	bne	$3b91 <printf+0x307>
    3b8f: e6 13        	inc	$13                     ; 0x2013 <parse+0x2a6>
    3b91: 64 18        	stz	$18                     ; 0x2018 <parse+0x2ab>
    3b93: 64 79        	stz	$79                     ; 0x2079 <parse+0x30c>
    3b95: 64 7a        	stz	$7a                     ; 0x207a <parse+0x30d>
    3b97: 64 19        	stz	$19                     ; 0x2019 <parse+0x2ac>
    3b99: a5 3d        	lda	$3d                     ; 0x203d <parse+0x2d0>
    3b9b: 29 ef        	and	#$ef
    3b9d: 85 3d        	sta	$3d                     ; 0x203d <parse+0x2d0>
    3b9f: 85 6d        	sta	$6d                     ; 0x206d <parse+0x300>
    3ba1: a2 00        	ldx	#$0
    3ba3: 86 6e        	stx	$6e                     ; 0x206e <parse+0x301>
    3ba5: b2 12        	lda	($12)                   ; 0x2012 <parse+0x2a5>
    3ba7: a6 19        	ldx	$19                     ; 0x2019 <parse+0x2ac>
    3ba9: 86 15        	stx	$15                     ; 0x2015 <parse+0x2a8>
    3bab: a6 12        	ldx	$12                     ; 0x2012 <parse+0x2a5>
    3bad: 86 3e        	stx	$3e                     ; 0x203e <parse+0x2d1>
    3baf: a6 13        	ldx	$13                     ; 0x2013 <parse+0x2a6>
    3bb1: 86 3f        	stx	$3f                     ; 0x203f <parse+0x2d2>
    3bb3: e6 3e        	inc	$3e                     ; 0x203e <parse+0x2d1>
    3bb5: d0 02        	bne	$3bb9 <printf+0x32f>
    3bb7: e6 3f        	inc	$3f                     ; 0x203f <parse+0x2d2>
    3bb9: 85 14        	sta	$14                     ; 0x2014 <parse+0x2a7>
    3bbb: 38           	sec
    3bbc: e9 6c        	sbc	#$6c
    3bbe: 50 02        	bvc	$3bc2 <printf+0x338>
    3bc0: 49 80        	eor	#$80
    3bc2: aa           	tax
    3bc3: 10 1d        	bpl	$3be2 <printf+0x358>
    3bc5: a5 14        	lda	$14                     ; 0x2014 <parse+0x2a7>
    3bc7: c9 4c        	cmp	#$4c
    3bc9: f0 27        	beq	$3bf2 <printf+0x368>
    3bcb: c9 68        	cmp	#$68
    3bcd: d0 03        	bne	$3bd2 <printf+0x348>
    3bcf: 4c 59 3c     	jmp	$3c59 <printf+0x3cf>
    3bd2: a2 08        	ldx	#$8
    3bd4: c9 6a        	cmp	#$6a
    3bd6: d0 2e        	bne	$3c06 <printf+0x37c>
    3bd8: a5 3e        	lda	$3e                     ; 0x203e <parse+0x2d1>
    3bda: 85 12        	sta	$12                     ; 0x2012 <parse+0x2a5>
    3bdc: a5 3f        	lda	$3f                     ; 0x203f <parse+0x2d2>
    3bde: 85 13        	sta	$13                     ; 0x2013 <parse+0x2a6>
    3be0: 80 43        	bra	$3c25 <printf+0x39b>
    3be2: a6 14        	ldx	$14                     ; 0x2014 <parse+0x2a7>
    3be4: e0 6c        	cpx	#$6c
    3be6: f0 23        	beq	$3c0b <printf+0x381>
    3be8: e0 74        	cpx	#$74
    3bea: f0 12        	beq	$3bfe <printf+0x374>
    3bec: e0 7a        	cpx	#$7a
    3bee: f0 0e        	beq	$3bfe <printf+0x374>
    3bf0: 80 14        	bra	$3c06 <printf+0x37c>
    3bf2: a5 3d        	lda	$3d                     ; 0x203d <parse+0x2d0>
    3bf4: 09 40        	ora	#$40
    3bf6: 85 3d        	sta	$3d                     ; 0x203d <parse+0x2d0>
    3bf8: 85 6d        	sta	$6d                     ; 0x206d <parse+0x300>
    3bfa: a2 00        	ldx	#$0
    3bfc: 86 6e        	stx	$6e                     ; 0x206e <parse+0x301>
    3bfe: a6 3e        	ldx	$3e                     ; 0x203e <parse+0x2d1>
    3c00: 86 12        	stx	$12                     ; 0x2012 <parse+0x2a5>
    3c02: a6 3f        	ldx	$3f                     ; 0x203f <parse+0x2d2>
    3c04: 86 13        	stx	$13                     ; 0x2013 <parse+0x2a6>
    3c06: a2 02        	ldx	#$2
    3c08: 8a           	txa
    3c09: 80 1c        	bra	$3c27 <printf+0x39d>
    3c0b: b1 12        	lda	($12),y                 ; 0x2012 <parse+0x2a5>
    3c0d: a2 04        	ldx	#$4
    3c0f: c9 6c        	cmp	#$6c
    3c11: f0 03        	beq	$3c16 <printf+0x38c>
    3c13: 4c 68 3f     	jmp	$3f68 <printf+0x6de>
    3c16: a5 12        	lda	$12                     ; 0x2012 <parse+0x2a5>
    3c18: 18           	clc
    3c19: 69 02        	adc	#$2
    3c1b: 85 12        	sta	$12                     ; 0x2012 <parse+0x2a5>
    3c1d: a5 13        	lda	$13                     ; 0x2013 <parse+0x2a6>
    3c1f: 69 00        	adc	#$0
    3c21: 85 13        	sta	$13                     ; 0x2013 <parse+0x2a6>
    3c23: a2 08        	ldx	#$8
    3c25: a9 08        	lda	#$8
    3c27: 85 82        	sta	$82                     ; 0x2082 <parse+0x315>
    3c29: b2 12        	lda	($12)                   ; 0x2012 <parse+0x2a5>
    3c2b: 5a           	phy
    3c2c: a4 12        	ldy	$12                     ; 0x2012 <parse+0x2a5>
    3c2e: 84 3e        	sty	$3e                     ; 0x203e <parse+0x2d1>
    3c30: a4 13        	ldy	$13                     ; 0x2013 <parse+0x2a6>
    3c32: 84 3f        	sty	$3f                     ; 0x203f <parse+0x2d2>
    3c34: 7a           	ply
    3c35: 86 40        	stx	$40                     ; 0x2040 <parse+0x2d3>
    3c37: aa           	tax
    3c38: 18           	clc
    3c39: 69 9d        	adc	#$9d
    3c3b: c9 16        	cmp	#$16
    3c3d: b0 39        	bcs	$3c78 <printf+0x3ee>
    3c3f: 0a           	asl
    3c40: aa           	tax
    3c41: 7c b0 62     	jmp	($62b0,x)               ; 0x62b0 <__set_v+0x31>
    3c44: a6 15        	ldx	$15                     ; 0x2015 <parse+0x2a8>
    3c46: 86 85        	stx	$85                     ; 0x2085 <parse+0x318>
    3c48: a6 18        	ldx	$18                     ; 0x2018 <parse+0x2ab>
    3c4a: 86 86        	stx	$86                     ; 0x2086 <parse+0x319>
    3c4c: a0 0a        	ldy	#$a
    3c4e: a2 0a        	ldx	#$a
    3c50: 86 81        	stx	$81                     ; 0x2081 <parse+0x314>
    3c52: 84 6c        	sty	$6c                     ; 0x206c <parse+0x2ff>
    3c54: 64 47        	stz	$47                     ; 0x2047 <parse+0x2da>
    3c56: 4c 78 3d     	jmp	$3d78 <printf+0x4ee>
    3c59: b1 12        	lda	($12),y                 ; 0x2012 <parse+0x2a5>
    3c5b: a2 02        	ldx	#$2
    3c5d: c9 68        	cmp	#$68
    3c5f: f0 03        	beq	$3c64 <printf+0x3da>
    3c61: 4c 6e 3f     	jmp	$3f6e <printf+0x6e4>
    3c64: a5 12        	lda	$12                     ; 0x2012 <parse+0x2a5>
    3c66: 18           	clc
    3c67: 69 02        	adc	#$2
    3c69: 85 12        	sta	$12                     ; 0x2012 <parse+0x2a5>
    3c6b: a5 13        	lda	$13                     ; 0x2013 <parse+0x2a6>
    3c6d: 69 00        	adc	#$0
    3c6f: 85 13        	sta	$13                     ; 0x2013 <parse+0x2a6>
    3c71: a2 01        	ldx	#$1
    3c73: 86 82        	stx	$82                     ; 0x2082 <parse+0x315>
    3c75: e8           	inx
    3c76: 80 b1        	bra	$3c29 <printf+0x39f>
    3c78: e0 58        	cpx	#$58
    3c7a: f0 03        	beq	$3c7f <printf+0x3f5>
    3c7c: 4c 1c 44     	jmp	$441c <printf+0xb92>
    3c7f: a6 15        	ldx	$15                     ; 0x2015 <parse+0x2a8>
    3c81: 86 85        	stx	$85                     ; 0x2085 <parse+0x318>
    3c83: a6 18        	ldx	$18                     ; 0x2018 <parse+0x2ab>
    3c85: 86 86        	stx	$86                     ; 0x2086 <parse+0x319>
    3c87: a2 10        	ldx	#$10
    3c89: 86 6c        	stx	$6c                     ; 0x206c <parse+0x2ff>
    3c8b: a9 00        	lda	#$0
    3c8d: 09 01        	ora	#$1
    3c8f: a6 3d        	ldx	$3d                     ; 0x203d <parse+0x2d0>
    3c91: 80 29        	bra	$3cbc <printf+0x432>
    3c93: a6 15        	ldx	$15                     ; 0x2015 <parse+0x2a8>
    3c95: 86 85        	stx	$85                     ; 0x2085 <parse+0x318>
    3c97: a6 18        	ldx	$18                     ; 0x2018 <parse+0x2ab>
    3c99: 86 86        	stx	$86                     ; 0x2086 <parse+0x319>
    3c9b: a2 10        	ldx	#$10
    3c9d: 86 6c        	stx	$6c                     ; 0x206c <parse+0x2ff>
    3c9f: a5 3d        	lda	$3d                     ; 0x203d <parse+0x2d0>
    3ca1: 09 84        	ora	#$84
    3ca3: 80 10        	bra	$3cb5 <printf+0x42b>
    3ca5: a6 15        	ldx	$15                     ; 0x2015 <parse+0x2a8>
    3ca7: 86 85        	stx	$85                     ; 0x2085 <parse+0x318>
    3ca9: a6 18        	ldx	$18                     ; 0x2018 <parse+0x2ab>
    3cab: 86 86        	stx	$86                     ; 0x2086 <parse+0x319>
    3cad: a2 10        	ldx	#$10
    3caf: 86 6c        	stx	$6c                     ; 0x206c <parse+0x2ff>
    3cb1: a5 3d        	lda	$3d                     ; 0x203d <parse+0x2d0>
    3cb3: 09 80        	ora	#$80
    3cb5: aa           	tax
    3cb6: a9 00        	lda	#$0
    3cb8: 09 01        	ora	#$1
    3cba: 86 3d        	stx	$3d                     ; 0x203d <parse+0x2d0>
    3cbc: 86 6d        	stx	$6d                     ; 0x206d <parse+0x300>
    3cbe: 85 47        	sta	$47                     ; 0x2047 <parse+0x2da>
    3cc0: 85 6e        	sta	$6e                     ; 0x206e <parse+0x301>
    3cc2: a2 10        	ldx	#$10
    3cc4: 86 81        	stx	$81                     ; 0x2081 <parse+0x314>
    3cc6: 4c 78 3d     	jmp	$3d78 <printf+0x4ee>
    3cc9: a5 7d        	lda	$7d                     ; 0x207d <parse+0x310>
    3ccb: a6 7e        	ldx	$7e                     ; 0x207e <parse+0x311>
    3ccd: 85 12        	sta	$12                     ; 0x2012 <parse+0x2a5>
    3ccf: 86 13        	stx	$13                     ; 0x2013 <parse+0x2a6>
    3cd1: 18           	clc
    3cd2: 69 02        	adc	#$2
    3cd4: 85 14        	sta	$14                     ; 0x2014 <parse+0x2a7>
    3cd6: 8a           	txa
    3cd7: 69 00        	adc	#$0
    3cd9: a6 14        	ldx	$14                     ; 0x2014 <parse+0x2a7>
    3cdb: 86 7d        	stx	$7d                     ; 0x207d <parse+0x310>
    3cdd: 85 7e        	sta	$7e                     ; 0x207e <parse+0x311>
    3cdf: b2 12        	lda	($12)                   ; 0x2012 <parse+0x2a5>
    3ce1: aa           	tax
    3ce2: b1 12        	lda	($12),y                 ; 0x2012 <parse+0x2a5>
    3ce4: 86 12        	stx	$12                     ; 0x2012 <parse+0x2a5>
    3ce6: 85 13        	sta	$13                     ; 0x2013 <parse+0x2a6>
    3ce8: a5 71        	lda	$71                     ; 0x2071 <parse+0x304>
    3cea: a6 72        	ldx	$72                     ; 0x2072 <parse+0x305>
    3cec: 92 12        	sta	($12)                   ; 0x2012 <parse+0x2a5>
    3cee: 8a           	txa
    3cef: 91 12        	sta	($12),y                 ; 0x2012 <parse+0x2a5>
    3cf1: 4c 51 3d     	jmp	$3d51 <printf+0x4c7>
    3cf4: a5 7d        	lda	$7d                     ; 0x207d <parse+0x310>
    3cf6: a6 7e        	ldx	$7e                     ; 0x207e <parse+0x311>
    3cf8: 85 12        	sta	$12                     ; 0x2012 <parse+0x2a5>
    3cfa: 86 13        	stx	$13                     ; 0x2013 <parse+0x2a6>
    3cfc: 18           	clc
    3cfd: 69 02        	adc	#$2
    3cff: 85 14        	sta	$14                     ; 0x2014 <parse+0x2a7>
    3d01: 8a           	txa
    3d02: 69 00        	adc	#$0
    3d04: a6 14        	ldx	$14                     ; 0x2014 <parse+0x2a7>
    3d06: 86 7d        	stx	$7d                     ; 0x207d <parse+0x310>
    3d08: 85 7e        	sta	$7e                     ; 0x207e <parse+0x311>
    3d0a: b2 12        	lda	($12)                   ; 0x2012 <parse+0x2a5>
    3d0c: aa           	tax
    3d0d: b1 12        	lda	($12),y                 ; 0x2012 <parse+0x2a5>
    3d0f: 86 12        	stx	$12                     ; 0x2012 <parse+0x2a5>
    3d11: 85 13        	sta	$13                     ; 0x2013 <parse+0x2a6>
    3d13: 80 2f        	bra	$3d44 <printf+0x4ba>
    3d15: a6 15        	ldx	$15                     ; 0x2015 <parse+0x2a8>
    3d17: 86 85        	stx	$85                     ; 0x2085 <parse+0x318>
    3d19: a6 18        	ldx	$18                     ; 0x2018 <parse+0x2ab>
    3d1b: 86 86        	stx	$86                     ; 0x2086 <parse+0x319>
    3d1d: a0 08        	ldy	#$8
    3d1f: a2 08        	ldx	#$8
    3d21: 80 45        	bra	$3d68 <printf+0x4de>
    3d23: a5 7d        	lda	$7d                     ; 0x207d <parse+0x310>
    3d25: a6 7e        	ldx	$7e                     ; 0x207e <parse+0x311>
    3d27: 85 12        	sta	$12                     ; 0x2012 <parse+0x2a5>
    3d29: 86 13        	stx	$13                     ; 0x2013 <parse+0x2a6>
    3d2b: 18           	clc
    3d2c: 69 02        	adc	#$2
    3d2e: a8           	tay
    3d2f: 8a           	txa
    3d30: 69 00        	adc	#$0
    3d32: 84 7d        	sty	$7d                     ; 0x207d <parse+0x310>
    3d34: 85 7e        	sta	$7e                     ; 0x207e <parse+0x311>
    3d36: b2 12        	lda	($12)                   ; 0x2012 <parse+0x2a5>
    3d38: 85 5f        	sta	$5f                     ; 0x205f <parse+0x2f2>
    3d3a: 64 60        	stz	$60                     ; 0x2060 <parse+0x2f3>
    3d3c: a2 5f        	ldx	#$5f
    3d3e: 86 12        	stx	$12                     ; 0x2012 <parse+0x2a5>
    3d40: a2 00        	ldx	#$0
    3d42: 86 13        	stx	$13                     ; 0x2013 <parse+0x2a6>
    3d44: a2 6c        	ldx	#$6c
    3d46: 86 14        	stx	$14                     ; 0x2014 <parse+0x2a7>
    3d48: a2 00        	ldx	#$0
    3d4a: 86 15        	stx	$15                     ; 0x2015 <parse+0x2a8>
    3d4c: 20 7e 37     	jsr	$377e <_ZN12_GLOBAL__N_112print_stringEPKcP6Status>
    3d4f: a0 01        	ldy	#$1
    3d51: a2 00        	ldx	#$0
    3d53: 86 40        	stx	$40                     ; 0x2040 <parse+0x2d3>
    3d55: a2 00        	ldx	#$0
    3d57: 86 41        	stx	$41                     ; 0x2041 <parse+0x2d4>
    3d59: 4c 04 44     	jmp	$4404 <printf+0xb7a>
    3d5c: a6 15        	ldx	$15                     ; 0x2015 <parse+0x2a8>
    3d5e: 86 85        	stx	$85                     ; 0x2085 <parse+0x318>
    3d60: a6 18        	ldx	$18                     ; 0x2018 <parse+0x2ab>
    3d62: 86 86        	stx	$86                     ; 0x2086 <parse+0x319>
    3d64: a0 0a        	ldy	#$a
    3d66: a2 0a        	ldx	#$a
    3d68: 86 81        	stx	$81                     ; 0x2081 <parse+0x314>
    3d6a: 84 6c        	sty	$6c                     ; 0x206c <parse+0x2ff>
    3d6c: a9 00        	lda	#$0
    3d6e: 09 01        	ora	#$1
    3d70: a6 3d        	ldx	$3d                     ; 0x203d <parse+0x2d0>
    3d72: 86 6d        	stx	$6d                     ; 0x206d <parse+0x300>
    3d74: 85 47        	sta	$47                     ; 0x2047 <parse+0x2da>
    3d76: 85 6e        	sta	$6e                     ; 0x206e <parse+0x301>
    3d78: a5 82        	lda	$82                     ; 0x2082 <parse+0x315>
    3d7a: 85 61        	sta	$61                     ; 0x2061 <parse+0x2f4>
    3d7c: a4 7d        	ldy	$7d                     ; 0x207d <parse+0x310>
    3d7e: a6 7e        	ldx	$7e                     ; 0x207e <parse+0x311>
    3d80: 86 45        	stx	$45                     ; 0x2045 <parse+0x2d8>
    3d82: 84 14        	sty	$14                     ; 0x2014 <parse+0x2a7>
    3d84: 84 3c        	sty	$3c                     ; 0x203c <parse+0x2cf>
    3d86: 86 15        	stx	$15                     ; 0x2015 <parse+0x2a8>
    3d88: a6 83        	ldx	$83                     ; 0x2083 <parse+0x316>
    3d8a: 86 12        	stx	$12                     ; 0x2012 <parse+0x2a5>
    3d8c: a6 84        	ldx	$84                     ; 0x2084 <parse+0x317>
    3d8e: 86 13        	stx	$13                     ; 0x2013 <parse+0x2a6>
    3d90: a2 00        	ldx	#$0
    3d92: 85 41        	sta	$41                     ; 0x2041 <parse+0x2d4>
    3d94: 20 33 48     	jsr	$4833 <memcpy>
    3d97: 18           	clc
    3d98: a5 3c        	lda	$3c                     ; 0x203c <parse+0x2cf>
    3d9a: 65 40        	adc	$40                     ; 0x2040 <parse+0x2d3>
    3d9c: aa           	tax
    3d9d: a5 45        	lda	$45                     ; 0x2045 <parse+0x2d8>
    3d9f: 69 00        	adc	#$0
    3da1: 86 7d        	stx	$7d                     ; 0x207d <parse+0x310>
    3da3: 85 7e        	sta	$7e                     ; 0x207e <parse+0x311>
    3da5: a5 47        	lda	$47                     ; 0x2047 <parse+0x2da>
    3da7: 29 01        	and	#$1
    3da9: b8           	clv
    3daa: f0 03        	beq	$3daf <printf+0x525>
    3dac: 4c 03 3e     	jmp	$3e03 <printf+0x579>
    3daf: a6 41        	ldx	$41                     ; 0x2041 <parse+0x2d4>
    3db1: b5 61        	lda	$61,x                   ; 0x2061 <parse+0x2f4>
    3db3: aa           	tax
    3db4: a0 01        	ldy	#$1
    3db6: a5 44        	lda	$44                     ; 0x2044 <parse+0x2d7>
    3db8: 85 1a        	sta	$1a                     ; 0x201a <parse+0x2ad>
    3dba: a5 86        	lda	$86                     ; 0x2086 <parse+0x319>
    3dbc: 85 44        	sta	$44                     ; 0x2044 <parse+0x2d7>
    3dbe: a9 00        	lda	#$0
    3dc0: 85 40        	sta	$40                     ; 0x2040 <parse+0x2d3>
    3dc2: a9 00        	lda	#$0
    3dc4: 85 41        	sta	$41                     ; 0x2041 <parse+0x2d4>
    3dc6: a5 85        	lda	$85                     ; 0x2085 <parse+0x318>
    3dc8: 85 45        	sta	$45                     ; 0x2045 <parse+0x2d8>
    3dca: 8a           	txa
    3dcb: 10 4c        	bpl	$3e19 <printf+0x58f>
    3dcd: a2 00        	ldx	#$0
    3dcf: 64 12        	stz	$12                     ; 0x2012 <parse+0x2a5>
    3dd1: a9 00        	lda	#$0
    3dd3: 38           	sec
    3dd4: f5 62        	sbc	$62,x                   ; 0x2062 <parse+0x2f5>
    3dd6: a0 00        	ldy	#$0
    3dd8: b0 02        	bcs	$3ddc <printf+0x552>
    3dda: a0 01        	ldy	#$1
    3ddc: 38           	sec
    3ddd: e5 12        	sbc	$12                     ; 0x2012 <parse+0x2a5>
    3ddf: 85 13        	sta	$13                     ; 0x2013 <parse+0x2a6>
    3de1: 64 12        	stz	$12                     ; 0x2012 <parse+0x2a5>
    3de3: b0 04        	bcs	$3de9 <printf+0x55f>
    3de5: a9 01        	lda	#$1
    3de7: 85 12        	sta	$12                     ; 0x2012 <parse+0x2a5>
    3de9: 98           	tya
    3dea: 05 12        	ora	$12                     ; 0x2012 <parse+0x2a5>
    3dec: 85 12        	sta	$12                     ; 0x2012 <parse+0x2a5>
    3dee: a5 13        	lda	$13                     ; 0x2013 <parse+0x2a6>
    3df0: 9d 62 00     	sta	$62,x                   ; 0x62 <__rc31+0x33>
    3df3: e8           	inx
    3df4: 86 13        	stx	$13                     ; 0x2013 <parse+0x2a6>
    3df6: a4 82        	ldy	$82                     ; 0x2082 <parse+0x315>
    3df8: c4 13        	cpy	$13                     ; 0x2013 <parse+0x2a6>
    3dfa: d0 d5        	bne	$3dd1 <printf+0x547>
    3dfc: 2c 7f 62     	bit	$627f                   ; 0x627f <__set_v>
    3dff: a0 01        	ldy	#$1
    3e01: 80 16        	bra	$3e19 <printf+0x58f>
    3e03: a0 01        	ldy	#$1
    3e05: a6 44        	ldx	$44                     ; 0x2044 <parse+0x2d7>
    3e07: 86 1a        	stx	$1a                     ; 0x201a <parse+0x2ad>
    3e09: a6 86        	ldx	$86                     ; 0x2086 <parse+0x319>
    3e0b: 86 44        	stx	$44                     ; 0x2044 <parse+0x2d7>
    3e0d: a2 00        	ldx	#$0
    3e0f: 86 40        	stx	$40                     ; 0x2040 <parse+0x2d3>
    3e11: a2 00        	ldx	#$0
    3e13: 86 41        	stx	$41                     ; 0x2041 <parse+0x2d4>
    3e15: a6 85        	ldx	$85                     ; 0x2085 <parse+0x318>
    3e17: 86 45        	stx	$45                     ; 0x2045 <parse+0x2d8>
    3e19: a2 01        	ldx	#$1
    3e1b: 70 02        	bvs	$3e1f <printf+0x595>
    3e1d: a2 00        	ldx	#$0
    3e1f: 86 16        	stx	$16                     ; 0x2016 <parse+0x2a9>
    3e21: a5 82        	lda	$82                     ; 0x2082 <parse+0x315>
    3e23: 0a           	asl
    3e24: 0a           	asl
    3e25: 0a           	asl
    3e26: 85 12        	sta	$12                     ; 0x2012 <parse+0x2a5>
    3e28: a2 00        	ldx	#$0
    3e2a: 8a           	txa
    3e2b: e0 00        	cpx	#$0
    3e2d: d0 03        	bne	$3e32 <printf+0x5a8>
    3e2f: 4c b7 3e     	jmp	$3eb7 <printf+0x62d>
    3e32: 85 17        	sta	$17                     ; 0x2017 <parse+0x2aa>
    3e34: 86 3c        	stx	$3c                     ; 0x203c <parse+0x2cf>
    3e36: ca           	dex
    3e37: 86 15        	stx	$15                     ; 0x2015 <parse+0x2a8>
    3e39: a2 00        	ldx	#$0
    3e3b: 64 13        	stz	$13                     ; 0x2013 <parse+0x2a6>
    3e3d: 80 0d        	bra	$3e4c <printf+0x5c2>
    3e3f: a4 13        	ldy	$13                     ; 0x2013 <parse+0x2a6>
    3e41: 99 4a 00     	sta	$4a,y                   ; 0x4a <__rc31+0x1b>
    3e44: a4 15        	ldy	$15                     ; 0x2015 <parse+0x2a8>
    3e46: c4 13        	cpy	$13                     ; 0x2013 <parse+0x2a6>
    3e48: f0 38        	beq	$3e82 <printf+0x5f8>
    3e4a: e6 13        	inc	$13                     ; 0x2013 <parse+0x2a6>
    3e4c: a4 13        	ldy	$13                     ; 0x2013 <parse+0x2a6>
    3e4e: b9 4a 00     	lda	$4a,y                   ; 0x4a <__rc31+0x1b>
    3e51: 0a           	asl
    3e52: e0 00        	cpx	#$0
    3e54: f0 02        	beq	$3e58 <printf+0x5ce>
    3e56: 09 01        	ora	#$1
    3e58: a4 81        	ldy	$81                     ; 0x2081 <parse+0x314>
    3e5a: 84 14        	sty	$14                     ; 0x2014 <parse+0x2a7>
    3e5c: c5 14        	cmp	$14                     ; 0x2014 <parse+0x2a7>
    3e5e: a2 01        	ldx	#$1
    3e60: b0 02        	bcs	$3e64 <printf+0x5da>
    3e62: a2 00        	ldx	#$0
    3e64: 90 d9        	bcc	$3e3f <printf+0x5b5>
    3e66: 84 14        	sty	$14                     ; 0x2014 <parse+0x2a7>
    3e68: 38           	sec
    3e69: e5 14        	sbc	$14                     ; 0x2014 <parse+0x2a7>
    3e6b: a4 13        	ldy	$13                     ; 0x2013 <parse+0x2a6>
    3e6d: 99 4a 00     	sta	$4a,y                   ; 0x4a <__rc31+0x1b>
    3e70: a4 15        	ldy	$15                     ; 0x2015 <parse+0x2a8>
    3e72: c4 13        	cpy	$13                     ; 0x2013 <parse+0x2a6>
    3e74: d0 d4        	bne	$3e4a <printf+0x5c0>
    3e76: a4 3c        	ldy	$3c                     ; 0x203c <parse+0x2cf>
    3e78: a6 3c        	ldx	$3c                     ; 0x203c <parse+0x2cf>
    3e7a: e8           	inx
    3e7b: a9 01        	lda	#$1
    3e7d: 99 4a 00     	sta	$4a,y                   ; 0x4a <__rc31+0x1b>
    3e80: 86 3c        	stx	$3c                     ; 0x203c <parse+0x2cf>
    3e82: a6 82        	ldx	$82                     ; 0x2082 <parse+0x315>
    3e84: b5 61        	lda	$61,x                   ; 0x2061 <parse+0x2f4>
    3e86: aa           	tax
    3e87: a0 01        	ldy	#$1
    3e89: 8a           	txa
    3e8a: 10 47        	bpl	$3ed3 <printf+0x649>
    3e8c: a5 3c        	lda	$3c                     ; 0x203c <parse+0x2cf>
    3e8e: f0 34        	beq	$3ec4 <printf+0x63a>
    3e90: a2 00        	ldx	#$0
    3e92: a4 81        	ldy	$81                     ; 0x2081 <parse+0x314>
    3e94: 84 14        	sty	$14                     ; 0x2014 <parse+0x2a7>
    3e96: b5 4a        	lda	$4a,x                   ; 0x204a <parse+0x2dd>
    3e98: 1a           	inc
    3e99: f6 4a        	inc	$4a,x                   ; 0x204a <parse+0x2dd>
    3e9b: c5 14        	cmp	$14                     ; 0x2014 <parse+0x2a7>
    3e9d: b0 03        	bcs	$3ea2 <printf+0x618>
    3e9f: 4c fe 3e     	jmp	$3efe <printf+0x674>
    3ea2: a4 14        	ldy	$14                     ; 0x2014 <parse+0x2a7>
    3ea4: 84 13        	sty	$13                     ; 0x2013 <parse+0x2a6>
    3ea6: 38           	sec
    3ea7: e5 13        	sbc	$13                     ; 0x2013 <parse+0x2a6>
    3ea9: 9d 4a 00     	sta	$4a,x                   ; 0x4a <__rc31+0x1b>
    3eac: e8           	inx
    3ead: 86 13        	stx	$13                     ; 0x2013 <parse+0x2a6>
    3eaf: a4 3c        	ldy	$3c                     ; 0x203c <parse+0x2cf>
    3eb1: c4 13        	cpy	$13                     ; 0x2013 <parse+0x2a6>
    3eb3: d0 e1        	bne	$3e96 <printf+0x60c>
    3eb5: 80 0f        	bra	$3ec6 <printf+0x63c>
    3eb7: 85 17        	sta	$17                     ; 0x2017 <parse+0x2aa>
    3eb9: a6 82        	ldx	$82                     ; 0x2082 <parse+0x315>
    3ebb: b5 61        	lda	$61,x                   ; 0x2061 <parse+0x2f4>
    3ebd: aa           	tax
    3ebe: 64 3c        	stz	$3c                     ; 0x203c <parse+0x2cf>
    3ec0: 30 04        	bmi	$3ec6 <printf+0x63c>
    3ec2: 80 0f        	bra	$3ed3 <printf+0x649>
    3ec4: 64 3c        	stz	$3c                     ; 0x203c <parse+0x2cf>
    3ec6: a4 3c        	ldy	$3c                     ; 0x203c <parse+0x2cf>
    3ec8: a6 3c        	ldx	$3c                     ; 0x203c <parse+0x2cf>
    3eca: e8           	inx
    3ecb: a9 01        	lda	#$1
    3ecd: 99 4a 00     	sta	$4a,y                   ; 0x4a <__rc31+0x1b>
    3ed0: a8           	tay
    3ed1: 86 3c        	stx	$3c                     ; 0x203c <parse+0x2cf>
    3ed3: a2 01        	ldx	#$1
    3ed5: 64 13        	stz	$13                     ; 0x2013 <parse+0x2a6>
    3ed7: a5 82        	lda	$82                     ; 0x2082 <parse+0x315>
    3ed9: 85 14        	sta	$14                     ; 0x2014 <parse+0x2a7>
    3edb: b5 61        	lda	$61,x                   ; 0x2061 <parse+0x2f4>
    3edd: 0a           	asl
    3ede: 64 15        	stz	$15                     ; 0x2015 <parse+0x2a8>
    3ee0: 26 15        	rol	$15                     ; 0x2015 <parse+0x2a8>
    3ee2: 05 13        	ora	$13                     ; 0x2013 <parse+0x2a6>
    3ee4: 9d 61 00     	sta	$61,x                   ; 0x61 <__rc31+0x32>
    3ee7: e8           	inx
    3ee8: c6 14        	dec	$14                     ; 0x2014 <parse+0x2a7>
    3eea: a5 15        	lda	$15                     ; 0x2015 <parse+0x2a8>
    3eec: 85 13        	sta	$13                     ; 0x2013 <parse+0x2a6>
    3eee: a5 14        	lda	$14                     ; 0x2014 <parse+0x2a7>
    3ef0: d0 e9        	bne	$3edb <printf+0x651>
    3ef2: a5 17        	lda	$17                     ; 0x2017 <parse+0x2aa>
    3ef4: 1a           	inc
    3ef5: c5 12        	cmp	$12                     ; 0x2012 <parse+0x2a5>
    3ef7: a6 3c        	ldx	$3c                     ; 0x203c <parse+0x2cf>
    3ef9: b0 07        	bcs	$3f02 <printf+0x678>
    3efb: 4c 2b 3e     	jmp	$3e2b <printf+0x5a1>
    3efe: a0 01        	ldy	#$1
    3f00: 80 d1        	bra	$3ed3 <printf+0x649>
    3f02: a5 3d        	lda	$3d                     ; 0x203d <parse+0x2d0>
    3f04: e6 45        	inc	$45                     ; 0x2045 <parse+0x2d8>
    3f06: c6 45        	dec	$45                     ; 0x2045 <parse+0x2d8>
    3f08: 10 08        	bpl	$3f12 <printf+0x688>
    3f0a: a2 01        	ldx	#$1
    3f0c: 64 45        	stz	$45                     ; 0x2045 <parse+0x2d8>
    3f0e: 86 44        	stx	$44                     ; 0x2044 <parse+0x2d7>
    3f10: a6 3c        	ldx	$3c                     ; 0x203c <parse+0x2cf>
    3f12: 29 04        	and	#$4
    3f14: f0 2b        	beq	$3f41 <printf+0x6b7>
    3f16: a5 81        	lda	$81                     ; 0x2081 <parse+0x314>
    3f18: c9 10        	cmp	#$10
    3f1a: f0 14        	beq	$3f30 <printf+0x6a6>
    3f1c: c9 08        	cmp	#$8
    3f1e: d0 21        	bne	$3f41 <printf+0x6b7>
    3f20: a2 00        	ldx	#$0
    3f22: e4 45        	cpx	$45                     ; 0x2045 <parse+0x2d8>
    3f24: f0 03        	beq	$3f29 <printf+0x69f>
    3f26: 4c 2b 44     	jmp	$442b <printf+0xba1>
    3f29: a6 3c        	ldx	$3c                     ; 0x203c <parse+0x2cf>
    3f2b: e4 44        	cpx	$44                     ; 0x2044 <parse+0x2d7>
    3f2d: 4c 2d 44     	jmp	$442d <printf+0xba3>
    3f30: 8a           	txa
    3f31: f0 0e        	beq	$3f41 <printf+0x6b7>
    3f33: a5 3d        	lda	$3d                     ; 0x203d <parse+0x2d0>
    3f35: 29 80        	and	#$80
    3f37: d0 03        	bne	$3f3c <printf+0x6b2>
    3f39: 4c 46 44     	jmp	$4446 <printf+0xbbc>
    3f3c: a2 78        	ldx	#$78
    3f3e: 4c 48 44     	jmp	$4448 <printf+0xbbe>
    3f41: a6 3d        	ldx	$3d                     ; 0x203d <parse+0x2d0>
    3f43: a9 2d        	lda	#$2d
    3f45: 85 85        	sta	$85                     ; 0x2085 <parse+0x318>
    3f47: a5 16        	lda	$16                     ; 0x2016 <parse+0x2a9>
    3f49: d0 32        	bne	$3f7d <printf+0x6f3>
    3f4b: 86 12        	stx	$12                     ; 0x2012 <parse+0x2a5>
    3f4d: 8a           	txa
    3f4e: 29 02        	and	#$2
    3f50: a2 2b        	ldx	#$2b
    3f52: 86 85        	stx	$85                     ; 0x2085 <parse+0x318>
    3f54: aa           	tax
    3f55: d0 26        	bne	$3f7d <printf+0x6f3>
    3f57: a5 12        	lda	$12                     ; 0x2012 <parse+0x2a5>
    3f59: 29 08        	and	#$8
    3f5b: d0 1c        	bne	$3f79 <printf+0x6ef>
    3f5d: a2 01        	ldx	#$1
    3f5f: 86 82        	stx	$82                     ; 0x2082 <parse+0x315>
    3f61: a9 00        	lda	#$0
    3f63: aa           	tax
    3f64: 86 81        	stx	$81                     ; 0x2081 <parse+0x314>
    3f66: 80 1c        	bra	$3f84 <printf+0x6fa>
    3f68: 85 12        	sta	$12                     ; 0x2012 <parse+0x2a5>
    3f6a: a9 04        	lda	#$4
    3f6c: 80 04        	bra	$3f72 <printf+0x6e8>
    3f6e: 85 12        	sta	$12                     ; 0x2012 <parse+0x2a5>
    3f70: a9 02        	lda	#$2
    3f72: 85 82        	sta	$82                     ; 0x2082 <parse+0x315>
    3f74: a5 12        	lda	$12                     ; 0x2012 <parse+0x2a5>
    3f76: 4c 35 3c     	jmp	$3c35 <printf+0x3ab>
    3f79: a2 20        	ldx	#$20
    3f7b: 86 85        	stx	$85                     ; 0x2085 <parse+0x318>
    3f7d: a2 00        	ldx	#$0
    3f7f: 86 82        	stx	$82                     ; 0x2082 <parse+0x315>
    3f81: 86 81        	stx	$81                     ; 0x2081 <parse+0x314>
    3f83: 98           	tya
    3f84: a6 45        	ldx	$45                     ; 0x2045 <parse+0x2d8>
    3f86: d0 35        	bne	$3fbd <printf+0x733>
    3f88: a6 44        	ldx	$44                     ; 0x2044 <parse+0x2d7>
    3f8a: a4 3c        	ldy	$3c                     ; 0x203c <parse+0x2cf>
    3f8c: 84 12        	sty	$12                     ; 0x2012 <parse+0x2a5>
    3f8e: e4 12        	cpx	$12                     ; 0x2012 <parse+0x2a5>
    3f90: a6 44        	ldx	$44                     ; 0x2044 <parse+0x2d7>
    3f92: 86 12        	stx	$12                     ; 0x2012 <parse+0x2a5>
    3f94: a6 45        	ldx	$45                     ; 0x2045 <parse+0x2d8>
    3f96: 86 13        	stx	$13                     ; 0x2013 <parse+0x2a6>
    3f98: b0 04        	bcs	$3f9e <printf+0x714>
    3f9a: 84 12        	sty	$12                     ; 0x2012 <parse+0x2a5>
    3f9c: 64 13        	stz	$13                     ; 0x2013 <parse+0x2a6>
    3f9e: 85 18        	sta	$18                     ; 0x2018 <parse+0x2ab>
    3fa0: 18           	clc
    3fa1: 65 12        	adc	$12                     ; 0x2012 <parse+0x2a5>
    3fa3: 85 16        	sta	$16                     ; 0x2016 <parse+0x2a9>
    3fa5: 85 14        	sta	$14                     ; 0x2014 <parse+0x2a7>
    3fa7: a5 13        	lda	$13                     ; 0x2013 <parse+0x2a6>
    3fa9: 69 00        	adc	#$0
    3fab: 85 15        	sta	$15                     ; 0x2015 <parse+0x2a8>
    3fad: c5 1a        	cmp	$1a                     ; 0x201a <parse+0x2ad>
    3faf: d0 1e        	bne	$3fcf <printf+0x745>
    3fb1: a6 1a        	ldx	$1a                     ; 0x201a <parse+0x2ad>
    3fb3: 86 17        	stx	$17                     ; 0x2017 <parse+0x2aa>
    3fb5: a6 46        	ldx	$46                     ; 0x2046 <parse+0x2d9>
    3fb7: a5 16        	lda	$16                     ; 0x2016 <parse+0x2a9>
    3fb9: c5 46        	cmp	$46                     ; 0x2046 <parse+0x2d9>
    3fbb: 80 1c        	bra	$3fd9 <printf+0x74f>
    3fbd: a6 45        	ldx	$45                     ; 0x2045 <parse+0x2d8>
    3fbf: e0 00        	cpx	#$0
    3fc1: a6 44        	ldx	$44                     ; 0x2044 <parse+0x2d7>
    3fc3: 86 12        	stx	$12                     ; 0x2012 <parse+0x2a5>
    3fc5: a6 45        	ldx	$45                     ; 0x2045 <parse+0x2d8>
    3fc7: 86 13        	stx	$13                     ; 0x2013 <parse+0x2a6>
    3fc9: a4 3c        	ldy	$3c                     ; 0x203c <parse+0x2cf>
    3fcb: 90 cd        	bcc	$3f9a <printf+0x710>
    3fcd: 80 cf        	bra	$3f9e <printf+0x714>
    3fcf: a6 46        	ldx	$46                     ; 0x2046 <parse+0x2d9>
    3fd1: 5a           	phy
    3fd2: a4 1a        	ldy	$1a                     ; 0x201a <parse+0x2ad>
    3fd4: 84 17        	sty	$17                     ; 0x2017 <parse+0x2aa>
    3fd6: 7a           	ply
    3fd7: c5 1a        	cmp	$1a                     ; 0x201a <parse+0x2ad>
    3fd9: 64 47        	stz	$47                     ; 0x2047 <parse+0x2da>
    3fdb: 64 46        	stz	$46                     ; 0x2046 <parse+0x2d9>
    3fdd: 90 03        	bcc	$3fe2 <printf+0x758>
    3fdf: 4c 7d 40     	jmp	$407d <printf+0x7f3>
    3fe2: a5 3d        	lda	$3d                     ; 0x203d <parse+0x2d0>
    3fe4: 29 11        	and	#$11
    3fe6: 86 16        	stx	$16                     ; 0x2016 <parse+0x2a9>
    3fe8: f0 0f        	beq	$3ff9 <printf+0x76f>
    3fea: 8a           	txa
    3feb: 38           	sec
    3fec: e5 14        	sbc	$14                     ; 0x2014 <parse+0x2a7>
    3fee: 85 47        	sta	$47                     ; 0x2047 <parse+0x2da>
    3ff0: a5 1a        	lda	$1a                     ; 0x201a <parse+0x2ad>
    3ff2: e5 15        	sbc	$15                     ; 0x2015 <parse+0x2a8>
    3ff4: 85 46        	sta	$46                     ; 0x2046 <parse+0x2d9>
    3ff6: 4c 7d 40     	jmp	$407d <printf+0x7f3>
    3ff9: a6 71        	ldx	$71                     ; 0x2071 <parse+0x304>
    3ffb: 86 14        	stx	$14                     ; 0x2014 <parse+0x2a7>
    3ffd: 38           	sec
    3ffe: a5 18        	lda	$18                     ; 0x2018 <parse+0x2ab>
    4000: e5 16        	sbc	$16                     ; 0x2016 <parse+0x2a9>
    4002: a8           	tay
    4003: a9 00        	lda	#$0
    4005: e5 17        	sbc	$17                     ; 0x2017 <parse+0x2aa>
    4007: aa           	tax
    4008: 18           	clc
    4009: 98           	tya
    400a: 65 12        	adc	$12                     ; 0x2012 <parse+0x2a5>
    400c: 85 3d        	sta	$3d                     ; 0x203d <parse+0x2d0>
    400e: 8a           	txa
    400f: 65 13        	adc	$13                     ; 0x2013 <parse+0x2a6>
    4011: 85 46        	sta	$46                     ; 0x2046 <parse+0x2d9>
    4013: a5 72        	lda	$72                     ; 0x2072 <parse+0x305>
    4015: 80 4e        	bra	$4065 <printf+0x7db>
    4017: c5 70        	cmp	$70                     ; 0x2070 <parse+0x303>
    4019: a4 46        	ldy	$46                     ; 0x2046 <parse+0x2d9>
    401b: b0 28        	bcs	$4045 <printf+0x7bb>
    401d: a6 7c        	ldx	$7c                     ; 0x207c <parse+0x30f>
    401f: e4 41        	cpx	$41                     ; 0x2041 <parse+0x2d4>
    4021: d0 19        	bne	$403c <printf+0x7b2>
    4023: a6 7b        	ldx	$7b                     ; 0x207b <parse+0x30e>
    4025: e4 40        	cpx	$40                     ; 0x2040 <parse+0x2d3>
    4027: d0 13        	bne	$403c <printf+0x7b2>
    4029: 18           	clc
    402a: aa           	tax
    402b: a5 14        	lda	$14                     ; 0x2014 <parse+0x2a7>
    402d: 65 75        	adc	$75                     ; 0x2075 <parse+0x308>
    402f: 85 12        	sta	$12                     ; 0x2012 <parse+0x2a5>
    4031: 8a           	txa
    4032: 65 76        	adc	$76                     ; 0x2076 <parse+0x309>
    4034: 85 13        	sta	$13                     ; 0x2013 <parse+0x2a6>
    4036: a9 20        	lda	#$20
    4038: 92 12        	sta	($12)                   ; 0x2012 <parse+0x2a5>
    403a: 80 07        	bra	$4043 <printf+0x7b9>
    403c: a2 00        	ldx	#$0
    403e: a9 20        	lda	#$20
    4040: 20 63 44     	jsr	$4463 <putchar>
    4043: a4 46        	ldy	$46                     ; 0x2046 <parse+0x2d9>
    4045: a6 71        	ldx	$71                     ; 0x2071 <parse+0x304>
    4047: a5 72        	lda	$72                     ; 0x2072 <parse+0x305>
    4049: e8           	inx
    404a: d0 01        	bne	$404d <printf+0x7c3>
    404c: 1a           	inc
    404d: 86 14        	stx	$14                     ; 0x2014 <parse+0x2a7>
    404f: 86 71        	stx	$71                     ; 0x2071 <parse+0x304>
    4051: 85 72        	sta	$72                     ; 0x2072 <parse+0x305>
    4053: a6 3d        	ldx	$3d                     ; 0x203d <parse+0x2d0>
    4055: e8           	inx
    4056: d0 01        	bne	$4059 <printf+0x7cf>
    4058: c8           	iny
    4059: 86 3d        	stx	$3d                     ; 0x203d <parse+0x2d0>
    405b: 84 46        	sty	$46                     ; 0x2046 <parse+0x2d9>
    405d: c0 00        	cpy	#$0
    405f: d0 04        	bne	$4065 <printf+0x7db>
    4061: e0 00        	cpx	#$0
    4063: f0 12        	beq	$4077 <printf+0x7ed>
    4065: c5 70        	cmp	$70                     ; 0x2070 <parse+0x303>
    4067: f0 03        	beq	$406c <printf+0x7e2>
    4069: 4c 17 40     	jmp	$4017 <printf+0x78d>
    406c: a6 6f        	ldx	$6f                     ; 0x206f <parse+0x302>
    406e: 86 12        	stx	$12                     ; 0x2012 <parse+0x2a5>
    4070: a6 14        	ldx	$14                     ; 0x2014 <parse+0x2a7>
    4072: e4 12        	cpx	$12                     ; 0x2012 <parse+0x2a5>
    4074: 4c 19 40     	jmp	$4019 <printf+0x78f>
    4077: 64 47        	stz	$47                     ; 0x2047 <parse+0x2da>
    4079: 64 46        	stz	$46                     ; 0x2046 <parse+0x2d9>
    407b: a4 3c        	ldy	$3c                     ; 0x203c <parse+0x2cf>
    407d: a6 82        	ldx	$82                     ; 0x2082 <parse+0x315>
    407f: d0 4f        	bne	$40d0 <printf+0x846>
    4081: a6 71        	ldx	$71                     ; 0x2071 <parse+0x304>
    4083: a5 72        	lda	$72                     ; 0x2072 <parse+0x305>
    4085: c5 70        	cmp	$70                     ; 0x2070 <parse+0x303>
    4087: d0 10        	bne	$4099 <printf+0x80f>
    4089: 86 13        	stx	$13                     ; 0x2013 <parse+0x2a6>
    408b: a6 6f        	ldx	$6f                     ; 0x206f <parse+0x302>
    408d: 86 12        	stx	$12                     ; 0x2012 <parse+0x2a5>
    408f: a4 3c        	ldy	$3c                     ; 0x203c <parse+0x2cf>
    4091: a6 13        	ldx	$13                     ; 0x2013 <parse+0x2a6>
    4093: e4 12        	cpx	$12                     ; 0x2012 <parse+0x2a5>
    4095: 90 08        	bcc	$409f <printf+0x815>
    4097: 80 31        	bra	$40ca <printf+0x840>
    4099: 86 13        	stx	$13                     ; 0x2013 <parse+0x2a6>
    409b: c5 70        	cmp	$70                     ; 0x2070 <parse+0x303>
    409d: b0 2b        	bcs	$40ca <printf+0x840>
    409f: a6 7c        	ldx	$7c                     ; 0x207c <parse+0x30f>
    40a1: e4 41        	cpx	$41                     ; 0x2041 <parse+0x2d4>
    40a3: d0 1c        	bne	$40c1 <printf+0x837>
    40a5: a6 7b        	ldx	$7b                     ; 0x207b <parse+0x30e>
    40a7: e4 40        	cpx	$40                     ; 0x2040 <parse+0x2d3>
    40a9: d0 16        	bne	$40c1 <printf+0x837>
    40ab: 18           	clc
    40ac: 85 12        	sta	$12                     ; 0x2012 <parse+0x2a5>
    40ae: a5 13        	lda	$13                     ; 0x2013 <parse+0x2a6>
    40b0: 65 75        	adc	$75                     ; 0x2075 <parse+0x308>
    40b2: aa           	tax
    40b3: a5 12        	lda	$12                     ; 0x2012 <parse+0x2a5>
    40b5: 65 76        	adc	$76                     ; 0x2076 <parse+0x309>
    40b7: 86 12        	stx	$12                     ; 0x2012 <parse+0x2a5>
    40b9: 85 13        	sta	$13                     ; 0x2013 <parse+0x2a6>
    40bb: a5 85        	lda	$85                     ; 0x2085 <parse+0x318>
    40bd: 92 12        	sta	($12)                   ; 0x2012 <parse+0x2a5>
    40bf: 80 07        	bra	$40c8 <printf+0x83e>
    40c1: a2 00        	ldx	#$0
    40c3: a5 85        	lda	$85                     ; 0x2085 <parse+0x318>
    40c5: 20 63 44     	jsr	$4463 <putchar>
    40c8: a4 3c        	ldy	$3c                     ; 0x203c <parse+0x2cf>
    40ca: e6 71        	inc	$71                     ; 0x2071 <parse+0x304>
    40cc: d0 02        	bne	$40d0 <printf+0x846>
    40ce: e6 72        	inc	$72                     ; 0x2072 <parse+0x305>
    40d0: a6 81        	ldx	$81                     ; 0x2081 <parse+0x314>
    40d2: f0 4f        	beq	$4123 <printf+0x899>
    40d4: a6 71        	ldx	$71                     ; 0x2071 <parse+0x304>
    40d6: a5 72        	lda	$72                     ; 0x2072 <parse+0x305>
    40d8: c5 70        	cmp	$70                     ; 0x2070 <parse+0x303>
    40da: d0 10        	bne	$40ec <printf+0x862>
    40dc: 86 13        	stx	$13                     ; 0x2013 <parse+0x2a6>
    40de: a6 6f        	ldx	$6f                     ; 0x206f <parse+0x302>
    40e0: 86 12        	stx	$12                     ; 0x2012 <parse+0x2a5>
    40e2: a4 3c        	ldy	$3c                     ; 0x203c <parse+0x2cf>
    40e4: a6 13        	ldx	$13                     ; 0x2013 <parse+0x2a6>
    40e6: e4 12        	cpx	$12                     ; 0x2012 <parse+0x2a5>
    40e8: 90 08        	bcc	$40f2 <printf+0x868>
    40ea: 80 31        	bra	$411d <printf+0x893>
    40ec: 86 13        	stx	$13                     ; 0x2013 <parse+0x2a6>
    40ee: c5 70        	cmp	$70                     ; 0x2070 <parse+0x303>
    40f0: b0 2b        	bcs	$411d <printf+0x893>
    40f2: a6 7c        	ldx	$7c                     ; 0x207c <parse+0x30f>
    40f4: e4 41        	cpx	$41                     ; 0x2041 <parse+0x2d4>
    40f6: d0 1c        	bne	$4114 <printf+0x88a>
    40f8: a6 7b        	ldx	$7b                     ; 0x207b <parse+0x30e>
    40fa: e4 40        	cpx	$40                     ; 0x2040 <parse+0x2d3>
    40fc: d0 16        	bne	$4114 <printf+0x88a>
    40fe: 18           	clc
    40ff: 85 12        	sta	$12                     ; 0x2012 <parse+0x2a5>
    4101: a5 13        	lda	$13                     ; 0x2013 <parse+0x2a6>
    4103: 65 75        	adc	$75                     ; 0x2075 <parse+0x308>
    4105: aa           	tax
    4106: a5 12        	lda	$12                     ; 0x2012 <parse+0x2a5>
    4108: 65 76        	adc	$76                     ; 0x2076 <parse+0x309>
    410a: 86 12        	stx	$12                     ; 0x2012 <parse+0x2a5>
    410c: 85 13        	sta	$13                     ; 0x2013 <parse+0x2a6>
    410e: a5 86        	lda	$86                     ; 0x2086 <parse+0x319>
    4110: 92 12        	sta	($12)                   ; 0x2012 <parse+0x2a5>
    4112: 80 07        	bra	$411b <printf+0x891>
    4114: a2 00        	ldx	#$0
    4116: a5 86        	lda	$86                     ; 0x2086 <parse+0x319>
    4118: 20 63 44     	jsr	$4463 <putchar>
    411b: a4 3c        	ldy	$3c                     ; 0x203c <parse+0x2cf>
    411d: e6 71        	inc	$71                     ; 0x2071 <parse+0x304>
    411f: d0 02        	bne	$4123 <printf+0x899>
    4121: e6 72        	inc	$72                     ; 0x2072 <parse+0x305>
    4123: a9 10        	lda	#$10
    4125: 25 6d        	and	$6d                     ; 0x206d <parse+0x300>
    4127: d0 03        	bne	$412c <printf+0x8a2>
    4129: 4c b5 41     	jmp	$41b5 <printf+0x92b>
    412c: a5 6d        	lda	$6d                     ; 0x206d <parse+0x300>
    412e: 29 01        	and	#$1
    4130: f0 03        	beq	$4135 <printf+0x8ab>
    4132: 4c b5 41     	jmp	$41b5 <printf+0x92b>
    4135: a6 47        	ldx	$47                     ; 0x2047 <parse+0x2da>
    4137: a5 46        	lda	$46                     ; 0x2046 <parse+0x2d9>
    4139: d0 06        	bne	$4141 <printf+0x8b7>
    413b: 8a           	txa
    413c: d0 03        	bne	$4141 <printf+0x8b7>
    413e: 4c 5b 44     	jmp	$445b <printf+0xbd1>
    4141: a6 71        	ldx	$71                     ; 0x2071 <parse+0x304>
    4143: 86 13        	stx	$13                     ; 0x2013 <parse+0x2a6>
    4145: a5 72        	lda	$72                     ; 0x2072 <parse+0x305>
    4147: 4c 9b 41     	jmp	$419b <printf+0x911>
    414a: c5 70        	cmp	$70                     ; 0x2070 <parse+0x303>
    414c: b0 26        	bcs	$4174 <printf+0x8ea>
    414e: a6 7c        	ldx	$7c                     ; 0x207c <parse+0x30f>
    4150: e4 41        	cpx	$41                     ; 0x2041 <parse+0x2d4>
    4152: d0 19        	bne	$416d <printf+0x8e3>
    4154: a6 7b        	ldx	$7b                     ; 0x207b <parse+0x30e>
    4156: e4 40        	cpx	$40                     ; 0x2040 <parse+0x2d3>
    4158: d0 13        	bne	$416d <printf+0x8e3>
    415a: 18           	clc
    415b: aa           	tax
    415c: a5 13        	lda	$13                     ; 0x2013 <parse+0x2a6>
    415e: 65 75        	adc	$75                     ; 0x2075 <parse+0x308>
    4160: 85 12        	sta	$12                     ; 0x2012 <parse+0x2a5>
    4162: 8a           	txa
    4163: 65 76        	adc	$76                     ; 0x2076 <parse+0x309>
    4165: 85 13        	sta	$13                     ; 0x2013 <parse+0x2a6>
    4167: a9 30        	lda	#$30
    4169: 92 12        	sta	($12)                   ; 0x2012 <parse+0x2a5>
    416b: 80 07        	bra	$4174 <printf+0x8ea>
    416d: a2 00        	ldx	#$0
    416f: a9 30        	lda	#$30
    4171: 20 63 44     	jsr	$4463 <putchar>
    4174: a6 71        	ldx	$71                     ; 0x2071 <parse+0x304>
    4176: a5 72        	lda	$72                     ; 0x2072 <parse+0x305>
    4178: e8           	inx
    4179: d0 01        	bne	$417c <printf+0x8f2>
    417b: 1a           	inc
    417c: 86 13        	stx	$13                     ; 0x2013 <parse+0x2a6>
    417e: 86 71        	stx	$71                     ; 0x2071 <parse+0x304>
    4180: 85 72        	sta	$72                     ; 0x2072 <parse+0x305>
    4182: a4 47        	ldy	$47                     ; 0x2047 <parse+0x2da>
    4184: a6 46        	ldx	$46                     ; 0x2046 <parse+0x2d9>
    4186: 86 12        	stx	$12                     ; 0x2012 <parse+0x2a5>
    4188: 88           	dey
    4189: c0 ff        	cpy	#$ff
    418b: d0 02        	bne	$418f <printf+0x905>
    418d: c6 12        	dec	$12                     ; 0x2012 <parse+0x2a5>
    418f: 84 47        	sty	$47                     ; 0x2047 <parse+0x2da>
    4191: a6 12        	ldx	$12                     ; 0x2012 <parse+0x2a5>
    4193: 86 46        	stx	$46                     ; 0x2046 <parse+0x2d9>
    4195: d0 04        	bne	$419b <printf+0x911>
    4197: c0 00        	cpy	#$0
    4199: f0 14        	beq	$41af <printf+0x925>
    419b: c5 70        	cmp	$70                     ; 0x2070 <parse+0x303>
    419d: f0 03        	beq	$41a2 <printf+0x918>
    419f: 4c 4a 41     	jmp	$414a <printf+0x8c0>
    41a2: a6 6f        	ldx	$6f                     ; 0x206f <parse+0x302>
    41a4: 86 12        	stx	$12                     ; 0x2012 <parse+0x2a5>
    41a6: a6 13        	ldx	$13                     ; 0x2013 <parse+0x2a6>
    41a8: e4 12        	cpx	$12                     ; 0x2012 <parse+0x2a5>
    41aa: b0 c8        	bcs	$4174 <printf+0x8ea>
    41ac: 4c 4e 41     	jmp	$414e <printf+0x8c4>
    41af: 64 47        	stz	$47                     ; 0x2047 <parse+0x2da>
    41b1: 64 46        	stz	$46                     ; 0x2046 <parse+0x2d9>
    41b3: a4 3c        	ldy	$3c                     ; 0x203c <parse+0x2cf>
    41b5: a2 00        	ldx	#$0
    41b7: e4 45        	cpx	$45                     ; 0x2045 <parse+0x2d8>
    41b9: d0 07        	bne	$41c2 <printf+0x938>
    41bb: c4 44        	cpy	$44                     ; 0x2044 <parse+0x2d7>
    41bd: 90 0a        	bcc	$41c9 <printf+0x93f>
    41bf: 4c 39 42     	jmp	$4239 <printf+0x9af>
    41c2: e4 45        	cpx	$45                     ; 0x2045 <parse+0x2d8>
    41c4: 90 03        	bcc	$41c9 <printf+0x93f>
    41c6: 4c 39 42     	jmp	$4239 <printf+0x9af>
    41c9: a6 71        	ldx	$71                     ; 0x2071 <parse+0x304>
    41cb: 86 13        	stx	$13                     ; 0x2013 <parse+0x2a6>
    41cd: a5 72        	lda	$72                     ; 0x2072 <parse+0x305>
    41cf: a2 ff        	ldx	#$ff
    41d1: c6 44        	dec	$44                     ; 0x2044 <parse+0x2d7>
    41d3: e4 44        	cpx	$44                     ; 0x2044 <parse+0x2d7>
    41d5: d0 02        	bne	$41d9 <printf+0x94f>
    41d7: c6 45        	dec	$45                     ; 0x2045 <parse+0x2d8>
    41d9: c5 70        	cmp	$70                     ; 0x2070 <parse+0x303>
    41db: d0 0c        	bne	$41e9 <printf+0x95f>
    41dd: a6 6f        	ldx	$6f                     ; 0x206f <parse+0x302>
    41df: 86 12        	stx	$12                     ; 0x2012 <parse+0x2a5>
    41e1: a6 13        	ldx	$13                     ; 0x2013 <parse+0x2a6>
    41e3: e4 12        	cpx	$12                     ; 0x2012 <parse+0x2a5>
    41e5: 90 06        	bcc	$41ed <printf+0x963>
    41e7: 80 2a        	bra	$4213 <printf+0x989>
    41e9: c5 70        	cmp	$70                     ; 0x2070 <parse+0x303>
    41eb: b0 26        	bcs	$4213 <printf+0x989>
    41ed: a6 7c        	ldx	$7c                     ; 0x207c <parse+0x30f>
    41ef: e4 41        	cpx	$41                     ; 0x2041 <parse+0x2d4>
    41f1: d0 19        	bne	$420c <printf+0x982>
    41f3: a6 7b        	ldx	$7b                     ; 0x207b <parse+0x30e>
    41f5: e4 40        	cpx	$40                     ; 0x2040 <parse+0x2d3>
    41f7: d0 13        	bne	$420c <printf+0x982>
    41f9: 18           	clc
    41fa: aa           	tax
    41fb: a5 13        	lda	$13                     ; 0x2013 <parse+0x2a6>
    41fd: 65 75        	adc	$75                     ; 0x2075 <parse+0x308>
    41ff: 85 12        	sta	$12                     ; 0x2012 <parse+0x2a5>
    4201: 8a           	txa
    4202: 65 76        	adc	$76                     ; 0x2076 <parse+0x309>
    4204: 85 13        	sta	$13                     ; 0x2013 <parse+0x2a6>
    4206: a9 30        	lda	#$30
    4208: 92 12        	sta	($12)                   ; 0x2012 <parse+0x2a5>
    420a: 80 07        	bra	$4213 <printf+0x989>
    420c: a2 00        	ldx	#$0
    420e: a9 30        	lda	#$30
    4210: 20 63 44     	jsr	$4463 <putchar>
    4213: a6 71        	ldx	$71                     ; 0x2071 <parse+0x304>
    4215: a5 72        	lda	$72                     ; 0x2072 <parse+0x305>
    4217: e8           	inx
    4218: d0 01        	bne	$421b <printf+0x991>
    421a: 1a           	inc
    421b: 86 13        	stx	$13                     ; 0x2013 <parse+0x2a6>
    421d: 86 71        	stx	$71                     ; 0x2071 <parse+0x304>
    421f: 85 72        	sta	$72                     ; 0x2072 <parse+0x305>
    4221: a2 00        	ldx	#$0
    4223: e4 45        	cpx	$45                     ; 0x2045 <parse+0x2d8>
    4225: d0 09        	bne	$4230 <printf+0x9a6>
    4227: a4 3c        	ldy	$3c                     ; 0x203c <parse+0x2cf>
    4229: c4 44        	cpy	$44                     ; 0x2044 <parse+0x2d7>
    422b: b0 0c        	bcs	$4239 <printf+0x9af>
    422d: 4c cf 41     	jmp	$41cf <printf+0x945>
    4230: e4 45        	cpx	$45                     ; 0x2045 <parse+0x2d8>
    4232: a4 3c        	ldy	$3c                     ; 0x203c <parse+0x2cf>
    4234: b0 03        	bcs	$4239 <printf+0x9af>
    4236: 4c cf 41     	jmp	$41cf <printf+0x945>
    4239: 98           	tya
    423a: d0 03        	bne	$423f <printf+0x9b5>
    423c: 4c 32 43     	jmp	$4332 <printf+0xaa8>
    423f: 88           	dey
    4240: d0 03        	bne	$4245 <printf+0x9bb>
    4242: 4c cf 42     	jmp	$42cf <printf+0xa45>
    4245: 84 44        	sty	$44                     ; 0x2044 <parse+0x2d7>
    4247: a6 87        	ldx	$87                     ; 0x2087 <parse+0x31a>
    4249: 8a           	txa
    424a: 18           	clc
    424b: 65 44        	adc	$44                     ; 0x2044 <parse+0x2d7>
    424d: 85 3c        	sta	$3c                     ; 0x203c <parse+0x2cf>
    424f: a5 88        	lda	$88                     ; 0x2088 <parse+0x31b>
    4251: 69 00        	adc	#$0
    4253: 85 3d        	sta	$3d                     ; 0x203d <parse+0x2d0>
    4255: 4c c1 42     	jmp	$42c1 <printf+0xa37>
    4258: a8           	tay
    4259: a9 80        	lda	#$80
    425b: 25 6d        	and	$6d                     ; 0x206d <parse+0x300>
    425d: f0 04        	beq	$4263 <printf+0x9d9>
    425f: a2 61        	ldx	#$61
    4261: 80 02        	bra	$4265 <printf+0x9db>
    4263: a2 41        	ldx	#$41
    4265: 86 12        	stx	$12                     ; 0x2012 <parse+0x2a5>
    4267: 18           	clc
    4268: 98           	tya
    4269: 65 12        	adc	$12                     ; 0x2012 <parse+0x2a5>
    426b: 18           	clc
    426c: 69 f6        	adc	#$f6
    426e: a4 71        	ldy	$71                     ; 0x2071 <parse+0x304>
    4270: a6 72        	ldx	$72                     ; 0x2072 <parse+0x305>
    4272: e4 70        	cpx	$70                     ; 0x2070 <parse+0x303>
    4274: d0 0c        	bne	$4282 <printf+0x9f8>
    4276: 86 14        	stx	$14                     ; 0x2014 <parse+0x2a7>
    4278: a6 6f        	ldx	$6f                     ; 0x206f <parse+0x302>
    427a: 86 12        	stx	$12                     ; 0x2012 <parse+0x2a5>
    427c: c4 12        	cpy	$12                     ; 0x2012 <parse+0x2a5>
    427e: 90 08        	bcc	$4288 <printf+0x9fe>
    4280: 80 29        	bra	$42ab <printf+0xa21>
    4282: 86 14        	stx	$14                     ; 0x2014 <parse+0x2a7>
    4284: e4 70        	cpx	$70                     ; 0x2070 <parse+0x303>
    4286: b0 23        	bcs	$42ab <printf+0xa21>
    4288: a6 7c        	ldx	$7c                     ; 0x207c <parse+0x30f>
    428a: e4 41        	cpx	$41                     ; 0x2041 <parse+0x2d4>
    428c: d0 18        	bne	$42a6 <printf+0xa1c>
    428e: a6 7b        	ldx	$7b                     ; 0x207b <parse+0x30e>
    4290: e4 40        	cpx	$40                     ; 0x2040 <parse+0x2d3>
    4292: d0 12        	bne	$42a6 <printf+0xa1c>
    4294: 18           	clc
    4295: aa           	tax
    4296: 98           	tya
    4297: 65 75        	adc	$75                     ; 0x2075 <parse+0x308>
    4299: 85 12        	sta	$12                     ; 0x2012 <parse+0x2a5>
    429b: a5 14        	lda	$14                     ; 0x2014 <parse+0x2a7>
    429d: 65 76        	adc	$76                     ; 0x2076 <parse+0x309>
    429f: 85 13        	sta	$13                     ; 0x2013 <parse+0x2a6>
    42a1: 8a           	txa
    42a2: 92 12        	sta	($12)                   ; 0x2012 <parse+0x2a5>
    42a4: 80 05        	bra	$42ab <printf+0xa21>
    42a6: a2 00        	ldx	#$0
    42a8: 20 63 44     	jsr	$4463 <putchar>
    42ab: e6 71        	inc	$71                     ; 0x2071 <parse+0x304>
    42ad: d0 02        	bne	$42b1 <printf+0xa27>
    42af: e6 72        	inc	$72                     ; 0x2072 <parse+0x305>
    42b1: c6 44        	dec	$44                     ; 0x2044 <parse+0x2d7>
    42b3: a2 ff        	ldx	#$ff
    42b5: c6 3c        	dec	$3c                     ; 0x203c <parse+0x2cf>
    42b7: e4 3c        	cpx	$3c                     ; 0x203c <parse+0x2cf>
    42b9: d0 02        	bne	$42bd <printf+0xa33>
    42bb: c6 3d        	dec	$3d                     ; 0x203d <parse+0x2d0>
    42bd: a5 44        	lda	$44                     ; 0x2044 <parse+0x2d7>
    42bf: f0 0e        	beq	$42cf <printf+0xa45>
    42c1: b2 3c        	lda	($3c)                   ; 0x203c <parse+0x2cf>
    42c3: c9 0a        	cmp	#$a
    42c5: 90 03        	bcc	$42ca <printf+0xa40>
    42c7: 4c 58 42     	jmp	$4258 <printf+0x9ce>
    42ca: 09 30        	ora	#$30
    42cc: 4c 6e 42     	jmp	$426e <printf+0x9e4>
    42cf: a5 4a        	lda	$4a                     ; 0x204a <parse+0x2dd>
    42d1: c9 0a        	cmp	#$a
    42d3: b0 04        	bcs	$42d9 <printf+0xa4f>
    42d5: 09 30        	ora	#$30
    42d7: 80 16        	bra	$42ef <printf+0xa65>
    42d9: a8           	tay
    42da: a9 80        	lda	#$80
    42dc: 25 6d        	and	$6d                     ; 0x206d <parse+0x300>
    42de: f0 04        	beq	$42e4 <printf+0xa5a>
    42e0: a2 61        	ldx	#$61
    42e2: 80 02        	bra	$42e6 <printf+0xa5c>
    42e4: a2 41        	ldx	#$41
    42e6: 86 12        	stx	$12                     ; 0x2012 <parse+0x2a5>
    42e8: 18           	clc
    42e9: 98           	tya
    42ea: 65 12        	adc	$12                     ; 0x2012 <parse+0x2a5>
    42ec: 18           	clc
    42ed: 69 f6        	adc	#$f6
    42ef: a4 71        	ldy	$71                     ; 0x2071 <parse+0x304>
    42f1: a6 72        	ldx	$72                     ; 0x2072 <parse+0x305>
    42f3: e4 70        	cpx	$70                     ; 0x2070 <parse+0x303>
    42f5: d0 0c        	bne	$4303 <printf+0xa79>
    42f7: 86 14        	stx	$14                     ; 0x2014 <parse+0x2a7>
    42f9: a6 6f        	ldx	$6f                     ; 0x206f <parse+0x302>
    42fb: 86 12        	stx	$12                     ; 0x2012 <parse+0x2a5>
    42fd: c4 12        	cpy	$12                     ; 0x2012 <parse+0x2a5>
    42ff: 90 08        	bcc	$4309 <printf+0xa7f>
    4301: 80 29        	bra	$432c <printf+0xaa2>
    4303: 86 14        	stx	$14                     ; 0x2014 <parse+0x2a7>
    4305: e4 70        	cpx	$70                     ; 0x2070 <parse+0x303>
    4307: b0 23        	bcs	$432c <printf+0xaa2>
    4309: a6 7c        	ldx	$7c                     ; 0x207c <parse+0x30f>
    430b: e4 41        	cpx	$41                     ; 0x2041 <parse+0x2d4>
    430d: d0 18        	bne	$4327 <printf+0xa9d>
    430f: a6 7b        	ldx	$7b                     ; 0x207b <parse+0x30e>
    4311: e4 40        	cpx	$40                     ; 0x2040 <parse+0x2d3>
    4313: d0 12        	bne	$4327 <printf+0xa9d>
    4315: 18           	clc
    4316: aa           	tax
    4317: 98           	tya
    4318: 65 75        	adc	$75                     ; 0x2075 <parse+0x308>
    431a: 85 12        	sta	$12                     ; 0x2012 <parse+0x2a5>
    431c: a5 14        	lda	$14                     ; 0x2014 <parse+0x2a7>
    431e: 65 76        	adc	$76                     ; 0x2076 <parse+0x309>
    4320: 85 13        	sta	$13                     ; 0x2013 <parse+0x2a6>
    4322: 8a           	txa
    4323: 92 12        	sta	($12)                   ; 0x2012 <parse+0x2a5>
    4325: 80 05        	bra	$432c <printf+0xaa2>
    4327: a2 00        	ldx	#$0
    4329: 20 63 44     	jsr	$4463 <putchar>
    432c: e6 71        	inc	$71                     ; 0x2071 <parse+0x304>
    432e: d0 02        	bne	$4332 <printf+0xaa8>
    4330: e6 72        	inc	$72                     ; 0x2072 <parse+0x305>
    4332: a5 6d        	lda	$6d                     ; 0x206d <parse+0x300>
    4334: 29 01        	and	#$1
    4336: d0 1e        	bne	$4356 <printf+0xacc>
    4338: a6 71        	ldx	$71                     ; 0x2071 <parse+0x304>
    433a: 86 14        	stx	$14                     ; 0x2014 <parse+0x2a7>
    433c: a5 72        	lda	$72                     ; 0x2072 <parse+0x305>
    433e: a4 6f        	ldy	$6f                     ; 0x206f <parse+0x302>
    4340: a6 70        	ldx	$70                     ; 0x2070 <parse+0x303>
    4342: 86 12        	stx	$12                     ; 0x2012 <parse+0x2a5>
    4344: 86 13        	stx	$13                     ; 0x2013 <parse+0x2a6>
    4346: c5 12        	cmp	$12                     ; 0x2012 <parse+0x2a5>
    4348: f0 03        	beq	$434d <printf+0xac3>
    434a: 4c db 43     	jmp	$43db <printf+0xb51>
    434d: 84 12        	sty	$12                     ; 0x2012 <parse+0x2a5>
    434f: a6 14        	ldx	$14                     ; 0x2014 <parse+0x2a7>
    4351: e4 12        	cpx	$12                     ; 0x2012 <parse+0x2a5>
    4353: 4c df 43     	jmp	$43df <printf+0xb55>
    4356: a6 71        	ldx	$71                     ; 0x2071 <parse+0x304>
    4358: 86 14        	stx	$14                     ; 0x2014 <parse+0x2a7>
    435a: a5 72        	lda	$72                     ; 0x2072 <parse+0x305>
    435c: a6 47        	ldx	$47                     ; 0x2047 <parse+0x2da>
    435e: a4 46        	ldy	$46                     ; 0x2046 <parse+0x2d9>
    4360: f0 03        	beq	$4365 <printf+0xadb>
    4362: 4c c7 43     	jmp	$43c7 <printf+0xb3d>
    4365: e0 00        	cpx	#$0
    4367: f0 d5        	beq	$433e <printf+0xab4>
    4369: 4c c7 43     	jmp	$43c7 <printf+0xb3d>
    436c: c5 70        	cmp	$70                     ; 0x2070 <parse+0x303>
    436e: b0 26        	bcs	$4396 <printf+0xb0c>
    4370: a6 7c        	ldx	$7c                     ; 0x207c <parse+0x30f>
    4372: e4 41        	cpx	$41                     ; 0x2041 <parse+0x2d4>
    4374: d0 19        	bne	$438f <printf+0xb05>
    4376: a6 7b        	ldx	$7b                     ; 0x207b <parse+0x30e>
    4378: e4 40        	cpx	$40                     ; 0x2040 <parse+0x2d3>
    437a: d0 13        	bne	$438f <printf+0xb05>
    437c: 18           	clc
    437d: aa           	tax
    437e: a5 14        	lda	$14                     ; 0x2014 <parse+0x2a7>
    4380: 65 75        	adc	$75                     ; 0x2075 <parse+0x308>
    4382: 85 12        	sta	$12                     ; 0x2012 <parse+0x2a5>
    4384: 8a           	txa
    4385: 65 76        	adc	$76                     ; 0x2076 <parse+0x309>
    4387: 85 13        	sta	$13                     ; 0x2013 <parse+0x2a6>
    4389: a9 20        	lda	#$20
    438b: 92 12        	sta	($12)                   ; 0x2012 <parse+0x2a5>
    438d: 80 07        	bra	$4396 <printf+0xb0c>
    438f: a2 00        	ldx	#$0
    4391: a9 20        	lda	#$20
    4393: 20 63 44     	jsr	$4463 <putchar>
    4396: a6 71        	ldx	$71                     ; 0x2071 <parse+0x304>
    4398: a5 72        	lda	$72                     ; 0x2072 <parse+0x305>
    439a: e8           	inx
    439b: d0 01        	bne	$439e <printf+0xb14>
    439d: 1a           	inc
    439e: 86 14        	stx	$14                     ; 0x2014 <parse+0x2a7>
    43a0: 86 71        	stx	$71                     ; 0x2071 <parse+0x304>
    43a2: 85 72        	sta	$72                     ; 0x2072 <parse+0x305>
    43a4: a6 47        	ldx	$47                     ; 0x2047 <parse+0x2da>
    43a6: 86 12        	stx	$12                     ; 0x2012 <parse+0x2a5>
    43a8: a6 46        	ldx	$46                     ; 0x2046 <parse+0x2d9>
    43aa: 86 13        	stx	$13                     ; 0x2013 <parse+0x2a6>
    43ac: a2 ff        	ldx	#$ff
    43ae: c6 12        	dec	$12                     ; 0x2012 <parse+0x2a5>
    43b0: e4 12        	cpx	$12                     ; 0x2012 <parse+0x2a5>
    43b2: d0 02        	bne	$43b6 <printf+0xb2c>
    43b4: c6 13        	dec	$13                     ; 0x2013 <parse+0x2a6>
    43b6: a6 12        	ldx	$12                     ; 0x2012 <parse+0x2a5>
    43b8: 86 47        	stx	$47                     ; 0x2047 <parse+0x2da>
    43ba: a6 13        	ldx	$13                     ; 0x2013 <parse+0x2a6>
    43bc: 86 46        	stx	$46                     ; 0x2046 <parse+0x2d9>
    43be: d0 07        	bne	$43c7 <printf+0xb3d>
    43c0: a6 12        	ldx	$12                     ; 0x2012 <parse+0x2a5>
    43c2: d0 03        	bne	$43c7 <printf+0xb3d>
    43c4: 4c 3e 43     	jmp	$433e <printf+0xab4>
    43c7: c5 70        	cmp	$70                     ; 0x2070 <parse+0x303>
    43c9: f0 03        	beq	$43ce <printf+0xb44>
    43cb: 4c 6c 43     	jmp	$436c <printf+0xae2>
    43ce: a6 6f        	ldx	$6f                     ; 0x206f <parse+0x302>
    43d0: 86 12        	stx	$12                     ; 0x2012 <parse+0x2a5>
    43d2: a6 14        	ldx	$14                     ; 0x2014 <parse+0x2a7>
    43d4: e4 12        	cpx	$12                     ; 0x2012 <parse+0x2a5>
    43d6: b0 be        	bcs	$4396 <printf+0xb0c>
    43d8: 4c 70 43     	jmp	$4370 <printf+0xae6>
    43db: 86 12        	stx	$12                     ; 0x2012 <parse+0x2a5>
    43dd: c5 12        	cmp	$12                     ; 0x2012 <parse+0x2a5>
    43df: 98           	tya
    43e0: a0 01        	ldy	#$1
    43e2: 90 20        	bcc	$4404 <printf+0xb7a>
    43e4: a6 13        	ldx	$13                     ; 0x2013 <parse+0x2a6>
    43e6: d0 03        	bne	$43eb <printf+0xb61>
    43e8: aa           	tax
    43e9: f0 19        	beq	$4404 <printf+0xb7a>
    43eb: 18           	clc
    43ec: 65 75        	adc	$75                     ; 0x2075 <parse+0x308>
    43ee: 85 12        	sta	$12                     ; 0x2012 <parse+0x2a5>
    43f0: a5 13        	lda	$13                     ; 0x2013 <parse+0x2a6>
    43f2: 65 76        	adc	$76                     ; 0x2076 <parse+0x309>
    43f4: 85 13        	sta	$13                     ; 0x2013 <parse+0x2a6>
    43f6: a2 ff        	ldx	#$ff
    43f8: c6 12        	dec	$12                     ; 0x2012 <parse+0x2a5>
    43fa: e4 12        	cpx	$12                     ; 0x2012 <parse+0x2a5>
    43fc: d0 02        	bne	$4400 <printf+0xb76>
    43fe: c6 13        	dec	$13                     ; 0x2013 <parse+0x2a6>
    4400: a9 00        	lda	#$0
    4402: 92 12        	sta	($12)                   ; 0x2012 <parse+0x2a5>
    4404: e6 3e        	inc	$3e                     ; 0x203e <parse+0x2d1>
    4406: d0 02        	bne	$440a <printf+0xb80>
    4408: e6 3f        	inc	$3f                     ; 0x203f <parse+0x2d2>
    440a: a6 3f        	ldx	$3f                     ; 0x203f <parse+0x2d2>
    440c: e4 43        	cpx	$43                     ; 0x2043 <parse+0x2d6>
    440e: f0 03        	beq	$4413 <printf+0xb89>
    4410: 4c ef 38     	jmp	$38ef <printf+0x65>
    4413: a6 3e        	ldx	$3e                     ; 0x203e <parse+0x2d1>
    4415: e4 42        	cpx	$42                     ; 0x2042 <parse+0x2d5>
    4417: f0 03        	beq	$441c <printf+0xb92>
    4419: 4c ef 38     	jmp	$38ef <printf+0x65>
    441c: b2 42        	lda	($42)                   ; 0x2042 <parse+0x2d5>
    441e: a2 00        	ldx	#$0
    4420: a0 00        	ldy	#$0
    4422: 84 40        	sty	$40                     ; 0x2040 <parse+0x2d3>
    4424: a0 00        	ldy	#$0
    4426: 84 41        	sty	$41                     ; 0x2041 <parse+0x2d4>
    4428: 4c 05 39     	jmp	$3905 <printf+0x7b>
    442b: e4 45        	cpx	$45                     ; 0x2045 <parse+0x2d8>
    442d: a6 3d        	ldx	$3d                     ; 0x203d <parse+0x2d0>
    442f: b0 03        	bcs	$4434 <printf+0xbaa>
    4431: 4c 43 3f     	jmp	$3f43 <printf+0x6b9>
    4434: a5 3c        	lda	$3c                     ; 0x203c <parse+0x2cf>
    4436: 85 44        	sta	$44                     ; 0x2044 <parse+0x2d7>
    4438: 64 45        	stz	$45                     ; 0x2045 <parse+0x2d8>
    443a: e6 44        	inc	$44                     ; 0x2044 <parse+0x2d7>
    443c: f0 03        	beq	$4441 <printf+0xbb7>
    443e: 4c 43 3f     	jmp	$3f43 <printf+0x6b9>
    4441: e6 45        	inc	$45                     ; 0x2045 <parse+0x2d8>
    4443: 4c 43 3f     	jmp	$3f43 <printf+0x6b9>
    4446: a2 58        	ldx	#$58
    4448: 86 86        	stx	$86                     ; 0x2086 <parse+0x319>
    444a: a2 01        	ldx	#$1
    444c: 86 81        	stx	$81                     ; 0x2081 <parse+0x314>
    444e: a2 30        	ldx	#$30
    4450: 86 85        	stx	$85                     ; 0x2085 <parse+0x318>
    4452: a9 02        	lda	#$2
    4454: a2 00        	ldx	#$0
    4456: 86 82        	stx	$82                     ; 0x2082 <parse+0x315>
    4458: 4c 84 3f     	jmp	$3f84 <printf+0x6fa>
    445b: 64 47        	stz	$47                     ; 0x2047 <parse+0x2da>
    445d: 64 46        	stz	$46                     ; 0x2046 <parse+0x2d9>
    445f: 4c b5 41     	jmp	$41b5 <printf+0x92b>
    4462: 60           	rts

00004463 <putchar>:
    4463: 86 12        	stx	$12                     ; 0x2012 <parse+0x2a5>
    4465: 85 94        	sta	$94                     ; 0x2094 <parse+0x327>
    4467: 85 32        	sta	$32                     ; 0x2032 <parse+0x2c5>
    4469: a6 01        	ldx	$1                      ; 0x2001 <parse+0x294>
    446b: 86 93        	stx	$93                     ; 0x2093 <parse+0x326>
    446d: a6 31        	ldx	$31                     ; 0x2031 <parse+0x2c4>
    446f: a0 50        	ldy	#$50
    4471: 8c 00 de     	sty	$de00                   ; 0xde00 <__heap_start+0x799c>
    4474: 9c 01 de     	stz	$de01                   ; 0xde01 <__heap_start+0x799d>
    4477: 8e 02 de     	stx	$de02                   ; 0xde02 <__heap_start+0x799e>
    447a: 9c 03 de     	stz	$de03                   ; 0xde03 <__heap_start+0x799f>
    447d: ad 10 de     	lda	$de10                   ; 0xde10 <__heap_start+0x79ac>
    4480: ac 11 de     	ldy	$de11                   ; 0xde11 <__heap_start+0x79ad>
    4483: ae 12 de     	ldx	$de12                   ; 0xde12 <__heap_start+0x79ae>
    4486: 86 1a        	stx	$1a                     ; 0x201a <parse+0x2ad>
    4488: ae 13 de     	ldx	$de13                   ; 0xde13 <__heap_start+0x79af>
    448b: 86 1b        	stx	$1b                     ; 0x201b <parse+0x2ae>
    448d: 9c 08 de     	stz	$de08                   ; 0xde08 <__heap_start+0x79a4>
    4490: a2 c0        	ldx	#$c0
    4492: 8e 09 de     	stx	$de09                   ; 0xde09 <__heap_start+0x79a5>
    4495: 9c 0a de     	stz	$de0a                   ; 0xde0a <__heap_start+0x79a6>
    4498: 9c 0b de     	stz	$de0b                   ; 0xde0b <__heap_start+0x79a7>
    449b: 8d 0c de     	sta	$de0c                   ; 0xde0c <__heap_start+0x79a8>
    449e: 8c 0d de     	sty	$de0d                   ; 0xde0d <__heap_start+0x79a9>
    44a1: 64 13        	stz	$13                     ; 0x2013 <parse+0x2a6>
    44a3: a2 00        	ldx	#$0
    44a5: 86 14        	stx	$14                     ; 0x2014 <parse+0x2a7>
    44a7: a2 c0        	ldx	#$c0
    44a9: 86 15        	stx	$15                     ; 0x2015 <parse+0x2a8>
    44ab: a2 11        	ldx	#$11
    44ad: 86 16        	stx	$16                     ; 0x2016 <parse+0x2a9>
    44af: a2 c9        	ldx	#$c9
    44b1: 86 17        	stx	$17                     ; 0x2017 <parse+0x2aa>
    44b3: a2 10        	ldx	#$10
    44b5: 86 18        	stx	$18                     ; 0x2018 <parse+0x2ab>
    44b7: a2 c9        	ldx	#$c9
    44b9: 86 19        	stx	$19                     ; 0x2019 <parse+0x2ac>
    44bb: a6 1a        	ldx	$1a                     ; 0x201a <parse+0x2ad>
    44bd: 8e 0e de     	stx	$de0e                   ; 0xde0e <__heap_start+0x79aa>
    44c0: a6 1b        	ldx	$1b                     ; 0x201b <parse+0x2ae>
    44c2: 8e 0f de     	stx	$de0f                   ; 0xde0f <__heap_start+0x79ab>
    44c5: ad 18 de     	lda	$de18                   ; 0xde18 <__heap_start+0x79b4>
    44c8: ac 19 de     	ldy	$de19                   ; 0xde19 <__heap_start+0x79b5>
    44cb: ae 1a de     	ldx	$de1a                   ; 0xde1a <__heap_start+0x79b6>
    44ce: ae 1b de     	ldx	$de1b                   ; 0xde1b <__heap_start+0x79b7>
    44d1: 85 1c        	sta	$1c                     ; 0x201c <parse+0x2af>
    44d3: 84 1d        	sty	$1d                     ; 0x201d <parse+0x2b0>
    44d5: 64 1a        	stz	$1a                     ; 0x201a <parse+0x2ad>
    44d7: 80 13        	bra	$44ec <putchar+0x89>
    44d9: a5 1c        	lda	$1c                     ; 0x201c <parse+0x2af>
    44db: 18           	clc
    44dc: 69 50        	adc	#$50
    44de: 85 1c        	sta	$1c                     ; 0x201c <parse+0x2af>
    44e0: a5 1d        	lda	$1d                     ; 0x201d <parse+0x2b0>
    44e2: 69 00        	adc	#$0
    44e4: 85 1d        	sta	$1d                     ; 0x201d <parse+0x2b0>
    44e6: e6 13        	inc	$13                     ; 0x2013 <parse+0x2a6>
    44e8: d0 02        	bne	$44ec <putchar+0x89>
    44ea: e6 1a        	inc	$1a                     ; 0x201a <parse+0x2ad>
    44ec: a9 32        	lda	#$32
    44ee: 18           	clc
    44ef: 65 13        	adc	$13                     ; 0x2013 <parse+0x2a6>
    44f1: 85 1e        	sta	$1e                     ; 0x201e <parse+0x2b1>
    44f3: a9 00        	lda	#$0
    44f5: 65 1a        	adc	$1a                     ; 0x201a <parse+0x2ad>
    44f7: 85 1f        	sta	$1f                     ; 0x201f <parse+0x2b2>
    44f9: b2 1e        	lda	($1e)                   ; 0x201e <parse+0x2b1>
    44fb: c9 0a        	cmp	#$a
    44fd: f0 26        	beq	$4525 <putchar+0xc2>
    44ff: c9 0d        	cmp	#$d
    4501: f0 22        	beq	$4525 <putchar+0xc2>
    4503: aa           	tax
    4504: d0 03        	bne	$4509 <putchar+0xa6>
    4506: 4c 0a 46     	jmp	$460a <putchar+0x1a7>
    4509: a2 03        	ldx	#$3
    450b: 86 01        	stx	$1                      ; 0x2001 <parse+0x294>
    450d: a4 30        	ldy	$30                     ; 0x2030 <parse+0x2c3>
    450f: a9 f0        	lda	#$f0
    4511: 91 1c        	sta	($1c),y                 ; 0x201c <parse+0x2af>
    4513: ca           	dex
    4514: 86 01        	stx	$1                      ; 0x2001 <parse+0x294>
    4516: b2 1e        	lda	($1e)                   ; 0x201e <parse+0x2b1>
    4518: a4 30        	ldy	$30                     ; 0x2030 <parse+0x2c3>
    451a: 91 1c        	sta	($1c),y                 ; 0x201c <parse+0x2af>
    451c: a6 30        	ldx	$30                     ; 0x2030 <parse+0x2c3>
    451e: e8           	inx
    451f: e6 30        	inc	$30                     ; 0x2030 <parse+0x2c3>
    4521: e0 50        	cpx	#$50
    4523: d0 c1        	bne	$44e6 <putchar+0x83>
    4525: 64 30        	stz	$30                     ; 0x2030 <parse+0x2c3>
    4527: a6 31        	ldx	$31                     ; 0x2031 <parse+0x2c4>
    4529: e8           	inx
    452a: e6 31        	inc	$31                     ; 0x2031 <parse+0x2c4>
    452c: e0 1e        	cpx	#$1e
    452e: f0 03        	beq	$4533 <putchar+0xd0>
    4530: 4c d9 44     	jmp	$44d9 <putchar+0x76>
    4533: a2 03        	ldx	#$3
    4535: 86 01        	stx	$1                      ; 0x2001 <parse+0x294>
    4537: a2 01        	ldx	#$1
    4539: 86 1b        	stx	$1b                     ; 0x201b <parse+0x2ae>
    453b: a2 09        	ldx	#$9
    453d: a0 10        	ldy	#$10
    453f: a9 00        	lda	#$0
    4541: 85 1c        	sta	$1c                     ; 0x201c <parse+0x2af>
    4543: a9 c0        	lda	#$c0
    4545: 85 1d        	sta	$1d                     ; 0x201d <parse+0x2b0>
    4547: 84 1e        	sty	$1e                     ; 0x201e <parse+0x2b1>
    4549: a0 50        	ldy	#$50
    454b: b1 1c        	lda	($1c),y                 ; 0x201c <parse+0x2af>
    454d: 92 1c        	sta	($1c)                   ; 0x201c <parse+0x2af>
    454f: a0 ff        	ldy	#$ff
    4551: c6 1e        	dec	$1e                     ; 0x201e <parse+0x2b1>
    4553: c4 1e        	cpy	$1e                     ; 0x201e <parse+0x2b1>
    4555: d0 01        	bne	$4558 <putchar+0xf5>
    4557: ca           	dex
    4558: e6 1c        	inc	$1c                     ; 0x201c <parse+0x2af>
    455a: d0 02        	bne	$455e <putchar+0xfb>
    455c: e6 1d        	inc	$1d                     ; 0x201d <parse+0x2b0>
    455e: 8a           	txa
    455f: d0 e8        	bne	$4549 <putchar+0xe6>
    4561: a5 1e        	lda	$1e                     ; 0x201e <parse+0x2b1>
    4563: d0 e4        	bne	$4549 <putchar+0xe6>
    4565: a2 02        	ldx	#$2
    4567: 86 01        	stx	$1                      ; 0x2001 <parse+0x294>
    4569: a2 00        	ldx	#$0
    456b: a5 1b        	lda	$1b                     ; 0x201b <parse+0x2ae>
    456d: d0 ca        	bne	$4539 <putchar+0xd6>
    456f: a2 03        	ldx	#$3
    4571: 86 01        	stx	$1                      ; 0x2001 <parse+0x294>
    4573: a2 50        	ldx	#$50
    4575: a0 11        	ldy	#$11
    4577: 84 1c        	sty	$1c                     ; 0x201c <parse+0x2af>
    4579: a0 c9        	ldy	#$c9
    457b: 84 1d        	sty	$1d                     ; 0x201d <parse+0x2b0>
    457d: a0 10        	ldy	#$10
    457f: 84 1e        	sty	$1e                     ; 0x201e <parse+0x2b1>
    4581: a0 c9        	ldy	#$c9
    4583: 84 1f        	sty	$1f                     ; 0x201f <parse+0x2b2>
    4585: a9 f0        	lda	#$f0
    4587: a4 1c        	ldy	$1c                     ; 0x201c <parse+0x2af>
    4589: 84 22        	sty	$22                     ; 0x2022 <parse+0x2b5>
    458b: a4 1d        	ldy	$1d                     ; 0x201d <parse+0x2b0>
    458d: 84 23        	sty	$23                     ; 0x2023 <parse+0x2b6>
    458f: 92 1e        	sta	($1e)                   ; 0x201e <parse+0x2b1>
    4591: e6 1c        	inc	$1c                     ; 0x201c <parse+0x2af>
    4593: d0 02        	bne	$4597 <putchar+0x134>
    4595: e6 1d        	inc	$1d                     ; 0x201d <parse+0x2b0>
    4597: ca           	dex
    4598: a4 22        	ldy	$22                     ; 0x2022 <parse+0x2b5>
    459a: 84 1e        	sty	$1e                     ; 0x201e <parse+0x2b1>
    459c: a4 23        	ldy	$23                     ; 0x2023 <parse+0x2b6>
    459e: 84 1f        	sty	$1f                     ; 0x201f <parse+0x2b2>
    45a0: e0 00        	cpx	#$0
    45a2: d0 e3        	bne	$4587 <putchar+0x124>
    45a4: a2 02        	ldx	#$2
    45a6: 86 01        	stx	$1                      ; 0x2001 <parse+0x294>
    45a8: a2 50        	ldx	#$50
    45aa: a0 11        	ldy	#$11
    45ac: 84 1c        	sty	$1c                     ; 0x201c <parse+0x2af>
    45ae: a0 c9        	ldy	#$c9
    45b0: 84 1d        	sty	$1d                     ; 0x201d <parse+0x2b0>
    45b2: a0 10        	ldy	#$10
    45b4: 84 1e        	sty	$1e                     ; 0x201e <parse+0x2b1>
    45b6: a0 c9        	ldy	#$c9
    45b8: 84 1f        	sty	$1f                     ; 0x201f <parse+0x2b2>
    45ba: a9 20        	lda	#$20
    45bc: a4 1c        	ldy	$1c                     ; 0x201c <parse+0x2af>
    45be: 84 22        	sty	$22                     ; 0x2022 <parse+0x2b5>
    45c0: a4 1d        	ldy	$1d                     ; 0x201d <parse+0x2b0>
    45c2: 84 23        	sty	$23                     ; 0x2023 <parse+0x2b6>
    45c4: 92 1e        	sta	($1e)                   ; 0x201e <parse+0x2b1>
    45c6: e6 1c        	inc	$1c                     ; 0x201c <parse+0x2af>
    45c8: d0 02        	bne	$45cc <putchar+0x169>
    45ca: e6 1d        	inc	$1d                     ; 0x201d <parse+0x2b0>
    45cc: ca           	dex
    45cd: a4 22        	ldy	$22                     ; 0x2022 <parse+0x2b5>
    45cf: 84 1e        	sty	$1e                     ; 0x201e <parse+0x2b1>
    45d1: a4 23        	ldy	$23                     ; 0x2023 <parse+0x2b6>
    45d3: 84 1f        	sty	$1f                     ; 0x201f <parse+0x2b2>
    45d5: e0 00        	cpx	#$0
    45d7: d0 e3        	bne	$45bc <putchar+0x159>
    45d9: c6 31        	dec	$31                     ; 0x2031 <parse+0x2c4>
    45db: 9c 08 de     	stz	$de08                   ; 0xde08 <__heap_start+0x79a4>
    45de: a2 c0        	ldx	#$c0
    45e0: 8e 09 de     	stx	$de09                   ; 0xde09 <__heap_start+0x79a5>
    45e3: 9c 0a de     	stz	$de0a                   ; 0xde0a <__heap_start+0x79a6>
    45e6: 9c 0b de     	stz	$de0b                   ; 0xde0b <__heap_start+0x79a7>
    45e9: a2 1d        	ldx	#$1d
    45eb: 8e 0c de     	stx	$de0c                   ; 0xde0c <__heap_start+0x79a8>
    45ee: 9c 0d de     	stz	$de0d                   ; 0xde0d <__heap_start+0x79a9>
    45f1: 9c 0e de     	stz	$de0e                   ; 0xde0e <__heap_start+0x79aa>
    45f4: 9c 0f de     	stz	$de0f                   ; 0xde0f <__heap_start+0x79ab>
    45f7: ad 18 de     	lda	$de18                   ; 0xde18 <__heap_start+0x79b4>
    45fa: ac 19 de     	ldy	$de19                   ; 0xde19 <__heap_start+0x79b5>
    45fd: ae 1a de     	ldx	$de1a                   ; 0xde1a <__heap_start+0x79b6>
    4600: ae 1b de     	ldx	$de1b                   ; 0xde1b <__heap_start+0x79b7>
    4603: 85 1c        	sta	$1c                     ; 0x201c <parse+0x2af>
    4605: 84 1d        	sty	$1d                     ; 0x201d <parse+0x2b0>
    4607: 4c e6 44     	jmp	$44e6 <putchar+0x83>
    460a: a6 93        	ldx	$93                     ; 0x2093 <parse+0x326>
    460c: 86 01        	stx	$1                      ; 0x2001 <parse+0x294>
    460e: a6 30        	ldx	$30                     ; 0x2030 <parse+0x2c3>
    4610: a4 31        	ldy	$31                     ; 0x2031 <parse+0x2c4>
    4612: 8e 14 d0     	stx	$d014                   ; 0xd014 <__heap_start+0x6bb0>
    4615: 9c 15 d0     	stz	$d015                   ; 0xd015 <__heap_start+0x6bb1>
    4618: 84 31        	sty	$31                     ; 0x2031 <parse+0x2c4>
    461a: 8c 16 d0     	sty	$d016                   ; 0xd016 <__heap_start+0x6bb2>
    461d: 9c 17 d0     	stz	$d017                   ; 0xd017 <__heap_start+0x6bb3>
    4620: a6 12        	ldx	$12                     ; 0x2012 <parse+0x2a5>
    4622: a5 94        	lda	$94                     ; 0x2094 <parse+0x327>
    4624: 60           	rts

00004625 <puts>:
    4625: b2 12        	lda	($12)                   ; 0x2012 <parse+0x2a5>
    4627: f0 2e        	beq	$4657 <puts+0x32>
    4629: a6 12        	ldx	$12                     ; 0x2012 <parse+0x2a5>
    462b: 86 3c        	stx	$3c                     ; 0x203c <parse+0x2cf>
    462d: a6 13        	ldx	$13                     ; 0x2013 <parse+0x2a6>
    462f: 86 3d        	stx	$3d                     ; 0x203d <parse+0x2d0>
    4631: a2 00        	ldx	#$0
    4633: 86 40        	stx	$40                     ; 0x2040 <parse+0x2d3>
    4635: a6 12        	ldx	$12                     ; 0x2012 <parse+0x2a5>
    4637: 86 3e        	stx	$3e                     ; 0x203e <parse+0x2d1>
    4639: a6 13        	ldx	$13                     ; 0x2013 <parse+0x2a6>
    463b: 86 3f        	stx	$3f                     ; 0x203f <parse+0x2d2>
    463d: e6 3e        	inc	$3e                     ; 0x203e <parse+0x2d1>
    463f: d0 02        	bne	$4643 <puts+0x1e>
    4641: e6 3f        	inc	$3f                     ; 0x203f <parse+0x2d2>
    4643: a6 40        	ldx	$40                     ; 0x2040 <parse+0x2d3>
    4645: 20 63 44     	jsr	$4463 <putchar>
    4648: a0 01        	ldy	#$1
    464a: b1 3c        	lda	($3c),y                 ; 0x203c <parse+0x2cf>
    464c: a6 3e        	ldx	$3e                     ; 0x203e <parse+0x2d1>
    464e: 86 3c        	stx	$3c                     ; 0x203c <parse+0x2cf>
    4650: a6 3f        	ldx	$3f                     ; 0x203f <parse+0x2d2>
    4652: 86 3d        	stx	$3d                     ; 0x203d <parse+0x2d0>
    4654: aa           	tax
    4655: d0 e6        	bne	$463d <puts+0x18>
    4657: a9 0a        	lda	#$a
    4659: a2 00        	ldx	#$0
    465b: 4c 63 44     	jmp	$4463 <putchar>

0000465e <malloc>:
    465e: a8           	tay
    465f: 8a           	txa
    4660: a2 00        	ldx	#$0
    4662: 86 12        	stx	$12                     ; 0x2012 <parse+0x2a5>
    4664: a2 00        	ldx	#$0
    4666: 86 13        	stx	$13                     ; 0x2013 <parse+0x2a6>
    4668: aa           	tax
    4669: d0 07        	bne	$4672 <malloc+0x14>
    466b: c0 00        	cpy	#$0
    466d: d0 03        	bne	$4672 <malloc+0x14>
    466f: 4c 64 47     	jmp	$4764 <malloc+0x106>
    4672: 84 16        	sty	$16                     ; 0x2016 <parse+0x2a9>
    4674: aa           	tax
    4675: d0 0e        	bne	$4685 <malloc+0x27>
    4677: a6 16        	ldx	$16                     ; 0x2016 <parse+0x2a9>
    4679: e0 07        	cpx	#$7
    467b: b0 0c        	bcs	$4689 <malloc+0x2b>
    467d: a2 08        	ldx	#$8
    467f: 86 40        	stx	$40                     ; 0x2040 <parse+0x2d3>
    4681: a9 00        	lda	#$0
    4683: 80 2f        	bra	$46b4 <malloc+0x56>
    4685: c9 00        	cmp	#$0
    4687: 90 f4        	bcc	$467d <malloc+0x1f>
    4689: a8           	tay
    468a: a5 16        	lda	$16                     ; 0x2016 <parse+0x2a9>
    468c: 29 01        	and	#$1
    468e: a2 02        	ldx	#$2
    4690: 64 14        	stz	$14                     ; 0x2014 <parse+0x2a7>
    4692: c9 00        	cmp	#$0
    4694: f0 02        	beq	$4698 <malloc+0x3a>
    4696: a2 03        	ldx	#$3
    4698: 86 15        	stx	$15                     ; 0x2015 <parse+0x2a8>
    469a: 18           	clc
    469b: a5 16        	lda	$16                     ; 0x2016 <parse+0x2a9>
    469d: 65 15        	adc	$15                     ; 0x2015 <parse+0x2a8>
    469f: aa           	tax
    46a0: 98           	tya
    46a1: 65 14        	adc	$14                     ; 0x2014 <parse+0x2a7>
    46a3: 90 03        	bcc	$46a8 <malloc+0x4a>
    46a5: 4c 64 47     	jmp	$4764 <malloc+0x106>
    46a8: 86 40        	stx	$40                     ; 0x2040 <parse+0x2d3>
    46aa: a8           	tay
    46ab: d0 07        	bne	$46b4 <malloc+0x56>
    46ad: e0 00        	cpx	#$0
    46af: d0 03        	bne	$46b4 <malloc+0x56>
    46b1: 4c 64 47     	jmp	$4764 <malloc+0x106>
    46b4: 85 3f        	sta	$3f                     ; 0x203f <parse+0x2d2>
    46b6: ad 5d 64     	lda	$645d                   ; 0x645d <__bss_start>
    46b9: 29 01        	and	#$1
    46bb: d0 2d        	bne	$46ea <malloc+0x8c>
    46bd: a9 00        	lda	#$0
    46bf: a2 10        	ldx	#$10
    46c1: a0 64        	ldy	#$64
    46c3: 84 12        	sty	$12                     ; 0x2012 <parse+0x2a5>
    46c5: a0 64        	ldy	#$64
    46c7: 84 13        	sty	$13                     ; 0x2013 <parse+0x2a6>
    46c9: 20 16 03     	jsr	$316 <_ZN12_GLOBAL__N_19FreeChunk6insertEPvj>
    46cc: a2 00        	ldx	#$0
    46ce: 86 12        	stx	$12                     ; 0x2012 <parse+0x2a5>
    46d0: a2 00        	ldx	#$0
    46d2: 86 13        	stx	$13                     ; 0x2013 <parse+0x2a6>
    46d4: ae 65 64     	ldx	$6465                   ; 0x6465 <__heap_start+0x1>
    46d7: a9 fe        	lda	#$fe
    46d9: 2d 64 64     	and	$6464                   ; 0x6464 <__heap_start>
    46dc: 8d 64 64     	sta	$6464                   ; 0x6464 <__heap_start>
    46df: 8e 65 64     	stx	$6465                   ; 0x6465 <__heap_start+0x1>
    46e2: a2 01        	ldx	#$1
    46e4: 8e 5e 64     	stx	$645e                   ; 0x645e <_ZN12_GLOBAL__N_19last_freeE>
    46e7: 8e 5d 64     	stx	$645d                   ; 0x645d <__bss_start>
    46ea: ae 61 64     	ldx	$6461                   ; 0x6461 <_ZN12_GLOBAL__N_19free_listE>
    46ed: 86 16        	stx	$16                     ; 0x2016 <parse+0x2a9>
    46ef: ac 62 64     	ldy	$6462                   ; 0x6462 <_ZN12_GLOBAL__N_19free_listE+0x1>
    46f2: 84 17        	sty	$17                     ; 0x2017 <parse+0x2aa>
    46f4: a9 00        	lda	#$0
    46f6: 85 14        	sta	$14                     ; 0x2014 <parse+0x2a7>
    46f8: a9 00        	lda	#$0
    46fa: 85 15        	sta	$15                     ; 0x2015 <parse+0x2a8>
    46fc: c4 15        	cpy	$15                     ; 0x2015 <parse+0x2a8>
    46fe: d0 07        	bne	$4707 <malloc+0xa9>
    4700: e4 14        	cpx	$14                     ; 0x2014 <parse+0x2a7>
    4702: d0 03        	bne	$4707 <malloc+0xa9>
    4704: 4c 64 47     	jmp	$4764 <malloc+0x106>
    4707: a2 00        	ldx	#$0
    4709: a0 10        	ldy	#$10
    470b: 86 14        	stx	$14                     ; 0x2014 <parse+0x2a7>
    470d: 84 15        	sty	$15                     ; 0x2015 <parse+0x2a8>
    470f: 18           	clc
    4710: a9 64        	lda	#$64
    4712: 65 14        	adc	$14                     ; 0x2014 <parse+0x2a7>
    4714: 85 18        	sta	$18                     ; 0x2018 <parse+0x2ab>
    4716: a9 64        	lda	#$64
    4718: 65 15        	adc	$15                     ; 0x2015 <parse+0x2a8>
    471a: 85 43        	sta	$43                     ; 0x2043 <parse+0x2d6>
    471c: a0 01        	ldy	#$1
    471e: a6 3f        	ldx	$3f                     ; 0x203f <parse+0x2d2>
    4720: 86 19        	stx	$19                     ; 0x2019 <parse+0x2ac>
    4722: a6 16        	ldx	$16                     ; 0x2016 <parse+0x2a9>
    4724: 86 14        	stx	$14                     ; 0x2014 <parse+0x2a7>
    4726: a6 17        	ldx	$17                     ; 0x2017 <parse+0x2aa>
    4728: 86 15        	stx	$15                     ; 0x2015 <parse+0x2a8>
    472a: b1 14        	lda	($14),y                 ; 0x2014 <parse+0x2a7>
    472c: c5 19        	cmp	$19                     ; 0x2019 <parse+0x2ac>
    472e: d0 0e        	bne	$473e <malloc+0xe0>
    4730: b2 14        	lda	($14)                   ; 0x2014 <parse+0x2a7>
    4732: 29 fe        	and	#$fe
    4734: a6 40        	ldx	$40                     ; 0x2040 <parse+0x2d3>
    4736: 86 1a        	stx	$1a                     ; 0x201a <parse+0x2ad>
    4738: c5 1a        	cmp	$1a                     ; 0x201a <parse+0x2ad>
    473a: b0 29        	bcs	$4765 <malloc+0x107>
    473c: 80 04        	bra	$4742 <malloc+0xe4>
    473e: c5 19        	cmp	$19                     ; 0x2019 <parse+0x2ac>
    4740: b0 23        	bcs	$4765 <malloc+0x107>
    4742: a5 14        	lda	$14                     ; 0x2014 <parse+0x2a7>
    4744: 18           	clc
    4745: 69 02        	adc	#$2
    4747: 85 1a        	sta	$1a                     ; 0x201a <parse+0x2ad>
    4749: a5 15        	lda	$15                     ; 0x2015 <parse+0x2a8>
    474b: 69 00        	adc	#$0
    474d: 85 1b        	sta	$1b                     ; 0x201b <parse+0x2ae>
    474f: a0 02        	ldy	#$2
    4751: b1 14        	lda	($14),y                 ; 0x2014 <parse+0x2a7>
    4753: 85 14        	sta	$14                     ; 0x2014 <parse+0x2a7>
    4755: 88           	dey
    4756: b1 1a        	lda	($1a),y                 ; 0x201a <parse+0x2ad>
    4758: 85 15        	sta	$15                     ; 0x2015 <parse+0x2a8>
    475a: c5 17        	cmp	$17                     ; 0x2017 <parse+0x2aa>
    475c: d0 cc        	bne	$472a <malloc+0xcc>
    475e: a5 14        	lda	$14                     ; 0x2014 <parse+0x2a7>
    4760: c5 16        	cmp	$16                     ; 0x2016 <parse+0x2a9>
    4762: d0 c6        	bne	$472a <malloc+0xcc>
    4764: 60           	rts
    4765: a6 18        	ldx	$18                     ; 0x2018 <parse+0x2ab>
    4767: 86 44        	stx	$44                     ; 0x2044 <parse+0x2d7>
    4769: a6 14        	ldx	$14                     ; 0x2014 <parse+0x2a7>
    476b: 86 12        	stx	$12                     ; 0x2012 <parse+0x2a5>
    476d: a6 15        	ldx	$15                     ; 0x2015 <parse+0x2a8>
    476f: 86 13        	stx	$13                     ; 0x2013 <parse+0x2a6>
    4771: a6 14        	ldx	$14                     ; 0x2014 <parse+0x2a7>
    4773: 86 41        	stx	$41                     ; 0x2041 <parse+0x2d4>
    4775: a6 15        	ldx	$15                     ; 0x2015 <parse+0x2a8>
    4777: 86 42        	stx	$42                     ; 0x2042 <parse+0x2d5>
    4779: 20 54 04     	jsr	$454 <_ZN12_GLOBAL__N_19FreeChunk6removeEv>
    477c: a6 41        	ldx	$41                     ; 0x2041 <parse+0x2d4>
    477e: 86 12        	stx	$12                     ; 0x2012 <parse+0x2a5>
    4780: a6 42        	ldx	$42                     ; 0x2042 <parse+0x2d5>
    4782: 86 13        	stx	$13                     ; 0x2013 <parse+0x2a6>
    4784: a0 01        	ldy	#$1
    4786: b1 12        	lda	($12),y                 ; 0x2012 <parse+0x2a5>
    4788: 85 15        	sta	$15                     ; 0x2015 <parse+0x2a8>
    478a: a9 fe        	lda	#$fe
    478c: 32 12        	and	($12)                   ; 0x2012 <parse+0x2a5>
    478e: 38           	sec
    478f: a6 40        	ldx	$40                     ; 0x2040 <parse+0x2d3>
    4791: 86 14        	stx	$14                     ; 0x2014 <parse+0x2a7>
    4793: 85 17        	sta	$17                     ; 0x2017 <parse+0x2aa>
    4795: e5 14        	sbc	$14                     ; 0x2014 <parse+0x2a7>
    4797: a8           	tay
    4798: a6 3f        	ldx	$3f                     ; 0x203f <parse+0x2d2>
    479a: 86 14        	stx	$14                     ; 0x2014 <parse+0x2a7>
    479c: a5 15        	lda	$15                     ; 0x2015 <parse+0x2a8>
    479e: 85 16        	sta	$16                     ; 0x2016 <parse+0x2a9>
    47a0: e5 14        	sbc	$14                     ; 0x2014 <parse+0x2a7>
    47a2: d0 06        	bne	$47aa <malloc+0x14c>
    47a4: 85 18        	sta	$18                     ; 0x2018 <parse+0x2ab>
    47a6: c0 08        	cpy	#$8
    47a8: 80 04        	bra	$47ae <malloc+0x150>
    47aa: 85 18        	sta	$18                     ; 0x2018 <parse+0x2ab>
    47ac: c9 00        	cmp	#$0
    47ae: a6 44        	ldx	$44                     ; 0x2044 <parse+0x2d7>
    47b0: 86 14        	stx	$14                     ; 0x2014 <parse+0x2a7>
    47b2: a6 43        	ldx	$43                     ; 0x2043 <parse+0x2d6>
    47b4: 86 15        	stx	$15                     ; 0x2015 <parse+0x2a8>
    47b6: a5 17        	lda	$17                     ; 0x2017 <parse+0x2aa>
    47b8: 90 42        	bcc	$47fc <malloc+0x19e>
    47ba: 18           	clc
    47bb: a5 40        	lda	$40                     ; 0x2040 <parse+0x2d3>
    47bd: 85 40        	sta	$40                     ; 0x2040 <parse+0x2d3>
    47bf: 65 12        	adc	$12                     ; 0x2012 <parse+0x2a5>
    47c1: 85 12        	sta	$12                     ; 0x2012 <parse+0x2a5>
    47c3: a6 3f        	ldx	$3f                     ; 0x203f <parse+0x2d2>
    47c5: 86 3f        	stx	$3f                     ; 0x203f <parse+0x2d2>
    47c7: a5 3f        	lda	$3f                     ; 0x203f <parse+0x2d2>
    47c9: 65 13        	adc	$13                     ; 0x2013 <parse+0x2a6>
    47cb: 85 13        	sta	$13                     ; 0x2013 <parse+0x2a6>
    47cd: a6 18        	ldx	$18                     ; 0x2018 <parse+0x2ab>
    47cf: 98           	tya
    47d0: 20 16 03     	jsr	$316 <_ZN12_GLOBAL__N_19FreeChunk6insertEPvj>
    47d3: a6 41        	ldx	$41                     ; 0x2041 <parse+0x2d4>
    47d5: 86 12        	stx	$12                     ; 0x2012 <parse+0x2a5>
    47d7: a6 42        	ldx	$42                     ; 0x2042 <parse+0x2d5>
    47d9: 86 13        	stx	$13                     ; 0x2013 <parse+0x2a6>
    47db: a5 40        	lda	$40                     ; 0x2040 <parse+0x2d3>
    47dd: 29 fe        	and	#$fe
    47df: 85 14        	sta	$14                     ; 0x2014 <parse+0x2a7>
    47e1: a0 01        	ldy	#$1
    47e3: 98           	tya
    47e4: 32 12        	and	($12)                   ; 0x2012 <parse+0x2a5>
    47e6: 05 14        	ora	$14                     ; 0x2014 <parse+0x2a7>
    47e8: 92 12        	sta	($12)                   ; 0x2012 <parse+0x2a5>
    47ea: a5 3f        	lda	$3f                     ; 0x203f <parse+0x2d2>
    47ec: 91 12        	sta	($12),y                 ; 0x2012 <parse+0x2a5>
    47ee: a5 14        	lda	$14                     ; 0x2014 <parse+0x2a7>
    47f0: a6 3f        	ldx	$3f                     ; 0x203f <parse+0x2d2>
    47f2: 86 16        	stx	$16                     ; 0x2016 <parse+0x2a9>
    47f4: a6 44        	ldx	$44                     ; 0x2044 <parse+0x2d7>
    47f6: 86 14        	stx	$14                     ; 0x2014 <parse+0x2a7>
    47f8: a6 43        	ldx	$43                     ; 0x2043 <parse+0x2d6>
    47fa: 86 15        	stx	$15                     ; 0x2015 <parse+0x2a8>
    47fc: 18           	clc
    47fd: 65 12        	adc	$12                     ; 0x2012 <parse+0x2a5>
    47ff: a8           	tay
    4800: a5 16        	lda	$16                     ; 0x2016 <parse+0x2a9>
    4802: 65 13        	adc	$13                     ; 0x2013 <parse+0x2a6>
    4804: c5 15        	cmp	$15                     ; 0x2015 <parse+0x2a8>
    4806: d0 09        	bne	$4811 <malloc+0x1b3>
    4808: c4 14        	cpy	$14                     ; 0x2014 <parse+0x2a7>
    480a: d0 05        	bne	$4811 <malloc+0x1b3>
    480c: 9c 5e 64     	stz	$645e                   ; 0x645e <_ZN12_GLOBAL__N_19last_freeE>
    480f: 80 14        	bra	$4825 <malloc+0x1c7>
    4811: 84 14        	sty	$14                     ; 0x2014 <parse+0x2a7>
    4813: 85 15        	sta	$15                     ; 0x2015 <parse+0x2a8>
    4815: a0 01        	ldy	#$1
    4817: b1 14        	lda	($14),y                 ; 0x2014 <parse+0x2a7>
    4819: 85 16        	sta	$16                     ; 0x2016 <parse+0x2a9>
    481b: a9 fe        	lda	#$fe
    481d: 32 14        	and	($14)                   ; 0x2014 <parse+0x2a7>
    481f: 92 14        	sta	($14)                   ; 0x2014 <parse+0x2a7>
    4821: a5 16        	lda	$16                     ; 0x2016 <parse+0x2a9>
    4823: 91 14        	sta	($14),y                 ; 0x2014 <parse+0x2a7>
    4825: a5 12        	lda	$12                     ; 0x2012 <parse+0x2a5>
    4827: 18           	clc
    4828: 69 02        	adc	#$2
    482a: 85 12        	sta	$12                     ; 0x2012 <parse+0x2a5>
    482c: a5 13        	lda	$13                     ; 0x2013 <parse+0x2a6>
    482e: 69 00        	adc	#$0
    4830: 85 13        	sta	$13                     ; 0x2013 <parse+0x2a6>
    4832: 60           	rts

00004833 <memcpy>:
    4833: a8           	tay
    4834: 8a           	txa
    4835: d0 03        	bne	$483a <memcpy+0x7>
    4837: 98           	tya
    4838: f0 24        	beq	$485e <memcpy+0x2b>
    483a: a5 12        	lda	$12                     ; 0x2012 <parse+0x2a5>
    483c: 85 16        	sta	$16                     ; 0x2016 <parse+0x2a9>
    483e: a5 13        	lda	$13                     ; 0x2013 <parse+0x2a6>
    4840: 85 17        	sta	$17                     ; 0x2017 <parse+0x2aa>
    4842: b2 14        	lda	($14)                   ; 0x2014 <parse+0x2a7>
    4844: 92 16        	sta	($16)                   ; 0x2016 <parse+0x2a9>
    4846: e6 16        	inc	$16                     ; 0x2016 <parse+0x2a9>
    4848: d0 02        	bne	$484c <memcpy+0x19>
    484a: e6 17        	inc	$17                     ; 0x2017 <parse+0x2aa>
    484c: e6 14        	inc	$14                     ; 0x2014 <parse+0x2a7>
    484e: d0 02        	bne	$4852 <memcpy+0x1f>
    4850: e6 15        	inc	$15                     ; 0x2015 <parse+0x2a8>
    4852: 88           	dey
    4853: c0 ff        	cpy	#$ff
    4855: d0 01        	bne	$4858 <memcpy+0x25>
    4857: ca           	dex
    4858: 8a           	txa
    4859: d0 e7        	bne	$4842 <memcpy+0xf>
    485b: 98           	tya
    485c: d0 e4        	bne	$4842 <memcpy+0xf>
    485e: 60           	rts

0000485f <__memset>:
    485f: a4 14        	ldy	$14                     ; 0x2014 <parse+0x2a7>
    4861: d0 04        	bne	$4867 <__memset+0x8>
    4863: e0 00        	cpx	#$0
    4865: f0 17        	beq	$487e <__memset+0x1f>
    4867: 92 12        	sta	($12)                   ; 0x2012 <parse+0x2a5>
    4869: e6 12        	inc	$12                     ; 0x2012 <parse+0x2a5>
    486b: d0 02        	bne	$486f <__memset+0x10>
    486d: e6 13        	inc	$13                     ; 0x2013 <parse+0x2a6>
    486f: ca           	dex
    4870: e0 ff        	cpx	#$ff
    4872: d0 02        	bne	$4876 <__memset+0x17>
    4874: c6 14        	dec	$14                     ; 0x2014 <parse+0x2a7>
    4876: a4 14        	ldy	$14                     ; 0x2014 <parse+0x2a7>
    4878: d0 ed        	bne	$4867 <__memset+0x8>
    487a: e0 00        	cpx	#$0
    487c: d0 e9        	bne	$4867 <__memset+0x8>
    487e: 60           	rts

0000487f <__ashldi3>:
    487f: 86 19        	stx	$19                     ; 0x2019 <parse+0x2ac>
    4881: a6 18        	ldx	$18                     ; 0x2018 <parse+0x2ab>
    4883: f0 16        	beq	$489b <__ashldi3+0x1c>
    4885: a6 18        	ldx	$18                     ; 0x2018 <parse+0x2ab>
    4887: ca           	dex
    4888: 0a           	asl
    4889: 26 19        	rol	$19                     ; 0x2019 <parse+0x2ac>
    488b: 26 12        	rol	$12                     ; 0x2012 <parse+0x2a5>
    488d: 26 13        	rol	$13                     ; 0x2013 <parse+0x2a6>
    488f: 26 14        	rol	$14                     ; 0x2014 <parse+0x2a7>
    4891: 26 15        	rol	$15                     ; 0x2015 <parse+0x2a8>
    4893: 26 16        	rol	$16                     ; 0x2016 <parse+0x2a9>
    4895: 26 17        	rol	$17                     ; 0x2017 <parse+0x2aa>
    4897: e0 00        	cpx	#$0
    4899: d0 ec        	bne	$4887 <__ashldi3+0x8>
    489b: a6 19        	ldx	$19                     ; 0x2019 <parse+0x2ac>
    489d: 60           	rts

0000489e <__lshrdi3>:
    489e: 86 19        	stx	$19                     ; 0x2019 <parse+0x2ac>
    48a0: a6 18        	ldx	$18                     ; 0x2018 <parse+0x2ab>
    48a2: f0 16        	beq	$48ba <__lshrdi3+0x1c>
    48a4: a6 18        	ldx	$18                     ; 0x2018 <parse+0x2ab>
    48a6: ca           	dex
    48a7: 46 17        	lsr	$17                     ; 0x2017 <parse+0x2aa>
    48a9: 66 16        	ror	$16                     ; 0x2016 <parse+0x2a9>
    48ab: 66 15        	ror	$15                     ; 0x2015 <parse+0x2a8>
    48ad: 66 14        	ror	$14                     ; 0x2014 <parse+0x2a7>
    48af: 66 13        	ror	$13                     ; 0x2013 <parse+0x2a6>
    48b1: 66 12        	ror	$12                     ; 0x2012 <parse+0x2a5>
    48b3: 66 19        	ror	$19                     ; 0x2019 <parse+0x2ac>
    48b5: 6a           	ror
    48b6: e0 00        	cpx	#$0
    48b8: d0 ec        	bne	$48a6 <__lshrdi3+0x8>
    48ba: a6 19        	ldx	$19                     ; 0x2019 <parse+0x2ac>
    48bc: 60           	rts

000048bd <__mulsi3>:
    48bd: a4 17        	ldy	$17                     ; 0x2017 <parse+0x2aa>
    48bf: d0 0f        	bne	$48d0 <__mulsi3+0x13>
    48c1: a4 16        	ldy	$16                     ; 0x2016 <parse+0x2a9>
    48c3: d0 0b        	bne	$48d0 <__mulsi3+0x13>
    48c5: a4 15        	ldy	$15                     ; 0x2015 <parse+0x2a8>
    48c7: d0 07        	bne	$48d0 <__mulsi3+0x13>
    48c9: a4 14        	ldy	$14                     ; 0x2014 <parse+0x2a7>
    48cb: d0 03        	bne	$48d0 <__mulsi3+0x13>
    48cd: 4c 24 49     	jmp	$4924 <__mulsi3+0x67>
    48d0: 85 18        	sta	$18                     ; 0x2018 <parse+0x2ab>
    48d2: 86 19        	stx	$19                     ; 0x2019 <parse+0x2ac>
    48d4: a0 00        	ldy	#$0
    48d6: a2 00        	ldx	#$0
    48d8: 64 1a        	stz	$1a                     ; 0x201a <parse+0x2ad>
    48da: 98           	tya
    48db: 46 17        	lsr	$17                     ; 0x2017 <parse+0x2aa>
    48dd: 66 16        	ror	$16                     ; 0x2016 <parse+0x2a9>
    48df: 66 15        	ror	$15                     ; 0x2015 <parse+0x2a8>
    48e1: 66 14        	ror	$14                     ; 0x2014 <parse+0x2a7>
    48e3: 90 15        	bcc	$48fa <__mulsi3+0x3d>
    48e5: 85 1b        	sta	$1b                     ; 0x201b <parse+0x2ae>
    48e7: 98           	tya
    48e8: 18           	clc
    48e9: 65 18        	adc	$18                     ; 0x2018 <parse+0x2ab>
    48eb: a8           	tay
    48ec: 8a           	txa
    48ed: 65 19        	adc	$19                     ; 0x2019 <parse+0x2ac>
    48ef: aa           	tax
    48f0: a5 1a        	lda	$1a                     ; 0x201a <parse+0x2ad>
    48f2: 65 12        	adc	$12                     ; 0x2012 <parse+0x2a5>
    48f4: 85 1a        	sta	$1a                     ; 0x201a <parse+0x2ad>
    48f6: a5 1b        	lda	$1b                     ; 0x201b <parse+0x2ae>
    48f8: 65 13        	adc	$13                     ; 0x2013 <parse+0x2a6>
    48fa: 06 18        	asl	$18                     ; 0x2018 <parse+0x2ab>
    48fc: 26 19        	rol	$19                     ; 0x2019 <parse+0x2ac>
    48fe: 26 12        	rol	$12                     ; 0x2012 <parse+0x2a5>
    4900: 26 13        	rol	$13                     ; 0x2013 <parse+0x2a6>
    4902: e6 17        	inc	$17                     ; 0x2017 <parse+0x2aa>
    4904: c6 17        	dec	$17                     ; 0x2017 <parse+0x2aa>
    4906: d0 d3        	bne	$48db <__mulsi3+0x1e>
    4908: e6 16        	inc	$16                     ; 0x2016 <parse+0x2a9>
    490a: c6 16        	dec	$16                     ; 0x2016 <parse+0x2a9>
    490c: d0 cd        	bne	$48db <__mulsi3+0x1e>
    490e: e6 15        	inc	$15                     ; 0x2015 <parse+0x2a8>
    4910: c6 15        	dec	$15                     ; 0x2015 <parse+0x2a8>
    4912: d0 c7        	bne	$48db <__mulsi3+0x1e>
    4914: e6 14        	inc	$14                     ; 0x2014 <parse+0x2a7>
    4916: c6 14        	dec	$14                     ; 0x2014 <parse+0x2a7>
    4918: d0 c1        	bne	$48db <__mulsi3+0x1e>
    491a: 5a           	phy
    491b: a4 1a        	ldy	$1a                     ; 0x201a <parse+0x2ad>
    491d: 84 12        	sty	$12                     ; 0x2012 <parse+0x2a5>
    491f: 7a           	ply
    4920: 85 13        	sta	$13                     ; 0x2013 <parse+0x2a6>
    4922: 98           	tya
    4923: 60           	rts
    4924: a0 00        	ldy	#$0
    4926: a2 00        	ldx	#$0
    4928: 64 1a        	stz	$1a                     ; 0x201a <parse+0x2ad>
    492a: 98           	tya
    492b: 80 ed        	bra	$491a <__mulsi3+0x5d>

0000492d <__muldi3>:
    492d: a4 1f        	ldy	$1f                     ; 0x201f <parse+0x2b2>
    492f: d0 1f        	bne	$4950 <__muldi3+0x23>
    4931: a4 1e        	ldy	$1e                     ; 0x201e <parse+0x2b1>
    4933: d0 1b        	bne	$4950 <__muldi3+0x23>
    4935: a4 1d        	ldy	$1d                     ; 0x201d <parse+0x2b0>
    4937: d0 17        	bne	$4950 <__muldi3+0x23>
    4939: a4 1c        	ldy	$1c                     ; 0x201c <parse+0x2af>
    493b: d0 13        	bne	$4950 <__muldi3+0x23>
    493d: a4 1b        	ldy	$1b                     ; 0x201b <parse+0x2ae>
    493f: d0 0f        	bne	$4950 <__muldi3+0x23>
    4941: a4 1a        	ldy	$1a                     ; 0x201a <parse+0x2ad>
    4943: d0 0b        	bne	$4950 <__muldi3+0x23>
    4945: a4 19        	ldy	$19                     ; 0x2019 <parse+0x2ac>
    4947: d0 07        	bne	$4950 <__muldi3+0x23>
    4949: a4 18        	ldy	$18                     ; 0x2018 <parse+0x2ab>
    494b: d0 03        	bne	$4950 <__muldi3+0x23>
    494d: 4c 14 4a     	jmp	$4a14 <__muldi3+0xe7>
    4950: 85 22        	sta	$22                     ; 0x2022 <parse+0x2b5>
    4952: 86 23        	stx	$23                     ; 0x2023 <parse+0x2b6>
    4954: a0 00        	ldy	#$0
    4956: a2 00        	ldx	#$0
    4958: 64 63        	stz	$63                     ; 0x2063 <parse+0x2f6>
    495a: 64 64        	stz	$64                     ; 0x2064 <parse+0x2f7>
    495c: 64 65        	stz	$65                     ; 0x2065 <parse+0x2f8>
    495e: 64 66        	stz	$66                     ; 0x2066 <parse+0x2f9>
    4960: 64 67        	stz	$67                     ; 0x2067 <parse+0x2fa>
    4962: 98           	tya
    4963: 46 1f        	lsr	$1f                     ; 0x201f <parse+0x2b2>
    4965: 66 1e        	ror	$1e                     ; 0x201e <parse+0x2b1>
    4967: 66 1d        	ror	$1d                     ; 0x201d <parse+0x2b0>
    4969: 66 1c        	ror	$1c                     ; 0x201c <parse+0x2af>
    496b: 66 1b        	ror	$1b                     ; 0x201b <parse+0x2ae>
    496d: 66 1a        	ror	$1a                     ; 0x201a <parse+0x2ad>
    496f: 66 19        	ror	$19                     ; 0x2019 <parse+0x2ac>
    4971: 66 18        	ror	$18                     ; 0x2018 <parse+0x2ab>
    4973: 90 2d        	bcc	$49a2 <__muldi3+0x75>
    4975: 85 68        	sta	$68                     ; 0x2068 <parse+0x2fb>
    4977: 98           	tya
    4978: 18           	clc
    4979: 65 22        	adc	$22                     ; 0x2022 <parse+0x2b5>
    497b: a8           	tay
    497c: 8a           	txa
    497d: 65 23        	adc	$23                     ; 0x2023 <parse+0x2b6>
    497f: aa           	tax
    4980: a5 63        	lda	$63                     ; 0x2063 <parse+0x2f6>
    4982: 65 12        	adc	$12                     ; 0x2012 <parse+0x2a5>
    4984: 85 63        	sta	$63                     ; 0x2063 <parse+0x2f6>
    4986: a5 64        	lda	$64                     ; 0x2064 <parse+0x2f7>
    4988: 65 13        	adc	$13                     ; 0x2013 <parse+0x2a6>
    498a: 85 64        	sta	$64                     ; 0x2064 <parse+0x2f7>
    498c: a5 65        	lda	$65                     ; 0x2065 <parse+0x2f8>
    498e: 65 14        	adc	$14                     ; 0x2014 <parse+0x2a7>
    4990: 85 65        	sta	$65                     ; 0x2065 <parse+0x2f8>
    4992: a5 66        	lda	$66                     ; 0x2066 <parse+0x2f9>
    4994: 65 15        	adc	$15                     ; 0x2015 <parse+0x2a8>
    4996: 85 66        	sta	$66                     ; 0x2066 <parse+0x2f9>
    4998: a5 67        	lda	$67                     ; 0x2067 <parse+0x2fa>
    499a: 65 16        	adc	$16                     ; 0x2016 <parse+0x2a9>
    499c: 85 67        	sta	$67                     ; 0x2067 <parse+0x2fa>
    499e: a5 68        	lda	$68                     ; 0x2068 <parse+0x2fb>
    49a0: 65 17        	adc	$17                     ; 0x2017 <parse+0x2aa>
    49a2: 06 22        	asl	$22                     ; 0x2022 <parse+0x2b5>
    49a4: 26 23        	rol	$23                     ; 0x2023 <parse+0x2b6>
    49a6: 26 12        	rol	$12                     ; 0x2012 <parse+0x2a5>
    49a8: 26 13        	rol	$13                     ; 0x2013 <parse+0x2a6>
    49aa: 26 14        	rol	$14                     ; 0x2014 <parse+0x2a7>
    49ac: 26 15        	rol	$15                     ; 0x2015 <parse+0x2a8>
    49ae: 26 16        	rol	$16                     ; 0x2016 <parse+0x2a9>
    49b0: 26 17        	rol	$17                     ; 0x2017 <parse+0x2aa>
    49b2: e6 1f        	inc	$1f                     ; 0x201f <parse+0x2b2>
    49b4: c6 1f        	dec	$1f                     ; 0x201f <parse+0x2b2>
    49b6: f0 03        	beq	$49bb <__muldi3+0x8e>
    49b8: 4c 63 49     	jmp	$4963 <__muldi3+0x36>
    49bb: e6 1e        	inc	$1e                     ; 0x201e <parse+0x2b1>
    49bd: c6 1e        	dec	$1e                     ; 0x201e <parse+0x2b1>
    49bf: f0 03        	beq	$49c4 <__muldi3+0x97>
    49c1: 4c 63 49     	jmp	$4963 <__muldi3+0x36>
    49c4: e6 1d        	inc	$1d                     ; 0x201d <parse+0x2b0>
    49c6: c6 1d        	dec	$1d                     ; 0x201d <parse+0x2b0>
    49c8: f0 03        	beq	$49cd <__muldi3+0xa0>
    49ca: 4c 63 49     	jmp	$4963 <__muldi3+0x36>
    49cd: e6 1c        	inc	$1c                     ; 0x201c <parse+0x2af>
    49cf: c6 1c        	dec	$1c                     ; 0x201c <parse+0x2af>
    49d1: f0 03        	beq	$49d6 <__muldi3+0xa9>
    49d3: 4c 63 49     	jmp	$4963 <__muldi3+0x36>
    49d6: e6 1b        	inc	$1b                     ; 0x201b <parse+0x2ae>
    49d8: c6 1b        	dec	$1b                     ; 0x201b <parse+0x2ae>
    49da: f0 03        	beq	$49df <__muldi3+0xb2>
    49dc: 4c 63 49     	jmp	$4963 <__muldi3+0x36>
    49df: e6 1a        	inc	$1a                     ; 0x201a <parse+0x2ad>
    49e1: c6 1a        	dec	$1a                     ; 0x201a <parse+0x2ad>
    49e3: f0 03        	beq	$49e8 <__muldi3+0xbb>
    49e5: 4c 63 49     	jmp	$4963 <__muldi3+0x36>
    49e8: e6 19        	inc	$19                     ; 0x2019 <parse+0x2ac>
    49ea: c6 19        	dec	$19                     ; 0x2019 <parse+0x2ac>
    49ec: f0 03        	beq	$49f1 <__muldi3+0xc4>
    49ee: 4c 63 49     	jmp	$4963 <__muldi3+0x36>
    49f1: e6 18        	inc	$18                     ; 0x2018 <parse+0x2ab>
    49f3: c6 18        	dec	$18                     ; 0x2018 <parse+0x2ab>
    49f5: f0 03        	beq	$49fa <__muldi3+0xcd>
    49f7: 4c 63 49     	jmp	$4963 <__muldi3+0x36>
    49fa: 5a           	phy
    49fb: a4 63        	ldy	$63                     ; 0x2063 <parse+0x2f6>
    49fd: 84 12        	sty	$12                     ; 0x2012 <parse+0x2a5>
    49ff: a4 64        	ldy	$64                     ; 0x2064 <parse+0x2f7>
    4a01: 84 13        	sty	$13                     ; 0x2013 <parse+0x2a6>
    4a03: a4 65        	ldy	$65                     ; 0x2065 <parse+0x2f8>
    4a05: 84 14        	sty	$14                     ; 0x2014 <parse+0x2a7>
    4a07: a4 66        	ldy	$66                     ; 0x2066 <parse+0x2f9>
    4a09: 84 15        	sty	$15                     ; 0x2015 <parse+0x2a8>
    4a0b: a4 67        	ldy	$67                     ; 0x2067 <parse+0x2fa>
    4a0d: 84 16        	sty	$16                     ; 0x2016 <parse+0x2a9>
    4a0f: 7a           	ply
    4a10: 85 17        	sta	$17                     ; 0x2017 <parse+0x2aa>
    4a12: 98           	tya
    4a13: 60           	rts
    4a14: a0 00        	ldy	#$0
    4a16: a2 00        	ldx	#$0
    4a18: 64 63        	stz	$63                     ; 0x2063 <parse+0x2f6>
    4a1a: 64 64        	stz	$64                     ; 0x2064 <parse+0x2f7>
    4a1c: 64 65        	stz	$65                     ; 0x2065 <parse+0x2f8>
    4a1e: 64 66        	stz	$66                     ; 0x2066 <parse+0x2f9>
    4a20: 64 67        	stz	$67                     ; 0x2067 <parse+0x2fa>
    4a22: 98           	tya
    4a23: 80 d5        	bra	$49fa <__muldi3+0xcd>

00004a25 <__udivsi3>:
    4a25: 64 18        	stz	$18                     ; 0x2018 <parse+0x2ab>
    4a27: a4 17        	ldy	$17                     ; 0x2017 <parse+0x2aa>
    4a29: d0 0c        	bne	$4a37 <__udivsi3+0x12>
    4a2b: a4 16        	ldy	$16                     ; 0x2016 <parse+0x2a9>
    4a2d: d0 08        	bne	$4a37 <__udivsi3+0x12>
    4a2f: a4 15        	ldy	$15                     ; 0x2015 <parse+0x2a8>
    4a31: d0 04        	bne	$4a37 <__udivsi3+0x12>
    4a33: a4 14        	ldy	$14                     ; 0x2014 <parse+0x2a7>
    4a35: f0 27        	beq	$4a5e <__udivsi3+0x39>
    4a37: 86 1e        	stx	$1e                     ; 0x201e <parse+0x2b1>
    4a39: a6 12        	ldx	$12                     ; 0x2012 <parse+0x2a5>
    4a3b: 86 1f        	stx	$1f                     ; 0x201f <parse+0x2b2>
    4a3d: a6 13        	ldx	$13                     ; 0x2013 <parse+0x2a6>
    4a3f: 86 22        	stx	$22                     ; 0x2022 <parse+0x2b5>
    4a41: e4 17        	cpx	$17                     ; 0x2017 <parse+0x2aa>
    4a43: d0 15        	bne	$4a5a <__udivsi3+0x35>
    4a45: a6 12        	ldx	$12                     ; 0x2012 <parse+0x2a5>
    4a47: e4 16        	cpx	$16                     ; 0x2016 <parse+0x2a9>
    4a49: d0 1a        	bne	$4a65 <__udivsi3+0x40>
    4a4b: a6 1e        	ldx	$1e                     ; 0x201e <parse+0x2b1>
    4a4d: e4 15        	cpx	$15                     ; 0x2015 <parse+0x2a8>
    4a4f: f0 03        	beq	$4a54 <__udivsi3+0x2f>
    4a51: 4c 8a 4b     	jmp	$4b8a <__udivsi3+0x165>
    4a54: c5 14        	cmp	$14                     ; 0x2014 <parse+0x2a7>
    4a56: 90 06        	bcc	$4a5e <__udivsi3+0x39>
    4a58: 80 0f        	bra	$4a69 <__udivsi3+0x44>
    4a5a: e4 17        	cpx	$17                     ; 0x2017 <parse+0x2aa>
    4a5c: b0 0b        	bcs	$4a69 <__udivsi3+0x44>
    4a5e: a2 00        	ldx	#$0
    4a60: 86 3c        	stx	$3c                     ; 0x203c <parse+0x2cf>
    4a62: 4c cf 4a     	jmp	$4acf <__udivsi3+0xaa>
    4a65: e4 16        	cpx	$16                     ; 0x2016 <parse+0x2a9>
    4a67: 90 f5        	bcc	$4a5e <__udivsi3+0x39>
    4a69: a2 01        	ldx	#$1
    4a6b: 86 3c        	stx	$3c                     ; 0x203c <parse+0x2cf>
    4a6d: a6 17        	ldx	$17                     ; 0x2017 <parse+0x2aa>
    4a6f: 10 03        	bpl	$4a74 <__udivsi3+0x4f>
    4a71: 4c cf 4a     	jmp	$4acf <__udivsi3+0xaa>
    4a74: 85 1d        	sta	$1d                     ; 0x201d <parse+0x2b0>
    4a76: a5 1e        	lda	$1e                     ; 0x201e <parse+0x2b1>
    4a78: a2 00        	ldx	#$0
    4a7a: a4 14        	ldy	$14                     ; 0x2014 <parse+0x2a7>
    4a7c: 84 19        	sty	$19                     ; 0x2019 <parse+0x2ac>
    4a7e: a4 15        	ldy	$15                     ; 0x2015 <parse+0x2a8>
    4a80: 84 1a        	sty	$1a                     ; 0x201a <parse+0x2ad>
    4a82: a4 16        	ldy	$16                     ; 0x2016 <parse+0x2a9>
    4a84: 84 1b        	sty	$1b                     ; 0x201b <parse+0x2ae>
    4a86: a4 17        	ldy	$17                     ; 0x2017 <parse+0x2aa>
    4a88: 84 1c        	sty	$1c                     ; 0x201c <parse+0x2af>
    4a8a: 06 19        	asl	$19                     ; 0x2019 <parse+0x2ac>
    4a8c: 26 1a        	rol	$1a                     ; 0x201a <parse+0x2ad>
    4a8e: 26 1b        	rol	$1b                     ; 0x201b <parse+0x2ae>
    4a90: 26 1c        	rol	$1c                     ; 0x201c <parse+0x2af>
    4a92: a4 22        	ldy	$22                     ; 0x2022 <parse+0x2b5>
    4a94: c4 1c        	cpy	$1c                     ; 0x201c <parse+0x2af>
    4a96: d0 12        	bne	$4aaa <__udivsi3+0x85>
    4a98: a4 12        	ldy	$12                     ; 0x2012 <parse+0x2a5>
    4a9a: c4 1b        	cpy	$1b                     ; 0x201b <parse+0x2ae>
    4a9c: d0 12        	bne	$4ab0 <__udivsi3+0x8b>
    4a9e: c5 1a        	cmp	$1a                     ; 0x201a <parse+0x2ad>
    4aa0: d0 14        	bne	$4ab6 <__udivsi3+0x91>
    4aa2: a4 1d        	ldy	$1d                     ; 0x201d <parse+0x2b0>
    4aa4: c4 19        	cpy	$19                     ; 0x2019 <parse+0x2ac>
    4aa6: 90 30        	bcc	$4ad8 <__udivsi3+0xb3>
    4aa8: 80 10        	bra	$4aba <__udivsi3+0x95>
    4aaa: c4 1c        	cpy	$1c                     ; 0x201c <parse+0x2af>
    4aac: 90 2a        	bcc	$4ad8 <__udivsi3+0xb3>
    4aae: 80 0a        	bra	$4aba <__udivsi3+0x95>
    4ab0: c4 1b        	cpy	$1b                     ; 0x201b <parse+0x2ae>
    4ab2: 90 24        	bcc	$4ad8 <__udivsi3+0xb3>
    4ab4: 80 04        	bra	$4aba <__udivsi3+0x95>
    4ab6: c5 1a        	cmp	$1a                     ; 0x201a <parse+0x2ad>
    4ab8: 90 1e        	bcc	$4ad8 <__udivsi3+0xb3>
    4aba: e8           	inx
    4abb: a4 19        	ldy	$19                     ; 0x2019 <parse+0x2ac>
    4abd: 84 14        	sty	$14                     ; 0x2014 <parse+0x2a7>
    4abf: a4 1a        	ldy	$1a                     ; 0x201a <parse+0x2ad>
    4ac1: 84 15        	sty	$15                     ; 0x2015 <parse+0x2a8>
    4ac3: a4 1b        	ldy	$1b                     ; 0x201b <parse+0x2ae>
    4ac5: 84 16        	sty	$16                     ; 0x2016 <parse+0x2a9>
    4ac7: a4 1c        	ldy	$1c                     ; 0x201c <parse+0x2af>
    4ac9: 84 17        	sty	$17                     ; 0x2017 <parse+0x2aa>
    4acb: 10 bd        	bpl	$4a8a <__udivsi3+0x65>
    4acd: 80 19        	bra	$4ae8 <__udivsi3+0xc3>
    4acf: 64 12        	stz	$12                     ; 0x2012 <parse+0x2a5>
    4ad1: 64 13        	stz	$13                     ; 0x2013 <parse+0x2a6>
    4ad3: a6 18        	ldx	$18                     ; 0x2018 <parse+0x2ab>
    4ad5: a5 3c        	lda	$3c                     ; 0x203c <parse+0x2cf>
    4ad7: 60           	rts
    4ad8: a4 14        	ldy	$14                     ; 0x2014 <parse+0x2a7>
    4ada: 84 19        	sty	$19                     ; 0x2019 <parse+0x2ac>
    4adc: a4 15        	ldy	$15                     ; 0x2015 <parse+0x2a8>
    4ade: 84 1a        	sty	$1a                     ; 0x201a <parse+0x2ad>
    4ae0: a4 16        	ldy	$16                     ; 0x2016 <parse+0x2a9>
    4ae2: 84 1b        	sty	$1b                     ; 0x201b <parse+0x2ae>
    4ae4: a4 17        	ldy	$17                     ; 0x2017 <parse+0x2aa>
    4ae6: 84 1c        	sty	$1c                     ; 0x201c <parse+0x2af>
    4ae8: 64 12        	stz	$12                     ; 0x2012 <parse+0x2a5>
    4aea: 64 13        	stz	$13                     ; 0x2013 <parse+0x2a6>
    4aec: 8a           	txa
    4aed: f0 e4        	beq	$4ad3 <__udivsi3+0xae>
    4aef: 38           	sec
    4af0: a5 1d        	lda	$1d                     ; 0x201d <parse+0x2b0>
    4af2: e5 19        	sbc	$19                     ; 0x2019 <parse+0x2ac>
    4af4: 85 14        	sta	$14                     ; 0x2014 <parse+0x2a7>
    4af6: a5 1e        	lda	$1e                     ; 0x201e <parse+0x2b1>
    4af8: e5 1a        	sbc	$1a                     ; 0x201a <parse+0x2ad>
    4afa: 85 17        	sta	$17                     ; 0x2017 <parse+0x2aa>
    4afc: a5 1f        	lda	$1f                     ; 0x201f <parse+0x2b2>
    4afe: e5 1b        	sbc	$1b                     ; 0x201b <parse+0x2ae>
    4b00: 85 15        	sta	$15                     ; 0x2015 <parse+0x2a8>
    4b02: a5 22        	lda	$22                     ; 0x2022 <parse+0x2b5>
    4b04: e5 1c        	sbc	$1c                     ; 0x201c <parse+0x2af>
    4b06: a0 01        	ldy	#$1
    4b08: 84 3c        	sty	$3c                     ; 0x203c <parse+0x2cf>
    4b0a: 64 18        	stz	$18                     ; 0x2018 <parse+0x2ab>
    4b0c: 46 1c        	lsr	$1c                     ; 0x201c <parse+0x2af>
    4b0e: 66 1b        	ror	$1b                     ; 0x201b <parse+0x2ae>
    4b10: 66 1a        	ror	$1a                     ; 0x201a <parse+0x2ad>
    4b12: 66 19        	ror	$19                     ; 0x2019 <parse+0x2ac>
    4b14: a4 3c        	ldy	$3c                     ; 0x203c <parse+0x2cf>
    4b16: 84 16        	sty	$16                     ; 0x2016 <parse+0x2a9>
    4b18: 06 16        	asl	$16                     ; 0x2016 <parse+0x2a9>
    4b1a: a0 01        	ldy	#$1
    4b1c: b0 02        	bcs	$4b20 <__udivsi3+0xfb>
    4b1e: a0 00        	ldy	#$0
    4b20: 84 1d        	sty	$1d                     ; 0x201d <parse+0x2b0>
    4b22: a4 16        	ldy	$16                     ; 0x2016 <parse+0x2a9>
    4b24: 84 3c        	sty	$3c                     ; 0x203c <parse+0x2cf>
    4b26: c5 1c        	cmp	$1c                     ; 0x201c <parse+0x2af>
    4b28: d0 16        	bne	$4b40 <__udivsi3+0x11b>
    4b2a: 85 16        	sta	$16                     ; 0x2016 <parse+0x2a9>
    4b2c: a4 15        	ldy	$15                     ; 0x2015 <parse+0x2a8>
    4b2e: a5 17        	lda	$17                     ; 0x2017 <parse+0x2aa>
    4b30: c4 1b        	cpy	$1b                     ; 0x201b <parse+0x2ae>
    4b32: d0 4a        	bne	$4b7e <__udivsi3+0x159>
    4b34: c5 1a        	cmp	$1a                     ; 0x201a <parse+0x2ad>
    4b36: d0 4c        	bne	$4b84 <__udivsi3+0x15f>
    4b38: a4 14        	ldy	$14                     ; 0x2014 <parse+0x2a7>
    4b3a: c4 19        	cpy	$19                     ; 0x2019 <parse+0x2ac>
    4b3c: b0 0a        	bcs	$4b48 <__udivsi3+0x123>
    4b3e: 80 27        	bra	$4b67 <__udivsi3+0x142>
    4b40: 85 16        	sta	$16                     ; 0x2016 <parse+0x2a9>
    4b42: c5 1c        	cmp	$1c                     ; 0x201c <parse+0x2af>
    4b44: a5 17        	lda	$17                     ; 0x2017 <parse+0x2aa>
    4b46: 90 1f        	bcc	$4b67 <__udivsi3+0x142>
    4b48: a8           	tay
    4b49: 38           	sec
    4b4a: a5 14        	lda	$14                     ; 0x2014 <parse+0x2a7>
    4b4c: e5 19        	sbc	$19                     ; 0x2019 <parse+0x2ac>
    4b4e: 85 14        	sta	$14                     ; 0x2014 <parse+0x2a7>
    4b50: 98           	tya
    4b51: e5 1a        	sbc	$1a                     ; 0x201a <parse+0x2ad>
    4b53: 85 17        	sta	$17                     ; 0x2017 <parse+0x2aa>
    4b55: a5 15        	lda	$15                     ; 0x2015 <parse+0x2a8>
    4b57: e5 1b        	sbc	$1b                     ; 0x201b <parse+0x2ae>
    4b59: 85 15        	sta	$15                     ; 0x2015 <parse+0x2a8>
    4b5b: a5 16        	lda	$16                     ; 0x2016 <parse+0x2a9>
    4b5d: e5 1c        	sbc	$1c                     ; 0x201c <parse+0x2af>
    4b5f: 85 16        	sta	$16                     ; 0x2016 <parse+0x2a9>
    4b61: a5 3c        	lda	$3c                     ; 0x203c <parse+0x2cf>
    4b63: 09 01        	ora	#$1
    4b65: 85 3c        	sta	$3c                     ; 0x203c <parse+0x2cf>
    4b67: a4 1d        	ldy	$1d                     ; 0x201d <parse+0x2b0>
    4b69: c0 01        	cpy	#$1
    4b6b: 26 18        	rol	$18                     ; 0x2018 <parse+0x2ab>
    4b6d: 26 12        	rol	$12                     ; 0x2012 <parse+0x2a5>
    4b6f: 26 13        	rol	$13                     ; 0x2013 <parse+0x2a6>
    4b71: ca           	dex
    4b72: a5 16        	lda	$16                     ; 0x2016 <parse+0x2a9>
    4b74: e0 00        	cpx	#$0
    4b76: f0 03        	beq	$4b7b <__udivsi3+0x156>
    4b78: 4c 0c 4b     	jmp	$4b0c <__udivsi3+0xe7>
    4b7b: 4c d3 4a     	jmp	$4ad3 <__udivsi3+0xae>
    4b7e: c4 1b        	cpy	$1b                     ; 0x201b <parse+0x2ae>
    4b80: b0 c6        	bcs	$4b48 <__udivsi3+0x123>
    4b82: 80 e3        	bra	$4b67 <__udivsi3+0x142>
    4b84: c5 1a        	cmp	$1a                     ; 0x201a <parse+0x2ad>
    4b86: b0 c0        	bcs	$4b48 <__udivsi3+0x123>
    4b88: 80 dd        	bra	$4b67 <__udivsi3+0x142>
    4b8a: e4 15        	cpx	$15                     ; 0x2015 <parse+0x2a8>
    4b8c: b0 03        	bcs	$4b91 <__udivsi3+0x16c>
    4b8e: 4c 5e 4a     	jmp	$4a5e <__udivsi3+0x39>
    4b91: 4c 69 4a     	jmp	$4a69 <__udivsi3+0x44>

00004b94 <__muldf3>:
    4b94: a8           	tay
    4b95: 86 22        	stx	$22                     ; 0x2022 <parse+0x2b5>
    4b97: a6 12        	ldx	$12                     ; 0x2012 <parse+0x2a5>
    4b99: 86 3c        	stx	$3c                     ; 0x203c <parse+0x2cf>
    4b9b: a6 13        	ldx	$13                     ; 0x2013 <parse+0x2a6>
    4b9d: 86 3d        	stx	$3d                     ; 0x203d <parse+0x2d0>
    4b9f: a6 14        	ldx	$14                     ; 0x2014 <parse+0x2a7>
    4ba1: 86 48        	stx	$48                     ; 0x2048 <parse+0x2db>
    4ba3: a6 15        	ldx	$15                     ; 0x2015 <parse+0x2a8>
    4ba5: 86 3f        	stx	$3f                     ; 0x203f <parse+0x2d2>
    4ba7: a6 17        	ldx	$17                     ; 0x2017 <parse+0x2aa>
    4ba9: 86 14        	stx	$14                     ; 0x2014 <parse+0x2a7>
    4bab: a6 18        	ldx	$18                     ; 0x2018 <parse+0x2ab>
    4bad: 86 4a        	stx	$4a                     ; 0x204a <parse+0x2dd>
    4baf: a6 19        	ldx	$19                     ; 0x2019 <parse+0x2ac>
    4bb1: 86 45        	stx	$45                     ; 0x2045 <parse+0x2d8>
    4bb3: a6 1a        	ldx	$1a                     ; 0x201a <parse+0x2ad>
    4bb5: 86 46        	stx	$46                     ; 0x2046 <parse+0x2d9>
    4bb7: a6 1b        	ldx	$1b                     ; 0x201b <parse+0x2ae>
    4bb9: 86 41        	stx	$41                     ; 0x2041 <parse+0x2d4>
    4bbb: a6 1c        	ldx	$1c                     ; 0x201c <parse+0x2af>
    4bbd: 86 42        	stx	$42                     ; 0x2042 <parse+0x2d5>
    4bbf: a6 1d        	ldx	$1d                     ; 0x201d <parse+0x2b0>
    4bc1: 86 43        	stx	$43                     ; 0x2043 <parse+0x2d6>
    4bc3: a5 17        	lda	$17                     ; 0x2017 <parse+0x2aa>
    4bc5: 4a           	lsr
    4bc6: a6 16        	ldx	$16                     ; 0x2016 <parse+0x2a9>
    4bc8: 86 13        	stx	$13                     ; 0x2013 <parse+0x2a6>
    4bca: 66 13        	ror	$13                     ; 0x2013 <parse+0x2a6>
    4bcc: 4a           	lsr
    4bcd: 66 13        	ror	$13                     ; 0x2013 <parse+0x2a6>
    4bcf: 4a           	lsr
    4bd0: 66 13        	ror	$13                     ; 0x2013 <parse+0x2a6>
    4bd2: 4a           	lsr
    4bd3: 66 13        	ror	$13                     ; 0x2013 <parse+0x2a6>
    4bd5: a6 1e        	ldx	$1e                     ; 0x201e <parse+0x2b1>
    4bd7: 86 12        	stx	$12                     ; 0x2012 <parse+0x2a5>
    4bd9: a6 1f        	ldx	$1f                     ; 0x201f <parse+0x2b2>
    4bdb: 86 17        	stx	$17                     ; 0x2017 <parse+0x2aa>
    4bdd: 46 17        	lsr	$17                     ; 0x2017 <parse+0x2aa>
    4bdf: 66 12        	ror	$12                     ; 0x2012 <parse+0x2a5>
    4be1: 46 17        	lsr	$17                     ; 0x2017 <parse+0x2aa>
    4be3: 66 12        	ror	$12                     ; 0x2012 <parse+0x2a5>
    4be5: 46 17        	lsr	$17                     ; 0x2017 <parse+0x2aa>
    4be7: 66 12        	ror	$12                     ; 0x2012 <parse+0x2a5>
    4be9: 46 17        	lsr	$17                     ; 0x2017 <parse+0x2aa>
    4beb: 66 12        	ror	$12                     ; 0x2012 <parse+0x2a5>
    4bed: 29 07        	and	#$7
    4bef: 85 15        	sta	$15                     ; 0x2015 <parse+0x2a8>
    4bf1: 18           	clc
    4bf2: a6 13        	ldx	$13                     ; 0x2013 <parse+0x2a6>
    4bf4: 86 4d        	stx	$4d                     ; 0x204d <parse+0x2e0>
    4bf6: a5 13        	lda	$13                     ; 0x2013 <parse+0x2a6>
    4bf8: 69 01        	adc	#$1
    4bfa: 85 18        	sta	$18                     ; 0x2018 <parse+0x2ab>
    4bfc: a6 15        	ldx	$15                     ; 0x2015 <parse+0x2a8>
    4bfe: 86 4e        	stx	$4e                     ; 0x204e <parse+0x2e1>
    4c00: a5 15        	lda	$15                     ; 0x2015 <parse+0x2a8>
    4c02: 69 f8        	adc	#$f8
    4c04: 85 19        	sta	$19                     ; 0x2019 <parse+0x2ac>
    4c06: a5 17        	lda	$17                     ; 0x2017 <parse+0x2aa>
    4c08: 29 07        	and	#$7
    4c0a: 85 15        	sta	$15                     ; 0x2015 <parse+0x2a8>
    4c0c: 85 13        	sta	$13                     ; 0x2013 <parse+0x2a6>
    4c0e: a5 1f        	lda	$1f                     ; 0x201f <parse+0x2b2>
    4c10: 45 14        	eor	$14                     ; 0x2014 <parse+0x2a7>
    4c12: 29 80        	and	#$80
    4c14: 85 4c        	sta	$4c                     ; 0x204c <parse+0x2df>
    4c16: a6 16        	ldx	$16                     ; 0x2016 <parse+0x2a9>
    4c18: 86 1b        	stx	$1b                     ; 0x201b <parse+0x2ae>
    4c1a: a5 16        	lda	$16                     ; 0x2016 <parse+0x2a9>
    4c1c: 29 0f        	and	#$f
    4c1e: 85 4b        	sta	$4b                     ; 0x204b <parse+0x2de>
    4c20: a6 1e        	ldx	$1e                     ; 0x201e <parse+0x2b1>
    4c22: 86 47        	stx	$47                     ; 0x2047 <parse+0x2da>
    4c24: a5 1e        	lda	$1e                     ; 0x201e <parse+0x2b1>
    4c26: 29 0f        	and	#$f
    4c28: 85 49        	sta	$49                     ; 0x2049 <parse+0x2dc>
    4c2a: a5 19        	lda	$19                     ; 0x2019 <parse+0x2ac>
    4c2c: c9 f8        	cmp	#$f8
    4c2e: d0 08        	bne	$4c38 <__muldf3+0xa4>
    4c30: a5 18        	lda	$18                     ; 0x2018 <parse+0x2ab>
    4c32: c9 02        	cmp	#$2
    4c34: b0 06        	bcs	$4c3c <__muldf3+0xa8>
    4c36: 80 31        	bra	$4c69 <__muldf3+0xd5>
    4c38: c9 f8        	cmp	#$f8
    4c3a: 90 2d        	bcc	$4c69 <__muldf3+0xd5>
    4c3c: 18           	clc
    4c3d: a5 12        	lda	$12                     ; 0x2012 <parse+0x2a5>
    4c3f: 69 01        	adc	#$1
    4c41: aa           	tax
    4c42: a5 15        	lda	$15                     ; 0x2015 <parse+0x2a8>
    4c44: 69 f8        	adc	#$f8
    4c46: c9 f8        	cmp	#$f8
    4c48: d0 1b        	bne	$4c65 <__muldf3+0xd1>
    4c4a: e0 02        	cpx	#$2
    4c4c: 90 1b        	bcc	$4c69 <__muldf3+0xd5>
    4c4e: a6 12        	ldx	$12                     ; 0x2012 <parse+0x2a5>
    4c50: 86 52        	stx	$52                     ; 0x2052 <parse+0x2e5>
    4c52: a6 13        	ldx	$13                     ; 0x2013 <parse+0x2a6>
    4c54: 86 51        	stx	$51                     ; 0x2051 <parse+0x2e4>
    4c56: a2 00        	ldx	#$0
    4c58: 86 4f        	stx	$4f                     ; 0x204f <parse+0x2e2>
    4c5a: 86 5d        	stx	$5d                     ; 0x205d <parse+0x2f0>
    4c5c: 86 53        	stx	$53                     ; 0x2053 <parse+0x2e6>
    4c5e: a6 22        	ldx	$22                     ; 0x2022 <parse+0x2b5>
    4c60: 86 19        	stx	$19                     ; 0x2019 <parse+0x2ac>
    4c62: 4c 0d 59     	jmp	$590d <__muldf3+0xd79>
    4c65: c9 f8        	cmp	#$f8
    4c67: b0 e5        	bcs	$4c4e <__muldf3+0xba>
    4c69: a5 14        	lda	$14                     ; 0x2014 <parse+0x2a7>
    4c6b: 29 7f        	and	#$7f
    4c6d: c9 7f        	cmp	#$7f
    4c6f: d0 34        	bne	$4ca5 <__muldf3+0x111>
    4c71: 85 15        	sta	$15                     ; 0x2015 <parse+0x2a8>
    4c73: a6 16        	ldx	$16                     ; 0x2016 <parse+0x2a9>
    4c75: e0 f0        	cpx	#$f0
    4c77: f0 03        	beq	$4c7c <__muldf3+0xe8>
    4c79: 4c e9 4c     	jmp	$4ce9 <__muldf3+0x155>
    4c7c: a5 3f        	lda	$3f                     ; 0x203f <parse+0x2d2>
    4c7e: f0 03        	beq	$4c83 <__muldf3+0xef>
    4c80: 4c 05 4d     	jmp	$4d05 <__muldf3+0x171>
    4c83: a6 48        	ldx	$48                     ; 0x2048 <parse+0x2db>
    4c85: f0 03        	beq	$4c8a <__muldf3+0xf6>
    4c87: 4c 07 4d     	jmp	$4d07 <__muldf3+0x173>
    4c8a: a5 3d        	lda	$3d                     ; 0x203d <parse+0x2d0>
    4c8c: f0 03        	beq	$4c91 <__muldf3+0xfd>
    4c8e: 4c ca 4e     	jmp	$4eca <__muldf3+0x336>
    4c91: a5 3c        	lda	$3c                     ; 0x203c <parse+0x2cf>
    4c93: f0 03        	beq	$4c98 <__muldf3+0x104>
    4c95: 4c a0 58     	jmp	$58a0 <__muldf3+0xd0c>
    4c98: a5 22        	lda	$22                     ; 0x2022 <parse+0x2b5>
    4c9a: f0 03        	beq	$4c9f <__muldf3+0x10b>
    4c9c: 4c ad 58     	jmp	$58ad <__muldf3+0xd19>
    4c9f: c0 01        	cpy	#$1
    4ca1: 90 08        	bcc	$4cab <__muldf3+0x117>
    4ca3: 80 48        	bra	$4ced <__muldf3+0x159>
    4ca5: 85 15        	sta	$15                     ; 0x2015 <parse+0x2a8>
    4ca7: c9 7f        	cmp	#$7f
    4ca9: b0 42        	bcs	$4ced <__muldf3+0x159>
    4cab: a5 1f        	lda	$1f                     ; 0x201f <parse+0x2b2>
    4cad: 29 7f        	and	#$7f
    4caf: 85 4f        	sta	$4f                     ; 0x204f <parse+0x2e2>
    4cb1: c9 7f        	cmp	#$7f
    4cb3: d0 4c        	bne	$4d01 <__muldf3+0x16d>
    4cb5: a6 1e        	ldx	$1e                     ; 0x201e <parse+0x2b1>
    4cb7: e0 f0        	cpx	#$f0
    4cb9: d0 53        	bne	$4d0e <__muldf3+0x17a>
    4cbb: a5 16        	lda	$16                     ; 0x2016 <parse+0x2a9>
    4cbd: a6 43        	ldx	$43                     ; 0x2043 <parse+0x2d6>
    4cbf: f0 03        	beq	$4cc4 <__muldf3+0x130>
    4cc1: 4c bb 4e     	jmp	$4ebb <__muldf3+0x327>
    4cc4: a6 42        	ldx	$42                     ; 0x2042 <parse+0x2d5>
    4cc6: f0 03        	beq	$4ccb <__muldf3+0x137>
    4cc8: 4c cf 4e     	jmp	$4ecf <__muldf3+0x33b>
    4ccb: a6 41        	ldx	$41                     ; 0x2041 <parse+0x2d4>
    4ccd: f0 03        	beq	$4cd2 <__muldf3+0x13e>
    4ccf: 4c a5 58     	jmp	$58a5 <__muldf3+0xd11>
    4cd2: a6 46        	ldx	$46                     ; 0x2046 <parse+0x2d9>
    4cd4: f0 03        	beq	$4cd9 <__muldf3+0x145>
    4cd6: 4c b2 58     	jmp	$58b2 <__muldf3+0xd1e>
    4cd9: a6 45        	ldx	$45                     ; 0x2045 <parse+0x2d8>
    4cdb: f0 03        	beq	$4ce0 <__muldf3+0x14c>
    4cdd: 4c bf 58     	jmp	$58bf <__muldf3+0xd2b>
    4ce0: a6 4a        	ldx	$4a                     ; 0x204a <parse+0x2dd>
    4ce2: e0 01        	cpx	#$1
    4ce4: 90 31        	bcc	$4d17 <__muldf3+0x183>
    4ce6: 4c c8 58     	jmp	$58c8 <__muldf3+0xd34>
    4ce9: e0 f0        	cpx	#$f0
    4ceb: 90 be        	bcc	$4cab <__muldf3+0x117>
    4ced: 84 18        	sty	$18                     ; 0x2018 <parse+0x2ab>
    4cef: a5 16        	lda	$16                     ; 0x2016 <parse+0x2a9>
    4cf1: 09 08        	ora	#$8
    4cf3: a8           	tay
    4cf4: a6 3d        	ldx	$3d                     ; 0x203d <parse+0x2d0>
    4cf6: 86 13        	stx	$13                     ; 0x2013 <parse+0x2a6>
    4cf8: a6 48        	ldx	$48                     ; 0x2048 <parse+0x2db>
    4cfa: 86 3e        	stx	$3e                     ; 0x203e <parse+0x2d1>
    4cfc: a5 14        	lda	$14                     ; 0x2014 <parse+0x2a7>
    4cfe: 4c 4c 5f     	jmp	$5f4c <__muldf3+0x13b8>
    4d01: c9 7f        	cmp	#$7f
    4d03: 80 0b        	bra	$4d10 <__muldf3+0x17c>
    4d05: a6 3f        	ldx	$3f                     ; 0x203f <parse+0x2d2>
    4d07: e0 00        	cpx	#$0
    4d09: b0 e2        	bcs	$4ced <__muldf3+0x159>
    4d0b: 4c ab 4c     	jmp	$4cab <__muldf3+0x117>
    4d0e: e0 f0        	cpx	#$f0
    4d10: a5 16        	lda	$16                     ; 0x2016 <parse+0x2a9>
    4d12: 90 03        	bcc	$4d17 <__muldf3+0x183>
    4d14: 4c c8 58     	jmp	$58c8 <__muldf3+0xd34>
    4d17: a6 15        	ldx	$15                     ; 0x2015 <parse+0x2a8>
    4d19: 86 1c        	stx	$1c                     ; 0x201c <parse+0x2af>
    4d1b: e0 7f        	cpx	#$7f
    4d1d: f0 03        	beq	$4d22 <__muldf3+0x18e>
    4d1f: 4c 81 4d     	jmp	$4d81 <__muldf3+0x1ed>
    4d22: c9 f0        	cmp	#$f0
    4d24: d0 5b        	bne	$4d81 <__muldf3+0x1ed>
    4d26: a6 3f        	ldx	$3f                     ; 0x203f <parse+0x2d2>
    4d28: d0 57        	bne	$4d81 <__muldf3+0x1ed>
    4d2a: a6 48        	ldx	$48                     ; 0x2048 <parse+0x2db>
    4d2c: d0 53        	bne	$4d81 <__muldf3+0x1ed>
    4d2e: a6 3d        	ldx	$3d                     ; 0x203d <parse+0x2d0>
    4d30: d0 4f        	bne	$4d81 <__muldf3+0x1ed>
    4d32: a6 3c        	ldx	$3c                     ; 0x203c <parse+0x2cf>
    4d34: d0 4b        	bne	$4d81 <__muldf3+0x1ed>
    4d36: a6 22        	ldx	$22                     ; 0x2022 <parse+0x2b5>
    4d38: d0 47        	bne	$4d81 <__muldf3+0x1ed>
    4d3a: c0 00        	cpy	#$0
    4d3c: d0 43        	bne	$4d81 <__muldf3+0x1ed>
    4d3e: a6 4f        	ldx	$4f                     ; 0x204f <parse+0x2e2>
    4d40: 86 12        	stx	$12                     ; 0x2012 <parse+0x2a5>
    4d42: a6 4a        	ldx	$4a                     ; 0x204a <parse+0x2dd>
    4d44: 86 13        	stx	$13                     ; 0x2013 <parse+0x2a6>
    4d46: a5 12        	lda	$12                     ; 0x2012 <parse+0x2a5>
    4d48: f0 03        	beq	$4d4d <__muldf3+0x1b9>
    4d4a: 4c ab 5c     	jmp	$5cab <__muldf3+0x1117>
    4d4d: a5 47        	lda	$47                     ; 0x2047 <parse+0x2da>
    4d4f: f0 03        	beq	$4d54 <__muldf3+0x1c0>
    4d51: 4c ab 5c     	jmp	$5cab <__muldf3+0x1117>
    4d54: a5 43        	lda	$43                     ; 0x2043 <parse+0x2d6>
    4d56: f0 03        	beq	$4d5b <__muldf3+0x1c7>
    4d58: 4c ab 5c     	jmp	$5cab <__muldf3+0x1117>
    4d5b: a5 42        	lda	$42                     ; 0x2042 <parse+0x2d5>
    4d5d: f0 03        	beq	$4d62 <__muldf3+0x1ce>
    4d5f: 4c ab 5c     	jmp	$5cab <__muldf3+0x1117>
    4d62: a5 41        	lda	$41                     ; 0x2041 <parse+0x2d4>
    4d64: f0 03        	beq	$4d69 <__muldf3+0x1d5>
    4d66: 4c ab 5c     	jmp	$5cab <__muldf3+0x1117>
    4d69: a5 46        	lda	$46                     ; 0x2046 <parse+0x2d9>
    4d6b: f0 03        	beq	$4d70 <__muldf3+0x1dc>
    4d6d: 4c ab 5c     	jmp	$5cab <__muldf3+0x1117>
    4d70: a5 45        	lda	$45                     ; 0x2045 <parse+0x2d8>
    4d72: f0 03        	beq	$4d77 <__muldf3+0x1e3>
    4d74: 4c ab 5c     	jmp	$5cab <__muldf3+0x1117>
    4d77: a5 13        	lda	$13                     ; 0x2013 <parse+0x2a6>
    4d79: d0 03        	bne	$4d7e <__muldf3+0x1ea>
    4d7b: 4c f2 4d     	jmp	$4df2 <__muldf3+0x25e>
    4d7e: 4c ab 5c     	jmp	$5cab <__muldf3+0x1117>
    4d81: a6 4f        	ldx	$4f                     ; 0x204f <parse+0x2e2>
    4d83: e0 7f        	cpx	#$7f
    4d85: f0 03        	beq	$4d8a <__muldf3+0x1f6>
    4d87: 4c 05 4e     	jmp	$4e05 <__muldf3+0x271>
    4d8a: a6 1e        	ldx	$1e                     ; 0x201e <parse+0x2b1>
    4d8c: e0 f0        	cpx	#$f0
    4d8e: f0 03        	beq	$4d93 <__muldf3+0x1ff>
    4d90: 4c 05 4e     	jmp	$4e05 <__muldf3+0x271>
    4d93: a6 43        	ldx	$43                     ; 0x2043 <parse+0x2d6>
    4d95: f0 03        	beq	$4d9a <__muldf3+0x206>
    4d97: 4c 05 4e     	jmp	$4e05 <__muldf3+0x271>
    4d9a: a6 42        	ldx	$42                     ; 0x2042 <parse+0x2d5>
    4d9c: f0 03        	beq	$4da1 <__muldf3+0x20d>
    4d9e: 4c 05 4e     	jmp	$4e05 <__muldf3+0x271>
    4da1: a6 41        	ldx	$41                     ; 0x2041 <parse+0x2d4>
    4da3: f0 03        	beq	$4da8 <__muldf3+0x214>
    4da5: 4c 05 4e     	jmp	$4e05 <__muldf3+0x271>
    4da8: a6 46        	ldx	$46                     ; 0x2046 <parse+0x2d9>
    4daa: d0 59        	bne	$4e05 <__muldf3+0x271>
    4dac: a6 45        	ldx	$45                     ; 0x2045 <parse+0x2d8>
    4dae: d0 55        	bne	$4e05 <__muldf3+0x271>
    4db0: a6 4a        	ldx	$4a                     ; 0x204a <parse+0x2dd>
    4db2: d0 51        	bne	$4e05 <__muldf3+0x271>
    4db4: 84 12        	sty	$12                     ; 0x2012 <parse+0x2a5>
    4db6: a4 22        	ldy	$22                     ; 0x2022 <parse+0x2b5>
    4db8: a6 48        	ldx	$48                     ; 0x2048 <parse+0x2db>
    4dba: 86 13        	stx	$13                     ; 0x2013 <parse+0x2a6>
    4dbc: a6 1c        	ldx	$1c                     ; 0x201c <parse+0x2af>
    4dbe: f0 03        	beq	$4dc3 <__muldf3+0x22f>
    4dc0: 4c ab 5c     	jmp	$5cab <__muldf3+0x1117>
    4dc3: aa           	tax
    4dc4: f0 03        	beq	$4dc9 <__muldf3+0x235>
    4dc6: 4c ab 5c     	jmp	$5cab <__muldf3+0x1117>
    4dc9: a5 3f        	lda	$3f                     ; 0x203f <parse+0x2d2>
    4dcb: f0 03        	beq	$4dd0 <__muldf3+0x23c>
    4dcd: 4c ab 5c     	jmp	$5cab <__muldf3+0x1117>
    4dd0: a5 13        	lda	$13                     ; 0x2013 <parse+0x2a6>
    4dd2: f0 03        	beq	$4dd7 <__muldf3+0x243>
    4dd4: 4c ab 5c     	jmp	$5cab <__muldf3+0x1117>
    4dd7: a5 3d        	lda	$3d                     ; 0x203d <parse+0x2d0>
    4dd9: f0 03        	beq	$4dde <__muldf3+0x24a>
    4ddb: 4c ab 5c     	jmp	$5cab <__muldf3+0x1117>
    4dde: a5 3c        	lda	$3c                     ; 0x203c <parse+0x2cf>
    4de0: f0 03        	beq	$4de5 <__muldf3+0x251>
    4de2: 4c ab 5c     	jmp	$5cab <__muldf3+0x1117>
    4de5: 98           	tya
    4de6: f0 03        	beq	$4deb <__muldf3+0x257>
    4de8: 4c ab 5c     	jmp	$5cab <__muldf3+0x1117>
    4deb: a5 12        	lda	$12                     ; 0x2012 <parse+0x2a5>
    4ded: f0 03        	beq	$4df2 <__muldf3+0x25e>
    4def: 4c ab 5c     	jmp	$5cab <__muldf3+0x1117>
    4df2: a9 7f        	lda	#$7f
    4df4: a0 f8        	ldy	#$f8
    4df6: 64 18        	stz	$18                     ; 0x2018 <parse+0x2ab>
    4df8: 64 22        	stz	$22                     ; 0x2022 <parse+0x2b5>
    4dfa: 64 3c        	stz	$3c                     ; 0x203c <parse+0x2cf>
    4dfc: 64 13        	stz	$13                     ; 0x2013 <parse+0x2a6>
    4dfe: 64 3e        	stz	$3e                     ; 0x203e <parse+0x2d1>
    4e00: 64 3f        	stz	$3f                     ; 0x203f <parse+0x2d2>
    4e02: 4c 4c 5f     	jmp	$5f4c <__muldf3+0x13b8>
    4e05: 5a           	phy
    4e06: a6 22        	ldx	$22                     ; 0x2022 <parse+0x2b5>
    4e08: 86 14        	stx	$14                     ; 0x2014 <parse+0x2a7>
    4e0a: a6 3c        	ldx	$3c                     ; 0x203c <parse+0x2cf>
    4e0c: a4 3d        	ldy	$3d                     ; 0x203d <parse+0x2d0>
    4e0e: 84 15        	sty	$15                     ; 0x2015 <parse+0x2a8>
    4e10: a4 3f        	ldy	$3f                     ; 0x203f <parse+0x2d2>
    4e12: 84 17        	sty	$17                     ; 0x2017 <parse+0x2aa>
    4e14: a5 48        	lda	$48                     ; 0x2048 <parse+0x2db>
    4e16: 85 16        	sta	$16                     ; 0x2016 <parse+0x2a9>
    4e18: a5 1b        	lda	$1b                     ; 0x201b <parse+0x2ae>
    4e1a: a4 1c        	ldy	$1c                     ; 0x201c <parse+0x2af>
    4e1c: 84 18        	sty	$18                     ; 0x2018 <parse+0x2ab>
    4e1e: 7a           	ply
    4e1f: e6 18        	inc	$18                     ; 0x2018 <parse+0x2ab>
    4e21: c6 18        	dec	$18                     ; 0x2018 <parse+0x2ab>
    4e23: d0 1d        	bne	$4e42 <__muldf3+0x2ae>
    4e25: c9 00        	cmp	#$0
    4e27: d0 19        	bne	$4e42 <__muldf3+0x2ae>
    4e29: a5 17        	lda	$17                     ; 0x2017 <parse+0x2aa>
    4e2b: d0 15        	bne	$4e42 <__muldf3+0x2ae>
    4e2d: a5 16        	lda	$16                     ; 0x2016 <parse+0x2a9>
    4e2f: d0 11        	bne	$4e42 <__muldf3+0x2ae>
    4e31: a5 15        	lda	$15                     ; 0x2015 <parse+0x2a8>
    4e33: d0 0d        	bne	$4e42 <__muldf3+0x2ae>
    4e35: 8a           	txa
    4e36: d0 0a        	bne	$4e42 <__muldf3+0x2ae>
    4e38: a5 14        	lda	$14                     ; 0x2014 <parse+0x2a7>
    4e3a: d0 06        	bne	$4e42 <__muldf3+0x2ae>
    4e3c: 98           	tya
    4e3d: d0 03        	bne	$4e42 <__muldf3+0x2ae>
    4e3f: 4c 11 5d     	jmp	$5d11 <__muldf3+0x117d>
    4e42: a6 41        	ldx	$41                     ; 0x2041 <parse+0x2d4>
    4e44: a5 42        	lda	$42                     ; 0x2042 <parse+0x2d5>
    4e46: 85 14        	sta	$14                     ; 0x2014 <parse+0x2a7>
    4e48: a5 1d        	lda	$1d                     ; 0x201d <parse+0x2b0>
    4e4a: 85 15        	sta	$15                     ; 0x2015 <parse+0x2a8>
    4e4c: a5 45        	lda	$45                     ; 0x2045 <parse+0x2d8>
    4e4e: 85 17        	sta	$17                     ; 0x2017 <parse+0x2aa>
    4e50: a5 1a        	lda	$1a                     ; 0x201a <parse+0x2ad>
    4e52: 85 18        	sta	$18                     ; 0x2018 <parse+0x2ab>
    4e54: a5 1e        	lda	$1e                     ; 0x201e <parse+0x2b1>
    4e56: 85 19        	sta	$19                     ; 0x2019 <parse+0x2ac>
    4e58: a5 4f        	lda	$4f                     ; 0x204f <parse+0x2e2>
    4e5a: 85 1a        	sta	$1a                     ; 0x201a <parse+0x2ad>
    4e5c: a5 4a        	lda	$4a                     ; 0x204a <parse+0x2dd>
    4e5e: 85 16        	sta	$16                     ; 0x2016 <parse+0x2a9>
    4e60: a5 1a        	lda	$1a                     ; 0x201a <parse+0x2ad>
    4e62: d0 1e        	bne	$4e82 <__muldf3+0x2ee>
    4e64: a5 19        	lda	$19                     ; 0x2019 <parse+0x2ac>
    4e66: d0 1a        	bne	$4e82 <__muldf3+0x2ee>
    4e68: a5 15        	lda	$15                     ; 0x2015 <parse+0x2a8>
    4e6a: d0 16        	bne	$4e82 <__muldf3+0x2ee>
    4e6c: a5 14        	lda	$14                     ; 0x2014 <parse+0x2a7>
    4e6e: d0 12        	bne	$4e82 <__muldf3+0x2ee>
    4e70: 8a           	txa
    4e71: d0 0f        	bne	$4e82 <__muldf3+0x2ee>
    4e73: a5 18        	lda	$18                     ; 0x2018 <parse+0x2ab>
    4e75: d0 0b        	bne	$4e82 <__muldf3+0x2ee>
    4e77: a5 17        	lda	$17                     ; 0x2017 <parse+0x2aa>
    4e79: d0 07        	bne	$4e82 <__muldf3+0x2ee>
    4e7b: a5 16        	lda	$16                     ; 0x2016 <parse+0x2a9>
    4e7d: d0 03        	bne	$4e82 <__muldf3+0x2ee>
    4e7f: 4c 11 5d     	jmp	$5d11 <__muldf3+0x117d>
    4e82: a5 1c        	lda	$1c                     ; 0x201c <parse+0x2af>
    4e84: d0 2d        	bne	$4eb3 <__muldf3+0x31f>
    4e86: a6 1b        	ldx	$1b                     ; 0x201b <parse+0x2ae>
    4e88: e0 10        	cpx	#$10
    4e8a: d0 34        	bne	$4ec0 <__muldf3+0x32c>
    4e8c: a6 22        	ldx	$22                     ; 0x2022 <parse+0x2b5>
    4e8e: 86 19        	stx	$19                     ; 0x2019 <parse+0x2ac>
    4e90: a5 3f        	lda	$3f                     ; 0x203f <parse+0x2d2>
    4e92: d0 40        	bne	$4ed4 <__muldf3+0x340>
    4e94: a6 48        	ldx	$48                     ; 0x2048 <parse+0x2db>
    4e96: d0 3e        	bne	$4ed6 <__muldf3+0x342>
    4e98: a5 3d        	lda	$3d                     ; 0x203d <parse+0x2d0>
    4e9a: f0 03        	beq	$4e9f <__muldf3+0x30b>
    4e9c: 4c b6 58     	jmp	$58b6 <__muldf3+0xd22>
    4e9f: a5 3c        	lda	$3c                     ; 0x203c <parse+0x2cf>
    4ea1: f0 03        	beq	$4ea6 <__muldf3+0x312>
    4ea3: 4c ea 58     	jmp	$58ea <__muldf3+0xd56>
    4ea6: a5 19        	lda	$19                     ; 0x2019 <parse+0x2ac>
    4ea8: f0 03        	beq	$4ead <__muldf3+0x319>
    4eaa: 4c f3 58     	jmp	$58f3 <__muldf3+0xd5f>
    4ead: c0 00        	cpy	#$0
    4eaf: b0 29        	bcs	$4eda <__muldf3+0x346>
    4eb1: 80 3a        	bra	$4eed <__muldf3+0x359>
    4eb3: a6 1c        	ldx	$1c                     ; 0x201c <parse+0x2af>
    4eb5: e0 00        	cpx	#$0
    4eb7: b0 0b        	bcs	$4ec4 <__muldf3+0x330>
    4eb9: 80 32        	bra	$4eed <__muldf3+0x359>
    4ebb: a6 1d        	ldx	$1d                     ; 0x201d <parse+0x2b0>
    4ebd: 4c c1 58     	jmp	$58c1 <__muldf3+0xd2d>
    4ec0: e0 10        	cpx	#$10
    4ec2: 90 29        	bcc	$4eed <__muldf3+0x359>
    4ec4: a6 22        	ldx	$22                     ; 0x2022 <parse+0x2b5>
    4ec6: 86 19        	stx	$19                     ; 0x2019 <parse+0x2ac>
    4ec8: 80 10        	bra	$4eda <__muldf3+0x346>
    4eca: a6 3d        	ldx	$3d                     ; 0x203d <parse+0x2d0>
    4ecc: 4c 07 4d     	jmp	$4d07 <__muldf3+0x173>
    4ecf: a6 1c        	ldx	$1c                     ; 0x201c <parse+0x2af>
    4ed1: 4c c1 58     	jmp	$58c1 <__muldf3+0xd2d>
    4ed4: a6 3f        	ldx	$3f                     ; 0x203f <parse+0x2d2>
    4ed6: e0 00        	cpx	#$0
    4ed8: 90 13        	bcc	$4eed <__muldf3+0x359>
    4eda: a6 12        	ldx	$12                     ; 0x2012 <parse+0x2a5>
    4edc: 86 52        	stx	$52                     ; 0x2052 <parse+0x2e5>
    4ede: a6 13        	ldx	$13                     ; 0x2013 <parse+0x2a6>
    4ee0: 86 51        	stx	$51                     ; 0x2051 <parse+0x2e4>
    4ee2: 64 17        	stz	$17                     ; 0x2017 <parse+0x2aa>
    4ee4: a2 00        	ldx	#$0
    4ee6: 86 54        	stx	$54                     ; 0x2054 <parse+0x2e7>
    4ee8: 86 53        	stx	$53                     ; 0x2053 <parse+0x2e6>
    4eea: 4c 94 53     	jmp	$5394 <__muldf3+0x800>
    4eed: a6 12        	ldx	$12                     ; 0x2012 <parse+0x2a5>
    4eef: 86 52        	stx	$52                     ; 0x2052 <parse+0x2e5>
    4ef1: a6 13        	ldx	$13                     ; 0x2013 <parse+0x2a6>
    4ef3: 86 51        	stx	$51                     ; 0x2051 <parse+0x2e4>
    4ef5: a6 4b        	ldx	$4b                     ; 0x204b <parse+0x2de>
    4ef7: 8a           	txa
    4ef8: 86 23        	stx	$23                     ; 0x2023 <parse+0x2b6>
    4efa: 86 4b        	stx	$4b                     ; 0x204b <parse+0x2de>
    4efc: 4a           	lsr
    4efd: 85 12        	sta	$12                     ; 0x2012 <parse+0x2a5>
    4eff: a5 3f        	lda	$3f                     ; 0x203f <parse+0x2d2>
    4f01: a6 3f        	ldx	$3f                     ; 0x203f <parse+0x2d2>
    4f03: 86 1a        	stx	$1a                     ; 0x201a <parse+0x2ad>
    4f05: a6 3f        	ldx	$3f                     ; 0x203f <parse+0x2d2>
    4f07: 86 50        	stx	$50                     ; 0x2050 <parse+0x2e3>
    4f09: 6a           	ror
    4f0a: 85 13        	sta	$13                     ; 0x2013 <parse+0x2a6>
    4f0c: a6 48        	ldx	$48                     ; 0x2048 <parse+0x2db>
    4f0e: 86 40        	stx	$40                     ; 0x2040 <parse+0x2d3>
    4f10: 8a           	txa
    4f11: 6a           	ror
    4f12: 85 14        	sta	$14                     ; 0x2014 <parse+0x2a7>
    4f14: a5 3d        	lda	$3d                     ; 0x203d <parse+0x2d0>
    4f16: 85 3f        	sta	$3f                     ; 0x203f <parse+0x2d2>
    4f18: a5 3d        	lda	$3d                     ; 0x203d <parse+0x2d0>
    4f1a: 6a           	ror
    4f1b: 85 15        	sta	$15                     ; 0x2015 <parse+0x2a8>
    4f1d: a5 3c        	lda	$3c                     ; 0x203c <parse+0x2cf>
    4f1f: 6a           	ror
    4f20: 85 16        	sta	$16                     ; 0x2016 <parse+0x2a9>
    4f22: a5 22        	lda	$22                     ; 0x2022 <parse+0x2b5>
    4f24: 85 3d        	sta	$3d                     ; 0x203d <parse+0x2d0>
    4f26: a5 22        	lda	$22                     ; 0x2022 <parse+0x2b5>
    4f28: 6a           	ror
    4f29: 85 17        	sta	$17                     ; 0x2017 <parse+0x2aa>
    4f2b: 98           	tya
    4f2c: 6a           	ror
    4f2d: 85 18        	sta	$18                     ; 0x2018 <parse+0x2ab>
    4f2f: 98           	tya
    4f30: 05 18        	ora	$18                     ; 0x2018 <parse+0x2ab>
    4f32: 85 1c        	sta	$1c                     ; 0x201c <parse+0x2af>
    4f34: a5 22        	lda	$22                     ; 0x2022 <parse+0x2b5>
    4f36: 05 17        	ora	$17                     ; 0x2017 <parse+0x2aa>
    4f38: 85 1b        	sta	$1b                     ; 0x201b <parse+0x2ae>
    4f3a: a5 3c        	lda	$3c                     ; 0x203c <parse+0x2cf>
    4f3c: 05 16        	ora	$16                     ; 0x2016 <parse+0x2a9>
    4f3e: 85 1f        	sta	$1f                     ; 0x201f <parse+0x2b2>
    4f40: a5 3f        	lda	$3f                     ; 0x203f <parse+0x2d2>
    4f42: 05 15        	ora	$15                     ; 0x2015 <parse+0x2a8>
    4f44: 85 19        	sta	$19                     ; 0x2019 <parse+0x2ac>
    4f46: 8a           	txa
    4f47: 05 14        	ora	$14                     ; 0x2014 <parse+0x2a7>
    4f49: 85 1e        	sta	$1e                     ; 0x201e <parse+0x2b1>
    4f4b: a5 1a        	lda	$1a                     ; 0x201a <parse+0x2ad>
    4f4d: 05 13        	ora	$13                     ; 0x2013 <parse+0x2a6>
    4f4f: 85 1d        	sta	$1d                     ; 0x201d <parse+0x2b0>
    4f51: a5 23        	lda	$23                     ; 0x2023 <parse+0x2b6>
    4f53: 05 12        	ora	$12                     ; 0x2012 <parse+0x2a5>
    4f55: 85 22        	sta	$22                     ; 0x2022 <parse+0x2b5>
    4f57: 5a           	phy
    4f58: a6 1d        	ldx	$1d                     ; 0x201d <parse+0x2b0>
    4f5a: 86 12        	stx	$12                     ; 0x2012 <parse+0x2a5>
    4f5c: 4a           	lsr
    4f5d: 66 12        	ror	$12                     ; 0x2012 <parse+0x2a5>
    4f5f: a6 1e        	ldx	$1e                     ; 0x201e <parse+0x2b1>
    4f61: 86 13        	stx	$13                     ; 0x2013 <parse+0x2a6>
    4f63: 66 13        	ror	$13                     ; 0x2013 <parse+0x2a6>
    4f65: a6 19        	ldx	$19                     ; 0x2019 <parse+0x2ac>
    4f67: 86 14        	stx	$14                     ; 0x2014 <parse+0x2a7>
    4f69: 66 14        	ror	$14                     ; 0x2014 <parse+0x2a7>
    4f6b: a6 1f        	ldx	$1f                     ; 0x201f <parse+0x2b2>
    4f6d: 86 15        	stx	$15                     ; 0x2015 <parse+0x2a8>
    4f6f: 66 15        	ror	$15                     ; 0x2015 <parse+0x2a8>
    4f71: a6 1b        	ldx	$1b                     ; 0x201b <parse+0x2ae>
    4f73: 86 16        	stx	$16                     ; 0x2016 <parse+0x2a9>
    4f75: 66 16        	ror	$16                     ; 0x2016 <parse+0x2a9>
    4f77: a6 1c        	ldx	$1c                     ; 0x201c <parse+0x2af>
    4f79: 86 17        	stx	$17                     ; 0x2017 <parse+0x2aa>
    4f7b: 66 17        	ror	$17                     ; 0x2017 <parse+0x2aa>
    4f7d: 4a           	lsr
    4f7e: 66 12        	ror	$12                     ; 0x2012 <parse+0x2a5>
    4f80: 66 13        	ror	$13                     ; 0x2013 <parse+0x2a6>
    4f82: 66 14        	ror	$14                     ; 0x2014 <parse+0x2a7>
    4f84: 66 15        	ror	$15                     ; 0x2015 <parse+0x2a8>
    4f86: 66 16        	ror	$16                     ; 0x2016 <parse+0x2a9>
    4f88: 66 17        	ror	$17                     ; 0x2017 <parse+0x2aa>
    4f8a: 85 18        	sta	$18                     ; 0x2018 <parse+0x2ab>
    4f8c: a5 1c        	lda	$1c                     ; 0x201c <parse+0x2af>
    4f8e: 05 17        	ora	$17                     ; 0x2017 <parse+0x2aa>
    4f90: 85 1c        	sta	$1c                     ; 0x201c <parse+0x2af>
    4f92: a5 1b        	lda	$1b                     ; 0x201b <parse+0x2ae>
    4f94: 05 16        	ora	$16                     ; 0x2016 <parse+0x2a9>
    4f96: 85 1b        	sta	$1b                     ; 0x201b <parse+0x2ae>
    4f98: a5 1f        	lda	$1f                     ; 0x201f <parse+0x2b2>
    4f9a: 05 15        	ora	$15                     ; 0x2015 <parse+0x2a8>
    4f9c: 85 1f        	sta	$1f                     ; 0x201f <parse+0x2b2>
    4f9e: a5 19        	lda	$19                     ; 0x2019 <parse+0x2ac>
    4fa0: 05 14        	ora	$14                     ; 0x2014 <parse+0x2a7>
    4fa2: 85 19        	sta	$19                     ; 0x2019 <parse+0x2ac>
    4fa4: a5 1e        	lda	$1e                     ; 0x201e <parse+0x2b1>
    4fa6: 05 13        	ora	$13                     ; 0x2013 <parse+0x2a6>
    4fa8: 85 1e        	sta	$1e                     ; 0x201e <parse+0x2b1>
    4faa: a5 1d        	lda	$1d                     ; 0x201d <parse+0x2b0>
    4fac: 05 12        	ora	$12                     ; 0x2012 <parse+0x2a5>
    4fae: aa           	tax
    4faf: a5 22        	lda	$22                     ; 0x2022 <parse+0x2b5>
    4fb1: 05 18        	ora	$18                     ; 0x2018 <parse+0x2ab>
    4fb3: 85 1d        	sta	$1d                     ; 0x201d <parse+0x2b0>
    4fb5: 85 18        	sta	$18                     ; 0x2018 <parse+0x2ab>
    4fb7: 86 12        	stx	$12                     ; 0x2012 <parse+0x2a5>
    4fb9: 46 18        	lsr	$18                     ; 0x2018 <parse+0x2ab>
    4fbb: 66 12        	ror	$12                     ; 0x2012 <parse+0x2a5>
    4fbd: a4 1e        	ldy	$1e                     ; 0x201e <parse+0x2b1>
    4fbf: 84 13        	sty	$13                     ; 0x2013 <parse+0x2a6>
    4fc1: 66 13        	ror	$13                     ; 0x2013 <parse+0x2a6>
    4fc3: a4 19        	ldy	$19                     ; 0x2019 <parse+0x2ac>
    4fc5: 84 14        	sty	$14                     ; 0x2014 <parse+0x2a7>
    4fc7: 66 14        	ror	$14                     ; 0x2014 <parse+0x2a7>
    4fc9: a4 1f        	ldy	$1f                     ; 0x201f <parse+0x2b2>
    4fcb: 84 15        	sty	$15                     ; 0x2015 <parse+0x2a8>
    4fcd: 66 15        	ror	$15                     ; 0x2015 <parse+0x2a8>
    4fcf: a4 1b        	ldy	$1b                     ; 0x201b <parse+0x2ae>
    4fd1: 84 16        	sty	$16                     ; 0x2016 <parse+0x2a9>
    4fd3: 66 16        	ror	$16                     ; 0x2016 <parse+0x2a9>
    4fd5: a4 1c        	ldy	$1c                     ; 0x201c <parse+0x2af>
    4fd7: 84 17        	sty	$17                     ; 0x2017 <parse+0x2aa>
    4fd9: 66 17        	ror	$17                     ; 0x2017 <parse+0x2aa>
    4fdb: 46 18        	lsr	$18                     ; 0x2018 <parse+0x2ab>
    4fdd: 66 12        	ror	$12                     ; 0x2012 <parse+0x2a5>
    4fdf: 66 13        	ror	$13                     ; 0x2013 <parse+0x2a6>
    4fe1: 66 14        	ror	$14                     ; 0x2014 <parse+0x2a7>
    4fe3: 66 15        	ror	$15                     ; 0x2015 <parse+0x2a8>
    4fe5: 66 16        	ror	$16                     ; 0x2016 <parse+0x2a9>
    4fe7: 66 17        	ror	$17                     ; 0x2017 <parse+0x2aa>
    4fe9: 46 18        	lsr	$18                     ; 0x2018 <parse+0x2ab>
    4feb: 66 12        	ror	$12                     ; 0x2012 <parse+0x2a5>
    4fed: 66 13        	ror	$13                     ; 0x2013 <parse+0x2a6>
    4fef: 66 14        	ror	$14                     ; 0x2014 <parse+0x2a7>
    4ff1: 66 15        	ror	$15                     ; 0x2015 <parse+0x2a8>
    4ff3: 66 16        	ror	$16                     ; 0x2016 <parse+0x2a9>
    4ff5: 66 17        	ror	$17                     ; 0x2017 <parse+0x2aa>
    4ff7: 46 18        	lsr	$18                     ; 0x2018 <parse+0x2ab>
    4ff9: 66 12        	ror	$12                     ; 0x2012 <parse+0x2a5>
    4ffb: 66 13        	ror	$13                     ; 0x2013 <parse+0x2a6>
    4ffd: 66 14        	ror	$14                     ; 0x2014 <parse+0x2a7>
    4fff: 66 15        	ror	$15                     ; 0x2015 <parse+0x2a8>
    5001: 66 16        	ror	$16                     ; 0x2016 <parse+0x2a9>
    5003: 66 17        	ror	$17                     ; 0x2017 <parse+0x2aa>
    5005: a5 1c        	lda	$1c                     ; 0x201c <parse+0x2af>
    5007: 05 17        	ora	$17                     ; 0x2017 <parse+0x2aa>
    5009: 85 1c        	sta	$1c                     ; 0x201c <parse+0x2af>
    500b: a5 1b        	lda	$1b                     ; 0x201b <parse+0x2ae>
    500d: 05 16        	ora	$16                     ; 0x2016 <parse+0x2a9>
    500f: 85 1b        	sta	$1b                     ; 0x201b <parse+0x2ae>
    5011: a5 1f        	lda	$1f                     ; 0x201f <parse+0x2b2>
    5013: 05 15        	ora	$15                     ; 0x2015 <parse+0x2a8>
    5015: 85 15        	sta	$15                     ; 0x2015 <parse+0x2a8>
    5017: a5 19        	lda	$19                     ; 0x2019 <parse+0x2ac>
    5019: 05 14        	ora	$14                     ; 0x2014 <parse+0x2a7>
    501b: 85 17        	sta	$17                     ; 0x2017 <parse+0x2aa>
    501d: a5 1e        	lda	$1e                     ; 0x201e <parse+0x2b1>
    501f: 05 13        	ora	$13                     ; 0x2013 <parse+0x2a6>
    5021: 85 14        	sta	$14                     ; 0x2014 <parse+0x2a7>
    5023: 8a           	txa
    5024: 05 12        	ora	$12                     ; 0x2012 <parse+0x2a5>
    5026: 85 1e        	sta	$1e                     ; 0x201e <parse+0x2b1>
    5028: a5 1d        	lda	$1d                     ; 0x201d <parse+0x2b0>
    502a: 05 18        	ora	$18                     ; 0x2018 <parse+0x2ab>
    502c: aa           	tax
    502d: a5 1c        	lda	$1c                     ; 0x201c <parse+0x2af>
    502f: 05 1b        	ora	$1b                     ; 0x201b <parse+0x2ae>
    5031: 85 16        	sta	$16                     ; 0x2016 <parse+0x2a9>
    5033: a5 15        	lda	$15                     ; 0x2015 <parse+0x2a8>
    5035: 85 13        	sta	$13                     ; 0x2013 <parse+0x2a6>
    5037: 05 17        	ora	$17                     ; 0x2017 <parse+0x2aa>
    5039: 85 19        	sta	$19                     ; 0x2019 <parse+0x2ac>
    503b: a5 14        	lda	$14                     ; 0x2014 <parse+0x2a7>
    503d: 05 1e        	ora	$1e                     ; 0x201e <parse+0x2b1>
    503f: 85 1c        	sta	$1c                     ; 0x201c <parse+0x2af>
    5041: 86 12        	stx	$12                     ; 0x2012 <parse+0x2a5>
    5043: 86 1d        	stx	$1d                     ; 0x201d <parse+0x2b0>
    5045: a5 16        	lda	$16                     ; 0x2016 <parse+0x2a9>
    5047: 05 19        	ora	$19                     ; 0x2019 <parse+0x2ac>
    5049: 85 18        	sta	$18                     ; 0x2018 <parse+0x2ab>
    504b: a5 1c        	lda	$1c                     ; 0x201c <parse+0x2af>
    504d: 85 15        	sta	$15                     ; 0x2015 <parse+0x2a8>
    504f: 05 12        	ora	$12                     ; 0x2012 <parse+0x2a5>
    5051: 85 16        	sta	$16                     ; 0x2016 <parse+0x2a9>
    5053: 85 1f        	sta	$1f                     ; 0x201f <parse+0x2b2>
    5055: a5 18        	lda	$18                     ; 0x2018 <parse+0x2ab>
    5057: 05 16        	ora	$16                     ; 0x2016 <parse+0x2a9>
    5059: 85 1c        	sta	$1c                     ; 0x201c <parse+0x2af>
    505b: 4a           	lsr
    505c: 29 55        	and	#$55
    505e: 85 16        	sta	$16                     ; 0x2016 <parse+0x2a9>
    5060: a5 1b        	lda	$1b                     ; 0x201b <parse+0x2ae>
    5062: 05 13        	ora	$13                     ; 0x2013 <parse+0x2a6>
    5064: 85 18        	sta	$18                     ; 0x2018 <parse+0x2ab>
    5066: a5 17        	lda	$17                     ; 0x2017 <parse+0x2aa>
    5068: 05 14        	ora	$14                     ; 0x2014 <parse+0x2a7>
    506a: 85 17        	sta	$17                     ; 0x2017 <parse+0x2aa>
    506c: a5 1e        	lda	$1e                     ; 0x201e <parse+0x2b1>
    506e: 05 12        	ora	$12                     ; 0x2012 <parse+0x2a5>
    5070: aa           	tax
    5071: a5 18        	lda	$18                     ; 0x2018 <parse+0x2ab>
    5073: 05 17        	ora	$17                     ; 0x2017 <parse+0x2aa>
    5075: 86 13        	stx	$13                     ; 0x2013 <parse+0x2a6>
    5077: 05 13        	ora	$13                     ; 0x2013 <parse+0x2a6>
    5079: 85 1b        	sta	$1b                     ; 0x201b <parse+0x2ae>
    507b: 4a           	lsr
    507c: 29 55        	and	#$55
    507e: 85 14        	sta	$14                     ; 0x2014 <parse+0x2a7>
    5080: a5 19        	lda	$19                     ; 0x2019 <parse+0x2ac>
    5082: 05 15        	ora	$15                     ; 0x2015 <parse+0x2a8>
    5084: 05 12        	ora	$12                     ; 0x2012 <parse+0x2a5>
    5086: 85 22        	sta	$22                     ; 0x2022 <parse+0x2b5>
    5088: 4a           	lsr
    5089: 29 55        	and	#$55
    508b: 85 12        	sta	$12                     ; 0x2012 <parse+0x2a5>
    508d: a5 17        	lda	$17                     ; 0x2017 <parse+0x2aa>
    508f: 05 13        	ora	$13                     ; 0x2013 <parse+0x2a6>
    5091: 85 19        	sta	$19                     ; 0x2019 <parse+0x2ac>
    5093: 4a           	lsr
    5094: 29 55        	and	#$55
    5096: 85 13        	sta	$13                     ; 0x2013 <parse+0x2a6>
    5098: a5 1f        	lda	$1f                     ; 0x201f <parse+0x2b2>
    509a: 4a           	lsr
    509b: 29 55        	and	#$55
    509d: 85 15        	sta	$15                     ; 0x2015 <parse+0x2a8>
    509f: 8a           	txa
    50a0: 4a           	lsr
    50a1: 29 55        	and	#$55
    50a3: 85 17        	sta	$17                     ; 0x2017 <parse+0x2aa>
    50a5: a5 1d        	lda	$1d                     ; 0x201d <parse+0x2b0>
    50a7: 4a           	lsr
    50a8: 29 55        	and	#$55
    50aa: 85 18        	sta	$18                     ; 0x2018 <parse+0x2ab>
    50ac: 38           	sec
    50ad: a5 1c        	lda	$1c                     ; 0x201c <parse+0x2af>
    50af: e5 16        	sbc	$16                     ; 0x2016 <parse+0x2a9>
    50b1: 85 1c        	sta	$1c                     ; 0x201c <parse+0x2af>
    50b3: a5 1b        	lda	$1b                     ; 0x201b <parse+0x2ae>
    50b5: e5 14        	sbc	$14                     ; 0x2014 <parse+0x2a7>
    50b7: 85 14        	sta	$14                     ; 0x2014 <parse+0x2a7>
    50b9: a5 22        	lda	$22                     ; 0x2022 <parse+0x2b5>
    50bb: e5 12        	sbc	$12                     ; 0x2012 <parse+0x2a5>
    50bd: 85 1b        	sta	$1b                     ; 0x201b <parse+0x2ae>
    50bf: a5 19        	lda	$19                     ; 0x2019 <parse+0x2ac>
    50c1: e5 13        	sbc	$13                     ; 0x2013 <parse+0x2a6>
    50c3: 85 16        	sta	$16                     ; 0x2016 <parse+0x2a9>
    50c5: a5 1f        	lda	$1f                     ; 0x201f <parse+0x2b2>
    50c7: e5 15        	sbc	$15                     ; 0x2015 <parse+0x2a8>
    50c9: 85 19        	sta	$19                     ; 0x2019 <parse+0x2ac>
    50cb: 8a           	txa
    50cc: e5 17        	sbc	$17                     ; 0x2017 <parse+0x2aa>
    50ce: 85 17        	sta	$17                     ; 0x2017 <parse+0x2aa>
    50d0: a5 1d        	lda	$1d                     ; 0x201d <parse+0x2b0>
    50d2: e5 18        	sbc	$18                     ; 0x2018 <parse+0x2ab>
    50d4: 85 18        	sta	$18                     ; 0x2018 <parse+0x2ab>
    50d6: a9 00        	lda	#$0
    50d8: e9 00        	sbc	#$0
    50da: aa           	tax
    50db: a5 1c        	lda	$1c                     ; 0x201c <parse+0x2af>
    50dd: 29 33        	and	#$33
    50df: 85 12        	sta	$12                     ; 0x2012 <parse+0x2a5>
    50e1: a5 14        	lda	$14                     ; 0x2014 <parse+0x2a7>
    50e3: 85 23        	sta	$23                     ; 0x2023 <parse+0x2b6>
    50e5: 29 33        	and	#$33
    50e7: 85 13        	sta	$13                     ; 0x2013 <parse+0x2a6>
    50e9: a5 1b        	lda	$1b                     ; 0x201b <parse+0x2ae>
    50eb: 85 22        	sta	$22                     ; 0x2022 <parse+0x2b5>
    50ed: 29 33        	and	#$33
    50ef: 85 14        	sta	$14                     ; 0x2014 <parse+0x2a7>
    50f1: a4 16        	ldy	$16                     ; 0x2016 <parse+0x2a9>
    50f3: 84 1f        	sty	$1f                     ; 0x201f <parse+0x2b2>
    50f5: a5 16        	lda	$16                     ; 0x2016 <parse+0x2a9>
    50f7: 29 33        	and	#$33
    50f9: 85 15        	sta	$15                     ; 0x2015 <parse+0x2a8>
    50fb: a5 19        	lda	$19                     ; 0x2019 <parse+0x2ac>
    50fd: 85 1b        	sta	$1b                     ; 0x201b <parse+0x2ae>
    50ff: 29 33        	and	#$33
    5101: 85 16        	sta	$16                     ; 0x2016 <parse+0x2a9>
    5103: a5 17        	lda	$17                     ; 0x2017 <parse+0x2aa>
    5105: 85 1d        	sta	$1d                     ; 0x201d <parse+0x2b0>
    5107: 29 33        	and	#$33
    5109: 85 17        	sta	$17                     ; 0x2017 <parse+0x2aa>
    510b: a5 18        	lda	$18                     ; 0x2018 <parse+0x2ab>
    510d: 85 1e        	sta	$1e                     ; 0x201e <parse+0x2b1>
    510f: 29 33        	and	#$33
    5111: 85 18        	sta	$18                     ; 0x2018 <parse+0x2ab>
    5113: 8a           	txa
    5114: 29 33        	and	#$33
    5116: 85 19        	sta	$19                     ; 0x2019 <parse+0x2ac>
    5118: a5 1c        	lda	$1c                     ; 0x201c <parse+0x2af>
    511a: 4a           	lsr
    511b: 4a           	lsr
    511c: 29 33        	and	#$33
    511e: 18           	clc
    511f: 65 12        	adc	$12                     ; 0x2012 <parse+0x2a5>
    5121: a0 01        	ldy	#$1
    5123: b0 02        	bcs	$5127 <__muldf3+0x593>
    5125: a0 00        	ldy	#$0
    5127: 84 12        	sty	$12                     ; 0x2012 <parse+0x2a5>
    5129: 85 1a        	sta	$1a                     ; 0x201a <parse+0x2ad>
    512b: a5 23        	lda	$23                     ; 0x2023 <parse+0x2b6>
    512d: 4a           	lsr
    512e: 4a           	lsr
    512f: 29 33        	and	#$33
    5131: a4 12        	ldy	$12                     ; 0x2012 <parse+0x2a5>
    5133: c0 01        	cpy	#$1
    5135: 65 13        	adc	$13                     ; 0x2013 <parse+0x2a6>
    5137: a0 01        	ldy	#$1
    5139: b0 02        	bcs	$513d <__muldf3+0x5a9>
    513b: a0 00        	ldy	#$0
    513d: 84 12        	sty	$12                     ; 0x2012 <parse+0x2a5>
    513f: 85 13        	sta	$13                     ; 0x2013 <parse+0x2a6>
    5141: a5 22        	lda	$22                     ; 0x2022 <parse+0x2b5>
    5143: 4a           	lsr
    5144: 4a           	lsr
    5145: 29 33        	and	#$33
    5147: a4 12        	ldy	$12                     ; 0x2012 <parse+0x2a5>
    5149: c0 01        	cpy	#$1
    514b: 65 14        	adc	$14                     ; 0x2014 <parse+0x2a7>
    514d: a0 01        	ldy	#$1
    514f: b0 02        	bcs	$5153 <__muldf3+0x5bf>
    5151: a0 00        	ldy	#$0
    5153: 84 12        	sty	$12                     ; 0x2012 <parse+0x2a5>
    5155: 85 14        	sta	$14                     ; 0x2014 <parse+0x2a7>
    5157: a5 1f        	lda	$1f                     ; 0x201f <parse+0x2b2>
    5159: 4a           	lsr
    515a: 4a           	lsr
    515b: 29 33        	and	#$33
    515d: a4 12        	ldy	$12                     ; 0x2012 <parse+0x2a5>
    515f: c0 01        	cpy	#$1
    5161: 65 15        	adc	$15                     ; 0x2015 <parse+0x2a8>
    5163: a0 01        	ldy	#$1
    5165: b0 02        	bcs	$5169 <__muldf3+0x5d5>
    5167: a0 00        	ldy	#$0
    5169: 84 22        	sty	$22                     ; 0x2022 <parse+0x2b5>
    516b: 85 15        	sta	$15                     ; 0x2015 <parse+0x2a8>
    516d: 8a           	txa
    516e: 4a           	lsr
    516f: 85 1f        	sta	$1f                     ; 0x201f <parse+0x2b2>
    5171: a5 1e        	lda	$1e                     ; 0x201e <parse+0x2b1>
    5173: 4a           	lsr
    5174: 85 1c        	sta	$1c                     ; 0x201c <parse+0x2af>
    5176: a5 1d        	lda	$1d                     ; 0x201d <parse+0x2b0>
    5178: 4a           	lsr
    5179: 85 12        	sta	$12                     ; 0x2012 <parse+0x2a5>
    517b: a5 1b        	lda	$1b                     ; 0x201b <parse+0x2ae>
    517d: 4a           	lsr
    517e: a6 1f        	ldx	$1f                     ; 0x201f <parse+0x2b2>
    5180: 86 1d        	stx	$1d                     ; 0x201d <parse+0x2b0>
    5182: 46 1d        	lsr	$1d                     ; 0x201d <parse+0x2b0>
    5184: a6 1c        	ldx	$1c                     ; 0x201c <parse+0x2af>
    5186: 86 1b        	stx	$1b                     ; 0x201b <parse+0x2ae>
    5188: 46 1b        	lsr	$1b                     ; 0x201b <parse+0x2ae>
    518a: 46 12        	lsr	$12                     ; 0x2012 <parse+0x2a5>
    518c: 4a           	lsr
    518d: 29 33        	and	#$33
    518f: 85 1c        	sta	$1c                     ; 0x201c <parse+0x2af>
    5191: a5 12        	lda	$12                     ; 0x2012 <parse+0x2a5>
    5193: 29 33        	and	#$33
    5195: aa           	tax
    5196: a5 1b        	lda	$1b                     ; 0x201b <parse+0x2ae>
    5198: 29 33        	and	#$33
    519a: 85 12        	sta	$12                     ; 0x2012 <parse+0x2a5>
    519c: a5 1d        	lda	$1d                     ; 0x201d <parse+0x2b0>
    519e: 29 33        	and	#$33
    51a0: 85 1b        	sta	$1b                     ; 0x201b <parse+0x2ae>
    51a2: a4 22        	ldy	$22                     ; 0x2022 <parse+0x2b5>
    51a4: c0 01        	cpy	#$1
    51a6: a5 1c        	lda	$1c                     ; 0x201c <parse+0x2af>
    51a8: 65 16        	adc	$16                     ; 0x2016 <parse+0x2a9>
    51aa: 85 16        	sta	$16                     ; 0x2016 <parse+0x2a9>
    51ac: 8a           	txa
    51ad: 65 17        	adc	$17                     ; 0x2017 <parse+0x2aa>
    51af: 85 17        	sta	$17                     ; 0x2017 <parse+0x2aa>
    51b1: a5 12        	lda	$12                     ; 0x2012 <parse+0x2a5>
    51b3: 65 18        	adc	$18                     ; 0x2018 <parse+0x2ab>
    51b5: 85 18        	sta	$18                     ; 0x2018 <parse+0x2ab>
    51b7: a5 1b        	lda	$1b                     ; 0x201b <parse+0x2ae>
    51b9: 65 19        	adc	$19                     ; 0x2019 <parse+0x2ac>
    51bb: 85 19        	sta	$19                     ; 0x2019 <parse+0x2ac>
    51bd: 4a           	lsr
    51be: 85 1b        	sta	$1b                     ; 0x201b <parse+0x2ae>
    51c0: a5 18        	lda	$18                     ; 0x2018 <parse+0x2ab>
    51c2: 6a           	ror
    51c3: a6 17        	ldx	$17                     ; 0x2017 <parse+0x2aa>
    51c5: 86 12        	stx	$12                     ; 0x2012 <parse+0x2a5>
    51c7: 66 12        	ror	$12                     ; 0x2012 <parse+0x2a5>
    51c9: a6 16        	ldx	$16                     ; 0x2016 <parse+0x2a9>
    51cb: 86 1d        	stx	$1d                     ; 0x201d <parse+0x2b0>
    51cd: 66 1d        	ror	$1d                     ; 0x201d <parse+0x2b0>
    51cf: a6 15        	ldx	$15                     ; 0x2015 <parse+0x2a8>
    51d1: 86 1e        	stx	$1e                     ; 0x201e <parse+0x2b1>
    51d3: 66 1e        	ror	$1e                     ; 0x201e <parse+0x2b1>
    51d5: a6 14        	ldx	$14                     ; 0x2014 <parse+0x2a7>
    51d7: 86 1f        	stx	$1f                     ; 0x201f <parse+0x2b2>
    51d9: 66 1f        	ror	$1f                     ; 0x201f <parse+0x2b2>
    51db: a6 13        	ldx	$13                     ; 0x2013 <parse+0x2a6>
    51dd: 86 23        	stx	$23                     ; 0x2023 <parse+0x2b6>
    51df: 66 23        	ror	$23                     ; 0x2023 <parse+0x2b6>
    51e1: a6 1a        	ldx	$1a                     ; 0x201a <parse+0x2ad>
    51e3: 86 22        	stx	$22                     ; 0x2022 <parse+0x2b5>
    51e5: 66 22        	ror	$22                     ; 0x2022 <parse+0x2b5>
    51e7: a6 22        	ldx	$22                     ; 0x2022 <parse+0x2b5>
    51e9: 46 1b        	lsr	$1b                     ; 0x201b <parse+0x2ae>
    51eb: 6a           	ror
    51ec: 66 12        	ror	$12                     ; 0x2012 <parse+0x2a5>
    51ee: 66 1d        	ror	$1d                     ; 0x201d <parse+0x2b0>
    51f0: 66 1e        	ror	$1e                     ; 0x201e <parse+0x2b1>
    51f2: a4 1f        	ldy	$1f                     ; 0x201f <parse+0x2b2>
    51f4: 84 1c        	sty	$1c                     ; 0x201c <parse+0x2af>
    51f6: 66 1c        	ror	$1c                     ; 0x201c <parse+0x2af>
    51f8: 66 23        	ror	$23                     ; 0x2023 <parse+0x2b6>
    51fa: 86 1f        	stx	$1f                     ; 0x201f <parse+0x2b2>
    51fc: 66 1f        	ror	$1f                     ; 0x201f <parse+0x2b2>
    51fe: a6 1f        	ldx	$1f                     ; 0x201f <parse+0x2b2>
    5200: 46 1b        	lsr	$1b                     ; 0x201b <parse+0x2ae>
    5202: 85 1f        	sta	$1f                     ; 0x201f <parse+0x2b2>
    5204: 66 1f        	ror	$1f                     ; 0x201f <parse+0x2b2>
    5206: 66 12        	ror	$12                     ; 0x2012 <parse+0x2a5>
    5208: a5 1d        	lda	$1d                     ; 0x201d <parse+0x2b0>
    520a: 6a           	ror
    520b: 66 1e        	ror	$1e                     ; 0x201e <parse+0x2b1>
    520d: 66 1c        	ror	$1c                     ; 0x201c <parse+0x2af>
    520f: 66 23        	ror	$23                     ; 0x2023 <parse+0x2b6>
    5211: 86 22        	stx	$22                     ; 0x2022 <parse+0x2b5>
    5213: 66 22        	ror	$22                     ; 0x2022 <parse+0x2b5>
    5215: 46 1b        	lsr	$1b                     ; 0x201b <parse+0x2ae>
    5217: a6 1f        	ldx	$1f                     ; 0x201f <parse+0x2b2>
    5219: 86 1d        	stx	$1d                     ; 0x201d <parse+0x2b0>
    521b: 66 1d        	ror	$1d                     ; 0x201d <parse+0x2b0>
    521d: 66 12        	ror	$12                     ; 0x2012 <parse+0x2a5>
    521f: 6a           	ror
    5220: 85 1f        	sta	$1f                     ; 0x201f <parse+0x2b2>
    5222: a6 1e        	ldx	$1e                     ; 0x201e <parse+0x2b1>
    5224: 86 3e        	stx	$3e                     ; 0x203e <parse+0x2d1>
    5226: 66 3e        	ror	$3e                     ; 0x203e <parse+0x2d1>
    5228: 66 1c        	ror	$1c                     ; 0x201c <parse+0x2af>
    522a: 66 23        	ror	$23                     ; 0x2023 <parse+0x2b6>
    522c: a5 22        	lda	$22                     ; 0x2022 <parse+0x2b5>
    522e: 6a           	ror
    522f: 18           	clc
    5230: 65 1a        	adc	$1a                     ; 0x201a <parse+0x2ad>
    5232: aa           	tax
    5233: a5 23        	lda	$23                     ; 0x2023 <parse+0x2b6>
    5235: 65 13        	adc	$13                     ; 0x2013 <parse+0x2a6>
    5237: 85 13        	sta	$13                     ; 0x2013 <parse+0x2a6>
    5239: a5 1c        	lda	$1c                     ; 0x201c <parse+0x2af>
    523b: 65 14        	adc	$14                     ; 0x2014 <parse+0x2a7>
    523d: 85 14        	sta	$14                     ; 0x2014 <parse+0x2a7>
    523f: a5 3e        	lda	$3e                     ; 0x203e <parse+0x2d1>
    5241: 65 15        	adc	$15                     ; 0x2015 <parse+0x2a8>
    5243: 85 15        	sta	$15                     ; 0x2015 <parse+0x2a8>
    5245: a5 1f        	lda	$1f                     ; 0x201f <parse+0x2b2>
    5247: 65 16        	adc	$16                     ; 0x2016 <parse+0x2a9>
    5249: 85 16        	sta	$16                     ; 0x2016 <parse+0x2a9>
    524b: a5 12        	lda	$12                     ; 0x2012 <parse+0x2a5>
    524d: 65 17        	adc	$17                     ; 0x2017 <parse+0x2aa>
    524f: 85 17        	sta	$17                     ; 0x2017 <parse+0x2aa>
    5251: a5 1d        	lda	$1d                     ; 0x201d <parse+0x2b0>
    5253: 65 18        	adc	$18                     ; 0x2018 <parse+0x2ab>
    5255: 85 18        	sta	$18                     ; 0x2018 <parse+0x2ab>
    5257: a5 1b        	lda	$1b                     ; 0x201b <parse+0x2ae>
    5259: 65 19        	adc	$19                     ; 0x2019 <parse+0x2ac>
    525b: 85 19        	sta	$19                     ; 0x2019 <parse+0x2ac>
    525d: 8a           	txa
    525e: 29 0f        	and	#$f
    5260: 85 12        	sta	$12                     ; 0x2012 <parse+0x2a5>
    5262: 85 1a        	sta	$1a                     ; 0x201a <parse+0x2ad>
    5264: a5 13        	lda	$13                     ; 0x2013 <parse+0x2a6>
    5266: 29 0f        	and	#$f
    5268: 85 13        	sta	$13                     ; 0x2013 <parse+0x2a6>
    526a: 85 1e        	sta	$1e                     ; 0x201e <parse+0x2b1>
    526c: a5 14        	lda	$14                     ; 0x2014 <parse+0x2a7>
    526e: 29 0f        	and	#$f
    5270: 85 14        	sta	$14                     ; 0x2014 <parse+0x2a7>
    5272: 85 1d        	sta	$1d                     ; 0x201d <parse+0x2b0>
    5274: a5 15        	lda	$15                     ; 0x2015 <parse+0x2a8>
    5276: 29 0f        	and	#$f
    5278: 85 15        	sta	$15                     ; 0x2015 <parse+0x2a8>
    527a: 85 1c        	sta	$1c                     ; 0x201c <parse+0x2af>
    527c: a5 16        	lda	$16                     ; 0x2016 <parse+0x2a9>
    527e: 29 0f        	and	#$f
    5280: 85 16        	sta	$16                     ; 0x2016 <parse+0x2a9>
    5282: 85 1f        	sta	$1f                     ; 0x201f <parse+0x2b2>
    5284: a5 17        	lda	$17                     ; 0x2017 <parse+0x2aa>
    5286: 29 0f        	and	#$f
    5288: 85 17        	sta	$17                     ; 0x2017 <parse+0x2aa>
    528a: aa           	tax
    528b: a5 18        	lda	$18                     ; 0x2018 <parse+0x2ab>
    528d: 29 0f        	and	#$f
    528f: 85 18        	sta	$18                     ; 0x2018 <parse+0x2ab>
    5291: 85 1b        	sta	$1b                     ; 0x201b <parse+0x2ae>
    5293: a5 19        	lda	$19                     ; 0x2019 <parse+0x2ac>
    5295: 29 0f        	and	#$f
    5297: 85 19        	sta	$19                     ; 0x2019 <parse+0x2ac>
    5299: 18           	clc
    529a: a5 1a        	lda	$1a                     ; 0x201a <parse+0x2ad>
    529c: 69 00        	adc	#$0
    529e: 85 1a        	sta	$1a                     ; 0x201a <parse+0x2ad>
    52a0: a5 1e        	lda	$1e                     ; 0x201e <parse+0x2b1>
    52a2: 65 12        	adc	$12                     ; 0x2012 <parse+0x2a5>
    52a4: 85 1e        	sta	$1e                     ; 0x201e <parse+0x2b1>
    52a6: a5 1d        	lda	$1d                     ; 0x201d <parse+0x2b0>
    52a8: 65 13        	adc	$13                     ; 0x2013 <parse+0x2a6>
    52aa: 85 1d        	sta	$1d                     ; 0x201d <parse+0x2b0>
    52ac: a5 1c        	lda	$1c                     ; 0x201c <parse+0x2af>
    52ae: 65 14        	adc	$14                     ; 0x2014 <parse+0x2a7>
    52b0: 85 1c        	sta	$1c                     ; 0x201c <parse+0x2af>
    52b2: a5 1f        	lda	$1f                     ; 0x201f <parse+0x2b2>
    52b4: 65 15        	adc	$15                     ; 0x2015 <parse+0x2a8>
    52b6: 85 1f        	sta	$1f                     ; 0x201f <parse+0x2b2>
    52b8: 8a           	txa
    52b9: 65 16        	adc	$16                     ; 0x2016 <parse+0x2a9>
    52bb: aa           	tax
    52bc: a5 1b        	lda	$1b                     ; 0x201b <parse+0x2ae>
    52be: 65 17        	adc	$17                     ; 0x2017 <parse+0x2aa>
    52c0: 85 1b        	sta	$1b                     ; 0x201b <parse+0x2ae>
    52c2: a5 19        	lda	$19                     ; 0x2019 <parse+0x2ac>
    52c4: 65 18        	adc	$18                     ; 0x2018 <parse+0x2ab>
    52c6: 85 18        	sta	$18                     ; 0x2018 <parse+0x2ab>
    52c8: a5 1a        	lda	$1a                     ; 0x201a <parse+0x2ad>
    52ca: 85 12        	sta	$12                     ; 0x2012 <parse+0x2a5>
    52cc: a4 1e        	ldy	$1e                     ; 0x201e <parse+0x2b1>
    52ce: 84 13        	sty	$13                     ; 0x2013 <parse+0x2a6>
    52d0: a4 1d        	ldy	$1d                     ; 0x201d <parse+0x2b0>
    52d2: 84 14        	sty	$14                     ; 0x2014 <parse+0x2a7>
    52d4: a4 1c        	ldy	$1c                     ; 0x201c <parse+0x2af>
    52d6: 84 15        	sty	$15                     ; 0x2015 <parse+0x2a8>
    52d8: a4 1f        	ldy	$1f                     ; 0x201f <parse+0x2b2>
    52da: 84 19        	sty	$19                     ; 0x2019 <parse+0x2ac>
    52dc: a4 1f        	ldy	$1f                     ; 0x201f <parse+0x2b2>
    52de: 84 16        	sty	$16                     ; 0x2016 <parse+0x2a9>
    52e0: 7a           	ply
    52e1: 86 17        	stx	$17                     ; 0x2017 <parse+0x2aa>
    52e3: 18           	clc
    52e4: 69 00        	adc	#$0
    52e6: 85 1f        	sta	$1f                     ; 0x201f <parse+0x2b2>
    52e8: a5 1e        	lda	$1e                     ; 0x201e <parse+0x2b1>
    52ea: 69 00        	adc	#$0
    52ec: 85 1e        	sta	$1e                     ; 0x201e <parse+0x2b1>
    52ee: a5 1d        	lda	$1d                     ; 0x201d <parse+0x2b0>
    52f0: 65 12        	adc	$12                     ; 0x2012 <parse+0x2a5>
    52f2: 85 1d        	sta	$1d                     ; 0x201d <parse+0x2b0>
    52f4: a5 1c        	lda	$1c                     ; 0x201c <parse+0x2af>
    52f6: 65 13        	adc	$13                     ; 0x2013 <parse+0x2a6>
    52f8: 85 1c        	sta	$1c                     ; 0x201c <parse+0x2af>
    52fa: a5 19        	lda	$19                     ; 0x2019 <parse+0x2ac>
    52fc: 65 14        	adc	$14                     ; 0x2014 <parse+0x2a7>
    52fe: 85 1a        	sta	$1a                     ; 0x201a <parse+0x2ad>
    5300: 8a           	txa
    5301: 65 15        	adc	$15                     ; 0x2015 <parse+0x2a8>
    5303: 85 19        	sta	$19                     ; 0x2019 <parse+0x2ac>
    5305: a5 1b        	lda	$1b                     ; 0x201b <parse+0x2ae>
    5307: 65 16        	adc	$16                     ; 0x2016 <parse+0x2a9>
    5309: 85 1b        	sta	$1b                     ; 0x201b <parse+0x2ae>
    530b: a5 18        	lda	$18                     ; 0x2018 <parse+0x2ab>
    530d: 65 17        	adc	$17                     ; 0x2017 <parse+0x2aa>
    530f: 85 16        	sta	$16                     ; 0x2016 <parse+0x2a9>
    5311: a5 1f        	lda	$1f                     ; 0x201f <parse+0x2b2>
    5313: 85 12        	sta	$12                     ; 0x2012 <parse+0x2a5>
    5315: 18           	clc
    5316: 69 00        	adc	#$0
    5318: a5 1e        	lda	$1e                     ; 0x201e <parse+0x2b1>
    531a: 85 13        	sta	$13                     ; 0x2013 <parse+0x2a6>
    531c: 69 00        	adc	#$0
    531e: a5 1d        	lda	$1d                     ; 0x201d <parse+0x2b0>
    5320: 85 14        	sta	$14                     ; 0x2014 <parse+0x2a7>
    5322: 69 00        	adc	#$0
    5324: a5 1c        	lda	$1c                     ; 0x201c <parse+0x2af>
    5326: 85 15        	sta	$15                     ; 0x2015 <parse+0x2a8>
    5328: 69 00        	adc	#$0
    532a: a5 1a        	lda	$1a                     ; 0x201a <parse+0x2ad>
    532c: 65 12        	adc	$12                     ; 0x2012 <parse+0x2a5>
    532e: a5 19        	lda	$19                     ; 0x2019 <parse+0x2ac>
    5330: 65 13        	adc	$13                     ; 0x2013 <parse+0x2a6>
    5332: a5 1b        	lda	$1b                     ; 0x201b <parse+0x2ae>
    5334: 65 14        	adc	$14                     ; 0x2014 <parse+0x2a7>
    5336: a5 16        	lda	$16                     ; 0x2016 <parse+0x2a9>
    5338: 65 15        	adc	$15                     ; 0x2015 <parse+0x2a8>
    533a: 85 12        	sta	$12                     ; 0x2012 <parse+0x2a5>
    533c: a9 40        	lda	#$40
    533e: 38           	sec
    533f: e5 12        	sbc	$12                     ; 0x2012 <parse+0x2a5>
    5341: aa           	tax
    5342: a9 00        	lda	#$0
    5344: e9 00        	sbc	#$0
    5346: 85 3e        	sta	$3e                     ; 0x203e <parse+0x2d1>
    5348: 64 17        	stz	$17                     ; 0x2017 <parse+0x2aa>
    534a: 8a           	txa
    534b: 86 44        	stx	$44                     ; 0x2044 <parse+0x2d7>
    534d: 18           	clc
    534e: 69 f5        	adc	#$f5
    5350: 85 18        	sta	$18                     ; 0x2018 <parse+0x2ab>
    5352: a6 3c        	ldx	$3c                     ; 0x203c <parse+0x2cf>
    5354: 86 12        	stx	$12                     ; 0x2012 <parse+0x2a5>
    5356: a6 3f        	ldx	$3f                     ; 0x203f <parse+0x2d2>
    5358: 86 13        	stx	$13                     ; 0x2013 <parse+0x2a6>
    535a: a6 40        	ldx	$40                     ; 0x2040 <parse+0x2d3>
    535c: 86 14        	stx	$14                     ; 0x2014 <parse+0x2a7>
    535e: a6 50        	ldx	$50                     ; 0x2050 <parse+0x2e3>
    5360: 86 15        	stx	$15                     ; 0x2015 <parse+0x2a8>
    5362: a6 4b        	ldx	$4b                     ; 0x204b <parse+0x2de>
    5364: 86 16        	stx	$16                     ; 0x2016 <parse+0x2a9>
    5366: a6 3d        	ldx	$3d                     ; 0x203d <parse+0x2d0>
    5368: 98           	tya
    5369: 20 7f 48     	jsr	$487f <__ashldi3>
    536c: a8           	tay
    536d: 86 18        	stx	$18                     ; 0x2018 <parse+0x2ab>
    536f: a6 12        	ldx	$12                     ; 0x2012 <parse+0x2a5>
    5371: 86 3c        	stx	$3c                     ; 0x203c <parse+0x2cf>
    5373: a6 13        	ldx	$13                     ; 0x2013 <parse+0x2a6>
    5375: 86 3d        	stx	$3d                     ; 0x203d <parse+0x2d0>
    5377: a6 14        	ldx	$14                     ; 0x2014 <parse+0x2a7>
    5379: 86 48        	stx	$48                     ; 0x2048 <parse+0x2db>
    537b: a6 15        	ldx	$15                     ; 0x2015 <parse+0x2a8>
    537d: 86 3f        	stx	$3f                     ; 0x203f <parse+0x2d2>
    537f: a6 16        	ldx	$16                     ; 0x2016 <parse+0x2a9>
    5381: 86 4b        	stx	$4b                     ; 0x204b <parse+0x2de>
    5383: a9 0c        	lda	#$c
    5385: 38           	sec
    5386: e5 44        	sbc	$44                     ; 0x2044 <parse+0x2d7>
    5388: 85 54        	sta	$54                     ; 0x2054 <parse+0x2e7>
    538a: a6 18        	ldx	$18                     ; 0x2018 <parse+0x2ab>
    538c: 86 19        	stx	$19                     ; 0x2019 <parse+0x2ac>
    538e: a9 00        	lda	#$0
    5390: e5 3e        	sbc	$3e                     ; 0x203e <parse+0x2d1>
    5392: 85 53        	sta	$53                     ; 0x2053 <parse+0x2e6>
    5394: a6 4f        	ldx	$4f                     ; 0x204f <parse+0x2e2>
    5396: f0 03        	beq	$539b <__muldf3+0x807>
    5398: 4c fa 58     	jmp	$58fa <__muldf3+0xd66>
    539b: a6 47        	ldx	$47                     ; 0x2047 <parse+0x2da>
    539d: e0 10        	cpx	#$10
    539f: d0 28        	bne	$53c9 <__muldf3+0x835>
    53a1: a5 43        	lda	$43                     ; 0x2043 <parse+0x2d6>
    53a3: f0 03        	beq	$53a8 <__muldf3+0x814>
    53a5: 4c 9c 58     	jmp	$589c <__muldf3+0xd08>
    53a8: a5 42        	lda	$42                     ; 0x2042 <parse+0x2d5>
    53aa: f0 03        	beq	$53af <__muldf3+0x81b>
    53ac: 4c a9 58     	jmp	$58a9 <__muldf3+0xd15>
    53af: a5 41        	lda	$41                     ; 0x2041 <parse+0x2d4>
    53b1: f0 03        	beq	$53b6 <__muldf3+0x822>
    53b3: 4c bb 58     	jmp	$58bb <__muldf3+0xd27>
    53b6: a5 46        	lda	$46                     ; 0x2046 <parse+0x2d9>
    53b8: f0 03        	beq	$53bd <__muldf3+0x829>
    53ba: 4c ef 58     	jmp	$58ef <__muldf3+0xd5b>
    53bd: a5 45        	lda	$45                     ; 0x2045 <parse+0x2d8>
    53bf: f0 03        	beq	$53c4 <__muldf3+0x830>
    53c1: 4c f8 58     	jmp	$58f8 <__muldf3+0xd64>
    53c4: a6 4a        	ldx	$4a                     ; 0x204a <parse+0x2dd>
    53c6: 4c fa 58     	jmp	$58fa <__muldf3+0xd66>
    53c9: e0 10        	cpx	#$10
    53cb: 90 03        	bcc	$53d0 <__muldf3+0x83c>
    53cd: 4c 01 59     	jmp	$5901 <__muldf3+0xd6d>
    53d0: 84 50        	sty	$50                     ; 0x2050 <parse+0x2e3>
    53d2: a5 19        	lda	$19                     ; 0x2019 <parse+0x2ac>
    53d4: 85 56        	sta	$56                     ; 0x2056 <parse+0x2e9>
    53d6: a6 17        	ldx	$17                     ; 0x2017 <parse+0x2aa>
    53d8: 86 4f        	stx	$4f                     ; 0x204f <parse+0x2e2>
    53da: a6 49        	ldx	$49                     ; 0x2049 <parse+0x2dc>
    53dc: 8a           	txa
    53dd: 4a           	lsr
    53de: 85 12        	sta	$12                     ; 0x2012 <parse+0x2a5>
    53e0: a5 43        	lda	$43                     ; 0x2043 <parse+0x2d6>
    53e2: 6a           	ror
    53e3: 85 13        	sta	$13                     ; 0x2013 <parse+0x2a6>
    53e5: a5 42        	lda	$42                     ; 0x2042 <parse+0x2d5>
    53e7: 6a           	ror
    53e8: 85 14        	sta	$14                     ; 0x2014 <parse+0x2a7>
    53ea: a5 41        	lda	$41                     ; 0x2041 <parse+0x2d4>
    53ec: 6a           	ror
    53ed: 85 15        	sta	$15                     ; 0x2015 <parse+0x2a8>
    53ef: a5 46        	lda	$46                     ; 0x2046 <parse+0x2d9>
    53f1: 6a           	ror
    53f2: 85 16        	sta	$16                     ; 0x2016 <parse+0x2a9>
    53f4: a5 45        	lda	$45                     ; 0x2045 <parse+0x2d8>
    53f6: 6a           	ror
    53f7: 85 17        	sta	$17                     ; 0x2017 <parse+0x2aa>
    53f9: a5 4a        	lda	$4a                     ; 0x204a <parse+0x2dd>
    53fb: 85 44        	sta	$44                     ; 0x2044 <parse+0x2d7>
    53fd: 6a           	ror
    53fe: 85 18        	sta	$18                     ; 0x2018 <parse+0x2ab>
    5400: a5 44        	lda	$44                     ; 0x2044 <parse+0x2d7>
    5402: 05 18        	ora	$18                     ; 0x2018 <parse+0x2ab>
    5404: 85 1b        	sta	$1b                     ; 0x201b <parse+0x2ae>
    5406: a5 45        	lda	$45                     ; 0x2045 <parse+0x2d8>
    5408: 05 17        	ora	$17                     ; 0x2017 <parse+0x2aa>
    540a: 85 1a        	sta	$1a                     ; 0x201a <parse+0x2ad>
    540c: a5 46        	lda	$46                     ; 0x2046 <parse+0x2d9>
    540e: 05 16        	ora	$16                     ; 0x2016 <parse+0x2a9>
    5410: 85 1e        	sta	$1e                     ; 0x201e <parse+0x2b1>
    5412: a5 41        	lda	$41                     ; 0x2041 <parse+0x2d4>
    5414: 05 15        	ora	$15                     ; 0x2015 <parse+0x2a8>
    5416: 85 19        	sta	$19                     ; 0x2019 <parse+0x2ac>
    5418: a5 42        	lda	$42                     ; 0x2042 <parse+0x2d5>
    541a: 05 14        	ora	$14                     ; 0x2014 <parse+0x2a7>
    541c: 85 1d        	sta	$1d                     ; 0x201d <parse+0x2b0>
    541e: a5 43        	lda	$43                     ; 0x2043 <parse+0x2d6>
    5420: 05 13        	ora	$13                     ; 0x2013 <parse+0x2a6>
    5422: 85 1c        	sta	$1c                     ; 0x201c <parse+0x2af>
    5424: 8a           	txa
    5425: 05 12        	ora	$12                     ; 0x2012 <parse+0x2a5>
    5427: 85 1f        	sta	$1f                     ; 0x201f <parse+0x2b2>
    5429: a4 1c        	ldy	$1c                     ; 0x201c <parse+0x2af>
    542b: 84 12        	sty	$12                     ; 0x2012 <parse+0x2a5>
    542d: 4a           	lsr
    542e: 66 12        	ror	$12                     ; 0x2012 <parse+0x2a5>
    5430: a4 1d        	ldy	$1d                     ; 0x201d <parse+0x2b0>
    5432: 84 13        	sty	$13                     ; 0x2013 <parse+0x2a6>
    5434: 66 13        	ror	$13                     ; 0x2013 <parse+0x2a6>
    5436: a4 19        	ldy	$19                     ; 0x2019 <parse+0x2ac>
    5438: 84 14        	sty	$14                     ; 0x2014 <parse+0x2a7>
    543a: 66 14        	ror	$14                     ; 0x2014 <parse+0x2a7>
    543c: a4 1e        	ldy	$1e                     ; 0x201e <parse+0x2b1>
    543e: 84 15        	sty	$15                     ; 0x2015 <parse+0x2a8>
    5440: 66 15        	ror	$15                     ; 0x2015 <parse+0x2a8>
    5442: a4 1a        	ldy	$1a                     ; 0x201a <parse+0x2ad>
    5444: 84 16        	sty	$16                     ; 0x2016 <parse+0x2a9>
    5446: 66 16        	ror	$16                     ; 0x2016 <parse+0x2a9>
    5448: a4 1b        	ldy	$1b                     ; 0x201b <parse+0x2ae>
    544a: 84 17        	sty	$17                     ; 0x2017 <parse+0x2aa>
    544c: 66 17        	ror	$17                     ; 0x2017 <parse+0x2aa>
    544e: 4a           	lsr
    544f: 66 12        	ror	$12                     ; 0x2012 <parse+0x2a5>
    5451: 66 13        	ror	$13                     ; 0x2013 <parse+0x2a6>
    5453: 66 14        	ror	$14                     ; 0x2014 <parse+0x2a7>
    5455: 66 15        	ror	$15                     ; 0x2015 <parse+0x2a8>
    5457: 66 16        	ror	$16                     ; 0x2016 <parse+0x2a9>
    5459: 66 17        	ror	$17                     ; 0x2017 <parse+0x2aa>
    545b: 85 18        	sta	$18                     ; 0x2018 <parse+0x2ab>
    545d: a5 1b        	lda	$1b                     ; 0x201b <parse+0x2ae>
    545f: 05 17        	ora	$17                     ; 0x2017 <parse+0x2aa>
    5461: 85 1b        	sta	$1b                     ; 0x201b <parse+0x2ae>
    5463: a5 1a        	lda	$1a                     ; 0x201a <parse+0x2ad>
    5465: 05 16        	ora	$16                     ; 0x2016 <parse+0x2a9>
    5467: 85 1a        	sta	$1a                     ; 0x201a <parse+0x2ad>
    5469: a5 1e        	lda	$1e                     ; 0x201e <parse+0x2b1>
    546b: 05 15        	ora	$15                     ; 0x2015 <parse+0x2a8>
    546d: 85 1e        	sta	$1e                     ; 0x201e <parse+0x2b1>
    546f: a5 19        	lda	$19                     ; 0x2019 <parse+0x2ac>
    5471: 05 14        	ora	$14                     ; 0x2014 <parse+0x2a7>
    5473: 85 19        	sta	$19                     ; 0x2019 <parse+0x2ac>
    5475: a5 1d        	lda	$1d                     ; 0x201d <parse+0x2b0>
    5477: 05 13        	ora	$13                     ; 0x2013 <parse+0x2a6>
    5479: 85 1d        	sta	$1d                     ; 0x201d <parse+0x2b0>
    547b: a5 1c        	lda	$1c                     ; 0x201c <parse+0x2af>
    547d: 05 12        	ora	$12                     ; 0x2012 <parse+0x2a5>
    547f: 85 12        	sta	$12                     ; 0x2012 <parse+0x2a5>
    5481: a5 1f        	lda	$1f                     ; 0x201f <parse+0x2b2>
    5483: 05 18        	ora	$18                     ; 0x2018 <parse+0x2ab>
    5485: 85 1c        	sta	$1c                     ; 0x201c <parse+0x2af>
    5487: 85 18        	sta	$18                     ; 0x2018 <parse+0x2ab>
    5489: a5 12        	lda	$12                     ; 0x2012 <parse+0x2a5>
    548b: 85 1f        	sta	$1f                     ; 0x201f <parse+0x2b2>
    548d: 46 18        	lsr	$18                     ; 0x2018 <parse+0x2ab>
    548f: 66 12        	ror	$12                     ; 0x2012 <parse+0x2a5>
    5491: a4 1d        	ldy	$1d                     ; 0x201d <parse+0x2b0>
    5493: 84 13        	sty	$13                     ; 0x2013 <parse+0x2a6>
    5495: 66 13        	ror	$13                     ; 0x2013 <parse+0x2a6>
    5497: a4 19        	ldy	$19                     ; 0x2019 <parse+0x2ac>
    5499: 84 14        	sty	$14                     ; 0x2014 <parse+0x2a7>
    549b: 66 14        	ror	$14                     ; 0x2014 <parse+0x2a7>
    549d: a4 1e        	ldy	$1e                     ; 0x201e <parse+0x2b1>
    549f: 84 15        	sty	$15                     ; 0x2015 <parse+0x2a8>
    54a1: 66 15        	ror	$15                     ; 0x2015 <parse+0x2a8>
    54a3: a4 1a        	ldy	$1a                     ; 0x201a <parse+0x2ad>
    54a5: 84 16        	sty	$16                     ; 0x2016 <parse+0x2a9>
    54a7: 66 16        	ror	$16                     ; 0x2016 <parse+0x2a9>
    54a9: a4 1b        	ldy	$1b                     ; 0x201b <parse+0x2ae>
    54ab: 84 17        	sty	$17                     ; 0x2017 <parse+0x2aa>
    54ad: 66 17        	ror	$17                     ; 0x2017 <parse+0x2aa>
    54af: 46 18        	lsr	$18                     ; 0x2018 <parse+0x2ab>
    54b1: 66 12        	ror	$12                     ; 0x2012 <parse+0x2a5>
    54b3: 66 13        	ror	$13                     ; 0x2013 <parse+0x2a6>
    54b5: 66 14        	ror	$14                     ; 0x2014 <parse+0x2a7>
    54b7: 66 15        	ror	$15                     ; 0x2015 <parse+0x2a8>
    54b9: 66 16        	ror	$16                     ; 0x2016 <parse+0x2a9>
    54bb: 66 17        	ror	$17                     ; 0x2017 <parse+0x2aa>
    54bd: 46 18        	lsr	$18                     ; 0x2018 <parse+0x2ab>
    54bf: 66 12        	ror	$12                     ; 0x2012 <parse+0x2a5>
    54c1: 66 13        	ror	$13                     ; 0x2013 <parse+0x2a6>
    54c3: 66 14        	ror	$14                     ; 0x2014 <parse+0x2a7>
    54c5: 66 15        	ror	$15                     ; 0x2015 <parse+0x2a8>
    54c7: 66 16        	ror	$16                     ; 0x2016 <parse+0x2a9>
    54c9: 66 17        	ror	$17                     ; 0x2017 <parse+0x2aa>
    54cb: 46 18        	lsr	$18                     ; 0x2018 <parse+0x2ab>
    54cd: 66 12        	ror	$12                     ; 0x2012 <parse+0x2a5>
    54cf: 66 13        	ror	$13                     ; 0x2013 <parse+0x2a6>
    54d1: 66 14        	ror	$14                     ; 0x2014 <parse+0x2a7>
    54d3: 66 15        	ror	$15                     ; 0x2015 <parse+0x2a8>
    54d5: 66 16        	ror	$16                     ; 0x2016 <parse+0x2a9>
    54d7: 66 17        	ror	$17                     ; 0x2017 <parse+0x2aa>
    54d9: a5 1b        	lda	$1b                     ; 0x201b <parse+0x2ae>
    54db: 05 17        	ora	$17                     ; 0x2017 <parse+0x2aa>
    54dd: 85 1b        	sta	$1b                     ; 0x201b <parse+0x2ae>
    54df: a5 1a        	lda	$1a                     ; 0x201a <parse+0x2ad>
    54e1: 05 16        	ora	$16                     ; 0x2016 <parse+0x2a9>
    54e3: 85 1a        	sta	$1a                     ; 0x201a <parse+0x2ad>
    54e5: a5 1e        	lda	$1e                     ; 0x201e <parse+0x2b1>
    54e7: 05 15        	ora	$15                     ; 0x2015 <parse+0x2a8>
    54e9: 85 15        	sta	$15                     ; 0x2015 <parse+0x2a8>
    54eb: a5 19        	lda	$19                     ; 0x2019 <parse+0x2ac>
    54ed: 05 14        	ora	$14                     ; 0x2014 <parse+0x2a7>
    54ef: 85 17        	sta	$17                     ; 0x2017 <parse+0x2aa>
    54f1: a5 1d        	lda	$1d                     ; 0x201d <parse+0x2b0>
    54f3: 05 13        	ora	$13                     ; 0x2013 <parse+0x2a6>
    54f5: 85 14        	sta	$14                     ; 0x2014 <parse+0x2a7>
    54f7: a5 1f        	lda	$1f                     ; 0x201f <parse+0x2b2>
    54f9: 05 12        	ora	$12                     ; 0x2012 <parse+0x2a5>
    54fb: 85 1d        	sta	$1d                     ; 0x201d <parse+0x2b0>
    54fd: a5 1c        	lda	$1c                     ; 0x201c <parse+0x2af>
    54ff: 05 18        	ora	$18                     ; 0x2018 <parse+0x2ab>
    5501: 85 18        	sta	$18                     ; 0x2018 <parse+0x2ab>
    5503: a5 1b        	lda	$1b                     ; 0x201b <parse+0x2ae>
    5505: 05 1a        	ora	$1a                     ; 0x201a <parse+0x2ad>
    5507: 85 16        	sta	$16                     ; 0x2016 <parse+0x2a9>
    5509: a5 15        	lda	$15                     ; 0x2015 <parse+0x2a8>
    550b: 85 13        	sta	$13                     ; 0x2013 <parse+0x2a6>
    550d: 05 17        	ora	$17                     ; 0x2017 <parse+0x2aa>
    550f: 85 19        	sta	$19                     ; 0x2019 <parse+0x2ac>
    5511: a5 14        	lda	$14                     ; 0x2014 <parse+0x2a7>
    5513: 05 1d        	ora	$1d                     ; 0x201d <parse+0x2b0>
    5515: 85 1b        	sta	$1b                     ; 0x201b <parse+0x2ae>
    5517: a5 18        	lda	$18                     ; 0x2018 <parse+0x2ab>
    5519: 85 12        	sta	$12                     ; 0x2012 <parse+0x2a5>
    551b: 85 1c        	sta	$1c                     ; 0x201c <parse+0x2af>
    551d: a5 16        	lda	$16                     ; 0x2016 <parse+0x2a9>
    551f: 05 19        	ora	$19                     ; 0x2019 <parse+0x2ac>
    5521: 85 18        	sta	$18                     ; 0x2018 <parse+0x2ab>
    5523: a5 1b        	lda	$1b                     ; 0x201b <parse+0x2ae>
    5525: 85 15        	sta	$15                     ; 0x2015 <parse+0x2a8>
    5527: 05 12        	ora	$12                     ; 0x2012 <parse+0x2a5>
    5529: 85 16        	sta	$16                     ; 0x2016 <parse+0x2a9>
    552b: 85 1e        	sta	$1e                     ; 0x201e <parse+0x2b1>
    552d: a5 18        	lda	$18                     ; 0x2018 <parse+0x2ab>
    552f: 05 16        	ora	$16                     ; 0x2016 <parse+0x2a9>
    5531: 85 1b        	sta	$1b                     ; 0x201b <parse+0x2ae>
    5533: 4a           	lsr
    5534: 29 55        	and	#$55
    5536: 85 16        	sta	$16                     ; 0x2016 <parse+0x2a9>
    5538: a5 1a        	lda	$1a                     ; 0x201a <parse+0x2ad>
    553a: 05 13        	ora	$13                     ; 0x2013 <parse+0x2a6>
    553c: 85 18        	sta	$18                     ; 0x2018 <parse+0x2ab>
    553e: a5 17        	lda	$17                     ; 0x2017 <parse+0x2aa>
    5540: 05 14        	ora	$14                     ; 0x2014 <parse+0x2a7>
    5542: 85 17        	sta	$17                     ; 0x2017 <parse+0x2aa>
    5544: a5 1d        	lda	$1d                     ; 0x201d <parse+0x2b0>
    5546: 05 12        	ora	$12                     ; 0x2012 <parse+0x2a5>
    5548: 85 1a        	sta	$1a                     ; 0x201a <parse+0x2ad>
    554a: a5 18        	lda	$18                     ; 0x2018 <parse+0x2ab>
    554c: 05 17        	ora	$17                     ; 0x2017 <parse+0x2aa>
    554e: 85 14        	sta	$14                     ; 0x2014 <parse+0x2a7>
    5550: a5 1a        	lda	$1a                     ; 0x201a <parse+0x2ad>
    5552: 85 13        	sta	$13                     ; 0x2013 <parse+0x2a6>
    5554: 85 1d        	sta	$1d                     ; 0x201d <parse+0x2b0>
    5556: a5 14        	lda	$14                     ; 0x2014 <parse+0x2a7>
    5558: 05 13        	ora	$13                     ; 0x2013 <parse+0x2a6>
    555a: 85 1a        	sta	$1a                     ; 0x201a <parse+0x2ad>
    555c: 4a           	lsr
    555d: 29 55        	and	#$55
    555f: 85 14        	sta	$14                     ; 0x2014 <parse+0x2a7>
    5561: a5 19        	lda	$19                     ; 0x2019 <parse+0x2ac>
    5563: 05 15        	ora	$15                     ; 0x2015 <parse+0x2a8>
    5565: 05 12        	ora	$12                     ; 0x2012 <parse+0x2a5>
    5567: 85 1f        	sta	$1f                     ; 0x201f <parse+0x2b2>
    5569: 4a           	lsr
    556a: 29 55        	and	#$55
    556c: 85 12        	sta	$12                     ; 0x2012 <parse+0x2a5>
    556e: a5 17        	lda	$17                     ; 0x2017 <parse+0x2aa>
    5570: 05 13        	ora	$13                     ; 0x2013 <parse+0x2a6>
    5572: 85 19        	sta	$19                     ; 0x2019 <parse+0x2ac>
    5574: 4a           	lsr
    5575: 29 55        	and	#$55
    5577: 85 13        	sta	$13                     ; 0x2013 <parse+0x2a6>
    5579: a5 1e        	lda	$1e                     ; 0x201e <parse+0x2b1>
    557b: 4a           	lsr
    557c: 29 55        	and	#$55
    557e: 85 15        	sta	$15                     ; 0x2015 <parse+0x2a8>
    5580: a5 1d        	lda	$1d                     ; 0x201d <parse+0x2b0>
    5582: 4a           	lsr
    5583: 29 55        	and	#$55
    5585: 85 17        	sta	$17                     ; 0x2017 <parse+0x2aa>
    5587: a5 1c        	lda	$1c                     ; 0x201c <parse+0x2af>
    5589: 4a           	lsr
    558a: 29 55        	and	#$55
    558c: 85 18        	sta	$18                     ; 0x2018 <parse+0x2ab>
    558e: 38           	sec
    558f: a5 1b        	lda	$1b                     ; 0x201b <parse+0x2ae>
    5591: e5 16        	sbc	$16                     ; 0x2016 <parse+0x2a9>
    5593: 85 1b        	sta	$1b                     ; 0x201b <parse+0x2ae>
    5595: a5 1a        	lda	$1a                     ; 0x201a <parse+0x2ad>
    5597: e5 14        	sbc	$14                     ; 0x2014 <parse+0x2a7>
    5599: 85 14        	sta	$14                     ; 0x2014 <parse+0x2a7>
    559b: a5 1f        	lda	$1f                     ; 0x201f <parse+0x2b2>
    559d: e5 12        	sbc	$12                     ; 0x2012 <parse+0x2a5>
    559f: 85 1a        	sta	$1a                     ; 0x201a <parse+0x2ad>
    55a1: a5 19        	lda	$19                     ; 0x2019 <parse+0x2ac>
    55a3: e5 13        	sbc	$13                     ; 0x2013 <parse+0x2a6>
    55a5: 85 16        	sta	$16                     ; 0x2016 <parse+0x2a9>
    55a7: a5 1e        	lda	$1e                     ; 0x201e <parse+0x2b1>
    55a9: e5 15        	sbc	$15                     ; 0x2015 <parse+0x2a8>
    55ab: 85 19        	sta	$19                     ; 0x2019 <parse+0x2ac>
    55ad: a5 1d        	lda	$1d                     ; 0x201d <parse+0x2b0>
    55af: e5 17        	sbc	$17                     ; 0x2017 <parse+0x2aa>
    55b1: 85 17        	sta	$17                     ; 0x2017 <parse+0x2aa>
    55b3: a5 1c        	lda	$1c                     ; 0x201c <parse+0x2af>
    55b5: e5 18        	sbc	$18                     ; 0x2018 <parse+0x2ab>
    55b7: 85 18        	sta	$18                     ; 0x2018 <parse+0x2ab>
    55b9: a9 00        	lda	#$0
    55bb: e9 00        	sbc	#$0
    55bd: 85 1c        	sta	$1c                     ; 0x201c <parse+0x2af>
    55bf: a5 1b        	lda	$1b                     ; 0x201b <parse+0x2ae>
    55c1: 29 33        	and	#$33
    55c3: 85 12        	sta	$12                     ; 0x2012 <parse+0x2a5>
    55c5: a5 14        	lda	$14                     ; 0x2014 <parse+0x2a7>
    55c7: 85 23        	sta	$23                     ; 0x2023 <parse+0x2b6>
    55c9: 29 33        	and	#$33
    55cb: 85 13        	sta	$13                     ; 0x2013 <parse+0x2a6>
    55cd: a5 1a        	lda	$1a                     ; 0x201a <parse+0x2ad>
    55cf: 85 22        	sta	$22                     ; 0x2022 <parse+0x2b5>
    55d1: 29 33        	and	#$33
    55d3: 85 14        	sta	$14                     ; 0x2014 <parse+0x2a7>
    55d5: a4 16        	ldy	$16                     ; 0x2016 <parse+0x2a9>
    55d7: 84 1f        	sty	$1f                     ; 0x201f <parse+0x2b2>
    55d9: a5 16        	lda	$16                     ; 0x2016 <parse+0x2a9>
    55db: 29 33        	and	#$33
    55dd: 85 15        	sta	$15                     ; 0x2015 <parse+0x2a8>
    55df: a5 19        	lda	$19                     ; 0x2019 <parse+0x2ac>
    55e1: 85 1a        	sta	$1a                     ; 0x201a <parse+0x2ad>
    55e3: 29 33        	and	#$33
    55e5: 85 16        	sta	$16                     ; 0x2016 <parse+0x2a9>
    55e7: a5 17        	lda	$17                     ; 0x2017 <parse+0x2aa>
    55e9: 85 1d        	sta	$1d                     ; 0x201d <parse+0x2b0>
    55eb: 29 33        	and	#$33
    55ed: 85 17        	sta	$17                     ; 0x2017 <parse+0x2aa>
    55ef: a5 18        	lda	$18                     ; 0x2018 <parse+0x2ab>
    55f1: 85 1e        	sta	$1e                     ; 0x201e <parse+0x2b1>
    55f3: 29 33        	and	#$33
    55f5: 85 18        	sta	$18                     ; 0x2018 <parse+0x2ab>
    55f7: a5 1c        	lda	$1c                     ; 0x201c <parse+0x2af>
    55f9: 29 33        	and	#$33
    55fb: 85 19        	sta	$19                     ; 0x2019 <parse+0x2ac>
    55fd: a5 1b        	lda	$1b                     ; 0x201b <parse+0x2ae>
    55ff: 4a           	lsr
    5600: 4a           	lsr
    5601: 29 33        	and	#$33
    5603: 18           	clc
    5604: 65 12        	adc	$12                     ; 0x2012 <parse+0x2a5>
    5606: a0 01        	ldy	#$1
    5608: b0 02        	bcs	$560c <__muldf3+0xa78>
    560a: a0 00        	ldy	#$0
    560c: 84 1b        	sty	$1b                     ; 0x201b <parse+0x2ae>
    560e: 85 12        	sta	$12                     ; 0x2012 <parse+0x2a5>
    5610: a5 23        	lda	$23                     ; 0x2023 <parse+0x2b6>
    5612: 4a           	lsr
    5613: 4a           	lsr
    5614: 29 33        	and	#$33
    5616: a4 1b        	ldy	$1b                     ; 0x201b <parse+0x2ae>
    5618: c0 01        	cpy	#$1
    561a: 65 13        	adc	$13                     ; 0x2013 <parse+0x2a6>
    561c: a0 01        	ldy	#$1
    561e: b0 02        	bcs	$5622 <__muldf3+0xa8e>
    5620: a0 00        	ldy	#$0
    5622: 84 1b        	sty	$1b                     ; 0x201b <parse+0x2ae>
    5624: 85 13        	sta	$13                     ; 0x2013 <parse+0x2a6>
    5626: a5 22        	lda	$22                     ; 0x2022 <parse+0x2b5>
    5628: 4a           	lsr
    5629: 4a           	lsr
    562a: 29 33        	and	#$33
    562c: a4 1b        	ldy	$1b                     ; 0x201b <parse+0x2ae>
    562e: c0 01        	cpy	#$1
    5630: 65 14        	adc	$14                     ; 0x2014 <parse+0x2a7>
    5632: a0 01        	ldy	#$1
    5634: b0 02        	bcs	$5638 <__muldf3+0xaa4>
    5636: a0 00        	ldy	#$0
    5638: 84 1b        	sty	$1b                     ; 0x201b <parse+0x2ae>
    563a: 85 14        	sta	$14                     ; 0x2014 <parse+0x2a7>
    563c: a5 1f        	lda	$1f                     ; 0x201f <parse+0x2b2>
    563e: 4a           	lsr
    563f: 4a           	lsr
    5640: 29 33        	and	#$33
    5642: a4 1b        	ldy	$1b                     ; 0x201b <parse+0x2ae>
    5644: c0 01        	cpy	#$1
    5646: 65 15        	adc	$15                     ; 0x2015 <parse+0x2a8>
    5648: a0 01        	ldy	#$1
    564a: b0 02        	bcs	$564e <__muldf3+0xaba>
    564c: a0 00        	ldy	#$0
    564e: 84 22        	sty	$22                     ; 0x2022 <parse+0x2b5>
    5650: 85 15        	sta	$15                     ; 0x2015 <parse+0x2a8>
    5652: a5 1c        	lda	$1c                     ; 0x201c <parse+0x2af>
    5654: 4a           	lsr
    5655: 85 1f        	sta	$1f                     ; 0x201f <parse+0x2b2>
    5657: a5 1e        	lda	$1e                     ; 0x201e <parse+0x2b1>
    5659: 4a           	lsr
    565a: 85 1c        	sta	$1c                     ; 0x201c <parse+0x2af>
    565c: a5 1d        	lda	$1d                     ; 0x201d <parse+0x2b0>
    565e: 4a           	lsr
    565f: 85 1b        	sta	$1b                     ; 0x201b <parse+0x2ae>
    5661: a5 1a        	lda	$1a                     ; 0x201a <parse+0x2ad>
    5663: 4a           	lsr
    5664: a4 1f        	ldy	$1f                     ; 0x201f <parse+0x2b2>
    5666: 84 1d        	sty	$1d                     ; 0x201d <parse+0x2b0>
    5668: 46 1d        	lsr	$1d                     ; 0x201d <parse+0x2b0>
    566a: 46 1c        	lsr	$1c                     ; 0x201c <parse+0x2af>
    566c: a4 1b        	ldy	$1b                     ; 0x201b <parse+0x2ae>
    566e: 84 1a        	sty	$1a                     ; 0x201a <parse+0x2ad>
    5670: 46 1a        	lsr	$1a                     ; 0x201a <parse+0x2ad>
    5672: 4a           	lsr
    5673: 29 33        	and	#$33
    5675: 85 1e        	sta	$1e                     ; 0x201e <parse+0x2b1>
    5677: a5 1a        	lda	$1a                     ; 0x201a <parse+0x2ad>
    5679: 29 33        	and	#$33
    567b: 85 1a        	sta	$1a                     ; 0x201a <parse+0x2ad>
    567d: a5 1c        	lda	$1c                     ; 0x201c <parse+0x2af>
    567f: 29 33        	and	#$33
    5681: 85 1b        	sta	$1b                     ; 0x201b <parse+0x2ae>
    5683: a5 1d        	lda	$1d                     ; 0x201d <parse+0x2b0>
    5685: 29 33        	and	#$33
    5687: 85 1c        	sta	$1c                     ; 0x201c <parse+0x2af>
    5689: a4 22        	ldy	$22                     ; 0x2022 <parse+0x2b5>
    568b: c0 01        	cpy	#$1
    568d: a5 1e        	lda	$1e                     ; 0x201e <parse+0x2b1>
    568f: 65 16        	adc	$16                     ; 0x2016 <parse+0x2a9>
    5691: 85 16        	sta	$16                     ; 0x2016 <parse+0x2a9>
    5693: a5 1a        	lda	$1a                     ; 0x201a <parse+0x2ad>
    5695: 65 17        	adc	$17                     ; 0x2017 <parse+0x2aa>
    5697: 85 17        	sta	$17                     ; 0x2017 <parse+0x2aa>
    5699: a5 1b        	lda	$1b                     ; 0x201b <parse+0x2ae>
    569b: 65 18        	adc	$18                     ; 0x2018 <parse+0x2ab>
    569d: 85 18        	sta	$18                     ; 0x2018 <parse+0x2ab>
    569f: a5 1c        	lda	$1c                     ; 0x201c <parse+0x2af>
    56a1: 65 19        	adc	$19                     ; 0x2019 <parse+0x2ac>
    56a3: 85 19        	sta	$19                     ; 0x2019 <parse+0x2ac>
    56a5: 4a           	lsr
    56a6: 85 1a        	sta	$1a                     ; 0x201a <parse+0x2ad>
    56a8: a5 18        	lda	$18                     ; 0x2018 <parse+0x2ab>
    56aa: 6a           	ror
    56ab: a4 17        	ldy	$17                     ; 0x2017 <parse+0x2aa>
    56ad: 84 1b        	sty	$1b                     ; 0x201b <parse+0x2ae>
    56af: 66 1b        	ror	$1b                     ; 0x201b <parse+0x2ae>
    56b1: a4 16        	ldy	$16                     ; 0x2016 <parse+0x2a9>
    56b3: 84 1c        	sty	$1c                     ; 0x201c <parse+0x2af>
    56b5: 66 1c        	ror	$1c                     ; 0x201c <parse+0x2af>
    56b7: a4 15        	ldy	$15                     ; 0x2015 <parse+0x2a8>
    56b9: 84 1d        	sty	$1d                     ; 0x201d <parse+0x2b0>
    56bb: 66 1d        	ror	$1d                     ; 0x201d <parse+0x2b0>
    56bd: a4 14        	ldy	$14                     ; 0x2014 <parse+0x2a7>
    56bf: 84 1e        	sty	$1e                     ; 0x201e <parse+0x2b1>
    56c1: 66 1e        	ror	$1e                     ; 0x201e <parse+0x2b1>
    56c3: a4 13        	ldy	$13                     ; 0x2013 <parse+0x2a6>
    56c5: 84 22        	sty	$22                     ; 0x2022 <parse+0x2b5>
    56c7: 66 22        	ror	$22                     ; 0x2022 <parse+0x2b5>
    56c9: a4 12        	ldy	$12                     ; 0x2012 <parse+0x2a5>
    56cb: 84 1f        	sty	$1f                     ; 0x201f <parse+0x2b2>
    56cd: 66 1f        	ror	$1f                     ; 0x201f <parse+0x2b2>
    56cf: a4 1f        	ldy	$1f                     ; 0x201f <parse+0x2b2>
    56d1: 84 23        	sty	$23                     ; 0x2023 <parse+0x2b6>
    56d3: 46 1a        	lsr	$1a                     ; 0x201a <parse+0x2ad>
    56d5: 6a           	ror
    56d6: 85 1f        	sta	$1f                     ; 0x201f <parse+0x2b2>
    56d8: a5 1b        	lda	$1b                     ; 0x201b <parse+0x2ae>
    56da: 6a           	ror
    56db: 66 1c        	ror	$1c                     ; 0x201c <parse+0x2af>
    56dd: 66 1d        	ror	$1d                     ; 0x201d <parse+0x2b0>
    56df: a4 1e        	ldy	$1e                     ; 0x201e <parse+0x2b1>
    56e1: 84 1b        	sty	$1b                     ; 0x201b <parse+0x2ae>
    56e3: 66 1b        	ror	$1b                     ; 0x201b <parse+0x2ae>
    56e5: 66 22        	ror	$22                     ; 0x2022 <parse+0x2b5>
    56e7: 66 23        	ror	$23                     ; 0x2023 <parse+0x2b6>
    56e9: 46 1a        	lsr	$1a                     ; 0x201a <parse+0x2ad>
    56eb: a4 1f        	ldy	$1f                     ; 0x201f <parse+0x2b2>
    56ed: 84 1e        	sty	$1e                     ; 0x201e <parse+0x2b1>
    56ef: 66 1e        	ror	$1e                     ; 0x201e <parse+0x2b1>
    56f1: 6a           	ror
    56f2: 85 40        	sta	$40                     ; 0x2040 <parse+0x2d3>
    56f4: a5 1c        	lda	$1c                     ; 0x201c <parse+0x2af>
    56f6: 6a           	ror
    56f7: 66 1d        	ror	$1d                     ; 0x201d <parse+0x2b0>
    56f9: 66 1b        	ror	$1b                     ; 0x201b <parse+0x2ae>
    56fb: 66 22        	ror	$22                     ; 0x2022 <parse+0x2b5>
    56fd: a4 23        	ldy	$23                     ; 0x2023 <parse+0x2b6>
    56ff: 84 1f        	sty	$1f                     ; 0x201f <parse+0x2b2>
    5701: 66 1f        	ror	$1f                     ; 0x201f <parse+0x2b2>
    5703: 46 1a        	lsr	$1a                     ; 0x201a <parse+0x2ad>
    5705: a4 1e        	ldy	$1e                     ; 0x201e <parse+0x2b1>
    5707: 84 1c        	sty	$1c                     ; 0x201c <parse+0x2af>
    5709: 66 1c        	ror	$1c                     ; 0x201c <parse+0x2af>
    570b: a4 40        	ldy	$40                     ; 0x2040 <parse+0x2d3>
    570d: 84 1e        	sty	$1e                     ; 0x201e <parse+0x2b1>
    570f: 66 1e        	ror	$1e                     ; 0x201e <parse+0x2b1>
    5711: 6a           	ror
    5712: 85 23        	sta	$23                     ; 0x2023 <parse+0x2b6>
    5714: a4 1d        	ldy	$1d                     ; 0x201d <parse+0x2b0>
    5716: 84 40        	sty	$40                     ; 0x2040 <parse+0x2d3>
    5718: 66 40        	ror	$40                     ; 0x2040 <parse+0x2d3>
    571a: 66 1b        	ror	$1b                     ; 0x201b <parse+0x2ae>
    571c: 66 22        	ror	$22                     ; 0x2022 <parse+0x2b5>
    571e: a5 1f        	lda	$1f                     ; 0x201f <parse+0x2b2>
    5720: 6a           	ror
    5721: 18           	clc
    5722: 65 12        	adc	$12                     ; 0x2012 <parse+0x2a5>
    5724: 85 12        	sta	$12                     ; 0x2012 <parse+0x2a5>
    5726: a5 22        	lda	$22                     ; 0x2022 <parse+0x2b5>
    5728: 65 13        	adc	$13                     ; 0x2013 <parse+0x2a6>
    572a: 85 13        	sta	$13                     ; 0x2013 <parse+0x2a6>
    572c: a5 1b        	lda	$1b                     ; 0x201b <parse+0x2ae>
    572e: 65 14        	adc	$14                     ; 0x2014 <parse+0x2a7>
    5730: 85 14        	sta	$14                     ; 0x2014 <parse+0x2a7>
    5732: a5 40        	lda	$40                     ; 0x2040 <parse+0x2d3>
    5734: 65 15        	adc	$15                     ; 0x2015 <parse+0x2a8>
    5736: 85 15        	sta	$15                     ; 0x2015 <parse+0x2a8>
    5738: a5 23        	lda	$23                     ; 0x2023 <parse+0x2b6>
    573a: 65 16        	adc	$16                     ; 0x2016 <parse+0x2a9>
    573c: 85 16        	sta	$16                     ; 0x2016 <parse+0x2a9>
    573e: a5 1e        	lda	$1e                     ; 0x201e <parse+0x2b1>
    5740: 65 17        	adc	$17                     ; 0x2017 <parse+0x2aa>
    5742: 85 17        	sta	$17                     ; 0x2017 <parse+0x2aa>
    5744: a5 1c        	lda	$1c                     ; 0x201c <parse+0x2af>
    5746: 65 18        	adc	$18                     ; 0x2018 <parse+0x2ab>
    5748: 85 18        	sta	$18                     ; 0x2018 <parse+0x2ab>
    574a: a5 1a        	lda	$1a                     ; 0x201a <parse+0x2ad>
    574c: 65 19        	adc	$19                     ; 0x2019 <parse+0x2ac>
    574e: 85 19        	sta	$19                     ; 0x2019 <parse+0x2ac>
    5750: a5 12        	lda	$12                     ; 0x2012 <parse+0x2a5>
    5752: 29 0f        	and	#$f
    5754: 85 12        	sta	$12                     ; 0x2012 <parse+0x2a5>
    5756: 85 1d        	sta	$1d                     ; 0x201d <parse+0x2b0>
    5758: a5 13        	lda	$13                     ; 0x2013 <parse+0x2a6>
    575a: 29 0f        	and	#$f
    575c: 85 13        	sta	$13                     ; 0x2013 <parse+0x2a6>
    575e: 85 1e        	sta	$1e                     ; 0x201e <parse+0x2b1>
    5760: a5 14        	lda	$14                     ; 0x2014 <parse+0x2a7>
    5762: 29 0f        	and	#$f
    5764: 85 14        	sta	$14                     ; 0x2014 <parse+0x2a7>
    5766: 85 1c        	sta	$1c                     ; 0x201c <parse+0x2af>
    5768: a5 15        	lda	$15                     ; 0x2015 <parse+0x2a8>
    576a: 29 0f        	and	#$f
    576c: 85 15        	sta	$15                     ; 0x2015 <parse+0x2a8>
    576e: 85 1f        	sta	$1f                     ; 0x201f <parse+0x2b2>
    5770: a5 16        	lda	$16                     ; 0x2016 <parse+0x2a9>
    5772: 29 0f        	and	#$f
    5774: 85 16        	sta	$16                     ; 0x2016 <parse+0x2a9>
    5776: 85 1a        	sta	$1a                     ; 0x201a <parse+0x2ad>
    5778: a5 17        	lda	$17                     ; 0x2017 <parse+0x2aa>
    577a: 29 0f        	and	#$f
    577c: 85 17        	sta	$17                     ; 0x2017 <parse+0x2aa>
    577e: 85 22        	sta	$22                     ; 0x2022 <parse+0x2b5>
    5780: a5 18        	lda	$18                     ; 0x2018 <parse+0x2ab>
    5782: 29 0f        	and	#$f
    5784: 85 18        	sta	$18                     ; 0x2018 <parse+0x2ab>
    5786: 85 1b        	sta	$1b                     ; 0x201b <parse+0x2ae>
    5788: a5 19        	lda	$19                     ; 0x2019 <parse+0x2ac>
    578a: 29 0f        	and	#$f
    578c: 85 19        	sta	$19                     ; 0x2019 <parse+0x2ac>
    578e: 18           	clc
    578f: a5 1d        	lda	$1d                     ; 0x201d <parse+0x2b0>
    5791: 69 00        	adc	#$0
    5793: 85 1d        	sta	$1d                     ; 0x201d <parse+0x2b0>
    5795: a5 1e        	lda	$1e                     ; 0x201e <parse+0x2b1>
    5797: 65 12        	adc	$12                     ; 0x2012 <parse+0x2a5>
    5799: 85 1e        	sta	$1e                     ; 0x201e <parse+0x2b1>
    579b: a5 1c        	lda	$1c                     ; 0x201c <parse+0x2af>
    579d: 65 13        	adc	$13                     ; 0x2013 <parse+0x2a6>
    579f: 85 1c        	sta	$1c                     ; 0x201c <parse+0x2af>
    57a1: a5 1f        	lda	$1f                     ; 0x201f <parse+0x2b2>
    57a3: 65 14        	adc	$14                     ; 0x2014 <parse+0x2a7>
    57a5: 85 1f        	sta	$1f                     ; 0x201f <parse+0x2b2>
    57a7: a5 1a        	lda	$1a                     ; 0x201a <parse+0x2ad>
    57a9: 65 15        	adc	$15                     ; 0x2015 <parse+0x2a8>
    57ab: 85 1a        	sta	$1a                     ; 0x201a <parse+0x2ad>
    57ad: a5 22        	lda	$22                     ; 0x2022 <parse+0x2b5>
    57af: 65 16        	adc	$16                     ; 0x2016 <parse+0x2a9>
    57b1: 85 22        	sta	$22                     ; 0x2022 <parse+0x2b5>
    57b3: a5 1b        	lda	$1b                     ; 0x201b <parse+0x2ae>
    57b5: 65 17        	adc	$17                     ; 0x2017 <parse+0x2aa>
    57b7: 85 1b        	sta	$1b                     ; 0x201b <parse+0x2ae>
    57b9: a5 19        	lda	$19                     ; 0x2019 <parse+0x2ac>
    57bb: 65 18        	adc	$18                     ; 0x2018 <parse+0x2ab>
    57bd: 85 18        	sta	$18                     ; 0x2018 <parse+0x2ab>
    57bf: a4 1e        	ldy	$1e                     ; 0x201e <parse+0x2b1>
    57c1: 84 13        	sty	$13                     ; 0x2013 <parse+0x2a6>
    57c3: a4 1c        	ldy	$1c                     ; 0x201c <parse+0x2af>
    57c5: 84 14        	sty	$14                     ; 0x2014 <parse+0x2a7>
    57c7: a4 1f        	ldy	$1f                     ; 0x201f <parse+0x2b2>
    57c9: 84 19        	sty	$19                     ; 0x2019 <parse+0x2ac>
    57cb: a4 1f        	ldy	$1f                     ; 0x201f <parse+0x2b2>
    57cd: 84 15        	sty	$15                     ; 0x2015 <parse+0x2a8>
    57cf: a4 22        	ldy	$22                     ; 0x2022 <parse+0x2b5>
    57d1: 84 17        	sty	$17                     ; 0x2017 <parse+0x2aa>
    57d3: 18           	clc
    57d4: a5 1d        	lda	$1d                     ; 0x201d <parse+0x2b0>
    57d6: 69 00        	adc	#$0
    57d8: 85 1f        	sta	$1f                     ; 0x201f <parse+0x2b2>
    57da: a5 1e        	lda	$1e                     ; 0x201e <parse+0x2b1>
    57dc: 69 00        	adc	#$0
    57de: 85 1e        	sta	$1e                     ; 0x201e <parse+0x2b1>
    57e0: a5 1c        	lda	$1c                     ; 0x201c <parse+0x2af>
    57e2: 65 1d        	adc	$1d                     ; 0x201d <parse+0x2b0>
    57e4: 85 1d        	sta	$1d                     ; 0x201d <parse+0x2b0>
    57e6: a5 19        	lda	$19                     ; 0x2019 <parse+0x2ac>
    57e8: 65 13        	adc	$13                     ; 0x2013 <parse+0x2a6>
    57ea: 85 1c        	sta	$1c                     ; 0x201c <parse+0x2af>
    57ec: a5 1a        	lda	$1a                     ; 0x201a <parse+0x2ad>
    57ee: 65 14        	adc	$14                     ; 0x2014 <parse+0x2a7>
    57f0: 85 19        	sta	$19                     ; 0x2019 <parse+0x2ac>
    57f2: a5 22        	lda	$22                     ; 0x2022 <parse+0x2b5>
    57f4: 65 15        	adc	$15                     ; 0x2015 <parse+0x2a8>
    57f6: 85 22        	sta	$22                     ; 0x2022 <parse+0x2b5>
    57f8: a5 1b        	lda	$1b                     ; 0x201b <parse+0x2ae>
    57fa: 65 1a        	adc	$1a                     ; 0x201a <parse+0x2ad>
    57fc: 85 1a        	sta	$1a                     ; 0x201a <parse+0x2ad>
    57fe: a5 18        	lda	$18                     ; 0x2018 <parse+0x2ab>
    5800: 65 17        	adc	$17                     ; 0x2017 <parse+0x2aa>
    5802: 85 16        	sta	$16                     ; 0x2016 <parse+0x2a9>
    5804: a5 1f        	lda	$1f                     ; 0x201f <parse+0x2b2>
    5806: 85 12        	sta	$12                     ; 0x2012 <parse+0x2a5>
    5808: 18           	clc
    5809: 69 00        	adc	#$0
    580b: a5 1e        	lda	$1e                     ; 0x201e <parse+0x2b1>
    580d: 85 13        	sta	$13                     ; 0x2013 <parse+0x2a6>
    580f: 69 00        	adc	#$0
    5811: a5 1d        	lda	$1d                     ; 0x201d <parse+0x2b0>
    5813: 85 14        	sta	$14                     ; 0x2014 <parse+0x2a7>
    5815: 69 00        	adc	#$0
    5817: a5 1c        	lda	$1c                     ; 0x201c <parse+0x2af>
    5819: 85 15        	sta	$15                     ; 0x2015 <parse+0x2a8>
    581b: 69 00        	adc	#$0
    581d: a5 19        	lda	$19                     ; 0x2019 <parse+0x2ac>
    581f: 65 12        	adc	$12                     ; 0x2012 <parse+0x2a5>
    5821: a5 22        	lda	$22                     ; 0x2022 <parse+0x2b5>
    5823: 65 13        	adc	$13                     ; 0x2013 <parse+0x2a6>
    5825: a5 1a        	lda	$1a                     ; 0x201a <parse+0x2ad>
    5827: 65 14        	adc	$14                     ; 0x2014 <parse+0x2a7>
    5829: a5 16        	lda	$16                     ; 0x2016 <parse+0x2a9>
    582b: 65 15        	adc	$15                     ; 0x2015 <parse+0x2a8>
    582d: 85 12        	sta	$12                     ; 0x2012 <parse+0x2a5>
    582f: a9 40        	lda	#$40
    5831: 38           	sec
    5832: e5 12        	sbc	$12                     ; 0x2012 <parse+0x2a5>
    5834: 85 40        	sta	$40                     ; 0x2040 <parse+0x2d3>
    5836: 85 12        	sta	$12                     ; 0x2012 <parse+0x2a5>
    5838: a9 00        	lda	#$0
    583a: e9 00        	sbc	#$0
    583c: 85 47        	sta	$47                     ; 0x2047 <parse+0x2da>
    583e: 18           	clc
    583f: a5 12        	lda	$12                     ; 0x2012 <parse+0x2a5>
    5841: 69 f5        	adc	#$f5
    5843: a4 46        	ldy	$46                     ; 0x2046 <parse+0x2d9>
    5845: 84 12        	sty	$12                     ; 0x2012 <parse+0x2a5>
    5847: a4 41        	ldy	$41                     ; 0x2041 <parse+0x2d4>
    5849: 84 13        	sty	$13                     ; 0x2013 <parse+0x2a6>
    584b: a4 42        	ldy	$42                     ; 0x2042 <parse+0x2d5>
    584d: 84 14        	sty	$14                     ; 0x2014 <parse+0x2a7>
    584f: a4 43        	ldy	$43                     ; 0x2043 <parse+0x2d6>
    5851: 84 15        	sty	$15                     ; 0x2015 <parse+0x2a8>
    5853: 86 16        	stx	$16                     ; 0x2016 <parse+0x2a9>
    5855: 64 17        	stz	$17                     ; 0x2017 <parse+0x2aa>
    5857: 85 18        	sta	$18                     ; 0x2018 <parse+0x2ab>
    5859: a6 45        	ldx	$45                     ; 0x2045 <parse+0x2d8>
    585b: a5 44        	lda	$44                     ; 0x2044 <parse+0x2d7>
    585d: 20 7f 48     	jsr	$487f <__ashldi3>
    5860: 85 4a        	sta	$4a                     ; 0x204a <parse+0x2dd>
    5862: 86 45        	stx	$45                     ; 0x2045 <parse+0x2d8>
    5864: a6 12        	ldx	$12                     ; 0x2012 <parse+0x2a5>
    5866: 86 46        	stx	$46                     ; 0x2046 <parse+0x2d9>
    5868: a6 13        	ldx	$13                     ; 0x2013 <parse+0x2a6>
    586a: 86 41        	stx	$41                     ; 0x2041 <parse+0x2d4>
    586c: a6 14        	ldx	$14                     ; 0x2014 <parse+0x2a7>
    586e: 86 42        	stx	$42                     ; 0x2042 <parse+0x2d5>
    5870: a6 15        	ldx	$15                     ; 0x2015 <parse+0x2a8>
    5872: 86 43        	stx	$43                     ; 0x2043 <parse+0x2d6>
    5874: a6 16        	ldx	$16                     ; 0x2016 <parse+0x2a9>
    5876: 86 49        	stx	$49                     ; 0x2049 <parse+0x2dc>
    5878: a6 54        	ldx	$54                     ; 0x2054 <parse+0x2e7>
    587a: 8a           	txa
    587b: 38           	sec
    587c: e5 40        	sbc	$40                     ; 0x2040 <parse+0x2d3>
    587e: aa           	tax
    587f: a5 53        	lda	$53                     ; 0x2053 <parse+0x2e6>
    5881: e5 47        	sbc	$47                     ; 0x2047 <parse+0x2da>
    5883: a8           	tay
    5884: 18           	clc
    5885: 8a           	txa
    5886: 69 0c        	adc	#$c
    5888: 85 12        	sta	$12                     ; 0x2012 <parse+0x2a5>
    588a: 98           	tya
    588b: 69 00        	adc	#$0
    588d: a6 12        	ldx	$12                     ; 0x2012 <parse+0x2a5>
    588f: 86 5d        	stx	$5d                     ; 0x205d <parse+0x2f0>
    5891: 85 53        	sta	$53                     ; 0x2053 <parse+0x2e6>
    5893: a5 56        	lda	$56                     ; 0x2056 <parse+0x2e9>
    5895: 85 19        	sta	$19                     ; 0x2019 <parse+0x2ac>
    5897: a4 50        	ldy	$50                     ; 0x2050 <parse+0x2e3>
    5899: 4c 0d 59     	jmp	$590d <__muldf3+0xd79>
    589c: a6 43        	ldx	$43                     ; 0x2043 <parse+0x2d6>
    589e: 80 5a        	bra	$58fa <__muldf3+0xd66>
    58a0: a6 3c        	ldx	$3c                     ; 0x203c <parse+0x2cf>
    58a2: 4c 07 4d     	jmp	$4d07 <__muldf3+0x173>
    58a5: a6 41        	ldx	$41                     ; 0x2041 <parse+0x2d4>
    58a7: 80 18        	bra	$58c1 <__muldf3+0xd2d>
    58a9: a6 42        	ldx	$42                     ; 0x2042 <parse+0x2d5>
    58ab: 80 4d        	bra	$58fa <__muldf3+0xd66>
    58ad: a6 22        	ldx	$22                     ; 0x2022 <parse+0x2b5>
    58af: 4c 07 4d     	jmp	$4d07 <__muldf3+0x173>
    58b2: a6 1a        	ldx	$1a                     ; 0x201a <parse+0x2ad>
    58b4: 80 0b        	bra	$58c1 <__muldf3+0xd2d>
    58b6: a6 3d        	ldx	$3d                     ; 0x203d <parse+0x2d0>
    58b8: 4c d6 4e     	jmp	$4ed6 <__muldf3+0x342>
    58bb: a6 41        	ldx	$41                     ; 0x2041 <parse+0x2d4>
    58bd: 80 3b        	bra	$58fa <__muldf3+0xd66>
    58bf: a6 45        	ldx	$45                     ; 0x2045 <parse+0x2d8>
    58c1: e0 00        	cpx	#$0
    58c3: b0 03        	bcs	$58c8 <__muldf3+0xd34>
    58c5: 4c 17 4d     	jmp	$4d17 <__muldf3+0x183>
    58c8: a5 1e        	lda	$1e                     ; 0x201e <parse+0x2b1>
    58ca: 09 08        	ora	#$8
    58cc: a6 4a        	ldx	$4a                     ; 0x204a <parse+0x2dd>
    58ce: 86 18        	stx	$18                     ; 0x2018 <parse+0x2ab>
    58d0: a6 45        	ldx	$45                     ; 0x2045 <parse+0x2d8>
    58d2: 86 22        	stx	$22                     ; 0x2022 <parse+0x2b5>
    58d4: a6 1a        	ldx	$1a                     ; 0x201a <parse+0x2ad>
    58d6: 86 3c        	stx	$3c                     ; 0x203c <parse+0x2cf>
    58d8: a6 41        	ldx	$41                     ; 0x2041 <parse+0x2d4>
    58da: 86 13        	stx	$13                     ; 0x2013 <parse+0x2a6>
    58dc: a6 1c        	ldx	$1c                     ; 0x201c <parse+0x2af>
    58de: 86 3e        	stx	$3e                     ; 0x203e <parse+0x2d1>
    58e0: a6 1d        	ldx	$1d                     ; 0x201d <parse+0x2b0>
    58e2: 86 3f        	stx	$3f                     ; 0x203f <parse+0x2d2>
    58e4: a8           	tay
    58e5: a5 1f        	lda	$1f                     ; 0x201f <parse+0x2b2>
    58e7: 4c 4c 5f     	jmp	$5f4c <__muldf3+0x13b8>
    58ea: a6 3c        	ldx	$3c                     ; 0x203c <parse+0x2cf>
    58ec: 4c d6 4e     	jmp	$4ed6 <__muldf3+0x342>
    58ef: a6 46        	ldx	$46                     ; 0x2046 <parse+0x2d9>
    58f1: 80 07        	bra	$58fa <__muldf3+0xd66>
    58f3: a6 22        	ldx	$22                     ; 0x2022 <parse+0x2b5>
    58f5: 4c d6 4e     	jmp	$4ed6 <__muldf3+0x342>
    58f8: a6 45        	ldx	$45                     ; 0x2045 <parse+0x2d8>
    58fa: e0 00        	cpx	#$0
    58fc: b0 03        	bcs	$5901 <__muldf3+0xd6d>
    58fe: 4c d0 53     	jmp	$53d0 <__muldf3+0x83c>
    5901: a6 17        	ldx	$17                     ; 0x2017 <parse+0x2aa>
    5903: 86 4f        	stx	$4f                     ; 0x204f <parse+0x2e2>
    5905: a6 54        	ldx	$54                     ; 0x2054 <parse+0x2e7>
    5907: 86 5d        	stx	$5d                     ; 0x205d <parse+0x2f0>
    5909: a6 53        	ldx	$53                     ; 0x2053 <parse+0x2e6>
    590b: 86 53        	stx	$53                     ; 0x2053 <parse+0x2e6>
    590d: a5 4a        	lda	$4a                     ; 0x204a <parse+0x2dd>
    590f: 0a           	asl
    5910: 26 45        	rol	$45                     ; 0x2045 <parse+0x2d8>
    5912: 26 46        	rol	$46                     ; 0x2046 <parse+0x2d9>
    5914: 26 41        	rol	$41                     ; 0x2041 <parse+0x2d4>
    5916: 26 42        	rol	$42                     ; 0x2042 <parse+0x2d5>
    5918: 26 43        	rol	$43                     ; 0x2043 <parse+0x2d6>
    591a: a6 49        	ldx	$49                     ; 0x2049 <parse+0x2dc>
    591c: 86 3e        	stx	$3e                     ; 0x203e <parse+0x2d1>
    591e: 26 3e        	rol	$3e                     ; 0x203e <parse+0x2d1>
    5920: a6 3e        	ldx	$3e                     ; 0x203e <parse+0x2d1>
    5922: 86 47        	stx	$47                     ; 0x2047 <parse+0x2da>
    5924: 0a           	asl
    5925: 26 45        	rol	$45                     ; 0x2045 <parse+0x2d8>
    5927: 26 46        	rol	$46                     ; 0x2046 <parse+0x2d9>
    5929: 26 41        	rol	$41                     ; 0x2041 <parse+0x2d4>
    592b: 26 42        	rol	$42                     ; 0x2042 <parse+0x2d5>
    592d: 26 43        	rol	$43                     ; 0x2043 <parse+0x2d6>
    592f: 26 47        	rol	$47                     ; 0x2047 <parse+0x2da>
    5931: 0a           	asl
    5932: 26 45        	rol	$45                     ; 0x2045 <parse+0x2d8>
    5934: 26 46        	rol	$46                     ; 0x2046 <parse+0x2d9>
    5936: 26 41        	rol	$41                     ; 0x2041 <parse+0x2d4>
    5938: 26 42        	rol	$42                     ; 0x2042 <parse+0x2d5>
    593a: 26 43        	rol	$43                     ; 0x2043 <parse+0x2d6>
    593c: 26 47        	rol	$47                     ; 0x2047 <parse+0x2da>
    593e: 29 f8        	and	#$f8
    5940: 85 44        	sta	$44                     ; 0x2044 <parse+0x2d7>
    5942: a6 45        	ldx	$45                     ; 0x2045 <parse+0x2d8>
    5944: 86 12        	stx	$12                     ; 0x2012 <parse+0x2a5>
    5946: a6 46        	ldx	$46                     ; 0x2046 <parse+0x2d9>
    5948: 86 13        	stx	$13                     ; 0x2013 <parse+0x2a6>
    594a: 64 14        	stz	$14                     ; 0x2014 <parse+0x2a7>
    594c: 64 15        	stz	$15                     ; 0x2015 <parse+0x2a8>
    594e: 64 16        	stz	$16                     ; 0x2016 <parse+0x2a9>
    5950: 64 17        	stz	$17                     ; 0x2017 <parse+0x2aa>
    5952: 84 18        	sty	$18                     ; 0x2018 <parse+0x2ab>
    5954: a6 3c        	ldx	$3c                     ; 0x203c <parse+0x2cf>
    5956: 86 1a        	stx	$1a                     ; 0x201a <parse+0x2ad>
    5958: a6 3d        	ldx	$3d                     ; 0x203d <parse+0x2d0>
    595a: 86 1b        	stx	$1b                     ; 0x201b <parse+0x2ae>
    595c: 64 1c        	stz	$1c                     ; 0x201c <parse+0x2af>
    595e: 64 1d        	stz	$1d                     ; 0x201d <parse+0x2b0>
    5960: 64 1e        	stz	$1e                     ; 0x201e <parse+0x2b1>
    5962: 64 1f        	stz	$1f                     ; 0x201f <parse+0x2b2>
    5964: aa           	tax
    5965: a5 19        	lda	$19                     ; 0x2019 <parse+0x2ac>
    5967: 85 40        	sta	$40                     ; 0x2040 <parse+0x2d3>
    5969: a9 00        	lda	#$0
    596b: 84 3e        	sty	$3e                     ; 0x203e <parse+0x2d1>
    596d: 20 2d 49     	jsr	$492d <__muldi3>
    5970: 86 4a        	stx	$4a                     ; 0x204a <parse+0x2dd>
    5972: a6 12        	ldx	$12                     ; 0x2012 <parse+0x2a5>
    5974: 86 55        	stx	$55                     ; 0x2055 <parse+0x2e8>
    5976: a6 13        	ldx	$13                     ; 0x2013 <parse+0x2a6>
    5978: 86 54        	stx	$54                     ; 0x2054 <parse+0x2e7>
    597a: a6 14        	ldx	$14                     ; 0x2014 <parse+0x2a7>
    597c: 86 61        	stx	$61                     ; 0x2061 <parse+0x2f4>
    597e: a6 15        	ldx	$15                     ; 0x2015 <parse+0x2a8>
    5980: 86 60        	stx	$60                     ; 0x2060 <parse+0x2f3>
    5982: a6 16        	ldx	$16                     ; 0x2016 <parse+0x2a9>
    5984: 86 5f        	stx	$5f                     ; 0x205f <parse+0x2f2>
    5986: a6 17        	ldx	$17                     ; 0x2017 <parse+0x2aa>
    5988: 86 5e        	stx	$5e                     ; 0x205e <parse+0x2f1>
    598a: a5 47        	lda	$47                     ; 0x2047 <parse+0x2da>
    598c: 09 80        	ora	#$80
    598e: 85 49        	sta	$49                     ; 0x2049 <parse+0x2dc>
    5990: a6 3e        	ldx	$3e                     ; 0x203e <parse+0x2d1>
    5992: 86 18        	stx	$18                     ; 0x2018 <parse+0x2ab>
    5994: a6 40        	ldx	$40                     ; 0x2040 <parse+0x2d3>
    5996: 86 19        	stx	$19                     ; 0x2019 <parse+0x2ac>
    5998: a6 43        	ldx	$43                     ; 0x2043 <parse+0x2d6>
    599a: 86 12        	stx	$12                     ; 0x2012 <parse+0x2a5>
    599c: 85 13        	sta	$13                     ; 0x2013 <parse+0x2a6>
    599e: 64 14        	stz	$14                     ; 0x2014 <parse+0x2a7>
    59a0: 64 15        	stz	$15                     ; 0x2015 <parse+0x2a8>
    59a2: 64 16        	stz	$16                     ; 0x2016 <parse+0x2a9>
    59a4: 64 17        	stz	$17                     ; 0x2017 <parse+0x2aa>
    59a6: a6 3c        	ldx	$3c                     ; 0x203c <parse+0x2cf>
    59a8: 86 1a        	stx	$1a                     ; 0x201a <parse+0x2ad>
    59aa: a6 3d        	ldx	$3d                     ; 0x203d <parse+0x2d0>
    59ac: 86 1b        	stx	$1b                     ; 0x201b <parse+0x2ae>
    59ae: 64 1c        	stz	$1c                     ; 0x201c <parse+0x2af>
    59b0: 64 1d        	stz	$1d                     ; 0x201d <parse+0x2b0>
    59b2: 64 1e        	stz	$1e                     ; 0x201e <parse+0x2b1>
    59b4: 64 1f        	stz	$1f                     ; 0x201f <parse+0x2b2>
    59b6: a6 42        	ldx	$42                     ; 0x2042 <parse+0x2d5>
    59b8: a5 41        	lda	$41                     ; 0x2041 <parse+0x2d4>
    59ba: 20 2d 49     	jsr	$492d <__muldi3>
    59bd: 85 5c        	sta	$5c                     ; 0x205c <parse+0x2ef>
    59bf: 86 62        	stx	$62                     ; 0x2062 <parse+0x2f5>
    59c1: a6 12        	ldx	$12                     ; 0x2012 <parse+0x2a5>
    59c3: 86 5a        	stx	$5a                     ; 0x205a <parse+0x2ed>
    59c5: a6 13        	ldx	$13                     ; 0x2013 <parse+0x2a6>
    59c7: 86 5b        	stx	$5b                     ; 0x205b <parse+0x2ee>
    59c9: a6 14        	ldx	$14                     ; 0x2014 <parse+0x2a7>
    59cb: 86 50        	stx	$50                     ; 0x2050 <parse+0x2e3>
    59cd: a6 15        	ldx	$15                     ; 0x2015 <parse+0x2a8>
    59cf: 86 56        	stx	$56                     ; 0x2056 <parse+0x2e9>
    59d1: a6 16        	ldx	$16                     ; 0x2016 <parse+0x2a9>
    59d3: 86 58        	stx	$58                     ; 0x2058 <parse+0x2eb>
    59d5: a6 17        	ldx	$17                     ; 0x2017 <parse+0x2aa>
    59d7: 86 57        	stx	$57                     ; 0x2057 <parse+0x2ea>
    59d9: a6 4b        	ldx	$4b                     ; 0x204b <parse+0x2de>
    59db: 8a           	txa
    59dc: 09 10        	ora	#$10
    59de: 85 40        	sta	$40                     ; 0x2040 <parse+0x2d3>
    59e0: a6 45        	ldx	$45                     ; 0x2045 <parse+0x2d8>
    59e2: 86 12        	stx	$12                     ; 0x2012 <parse+0x2a5>
    59e4: a6 46        	ldx	$46                     ; 0x2046 <parse+0x2d9>
    59e6: 86 13        	stx	$13                     ; 0x2013 <parse+0x2a6>
    59e8: 64 14        	stz	$14                     ; 0x2014 <parse+0x2a7>
    59ea: 64 15        	stz	$15                     ; 0x2015 <parse+0x2a8>
    59ec: 64 16        	stz	$16                     ; 0x2016 <parse+0x2a9>
    59ee: 64 17        	stz	$17                     ; 0x2017 <parse+0x2aa>
    59f0: a6 48        	ldx	$48                     ; 0x2048 <parse+0x2db>
    59f2: 86 3e        	stx	$3e                     ; 0x203e <parse+0x2d1>
    59f4: 86 18        	stx	$18                     ; 0x2018 <parse+0x2ab>
    59f6: a6 3f        	ldx	$3f                     ; 0x203f <parse+0x2d2>
    59f8: 86 19        	stx	$19                     ; 0x2019 <parse+0x2ac>
    59fa: 85 1a        	sta	$1a                     ; 0x201a <parse+0x2ad>
    59fc: a6 4f        	ldx	$4f                     ; 0x204f <parse+0x2e2>
    59fe: 86 1b        	stx	$1b                     ; 0x201b <parse+0x2ae>
    5a00: 86 47        	stx	$47                     ; 0x2047 <parse+0x2da>
    5a02: 64 1c        	stz	$1c                     ; 0x201c <parse+0x2af>
    5a04: 64 1d        	stz	$1d                     ; 0x201d <parse+0x2b0>
    5a06: 64 1e        	stz	$1e                     ; 0x201e <parse+0x2b1>
    5a08: 64 1f        	stz	$1f                     ; 0x201f <parse+0x2b2>
    5a0a: a6 44        	ldx	$44                     ; 0x2044 <parse+0x2d7>
    5a0c: a9 00        	lda	#$0
    5a0e: 20 2d 49     	jsr	$492d <__muldi3>
    5a11: 86 3c        	stx	$3c                     ; 0x203c <parse+0x2cf>
    5a13: a6 12        	ldx	$12                     ; 0x2012 <parse+0x2a5>
    5a15: 86 3d        	stx	$3d                     ; 0x203d <parse+0x2d0>
    5a17: a6 13        	ldx	$13                     ; 0x2013 <parse+0x2a6>
    5a19: 86 44        	stx	$44                     ; 0x2044 <parse+0x2d7>
    5a1b: a6 14        	ldx	$14                     ; 0x2014 <parse+0x2a7>
    5a1d: 86 4b        	stx	$4b                     ; 0x204b <parse+0x2de>
    5a1f: a6 15        	ldx	$15                     ; 0x2015 <parse+0x2a8>
    5a21: 86 59        	stx	$59                     ; 0x2059 <parse+0x2ec>
    5a23: a6 16        	ldx	$16                     ; 0x2016 <parse+0x2a9>
    5a25: 86 46        	stx	$46                     ; 0x2046 <parse+0x2d9>
    5a27: a6 17        	ldx	$17                     ; 0x2017 <parse+0x2aa>
    5a29: 86 45        	stx	$45                     ; 0x2045 <parse+0x2d8>
    5a2b: a6 43        	ldx	$43                     ; 0x2043 <parse+0x2d6>
    5a2d: 86 12        	stx	$12                     ; 0x2012 <parse+0x2a5>
    5a2f: a6 49        	ldx	$49                     ; 0x2049 <parse+0x2dc>
    5a31: 86 13        	stx	$13                     ; 0x2013 <parse+0x2a6>
    5a33: a6 3e        	ldx	$3e                     ; 0x203e <parse+0x2d1>
    5a35: 86 18        	stx	$18                     ; 0x2018 <parse+0x2ab>
    5a37: a6 3f        	ldx	$3f                     ; 0x203f <parse+0x2d2>
    5a39: 86 19        	stx	$19                     ; 0x2019 <parse+0x2ac>
    5a3b: a6 40        	ldx	$40                     ; 0x2040 <parse+0x2d3>
    5a3d: 86 1a        	stx	$1a                     ; 0x201a <parse+0x2ad>
    5a3f: 64 14        	stz	$14                     ; 0x2014 <parse+0x2a7>
    5a41: 64 15        	stz	$15                     ; 0x2015 <parse+0x2a8>
    5a43: 64 16        	stz	$16                     ; 0x2016 <parse+0x2a9>
    5a45: 64 17        	stz	$17                     ; 0x2017 <parse+0x2aa>
    5a47: a6 47        	ldx	$47                     ; 0x2047 <parse+0x2da>
    5a49: 86 1b        	stx	$1b                     ; 0x201b <parse+0x2ae>
    5a4b: 64 1c        	stz	$1c                     ; 0x201c <parse+0x2af>
    5a4d: 64 1d        	stz	$1d                     ; 0x201d <parse+0x2b0>
    5a4f: 64 1e        	stz	$1e                     ; 0x201e <parse+0x2b1>
    5a51: 64 1f        	stz	$1f                     ; 0x201f <parse+0x2b2>
    5a53: a6 42        	ldx	$42                     ; 0x2042 <parse+0x2d5>
    5a55: a5 41        	lda	$41                     ; 0x2041 <parse+0x2d4>
    5a57: 20 2d 49     	jsr	$492d <__muldi3>
    5a5a: 64 19        	stz	$19                     ; 0x2019 <parse+0x2ac>
    5a5c: 85 1f        	sta	$1f                     ; 0x201f <parse+0x2b2>
    5a5e: 86 1e        	stx	$1e                     ; 0x201e <parse+0x2b1>
    5a60: a6 17        	ldx	$17                     ; 0x2017 <parse+0x2aa>
    5a62: 86 1d        	stx	$1d                     ; 0x201d <parse+0x2b0>
    5a64: a5 3c        	lda	$3c                     ; 0x203c <parse+0x2cf>
    5a66: 29 f8        	and	#$f8
    5a68: a8           	tay
    5a69: a9 00        	lda	#$0
    5a6b: 18           	clc
    5a6c: a6 61        	ldx	$61                     ; 0x2061 <parse+0x2f4>
    5a6e: 86 17        	stx	$17                     ; 0x2017 <parse+0x2aa>
    5a70: 65 17        	adc	$17                     ; 0x2017 <parse+0x2aa>
    5a72: 85 1c        	sta	$1c                     ; 0x201c <parse+0x2af>
    5a74: a6 60        	ldx	$60                     ; 0x2060 <parse+0x2f3>
    5a76: 86 17        	stx	$17                     ; 0x2017 <parse+0x2aa>
    5a78: 98           	tya
    5a79: 65 17        	adc	$17                     ; 0x2017 <parse+0x2aa>
    5a7b: 85 23        	sta	$23                     ; 0x2023 <parse+0x2b6>
    5a7d: a5 3d        	lda	$3d                     ; 0x203d <parse+0x2d0>
    5a7f: a6 5f        	ldx	$5f                     ; 0x205f <parse+0x2f2>
    5a81: 86 17        	stx	$17                     ; 0x2017 <parse+0x2aa>
    5a83: 65 17        	adc	$17                     ; 0x2017 <parse+0x2aa>
    5a85: 85 1b        	sta	$1b                     ; 0x201b <parse+0x2ae>
    5a87: a5 44        	lda	$44                     ; 0x2044 <parse+0x2d7>
    5a89: a6 5e        	ldx	$5e                     ; 0x205e <parse+0x2f1>
    5a8b: 86 17        	stx	$17                     ; 0x2017 <parse+0x2aa>
    5a8d: 65 17        	adc	$17                     ; 0x2017 <parse+0x2aa>
    5a8f: 85 1a        	sta	$1a                     ; 0x201a <parse+0x2ad>
    5a91: a9 00        	lda	#$0
    5a93: 69 00        	adc	#$0
    5a95: 85 22        	sta	$22                     ; 0x2022 <parse+0x2b5>
    5a97: a9 00        	lda	#$0
    5a99: 69 00        	adc	#$0
    5a9b: a0 01        	ldy	#$1
    5a9d: b0 02        	bcs	$5aa1 <__muldf3+0xf0d>
    5a9f: a0 00        	ldy	#$0
    5aa1: 85 3c        	sta	$3c                     ; 0x203c <parse+0x2cf>
    5aa3: a6 52        	ldx	$52                     ; 0x2052 <parse+0x2e5>
    5aa5: 86 17        	stx	$17                     ; 0x2017 <parse+0x2aa>
    5aa7: a6 4d        	ldx	$4d                     ; 0x204d <parse+0x2e0>
    5aa9: 8a           	txa
    5aaa: 18           	clc
    5aab: 65 17        	adc	$17                     ; 0x2017 <parse+0x2aa>
    5aad: 85 3e        	sta	$3e                     ; 0x203e <parse+0x2d1>
    5aaf: a6 51        	ldx	$51                     ; 0x2051 <parse+0x2e4>
    5ab1: 86 17        	stx	$17                     ; 0x2017 <parse+0x2aa>
    5ab3: a6 4e        	ldx	$4e                     ; 0x204e <parse+0x2e1>
    5ab5: 8a           	txa
    5ab6: 65 17        	adc	$17                     ; 0x2017 <parse+0x2aa>
    5ab8: 85 3f        	sta	$3f                     ; 0x203f <parse+0x2d2>
    5aba: a9 00        	lda	#$0
    5abc: c0 01        	cpy	#$1
    5abe: 69 00        	adc	#$0
    5ac0: 85 3d        	sta	$3d                     ; 0x203d <parse+0x2d0>
    5ac2: a2 01        	ldx	#$1
    5ac4: b0 02        	bcs	$5ac8 <__muldf3+0xf34>
    5ac6: a2 00        	ldx	#$0
    5ac8: 86 18        	stx	$18                     ; 0x2018 <parse+0x2ab>
    5aca: 18           	clc
    5acb: a6 5d        	ldx	$5d                     ; 0x205d <parse+0x2f0>
    5acd: 86 17        	stx	$17                     ; 0x2017 <parse+0x2aa>
    5acf: a5 3e        	lda	$3e                     ; 0x203e <parse+0x2d1>
    5ad1: 65 17        	adc	$17                     ; 0x2017 <parse+0x2aa>
    5ad3: a8           	tay
    5ad4: a6 53        	ldx	$53                     ; 0x2053 <parse+0x2e6>
    5ad6: 86 17        	stx	$17                     ; 0x2017 <parse+0x2aa>
    5ad8: a5 3f        	lda	$3f                     ; 0x203f <parse+0x2d2>
    5ada: 65 17        	adc	$17                     ; 0x2017 <parse+0x2aa>
    5adc: 85 3f        	sta	$3f                     ; 0x203f <parse+0x2d2>
    5ade: a9 00        	lda	#$0
    5ae0: a6 18        	ldx	$18                     ; 0x2018 <parse+0x2ab>
    5ae2: e0 01        	cpx	#$1
    5ae4: 69 00        	adc	#$0
    5ae6: 85 3e        	sta	$3e                     ; 0x203e <parse+0x2d1>
    5ae8: 18           	clc
    5ae9: a6 5c        	ldx	$5c                     ; 0x205c <parse+0x2ef>
    5aeb: 86 17        	stx	$17                     ; 0x2017 <parse+0x2aa>
    5aed: a5 1c        	lda	$1c                     ; 0x201c <parse+0x2af>
    5aef: 65 17        	adc	$17                     ; 0x2017 <parse+0x2aa>
    5af1: 85 1c        	sta	$1c                     ; 0x201c <parse+0x2af>
    5af3: a5 23        	lda	$23                     ; 0x2023 <parse+0x2b6>
    5af5: a6 62        	ldx	$62                     ; 0x2062 <parse+0x2f5>
    5af7: 86 17        	stx	$17                     ; 0x2017 <parse+0x2aa>
    5af9: 65 17        	adc	$17                     ; 0x2017 <parse+0x2aa>
    5afb: 85 41        	sta	$41                     ; 0x2041 <parse+0x2d4>
    5afd: a5 5a        	lda	$5a                     ; 0x205a <parse+0x2ed>
    5aff: 85 17        	sta	$17                     ; 0x2017 <parse+0x2aa>
    5b01: a5 1b        	lda	$1b                     ; 0x201b <parse+0x2ae>
    5b03: 65 17        	adc	$17                     ; 0x2017 <parse+0x2aa>
    5b05: 85 42        	sta	$42                     ; 0x2042 <parse+0x2d5>
    5b07: a5 1a        	lda	$1a                     ; 0x201a <parse+0x2ad>
    5b09: a6 5b        	ldx	$5b                     ; 0x205b <parse+0x2ee>
    5b0b: 86 17        	stx	$17                     ; 0x2017 <parse+0x2aa>
    5b0d: 65 17        	adc	$17                     ; 0x2017 <parse+0x2aa>
    5b0f: 85 43        	sta	$43                     ; 0x2043 <parse+0x2d6>
    5b11: a5 22        	lda	$22                     ; 0x2022 <parse+0x2b5>
    5b13: 69 00        	adc	#$0
    5b15: aa           	tax
    5b16: a5 3c        	lda	$3c                     ; 0x203c <parse+0x2cf>
    5b18: 69 00        	adc	#$0
    5b1a: 85 18        	sta	$18                     ; 0x2018 <parse+0x2ab>
    5b1c: a5 3d        	lda	$3d                     ; 0x203d <parse+0x2d0>
    5b1e: 69 00        	adc	#$0
    5b20: 85 1a        	sta	$1a                     ; 0x201a <parse+0x2ad>
    5b22: a5 3e        	lda	$3e                     ; 0x203e <parse+0x2d1>
    5b24: 69 00        	adc	#$0
    5b26: 85 22        	sta	$22                     ; 0x2022 <parse+0x2b5>
    5b28: 18           	clc
    5b29: a5 4b        	lda	$4b                     ; 0x204b <parse+0x2de>
    5b2b: 85 17        	sta	$17                     ; 0x2017 <parse+0x2aa>
    5b2d: a5 1f        	lda	$1f                     ; 0x201f <parse+0x2b2>
    5b2f: 65 17        	adc	$17                     ; 0x2017 <parse+0x2aa>
    5b31: 85 1f        	sta	$1f                     ; 0x201f <parse+0x2b2>
    5b33: a5 59        	lda	$59                     ; 0x2059 <parse+0x2ec>
    5b35: 85 17        	sta	$17                     ; 0x2017 <parse+0x2aa>
    5b37: a5 1e        	lda	$1e                     ; 0x201e <parse+0x2b1>
    5b39: 65 17        	adc	$17                     ; 0x2017 <parse+0x2aa>
    5b3b: 85 1e        	sta	$1e                     ; 0x201e <parse+0x2b1>
    5b3d: a5 46        	lda	$46                     ; 0x2046 <parse+0x2d9>
    5b3f: 65 12        	adc	$12                     ; 0x2012 <parse+0x2a5>
    5b41: 85 1b        	sta	$1b                     ; 0x201b <parse+0x2ae>
    5b43: 86 12        	stx	$12                     ; 0x2012 <parse+0x2a5>
    5b45: a6 18        	ldx	$18                     ; 0x2018 <parse+0x2ab>
    5b47: 86 17        	stx	$17                     ; 0x2017 <parse+0x2aa>
    5b49: a6 1a        	ldx	$1a                     ; 0x201a <parse+0x2ad>
    5b4b: 86 18        	stx	$18                     ; 0x2018 <parse+0x2ab>
    5b4d: a5 45        	lda	$45                     ; 0x2045 <parse+0x2d8>
    5b4f: 65 13        	adc	$13                     ; 0x2013 <parse+0x2a6>
    5b51: 85 1a        	sta	$1a                     ; 0x201a <parse+0x2ad>
    5b53: a9 00        	lda	#$0
    5b55: 65 14        	adc	$14                     ; 0x2014 <parse+0x2a7>
    5b57: 85 23        	sta	$23                     ; 0x2023 <parse+0x2b6>
    5b59: a9 00        	lda	#$0
    5b5b: 65 15        	adc	$15                     ; 0x2015 <parse+0x2a8>
    5b5d: 85 3c        	sta	$3c                     ; 0x203c <parse+0x2cf>
    5b5f: a9 00        	lda	#$0
    5b61: 65 16        	adc	$16                     ; 0x2016 <parse+0x2a9>
    5b63: aa           	tax
    5b64: a5 1d        	lda	$1d                     ; 0x201d <parse+0x2b0>
    5b66: 65 19        	adc	$19                     ; 0x2019 <parse+0x2ac>
    5b68: 85 14        	sta	$14                     ; 0x2014 <parse+0x2a7>
    5b6a: 18           	clc
    5b6b: a5 50        	lda	$50                     ; 0x2050 <parse+0x2e3>
    5b6d: 85 13        	sta	$13                     ; 0x2013 <parse+0x2a6>
    5b6f: a5 1f        	lda	$1f                     ; 0x201f <parse+0x2b2>
    5b71: 65 13        	adc	$13                     ; 0x2013 <parse+0x2a6>
    5b73: 85 1f        	sta	$1f                     ; 0x201f <parse+0x2b2>
    5b75: a5 56        	lda	$56                     ; 0x2056 <parse+0x2e9>
    5b77: 85 13        	sta	$13                     ; 0x2013 <parse+0x2a6>
    5b79: a5 1e        	lda	$1e                     ; 0x201e <parse+0x2b1>
    5b7b: 65 13        	adc	$13                     ; 0x2013 <parse+0x2a6>
    5b7d: 85 1d        	sta	$1d                     ; 0x201d <parse+0x2b0>
    5b7f: a5 58        	lda	$58                     ; 0x2058 <parse+0x2eb>
    5b81: 85 13        	sta	$13                     ; 0x2013 <parse+0x2a6>
    5b83: a5 1b        	lda	$1b                     ; 0x201b <parse+0x2ae>
    5b85: 65 13        	adc	$13                     ; 0x2013 <parse+0x2a6>
    5b87: 85 15        	sta	$15                     ; 0x2015 <parse+0x2a8>
    5b89: a5 57        	lda	$57                     ; 0x2057 <parse+0x2ea>
    5b8b: 85 13        	sta	$13                     ; 0x2013 <parse+0x2a6>
    5b8d: a5 1a        	lda	$1a                     ; 0x201a <parse+0x2ad>
    5b8f: 65 13        	adc	$13                     ; 0x2013 <parse+0x2a6>
    5b91: 85 16        	sta	$16                     ; 0x2016 <parse+0x2a9>
    5b93: a5 23        	lda	$23                     ; 0x2023 <parse+0x2b6>
    5b95: 69 00        	adc	#$0
    5b97: 85 1b        	sta	$1b                     ; 0x201b <parse+0x2ae>
    5b99: a5 3c        	lda	$3c                     ; 0x203c <parse+0x2cf>
    5b9b: 69 00        	adc	#$0
    5b9d: 85 1e        	sta	$1e                     ; 0x201e <parse+0x2b1>
    5b9f: 8a           	txa
    5ba0: 69 00        	adc	#$0
    5ba2: 85 1a        	sta	$1a                     ; 0x201a <parse+0x2ad>
    5ba4: a5 14        	lda	$14                     ; 0x2014 <parse+0x2a7>
    5ba6: 69 00        	adc	#$0
    5ba8: aa           	tax
    5ba9: 18           	clc
    5baa: a5 1f        	lda	$1f                     ; 0x201f <parse+0x2b2>
    5bac: 65 12        	adc	$12                     ; 0x2012 <parse+0x2a5>
    5bae: 85 46        	sta	$46                     ; 0x2046 <parse+0x2d9>
    5bb0: a5 1d        	lda	$1d                     ; 0x201d <parse+0x2b0>
    5bb2: 65 17        	adc	$17                     ; 0x2017 <parse+0x2aa>
    5bb4: 85 14        	sta	$14                     ; 0x2014 <parse+0x2a7>
    5bb6: a5 15        	lda	$15                     ; 0x2015 <parse+0x2a8>
    5bb8: 65 18        	adc	$18                     ; 0x2018 <parse+0x2ab>
    5bba: 85 3c        	sta	$3c                     ; 0x203c <parse+0x2cf>
    5bbc: a5 4a        	lda	$4a                     ; 0x204a <parse+0x2dd>
    5bbe: 29 f8        	and	#$f8
    5bc0: 85 40        	sta	$40                     ; 0x2040 <parse+0x2d3>
    5bc2: a5 16        	lda	$16                     ; 0x2016 <parse+0x2a9>
    5bc4: 65 22        	adc	$22                     ; 0x2022 <parse+0x2b5>
    5bc6: 85 3d        	sta	$3d                     ; 0x203d <parse+0x2d0>
    5bc8: a5 1b        	lda	$1b                     ; 0x201b <parse+0x2ae>
    5bca: 69 00        	adc	#$0
    5bcc: 85 17        	sta	$17                     ; 0x2017 <parse+0x2aa>
    5bce: a5 1e        	lda	$1e                     ; 0x201e <parse+0x2b1>
    5bd0: 69 00        	adc	#$0
    5bd2: 85 18        	sta	$18                     ; 0x2018 <parse+0x2ab>
    5bd4: a5 1a        	lda	$1a                     ; 0x201a <parse+0x2ad>
    5bd6: 69 00        	adc	#$0
    5bd8: 85 12        	sta	$12                     ; 0x2012 <parse+0x2a5>
    5bda: 8a           	txa
    5bdb: 69 00        	adc	#$0
    5bdd: 85 45        	sta	$45                     ; 0x2045 <parse+0x2d8>
    5bdf: a5 12        	lda	$12                     ; 0x2012 <parse+0x2a5>
    5be1: 85 3e        	sta	$3e                     ; 0x203e <parse+0x2d1>
    5be3: 29 10        	and	#$10
    5be5: f0 03        	beq	$5bea <__muldf3+0x1056>
    5be7: 4c 7b 5c     	jmp	$5c7b <__muldf3+0x10e7>
    5bea: 18           	clc
    5beb: 98           	tya
    5bec: 69 01        	adc	#$1
    5bee: aa           	tax
    5bef: a5 3f        	lda	$3f                     ; 0x203f <parse+0x2d2>
    5bf1: 69 fc        	adc	#$fc
    5bf3: 85 12        	sta	$12                     ; 0x2012 <parse+0x2a5>
    5bf5: 06 46        	asl	$46                     ; 0x2046 <parse+0x2d9>
    5bf7: 26 14        	rol	$14                     ; 0x2014 <parse+0x2a7>
    5bf9: 26 3c        	rol	$3c                     ; 0x203c <parse+0x2cf>
    5bfb: 26 3d        	rol	$3d                     ; 0x203d <parse+0x2d0>
    5bfd: 26 17        	rol	$17                     ; 0x2017 <parse+0x2aa>
    5bff: 26 18        	rol	$18                     ; 0x2018 <parse+0x2ab>
    5c01: 26 3e        	rol	$3e                     ; 0x203e <parse+0x2d1>
    5c03: 26 45        	rol	$45                     ; 0x2045 <parse+0x2d8>
    5c05: a4 3e        	ldy	$3e                     ; 0x203e <parse+0x2d1>
    5c07: 84 1a        	sty	$1a                     ; 0x201a <parse+0x2ad>
    5c09: a4 45        	ldy	$45                     ; 0x2045 <parse+0x2d8>
    5c0b: 84 1b        	sty	$1b                     ; 0x201b <parse+0x2ae>
    5c0d: a5 43        	lda	$43                     ; 0x2043 <parse+0x2d6>
    5c0f: 0a           	asl
    5c10: 64 1d        	stz	$1d                     ; 0x201d <parse+0x2b0>
    5c12: 26 1d        	rol	$1d                     ; 0x201d <parse+0x2b0>
    5c14: 64 1e        	stz	$1e                     ; 0x201e <parse+0x2b1>
    5c16: 26 1e        	rol	$1e                     ; 0x201e <parse+0x2b1>
    5c18: 64 1f        	stz	$1f                     ; 0x201f <parse+0x2b2>
    5c1a: 26 1f        	rol	$1f                     ; 0x201f <parse+0x2b2>
    5c1c: 64 22        	stz	$22                     ; 0x2022 <parse+0x2b5>
    5c1e: 26 22        	rol	$22                     ; 0x2022 <parse+0x2b5>
    5c20: 64 23        	stz	$23                     ; 0x2023 <parse+0x2b6>
    5c22: 26 23        	rol	$23                     ; 0x2023 <parse+0x2b6>
    5c24: 64 3e        	stz	$3e                     ; 0x203e <parse+0x2d1>
    5c26: 26 3e        	rol	$3e                     ; 0x203e <parse+0x2d1>
    5c28: 64 3f        	stz	$3f                     ; 0x203f <parse+0x2d2>
    5c2a: 26 3f        	rol	$3f                     ; 0x203f <parse+0x2d2>
    5c2c: 64 45        	stz	$45                     ; 0x2045 <parse+0x2d8>
    5c2e: 26 45        	rol	$45                     ; 0x2045 <parse+0x2d8>
    5c30: 06 40        	asl	$40                     ; 0x2040 <parse+0x2d3>
    5c32: a4 55        	ldy	$55                     ; 0x2055 <parse+0x2e8>
    5c34: 84 44        	sty	$44                     ; 0x2044 <parse+0x2d7>
    5c36: 26 44        	rol	$44                     ; 0x2044 <parse+0x2d7>
    5c38: a4 54        	ldy	$54                     ; 0x2054 <parse+0x2e7>
    5c3a: 84 47        	sty	$47                     ; 0x2047 <parse+0x2da>
    5c3c: 26 47        	rol	$47                     ; 0x2047 <parse+0x2da>
    5c3e: a5 1c        	lda	$1c                     ; 0x201c <parse+0x2af>
    5c40: 2a           	rol
    5c41: 85 49        	sta	$49                     ; 0x2049 <parse+0x2dc>
    5c43: 26 41        	rol	$41                     ; 0x2041 <parse+0x2d4>
    5c45: 26 42        	rol	$42                     ; 0x2042 <parse+0x2d5>
    5c47: 26 43        	rol	$43                     ; 0x2043 <parse+0x2d6>
    5c49: a5 1d        	lda	$1d                     ; 0x201d <parse+0x2b0>
    5c4b: 05 46        	ora	$46                     ; 0x2046 <parse+0x2d9>
    5c4d: 85 46        	sta	$46                     ; 0x2046 <parse+0x2d9>
    5c4f: a5 1e        	lda	$1e                     ; 0x201e <parse+0x2b1>
    5c51: 05 14        	ora	$14                     ; 0x2014 <parse+0x2a7>
    5c53: 85 56        	sta	$56                     ; 0x2056 <parse+0x2e9>
    5c55: a5 1f        	lda	$1f                     ; 0x201f <parse+0x2b2>
    5c57: 05 3c        	ora	$3c                     ; 0x203c <parse+0x2cf>
    5c59: 85 3c        	sta	$3c                     ; 0x203c <parse+0x2cf>
    5c5b: a5 22        	lda	$22                     ; 0x2022 <parse+0x2b5>
    5c5d: 05 3d        	ora	$3d                     ; 0x203d <parse+0x2d0>
    5c5f: 85 3d        	sta	$3d                     ; 0x203d <parse+0x2d0>
    5c61: a5 23        	lda	$23                     ; 0x2023 <parse+0x2b6>
    5c63: 05 17        	ora	$17                     ; 0x2017 <parse+0x2aa>
    5c65: 85 48        	sta	$48                     ; 0x2048 <parse+0x2db>
    5c67: a5 3e        	lda	$3e                     ; 0x203e <parse+0x2d1>
    5c69: 05 18        	ora	$18                     ; 0x2018 <parse+0x2ab>
    5c6b: 85 50        	sta	$50                     ; 0x2050 <parse+0x2e3>
    5c6d: a5 3f        	lda	$3f                     ; 0x203f <parse+0x2d2>
    5c6f: 05 1a        	ora	$1a                     ; 0x201a <parse+0x2ad>
    5c71: 85 3e        	sta	$3e                     ; 0x203e <parse+0x2d1>
    5c73: a5 45        	lda	$45                     ; 0x2045 <parse+0x2d8>
    5c75: 05 1b        	ora	$1b                     ; 0x201b <parse+0x2ae>
    5c77: 85 45        	sta	$45                     ; 0x2045 <parse+0x2d8>
    5c79: 80 23        	bra	$5c9e <__muldf3+0x110a>
    5c7b: a6 1c        	ldx	$1c                     ; 0x201c <parse+0x2af>
    5c7d: 86 49        	stx	$49                     ; 0x2049 <parse+0x2dc>
    5c7f: a6 54        	ldx	$54                     ; 0x2054 <parse+0x2e7>
    5c81: 86 47        	stx	$47                     ; 0x2047 <parse+0x2da>
    5c83: a6 55        	ldx	$55                     ; 0x2055 <parse+0x2e8>
    5c85: 86 44        	stx	$44                     ; 0x2044 <parse+0x2d7>
    5c87: a6 18        	ldx	$18                     ; 0x2018 <parse+0x2ab>
    5c89: 86 50        	stx	$50                     ; 0x2050 <parse+0x2e3>
    5c8b: a6 17        	ldx	$17                     ; 0x2017 <parse+0x2aa>
    5c8d: 86 48        	stx	$48                     ; 0x2048 <parse+0x2db>
    5c8f: a6 14        	ldx	$14                     ; 0x2014 <parse+0x2a7>
    5c91: 86 56        	stx	$56                     ; 0x2056 <parse+0x2e9>
    5c93: 18           	clc
    5c94: 98           	tya
    5c95: 69 02        	adc	#$2
    5c97: aa           	tax
    5c98: a5 3f        	lda	$3f                     ; 0x203f <parse+0x2d2>
    5c9a: 69 fc        	adc	#$fc
    5c9c: 85 12        	sta	$12                     ; 0x2012 <parse+0x2a5>
    5c9e: e0 ff        	cpx	#$ff
    5ca0: a5 12        	lda	$12                     ; 0x2012 <parse+0x2a5>
    5ca2: e9 07        	sbc	#$7
    5ca4: 50 02        	bvc	$5ca8 <__muldf3+0x1114>
    5ca6: 49 80        	eor	#$80
    5ca8: a8           	tay
    5ca9: 30 15        	bmi	$5cc0 <__muldf3+0x112c>
    5cab: a5 4c        	lda	$4c                     ; 0x204c <parse+0x2df>
    5cad: 09 7f        	ora	#$7f
    5caf: 64 18        	stz	$18                     ; 0x2018 <parse+0x2ab>
    5cb1: 64 22        	stz	$22                     ; 0x2022 <parse+0x2b5>
    5cb3: 64 3c        	stz	$3c                     ; 0x203c <parse+0x2cf>
    5cb5: 64 13        	stz	$13                     ; 0x2013 <parse+0x2a6>
    5cb7: 64 3e        	stz	$3e                     ; 0x203e <parse+0x2d1>
    5cb9: 64 3f        	stz	$3f                     ; 0x203f <parse+0x2d2>
    5cbb: a0 f0        	ldy	#$f0
    5cbd: 4c 4c 5f     	jmp	$5f4c <__muldf3+0x13b8>
    5cc0: e0 01        	cpx	#$1
    5cc2: a5 12        	lda	$12                     ; 0x2012 <parse+0x2a5>
    5cc4: e9 00        	sbc	#$0
    5cc6: 50 02        	bvc	$5cca <__muldf3+0x1136>
    5cc8: 49 80        	eor	#$80
    5cca: a8           	tay
    5ccb: 30 30        	bmi	$5cfd <__muldf3+0x1169>
    5ccd: a5 3e        	lda	$3e                     ; 0x203e <parse+0x2d1>
    5ccf: 29 0f        	and	#$f
    5cd1: 85 13        	sta	$13                     ; 0x2013 <parse+0x2a6>
    5cd3: 8a           	txa
    5cd4: 0a           	asl
    5cd5: 26 12        	rol	$12                     ; 0x2012 <parse+0x2a5>
    5cd7: 0a           	asl
    5cd8: 26 12        	rol	$12                     ; 0x2012 <parse+0x2a5>
    5cda: 0a           	asl
    5cdb: 26 12        	rol	$12                     ; 0x2012 <parse+0x2a5>
    5cdd: 0a           	asl
    5cde: 26 12        	rol	$12                     ; 0x2012 <parse+0x2a5>
    5ce0: 05 13        	ora	$13                     ; 0x2013 <parse+0x2a6>
    5ce2: a6 46        	ldx	$46                     ; 0x2046 <parse+0x2d9>
    5ce4: 86 18        	stx	$18                     ; 0x2018 <parse+0x2ab>
    5ce6: 85 16        	sta	$16                     ; 0x2016 <parse+0x2a9>
    5ce8: a6 12        	ldx	$12                     ; 0x2012 <parse+0x2a5>
    5cea: 86 17        	stx	$17                     ; 0x2017 <parse+0x2aa>
    5cec: a2 00        	ldx	#$0
    5cee: 86 4a        	stx	$4a                     ; 0x204a <parse+0x2dd>
    5cf0: a6 56        	ldx	$56                     ; 0x2056 <parse+0x2e9>
    5cf2: 86 22        	stx	$22                     ; 0x2022 <parse+0x2b5>
    5cf4: a6 3d        	ldx	$3d                     ; 0x203d <parse+0x2d0>
    5cf6: 86 13        	stx	$13                     ; 0x2013 <parse+0x2a6>
    5cf8: a6 43        	ldx	$43                     ; 0x2043 <parse+0x2d6>
    5cfa: 4c 6d 5e     	jmp	$5e6d <__muldf3+0x12d9>
    5cfd: 38           	sec
    5cfe: a9 01        	lda	#$1
    5d00: 86 13        	stx	$13                     ; 0x2013 <parse+0x2a6>
    5d02: e5 13        	sbc	$13                     ; 0x2013 <parse+0x2a6>
    5d04: a8           	tay
    5d05: a9 00        	lda	#$0
    5d07: e5 12        	sbc	$12                     ; 0x2012 <parse+0x2a5>
    5d09: d0 19        	bne	$5d24 <__muldf3+0x1190>
    5d0b: 84 4b        	sty	$4b                     ; 0x204b <parse+0x2de>
    5d0d: c0 40        	cpy	#$40
    5d0f: 90 19        	bcc	$5d2a <__muldf3+0x1196>
    5d11: 64 18        	stz	$18                     ; 0x2018 <parse+0x2ab>
    5d13: 64 22        	stz	$22                     ; 0x2022 <parse+0x2b5>
    5d15: 64 3c        	stz	$3c                     ; 0x203c <parse+0x2cf>
    5d17: 64 13        	stz	$13                     ; 0x2013 <parse+0x2a6>
    5d19: 64 3e        	stz	$3e                     ; 0x203e <parse+0x2d1>
    5d1b: a5 4c        	lda	$4c                     ; 0x204c <parse+0x2df>
    5d1d: 64 3f        	stz	$3f                     ; 0x203f <parse+0x2d2>
    5d1f: a0 00        	ldy	#$0
    5d21: 4c 4c 5f     	jmp	$5f4c <__muldf3+0x13b8>
    5d24: 84 4b        	sty	$4b                     ; 0x204b <parse+0x2de>
    5d26: c9 00        	cmp	#$0
    5d28: b0 e7        	bcs	$5d11 <__muldf3+0x117d>
    5d2a: 18           	clc
    5d2b: 8a           	txa
    5d2c: 69 3f        	adc	#$3f
    5d2e: a6 44        	ldx	$44                     ; 0x2044 <parse+0x2d7>
    5d30: 86 12        	stx	$12                     ; 0x2012 <parse+0x2a5>
    5d32: a6 47        	ldx	$47                     ; 0x2047 <parse+0x2da>
    5d34: 86 13        	stx	$13                     ; 0x2013 <parse+0x2a6>
    5d36: a6 49        	ldx	$49                     ; 0x2049 <parse+0x2dc>
    5d38: 86 14        	stx	$14                     ; 0x2014 <parse+0x2a7>
    5d3a: a6 41        	ldx	$41                     ; 0x2041 <parse+0x2d4>
    5d3c: 86 15        	stx	$15                     ; 0x2015 <parse+0x2a8>
    5d3e: a6 42        	ldx	$42                     ; 0x2042 <parse+0x2d5>
    5d40: 86 16        	stx	$16                     ; 0x2016 <parse+0x2a9>
    5d42: a6 43        	ldx	$43                     ; 0x2043 <parse+0x2d6>
    5d44: 86 17        	stx	$17                     ; 0x2017 <parse+0x2aa>
    5d46: 85 4d        	sta	$4d                     ; 0x204d <parse+0x2e0>
    5d48: 85 18        	sta	$18                     ; 0x2018 <parse+0x2ab>
    5d4a: a6 40        	ldx	$40                     ; 0x2040 <parse+0x2d3>
    5d4c: a0 00        	ldy	#$0
    5d4e: 84 4a        	sty	$4a                     ; 0x204a <parse+0x2dd>
    5d50: 98           	tya
    5d51: 20 7f 48     	jsr	$487f <__ashldi3>
    5d54: a4 17        	ldy	$17                     ; 0x2017 <parse+0x2aa>
    5d56: d0 1f        	bne	$5d77 <__muldf3+0x11e3>
    5d58: a4 16        	ldy	$16                     ; 0x2016 <parse+0x2a9>
    5d5a: d0 1b        	bne	$5d77 <__muldf3+0x11e3>
    5d5c: a4 15        	ldy	$15                     ; 0x2015 <parse+0x2a8>
    5d5e: d0 17        	bne	$5d77 <__muldf3+0x11e3>
    5d60: a4 14        	ldy	$14                     ; 0x2014 <parse+0x2a7>
    5d62: d0 13        	bne	$5d77 <__muldf3+0x11e3>
    5d64: a4 13        	ldy	$13                     ; 0x2013 <parse+0x2a6>
    5d66: d0 0f        	bne	$5d77 <__muldf3+0x11e3>
    5d68: a4 12        	ldy	$12                     ; 0x2012 <parse+0x2a5>
    5d6a: d0 0b        	bne	$5d77 <__muldf3+0x11e3>
    5d6c: e0 00        	cpx	#$0
    5d6e: d0 07        	bne	$5d77 <__muldf3+0x11e3>
    5d70: aa           	tax
    5d71: d0 04        	bne	$5d77 <__muldf3+0x11e3>
    5d73: a2 00        	ldx	#$0
    5d75: 80 02        	bra	$5d79 <__muldf3+0x11e5>
    5d77: a2 01        	ldx	#$1
    5d79: 86 52        	stx	$52                     ; 0x2052 <parse+0x2e5>
    5d7b: a5 3c        	lda	$3c                     ; 0x203c <parse+0x2cf>
    5d7d: 85 57        	sta	$57                     ; 0x2057 <parse+0x2ea>
    5d7f: a6 3c        	ldx	$3c                     ; 0x203c <parse+0x2cf>
    5d81: 86 12        	stx	$12                     ; 0x2012 <parse+0x2a5>
    5d83: a6 3d        	ldx	$3d                     ; 0x203d <parse+0x2d0>
    5d85: 86 13        	stx	$13                     ; 0x2013 <parse+0x2a6>
    5d87: a6 48        	ldx	$48                     ; 0x2048 <parse+0x2db>
    5d89: 86 14        	stx	$14                     ; 0x2014 <parse+0x2a7>
    5d8b: 86 48        	stx	$48                     ; 0x2048 <parse+0x2db>
    5d8d: a6 50        	ldx	$50                     ; 0x2050 <parse+0x2e3>
    5d8f: 86 3f        	stx	$3f                     ; 0x203f <parse+0x2d2>
    5d91: 86 15        	stx	$15                     ; 0x2015 <parse+0x2a8>
    5d93: a5 3e        	lda	$3e                     ; 0x203e <parse+0x2d1>
    5d95: 85 54        	sta	$54                     ; 0x2054 <parse+0x2e7>
    5d97: a6 3e        	ldx	$3e                     ; 0x203e <parse+0x2d1>
    5d99: 86 16        	stx	$16                     ; 0x2016 <parse+0x2a9>
    5d9b: a5 45        	lda	$45                     ; 0x2045 <parse+0x2d8>
    5d9d: 85 53        	sta	$53                     ; 0x2053 <parse+0x2e6>
    5d9f: a6 45        	ldx	$45                     ; 0x2045 <parse+0x2d8>
    5da1: 86 17        	stx	$17                     ; 0x2017 <parse+0x2aa>
    5da3: a6 4d        	ldx	$4d                     ; 0x204d <parse+0x2e0>
    5da5: 86 18        	stx	$18                     ; 0x2018 <parse+0x2ab>
    5da7: a6 56        	ldx	$56                     ; 0x2056 <parse+0x2e9>
    5da9: 86 56        	stx	$56                     ; 0x2056 <parse+0x2e9>
    5dab: a5 46        	lda	$46                     ; 0x2046 <parse+0x2d9>
    5dad: 20 7f 48     	jsr	$487f <__ashldi3>
    5db0: 85 45        	sta	$45                     ; 0x2045 <parse+0x2d8>
    5db2: 86 3c        	stx	$3c                     ; 0x203c <parse+0x2cf>
    5db4: a6 12        	ldx	$12                     ; 0x2012 <parse+0x2a5>
    5db6: 86 3e        	stx	$3e                     ; 0x203e <parse+0x2d1>
    5db8: a6 13        	ldx	$13                     ; 0x2013 <parse+0x2a6>
    5dba: 86 55        	stx	$55                     ; 0x2055 <parse+0x2e8>
    5dbc: a6 14        	ldx	$14                     ; 0x2014 <parse+0x2a7>
    5dbe: 86 4d        	stx	$4d                     ; 0x204d <parse+0x2e0>
    5dc0: a6 15        	ldx	$15                     ; 0x2015 <parse+0x2a8>
    5dc2: 86 4e        	stx	$4e                     ; 0x204e <parse+0x2e1>
    5dc4: a6 16        	ldx	$16                     ; 0x2016 <parse+0x2a9>
    5dc6: 86 4f        	stx	$4f                     ; 0x204f <parse+0x2e2>
    5dc8: a6 17        	ldx	$17                     ; 0x2017 <parse+0x2aa>
    5dca: 86 51        	stx	$51                     ; 0x2051 <parse+0x2e4>
    5dcc: a6 44        	ldx	$44                     ; 0x2044 <parse+0x2d7>
    5dce: 86 12        	stx	$12                     ; 0x2012 <parse+0x2a5>
    5dd0: a6 47        	ldx	$47                     ; 0x2047 <parse+0x2da>
    5dd2: 86 13        	stx	$13                     ; 0x2013 <parse+0x2a6>
    5dd4: a6 49        	ldx	$49                     ; 0x2049 <parse+0x2dc>
    5dd6: 86 14        	stx	$14                     ; 0x2014 <parse+0x2a7>
    5dd8: a6 41        	ldx	$41                     ; 0x2041 <parse+0x2d4>
    5dda: 86 15        	stx	$15                     ; 0x2015 <parse+0x2a8>
    5ddc: a6 42        	ldx	$42                     ; 0x2042 <parse+0x2d5>
    5dde: 86 16        	stx	$16                     ; 0x2016 <parse+0x2a9>
    5de0: a6 43        	ldx	$43                     ; 0x2043 <parse+0x2d6>
    5de2: 86 17        	stx	$17                     ; 0x2017 <parse+0x2aa>
    5de4: a6 4b        	ldx	$4b                     ; 0x204b <parse+0x2de>
    5de6: 86 41        	stx	$41                     ; 0x2041 <parse+0x2d4>
    5de8: 86 18        	stx	$18                     ; 0x2018 <parse+0x2ab>
    5dea: a6 40        	ldx	$40                     ; 0x2040 <parse+0x2d3>
    5dec: a5 4a        	lda	$4a                     ; 0x204a <parse+0x2dd>
    5dee: 20 9e 48     	jsr	$489e <__lshrdi3>
    5df1: 85 18        	sta	$18                     ; 0x2018 <parse+0x2ab>
    5df3: a5 45        	lda	$45                     ; 0x2045 <parse+0x2d8>
    5df5: 05 18        	ora	$18                     ; 0x2018 <parse+0x2ab>
    5df7: a8           	tay
    5df8: 8a           	txa
    5df9: 05 3c        	ora	$3c                     ; 0x203c <parse+0x2cf>
    5dfb: 85 40        	sta	$40                     ; 0x2040 <parse+0x2d3>
    5dfd: a5 3e        	lda	$3e                     ; 0x203e <parse+0x2d1>
    5dff: 05 12        	ora	$12                     ; 0x2012 <parse+0x2a5>
    5e01: 85 44        	sta	$44                     ; 0x2044 <parse+0x2d7>
    5e03: a5 55        	lda	$55                     ; 0x2055 <parse+0x2e8>
    5e05: 05 13        	ora	$13                     ; 0x2013 <parse+0x2a6>
    5e07: 85 47        	sta	$47                     ; 0x2047 <parse+0x2da>
    5e09: a5 4d        	lda	$4d                     ; 0x204d <parse+0x2e0>
    5e0b: 05 14        	ora	$14                     ; 0x2014 <parse+0x2a7>
    5e0d: 85 42        	sta	$42                     ; 0x2042 <parse+0x2d5>
    5e0f: a5 4e        	lda	$4e                     ; 0x204e <parse+0x2e1>
    5e11: 05 15        	ora	$15                     ; 0x2015 <parse+0x2a8>
    5e13: 85 43        	sta	$43                     ; 0x2043 <parse+0x2d6>
    5e15: a6 4f        	ldx	$4f                     ; 0x204f <parse+0x2e2>
    5e17: 8a           	txa
    5e18: 05 16        	ora	$16                     ; 0x2016 <parse+0x2a9>
    5e1a: 85 45        	sta	$45                     ; 0x2045 <parse+0x2d8>
    5e1c: a6 51        	ldx	$51                     ; 0x2051 <parse+0x2e4>
    5e1e: 8a           	txa
    5e1f: 05 17        	ora	$17                     ; 0x2017 <parse+0x2aa>
    5e21: 85 3e        	sta	$3e                     ; 0x203e <parse+0x2d1>
    5e23: a6 52        	ldx	$52                     ; 0x2052 <parse+0x2e5>
    5e25: 86 12        	stx	$12                     ; 0x2012 <parse+0x2a5>
    5e27: 98           	tya
    5e28: 05 12        	ora	$12                     ; 0x2012 <parse+0x2a5>
    5e2a: 85 4a        	sta	$4a                     ; 0x204a <parse+0x2dd>
    5e2c: a6 57        	ldx	$57                     ; 0x2057 <parse+0x2ea>
    5e2e: 86 12        	stx	$12                     ; 0x2012 <parse+0x2a5>
    5e30: a6 3d        	ldx	$3d                     ; 0x203d <parse+0x2d0>
    5e32: 86 13        	stx	$13                     ; 0x2013 <parse+0x2a6>
    5e34: a6 48        	ldx	$48                     ; 0x2048 <parse+0x2db>
    5e36: 86 14        	stx	$14                     ; 0x2014 <parse+0x2a7>
    5e38: a6 3f        	ldx	$3f                     ; 0x203f <parse+0x2d2>
    5e3a: 86 15        	stx	$15                     ; 0x2015 <parse+0x2a8>
    5e3c: a6 54        	ldx	$54                     ; 0x2054 <parse+0x2e7>
    5e3e: 86 16        	stx	$16                     ; 0x2016 <parse+0x2a9>
    5e40: a6 53        	ldx	$53                     ; 0x2053 <parse+0x2e6>
    5e42: 86 17        	stx	$17                     ; 0x2017 <parse+0x2aa>
    5e44: a6 41        	ldx	$41                     ; 0x2041 <parse+0x2d4>
    5e46: 86 18        	stx	$18                     ; 0x2018 <parse+0x2ab>
    5e48: a6 56        	ldx	$56                     ; 0x2056 <parse+0x2e9>
    5e4a: a5 46        	lda	$46                     ; 0x2046 <parse+0x2d9>
    5e4c: 20 9e 48     	jsr	$489e <__lshrdi3>
    5e4f: 85 18        	sta	$18                     ; 0x2018 <parse+0x2ab>
    5e51: 86 22        	stx	$22                     ; 0x2022 <parse+0x2b5>
    5e53: a6 12        	ldx	$12                     ; 0x2012 <parse+0x2a5>
    5e55: 86 3c        	stx	$3c                     ; 0x203c <parse+0x2cf>
    5e57: a6 14        	ldx	$14                     ; 0x2014 <parse+0x2a7>
    5e59: 86 48        	stx	$48                     ; 0x2048 <parse+0x2db>
    5e5b: a6 15        	ldx	$15                     ; 0x2015 <parse+0x2a8>
    5e5d: 86 50        	stx	$50                     ; 0x2050 <parse+0x2e3>
    5e5f: a4 42        	ldy	$42                     ; 0x2042 <parse+0x2d5>
    5e61: 84 49        	sty	$49                     ; 0x2049 <parse+0x2dc>
    5e63: a6 43        	ldx	$43                     ; 0x2043 <parse+0x2d6>
    5e65: 86 41        	stx	$41                     ; 0x2041 <parse+0x2d4>
    5e67: a6 45        	ldx	$45                     ; 0x2045 <parse+0x2d8>
    5e69: 86 42        	stx	$42                     ; 0x2042 <parse+0x2d5>
    5e6b: a6 3e        	ldx	$3e                     ; 0x203e <parse+0x2d1>
    5e6d: a5 4c        	lda	$4c                     ; 0x204c <parse+0x2df>
    5e6f: 05 17        	ora	$17                     ; 0x2017 <parse+0x2aa>
    5e71: 85 14        	sta	$14                     ; 0x2014 <parse+0x2a7>
    5e73: e0 80        	cpx	#$80
    5e75: d0 36        	bne	$5ead <__muldf3+0x1319>
    5e77: 86 12        	stx	$12                     ; 0x2012 <parse+0x2a5>
    5e79: a5 40        	lda	$40                     ; 0x2040 <parse+0x2d3>
    5e7b: a6 42        	ldx	$42                     ; 0x2042 <parse+0x2d5>
    5e7d: f0 03        	beq	$5e82 <__muldf3+0x12ee>
    5e7f: 4c 10 5f     	jmp	$5f10 <__muldf3+0x137c>
    5e82: a6 41        	ldx	$41                     ; 0x2041 <parse+0x2d4>
    5e84: f0 03        	beq	$5e89 <__muldf3+0x12f5>
    5e86: 4c 14 5f     	jmp	$5f14 <__muldf3+0x1380>
    5e89: a4 49        	ldy	$49                     ; 0x2049 <parse+0x2dc>
    5e8b: f0 03        	beq	$5e90 <__muldf3+0x12fc>
    5e8d: 4c 16 5f     	jmp	$5f16 <__muldf3+0x1382>
    5e90: a6 47        	ldx	$47                     ; 0x2047 <parse+0x2da>
    5e92: f0 03        	beq	$5e97 <__muldf3+0x1303>
    5e94: 4c 61 5f     	jmp	$5f61 <__muldf3+0x13cd>
    5e97: a6 44        	ldx	$44                     ; 0x2044 <parse+0x2d7>
    5e99: f0 03        	beq	$5e9e <__muldf3+0x130a>
    5e9b: 4c 65 5f     	jmp	$5f65 <__muldf3+0x13d1>
    5e9e: aa           	tax
    5e9f: f0 03        	beq	$5ea4 <__muldf3+0x1310>
    5ea1: 4c 6e 5f     	jmp	$5f6e <__muldf3+0x13da>
    5ea4: a6 4a        	ldx	$4a                     ; 0x204a <parse+0x2dd>
    5ea6: e0 01        	cpx	#$1
    5ea8: 90 0e        	bcc	$5eb8 <__muldf3+0x1324>
    5eaa: 4c 1d 5f     	jmp	$5f1d <__muldf3+0x1389>
    5ead: 86 12        	stx	$12                     ; 0x2012 <parse+0x2a5>
    5eaf: e0 80        	cpx	#$80
    5eb1: a5 40        	lda	$40                     ; 0x2040 <parse+0x2d3>
    5eb3: 90 03        	bcc	$5eb8 <__muldf3+0x1324>
    5eb5: 4c 1d 5f     	jmp	$5f1d <__muldf3+0x1389>
    5eb8: a4 12        	ldy	$12                     ; 0x2012 <parse+0x2a5>
    5eba: c0 80        	cpy	#$80
    5ebc: d0 4e        	bne	$5f0c <__muldf3+0x1378>
    5ebe: a6 42        	ldx	$42                     ; 0x2042 <parse+0x2d5>
    5ec0: d0 4a        	bne	$5f0c <__muldf3+0x1378>
    5ec2: a6 41        	ldx	$41                     ; 0x2041 <parse+0x2d4>
    5ec4: d0 46        	bne	$5f0c <__muldf3+0x1378>
    5ec6: a4 49        	ldy	$49                     ; 0x2049 <parse+0x2dc>
    5ec8: d0 42        	bne	$5f0c <__muldf3+0x1378>
    5eca: a6 47        	ldx	$47                     ; 0x2047 <parse+0x2da>
    5ecc: d0 3e        	bne	$5f0c <__muldf3+0x1378>
    5ece: a6 44        	ldx	$44                     ; 0x2044 <parse+0x2d7>
    5ed0: d0 3a        	bne	$5f0c <__muldf3+0x1378>
    5ed2: aa           	tax
    5ed3: d0 37        	bne	$5f0c <__muldf3+0x1378>
    5ed5: a6 4a        	ldx	$4a                     ; 0x204a <parse+0x2dd>
    5ed7: d0 33        	bne	$5f0c <__muldf3+0x1378>
    5ed9: a5 18        	lda	$18                     ; 0x2018 <parse+0x2ab>
    5edb: 29 01        	and	#$1
    5edd: 18           	clc
    5ede: 65 18        	adc	$18                     ; 0x2018 <parse+0x2ab>
    5ee0: 85 18        	sta	$18                     ; 0x2018 <parse+0x2ab>
    5ee2: a5 22        	lda	$22                     ; 0x2022 <parse+0x2b5>
    5ee4: 69 00        	adc	#$0
    5ee6: 85 22        	sta	$22                     ; 0x2022 <parse+0x2b5>
    5ee8: a5 3c        	lda	$3c                     ; 0x203c <parse+0x2cf>
    5eea: 69 00        	adc	#$0
    5eec: 85 3c        	sta	$3c                     ; 0x203c <parse+0x2cf>
    5eee: a5 13        	lda	$13                     ; 0x2013 <parse+0x2a6>
    5ef0: 69 00        	adc	#$0
    5ef2: 85 13        	sta	$13                     ; 0x2013 <parse+0x2a6>
    5ef4: a5 48        	lda	$48                     ; 0x2048 <parse+0x2db>
    5ef6: 69 00        	adc	#$0
    5ef8: 85 48        	sta	$48                     ; 0x2048 <parse+0x2db>
    5efa: a5 50        	lda	$50                     ; 0x2050 <parse+0x2e3>
    5efc: 69 00        	adc	#$0
    5efe: 85 50        	sta	$50                     ; 0x2050 <parse+0x2e3>
    5f00: a5 16        	lda	$16                     ; 0x2016 <parse+0x2a9>
    5f02: 69 00        	adc	#$0
    5f04: 85 16        	sta	$16                     ; 0x2016 <parse+0x2a9>
    5f06: a5 14        	lda	$14                     ; 0x2014 <parse+0x2a7>
    5f08: 69 00        	adc	#$0
    5f0a: 80 36        	bra	$5f42 <__muldf3+0x13ae>
    5f0c: a5 14        	lda	$14                     ; 0x2014 <parse+0x2a7>
    5f0e: 80 32        	bra	$5f42 <__muldf3+0x13ae>
    5f10: a4 42        	ldy	$42                     ; 0x2042 <parse+0x2d5>
    5f12: 80 02        	bra	$5f16 <__muldf3+0x1382>
    5f14: a4 41        	ldy	$41                     ; 0x2041 <parse+0x2d4>
    5f16: c0 00        	cpy	#$0
    5f18: b0 03        	bcs	$5f1d <__muldf3+0x1389>
    5f1a: 4c b8 5e     	jmp	$5eb8 <__muldf3+0x1324>
    5f1d: a5 14        	lda	$14                     ; 0x2014 <parse+0x2a7>
    5f1f: a6 48        	ldx	$48                     ; 0x2048 <parse+0x2db>
    5f21: a4 50        	ldy	$50                     ; 0x2050 <parse+0x2e3>
    5f23: e6 18        	inc	$18                     ; 0x2018 <parse+0x2ab>
    5f25: d0 17        	bne	$5f3e <__muldf3+0x13aa>
    5f27: e6 22        	inc	$22                     ; 0x2022 <parse+0x2b5>
    5f29: d0 13        	bne	$5f3e <__muldf3+0x13aa>
    5f2b: e6 3c        	inc	$3c                     ; 0x203c <parse+0x2cf>
    5f2d: d0 0f        	bne	$5f3e <__muldf3+0x13aa>
    5f2f: e6 13        	inc	$13                     ; 0x2013 <parse+0x2a6>
    5f31: d0 0b        	bne	$5f3e <__muldf3+0x13aa>
    5f33: e8           	inx
    5f34: d0 08        	bne	$5f3e <__muldf3+0x13aa>
    5f36: c8           	iny
    5f37: d0 05        	bne	$5f3e <__muldf3+0x13aa>
    5f39: e6 16        	inc	$16                     ; 0x2016 <parse+0x2a9>
    5f3b: d0 01        	bne	$5f3e <__muldf3+0x13aa>
    5f3d: 1a           	inc
    5f3e: 84 50        	sty	$50                     ; 0x2050 <parse+0x2e3>
    5f40: 86 48        	stx	$48                     ; 0x2048 <parse+0x2db>
    5f42: a6 48        	ldx	$48                     ; 0x2048 <parse+0x2db>
    5f44: 86 3e        	stx	$3e                     ; 0x203e <parse+0x2d1>
    5f46: a6 50        	ldx	$50                     ; 0x2050 <parse+0x2e3>
    5f48: 86 3f        	stx	$3f                     ; 0x203f <parse+0x2d2>
    5f4a: a4 16        	ldy	$16                     ; 0x2016 <parse+0x2a9>
    5f4c: a6 3c        	ldx	$3c                     ; 0x203c <parse+0x2cf>
    5f4e: 86 12        	stx	$12                     ; 0x2012 <parse+0x2a5>
    5f50: a6 3e        	ldx	$3e                     ; 0x203e <parse+0x2d1>
    5f52: 86 14        	stx	$14                     ; 0x2014 <parse+0x2a7>
    5f54: a6 3f        	ldx	$3f                     ; 0x203f <parse+0x2d2>
    5f56: 86 15        	stx	$15                     ; 0x2015 <parse+0x2a8>
    5f58: 84 16        	sty	$16                     ; 0x2016 <parse+0x2a9>
    5f5a: 85 17        	sta	$17                     ; 0x2017 <parse+0x2aa>
    5f5c: a6 22        	ldx	$22                     ; 0x2022 <parse+0x2b5>
    5f5e: a5 18        	lda	$18                     ; 0x2018 <parse+0x2ab>
    5f60: 60           	rts
    5f61: a6 47        	ldx	$47                     ; 0x2047 <parse+0x2da>
    5f63: 80 02        	bra	$5f67 <__muldf3+0x13d3>
    5f65: a6 44        	ldx	$44                     ; 0x2044 <parse+0x2d7>
    5f67: e0 00        	cpx	#$0
    5f69: b0 b2        	bcs	$5f1d <__muldf3+0x1389>
    5f6b: 4c b8 5e     	jmp	$5eb8 <__muldf3+0x1324>
    5f6e: c9 00        	cmp	#$0
    5f70: b0 03        	bcs	$5f75 <__muldf3+0x13e1>
    5f72: 4c b8 5e     	jmp	$5eb8 <__muldf3+0x1324>
    5f75: 4c 1d 5f     	jmp	$5f1d <__muldf3+0x1389>

00005f78 <__fixunsdfsi>:
    5f78: a4 17        	ldy	$17                     ; 0x2017 <parse+0x2aa>
    5f7a: 30 24        	bmi	$5fa0 <__fixunsdfsi+0x28>
    5f7c: 85 1a        	sta	$1a                     ; 0x201a <parse+0x2ad>
    5f7e: 86 19        	stx	$19                     ; 0x2019 <parse+0x2ac>
    5f80: a5 17        	lda	$17                     ; 0x2017 <parse+0x2aa>
    5f82: 4a           	lsr
    5f83: a6 16        	ldx	$16                     ; 0x2016 <parse+0x2a9>
    5f85: 86 17        	stx	$17                     ; 0x2017 <parse+0x2aa>
    5f87: 66 16        	ror	$16                     ; 0x2016 <parse+0x2a9>
    5f89: 4a           	lsr
    5f8a: 66 16        	ror	$16                     ; 0x2016 <parse+0x2a9>
    5f8c: 4a           	lsr
    5f8d: 66 16        	ror	$16                     ; 0x2016 <parse+0x2a9>
    5f8f: 4a           	lsr
    5f90: 66 16        	ror	$16                     ; 0x2016 <parse+0x2a9>
    5f92: 29 07        	and	#$7
    5f94: c9 03        	cmp	#$3
    5f96: d0 11        	bne	$5fa9 <__fixunsdfsi+0x31>
    5f98: 85 1b        	sta	$1b                     ; 0x201b <parse+0x2ae>
    5f9a: a6 16        	ldx	$16                     ; 0x2016 <parse+0x2a9>
    5f9c: e0 ff        	cpx	#$ff
    5f9e: 80 0d        	bra	$5fad <__fixunsdfsi+0x35>
    5fa0: a2 00        	ldx	#$0
    5fa2: 86 3c        	stx	$3c                     ; 0x203c <parse+0x2cf>
    5fa4: a0 00        	ldy	#$0
    5fa6: 98           	tya
    5fa7: 80 4b        	bra	$5ff4 <__fixunsdfsi+0x7c>
    5fa9: 85 1b        	sta	$1b                     ; 0x201b <parse+0x2ae>
    5fab: c9 03        	cmp	#$3
    5fad: a2 00        	ldx	#$0
    5faf: 86 3c        	stx	$3c                     ; 0x203c <parse+0x2cf>
    5fb1: a0 00        	ldy	#$0
    5fb3: 98           	tya
    5fb4: 90 3e        	bcc	$5ff4 <__fixunsdfsi+0x7c>
    5fb6: a5 17        	lda	$17                     ; 0x2017 <parse+0x2aa>
    5fb8: 29 0f        	and	#$f
    5fba: 09 10        	ora	#$10
    5fbc: 85 18        	sta	$18                     ; 0x2018 <parse+0x2ab>
    5fbe: 18           	clc
    5fbf: a5 16        	lda	$16                     ; 0x2016 <parse+0x2a9>
    5fc1: 69 e1        	adc	#$e1
    5fc3: aa           	tax
    5fc4: a5 1b        	lda	$1b                     ; 0x201b <parse+0x2ae>
    5fc6: 69 fb        	adc	#$fb
    5fc8: c9 ff        	cmp	#$ff
    5fca: d0 04        	bne	$5fd0 <__fixunsdfsi+0x58>
    5fcc: e0 e0        	cpx	#$e0
    5fce: 80 02        	bra	$5fd2 <__fixunsdfsi+0x5a>
    5fd0: c9 ff        	cmp	#$ff
    5fd2: a9 ff        	lda	#$ff
    5fd4: aa           	tax
    5fd5: 86 3c        	stx	$3c                     ; 0x203c <parse+0x2cf>
    5fd7: a8           	tay
    5fd8: 90 1a        	bcc	$5ff4 <__fixunsdfsi+0x7c>
    5fda: 38           	sec
    5fdb: a9 33        	lda	#$33
    5fdd: e5 16        	sbc	$16                     ; 0x2016 <parse+0x2a9>
    5fdf: 64 17        	stz	$17                     ; 0x2017 <parse+0x2aa>
    5fe1: a6 18        	ldx	$18                     ; 0x2018 <parse+0x2ab>
    5fe3: 86 16        	stx	$16                     ; 0x2016 <parse+0x2a9>
    5fe5: 85 18        	sta	$18                     ; 0x2018 <parse+0x2ab>
    5fe7: a6 19        	ldx	$19                     ; 0x2019 <parse+0x2ac>
    5fe9: a5 1a        	lda	$1a                     ; 0x201a <parse+0x2ad>
    5feb: 20 9e 48     	jsr	$489e <__lshrdi3>
    5fee: 86 3c        	stx	$3c                     ; 0x203c <parse+0x2cf>
    5ff0: a6 12        	ldx	$12                     ; 0x2012 <parse+0x2a5>
    5ff2: a4 13        	ldy	$13                     ; 0x2013 <parse+0x2a6>
    5ff4: 86 12        	stx	$12                     ; 0x2012 <parse+0x2a5>
    5ff6: 84 13        	sty	$13                     ; 0x2013 <parse+0x2a6>
    5ff8: a6 3c        	ldx	$3c                     ; 0x203c <parse+0x2cf>
    5ffa: 60           	rts

00005ffb <__floatunsidf>:
    5ffb: 85 19        	sta	$19                     ; 0x2019 <parse+0x2ac>
    5ffd: 86 1a        	stx	$1a                     ; 0x201a <parse+0x2ad>
    5fff: a5 13        	lda	$13                     ; 0x2013 <parse+0x2a6>
    6001: d0 0f        	bne	$6012 <__floatunsidf+0x17>
    6003: a5 12        	lda	$12                     ; 0x2012 <parse+0x2a5>
    6005: d0 0b        	bne	$6012 <__floatunsidf+0x17>
    6007: a5 1a        	lda	$1a                     ; 0x201a <parse+0x2ad>
    6009: d0 07        	bne	$6012 <__floatunsidf+0x17>
    600b: a5 19        	lda	$19                     ; 0x2019 <parse+0x2ac>
    600d: d0 03        	bne	$6012 <__floatunsidf+0x17>
    600f: 4c 6d 62     	jmp	$626d <__floatunsidf+0x272>
    6012: a5 13        	lda	$13                     ; 0x2013 <parse+0x2a6>
    6014: 4a           	lsr
    6015: 85 16        	sta	$16                     ; 0x2016 <parse+0x2a9>
    6017: a5 12        	lda	$12                     ; 0x2012 <parse+0x2a5>
    6019: 6a           	ror
    601a: 85 15        	sta	$15                     ; 0x2015 <parse+0x2a8>
    601c: 86 17        	stx	$17                     ; 0x2017 <parse+0x2aa>
    601e: 66 17        	ror	$17                     ; 0x2017 <parse+0x2aa>
    6020: a5 19        	lda	$19                     ; 0x2019 <parse+0x2ac>
    6022: 6a           	ror
    6023: 05 19        	ora	$19                     ; 0x2019 <parse+0x2ac>
    6025: a8           	tay
    6026: a5 17        	lda	$17                     ; 0x2017 <parse+0x2aa>
    6028: 05 1a        	ora	$1a                     ; 0x201a <parse+0x2ad>
    602a: aa           	tax
    602b: a5 15        	lda	$15                     ; 0x2015 <parse+0x2a8>
    602d: 05 12        	ora	$12                     ; 0x2012 <parse+0x2a5>
    602f: 85 18        	sta	$18                     ; 0x2018 <parse+0x2ab>
    6031: a5 16        	lda	$16                     ; 0x2016 <parse+0x2a9>
    6033: 05 13        	ora	$13                     ; 0x2013 <parse+0x2a6>
    6035: 85 1b        	sta	$1b                     ; 0x201b <parse+0x2ae>
    6037: 4a           	lsr
    6038: 5a           	phy
    6039: a4 18        	ldy	$18                     ; 0x2018 <parse+0x2ab>
    603b: 84 14        	sty	$14                     ; 0x2014 <parse+0x2a7>
    603d: 7a           	ply
    603e: 66 14        	ror	$14                     ; 0x2014 <parse+0x2a7>
    6040: 86 15        	stx	$15                     ; 0x2015 <parse+0x2a8>
    6042: 66 15        	ror	$15                     ; 0x2015 <parse+0x2a8>
    6044: 84 16        	sty	$16                     ; 0x2016 <parse+0x2a9>
    6046: 66 16        	ror	$16                     ; 0x2016 <parse+0x2a9>
    6048: 4a           	lsr
    6049: 85 17        	sta	$17                     ; 0x2017 <parse+0x2aa>
    604b: 66 14        	ror	$14                     ; 0x2014 <parse+0x2a7>
    604d: 66 15        	ror	$15                     ; 0x2015 <parse+0x2a8>
    604f: 66 16        	ror	$16                     ; 0x2016 <parse+0x2a9>
    6051: 98           	tya
    6052: 05 16        	ora	$16                     ; 0x2016 <parse+0x2a9>
    6054: a8           	tay
    6055: 8a           	txa
    6056: 05 15        	ora	$15                     ; 0x2015 <parse+0x2a8>
    6058: aa           	tax
    6059: a5 18        	lda	$18                     ; 0x2018 <parse+0x2ab>
    605b: 05 14        	ora	$14                     ; 0x2014 <parse+0x2a7>
    605d: 85 18        	sta	$18                     ; 0x2018 <parse+0x2ab>
    605f: a5 1b        	lda	$1b                     ; 0x201b <parse+0x2ae>
    6061: 05 17        	ora	$17                     ; 0x2017 <parse+0x2aa>
    6063: 85 1b        	sta	$1b                     ; 0x201b <parse+0x2ae>
    6065: 4a           	lsr
    6066: 5a           	phy
    6067: a4 18        	ldy	$18                     ; 0x2018 <parse+0x2ab>
    6069: 84 14        	sty	$14                     ; 0x2014 <parse+0x2a7>
    606b: 7a           	ply
    606c: 66 14        	ror	$14                     ; 0x2014 <parse+0x2a7>
    606e: 86 15        	stx	$15                     ; 0x2015 <parse+0x2a8>
    6070: 66 15        	ror	$15                     ; 0x2015 <parse+0x2a8>
    6072: 84 16        	sty	$16                     ; 0x2016 <parse+0x2a9>
    6074: 66 16        	ror	$16                     ; 0x2016 <parse+0x2a9>
    6076: 4a           	lsr
    6077: 66 14        	ror	$14                     ; 0x2014 <parse+0x2a7>
    6079: 66 15        	ror	$15                     ; 0x2015 <parse+0x2a8>
    607b: 66 16        	ror	$16                     ; 0x2016 <parse+0x2a9>
    607d: 4a           	lsr
    607e: 66 14        	ror	$14                     ; 0x2014 <parse+0x2a7>
    6080: 66 15        	ror	$15                     ; 0x2015 <parse+0x2a8>
    6082: 66 16        	ror	$16                     ; 0x2016 <parse+0x2a9>
    6084: 4a           	lsr
    6085: 85 17        	sta	$17                     ; 0x2017 <parse+0x2aa>
    6087: 66 14        	ror	$14                     ; 0x2014 <parse+0x2a7>
    6089: 66 15        	ror	$15                     ; 0x2015 <parse+0x2a8>
    608b: 66 16        	ror	$16                     ; 0x2016 <parse+0x2a9>
    608d: 98           	tya
    608e: 05 16        	ora	$16                     ; 0x2016 <parse+0x2a9>
    6090: 85 16        	sta	$16                     ; 0x2016 <parse+0x2a9>
    6092: 8a           	txa
    6093: 05 15        	ora	$15                     ; 0x2015 <parse+0x2a8>
    6095: aa           	tax
    6096: a5 18        	lda	$18                     ; 0x2018 <parse+0x2ab>
    6098: 05 14        	ora	$14                     ; 0x2014 <parse+0x2a7>
    609a: a8           	tay
    609b: a5 1b        	lda	$1b                     ; 0x201b <parse+0x2ae>
    609d: 05 17        	ora	$17                     ; 0x2017 <parse+0x2aa>
    609f: 85 15        	sta	$15                     ; 0x2015 <parse+0x2a8>
    60a1: 86 14        	stx	$14                     ; 0x2014 <parse+0x2a7>
    60a3: a5 16        	lda	$16                     ; 0x2016 <parse+0x2a9>
    60a5: 05 14        	ora	$14                     ; 0x2014 <parse+0x2a7>
    60a7: 85 17        	sta	$17                     ; 0x2017 <parse+0x2aa>
    60a9: 84 14        	sty	$14                     ; 0x2014 <parse+0x2a7>
    60ab: 8a           	txa
    60ac: 05 14        	ora	$14                     ; 0x2014 <parse+0x2a7>
    60ae: 85 16        	sta	$16                     ; 0x2016 <parse+0x2a9>
    60b0: a6 15        	ldx	$15                     ; 0x2015 <parse+0x2a8>
    60b2: 86 14        	stx	$14                     ; 0x2014 <parse+0x2a7>
    60b4: 86 18        	stx	$18                     ; 0x2018 <parse+0x2ab>
    60b6: 98           	tya
    60b7: 05 14        	ora	$14                     ; 0x2014 <parse+0x2a7>
    60b9: 85 15        	sta	$15                     ; 0x2015 <parse+0x2a8>
    60bb: 85 1b        	sta	$1b                     ; 0x201b <parse+0x2ae>
    60bd: a5 17        	lda	$17                     ; 0x2017 <parse+0x2aa>
    60bf: 05 15        	ora	$15                     ; 0x2015 <parse+0x2a8>
    60c1: a8           	tay
    60c2: a5 16        	lda	$16                     ; 0x2016 <parse+0x2a9>
    60c4: 05 14        	ora	$14                     ; 0x2014 <parse+0x2a7>
    60c6: aa           	tax
    60c7: 98           	tya
    60c8: 4a           	lsr
    60c9: 29 55        	and	#$55
    60cb: 85 14        	sta	$14                     ; 0x2014 <parse+0x2a7>
    60cd: 8a           	txa
    60ce: 4a           	lsr
    60cf: 29 55        	and	#$55
    60d1: 85 15        	sta	$15                     ; 0x2015 <parse+0x2a8>
    60d3: a5 1b        	lda	$1b                     ; 0x201b <parse+0x2ae>
    60d5: 4a           	lsr
    60d6: 29 55        	and	#$55
    60d8: 85 16        	sta	$16                     ; 0x2016 <parse+0x2a9>
    60da: a5 18        	lda	$18                     ; 0x2018 <parse+0x2ab>
    60dc: 4a           	lsr
    60dd: 29 55        	and	#$55
    60df: 85 17        	sta	$17                     ; 0x2017 <parse+0x2aa>
    60e1: 38           	sec
    60e2: 98           	tya
    60e3: e5 14        	sbc	$14                     ; 0x2014 <parse+0x2a7>
    60e5: 85 14        	sta	$14                     ; 0x2014 <parse+0x2a7>
    60e7: 8a           	txa
    60e8: e5 15        	sbc	$15                     ; 0x2015 <parse+0x2a8>
    60ea: aa           	tax
    60eb: a5 1b        	lda	$1b                     ; 0x201b <parse+0x2ae>
    60ed: e5 16        	sbc	$16                     ; 0x2016 <parse+0x2a9>
    60ef: 85 16        	sta	$16                     ; 0x2016 <parse+0x2a9>
    60f1: a5 18        	lda	$18                     ; 0x2018 <parse+0x2ab>
    60f3: e5 17        	sbc	$17                     ; 0x2017 <parse+0x2aa>
    60f5: a8           	tay
    60f6: a5 14        	lda	$14                     ; 0x2014 <parse+0x2a7>
    60f8: 85 17        	sta	$17                     ; 0x2017 <parse+0x2aa>
    60fa: 29 33        	and	#$33
    60fc: 85 14        	sta	$14                     ; 0x2014 <parse+0x2a7>
    60fe: 8a           	txa
    60ff: 29 33        	and	#$33
    6101: 85 15        	sta	$15                     ; 0x2015 <parse+0x2a8>
    6103: a5 16        	lda	$16                     ; 0x2016 <parse+0x2a9>
    6105: 85 18        	sta	$18                     ; 0x2018 <parse+0x2ab>
    6107: 29 33        	and	#$33
    6109: 85 16        	sta	$16                     ; 0x2016 <parse+0x2a9>
    610b: 98           	tya
    610c: 4a           	lsr
    610d: 85 1c        	sta	$1c                     ; 0x201c <parse+0x2af>
    610f: a5 18        	lda	$18                     ; 0x2018 <parse+0x2ab>
    6111: 4a           	lsr
    6112: 85 1b        	sta	$1b                     ; 0x201b <parse+0x2ae>
    6114: 8a           	txa
    6115: 4a           	lsr
    6116: 85 18        	sta	$18                     ; 0x2018 <parse+0x2ab>
    6118: a5 17        	lda	$17                     ; 0x2017 <parse+0x2aa>
    611a: 4a           	lsr
    611b: 46 1c        	lsr	$1c                     ; 0x201c <parse+0x2af>
    611d: 46 1b        	lsr	$1b                     ; 0x201b <parse+0x2ae>
    611f: a6 18        	ldx	$18                     ; 0x2018 <parse+0x2ab>
    6121: 86 17        	stx	$17                     ; 0x2017 <parse+0x2aa>
    6123: 46 17        	lsr	$17                     ; 0x2017 <parse+0x2aa>
    6125: 4a           	lsr
    6126: 29 33        	and	#$33
    6128: 85 1d        	sta	$1d                     ; 0x201d <parse+0x2b0>
    612a: a5 17        	lda	$17                     ; 0x2017 <parse+0x2aa>
    612c: 29 33        	and	#$33
    612e: aa           	tax
    612f: a5 1b        	lda	$1b                     ; 0x201b <parse+0x2ae>
    6131: 29 33        	and	#$33
    6133: 85 18        	sta	$18                     ; 0x2018 <parse+0x2ab>
    6135: a5 1c        	lda	$1c                     ; 0x201c <parse+0x2af>
    6137: 29 33        	and	#$33
    6139: 85 1b        	sta	$1b                     ; 0x201b <parse+0x2ae>
    613b: 98           	tya
    613c: 29 33        	and	#$33
    613e: 85 17        	sta	$17                     ; 0x2017 <parse+0x2aa>
    6140: 18           	clc
    6141: a5 1d        	lda	$1d                     ; 0x201d <parse+0x2b0>
    6143: 65 14        	adc	$14                     ; 0x2014 <parse+0x2a7>
    6145: 85 14        	sta	$14                     ; 0x2014 <parse+0x2a7>
    6147: 8a           	txa
    6148: 65 15        	adc	$15                     ; 0x2015 <parse+0x2a8>
    614a: 85 15        	sta	$15                     ; 0x2015 <parse+0x2a8>
    614c: a5 18        	lda	$18                     ; 0x2018 <parse+0x2ab>
    614e: 65 16        	adc	$16                     ; 0x2016 <parse+0x2a9>
    6150: 85 16        	sta	$16                     ; 0x2016 <parse+0x2a9>
    6152: a5 1b        	lda	$1b                     ; 0x201b <parse+0x2ae>
    6154: 65 17        	adc	$17                     ; 0x2017 <parse+0x2aa>
    6156: 85 17        	sta	$17                     ; 0x2017 <parse+0x2aa>
    6158: 4a           	lsr
    6159: aa           	tax
    615a: a5 16        	lda	$16                     ; 0x2016 <parse+0x2a9>
    615c: 6a           	ror
    615d: a4 15        	ldy	$15                     ; 0x2015 <parse+0x2a8>
    615f: 84 1b        	sty	$1b                     ; 0x201b <parse+0x2ae>
    6161: 66 1b        	ror	$1b                     ; 0x201b <parse+0x2ae>
    6163: a4 14        	ldy	$14                     ; 0x2014 <parse+0x2a7>
    6165: 84 1c        	sty	$1c                     ; 0x201c <parse+0x2af>
    6167: 66 1c        	ror	$1c                     ; 0x201c <parse+0x2af>
    6169: 86 18        	stx	$18                     ; 0x2018 <parse+0x2ab>
    616b: 46 18        	lsr	$18                     ; 0x2018 <parse+0x2ab>
    616d: 6a           	ror
    616e: 66 1b        	ror	$1b                     ; 0x201b <parse+0x2ae>
    6170: 66 1c        	ror	$1c                     ; 0x201c <parse+0x2af>
    6172: 46 18        	lsr	$18                     ; 0x2018 <parse+0x2ab>
    6174: 6a           	ror
    6175: 66 1b        	ror	$1b                     ; 0x201b <parse+0x2ae>
    6177: 66 1c        	ror	$1c                     ; 0x201c <parse+0x2af>
    6179: 46 18        	lsr	$18                     ; 0x2018 <parse+0x2ab>
    617b: 6a           	ror
    617c: 85 1d        	sta	$1d                     ; 0x201d <parse+0x2b0>
    617e: a6 1b        	ldx	$1b                     ; 0x201b <parse+0x2ae>
    6180: 86 1e        	stx	$1e                     ; 0x201e <parse+0x2b1>
    6182: 66 1e        	ror	$1e                     ; 0x201e <parse+0x2b1>
    6184: a5 1c        	lda	$1c                     ; 0x201c <parse+0x2af>
    6186: 6a           	ror
    6187: 18           	clc
    6188: 65 14        	adc	$14                     ; 0x2014 <parse+0x2a7>
    618a: aa           	tax
    618b: a5 1e        	lda	$1e                     ; 0x201e <parse+0x2b1>
    618d: 65 15        	adc	$15                     ; 0x2015 <parse+0x2a8>
    618f: a8           	tay
    6190: a5 1d        	lda	$1d                     ; 0x201d <parse+0x2b0>
    6192: 65 16        	adc	$16                     ; 0x2016 <parse+0x2a9>
    6194: 85 16        	sta	$16                     ; 0x2016 <parse+0x2a9>
    6196: a5 18        	lda	$18                     ; 0x2018 <parse+0x2ab>
    6198: 65 17        	adc	$17                     ; 0x2017 <parse+0x2aa>
    619a: 85 17        	sta	$17                     ; 0x2017 <parse+0x2aa>
    619c: 8a           	txa
    619d: 29 0f        	and	#$f
    619f: 85 14        	sta	$14                     ; 0x2014 <parse+0x2a7>
    61a1: aa           	tax
    61a2: 98           	tya
    61a3: 29 0f        	and	#$f
    61a5: 85 15        	sta	$15                     ; 0x2015 <parse+0x2a8>
    61a7: 85 1b        	sta	$1b                     ; 0x201b <parse+0x2ae>
    61a9: a5 16        	lda	$16                     ; 0x2016 <parse+0x2a9>
    61ab: 29 0f        	and	#$f
    61ad: 85 16        	sta	$16                     ; 0x2016 <parse+0x2a9>
    61af: a8           	tay
    61b0: a5 17        	lda	$17                     ; 0x2017 <parse+0x2aa>
    61b2: 29 0f        	and	#$f
    61b4: 85 18        	sta	$18                     ; 0x2018 <parse+0x2ab>
    61b6: 18           	clc
    61b7: 8a           	txa
    61b8: 69 00        	adc	#$0
    61ba: 85 17        	sta	$17                     ; 0x2017 <parse+0x2aa>
    61bc: 85 1c        	sta	$1c                     ; 0x201c <parse+0x2af>
    61be: a5 1b        	lda	$1b                     ; 0x201b <parse+0x2ae>
    61c0: 65 14        	adc	$14                     ; 0x2014 <parse+0x2a7>
    61c2: 85 14        	sta	$14                     ; 0x2014 <parse+0x2a7>
    61c4: 98           	tya
    61c5: 65 15        	adc	$15                     ; 0x2015 <parse+0x2a8>
    61c7: 85 15        	sta	$15                     ; 0x2015 <parse+0x2a8>
    61c9: a5 18        	lda	$18                     ; 0x2018 <parse+0x2ab>
    61cb: 65 16        	adc	$16                     ; 0x2016 <parse+0x2a9>
    61cd: aa           	tax
    61ce: 18           	clc
    61cf: a5 1c        	lda	$1c                     ; 0x201c <parse+0x2af>
    61d1: 69 00        	adc	#$0
    61d3: a5 14        	lda	$14                     ; 0x2014 <parse+0x2a7>
    61d5: 69 00        	adc	#$0
    61d7: a5 15        	lda	$15                     ; 0x2015 <parse+0x2a8>
    61d9: 65 17        	adc	$17                     ; 0x2017 <parse+0x2aa>
    61db: 8a           	txa
    61dc: 65 14        	adc	$14                     ; 0x2014 <parse+0x2a7>
    61de: 85 14        	sta	$14                     ; 0x2014 <parse+0x2a7>
    61e0: a9 20        	lda	#$20
    61e2: 38           	sec
    61e3: e5 14        	sbc	$14                     ; 0x2014 <parse+0x2a7>
    61e5: a8           	tay
    61e6: 85 3d        	sta	$3d                     ; 0x203d <parse+0x2d0>
    61e8: a9 00        	lda	#$0
    61ea: e9 00        	sbc	#$0
    61ec: 85 3c        	sta	$3c                     ; 0x203c <parse+0x2cf>
    61ee: 98           	tya
    61ef: 49 1f        	eor	#$1f
    61f1: 85 14        	sta	$14                     ; 0x2014 <parse+0x2a7>
    61f3: a9 34        	lda	#$34
    61f5: 38           	sec
    61f6: e5 14        	sbc	$14                     ; 0x2014 <parse+0x2a7>
    61f8: 64 14        	stz	$14                     ; 0x2014 <parse+0x2a7>
    61fa: 64 15        	stz	$15                     ; 0x2015 <parse+0x2a8>
    61fc: 64 16        	stz	$16                     ; 0x2016 <parse+0x2a9>
    61fe: 64 17        	stz	$17                     ; 0x2017 <parse+0x2aa>
    6200: 85 18        	sta	$18                     ; 0x2018 <parse+0x2ab>
    6202: a6 1a        	ldx	$1a                     ; 0x201a <parse+0x2ad>
    6204: a5 19        	lda	$19                     ; 0x2019 <parse+0x2ac>
    6206: 20 7f 48     	jsr	$487f <__ashldi3>
    6209: 85 1a        	sta	$1a                     ; 0x201a <parse+0x2ad>
    620b: a9 1e        	lda	#$1e
    620d: a4 3d        	ldy	$3d                     ; 0x203d <parse+0x2d0>
    620f: 84 18        	sty	$18                     ; 0x2018 <parse+0x2ab>
    6211: 38           	sec
    6212: e5 18        	sbc	$18                     ; 0x2018 <parse+0x2ab>
    6214: 85 19        	sta	$19                     ; 0x2019 <parse+0x2ac>
    6216: a9 04        	lda	#$4
    6218: a4 3c        	ldy	$3c                     ; 0x203c <parse+0x2cf>
    621a: 84 18        	sty	$18                     ; 0x2018 <parse+0x2ab>
    621c: e5 18        	sbc	$18                     ; 0x2018 <parse+0x2ab>
    621e: 85 18        	sta	$18                     ; 0x2018 <parse+0x2ab>
    6220: a5 19        	lda	$19                     ; 0x2019 <parse+0x2ac>
    6222: 0a           	asl
    6223: 26 18        	rol	$18                     ; 0x2018 <parse+0x2ab>
    6225: 0a           	asl
    6226: 26 18        	rol	$18                     ; 0x2018 <parse+0x2ab>
    6228: 0a           	asl
    6229: 26 18        	rol	$18                     ; 0x2018 <parse+0x2ab>
    622b: 0a           	asl
    622c: 85 19        	sta	$19                     ; 0x2019 <parse+0x2ac>
    622e: a4 1a        	ldy	$1a                     ; 0x201a <parse+0x2ad>
    6230: a5 16        	lda	$16                     ; 0x2016 <parse+0x2a9>
    6232: 49 10        	eor	#$10
    6234: 85 16        	sta	$16                     ; 0x2016 <parse+0x2a9>
    6236: a5 18        	lda	$18                     ; 0x2018 <parse+0x2ab>
    6238: 2a           	rol
    6239: 85 1a        	sta	$1a                     ; 0x201a <parse+0x2ad>
    623b: 18           	clc
    623c: 98           	tya
    623d: 69 00        	adc	#$0
    623f: 85 18        	sta	$18                     ; 0x2018 <parse+0x2ab>
    6241: 8a           	txa
    6242: 69 00        	adc	#$0
    6244: aa           	tax
    6245: a5 12        	lda	$12                     ; 0x2012 <parse+0x2a5>
    6247: 69 00        	adc	#$0
    6249: a8           	tay
    624a: a5 13        	lda	$13                     ; 0x2013 <parse+0x2a6>
    624c: 69 00        	adc	#$0
    624e: 85 13        	sta	$13                     ; 0x2013 <parse+0x2a6>
    6250: a5 14        	lda	$14                     ; 0x2014 <parse+0x2a7>
    6252: 69 00        	adc	#$0
    6254: 85 14        	sta	$14                     ; 0x2014 <parse+0x2a7>
    6256: a5 15        	lda	$15                     ; 0x2015 <parse+0x2a8>
    6258: 69 00        	adc	#$0
    625a: 85 15        	sta	$15                     ; 0x2015 <parse+0x2a8>
    625c: a5 16        	lda	$16                     ; 0x2016 <parse+0x2a9>
    625e: 65 19        	adc	$19                     ; 0x2019 <parse+0x2ac>
    6260: 85 16        	sta	$16                     ; 0x2016 <parse+0x2a9>
    6262: a5 1a        	lda	$1a                     ; 0x201a <parse+0x2ad>
    6264: 65 17        	adc	$17                     ; 0x2017 <parse+0x2aa>
    6266: 85 17        	sta	$17                     ; 0x2017 <parse+0x2aa>
    6268: 84 12        	sty	$12                     ; 0x2012 <parse+0x2a5>
    626a: a5 18        	lda	$18                     ; 0x2018 <parse+0x2ab>
    626c: 60           	rts
    626d: 64 18        	stz	$18                     ; 0x2018 <parse+0x2ab>
    626f: a2 00        	ldx	#$0
    6271: a0 00        	ldy	#$0
    6273: 64 13        	stz	$13                     ; 0x2013 <parse+0x2a6>
    6275: 64 14        	stz	$14                     ; 0x2014 <parse+0x2a7>
    6277: 64 15        	stz	$15                     ; 0x2015 <parse+0x2a8>
    6279: 64 16        	stz	$16                     ; 0x2016 <parse+0x2a9>
    627b: 64 17        	stz	$17                     ; 0x2017 <parse+0x2aa>
    627d: 80 e9        	bra	$6268 <__floatunsidf+0x26d>
