
opl3.elf:	file format elf32-mos

SYMBOL TABLE:
00000000 l    df *ABS*	00000000 zero-bss.c
00000000 l    df *ABS*	00000000 zero-zp-bss.c
00000000 l    df *ABS*	00000000 copy-zp-data.c
00000000 l    df *ABS*	00000000 ld-temp.o
00000048 l     O .zp.bss	00000007 kernelEventData
00000b59 l     O .rodata	00000030 textColors
0000004f l     O .zp.bss	00000001 _col
00000050 l     O .zp.bss	00000001 _row
00000b89 l     O .bss	00000001 kernelError
00000030 l     O .zp.data	00000018 opl3_fnums
0000090a l     F .text	00000203 putchar
00000051 l     O .zp.bss	00000002 __putchar.s
0000036d g     F .text	00000598 main
0000032c g       .text	00000000 __after_main
00000318 g       .text	00000000 __do_init_stack
00000326 g       .text	00000000 __do_copy_zp_data
00000356 g     F .text	00000017 __copy_zp_data
00000320 g       .text	00000000 __do_zero_bss
00000330 g     F .text	00000013 __zero_bss
00000323 g       .text	00000000 __do_zero_zp_bss
00000343 g     F .text	00000013 __zero_zp_bss
00000905 g     F .text	00000005 exit
0000032f g       .text	00000000 _fini
00000b39  w    F .text	00000020 __memset
00001000  w      *ABS*	00000000 __heap_default_limit
00000b8a g       .noinit	00000000 __heap_start
00000b0d  w    F .text	0000002c memcpy
00000010 g       *ABS*	00000000 __rc0
00000012 g       *ABS*	00000000 __rc2
00000014 g       *ABS*	00000000 __rc4
00000016 g       *ABS*	00000000 __rc6
00000018 g       *ABS*	00000000 __rc8
0000001a g       *ABS*	00000000 __rc10
0000001c g       *ABS*	00000000 __rc12
0000001e g       *ABS*	00000000 __rc14
00000020 g       *ABS*	00000000 __rc16
00000022 g       *ABS*	00000000 __rc18
00000024 g       *ABS*	00000000 __rc20
00000026 g       *ABS*	00000000 __rc22
00000028 g       *ABS*	00000000 __rc24
0000002a g       *ABS*	00000000 __rc26
0000002c g       *ABS*	00000000 __rc28
0000002e g       *ABS*	00000000 __rc30
0000002f g       *ABS*	00000000 __rc31
00000300 g       *ABS*	00000000 __f256_start
0000a000 g       *ABS*	00000000 __stack
0000a000 g       *ABS*	00000000 __SLOT_ADDR
0800a000 g       *ABS*	00000000 __block8_lma
00002000 g       *ABS*	00000000 __BLOCK_SIZE
0900a000 g       *ABS*	00000000 __block9_lma
0a00a000 g       *ABS*	00000000 __block10_lma
0b00a000 g       *ABS*	00000000 __block11_lma
0c00a000 g       *ABS*	00000000 __block12_lma
0d00a000 g       *ABS*	00000000 __block13_lma
0e00a000 g       *ABS*	00000000 __block14_lma
0f00a000 g       *ABS*	00000000 __block15_lma
1000a000 g       *ABS*	00000000 __block16_lma
1100a000 g       *ABS*	00000000 __block17_lma
1200a000 g       *ABS*	00000000 __block18_lma
1300a000 g       *ABS*	00000000 __block19_lma
1400a000 g       *ABS*	00000000 __block20_lma
1500a000 g       *ABS*	00000000 __block21_lma
1600a000 g       *ABS*	00000000 __block22_lma
1700a000 g       *ABS*	00000000 __block23_lma
00000b89 g       .bss	00000000 __bss_start
00000318 g       .text	00000000 _start
0000002d g       *ABS*	00000000 __rc29
0000002b g       *ABS*	00000000 __rc27
00000029 g       *ABS*	00000000 __rc25
00000027 g       *ABS*	00000000 __rc23
00000025 g       *ABS*	00000000 __rc21
00000023 g       *ABS*	00000000 __rc19
00000021 g       *ABS*	00000000 __rc17
0000001f g       *ABS*	00000000 __rc15
0000001d g       *ABS*	00000000 __rc13
0000001b g       *ABS*	00000000 __rc11
00000019 g       *ABS*	00000000 __rc9
00000017 g       *ABS*	00000000 __rc7
00000015 g       *ABS*	00000000 __rc5
00000013 g       *ABS*	00000000 __rc3
00000011 g       *ABS*	00000000 __rc1
00000030 g       .zp.data	00000000 __zp_data_start
00000300 g       *ABS*	00000000 __zp_data_load_start
00000018 g       *ABS*	00000000 __zp_data_size
00000048 g       .zp.bss	00000000 __zp_bss_start
0000000b g       *ABS*	00000000 __zp_bss_size
00000318 g       .text	00000000 _init
00000b59 g       .text	00000000 __init_array_start
00000b59 g       .text	00000000 __init_array_end
00000b59 g       .text	00000000 __fini_array_start
00000b59 g       .text	00000000 __fini_array_end
00000b89 g       .data	00000000 __data_start
00000b89 g       .data	00000000 __data_end
00000b89 g       *ABS*	00000000 __data_load_start
00000000 g       *ABS*	00000000 __data_size
00000b8a g       .bss	00000000 __bss_end
00000001 g       *ABS*	00000000 __bss_size
00000b8a g       .noinit	00000000 end_block8
00000b8a g       .noinit	00000000 end_block9
00000b8a g       .noinit	00000000 end_block10
00000b8a g       .noinit	00000000 end_block11
00000b8a g       .noinit	00000000 end_block12
00000b8a g       .noinit	00000000 end_block13
00000b8a g       .noinit	00000000 end_block14
00000b8a g       .noinit	00000000 end_block15
00000b8a g       .noinit	00000000 end_block16
00000b8a g       .noinit	00000000 end_block17
00000b8a g       .noinit	00000000 end_block18
00000b8a g       .noinit	00000000 end_block19
00000b8a g       .noinit	00000000 end_block20
00000b8a g       .noinit	00000000 end_block21
00000b8a g       .noinit	00000000 end_block22
00000b8a g       .noinit	00000000 end_block23

Disassembly of section .text:

00000318 <_start>:
     318: a9 00        	lda	#$0
     31a: 85 10        	sta	$10                     ; 0x10 <__rc0>
     31c: a9 a0        	lda	#$a0
     31e: 85 11        	sta	$11                     ; 0x11 <__rc1>

00000320 <__do_zero_bss>:
     320: 20 30 03     	jsr	$330 <__zero_bss>

00000323 <__do_zero_zp_bss>:
     323: 20 43 03     	jsr	$343 <__zero_zp_bss>

00000326 <__do_copy_zp_data>:
     326: 20 56 03     	jsr	$356 <__copy_zp_data>
     329: 20 6d 03     	jsr	$36d <main>

0000032c <__after_main>:
     32c: 4c 05 09     	jmp	$905 <exit>

0000032f <_fini>:
     32f: 60           	rts

00000330 <__zero_bss>:
     330: a2 01        	ldx	#$1
     332: a0 00        	ldy	#$0
     334: a9 89        	lda	#$89
     336: 85 12        	sta	$12                     ; 0x12 <__rc2>
     338: a9 0b        	lda	#$b
     33a: 85 13        	sta	$13                     ; 0x13 <__rc3>
     33c: a9 00        	lda	#$0
     33e: 84 14        	sty	$14                     ; 0x14 <__rc4>
     340: 4c 39 0b     	jmp	$b39 <__memset>

00000343 <__zero_zp_bss>:
     343: a2 0b        	ldx	#$b
     345: a0 00        	ldy	#$0
     347: a9 48        	lda	#$48
     349: 85 12        	sta	$12                     ; 0x12 <__rc2>
     34b: a9 00        	lda	#$0
     34d: 85 13        	sta	$13                     ; 0x13 <__rc3>
     34f: a9 00        	lda	#$0
     351: 84 14        	sty	$14                     ; 0x14 <__rc4>
     353: 4c 39 0b     	jmp	$b39 <__memset>

00000356 <__copy_zp_data>:
     356: a9 18        	lda	#$18
     358: a2 00        	ldx	#$0
     35a: a0 30        	ldy	#$30
     35c: 84 12        	sty	$12                     ; 0x12 <__rc2>
     35e: a0 00        	ldy	#$0
     360: 84 13        	sty	$13                     ; 0x13 <__rc3>
     362: a0 00        	ldy	#$0
     364: 84 14        	sty	$14                     ; 0x14 <__rc4>
     366: a0 03        	ldy	#$3
     368: 84 15        	sty	$15                     ; 0x15 <__rc5>
     36a: 4c 0d 0b     	jmp	$b0d <memcpy>

0000036d <main>:
     36d: 64 1c        	stz	$1c                     ; 0x1c <__rc12>
     36f: a2 00        	ldx	#$0
     371: 86 1a        	stx	$1a                     ; 0x1a <__rc10>
     373: a2 d0        	ldx	#$d0
     375: 86 1b        	stx	$1b                     ; 0x1b <__rc11>
     377: a2 00        	ldx	#$0
     379: 86 16        	stx	$16                     ; 0x16 <__rc6>
     37b: a2 d8        	ldx	#$d8
     37d: 86 17        	stx	$17                     ; 0x17 <__rc7>
     37f: a2 00        	ldx	#$0
     381: 86 18        	stx	$18                     ; 0x18 <__zp_data_size>
     383: a2 d4        	ldx	#$d4
     385: 86 19        	stx	$19                     ; 0x19 <__rc9>
     387: a2 00        	ldx	#$0
     389: 86 14        	stx	$14                     ; 0x14 <__rc4>
     38b: a2 dc        	ldx	#$dc
     38d: 86 15        	stx	$15                     ; 0x15 <__rc5>
     38f: a2 00        	ldx	#$0
     391: 86 12        	stx	$12                     ; 0x12 <__rc2>
     393: a2 c0        	ldx	#$c0
     395: 86 13        	stx	$13                     ; 0x13 <__rc3>
     397: 64 01        	stz	$1                      ; 0x1 <__bss_size>
     399: a2 3f        	ldx	#$3f
     39b: 8e 00 d0     	stx	$d000                   ; 0xd000 <end_block9+0xc476>
     39e: a2 b3        	ldx	#$b3
     3a0: 86 00        	stx	$0                      ; 0x0 <__data_size>
     3a2: 64 08        	stz	$8                      ; 0x8 <__bss_size+0x7>
     3a4: a2 01        	ldx	#$1
     3a6: 86 09        	stx	$9                      ; 0x9 <__bss_size+0x8>
     3a8: e8           	inx
     3a9: 86 0a        	stx	$a                      ; 0xa <__bss_size+0x9>
     3ab: e8           	inx
     3ac: 86 0b        	stx	$b                      ; 0xb <__zp_bss_size>
     3ae: e8           	inx
     3af: 86 0c        	stx	$c                      ; 0xc <__zp_bss_size+0x1>
     3b1: e8           	inx
     3b2: 86 0d        	stx	$d                      ; 0xd <__zp_bss_size+0x2>
     3b4: a2 48        	ldx	#$48
     3b6: a9 00        	lda	#$0
     3b8: 86 f0        	stx	$f0                     ; 0xf0 <__rc31+0xc1>
     3ba: 85 f1        	sta	$f1                     ; 0xf1 <__rc31+0xc2>
     3bc: a6 01        	ldx	$1                      ; 0x1 <__bss_size>
     3be: a0 01        	ldy	#$1
     3c0: 84 01        	sty	$1                      ; 0x1 <__bss_size>
     3c2: a5 1c        	lda	$1c                     ; 0x1c <__rc12>
     3c4: 92 1a        	sta	($1a)                   ; 0x1a <__rc10>
     3c6: 91 1a        	sta	($1a),y                 ; 0x1a <__rc10>
     3c8: c8           	iny
     3c9: 91 1a        	sta	($1a),y                 ; 0x1a <__rc10>
     3cb: c8           	iny
     3cc: a9 ff        	lda	#$ff
     3ce: 91 1a        	sta	($1a),y                 ; 0x1a <__rc10>
     3d0: 86 01        	stx	$1                      ; 0x1 <__bss_size>
     3d2: a5 1a        	lda	$1a                     ; 0x1a <__rc10>
     3d4: 18           	clc
     3d5: 69 04        	adc	#$4
     3d7: 85 1a        	sta	$1a                     ; 0x1a <__rc10>
     3d9: a5 1b        	lda	$1b                     ; 0x1b <__rc11>
     3db: 69 00        	adc	#$0
     3dd: e6 1c        	inc	$1c                     ; 0x1c <__rc12>
     3df: 85 1b        	sta	$1b                     ; 0x1b <__rc11>
     3e1: d0 d9        	bne	$3bc <main+0x4f>
     3e3: a9 00        	lda	#$0
     3e5: a6 01        	ldx	$1                      ; 0x1 <__bss_size>
     3e7: a0 01        	ldy	#$1
     3e9: 84 01        	sty	$1                      ; 0x1 <__bss_size>
     3eb: 92 18        	sta	($18)                   ; 0x18 <__zp_data_size>
     3ed: 91 18        	sta	($18),y                 ; 0x18 <__zp_data_size>
     3ef: c8           	iny
     3f0: 91 18        	sta	($18),y                 ; 0x18 <__zp_data_size>
     3f2: c8           	iny
     3f3: 85 1a        	sta	$1a                     ; 0x1a <__rc10>
     3f5: a9 ff        	lda	#$ff
     3f7: 91 18        	sta	($18),y                 ; 0x18 <__zp_data_size>
     3f9: 86 01        	stx	$1                      ; 0x1 <__bss_size>
     3fb: a5 18        	lda	$18                     ; 0x18 <__zp_data_size>
     3fd: 18           	clc
     3fe: 69 04        	adc	#$4
     400: 85 18        	sta	$18                     ; 0x18 <__zp_data_size>
     402: a5 19        	lda	$19                     ; 0x19 <__rc9>
     404: 69 00        	adc	#$0
     406: e6 1a        	inc	$1a                     ; 0x1a <__rc10>
     408: 85 19        	sta	$19                     ; 0x19 <__rc9>
     40a: a5 1a        	lda	$1a                     ; 0x1a <__rc10>
     40c: d0 d7        	bne	$3e5 <main+0x78>
     40e: a9 00        	lda	#$0
     410: a6 01        	ldx	$1                      ; 0x1 <__bss_size>
     412: a0 01        	ldy	#$1
     414: 84 01        	sty	$1                      ; 0x1 <__bss_size>
     416: 92 16        	sta	($16)                   ; 0x16 <__rc6>
     418: 91 16        	sta	($16),y                 ; 0x16 <__rc6>
     41a: c8           	iny
     41b: 91 16        	sta	($16),y                 ; 0x16 <__rc6>
     41d: c8           	iny
     41e: 85 18        	sta	$18                     ; 0x18 <__zp_data_size>
     420: a9 ff        	lda	#$ff
     422: 91 16        	sta	($16),y                 ; 0x16 <__rc6>
     424: 86 01        	stx	$1                      ; 0x1 <__bss_size>
     426: a5 16        	lda	$16                     ; 0x16 <__rc6>
     428: 18           	clc
     429: 69 04        	adc	#$4
     42b: 85 16        	sta	$16                     ; 0x16 <__rc6>
     42d: a5 17        	lda	$17                     ; 0x17 <__rc7>
     42f: 69 00        	adc	#$0
     431: e6 18        	inc	$18                     ; 0x18 <__zp_data_size>
     433: 85 17        	sta	$17                     ; 0x17 <__rc7>
     435: a5 18        	lda	$18                     ; 0x18 <__zp_data_size>
     437: d0 d7        	bne	$410 <main+0xa3>
     439: a9 00        	lda	#$0
     43b: a6 01        	ldx	$1                      ; 0x1 <__bss_size>
     43d: a0 01        	ldy	#$1
     43f: 84 01        	sty	$1                      ; 0x1 <__bss_size>
     441: 92 14        	sta	($14)                   ; 0x14 <__rc4>
     443: 91 14        	sta	($14),y                 ; 0x14 <__rc4>
     445: c8           	iny
     446: 91 14        	sta	($14),y                 ; 0x14 <__rc4>
     448: c8           	iny
     449: 85 16        	sta	$16                     ; 0x16 <__rc6>
     44b: a9 ff        	lda	#$ff
     44d: 91 14        	sta	($14),y                 ; 0x14 <__rc4>
     44f: 86 01        	stx	$1                      ; 0x1 <__bss_size>
     451: a5 14        	lda	$14                     ; 0x14 <__rc4>
     453: 18           	clc
     454: 69 04        	adc	#$4
     456: 85 14        	sta	$14                     ; 0x14 <__rc4>
     458: a5 15        	lda	$15                     ; 0x15 <__rc5>
     45a: 69 00        	adc	#$0
     45c: e6 16        	inc	$16                     ; 0x16 <__rc6>
     45e: 85 15        	sta	$15                     ; 0x15 <__rc5>
     460: a5 16        	lda	$16                     ; 0x16 <__rc6>
     462: d0 d7        	bne	$43b <main+0xce>
     464: ad 02 d0     	lda	$d002                   ; 0xd002 <end_block9+0xc478>
     467: 29 f0        	and	#$f0
     469: 8d 02 d0     	sta	$d002                   ; 0xd002 <end_block9+0xc478>
     46c: ad 02 d0     	lda	$d002                   ; 0xd002 <end_block9+0xc478>
     46f: 29 0f        	and	#$f
     471: 09 10        	ora	#$10
     473: 8d 02 d0     	sta	$d002                   ; 0xd002 <end_block9+0xc478>
     476: a2 02        	ldx	#$2
     478: 8e 03 d0     	stx	$d003                   ; 0xd003 <end_block9+0xc479>
     47b: ad 01 d0     	lda	$d001                   ; 0xd001 <end_block9+0xc477>
     47e: 29 f9        	and	#$f9
     480: 09 04        	ora	#$4
     482: 8d 01 d0     	sta	$d001                   ; 0xd001 <end_block9+0xc477>
     485: 64 14        	stz	$14                     ; 0x14 <__rc4>
     487: 9c 10 d0     	stz	$d010                   ; 0xd010 <end_block9+0xc486>
     48a: a2 00        	ldx	#$0
     48c: 64 15        	stz	$15                     ; 0x15 <__rc5>
     48e: 86 18        	stx	$18                     ; 0x18 <__zp_data_size>
     490: a4 18        	ldy	$18                     ; 0x18 <__zp_data_size>
     492: be 59 0b     	ldx	$b59,y                  ; 0xb59 <textColors>
     495: 86 19        	stx	$19                     ; 0x19 <__rc9>
     497: be 5a 0b     	ldx	$b5a,y                  ; 0xb5a <textColors+0x1>
     49a: 86 1a        	stx	$1a                     ; 0x1a <__rc10>
     49c: be 5b 0b     	ldx	$b5b,y                  ; 0xb5b <textColors+0x2>
     49f: 86 1b        	stx	$1b                     ; 0x1b <__rc11>
     4a1: a6 15        	ldx	$15                     ; 0x15 <__rc5>
     4a3: 8e 00 de     	stx	$de00                   ; 0xde00 <end_block9+0xd276>
     4a6: 86 17        	stx	$17                     ; 0x17 <__rc7>
     4a8: 9c 01 de     	stz	$de01                   ; 0xde01 <end_block9+0xd277>
     4ab: a2 04        	ldx	#$4
     4ad: 8e 02 de     	stx	$de02                   ; 0xde02 <end_block9+0xd278>
     4b0: 86 1d        	stx	$1d                     ; 0x1d <__rc13>
     4b2: 9c 03 de     	stz	$de03                   ; 0xde03 <end_block9+0xd279>
     4b5: ad 10 de     	lda	$de10                   ; 0xde10 <end_block9+0xd286>
     4b8: ac 11 de     	ldy	$de11                   ; 0xde11 <end_block9+0xd287>
     4bb: 84 15        	sty	$15                     ; 0x15 <__rc5>
     4bd: ac 12 de     	ldy	$de12                   ; 0xde12 <end_block9+0xd288>
     4c0: ac 13 de     	ldy	$de13                   ; 0xde13 <end_block9+0xd289>
     4c3: a2 00        	ldx	#$0
     4c5: 18           	clc
     4c6: 65 14        	adc	$14                     ; 0x14 <__rc4>
     4c8: a8           	tay
     4c9: 86 1f        	stx	$1f                     ; 0x1f <__rc15>
     4cb: a6 17        	ldx	$17                     ; 0x17 <__rc7>
     4cd: a9 d8        	lda	#$d8
     4cf: 65 15        	adc	$15                     ; 0x15 <__rc5>
     4d1: 84 16        	sty	$16                     ; 0x16 <__rc6>
     4d3: 85 17        	sta	$17                     ; 0x17 <__rc7>
     4d5: a5 1b        	lda	$1b                     ; 0x1b <__rc11>
     4d7: 92 16        	sta	($16)                   ; 0x16 <__rc6>
     4d9: a0 01        	ldy	#$1
     4db: a5 1a        	lda	$1a                     ; 0x1a <__rc10>
     4dd: 91 16        	sta	($16),y                 ; 0x16 <__rc6>
     4df: 84 1c        	sty	$1c                     ; 0x1c <__rc12>
     4e1: c8           	iny
     4e2: a5 19        	lda	$19                     ; 0x19 <__rc9>
     4e4: 91 16        	sta	($16),y                 ; 0x16 <__rc6>
     4e6: 84 1e        	sty	$1e                     ; 0x1e <__rc14>
     4e8: c8           	iny
     4e9: a9 ff        	lda	#$ff
     4eb: 91 16        	sta	($16),y                 ; 0x16 <__rc6>
     4ed: 85 23        	sta	$23                     ; 0x23 <__rc19>
     4ef: 84 22        	sty	$22                     ; 0x22 <__rc18>
     4f1: 8e 00 de     	stx	$de00                   ; 0xde00 <end_block9+0xd276>
     4f4: 9c 01 de     	stz	$de01                   ; 0xde01 <end_block9+0xd277>
     4f7: a4 1d        	ldy	$1d                     ; 0x1d <__rc13>
     4f9: 8c 02 de     	sty	$de02                   ; 0xde02 <end_block9+0xd278>
     4fc: 9c 03 de     	stz	$de03                   ; 0xde03 <end_block9+0xd279>
     4ff: ad 10 de     	lda	$de10                   ; 0xde10 <end_block9+0xd286>
     502: 85 15        	sta	$15                     ; 0x15 <__rc5>
     504: ad 11 de     	lda	$de11                   ; 0xde11 <end_block9+0xd287>
     507: 85 16        	sta	$16                     ; 0x16 <__rc6>
     509: a9 40        	lda	#$40
     50b: a4 1f        	ldy	$1f                     ; 0x1f <__rc15>
     50d: c0 01        	cpy	#$1
     50f: 65 15        	adc	$15                     ; 0x15 <__rc5>
     511: a8           	tay
     512: a9 d8        	lda	#$d8
     514: 65 16        	adc	$16                     ; 0x16 <__rc6>
     516: 85 17        	sta	$17                     ; 0x17 <__rc7>
     518: 84 16        	sty	$16                     ; 0x16 <__rc6>
     51a: ad 12 de     	lda	$de12                   ; 0xde12 <end_block9+0xd288>
     51d: ad 13 de     	lda	$de13                   ; 0xde13 <end_block9+0xd289>
     520: a5 1b        	lda	$1b                     ; 0x1b <__rc11>
     522: 92 16        	sta	($16)                   ; 0x16 <__rc6>
     524: a5 1a        	lda	$1a                     ; 0x1a <__rc10>
     526: a4 1c        	ldy	$1c                     ; 0x1c <__rc12>
     528: 91 16        	sta	($16),y                 ; 0x16 <__rc6>
     52a: a5 19        	lda	$19                     ; 0x19 <__rc9>
     52c: a4 1e        	ldy	$1e                     ; 0x1e <__rc14>
     52e: 91 16        	sta	($16),y                 ; 0x16 <__rc6>
     530: a4 22        	ldy	$22                     ; 0x22 <__rc18>
     532: a5 23        	lda	$23                     ; 0x23 <__rc19>
     534: 91 16        	sta	($16),y                 ; 0x16 <__rc6>
     536: e8           	inx
     537: 86 15        	stx	$15                     ; 0x15 <__rc5>
     539: 18           	clc
     53a: a5 18        	lda	$18                     ; 0x18 <__zp_data_size>
     53c: 69 03        	adc	#$3
     53e: aa           	tax
     53f: c9 30        	cmp	#$30
     541: f0 03        	beq	$546 <main+0x1d9>
     543: 4c 8e 04     	jmp	$48e <main+0x121>
     546: a6 01        	ldx	$1                      ; 0x1 <__bss_size>
     548: 86 18        	stx	$18                     ; 0x18 <__zp_data_size>
     54a: a2 50        	ldx	#$50
     54c: 8e 00 de     	stx	$de00                   ; 0xde00 <end_block9+0xd276>
     54f: 9c 01 de     	stz	$de01                   ; 0xde01 <end_block9+0xd277>
     552: a2 1e        	ldx	#$1e
     554: 8e 02 de     	stx	$de02                   ; 0xde02 <end_block9+0xd278>
     557: 9c 03 de     	stz	$de03                   ; 0xde03 <end_block9+0xd279>
     55a: ae 10 de     	ldx	$de10                   ; 0xde10 <end_block9+0xd286>
     55d: ac 11 de     	ldy	$de11                   ; 0xde11 <end_block9+0xd287>
     560: ad 12 de     	lda	$de12                   ; 0xde12 <end_block9+0xd288>
     563: ad 13 de     	lda	$de13                   ; 0xde13 <end_block9+0xd289>
     566: a9 02        	lda	#$2
     568: 85 01        	sta	$1                      ; 0x1 <__bss_size>
     56a: e0 01        	cpx	#$1
     56c: 98           	tya
     56d: e9 00        	sbc	#$0
     56f: 50 02        	bvc	$573 <main+0x206>
     571: 49 80        	eor	#$80
     573: c9 00        	cmp	#$0
     575: 30 50        	bmi	$5c7 <main+0x25a>
     577: a9 20        	lda	#$20
     579: 86 19        	stx	$19                     ; 0x19 <__rc9>
     57b: 86 14        	stx	$14                     ; 0x14 <__rc4>
     57d: 84 15        	sty	$15                     ; 0x15 <__rc5>
     57f: a2 00        	ldx	#$0
     581: 86 16        	stx	$16                     ; 0x16 <__rc6>
     583: a2 c0        	ldx	#$c0
     585: 86 17        	stx	$17                     ; 0x17 <__rc7>
     587: 80 04        	bra	$58d <main+0x220>
     589: a6 15        	ldx	$15                     ; 0x15 <__rc5>
     58b: f0 14        	beq	$5a1 <main+0x234>
     58d: 92 16        	sta	($16)                   ; 0x16 <__rc6>
     58f: e6 16        	inc	$16                     ; 0x16 <__rc6>
     591: d0 02        	bne	$595 <main+0x228>
     593: e6 17        	inc	$17                     ; 0x17 <__rc7>
     595: a2 ff        	ldx	#$ff
     597: c6 14        	dec	$14                     ; 0x14 <__rc4>
     599: e4 14        	cpx	$14                     ; 0x14 <__rc4>
     59b: d0 ec        	bne	$589 <main+0x21c>
     59d: c6 15        	dec	$15                     ; 0x15 <__rc5>
     59f: 80 e8        	bra	$589 <main+0x21c>
     5a1: a6 14        	ldx	$14                     ; 0x14 <__rc4>
     5a3: d0 e8        	bne	$58d <main+0x220>
     5a5: a2 03        	ldx	#$3
     5a7: 86 01        	stx	$1                      ; 0x1 <__bss_size>
     5a9: a6 19        	ldx	$19                     ; 0x19 <__rc9>
     5ab: 80 03        	bra	$5b0 <main+0x243>
     5ad: 98           	tya
     5ae: f0 12        	beq	$5c2 <main+0x255>
     5b0: a9 f0        	lda	#$f0
     5b2: 92 12        	sta	($12)                   ; 0x12 <__rc2>
     5b4: e6 12        	inc	$12                     ; 0x12 <__rc2>
     5b6: d0 02        	bne	$5ba <main+0x24d>
     5b8: e6 13        	inc	$13                     ; 0x13 <__rc3>
     5ba: ca           	dex
     5bb: e0 ff        	cpx	#$ff
     5bd: d0 ee        	bne	$5ad <main+0x240>
     5bf: 88           	dey
     5c0: 80 eb        	bra	$5ad <main+0x240>
     5c2: 8a           	txa
     5c3: d0 eb        	bne	$5b0 <main+0x243>
     5c5: 80 04        	bra	$5cb <main+0x25e>
     5c7: a2 03        	ldx	#$3
     5c9: 86 01        	stx	$1                      ; 0x1 <__bss_size>
     5cb: a6 18        	ldx	$18                     ; 0x18 <__zp_data_size>
     5cd: 86 01        	stx	$1                      ; 0x1 <__bss_size>
     5cf: 64 4f        	stz	$4f                     ; 0x4f <_col>
     5d1: 9c 14 d0     	stz	$d014                   ; 0xd014 <end_block9+0xc48a>
     5d4: 9c 15 d0     	stz	$d015                   ; 0xd015 <end_block9+0xc48b>
     5d7: 64 50        	stz	$50                     ; 0x50 <_row>
     5d9: 9c 16 d0     	stz	$d016                   ; 0xd016 <end_block9+0xc48c>
     5dc: 9c 17 d0     	stz	$d017                   ; 0xd017 <end_block9+0xc48d>
     5df: a2 40        	ldx	#$40
     5e1: 8e 00 de     	stx	$de00                   ; 0xde00 <end_block9+0xd276>
     5e4: a2 01        	ldx	#$1
     5e6: 8e 01 de     	stx	$de01                   ; 0xde01 <end_block9+0xd277>
     5e9: a2 f0        	ldx	#$f0
     5eb: 8e 02 de     	stx	$de02                   ; 0xde02 <end_block9+0xd278>
     5ee: 9c 03 de     	stz	$de03                   ; 0xde03 <end_block9+0xd279>
     5f1: ae 10 de     	ldx	$de10                   ; 0xde10 <end_block9+0xd286>
     5f4: 86 17        	stx	$17                     ; 0x17 <__rc7>
     5f6: ae 11 de     	ldx	$de11                   ; 0xde11 <end_block9+0xd287>
     5f9: 86 12        	stx	$12                     ; 0x12 <__rc2>
     5fb: ae 12 de     	ldx	$de12                   ; 0xde12 <end_block9+0xd288>
     5fe: 86 13        	stx	$13                     ; 0x13 <__rc3>
     600: ae 13 de     	ldx	$de13                   ; 0xde13 <end_block9+0xd289>
     603: 86 14        	stx	$14                     ; 0x14 <__rc4>
     605: a4 12        	ldy	$12                     ; 0x12 <__rc2>
     607: 84 15        	sty	$15                     ; 0x15 <__rc5>
     609: 06 15        	asl	$15                     ; 0x15 <__rc5>
     60b: a5 13        	lda	$13                     ; 0x13 <__rc3>
     60d: 2a           	rol
     60e: 86 16        	stx	$16                     ; 0x16 <__rc6>
     610: 26 16        	rol	$16                     ; 0x16 <__rc6>
     612: 06 15        	asl	$15                     ; 0x15 <__rc5>
     614: 2a           	rol
     615: 26 16        	rol	$16                     ; 0x16 <__rc6>
     617: 06 15        	asl	$15                     ; 0x15 <__rc5>
     619: 2a           	rol
     61a: 26 16        	rol	$16                     ; 0x16 <__rc6>
     61c: 85 15        	sta	$15                     ; 0x15 <__rc5>
     61e: 8d 00 de     	sta	$de00                   ; 0xde00 <end_block9+0xd276>
     621: a5 16        	lda	$16                     ; 0x16 <__rc6>
     623: 8d 01 de     	sta	$de01                   ; 0xde01 <end_block9+0xd277>
     626: 9c 02 de     	stz	$de02                   ; 0xde02 <end_block9+0xd278>
     629: a2 20        	ldx	#$20
     62b: 8e 03 de     	stx	$de03                   ; 0xde03 <end_block9+0xd279>
     62e: ae 10 de     	ldx	$de10                   ; 0xde10 <end_block9+0xd286>
     631: 86 16        	stx	$16                     ; 0x16 <__rc6>
     633: ae 11 de     	ldx	$de11                   ; 0xde11 <end_block9+0xd287>
     636: 86 18        	stx	$18                     ; 0x18 <__zp_data_size>
     638: ac 12 de     	ldy	$de12                   ; 0xde12 <end_block9+0xd288>
     63b: ae 13 de     	ldx	$de13                   ; 0xde13 <end_block9+0xd289>
     63e: e4 14        	cpx	$14                     ; 0x14 <__rc4>
     640: d0 14        	bne	$656 <main+0x2e9>
     642: c4 13        	cpy	$13                     ; 0x13 <__rc3>
     644: d0 10        	bne	$656 <main+0x2e9>
     646: a6 18        	ldx	$18                     ; 0x18 <__zp_data_size>
     648: e4 12        	cpx	$12                     ; 0x12 <__rc2>
     64a: d0 0a        	bne	$656 <main+0x2e9>
     64c: a6 16        	ldx	$16                     ; 0x16 <__rc6>
     64e: e4 17        	cpx	$17                     ; 0x17 <__rc7>
     650: d0 04        	bne	$656 <main+0x2e9>
     652: a6 15        	ldx	$15                     ; 0x15 <__rc5>
     654: 80 06        	bra	$65c <main+0x2ef>
     656: a6 15        	ldx	$15                     ; 0x15 <__rc5>
     658: e8           	inx
     659: d0 01        	bne	$65c <main+0x2ef>
     65b: 1a           	inc
     65c: 8e 00 de     	stx	$de00                   ; 0xde00 <end_block9+0xd276>
     65f: 8d 01 de     	sta	$de01                   ; 0xde01 <end_block9+0xd277>
     662: 9c 02 de     	stz	$de02                   ; 0xde02 <end_block9+0xd278>
     665: a2 20        	ldx	#$20
     667: 8e 03 de     	stx	$de03                   ; 0xde03 <end_block9+0xd279>
     66a: ae 10 de     	ldx	$de10                   ; 0xde10 <end_block9+0xd286>
     66d: 86 12        	stx	$12                     ; 0x12 <__rc2>
     66f: ae 11 de     	ldx	$de11                   ; 0xde11 <end_block9+0xd287>
     672: 86 13        	stx	$13                     ; 0x13 <__rc3>
     674: ae 12 de     	ldx	$de12                   ; 0xde12 <end_block9+0xd288>
     677: 86 14        	stx	$14                     ; 0x14 <__rc4>
     679: 38           	sec
     67a: a9 00        	lda	#$0
     67c: e5 12        	sbc	$12                     ; 0x12 <__rc2>
     67e: a8           	tay
     67f: a9 00        	lda	#$0
     681: e5 13        	sbc	$13                     ; 0x13 <__rc3>
     683: 85 15        	sta	$15                     ; 0x15 <__rc5>
     685: a9 08        	lda	#$8
     687: e5 14        	sbc	$14                     ; 0x14 <__rc4>
     689: aa           	tax
     68a: 38           	sec
     68b: 98           	tya
     68c: 84 17        	sty	$17                     ; 0x17 <__rc7>
     68e: e5 12        	sbc	$12                     ; 0x12 <__rc2>
     690: 85 16        	sta	$16                     ; 0x16 <__rc6>
     692: a5 15        	lda	$15                     ; 0x15 <__rc5>
     694: e5 13        	sbc	$13                     ; 0x13 <__rc3>
     696: 85 18        	sta	$18                     ; 0x18 <__zp_data_size>
     698: 8a           	txa
     699: 86 19        	stx	$19                     ; 0x19 <__rc9>
     69b: e5 14        	sbc	$14                     ; 0x14 <__rc4>
     69d: a8           	tay
     69e: 38           	sec
     69f: a5 16        	lda	$16                     ; 0x16 <__rc6>
     6a1: e5 12        	sbc	$12                     ; 0x12 <__rc2>
     6a3: 85 12        	sta	$12                     ; 0x12 <__rc2>
     6a5: a5 18        	lda	$18                     ; 0x18 <__zp_data_size>
     6a7: e5 13        	sbc	$13                     ; 0x13 <__rc3>
     6a9: 85 13        	sta	$13                     ; 0x13 <__rc3>
     6ab: 98           	tya
     6ac: e5 14        	sbc	$14                     ; 0x14 <__rc4>
     6ae: ae 13 de     	ldx	$de13                   ; 0xde13 <end_block9+0xd289>
     6b1: a6 17        	ldx	$17                     ; 0x17 <__rc7>
     6b3: 8e 01 d1     	stx	$d101                   ; 0xd101 <end_block9+0xc577>
     6b6: a6 15        	ldx	$15                     ; 0x15 <__rc5>
     6b8: 8e 02 d1     	stx	$d102                   ; 0xd102 <end_block9+0xc578>
     6bb: a6 19        	ldx	$19                     ; 0x19 <__rc9>
     6bd: 8e 03 d1     	stx	$d103                   ; 0xd103 <end_block9+0xc579>
     6c0: a6 16        	ldx	$16                     ; 0x16 <__rc6>
     6c2: 8e 09 d1     	stx	$d109                   ; 0xd109 <end_block9+0xc57f>
     6c5: a6 18        	ldx	$18                     ; 0x18 <__zp_data_size>
     6c7: 8e 0a d1     	stx	$d10a                   ; 0xd10a <end_block9+0xc580>
     6ca: 8c 0b d1     	sty	$d10b                   ; 0xd10b <end_block9+0xc581>
     6cd: a6 12        	ldx	$12                     ; 0x12 <__rc2>
     6cf: 8e 11 d1     	stx	$d111                   ; 0xd111 <end_block9+0xc587>
     6d2: a6 13        	ldx	$13                     ; 0x13 <__rc3>
     6d4: 8e 12 d1     	stx	$d112                   ; 0xd112 <end_block9+0xc588>
     6d7: 8d 13 d1     	sta	$d113                   ; 0xd113 <end_block9+0xc589>
     6da: 9c 00 d1     	stz	$d100                   ; 0xd100 <end_block9+0xc576>
     6dd: 9c 08 d1     	stz	$d108                   ; 0xd108 <end_block9+0xc57e>
     6e0: 9c 10 d1     	stz	$d110                   ; 0xd110 <end_block9+0xc586>
     6e3: a2 10        	ldx	#$10
     6e5: 8e 00 d2     	stx	$d200                   ; 0xd200 <end_block9+0xc676>
     6e8: 8e 0c d2     	stx	$d20c                   ; 0xd20c <end_block9+0xc682>
     6eb: 8e 18 d2     	stx	$d218                   ; 0xd218 <end_block9+0xc68e>
     6ee: a0 d9        	ldy	#$d9
     6f0: a2 40        	ldx	#$40
     6f2: 64 12        	stz	$12                     ; 0x12 <__rc2>
     6f4: 84 13        	sty	$13                     ; 0x13 <__rc3>
     6f6: a9 00        	lda	#$0
     6f8: 92 12        	sta	($12)                   ; 0x12 <__rc2>
     6fa: ca           	dex
     6fb: 18           	clc
     6fc: a5 12        	lda	$12                     ; 0x12 <__rc2>
     6fe: 69 08        	adc	#$8
     700: 85 12        	sta	$12                     ; 0x12 <__rc2>
     702: 98           	tya
     703: 69 00        	adc	#$0
     705: a8           	tay
     706: 8a           	txa
     707: d0 eb        	bne	$6f4 <main+0x387>
     709: a2 56        	ldx	#$56
     70b: a0 00        	ldy	#$0
     70d: 86 fb        	stx	$fb                     ; 0xfb <__rc31+0xcc>
     70f: 84 fc        	sty	$fc                     ; 0xfc <__rc31+0xcd>
     711: a2 08        	ldx	#$8
     713: 86 fd        	stx	$fd                     ; 0xfd <__rc31+0xce>
     715: a2 5e        	ldx	#$5e
     717: a0 00        	ldy	#$0
     719: 86 12        	stx	$12                     ; 0x12 <__rc2>
     71b: 84 13        	sty	$13                     ; 0x13 <__rc3>
     71d: a2 89        	ldx	#$89
     71f: 86 14        	stx	$14                     ; 0x14 <__rc4>
     721: a2 0b        	ldx	#$b
     723: 86 15        	stx	$15                     ; 0x15 <__rc5>
     725: 20 dc ff     	jsr	$ffdc <end_block9+0xf452>
     728: 92 12        	sta	($12)                   ; 0x12 <__rc2>
     72a: a9 00        	lda	#$0
     72c: 6a           	ror
     72d: 85 14        	sta	$14                     ; 0x14 <__rc4>
     72f: a6 5c        	ldx	$5c                     ; 0x5c <__rc31+0x2d>
     731: a4 5d        	ldy	$5d                     ; 0x5d <__rc31+0x2e>
     733: 8e 00 de     	stx	$de00                   ; 0xde00 <end_block9+0xd276>
     736: 9c 01 de     	stz	$de01                   ; 0xde01 <end_block9+0xd277>
     739: 8c 02 de     	sty	$de02                   ; 0xde02 <end_block9+0xd278>
     73c: 9c 03 de     	stz	$de03                   ; 0xde03 <end_block9+0xd279>
     73f: ae 10 de     	ldx	$de10                   ; 0xde10 <end_block9+0xd286>
     742: ac 11 de     	ldy	$de11                   ; 0xde11 <end_block9+0xd287>
     745: ad 12 de     	lda	$de12                   ; 0xde12 <end_block9+0xd288>
     748: ad 13 de     	lda	$de13                   ; 0xde13 <end_block9+0xd289>
     74b: 8e a4 d6     	stx	$d6a4                   ; 0xd6a4 <end_block9+0xcb1a>
     74e: 8c a5 d6     	sty	$d6a5                   ; 0xd6a5 <end_block9+0xcb1b>
     751: a2 03        	ldx	#$3
     753: 8e a6 d6     	stx	$d6a6                   ; 0xd6a6 <end_block9+0xcb1c>
     756: a0 20        	ldy	#$20
     758: 8c 80 d5     	sty	$d580                   ; 0xd580 <end_block9+0xc9f6>
     75b: a2 01        	ldx	#$1
     75d: 8e 81 d5     	stx	$d581                   ; 0xd581 <end_block9+0xc9f7>
     760: a0 40        	ldy	#$40
     762: 8c 80 d5     	sty	$d580                   ; 0xd580 <end_block9+0xc9f6>
     765: a0 ff        	ldy	#$ff
     767: 8c 81 d5     	sty	$d581                   ; 0xd581 <end_block9+0xc9f7>
     76a: a9 60        	lda	#$60
     76c: 8d 80 d5     	sta	$d580                   ; 0xd580 <end_block9+0xc9f6>
     76f: 8c 81 d5     	sty	$d581                   ; 0xd581 <end_block9+0xc9f7>
     772: a9 80        	lda	#$80
     774: 8d 80 d5     	sta	$d580                   ; 0xd580 <end_block9+0xc9f6>
     777: 8c 81 d5     	sty	$d581                   ; 0xd581 <end_block9+0xc9f7>
     77a: a0 e0        	ldy	#$e0
     77c: 8c 80 d5     	sty	$d580                   ; 0xd580 <end_block9+0xc9f6>
     77f: 9c 81 d5     	stz	$d581                   ; 0xd581 <end_block9+0xc9f7>
     782: a0 23        	ldy	#$23
     784: 8c 80 d5     	sty	$d580                   ; 0xd580 <end_block9+0xc9f6>
     787: 8e 81 d5     	stx	$d581                   ; 0xd581 <end_block9+0xc9f7>
     78a: a2 43        	ldx	#$43
     78c: 8e 80 d5     	stx	$d580                   ; 0xd580 <end_block9+0xc9f6>
     78f: 9c 81 d5     	stz	$d581                   ; 0xd581 <end_block9+0xc9f7>
     792: a2 63        	ldx	#$63
     794: 8e 80 d5     	stx	$d580                   ; 0xd580 <end_block9+0xc9f6>
     797: a2 f5        	ldx	#$f5
     799: 8e 81 d5     	stx	$d581                   ; 0xd581 <end_block9+0xc9f7>
     79c: a2 83        	ldx	#$83
     79e: 8e 80 d5     	stx	$d580                   ; 0xd580 <end_block9+0xc9f6>
     7a1: a2 75        	ldx	#$75
     7a3: 8e 81 d5     	stx	$d581                   ; 0xd581 <end_block9+0xc9f7>
     7a6: a2 e3        	ldx	#$e3
     7a8: 8e 80 d5     	stx	$d580                   ; 0xd580 <end_block9+0xc9f6>
     7ab: 9c 81 d5     	stz	$d581                   ; 0xd581 <end_block9+0xc9f7>
     7ae: a2 c0        	ldx	#$c0
     7b0: 8e 80 d5     	stx	$d580                   ; 0xd580 <end_block9+0xc9f6>
     7b3: a2 3c        	ldx	#$3c
     7b5: 8e 81 d5     	stx	$d581                   ; 0xd581 <end_block9+0xc9f7>
     7b8: a2 a0        	ldx	#$a0
     7ba: 86 2c        	stx	$2c                     ; 0x2c <__rc28>
     7bc: a2 b0        	ldx	#$b0
     7be: 86 2d        	stx	$2d                     ; 0x2d <__rc29>
     7c0: a2 54        	ldx	#$54
     7c2: a0 00        	ldy	#$0
     7c4: 86 24        	stx	$24                     ; 0x24 <__rc20>
     7c6: 84 25        	sty	$25                     ; 0x25 <__rc21>
     7c8: a2 53        	ldx	#$53
     7ca: 86 26        	stx	$26                     ; 0x26 <__rc22>
     7cc: a2 00        	ldx	#$0
     7ce: 86 27        	stx	$27                     ; 0x27 <__rc23>
     7d0: a2 55        	ldx	#$55
     7d2: 86 28        	stx	$28                     ; 0x28 <__rc24>
     7d4: a2 00        	ldx	#$0
     7d6: 86 29        	stx	$29                     ; 0x29 <__rc25>
     7d8: a2 2d        	ldx	#$2d
     7da: 86 2a        	stx	$2a                     ; 0x2a <__rc26>
     7dc: a2 3d        	ldx	#$3d
     7de: 86 2b        	stx	$2b                     ; 0x2b <__rc27>
     7e0: a9 00        	lda	#$0
     7e2: 85 13        	sta	$13                     ; 0x13 <__rc3>
     7e4: 0a           	asl
     7e5: 0a           	asl
     7e6: 85 12        	sta	$12                     ; 0x12 <__rc2>
     7e8: a9 00        	lda	#$0
     7ea: aa           	tax
     7eb: a4 2c        	ldy	$2c                     ; 0x2c <__rc28>
     7ed: 86 17        	stx	$17                     ; 0x17 <__rc7>
     7ef: 85 16        	sta	$16                     ; 0x16 <__rc6>
     7f1: aa           	tax
     7f2: b5 30        	lda	$30,x                   ; 0x30 <opl3_fnums>
     7f4: 85 14        	sta	$14                     ; 0x14 <__rc4>
     7f6: b5 31        	lda	$31,x                   ; 0x31 <opl3_fnums+0x1>
     7f8: 8c 80 d5     	sty	$d580                   ; 0xd580 <end_block9+0xc9f6>
     7fb: a6 14        	ldx	$14                     ; 0x14 <__rc4>
     7fd: 86 19        	stx	$19                     ; 0x19 <__rc9>
     7ff: 8e 81 d5     	stx	$d581                   ; 0xd581 <end_block9+0xc9f7>
     802: 29 03        	and	#$3
     804: 05 12        	ora	$12                     ; 0x12 <__rc2>
     806: 85 18        	sta	$18                     ; 0x18 <__zp_data_size>
     808: 09 20        	ora	#$20
     80a: a6 2d        	ldx	$2d                     ; 0x2d <__rc29>
     80c: 8e 80 d5     	stx	$d580                   ; 0xd580 <end_block9+0xc9f6>
     80f: 8d 81 d5     	sta	$d581                   ; 0xd581 <end_block9+0xc9f7>
     812: a2 80        	ldx	#$80
     814: 86 f3        	stx	$f3                     ; 0xf3 <__rc31+0xc4>
     816: a2 89        	ldx	#$89
     818: 86 14        	stx	$14                     ; 0x14 <__rc4>
     81a: a2 0b        	ldx	#$b
     81c: 86 15        	stx	$15                     ; 0x15 <__rc5>
     81e: 20 f0 ff     	jsr	$fff0 <end_block9+0xf466>
     821: 92 24        	sta	($24)                   ; 0x24 <__rc20>
     823: a9 00        	lda	#$0
     825: 6a           	ror
     826: 85 14        	sta	$14                     ; 0x14 <__rc4>
     828: a9 02        	lda	#$2
     82a: 18           	clc
     82b: 65 54        	adc	$54                     ; 0x54 <__rc31+0x25>
     82d: 64 f3        	stz	$f3                     ; 0xf3 <__rc31+0xc4>
     82f: 85 f4        	sta	$f4                     ; 0xf4 <__rc31+0xc5>
     831: a2 d5        	ldx	#$d5
     833: 86 f5        	stx	$f5                     ; 0xf5 <__rc31+0xc6>
     835: 20 f0 ff     	jsr	$fff0 <end_block9+0xf466>
     838: 92 26        	sta	($26)                   ; 0x26 <__rc22>
     83a: a9 00        	lda	#$0
     83c: 6a           	ror
     83d: 85 14        	sta	$14                     ; 0x14 <__rc4>
     83f: 64 48        	stz	$48                     ; 0x48 <kernelEventData>
     841: 20 00 ff     	jsr	$ff00 <end_block9+0xf376>
     844: 92 28        	sta	($28)                   ; 0x28 <__rc24>
     846: a9 00        	lda	#$0
     848: 6a           	ror
     849: 85 14        	sta	$14                     ; 0x14 <__rc4>
     84b: a6 48        	ldx	$48                     ; 0x48 <kernelEventData>
     84d: e0 52        	cpx	#$52
     84f: d0 ee        	bne	$83f <main+0x4d2>
     851: a6 4c        	ldx	$4c                     ; 0x4c <kernelEventData+0x4>
     853: e0 d5        	cpx	#$d5
     855: d0 e8        	bne	$83f <main+0x4d2>
     857: a0 a0        	ldy	#$a0
     859: 8c 80 d5     	sty	$d580                   ; 0xd580 <end_block9+0xc9f6>
     85c: a6 19        	ldx	$19                     ; 0x19 <__rc9>
     85e: 8e 81 d5     	stx	$d581                   ; 0xd581 <end_block9+0xc9f7>
     861: a2 b0        	ldx	#$b0
     863: 86 2d        	stx	$2d                     ; 0x2d <__rc29>
     865: 8e 80 d5     	stx	$d580                   ; 0xd580 <end_block9+0xc9f6>
     868: a6 18        	ldx	$18                     ; 0x18 <__zp_data_size>
     86a: 8e 81 d5     	stx	$d581                   ; 0xd581 <end_block9+0xc9f7>
     86d: a6 17        	ldx	$17                     ; 0x17 <__rc7>
     86f: e8           	inx
     870: 18           	clc
     871: a5 16        	lda	$16                     ; 0x16 <__rc6>
     873: 69 02        	adc	#$2
     875: e0 0c        	cpx	#$c
     877: f0 03        	beq	$87c <main+0x50f>
     879: 4c ed 07     	jmp	$7ed <main+0x480>
     87c: a2 b0        	ldx	#$b0
     87e: 86 2d        	stx	$2d                     ; 0x2d <__rc29>
     880: a2 a0        	ldx	#$a0
     882: 86 2c        	stx	$2c                     ; 0x2c <__rc28>
     884: a5 13        	lda	$13                     ; 0x13 <__rc3>
     886: 1a           	inc
     887: c9 08        	cmp	#$8
     889: f0 03        	beq	$88e <main+0x521>
     88b: 4c e2 07     	jmp	$7e2 <main+0x475>
     88e: a2 00        	ldx	#$0
     890: a4 2a        	ldy	$2a                     ; 0x2a <__rc26>
     892: 84 2e        	sty	$2e                     ; 0x2e <__rc30>
     894: a5 2a        	lda	$2a                     ; 0x2a <__rc26>
     896: 20 0a 09     	jsr	$90a <putchar>
     899: a2 00        	ldx	#$0
     89b: a5 2b        	lda	$2b                     ; 0x2b <__rc27>
     89d: 20 0a 09     	jsr	$90a <putchar>
     8a0: a2 00        	ldx	#$0
     8a2: a5 2a        	lda	$2a                     ; 0x2a <__rc26>
     8a4: 20 0a 09     	jsr	$90a <putchar>
     8a7: a2 00        	ldx	#$0
     8a9: a0 20        	ldy	#$20
     8ab: 84 2a        	sty	$2a                     ; 0x2a <__rc26>
     8ad: 98           	tya
     8ae: 20 0a 09     	jsr	$90a <putchar>
     8b1: a2 00        	ldx	#$0
     8b3: a9 41        	lda	#$41
     8b5: 20 0a 09     	jsr	$90a <putchar>
     8b8: a2 00        	ldx	#$0
     8ba: a9 4c        	lda	#$4c
     8bc: 20 0a 09     	jsr	$90a <putchar>
     8bf: a2 00        	ldx	#$0
     8c1: a9 45        	lda	#$45
     8c3: 20 0a 09     	jsr	$90a <putchar>
     8c6: a2 00        	ldx	#$0
     8c8: a9 52        	lda	#$52
     8ca: 20 0a 09     	jsr	$90a <putchar>
     8cd: a2 00        	ldx	#$0
     8cf: a9 54        	lda	#$54
     8d1: 20 0a 09     	jsr	$90a <putchar>
     8d4: a2 00        	ldx	#$0
     8d6: a9 21        	lda	#$21
     8d8: 20 0a 09     	jsr	$90a <putchar>
     8db: a2 00        	ldx	#$0
     8dd: a5 2a        	lda	$2a                     ; 0x2a <__rc26>
     8df: 20 0a 09     	jsr	$90a <putchar>
     8e2: a2 00        	ldx	#$0
     8e4: a5 2e        	lda	$2e                     ; 0x2e <__rc30>
     8e6: 20 0a 09     	jsr	$90a <putchar>
     8e9: a2 00        	ldx	#$0
     8eb: a5 2b        	lda	$2b                     ; 0x2b <__rc27>
     8ed: 20 0a 09     	jsr	$90a <putchar>
     8f0: a2 00        	ldx	#$0
     8f2: a4 2e        	ldy	$2e                     ; 0x2e <__rc30>
     8f4: 84 2a        	sty	$2a                     ; 0x2a <__rc26>
     8f6: a5 2e        	lda	$2e                     ; 0x2e <__rc30>
     8f8: 20 0a 09     	jsr	$90a <putchar>
     8fb: a2 00        	ldx	#$0
     8fd: a9 0a        	lda	#$a
     8ff: 20 0a 09     	jsr	$90a <putchar>
     902: 4c e0 07     	jmp	$7e0 <main+0x473>

00000905 <exit>:
     905: 20 2f 03     	jsr	$32f <_fini>
     908: 80 fe        	bra	$908 <exit+0x3>

0000090a <putchar>:
     90a: 86 12        	stx	$12                     ; 0x12 <__rc2>
     90c: 85 5f        	sta	$5f                     ; 0x5f <__rc31+0x30>
     90e: 85 51        	sta	$51                     ; 0x51 <__putchar.s>
     910: a6 01        	ldx	$1                      ; 0x1 <__bss_size>
     912: 86 60        	stx	$60                     ; 0x60 <__rc31+0x31>
     914: a6 50        	ldx	$50                     ; 0x50 <_row>
     916: a0 50        	ldy	#$50
     918: 8c 00 de     	sty	$de00                   ; 0xde00 <end_block9+0xd276>
     91b: 9c 01 de     	stz	$de01                   ; 0xde01 <end_block9+0xd277>
     91e: 8e 02 de     	stx	$de02                   ; 0xde02 <end_block9+0xd278>
     921: 9c 03 de     	stz	$de03                   ; 0xde03 <end_block9+0xd279>
     924: ae 10 de     	ldx	$de10                   ; 0xde10 <end_block9+0xd286>
     927: 86 13        	stx	$13                     ; 0x13 <__rc3>
     929: ad 11 de     	lda	$de11                   ; 0xde11 <end_block9+0xd287>
     92c: ae 12 de     	ldx	$de12                   ; 0xde12 <end_block9+0xd288>
     92f: 86 1a        	stx	$1a                     ; 0x1a <__rc10>
     931: ae 13 de     	ldx	$de13                   ; 0xde13 <end_block9+0xd289>
     934: 86 1b        	stx	$1b                     ; 0x1b <__rc11>
     936: 9c 08 de     	stz	$de08                   ; 0xde08 <end_block9+0xd27e>
     939: a2 c0        	ldx	#$c0
     93b: 8e 09 de     	stx	$de09                   ; 0xde09 <end_block9+0xd27f>
     93e: 9c 0a de     	stz	$de0a                   ; 0xde0a <end_block9+0xd280>
     941: 9c 0b de     	stz	$de0b                   ; 0xde0b <end_block9+0xd281>
     944: a6 13        	ldx	$13                     ; 0x13 <__rc3>
     946: 8e 0c de     	stx	$de0c                   ; 0xde0c <end_block9+0xd282>
     949: 8d 0d de     	sta	$de0d                   ; 0xde0d <end_block9+0xd283>
     94c: 64 13        	stz	$13                     ; 0x13 <__rc3>
     94e: a2 00        	ldx	#$0
     950: 86 14        	stx	$14                     ; 0x14 <__rc4>
     952: a2 c0        	ldx	#$c0
     954: 86 15        	stx	$15                     ; 0x15 <__rc5>
     956: a2 11        	ldx	#$11
     958: 86 16        	stx	$16                     ; 0x16 <__rc6>
     95a: a2 c9        	ldx	#$c9
     95c: 86 17        	stx	$17                     ; 0x17 <__rc7>
     95e: a2 10        	ldx	#$10
     960: 86 18        	stx	$18                     ; 0x18 <__zp_data_size>
     962: a2 c9        	ldx	#$c9
     964: 86 19        	stx	$19                     ; 0x19 <__rc9>
     966: a6 1a        	ldx	$1a                     ; 0x1a <__rc10>
     968: 8e 0e de     	stx	$de0e                   ; 0xde0e <end_block9+0xd284>
     96b: a6 1b        	ldx	$1b                     ; 0x1b <__rc11>
     96d: 8e 0f de     	stx	$de0f                   ; 0xde0f <end_block9+0xd285>
     970: ae 18 de     	ldx	$de18                   ; 0xde18 <end_block9+0xd28e>
     973: 86 1c        	stx	$1c                     ; 0x1c <__rc12>
     975: ad 19 de     	lda	$de19                   ; 0xde19 <end_block9+0xd28f>
     978: ae 1a de     	ldx	$de1a                   ; 0xde1a <end_block9+0xd290>
     97b: ae 1b de     	ldx	$de1b                   ; 0xde1b <end_block9+0xd291>
     97e: 85 1d        	sta	$1d                     ; 0x1d <__rc13>
     980: 64 1a        	stz	$1a                     ; 0x1a <__rc10>
     982: a2 f0        	ldx	#$f0
     984: 86 61        	stx	$61                     ; 0x61 <__rc31+0x32>
     986: a2 20        	ldx	#$20
     988: 86 62        	stx	$62                     ; 0x62 <__rc31+0x33>
     98a: 80 13        	bra	$99f <putchar+0x95>
     98c: a5 1c        	lda	$1c                     ; 0x1c <__rc12>
     98e: 18           	clc
     98f: 69 50        	adc	#$50
     991: 85 1c        	sta	$1c                     ; 0x1c <__rc12>
     993: a5 1d        	lda	$1d                     ; 0x1d <__rc13>
     995: 69 00        	adc	#$0
     997: 85 1d        	sta	$1d                     ; 0x1d <__rc13>
     999: e6 13        	inc	$13                     ; 0x13 <__rc3>
     99b: d0 02        	bne	$99f <putchar+0x95>
     99d: e6 1a        	inc	$1a                     ; 0x1a <__rc10>
     99f: a9 51        	lda	#$51
     9a1: 18           	clc
     9a2: 65 13        	adc	$13                     ; 0x13 <__rc3>
     9a4: 85 1e        	sta	$1e                     ; 0x1e <__rc14>
     9a6: a9 00        	lda	#$0
     9a8: 65 1a        	adc	$1a                     ; 0x1a <__rc10>
     9aa: 85 1f        	sta	$1f                     ; 0x1f <__rc15>
     9ac: b2 1e        	lda	($1e)                   ; 0x1e <__rc14>
     9ae: c9 0a        	cmp	#$a
     9b0: f0 2e        	beq	$9e0 <putchar+0xd6>
     9b2: c9 0d        	cmp	#$d
     9b4: f0 2a        	beq	$9e0 <putchar+0xd6>
     9b6: aa           	tax
     9b7: d0 03        	bne	$9bc <putchar+0xb2>
     9b9: 4c f2 0a     	jmp	$af2 <putchar+0x1e8>
     9bc: a2 03        	ldx	#$3
     9be: 86 01        	stx	$1                      ; 0x1 <__bss_size>
     9c0: 84 1b        	sty	$1b                     ; 0x1b <__rc11>
     9c2: a4 4f        	ldy	$4f                     ; 0x4f <_col>
     9c4: a9 f0        	lda	#$f0
     9c6: aa           	tax
     9c7: 86 61        	stx	$61                     ; 0x61 <__rc31+0x32>
     9c9: 91 1c        	sta	($1c),y                 ; 0x1c <__rc12>
     9cb: a2 02        	ldx	#$2
     9cd: 86 01        	stx	$1                      ; 0x1 <__bss_size>
     9cf: b2 1e        	lda	($1e)                   ; 0x1e <__rc14>
     9d1: a4 4f        	ldy	$4f                     ; 0x4f <_col>
     9d3: 91 1c        	sta	($1c),y                 ; 0x1c <__rc12>
     9d5: a4 1b        	ldy	$1b                     ; 0x1b <__rc11>
     9d7: a6 4f        	ldx	$4f                     ; 0x4f <_col>
     9d9: e8           	inx
     9da: e6 4f        	inc	$4f                     ; 0x4f <_col>
     9dc: e0 50        	cpx	#$50
     9de: d0 b9        	bne	$999 <putchar+0x8f>
     9e0: 64 4f        	stz	$4f                     ; 0x4f <_col>
     9e2: a6 50        	ldx	$50                     ; 0x50 <_row>
     9e4: e8           	inx
     9e5: e6 50        	inc	$50                     ; 0x50 <_row>
     9e7: e0 1e        	cpx	#$1e
     9e9: f0 03        	beq	$9ee <putchar+0xe4>
     9eb: 4c 8c 09     	jmp	$98c <putchar+0x82>
     9ee: a2 03        	ldx	#$3
     9f0: 86 01        	stx	$1                      ; 0x1 <__bss_size>
     9f2: a2 09        	ldx	#$9
     9f4: a9 10        	lda	#$10
     9f6: 5a           	phy
     9f7: a0 00        	ldy	#$0
     9f9: 84 1c        	sty	$1c                     ; 0x1c <__rc12>
     9fb: a0 c0        	ldy	#$c0
     9fd: 84 1d        	sty	$1d                     ; 0x1d <__rc13>
     9ff: 7a           	ply
     a00: 85 1b        	sta	$1b                     ; 0x1b <__rc11>
     a02: b1 1c        	lda	($1c),y                 ; 0x1c <__rc12>
     a04: 92 1c        	sta	($1c)                   ; 0x1c <__rc12>
     a06: a9 ff        	lda	#$ff
     a08: c6 1b        	dec	$1b                     ; 0x1b <__rc11>
     a0a: c5 1b        	cmp	$1b                     ; 0x1b <__rc11>
     a0c: d0 01        	bne	$a0f <putchar+0x105>
     a0e: ca           	dex
     a0f: e6 1c        	inc	$1c                     ; 0x1c <__rc12>
     a11: d0 02        	bne	$a15 <putchar+0x10b>
     a13: e6 1d        	inc	$1d                     ; 0x1d <__rc13>
     a15: 8a           	txa
     a16: d0 ea        	bne	$a02 <putchar+0xf8>
     a18: a5 1b        	lda	$1b                     ; 0x1b <__rc11>
     a1a: d0 e6        	bne	$a02 <putchar+0xf8>
     a1c: a2 02        	ldx	#$2
     a1e: 86 01        	stx	$1                      ; 0x1 <__bss_size>
     a20: a2 09        	ldx	#$9
     a22: a9 10        	lda	#$10
     a24: 5a           	phy
     a25: a0 00        	ldy	#$0
     a27: 84 1c        	sty	$1c                     ; 0x1c <__rc12>
     a29: a0 c0        	ldy	#$c0
     a2b: 84 1d        	sty	$1d                     ; 0x1d <__rc13>
     a2d: 7a           	ply
     a2e: 85 1b        	sta	$1b                     ; 0x1b <__rc11>
     a30: b1 1c        	lda	($1c),y                 ; 0x1c <__rc12>
     a32: 92 1c        	sta	($1c)                   ; 0x1c <__rc12>
     a34: a9 ff        	lda	#$ff
     a36: c6 1b        	dec	$1b                     ; 0x1b <__rc11>
     a38: c5 1b        	cmp	$1b                     ; 0x1b <__rc11>
     a3a: d0 01        	bne	$a3d <putchar+0x133>
     a3c: ca           	dex
     a3d: e6 1c        	inc	$1c                     ; 0x1c <__rc12>
     a3f: d0 02        	bne	$a43 <putchar+0x139>
     a41: e6 1d        	inc	$1d                     ; 0x1d <__rc13>
     a43: 8a           	txa
     a44: d0 ea        	bne	$a30 <putchar+0x126>
     a46: a5 1b        	lda	$1b                     ; 0x1b <__rc11>
     a48: d0 e6        	bne	$a30 <putchar+0x126>
     a4a: a2 50        	ldx	#$50
     a4c: 86 1b        	stx	$1b                     ; 0x1b <__rc11>
     a4e: a2 02        	ldx	#$2
     a50: 86 01        	stx	$1                      ; 0x1 <__bss_size>
     a52: e8           	inx
     a53: 86 01        	stx	$1                      ; 0x1 <__bss_size>
     a55: a2 50        	ldx	#$50
     a57: a0 11        	ldy	#$11
     a59: 84 1c        	sty	$1c                     ; 0x1c <__rc12>
     a5b: a0 c9        	ldy	#$c9
     a5d: 84 1d        	sty	$1d                     ; 0x1d <__rc13>
     a5f: a0 10        	ldy	#$10
     a61: 84 1e        	sty	$1e                     ; 0x1e <__rc14>
     a63: a0 c9        	ldy	#$c9
     a65: 84 1f        	sty	$1f                     ; 0x1f <__rc15>
     a67: a5 61        	lda	$61                     ; 0x61 <__rc31+0x32>
     a69: a4 1e        	ldy	$1e                     ; 0x1e <__rc14>
     a6b: 84 22        	sty	$22                     ; 0x22 <__rc18>
     a6d: a4 1f        	ldy	$1f                     ; 0x1f <__rc15>
     a6f: 84 23        	sty	$23                     ; 0x23 <__rc19>
     a71: a4 1c        	ldy	$1c                     ; 0x1c <__rc12>
     a73: 84 1e        	sty	$1e                     ; 0x1e <__rc14>
     a75: a4 1d        	ldy	$1d                     ; 0x1d <__rc13>
     a77: 84 1f        	sty	$1f                     ; 0x1f <__rc15>
     a79: 92 22        	sta	($22)                   ; 0x22 <__rc18>
     a7b: e6 1c        	inc	$1c                     ; 0x1c <__rc12>
     a7d: d0 02        	bne	$a81 <putchar+0x177>
     a7f: e6 1d        	inc	$1d                     ; 0x1d <__rc13>
     a81: ca           	dex
     a82: d0 e5        	bne	$a69 <putchar+0x15f>
     a84: a2 f0        	ldx	#$f0
     a86: 86 61        	stx	$61                     ; 0x61 <__rc31+0x32>
     a88: a2 02        	ldx	#$2
     a8a: 86 01        	stx	$1                      ; 0x1 <__bss_size>
     a8c: a2 50        	ldx	#$50
     a8e: a0 11        	ldy	#$11
     a90: 84 1c        	sty	$1c                     ; 0x1c <__rc12>
     a92: a0 c9        	ldy	#$c9
     a94: 84 1d        	sty	$1d                     ; 0x1d <__rc13>
     a96: a0 10        	ldy	#$10
     a98: 84 1e        	sty	$1e                     ; 0x1e <__rc14>
     a9a: a0 c9        	ldy	#$c9
     a9c: 84 1f        	sty	$1f                     ; 0x1f <__rc15>
     a9e: a5 62        	lda	$62                     ; 0x62 <__rc31+0x33>
     aa0: a4 1e        	ldy	$1e                     ; 0x1e <__rc14>
     aa2: 84 22        	sty	$22                     ; 0x22 <__rc18>
     aa4: a4 1f        	ldy	$1f                     ; 0x1f <__rc15>
     aa6: 84 23        	sty	$23                     ; 0x23 <__rc19>
     aa8: a4 1c        	ldy	$1c                     ; 0x1c <__rc12>
     aaa: 84 1e        	sty	$1e                     ; 0x1e <__rc14>
     aac: a4 1d        	ldy	$1d                     ; 0x1d <__rc13>
     aae: 84 1f        	sty	$1f                     ; 0x1f <__rc15>
     ab0: 92 22        	sta	($22)                   ; 0x22 <__rc18>
     ab2: e6 1c        	inc	$1c                     ; 0x1c <__rc12>
     ab4: d0 02        	bne	$ab8 <putchar+0x1ae>
     ab6: e6 1d        	inc	$1d                     ; 0x1d <__rc13>
     ab8: ca           	dex
     ab9: d0 e5        	bne	$aa0 <putchar+0x196>
     abb: a2 20        	ldx	#$20
     abd: 86 62        	stx	$62                     ; 0x62 <__rc31+0x33>
     abf: c6 50        	dec	$50                     ; 0x50 <_row>
     ac1: 9c 08 de     	stz	$de08                   ; 0xde08 <end_block9+0xd27e>
     ac4: a2 c0        	ldx	#$c0
     ac6: 8e 09 de     	stx	$de09                   ; 0xde09 <end_block9+0xd27f>
     ac9: 9c 0a de     	stz	$de0a                   ; 0xde0a <end_block9+0xd280>
     acc: 9c 0b de     	stz	$de0b                   ; 0xde0b <end_block9+0xd281>
     acf: a2 1d        	ldx	#$1d
     ad1: 8e 0c de     	stx	$de0c                   ; 0xde0c <end_block9+0xd282>
     ad4: 9c 0d de     	stz	$de0d                   ; 0xde0d <end_block9+0xd283>
     ad7: 9c 0e de     	stz	$de0e                   ; 0xde0e <end_block9+0xd284>
     ada: 9c 0f de     	stz	$de0f                   ; 0xde0f <end_block9+0xd285>
     add: ae 18 de     	ldx	$de18                   ; 0xde18 <end_block9+0xd28e>
     ae0: ac 19 de     	ldy	$de19                   ; 0xde19 <end_block9+0xd28f>
     ae3: ad 1a de     	lda	$de1a                   ; 0xde1a <end_block9+0xd290>
     ae6: ad 1b de     	lda	$de1b                   ; 0xde1b <end_block9+0xd291>
     ae9: 86 1c        	stx	$1c                     ; 0x1c <__rc12>
     aeb: 84 1d        	sty	$1d                     ; 0x1d <__rc13>
     aed: a4 1b        	ldy	$1b                     ; 0x1b <__rc11>
     aef: 4c 99 09     	jmp	$999 <putchar+0x8f>
     af2: a6 60        	ldx	$60                     ; 0x60 <__rc31+0x31>
     af4: 86 01        	stx	$1                      ; 0x1 <__bss_size>
     af6: a6 4f        	ldx	$4f                     ; 0x4f <_col>
     af8: a4 50        	ldy	$50                     ; 0x50 <_row>
     afa: 8e 14 d0     	stx	$d014                   ; 0xd014 <end_block9+0xc48a>
     afd: 9c 15 d0     	stz	$d015                   ; 0xd015 <end_block9+0xc48b>
     b00: 84 50        	sty	$50                     ; 0x50 <_row>
     b02: 8c 16 d0     	sty	$d016                   ; 0xd016 <end_block9+0xc48c>
     b05: 9c 17 d0     	stz	$d017                   ; 0xd017 <end_block9+0xc48d>
     b08: a6 12        	ldx	$12                     ; 0x12 <__rc2>
     b0a: a5 5f        	lda	$5f                     ; 0x5f <__rc31+0x30>
     b0c: 60           	rts

00000b0d <memcpy>:
     b0d: a8           	tay
     b0e: 8a           	txa
     b0f: d0 03        	bne	$b14 <memcpy+0x7>
     b11: 98           	tya
     b12: f0 24        	beq	$b38 <memcpy+0x2b>
     b14: a5 12        	lda	$12                     ; 0x12 <__rc2>
     b16: 85 16        	sta	$16                     ; 0x16 <__rc6>
     b18: a5 13        	lda	$13                     ; 0x13 <__rc3>
     b1a: 85 17        	sta	$17                     ; 0x17 <__rc7>
     b1c: b2 14        	lda	($14)                   ; 0x14 <__rc4>
     b1e: 92 16        	sta	($16)                   ; 0x16 <__rc6>
     b20: e6 16        	inc	$16                     ; 0x16 <__rc6>
     b22: d0 02        	bne	$b26 <memcpy+0x19>
     b24: e6 17        	inc	$17                     ; 0x17 <__rc7>
     b26: e6 14        	inc	$14                     ; 0x14 <__rc4>
     b28: d0 02        	bne	$b2c <memcpy+0x1f>
     b2a: e6 15        	inc	$15                     ; 0x15 <__rc5>
     b2c: 88           	dey
     b2d: c0 ff        	cpy	#$ff
     b2f: d0 01        	bne	$b32 <memcpy+0x25>
     b31: ca           	dex
     b32: 8a           	txa
     b33: d0 e7        	bne	$b1c <memcpy+0xf>
     b35: 98           	tya
     b36: d0 e4        	bne	$b1c <memcpy+0xf>
     b38: 60           	rts

00000b39 <__memset>:
     b39: a4 14        	ldy	$14                     ; 0x14 <__rc4>
     b3b: d0 04        	bne	$b41 <__memset+0x8>
     b3d: e0 00        	cpx	#$0
     b3f: f0 17        	beq	$b58 <__memset+0x1f>
     b41: 92 12        	sta	($12)                   ; 0x12 <__rc2>
     b43: e6 12        	inc	$12                     ; 0x12 <__rc2>
     b45: d0 02        	bne	$b49 <__memset+0x10>
     b47: e6 13        	inc	$13                     ; 0x13 <__rc3>
     b49: ca           	dex
     b4a: e0 ff        	cpx	#$ff
     b4c: d0 02        	bne	$b50 <__memset+0x17>
     b4e: c6 14        	dec	$14                     ; 0x14 <__rc4>
     b50: a4 14        	ldy	$14                     ; 0x14 <__rc4>
     b52: d0 ed        	bne	$b41 <__memset+0x8>
     b54: e0 00        	cpx	#$0
     b56: d0 e9        	bne	$b41 <__memset+0x8>
     b58: 60           	rts
