
gfxDemo.elf:	file format elf32-mos

SYMBOL TABLE:
00000000 l    df *ABS*	00000000 zero-bss.c
00000000 l    df *ABS*	00000000 zero-zp-bss.c
00000000 l    df *ABS*	00000000 copy-zp-data.c
00000000 l    df *ABS*	00000000 ld-temp.o
000003de l     F .text	0000017c f256Init
000000b9 l     O .zp.bss	00000002 kernelArgs
000000dd l     O .zp.bss	00000007 kernelEventData
0000055a l     F .text	0000018a textReset
000006e4 l     F .text	0000016d bitmapReset
000000c1 l     O .zp.bss	00000003 _tileSize
00001ea1 l     O .bss	00000040 _spriteCtl
000000c4 l     O .zp.bss	00000008 _dirStream
000000dc l     O .zp.bss	00000001 kernelError
00000062 l     O .zp.data	00000001 _ccolor
00000060 l     O .zp.data	00000001 _MAX_COL
00000061 l     O .zp.data	00000001 _MAX_ROW
00000030 l     O .zp.data	00000030 textColors
000000bb l     O .zp.bss	00000001 _col
000000bc l     O .zp.bss	00000001 _row
00001e9f l     O .bss	00000001 _MAX_X
00001ea0 l     O .bss	00000001 _MAX_Y
000000bd l     O .zp.bss	00000001 _active
00001e9e l     O .bss	00000001 _color
00001e92 l     O .bss	0000000c _BITMAP_BASE
000000be l     O .zp.bss	00000003 _BITMAP_CLUT
00000857 l     F .text	0000013b f256main
00000992 l     F .text	00000a0e setup
000000db l     O .zp.bss	00000001 boost
00001c47 l     F .text	00000032 __mulhi3
000013a0 l     F .text	000002aa dealKey
0000164a l     F .text	000002cc dealTimer
000000d2 l     O .zp.bss	00000003 sprAnim
00001bca l     F .text	00000021 getTimerAbsolute
00001b93 l     F .text	00000037 setTimer
000000d5 l     O .zp.bss	00000003 sprBirdAnim
000000d8 l     O .zp.bss	00000003 tileAnim
00000063 l     O .zp.data	00000050 textFancy
00001916 l     F .text	0000027d textPrint
000000d0 l     O .zp.bss	00000001 mEn
00001e8f l     O .data	00000001 b0
00001e91 l     O .data	00000001 b2
000000cc l     O .zp.bss	00000001 t2
00001e90 l     O .data	00000001 b1
000000d1 l     O .zp.bss	00000001 isSunset
000000b6 l     O .zp.data	00000003 sprBirdFrame
000000b3 l     O .zp.data	00000003 sprFrame
000000cd l     O .zp.bss	00000002 tm2_xf
000000cf l     O .zp.bss	00000001 tm2_x
00001bf9 l     F .text	00000002 _Exit
00000851 g     F .text	00000006 main
00038000 g       .level3	00000000 level3_start
0004b000 g       .sunset	00000000 sunset_start
0004b400 g       .tile3	00000000 tile3_start
00010094 g       .pal	00000000 pal_end
0004b094 g       .sunset	00000000 sunset_end
0004bf00 g       .tile3	00000000 tile3_end
00036c00 g       .level2	00000000 level2_end
00010400 g       .level1	00000000 level1_start
0004b000 g       .bird	00000000 bird_end
00036c00 g       .thing	00000000 thing_start
0004ac00 g       .level3	00000000 level3_end
00010000 g       .pal	00000000 pal_start
00037000 g       .thing	00000000 thing_end
00023400 g       .gpal	00000000 gpal_end
0004ac00 g       .bird	00000000 bird_start
00024000 g       .level2	00000000 level2_start
00023000 g       .gpal	00000000 gpal_start
00023000 g       .level1	00000000 level1_end
0000039d g       .text	00000000 __after_main
00000389 g       .text	00000000 __do_init_stack
00000397 g       .text	00000000 __do_copy_zp_data
000003c7 g     F .text	00000017 __copy_zp_data
00000391 g       .text	00000000 __do_zero_bss
000003a1 g     F .text	00000013 __zero_bss
00000394 g       .text	00000000 __do_zero_zp_bss
000003b4 g     F .text	00000013 __zero_zp_bss
00001beb g     F .text	0000000e exit
000003a0 g       .text	00000000 _fini
00001c27  w    F .text	00000020 __memset
00001000  w      *ABS*	00000000 __heap_default_limit
00001ee2 g       .noinit	00000000 __heap_start
00001bfb  w    F .text	0000002c memcpy
00000010 g       *ABS*	00000000 __rc0
00000012 g       *ABS*	00000000 __rc2
00000014 g       *ABS*	00000000 __rc4
00000016 g       *ABS*	00000000 __rc6
00000018 g       *ABS*	00000000 __rc8
0000001a g       *ABS*	00000000 __rc10
0000001c g       *ABS*	00000000 __rc12
0000001e g       *ABS*	00000000 __rc14
00000020 g       *ABS*	00000000 __rc16
00000022 g       *ABS*	00000000 __rc18
00000024 g       *ABS*	00000000 __rc20
00000026 g       *ABS*	00000000 __rc22
00000028 g       *ABS*	00000000 __rc24
0000002a g       *ABS*	00000000 __rc26
0000002c g       *ABS*	00000000 __rc28
0000002e g       *ABS*	00000000 __rc30
0000002f g       *ABS*	00000000 __rc31
00000300 g       *ABS*	00000000 __f256_start
0000a000 g       *ABS*	00000000 __stack
0000a000 g       *ABS*	00000000 __SLOT_ADDR
0800a000 g       *ABS*	00000000 __block8_lma
00002000 g       *ABS*	00000000 __BLOCK_SIZE
0900a000 g       *ABS*	00000000 __block9_lma
0a00a000 g       *ABS*	00000000 __block10_lma
0b00a000 g       *ABS*	00000000 __block11_lma
0c00a000 g       *ABS*	00000000 __block12_lma
0d00a000 g       *ABS*	00000000 __block13_lma
0e00a000 g       *ABS*	00000000 __block14_lma
0f00a000 g       *ABS*	00000000 __block15_lma
1000a000 g       *ABS*	00000000 __block16_lma
1100a000 g       *ABS*	00000000 __block17_lma
1200a000 g       *ABS*	00000000 __block18_lma
1300a000 g       *ABS*	00000000 __block19_lma
1400a000 g       *ABS*	00000000 __block20_lma
1500a000 g       *ABS*	00000000 __block21_lma
1600a000 g       *ABS*	00000000 __block22_lma
1700a000 g       *ABS*	00000000 __block23_lma
00010000 g       *ABS*	00000000 __pal_lma
00000094 g       *ABS*	00000000 __pal_size
00010400 g       *ABS*	00000000 __level1_lma
00012c00 g       *ABS*	00000000 __level1_size
00023000 g       *ABS*	00000000 __gpal_lma
00000400 g       *ABS*	00000000 __gpal_size
00024000 g       *ABS*	00000000 __level2_lma
00012c00 g       *ABS*	00000000 __level2_size
00036c00 g       *ABS*	00000000 __thing_lma
00000400 g       *ABS*	00000000 __thing_size
00038000 g       *ABS*	00000000 __level3_lma
00012c00 g       *ABS*	00000000 __level3_size
0004ac00 g       *ABS*	00000000 __bird_lma
00000400 g       *ABS*	00000000 __bird_size
0004b000 g       *ABS*	00000000 __sunset_lma
00000094 g       *ABS*	00000000 __sunset_size
0004b400 g       *ABS*	00000000 __tile3_lma
00000b00 g       *ABS*	00000000 __tile3_size
00001e92 g       .bss	00000000 __bss_start
00010094 g       .pal	00000000 end_pal
00023000 g       .level1	00000000 end_level1
00023400 g       .gpal	00000000 end_gpal
00036c00 g       .level2	00000000 end_level2
00037000 g       .thing	00000000 end_thing
0004ac00 g       .level3	00000000 end_level3
0004b000 g       .bird	00000000 end_bird
0004b094 g       .sunset	00000000 end_sunset
0004bf00 g       .tile3	00000000 end_tile3
00000389 g       .text	00000000 _start
0000002d g       *ABS*	00000000 __rc29
0000002b g       *ABS*	00000000 __rc27
00000029 g       *ABS*	00000000 __rc25
00000027 g       *ABS*	00000000 __rc23
00000025 g       *ABS*	00000000 __rc21
00000023 g       *ABS*	00000000 __rc19
00000021 g       *ABS*	00000000 __rc17
0000001f g       *ABS*	00000000 __rc15
0000001d g       *ABS*	00000000 __rc13
0000001b g       *ABS*	00000000 __rc11
00000019 g       *ABS*	00000000 __rc9
00000017 g       *ABS*	00000000 __rc7
00000015 g       *ABS*	00000000 __rc5
00000013 g       *ABS*	00000000 __rc3
00000011 g       *ABS*	00000000 __rc1
00000030 g       .zp.data	00000000 __zp_data_start
00000300 g       *ABS*	00000000 __zp_data_load_start
00000089 g       *ABS*	00000000 __zp_data_size
000000b9 g       .zp.bss	00000000 __zp_bss_start
0000002b g       *ABS*	00000000 __zp_bss_size
00000389 g       .text	00000000 _init
00001c79 g       .text	00000000 __init_array_start
00001c79 g       .text	00000000 __init_array_end
00001c79 g       .text	00000000 __fini_array_start
00001c79 g       .text	00000000 __fini_array_end
00001e8f g       .data	00000000 __data_start
00001e92 g       .data	00000000 __data_end
00001e8f g       *ABS*	00000000 __data_load_start
00000003 g       *ABS*	00000000 __data_size
00001ee1 g       .bss	00000000 __bss_end
0000004f g       *ABS*	00000000 __bss_size
00001ee1 g       .noinit	00000000 end_block8
00001ee1 g       .noinit	00000000 end_block9
00001ee1 g       .noinit	00000000 end_block10
00001ee1 g       .noinit	00000000 end_block11
00001ee1 g       .noinit	00000000 end_block12
00001ee1 g       .noinit	00000000 end_block13
00001ee1 g       .noinit	00000000 end_block14
00001ee1 g       .noinit	00000000 end_block15
00001ee1 g       .noinit	00000000 end_block16
00001ee1 g       .noinit	00000000 end_block17
00001ee1 g       .noinit	00000000 end_block18
00001ee1 g       .noinit	00000000 end_block19
00001ee1 g       .noinit	00000000 end_block20
00001ee1 g       .noinit	00000000 end_block21
00001ee1 g       .noinit	00000000 end_block22
00001ee1 g       .noinit	00000000 end_block23

Disassembly of section .text:

00000389 <_start>:
     389: a9 00        	lda	#$0
     38b: 85 10        	sta	$10                     ; 0x10 <__rc0>
     38d: a9 a0        	lda	#$a0
     38f: 85 11        	sta	$11                     ; 0x11 <__rc1>

00000391 <__do_zero_bss>:
     391: 20 a1 03     	jsr	$3a1 <__zero_bss>

00000394 <__do_zero_zp_bss>:
     394: 20 b4 03     	jsr	$3b4 <__zero_zp_bss>

00000397 <__do_copy_zp_data>:
     397: 20 c7 03     	jsr	$3c7 <__copy_zp_data>
     39a: 20 51 08     	jsr	$851 <main>

0000039d <__after_main>:
     39d: 4c eb 1b     	jmp	$1beb <exit>

000003a0 <_fini>:
     3a0: 60           	rts

000003a1 <__zero_bss>:
     3a1: a2 4f        	ldx	#$4f
     3a3: a0 00        	ldy	#$0
     3a5: a9 92        	lda	#$92
     3a7: 85 12        	sta	$12                     ; 0x12 <__rc2>
     3a9: a9 1e        	lda	#$1e
     3ab: 85 13        	sta	$13                     ; 0x13 <__rc3>
     3ad: a9 00        	lda	#$0
     3af: 84 14        	sty	$14                     ; 0x14 <__rc4>
     3b1: 4c 27 1c     	jmp	$1c27 <__memset>

000003b4 <__zero_zp_bss>:
     3b4: a2 2b        	ldx	#$2b
     3b6: a0 00        	ldy	#$0
     3b8: a9 b9        	lda	#$b9
     3ba: 85 12        	sta	$12                     ; 0x12 <__rc2>
     3bc: a9 00        	lda	#$0
     3be: 85 13        	sta	$13                     ; 0x13 <__rc3>
     3c0: a9 00        	lda	#$0
     3c2: 84 14        	sty	$14                     ; 0x14 <__rc4>
     3c4: 4c 27 1c     	jmp	$1c27 <__memset>

000003c7 <__copy_zp_data>:
     3c7: a9 89        	lda	#$89
     3c9: a2 00        	ldx	#$0
     3cb: a0 30        	ldy	#$30
     3cd: 84 12        	sty	$12                     ; 0x12 <__rc2>
     3cf: a0 00        	ldy	#$0
     3d1: 84 13        	sty	$13                     ; 0x13 <__rc3>
     3d3: a0 00        	ldy	#$0
     3d5: 84 14        	sty	$14                     ; 0x14 <__rc4>
     3d7: a0 03        	ldy	#$3
     3d9: 84 15        	sty	$15                     ; 0x15 <__rc5>
     3db: 4c fb 1b     	jmp	$1bfb <memcpy>

000003de <f256Init>:
     3de: 64 12        	stz	$12                     ; 0x12 <__rc2>
     3e0: 64 01        	stz	$1                      ; 0x1
     3e2: a2 3f        	ldx	#$3f
     3e4: 8e 00 d0     	stx	$d000                   ; 0xd000 <__heap_start+0xb11e>
     3e7: a2 b3        	ldx	#$b3
     3e9: 86 00        	stx	$0                      ; 0x0
     3eb: 64 08        	stz	$8                      ; 0x8 <__data_size+0x5>
     3ed: a2 01        	ldx	#$1
     3ef: 86 09        	stx	$9                      ; 0x9 <__data_size+0x6>
     3f1: e8           	inx
     3f2: 86 0a        	stx	$a                      ; 0xa <__data_size+0x7>
     3f4: e8           	inx
     3f5: 86 0b        	stx	$b                      ; 0xb <__data_size+0x8>
     3f7: e8           	inx
     3f8: 86 0c        	stx	$c                      ; 0xc <__data_size+0x9>
     3fa: e8           	inx
     3fb: 86 0d        	stx	$d                      ; 0xd <__data_size+0xa>
     3fd: a2 f0        	ldx	#$f0
     3ff: 86 b9        	stx	$b9                     ; 0xb9 <kernelArgs>
     401: 64 ba        	stz	$ba                     ; 0xba <kernelArgs+0x1>
     403: a2 dd        	ldx	#$dd
     405: a0 00        	ldy	#$0
     407: 86 f0        	stx	$f0                     ; 0xf0 <__sunset_size+0x5c>
     409: 84 f1        	sty	$f1                     ; 0xf1 <__sunset_size+0x5d>
     40b: a2 00        	ldx	#$0
     40d: 86 16        	stx	$16                     ; 0x16 <__rc6>
     40f: ca           	dex
     410: 86 17        	stx	$17                     ; 0x17 <__rc7>
     412: 8a           	txa
     413: 0a           	asl
     414: 0a           	asl
     415: 18           	clc
     416: 69 d4        	adc	#$d4
     418: 85 18        	sta	$18                     ; 0x18 <__rc8>
     41a: a0 00        	ldy	#$0
     41c: 64 15        	stz	$15                     ; 0x15 <__rc5>
     41e: 64 14        	stz	$14                     ; 0x14 <__rc4>
     420: a6 17        	ldx	$17                     ; 0x17 <__rc7>
     422: e0 03        	cpx	#$3
     424: a6 01        	ldx	$1                      ; 0x1
     426: 86 1a        	stx	$1a                     ; 0x1a <__rc10>
     428: a2 d0        	ldx	#$d0
     42a: 84 19        	sty	$19                     ; 0x19 <__rc9>
     42c: b0 02        	bcs	$430 <f256Init+0x52>
     42e: a6 18        	ldx	$18                     ; 0x18 <__rc8>
     430: 86 13        	stx	$13                     ; 0x13 <__rc3>
     432: a5 15        	lda	$15                     ; 0x15 <__rc5>
     434: 18           	clc
     435: 65 12        	adc	$12                     ; 0x12 <__rc2>
     437: a8           	tay
     438: a6 15        	ldx	$15                     ; 0x15 <__rc5>
     43a: a5 14        	lda	$14                     ; 0x14 <__rc4>
     43c: 85 1b        	sta	$1b                     ; 0x1b <__rc11>
     43e: a5 14        	lda	$14                     ; 0x14 <__rc4>
     440: 65 13        	adc	$13                     ; 0x13 <__rc3>
     442: 84 14        	sty	$14                     ; 0x14 <__rc4>
     444: a0 01        	ldy	#$1
     446: 84 01        	sty	$1                      ; 0x1
     448: 85 15        	sta	$15                     ; 0x15 <__rc5>
     44a: a5 19        	lda	$19                     ; 0x19 <__rc9>
     44c: 92 14        	sta	($14)                   ; 0x14 <__rc4>
     44e: 91 14        	sta	($14),y                 ; 0x14 <__rc4>
     450: c8           	iny
     451: 91 14        	sta	($14),y                 ; 0x14 <__rc4>
     453: 85 13        	sta	$13                     ; 0x13 <__rc3>
     455: c8           	iny
     456: a9 ff        	lda	#$ff
     458: 91 14        	sta	($14),y                 ; 0x14 <__rc4>
     45a: 8a           	txa
     45b: a6 1a        	ldx	$1a                     ; 0x1a <__rc10>
     45d: 86 01        	stx	$1                      ; 0x1
     45f: 18           	clc
     460: 69 04        	adc	#$4
     462: 85 15        	sta	$15                     ; 0x15 <__rc5>
     464: a5 1b        	lda	$1b                     ; 0x1b <__rc11>
     466: 69 00        	adc	#$0
     468: e6 13        	inc	$13                     ; 0x13 <__rc3>
     46a: a4 13        	ldy	$13                     ; 0x13 <__rc3>
     46c: 85 14        	sta	$14                     ; 0x14 <__rc4>
     46e: c9 04        	cmp	#$4
     470: f0 03        	beq	$475 <f256Init+0x97>
     472: 4c 20 04     	jmp	$420 <f256Init+0x42>
     475: a5 15        	lda	$15                     ; 0x15 <__rc5>
     477: f0 03        	beq	$47c <f256Init+0x9e>
     479: 4c 20 04     	jmp	$420 <f256Init+0x42>
     47c: a6 16        	ldx	$16                     ; 0x16 <__rc6>
     47e: e8           	inx
     47f: e0 04        	cpx	#$4
     481: f0 03        	beq	$486 <f256Init+0xa8>
     483: 4c 0d 04     	jmp	$40d <f256Init+0x2f>
     486: ad 02 d0     	lda	$d002                   ; 0xd002 <__heap_start+0xb120>
     489: 29 f0        	and	#$f0
     48b: 8d 02 d0     	sta	$d002                   ; 0xd002 <__heap_start+0xb120>
     48e: ad 02 d0     	lda	$d002                   ; 0xd002 <__heap_start+0xb120>
     491: 29 0f        	and	#$f
     493: 09 10        	ora	#$10
     495: 8d 02 d0     	sta	$d002                   ; 0xd002 <__heap_start+0xb120>
     498: a2 02        	ldx	#$2
     49a: 8e 03 d0     	stx	$d003                   ; 0xd003 <__heap_start+0xb121>
     49d: 20 5a 05     	jsr	$55a <textReset>
     4a0: 20 e4 06     	jsr	$6e4 <bitmapReset>
     4a3: a9 10        	lda	#$10
     4a5: a2 08        	ldx	#$8
     4a7: 86 c1        	stx	$c1                     ; 0xc1 <_tileSize>
     4a9: 86 c2        	stx	$c2                     ; 0xc2 <_tileSize+0x1>
     4ab: 86 c3        	stx	$c3                     ; 0xc3 <_tileSize+0x2>
     4ad: 8d 00 d2     	sta	$d200                   ; 0xd200 <__heap_start+0xb31e>
     4b0: a4 c2        	ldy	$c2                     ; 0xc2 <_tileSize+0x1>
     4b2: aa           	tax
     4b3: c0 08        	cpy	#$8
     4b5: f0 02        	beq	$4b9 <f256Init+0xdb>
     4b7: a2 00        	ldx	#$0
     4b9: 8e 0c d2     	stx	$d20c                   ; 0xd20c <__heap_start+0xb32a>
     4bc: a6 c3        	ldx	$c3                     ; 0xc3 <_tileSize+0x2>
     4be: e0 08        	cpx	#$8
     4c0: f0 02        	beq	$4c4 <f256Init+0xe6>
     4c2: a9 00        	lda	#$0
     4c4: 8d 18 d2     	sta	$d218                   ; 0xd218 <__heap_start+0xb336>
     4c7: a0 d9        	ldy	#$d9
     4c9: a2 00        	ldx	#$0
     4cb: 64 12        	stz	$12                     ; 0x12 <__rc2>
     4cd: 84 13        	sty	$13                     ; 0x13 <__rc3>
     4cf: bd a1 1e     	lda	$1ea1,x                 ; 0x1ea1 <_spriteCtl>
     4d2: 92 12        	sta	($12)                   ; 0x12 <__rc2>
     4d4: e8           	inx
     4d5: 18           	clc
     4d6: a5 12        	lda	$12                     ; 0x12 <__rc2>
     4d8: 69 08        	adc	#$8
     4da: 85 12        	sta	$12                     ; 0x12 <__rc2>
     4dc: 98           	tya
     4dd: 69 00        	adc	#$0
     4df: a8           	tay
     4e0: e0 40        	cpx	#$40
     4e2: d0 e9        	bne	$4cd <f256Init+0xef>
     4e4: 64 c4        	stz	$c4                     ; 0xc4 <_dirStream>
     4e6: 64 c5        	stz	$c5                     ; 0xc5 <_dirStream+0x1>
     4e8: 64 c6        	stz	$c6                     ; 0xc6 <_dirStream+0x2>
     4ea: 64 c7        	stz	$c7                     ; 0xc7 <_dirStream+0x3>
     4ec: 64 c8        	stz	$c8                     ; 0xc8 <_dirStream+0x4>
     4ee: 64 c9        	stz	$c9                     ; 0xc9 <_dirStream+0x5>
     4f0: 64 ca        	stz	$ca                     ; 0xca <_dirStream+0x6>
     4f2: 64 cb        	stz	$cb                     ; 0xcb <_dirStream+0x7>
     4f4: a5 b9        	lda	$b9                     ; 0xb9 <kernelArgs>
     4f6: a6 ba        	ldx	$ba                     ; 0xba <kernelArgs+0x1>
     4f8: 85 12        	sta	$12                     ; 0x12 <__rc2>
     4fa: 86 13        	stx	$13                     ; 0x13 <__rc3>
     4fc: a0 0b        	ldy	#$b
     4fe: 18           	clc
     4ff: 69 0b        	adc	#$b
     501: 85 14        	sta	$14                     ; 0x14 <__rc4>
     503: 8a           	txa
     504: 69 00        	adc	#$0
     506: 85 15        	sta	$15                     ; 0x15 <__rc5>
     508: a9 e4        	lda	#$e4
     50a: 91 12        	sta	($12),y                 ; 0x12 <__rc2>
     50c: a0 01        	ldy	#$1
     50e: a9 00        	lda	#$0
     510: 91 14        	sta	($14),y                 ; 0x14 <__rc4>
     512: a0 0d        	ldy	#$d
     514: a9 08        	lda	#$8
     516: 91 12        	sta	($12),y                 ; 0x12 <__rc2>
     518: a2 ec        	ldx	#$ec
     51a: a0 00        	ldy	#$0
     51c: 86 12        	stx	$12                     ; 0x12 <__rc2>
     51e: 84 13        	sty	$13                     ; 0x13 <__rc3>
     520: a2 dc        	ldx	#$dc
     522: 86 14        	stx	$14                     ; 0x14 <__rc4>
     524: a2 00        	ldx	#$0
     526: 86 15        	stx	$15                     ; 0x15 <__rc5>
     528: 20 dc ff     	jsr	$ffdc <__heap_start+0xe0fa>
     52b: 92 12        	sta	($12)                   ; 0x12 <__rc2>
     52d: a9 00        	lda	#$0
     52f: 6a           	ror
     530: 85 14        	sta	$14                     ; 0x14 <__rc4>
     532: a6 ea        	ldx	$ea                     ; 0xea <__sunset_size+0x56>
     534: a4 eb        	ldy	$eb                     ; 0xeb <__sunset_size+0x57>
     536: 8e 00 de     	stx	$de00                   ; 0xde00 <__heap_start+0xbf1e>
     539: 9c 01 de     	stz	$de01                   ; 0xde01 <__heap_start+0xbf1f>
     53c: 8c 02 de     	sty	$de02                   ; 0xde02 <__heap_start+0xbf20>
     53f: 9c 03 de     	stz	$de03                   ; 0xde03 <__heap_start+0xbf21>
     542: ae 10 de     	ldx	$de10                   ; 0xde10 <__heap_start+0xbf2e>
     545: ac 11 de     	ldy	$de11                   ; 0xde11 <__heap_start+0xbf2f>
     548: ad 12 de     	lda	$de12                   ; 0xde12 <__heap_start+0xbf30>
     54b: ad 13 de     	lda	$de13                   ; 0xde13 <__heap_start+0xbf31>
     54e: 8e a4 d6     	stx	$d6a4                   ; 0xd6a4 <__heap_start+0xb7c2>
     551: 8c a5 d6     	sty	$d6a5                   ; 0xd6a5 <__heap_start+0xb7c3>
     554: a2 03        	ldx	#$3
     556: 8e a6 d6     	stx	$d6a6                   ; 0xd6a6 <__heap_start+0xb7c4>
     559: 60           	rts

0000055a <textReset>:
     55a: 64 14        	stz	$14                     ; 0x14 <__rc4>
     55c: a2 00        	ldx	#$0
     55e: 86 12        	stx	$12                     ; 0x12 <__rc2>
     560: a2 c0        	ldx	#$c0
     562: 86 13        	stx	$13                     ; 0x13 <__rc3>
     564: a2 f0        	ldx	#$f0
     566: 86 62        	stx	$62                     ; 0x62 <_ccolor>
     568: ad 01 d0     	lda	$d001                   ; 0xd001 <__heap_start+0xb11f>
     56b: 29 f9        	and	#$f9
     56d: 09 04        	ora	#$4
     56f: 8d 01 d0     	sta	$d001                   ; 0xd001 <__heap_start+0xb11f>
     572: a2 50        	ldx	#$50
     574: 86 60        	stx	$60                     ; 0x60 <_MAX_COL>
     576: a2 1e        	ldx	#$1e
     578: 86 61        	stx	$61                     ; 0x61 <_MAX_ROW>
     57a: 9c 10 d0     	stz	$d010                   ; 0xd010 <__heap_start+0xb12e>
     57d: a0 00        	ldy	#$0
     57f: a2 00        	ldx	#$0
     581: 84 18        	sty	$18                     ; 0x18 <__rc8>
     583: b9 30 00     	lda	$30,y                   ; 0x30 <textColors>
     586: 85 1b        	sta	$1b                     ; 0x1b <__rc11>
     588: b9 31 00     	lda	$31,y                   ; 0x31 <textColors+0x1>
     58b: 85 1c        	sta	$1c                     ; 0x1c <__rc12>
     58d: b9 32 00     	lda	$32,y                   ; 0x32 <textColors+0x2>
     590: 85 1d        	sta	$1d                     ; 0x1d <__rc13>
     592: 84 1e        	sty	$1e                     ; 0x1e <__rc14>
     594: 8e 00 de     	stx	$de00                   ; 0xde00 <__heap_start+0xbf1e>
     597: 9c 01 de     	stz	$de01                   ; 0xde01 <__heap_start+0xbf1f>
     59a: a0 04        	ldy	#$4
     59c: 84 1a        	sty	$1a                     ; 0x1a <__rc10>
     59e: 8c 02 de     	sty	$de02                   ; 0xde02 <__heap_start+0xbf20>
     5a1: 9c 03 de     	stz	$de03                   ; 0xde03 <__heap_start+0xbf21>
     5a4: ac 10 de     	ldy	$de10                   ; 0xde10 <__heap_start+0xbf2e>
     5a7: 84 17        	sty	$17                     ; 0x17 <__rc7>
     5a9: ad 11 de     	lda	$de11                   ; 0xde11 <__heap_start+0xbf2f>
     5ac: 85 15        	sta	$15                     ; 0x15 <__rc5>
     5ae: a0 00        	ldy	#$0
     5b0: 84 16        	sty	$16                     ; 0x16 <__rc6>
     5b2: 18           	clc
     5b3: a5 17        	lda	$17                     ; 0x17 <__rc7>
     5b5: 65 14        	adc	$14                     ; 0x14 <__rc4>
     5b7: a8           	tay
     5b8: a5 16        	lda	$16                     ; 0x16 <__rc6>
     5ba: 85 1f        	sta	$1f                     ; 0x1f <__rc15>
     5bc: a9 d8        	lda	#$d8
     5be: 65 15        	adc	$15                     ; 0x15 <__rc5>
     5c0: 86 19        	stx	$19                     ; 0x19 <__rc9>
     5c2: ae 12 de     	ldx	$de12                   ; 0xde12 <__heap_start+0xbf30>
     5c5: ae 13 de     	ldx	$de13                   ; 0xde13 <__heap_start+0xbf31>
     5c8: 84 16        	sty	$16                     ; 0x16 <__rc6>
     5ca: 85 17        	sta	$17                     ; 0x17 <__rc7>
     5cc: a5 1d        	lda	$1d                     ; 0x1d <__rc13>
     5ce: 92 16        	sta	($16)                   ; 0x16 <__rc6>
     5d0: a0 01        	ldy	#$1
     5d2: a5 1c        	lda	$1c                     ; 0x1c <__rc12>
     5d4: 91 16        	sta	($16),y                 ; 0x16 <__rc6>
     5d6: 84 1c        	sty	$1c                     ; 0x1c <__rc12>
     5d8: c8           	iny
     5d9: a5 1b        	lda	$1b                     ; 0x1b <__rc11>
     5db: 91 16        	sta	($16),y                 ; 0x16 <__rc6>
     5dd: 84 1b        	sty	$1b                     ; 0x1b <__rc11>
     5df: c8           	iny
     5e0: a9 ff        	lda	#$ff
     5e2: 91 16        	sta	($16),y                 ; 0x16 <__rc6>
     5e4: 84 1d        	sty	$1d                     ; 0x1d <__rc13>
     5e6: 85 22        	sta	$22                     ; 0x22 <__rc18>
     5e8: a6 1e        	ldx	$1e                     ; 0x1e <__rc14>
     5ea: b4 30        	ldy	$30,x                   ; 0x30 <textColors>
     5ec: 84 1e        	sty	$1e                     ; 0x1e <__rc14>
     5ee: b4 31        	ldy	$31,x                   ; 0x31 <textColors+0x1>
     5f0: 84 23        	sty	$23                     ; 0x23 <__rc19>
     5f2: b4 32        	ldy	$32,x                   ; 0x32 <textColors+0x2>
     5f4: a6 19        	ldx	$19                     ; 0x19 <__rc9>
     5f6: 8e 00 de     	stx	$de00                   ; 0xde00 <__heap_start+0xbf1e>
     5f9: 9c 01 de     	stz	$de01                   ; 0xde01 <__heap_start+0xbf1f>
     5fc: a6 1a        	ldx	$1a                     ; 0x1a <__rc10>
     5fe: 8e 02 de     	stx	$de02                   ; 0xde02 <__heap_start+0xbf20>
     601: 9c 03 de     	stz	$de03                   ; 0xde03 <__heap_start+0xbf21>
     604: ae 10 de     	ldx	$de10                   ; 0xde10 <__heap_start+0xbf2e>
     607: 86 15        	stx	$15                     ; 0x15 <__rc5>
     609: ae 11 de     	ldx	$de11                   ; 0xde11 <__heap_start+0xbf2f>
     60c: 86 16        	stx	$16                     ; 0x16 <__rc6>
     60e: a9 40        	lda	#$40
     610: a6 1f        	ldx	$1f                     ; 0x1f <__rc15>
     612: e0 01        	cpx	#$1
     614: 65 15        	adc	$15                     ; 0x15 <__rc5>
     616: aa           	tax
     617: a9 d8        	lda	#$d8
     619: 65 16        	adc	$16                     ; 0x16 <__rc6>
     61b: 86 16        	stx	$16                     ; 0x16 <__rc6>
     61d: ae 12 de     	ldx	$de12                   ; 0xde12 <__heap_start+0xbf30>
     620: 85 17        	sta	$17                     ; 0x17 <__rc7>
     622: ae 13 de     	ldx	$de13                   ; 0xde13 <__heap_start+0xbf31>
     625: a6 19        	ldx	$19                     ; 0x19 <__rc9>
     627: 98           	tya
     628: 92 16        	sta	($16)                   ; 0x16 <__rc6>
     62a: a4 1c        	ldy	$1c                     ; 0x1c <__rc12>
     62c: a5 23        	lda	$23                     ; 0x23 <__rc19>
     62e: 91 16        	sta	($16),y                 ; 0x16 <__rc6>
     630: a4 1b        	ldy	$1b                     ; 0x1b <__rc11>
     632: a5 1e        	lda	$1e                     ; 0x1e <__rc14>
     634: 91 16        	sta	($16),y                 ; 0x16 <__rc6>
     636: a4 1d        	ldy	$1d                     ; 0x1d <__rc13>
     638: a5 22        	lda	$22                     ; 0x22 <__rc18>
     63a: 91 16        	sta	($16),y                 ; 0x16 <__rc6>
     63c: e8           	inx
     63d: 18           	clc
     63e: a5 18        	lda	$18                     ; 0x18 <__rc8>
     640: 69 03        	adc	#$3
     642: a8           	tay
     643: c9 30        	cmp	#$30
     645: f0 03        	beq	$64a <textReset+0xf0>
     647: 4c 81 05     	jmp	$581 <textReset+0x27>
     64a: a6 01        	ldx	$1                      ; 0x1
     64c: 86 18        	stx	$18                     ; 0x18 <__rc8>
     64e: a6 60        	ldx	$60                     ; 0x60 <_MAX_COL>
     650: a4 61        	ldy	$61                     ; 0x61 <_MAX_ROW>
     652: 8e 00 de     	stx	$de00                   ; 0xde00 <__heap_start+0xbf1e>
     655: 9c 01 de     	stz	$de01                   ; 0xde01 <__heap_start+0xbf1f>
     658: 8c 02 de     	sty	$de02                   ; 0xde02 <__heap_start+0xbf20>
     65b: 9c 03 de     	stz	$de03                   ; 0xde03 <__heap_start+0xbf21>
     65e: ae 10 de     	ldx	$de10                   ; 0xde10 <__heap_start+0xbf2e>
     661: ac 11 de     	ldy	$de11                   ; 0xde11 <__heap_start+0xbf2f>
     664: ad 12 de     	lda	$de12                   ; 0xde12 <__heap_start+0xbf30>
     667: ad 13 de     	lda	$de13                   ; 0xde13 <__heap_start+0xbf31>
     66a: a9 02        	lda	#$2
     66c: 85 01        	sta	$1                      ; 0x1
     66e: e0 01        	cpx	#$1
     670: 98           	tya
     671: e9 00        	sbc	#$0
     673: 50 02        	bvc	$677 <textReset+0x11d>
     675: 49 80        	eor	#$80
     677: c9 00        	cmp	#$0
     679: 30 50        	bmi	$6cb <textReset+0x171>
     67b: a9 20        	lda	#$20
     67d: 86 19        	stx	$19                     ; 0x19 <__rc9>
     67f: 86 14        	stx	$14                     ; 0x14 <__rc4>
     681: 84 15        	sty	$15                     ; 0x15 <__rc5>
     683: a2 00        	ldx	#$0
     685: 86 16        	stx	$16                     ; 0x16 <__rc6>
     687: a2 c0        	ldx	#$c0
     689: 86 17        	stx	$17                     ; 0x17 <__rc7>
     68b: 80 04        	bra	$691 <textReset+0x137>
     68d: a6 15        	ldx	$15                     ; 0x15 <__rc5>
     68f: f0 14        	beq	$6a5 <textReset+0x14b>
     691: 92 16        	sta	($16)                   ; 0x16 <__rc6>
     693: e6 16        	inc	$16                     ; 0x16 <__rc6>
     695: d0 02        	bne	$699 <textReset+0x13f>
     697: e6 17        	inc	$17                     ; 0x17 <__rc7>
     699: a2 ff        	ldx	#$ff
     69b: c6 14        	dec	$14                     ; 0x14 <__rc4>
     69d: e4 14        	cpx	$14                     ; 0x14 <__rc4>
     69f: d0 ec        	bne	$68d <textReset+0x133>
     6a1: c6 15        	dec	$15                     ; 0x15 <__rc5>
     6a3: 80 e8        	bra	$68d <textReset+0x133>
     6a5: a6 14        	ldx	$14                     ; 0x14 <__rc4>
     6a7: d0 e8        	bne	$691 <textReset+0x137>
     6a9: a2 03        	ldx	#$3
     6ab: 86 01        	stx	$1                      ; 0x1
     6ad: a6 19        	ldx	$19                     ; 0x19 <__rc9>
     6af: 80 03        	bra	$6b4 <textReset+0x15a>
     6b1: 98           	tya
     6b2: f0 12        	beq	$6c6 <textReset+0x16c>
     6b4: a5 62        	lda	$62                     ; 0x62 <_ccolor>
     6b6: 92 12        	sta	($12)                   ; 0x12 <__rc2>
     6b8: e6 12        	inc	$12                     ; 0x12 <__rc2>
     6ba: d0 02        	bne	$6be <textReset+0x164>
     6bc: e6 13        	inc	$13                     ; 0x13 <__rc3>
     6be: ca           	dex
     6bf: e0 ff        	cpx	#$ff
     6c1: d0 ee        	bne	$6b1 <textReset+0x157>
     6c3: 88           	dey
     6c4: 80 eb        	bra	$6b1 <textReset+0x157>
     6c6: 8a           	txa
     6c7: d0 eb        	bne	$6b4 <textReset+0x15a>
     6c9: 80 04        	bra	$6cf <textReset+0x175>
     6cb: a2 03        	ldx	#$3
     6cd: 86 01        	stx	$1                      ; 0x1
     6cf: a6 18        	ldx	$18                     ; 0x18 <__rc8>
     6d1: 86 01        	stx	$1                      ; 0x1
     6d3: 64 bb        	stz	$bb                     ; 0xbb <_col>
     6d5: 9c 14 d0     	stz	$d014                   ; 0xd014 <__heap_start+0xb132>
     6d8: 9c 15 d0     	stz	$d015                   ; 0xd015 <__heap_start+0xb133>
     6db: 64 bc        	stz	$bc                     ; 0xbc <_row>
     6dd: 9c 16 d0     	stz	$d016                   ; 0xd016 <__heap_start+0xb134>
     6e0: 9c 17 d0     	stz	$d017                   ; 0xd017 <__heap_start+0xb135>
     6e3: 60           	rts

000006e4 <bitmapReset>:
     6e4: a2 01        	ldx	#$1
     6e6: 8e 9f 1e     	stx	$1e9f                   ; 0x1e9f <_MAX_X>
     6e9: 8e a0 1e     	stx	$1ea0                   ; 0x1ea0 <_MAX_Y>
     6ec: a0 40        	ldy	#$40
     6ee: 8c 00 de     	sty	$de00                   ; 0xde00 <__heap_start+0xbf1e>
     6f1: 8e 01 de     	stx	$de01                   ; 0xde01 <__heap_start+0xbf1f>
     6f4: a2 f0        	ldx	#$f0
     6f6: 8e 02 de     	stx	$de02                   ; 0xde02 <__heap_start+0xbf20>
     6f9: 9c 03 de     	stz	$de03                   ; 0xde03 <__heap_start+0xbf21>
     6fc: ae 10 de     	ldx	$de10                   ; 0xde10 <__heap_start+0xbf2e>
     6ff: 86 17        	stx	$17                     ; 0x17 <__rc7>
     701: ae 11 de     	ldx	$de11                   ; 0xde11 <__heap_start+0xbf2f>
     704: 86 12        	stx	$12                     ; 0x12 <__rc2>
     706: ae 12 de     	ldx	$de12                   ; 0xde12 <__heap_start+0xbf30>
     709: 86 13        	stx	$13                     ; 0x13 <__rc3>
     70b: ae 13 de     	ldx	$de13                   ; 0xde13 <__heap_start+0xbf31>
     70e: 86 14        	stx	$14                     ; 0x14 <__rc4>
     710: 64 bd        	stz	$bd                     ; 0xbd <_active>
     712: a2 ff        	ldx	#$ff
     714: 8e 9e 1e     	stx	$1e9e                   ; 0x1e9e <_color>
     717: a6 12        	ldx	$12                     ; 0x12 <__rc2>
     719: 86 15        	stx	$15                     ; 0x15 <__rc5>
     71b: 06 15        	asl	$15                     ; 0x15 <__rc5>
     71d: a5 13        	lda	$13                     ; 0x13 <__rc3>
     71f: 2a           	rol
     720: a6 14        	ldx	$14                     ; 0x14 <__rc4>
     722: 86 16        	stx	$16                     ; 0x16 <__rc6>
     724: 26 16        	rol	$16                     ; 0x16 <__rc6>
     726: 06 15        	asl	$15                     ; 0x15 <__rc5>
     728: 2a           	rol
     729: 26 16        	rol	$16                     ; 0x16 <__rc6>
     72b: 06 15        	asl	$15                     ; 0x15 <__rc5>
     72d: 2a           	rol
     72e: 26 16        	rol	$16                     ; 0x16 <__rc6>
     730: 85 15        	sta	$15                     ; 0x15 <__rc5>
     732: 8d 00 de     	sta	$de00                   ; 0xde00 <__heap_start+0xbf1e>
     735: a5 16        	lda	$16                     ; 0x16 <__rc6>
     737: 8d 01 de     	sta	$de01                   ; 0xde01 <__heap_start+0xbf1f>
     73a: 9c 02 de     	stz	$de02                   ; 0xde02 <__heap_start+0xbf20>
     73d: a2 20        	ldx	#$20
     73f: 8e 03 de     	stx	$de03                   ; 0xde03 <__heap_start+0xbf21>
     742: ae 10 de     	ldx	$de10                   ; 0xde10 <__heap_start+0xbf2e>
     745: 86 16        	stx	$16                     ; 0x16 <__rc6>
     747: ae 11 de     	ldx	$de11                   ; 0xde11 <__heap_start+0xbf2f>
     74a: 86 18        	stx	$18                     ; 0x18 <__rc8>
     74c: ac 12 de     	ldy	$de12                   ; 0xde12 <__heap_start+0xbf30>
     74f: ae 13 de     	ldx	$de13                   ; 0xde13 <__heap_start+0xbf31>
     752: e4 14        	cpx	$14                     ; 0x14 <__rc4>
     754: d0 14        	bne	$76a <bitmapReset+0x86>
     756: c4 13        	cpy	$13                     ; 0x13 <__rc3>
     758: d0 10        	bne	$76a <bitmapReset+0x86>
     75a: a6 18        	ldx	$18                     ; 0x18 <__rc8>
     75c: e4 12        	cpx	$12                     ; 0x12 <__rc2>
     75e: d0 0a        	bne	$76a <bitmapReset+0x86>
     760: a6 16        	ldx	$16                     ; 0x16 <__rc6>
     762: e4 17        	cpx	$17                     ; 0x17 <__rc7>
     764: d0 04        	bne	$76a <bitmapReset+0x86>
     766: a6 15        	ldx	$15                     ; 0x15 <__rc5>
     768: 80 06        	bra	$770 <bitmapReset+0x8c>
     76a: a6 15        	ldx	$15                     ; 0x15 <__rc5>
     76c: e8           	inx
     76d: d0 01        	bne	$770 <bitmapReset+0x8c>
     76f: 1a           	inc
     770: 8e 00 de     	stx	$de00                   ; 0xde00 <__heap_start+0xbf1e>
     773: 8d 01 de     	sta	$de01                   ; 0xde01 <__heap_start+0xbf1f>
     776: 9c 02 de     	stz	$de02                   ; 0xde02 <__heap_start+0xbf20>
     779: a2 20        	ldx	#$20
     77b: 8e 03 de     	stx	$de03                   ; 0xde03 <__heap_start+0xbf21>
     77e: ae 10 de     	ldx	$de10                   ; 0xde10 <__heap_start+0xbf2e>
     781: 86 12        	stx	$12                     ; 0x12 <__rc2>
     783: ae 11 de     	ldx	$de11                   ; 0xde11 <__heap_start+0xbf2f>
     786: 86 13        	stx	$13                     ; 0x13 <__rc3>
     788: ae 12 de     	ldx	$de12                   ; 0xde12 <__heap_start+0xbf30>
     78b: 86 14        	stx	$14                     ; 0x14 <__rc4>
     78d: ae 13 de     	ldx	$de13                   ; 0xde13 <__heap_start+0xbf31>
     790: 86 15        	stx	$15                     ; 0x15 <__rc5>
     792: a9 00        	lda	#$0
     794: 38           	sec
     795: e5 12        	sbc	$12                     ; 0x12 <__rc2>
     797: 85 1a        	sta	$1a                     ; 0x1a <__rc10>
     799: a9 00        	lda	#$0
     79b: e5 13        	sbc	$13                     ; 0x13 <__rc3>
     79d: 85 18        	sta	$18                     ; 0x18 <__rc8>
     79f: a9 08        	lda	#$8
     7a1: e5 14        	sbc	$14                     ; 0x14 <__rc4>
     7a3: a8           	tay
     7a4: a9 00        	lda	#$0
     7a6: e5 15        	sbc	$15                     ; 0x15 <__rc5>
     7a8: 85 16        	sta	$16                     ; 0x16 <__rc6>
     7aa: a6 18        	ldx	$18                     ; 0x18 <__rc8>
     7ac: 8e 93 1e     	stx	$1e93                   ; 0x1e93 <__bss_start+0x1>
     7af: 8c 94 1e     	sty	$1e94                   ; 0x1e94 <__bss_start+0x2>
     7b2: 8d 95 1e     	sta	$1e95                   ; 0x1e95 <__bss_start+0x3>
     7b5: a5 1a        	lda	$1a                     ; 0x1a <__rc10>
     7b7: 38           	sec
     7b8: e5 12        	sbc	$12                     ; 0x12 <__rc2>
     7ba: 85 17        	sta	$17                     ; 0x17 <__rc7>
     7bc: a5 18        	lda	$18                     ; 0x18 <__rc8>
     7be: e5 13        	sbc	$13                     ; 0x13 <__rc3>
     7c0: 85 18        	sta	$18                     ; 0x18 <__rc8>
     7c2: 98           	tya
     7c3: e5 14        	sbc	$14                     ; 0x14 <__rc4>
     7c5: 85 19        	sta	$19                     ; 0x19 <__rc9>
     7c7: a5 16        	lda	$16                     ; 0x16 <__rc6>
     7c9: e5 15        	sbc	$15                     ; 0x15 <__rc5>
     7cb: 85 16        	sta	$16                     ; 0x16 <__rc6>
     7cd: 38           	sec
     7ce: a6 17        	ldx	$17                     ; 0x17 <__rc7>
     7d0: 8e 96 1e     	stx	$1e96                   ; 0x1e96 <__bss_start+0x4>
     7d3: a4 18        	ldy	$18                     ; 0x18 <__rc8>
     7d5: 8c 97 1e     	sty	$1e97                   ; 0x1e97 <__bss_start+0x5>
     7d8: a6 19        	ldx	$19                     ; 0x19 <__rc9>
     7da: 8e 98 1e     	stx	$1e98                   ; 0x1e98 <__bss_start+0x6>
     7dd: 8d 99 1e     	sta	$1e99                   ; 0x1e99 <__bss_start+0x7>
     7e0: a5 17        	lda	$17                     ; 0x17 <__rc7>
     7e2: e5 12        	sbc	$12                     ; 0x12 <__rc2>
     7e4: 85 17        	sta	$17                     ; 0x17 <__rc7>
     7e6: a5 18        	lda	$18                     ; 0x18 <__rc8>
     7e8: e5 13        	sbc	$13                     ; 0x13 <__rc3>
     7ea: aa           	tax
     7eb: a5 19        	lda	$19                     ; 0x19 <__rc9>
     7ed: e5 14        	sbc	$14                     ; 0x14 <__rc4>
     7ef: 85 13        	sta	$13                     ; 0x13 <__rc3>
     7f1: a5 16        	lda	$16                     ; 0x16 <__rc6>
     7f3: e5 15        	sbc	$15                     ; 0x15 <__rc5>
     7f5: 85 12        	sta	$12                     ; 0x12 <__rc2>
     7f7: a5 17        	lda	$17                     ; 0x17 <__rc7>
     7f9: 8d 9a 1e     	sta	$1e9a                   ; 0x1e9a <__bss_start+0x8>
     7fc: 8e 9b 1e     	stx	$1e9b                   ; 0x1e9b <__bss_start+0x9>
     7ff: a6 13        	ldx	$13                     ; 0x13 <__rc3>
     801: 8e 9c 1e     	stx	$1e9c                   ; 0x1e9c <__bss_start+0xa>
     804: a6 12        	ldx	$12                     ; 0x12 <__rc2>
     806: 8e 9d 1e     	stx	$1e9d                   ; 0x1e9d <__bss_start+0xb>
     809: a6 1a        	ldx	$1a                     ; 0x1a <__rc10>
     80b: 8e 92 1e     	stx	$1e92                   ; 0x1e92 <__bss_start>
     80e: 64 be        	stz	$be                     ; 0xbe <_BITMAP_CLUT>
     810: 64 bf        	stz	$bf                     ; 0xbf <_BITMAP_CLUT+0x1>
     812: 64 c0        	stz	$c0                     ; 0xc0 <_BITMAP_CLUT+0x2>
     814: 8e 01 d1     	stx	$d101                   ; 0xd101 <__heap_start+0xb21f>
     817: ae 93 1e     	ldx	$1e93                   ; 0x1e93 <__bss_start+0x1>
     81a: 8e 02 d1     	stx	$d102                   ; 0xd102 <__heap_start+0xb220>
     81d: ae 94 1e     	ldx	$1e94                   ; 0x1e94 <__bss_start+0x2>
     820: 8e 03 d1     	stx	$d103                   ; 0xd103 <__heap_start+0xb221>
     823: ae 96 1e     	ldx	$1e96                   ; 0x1e96 <__bss_start+0x4>
     826: 8e 09 d1     	stx	$d109                   ; 0xd109 <__heap_start+0xb227>
     829: ae 97 1e     	ldx	$1e97                   ; 0x1e97 <__bss_start+0x5>
     82c: 8e 0a d1     	stx	$d10a                   ; 0xd10a <__heap_start+0xb228>
     82f: ae 98 1e     	ldx	$1e98                   ; 0x1e98 <__bss_start+0x6>
     832: 8e 0b d1     	stx	$d10b                   ; 0xd10b <__heap_start+0xb229>
     835: ae 9a 1e     	ldx	$1e9a                   ; 0x1e9a <__bss_start+0x8>
     838: 8e 11 d1     	stx	$d111                   ; 0xd111 <__heap_start+0xb22f>
     83b: ae 9b 1e     	ldx	$1e9b                   ; 0x1e9b <__bss_start+0x9>
     83e: 8e 12 d1     	stx	$d112                   ; 0xd112 <__heap_start+0xb230>
     841: ae 9c 1e     	ldx	$1e9c                   ; 0x1e9c <__bss_start+0xa>
     844: 8e 13 d1     	stx	$d113                   ; 0xd113 <__heap_start+0xb231>
     847: 9c 00 d1     	stz	$d100                   ; 0xd100 <__heap_start+0xb21e>
     84a: 9c 08 d1     	stz	$d108                   ; 0xd108 <__heap_start+0xb226>
     84d: 9c 10 d1     	stz	$d110                   ; 0xd110 <__heap_start+0xb22e>
     850: 60           	rts

00000851 <main>:
     851: 20 de 03     	jsr	$3de <f256Init>
     854: 20 57 08     	jsr	$857 <f256main>

00000857 <f256main>:
     857: 18           	clc
     858: a5 10        	lda	$10                     ; 0x10 <__rc0>
     85a: 69 ff        	adc	#$ff
     85c: 85 10        	sta	$10                     ; 0x10 <__rc0>
     85e: a5 11        	lda	$11                     ; 0x11 <__rc1>
     860: 69 ff        	adc	#$ff
     862: 85 11        	sta	$11                     ; 0x11 <__rc1>
     864: 20 92 09     	jsr	$992 <setup>
     867: 18           	clc
     868: a6 10        	ldx	$10                     ; 0x10 <__rc0>
     86a: 86 24        	stx	$24                     ; 0x24 <__rc20>
     86c: a6 11        	ldx	$11                     ; 0x11 <__rc1>
     86e: 86 25        	stx	$25                     ; 0x25 <__rc21>
     870: 4c 54 09     	jmp	$954 <f256main+0xfd>
     873: 64 13        	stz	$13                     ; 0x13 <__rc3>
     875: 85 12        	sta	$12                     ; 0x12 <__rc2>
     877: 38           	sec
     878: e9 05        	sbc	#$5
     87a: 50 02        	bvc	$87e <f256main+0x27>
     87c: 49 80        	eor	#$80
     87e: a0 02        	ldy	#$2
     880: aa           	tax
     881: 10 0e        	bpl	$891 <f256main+0x3a>
     883: a5 12        	lda	$12                     ; 0x12 <__rc2>
     885: 38           	sec
     886: e9 fc        	sbc	#$fc
     888: 50 02        	bvc	$88c <f256main+0x35>
     88a: 49 80        	eor	#$80
     88c: aa           	tax
     88d: 30 02        	bmi	$891 <f256main+0x3a>
     88f: a0 01        	ldy	#$1
     891: 84 db        	sty	$db                     ; 0xdb <boost>
     893: ad e2 d6     	lda	$d6e2                   ; 0xd6e2 <__heap_start+0xb800>
     896: 85 26        	sta	$26                     ; 0x26 <__rc22>
     898: ad e3 d6     	lda	$d6e3                   ; 0xd6e3 <__heap_start+0xb801>
     89b: 85 27        	sta	$27                     ; 0x27 <__rc23>
     89d: a2 00        	ldx	#$0
     89f: 98           	tya
     8a0: 20 47 1c     	jsr	$1c47 <__mulhi3>
     8a3: 85 13        	sta	$13                     ; 0x13 <__rc3>
     8a5: 86 14        	stx	$14                     ; 0x14 <__rc4>
     8a7: a4 e1        	ldy	$e1                     ; 0xe1 <kernelEventData+0x4>
     8a9: 10 04        	bpl	$8af <f256main+0x58>
     8ab: a2 ff        	ldx	#$ff
     8ad: 80 02        	bra	$8b1 <f256main+0x5a>
     8af: a2 00        	ldx	#$0
     8b1: 38           	sec
     8b2: 98           	tya
     8b3: e9 05        	sbc	#$5
     8b5: 84 12        	sty	$12                     ; 0x12 <__rc2>
     8b7: 50 02        	bvc	$8bb <f256main+0x64>
     8b9: 49 80        	eor	#$80
     8bb: 85 15        	sta	$15                     ; 0x15 <__rc5>
     8bd: 18           	clc
     8be: a5 26        	lda	$26                     ; 0x26 <__rc22>
     8c0: 65 13        	adc	$13                     ; 0x13 <__rc3>
     8c2: 85 26        	sta	$26                     ; 0x26 <__rc22>
     8c4: a5 27        	lda	$27                     ; 0x27 <__rc23>
     8c6: 65 14        	adc	$14                     ; 0x14 <__rc4>
     8c8: 85 27        	sta	$27                     ; 0x27 <__rc23>
     8ca: a0 02        	ldy	#$2
     8cc: a5 15        	lda	$15                     ; 0x15 <__rc5>
     8ce: 10 0f        	bpl	$8df <f256main+0x88>
     8d0: 38           	sec
     8d1: a5 12        	lda	$12                     ; 0x12 <__rc2>
     8d3: e9 fc        	sbc	#$fc
     8d5: 50 02        	bvc	$8d9 <f256main+0x82>
     8d7: 49 80        	eor	#$80
     8d9: c9 00        	cmp	#$0
     8db: 30 02        	bmi	$8df <f256main+0x88>
     8dd: a0 01        	ldy	#$1
     8df: 84 db        	sty	$db                     ; 0xdb <boost>
     8e1: ad e4 d6     	lda	$d6e4                   ; 0xd6e4 <__heap_start+0xb802>
     8e4: 85 28        	sta	$28                     ; 0x28 <__rc24>
     8e6: ad e5 d6     	lda	$d6e5                   ; 0xd6e5 <__heap_start+0xb803>
     8e9: 85 29        	sta	$29                     ; 0x29 <__rc25>
     8eb: 86 13        	stx	$13                     ; 0x13 <__rc3>
     8ed: a2 00        	ldx	#$0
     8ef: 98           	tya
     8f0: 20 47 1c     	jsr	$1c47 <__mulhi3>
     8f3: 85 13        	sta	$13                     ; 0x13 <__rc3>
     8f5: 86 12        	stx	$12                     ; 0x12 <__rc2>
     8f7: a4 27        	ldy	$27                     ; 0x27 <__rc23>
     8f9: 10 04        	bpl	$8ff <f256main+0xa8>
     8fb: 64 26        	stz	$26                     ; 0x26 <__rc22>
     8fd: a0 00        	ldy	#$0
     8ff: 18           	clc
     900: a5 28        	lda	$28                     ; 0x28 <__rc24>
     902: 65 13        	adc	$13                     ; 0x13 <__rc3>
     904: aa           	tax
     905: a5 29        	lda	$29                     ; 0x29 <__rc25>
     907: 65 12        	adc	$12                     ; 0x12 <__rc2>
     909: 85 12        	sta	$12                     ; 0x12 <__rc2>
     90b: 8a           	txa
     90c: c0 02        	cpy	#$2
     90e: d0 1c        	bne	$92c <f256main+0xd5>
     910: a6 26        	ldx	$26                     ; 0x26 <__rc22>
     912: e0 71        	cpx	#$71
     914: 90 06        	bcc	$91c <f256main+0xc5>
     916: a0 02        	ldy	#$2
     918: a2 70        	ldx	#$70
     91a: 86 26        	stx	$26                     ; 0x26 <__rc22>
     91c: a6 12        	ldx	$12                     ; 0x12 <__rc2>
     91e: 30 12        	bmi	$932 <f256main+0xdb>
     920: e0 01        	cpx	#$1
     922: d0 15        	bne	$939 <f256main+0xe2>
     924: 84 12        	sty	$12                     ; 0x12 <__rc2>
     926: c9 d1        	cmp	#$d1
     928: b0 15        	bcs	$93f <f256main+0xe8>
     92a: 80 17        	bra	$943 <f256main+0xec>
     92c: c0 02        	cpy	#$2
     92e: b0 e6        	bcs	$916 <f256main+0xbf>
     930: 80 ea        	bra	$91c <f256main+0xc5>
     932: a9 00        	lda	#$0
     934: aa           	tax
     935: e0 01        	cpx	#$1
     937: f0 eb        	beq	$924 <f256main+0xcd>
     939: 84 12        	sty	$12                     ; 0x12 <__rc2>
     93b: e0 01        	cpx	#$1
     93d: 90 04        	bcc	$943 <f256main+0xec>
     93f: a2 01        	ldx	#$1
     941: a9 d0        	lda	#$d0
     943: a8           	tay
     944: a5 26        	lda	$26                     ; 0x26 <__rc22>
     946: 8d e2 d6     	sta	$d6e2                   ; 0xd6e2 <__heap_start+0xb800>
     949: a5 12        	lda	$12                     ; 0x12 <__rc2>
     94b: 8d e3 d6     	sta	$d6e3                   ; 0xd6e3 <__heap_start+0xb801>
     94e: 8c e4 d6     	sty	$d6e4                   ; 0xd6e4 <__heap_start+0xb802>
     951: 8e e5 d6     	stx	$d6e5                   ; 0xd6e5 <__heap_start+0xb803>
     954: 64 dd        	stz	$dd                     ; 0xdd <kernelEventData>
     956: a2 dc        	ldx	#$dc
     958: 86 12        	stx	$12                     ; 0x12 <__rc2>
     95a: a2 00        	ldx	#$0
     95c: 86 13        	stx	$13                     ; 0x13 <__rc3>
     95e: 20 00 ff     	jsr	$ff00 <__heap_start+0xe01e>
     961: 92 24        	sta	($24)                   ; 0x24 <__rc20>
     963: a9 00        	lda	#$0
     965: 6a           	ror
     966: 85 12        	sta	$12                     ; 0x12 <__rc2>
     968: a6 dd        	ldx	$dd                     ; 0xdd <kernelEventData>
     96a: e0 08        	cpx	#$8
     96c: d0 05        	bne	$973 <f256main+0x11c>
     96e: a5 e1        	lda	$e1                     ; 0xe1 <kernelEventData+0x4>
     970: 20 a0 13     	jsr	$13a0 <dealKey>
     973: a6 dd        	ldx	$dd                     ; 0xdd <kernelEventData>
     975: e0 52        	cpx	#$52
     977: d0 05        	bne	$97e <f256main+0x127>
     979: a5 e1        	lda	$e1                     ; 0xe1 <kernelEventData+0x4>
     97b: 20 4a 16     	jsr	$164a <dealTimer>
     97e: a6 dd        	ldx	$dd                     ; 0xdd <kernelEventData>
     980: e0 0c        	cpx	#$c
     982: d0 d0        	bne	$954 <f256main+0xfd>
     984: a5 e0        	lda	$e0                     ; 0xe0 <kernelEventData+0x3>
     986: 30 03        	bmi	$98b <f256main+0x134>
     988: 4c 73 08     	jmp	$873 <f256main+0x1c>
     98b: a2 ff        	ldx	#$ff
     98d: 86 13        	stx	$13                     ; 0x13 <__rc3>
     98f: 4c 75 08     	jmp	$875 <f256main+0x1e>

00000992 <setup>:
     992: a6 24        	ldx	$24                     ; 0x24 <__rc20>
     994: da           	phx
     995: a6 25        	ldx	$25                     ; 0x25 <__rc21>
     997: da           	phx
     998: a6 26        	ldx	$26                     ; 0x26 <__rc22>
     99a: da           	phx
     99b: a2 00        	ldx	#$0
     99d: 64 01        	stz	$1                      ; 0x1
     99f: a0 3f        	ldy	#$3f
     9a1: 8c 00 d0     	sty	$d000                   ; 0xd000 <__heap_start+0xb11e>
     9a4: a0 10        	ldy	#$10
     9a6: 8c 01 d0     	sty	$d001                   ; 0xd001 <__heap_start+0xb11f>
     9a9: 8c 02 d0     	sty	$d002                   ; 0xd002 <__heap_start+0xb120>
     9ac: a0 02        	ldy	#$2
     9ae: 8c 03 d0     	sty	$d003                   ; 0xd003 <__heap_start+0xb121>
     9b1: 88           	dey
     9b2: 84 01        	sty	$1                      ; 0x1
     9b4: a0 d0        	ldy	#$d0
     9b6: 80 05        	bra	$9bd <setup+0x2b>
     9b8: c8           	iny
     9b9: c0 d3        	cpy	#$d3
     9bb: f0 28        	beq	$9e5 <setup+0x53>
     9bd: 18           	clc
     9be: 86 16        	stx	$16                     ; 0x16 <__rc6>
     9c0: 8a           	txa
     9c1: 69 00        	adc	#$0
     9c3: 85 14        	sta	$14                     ; 0x14 <__rc4>
     9c5: 98           	tya
     9c6: 69 10        	adc	#$10
     9c8: 85 15        	sta	$15                     ; 0x15 <__rc5>
     9ca: 86 12        	stx	$12                     ; 0x12 <__rc2>
     9cc: 84 13        	sty	$13                     ; 0x13 <__rc3>
     9ce: a6 0f        	ldx	$f                      ; 0xf <__data_size+0xc>
     9d0: 78           	sei
     9d1: a9 08        	lda	#$8
     9d3: 85 0f        	sta	$f                      ; 0xf <__data_size+0xc>
     9d5: b2 14        	lda	($14)                   ; 0x14 <__rc4>
     9d7: 86 0f        	stx	$f                      ; 0xf <__data_size+0xc>
     9d9: 58           	cli
     9da: 92 12        	sta	($12)                   ; 0x12 <__rc2>
     9dc: a6 16        	ldx	$16                     ; 0x16 <__rc6>
     9de: e8           	inx
     9df: f0 d7        	beq	$9b8 <setup+0x26>
     9e1: c0 d3        	cpy	#$d3
     9e3: d0 d8        	bne	$9bd <setup+0x2b>
     9e5: e0 ff        	cpx	#$ff
     9e7: d0 d4        	bne	$9bd <setup+0x2b>
     9e9: a2 f0        	ldx	#$f0
     9eb: a0 00        	ldy	#$0
     9ed: 80 05        	bra	$9f4 <setup+0x62>
     9ef: e8           	inx
     9f0: e0 f3        	cpx	#$f3
     9f2: f0 32        	beq	$a26 <setup+0x94>
     9f4: 84 12        	sty	$12                     ; 0x12 <__rc2>
     9f6: 86 13        	stx	$13                     ; 0x13 <__rc3>
     9f8: a5 0f        	lda	$f                      ; 0xf <__data_size+0xc>
     9fa: 85 15        	sta	$15                     ; 0x15 <__rc5>
     9fc: 78           	sei
     9fd: a9 25        	lda	#$25
     9ff: 85 0f        	sta	$f                      ; 0xf <__data_size+0xc>
     a01: b2 12        	lda	($12)                   ; 0x12 <__rc2>
     a03: 85 14        	sta	$14                     ; 0x14 <__rc4>
     a05: a5 15        	lda	$15                     ; 0x15 <__rc5>
     a07: 85 0f        	sta	$f                      ; 0xf <__data_size+0xc>
     a09: 18           	clc
     a0a: 98           	tya
     a0b: 69 00        	adc	#$0
     a0d: 85 15        	sta	$15                     ; 0x15 <__rc5>
     a0f: 8a           	txa
     a10: 69 e4        	adc	#$e4
     a12: 5a           	phy
     a13: a4 15        	ldy	$15                     ; 0x15 <__rc5>
     a15: 84 12        	sty	$12                     ; 0x12 <__rc2>
     a17: 7a           	ply
     a18: 58           	cli
     a19: 85 13        	sta	$13                     ; 0x13 <__rc3>
     a1b: a5 14        	lda	$14                     ; 0x14 <__rc4>
     a1d: 92 12        	sta	($12)                   ; 0x12 <__rc2>
     a1f: c8           	iny
     a20: f0 cd        	beq	$9ef <setup+0x5d>
     a22: e0 f3        	cpx	#$f3
     a24: d0 ce        	bne	$9f4 <setup+0x62>
     a26: c0 ff        	cpy	#$ff
     a28: d0 ca        	bne	$9f4 <setup+0x62>
     a2a: 64 01        	stz	$1                      ; 0x1
     a2c: 9c 0d d0     	stz	$d00d                   ; 0xd00d <__heap_start+0xb12b>
     a2f: 9c 0e d0     	stz	$d00e                   ; 0xd00e <__heap_start+0xb12c>
     a32: 9c 0f d0     	stz	$d00f                   ; 0xd00f <__heap_start+0xb12d>
     a35: 9c 92 1e     	stz	$1e92                   ; 0x1e92 <__bss_start>
     a38: a2 04        	ldx	#$4
     a3a: 8e 93 1e     	stx	$1e93                   ; 0x1e93 <__bss_start+0x1>
     a3d: a0 01        	ldy	#$1
     a3f: 8c 94 1e     	sty	$1e94                   ; 0x1e94 <__bss_start+0x2>
     a42: 9c 95 1e     	stz	$1e95                   ; 0x1e95 <__bss_start+0x3>
     a45: 9c 01 d1     	stz	$d101                   ; 0xd101 <__heap_start+0xb21f>
     a48: 8e 02 d1     	stx	$d102                   ; 0xd102 <__heap_start+0xb220>
     a4b: 86 12        	stx	$12                     ; 0x12 <__rc2>
     a4d: 8c 03 d1     	sty	$d103                   ; 0xd103 <__heap_start+0xb221>
     a50: a2 01        	ldx	#$1
     a52: 86 13        	stx	$13                     ; 0x13 <__rc3>
     a54: 9c 96 1e     	stz	$1e96                   ; 0x1e96 <__bss_start+0x4>
     a57: a0 40        	ldy	#$40
     a59: 8c 97 1e     	sty	$1e97                   ; 0x1e97 <__bss_start+0x5>
     a5c: e8           	inx
     a5d: 8e 98 1e     	stx	$1e98                   ; 0x1e98 <__bss_start+0x6>
     a60: 9c 99 1e     	stz	$1e99                   ; 0x1e99 <__bss_start+0x7>
     a63: 9c 09 d1     	stz	$d109                   ; 0xd109 <__heap_start+0xb227>
     a66: 8c 0a d1     	sty	$d10a                   ; 0xd10a <__heap_start+0xb228>
     a69: 8e 0b d1     	stx	$d10b                   ; 0xd10b <__heap_start+0xb229>
     a6c: 9c 9a 1e     	stz	$1e9a                   ; 0x1e9a <__bss_start+0x8>
     a6f: a0 80        	ldy	#$80
     a71: 8c 9b 1e     	sty	$1e9b                   ; 0x1e9b <__bss_start+0x9>
     a74: a9 03        	lda	#$3
     a76: 8d 9c 1e     	sta	$1e9c                   ; 0x1e9c <__bss_start+0xa>
     a79: 9c 9d 1e     	stz	$1e9d                   ; 0x1e9d <__bss_start+0xb>
     a7c: 9c 11 d1     	stz	$d111                   ; 0xd111 <__heap_start+0xb22f>
     a7f: 8c 12 d1     	sty	$d112                   ; 0xd112 <__heap_start+0xb230>
     a82: 8d 13 d1     	sta	$d113                   ; 0xd113 <__heap_start+0xb231>
     a85: 64 bd        	stz	$bd                     ; 0xbd <_active>
     a87: 64 be        	stz	$be                     ; 0xbe <_BITMAP_CLUT>
     a89: ad 00 d1     	lda	$d100                   ; 0xd100 <__heap_start+0xb21e>
     a8c: 29 f9        	and	#$f9
     a8e: 8d 00 d1     	sta	$d100                   ; 0xd100 <__heap_start+0xb21e>
     a91: a4 13        	ldy	$13                     ; 0x13 <__rc3>
     a93: 84 bd        	sty	$bd                     ; 0xbd <_active>
     a95: 64 bf        	stz	$bf                     ; 0xbf <_BITMAP_CLUT+0x1>
     a97: ad 08 d1     	lda	$d108                   ; 0xd108 <__heap_start+0xb226>
     a9a: 29 f9        	and	#$f9
     a9c: 8d 08 d1     	sta	$d108                   ; 0xd108 <__heap_start+0xb226>
     a9f: 86 bd        	stx	$bd                     ; 0xbd <_active>
     aa1: 64 c0        	stz	$c0                     ; 0xc0 <_BITMAP_CLUT+0x2>
     aa3: ad 10 d1     	lda	$d110                   ; 0xd110 <__heap_start+0xb22e>
     aa6: 29 f9        	and	#$f9
     aa8: 8d 10 d1     	sta	$d110                   ; 0xd110 <__heap_start+0xb22e>
     aab: a9 01        	lda	#$1
     aad: 05 be        	ora	$be                     ; 0xbe <_BITMAP_CLUT>
     aaf: 8d 00 d1     	sta	$d100                   ; 0xd100 <__heap_start+0xb21e>
     ab2: a9 01        	lda	#$1
     ab4: 05 bf        	ora	$bf                     ; 0xbf <_BITMAP_CLUT+0x1>
     ab6: 8d 08 d1     	sta	$d108                   ; 0xd108 <__heap_start+0xb226>
     ab9: a5 13        	lda	$13                     ; 0x13 <__rc3>
     abb: 05 c0        	ora	$c0                     ; 0xc0 <_BITMAP_CLUT+0x2>
     abd: 8d 10 d1     	sta	$d110                   ; 0xd110 <__heap_start+0xb22e>
     ac0: a2 10        	ldx	#$10
     ac2: 86 c3        	stx	$c3                     ; 0xc3 <_tileSize+0x2>
     ac4: 9c 19 d2     	stz	$d219                   ; 0xd219 <__heap_start+0xb337>
     ac7: a9 bf        	lda	#$bf
     ac9: 8d 1a d2     	sta	$d21a                   ; 0xd21a <__heap_start+0xb338>
     acc: a4 12        	ldy	$12                     ; 0x12 <__rc2>
     ace: 8c 1b d2     	sty	$d21b                   ; 0xd21b <__heap_start+0xb339>
     ad1: a2 28        	ldx	#$28
     ad3: 8e 1c d2     	stx	$d21c                   ; 0xd21c <__heap_start+0xb33a>
     ad6: 9c 1d d2     	stz	$d21d                   ; 0xd21d <__heap_start+0xb33b>
     ad9: a2 11        	ldx	#$11
     adb: 8e 1e d2     	stx	$d21e                   ; 0xd21e <__heap_start+0xb33c>
     ade: 9c 1f d2     	stz	$d21f                   ; 0xd21f <__heap_start+0xb33d>
     ae1: 9c 20 d2     	stz	$d220                   ; 0xd220 <__heap_start+0xb33e>
     ae4: 9c 21 d2     	stz	$d221                   ; 0xd221 <__heap_start+0xb33f>
     ae7: 9c 22 d2     	stz	$d222                   ; 0xd222 <__heap_start+0xb340>
     aea: 9c 23 d2     	stz	$d223                   ; 0xd223 <__heap_start+0xb341>
     aed: 9c 80 d2     	stz	$d280                   ; 0xd280 <__heap_start+0xb39e>
     af0: a2 b4        	ldx	#$b4
     af2: 8e 81 d2     	stx	$d281                   ; 0xd281 <__heap_start+0xb39f>
     af5: 8c 82 d2     	sty	$d282                   ; 0xd282 <__heap_start+0xb3a0>
     af8: 9c 83 d2     	stz	$d283                   ; 0xd283 <__heap_start+0xb3a1>
     afb: a0 01        	ldy	#$1
     afd: a9 00        	lda	#$0
     aff: 64 12        	stz	$12                     ; 0x12 <__rc2>
     b01: 80 09        	bra	$b0c <setup+0x17a>
     b03: e6 12        	inc	$12                     ; 0x12 <__rc2>
     b05: a6 12        	ldx	$12                     ; 0x12 <__rc2>
     b07: d0 03        	bne	$b0c <setup+0x17a>
     b09: 4c a2 0b     	jmp	$ba2 <setup+0x210>
     b0c: 85 18        	sta	$18                     ; 0x18 <__rc8>
     b0e: 0a           	asl
     b0f: a6 12        	ldx	$12                     ; 0x12 <__rc2>
     b11: 86 13        	stx	$13                     ; 0x13 <__rc3>
     b13: 26 13        	rol	$13                     ; 0x13 <__rc3>
     b15: 0a           	asl
     b16: 26 13        	rol	$13                     ; 0x13 <__rc3>
     b18: 0a           	asl
     b19: 26 13        	rol	$13                     ; 0x13 <__rc3>
     b1b: 0a           	asl
     b1c: 85 14        	sta	$14                     ; 0x14 <__rc4>
     b1e: 26 13        	rol	$13                     ; 0x13 <__rc3>
     b20: a6 13        	ldx	$13                     ; 0x13 <__rc3>
     b22: 86 15        	stx	$15                     ; 0x15 <__rc5>
     b24: 0a           	asl
     b25: aa           	tax
     b26: a5 13        	lda	$13                     ; 0x13 <__rc3>
     b28: 2a           	rol
     b29: 86 13        	stx	$13                     ; 0x13 <__rc3>
     b2b: 06 13        	asl	$13                     ; 0x13 <__rc3>
     b2d: 2a           	rol
     b2e: aa           	tax
     b2f: 18           	clc
     b30: a9 01        	lda	#$1
     b32: b0 02        	bcs	$b36 <setup+0x1a4>
     b34: a9 00        	lda	#$0
     b36: 85 19        	sta	$19                     ; 0x19 <__rc9>
     b38: a5 13        	lda	$13                     ; 0x13 <__rc3>
     b3a: 65 14        	adc	$14                     ; 0x14 <__rc4>
     b3c: 85 13        	sta	$13                     ; 0x13 <__rc3>
     b3e: 8a           	txa
     b3f: 65 15        	adc	$15                     ; 0x15 <__rc5>
     b41: 85 14        	sta	$14                     ; 0x14 <__rc4>
     b43: 64 15        	stz	$15                     ; 0x15 <__rc5>
     b45: a6 15        	ldx	$15                     ; 0x15 <__rc5>
     b47: a5 15        	lda	$15                     ; 0x15 <__rc5>
     b49: 5a           	phy
     b4a: a4 19        	ldy	$19                     ; 0x19 <__rc9>
     b4c: c0 01        	cpy	#$1
     b4e: 7a           	ply
     b4f: 65 13        	adc	$13                     ; 0x13 <__rc3>
     b51: 85 1a        	sta	$1a                     ; 0x1a <__rc10>
     b53: a9 bf        	lda	#$bf
     b55: 65 14        	adc	$14                     ; 0x14 <__rc4>
     b57: 85 17        	sta	$17                     ; 0x17 <__rc7>
     b59: 86 16        	stx	$16                     ; 0x16 <__rc6>
     b5b: a9 04        	lda	#$4
     b5d: 69 00        	adc	#$0
     b5f: a6 17        	ldx	$17                     ; 0x17 <__rc7>
     b61: 86 15        	stx	$15                     ; 0x15 <__rc5>
     b63: 06 15        	asl	$15                     ; 0x15 <__rc5>
     b65: 2a           	rol
     b66: 06 15        	asl	$15                     ; 0x15 <__rc5>
     b68: 2a           	rol
     b69: 06 15        	asl	$15                     ; 0x15 <__rc5>
     b6b: 2a           	rol
     b6c: a6 0f        	ldx	$f                      ; 0xf <__data_size+0xc>
     b6e: 78           	sei
     b6f: 85 0f        	sta	$f                      ; 0xf <__data_size+0xc>
     b71: a5 16        	lda	$16                     ; 0x16 <__rc6>
     b73: 85 15        	sta	$15                     ; 0x15 <__rc5>
     b75: a5 1a        	lda	$1a                     ; 0x1a <__rc10>
     b77: 85 16        	sta	$16                     ; 0x16 <__rc6>
     b79: a5 17        	lda	$17                     ; 0x17 <__rc7>
     b7b: 09 e0        	ora	#$e0
     b7d: 85 17        	sta	$17                     ; 0x17 <__rc7>
     b7f: a9 00        	lda	#$0
     b81: 92 16        	sta	($16)                   ; 0x16 <__rc6>
     b83: 91 16        	sta	($16),y                 ; 0x16 <__rc6>
     b85: 86 0f        	stx	$f                      ; 0xf <__data_size+0xc>
     b87: 58           	cli
     b88: 18           	clc
     b89: a5 15        	lda	$15                     ; 0x15 <__rc5>
     b8b: 69 02        	adc	#$2
     b8d: 85 15        	sta	$15                     ; 0x15 <__rc5>
     b8f: c9 50        	cmp	#$50
     b91: d0 b2        	bne	$b45 <setup+0x1b3>
     b93: a5 18        	lda	$18                     ; 0x18 <__rc8>
     b95: 1a           	inc
     b96: d0 03        	bne	$b9b <setup+0x209>
     b98: 4c 03 0b     	jmp	$b03 <setup+0x171>
     b9b: a6 12        	ldx	$12                     ; 0x12 <__rc2>
     b9d: f0 03        	beq	$ba2 <setup+0x210>
     b9f: 4c 0c 0b     	jmp	$b0c <setup+0x17a>
     ba2: c9 0d        	cmp	#$d
     ba4: f0 03        	beq	$ba9 <setup+0x217>
     ba6: 4c 0c 0b     	jmp	$b0c <setup+0x17a>
     ba9: a9 0d        	lda	#$d
     bab: a0 01        	ldy	#$1
     bad: a2 01        	ldx	#$1
     baf: 64 12        	stz	$12                     ; 0x12 <__rc2>
     bb1: 85 18        	sta	$18                     ; 0x18 <__rc8>
     bb3: 0a           	asl
     bb4: 5a           	phy
     bb5: a4 12        	ldy	$12                     ; 0x12 <__rc2>
     bb7: 84 13        	sty	$13                     ; 0x13 <__rc3>
     bb9: 26 13        	rol	$13                     ; 0x13 <__rc3>
     bbb: 0a           	asl
     bbc: 26 13        	rol	$13                     ; 0x13 <__rc3>
     bbe: 0a           	asl
     bbf: 26 13        	rol	$13                     ; 0x13 <__rc3>
     bc1: 0a           	asl
     bc2: 85 14        	sta	$14                     ; 0x14 <__rc4>
     bc4: 26 13        	rol	$13                     ; 0x13 <__rc3>
     bc6: a4 13        	ldy	$13                     ; 0x13 <__rc3>
     bc8: 84 15        	sty	$15                     ; 0x15 <__rc5>
     bca: 7a           	ply
     bcb: 0a           	asl
     bcc: 85 13        	sta	$13                     ; 0x13 <__rc3>
     bce: a5 15        	lda	$15                     ; 0x15 <__rc5>
     bd0: 2a           	rol
     bd1: 06 13        	asl	$13                     ; 0x13 <__rc3>
     bd3: 2a           	rol
     bd4: 85 16        	sta	$16                     ; 0x16 <__rc6>
     bd6: 18           	clc
     bd7: a9 01        	lda	#$1
     bd9: b0 02        	bcs	$bdd <setup+0x24b>
     bdb: a9 00        	lda	#$0
     bdd: 85 19        	sta	$19                     ; 0x19 <__rc9>
     bdf: a5 13        	lda	$13                     ; 0x13 <__rc3>
     be1: 65 14        	adc	$14                     ; 0x14 <__rc4>
     be3: 85 13        	sta	$13                     ; 0x13 <__rc3>
     be5: a5 16        	lda	$16                     ; 0x16 <__rc6>
     be7: 65 15        	adc	$15                     ; 0x15 <__rc5>
     be9: 85 14        	sta	$14                     ; 0x14 <__rc4>
     beb: 64 15        	stz	$15                     ; 0x15 <__rc5>
     bed: 86 1a        	stx	$1a                     ; 0x1a <__rc10>
     bef: a6 15        	ldx	$15                     ; 0x15 <__rc5>
     bf1: a5 15        	lda	$15                     ; 0x15 <__rc5>
     bf3: 5a           	phy
     bf4: a4 19        	ldy	$19                     ; 0x19 <__rc9>
     bf6: c0 01        	cpy	#$1
     bf8: 7a           	ply
     bf9: 65 13        	adc	$13                     ; 0x13 <__rc3>
     bfb: 85 17        	sta	$17                     ; 0x17 <__rc7>
     bfd: a9 bf        	lda	#$bf
     bff: 65 14        	adc	$14                     ; 0x14 <__rc4>
     c01: 85 1b        	sta	$1b                     ; 0x1b <__rc11>
     c03: 86 16        	stx	$16                     ; 0x16 <__rc6>
     c05: a9 04        	lda	#$4
     c07: 69 00        	adc	#$0
     c09: a6 1b        	ldx	$1b                     ; 0x1b <__rc11>
     c0b: 86 15        	stx	$15                     ; 0x15 <__rc5>
     c0d: 06 15        	asl	$15                     ; 0x15 <__rc5>
     c0f: 2a           	rol
     c10: 06 15        	asl	$15                     ; 0x15 <__rc5>
     c12: 2a           	rol
     c13: 06 15        	asl	$15                     ; 0x15 <__rc5>
     c15: 2a           	rol
     c16: a6 0f        	ldx	$f                      ; 0xf <__data_size+0xc>
     c18: 78           	sei
     c19: 85 0f        	sta	$f                      ; 0xf <__data_size+0xc>
     c1b: a5 16        	lda	$16                     ; 0x16 <__rc6>
     c1d: 85 15        	sta	$15                     ; 0x15 <__rc5>
     c1f: a5 17        	lda	$17                     ; 0x17 <__rc7>
     c21: 85 16        	sta	$16                     ; 0x16 <__rc6>
     c23: a5 1b        	lda	$1b                     ; 0x1b <__rc11>
     c25: 09 e0        	ora	#$e0
     c27: 85 17        	sta	$17                     ; 0x17 <__rc7>
     c29: a5 1a        	lda	$1a                     ; 0x1a <__rc10>
     c2b: 92 16        	sta	($16)                   ; 0x16 <__rc6>
     c2d: a9 00        	lda	#$0
     c2f: 91 16        	sta	($16),y                 ; 0x16 <__rc6>
     c31: 86 0f        	stx	$f                      ; 0xf <__data_size+0xc>
     c33: 58           	cli
     c34: 18           	clc
     c35: a5 15        	lda	$15                     ; 0x15 <__rc5>
     c37: 69 02        	adc	#$2
     c39: 85 15        	sta	$15                     ; 0x15 <__rc5>
     c3b: c9 50        	cmp	#$50
     c3d: f0 03        	beq	$c42 <setup+0x2b0>
     c3f: 4c ef 0b     	jmp	$bef <setup+0x25d>
     c42: a2 01        	ldx	#$1
     c44: a5 18        	lda	$18                     ; 0x18 <__rc8>
     c46: 1a           	inc
     c47: d0 02        	bne	$c4b <setup+0x2b9>
     c49: e6 12        	inc	$12                     ; 0x12 <__rc2>
     c4b: e6 12        	inc	$12                     ; 0x12 <__rc2>
     c4d: c6 12        	dec	$12                     ; 0x12 <__rc2>
     c4f: f0 03        	beq	$c54 <setup+0x2c2>
     c51: 4c b1 0b     	jmp	$bb1 <setup+0x21f>
     c54: c9 11        	cmp	#$11
     c56: f0 03        	beq	$c5b <setup+0x2c9>
     c58: 4c b1 0b     	jmp	$bb1 <setup+0x21f>
     c5b: a0 e0        	ldy	#$e0
     c5d: a2 08        	ldx	#$8
     c5f: 86 17        	stx	$17                     ; 0x17 <__rc7>
     c61: 86 12        	stx	$12                     ; 0x12 <__rc2>
     c63: 84 13        	sty	$13                     ; 0x13 <__rc3>
     c65: a6 0f        	ldx	$f                      ; 0xf <__data_size+0xc>
     c67: 78           	sei
     c68: a9 26        	lda	#$26
     c6a: 85 0f        	sta	$f                      ; 0xf <__data_size+0xc>
     c6c: 85 18        	sta	$18                     ; 0x18 <__rc8>
     c6e: a5 17        	lda	$17                     ; 0x17 <__rc7>
     c70: 18           	clc
     c71: 69 7c        	adc	#$7c
     c73: 85 14        	sta	$14                     ; 0x14 <__rc4>
     c75: 84 16        	sty	$16                     ; 0x16 <__rc6>
     c77: 98           	tya
     c78: 69 01        	adc	#$1
     c7a: 85 15        	sta	$15                     ; 0x15 <__rc5>
     c7c: a9 06        	lda	#$6
     c7e: 92 14        	sta	($14)                   ; 0x14 <__rc4>
     c80: a0 01        	ldy	#$1
     c82: a9 00        	lda	#$0
     c84: 91 14        	sta	($14),y                 ; 0x14 <__rc4>
     c86: 84 19        	sty	$19                     ; 0x19 <__rc9>
     c88: 86 0f        	stx	$f                      ; 0xf <__data_size+0xc>
     c8a: 58           	cli
     c8b: a6 0f        	ldx	$f                      ; 0xf <__data_size+0xc>
     c8d: 78           	sei
     c8e: a4 18        	ldy	$18                     ; 0x18 <__rc8>
     c90: 84 0f        	sty	$f                      ; 0xf <__data_size+0xc>
     c92: a5 17        	lda	$17                     ; 0x17 <__rc7>
     c94: 18           	clc
     c95: 69 7e        	adc	#$7e
     c97: 85 14        	sta	$14                     ; 0x14 <__rc4>
     c99: a5 16        	lda	$16                     ; 0x16 <__rc6>
     c9b: 69 01        	adc	#$1
     c9d: 85 15        	sta	$15                     ; 0x15 <__rc5>
     c9f: a9 07        	lda	#$7
     ca1: 92 14        	sta	($14)                   ; 0x14 <__rc4>
     ca3: a9 00        	lda	#$0
     ca5: a4 19        	ldy	$19                     ; 0x19 <__rc9>
     ca7: 91 14        	sta	($14),y                 ; 0x14 <__rc4>
     ca9: 86 0f        	stx	$f                      ; 0xf <__data_size+0xc>
     cab: 58           	cli
     cac: a6 0f        	ldx	$f                      ; 0xf <__data_size+0xc>
     cae: 78           	sei
     caf: a4 18        	ldy	$18                     ; 0x18 <__rc8>
     cb1: 84 0f        	sty	$f                      ; 0xf <__data_size+0xc>
     cb3: a5 17        	lda	$17                     ; 0x17 <__rc7>
     cb5: 18           	clc
     cb6: 69 80        	adc	#$80
     cb8: 85 14        	sta	$14                     ; 0x14 <__rc4>
     cba: a5 16        	lda	$16                     ; 0x16 <__rc6>
     cbc: 69 01        	adc	#$1
     cbe: 85 15        	sta	$15                     ; 0x15 <__rc5>
     cc0: a9 08        	lda	#$8
     cc2: 92 14        	sta	($14)                   ; 0x14 <__rc4>
     cc4: a9 00        	lda	#$0
     cc6: a4 19        	ldy	$19                     ; 0x19 <__rc9>
     cc8: 91 14        	sta	($14),y                 ; 0x14 <__rc4>
     cca: 86 0f        	stx	$f                      ; 0xf <__data_size+0xc>
     ccc: 58           	cli
     ccd: a6 0f        	ldx	$f                      ; 0xf <__data_size+0xc>
     ccf: 78           	sei
     cd0: a5 18        	lda	$18                     ; 0x18 <__rc8>
     cd2: 85 0f        	sta	$f                      ; 0xf <__data_size+0xc>
     cd4: a5 17        	lda	$17                     ; 0x17 <__rc7>
     cd6: 18           	clc
     cd7: 69 44        	adc	#$44
     cd9: 85 14        	sta	$14                     ; 0x14 <__rc4>
     cdb: a5 16        	lda	$16                     ; 0x16 <__rc6>
     cdd: 69 00        	adc	#$0
     cdf: 85 15        	sta	$15                     ; 0x15 <__rc5>
     ce1: a9 02        	lda	#$2
     ce3: 92 14        	sta	($14)                   ; 0x14 <__rc4>
     ce5: 85 19        	sta	$19                     ; 0x19 <__rc9>
     ce7: a9 00        	lda	#$0
     ce9: 91 14        	sta	($14),y                 ; 0x14 <__rc4>
     ceb: 86 0f        	stx	$f                      ; 0xf <__data_size+0xc>
     ced: 58           	cli
     cee: a6 0f        	ldx	$f                      ; 0xf <__data_size+0xc>
     cf0: 78           	sei
     cf1: a5 18        	lda	$18                     ; 0x18 <__rc8>
     cf3: 85 0f        	sta	$f                      ; 0xf <__data_size+0xc>
     cf5: a5 17        	lda	$17                     ; 0x17 <__rc7>
     cf7: 18           	clc
     cf8: 69 46        	adc	#$46
     cfa: 85 14        	sta	$14                     ; 0x14 <__rc4>
     cfc: a5 16        	lda	$16                     ; 0x16 <__rc6>
     cfe: 69 00        	adc	#$0
     d00: 85 15        	sta	$15                     ; 0x15 <__rc5>
     d02: a9 03        	lda	#$3
     d04: 92 14        	sta	($14)                   ; 0x14 <__rc4>
     d06: 85 1a        	sta	$1a                     ; 0x1a <__rc10>
     d08: a9 00        	lda	#$0
     d0a: 91 14        	sta	($14),y                 ; 0x14 <__rc4>
     d0c: 86 0f        	stx	$f                      ; 0xf <__data_size+0xc>
     d0e: 58           	cli
     d0f: a6 0f        	ldx	$f                      ; 0xf <__data_size+0xc>
     d11: 78           	sei
     d12: a5 18        	lda	$18                     ; 0x18 <__rc8>
     d14: 85 0f        	sta	$f                      ; 0xf <__data_size+0xc>
     d16: a5 17        	lda	$17                     ; 0x17 <__rc7>
     d18: 18           	clc
     d19: 69 94        	adc	#$94
     d1b: 85 14        	sta	$14                     ; 0x14 <__rc4>
     d1d: a5 16        	lda	$16                     ; 0x16 <__rc6>
     d1f: 69 00        	adc	#$0
     d21: 85 15        	sta	$15                     ; 0x15 <__rc5>
     d23: a9 04        	lda	#$4
     d25: 92 14        	sta	($14)                   ; 0x14 <__rc4>
     d27: 85 1b        	sta	$1b                     ; 0x1b <__rc11>
     d29: a9 00        	lda	#$0
     d2b: 91 14        	sta	($14),y                 ; 0x14 <__rc4>
     d2d: 86 0f        	stx	$f                      ; 0xf <__data_size+0xc>
     d2f: 58           	cli
     d30: a6 0f        	ldx	$f                      ; 0xf <__data_size+0xc>
     d32: 78           	sei
     d33: a5 18        	lda	$18                     ; 0x18 <__rc8>
     d35: 85 0f        	sta	$f                      ; 0xf <__data_size+0xc>
     d37: 85 1c        	sta	$1c                     ; 0x1c <__rc12>
     d39: a5 17        	lda	$17                     ; 0x17 <__rc7>
     d3b: 18           	clc
     d3c: 69 96        	adc	#$96
     d3e: 85 14        	sta	$14                     ; 0x14 <__rc4>
     d40: a5 16        	lda	$16                     ; 0x16 <__rc6>
     d42: 69 00        	adc	#$0
     d44: 85 15        	sta	$15                     ; 0x15 <__rc5>
     d46: a9 05        	lda	#$5
     d48: 92 14        	sta	($14)                   ; 0x14 <__rc4>
     d4a: 85 18        	sta	$18                     ; 0x18 <__rc8>
     d4c: a9 00        	lda	#$0
     d4e: 91 14        	sta	($14),y                 ; 0x14 <__rc4>
     d50: 86 0f        	stx	$f                      ; 0xf <__data_size+0xc>
     d52: 58           	cli
     d53: a6 0f        	ldx	$f                      ; 0xf <__data_size+0xc>
     d55: 78           	sei
     d56: a5 1c        	lda	$1c                     ; 0x1c <__rc12>
     d58: 85 0f        	sta	$f                      ; 0xf <__data_size+0xc>
     d5a: a9 09        	lda	#$9
     d5c: 92 12        	sta	($12)                   ; 0x12 <__rc2>
     d5e: a9 00        	lda	#$0
     d60: 91 12        	sta	($12),y                 ; 0x12 <__rc2>
     d62: 86 0f        	stx	$f                      ; 0xf <__data_size+0xc>
     d64: 58           	cli
     d65: a6 0f        	ldx	$f                      ; 0xf <__data_size+0xc>
     d67: 78           	sei
     d68: a5 1c        	lda	$1c                     ; 0x1c <__rc12>
     d6a: 85 0f        	sta	$f                      ; 0xf <__data_size+0xc>
     d6c: 85 14        	sta	$14                     ; 0x14 <__rc4>
     d6e: a5 17        	lda	$17                     ; 0x17 <__rc7>
     d70: 09 02        	ora	#$2
     d72: 85 12        	sta	$12                     ; 0x12 <__rc2>
     d74: a5 16        	lda	$16                     ; 0x16 <__rc6>
     d76: 85 13        	sta	$13                     ; 0x13 <__rc3>
     d78: a9 0a        	lda	#$a
     d7a: 92 12        	sta	($12)                   ; 0x12 <__rc2>
     d7c: a9 00        	lda	#$0
     d7e: 91 12        	sta	($12),y                 ; 0x12 <__rc2>
     d80: 84 15        	sty	$15                     ; 0x15 <__rc5>
     d82: 86 0f        	stx	$f                      ; 0xf <__data_size+0xc>
     d84: 58           	cli
     d85: a6 0f        	ldx	$f                      ; 0xf <__data_size+0xc>
     d87: 78           	sei
     d88: a4 14        	ldy	$14                     ; 0x14 <__rc4>
     d8a: 84 0f        	sty	$f                      ; 0xf <__data_size+0xc>
     d8c: a5 17        	lda	$17                     ; 0x17 <__rc7>
     d8e: 18           	clc
     d8f: 69 8e        	adc	#$8e
     d91: 85 12        	sta	$12                     ; 0x12 <__rc2>
     d93: a5 16        	lda	$16                     ; 0x16 <__rc6>
     d95: 69 01        	adc	#$1
     d97: 85 13        	sta	$13                     ; 0x13 <__rc3>
     d99: a5 19        	lda	$19                     ; 0x19 <__rc9>
     d9b: 92 12        	sta	($12)                   ; 0x12 <__rc2>
     d9d: a9 00        	lda	#$0
     d9f: a4 15        	ldy	$15                     ; 0x15 <__rc5>
     da1: 91 12        	sta	($12),y                 ; 0x12 <__rc2>
     da3: 86 0f        	stx	$f                      ; 0xf <__data_size+0xc>
     da5: 58           	cli
     da6: a6 0f        	ldx	$f                      ; 0xf <__data_size+0xc>
     da8: 78           	sei
     da9: a4 14        	ldy	$14                     ; 0x14 <__rc4>
     dab: 84 0f        	sty	$f                      ; 0xf <__data_size+0xc>
     dad: 84 19        	sty	$19                     ; 0x19 <__rc9>
     daf: a5 17        	lda	$17                     ; 0x17 <__rc7>
     db1: 18           	clc
     db2: 69 90        	adc	#$90
     db4: 85 12        	sta	$12                     ; 0x12 <__rc2>
     db6: a5 16        	lda	$16                     ; 0x16 <__rc6>
     db8: 69 01        	adc	#$1
     dba: 85 13        	sta	$13                     ; 0x13 <__rc3>
     dbc: a5 1a        	lda	$1a                     ; 0x1a <__rc10>
     dbe: 92 12        	sta	($12)                   ; 0x12 <__rc2>
     dc0: a9 00        	lda	#$0
     dc2: a4 15        	ldy	$15                     ; 0x15 <__rc5>
     dc4: 91 12        	sta	($12),y                 ; 0x12 <__rc2>
     dc6: a5 15        	lda	$15                     ; 0x15 <__rc5>
     dc8: 85 14        	sta	$14                     ; 0x14 <__rc4>
     dca: 86 0f        	stx	$f                      ; 0xf <__data_size+0xc>
     dcc: 58           	cli
     dcd: a6 0f        	ldx	$f                      ; 0xf <__data_size+0xc>
     dcf: 78           	sei
     dd0: a4 19        	ldy	$19                     ; 0x19 <__rc9>
     dd2: 84 0f        	sty	$f                      ; 0xf <__data_size+0xc>
     dd4: a5 17        	lda	$17                     ; 0x17 <__rc7>
     dd6: 18           	clc
     dd7: 69 de        	adc	#$de
     dd9: 85 12        	sta	$12                     ; 0x12 <__rc2>
     ddb: a5 16        	lda	$16                     ; 0x16 <__rc6>
     ddd: 69 01        	adc	#$1
     ddf: 85 13        	sta	$13                     ; 0x13 <__rc3>
     de1: a5 1b        	lda	$1b                     ; 0x1b <__rc11>
     de3: 92 12        	sta	($12)                   ; 0x12 <__rc2>
     de5: a9 00        	lda	#$0
     de7: a4 14        	ldy	$14                     ; 0x14 <__rc4>
     de9: 91 12        	sta	($12),y                 ; 0x12 <__rc2>
     deb: 86 0f        	stx	$f                      ; 0xf <__data_size+0xc>
     ded: a5 17        	lda	$17                     ; 0x17 <__rc7>
     def: 18           	clc
     df0: 69 e0        	adc	#$e0
     df2: 85 12        	sta	$12                     ; 0x12 <__rc2>
     df4: a5 16        	lda	$16                     ; 0x16 <__rc6>
     df6: 69 01        	adc	#$1
     df8: 85 13        	sta	$13                     ; 0x13 <__rc3>
     dfa: 58           	cli
     dfb: a6 0f        	ldx	$f                      ; 0xf <__data_size+0xc>
     dfd: 78           	sei
     dfe: a5 19        	lda	$19                     ; 0x19 <__rc9>
     e00: 85 0f        	sta	$f                      ; 0xf <__data_size+0xc>
     e02: a5 18        	lda	$18                     ; 0x18 <__rc8>
     e04: 92 12        	sta	($12)                   ; 0x12 <__rc2>
     e06: a9 00        	lda	#$0
     e08: 91 12        	sta	($12),y                 ; 0x12 <__rc2>
     e0a: 86 0f        	stx	$f                      ; 0xf <__data_size+0xc>
     e0c: 58           	cli
     e0d: 18           	clc
     e0e: a5 17        	lda	$17                     ; 0x17 <__rc7>
     e10: 69 28        	adc	#$28
     e12: 85 12        	sta	$12                     ; 0x12 <__rc2>
     e14: a5 16        	lda	$16                     ; 0x16 <__rc6>
     e16: 69 00        	adc	#$0
     e18: a8           	tay
     e19: a6 12        	ldx	$12                     ; 0x12 <__rc2>
     e1b: a5 12        	lda	$12                     ; 0x12 <__rc2>
     e1d: c9 30        	cmp	#$30
     e1f: d0 03        	bne	$e24 <setup+0x492>
     e21: 4c 5f 0c     	jmp	$c5f <setup+0x2cd>
     e24: a2 a0        	ldx	#$a0
     e26: 8e 20 d2     	stx	$d220                   ; 0xd220 <__heap_start+0xb33e>
     e29: 9c 21 d2     	stz	$d221                   ; 0xd221 <__heap_start+0xb33f>
     e2c: 9c 22 d2     	stz	$d222                   ; 0xd222 <__heap_start+0xb340>
     e2f: 9c 23 d2     	stz	$d223                   ; 0xd223 <__heap_start+0xb341>
     e32: a2 48        	ldx	#$48
     e34: 8e a1 1e     	stx	$1ea1                   ; 0x1ea1 <_spriteCtl>
     e37: 8e 00 d9     	stx	$d900                   ; 0xd900 <__heap_start+0xba1e>
     e3a: 86 12        	stx	$12                     ; 0x12 <__rc2>
     e3c: 9c 01 d9     	stz	$d901                   ; 0xd901 <__heap_start+0xba1f>
     e3f: a2 6c        	ldx	#$6c
     e41: 8e 02 d9     	stx	$d902                   ; 0xd902 <__heap_start+0xba20>
     e44: 86 13        	stx	$13                     ; 0x13 <__rc3>
     e46: a0 03        	ldy	#$3
     e48: 8c 03 d9     	sty	$d903                   ; 0xd903 <__heap_start+0xba21>
     e4b: a2 03        	ldx	#$3
     e4d: a0 64        	ldy	#$64
     e4f: 8c 04 d9     	sty	$d904                   ; 0xd904 <__heap_start+0xba22>
     e52: 9c 05 d9     	stz	$d905                   ; 0xd905 <__heap_start+0xba23>
     e55: a0 d8        	ldy	#$d8
     e57: 8c 06 d9     	sty	$d906                   ; 0xd906 <__heap_start+0xba24>
     e5a: 9c 07 d9     	stz	$d907                   ; 0xd907 <__heap_start+0xba25>
     e5d: a9 01        	lda	#$1
     e5f: 0d a1 1e     	ora	$1ea1                   ; 0x1ea1 <_spriteCtl>
     e62: 8d 00 d9     	sta	$d900                   ; 0xd900 <__heap_start+0xba1e>
     e65: a0 40        	ldy	#$40
     e67: 8c a2 1e     	sty	$1ea2                   ; 0x1ea2 <_spriteCtl+0x1>
     e6a: 8c 08 d9     	sty	$d908                   ; 0xd908 <__heap_start+0xba26>
     e6d: 9c 09 d9     	stz	$d909                   ; 0xd909 <__heap_start+0xba27>
     e70: a5 13        	lda	$13                     ; 0x13 <__rc3>
     e72: 8d 0a d9     	sta	$d90a                   ; 0xd90a <__heap_start+0xba28>
     e75: 8e 0b d9     	stx	$d90b                   ; 0xd90b <__heap_start+0xba29>
     e78: a9 32        	lda	#$32
     e7a: 8d 0c d9     	sta	$d90c                   ; 0xd90c <__heap_start+0xba2a>
     e7d: 85 14        	sta	$14                     ; 0x14 <__rc4>
     e7f: 9c 0d d9     	stz	$d90d                   ; 0xd90d <__heap_start+0xba2b>
     e82: a9 e8        	lda	#$e8
     e84: 8d 0e d9     	sta	$d90e                   ; 0xd90e <__heap_start+0xba2c>
     e87: 9c 0f d9     	stz	$d90f                   ; 0xd90f <__heap_start+0xba2d>
     e8a: a9 01        	lda	#$1
     e8c: 0d a2 1e     	ora	$1ea2                   ; 0x1ea2 <_spriteCtl+0x1>
     e8f: 8d 08 d9     	sta	$d908                   ; 0xd908 <__heap_start+0xba26>
     e92: 8c a3 1e     	sty	$1ea3                   ; 0x1ea3 <_spriteCtl+0x2>
     e95: 8c 10 d9     	sty	$d910                   ; 0xd910 <__heap_start+0xba2e>
     e98: 9c 11 d9     	stz	$d911                   ; 0xd911 <__heap_start+0xba2f>
     e9b: a5 13        	lda	$13                     ; 0x13 <__rc3>
     e9d: 8d 12 d9     	sta	$d912                   ; 0xd912 <__heap_start+0xba30>
     ea0: 8e 13 d9     	stx	$d913                   ; 0xd913 <__heap_start+0xba31>
     ea3: a2 14        	ldx	#$14
     ea5: 8e 14 d9     	stx	$d914                   ; 0xd914 <__heap_start+0xba32>
     ea8: 9c 15 d9     	stz	$d915                   ; 0xd915 <__heap_start+0xba33>
     eab: a2 f8        	ldx	#$f8
     ead: 8e 16 d9     	stx	$d916                   ; 0xd916 <__heap_start+0xba34>
     eb0: 9c 17 d9     	stz	$d917                   ; 0xd917 <__heap_start+0xba35>
     eb3: a9 01        	lda	#$1
     eb5: 0d a3 1e     	ora	$1ea3                   ; 0x1ea3 <_spriteCtl+0x2>
     eb8: 8d 10 d9     	sta	$d910                   ; 0xd910 <__heap_start+0xba2e>
     ebb: a2 50        	ldx	#$50
     ebd: 8e a4 1e     	stx	$1ea4                   ; 0x1ea4 <_spriteCtl+0x3>
     ec0: 8e 18 d9     	stx	$d918                   ; 0xd918 <__heap_start+0xba36>
     ec3: 9c 19 d9     	stz	$d919                   ; 0xd919 <__heap_start+0xba37>
     ec6: a2 ac        	ldx	#$ac
     ec8: 8e 1a d9     	stx	$d91a                   ; 0xd91a <__heap_start+0xba38>
     ecb: 86 15        	stx	$15                     ; 0x15 <__rc5>
     ecd: a2 04        	ldx	#$4
     ecf: 8e 1b d9     	stx	$d91b                   ; 0xd91b <__heap_start+0xba39>
     ed2: 86 16        	stx	$16                     ; 0x16 <__rc6>
     ed4: a2 2c        	ldx	#$2c
     ed6: 8e 1c d9     	stx	$d91c                   ; 0xd91c <__heap_start+0xba3a>
     ed9: a2 01        	ldx	#$1
     edb: 8e 1d d9     	stx	$d91d                   ; 0xd91d <__heap_start+0xba3b>
     ede: 86 13        	stx	$13                     ; 0x13 <__rc3>
     ee0: a6 14        	ldx	$14                     ; 0x14 <__rc4>
     ee2: 8e 1e d9     	stx	$d91e                   ; 0xd91e <__heap_start+0xba3c>
     ee5: 9c 1f d9     	stz	$d91f                   ; 0xd91f <__heap_start+0xba3d>
     ee8: a9 01        	lda	#$1
     eea: 0d a4 1e     	ora	$1ea4                   ; 0x1ea4 <_spriteCtl+0x3>
     eed: 8d 18 d9     	sta	$d918                   ; 0xd918 <__heap_start+0xba36>
     ef0: 8c a5 1e     	sty	$1ea5                   ; 0x1ea5 <_spriteCtl+0x4>
     ef3: 8c 20 d9     	sty	$d920                   ; 0xd920 <__heap_start+0xba3e>
     ef6: 9c 21 d9     	stz	$d921                   ; 0xd921 <__heap_start+0xba3f>
     ef9: a6 15        	ldx	$15                     ; 0x15 <__rc5>
     efb: 8e 22 d9     	stx	$d922                   ; 0xd922 <__heap_start+0xba40>
     efe: a6 16        	ldx	$16                     ; 0x16 <__rc6>
     f00: 8e 23 d9     	stx	$d923                   ; 0xd923 <__heap_start+0xba41>
     f03: a2 fa        	ldx	#$fa
     f05: 8e 24 d9     	stx	$d924                   ; 0xd924 <__heap_start+0xba42>
     f08: 9c 25 d9     	stz	$d925                   ; 0xd925 <__heap_start+0xba43>
     f0b: a2 96        	ldx	#$96
     f0d: 8e 26 d9     	stx	$d926                   ; 0xd926 <__heap_start+0xba44>
     f10: 9c 27 d9     	stz	$d927                   ; 0xd927 <__heap_start+0xba45>
     f13: a9 01        	lda	#$1
     f15: 0d a5 1e     	ora	$1ea5                   ; 0x1ea5 <_spriteCtl+0x4>
     f18: 8d 20 d9     	sta	$d920                   ; 0xd920 <__heap_start+0xba3e>
     f1b: a6 12        	ldx	$12                     ; 0x12 <__rc2>
     f1d: 8e a6 1e     	stx	$1ea6                   ; 0x1ea6 <_spriteCtl+0x5>
     f20: 8e 28 d9     	stx	$d928                   ; 0xd928 <__heap_start+0xba46>
     f23: 9c 29 d9     	stz	$d929                   ; 0xd929 <__heap_start+0xba47>
     f26: a6 15        	ldx	$15                     ; 0x15 <__rc5>
     f28: 8e 2a d9     	stx	$d92a                   ; 0xd92a <__heap_start+0xba48>
     f2b: a6 16        	ldx	$16                     ; 0x16 <__rc6>
     f2d: 8e 2b d9     	stx	$d92b                   ; 0xd92b <__heap_start+0xba49>
     f30: 8c 2c d9     	sty	$d92c                   ; 0xd92c <__heap_start+0xba4a>
     f33: a6 13        	ldx	$13                     ; 0x13 <__rc3>
     f35: 8e 2d d9     	stx	$d92d                   ; 0xd92d <__heap_start+0xba4b>
     f38: a6 13        	ldx	$13                     ; 0x13 <__rc3>
     f3a: 86 25        	stx	$25                     ; 0x25 <__rc21>
     f3c: a2 6e        	ldx	#$6e
     f3e: 8e 2e d9     	stx	$d92e                   ; 0xd92e <__heap_start+0xba4c>
     f41: 9c 2f d9     	stz	$d92f                   ; 0xd92f <__heap_start+0xba4d>
     f44: a9 01        	lda	#$1
     f46: 0d a6 1e     	ora	$1ea6                   ; 0x1ea6 <_spriteCtl+0x5>
     f49: 8d 28 d9     	sta	$d928                   ; 0xd928 <__heap_start+0xba46>
     f4c: 64 24        	stz	$24                     ; 0x24 <__rc20>
     f4e: 64 d2        	stz	$d2                     ; 0xd2 <sprAnim>
     f50: 64 d4        	stz	$d4                     ; 0xd4 <sprAnim+0x2>
     f52: a9 00        	lda	#$0
     f54: 20 ca 1b     	jsr	$1bca <getTimerAbsolute>
     f57: 18           	clc
     f58: 69 05        	adc	#$5
     f5a: 85 d3        	sta	$d3                     ; 0xd3 <sprAnim+0x1>
     f5c: a2 d2        	ldx	#$d2
     f5e: 86 12        	stx	$12                     ; 0x12 <__rc2>
     f60: a2 00        	ldx	#$0
     f62: 86 13        	stx	$13                     ; 0x13 <__rc3>
     f64: 20 93 1b     	jsr	$1b93 <setTimer>
     f67: 64 d5        	stz	$d5                     ; 0xd5 <sprBirdAnim>
     f69: a6 25        	ldx	$25                     ; 0x25 <__rc21>
     f6b: 86 d7        	stx	$d7                     ; 0xd7 <sprBirdAnim+0x2>
     f6d: a9 00        	lda	#$0
     f6f: 20 ca 1b     	jsr	$1bca <getTimerAbsolute>
     f72: 18           	clc
     f73: 69 03        	adc	#$3
     f75: 85 d6        	sta	$d6                     ; 0xd6 <sprBirdAnim+0x1>
     f77: a2 d5        	ldx	#$d5
     f79: 86 12        	stx	$12                     ; 0x12 <__rc2>
     f7b: a2 00        	ldx	#$0
     f7d: 86 13        	stx	$13                     ; 0x13 <__rc3>
     f7f: 20 93 1b     	jsr	$1b93 <setTimer>
     f82: 64 d8        	stz	$d8                     ; 0xd8 <tileAnim>
     f84: a2 02        	ldx	#$2
     f86: 86 da        	stx	$da                     ; 0xda <tileAnim+0x2>
     f88: 86 25        	stx	$25                     ; 0x25 <__rc21>
     f8a: a9 00        	lda	#$0
     f8c: 20 ca 1b     	jsr	$1bca <getTimerAbsolute>
     f8f: 18           	clc
     f90: 69 02        	adc	#$2
     f92: 85 d9        	sta	$d9                     ; 0xd9 <tileAnim+0x1>
     f94: a2 d8        	ldx	#$d8
     f96: 86 12        	stx	$12                     ; 0x12 <__rc2>
     f98: a2 00        	ldx	#$0
     f9a: 86 13        	stx	$13                     ; 0x13 <__rc3>
     f9c: 20 93 1b     	jsr	$1b93 <setTimer>
     f9f: a2 ff        	ldx	#$ff
     fa1: 8e 05 d0     	stx	$d005                   ; 0xd005 <__heap_start+0xb123>
     fa4: 8e 06 d0     	stx	$d006                   ; 0xd006 <__heap_start+0xb124>
     fa7: 8e 07 d0     	stx	$d007                   ; 0xd007 <__heap_start+0xb125>
     faa: a2 0f        	ldx	#$f
     fac: 8e 08 d0     	stx	$d008                   ; 0xd008 <__heap_start+0xb126>
     faf: 8e 09 d0     	stx	$d009                   ; 0xd009 <__heap_start+0xb127>
     fb2: 78           	sei
     fb3: a6 25        	ldx	$25                     ; 0x25 <__rc21>
     fb5: 86 01        	stx	$1                      ; 0x1
     fb7: a2 c0        	ldx	#$c0
     fb9: 64 16        	stz	$16                     ; 0x16 <__rc6>
     fbb: 64 17        	stz	$17                     ; 0x17 <__rc7>
     fbd: 64 12        	stz	$12                     ; 0x12 <__rc2>
     fbf: 80 0b        	bra	$fcc <setup+0x63a>
     fc1: 18           	clc
     fc2: 69 50        	adc	#$50
     fc4: 85 17        	sta	$17                     ; 0x17 <__rc7>
     fc6: 8a           	txa
     fc7: 69 00        	adc	#$0
     fc9: aa           	tax
     fca: 64 12        	stz	$12                     ; 0x12 <__rc2>
     fcc: a5 17        	lda	$17                     ; 0x17 <__rc7>
     fce: 18           	clc
     fcf: 65 12        	adc	$12                     ; 0x12 <__rc2>
     fd1: 85 14        	sta	$14                     ; 0x14 <__rc4>
     fd3: 8a           	txa
     fd4: 69 00        	adc	#$0
     fd6: 85 15        	sta	$15                     ; 0x15 <__rc5>
     fd8: a4 12        	ldy	$12                     ; 0x12 <__rc2>
     fda: b9 63 00     	lda	$63,y                   ; 0x63 <textFancy>
     fdd: 92 14        	sta	($14)                   ; 0x14 <__rc4>
     fdf: c8           	iny
     fe0: 84 12        	sty	$12                     ; 0x12 <__rc2>
     fe2: c0 50        	cpy	#$50
     fe4: d0 e6        	bne	$fcc <setup+0x63a>
     fe6: a5 17        	lda	$17                     ; 0x17 <__rc7>
     fe8: e6 24        	inc	$24                     ; 0x24 <__rc20>
     fea: d0 02        	bne	$fee <setup+0x65c>
     fec: e6 16        	inc	$16                     ; 0x16 <__rc6>
     fee: a4 24        	ldy	$24                     ; 0x24 <__rc20>
     ff0: e6 16        	inc	$16                     ; 0x16 <__rc6>
     ff2: c6 16        	dec	$16                     ; 0x16 <__rc6>
     ff4: d0 cb        	bne	$fc1 <setup+0x62f>
     ff6: c0 3c        	cpy	#$3c
     ff8: d0 c7        	bne	$fc1 <setup+0x62f>
     ffa: a2 03        	ldx	#$3
     ffc: 86 01        	stx	$1                      ; 0x1
     ffe: a2 c0        	ldx	#$c0
    1000: a9 00        	lda	#$0
    1002: a8           	tay
    1003: 80 05        	bra	$100a <setup+0x678>
    1005: e8           	inx
    1006: e0 d2        	cpx	#$d2
    1008: f0 0d        	beq	$1017 <setup+0x685>
    100a: 84 12        	sty	$12                     ; 0x12 <__rc2>
    100c: 86 13        	stx	$13                     ; 0x13 <__rc3>
    100e: 92 12        	sta	($12)                   ; 0x12 <__rc2>
    1010: c8           	iny
    1011: f0 f2        	beq	$1005 <setup+0x673>
    1013: e0 d2        	cpx	#$d2
    1015: d0 f3        	bne	$100a <setup+0x678>
    1017: c0 c0        	cpy	#$c0
    1019: d0 ef        	bne	$100a <setup+0x678>
    101b: 64 24        	stz	$24                     ; 0x24 <__rc20>
    101d: 64 01        	stz	$1                      ; 0x1
    101f: 58           	cli
    1020: a2 d2        	ldx	#$d2
    1022: 86 62        	stx	$62                     ; 0x62 <_ccolor>
    1024: a2 16        	ldx	#$16
    1026: 86 bb        	stx	$bb                     ; 0xbb <_col>
    1028: 8e 14 d0     	stx	$d014                   ; 0xd014 <__heap_start+0xb132>
    102b: 86 26        	stx	$26                     ; 0x26 <__rc22>
    102d: 9c 15 d0     	stz	$d015                   ; 0xd015 <__heap_start+0xb133>
    1030: a2 05        	ldx	#$5
    1032: 86 bc        	stx	$bc                     ; 0xbc <_row>
    1034: 8e 16 d0     	stx	$d016                   ; 0xd016 <__heap_start+0xb134>
    1037: 86 25        	stx	$25                     ; 0x25 <__rc21>
    1039: 9c 17 d0     	stz	$d017                   ; 0xd017 <__heap_start+0xb135>
    103c: a2 7e        	ldx	#$7e
    103e: 86 12        	stx	$12                     ; 0x12 <__rc2>
    1040: a2 1d        	ldx	#$1d
    1042: 86 13        	stx	$13                     ; 0x13 <__rc3>
    1044: 20 16 19     	jsr	$1916 <textPrint>
    1047: a6 26        	ldx	$26                     ; 0x26 <__rc22>
    1049: 86 bb        	stx	$bb                     ; 0xbb <_col>
    104b: 8e 14 d0     	stx	$d014                   ; 0xd014 <__heap_start+0xb132>
    104e: 9c 15 d0     	stz	$d015                   ; 0xd015 <__heap_start+0xb133>
    1051: a2 08        	ldx	#$8
    1053: 86 bc        	stx	$bc                     ; 0xbc <_row>
    1055: 8e 16 d0     	stx	$d016                   ; 0xd016 <__heap_start+0xb134>
    1058: 9c 17 d0     	stz	$d017                   ; 0xd017 <__heap_start+0xb135>
    105b: a2 f3        	ldx	#$f3
    105d: 86 12        	stx	$12                     ; 0x12 <__rc2>
    105f: a2 1d        	ldx	#$1d
    1061: 86 13        	stx	$13                     ; 0x13 <__rc3>
    1063: 20 16 19     	jsr	$1916 <textPrint>
    1066: a2 16        	ldx	#$16
    1068: 86 bb        	stx	$bb                     ; 0xbb <_col>
    106a: 8e 14 d0     	stx	$d014                   ; 0xd014 <__heap_start+0xb132>
    106d: 86 26        	stx	$26                     ; 0x26 <__rc22>
    106f: 9c 15 d0     	stz	$d015                   ; 0xd015 <__heap_start+0xb133>
    1072: a2 09        	ldx	#$9
    1074: 86 bc        	stx	$bc                     ; 0xbc <_row>
    1076: 8e 16 d0     	stx	$d016                   ; 0xd016 <__heap_start+0xb134>
    1079: 9c 17 d0     	stz	$d017                   ; 0xd017 <__heap_start+0xb135>
    107c: a2 a5        	ldx	#$a5
    107e: 86 12        	stx	$12                     ; 0x12 <__rc2>
    1080: a2 1d        	ldx	#$1d
    1082: 86 13        	stx	$13                     ; 0x13 <__rc3>
    1084: 20 16 19     	jsr	$1916 <textPrint>
    1087: a6 26        	ldx	$26                     ; 0x26 <__rc22>
    1089: 86 bb        	stx	$bb                     ; 0xbb <_col>
    108b: 8e 14 d0     	stx	$d014                   ; 0xd014 <__heap_start+0xb132>
    108e: 9c 15 d0     	stz	$d015                   ; 0xd015 <__heap_start+0xb133>
    1091: a2 0a        	ldx	#$a
    1093: 86 bc        	stx	$bc                     ; 0xbc <_row>
    1095: 8e 16 d0     	stx	$d016                   ; 0xd016 <__heap_start+0xb134>
    1098: 9c 17 d0     	stz	$d017                   ; 0xd017 <__heap_start+0xb135>
    109b: a2 1a        	ldx	#$1a
    109d: 86 12        	stx	$12                     ; 0x12 <__rc2>
    109f: a2 1e        	ldx	#$1e
    10a1: 86 13        	stx	$13                     ; 0x13 <__rc3>
    10a3: 20 16 19     	jsr	$1916 <textPrint>
    10a6: a2 16        	ldx	#$16
    10a8: 86 bb        	stx	$bb                     ; 0xbb <_col>
    10aa: 8e 14 d0     	stx	$d014                   ; 0xd014 <__heap_start+0xb132>
    10ad: 86 26        	stx	$26                     ; 0x26 <__rc22>
    10af: 9c 15 d0     	stz	$d015                   ; 0xd015 <__heap_start+0xb133>
    10b2: a2 0b        	ldx	#$b
    10b4: 86 bc        	stx	$bc                     ; 0xbc <_row>
    10b6: 8e 16 d0     	stx	$d016                   ; 0xd016 <__heap_start+0xb134>
    10b9: 9c 17 d0     	stz	$d017                   ; 0xd017 <__heap_start+0xb135>
    10bc: a2 41        	ldx	#$41
    10be: 86 12        	stx	$12                     ; 0x12 <__rc2>
    10c0: a2 1e        	ldx	#$1e
    10c2: 86 13        	stx	$13                     ; 0x13 <__rc3>
    10c4: 20 16 19     	jsr	$1916 <textPrint>
    10c7: a6 26        	ldx	$26                     ; 0x26 <__rc22>
    10c9: 86 bb        	stx	$bb                     ; 0xbb <_col>
    10cb: 8e 14 d0     	stx	$d014                   ; 0xd014 <__heap_start+0xb132>
    10ce: 9c 15 d0     	stz	$d015                   ; 0xd015 <__heap_start+0xb133>
    10d1: a2 0c        	ldx	#$c
    10d3: 86 bc        	stx	$bc                     ; 0xbc <_row>
    10d5: 8e 16 d0     	stx	$d016                   ; 0xd016 <__heap_start+0xb134>
    10d8: 9c 17 d0     	stz	$d017                   ; 0xd017 <__heap_start+0xb135>
    10db: a2 09        	ldx	#$9
    10dd: 86 12        	stx	$12                     ; 0x12 <__rc2>
    10df: a2 1d        	ldx	#$1d
    10e1: 86 13        	stx	$13                     ; 0x13 <__rc3>
    10e3: 20 16 19     	jsr	$1916 <textPrint>
    10e6: a2 16        	ldx	#$16
    10e8: 86 bb        	stx	$bb                     ; 0xbb <_col>
    10ea: 8e 14 d0     	stx	$d014                   ; 0xd014 <__heap_start+0xb132>
    10ed: 86 26        	stx	$26                     ; 0x26 <__rc22>
    10ef: 9c 15 d0     	stz	$d015                   ; 0xd015 <__heap_start+0xb133>
    10f2: a2 0d        	ldx	#$d
    10f4: 86 bc        	stx	$bc                     ; 0xbc <_row>
    10f6: 8e 16 d0     	stx	$d016                   ; 0xd016 <__heap_start+0xb134>
    10f9: 9c 17 d0     	stz	$d017                   ; 0xd017 <__heap_start+0xb135>
    10fc: a2 68        	ldx	#$68
    10fe: 86 12        	stx	$12                     ; 0x12 <__rc2>
    1100: a2 1e        	ldx	#$1e
    1102: 86 13        	stx	$13                     ; 0x13 <__rc3>
    1104: 20 16 19     	jsr	$1916 <textPrint>
    1107: a6 26        	ldx	$26                     ; 0x26 <__rc22>
    1109: 86 bb        	stx	$bb                     ; 0xbb <_col>
    110b: 8e 14 d0     	stx	$d014                   ; 0xd014 <__heap_start+0xb132>
    110e: 9c 15 d0     	stz	$d015                   ; 0xd015 <__heap_start+0xb133>
    1111: a2 0e        	ldx	#$e
    1113: 86 bc        	stx	$bc                     ; 0xbc <_row>
    1115: 8e 16 d0     	stx	$d016                   ; 0xd016 <__heap_start+0xb134>
    1118: 9c 17 d0     	stz	$d017                   ; 0xd017 <__heap_start+0xb135>
    111b: a2 cc        	ldx	#$cc
    111d: 86 12        	stx	$12                     ; 0x12 <__rc2>
    111f: a2 1d        	ldx	#$1d
    1121: 86 13        	stx	$13                     ; 0x13 <__rc3>
    1123: 20 16 19     	jsr	$1916 <textPrint>
    1126: a2 16        	ldx	#$16
    1128: 86 bb        	stx	$bb                     ; 0xbb <_col>
    112a: 8e 14 d0     	stx	$d014                   ; 0xd014 <__heap_start+0xb132>
    112d: 86 26        	stx	$26                     ; 0x26 <__rc22>
    112f: 9c 15 d0     	stz	$d015                   ; 0xd015 <__heap_start+0xb133>
    1132: a2 10        	ldx	#$10
    1134: 86 bc        	stx	$bc                     ; 0xbc <_row>
    1136: 8e 16 d0     	stx	$d016                   ; 0xd016 <__heap_start+0xb134>
    1139: 9c 17 d0     	stz	$d017                   ; 0xd017 <__heap_start+0xb135>
    113c: a2 57        	ldx	#$57
    113e: 86 12        	stx	$12                     ; 0x12 <__rc2>
    1140: a2 1d        	ldx	#$1d
    1142: 86 13        	stx	$13                     ; 0x13 <__rc3>
    1144: 20 16 19     	jsr	$1916 <textPrint>
    1147: a6 26        	ldx	$26                     ; 0x26 <__rc22>
    1149: 86 bb        	stx	$bb                     ; 0xbb <_col>
    114b: 8e 14 d0     	stx	$d014                   ; 0xd014 <__heap_start+0xb132>
    114e: 9c 15 d0     	stz	$d015                   ; 0xd015 <__heap_start+0xb133>
    1151: a2 11        	ldx	#$11
    1153: 86 bc        	stx	$bc                     ; 0xbc <_row>
    1155: 8e 16 d0     	stx	$d016                   ; 0xd016 <__heap_start+0xb134>
    1158: 9c 17 d0     	stz	$d017                   ; 0xd017 <__heap_start+0xb135>
    115b: a2 30        	ldx	#$30
    115d: 86 12        	stx	$12                     ; 0x12 <__rc2>
    115f: a2 1d        	ldx	#$1d
    1161: 86 13        	stx	$13                     ; 0x13 <__rc3>
    1163: 20 16 19     	jsr	$1916 <textPrint>
    1166: a6 d0        	ldx	$d0                     ; 0xd0 <mEn>
    1168: 8e e0 d6     	stx	$d6e0                   ; 0xd6e0 <__heap_start+0xb7fe>
    116b: 9c e2 d6     	stz	$d6e2                   ; 0xd6e2 <__heap_start+0xb800>
    116e: a2 01        	ldx	#$1
    1170: 8e e3 d6     	stx	$d6e3                   ; 0xd6e3 <__heap_start+0xb801>
    1173: 9c e4 d6     	stz	$d6e4                   ; 0xd6e4 <__heap_start+0xb802>
    1176: 8e e5 d6     	stx	$d6e5                   ; 0xd6e5 <__heap_start+0xb803>
    1179: 8e 00 d3     	stx	$d300                   ; 0xd300 <__heap_start+0xb41e>
    117c: 9c 01 d3     	stz	$d301                   ; 0xd301 <__heap_start+0xb41f>
    117f: 9c 04 d3     	stz	$d304                   ; 0xd304 <__heap_start+0xb422>
    1182: 9c 05 d3     	stz	$d305                   ; 0xd305 <__heap_start+0xb423>
    1185: a6 25        	ldx	$25                     ; 0x25 <__rc21>
    1187: 8e 06 d3     	stx	$d306                   ; 0xd306 <__heap_start+0xb424>
    118a: 9c 08 d3     	stz	$d308                   ; 0xd308 <__heap_start+0xb426>
    118d: 9c 09 d3     	stz	$d309                   ; 0xd309 <__heap_start+0xb427>
    1190: a2 06        	ldx	#$6
    1192: 8e 0a d3     	stx	$d30a                   ; 0xd30a <__heap_start+0xb428>
    1195: a2 50        	ldx	#$50
    1197: a0 30        	ldy	#$30
    1199: 84 15        	sty	$15                     ; 0x15 <__rc5>
    119b: 64 14        	stz	$14                     ; 0x14 <__rc4>
    119d: 64 12        	stz	$12                     ; 0x12 <__rc2>
    119f: 64 13        	stz	$13                     ; 0x13 <__rc3>
    11a1: 64 18        	stz	$18                     ; 0x18 <__rc8>
    11a3: 64 19        	stz	$19                     ; 0x19 <__rc9>
    11a5: 64 1a        	stz	$1a                     ; 0x1a <__rc10>
    11a7: 64 1b        	stz	$1b                     ; 0x1b <__rc11>
    11a9: 64 16        	stz	$16                     ; 0x16 <__rc6>
    11ab: 64 17        	stz	$17                     ; 0x17 <__rc7>
    11ad: 64 1c        	stz	$1c                     ; 0x1c <__rc12>
    11af: a9 00        	lda	#$0
    11b1: 80 16        	bra	$11c9 <setup+0x837>
    11b3: 85 17        	sta	$17                     ; 0x17 <__rc7>
    11b5: 84 16        	sty	$16                     ; 0x16 <__rc6>
    11b7: a5 1d        	lda	$1d                     ; 0x1d <__rc13>
    11b9: 80 0c        	bra	$11c7 <setup+0x835>
    11bb: a6 1b        	ldx	$1b                     ; 0x1b <__rc11>
    11bd: 86 16        	stx	$16                     ; 0x16 <__rc6>
    11bf: 85 17        	sta	$17                     ; 0x17 <__rc7>
    11c1: a6 19        	ldx	$19                     ; 0x19 <__rc9>
    11c3: 86 1c        	stx	$1c                     ; 0x1c <__rc12>
    11c5: a5 18        	lda	$18                     ; 0x18 <__rc8>
    11c7: a2 50        	ldx	#$50
    11c9: 18           	clc
    11ca: a4 16        	ldy	$16                     ; 0x16 <__rc6>
    11cc: 84 1f        	sty	$1f                     ; 0x1f <__rc15>
    11ce: 85 1d        	sta	$1d                     ; 0x1d <__rc13>
    11d0: a5 16        	lda	$16                     ; 0x16 <__rc6>
    11d2: 69 00        	adc	#$0
    11d4: a5 17        	lda	$17                     ; 0x17 <__rc7>
    11d6: a4 17        	ldy	$17                     ; 0x17 <__rc7>
    11d8: 84 22        	sty	$22                     ; 0x22 <__rc18>
    11da: 69 00        	adc	#$0
    11dc: 85 16        	sta	$16                     ; 0x16 <__rc6>
    11de: a4 1c        	ldy	$1c                     ; 0x1c <__rc12>
    11e0: 84 1e        	sty	$1e                     ; 0x1e <__rc14>
    11e2: a5 1c        	lda	$1c                     ; 0x1c <__rc12>
    11e4: 69 05        	adc	#$5
    11e6: 06 16        	asl	$16                     ; 0x16 <__rc6>
    11e8: 2a           	rol
    11e9: 06 16        	asl	$16                     ; 0x16 <__rc6>
    11eb: 2a           	rol
    11ec: 06 16        	asl	$16                     ; 0x16 <__rc6>
    11ee: 2a           	rol
    11ef: 86 1c        	stx	$1c                     ; 0x1c <__rc12>
    11f1: a6 0f        	ldx	$f                      ; 0xf <__data_size+0xc>
    11f3: 78           	sei
    11f4: 85 0f        	sta	$f                      ; 0xf <__data_size+0xc>
    11f6: a5 17        	lda	$17                     ; 0x17 <__rc7>
    11f8: 09 e0        	ora	#$e0
    11fa: a4 1f        	ldy	$1f                     ; 0x1f <__rc15>
    11fc: 84 16        	sty	$16                     ; 0x16 <__rc6>
    11fe: 85 17        	sta	$17                     ; 0x17 <__rc7>
    1200: a5 15        	lda	$15                     ; 0x15 <__rc5>
    1202: a0 30        	ldy	#$30
    1204: 84 15        	sty	$15                     ; 0x15 <__rc5>
    1206: 92 16        	sta	($16)                   ; 0x16 <__rc6>
    1208: a0 01        	ldy	#$1
    120a: a9 20        	lda	#$20
    120c: 91 16        	sta	($16),y                 ; 0x16 <__rc6>
    120e: 86 0f        	stx	$f                      ; 0xf <__data_size+0xc>
    1210: a6 1c        	ldx	$1c                     ; 0x1c <__rc12>
    1212: 58           	cli
    1213: ca           	dex
    1214: 18           	clc
    1215: a5 1f        	lda	$1f                     ; 0x1f <__rc15>
    1217: 69 02        	adc	#$2
    1219: 85 16        	sta	$16                     ; 0x16 <__rc6>
    121b: a5 22        	lda	$22                     ; 0x22 <__rc18>
    121d: 69 00        	adc	#$0
    121f: 85 17        	sta	$17                     ; 0x17 <__rc7>
    1221: a5 1e        	lda	$1e                     ; 0x1e <__rc14>
    1223: 69 00        	adc	#$0
    1225: 85 1c        	sta	$1c                     ; 0x1c <__rc12>
    1227: a5 1d        	lda	$1d                     ; 0x1d <__rc13>
    1229: 69 00        	adc	#$0
    122b: e0 00        	cpx	#$0
    122d: f0 03        	beq	$1232 <setup+0x8a0>
    122f: 4c c9 11     	jmp	$11c9 <setup+0x837>
    1232: e6 24        	inc	$24                     ; 0x24 <__rc20>
    1234: d0 0a        	bne	$1240 <setup+0x8ae>
    1236: e6 13        	inc	$13                     ; 0x13 <__rc3>
    1238: d0 06        	bne	$1240 <setup+0x8ae>
    123a: e6 12        	inc	$12                     ; 0x12 <__rc2>
    123c: d0 02        	bne	$1240 <setup+0x8ae>
    123e: e6 14        	inc	$14                     ; 0x14 <__rc4>
    1240: a6 24        	ldx	$24                     ; 0x24 <__rc20>
    1242: 18           	clc
    1243: a5 1b        	lda	$1b                     ; 0x1b <__rc11>
    1245: 69 a0        	adc	#$a0
    1247: a8           	tay
    1248: a5 1a        	lda	$1a                     ; 0x1a <__rc10>
    124a: 69 00        	adc	#$0
    124c: 85 16        	sta	$16                     ; 0x16 <__rc6>
    124e: a5 19        	lda	$19                     ; 0x19 <__rc9>
    1250: 69 00        	adc	#$0
    1252: 85 17        	sta	$17                     ; 0x17 <__rc7>
    1254: a5 18        	lda	$18                     ; 0x18 <__rc8>
    1256: 69 00        	adc	#$0
    1258: 85 1d        	sta	$1d                     ; 0x1d <__rc13>
    125a: 85 18        	sta	$18                     ; 0x18 <__rc8>
    125c: a5 17        	lda	$17                     ; 0x17 <__rc7>
    125e: 85 1c        	sta	$1c                     ; 0x1c <__rc12>
    1260: 85 19        	sta	$19                     ; 0x19 <__rc9>
    1262: a5 16        	lda	$16                     ; 0x16 <__rc6>
    1264: 85 1a        	sta	$1a                     ; 0x1a <__rc10>
    1266: 84 1b        	sty	$1b                     ; 0x1b <__rc11>
    1268: e6 14        	inc	$14                     ; 0x14 <__rc4>
    126a: c6 14        	dec	$14                     ; 0x14 <__rc4>
    126c: f0 03        	beq	$1271 <setup+0x8df>
    126e: 4c b3 11     	jmp	$11b3 <setup+0x821>
    1271: a4 12        	ldy	$12                     ; 0x12 <__rc2>
    1273: f0 03        	beq	$1278 <setup+0x8e6>
    1275: 4c bb 11     	jmp	$11bb <setup+0x829>
    1278: a4 13        	ldy	$13                     ; 0x13 <__rc3>
    127a: f0 03        	beq	$127f <setup+0x8ed>
    127c: 4c bb 11     	jmp	$11bb <setup+0x829>
    127f: e0 3c        	cpx	#$3c
    1281: f0 03        	beq	$1286 <setup+0x8f4>
    1283: 4c bb 11     	jmp	$11bb <setup+0x829>
    1286: a2 01        	ldx	#$1
    1288: 86 16        	stx	$16                     ; 0x16 <__rc6>
    128a: a0 03        	ldy	#$3
    128c: ca           	dex
    128d: 64 12        	stz	$12                     ; 0x12 <__rc2>
    128f: 80 09        	bra	$129a <setup+0x908>
    1291: e6 12        	inc	$12                     ; 0x12 <__rc2>
    1293: a5 12        	lda	$12                     ; 0x12 <__rc2>
    1295: d0 03        	bne	$129a <setup+0x908>
    1297: 4c 4e 13     	jmp	$134e <setup+0x9bc>
    129a: a5 12        	lda	$12                     ; 0x12 <__rc2>
    129c: 4a           	lsr
    129d: 86 18        	stx	$18                     ; 0x18 <__rc8>
    129f: 86 13        	stx	$13                     ; 0x13 <__rc3>
    12a1: 66 13        	ror	$13                     ; 0x13 <__rc3>
    12a3: 64 14        	stz	$14                     ; 0x14 <__rc4>
    12a5: 66 14        	ror	$14                     ; 0x14 <__rc4>
    12a7: 4a           	lsr
    12a8: 66 13        	ror	$13                     ; 0x13 <__rc3>
    12aa: 66 14        	ror	$14                     ; 0x14 <__rc4>
    12ac: 4a           	lsr
    12ad: 66 13        	ror	$13                     ; 0x13 <__rc3>
    12af: a6 13        	ldx	$13                     ; 0x13 <__rc3>
    12b1: 86 15        	stx	$15                     ; 0x15 <__rc5>
    12b3: 66 14        	ror	$14                     ; 0x14 <__rc4>
    12b5: a5 14        	lda	$14                     ; 0x14 <__rc4>
    12b7: 0a           	asl
    12b8: aa           	tax
    12b9: a5 13        	lda	$13                     ; 0x13 <__rc3>
    12bb: 2a           	rol
    12bc: 86 13        	stx	$13                     ; 0x13 <__rc3>
    12be: 06 13        	asl	$13                     ; 0x13 <__rc3>
    12c0: 2a           	rol
    12c1: aa           	tax
    12c2: 18           	clc
    12c3: a9 01        	lda	#$1
    12c5: b0 02        	bcs	$12c9 <setup+0x937>
    12c7: a9 00        	lda	#$0
    12c9: 85 19        	sta	$19                     ; 0x19 <__rc9>
    12cb: a5 13        	lda	$13                     ; 0x13 <__rc3>
    12cd: 65 14        	adc	$14                     ; 0x14 <__rc4>
    12cf: 85 13        	sta	$13                     ; 0x13 <__rc3>
    12d1: 8a           	txa
    12d2: 65 15        	adc	$15                     ; 0x15 <__rc5>
    12d4: 85 14        	sta	$14                     ; 0x14 <__rc4>
    12d6: a2 50        	ldx	#$50
    12d8: 64 15        	stz	$15                     ; 0x15 <__rc5>
    12da: a5 16        	lda	$16                     ; 0x16 <__rc6>
    12dc: 85 1a        	sta	$1a                     ; 0x1a <__rc10>
    12de: 84 1b        	sty	$1b                     ; 0x1b <__rc11>
    12e0: a4 15        	ldy	$15                     ; 0x15 <__rc5>
    12e2: a5 15        	lda	$15                     ; 0x15 <__rc5>
    12e4: 5a           	phy
    12e5: a4 19        	ldy	$19                     ; 0x19 <__rc9>
    12e7: c0 01        	cpy	#$1
    12e9: 7a           	ply
    12ea: 65 13        	adc	$13                     ; 0x13 <__rc3>
    12ec: 85 17        	sta	$17                     ; 0x17 <__rc7>
    12ee: a9 00        	lda	#$0
    12f0: 65 14        	adc	$14                     ; 0x14 <__rc4>
    12f2: 85 1c        	sta	$1c                     ; 0x1c <__rc12>
    12f4: 84 16        	sty	$16                     ; 0x16 <__rc6>
    12f6: a9 06        	lda	#$6
    12f8: 69 00        	adc	#$0
    12fa: a4 1c        	ldy	$1c                     ; 0x1c <__rc12>
    12fc: 84 15        	sty	$15                     ; 0x15 <__rc5>
    12fe: 06 15        	asl	$15                     ; 0x15 <__rc5>
    1300: 2a           	rol
    1301: 06 15        	asl	$15                     ; 0x15 <__rc5>
    1303: 2a           	rol
    1304: 06 15        	asl	$15                     ; 0x15 <__rc5>
    1306: 2a           	rol
    1307: a4 0f        	ldy	$f                      ; 0xf <__data_size+0xc>
    1309: 84 1d        	sty	$1d                     ; 0x1d <__rc13>
    130b: 78           	sei
    130c: 85 0f        	sta	$f                      ; 0xf <__data_size+0xc>
    130e: a4 16        	ldy	$16                     ; 0x16 <__rc6>
    1310: 84 15        	sty	$15                     ; 0x15 <__rc5>
    1312: a4 17        	ldy	$17                     ; 0x17 <__rc7>
    1314: 84 16        	sty	$16                     ; 0x16 <__rc6>
    1316: a5 1c        	lda	$1c                     ; 0x1c <__rc12>
    1318: 09 e0        	ora	#$e0
    131a: 85 17        	sta	$17                     ; 0x17 <__rc7>
    131c: a9 00        	lda	#$0
    131e: 92 16        	sta	($16)                   ; 0x16 <__rc6>
    1320: a4 1a        	ldy	$1a                     ; 0x1a <__rc10>
    1322: a5 1b        	lda	$1b                     ; 0x1b <__rc11>
    1324: 91 16        	sta	($16),y                 ; 0x16 <__rc6>
    1326: a4 1d        	ldy	$1d                     ; 0x1d <__rc13>
    1328: 84 0f        	sty	$f                      ; 0xf <__data_size+0xc>
    132a: 58           	cli
    132b: ca           	dex
    132c: 18           	clc
    132d: a5 15        	lda	$15                     ; 0x15 <__rc5>
    132f: 69 02        	adc	#$2
    1331: 85 15        	sta	$15                     ; 0x15 <__rc5>
    1333: 8a           	txa
    1334: f0 03        	beq	$1339 <setup+0x9a7>
    1336: 4c e0 12     	jmp	$12e0 <setup+0x94e>
    1339: a0 03        	ldy	#$3
    133b: a2 01        	ldx	#$1
    133d: 86 16        	stx	$16                     ; 0x16 <__rc6>
    133f: a6 18        	ldx	$18                     ; 0x18 <__rc8>
    1341: e8           	inx
    1342: d0 03        	bne	$1347 <setup+0x9b5>
    1344: 4c 91 12     	jmp	$1291 <setup+0x8ff>
    1347: a5 12        	lda	$12                     ; 0x12 <__rc2>
    1349: f0 03        	beq	$134e <setup+0x9bc>
    134b: 4c 9a 12     	jmp	$129a <setup+0x908>
    134e: e0 3c        	cpx	#$3c
    1350: f0 03        	beq	$1355 <setup+0x9c3>
    1352: 4c 9a 12     	jmp	$129a <setup+0x908>
    1355: a2 08        	ldx	#$8
    1357: 86 01        	stx	$1                      ; 0x1
    1359: a2 c0        	ldx	#$c0
    135b: a0 00        	ldy	#$0
    135d: 86 14        	stx	$14                     ; 0x14 <__rc4>
    135f: 98           	tya
    1360: 84 15        	sty	$15                     ; 0x15 <__rc5>
    1362: 84 12        	sty	$12                     ; 0x12 <__rc2>
    1364: 86 13        	stx	$13                     ; 0x13 <__rc3>
    1366: 18           	clc
    1367: 69 03        	adc	#$3
    1369: a8           	tay
    136a: 8a           	txa
    136b: 69 00        	adc	#$0
    136d: aa           	tax
    136e: 18           	clc
    136f: a5 15        	lda	$15                     ; 0x15 <__rc5>
    1371: 69 06        	adc	#$6
    1373: 85 16        	sta	$16                     ; 0x16 <__rc6>
    1375: a5 14        	lda	$14                     ; 0x14 <__rc4>
    1377: 69 00        	adc	#$0
    1379: 85 15        	sta	$15                     ; 0x15 <__rc5>
    137b: a5 16        	lda	$16                     ; 0x16 <__rc6>
    137d: 85 14        	sta	$14                     ; 0x14 <__rc4>
    137f: a9 ff        	lda	#$ff
    1381: 92 12        	sta	($12)                   ; 0x12 <__rc2>
    1383: 84 12        	sty	$12                     ; 0x12 <__rc2>
    1385: 86 13        	stx	$13                     ; 0x13 <__rc3>
    1387: 1a           	inc
    1388: 92 12        	sta	($12)                   ; 0x12 <__rc2>
    138a: 92 14        	sta	($14)                   ; 0x14 <__rc4>
    138c: e0 c0        	cpx	#$c0
    138e: d0 cd        	bne	$135d <setup+0x9cb>
    1390: c0 1b        	cpy	#$1b
    1392: d0 c9        	bne	$135d <setup+0x9cb>
    1394: 64 01        	stz	$1                      ; 0x1
    1396: fa           	plx
    1397: 86 26        	stx	$26                     ; 0x26 <__rc22>
    1399: fa           	plx
    139a: 86 25        	stx	$25                     ; 0x25 <__rc21>
    139c: fa           	plx
    139d: 86 24        	stx	$24                     ; 0x24 <__rc20>
    139f: 60           	rts

000013a0 <dealKey>:
    13a0: 18           	clc
    13a1: 69 cf        	adc	#$cf
    13a3: c9 48        	cmp	#$48
    13a5: 90 03        	bcc	$13aa <dealKey+0xa>
    13a7: 4c fc 15     	jmp	$15fc <dealKey+0x25c>
    13aa: 0a           	asl
    13ab: aa           	tax
    13ac: 7c 79 1c     	jmp	($1c79,x)               ; 0x1c79 <__heap_default_limit+0xc79>
    13af: ae 8f 1e     	ldx	$1e8f                   ; 0x1e8f <b0>
    13b2: a9 00        	lda	#$0
    13b4: e0 00        	cpx	#$0
    13b6: d0 04        	bne	$13bc <dealKey+0x1c>
    13b8: a9 01        	lda	#$1
    13ba: 05 be        	ora	$be                     ; 0xbe <_BITMAP_CLUT>
    13bc: 8d 00 d1     	sta	$d100                   ; 0xd100 <__heap_start+0xb21e>
    13bf: ae 8f 1e     	ldx	$1e8f                   ; 0x1e8f <b0>
    13c2: f0 03        	beq	$13c7 <dealKey+0x27>
    13c4: 4c b6 14     	jmp	$14b6 <dealKey+0x116>
    13c7: a2 01        	ldx	#$1
    13c9: 8e 8f 1e     	stx	$1e8f                   ; 0x1e8f <b0>
    13cc: 60           	rts
    13cd: ae 01 d0     	ldx	$d001                   ; 0xd001 <__heap_start+0xb11f>
    13d0: e0 c0        	cpx	#$c0
    13d2: ad 01 d0     	lda	$d001                   ; 0xd001 <__heap_start+0xb11f>
    13d5: b0 03        	bcs	$13da <dealKey+0x3a>
    13d7: 4c b0 14     	jmp	$14b0 <dealKey+0x110>
    13da: 29 3f        	and	#$3f
    13dc: 8d 01 d0     	sta	$d001                   ; 0xd001 <__heap_start+0xb11f>
    13df: 60           	rts
    13e0: ae 91 1e     	ldx	$1e91                   ; 0x1e91 <b2>
    13e3: d0 03        	bne	$13e8 <dealKey+0x48>
    13e5: 4c 04 16     	jmp	$1604 <dealKey+0x264>
    13e8: a2 01        	ldx	#$1
    13ea: 86 cc        	stx	$cc                     ; 0xcc <t2>
    13ec: 9c 91 1e     	stz	$1e91                   ; 0x1e91 <b2>
    13ef: 4c 19 16     	jmp	$1619 <dealKey+0x279>
    13f2: a2 01        	ldx	#$1
    13f4: 8e a6 d6     	stx	$d6a6                   ; 0xd6a6 <__heap_start+0xb7c4>
    13f7: ac a4 d6     	ldy	$d6a4                   ; 0xd6a4 <__heap_start+0xb7c2>
    13fa: ad a5 d6     	lda	$d6a5                   ; 0xd6a5 <__heap_start+0xb7c3>
    13fd: 8e a6 d6     	stx	$d6a6                   ; 0xd6a6 <__heap_start+0xb7c4>
    1400: ae a4 d6     	ldx	$d6a4                   ; 0xd6a4 <__heap_start+0xb7c2>
    1403: ae a5 d6     	ldx	$d6a5                   ; 0xd6a5 <__heap_start+0xb7c3>
    1406: 8d 0d d0     	sta	$d00d                   ; 0xd00d <__heap_start+0xb12b>
    1409: 8c 0e d0     	sty	$d00e                   ; 0xd00e <__heap_start+0xb12c>
    140c: 8e 0f d0     	stx	$d00f                   ; 0xd00f <__heap_start+0xb12d>
    140f: 60           	rts
    1410: a2 01        	ldx	#$1
    1412: 8e a6 d6     	stx	$d6a6                   ; 0xd6a6 <__heap_start+0xb7c4>
    1415: ac a4 d6     	ldy	$d6a4                   ; 0xd6a4 <__heap_start+0xb7c2>
    1418: 84 12        	sty	$12                     ; 0x12 <__rc2>
    141a: ac a5 d6     	ldy	$d6a5                   ; 0xd6a5 <__heap_start+0xb7c3>
    141d: 8e a6 d6     	stx	$d6a6                   ; 0xd6a6 <__heap_start+0xb7c4>
    1420: ae a4 d6     	ldx	$d6a4                   ; 0xd6a4 <__heap_start+0xb7c2>
    1423: ae a5 d6     	ldx	$d6a5                   ; 0xd6a5 <__heap_start+0xb7c3>
    1426: ad 04 d0     	lda	$d004                   ; 0xd004 <__heap_start+0xb122>
    1429: 49 01        	eor	#$1
    142b: 29 01        	and	#$1
    142d: 8d 04 d0     	sta	$d004                   ; 0xd004 <__heap_start+0xb122>
    1430: 8c 05 d0     	sty	$d005                   ; 0xd005 <__heap_start+0xb123>
    1433: a4 12        	ldy	$12                     ; 0x12 <__rc2>
    1435: 8c 06 d0     	sty	$d006                   ; 0xd006 <__heap_start+0xb124>
    1438: 8e 07 d0     	stx	$d007                   ; 0xd007 <__heap_start+0xb125>
    143b: 60           	rts
    143c: a6 cc        	ldx	$cc                     ; 0xcc <t2>
    143e: d0 03        	bne	$1443 <dealKey+0xa3>
    1440: 4c 0c 16     	jmp	$160c <dealKey+0x26c>
    1443: a2 01        	ldx	#$1
    1445: 8e 91 1e     	stx	$1e91                   ; 0x1e91 <b2>
    1448: 64 cc        	stz	$cc                     ; 0xcc <t2>
    144a: ae 91 1e     	ldx	$1e91                   ; 0x1e91 <b2>
    144d: d0 03        	bne	$1452 <dealKey+0xb2>
    144f: 4c 3f 16     	jmp	$163f <dealKey+0x29f>
    1452: a9 01        	lda	#$1
    1454: 05 c0        	ora	$c0                     ; 0xc0 <_BITMAP_CLUT+0x2>
    1456: 4c 41 16     	jmp	$1641 <dealKey+0x2a1>
    1459: ae 90 1e     	ldx	$1e90                   ; 0x1e90 <b1>
    145c: a9 00        	lda	#$0
    145e: e0 00        	cpx	#$0
    1460: d0 04        	bne	$1466 <dealKey+0xc6>
    1462: a9 01        	lda	#$1
    1464: 05 bf        	ora	$bf                     ; 0xbf <_BITMAP_CLUT+0x1>
    1466: 8d 08 d1     	sta	$d108                   ; 0xd108 <__heap_start+0xb226>
    1469: ae 90 1e     	ldx	$1e90                   ; 0x1e90 <b1>
    146c: d0 4e        	bne	$14bc <dealKey+0x11c>
    146e: a2 01        	ldx	#$1
    1470: 8e 90 1e     	stx	$1e90                   ; 0x1e90 <b1>
    1473: 60           	rts
    1474: a6 d0        	ldx	$d0                     ; 0xd0 <mEn>
    1476: d0 4a        	bne	$14c2 <dealKey+0x122>
    1478: a2 01        	ldx	#$1
    147a: 80 48        	bra	$14c4 <dealKey+0x124>
    147c: ad 00 d0     	lda	$d000                   ; 0xd000 <__heap_start+0xb11e>
    147f: aa           	tax
    1480: 29 20        	and	#$20
    1482: d0 46        	bne	$14ca <dealKey+0x12a>
    1484: 8a           	txa
    1485: 09 20        	ora	#$20
    1487: 8d 00 d0     	sta	$d000                   ; 0xd000 <__heap_start+0xb11e>
    148a: 60           	rts
    148b: a4 d1        	ldy	$d1                     ; 0xd1 <isSunset>
    148d: a2 01        	ldx	#$1
    148f: 98           	tya
    1490: f0 02        	beq	$1494 <dealKey+0xf4>
    1492: a2 00        	ldx	#$0
    1494: 8a           	txa
    1495: f0 3a        	beq	$14d1 <dealKey+0x131>
    1497: a0 01        	ldy	#$1
    1499: 80 38        	bra	$14d3 <dealKey+0x133>
    149b: ad 00 d0     	lda	$d000                   ; 0xd000 <__heap_start+0xb11e>
    149e: 29 01        	and	#$1
    14a0: ae 00 d0     	ldx	$d000                   ; 0xd000 <__heap_start+0xb11e>
    14a3: a8           	tay
    14a4: f0 03        	beq	$14a9 <dealKey+0x109>
    14a6: 4c fd 15     	jmp	$15fd <dealKey+0x25d>
    14a9: 8a           	txa
    14aa: 09 01        	ora	#$1
    14ac: 8d 00 d0     	sta	$d000                   ; 0xd000 <__heap_start+0xb11e>
    14af: 60           	rts
    14b0: 09 c0        	ora	#$c0
    14b2: 8d 01 d0     	sta	$d001                   ; 0xd001 <__heap_start+0xb11f>
    14b5: 60           	rts
    14b6: a2 00        	ldx	#$0
    14b8: 8e 8f 1e     	stx	$1e8f                   ; 0x1e8f <b0>
    14bb: 60           	rts
    14bc: a2 00        	ldx	#$0
    14be: 8e 90 1e     	stx	$1e90                   ; 0x1e90 <b1>
    14c1: 60           	rts
    14c2: a2 00        	ldx	#$0
    14c4: 86 d0        	stx	$d0                     ; 0xd0 <mEn>
    14c6: 8e e0 d6     	stx	$d6e0                   ; 0xd6e0 <__heap_start+0xb7fe>
    14c9: 60           	rts
    14ca: 8a           	txa
    14cb: 29 df        	and	#$df
    14cd: 8d 00 d0     	sta	$d000                   ; 0xd000 <__heap_start+0xb11e>
    14d0: 60           	rts
    14d1: a0 00        	ldy	#$0
    14d3: 84 d1        	sty	$d1                     ; 0xd1 <isSunset>
    14d5: 64 12        	stz	$12                     ; 0x12 <__rc2>
    14d7: 8a           	txa
    14d8: f0 04        	beq	$14de <dealKey+0x13e>
    14da: a2 02        	ldx	#$2
    14dc: 86 12        	stx	$12                     ; 0x12 <__rc2>
    14de: 64 bd        	stz	$bd                     ; 0xbd <_active>
    14e0: a6 12        	ldx	$12                     ; 0x12 <__rc2>
    14e2: 86 be        	stx	$be                     ; 0xbe <_BITMAP_CLUT>
    14e4: ad 00 d1     	lda	$d100                   ; 0xd100 <__heap_start+0xb21e>
    14e7: 29 f9        	and	#$f9
    14e9: 05 12        	ora	$12                     ; 0x12 <__rc2>
    14eb: 8d 00 d1     	sta	$d100                   ; 0xd100 <__heap_start+0xb21e>
    14ee: a0 01        	ldy	#$1
    14f0: 84 bd        	sty	$bd                     ; 0xbd <_active>
    14f2: 86 bf        	stx	$bf                     ; 0xbf <_BITMAP_CLUT+0x1>
    14f4: ad 08 d1     	lda	$d108                   ; 0xd108 <__heap_start+0xb226>
    14f7: 29 f9        	and	#$f9
    14f9: 05 12        	ora	$12                     ; 0x12 <__rc2>
    14fb: 8d 08 d1     	sta	$d108                   ; 0xd108 <__heap_start+0xb226>
    14fe: c8           	iny
    14ff: 84 bd        	sty	$bd                     ; 0xbd <_active>
    1501: 86 c0        	stx	$c0                     ; 0xc0 <_BITMAP_CLUT+0x2>
    1503: ad 10 d1     	lda	$d110                   ; 0xd110 <__heap_start+0xb22e>
    1506: 29 f9        	and	#$f9
    1508: 05 12        	ora	$12                     ; 0x12 <__rc2>
    150a: 8d 10 d1     	sta	$d110                   ; 0xd110 <__heap_start+0xb22e>
    150d: a2 d9        	ldx	#$d9
    150f: 64 13        	stz	$13                     ; 0x13 <__rc3>
    1511: a5 13        	lda	$13                     ; 0x13 <__rc3>
    1513: 85 14        	sta	$14                     ; 0x14 <__rc4>
    1515: 86 15        	stx	$15                     ; 0x15 <__rc5>
    1517: b2 14        	lda	($14)                   ; 0x14 <__rc4>
    1519: 29 f9        	and	#$f9
    151b: 05 12        	ora	$12                     ; 0x12 <__rc2>
    151d: 92 14        	sta	($14)                   ; 0x14 <__rc4>
    151f: a5 13        	lda	$13                     ; 0x13 <__rc3>
    1521: 18           	clc
    1522: 69 08        	adc	#$8
    1524: 85 13        	sta	$13                     ; 0x13 <__rc3>
    1526: 8a           	txa
    1527: 69 00        	adc	#$0
    1529: aa           	tax
    152a: c9 d9        	cmp	#$d9
    152c: d0 e3        	bne	$1511 <dealKey+0x171>
    152e: a4 13        	ldy	$13                     ; 0x13 <__rc3>
    1530: c0 30        	cpy	#$30
    1532: d0 dd        	bne	$1511 <dealKey+0x171>
    1534: a9 00        	lda	#$0
    1536: a2 01        	ldx	#$1
    1538: 86 1b        	stx	$1b                     ; 0x1b <__rc11>
    153a: 64 14        	stz	$14                     ; 0x14 <__rc4>
    153c: 85 18        	sta	$18                     ; 0x18 <__rc8>
    153e: 0a           	asl
    153f: a6 14        	ldx	$14                     ; 0x14 <__rc4>
    1541: 86 12        	stx	$12                     ; 0x12 <__rc2>
    1543: 26 12        	rol	$12                     ; 0x12 <__rc2>
    1545: 0a           	asl
    1546: 26 12        	rol	$12                     ; 0x12 <__rc2>
    1548: 0a           	asl
    1549: 26 12        	rol	$12                     ; 0x12 <__rc2>
    154b: 0a           	asl
    154c: 85 13        	sta	$13                     ; 0x13 <__rc3>
    154e: 26 12        	rol	$12                     ; 0x12 <__rc2>
    1550: a6 12        	ldx	$12                     ; 0x12 <__rc2>
    1552: 86 15        	stx	$15                     ; 0x15 <__rc5>
    1554: 0a           	asl
    1555: a6 12        	ldx	$12                     ; 0x12 <__rc2>
    1557: 86 16        	stx	$16                     ; 0x16 <__rc6>
    1559: 26 16        	rol	$16                     ; 0x16 <__rc6>
    155b: 0a           	asl
    155c: 26 16        	rol	$16                     ; 0x16 <__rc6>
    155e: 18           	clc
    155f: a2 01        	ldx	#$1
    1561: b0 02        	bcs	$1565 <dealKey+0x1c5>
    1563: a2 00        	ldx	#$0
    1565: 86 19        	stx	$19                     ; 0x19 <__rc9>
    1567: 65 13        	adc	$13                     ; 0x13 <__rc3>
    1569: 85 12        	sta	$12                     ; 0x12 <__rc2>
    156b: a5 16        	lda	$16                     ; 0x16 <__rc6>
    156d: 65 15        	adc	$15                     ; 0x15 <__rc5>
    156f: 85 13        	sta	$13                     ; 0x13 <__rc3>
    1571: 64 1a        	stz	$1a                     ; 0x1a <__rc10>
    1573: a5 1a        	lda	$1a                     ; 0x1a <__rc10>
    1575: a6 19        	ldx	$19                     ; 0x19 <__rc9>
    1577: e0 01        	cpx	#$1
    1579: 65 12        	adc	$12                     ; 0x12 <__rc2>
    157b: 85 16        	sta	$16                     ; 0x16 <__rc6>
    157d: a9 bf        	lda	#$bf
    157f: 65 13        	adc	$13                     ; 0x13 <__rc3>
    1581: 85 15        	sta	$15                     ; 0x15 <__rc5>
    1583: a9 04        	lda	#$4
    1585: 69 00        	adc	#$0
    1587: 85 17        	sta	$17                     ; 0x17 <__rc7>
    1589: a5 15        	lda	$15                     ; 0x15 <__rc5>
    158b: 0a           	asl
    158c: 26 17        	rol	$17                     ; 0x17 <__rc7>
    158e: 0a           	asl
    158f: 26 17        	rol	$17                     ; 0x17 <__rc7>
    1591: 0a           	asl
    1592: a5 17        	lda	$17                     ; 0x17 <__rc7>
    1594: 2a           	rol
    1595: a6 0f        	ldx	$f                      ; 0xf <__data_size+0xc>
    1597: 78           	sei
    1598: 85 0f        	sta	$f                      ; 0xf <__data_size+0xc>
    159a: a4 1b        	ldy	$1b                     ; 0x1b <__rc11>
    159c: 84 1c        	sty	$1c                     ; 0x1c <__rc12>
    159e: 85 1b        	sta	$1b                     ; 0x1b <__rc11>
    15a0: a5 15        	lda	$15                     ; 0x15 <__rc5>
    15a2: 09 e0        	ora	#$e0
    15a4: 85 17        	sta	$17                     ; 0x17 <__rc7>
    15a6: b2 16        	lda	($16)                   ; 0x16 <__rc6>
    15a8: 85 1d        	sta	$1d                     ; 0x1d <__rc13>
    15aa: a4 1c        	ldy	$1c                     ; 0x1c <__rc12>
    15ac: b1 16        	lda	($16),y                 ; 0x16 <__rc6>
    15ae: 86 0f        	stx	$f                      ; 0xf <__data_size+0xc>
    15b0: 58           	cli
    15b1: 29 07        	and	#$7
    15b3: 85 15        	sta	$15                     ; 0x15 <__rc5>
    15b5: a5 d1        	lda	$d1                     ; 0xd1 <isSunset>
    15b7: 0a           	asl
    15b8: 85 1e        	sta	$1e                     ; 0x1e <__rc14>
    15ba: a6 0f        	ldx	$f                      ; 0xf <__data_size+0xc>
    15bc: 86 1f        	stx	$1f                     ; 0x1f <__rc15>
    15be: 78           	sei
    15bf: a6 1b        	ldx	$1b                     ; 0x1b <__rc11>
    15c1: 86 0f        	stx	$f                      ; 0xf <__data_size+0xc>
    15c3: 06 1e        	asl	$1e                     ; 0x1e <__rc14>
    15c5: a5 1d        	lda	$1d                     ; 0x1d <__rc13>
    15c7: 92 16        	sta	($16)                   ; 0x16 <__rc6>
    15c9: a5 1e        	lda	$1e                     ; 0x1e <__rc14>
    15cb: 0a           	asl
    15cc: 05 15        	ora	$15                     ; 0x15 <__rc5>
    15ce: a2 01        	ldx	#$1
    15d0: 86 1b        	stx	$1b                     ; 0x1b <__rc11>
    15d2: 91 16        	sta	($16),y                 ; 0x16 <__rc6>
    15d4: a5 1a        	lda	$1a                     ; 0x1a <__rc10>
    15d6: a6 1f        	ldx	$1f                     ; 0x1f <__rc15>
    15d8: 86 0f        	stx	$f                      ; 0xf <__data_size+0xc>
    15da: 58           	cli
    15db: 18           	clc
    15dc: 69 02        	adc	#$2
    15de: 85 1a        	sta	$1a                     ; 0x1a <__rc10>
    15e0: c9 50        	cmp	#$50
    15e2: f0 03        	beq	$15e7 <dealKey+0x247>
    15e4: 4c 73 15     	jmp	$1573 <dealKey+0x1d3>
    15e7: a5 18        	lda	$18                     ; 0x18 <__rc8>
    15e9: 1a           	inc
    15ea: d0 02        	bne	$15ee <dealKey+0x24e>
    15ec: e6 14        	inc	$14                     ; 0x14 <__rc4>
    15ee: a6 14        	ldx	$14                     ; 0x14 <__rc4>
    15f0: f0 03        	beq	$15f5 <dealKey+0x255>
    15f2: 4c 3c 15     	jmp	$153c <dealKey+0x19c>
    15f5: c9 11        	cmp	#$11
    15f7: f0 03        	beq	$15fc <dealKey+0x25c>
    15f9: 4c 3c 15     	jmp	$153c <dealKey+0x19c>
    15fc: 60           	rts
    15fd: 8a           	txa
    15fe: 29 fe        	and	#$fe
    1600: 8d 00 d0     	sta	$d000                   ; 0xd000 <__heap_start+0xb11e>
    1603: 60           	rts
    1604: a6 cc        	ldx	$cc                     ; 0xcc <t2>
    1606: d0 0d        	bne	$1615 <dealKey+0x275>
    1608: a2 01        	ldx	#$1
    160a: 80 0b        	bra	$1617 <dealKey+0x277>
    160c: ae 91 1e     	ldx	$1e91                   ; 0x1e91 <b2>
    160f: d0 21        	bne	$1632 <dealKey+0x292>
    1611: a2 01        	ldx	#$1
    1613: 80 1f        	bra	$1634 <dealKey+0x294>
    1615: a2 00        	ldx	#$0
    1617: 86 cc        	stx	$cc                     ; 0xcc <t2>
    1619: a2 06        	ldx	#$6
    161b: 8e 03 d0     	stx	$d003                   ; 0xd003 <__heap_start+0xb121>
    161e: a6 cc        	ldx	$cc                     ; 0xcc <t2>
    1620: 86 12        	stx	$12                     ; 0x12 <__rc2>
    1622: a6 c3        	ldx	$c3                     ; 0xc3 <_tileSize+0x2>
    1624: a9 10        	lda	#$10
    1626: e0 08        	cpx	#$8
    1628: f0 02        	beq	$162c <dealKey+0x28c>
    162a: a9 00        	lda	#$0
    162c: 05 12        	ora	$12                     ; 0x12 <__rc2>
    162e: 8d 18 d2     	sta	$d218                   ; 0xd218 <__heap_start+0xb336>
    1631: 60           	rts
    1632: a2 00        	ldx	#$0
    1634: 8e 91 1e     	stx	$1e91                   ; 0x1e91 <b2>
    1637: ae 91 1e     	ldx	$1e91                   ; 0x1e91 <b2>
    163a: f0 03        	beq	$163f <dealKey+0x29f>
    163c: 4c 52 14     	jmp	$1452 <dealKey+0xb2>
    163f: a9 00        	lda	#$0
    1641: 8d 10 d1     	sta	$d110                   ; 0xd110 <__heap_start+0xb22e>
    1644: a2 02        	ldx	#$2
    1646: 8e 03 d0     	stx	$d003                   ; 0xd003 <__heap_start+0xb121>
    1649: 60           	rts

0000164a <dealTimer>:
    164a: 85 14        	sta	$14                     ; 0x14 <__rc4>
    164c: aa           	tax
    164d: d0 03        	bne	$1652 <dealTimer+0x8>
    164f: 4c 80 17     	jmp	$1780 <dealTimer+0x136>
    1652: aa           	tax
    1653: e0 02        	cpx	#$2
    1655: d0 03        	bne	$165a <dealTimer+0x10>
    1657: 4c 5d 17     	jmp	$175d <dealTimer+0x113>
    165a: aa           	tax
    165b: e0 01        	cpx	#$1
    165d: f0 03        	beq	$1662 <dealTimer+0x18>
    165f: 4c 15 19     	jmp	$1915 <dealTimer+0x2cb>
    1662: a2 19        	ldx	#$19
    1664: a0 d9        	ldy	#$d9
    1666: 64 1d        	stz	$1d                     ; 0x1d <__rc13>
    1668: 4c 05 17     	jmp	$1705 <dealTimer+0xbb>
    166b: c9 00        	cmp	#$0
    166d: a6 1d        	ldx	$1d                     ; 0x1d <__rc13>
    166f: b0 06        	bcs	$1677 <dealTimer+0x2d>
    1671: a0 50        	ldy	#$50
    1673: 84 19        	sty	$19                     ; 0x19 <__rc9>
    1675: a9 01        	lda	#$1
    1677: a4 16        	ldy	$16                     ; 0x16 <__rc6>
    1679: 84 12        	sty	$12                     ; 0x12 <__rc2>
    167b: a4 17        	ldy	$17                     ; 0x17 <__rc7>
    167d: 84 13        	sty	$13                     ; 0x13 <__rc3>
    167f: a0 03        	ldy	#$3
    1681: 85 1d        	sta	$1d                     ; 0x1d <__rc13>
    1683: a5 19        	lda	$19                     ; 0x19 <__rc9>
    1685: 91 12        	sta	($12),y                 ; 0x12 <__rc2>
    1687: a0 01        	ldy	#$1
    1689: a5 1d        	lda	$1d                     ; 0x1d <__rc13>
    168b: 91 14        	sta	($14),y                 ; 0x14 <__rc4>
    168d: 84 19        	sty	$19                     ; 0x19 <__rc9>
    168f: a4 18        	ldy	$18                     ; 0x18 <__rc8>
    1691: 84 14        	sty	$14                     ; 0x14 <__rc4>
    1693: a4 1a        	ldy	$1a                     ; 0x1a <__rc10>
    1695: 84 15        	sty	$15                     ; 0x15 <__rc5>
    1697: a0 05        	ldy	#$5
    1699: a5 1b        	lda	$1b                     ; 0x1b <__rc11>
    169b: 91 12        	sta	($12),y                 ; 0x12 <__rc2>
    169d: a4 19        	ldy	$19                     ; 0x19 <__rc9>
    169f: a5 1c        	lda	$1c                     ; 0x1c <__rc12>
    16a1: 91 14        	sta	($14),y                 ; 0x14 <__rc4>
    16a3: b5 b6        	lda	$b6,x                   ; 0xb6 <sprBirdFrame>
    16a5: 1a           	inc
    16a6: c9 04        	cmp	#$4
    16a8: 90 02        	bcc	$16ac <dealTimer+0x62>
    16aa: a9 00        	lda	#$0
    16ac: 9d b6 00     	sta	$b6,x                   ; 0xb6 <sprBirdFrame>
    16af: a9 00        	lda	#$0
    16b1: 92 12        	sta	($12)                   ; 0x12 <__rc2>
    16b3: a9 ac        	lda	#$ac
    16b5: 18           	clc
    16b6: 75 b3        	adc	$b3,x                   ; 0xb3 <sprFrame>
    16b8: a4 17        	ldy	$17                     ; 0x17 <__rc7>
    16ba: 84 12        	sty	$12                     ; 0x12 <__rc2>
    16bc: a4 16        	ldy	$16                     ; 0x16 <__rc6>
    16be: 84 13        	sty	$13                     ; 0x13 <__rc3>
    16c0: e6 13        	inc	$13                     ; 0x13 <__rc3>
    16c2: d0 02        	bne	$16c6 <dealTimer+0x7c>
    16c4: e6 12        	inc	$12                     ; 0x12 <__rc2>
    16c6: a4 13        	ldy	$13                     ; 0x13 <__rc3>
    16c8: 84 14        	sty	$14                     ; 0x14 <__rc4>
    16ca: a4 12        	ldy	$12                     ; 0x12 <__rc2>
    16cc: 84 15        	sty	$15                     ; 0x15 <__rc5>
    16ce: 92 14        	sta	($14)                   ; 0x14 <__rc4>
    16d0: b5 b3        	lda	$b3,x                   ; 0xb3 <sprFrame>
    16d2: 18           	clc
    16d3: 69 ac        	adc	#$ac
    16d5: a9 00        	lda	#$0
    16d7: 69 04        	adc	#$4
    16d9: 85 14        	sta	$14                     ; 0x14 <__rc4>
    16db: a5 16        	lda	$16                     ; 0x16 <__rc6>
    16dd: 18           	clc
    16de: 69 02        	adc	#$2
    16e0: 85 12        	sta	$12                     ; 0x12 <__rc2>
    16e2: a5 17        	lda	$17                     ; 0x17 <__rc7>
    16e4: 69 00        	adc	#$0
    16e6: 85 13        	sta	$13                     ; 0x13 <__rc3>
    16e8: a5 14        	lda	$14                     ; 0x14 <__rc4>
    16ea: 92 12        	sta	($12)                   ; 0x12 <__rc2>
    16ec: e8           	inx
    16ed: 18           	clc
    16ee: a5 16        	lda	$16                     ; 0x16 <__rc6>
    16f0: 69 08        	adc	#$8
    16f2: 85 12        	sta	$12                     ; 0x12 <__rc2>
    16f4: a5 17        	lda	$17                     ; 0x17 <__rc7>
    16f6: 69 00        	adc	#$0
    16f8: a8           	tay
    16f9: 8a           	txa
    16fa: a6 12        	ldx	$12                     ; 0x12 <__rc2>
    16fc: 85 1d        	sta	$1d                     ; 0x1d <__rc13>
    16fe: c9 03        	cmp	#$3
    1700: d0 03        	bne	$1705 <dealTimer+0xbb>
    1702: 4c b5 18     	jmp	$18b5 <dealTimer+0x26b>
    1705: 8a           	txa
    1706: 18           	clc
    1707: 69 03        	adc	#$3
    1709: 85 14        	sta	$14                     ; 0x14 <__rc4>
    170b: 98           	tya
    170c: 69 00        	adc	#$0
    170e: 85 13        	sta	$13                     ; 0x13 <__rc3>
    1710: a5 14        	lda	$14                     ; 0x14 <__rc4>
    1712: 85 12        	sta	$12                     ; 0x12 <__rc2>
    1714: a5 13        	lda	$13                     ; 0x13 <__rc3>
    1716: 85 15        	sta	$15                     ; 0x15 <__rc5>
    1718: b2 12        	lda	($12)                   ; 0x12 <__rc2>
    171a: 85 19        	sta	$19                     ; 0x19 <__rc9>
    171c: 86 16        	stx	$16                     ; 0x16 <__rc6>
    171e: 8a           	txa
    171f: 18           	clc
    1720: 69 05        	adc	#$5
    1722: 85 18        	sta	$18                     ; 0x18 <__rc8>
    1724: 84 17        	sty	$17                     ; 0x17 <__rc7>
    1726: 98           	tya
    1727: 69 00        	adc	#$0
    1729: 85 1a        	sta	$1a                     ; 0x1a <__rc10>
    172b: 18           	clc
    172c: a5 19        	lda	$19                     ; 0x19 <__rc9>
    172e: 69 fd        	adc	#$fd
    1730: 85 19        	sta	$19                     ; 0x19 <__rc9>
    1732: a0 01        	ldy	#$1
    1734: b1 12        	lda	($12),y                 ; 0x12 <__rc2>
    1736: 69 ff        	adc	#$ff
    1738: aa           	tax
    1739: a5 18        	lda	$18                     ; 0x18 <__rc8>
    173b: 85 12        	sta	$12                     ; 0x12 <__rc2>
    173d: a5 1a        	lda	$1a                     ; 0x1a <__rc10>
    173f: 85 13        	sta	$13                     ; 0x13 <__rc3>
    1741: b2 12        	lda	($12)                   ; 0x12 <__rc2>
    1743: 85 1b        	sta	$1b                     ; 0x1b <__rc11>
    1745: b1 12        	lda	($12),y                 ; 0x12 <__rc2>
    1747: 85 1c        	sta	$1c                     ; 0x1c <__rc12>
    1749: 8a           	txa
    174a: f0 03        	beq	$174f <dealTimer+0x105>
    174c: 4c 6b 16     	jmp	$166b <dealTimer+0x21>
    174f: a4 19        	ldy	$19                     ; 0x19 <__rc9>
    1751: c0 10        	cpy	#$10
    1753: a6 1d        	ldx	$1d                     ; 0x1d <__rc13>
    1755: b0 03        	bcs	$175a <dealTimer+0x110>
    1757: 4c 71 16     	jmp	$1671 <dealTimer+0x27>
    175a: 4c 77 16     	jmp	$1677 <dealTimer+0x2d>
    175d: a6 cc        	ldx	$cc                     ; 0xcc <t2>
    175f: d0 03        	bne	$1764 <dealTimer+0x11a>
    1761: 4c 00 19     	jmp	$1900 <dealTimer+0x2b6>
    1764: a6 cd        	ldx	$cd                     ; 0xcd <tm2_xf>
    1766: a4 ce        	ldy	$ce                     ; 0xce <tm2_xf+0x1>
    1768: e8           	inx
    1769: d0 01        	bne	$176c <dealTimer+0x122>
    176b: c8           	iny
    176c: 86 cd        	stx	$cd                     ; 0xcd <tm2_xf>
    176e: 84 ce        	sty	$ce                     ; 0xce <tm2_xf+0x1>
    1770: 98           	tya
    1771: f0 03        	beq	$1776 <dealTimer+0x12c>
    1773: 4c c7 18     	jmp	$18c7 <dealTimer+0x27d>
    1776: e0 10        	cpx	#$10
    1778: 90 03        	bcc	$177d <dealTimer+0x133>
    177a: 4c cb 18     	jmp	$18cb <dealTimer+0x281>
    177d: 4c da 18     	jmp	$18da <dealTimer+0x290>
    1780: 38           	sec
    1781: a9 03        	lda	#$3
    1783: e5 14        	sbc	$14                     ; 0x14 <__rc4>
    1785: 85 18        	sta	$18                     ; 0x18 <__rc8>
    1787: a9 b3        	lda	#$b3
    1789: 18           	clc
    178a: 65 14        	adc	$14                     ; 0x14 <__rc4>
    178c: 85 12        	sta	$12                     ; 0x12 <__rc2>
    178e: a9 00        	lda	#$0
    1790: 69 00        	adc	#$0
    1792: 85 13        	sta	$13                     ; 0x13 <__rc3>
    1794: a5 14        	lda	$14                     ; 0x14 <__rc4>
    1796: 0a           	asl
    1797: 64 14        	stz	$14                     ; 0x14 <__rc4>
    1799: 26 14        	rol	$14                     ; 0x14 <__rc4>
    179b: 0a           	asl
    179c: 26 14        	rol	$14                     ; 0x14 <__rc4>
    179e: 0a           	asl
    179f: 26 14        	rol	$14                     ; 0x14 <__rc4>
    17a1: 64 e4        	stz	$e4                     ; 0xe4 <__sunset_size+0x50>
    17a3: 18           	clc
    17a4: 69 01        	adc	#$1
    17a6: 85 17        	sta	$17                     ; 0x17 <__rc7>
    17a8: a5 14        	lda	$14                     ; 0x14 <__rc4>
    17aa: 69 d9        	adc	#$d9
    17ac: 85 15        	sta	$15                     ; 0x15 <__rc5>
    17ae: 80 34        	bra	$17e4 <dealTimer+0x19a>
    17b0: 86 16        	stx	$16                     ; 0x16 <__rc6>
    17b2: a6 14        	ldx	$14                     ; 0x14 <__rc4>
    17b4: 86 17        	stx	$17                     ; 0x17 <__rc7>
    17b6: 92 16        	sta	($16)                   ; 0x16 <__rc6>
    17b8: a5 19        	lda	$19                     ; 0x19 <__rc9>
    17ba: 18           	clc
    17bb: 69 02        	adc	#$2
    17bd: 85 14        	sta	$14                     ; 0x14 <__rc4>
    17bf: a5 1a        	lda	$1a                     ; 0x1a <__rc10>
    17c1: 69 00        	adc	#$0
    17c3: 85 15        	sta	$15                     ; 0x15 <__rc5>
    17c5: a9 03        	lda	#$3
    17c7: 92 14        	sta	($14)                   ; 0x14 <__rc4>
    17c9: a5 19        	lda	$19                     ; 0x19 <__rc9>
    17cb: c8           	iny
    17cc: 84 14        	sty	$14                     ; 0x14 <__rc4>
    17ce: 18           	clc
    17cf: 69 08        	adc	#$8
    17d1: 85 17        	sta	$17                     ; 0x17 <__rc7>
    17d3: a5 1a        	lda	$1a                     ; 0x1a <__rc10>
    17d5: 69 00        	adc	#$0
    17d7: 85 15        	sta	$15                     ; 0x15 <__rc5>
    17d9: 84 e4        	sty	$e4                     ; 0xe4 <__sunset_size+0x50>
    17db: a6 18        	ldx	$18                     ; 0x18 <__rc8>
    17dd: e4 14        	cpx	$14                     ; 0x14 <__rc4>
    17df: d0 03        	bne	$17e4 <dealTimer+0x19a>
    17e1: 4c a2 18     	jmp	$18a2 <dealTimer+0x258>
    17e4: a5 17        	lda	$17                     ; 0x17 <__rc7>
    17e6: 18           	clc
    17e7: 69 03        	adc	#$3
    17e9: a8           	tay
    17ea: a6 15        	ldx	$15                     ; 0x15 <__rc5>
    17ec: a5 15        	lda	$15                     ; 0x15 <__rc5>
    17ee: 69 00        	adc	#$0
    17f0: 84 16        	sty	$16                     ; 0x16 <__rc6>
    17f2: 84 14        	sty	$14                     ; 0x14 <__rc4>
    17f4: 85 1d        	sta	$1d                     ; 0x1d <__rc13>
    17f6: 85 15        	sta	$15                     ; 0x15 <__rc5>
    17f8: b2 14        	lda	($14)                   ; 0x14 <__rc4>
    17fa: 85 1b        	sta	$1b                     ; 0x1b <__rc11>
    17fc: a4 17        	ldy	$17                     ; 0x17 <__rc7>
    17fe: 84 19        	sty	$19                     ; 0x19 <__rc9>
    1800: a5 17        	lda	$17                     ; 0x17 <__rc7>
    1802: 18           	clc
    1803: 69 05        	adc	#$5
    1805: 85 17        	sta	$17                     ; 0x17 <__rc7>
    1807: 86 1a        	stx	$1a                     ; 0x1a <__rc10>
    1809: 8a           	txa
    180a: 69 00        	adc	#$0
    180c: 85 1f        	sta	$1f                     ; 0x1f <__rc15>
    180e: 18           	clc
    180f: a5 1b        	lda	$1b                     ; 0x1b <__rc11>
    1811: 69 05        	adc	#$5
    1813: 85 1e        	sta	$1e                     ; 0x1e <__rc14>
    1815: a0 01        	ldy	#$1
    1817: b1 14        	lda	($14),y                 ; 0x14 <__rc4>
    1819: 69 00        	adc	#$0
    181b: 85 1b        	sta	$1b                     ; 0x1b <__rc11>
    181d: a6 17        	ldx	$17                     ; 0x17 <__rc7>
    181f: 86 1c        	stx	$1c                     ; 0x1c <__rc12>
    1821: 86 14        	stx	$14                     ; 0x14 <__rc4>
    1823: a6 1f        	ldx	$1f                     ; 0x1f <__rc15>
    1825: 86 15        	stx	$15                     ; 0x15 <__rc5>
    1827: b2 14        	lda	($14)                   ; 0x14 <__rc4>
    1829: 85 22        	sta	$22                     ; 0x22 <__rc18>
    182b: b1 14        	lda	($14),y                 ; 0x14 <__rc4>
    182d: 85 23        	sta	$23                     ; 0x23 <__rc19>
    182f: a5 1b        	lda	$1b                     ; 0x1b <__rc11>
    1831: c9 01        	cmp	#$1
    1833: f0 03        	beq	$1838 <dealTimer+0x1ee>
    1835: 4c 98 18     	jmp	$1898 <dealTimer+0x24e>
    1838: a6 1e        	ldx	$1e                     ; 0x1e <__rc14>
    183a: e0 55        	cpx	#$55
    183c: 90 04        	bcc	$1842 <dealTimer+0x1f8>
    183e: 64 1e        	stz	$1e                     ; 0x1e <__rc14>
    1840: a9 00        	lda	#$0
    1842: a6 1d        	ldx	$1d                     ; 0x1d <__rc13>
    1844: 86 17        	stx	$17                     ; 0x17 <__rc7>
    1846: a6 19        	ldx	$19                     ; 0x19 <__rc9>
    1848: 86 14        	stx	$14                     ; 0x14 <__rc4>
    184a: a6 1a        	ldx	$1a                     ; 0x1a <__rc10>
    184c: 86 15        	stx	$15                     ; 0x15 <__rc5>
    184e: a0 03        	ldy	#$3
    1850: aa           	tax
    1851: a5 1e        	lda	$1e                     ; 0x1e <__rc14>
    1853: 91 14        	sta	($14),y                 ; 0x14 <__rc4>
    1855: a0 01        	ldy	#$1
    1857: 8a           	txa
    1858: 91 16        	sta	($16),y                 ; 0x16 <__rc6>
    185a: a6 1c        	ldx	$1c                     ; 0x1c <__rc12>
    185c: 86 16        	stx	$16                     ; 0x16 <__rc6>
    185e: a6 1f        	ldx	$1f                     ; 0x1f <__rc15>
    1860: 86 17        	stx	$17                     ; 0x17 <__rc7>
    1862: a0 05        	ldy	#$5
    1864: a5 22        	lda	$22                     ; 0x22 <__rc18>
    1866: 91 14        	sta	($14),y                 ; 0x14 <__rc4>
    1868: a5 23        	lda	$23                     ; 0x23 <__rc19>
    186a: a0 01        	ldy	#$1
    186c: 91 16        	sta	($16),y                 ; 0x16 <__rc6>
    186e: 84 16        	sty	$16                     ; 0x16 <__rc6>
    1870: a4 e4        	ldy	$e4                     ; 0xe4 <__sunset_size+0x50>
    1872: b1 12        	lda	($12),y                 ; 0x12 <__rc2>
    1874: f0 02        	beq	$1878 <dealTimer+0x22e>
    1876: 64 16        	stz	$16                     ; 0x16 <__rc6>
    1878: a5 16        	lda	$16                     ; 0x16 <__rc6>
    187a: 91 12        	sta	($12),y                 ; 0x12 <__rc2>
    187c: a9 00        	lda	#$0
    187e: 92 14        	sta	($14)                   ; 0x14 <__rc4>
    1880: 18           	clc
    1881: a9 6c        	lda	#$6c
    1883: 71 12        	adc	($12),y                 ; 0x12 <__rc2>
    1885: a6 19        	ldx	$19                     ; 0x19 <__rc9>
    1887: 5a           	phy
    1888: a4 1a        	ldy	$1a                     ; 0x1a <__rc10>
    188a: 84 14        	sty	$14                     ; 0x14 <__rc4>
    188c: 7a           	ply
    188d: e8           	inx
    188e: f0 03        	beq	$1893 <dealTimer+0x249>
    1890: 4c b0 17     	jmp	$17b0 <dealTimer+0x166>
    1893: e6 14        	inc	$14                     ; 0x14 <__rc4>
    1895: 4c b0 17     	jmp	$17b0 <dealTimer+0x166>
    1898: c9 01        	cmp	#$1
    189a: 90 03        	bcc	$189f <dealTimer+0x255>
    189c: 4c 3e 18     	jmp	$183e <dealTimer+0x1f4>
    189f: 4c 42 18     	jmp	$1842 <dealTimer+0x1f8>
    18a2: a9 00        	lda	#$0
    18a4: 20 ca 1b     	jsr	$1bca <getTimerAbsolute>
    18a7: 18           	clc
    18a8: 69 05        	adc	#$5
    18aa: 85 d3        	sta	$d3                     ; 0xd3 <sprAnim+0x1>
    18ac: a2 d2        	ldx	#$d2
    18ae: 86 12        	stx	$12                     ; 0x12 <__rc2>
    18b0: a2 00        	ldx	#$0
    18b2: 4c 10 19     	jmp	$1910 <dealTimer+0x2c6>
    18b5: a9 00        	lda	#$0
    18b7: 20 ca 1b     	jsr	$1bca <getTimerAbsolute>
    18ba: 18           	clc
    18bb: 69 03        	adc	#$3
    18bd: 85 d6        	sta	$d6                     ; 0xd6 <sprBirdAnim+0x1>
    18bf: a2 d5        	ldx	#$d5
    18c1: 86 12        	stx	$12                     ; 0x12 <__rc2>
    18c3: a2 00        	ldx	#$0
    18c5: 80 49        	bra	$1910 <dealTimer+0x2c6>
    18c7: c0 00        	cpy	#$0
    18c9: 90 0f        	bcc	$18da <dealTimer+0x290>
    18cb: 64 cd        	stz	$cd                     ; 0xcd <tm2_xf>
    18cd: 64 ce        	stz	$ce                     ; 0xce <tm2_xf+0x1>
    18cf: a6 cf        	ldx	$cf                     ; 0xcf <tm2_x>
    18d1: e8           	inx
    18d2: e6 cf        	inc	$cf                     ; 0xcf <tm2_x>
    18d4: e0 14        	cpx	#$14
    18d6: 90 02        	bcc	$18da <dealTimer+0x290>
    18d8: 64 cf        	stz	$cf                     ; 0xcf <tm2_x>
    18da: a5 cf        	lda	$cf                     ; 0xcf <tm2_x>
    18dc: 0a           	asl
    18dd: 64 12        	stz	$12                     ; 0x12 <__rc2>
    18df: 26 12        	rol	$12                     ; 0x12 <__rc2>
    18e1: 0a           	asl
    18e2: 26 12        	rol	$12                     ; 0x12 <__rc2>
    18e4: 0a           	asl
    18e5: 26 12        	rol	$12                     ; 0x12 <__rc2>
    18e7: 0a           	asl
    18e8: 26 12        	rol	$12                     ; 0x12 <__rc2>
    18ea: 18           	clc
    18eb: 65 cd        	adc	$cd                     ; 0xcd <tm2_xf>
    18ed: aa           	tax
    18ee: a5 12        	lda	$12                     ; 0x12 <__rc2>
    18f0: 69 00        	adc	#$0
    18f2: 8e 20 d2     	stx	$d220                   ; 0xd220 <__heap_start+0xb33e>
    18f5: 8d 21 d2     	sta	$d221                   ; 0xd221 <__heap_start+0xb33f>
    18f8: a2 20        	ldx	#$20
    18fa: 8e 22 d2     	stx	$d222                   ; 0xd222 <__heap_start+0xb340>
    18fd: 9c 23 d2     	stz	$d223                   ; 0xd223 <__heap_start+0xb341>
    1900: a9 00        	lda	#$0
    1902: 20 ca 1b     	jsr	$1bca <getTimerAbsolute>
    1905: 18           	clc
    1906: 69 02        	adc	#$2
    1908: 85 d9        	sta	$d9                     ; 0xd9 <tileAnim+0x1>
    190a: a2 d8        	ldx	#$d8
    190c: 86 12        	stx	$12                     ; 0x12 <__rc2>
    190e: a2 00        	ldx	#$0
    1910: 86 13        	stx	$13                     ; 0x13 <__rc3>
    1912: 20 93 1b     	jsr	$1b93 <setTimer>
    1915: 60           	rts

00001916 <textPrint>:
    1916: a6 12        	ldx	$12                     ; 0x12 <__rc2>
    1918: 86 e4        	stx	$e4                     ; 0xe4 <__sunset_size+0x50>
    191a: a6 13        	ldx	$13                     ; 0x13 <__rc3>
    191c: 86 e5        	stx	$e5                     ; 0xe5 <__sunset_size+0x51>
    191e: a2 00        	ldx	#$0
    1920: 86 e6        	stx	$e6                     ; 0xe6 <__sunset_size+0x52>
    1922: a2 c0        	ldx	#$c0
    1924: 86 e7        	stx	$e7                     ; 0xe7 <__sunset_size+0x53>
    1926: a6 01        	ldx	$1                      ; 0x1
    1928: 86 eb        	stx	$eb                     ; 0xeb <__sunset_size+0x57>
    192a: a6 60        	ldx	$60                     ; 0x60 <_MAX_COL>
    192c: a4 bc        	ldy	$bc                     ; 0xbc <_row>
    192e: 8e 00 de     	stx	$de00                   ; 0xde00 <__heap_start+0xbf1e>
    1931: 9c 01 de     	stz	$de01                   ; 0xde01 <__heap_start+0xbf1f>
    1934: 8c 02 de     	sty	$de02                   ; 0xde02 <__heap_start+0xbf20>
    1937: 9c 03 de     	stz	$de03                   ; 0xde03 <__heap_start+0xbf21>
    193a: ae 10 de     	ldx	$de10                   ; 0xde10 <__heap_start+0xbf2e>
    193d: 86 12        	stx	$12                     ; 0x12 <__rc2>
    193f: ac 11 de     	ldy	$de11                   ; 0xde11 <__heap_start+0xbf2f>
    1942: ad 12 de     	lda	$de12                   ; 0xde12 <__heap_start+0xbf30>
    1945: ae 13 de     	ldx	$de13                   ; 0xde13 <__heap_start+0xbf31>
    1948: 86 13        	stx	$13                     ; 0x13 <__rc3>
    194a: 9c 08 de     	stz	$de08                   ; 0xde08 <__heap_start+0xbf26>
    194d: a2 c0        	ldx	#$c0
    194f: 8e 09 de     	stx	$de09                   ; 0xde09 <__heap_start+0xbf27>
    1952: 9c 0a de     	stz	$de0a                   ; 0xde0a <__heap_start+0xbf28>
    1955: 9c 0b de     	stz	$de0b                   ; 0xde0b <__heap_start+0xbf29>
    1958: a6 12        	ldx	$12                     ; 0x12 <__rc2>
    195a: 8e 0c de     	stx	$de0c                   ; 0xde0c <__heap_start+0xbf2a>
    195d: 8c 0d de     	sty	$de0d                   ; 0xde0d <__heap_start+0xbf2b>
    1960: 8d 0e de     	sta	$de0e                   ; 0xde0e <__heap_start+0xbf2c>
    1963: a6 13        	ldx	$13                     ; 0x13 <__rc3>
    1965: 8e 0f de     	stx	$de0f                   ; 0xde0f <__heap_start+0xbf2d>
    1968: ae 18 de     	ldx	$de18                   ; 0xde18 <__heap_start+0xbf36>
    196b: ac 19 de     	ldy	$de19                   ; 0xde19 <__heap_start+0xbf37>
    196e: ad 1a de     	lda	$de1a                   ; 0xde1a <__heap_start+0xbf38>
    1971: ad 1b de     	lda	$de1b                   ; 0xde1b <__heap_start+0xbf39>
    1974: 86 12        	stx	$12                     ; 0x12 <__rc2>
    1976: 84 13        	sty	$13                     ; 0x13 <__rc3>
    1978: a2 20        	ldx	#$20
    197a: 86 ec        	stx	$ec                     ; 0xec <__sunset_size+0x58>
    197c: 64 e8        	stz	$e8                     ; 0xe8 <__sunset_size+0x54>
    197e: 64 e9        	stz	$e9                     ; 0xe9 <__sunset_size+0x55>
    1980: 80 00        	bra	$1982 <textPrint+0x6c>
    1982: a5 e4        	lda	$e4                     ; 0xe4 <__sunset_size+0x50>
    1984: 18           	clc
    1985: 65 e8        	adc	$e8                     ; 0xe8 <__sunset_size+0x54>
    1987: 85 14        	sta	$14                     ; 0x14 <__rc4>
    1989: a5 e5        	lda	$e5                     ; 0xe5 <__sunset_size+0x51>
    198b: 65 e9        	adc	$e9                     ; 0xe9 <__sunset_size+0x55>
    198d: 85 15        	sta	$15                     ; 0x15 <__rc5>
    198f: b2 14        	lda	($14)                   ; 0x14 <__rc4>
    1991: c9 0a        	cmp	#$a
    1993: f0 29        	beq	$19be <textPrint+0xa8>
    1995: c9 0d        	cmp	#$d
    1997: f0 25        	beq	$19be <textPrint+0xa8>
    1999: aa           	tax
    199a: d0 03        	bne	$199f <textPrint+0x89>
    199c: 4c 7c 1b     	jmp	$1b7c <textPrint+0x266>
    199f: a2 03        	ldx	#$3
    19a1: 86 01        	stx	$1                      ; 0x1
    19a3: a5 62        	lda	$62                     ; 0x62 <_ccolor>
    19a5: a4 bb        	ldy	$bb                     ; 0xbb <_col>
    19a7: 91 12        	sta	($12),y                 ; 0x12 <__rc2>
    19a9: ca           	dex
    19aa: 86 01        	stx	$1                      ; 0x1
    19ac: b2 14        	lda	($14)                   ; 0x14 <__rc4>
    19ae: a4 bb        	ldy	$bb                     ; 0xbb <_col>
    19b0: 91 12        	sta	($12),y                 ; 0x12 <__rc2>
    19b2: a6 bb        	ldx	$bb                     ; 0xbb <_col>
    19b4: e8           	inx
    19b5: e6 bb        	inc	$bb                     ; 0xbb <_col>
    19b7: e4 60        	cpx	$60                     ; 0x60 <_MAX_COL>
    19b9: f0 03        	beq	$19be <textPrint+0xa8>
    19bb: 4c 8f 1a     	jmp	$1a8f <textPrint+0x179>
    19be: 64 bb        	stz	$bb                     ; 0xbb <_col>
    19c0: a6 bc        	ldx	$bc                     ; 0xbc <_row>
    19c2: e8           	inx
    19c3: e6 bc        	inc	$bc                     ; 0xbc <_row>
    19c5: a4 61        	ldy	$61                     ; 0x61 <_MAX_ROW>
    19c7: 84 ea        	sty	$ea                     ; 0xea <__sunset_size+0x56>
    19c9: e4 ea        	cpx	$ea                     ; 0xea <__sunset_size+0x56>
    19cb: f0 03        	beq	$19d0 <textPrint+0xba>
    19cd: 4c 82 1a     	jmp	$1a82 <textPrint+0x16c>
    19d0: a6 60        	ldx	$60                     ; 0x60 <_MAX_COL>
    19d2: 86 ef        	stx	$ef                     ; 0xef <__sunset_size+0x5b>
    19d4: 98           	tya
    19d5: a2 00        	ldx	#$0
    19d7: 3a           	dec
    19d8: c9 ff        	cmp	#$ff
    19da: d0 01        	bne	$19dd <textPrint+0xc7>
    19dc: ca           	dex
    19dd: a4 ef        	ldy	$ef                     ; 0xef <__sunset_size+0x5b>
    19df: 84 12        	sty	$12                     ; 0x12 <__rc2>
    19e1: 64 13        	stz	$13                     ; 0x13 <__rc3>
    19e3: 20 47 1c     	jsr	$1c47 <__mulhi3>
    19e6: 85 ed        	sta	$ed                     ; 0xed <__sunset_size+0x59>
    19e8: 86 ee        	stx	$ee                     ; 0xee <__sunset_size+0x5a>
    19ea: a2 03        	ldx	#$3
    19ec: 86 01        	stx	$1                      ; 0x1
    19ee: 38           	sec
    19ef: a9 01        	lda	#$1
    19f1: e5 ea        	sbc	$ea                     ; 0xea <__sunset_size+0x56>
    19f3: a8           	tay
    19f4: 64 ea        	stz	$ea                     ; 0xea <__sunset_size+0x56>
    19f6: a9 00        	lda	#$0
    19f8: e9 00        	sbc	#$0
    19fa: a6 ef        	ldx	$ef                     ; 0xef <__sunset_size+0x5b>
    19fc: 86 12        	stx	$12                     ; 0x12 <__rc2>
    19fe: 64 13        	stz	$13                     ; 0x13 <__rc3>
    1a00: aa           	tax
    1a01: 98           	tya
    1a02: 20 47 1c     	jsr	$1c47 <__mulhi3>
    1a05: 85 1a        	sta	$1a                     ; 0x1a <__rc10>
    1a07: a9 00        	lda	#$0
    1a09: 80 1d        	bra	$1a28 <textPrint+0x112>
    1a0b: 64 14        	stz	$14                     ; 0x14 <__rc4>
    1a0d: 64 15        	stz	$15                     ; 0x15 <__rc5>
    1a0f: a0 02        	ldy	#$2
    1a11: 84 01        	sty	$1                      ; 0x1
    1a13: a5 12        	lda	$12                     ; 0x12 <__rc2>
    1a15: e6 ea        	inc	$ea                     ; 0xea <__sunset_size+0x56>
    1a17: d0 01        	bne	$1a1a <textPrint+0x104>
    1a19: 1a           	inc
    1a1a: a4 12        	ldy	$12                     ; 0x12 <__rc2>
    1a1c: f0 03        	beq	$1a21 <textPrint+0x10b>
    1a1e: 4c 9b 1a     	jmp	$1a9b <textPrint+0x185>
    1a21: a4 13        	ldy	$13                     ; 0x13 <__rc3>
    1a23: f0 03        	beq	$1a28 <textPrint+0x112>
    1a25: 4c 9b 1a     	jmp	$1a9b <textPrint+0x185>
    1a28: 85 12        	sta	$12                     ; 0x12 <__rc2>
    1a2a: a4 ea        	ldy	$ea                     ; 0xea <__sunset_size+0x56>
    1a2c: 84 13        	sty	$13                     ; 0x13 <__rc3>
    1a2e: a4 ed        	ldy	$ed                     ; 0xed <__sunset_size+0x59>
    1a30: c0 01        	cpy	#$1
    1a32: a5 ee        	lda	$ee                     ; 0xee <__sunset_size+0x5a>
    1a34: e9 00        	sbc	#$0
    1a36: 50 02        	bvc	$1a3a <textPrint+0x124>
    1a38: 49 80        	eor	#$80
    1a3a: a8           	tay
    1a3b: 30 ce        	bmi	$1a0b <textPrint+0xf5>
    1a3d: 64 15        	stz	$15                     ; 0x15 <__rc5>
    1a3f: a0 00        	ldy	#$0
    1a41: 84 18        	sty	$18                     ; 0x18 <__rc8>
    1a43: a0 c0        	ldy	#$c0
    1a45: 84 19        	sty	$19                     ; 0x19 <__rc9>
    1a47: 64 17        	stz	$17                     ; 0x17 <__rc7>
    1a49: a4 17        	ldy	$17                     ; 0x17 <__rc7>
    1a4b: 84 14        	sty	$14                     ; 0x14 <__rc4>
    1a4d: a4 15        	ldy	$15                     ; 0x15 <__rc5>
    1a4f: 84 16        	sty	$16                     ; 0x16 <__rc6>
    1a51: a4 60        	ldy	$60                     ; 0x60 <_MAX_COL>
    1a53: b1 18        	lda	($18),y                 ; 0x18 <__rc8>
    1a55: 92 18        	sta	($18)                   ; 0x18 <__rc8>
    1a57: a0 ff        	ldy	#$ff
    1a59: c6 15        	dec	$15                     ; 0x15 <__rc5>
    1a5b: c4 15        	cpy	$15                     ; 0x15 <__rc5>
    1a5d: d0 02        	bne	$1a61 <textPrint+0x14b>
    1a5f: c6 17        	dec	$17                     ; 0x17 <__rc7>
    1a61: e6 18        	inc	$18                     ; 0x18 <__rc8>
    1a63: d0 02        	bne	$1a67 <textPrint+0x151>
    1a65: e6 19        	inc	$19                     ; 0x19 <__rc9>
    1a67: e4 17        	cpx	$17                     ; 0x17 <__rc7>
    1a69: d0 de        	bne	$1a49 <textPrint+0x133>
    1a6b: a4 1a        	ldy	$1a                     ; 0x1a <__rc10>
    1a6d: c4 15        	cpy	$15                     ; 0x15 <__rc5>
    1a6f: d0 d8        	bne	$1a49 <textPrint+0x133>
    1a71: 38           	sec
    1a72: a9 01        	lda	#$1
    1a74: e5 16        	sbc	$16                     ; 0x16 <__rc6>
    1a76: a8           	tay
    1a77: a9 00        	lda	#$0
    1a79: e5 14        	sbc	$14                     ; 0x14 <__rc4>
    1a7b: 84 14        	sty	$14                     ; 0x14 <__rc4>
    1a7d: 85 15        	sta	$15                     ; 0x15 <__rc5>
    1a7f: 4c 0f 1a     	jmp	$1a0f <textPrint+0xf9>
    1a82: a5 12        	lda	$12                     ; 0x12 <__rc2>
    1a84: 18           	clc
    1a85: 65 60        	adc	$60                     ; 0x60 <_MAX_COL>
    1a87: 85 12        	sta	$12                     ; 0x12 <__rc2>
    1a89: a5 13        	lda	$13                     ; 0x13 <__rc3>
    1a8b: 69 00        	adc	#$0
    1a8d: 85 13        	sta	$13                     ; 0x13 <__rc3>
    1a8f: e6 e8        	inc	$e8                     ; 0xe8 <__sunset_size+0x54>
    1a91: f0 03        	beq	$1a96 <textPrint+0x180>
    1a93: 4c 82 19     	jmp	$1982 <textPrint+0x6c>
    1a96: e6 e9        	inc	$e9                     ; 0xe9 <__sunset_size+0x55>
    1a98: 4c 82 19     	jmp	$1982 <textPrint+0x6c>
    1a9b: a9 00        	lda	#$0
    1a9d: 18           	clc
    1a9e: a2 01        	ldx	#$1
    1aa0: b0 02        	bcs	$1aa4 <textPrint+0x18e>
    1aa2: a2 00        	ldx	#$0
    1aa4: 86 19        	stx	$19                     ; 0x19 <__rc9>
    1aa6: 65 14        	adc	$14                     ; 0x14 <__rc4>
    1aa8: 85 12        	sta	$12                     ; 0x12 <__rc2>
    1aaa: a9 c0        	lda	#$c0
    1aac: 65 15        	adc	$15                     ; 0x15 <__rc5>
    1aae: 85 13        	sta	$13                     ; 0x13 <__rc3>
    1ab0: a2 03        	ldx	#$3
    1ab2: 86 01        	stx	$1                      ; 0x1
    1ab4: a6 60        	ldx	$60                     ; 0x60 <_MAX_COL>
    1ab6: f0 40        	beq	$1af8 <textPrint+0x1e2>
    1ab8: a9 01        	lda	#$1
    1aba: a6 19        	ldx	$19                     ; 0x19 <__rc9>
    1abc: e0 01        	cpx	#$1
    1abe: 65 14        	adc	$14                     ; 0x14 <__rc4>
    1ac0: 85 1c        	sta	$1c                     ; 0x1c <__rc12>
    1ac2: a9 c0        	lda	#$c0
    1ac4: 65 15        	adc	$15                     ; 0x15 <__rc5>
    1ac6: a8           	tay
    1ac7: 64 18        	stz	$18                     ; 0x18 <__rc8>
    1ac9: a6 12        	ldx	$12                     ; 0x12 <__rc2>
    1acb: 86 16        	stx	$16                     ; 0x16 <__rc6>
    1acd: a6 13        	ldx	$13                     ; 0x13 <__rc3>
    1acf: 86 17        	stx	$17                     ; 0x17 <__rc7>
    1ad1: a5 1c        	lda	$1c                     ; 0x1c <__rc12>
    1ad3: a6 19        	ldx	$19                     ; 0x19 <__rc9>
    1ad5: e0 01        	cpx	#$1
    1ad7: 65 18        	adc	$18                     ; 0x18 <__rc8>
    1ad9: aa           	tax
    1ada: 98           	tya
    1adb: 69 00        	adc	#$0
    1add: 5a           	phy
    1ade: a4 16        	ldy	$16                     ; 0x16 <__rc6>
    1ae0: 84 1a        	sty	$1a                     ; 0x1a <__rc10>
    1ae2: a4 17        	ldy	$17                     ; 0x17 <__rc7>
    1ae4: 84 1b        	sty	$1b                     ; 0x1b <__rc11>
    1ae6: 7a           	ply
    1ae7: 86 16        	stx	$16                     ; 0x16 <__rc6>
    1ae9: 85 17        	sta	$17                     ; 0x17 <__rc7>
    1aeb: a5 62        	lda	$62                     ; 0x62 <_ccolor>
    1aed: 92 1a        	sta	($1a)                   ; 0x1a <__rc10>
    1aef: a6 18        	ldx	$18                     ; 0x18 <__rc8>
    1af1: e8           	inx
    1af2: 86 18        	stx	$18                     ; 0x18 <__rc8>
    1af4: e4 60        	cpx	$60                     ; 0x60 <_MAX_COL>
    1af6: 90 d9        	bcc	$1ad1 <textPrint+0x1bb>
    1af8: a2 02        	ldx	#$2
    1afa: 86 01        	stx	$1                      ; 0x1
    1afc: a6 60        	ldx	$60                     ; 0x60 <_MAX_COL>
    1afe: f0 39        	beq	$1b39 <textPrint+0x223>
    1b00: a9 01        	lda	#$1
    1b02: a6 19        	ldx	$19                     ; 0x19 <__rc9>
    1b04: e0 01        	cpx	#$1
    1b06: 65 14        	adc	$14                     ; 0x14 <__rc4>
    1b08: 85 18        	sta	$18                     ; 0x18 <__rc8>
    1b0a: a9 c0        	lda	#$c0
    1b0c: 65 15        	adc	$15                     ; 0x15 <__rc5>
    1b0e: a8           	tay
    1b0f: 64 14        	stz	$14                     ; 0x14 <__rc4>
    1b11: a5 18        	lda	$18                     ; 0x18 <__rc8>
    1b13: a6 19        	ldx	$19                     ; 0x19 <__rc9>
    1b15: e0 01        	cpx	#$1
    1b17: 65 14        	adc	$14                     ; 0x14 <__rc4>
    1b19: 85 15        	sta	$15                     ; 0x15 <__rc5>
    1b1b: 98           	tya
    1b1c: 69 00        	adc	#$0
    1b1e: a6 12        	ldx	$12                     ; 0x12 <__rc2>
    1b20: 86 16        	stx	$16                     ; 0x16 <__rc6>
    1b22: a6 13        	ldx	$13                     ; 0x13 <__rc3>
    1b24: 86 17        	stx	$17                     ; 0x17 <__rc7>
    1b26: a6 15        	ldx	$15                     ; 0x15 <__rc5>
    1b28: 86 12        	stx	$12                     ; 0x12 <__rc2>
    1b2a: 85 13        	sta	$13                     ; 0x13 <__rc3>
    1b2c: a5 ec        	lda	$ec                     ; 0xec <__sunset_size+0x58>
    1b2e: 92 16        	sta	($16)                   ; 0x16 <__rc6>
    1b30: a6 14        	ldx	$14                     ; 0x14 <__rc4>
    1b32: e8           	inx
    1b33: 86 14        	stx	$14                     ; 0x14 <__rc4>
    1b35: e4 60        	cpx	$60                     ; 0x60 <_MAX_COL>
    1b37: 90 d8        	bcc	$1b11 <textPrint+0x1fb>
    1b39: a2 20        	ldx	#$20
    1b3b: 86 ec        	stx	$ec                     ; 0xec <__sunset_size+0x58>
    1b3d: c6 bc        	dec	$bc                     ; 0xbc <_row>
    1b3f: a6 61        	ldx	$61                     ; 0x61 <_MAX_ROW>
    1b41: a0 00        	ldy	#$0
    1b43: ca           	dex
    1b44: e0 ff        	cpx	#$ff
    1b46: d0 01        	bne	$1b49 <textPrint+0x233>
    1b48: 88           	dey
    1b49: 9c 08 de     	stz	$de08                   ; 0xde08 <__heap_start+0xbf26>
    1b4c: a9 c0        	lda	#$c0
    1b4e: 8d 09 de     	sta	$de09                   ; 0xde09 <__heap_start+0xbf27>
    1b51: 9c 0a de     	stz	$de0a                   ; 0xde0a <__heap_start+0xbf28>
    1b54: 9c 0b de     	stz	$de0b                   ; 0xde0b <__heap_start+0xbf29>
    1b57: 8e 0c de     	stx	$de0c                   ; 0xde0c <__heap_start+0xbf2a>
    1b5a: 8c 0d de     	sty	$de0d                   ; 0xde0d <__heap_start+0xbf2b>
    1b5d: 9c 0e de     	stz	$de0e                   ; 0xde0e <__heap_start+0xbf2c>
    1b60: 9c 0f de     	stz	$de0f                   ; 0xde0f <__heap_start+0xbf2d>
    1b63: ae 18 de     	ldx	$de18                   ; 0xde18 <__heap_start+0xbf36>
    1b66: ac 19 de     	ldy	$de19                   ; 0xde19 <__heap_start+0xbf37>
    1b69: ad 1a de     	lda	$de1a                   ; 0xde1a <__heap_start+0xbf38>
    1b6c: ad 1b de     	lda	$de1b                   ; 0xde1b <__heap_start+0xbf39>
    1b6f: 86 12        	stx	$12                     ; 0x12 <__rc2>
    1b71: 84 13        	sty	$13                     ; 0x13 <__rc3>
    1b73: e6 e8        	inc	$e8                     ; 0xe8 <__sunset_size+0x54>
    1b75: d0 02        	bne	$1b79 <textPrint+0x263>
    1b77: e6 e9        	inc	$e9                     ; 0xe9 <__sunset_size+0x55>
    1b79: 4c 82 19     	jmp	$1982 <textPrint+0x6c>
    1b7c: a6 eb        	ldx	$eb                     ; 0xeb <__sunset_size+0x57>
    1b7e: 86 01        	stx	$1                      ; 0x1
    1b80: a6 bb        	ldx	$bb                     ; 0xbb <_col>
    1b82: a4 bc        	ldy	$bc                     ; 0xbc <_row>
    1b84: 8e 14 d0     	stx	$d014                   ; 0xd014 <__heap_start+0xb132>
    1b87: 9c 15 d0     	stz	$d015                   ; 0xd015 <__heap_start+0xb133>
    1b8a: 84 bc        	sty	$bc                     ; 0xbc <_row>
    1b8c: 8c 16 d0     	sty	$d016                   ; 0xd016 <__heap_start+0xb134>
    1b8f: 9c 17 d0     	stz	$d017                   ; 0xd017 <__heap_start+0xb135>
    1b92: 60           	rts

00001b93 <setTimer>:
    1b93: b2 12        	lda	($12)                   ; 0x12 <__rc2>
    1b95: 85 f3        	sta	$f3                     ; 0xf3 <__sunset_size+0x5f>
    1b97: a0 01        	ldy	#$1
    1b99: a2 01        	ldx	#$1
    1b9b: 86 16        	stx	$16                     ; 0x16 <__rc6>
    1b9d: b1 12        	lda	($12),y                 ; 0x12 <__rc2>
    1b9f: 85 f4        	sta	$f4                     ; 0xf4 <__sunset_size+0x60>
    1ba1: c8           	iny
    1ba2: b1 12        	lda	($12),y                 ; 0x12 <__rc2>
    1ba4: 85 f5        	sta	$f5                     ; 0xf5 <__sunset_size+0x61>
    1ba6: a2 e5        	ldx	#$e5
    1ba8: a0 00        	ldy	#$0
    1baa: 86 12        	stx	$12                     ; 0x12 <__rc2>
    1bac: 84 13        	sty	$13                     ; 0x13 <__rc3>
    1bae: a2 dc        	ldx	#$dc
    1bb0: 86 14        	stx	$14                     ; 0x14 <__rc4>
    1bb2: a2 00        	ldx	#$0
    1bb4: 86 15        	stx	$15                     ; 0x15 <__rc5>
    1bb6: 20 f0 ff     	jsr	$fff0 <__heap_start+0xe10e>
    1bb9: 92 12        	sta	($12)                   ; 0x12 <__rc2>
    1bbb: a9 00        	lda	#$0
    1bbd: 6a           	ror
    1bbe: 85 14        	sta	$14                     ; 0x14 <__rc4>
    1bc0: a6 dc        	ldx	$dc                     ; 0xdc <kernelError>
    1bc2: d0 03        	bne	$1bc7 <setTimer+0x34>
    1bc4: a5 16        	lda	$16                     ; 0x16 <__rc6>
    1bc6: 60           	rts
    1bc7: a9 00        	lda	#$0
    1bc9: 60           	rts

00001bca <getTimerAbsolute>:
    1bca: 09 80        	ora	#$80
    1bcc: 85 f3        	sta	$f3                     ; 0xf3 <__sunset_size+0x5f>
    1bce: a2 e5        	ldx	#$e5
    1bd0: a0 00        	ldy	#$0
    1bd2: 86 12        	stx	$12                     ; 0x12 <__rc2>
    1bd4: 84 13        	sty	$13                     ; 0x13 <__rc3>
    1bd6: a2 dc        	ldx	#$dc
    1bd8: 86 14        	stx	$14                     ; 0x14 <__rc4>
    1bda: a2 00        	ldx	#$0
    1bdc: 86 15        	stx	$15                     ; 0x15 <__rc5>
    1bde: 20 f0 ff     	jsr	$fff0 <__heap_start+0xe10e>
    1be1: 92 12        	sta	($12)                   ; 0x12 <__rc2>
    1be3: a9 00        	lda	#$0
    1be5: 6a           	ror
    1be6: 85 14        	sta	$14                     ; 0x14 <__rc4>
    1be8: a5 e5        	lda	$e5                     ; 0xe5 <__sunset_size+0x51>
    1bea: 60           	rts

00001beb <exit>:
    1beb: 85 e4        	sta	$e4                     ; 0xe4 <__sunset_size+0x50>
    1bed: 86 e5        	stx	$e5                     ; 0xe5 <__sunset_size+0x51>
    1bef: 20 a0 03     	jsr	$3a0 <_fini>
    1bf2: a6 e5        	ldx	$e5                     ; 0xe5 <__sunset_size+0x51>
    1bf4: a5 e4        	lda	$e4                     ; 0xe4 <__sunset_size+0x50>
    1bf6: 20 f9 1b     	jsr	$1bf9 <_Exit>

00001bf9 <_Exit>:
    1bf9: 80 fe        	bra	$1bf9 <_Exit>

00001bfb <memcpy>:
    1bfb: a8           	tay
    1bfc: 8a           	txa
    1bfd: d0 03        	bne	$1c02 <memcpy+0x7>
    1bff: 98           	tya
    1c00: f0 24        	beq	$1c26 <memcpy+0x2b>
    1c02: a5 12        	lda	$12                     ; 0x12 <__rc2>
    1c04: 85 16        	sta	$16                     ; 0x16 <__rc6>
    1c06: a5 13        	lda	$13                     ; 0x13 <__rc3>
    1c08: 85 17        	sta	$17                     ; 0x17 <__rc7>
    1c0a: b2 14        	lda	($14)                   ; 0x14 <__rc4>
    1c0c: 92 16        	sta	($16)                   ; 0x16 <__rc6>
    1c0e: e6 16        	inc	$16                     ; 0x16 <__rc6>
    1c10: d0 02        	bne	$1c14 <memcpy+0x19>
    1c12: e6 17        	inc	$17                     ; 0x17 <__rc7>
    1c14: e6 14        	inc	$14                     ; 0x14 <__rc4>
    1c16: d0 02        	bne	$1c1a <memcpy+0x1f>
    1c18: e6 15        	inc	$15                     ; 0x15 <__rc5>
    1c1a: 88           	dey
    1c1b: c0 ff        	cpy	#$ff
    1c1d: d0 01        	bne	$1c20 <memcpy+0x25>
    1c1f: ca           	dex
    1c20: 8a           	txa
    1c21: d0 e7        	bne	$1c0a <memcpy+0xf>
    1c23: 98           	tya
    1c24: d0 e4        	bne	$1c0a <memcpy+0xf>
    1c26: 60           	rts

00001c27 <__memset>:
    1c27: a4 14        	ldy	$14                     ; 0x14 <__rc4>
    1c29: d0 04        	bne	$1c2f <__memset+0x8>
    1c2b: e0 00        	cpx	#$0
    1c2d: f0 17        	beq	$1c46 <__memset+0x1f>
    1c2f: 92 12        	sta	($12)                   ; 0x12 <__rc2>
    1c31: e6 12        	inc	$12                     ; 0x12 <__rc2>
    1c33: d0 02        	bne	$1c37 <__memset+0x10>
    1c35: e6 13        	inc	$13                     ; 0x13 <__rc3>
    1c37: ca           	dex
    1c38: e0 ff        	cpx	#$ff
    1c3a: d0 02        	bne	$1c3e <__memset+0x17>
    1c3c: c6 14        	dec	$14                     ; 0x14 <__rc4>
    1c3e: a4 14        	ldy	$14                     ; 0x14 <__rc4>
    1c40: d0 ed        	bne	$1c2f <__memset+0x8>
    1c42: e0 00        	cpx	#$0
    1c44: d0 e9        	bne	$1c2f <__memset+0x8>
    1c46: 60           	rts

00001c47 <__mulhi3>:
    1c47: a4 13        	ldy	$13                     ; 0x13 <__rc3>
    1c49: d0 04        	bne	$1c4f <__mulhi3+0x8>
    1c4b: a4 12        	ldy	$12                     ; 0x12 <__rc2>
    1c4d: f0 25        	beq	$1c74 <__mulhi3+0x2d>
    1c4f: 85 14        	sta	$14                     ; 0x14 <__rc4>
    1c51: 86 15        	stx	$15                     ; 0x15 <__rc5>
    1c53: a0 00        	ldy	#$0
    1c55: 98           	tya
    1c56: 46 13        	lsr	$13                     ; 0x13 <__rc3>
    1c58: 66 12        	ror	$12                     ; 0x12 <__rc2>
    1c5a: 90 09        	bcc	$1c65 <__mulhi3+0x1e>
    1c5c: aa           	tax
    1c5d: 98           	tya
    1c5e: 18           	clc
    1c5f: 65 14        	adc	$14                     ; 0x14 <__rc4>
    1c61: a8           	tay
    1c62: 8a           	txa
    1c63: 65 15        	adc	$15                     ; 0x15 <__rc5>
    1c65: 06 14        	asl	$14                     ; 0x14 <__rc4>
    1c67: 26 15        	rol	$15                     ; 0x15 <__rc5>
    1c69: a6 13        	ldx	$13                     ; 0x13 <__rc3>
    1c6b: d0 e9        	bne	$1c56 <__mulhi3+0xf>
    1c6d: a6 12        	ldx	$12                     ; 0x12 <__rc2>
    1c6f: d0 e5        	bne	$1c56 <__mulhi3+0xf>
    1c71: aa           	tax
    1c72: 98           	tya
    1c73: 60           	rts
    1c74: a0 00        	ldy	#$0
    1c76: 98           	tya
    1c77: 80 f8        	bra	$1c71 <__mulhi3+0x2a>
