
gfxDemo.elf:	file format elf32-mos

SYMBOL TABLE:
00000000 l    df *ABS*	00000000 zero-bss.c
00000000 l    df *ABS*	00000000 zero-zp-bss.c
00000000 l    df *ABS*	00000000 copy-zp-data.c
00000000 l    df *ABS*	00000000 ld-temp.o
000003ab l     F .text	00000461 f256Init
0000009f l     O .zp.bss	00000007 kernelEventData
00000086 l     O .zp.bss	00000001 _ccolor
00002128 l     O .rodata	00000030 textColors
00000087 l     O .zp.bss	00000001 _col
00000088 l     O .zp.bss	00000001 _row
000022de l     O .bss	00000004 _BITMAP_BASE.0
000022e2 l     O .bss	00000004 _BITMAP_BASE.1
000022e6 l     O .bss	00000004 _BITMAP_BASE.2
00000089 l     O .zp.bss	00000001 _BITMAP_CLUT.0
0000008a l     O .zp.bss	00000001 _BITMAP_CLUT.1
0000008b l     O .zp.bss	00000001 _BITMAP_CLUT.2
0000008c l     O .zp.bss	00000001 _tileSize.2
000022ea l     O .bss	00000040 _spriteCtl
0000232a l     O .bss	00000001 kernelError
00000812 l     F .text	0000146f f256main
00000096 l     O .zp.bss	00000003 sprAnim
00000099 l     O .zp.bss	00000003 sprBirdAnim
0000009c l     O .zp.bss	00000003 tileAnim
00000030 l     O .zp.data	00000050 textFancy
00001c81 l     F .text	00000394 textPrint
00000091 l     O .zp.bss	00000001 mEn
00000080 l     O .zp.data	00000001 b0
00000082 l     O .zp.data	00000001 b2
0000008d l     O .zp.bss	00000001 t2
00000081 l     O .zp.data	00000001 b1
00000092 l     O .zp.bss	00000001 isSunset
00000095 l     O .zp.bss	00000001 sprBirdFrame.0
00000093 l     O .zp.bss	00000001 sprFrame.0
0000008e l     O .zp.bss	00000002 tm2_xf
00000090 l     O .zp.bss	00000001 tm2_x
00000083 l     O .zp.data	00000001 sprFrame.1
00000094 l     O .zp.bss	00000001 sprFrame.2
00000084 l     O .zp.data	00000001 sprBirdFrame.1
00000085 l     O .zp.data	00000001 sprBirdFrame.2
00002066 l     F .text	00000032 __mulhi3
0000080c g     F .text	00000006 main
00038000 g       .level3	00000000 level3_start
0004b000 g       .sunset	00000000 sunset_start
0004b400 g       .tile3	00000000 tile3_start
00010094 g       .pal	00000000 pal_end
0004b094 g       .sunset	00000000 sunset_end
0004bf00 g       .tile3	00000000 tile3_end
00036c00 g       .level2	00000000 level2_end
00010400 g       .level1	00000000 level1_start
0004b000 g       .bird	00000000 bird_end
00036c00 g       .thing	00000000 thing_start
0004ac00 g       .level3	00000000 level3_end
00010000 g       .pal	00000000 pal_start
00037000 g       .thing	00000000 thing_end
00023400 g       .gpal	00000000 gpal_end
0004ac00 g       .bird	00000000 bird_start
00024000 g       .level2	00000000 level2_start
00023000 g       .gpal	00000000 gpal_start
00023000 g       .level1	00000000 level1_end
0000036a g       .text	00000000 __after_main
00000356 g       .text	00000000 __do_init_stack
00000364 g       .text	00000000 __do_copy_zp_data
00000394 g     F .text	00000017 __copy_zp_data
0000035e g       .text	00000000 __do_zero_bss
0000036e g     F .text	00000013 __zero_bss
00000361 g       .text	00000000 __do_zero_zp_bss
00000381 g     F .text	00000013 __zero_zp_bss
00002015 g     F .text	00000005 exit
0000036d g       .text	00000000 _fini
00002046  w    F .text	00000020 __memset
00001000  w      *ABS*	00000000 __heap_default_limit
0000232c g       .noinit	00000000 __heap_start
0000201a  w    F .text	0000002c memcpy
00000010 g       *ABS*	00000000 __rc0
00000012 g       *ABS*	00000000 __rc2
00000014 g       *ABS*	00000000 __rc4
00000016 g       *ABS*	00000000 __rc6
00000018 g       *ABS*	00000000 __rc8
0000001a g       *ABS*	00000000 __rc10
0000001c g       *ABS*	00000000 __rc12
0000001e g       *ABS*	00000000 __rc14
00000020 g       *ABS*	00000000 __rc16
00000022 g       *ABS*	00000000 __rc18
00000024 g       *ABS*	00000000 __rc20
00000026 g       *ABS*	00000000 __rc22
00000028 g       *ABS*	00000000 __rc24
0000002a g       *ABS*	00000000 __rc26
0000002c g       *ABS*	00000000 __rc28
0000002e g       *ABS*	00000000 __rc30
0000002f g       *ABS*	00000000 __rc31
00000300 g       *ABS*	00000000 __f256_start
0000a000 g       *ABS*	00000000 __stack
0000a000 g       *ABS*	00000000 __SLOT_ADDR
0800a000 g       *ABS*	00000000 __block8_lma
00002000 g       *ABS*	00000000 __BLOCK_SIZE
0900a000 g       *ABS*	00000000 __block9_lma
0a00a000 g       *ABS*	00000000 __block10_lma
0b00a000 g       *ABS*	00000000 __block11_lma
0c00a000 g       *ABS*	00000000 __block12_lma
0d00a000 g       *ABS*	00000000 __block13_lma
0e00a000 g       *ABS*	00000000 __block14_lma
0f00a000 g       *ABS*	00000000 __block15_lma
1000a000 g       *ABS*	00000000 __block16_lma
1100a000 g       *ABS*	00000000 __block17_lma
1200a000 g       *ABS*	00000000 __block18_lma
1300a000 g       *ABS*	00000000 __block19_lma
1400a000 g       *ABS*	00000000 __block20_lma
1500a000 g       *ABS*	00000000 __block21_lma
1600a000 g       *ABS*	00000000 __block22_lma
1700a000 g       *ABS*	00000000 __block23_lma
00010000 g       *ABS*	00000000 __pal_lma
00000094 g       *ABS*	00000000 __pal_size
00010400 g       *ABS*	00000000 __level1_lma
00012c00 g       *ABS*	00000000 __level1_size
00023000 g       *ABS*	00000000 __gpal_lma
00000400 g       *ABS*	00000000 __gpal_size
00024000 g       *ABS*	00000000 __level2_lma
00012c00 g       *ABS*	00000000 __level2_size
00036c00 g       *ABS*	00000000 __thing_lma
00000400 g       *ABS*	00000000 __thing_size
00038000 g       *ABS*	00000000 __level3_lma
00012c00 g       *ABS*	00000000 __level3_size
0004ac00 g       *ABS*	00000000 __bird_lma
00000400 g       *ABS*	00000000 __bird_size
0004b000 g       *ABS*	00000000 __sunset_lma
00000094 g       *ABS*	00000000 __sunset_size
0004b400 g       *ABS*	00000000 __tile3_lma
00000b00 g       *ABS*	00000000 __tile3_size
000022de g       .bss	00000000 __bss_start
00010094 g       .pal	00000000 end_pal
00023000 g       .level1	00000000 end_level1
00023400 g       .gpal	00000000 end_gpal
00036c00 g       .level2	00000000 end_level2
00037000 g       .thing	00000000 end_thing
0004ac00 g       .level3	00000000 end_level3
0004b000 g       .bird	00000000 end_bird
0004b094 g       .sunset	00000000 end_sunset
0004bf00 g       .tile3	00000000 end_tile3
00000356 g       .text	00000000 _start
0000002d g       *ABS*	00000000 __rc29
0000002b g       *ABS*	00000000 __rc27
00000029 g       *ABS*	00000000 __rc25
00000027 g       *ABS*	00000000 __rc23
00000025 g       *ABS*	00000000 __rc21
00000023 g       *ABS*	00000000 __rc19
00000021 g       *ABS*	00000000 __rc17
0000001f g       *ABS*	00000000 __rc15
0000001d g       *ABS*	00000000 __rc13
0000001b g       *ABS*	00000000 __rc11
00000019 g       *ABS*	00000000 __rc9
00000017 g       *ABS*	00000000 __rc7
00000015 g       *ABS*	00000000 __rc5
00000013 g       *ABS*	00000000 __rc3
00000011 g       *ABS*	00000000 __rc1
00000030 g       .zp.data	00000000 __zp_data_start
00000300 g       *ABS*	00000000 __zp_data_load_start
00000056 g       *ABS*	00000000 __zp_data_size
00000086 g       .zp.bss	00000000 __zp_bss_start
00000020 g       *ABS*	00000000 __zp_bss_size
00000356 g       .text	00000000 _init
00002098 g       .text	00000000 __init_array_start
00002098 g       .text	00000000 __init_array_end
00002098 g       .text	00000000 __fini_array_start
00002098 g       .text	00000000 __fini_array_end
000022de g       .data	00000000 __data_start
000022de g       .data	00000000 __data_end
000022de g       *ABS*	00000000 __data_load_start
00000000 g       *ABS*	00000000 __data_size
0000232b g       .bss	00000000 __bss_end
0000004d g       *ABS*	00000000 __bss_size
0000232b g       .noinit	00000000 end_block8
0000232b g       .noinit	00000000 end_block9
0000232b g       .noinit	00000000 end_block10
0000232b g       .noinit	00000000 end_block11
0000232b g       .noinit	00000000 end_block12
0000232b g       .noinit	00000000 end_block13
0000232b g       .noinit	00000000 end_block14
0000232b g       .noinit	00000000 end_block15
0000232b g       .noinit	00000000 end_block16
0000232b g       .noinit	00000000 end_block17
0000232b g       .noinit	00000000 end_block18
0000232b g       .noinit	00000000 end_block19
0000232b g       .noinit	00000000 end_block20
0000232b g       .noinit	00000000 end_block21
0000232b g       .noinit	00000000 end_block22
0000232b g       .noinit	00000000 end_block23

Disassembly of section .text:

00000356 <_start>:
     356: a9 00        	lda	#$0
     358: 85 10        	sta	$10                     ; 0x10 <__rc0>
     35a: a9 a0        	lda	#$a0
     35c: 85 11        	sta	$11                     ; 0x11 <__rc1>

0000035e <__do_zero_bss>:
     35e: 20 6e 03     	jsr	$36e <__zero_bss>

00000361 <__do_zero_zp_bss>:
     361: 20 81 03     	jsr	$381 <__zero_zp_bss>

00000364 <__do_copy_zp_data>:
     364: 20 94 03     	jsr	$394 <__copy_zp_data>
     367: 20 0c 08     	jsr	$80c <main>

0000036a <__after_main>:
     36a: 4c 15 20     	jmp	$2015 <exit>

0000036d <_fini>:
     36d: 60           	rts

0000036e <__zero_bss>:
     36e: a2 4d        	ldx	#$4d
     370: a0 00        	ldy	#$0
     372: a9 de        	lda	#$de
     374: 85 12        	sta	$12                     ; 0x12 <__rc2>
     376: a9 22        	lda	#$22
     378: 85 13        	sta	$13                     ; 0x13 <__rc3>
     37a: a9 00        	lda	#$0
     37c: 84 14        	sty	$14                     ; 0x14 <__rc4>
     37e: 4c 46 20     	jmp	$2046 <__memset>

00000381 <__zero_zp_bss>:
     381: a2 20        	ldx	#$20
     383: a0 00        	ldy	#$0
     385: a9 86        	lda	#$86
     387: 85 12        	sta	$12                     ; 0x12 <__rc2>
     389: a9 00        	lda	#$0
     38b: 85 13        	sta	$13                     ; 0x13 <__rc3>
     38d: a9 00        	lda	#$0
     38f: 84 14        	sty	$14                     ; 0x14 <__rc4>
     391: 4c 46 20     	jmp	$2046 <__memset>

00000394 <__copy_zp_data>:
     394: a9 56        	lda	#$56
     396: a2 00        	ldx	#$0
     398: a0 30        	ldy	#$30
     39a: 84 12        	sty	$12                     ; 0x12 <__rc2>
     39c: a0 00        	ldy	#$0
     39e: 84 13        	sty	$13                     ; 0x13 <__rc3>
     3a0: a0 00        	ldy	#$0
     3a2: 84 14        	sty	$14                     ; 0x14 <__rc4>
     3a4: a0 03        	ldy	#$3
     3a6: 84 15        	sty	$15                     ; 0x15 <__rc5>
     3a8: 4c 1a 20     	jmp	$201a <memcpy>

000003ab <f256Init>:
     3ab: 64 1c        	stz	$1c                     ; 0x1c <__rc12>
     3ad: a2 00        	ldx	#$0
     3af: 86 1a        	stx	$1a                     ; 0x1a <__rc10>
     3b1: a2 d0        	ldx	#$d0
     3b3: 86 1b        	stx	$1b                     ; 0x1b <__rc11>
     3b5: a2 00        	ldx	#$0
     3b7: 86 16        	stx	$16                     ; 0x16 <__rc6>
     3b9: a2 d8        	ldx	#$d8
     3bb: 86 17        	stx	$17                     ; 0x17 <__rc7>
     3bd: a2 00        	ldx	#$0
     3bf: 86 18        	stx	$18                     ; 0x18 <__rc8>
     3c1: a2 d4        	ldx	#$d4
     3c3: 86 19        	stx	$19                     ; 0x19 <__rc9>
     3c5: a2 00        	ldx	#$0
     3c7: 86 14        	stx	$14                     ; 0x14 <__rc4>
     3c9: a2 dc        	ldx	#$dc
     3cb: 86 15        	stx	$15                     ; 0x15 <__rc5>
     3cd: a2 00        	ldx	#$0
     3cf: 86 12        	stx	$12                     ; 0x12 <__rc2>
     3d1: a2 c0        	ldx	#$c0
     3d3: 86 13        	stx	$13                     ; 0x13 <__rc3>
     3d5: 64 01        	stz	$1                      ; 0x1 <__data_size+0x1>
     3d7: a2 3f        	ldx	#$3f
     3d9: 8e 00 d0     	stx	$d000                   ; 0xd000 <__heap_start+0xacd4>
     3dc: a2 b3        	ldx	#$b3
     3de: 86 00        	stx	$0                      ; 0x0 <__data_size>
     3e0: 64 08        	stz	$8                      ; 0x8 <__data_size+0x8>
     3e2: a2 01        	ldx	#$1
     3e4: 86 09        	stx	$9                      ; 0x9 <__data_size+0x9>
     3e6: e8           	inx
     3e7: 86 0a        	stx	$a                      ; 0xa <__data_size+0xa>
     3e9: e8           	inx
     3ea: 86 0b        	stx	$b                      ; 0xb <__data_size+0xb>
     3ec: e8           	inx
     3ed: 86 0c        	stx	$c                      ; 0xc <__data_size+0xc>
     3ef: e8           	inx
     3f0: 86 0d        	stx	$d                      ; 0xd <__data_size+0xd>
     3f2: a2 9f        	ldx	#$9f
     3f4: a9 00        	lda	#$0
     3f6: 86 f0        	stx	$f0                     ; 0xf0 <__sunset_size+0x5c>
     3f8: 85 f1        	sta	$f1                     ; 0xf1 <__sunset_size+0x5d>
     3fa: a6 01        	ldx	$1                      ; 0x1 <__data_size+0x1>
     3fc: a0 01        	ldy	#$1
     3fe: 84 01        	sty	$1                      ; 0x1 <__data_size+0x1>
     400: a5 1c        	lda	$1c                     ; 0x1c <__rc12>
     402: 92 1a        	sta	($1a)                   ; 0x1a <__rc10>
     404: 91 1a        	sta	($1a),y                 ; 0x1a <__rc10>
     406: c8           	iny
     407: 91 1a        	sta	($1a),y                 ; 0x1a <__rc10>
     409: c8           	iny
     40a: a9 ff        	lda	#$ff
     40c: 91 1a        	sta	($1a),y                 ; 0x1a <__rc10>
     40e: 86 01        	stx	$1                      ; 0x1 <__data_size+0x1>
     410: a5 1a        	lda	$1a                     ; 0x1a <__rc10>
     412: 18           	clc
     413: 69 04        	adc	#$4
     415: 85 1a        	sta	$1a                     ; 0x1a <__rc10>
     417: a5 1b        	lda	$1b                     ; 0x1b <__rc11>
     419: 69 00        	adc	#$0
     41b: e6 1c        	inc	$1c                     ; 0x1c <__rc12>
     41d: 85 1b        	sta	$1b                     ; 0x1b <__rc11>
     41f: d0 d9        	bne	$3fa <f256Init+0x4f>
     421: a9 00        	lda	#$0
     423: a6 01        	ldx	$1                      ; 0x1 <__data_size+0x1>
     425: a0 01        	ldy	#$1
     427: 84 01        	sty	$1                      ; 0x1 <__data_size+0x1>
     429: 92 18        	sta	($18)                   ; 0x18 <__rc8>
     42b: 91 18        	sta	($18),y                 ; 0x18 <__rc8>
     42d: c8           	iny
     42e: 91 18        	sta	($18),y                 ; 0x18 <__rc8>
     430: c8           	iny
     431: 85 1a        	sta	$1a                     ; 0x1a <__rc10>
     433: a9 ff        	lda	#$ff
     435: 91 18        	sta	($18),y                 ; 0x18 <__rc8>
     437: 86 01        	stx	$1                      ; 0x1 <__data_size+0x1>
     439: a5 18        	lda	$18                     ; 0x18 <__rc8>
     43b: 18           	clc
     43c: 69 04        	adc	#$4
     43e: 85 18        	sta	$18                     ; 0x18 <__rc8>
     440: a5 19        	lda	$19                     ; 0x19 <__rc9>
     442: 69 00        	adc	#$0
     444: e6 1a        	inc	$1a                     ; 0x1a <__rc10>
     446: 85 19        	sta	$19                     ; 0x19 <__rc9>
     448: a5 1a        	lda	$1a                     ; 0x1a <__rc10>
     44a: d0 d7        	bne	$423 <f256Init+0x78>
     44c: a9 00        	lda	#$0
     44e: a6 01        	ldx	$1                      ; 0x1 <__data_size+0x1>
     450: a0 01        	ldy	#$1
     452: 84 01        	sty	$1                      ; 0x1 <__data_size+0x1>
     454: 92 16        	sta	($16)                   ; 0x16 <__rc6>
     456: 91 16        	sta	($16),y                 ; 0x16 <__rc6>
     458: c8           	iny
     459: 91 16        	sta	($16),y                 ; 0x16 <__rc6>
     45b: c8           	iny
     45c: 85 18        	sta	$18                     ; 0x18 <__rc8>
     45e: a9 ff        	lda	#$ff
     460: 91 16        	sta	($16),y                 ; 0x16 <__rc6>
     462: 86 01        	stx	$1                      ; 0x1 <__data_size+0x1>
     464: a5 16        	lda	$16                     ; 0x16 <__rc6>
     466: 18           	clc
     467: 69 04        	adc	#$4
     469: 85 16        	sta	$16                     ; 0x16 <__rc6>
     46b: a5 17        	lda	$17                     ; 0x17 <__rc7>
     46d: 69 00        	adc	#$0
     46f: e6 18        	inc	$18                     ; 0x18 <__rc8>
     471: 85 17        	sta	$17                     ; 0x17 <__rc7>
     473: a5 18        	lda	$18                     ; 0x18 <__rc8>
     475: d0 d7        	bne	$44e <f256Init+0xa3>
     477: a9 00        	lda	#$0
     479: a6 01        	ldx	$1                      ; 0x1 <__data_size+0x1>
     47b: a0 01        	ldy	#$1
     47d: 84 01        	sty	$1                      ; 0x1 <__data_size+0x1>
     47f: 92 14        	sta	($14)                   ; 0x14 <__rc4>
     481: 91 14        	sta	($14),y                 ; 0x14 <__rc4>
     483: c8           	iny
     484: 91 14        	sta	($14),y                 ; 0x14 <__rc4>
     486: c8           	iny
     487: 85 16        	sta	$16                     ; 0x16 <__rc6>
     489: a9 ff        	lda	#$ff
     48b: 91 14        	sta	($14),y                 ; 0x14 <__rc4>
     48d: 86 01        	stx	$1                      ; 0x1 <__data_size+0x1>
     48f: a5 14        	lda	$14                     ; 0x14 <__rc4>
     491: 18           	clc
     492: 69 04        	adc	#$4
     494: 85 14        	sta	$14                     ; 0x14 <__rc4>
     496: a5 15        	lda	$15                     ; 0x15 <__rc5>
     498: 69 00        	adc	#$0
     49a: e6 16        	inc	$16                     ; 0x16 <__rc6>
     49c: 85 15        	sta	$15                     ; 0x15 <__rc5>
     49e: a5 16        	lda	$16                     ; 0x16 <__rc6>
     4a0: d0 d7        	bne	$479 <f256Init+0xce>
     4a2: ad 02 d0     	lda	$d002                   ; 0xd002 <__heap_start+0xacd6>
     4a5: 29 f0        	and	#$f0
     4a7: 8d 02 d0     	sta	$d002                   ; 0xd002 <__heap_start+0xacd6>
     4aa: ad 02 d0     	lda	$d002                   ; 0xd002 <__heap_start+0xacd6>
     4ad: 29 0f        	and	#$f
     4af: 09 10        	ora	#$10
     4b1: 8d 02 d0     	sta	$d002                   ; 0xd002 <__heap_start+0xacd6>
     4b4: a2 02        	ldx	#$2
     4b6: 8e 03 d0     	stx	$d003                   ; 0xd003 <__heap_start+0xacd7>
     4b9: 64 86        	stz	$86                     ; 0x86 <_ccolor>
     4bb: ad 01 d0     	lda	$d001                   ; 0xd001 <__heap_start+0xacd5>
     4be: 29 f9        	and	#$f9
     4c0: 09 04        	ora	#$4
     4c2: 8d 01 d0     	sta	$d001                   ; 0xd001 <__heap_start+0xacd5>
     4c5: 64 14        	stz	$14                     ; 0x14 <__rc4>
     4c7: 9c 10 d0     	stz	$d010                   ; 0xd010 <__heap_start+0xace4>
     4ca: a2 00        	ldx	#$0
     4cc: 64 15        	stz	$15                     ; 0x15 <__rc5>
     4ce: 86 18        	stx	$18                     ; 0x18 <__rc8>
     4d0: a4 18        	ldy	$18                     ; 0x18 <__rc8>
     4d2: be 28 21     	ldx	$2128,y                 ; 0x2128 <textColors>
     4d5: 86 19        	stx	$19                     ; 0x19 <__rc9>
     4d7: be 29 21     	ldx	$2129,y                 ; 0x2129 <textColors+0x1>
     4da: 86 1a        	stx	$1a                     ; 0x1a <__rc10>
     4dc: be 2a 21     	ldx	$212a,y                 ; 0x212a <textColors+0x2>
     4df: 86 1b        	stx	$1b                     ; 0x1b <__rc11>
     4e1: a6 15        	ldx	$15                     ; 0x15 <__rc5>
     4e3: 8e 00 de     	stx	$de00                   ; 0xde00 <__heap_start+0xbad4>
     4e6: 86 17        	stx	$17                     ; 0x17 <__rc7>
     4e8: 9c 01 de     	stz	$de01                   ; 0xde01 <__heap_start+0xbad5>
     4eb: a2 04        	ldx	#$4
     4ed: 8e 02 de     	stx	$de02                   ; 0xde02 <__heap_start+0xbad6>
     4f0: 86 1d        	stx	$1d                     ; 0x1d <__rc13>
     4f2: 9c 03 de     	stz	$de03                   ; 0xde03 <__heap_start+0xbad7>
     4f5: ad 10 de     	lda	$de10                   ; 0xde10 <__heap_start+0xbae4>
     4f8: ac 11 de     	ldy	$de11                   ; 0xde11 <__heap_start+0xbae5>
     4fb: 84 15        	sty	$15                     ; 0x15 <__rc5>
     4fd: ac 12 de     	ldy	$de12                   ; 0xde12 <__heap_start+0xbae6>
     500: ac 13 de     	ldy	$de13                   ; 0xde13 <__heap_start+0xbae7>
     503: a2 00        	ldx	#$0
     505: 18           	clc
     506: 65 14        	adc	$14                     ; 0x14 <__rc4>
     508: a8           	tay
     509: 86 1f        	stx	$1f                     ; 0x1f <__rc15>
     50b: a6 17        	ldx	$17                     ; 0x17 <__rc7>
     50d: a9 d8        	lda	#$d8
     50f: 65 15        	adc	$15                     ; 0x15 <__rc5>
     511: 84 16        	sty	$16                     ; 0x16 <__rc6>
     513: 85 17        	sta	$17                     ; 0x17 <__rc7>
     515: a5 1b        	lda	$1b                     ; 0x1b <__rc11>
     517: 92 16        	sta	($16)                   ; 0x16 <__rc6>
     519: a0 01        	ldy	#$1
     51b: a5 1a        	lda	$1a                     ; 0x1a <__rc10>
     51d: 91 16        	sta	($16),y                 ; 0x16 <__rc6>
     51f: 84 1c        	sty	$1c                     ; 0x1c <__rc12>
     521: c8           	iny
     522: a5 19        	lda	$19                     ; 0x19 <__rc9>
     524: 91 16        	sta	($16),y                 ; 0x16 <__rc6>
     526: 84 1e        	sty	$1e                     ; 0x1e <__rc14>
     528: c8           	iny
     529: a9 ff        	lda	#$ff
     52b: 91 16        	sta	($16),y                 ; 0x16 <__rc6>
     52d: 85 23        	sta	$23                     ; 0x23 <__rc19>
     52f: 84 22        	sty	$22                     ; 0x22 <__rc18>
     531: 8e 00 de     	stx	$de00                   ; 0xde00 <__heap_start+0xbad4>
     534: 9c 01 de     	stz	$de01                   ; 0xde01 <__heap_start+0xbad5>
     537: a4 1d        	ldy	$1d                     ; 0x1d <__rc13>
     539: 8c 02 de     	sty	$de02                   ; 0xde02 <__heap_start+0xbad6>
     53c: 9c 03 de     	stz	$de03                   ; 0xde03 <__heap_start+0xbad7>
     53f: ad 10 de     	lda	$de10                   ; 0xde10 <__heap_start+0xbae4>
     542: 85 15        	sta	$15                     ; 0x15 <__rc5>
     544: ad 11 de     	lda	$de11                   ; 0xde11 <__heap_start+0xbae5>
     547: 85 16        	sta	$16                     ; 0x16 <__rc6>
     549: a9 40        	lda	#$40
     54b: a4 1f        	ldy	$1f                     ; 0x1f <__rc15>
     54d: c0 01        	cpy	#$1
     54f: 65 15        	adc	$15                     ; 0x15 <__rc5>
     551: a8           	tay
     552: a9 d8        	lda	#$d8
     554: 65 16        	adc	$16                     ; 0x16 <__rc6>
     556: 85 17        	sta	$17                     ; 0x17 <__rc7>
     558: 84 16        	sty	$16                     ; 0x16 <__rc6>
     55a: ad 12 de     	lda	$de12                   ; 0xde12 <__heap_start+0xbae6>
     55d: ad 13 de     	lda	$de13                   ; 0xde13 <__heap_start+0xbae7>
     560: a5 1b        	lda	$1b                     ; 0x1b <__rc11>
     562: 92 16        	sta	($16)                   ; 0x16 <__rc6>
     564: a5 1a        	lda	$1a                     ; 0x1a <__rc10>
     566: a4 1c        	ldy	$1c                     ; 0x1c <__rc12>
     568: 91 16        	sta	($16),y                 ; 0x16 <__rc6>
     56a: a5 19        	lda	$19                     ; 0x19 <__rc9>
     56c: a4 1e        	ldy	$1e                     ; 0x1e <__rc14>
     56e: 91 16        	sta	($16),y                 ; 0x16 <__rc6>
     570: a4 22        	ldy	$22                     ; 0x22 <__rc18>
     572: a5 23        	lda	$23                     ; 0x23 <__rc19>
     574: 91 16        	sta	($16),y                 ; 0x16 <__rc6>
     576: e8           	inx
     577: 86 15        	stx	$15                     ; 0x15 <__rc5>
     579: 18           	clc
     57a: a5 18        	lda	$18                     ; 0x18 <__rc8>
     57c: 69 03        	adc	#$3
     57e: aa           	tax
     57f: c9 30        	cmp	#$30
     581: f0 03        	beq	$586 <f256Init+0x1db>
     583: 4c ce 04     	jmp	$4ce <f256Init+0x123>
     586: a6 01        	ldx	$1                      ; 0x1 <__data_size+0x1>
     588: 86 18        	stx	$18                     ; 0x18 <__rc8>
     58a: a2 50        	ldx	#$50
     58c: 8e 00 de     	stx	$de00                   ; 0xde00 <__heap_start+0xbad4>
     58f: 9c 01 de     	stz	$de01                   ; 0xde01 <__heap_start+0xbad5>
     592: a2 1e        	ldx	#$1e
     594: 8e 02 de     	stx	$de02                   ; 0xde02 <__heap_start+0xbad6>
     597: 9c 03 de     	stz	$de03                   ; 0xde03 <__heap_start+0xbad7>
     59a: ae 10 de     	ldx	$de10                   ; 0xde10 <__heap_start+0xbae4>
     59d: ac 11 de     	ldy	$de11                   ; 0xde11 <__heap_start+0xbae5>
     5a0: ad 12 de     	lda	$de12                   ; 0xde12 <__heap_start+0xbae6>
     5a3: ad 13 de     	lda	$de13                   ; 0xde13 <__heap_start+0xbae7>
     5a6: a9 02        	lda	#$2
     5a8: 85 01        	sta	$1                      ; 0x1 <__data_size+0x1>
     5aa: e0 01        	cpx	#$1
     5ac: 98           	tya
     5ad: e9 00        	sbc	#$0
     5af: 50 02        	bvc	$5b3 <f256Init+0x208>
     5b1: 49 80        	eor	#$80
     5b3: c9 00        	cmp	#$0
     5b5: 10 03        	bpl	$5ba <f256Init+0x20f>
     5b7: 4c 1b 06     	jmp	$61b <f256Init+0x270>
     5ba: a9 20        	lda	#$20
     5bc: 86 19        	stx	$19                     ; 0x19 <__rc9>
     5be: 86 14        	stx	$14                     ; 0x14 <__rc4>
     5c0: 84 15        	sty	$15                     ; 0x15 <__rc5>
     5c2: a2 00        	ldx	#$0
     5c4: 86 16        	stx	$16                     ; 0x16 <__rc6>
     5c6: a2 c0        	ldx	#$c0
     5c8: 86 17        	stx	$17                     ; 0x17 <__rc7>
     5ca: 80 04        	bra	$5d0 <f256Init+0x225>
     5cc: a6 15        	ldx	$15                     ; 0x15 <__rc5>
     5ce: f0 14        	beq	$5e4 <f256Init+0x239>
     5d0: 92 16        	sta	($16)                   ; 0x16 <__rc6>
     5d2: e6 16        	inc	$16                     ; 0x16 <__rc6>
     5d4: d0 02        	bne	$5d8 <f256Init+0x22d>
     5d6: e6 17        	inc	$17                     ; 0x17 <__rc7>
     5d8: a2 ff        	ldx	#$ff
     5da: c6 14        	dec	$14                     ; 0x14 <__rc4>
     5dc: e4 14        	cpx	$14                     ; 0x14 <__rc4>
     5de: d0 ec        	bne	$5cc <f256Init+0x221>
     5e0: c6 15        	dec	$15                     ; 0x15 <__rc5>
     5e2: 80 e8        	bra	$5cc <f256Init+0x221>
     5e4: a6 14        	ldx	$14                     ; 0x14 <__rc4>
     5e6: d0 e8        	bne	$5d0 <f256Init+0x225>
     5e8: a2 03        	ldx	#$3
     5ea: 86 01        	stx	$1                      ; 0x1 <__data_size+0x1>
     5ec: a5 86        	lda	$86                     ; 0x86 <_ccolor>
     5ee: 29 01        	and	#$1
     5f0: aa           	tax
     5f1: a9 d2        	lda	#$d2
     5f3: e0 00        	cpx	#$0
     5f5: d0 02        	bne	$5f9 <f256Init+0x24e>
     5f7: a9 f0        	lda	#$f0
     5f9: a6 19        	ldx	$19                     ; 0x19 <__rc9>
     5fb: 80 06        	bra	$603 <f256Init+0x258>
     5fd: a5 14        	lda	$14                     ; 0x14 <__rc4>
     5ff: c0 00        	cpy	#$0
     601: f0 12        	beq	$615 <f256Init+0x26a>
     603: 92 12        	sta	($12)                   ; 0x12 <__rc2>
     605: e6 12        	inc	$12                     ; 0x12 <__rc2>
     607: d0 02        	bne	$60b <f256Init+0x260>
     609: e6 13        	inc	$13                     ; 0x13 <__rc3>
     60b: 85 14        	sta	$14                     ; 0x14 <__rc4>
     60d: ca           	dex
     60e: e0 ff        	cpx	#$ff
     610: d0 eb        	bne	$5fd <f256Init+0x252>
     612: 88           	dey
     613: 80 e8        	bra	$5fd <f256Init+0x252>
     615: e0 00        	cpx	#$0
     617: d0 ea        	bne	$603 <f256Init+0x258>
     619: 80 04        	bra	$61f <f256Init+0x274>
     61b: a2 03        	ldx	#$3
     61d: 86 01        	stx	$1                      ; 0x1 <__data_size+0x1>
     61f: a6 18        	ldx	$18                     ; 0x18 <__rc8>
     621: 86 01        	stx	$1                      ; 0x1 <__data_size+0x1>
     623: 64 87        	stz	$87                     ; 0x87 <_col>
     625: 9c 14 d0     	stz	$d014                   ; 0xd014 <__heap_start+0xace8>
     628: 9c 15 d0     	stz	$d015                   ; 0xd015 <__heap_start+0xace9>
     62b: 64 88        	stz	$88                     ; 0x88 <_row>
     62d: 9c 16 d0     	stz	$d016                   ; 0xd016 <__heap_start+0xacea>
     630: 9c 17 d0     	stz	$d017                   ; 0xd017 <__heap_start+0xaceb>
     633: a2 40        	ldx	#$40
     635: 8e 00 de     	stx	$de00                   ; 0xde00 <__heap_start+0xbad4>
     638: a2 01        	ldx	#$1
     63a: 8e 01 de     	stx	$de01                   ; 0xde01 <__heap_start+0xbad5>
     63d: a2 f0        	ldx	#$f0
     63f: 8e 02 de     	stx	$de02                   ; 0xde02 <__heap_start+0xbad6>
     642: 9c 03 de     	stz	$de03                   ; 0xde03 <__heap_start+0xbad7>
     645: ae 10 de     	ldx	$de10                   ; 0xde10 <__heap_start+0xbae4>
     648: 86 17        	stx	$17                     ; 0x17 <__rc7>
     64a: ae 11 de     	ldx	$de11                   ; 0xde11 <__heap_start+0xbae5>
     64d: 86 12        	stx	$12                     ; 0x12 <__rc2>
     64f: ae 12 de     	ldx	$de12                   ; 0xde12 <__heap_start+0xbae6>
     652: 86 13        	stx	$13                     ; 0x13 <__rc3>
     654: ae 13 de     	ldx	$de13                   ; 0xde13 <__heap_start+0xbae7>
     657: 86 14        	stx	$14                     ; 0x14 <__rc4>
     659: a4 12        	ldy	$12                     ; 0x12 <__rc2>
     65b: 84 15        	sty	$15                     ; 0x15 <__rc5>
     65d: 06 15        	asl	$15                     ; 0x15 <__rc5>
     65f: a5 13        	lda	$13                     ; 0x13 <__rc3>
     661: 2a           	rol
     662: 86 16        	stx	$16                     ; 0x16 <__rc6>
     664: 26 16        	rol	$16                     ; 0x16 <__rc6>
     666: 06 15        	asl	$15                     ; 0x15 <__rc5>
     668: 2a           	rol
     669: 26 16        	rol	$16                     ; 0x16 <__rc6>
     66b: 06 15        	asl	$15                     ; 0x15 <__rc5>
     66d: 2a           	rol
     66e: 26 16        	rol	$16                     ; 0x16 <__rc6>
     670: 85 15        	sta	$15                     ; 0x15 <__rc5>
     672: 8d 00 de     	sta	$de00                   ; 0xde00 <__heap_start+0xbad4>
     675: a5 16        	lda	$16                     ; 0x16 <__rc6>
     677: 8d 01 de     	sta	$de01                   ; 0xde01 <__heap_start+0xbad5>
     67a: 9c 02 de     	stz	$de02                   ; 0xde02 <__heap_start+0xbad6>
     67d: a2 20        	ldx	#$20
     67f: 8e 03 de     	stx	$de03                   ; 0xde03 <__heap_start+0xbad7>
     682: ae 10 de     	ldx	$de10                   ; 0xde10 <__heap_start+0xbae4>
     685: 86 16        	stx	$16                     ; 0x16 <__rc6>
     687: ae 11 de     	ldx	$de11                   ; 0xde11 <__heap_start+0xbae5>
     68a: 86 18        	stx	$18                     ; 0x18 <__rc8>
     68c: ac 12 de     	ldy	$de12                   ; 0xde12 <__heap_start+0xbae6>
     68f: ae 13 de     	ldx	$de13                   ; 0xde13 <__heap_start+0xbae7>
     692: e4 14        	cpx	$14                     ; 0x14 <__rc4>
     694: d0 14        	bne	$6aa <f256Init+0x2ff>
     696: c4 13        	cpy	$13                     ; 0x13 <__rc3>
     698: d0 10        	bne	$6aa <f256Init+0x2ff>
     69a: a6 18        	ldx	$18                     ; 0x18 <__rc8>
     69c: e4 12        	cpx	$12                     ; 0x12 <__rc2>
     69e: d0 0a        	bne	$6aa <f256Init+0x2ff>
     6a0: a6 16        	ldx	$16                     ; 0x16 <__rc6>
     6a2: e4 17        	cpx	$17                     ; 0x17 <__rc7>
     6a4: d0 04        	bne	$6aa <f256Init+0x2ff>
     6a6: a6 15        	ldx	$15                     ; 0x15 <__rc5>
     6a8: 80 06        	bra	$6b0 <f256Init+0x305>
     6aa: a6 15        	ldx	$15                     ; 0x15 <__rc5>
     6ac: e8           	inx
     6ad: d0 01        	bne	$6b0 <f256Init+0x305>
     6af: 1a           	inc
     6b0: 8e 00 de     	stx	$de00                   ; 0xde00 <__heap_start+0xbad4>
     6b3: 8d 01 de     	sta	$de01                   ; 0xde01 <__heap_start+0xbad5>
     6b6: 9c 02 de     	stz	$de02                   ; 0xde02 <__heap_start+0xbad6>
     6b9: a2 20        	ldx	#$20
     6bb: 8e 03 de     	stx	$de03                   ; 0xde03 <__heap_start+0xbad7>
     6be: ae 10 de     	ldx	$de10                   ; 0xde10 <__heap_start+0xbae4>
     6c1: 86 12        	stx	$12                     ; 0x12 <__rc2>
     6c3: ae 11 de     	ldx	$de11                   ; 0xde11 <__heap_start+0xbae5>
     6c6: 86 13        	stx	$13                     ; 0x13 <__rc3>
     6c8: ae 12 de     	ldx	$de12                   ; 0xde12 <__heap_start+0xbae6>
     6cb: 86 14        	stx	$14                     ; 0x14 <__rc4>
     6cd: ae 13 de     	ldx	$de13                   ; 0xde13 <__heap_start+0xbae7>
     6d0: 86 15        	stx	$15                     ; 0x15 <__rc5>
     6d2: 38           	sec
     6d3: a9 00        	lda	#$0
     6d5: e5 12        	sbc	$12                     ; 0x12 <__rc2>
     6d7: 85 18        	sta	$18                     ; 0x18 <__rc8>
     6d9: a9 00        	lda	#$0
     6db: e5 13        	sbc	$13                     ; 0x13 <__rc3>
     6dd: a8           	tay
     6de: a9 08        	lda	#$8
     6e0: e5 14        	sbc	$14                     ; 0x14 <__rc4>
     6e2: aa           	tax
     6e3: a9 00        	lda	#$0
     6e5: e5 15        	sbc	$15                     ; 0x15 <__rc5>
     6e7: 85 17        	sta	$17                     ; 0x17 <__rc7>
     6e9: 8c df 22     	sty	$22df                   ; 0x22df <__bss_start+0x1>
     6ec: 8e e0 22     	stx	$22e0                   ; 0x22e0 <__bss_start+0x2>
     6ef: 8d e1 22     	sta	$22e1                   ; 0x22e1 <__bss_start+0x3>
     6f2: 38           	sec
     6f3: a5 18        	lda	$18                     ; 0x18 <__rc8>
     6f5: e5 12        	sbc	$12                     ; 0x12 <__rc2>
     6f7: 85 19        	sta	$19                     ; 0x19 <__rc9>
     6f9: 98           	tya
     6fa: e5 13        	sbc	$13                     ; 0x13 <__rc3>
     6fc: 85 16        	sta	$16                     ; 0x16 <__rc6>
     6fe: 8a           	txa
     6ff: e5 14        	sbc	$14                     ; 0x14 <__rc4>
     701: aa           	tax
     702: a5 17        	lda	$17                     ; 0x17 <__rc7>
     704: e5 15        	sbc	$15                     ; 0x15 <__rc5>
     706: 85 17        	sta	$17                     ; 0x17 <__rc7>
     708: 38           	sec
     709: a5 19        	lda	$19                     ; 0x19 <__rc9>
     70b: 8d e2 22     	sta	$22e2                   ; 0x22e2 <_BITMAP_BASE.1>
     70e: a4 16        	ldy	$16                     ; 0x16 <__rc6>
     710: 8c e3 22     	sty	$22e3                   ; 0x22e3 <_BITMAP_BASE.1+0x1>
     713: 8e e4 22     	stx	$22e4                   ; 0x22e4 <_BITMAP_BASE.1+0x2>
     716: a4 17        	ldy	$17                     ; 0x17 <__rc7>
     718: 8c e5 22     	sty	$22e5                   ; 0x22e5 <_BITMAP_BASE.1+0x3>
     71b: e5 12        	sbc	$12                     ; 0x12 <__rc2>
     71d: a8           	tay
     71e: a5 16        	lda	$16                     ; 0x16 <__rc6>
     720: e5 13        	sbc	$13                     ; 0x13 <__rc3>
     722: 85 12        	sta	$12                     ; 0x12 <__rc2>
     724: 8a           	txa
     725: e5 14        	sbc	$14                     ; 0x14 <__rc4>
     727: 85 13        	sta	$13                     ; 0x13 <__rc3>
     729: a5 17        	lda	$17                     ; 0x17 <__rc7>
     72b: e5 15        	sbc	$15                     ; 0x15 <__rc5>
     72d: 8c e6 22     	sty	$22e6                   ; 0x22e6 <_BITMAP_BASE.2>
     730: a4 12        	ldy	$12                     ; 0x12 <__rc2>
     732: 8c e7 22     	sty	$22e7                   ; 0x22e7 <_BITMAP_BASE.2+0x1>
     735: a6 13        	ldx	$13                     ; 0x13 <__rc3>
     737: 8e e8 22     	stx	$22e8                   ; 0x22e8 <_BITMAP_BASE.2+0x2>
     73a: 8d e9 22     	sta	$22e9                   ; 0x22e9 <_BITMAP_BASE.2+0x3>
     73d: a9 08        	lda	#$8
     73f: a6 18        	ldx	$18                     ; 0x18 <__rc8>
     741: 8e de 22     	stx	$22de                   ; 0x22de <__bss_start>
     744: 64 89        	stz	$89                     ; 0x89 <_BITMAP_CLUT.0>
     746: 64 8a        	stz	$8a                     ; 0x8a <_BITMAP_CLUT.1>
     748: 64 8b        	stz	$8b                     ; 0x8b <_BITMAP_CLUT.2>
     74a: 8e 01 d1     	stx	$d101                   ; 0xd101 <__heap_start+0xadd5>
     74d: ae df 22     	ldx	$22df                   ; 0x22df <__bss_start+0x1>
     750: 8e 02 d1     	stx	$d102                   ; 0xd102 <__heap_start+0xadd6>
     753: ae e0 22     	ldx	$22e0                   ; 0x22e0 <__bss_start+0x2>
     756: 8e 03 d1     	stx	$d103                   ; 0xd103 <__heap_start+0xadd7>
     759: ae e2 22     	ldx	$22e2                   ; 0x22e2 <_BITMAP_BASE.1>
     75c: 8e 09 d1     	stx	$d109                   ; 0xd109 <__heap_start+0xaddd>
     75f: ae e3 22     	ldx	$22e3                   ; 0x22e3 <_BITMAP_BASE.1+0x1>
     762: 8e 0a d1     	stx	$d10a                   ; 0xd10a <__heap_start+0xadde>
     765: ae e4 22     	ldx	$22e4                   ; 0x22e4 <_BITMAP_BASE.1+0x2>
     768: 8e 0b d1     	stx	$d10b                   ; 0xd10b <__heap_start+0xaddf>
     76b: ae e6 22     	ldx	$22e6                   ; 0x22e6 <_BITMAP_BASE.2>
     76e: 8e 11 d1     	stx	$d111                   ; 0xd111 <__heap_start+0xade5>
     771: ae e7 22     	ldx	$22e7                   ; 0x22e7 <_BITMAP_BASE.2+0x1>
     774: 8e 12 d1     	stx	$d112                   ; 0xd112 <__heap_start+0xade6>
     777: ae e8 22     	ldx	$22e8                   ; 0x22e8 <_BITMAP_BASE.2+0x2>
     77a: 8e 13 d1     	stx	$d113                   ; 0xd113 <__heap_start+0xade7>
     77d: 9c 00 d1     	stz	$d100                   ; 0xd100 <__heap_start+0xadd4>
     780: 9c 08 d1     	stz	$d108                   ; 0xd108 <__heap_start+0xaddc>
     783: 9c 10 d1     	stz	$d110                   ; 0xd110 <__heap_start+0xade4>
     786: 85 8c        	sta	$8c                     ; 0x8c <_tileSize.2>
     788: a2 10        	ldx	#$10
     78a: 8e 00 d2     	stx	$d200                   ; 0xd200 <__heap_start+0xaed4>
     78d: 8e 0c d2     	stx	$d20c                   ; 0xd20c <__heap_start+0xaee0>
     790: a4 8c        	ldy	$8c                     ; 0x8c <_tileSize.2>
     792: c0 08        	cpy	#$8
     794: f0 02        	beq	$798 <f256Init+0x3ed>
     796: a2 00        	ldx	#$0
     798: 8e 18 d2     	stx	$d218                   ; 0xd218 <__heap_start+0xaeec>
     79b: a0 d9        	ldy	#$d9
     79d: a9 00        	lda	#$0
     79f: aa           	tax
     7a0: 85 12        	sta	$12                     ; 0x12 <__rc2>
     7a2: 84 14        	sty	$14                     ; 0x14 <__rc4>
     7a4: 84 13        	sty	$13                     ; 0x13 <__rc3>
     7a6: a8           	tay
     7a7: bd ea 22     	lda	$22ea,x                 ; 0x22ea <_spriteCtl>
     7aa: 92 12        	sta	($12)                   ; 0x12 <__rc2>
     7ac: 98           	tya
     7ad: e8           	inx
     7ae: 18           	clc
     7af: 69 08        	adc	#$8
     7b1: 85 12        	sta	$12                     ; 0x12 <__rc2>
     7b3: a5 14        	lda	$14                     ; 0x14 <__rc4>
     7b5: 69 00        	adc	#$0
     7b7: a8           	tay
     7b8: a5 12        	lda	$12                     ; 0x12 <__rc2>
     7ba: e0 40        	cpx	#$40
     7bc: d0 e2        	bne	$7a0 <f256Init+0x3f5>
     7be: a2 a6        	ldx	#$a6
     7c0: a0 00        	ldy	#$0
     7c2: 86 fb        	stx	$fb                     ; 0xfb <__sunset_size+0x67>
     7c4: 84 fc        	sty	$fc                     ; 0xfc <__sunset_size+0x68>
     7c6: a2 08        	ldx	#$8
     7c8: 86 fd        	stx	$fd                     ; 0xfd <__sunset_size+0x69>
     7ca: a2 ae        	ldx	#$ae
     7cc: a0 00        	ldy	#$0
     7ce: 86 12        	stx	$12                     ; 0x12 <__rc2>
     7d0: 84 13        	sty	$13                     ; 0x13 <__rc3>
     7d2: a2 2a        	ldx	#$2a
     7d4: 86 14        	stx	$14                     ; 0x14 <__rc4>
     7d6: a2 23        	ldx	#$23
     7d8: 86 15        	stx	$15                     ; 0x15 <__rc5>
     7da: 20 dc ff     	jsr	$ffdc <__heap_start+0xdcb0>
     7dd: 92 12        	sta	($12)                   ; 0x12 <__rc2>
     7df: a9 00        	lda	#$0
     7e1: 6a           	ror
     7e2: 85 14        	sta	$14                     ; 0x14 <__rc4>
     7e4: a6 ac        	ldx	$ac                     ; 0xac <__sunset_size+0x18>
     7e6: a4 ad        	ldy	$ad                     ; 0xad <__sunset_size+0x19>
     7e8: 8e 00 de     	stx	$de00                   ; 0xde00 <__heap_start+0xbad4>
     7eb: 9c 01 de     	stz	$de01                   ; 0xde01 <__heap_start+0xbad5>
     7ee: 8c 02 de     	sty	$de02                   ; 0xde02 <__heap_start+0xbad6>
     7f1: 9c 03 de     	stz	$de03                   ; 0xde03 <__heap_start+0xbad7>
     7f4: ae 10 de     	ldx	$de10                   ; 0xde10 <__heap_start+0xbae4>
     7f7: ac 11 de     	ldy	$de11                   ; 0xde11 <__heap_start+0xbae5>
     7fa: ad 12 de     	lda	$de12                   ; 0xde12 <__heap_start+0xbae6>
     7fd: ad 13 de     	lda	$de13                   ; 0xde13 <__heap_start+0xbae7>
     800: 8e a4 d6     	stx	$d6a4                   ; 0xd6a4 <__heap_start+0xb378>
     803: 8c a5 d6     	sty	$d6a5                   ; 0xd6a5 <__heap_start+0xb379>
     806: a2 03        	ldx	#$3
     808: 8e a6 d6     	stx	$d6a6                   ; 0xd6a6 <__heap_start+0xb37a>
     80b: 60           	rts

0000080c <main>:
     80c: 20 ab 03     	jsr	$3ab <f256Init>
     80f: 20 12 08     	jsr	$812 <f256main>

00000812 <f256main>:
     812: 18           	clc
     813: a5 10        	lda	$10                     ; 0x10 <__rc0>
     815: 69 f5        	adc	#$f5
     817: 85 10        	sta	$10                     ; 0x10 <__rc0>
     819: a5 11        	lda	$11                     ; 0x11 <__rc1>
     81b: 69 ff        	adc	#$ff
     81d: 85 11        	sta	$11                     ; 0x11 <__rc1>
     81f: 64 01        	stz	$1                      ; 0x1 <__data_size+0x1>
     821: a2 3f        	ldx	#$3f
     823: 8e 00 d0     	stx	$d000                   ; 0xd000 <__heap_start+0xacd4>
     826: a2 10        	ldx	#$10
     828: 8e 01 d0     	stx	$d001                   ; 0xd001 <__heap_start+0xacd5>
     82b: 8e 02 d0     	stx	$d002                   ; 0xd002 <__heap_start+0xacd6>
     82e: a2 02        	ldx	#$2
     830: 8e 03 d0     	stx	$d003                   ; 0xd003 <__heap_start+0xacd7>
     833: ca           	dex
     834: 86 01        	stx	$1                      ; 0x1 <__data_size+0x1>
     836: a2 d0        	ldx	#$d0
     838: a0 00        	ldy	#$0
     83a: 18           	clc
     83b: 84 17        	sty	$17                     ; 0x17 <__rc7>
     83d: 98           	tya
     83e: 69 00        	adc	#$0
     840: 85 14        	sta	$14                     ; 0x14 <__rc4>
     842: 8a           	txa
     843: 69 10        	adc	#$10
     845: 85 15        	sta	$15                     ; 0x15 <__rc5>
     847: 84 12        	sty	$12                     ; 0x12 <__rc2>
     849: 86 13        	stx	$13                     ; 0x13 <__rc3>
     84b: a4 0f        	ldy	$f                      ; 0xf <__data_size+0xf>
     84d: 78           	sei
     84e: a9 08        	lda	#$8
     850: 85 0f        	sta	$f                      ; 0xf <__data_size+0xf>
     852: b2 14        	lda	($14)                   ; 0x14 <__rc4>
     854: 84 0f        	sty	$f                      ; 0xf <__data_size+0xf>
     856: 58           	cli
     857: 92 12        	sta	($12)                   ; 0x12 <__rc2>
     859: a4 17        	ldy	$17                     ; 0x17 <__rc7>
     85b: c8           	iny
     85c: f0 06        	beq	$864 <f256main+0x52>
     85e: e0 d3        	cpx	#$d3
     860: d0 d8        	bne	$83a <f256main+0x28>
     862: 80 05        	bra	$869 <f256main+0x57>
     864: e8           	inx
     865: e0 d3        	cpx	#$d3
     867: d0 d1        	bne	$83a <f256main+0x28>
     869: c0 ff        	cpy	#$ff
     86b: d0 cd        	bne	$83a <f256main+0x28>
     86d: a2 f0        	ldx	#$f0
     86f: a0 00        	ldy	#$0
     871: 84 12        	sty	$12                     ; 0x12 <__rc2>
     873: 86 13        	stx	$13                     ; 0x13 <__rc3>
     875: a5 0f        	lda	$f                      ; 0xf <__data_size+0xf>
     877: 85 15        	sta	$15                     ; 0x15 <__rc5>
     879: 78           	sei
     87a: a9 25        	lda	#$25
     87c: 85 0f        	sta	$f                      ; 0xf <__data_size+0xf>
     87e: b2 12        	lda	($12)                   ; 0x12 <__rc2>
     880: 85 14        	sta	$14                     ; 0x14 <__rc4>
     882: a5 15        	lda	$15                     ; 0x15 <__rc5>
     884: 85 0f        	sta	$f                      ; 0xf <__data_size+0xf>
     886: 98           	tya
     887: 18           	clc
     888: 69 00        	adc	#$0
     88a: 85 12        	sta	$12                     ; 0x12 <__rc2>
     88c: 8a           	txa
     88d: 69 e4        	adc	#$e4
     88f: 58           	cli
     890: 85 13        	sta	$13                     ; 0x13 <__rc3>
     892: a5 14        	lda	$14                     ; 0x14 <__rc4>
     894: 92 12        	sta	($12)                   ; 0x12 <__rc2>
     896: c8           	iny
     897: f0 06        	beq	$89f <f256main+0x8d>
     899: e0 f3        	cpx	#$f3
     89b: d0 d4        	bne	$871 <f256main+0x5f>
     89d: 80 05        	bra	$8a4 <f256main+0x92>
     89f: e8           	inx
     8a0: e0 f3        	cpx	#$f3
     8a2: d0 cd        	bne	$871 <f256main+0x5f>
     8a4: c0 ff        	cpy	#$ff
     8a6: d0 c9        	bne	$871 <f256main+0x5f>
     8a8: 64 01        	stz	$1                      ; 0x1 <__data_size+0x1>
     8aa: 9c 0d d0     	stz	$d00d                   ; 0xd00d <__heap_start+0xace1>
     8ad: 9c 0e d0     	stz	$d00e                   ; 0xd00e <__heap_start+0xace2>
     8b0: 9c 0f d0     	stz	$d00f                   ; 0xd00f <__heap_start+0xace3>
     8b3: 9c de 22     	stz	$22de                   ; 0x22de <__bss_start>
     8b6: a2 04        	ldx	#$4
     8b8: 8e df 22     	stx	$22df                   ; 0x22df <__bss_start+0x1>
     8bb: a0 01        	ldy	#$1
     8bd: 8c e0 22     	sty	$22e0                   ; 0x22e0 <__bss_start+0x2>
     8c0: 9c e1 22     	stz	$22e1                   ; 0x22e1 <__bss_start+0x3>
     8c3: 9c 01 d1     	stz	$d101                   ; 0xd101 <__heap_start+0xadd5>
     8c6: 8e 02 d1     	stx	$d102                   ; 0xd102 <__heap_start+0xadd6>
     8c9: 8c 03 d1     	sty	$d103                   ; 0xd103 <__heap_start+0xadd7>
     8cc: 84 12        	sty	$12                     ; 0x12 <__rc2>
     8ce: 9c e2 22     	stz	$22e2                   ; 0x22e2 <_BITMAP_BASE.1>
     8d1: a0 40        	ldy	#$40
     8d3: 8c e3 22     	sty	$22e3                   ; 0x22e3 <_BITMAP_BASE.1+0x1>
     8d6: a9 02        	lda	#$2
     8d8: 8d e4 22     	sta	$22e4                   ; 0x22e4 <_BITMAP_BASE.1+0x2>
     8db: 9c e5 22     	stz	$22e5                   ; 0x22e5 <_BITMAP_BASE.1+0x3>
     8de: 9c 09 d1     	stz	$d109                   ; 0xd109 <__heap_start+0xaddd>
     8e1: 8c 0a d1     	sty	$d10a                   ; 0xd10a <__heap_start+0xadde>
     8e4: 8d 0b d1     	sta	$d10b                   ; 0xd10b <__heap_start+0xaddf>
     8e7: 9c e6 22     	stz	$22e6                   ; 0x22e6 <_BITMAP_BASE.2>
     8ea: a0 80        	ldy	#$80
     8ec: 8c e7 22     	sty	$22e7                   ; 0x22e7 <_BITMAP_BASE.2+0x1>
     8ef: 1a           	inc
     8f0: 8d e8 22     	sta	$22e8                   ; 0x22e8 <_BITMAP_BASE.2+0x2>
     8f3: 9c e9 22     	stz	$22e9                   ; 0x22e9 <_BITMAP_BASE.2+0x3>
     8f6: 9c 11 d1     	stz	$d111                   ; 0xd111 <__heap_start+0xade5>
     8f9: 8c 12 d1     	sty	$d112                   ; 0xd112 <__heap_start+0xade6>
     8fc: 8d 13 d1     	sta	$d113                   ; 0xd113 <__heap_start+0xade7>
     8ff: 64 89        	stz	$89                     ; 0x89 <_BITMAP_CLUT.0>
     901: ad 00 d1     	lda	$d100                   ; 0xd100 <__heap_start+0xadd4>
     904: 29 f9        	and	#$f9
     906: 8d 00 d1     	sta	$d100                   ; 0xd100 <__heap_start+0xadd4>
     909: 64 8a        	stz	$8a                     ; 0x8a <_BITMAP_CLUT.1>
     90b: ad 08 d1     	lda	$d108                   ; 0xd108 <__heap_start+0xaddc>
     90e: 29 f9        	and	#$f9
     910: 8d 08 d1     	sta	$d108                   ; 0xd108 <__heap_start+0xaddc>
     913: 64 8b        	stz	$8b                     ; 0x8b <_BITMAP_CLUT.2>
     915: ad 10 d1     	lda	$d110                   ; 0xd110 <__heap_start+0xade4>
     918: 29 f9        	and	#$f9
     91a: 8d 10 d1     	sta	$d110                   ; 0xd110 <__heap_start+0xade4>
     91d: a9 01        	lda	#$1
     91f: 05 89        	ora	$89                     ; 0x89 <_BITMAP_CLUT.0>
     921: 8d 00 d1     	sta	$d100                   ; 0xd100 <__heap_start+0xadd4>
     924: a9 01        	lda	#$1
     926: 05 8a        	ora	$8a                     ; 0x8a <_BITMAP_CLUT.1>
     928: 8d 08 d1     	sta	$d108                   ; 0xd108 <__heap_start+0xaddc>
     92b: a5 12        	lda	$12                     ; 0x12 <__rc2>
     92d: 05 8b        	ora	$8b                     ; 0x8b <_BITMAP_CLUT.2>
     92f: 8d 10 d1     	sta	$d110                   ; 0xd110 <__heap_start+0xade4>
     932: a0 10        	ldy	#$10
     934: 84 8c        	sty	$8c                     ; 0x8c <_tileSize.2>
     936: 9c 19 d2     	stz	$d219                   ; 0xd219 <__heap_start+0xaeed>
     939: a0 bf        	ldy	#$bf
     93b: 8c 1a d2     	sty	$d21a                   ; 0xd21a <__heap_start+0xaeee>
     93e: 8e 1b d2     	stx	$d21b                   ; 0xd21b <__heap_start+0xaeef>
     941: a0 28        	ldy	#$28
     943: 8c 1c d2     	sty	$d21c                   ; 0xd21c <__heap_start+0xaef0>
     946: 9c 1d d2     	stz	$d21d                   ; 0xd21d <__heap_start+0xaef1>
     949: a0 11        	ldy	#$11
     94b: 8c 1e d2     	sty	$d21e                   ; 0xd21e <__heap_start+0xaef2>
     94e: 9c 1f d2     	stz	$d21f                   ; 0xd21f <__heap_start+0xaef3>
     951: 9c 20 d2     	stz	$d220                   ; 0xd220 <__heap_start+0xaef4>
     954: 9c 21 d2     	stz	$d221                   ; 0xd221 <__heap_start+0xaef5>
     957: 9c 22 d2     	stz	$d222                   ; 0xd222 <__heap_start+0xaef6>
     95a: 9c 23 d2     	stz	$d223                   ; 0xd223 <__heap_start+0xaef7>
     95d: 9c 80 d2     	stz	$d280                   ; 0xd280 <__heap_start+0xaf54>
     960: a0 b4        	ldy	#$b4
     962: 8c 81 d2     	sty	$d281                   ; 0xd281 <__heap_start+0xaf55>
     965: 8e 82 d2     	stx	$d282                   ; 0xd282 <__heap_start+0xaf56>
     968: 9c 83 d2     	stz	$d283                   ; 0xd283 <__heap_start+0xaf57>
     96b: a2 ff        	ldx	#$ff
     96d: a9 00        	lda	#$0
     96f: a4 0f        	ldy	$f                      ; 0xf <__data_size+0xf>
     971: 84 14        	sty	$14                     ; 0x14 <__rc4>
     973: 78           	sei
     974: a0 25        	ldy	#$25
     976: 84 0f        	sty	$f                      ; 0xf <__data_size+0xf>
     978: 85 12        	sta	$12                     ; 0x12 <__rc2>
     97a: 86 13        	stx	$13                     ; 0x13 <__rc3>
     97c: 85 15        	sta	$15                     ; 0x15 <__rc5>
     97e: a9 00        	lda	#$0
     980: 92 12        	sta	($12)                   ; 0x12 <__rc2>
     982: a0 01        	ldy	#$1
     984: 91 12        	sta	($12),y                 ; 0x12 <__rc2>
     986: a5 15        	lda	$15                     ; 0x15 <__rc5>
     988: a4 14        	ldy	$14                     ; 0x14 <__rc4>
     98a: 84 0f        	sty	$f                      ; 0xf <__data_size+0xf>
     98c: 58           	cli
     98d: 18           	clc
     98e: 69 02        	adc	#$2
     990: c9 50        	cmp	#$50
     992: d0 db        	bne	$96f <f256main+0x15d>
     994: 64 14        	stz	$14                     ; 0x14 <__rc4>
     996: 18           	clc
     997: a5 14        	lda	$14                     ; 0x14 <__rc4>
     999: 69 50        	adc	#$50
     99b: 85 12        	sta	$12                     ; 0x12 <__rc2>
     99d: a9 00        	lda	#$0
     99f: 69 1f        	adc	#$1f
     9a1: a6 0f        	ldx	$f                      ; 0xf <__data_size+0xf>
     9a3: 78           	sei
     9a4: a0 25        	ldy	#$25
     9a6: 84 0f        	sty	$f                      ; 0xf <__data_size+0xf>
     9a8: 09 e0        	ora	#$e0
     9aa: 85 13        	sta	$13                     ; 0x13 <__rc3>
     9ac: a9 00        	lda	#$0
     9ae: 92 12        	sta	($12)                   ; 0x12 <__rc2>
     9b0: a0 01        	ldy	#$1
     9b2: 91 12        	sta	($12),y                 ; 0x12 <__rc2>
     9b4: a5 14        	lda	$14                     ; 0x14 <__rc4>
     9b6: 86 0f        	stx	$f                      ; 0xf <__data_size+0xf>
     9b8: 58           	cli
     9b9: 18           	clc
     9ba: 69 02        	adc	#$2
     9bc: 85 14        	sta	$14                     ; 0x14 <__rc4>
     9be: c9 50        	cmp	#$50
     9c0: d0 d4        	bne	$996 <f256main+0x184>
     9c2: 64 14        	stz	$14                     ; 0x14 <__rc4>
     9c4: a5 14        	lda	$14                     ; 0x14 <__rc4>
     9c6: 18           	clc
     9c7: 69 a0        	adc	#$a0
     9c9: 85 13        	sta	$13                     ; 0x13 <__rc3>
     9cb: a9 00        	lda	#$0
     9cd: 69 bf        	adc	#$bf
     9cf: 85 15        	sta	$15                     ; 0x15 <__rc5>
     9d1: a9 00        	lda	#$0
     9d3: 69 04        	adc	#$4
     9d5: a6 15        	ldx	$15                     ; 0x15 <__rc5>
     9d7: 86 12        	stx	$12                     ; 0x12 <__rc2>
     9d9: 06 12        	asl	$12                     ; 0x12 <__rc2>
     9db: 2a           	rol
     9dc: 06 12        	asl	$12                     ; 0x12 <__rc2>
     9de: 2a           	rol
     9df: 06 12        	asl	$12                     ; 0x12 <__rc2>
     9e1: 2a           	rol
     9e2: a6 0f        	ldx	$f                      ; 0xf <__data_size+0xf>
     9e4: 78           	sei
     9e5: 85 0f        	sta	$f                      ; 0xf <__data_size+0xf>
     9e7: a5 13        	lda	$13                     ; 0x13 <__rc3>
     9e9: 85 12        	sta	$12                     ; 0x12 <__rc2>
     9eb: a5 15        	lda	$15                     ; 0x15 <__rc5>
     9ed: 09 e0        	ora	#$e0
     9ef: 85 13        	sta	$13                     ; 0x13 <__rc3>
     9f1: a9 00        	lda	#$0
     9f3: 92 12        	sta	($12)                   ; 0x12 <__rc2>
     9f5: 91 12        	sta	($12),y                 ; 0x12 <__rc2>
     9f7: a5 14        	lda	$14                     ; 0x14 <__rc4>
     9f9: 86 0f        	stx	$f                      ; 0xf <__data_size+0xf>
     9fb: 58           	cli
     9fc: 18           	clc
     9fd: 69 02        	adc	#$2
     9ff: 85 14        	sta	$14                     ; 0x14 <__rc4>
     a01: c9 50        	cmp	#$50
     a03: d0 bf        	bne	$9c4 <f256main+0x1b2>
     a05: a0 01        	ldy	#$1
     a07: 64 14        	stz	$14                     ; 0x14 <__rc4>
     a09: a5 14        	lda	$14                     ; 0x14 <__rc4>
     a0b: 18           	clc
     a0c: 69 f0        	adc	#$f0
     a0e: 85 13        	sta	$13                     ; 0x13 <__rc3>
     a10: a9 00        	lda	#$0
     a12: 69 bf        	adc	#$bf
     a14: 85 15        	sta	$15                     ; 0x15 <__rc5>
     a16: a9 00        	lda	#$0
     a18: 69 04        	adc	#$4
     a1a: a6 15        	ldx	$15                     ; 0x15 <__rc5>
     a1c: 86 12        	stx	$12                     ; 0x12 <__rc2>
     a1e: 06 12        	asl	$12                     ; 0x12 <__rc2>
     a20: 2a           	rol
     a21: 06 12        	asl	$12                     ; 0x12 <__rc2>
     a23: 2a           	rol
     a24: 06 12        	asl	$12                     ; 0x12 <__rc2>
     a26: 2a           	rol
     a27: a6 0f        	ldx	$f                      ; 0xf <__data_size+0xf>
     a29: 78           	sei
     a2a: 85 0f        	sta	$f                      ; 0xf <__data_size+0xf>
     a2c: a5 13        	lda	$13                     ; 0x13 <__rc3>
     a2e: 85 12        	sta	$12                     ; 0x12 <__rc2>
     a30: a5 15        	lda	$15                     ; 0x15 <__rc5>
     a32: 09 e0        	ora	#$e0
     a34: 85 13        	sta	$13                     ; 0x13 <__rc3>
     a36: a9 00        	lda	#$0
     a38: 92 12        	sta	($12)                   ; 0x12 <__rc2>
     a3a: 91 12        	sta	($12),y                 ; 0x12 <__rc2>
     a3c: a5 14        	lda	$14                     ; 0x14 <__rc4>
     a3e: 86 0f        	stx	$f                      ; 0xf <__data_size+0xf>
     a40: 58           	cli
     a41: 18           	clc
     a42: 69 02        	adc	#$2
     a44: 85 14        	sta	$14                     ; 0x14 <__rc4>
     a46: c9 50        	cmp	#$50
     a48: d0 bf        	bne	$a09 <f256main+0x1f7>
     a4a: a2 e0        	ldx	#$e0
     a4c: 64 13        	stz	$13                     ; 0x13 <__rc3>
     a4e: 18           	clc
     a4f: a5 13        	lda	$13                     ; 0x13 <__rc3>
     a51: 69 40        	adc	#$40
     a53: a4 13        	ldy	$13                     ; 0x13 <__rc3>
     a55: 84 15        	sty	$15                     ; 0x15 <__rc5>
     a57: a4 0f        	ldy	$f                      ; 0xf <__data_size+0xf>
     a59: 84 14        	sty	$14                     ; 0x14 <__rc4>
     a5b: 78           	sei
     a5c: a0 26        	ldy	#$26
     a5e: 84 0f        	sty	$f                      ; 0xf <__data_size+0xf>
     a60: 85 12        	sta	$12                     ; 0x12 <__rc2>
     a62: 86 13        	stx	$13                     ; 0x13 <__rc3>
     a64: a9 00        	lda	#$0
     a66: 92 12        	sta	($12)                   ; 0x12 <__rc2>
     a68: a0 01        	ldy	#$1
     a6a: 91 12        	sta	($12),y                 ; 0x12 <__rc2>
     a6c: a4 14        	ldy	$14                     ; 0x14 <__rc4>
     a6e: 84 0f        	sty	$f                      ; 0xf <__data_size+0xf>
     a70: 58           	cli
     a71: 18           	clc
     a72: a5 15        	lda	$15                     ; 0x15 <__rc5>
     a74: 69 02        	adc	#$2
     a76: 85 13        	sta	$13                     ; 0x13 <__rc3>
     a78: c9 50        	cmp	#$50
     a7a: d0 d2        	bne	$a4e <f256main+0x23c>
     a7c: 64 14        	stz	$14                     ; 0x14 <__rc4>
     a7e: 18           	clc
     a7f: a5 14        	lda	$14                     ; 0x14 <__rc4>
     a81: 69 90        	adc	#$90
     a83: 85 12        	sta	$12                     ; 0x12 <__rc2>
     a85: a9 00        	lda	#$0
     a87: 69 00        	adc	#$0
     a89: a6 0f        	ldx	$f                      ; 0xf <__data_size+0xf>
     a8b: 78           	sei
     a8c: a0 26        	ldy	#$26
     a8e: 84 0f        	sty	$f                      ; 0xf <__data_size+0xf>
     a90: 09 e0        	ora	#$e0
     a92: 85 13        	sta	$13                     ; 0x13 <__rc3>
     a94: a9 00        	lda	#$0
     a96: 92 12        	sta	($12)                   ; 0x12 <__rc2>
     a98: a0 01        	ldy	#$1
     a9a: 91 12        	sta	($12),y                 ; 0x12 <__rc2>
     a9c: a5 14        	lda	$14                     ; 0x14 <__rc4>
     a9e: 86 0f        	stx	$f                      ; 0xf <__data_size+0xf>
     aa0: 58           	cli
     aa1: 18           	clc
     aa2: 69 02        	adc	#$2
     aa4: 85 14        	sta	$14                     ; 0x14 <__rc4>
     aa6: c9 50        	cmp	#$50
     aa8: d0 d4        	bne	$a7e <f256main+0x26c>
     aaa: 64 14        	stz	$14                     ; 0x14 <__rc4>
     aac: a5 14        	lda	$14                     ; 0x14 <__rc4>
     aae: 18           	clc
     aaf: 69 e0        	adc	#$e0
     ab1: 85 12        	sta	$12                     ; 0x12 <__rc2>
     ab3: a9 00        	lda	#$0
     ab5: 69 00        	adc	#$0
     ab7: a6 0f        	ldx	$f                      ; 0xf <__data_size+0xf>
     ab9: 78           	sei
     aba: a0 26        	ldy	#$26
     abc: 84 0f        	sty	$f                      ; 0xf <__data_size+0xf>
     abe: 09 e0        	ora	#$e0
     ac0: 85 13        	sta	$13                     ; 0x13 <__rc3>
     ac2: a9 00        	lda	#$0
     ac4: 92 12        	sta	($12)                   ; 0x12 <__rc2>
     ac6: a0 01        	ldy	#$1
     ac8: 91 12        	sta	($12),y                 ; 0x12 <__rc2>
     aca: a5 14        	lda	$14                     ; 0x14 <__rc4>
     acc: 86 0f        	stx	$f                      ; 0xf <__data_size+0xf>
     ace: 58           	cli
     acf: 18           	clc
     ad0: 69 02        	adc	#$2
     ad2: 85 14        	sta	$14                     ; 0x14 <__rc4>
     ad4: c9 50        	cmp	#$50
     ad6: d0 d4        	bne	$aac <f256main+0x29a>
     ad8: 64 14        	stz	$14                     ; 0x14 <__rc4>
     ada: 18           	clc
     adb: a5 14        	lda	$14                     ; 0x14 <__rc4>
     add: 69 30        	adc	#$30
     adf: 85 12        	sta	$12                     ; 0x12 <__rc2>
     ae1: a9 00        	lda	#$0
     ae3: 69 01        	adc	#$1
     ae5: a6 0f        	ldx	$f                      ; 0xf <__data_size+0xf>
     ae7: 78           	sei
     ae8: a0 26        	ldy	#$26
     aea: 84 0f        	sty	$f                      ; 0xf <__data_size+0xf>
     aec: 09 e0        	ora	#$e0
     aee: 85 13        	sta	$13                     ; 0x13 <__rc3>
     af0: a9 00        	lda	#$0
     af2: 92 12        	sta	($12)                   ; 0x12 <__rc2>
     af4: a0 01        	ldy	#$1
     af6: 91 12        	sta	($12),y                 ; 0x12 <__rc2>
     af8: a5 14        	lda	$14                     ; 0x14 <__rc4>
     afa: 86 0f        	stx	$f                      ; 0xf <__data_size+0xf>
     afc: 58           	cli
     afd: 18           	clc
     afe: 69 02        	adc	#$2
     b00: 85 14        	sta	$14                     ; 0x14 <__rc4>
     b02: c9 50        	cmp	#$50
     b04: d0 d4        	bne	$ada <f256main+0x2c8>
     b06: a2 e1        	ldx	#$e1
     b08: 64 12        	stz	$12                     ; 0x12 <__rc2>
     b0a: a4 0f        	ldy	$f                      ; 0xf <__data_size+0xf>
     b0c: 84 15        	sty	$15                     ; 0x15 <__rc5>
     b0e: 78           	sei
     b0f: a9 26        	lda	#$26
     b11: 85 0f        	sta	$f                      ; 0xf <__data_size+0xf>
     b13: a4 12        	ldy	$12                     ; 0x12 <__rc2>
     b15: 84 14        	sty	$14                     ; 0x14 <__rc4>
     b17: a5 12        	lda	$12                     ; 0x12 <__rc2>
     b19: 09 80        	ora	#$80
     b1b: 85 12        	sta	$12                     ; 0x12 <__rc2>
     b1d: 86 13        	stx	$13                     ; 0x13 <__rc3>
     b1f: a9 00        	lda	#$0
     b21: 92 12        	sta	($12)                   ; 0x12 <__rc2>
     b23: a0 01        	ldy	#$1
     b25: 91 12        	sta	($12),y                 ; 0x12 <__rc2>
     b27: a4 15        	ldy	$15                     ; 0x15 <__rc5>
     b29: 84 0f        	sty	$f                      ; 0xf <__data_size+0xf>
     b2b: 58           	cli
     b2c: 18           	clc
     b2d: a5 14        	lda	$14                     ; 0x14 <__rc4>
     b2f: 69 02        	adc	#$2
     b31: 85 12        	sta	$12                     ; 0x12 <__rc2>
     b33: c9 50        	cmp	#$50
     b35: d0 d3        	bne	$b0a <f256main+0x2f8>
     b37: 64 14        	stz	$14                     ; 0x14 <__rc4>
     b39: 18           	clc
     b3a: a5 14        	lda	$14                     ; 0x14 <__rc4>
     b3c: 69 d0        	adc	#$d0
     b3e: 85 12        	sta	$12                     ; 0x12 <__rc2>
     b40: a9 00        	lda	#$0
     b42: 69 01        	adc	#$1
     b44: a6 0f        	ldx	$f                      ; 0xf <__data_size+0xf>
     b46: 78           	sei
     b47: a0 26        	ldy	#$26
     b49: 84 0f        	sty	$f                      ; 0xf <__data_size+0xf>
     b4b: 09 e0        	ora	#$e0
     b4d: 85 13        	sta	$13                     ; 0x13 <__rc3>
     b4f: a9 00        	lda	#$0
     b51: 92 12        	sta	($12)                   ; 0x12 <__rc2>
     b53: a0 01        	ldy	#$1
     b55: 91 12        	sta	($12),y                 ; 0x12 <__rc2>
     b57: a5 14        	lda	$14                     ; 0x14 <__rc4>
     b59: 86 0f        	stx	$f                      ; 0xf <__data_size+0xf>
     b5b: 58           	cli
     b5c: 18           	clc
     b5d: 69 02        	adc	#$2
     b5f: 85 14        	sta	$14                     ; 0x14 <__rc4>
     b61: c9 50        	cmp	#$50
     b63: d0 d4        	bne	$b39 <f256main+0x327>
     b65: 64 14        	stz	$14                     ; 0x14 <__rc4>
     b67: 18           	clc
     b68: a5 14        	lda	$14                     ; 0x14 <__rc4>
     b6a: 69 20        	adc	#$20
     b6c: 85 12        	sta	$12                     ; 0x12 <__rc2>
     b6e: a9 00        	lda	#$0
     b70: 69 02        	adc	#$2
     b72: a6 0f        	ldx	$f                      ; 0xf <__data_size+0xf>
     b74: 78           	sei
     b75: a0 26        	ldy	#$26
     b77: 84 0f        	sty	$f                      ; 0xf <__data_size+0xf>
     b79: 09 e0        	ora	#$e0
     b7b: 85 13        	sta	$13                     ; 0x13 <__rc3>
     b7d: a9 00        	lda	#$0
     b7f: 92 12        	sta	($12)                   ; 0x12 <__rc2>
     b81: a0 01        	ldy	#$1
     b83: 91 12        	sta	($12),y                 ; 0x12 <__rc2>
     b85: a5 14        	lda	$14                     ; 0x14 <__rc4>
     b87: 86 0f        	stx	$f                      ; 0xf <__data_size+0xf>
     b89: 58           	cli
     b8a: 18           	clc
     b8b: 69 02        	adc	#$2
     b8d: 85 14        	sta	$14                     ; 0x14 <__rc4>
     b8f: c9 50        	cmp	#$50
     b91: d0 d4        	bne	$b67 <f256main+0x355>
     b93: 64 14        	stz	$14                     ; 0x14 <__rc4>
     b95: a5 14        	lda	$14                     ; 0x14 <__rc4>
     b97: 18           	clc
     b98: 69 70        	adc	#$70
     b9a: 85 12        	sta	$12                     ; 0x12 <__rc2>
     b9c: a9 00        	lda	#$0
     b9e: 69 02        	adc	#$2
     ba0: a6 0f        	ldx	$f                      ; 0xf <__data_size+0xf>
     ba2: 78           	sei
     ba3: a0 26        	ldy	#$26
     ba5: 84 0f        	sty	$f                      ; 0xf <__data_size+0xf>
     ba7: 09 e0        	ora	#$e0
     ba9: 85 13        	sta	$13                     ; 0x13 <__rc3>
     bab: a9 00        	lda	#$0
     bad: 92 12        	sta	($12)                   ; 0x12 <__rc2>
     baf: a0 01        	ldy	#$1
     bb1: 91 12        	sta	($12),y                 ; 0x12 <__rc2>
     bb3: a5 14        	lda	$14                     ; 0x14 <__rc4>
     bb5: 86 0f        	stx	$f                      ; 0xf <__data_size+0xf>
     bb7: 58           	cli
     bb8: 18           	clc
     bb9: 69 02        	adc	#$2
     bbb: 85 14        	sta	$14                     ; 0x14 <__rc4>
     bbd: c9 50        	cmp	#$50
     bbf: d0 d4        	bne	$b95 <f256main+0x383>
     bc1: 64 14        	stz	$14                     ; 0x14 <__rc4>
     bc3: a5 14        	lda	$14                     ; 0x14 <__rc4>
     bc5: 18           	clc
     bc6: 69 c0        	adc	#$c0
     bc8: 85 12        	sta	$12                     ; 0x12 <__rc2>
     bca: a9 00        	lda	#$0
     bcc: 69 02        	adc	#$2
     bce: a6 0f        	ldx	$f                      ; 0xf <__data_size+0xf>
     bd0: 78           	sei
     bd1: a0 26        	ldy	#$26
     bd3: 84 0f        	sty	$f                      ; 0xf <__data_size+0xf>
     bd5: 09 e0        	ora	#$e0
     bd7: 85 13        	sta	$13                     ; 0x13 <__rc3>
     bd9: a9 00        	lda	#$0
     bdb: 92 12        	sta	($12)                   ; 0x12 <__rc2>
     bdd: a0 01        	ldy	#$1
     bdf: 91 12        	sta	($12),y                 ; 0x12 <__rc2>
     be1: a5 14        	lda	$14                     ; 0x14 <__rc4>
     be3: 86 0f        	stx	$f                      ; 0xf <__data_size+0xf>
     be5: 58           	cli
     be6: 18           	clc
     be7: 69 02        	adc	#$2
     be9: 85 14        	sta	$14                     ; 0x14 <__rc4>
     beb: c9 50        	cmp	#$50
     bed: d0 d4        	bne	$bc3 <f256main+0x3b1>
     bef: 64 14        	stz	$14                     ; 0x14 <__rc4>
     bf1: 18           	clc
     bf2: a5 14        	lda	$14                     ; 0x14 <__rc4>
     bf4: 69 10        	adc	#$10
     bf6: 85 12        	sta	$12                     ; 0x12 <__rc2>
     bf8: a9 00        	lda	#$0
     bfa: 69 03        	adc	#$3
     bfc: a6 0f        	ldx	$f                      ; 0xf <__data_size+0xf>
     bfe: 78           	sei
     bff: a0 26        	ldy	#$26
     c01: 84 0f        	sty	$f                      ; 0xf <__data_size+0xf>
     c03: 09 e0        	ora	#$e0
     c05: 85 13        	sta	$13                     ; 0x13 <__rc3>
     c07: a9 01        	lda	#$1
     c09: 92 12        	sta	($12)                   ; 0x12 <__rc2>
     c0b: 3a           	dec
     c0c: a0 01        	ldy	#$1
     c0e: 91 12        	sta	($12),y                 ; 0x12 <__rc2>
     c10: a5 14        	lda	$14                     ; 0x14 <__rc4>
     c12: 86 0f        	stx	$f                      ; 0xf <__data_size+0xf>
     c14: 58           	cli
     c15: 18           	clc
     c16: 69 02        	adc	#$2
     c18: 85 14        	sta	$14                     ; 0x14 <__rc4>
     c1a: c9 50        	cmp	#$50
     c1c: d0 d3        	bne	$bf1 <f256main+0x3df>
     c1e: 64 14        	stz	$14                     ; 0x14 <__rc4>
     c20: 18           	clc
     c21: a5 14        	lda	$14                     ; 0x14 <__rc4>
     c23: 69 60        	adc	#$60
     c25: 85 12        	sta	$12                     ; 0x12 <__rc2>
     c27: a9 00        	lda	#$0
     c29: 69 03        	adc	#$3
     c2b: a6 0f        	ldx	$f                      ; 0xf <__data_size+0xf>
     c2d: 78           	sei
     c2e: a0 26        	ldy	#$26
     c30: 84 0f        	sty	$f                      ; 0xf <__data_size+0xf>
     c32: 09 e0        	ora	#$e0
     c34: 85 13        	sta	$13                     ; 0x13 <__rc3>
     c36: a9 01        	lda	#$1
     c38: 92 12        	sta	($12)                   ; 0x12 <__rc2>
     c3a: 3a           	dec
     c3b: a0 01        	ldy	#$1
     c3d: 91 12        	sta	($12),y                 ; 0x12 <__rc2>
     c3f: a5 14        	lda	$14                     ; 0x14 <__rc4>
     c41: 86 0f        	stx	$f                      ; 0xf <__data_size+0xf>
     c43: 58           	cli
     c44: 18           	clc
     c45: 69 02        	adc	#$2
     c47: 85 14        	sta	$14                     ; 0x14 <__rc4>
     c49: c9 50        	cmp	#$50
     c4b: d0 d3        	bne	$c20 <f256main+0x40e>
     c4d: 64 14        	stz	$14                     ; 0x14 <__rc4>
     c4f: a5 14        	lda	$14                     ; 0x14 <__rc4>
     c51: 18           	clc
     c52: 69 b0        	adc	#$b0
     c54: 85 12        	sta	$12                     ; 0x12 <__rc2>
     c56: a9 00        	lda	#$0
     c58: 69 03        	adc	#$3
     c5a: a6 0f        	ldx	$f                      ; 0xf <__data_size+0xf>
     c5c: 78           	sei
     c5d: a0 26        	ldy	#$26
     c5f: 84 0f        	sty	$f                      ; 0xf <__data_size+0xf>
     c61: 09 e0        	ora	#$e0
     c63: 85 13        	sta	$13                     ; 0x13 <__rc3>
     c65: a9 01        	lda	#$1
     c67: 92 12        	sta	($12)                   ; 0x12 <__rc2>
     c69: 3a           	dec
     c6a: a0 01        	ldy	#$1
     c6c: 91 12        	sta	($12),y                 ; 0x12 <__rc2>
     c6e: a5 14        	lda	$14                     ; 0x14 <__rc4>
     c70: 86 0f        	stx	$f                      ; 0xf <__data_size+0xf>
     c72: 58           	cli
     c73: 18           	clc
     c74: 69 02        	adc	#$2
     c76: 85 14        	sta	$14                     ; 0x14 <__rc4>
     c78: c9 50        	cmp	#$50
     c7a: d0 d3        	bne	$c4f <f256main+0x43d>
     c7c: a2 e4        	ldx	#$e4
     c7e: 64 12        	stz	$12                     ; 0x12 <__rc2>
     c80: a4 0f        	ldy	$f                      ; 0xf <__data_size+0xf>
     c82: 84 15        	sty	$15                     ; 0x15 <__rc5>
     c84: 78           	sei
     c85: a9 26        	lda	#$26
     c87: 85 0f        	sta	$f                      ; 0xf <__data_size+0xf>
     c89: 86 13        	stx	$13                     ; 0x13 <__rc3>
     c8b: a9 01        	lda	#$1
     c8d: 92 12        	sta	($12)                   ; 0x12 <__rc2>
     c8f: 3a           	dec
     c90: a0 01        	ldy	#$1
     c92: 91 12        	sta	($12),y                 ; 0x12 <__rc2>
     c94: a4 15        	ldy	$15                     ; 0x15 <__rc5>
     c96: 84 0f        	sty	$f                      ; 0xf <__data_size+0xf>
     c98: 58           	cli
     c99: 18           	clc
     c9a: a5 12        	lda	$12                     ; 0x12 <__rc2>
     c9c: 69 02        	adc	#$2
     c9e: 85 12        	sta	$12                     ; 0x12 <__rc2>
     ca0: c9 50        	cmp	#$50
     ca2: d0 dc        	bne	$c80 <f256main+0x46e>
     ca4: a6 0f        	ldx	$f                      ; 0xf <__data_size+0xf>
     ca6: 78           	sei
     ca7: a0 26        	ldy	#$26
     ca9: 84 0f        	sty	$f                      ; 0xf <__data_size+0xf>
     cab: a9 06        	lda	#$6
     cad: 8d 84 e1     	sta	$e184                   ; 0xe184 <__heap_start+0xbe58>
     cb0: 85 12        	sta	$12                     ; 0x12 <__rc2>
     cb2: 9c 85 e1     	stz	$e185                   ; 0xe185 <__heap_start+0xbe59>
     cb5: 86 0f        	stx	$f                      ; 0xf <__data_size+0xf>
     cb7: 58           	cli
     cb8: a6 0f        	ldx	$f                      ; 0xf <__data_size+0xf>
     cba: 78           	sei
     cbb: 84 0f        	sty	$f                      ; 0xf <__data_size+0xf>
     cbd: 1a           	inc
     cbe: 8d 86 e1     	sta	$e186                   ; 0xe186 <__heap_start+0xbe5a>
     cc1: 85 13        	sta	$13                     ; 0x13 <__rc3>
     cc3: 9c 87 e1     	stz	$e187                   ; 0xe187 <__heap_start+0xbe5b>
     cc6: 86 0f        	stx	$f                      ; 0xf <__data_size+0xf>
     cc8: 58           	cli
     cc9: a6 0f        	ldx	$f                      ; 0xf <__data_size+0xf>
     ccb: 78           	sei
     ccc: 84 0f        	sty	$f                      ; 0xf <__data_size+0xf>
     cce: 1a           	inc
     ccf: 8d 88 e1     	sta	$e188                   ; 0xe188 <__heap_start+0xbe5c>
     cd2: 85 14        	sta	$14                     ; 0x14 <__rc4>
     cd4: 9c 89 e1     	stz	$e189                   ; 0xe189 <__heap_start+0xbe5d>
     cd7: 86 0f        	stx	$f                      ; 0xf <__data_size+0xf>
     cd9: 58           	cli
     cda: a6 0f        	ldx	$f                      ; 0xf <__data_size+0xf>
     cdc: 78           	sei
     cdd: 84 0f        	sty	$f                      ; 0xf <__data_size+0xf>
     cdf: a9 02        	lda	#$2
     ce1: 8d 4c e0     	sta	$e04c                   ; 0xe04c <__heap_start+0xbd20>
     ce4: 85 17        	sta	$17                     ; 0x17 <__rc7>
     ce6: 9c 4d e0     	stz	$e04d                   ; 0xe04d <__heap_start+0xbd21>
     ce9: 86 0f        	stx	$f                      ; 0xf <__data_size+0xf>
     ceb: 58           	cli
     cec: a6 0f        	ldx	$f                      ; 0xf <__data_size+0xf>
     cee: 78           	sei
     cef: 84 0f        	sty	$f                      ; 0xf <__data_size+0xf>
     cf1: 1a           	inc
     cf2: 8d 4e e0     	sta	$e04e                   ; 0xe04e <__heap_start+0xbd22>
     cf5: 85 19        	sta	$19                     ; 0x19 <__rc9>
     cf7: 9c 4f e0     	stz	$e04f                   ; 0xe04f <__heap_start+0xbd23>
     cfa: 86 0f        	stx	$f                      ; 0xf <__data_size+0xf>
     cfc: 58           	cli
     cfd: a6 0f        	ldx	$f                      ; 0xf <__data_size+0xf>
     cff: 78           	sei
     d00: 84 0f        	sty	$f                      ; 0xf <__data_size+0xf>
     d02: 1a           	inc
     d03: 8d 9c e0     	sta	$e09c                   ; 0xe09c <__heap_start+0xbd70>
     d06: 85 1b        	sta	$1b                     ; 0x1b <__rc11>
     d08: 9c 9d e0     	stz	$e09d                   ; 0xe09d <__heap_start+0xbd71>
     d0b: 86 0f        	stx	$f                      ; 0xf <__data_size+0xf>
     d0d: 58           	cli
     d0e: a6 0f        	ldx	$f                      ; 0xf <__data_size+0xf>
     d10: 78           	sei
     d11: 84 0f        	sty	$f                      ; 0xf <__data_size+0xf>
     d13: 1a           	inc
     d14: 8d 9e e0     	sta	$e09e                   ; 0xe09e <__heap_start+0xbd72>
     d17: 85 1c        	sta	$1c                     ; 0x1c <__rc12>
     d19: 9c 9f e0     	stz	$e09f                   ; 0xe09f <__heap_start+0xbd73>
     d1c: 86 0f        	stx	$f                      ; 0xf <__data_size+0xf>
     d1e: 58           	cli
     d1f: a6 0f        	ldx	$f                      ; 0xf <__data_size+0xf>
     d21: 78           	sei
     d22: 84 0f        	sty	$f                      ; 0xf <__data_size+0xf>
     d24: a9 09        	lda	#$9
     d26: 8d 08 e0     	sta	$e008                   ; 0xe008 <__heap_start+0xbcdc>
     d29: 85 15        	sta	$15                     ; 0x15 <__rc5>
     d2b: 9c 09 e0     	stz	$e009                   ; 0xe009 <__heap_start+0xbcdd>
     d2e: 86 0f        	stx	$f                      ; 0xf <__data_size+0xf>
     d30: 58           	cli
     d31: a6 0f        	ldx	$f                      ; 0xf <__data_size+0xf>
     d33: 78           	sei
     d34: 84 0f        	sty	$f                      ; 0xf <__data_size+0xf>
     d36: 1a           	inc
     d37: 8d 0a e0     	sta	$e00a                   ; 0xe00a <__heap_start+0xbcde>
     d3a: 85 16        	sta	$16                     ; 0x16 <__rc6>
     d3c: 9c 0b e0     	stz	$e00b                   ; 0xe00b <__heap_start+0xbcdf>
     d3f: 86 0f        	stx	$f                      ; 0xf <__data_size+0xf>
     d41: 58           	cli
     d42: a6 0f        	ldx	$f                      ; 0xf <__data_size+0xf>
     d44: 78           	sei
     d45: 84 0f        	sty	$f                      ; 0xf <__data_size+0xf>
     d47: a5 17        	lda	$17                     ; 0x17 <__rc7>
     d49: 8d 96 e1     	sta	$e196                   ; 0xe196 <__heap_start+0xbe6a>
     d4c: 85 18        	sta	$18                     ; 0x18 <__rc8>
     d4e: 9c 97 e1     	stz	$e197                   ; 0xe197 <__heap_start+0xbe6b>
     d51: 86 0f        	stx	$f                      ; 0xf <__data_size+0xf>
     d53: 58           	cli
     d54: a6 0f        	ldx	$f                      ; 0xf <__data_size+0xf>
     d56: 78           	sei
     d57: 84 0f        	sty	$f                      ; 0xf <__data_size+0xf>
     d59: a5 19        	lda	$19                     ; 0x19 <__rc9>
     d5b: 8d 98 e1     	sta	$e198                   ; 0xe198 <__heap_start+0xbe6c>
     d5e: 85 1a        	sta	$1a                     ; 0x1a <__rc10>
     d60: 9c 99 e1     	stz	$e199                   ; 0xe199 <__heap_start+0xbe6d>
     d63: 86 0f        	stx	$f                      ; 0xf <__data_size+0xf>
     d65: 58           	cli
     d66: a6 0f        	ldx	$f                      ; 0xf <__data_size+0xf>
     d68: 78           	sei
     d69: 84 0f        	sty	$f                      ; 0xf <__data_size+0xf>
     d6b: a5 1b        	lda	$1b                     ; 0x1b <__rc11>
     d6d: 8d e6 e1     	sta	$e1e6                   ; 0xe1e6 <__heap_start+0xbeba>
     d70: 85 19        	sta	$19                     ; 0x19 <__rc9>
     d72: 9c e7 e1     	stz	$e1e7                   ; 0xe1e7 <__heap_start+0xbebb>
     d75: 86 0f        	stx	$f                      ; 0xf <__data_size+0xf>
     d77: 58           	cli
     d78: a6 0f        	ldx	$f                      ; 0xf <__data_size+0xf>
     d7a: 78           	sei
     d7b: 84 0f        	sty	$f                      ; 0xf <__data_size+0xf>
     d7d: a5 1c        	lda	$1c                     ; 0x1c <__rc12>
     d7f: 8d e8 e1     	sta	$e1e8                   ; 0xe1e8 <__heap_start+0xbebc>
     d82: 85 17        	sta	$17                     ; 0x17 <__rc7>
     d84: 9c e9 e1     	stz	$e1e9                   ; 0xe1e9 <__heap_start+0xbebd>
     d87: 86 0f        	stx	$f                      ; 0xf <__data_size+0xf>
     d89: 58           	cli
     d8a: a6 0f        	ldx	$f                      ; 0xf <__data_size+0xf>
     d8c: 78           	sei
     d8d: 84 0f        	sty	$f                      ; 0xf <__data_size+0xf>
     d8f: a5 12        	lda	$12                     ; 0x12 <__rc2>
     d91: 8d ac e1     	sta	$e1ac                   ; 0xe1ac <__heap_start+0xbe80>
     d94: 9c ad e1     	stz	$e1ad                   ; 0xe1ad <__heap_start+0xbe81>
     d97: 86 0f        	stx	$f                      ; 0xf <__data_size+0xf>
     d99: 58           	cli
     d9a: a6 0f        	ldx	$f                      ; 0xf <__data_size+0xf>
     d9c: 78           	sei
     d9d: 84 0f        	sty	$f                      ; 0xf <__data_size+0xf>
     d9f: a5 13        	lda	$13                     ; 0x13 <__rc3>
     da1: 8d ae e1     	sta	$e1ae                   ; 0xe1ae <__heap_start+0xbe82>
     da4: 9c af e1     	stz	$e1af                   ; 0xe1af <__heap_start+0xbe83>
     da7: 86 0f        	stx	$f                      ; 0xf <__data_size+0xf>
     da9: 58           	cli
     daa: a6 0f        	ldx	$f                      ; 0xf <__data_size+0xf>
     dac: 78           	sei
     dad: 84 0f        	sty	$f                      ; 0xf <__data_size+0xf>
     daf: a5 14        	lda	$14                     ; 0x14 <__rc4>
     db1: 8d b0 e1     	sta	$e1b0                   ; 0xe1b0 <__heap_start+0xbe84>
     db4: 9c b1 e1     	stz	$e1b1                   ; 0xe1b1 <__heap_start+0xbe85>
     db7: 86 0f        	stx	$f                      ; 0xf <__data_size+0xf>
     db9: 58           	cli
     dba: a6 0f        	ldx	$f                      ; 0xf <__data_size+0xf>
     dbc: 78           	sei
     dbd: 84 0f        	sty	$f                      ; 0xf <__data_size+0xf>
     dbf: a5 18        	lda	$18                     ; 0x18 <__rc8>
     dc1: 8d 74 e0     	sta	$e074                   ; 0xe074 <__heap_start+0xbd48>
     dc4: 85 13        	sta	$13                     ; 0x13 <__rc3>
     dc6: 9c 75 e0     	stz	$e075                   ; 0xe075 <__heap_start+0xbd49>
     dc9: 86 0f        	stx	$f                      ; 0xf <__data_size+0xf>
     dcb: 58           	cli
     dcc: a6 0f        	ldx	$f                      ; 0xf <__data_size+0xf>
     dce: 78           	sei
     dcf: 84 0f        	sty	$f                      ; 0xf <__data_size+0xf>
     dd1: a5 1a        	lda	$1a                     ; 0x1a <__rc10>
     dd3: 8d 76 e0     	sta	$e076                   ; 0xe076 <__heap_start+0xbd4a>
     dd6: 85 14        	sta	$14                     ; 0x14 <__rc4>
     dd8: 9c 77 e0     	stz	$e077                   ; 0xe077 <__heap_start+0xbd4b>
     ddb: 86 0f        	stx	$f                      ; 0xf <__data_size+0xf>
     ddd: 58           	cli
     dde: a6 0f        	ldx	$f                      ; 0xf <__data_size+0xf>
     de0: 78           	sei
     de1: 84 0f        	sty	$f                      ; 0xf <__data_size+0xf>
     de3: a5 19        	lda	$19                     ; 0x19 <__rc9>
     de5: 8d c4 e0     	sta	$e0c4                   ; 0xe0c4 <__heap_start+0xbd98>
     de8: 85 12        	sta	$12                     ; 0x12 <__rc2>
     dea: 9c c5 e0     	stz	$e0c5                   ; 0xe0c5 <__heap_start+0xbd99>
     ded: 86 0f        	stx	$f                      ; 0xf <__data_size+0xf>
     def: 58           	cli
     df0: a6 0f        	ldx	$f                      ; 0xf <__data_size+0xf>
     df2: 78           	sei
     df3: 84 0f        	sty	$f                      ; 0xf <__data_size+0xf>
     df5: a5 17        	lda	$17                     ; 0x17 <__rc7>
     df7: 8d c6 e0     	sta	$e0c6                   ; 0xe0c6 <__heap_start+0xbd9a>
     dfa: 9c c7 e0     	stz	$e0c7                   ; 0xe0c7 <__heap_start+0xbd9b>
     dfd: 86 0f        	stx	$f                      ; 0xf <__data_size+0xf>
     dff: 58           	cli
     e00: a6 0f        	ldx	$f                      ; 0xf <__data_size+0xf>
     e02: 78           	sei
     e03: 84 0f        	sty	$f                      ; 0xf <__data_size+0xf>
     e05: a5 15        	lda	$15                     ; 0x15 <__rc5>
     e07: 8d 30 e0     	sta	$e030                   ; 0xe030 <__heap_start+0xbd04>
     e0a: 9c 31 e0     	stz	$e031                   ; 0xe031 <__heap_start+0xbd05>
     e0d: 86 0f        	stx	$f                      ; 0xf <__data_size+0xf>
     e0f: 58           	cli
     e10: a6 0f        	ldx	$f                      ; 0xf <__data_size+0xf>
     e12: 78           	sei
     e13: 84 0f        	sty	$f                      ; 0xf <__data_size+0xf>
     e15: a5 16        	lda	$16                     ; 0x16 <__rc6>
     e17: 8d 32 e0     	sta	$e032                   ; 0xe032 <__heap_start+0xbd06>
     e1a: 9c 33 e0     	stz	$e033                   ; 0xe033 <__heap_start+0xbd07>
     e1d: 86 0f        	stx	$f                      ; 0xf <__data_size+0xf>
     e1f: 58           	cli
     e20: a6 0f        	ldx	$f                      ; 0xf <__data_size+0xf>
     e22: 78           	sei
     e23: 84 0f        	sty	$f                      ; 0xf <__data_size+0xf>
     e25: a5 13        	lda	$13                     ; 0x13 <__rc3>
     e27: 8d be e1     	sta	$e1be                   ; 0xe1be <__heap_start+0xbe92>
     e2a: 85 16        	sta	$16                     ; 0x16 <__rc6>
     e2c: 9c bf e1     	stz	$e1bf                   ; 0xe1bf <__heap_start+0xbe93>
     e2f: 86 0f        	stx	$f                      ; 0xf <__data_size+0xf>
     e31: 58           	cli
     e32: a6 0f        	ldx	$f                      ; 0xf <__data_size+0xf>
     e34: 78           	sei
     e35: 84 0f        	sty	$f                      ; 0xf <__data_size+0xf>
     e37: a5 14        	lda	$14                     ; 0x14 <__rc4>
     e39: 8d c0 e1     	sta	$e1c0                   ; 0xe1c0 <__heap_start+0xbe94>
     e3c: 9c c1 e1     	stz	$e1c1                   ; 0xe1c1 <__heap_start+0xbe95>
     e3f: 86 0f        	stx	$f                      ; 0xf <__data_size+0xf>
     e41: 58           	cli
     e42: a6 0f        	ldx	$f                      ; 0xf <__data_size+0xf>
     e44: 78           	sei
     e45: 84 0f        	sty	$f                      ; 0xf <__data_size+0xf>
     e47: a5 12        	lda	$12                     ; 0x12 <__rc2>
     e49: 8d 0e e2     	sta	$e20e                   ; 0xe20e <__heap_start+0xbee2>
     e4c: 9c 0f e2     	stz	$e20f                   ; 0xe20f <__heap_start+0xbee3>
     e4f: 86 0f        	stx	$f                      ; 0xf <__data_size+0xf>
     e51: 58           	cli
     e52: a6 0f        	ldx	$f                      ; 0xf <__data_size+0xf>
     e54: 78           	sei
     e55: 84 0f        	sty	$f                      ; 0xf <__data_size+0xf>
     e57: a4 17        	ldy	$17                     ; 0x17 <__rc7>
     e59: 8c 10 e2     	sty	$e210                   ; 0xe210 <__heap_start+0xbee4>
     e5c: 9c 11 e2     	stz	$e211                   ; 0xe211 <__heap_start+0xbee5>
     e5f: 86 0f        	stx	$f                      ; 0xf <__data_size+0xf>
     e61: 58           	cli
     e62: a2 a0        	ldx	#$a0
     e64: 8e 20 d2     	stx	$d220                   ; 0xd220 <__heap_start+0xaef4>
     e67: 9c 21 d2     	stz	$d221                   ; 0xd221 <__heap_start+0xaef5>
     e6a: 9c 22 d2     	stz	$d222                   ; 0xd222 <__heap_start+0xaef6>
     e6d: 9c 23 d2     	stz	$d223                   ; 0xd223 <__heap_start+0xaef7>
     e70: a2 48        	ldx	#$48
     e72: 8e ea 22     	stx	$22ea                   ; 0x22ea <_spriteCtl>
     e75: 8e 00 d9     	stx	$d900                   ; 0xd900 <__heap_start+0xb5d4>
     e78: 86 13        	stx	$13                     ; 0x13 <__rc3>
     e7a: 9c 01 d9     	stz	$d901                   ; 0xd901 <__heap_start+0xb5d5>
     e7d: a2 6c        	ldx	#$6c
     e7f: 8e 02 d9     	stx	$d902                   ; 0xd902 <__heap_start+0xb5d6>
     e82: 86 15        	stx	$15                     ; 0x15 <__rc5>
     e84: a6 14        	ldx	$14                     ; 0x14 <__rc4>
     e86: 8e 03 d9     	stx	$d903                   ; 0xd903 <__heap_start+0xb5d7>
     e89: a0 64        	ldy	#$64
     e8b: 8c 04 d9     	sty	$d904                   ; 0xd904 <__heap_start+0xb5d8>
     e8e: 9c 05 d9     	stz	$d905                   ; 0xd905 <__heap_start+0xb5d9>
     e91: a0 d8        	ldy	#$d8
     e93: 8c 06 d9     	sty	$d906                   ; 0xd906 <__heap_start+0xb5da>
     e96: 9c 07 d9     	stz	$d907                   ; 0xd907 <__heap_start+0xb5db>
     e99: a9 01        	lda	#$1
     e9b: 0d ea 22     	ora	$22ea                   ; 0x22ea <_spriteCtl>
     e9e: 8d 00 d9     	sta	$d900                   ; 0xd900 <__heap_start+0xb5d4>
     ea1: a2 40        	ldx	#$40
     ea3: 8e eb 22     	stx	$22eb                   ; 0x22eb <_spriteCtl+0x1>
     ea6: 8e 08 d9     	stx	$d908                   ; 0xd908 <__heap_start+0xb5dc>
     ea9: 9c 09 d9     	stz	$d909                   ; 0xd909 <__heap_start+0xb5dd>
     eac: a4 15        	ldy	$15                     ; 0x15 <__rc5>
     eae: 8c 0a d9     	sty	$d90a                   ; 0xd90a <__heap_start+0xb5de>
     eb1: a4 15        	ldy	$15                     ; 0x15 <__rc5>
     eb3: 84 17        	sty	$17                     ; 0x17 <__rc7>
     eb5: a4 14        	ldy	$14                     ; 0x14 <__rc4>
     eb7: 8c 0b d9     	sty	$d90b                   ; 0xd90b <__heap_start+0xb5df>
     eba: 84 15        	sty	$15                     ; 0x15 <__rc5>
     ebc: a0 32        	ldy	#$32
     ebe: 8c 0c d9     	sty	$d90c                   ; 0xd90c <__heap_start+0xb5e0>
     ec1: 84 14        	sty	$14                     ; 0x14 <__rc4>
     ec3: 9c 0d d9     	stz	$d90d                   ; 0xd90d <__heap_start+0xb5e1>
     ec6: a0 e8        	ldy	#$e8
     ec8: 8c 0e d9     	sty	$d90e                   ; 0xd90e <__heap_start+0xb5e2>
     ecb: 9c 0f d9     	stz	$d90f                   ; 0xd90f <__heap_start+0xb5e3>
     ece: a9 01        	lda	#$1
     ed0: 0d eb 22     	ora	$22eb                   ; 0x22eb <_spriteCtl+0x1>
     ed3: 8d 08 d9     	sta	$d908                   ; 0xd908 <__heap_start+0xb5dc>
     ed6: 8e ec 22     	stx	$22ec                   ; 0x22ec <_spriteCtl+0x2>
     ed9: 8e 10 d9     	stx	$d910                   ; 0xd910 <__heap_start+0xb5e4>
     edc: 9c 11 d9     	stz	$d911                   ; 0xd911 <__heap_start+0xb5e5>
     edf: a6 17        	ldx	$17                     ; 0x17 <__rc7>
     ee1: 8e 12 d9     	stx	$d912                   ; 0xd912 <__heap_start+0xb5e6>
     ee4: a6 15        	ldx	$15                     ; 0x15 <__rc5>
     ee6: 8e 13 d9     	stx	$d913                   ; 0xd913 <__heap_start+0xb5e7>
     ee9: a0 14        	ldy	#$14
     eeb: 8c 14 d9     	sty	$d914                   ; 0xd914 <__heap_start+0xb5e8>
     eee: 9c 15 d9     	stz	$d915                   ; 0xd915 <__heap_start+0xb5e9>
     ef1: a0 f8        	ldy	#$f8
     ef3: 8c 16 d9     	sty	$d916                   ; 0xd916 <__heap_start+0xb5ea>
     ef6: 9c 17 d9     	stz	$d917                   ; 0xd917 <__heap_start+0xb5eb>
     ef9: a9 01        	lda	#$1
     efb: 0d ec 22     	ora	$22ec                   ; 0x22ec <_spriteCtl+0x2>
     efe: 8d 10 d9     	sta	$d910                   ; 0xd910 <__heap_start+0xb5e4>
     f01: a0 50        	ldy	#$50
     f03: 8c ed 22     	sty	$22ed                   ; 0x22ed <_spriteCtl+0x3>
     f06: 8c 18 d9     	sty	$d918                   ; 0xd918 <__heap_start+0xb5ec>
     f09: 9c 19 d9     	stz	$d919                   ; 0xd919 <__heap_start+0xb5ed>
     f0c: a0 ac        	ldy	#$ac
     f0e: 8c 1a d9     	sty	$d91a                   ; 0xd91a <__heap_start+0xb5ee>
     f11: a6 12        	ldx	$12                     ; 0x12 <__rc2>
     f13: 8e 1b d9     	stx	$d91b                   ; 0xd91b <__heap_start+0xb5ef>
     f16: a9 2c        	lda	#$2c
     f18: 8d 1c d9     	sta	$d91c                   ; 0xd91c <__heap_start+0xb5f0>
     f1b: a9 01        	lda	#$1
     f1d: 8d 1d d9     	sta	$d91d                   ; 0xd91d <__heap_start+0xb5f1>
     f20: 85 12        	sta	$12                     ; 0x12 <__rc2>
     f22: a5 14        	lda	$14                     ; 0x14 <__rc4>
     f24: 8d 1e d9     	sta	$d91e                   ; 0xd91e <__heap_start+0xb5f2>
     f27: 9c 1f d9     	stz	$d91f                   ; 0xd91f <__heap_start+0xb5f3>
     f2a: a9 01        	lda	#$1
     f2c: 0d ed 22     	ora	$22ed                   ; 0x22ed <_spriteCtl+0x3>
     f2f: 8d 18 d9     	sta	$d918                   ; 0xd918 <__heap_start+0xb5ec>
     f32: a9 40        	lda	#$40
     f34: 8d ee 22     	sta	$22ee                   ; 0x22ee <_spriteCtl+0x4>
     f37: 8d 20 d9     	sta	$d920                   ; 0xd920 <__heap_start+0xb5f4>
     f3a: 85 14        	sta	$14                     ; 0x14 <__rc4>
     f3c: 9c 21 d9     	stz	$d921                   ; 0xd921 <__heap_start+0xb5f5>
     f3f: 8c 22 d9     	sty	$d922                   ; 0xd922 <__heap_start+0xb5f6>
     f42: 8e 23 d9     	stx	$d923                   ; 0xd923 <__heap_start+0xb5f7>
     f45: a9 fa        	lda	#$fa
     f47: 8d 24 d9     	sta	$d924                   ; 0xd924 <__heap_start+0xb5f8>
     f4a: 9c 25 d9     	stz	$d925                   ; 0xd925 <__heap_start+0xb5f9>
     f4d: a9 96        	lda	#$96
     f4f: 8d 26 d9     	sta	$d926                   ; 0xd926 <__heap_start+0xb5fa>
     f52: 9c 27 d9     	stz	$d927                   ; 0xd927 <__heap_start+0xb5fb>
     f55: a9 01        	lda	#$1
     f57: 0d ee 22     	ora	$22ee                   ; 0x22ee <_spriteCtl+0x4>
     f5a: 8d 20 d9     	sta	$d920                   ; 0xd920 <__heap_start+0xb5f4>
     f5d: a5 13        	lda	$13                     ; 0x13 <__rc3>
     f5f: 8d ef 22     	sta	$22ef                   ; 0x22ef <_spriteCtl+0x5>
     f62: 8d 28 d9     	sta	$d928                   ; 0xd928 <__heap_start+0xb5fc>
     f65: 9c 29 d9     	stz	$d929                   ; 0xd929 <__heap_start+0xb5fd>
     f68: 8c 2a d9     	sty	$d92a                   ; 0xd92a <__heap_start+0xb5fe>
     f6b: 64 17        	stz	$17                     ; 0x17 <__rc7>
     f6d: 8e 2b d9     	stx	$d92b                   ; 0xd92b <__heap_start+0xb5ff>
     f70: a6 14        	ldx	$14                     ; 0x14 <__rc4>
     f72: 8e 2c d9     	stx	$d92c                   ; 0xd92c <__heap_start+0xb600>
     f75: a6 12        	ldx	$12                     ; 0x12 <__rc2>
     f77: 8e 2d d9     	stx	$d92d                   ; 0xd92d <__heap_start+0xb601>
     f7a: a4 12        	ldy	$12                     ; 0x12 <__rc2>
     f7c: a2 6e        	ldx	#$6e
     f7e: 8e 2e d9     	stx	$d92e                   ; 0xd92e <__heap_start+0xb602>
     f81: 9c 2f d9     	stz	$d92f                   ; 0xd92f <__heap_start+0xb603>
     f84: a9 01        	lda	#$1
     f86: 0d ef 22     	ora	$22ef                   ; 0x22ef <_spriteCtl+0x5>
     f89: 8d 28 d9     	sta	$d928                   ; 0xd928 <__heap_start+0xb5fc>
     f8c: 64 96        	stz	$96                     ; 0x96 <sprAnim>
     f8e: 64 98        	stz	$98                     ; 0x98 <sprAnim+0x2>
     f90: a2 80        	ldx	#$80
     f92: 86 f3        	stx	$f3                     ; 0xf3 <__sunset_size+0x5f>
     f94: 18           	clc
     f95: a5 10        	lda	$10                     ; 0x10 <__rc0>
     f97: 69 01        	adc	#$1
     f99: 85 14        	sta	$14                     ; 0x14 <__rc4>
     f9b: a5 11        	lda	$11                     ; 0x11 <__rc1>
     f9d: 69 00        	adc	#$0
     f9f: 85 15        	sta	$15                     ; 0x15 <__rc5>
     fa1: a9 2a        	lda	#$2a
     fa3: 85 12        	sta	$12                     ; 0x12 <__rc2>
     fa5: a9 23        	lda	#$23
     fa7: 85 13        	sta	$13                     ; 0x13 <__rc3>
     fa9: 20 f0 ff     	jsr	$fff0 <__heap_start+0xdcc4>
     fac: 92 14        	sta	($14)                   ; 0x14 <__rc4>
     fae: a9 00        	lda	#$0
     fb0: 6a           	ror
     fb1: 85 12        	sta	$12                     ; 0x12 <__rc2>
     fb3: a9 05        	lda	#$5
     fb5: 18           	clc
     fb6: 72 14        	adc	($14)                   ; 0x14 <__rc4>
     fb8: 85 97        	sta	$97                     ; 0x97 <sprAnim+0x1>
     fba: a5 96        	lda	$96                     ; 0x96 <sprAnim>
     fbc: 85 f3        	sta	$f3                     ; 0xf3 <__sunset_size+0x5f>
     fbe: a5 97        	lda	$97                     ; 0x97 <sprAnim+0x1>
     fc0: 85 f4        	sta	$f4                     ; 0xf4 <__sunset_size+0x60>
     fc2: a5 98        	lda	$98                     ; 0x98 <sprAnim+0x2>
     fc4: 85 f5        	sta	$f5                     ; 0xf5 <__sunset_size+0x61>
     fc6: 18           	clc
     fc7: a5 10        	lda	$10                     ; 0x10 <__rc0>
     fc9: 69 02        	adc	#$2
     fcb: 85 14        	sta	$14                     ; 0x14 <__rc4>
     fcd: a5 11        	lda	$11                     ; 0x11 <__rc1>
     fcf: 69 00        	adc	#$0
     fd1: 85 15        	sta	$15                     ; 0x15 <__rc5>
     fd3: 20 f0 ff     	jsr	$fff0 <__heap_start+0xdcc4>
     fd6: 92 14        	sta	($14)                   ; 0x14 <__rc4>
     fd8: a9 00        	lda	#$0
     fda: 6a           	ror
     fdb: 85 12        	sta	$12                     ; 0x12 <__rc2>
     fdd: 64 99        	stz	$99                     ; 0x99 <sprBirdAnim>
     fdf: 84 9b        	sty	$9b                     ; 0x9b <sprBirdAnim+0x2>
     fe1: 86 f3        	stx	$f3                     ; 0xf3 <__sunset_size+0x5f>
     fe3: 18           	clc
     fe4: a5 10        	lda	$10                     ; 0x10 <__rc0>
     fe6: 69 03        	adc	#$3
     fe8: 85 14        	sta	$14                     ; 0x14 <__rc4>
     fea: a5 11        	lda	$11                     ; 0x11 <__rc1>
     fec: 69 00        	adc	#$0
     fee: 85 15        	sta	$15                     ; 0x15 <__rc5>
     ff0: 20 f0 ff     	jsr	$fff0 <__heap_start+0xdcc4>
     ff3: 92 14        	sta	($14)                   ; 0x14 <__rc4>
     ff5: a9 00        	lda	#$0
     ff7: 6a           	ror
     ff8: 85 12        	sta	$12                     ; 0x12 <__rc2>
     ffa: a9 03        	lda	#$3
     ffc: 18           	clc
     ffd: 72 14        	adc	($14)                   ; 0x14 <__rc4>
     fff: 85 9a        	sta	$9a                     ; 0x9a <sprBirdAnim+0x1>
    1001: a5 99        	lda	$99                     ; 0x99 <sprBirdAnim>
    1003: 85 f3        	sta	$f3                     ; 0xf3 <__sunset_size+0x5f>
    1005: a5 9a        	lda	$9a                     ; 0x9a <sprBirdAnim+0x1>
    1007: 85 f4        	sta	$f4                     ; 0xf4 <__sunset_size+0x60>
    1009: a5 9b        	lda	$9b                     ; 0x9b <sprBirdAnim+0x2>
    100b: 85 f5        	sta	$f5                     ; 0xf5 <__sunset_size+0x61>
    100d: 18           	clc
    100e: a5 10        	lda	$10                     ; 0x10 <__rc0>
    1010: 69 04        	adc	#$4
    1012: 85 14        	sta	$14                     ; 0x14 <__rc4>
    1014: a5 11        	lda	$11                     ; 0x11 <__rc1>
    1016: 69 00        	adc	#$0
    1018: 85 15        	sta	$15                     ; 0x15 <__rc5>
    101a: 20 f0 ff     	jsr	$fff0 <__heap_start+0xdcc4>
    101d: 92 14        	sta	($14)                   ; 0x14 <__rc4>
    101f: a9 00        	lda	#$0
    1021: 6a           	ror
    1022: 85 12        	sta	$12                     ; 0x12 <__rc2>
    1024: 64 9c        	stz	$9c                     ; 0x9c <tileAnim>
    1026: a5 16        	lda	$16                     ; 0x16 <__rc6>
    1028: 85 9e        	sta	$9e                     ; 0x9e <tileAnim+0x2>
    102a: 86 f3        	stx	$f3                     ; 0xf3 <__sunset_size+0x5f>
    102c: 18           	clc
    102d: a5 10        	lda	$10                     ; 0x10 <__rc0>
    102f: 69 05        	adc	#$5
    1031: 85 14        	sta	$14                     ; 0x14 <__rc4>
    1033: a5 11        	lda	$11                     ; 0x11 <__rc1>
    1035: 69 00        	adc	#$0
    1037: 85 15        	sta	$15                     ; 0x15 <__rc5>
    1039: 20 f0 ff     	jsr	$fff0 <__heap_start+0xdcc4>
    103c: 92 14        	sta	($14)                   ; 0x14 <__rc4>
    103e: a9 00        	lda	#$0
    1040: 6a           	ror
    1041: 85 12        	sta	$12                     ; 0x12 <__rc2>
    1043: 18           	clc
    1044: a9 02        	lda	#$2
    1046: 72 14        	adc	($14)                   ; 0x14 <__rc4>
    1048: 85 9d        	sta	$9d                     ; 0x9d <tileAnim+0x1>
    104a: a6 9c        	ldx	$9c                     ; 0x9c <tileAnim>
    104c: 86 f3        	stx	$f3                     ; 0xf3 <__sunset_size+0x5f>
    104e: a6 9d        	ldx	$9d                     ; 0x9d <tileAnim+0x1>
    1050: 86 f4        	stx	$f4                     ; 0xf4 <__sunset_size+0x60>
    1052: a6 9e        	ldx	$9e                     ; 0x9e <tileAnim+0x2>
    1054: 86 f5        	stx	$f5                     ; 0xf5 <__sunset_size+0x61>
    1056: 18           	clc
    1057: a5 10        	lda	$10                     ; 0x10 <__rc0>
    1059: 69 06        	adc	#$6
    105b: 85 14        	sta	$14                     ; 0x14 <__rc4>
    105d: a5 11        	lda	$11                     ; 0x11 <__rc1>
    105f: 69 00        	adc	#$0
    1061: 85 15        	sta	$15                     ; 0x15 <__rc5>
    1063: a2 ff        	ldx	#$ff
    1065: 20 f0 ff     	jsr	$fff0 <__heap_start+0xdcc4>
    1068: 92 14        	sta	($14)                   ; 0x14 <__rc4>
    106a: a9 00        	lda	#$0
    106c: 6a           	ror
    106d: 85 12        	sta	$12                     ; 0x12 <__rc2>
    106f: 8e 05 d0     	stx	$d005                   ; 0xd005 <__heap_start+0xacd9>
    1072: 8e 06 d0     	stx	$d006                   ; 0xd006 <__heap_start+0xacda>
    1075: 8e 07 d0     	stx	$d007                   ; 0xd007 <__heap_start+0xacdb>
    1078: a2 0f        	ldx	#$f
    107a: 8e 08 d0     	stx	$d008                   ; 0xd008 <__heap_start+0xacdc>
    107d: 8e 09 d0     	stx	$d009                   ; 0xd009 <__heap_start+0xacdd>
    1080: 78           	sei
    1081: a6 16        	ldx	$16                     ; 0x16 <__rc6>
    1083: 86 01        	stx	$1                      ; 0x1 <__data_size+0x1>
    1085: a0 c0        	ldy	#$c0
    1087: 64 13        	stz	$13                     ; 0x13 <__rc3>
    1089: 64 18        	stz	$18                     ; 0x18 <__rc8>
    108b: 64 12        	stz	$12                     ; 0x12 <__rc2>
    108d: 80 19        	bra	$10a8 <f256main+0x896>
    108f: e6 13        	inc	$13                     ; 0x13 <__rc3>
    1091: a6 17        	ldx	$17                     ; 0x17 <__rc7>
    1093: e6 13        	inc	$13                     ; 0x13 <__rc3>
    1095: c6 13        	dec	$13                     ; 0x13 <__rc3>
    1097: d0 04        	bne	$109d <f256main+0x88b>
    1099: e0 3c        	cpx	#$3c
    109b: f0 34        	beq	$10d1 <f256main+0x8bf>
    109d: 18           	clc
    109e: 69 50        	adc	#$50
    10a0: 85 18        	sta	$18                     ; 0x18 <__rc8>
    10a2: 98           	tya
    10a3: 69 00        	adc	#$0
    10a5: a8           	tay
    10a6: 64 12        	stz	$12                     ; 0x12 <__rc2>
    10a8: a5 18        	lda	$18                     ; 0x18 <__rc8>
    10aa: 18           	clc
    10ab: 65 12        	adc	$12                     ; 0x12 <__rc2>
    10ad: 85 14        	sta	$14                     ; 0x14 <__rc4>
    10af: 98           	tya
    10b0: 69 00        	adc	#$0
    10b2: 85 15        	sta	$15                     ; 0x15 <__rc5>
    10b4: a6 12        	ldx	$12                     ; 0x12 <__rc2>
    10b6: b5 30        	lda	$30,x                   ; 0x30 <textFancy>
    10b8: 92 14        	sta	($14)                   ; 0x14 <__rc4>
    10ba: e8           	inx
    10bb: 86 12        	stx	$12                     ; 0x12 <__rc2>
    10bd: e0 50        	cpx	#$50
    10bf: d0 e7        	bne	$10a8 <f256main+0x896>
    10c1: a5 18        	lda	$18                     ; 0x18 <__rc8>
    10c3: e6 17        	inc	$17                     ; 0x17 <__rc7>
    10c5: f0 c8        	beq	$108f <f256main+0x87d>
    10c7: a6 17        	ldx	$17                     ; 0x17 <__rc7>
    10c9: e6 13        	inc	$13                     ; 0x13 <__rc3>
    10cb: c6 13        	dec	$13                     ; 0x13 <__rc3>
    10cd: d0 ce        	bne	$109d <f256main+0x88b>
    10cf: 80 c8        	bra	$1099 <f256main+0x887>
    10d1: a2 03        	ldx	#$3
    10d3: 86 01        	stx	$1                      ; 0x1 <__data_size+0x1>
    10d5: a0 c0        	ldy	#$c0
    10d7: a9 00        	lda	#$0
    10d9: aa           	tax
    10da: 86 12        	stx	$12                     ; 0x12 <__rc2>
    10dc: 84 13        	sty	$13                     ; 0x13 <__rc3>
    10de: 92 12        	sta	($12)                   ; 0x12 <__rc2>
    10e0: e8           	inx
    10e1: f0 06        	beq	$10e9 <f256main+0x8d7>
    10e3: c0 d2        	cpy	#$d2
    10e5: d0 f3        	bne	$10da <f256main+0x8c8>
    10e7: 80 05        	bra	$10ee <f256main+0x8dc>
    10e9: c8           	iny
    10ea: c0 d2        	cpy	#$d2
    10ec: d0 ec        	bne	$10da <f256main+0x8c8>
    10ee: e0 c0        	cpx	#$c0
    10f0: d0 e8        	bne	$10da <f256main+0x8c8>
    10f2: 64 24        	stz	$24                     ; 0x24 <__rc20>
    10f4: 64 01        	stz	$1                      ; 0x1 <__data_size+0x1>
    10f6: 58           	cli
    10f7: a2 01        	ldx	#$1
    10f9: 86 86        	stx	$86                     ; 0x86 <_ccolor>
    10fb: a2 16        	ldx	#$16
    10fd: 86 87        	stx	$87                     ; 0x87 <_col>
    10ff: 8e 14 d0     	stx	$d014                   ; 0xd014 <__heap_start+0xace8>
    1102: 86 26        	stx	$26                     ; 0x26 <__rc22>
    1104: 9c 15 d0     	stz	$d015                   ; 0xd015 <__heap_start+0xace9>
    1107: a2 05        	ldx	#$5
    1109: 86 88        	stx	$88                     ; 0x88 <_row>
    110b: 8e 16 d0     	stx	$d016                   ; 0xd016 <__heap_start+0xacea>
    110e: 86 25        	stx	$25                     ; 0x25 <__rc21>
    1110: 9c 17 d0     	stz	$d017                   ; 0xd017 <__heap_start+0xaceb>
    1113: a2 cd        	ldx	#$cd
    1115: 86 12        	stx	$12                     ; 0x12 <__rc2>
    1117: a2 21        	ldx	#$21
    1119: 86 13        	stx	$13                     ; 0x13 <__rc3>
    111b: 20 81 1c     	jsr	$1c81 <textPrint>
    111e: a6 26        	ldx	$26                     ; 0x26 <__rc22>
    1120: 86 87        	stx	$87                     ; 0x87 <_col>
    1122: 8e 14 d0     	stx	$d014                   ; 0xd014 <__heap_start+0xace8>
    1125: 9c 15 d0     	stz	$d015                   ; 0xd015 <__heap_start+0xace9>
    1128: a2 08        	ldx	#$8
    112a: 86 88        	stx	$88                     ; 0x88 <_row>
    112c: 8e 16 d0     	stx	$d016                   ; 0xd016 <__heap_start+0xacea>
    112f: 9c 17 d0     	stz	$d017                   ; 0xd017 <__heap_start+0xaceb>
    1132: a2 42        	ldx	#$42
    1134: 86 12        	stx	$12                     ; 0x12 <__rc2>
    1136: a2 22        	ldx	#$22
    1138: 86 13        	stx	$13                     ; 0x13 <__rc3>
    113a: 20 81 1c     	jsr	$1c81 <textPrint>
    113d: a2 16        	ldx	#$16
    113f: 86 87        	stx	$87                     ; 0x87 <_col>
    1141: 8e 14 d0     	stx	$d014                   ; 0xd014 <__heap_start+0xace8>
    1144: 86 26        	stx	$26                     ; 0x26 <__rc22>
    1146: 9c 15 d0     	stz	$d015                   ; 0xd015 <__heap_start+0xace9>
    1149: a2 09        	ldx	#$9
    114b: 86 88        	stx	$88                     ; 0x88 <_row>
    114d: 8e 16 d0     	stx	$d016                   ; 0xd016 <__heap_start+0xacea>
    1150: 9c 17 d0     	stz	$d017                   ; 0xd017 <__heap_start+0xaceb>
    1153: a2 f4        	ldx	#$f4
    1155: 86 12        	stx	$12                     ; 0x12 <__rc2>
    1157: a2 21        	ldx	#$21
    1159: 86 13        	stx	$13                     ; 0x13 <__rc3>
    115b: 20 81 1c     	jsr	$1c81 <textPrint>
    115e: a6 26        	ldx	$26                     ; 0x26 <__rc22>
    1160: 86 87        	stx	$87                     ; 0x87 <_col>
    1162: 8e 14 d0     	stx	$d014                   ; 0xd014 <__heap_start+0xace8>
    1165: 9c 15 d0     	stz	$d015                   ; 0xd015 <__heap_start+0xace9>
    1168: a2 0a        	ldx	#$a
    116a: 86 88        	stx	$88                     ; 0x88 <_row>
    116c: 8e 16 d0     	stx	$d016                   ; 0xd016 <__heap_start+0xacea>
    116f: 9c 17 d0     	stz	$d017                   ; 0xd017 <__heap_start+0xaceb>
    1172: a2 69        	ldx	#$69
    1174: 86 12        	stx	$12                     ; 0x12 <__rc2>
    1176: a2 22        	ldx	#$22
    1178: 86 13        	stx	$13                     ; 0x13 <__rc3>
    117a: 20 81 1c     	jsr	$1c81 <textPrint>
    117d: a2 16        	ldx	#$16
    117f: 86 87        	stx	$87                     ; 0x87 <_col>
    1181: 8e 14 d0     	stx	$d014                   ; 0xd014 <__heap_start+0xace8>
    1184: 86 26        	stx	$26                     ; 0x26 <__rc22>
    1186: 9c 15 d0     	stz	$d015                   ; 0xd015 <__heap_start+0xace9>
    1189: a2 0b        	ldx	#$b
    118b: 86 88        	stx	$88                     ; 0x88 <_row>
    118d: 8e 16 d0     	stx	$d016                   ; 0xd016 <__heap_start+0xacea>
    1190: 9c 17 d0     	stz	$d017                   ; 0xd017 <__heap_start+0xaceb>
    1193: a2 90        	ldx	#$90
    1195: 86 12        	stx	$12                     ; 0x12 <__rc2>
    1197: a2 22        	ldx	#$22
    1199: 86 13        	stx	$13                     ; 0x13 <__rc3>
    119b: 20 81 1c     	jsr	$1c81 <textPrint>
    119e: a6 26        	ldx	$26                     ; 0x26 <__rc22>
    11a0: 86 87        	stx	$87                     ; 0x87 <_col>
    11a2: 8e 14 d0     	stx	$d014                   ; 0xd014 <__heap_start+0xace8>
    11a5: 9c 15 d0     	stz	$d015                   ; 0xd015 <__heap_start+0xace9>
    11a8: a2 0c        	ldx	#$c
    11aa: 86 88        	stx	$88                     ; 0x88 <_row>
    11ac: 8e 16 d0     	stx	$d016                   ; 0xd016 <__heap_start+0xacea>
    11af: 9c 17 d0     	stz	$d017                   ; 0xd017 <__heap_start+0xaceb>
    11b2: a2 58        	ldx	#$58
    11b4: 86 12        	stx	$12                     ; 0x12 <__rc2>
    11b6: a2 21        	ldx	#$21
    11b8: 86 13        	stx	$13                     ; 0x13 <__rc3>
    11ba: 20 81 1c     	jsr	$1c81 <textPrint>
    11bd: a2 16        	ldx	#$16
    11bf: 86 87        	stx	$87                     ; 0x87 <_col>
    11c1: 8e 14 d0     	stx	$d014                   ; 0xd014 <__heap_start+0xace8>
    11c4: 86 26        	stx	$26                     ; 0x26 <__rc22>
    11c6: 9c 15 d0     	stz	$d015                   ; 0xd015 <__heap_start+0xace9>
    11c9: a2 0d        	ldx	#$d
    11cb: 86 88        	stx	$88                     ; 0x88 <_row>
    11cd: 8e 16 d0     	stx	$d016                   ; 0xd016 <__heap_start+0xacea>
    11d0: 9c 17 d0     	stz	$d017                   ; 0xd017 <__heap_start+0xaceb>
    11d3: a2 b7        	ldx	#$b7
    11d5: 86 12        	stx	$12                     ; 0x12 <__rc2>
    11d7: a2 22        	ldx	#$22
    11d9: 86 13        	stx	$13                     ; 0x13 <__rc3>
    11db: 20 81 1c     	jsr	$1c81 <textPrint>
    11de: a6 26        	ldx	$26                     ; 0x26 <__rc22>
    11e0: 86 87        	stx	$87                     ; 0x87 <_col>
    11e2: 8e 14 d0     	stx	$d014                   ; 0xd014 <__heap_start+0xace8>
    11e5: 9c 15 d0     	stz	$d015                   ; 0xd015 <__heap_start+0xace9>
    11e8: a2 0e        	ldx	#$e
    11ea: 86 88        	stx	$88                     ; 0x88 <_row>
    11ec: 8e 16 d0     	stx	$d016                   ; 0xd016 <__heap_start+0xacea>
    11ef: 9c 17 d0     	stz	$d017                   ; 0xd017 <__heap_start+0xaceb>
    11f2: a2 1b        	ldx	#$1b
    11f4: 86 12        	stx	$12                     ; 0x12 <__rc2>
    11f6: a2 22        	ldx	#$22
    11f8: 86 13        	stx	$13                     ; 0x13 <__rc3>
    11fa: 20 81 1c     	jsr	$1c81 <textPrint>
    11fd: a2 16        	ldx	#$16
    11ff: 86 87        	stx	$87                     ; 0x87 <_col>
    1201: 8e 14 d0     	stx	$d014                   ; 0xd014 <__heap_start+0xace8>
    1204: 86 26        	stx	$26                     ; 0x26 <__rc22>
    1206: 9c 15 d0     	stz	$d015                   ; 0xd015 <__heap_start+0xace9>
    1209: a2 10        	ldx	#$10
    120b: 86 88        	stx	$88                     ; 0x88 <_row>
    120d: 8e 16 d0     	stx	$d016                   ; 0xd016 <__heap_start+0xacea>
    1210: 9c 17 d0     	stz	$d017                   ; 0xd017 <__heap_start+0xaceb>
    1213: a2 a6        	ldx	#$a6
    1215: 86 12        	stx	$12                     ; 0x12 <__rc2>
    1217: a2 21        	ldx	#$21
    1219: 86 13        	stx	$13                     ; 0x13 <__rc3>
    121b: 20 81 1c     	jsr	$1c81 <textPrint>
    121e: a6 26        	ldx	$26                     ; 0x26 <__rc22>
    1220: 86 87        	stx	$87                     ; 0x87 <_col>
    1222: 8e 14 d0     	stx	$d014                   ; 0xd014 <__heap_start+0xace8>
    1225: 9c 15 d0     	stz	$d015                   ; 0xd015 <__heap_start+0xace9>
    1228: a2 11        	ldx	#$11
    122a: 86 88        	stx	$88                     ; 0x88 <_row>
    122c: 8e 16 d0     	stx	$d016                   ; 0xd016 <__heap_start+0xacea>
    122f: 9c 17 d0     	stz	$d017                   ; 0xd017 <__heap_start+0xaceb>
    1232: a2 7f        	ldx	#$7f
    1234: 86 12        	stx	$12                     ; 0x12 <__rc2>
    1236: a2 21        	ldx	#$21
    1238: 86 13        	stx	$13                     ; 0x13 <__rc3>
    123a: 20 81 1c     	jsr	$1c81 <textPrint>
    123d: a6 91        	ldx	$91                     ; 0x91 <mEn>
    123f: 8e e0 d6     	stx	$d6e0                   ; 0xd6e0 <__heap_start+0xb3b4>
    1242: 9c e2 d6     	stz	$d6e2                   ; 0xd6e2 <__heap_start+0xb3b6>
    1245: a2 01        	ldx	#$1
    1247: 8e e3 d6     	stx	$d6e3                   ; 0xd6e3 <__heap_start+0xb3b7>
    124a: 9c e4 d6     	stz	$d6e4                   ; 0xd6e4 <__heap_start+0xb3b8>
    124d: 8e e5 d6     	stx	$d6e5                   ; 0xd6e5 <__heap_start+0xb3b9>
    1250: 8e 00 d3     	stx	$d300                   ; 0xd300 <__heap_start+0xafd4>
    1253: 9c 01 d3     	stz	$d301                   ; 0xd301 <__heap_start+0xafd5>
    1256: 9c 04 d3     	stz	$d304                   ; 0xd304 <__heap_start+0xafd8>
    1259: 9c 05 d3     	stz	$d305                   ; 0xd305 <__heap_start+0xafd9>
    125c: a6 25        	ldx	$25                     ; 0x25 <__rc21>
    125e: 8e 06 d3     	stx	$d306                   ; 0xd306 <__heap_start+0xafda>
    1261: 9c 08 d3     	stz	$d308                   ; 0xd308 <__heap_start+0xafdc>
    1264: 9c 09 d3     	stz	$d309                   ; 0xd309 <__heap_start+0xafdd>
    1267: a2 06        	ldx	#$6
    1269: 8e 0a d3     	stx	$d30a                   ; 0xd30a <__heap_start+0xafde>
    126c: a2 50        	ldx	#$50
    126e: a0 30        	ldy	#$30
    1270: 84 1c        	sty	$1c                     ; 0x1c <__rc12>
    1272: 64 13        	stz	$13                     ; 0x13 <__rc3>
    1274: 64 14        	stz	$14                     ; 0x14 <__rc4>
    1276: 64 12        	stz	$12                     ; 0x12 <__rc2>
    1278: 64 15        	stz	$15                     ; 0x15 <__rc5>
    127a: 64 18        	stz	$18                     ; 0x18 <__rc8>
    127c: 64 19        	stz	$19                     ; 0x19 <__rc9>
    127e: 64 1a        	stz	$1a                     ; 0x1a <__rc10>
    1280: 64 16        	stz	$16                     ; 0x16 <__rc6>
    1282: 64 17        	stz	$17                     ; 0x17 <__rc7>
    1284: 64 1b        	stz	$1b                     ; 0x1b <__rc11>
    1286: a9 00        	lda	#$0
    1288: 80 08        	bra	$1292 <f256main+0xa80>
    128a: 85 17        	sta	$17                     ; 0x17 <__rc7>
    128c: 84 16        	sty	$16                     ; 0x16 <__rc6>
    128e: a5 1d        	lda	$1d                     ; 0x1d <__rc13>
    1290: a2 50        	ldx	#$50
    1292: 18           	clc
    1293: a4 16        	ldy	$16                     ; 0x16 <__rc6>
    1295: 84 1f        	sty	$1f                     ; 0x1f <__rc15>
    1297: 85 1d        	sta	$1d                     ; 0x1d <__rc13>
    1299: a5 16        	lda	$16                     ; 0x16 <__rc6>
    129b: 69 00        	adc	#$0
    129d: a5 17        	lda	$17                     ; 0x17 <__rc7>
    129f: a4 17        	ldy	$17                     ; 0x17 <__rc7>
    12a1: 84 22        	sty	$22                     ; 0x22 <__rc18>
    12a3: 69 00        	adc	#$0
    12a5: 85 16        	sta	$16                     ; 0x16 <__rc6>
    12a7: a4 1b        	ldy	$1b                     ; 0x1b <__rc11>
    12a9: 84 1e        	sty	$1e                     ; 0x1e <__rc14>
    12ab: a5 1b        	lda	$1b                     ; 0x1b <__rc11>
    12ad: 69 05        	adc	#$5
    12af: 06 16        	asl	$16                     ; 0x16 <__rc6>
    12b1: 2a           	rol
    12b2: 06 16        	asl	$16                     ; 0x16 <__rc6>
    12b4: 2a           	rol
    12b5: 06 16        	asl	$16                     ; 0x16 <__rc6>
    12b7: 2a           	rol
    12b8: 86 1b        	stx	$1b                     ; 0x1b <__rc11>
    12ba: a6 0f        	ldx	$f                      ; 0xf <__data_size+0xf>
    12bc: 78           	sei
    12bd: 85 0f        	sta	$f                      ; 0xf <__data_size+0xf>
    12bf: a5 17        	lda	$17                     ; 0x17 <__rc7>
    12c1: 09 e0        	ora	#$e0
    12c3: a4 1f        	ldy	$1f                     ; 0x1f <__rc15>
    12c5: 84 16        	sty	$16                     ; 0x16 <__rc6>
    12c7: 85 17        	sta	$17                     ; 0x17 <__rc7>
    12c9: a5 1c        	lda	$1c                     ; 0x1c <__rc12>
    12cb: a0 30        	ldy	#$30
    12cd: 84 1c        	sty	$1c                     ; 0x1c <__rc12>
    12cf: 92 16        	sta	($16)                   ; 0x16 <__rc6>
    12d1: a0 01        	ldy	#$1
    12d3: a9 20        	lda	#$20
    12d5: 91 16        	sta	($16),y                 ; 0x16 <__rc6>
    12d7: 86 0f        	stx	$f                      ; 0xf <__data_size+0xf>
    12d9: a6 1b        	ldx	$1b                     ; 0x1b <__rc11>
    12db: 58           	cli
    12dc: ca           	dex
    12dd: 18           	clc
    12de: a5 1f        	lda	$1f                     ; 0x1f <__rc15>
    12e0: 69 02        	adc	#$2
    12e2: 85 16        	sta	$16                     ; 0x16 <__rc6>
    12e4: a5 22        	lda	$22                     ; 0x22 <__rc18>
    12e6: 69 00        	adc	#$0
    12e8: 85 17        	sta	$17                     ; 0x17 <__rc7>
    12ea: a5 1e        	lda	$1e                     ; 0x1e <__rc14>
    12ec: 69 00        	adc	#$0
    12ee: 85 1b        	sta	$1b                     ; 0x1b <__rc11>
    12f0: a5 1d        	lda	$1d                     ; 0x1d <__rc13>
    12f2: 69 00        	adc	#$0
    12f4: e0 00        	cpx	#$0
    12f6: f0 03        	beq	$12fb <f256main+0xae9>
    12f8: 4c 92 12     	jmp	$1292 <f256main+0xa80>
    12fb: e6 24        	inc	$24                     ; 0x24 <__rc20>
    12fd: d0 0a        	bne	$1309 <f256main+0xaf7>
    12ff: e6 12        	inc	$12                     ; 0x12 <__rc2>
    1301: d0 06        	bne	$1309 <f256main+0xaf7>
    1303: e6 14        	inc	$14                     ; 0x14 <__rc4>
    1305: d0 02        	bne	$1309 <f256main+0xaf7>
    1307: e6 13        	inc	$13                     ; 0x13 <__rc3>
    1309: a6 24        	ldx	$24                     ; 0x24 <__rc20>
    130b: 18           	clc
    130c: a5 1a        	lda	$1a                     ; 0x1a <__rc10>
    130e: 69 a0        	adc	#$a0
    1310: a8           	tay
    1311: a5 19        	lda	$19                     ; 0x19 <__rc9>
    1313: 69 00        	adc	#$0
    1315: 85 16        	sta	$16                     ; 0x16 <__rc6>
    1317: a5 18        	lda	$18                     ; 0x18 <__rc8>
    1319: 69 00        	adc	#$0
    131b: 85 17        	sta	$17                     ; 0x17 <__rc7>
    131d: a5 15        	lda	$15                     ; 0x15 <__rc5>
    131f: 69 00        	adc	#$0
    1321: 85 1d        	sta	$1d                     ; 0x1d <__rc13>
    1323: 85 15        	sta	$15                     ; 0x15 <__rc5>
    1325: a5 17        	lda	$17                     ; 0x17 <__rc7>
    1327: 85 1b        	sta	$1b                     ; 0x1b <__rc11>
    1329: 85 18        	sta	$18                     ; 0x18 <__rc8>
    132b: a5 16        	lda	$16                     ; 0x16 <__rc6>
    132d: 85 19        	sta	$19                     ; 0x19 <__rc9>
    132f: 84 1a        	sty	$1a                     ; 0x1a <__rc10>
    1331: e6 13        	inc	$13                     ; 0x13 <__rc3>
    1333: c6 13        	dec	$13                     ; 0x13 <__rc3>
    1335: f0 03        	beq	$133a <f256main+0xb28>
    1337: 4c 8a 12     	jmp	$128a <f256main+0xa78>
    133a: a4 14        	ldy	$14                     ; 0x14 <__rc4>
    133c: d0 08        	bne	$1346 <f256main+0xb34>
    133e: a4 12        	ldy	$12                     ; 0x12 <__rc2>
    1340: d0 04        	bne	$1346 <f256main+0xb34>
    1342: e0 3c        	cpx	#$3c
    1344: f0 0f        	beq	$1355 <f256main+0xb43>
    1346: a6 1a        	ldx	$1a                     ; 0x1a <__rc10>
    1348: 86 16        	stx	$16                     ; 0x16 <__rc6>
    134a: 85 17        	sta	$17                     ; 0x17 <__rc7>
    134c: a6 18        	ldx	$18                     ; 0x18 <__rc8>
    134e: 86 1b        	stx	$1b                     ; 0x1b <__rc11>
    1350: a5 15        	lda	$15                     ; 0x15 <__rc5>
    1352: 4c 90 12     	jmp	$1290 <f256main+0xa7e>
    1355: a2 01        	ldx	#$1
    1357: 86 16        	stx	$16                     ; 0x16 <__rc6>
    1359: a0 03        	ldy	#$3
    135b: ca           	dex
    135c: 64 12        	stz	$12                     ; 0x12 <__rc2>
    135e: a5 12        	lda	$12                     ; 0x12 <__rc2>
    1360: 4a           	lsr
    1361: 86 18        	stx	$18                     ; 0x18 <__rc8>
    1363: 86 13        	stx	$13                     ; 0x13 <__rc3>
    1365: 66 13        	ror	$13                     ; 0x13 <__rc3>
    1367: 64 14        	stz	$14                     ; 0x14 <__rc4>
    1369: 66 14        	ror	$14                     ; 0x14 <__rc4>
    136b: 4a           	lsr
    136c: 66 13        	ror	$13                     ; 0x13 <__rc3>
    136e: 66 14        	ror	$14                     ; 0x14 <__rc4>
    1370: 4a           	lsr
    1371: 66 13        	ror	$13                     ; 0x13 <__rc3>
    1373: a6 13        	ldx	$13                     ; 0x13 <__rc3>
    1375: 86 15        	stx	$15                     ; 0x15 <__rc5>
    1377: 66 14        	ror	$14                     ; 0x14 <__rc4>
    1379: a5 14        	lda	$14                     ; 0x14 <__rc4>
    137b: 0a           	asl
    137c: aa           	tax
    137d: a5 13        	lda	$13                     ; 0x13 <__rc3>
    137f: 2a           	rol
    1380: 86 13        	stx	$13                     ; 0x13 <__rc3>
    1382: 06 13        	asl	$13                     ; 0x13 <__rc3>
    1384: 2a           	rol
    1385: aa           	tax
    1386: 18           	clc
    1387: a9 01        	lda	#$1
    1389: b0 02        	bcs	$138d <f256main+0xb7b>
    138b: a9 00        	lda	#$0
    138d: 85 19        	sta	$19                     ; 0x19 <__rc9>
    138f: a5 13        	lda	$13                     ; 0x13 <__rc3>
    1391: 65 14        	adc	$14                     ; 0x14 <__rc4>
    1393: 85 13        	sta	$13                     ; 0x13 <__rc3>
    1395: 8a           	txa
    1396: 65 15        	adc	$15                     ; 0x15 <__rc5>
    1398: 85 14        	sta	$14                     ; 0x14 <__rc4>
    139a: a2 50        	ldx	#$50
    139c: 64 15        	stz	$15                     ; 0x15 <__rc5>
    139e: a5 16        	lda	$16                     ; 0x16 <__rc6>
    13a0: 85 1a        	sta	$1a                     ; 0x1a <__rc10>
    13a2: 84 1b        	sty	$1b                     ; 0x1b <__rc11>
    13a4: a4 15        	ldy	$15                     ; 0x15 <__rc5>
    13a6: a5 15        	lda	$15                     ; 0x15 <__rc5>
    13a8: 5a           	phy
    13a9: a4 19        	ldy	$19                     ; 0x19 <__rc9>
    13ab: c0 01        	cpy	#$1
    13ad: 7a           	ply
    13ae: 65 13        	adc	$13                     ; 0x13 <__rc3>
    13b0: 85 17        	sta	$17                     ; 0x17 <__rc7>
    13b2: a9 00        	lda	#$0
    13b4: 65 14        	adc	$14                     ; 0x14 <__rc4>
    13b6: 85 1c        	sta	$1c                     ; 0x1c <__rc12>
    13b8: 84 16        	sty	$16                     ; 0x16 <__rc6>
    13ba: a9 06        	lda	#$6
    13bc: 69 00        	adc	#$0
    13be: a4 1c        	ldy	$1c                     ; 0x1c <__rc12>
    13c0: 84 15        	sty	$15                     ; 0x15 <__rc5>
    13c2: 06 15        	asl	$15                     ; 0x15 <__rc5>
    13c4: 2a           	rol
    13c5: 06 15        	asl	$15                     ; 0x15 <__rc5>
    13c7: 2a           	rol
    13c8: 06 15        	asl	$15                     ; 0x15 <__rc5>
    13ca: 2a           	rol
    13cb: a4 0f        	ldy	$f                      ; 0xf <__data_size+0xf>
    13cd: 84 1d        	sty	$1d                     ; 0x1d <__rc13>
    13cf: 78           	sei
    13d0: 85 0f        	sta	$f                      ; 0xf <__data_size+0xf>
    13d2: a4 16        	ldy	$16                     ; 0x16 <__rc6>
    13d4: 84 15        	sty	$15                     ; 0x15 <__rc5>
    13d6: a4 17        	ldy	$17                     ; 0x17 <__rc7>
    13d8: 84 16        	sty	$16                     ; 0x16 <__rc6>
    13da: a5 1c        	lda	$1c                     ; 0x1c <__rc12>
    13dc: 09 e0        	ora	#$e0
    13de: 85 17        	sta	$17                     ; 0x17 <__rc7>
    13e0: a9 00        	lda	#$0
    13e2: 92 16        	sta	($16)                   ; 0x16 <__rc6>
    13e4: a4 1a        	ldy	$1a                     ; 0x1a <__rc10>
    13e6: a5 1b        	lda	$1b                     ; 0x1b <__rc11>
    13e8: 91 16        	sta	($16),y                 ; 0x16 <__rc6>
    13ea: a4 1d        	ldy	$1d                     ; 0x1d <__rc13>
    13ec: 84 0f        	sty	$f                      ; 0xf <__data_size+0xf>
    13ee: 58           	cli
    13ef: ca           	dex
    13f0: 18           	clc
    13f1: a5 15        	lda	$15                     ; 0x15 <__rc5>
    13f3: 69 02        	adc	#$2
    13f5: 85 15        	sta	$15                     ; 0x15 <__rc5>
    13f7: 8a           	txa
    13f8: f0 03        	beq	$13fd <f256main+0xbeb>
    13fa: 4c a4 13     	jmp	$13a4 <f256main+0xb92>
    13fd: a0 03        	ldy	#$3
    13ff: a2 01        	ldx	#$1
    1401: 86 16        	stx	$16                     ; 0x16 <__rc6>
    1403: a6 18        	ldx	$18                     ; 0x18 <__rc8>
    1405: e8           	inx
    1406: f0 07        	beq	$140f <f256main+0xbfd>
    1408: a5 12        	lda	$12                     ; 0x12 <__rc2>
    140a: f0 0c        	beq	$1418 <f256main+0xc06>
    140c: 4c 5e 13     	jmp	$135e <f256main+0xb4c>
    140f: e6 12        	inc	$12                     ; 0x12 <__rc2>
    1411: a5 12        	lda	$12                     ; 0x12 <__rc2>
    1413: f0 03        	beq	$1418 <f256main+0xc06>
    1415: 4c 5e 13     	jmp	$135e <f256main+0xb4c>
    1418: e0 3c        	cpx	#$3c
    141a: f0 03        	beq	$141f <f256main+0xc0d>
    141c: 4c 5e 13     	jmp	$135e <f256main+0xb4c>
    141f: a2 08        	ldx	#$8
    1421: 86 01        	stx	$1                      ; 0x1 <__data_size+0x1>
    1423: a2 ff        	ldx	#$ff
    1425: 8e 00 c0     	stx	$c000                   ; 0xc000 <__heap_start+0x9cd4>
    1428: 9c 03 c0     	stz	$c003                   ; 0xc003 <__heap_start+0x9cd7>
    142b: 9c 06 c0     	stz	$c006                   ; 0xc006 <__heap_start+0x9cda>
    142e: 8e 03 c0     	stx	$c003                   ; 0xc003 <__heap_start+0x9cd7>
    1431: 9c 06 c0     	stz	$c006                   ; 0xc006 <__heap_start+0x9cda>
    1434: 9c 09 c0     	stz	$c009                   ; 0xc009 <__heap_start+0x9cdd>
    1437: 8e 06 c0     	stx	$c006                   ; 0xc006 <__heap_start+0x9cda>
    143a: 9c 09 c0     	stz	$c009                   ; 0xc009 <__heap_start+0x9cdd>
    143d: 9c 0c c0     	stz	$c00c                   ; 0xc00c <__heap_start+0x9ce0>
    1440: 8e 09 c0     	stx	$c009                   ; 0xc009 <__heap_start+0x9cdd>
    1443: 9c 0c c0     	stz	$c00c                   ; 0xc00c <__heap_start+0x9ce0>
    1446: 9c 0f c0     	stz	$c00f                   ; 0xc00f <__heap_start+0x9ce3>
    1449: 8e 0c c0     	stx	$c00c                   ; 0xc00c <__heap_start+0x9ce0>
    144c: 9c 0f c0     	stz	$c00f                   ; 0xc00f <__heap_start+0x9ce3>
    144f: 9c 12 c0     	stz	$c012                   ; 0xc012 <__heap_start+0x9ce6>
    1452: 8e 0f c0     	stx	$c00f                   ; 0xc00f <__heap_start+0x9ce3>
    1455: 9c 12 c0     	stz	$c012                   ; 0xc012 <__heap_start+0x9ce6>
    1458: 9c 15 c0     	stz	$c015                   ; 0xc015 <__heap_start+0x9ce9>
    145b: 8e 12 c0     	stx	$c012                   ; 0xc012 <__heap_start+0x9ce6>
    145e: 9c 15 c0     	stz	$c015                   ; 0xc015 <__heap_start+0x9ce9>
    1461: 9c 18 c0     	stz	$c018                   ; 0xc018 <__heap_start+0x9cec>
    1464: 8e 15 c0     	stx	$c015                   ; 0xc015 <__heap_start+0x9ce9>
    1467: 9c 18 c0     	stz	$c018                   ; 0xc018 <__heap_start+0x9cec>
    146a: 9c 1b c0     	stz	$c01b                   ; 0xc01b <__heap_start+0x9cef>
    146d: 8e 18 c0     	stx	$c018                   ; 0xc018 <__heap_start+0x9cec>
    1470: 9c 1b c0     	stz	$c01b                   ; 0xc01b <__heap_start+0x9cef>
    1473: 9c 1e c0     	stz	$c01e                   ; 0xc01e <__heap_start+0x9cf2>
    1476: 64 01        	stz	$1                      ; 0x1 <__data_size+0x1>
    1478: 18           	clc
    1479: a6 10        	ldx	$10                     ; 0x10 <__rc0>
    147b: 86 24        	stx	$24                     ; 0x24 <__rc20>
    147d: a6 11        	ldx	$11                     ; 0x11 <__rc1>
    147f: 86 25        	stx	$25                     ; 0x25 <__rc21>
    1481: a0 01        	ldy	#$1
    1483: 80 18        	bra	$149d <f256main+0xc8b>
    1485: a2 d0        	ldx	#$d0
    1487: 86 13        	stx	$13                     ; 0x13 <__rc3>
    1489: a9 01        	lda	#$1
    148b: a6 15        	ldx	$15                     ; 0x15 <__rc5>
    148d: 8e e2 d6     	stx	$d6e2                   ; 0xd6e2 <__heap_start+0xb3b6>
    1490: 8c e3 d6     	sty	$d6e3                   ; 0xd6e3 <__heap_start+0xb3b7>
    1493: a6 13        	ldx	$13                     ; 0x13 <__rc3>
    1495: 8e e4 d6     	stx	$d6e4                   ; 0xd6e4 <__heap_start+0xb3b8>
    1498: 8d e5 d6     	sta	$d6e5                   ; 0xd6e5 <__heap_start+0xb3b9>
    149b: a4 26        	ldy	$26                     ; 0x26 <__rc22>
    149d: 64 9f        	stz	$9f                     ; 0x9f <kernelEventData>
    149f: a2 2a        	ldx	#$2a
    14a1: 86 12        	stx	$12                     ; 0x12 <__rc2>
    14a3: a2 23        	ldx	#$23
    14a5: 86 13        	stx	$13                     ; 0x13 <__rc3>
    14a7: 20 00 ff     	jsr	$ff00 <__heap_start+0xdbd4>
    14aa: 92 24        	sta	($24)                   ; 0x24 <__rc20>
    14ac: a9 00        	lda	#$0
    14ae: 6a           	ror
    14af: 85 12        	sta	$12                     ; 0x12 <__rc2>
    14b1: a6 9f        	ldx	$9f                     ; 0x9f <kernelEventData>
    14b3: e0 08        	cpx	#$8
    14b5: f0 03        	beq	$14ba <f256main+0xca8>
    14b7: 4c a3 17     	jmp	$17a3 <f256main+0xf91>
    14ba: a2 01        	ldx	#$1
    14bc: 18           	clc
    14bd: a9 cf        	lda	#$cf
    14bf: 65 a3        	adc	$a3                     ; 0xa3 <kernelEventData+0x4>
    14c1: c9 48        	cmp	#$48
    14c3: 90 03        	bcc	$14c8 <f256main+0xcb6>
    14c5: 4c 9f 17     	jmp	$179f <f256main+0xf8d>
    14c8: 86 15        	stx	$15                     ; 0x15 <__rc5>
    14ca: 0a           	asl
    14cb: aa           	tax
    14cc: 7c 98 20     	jmp	($2098,x)               ; 0x2098 <__BLOCK_SIZE+0x98>
    14cf: a6 80        	ldx	$80                     ; 0x80 <b0>
    14d1: a9 00        	lda	#$0
    14d3: e0 00        	cpx	#$0
    14d5: d0 03        	bne	$14da <f256main+0xcc8>
    14d7: 4c 5a 17     	jmp	$175a <f256main+0xf48>
    14da: 8d 00 d1     	sta	$d100                   ; 0xd100 <__heap_start+0xadd4>
    14dd: a6 80        	ldx	$80                     ; 0x80 <b0>
    14df: f0 03        	beq	$14e4 <f256main+0xcd2>
    14e1: 4c 68 17     	jmp	$1768 <f256main+0xf56>
    14e4: a2 01        	ldx	#$1
    14e6: 86 80        	stx	$80                     ; 0x80 <b0>
    14e8: 4c 9f 17     	jmp	$179f <f256main+0xf8d>
    14eb: ae 01 d0     	ldx	$d001                   ; 0xd001 <__heap_start+0xacd5>
    14ee: e0 c0        	cpx	#$c0
    14f0: ad 01 d0     	lda	$d001                   ; 0xd001 <__heap_start+0xacd5>
    14f3: b0 03        	bcs	$14f8 <f256main+0xce6>
    14f5: 4c d2 15     	jmp	$15d2 <f256main+0xdc0>
    14f8: 29 3f        	and	#$3f
    14fa: 8d 01 d0     	sta	$d001                   ; 0xd001 <__heap_start+0xacd5>
    14fd: 4c 9f 17     	jmp	$179f <f256main+0xf8d>
    1500: a6 82        	ldx	$82                     ; 0x82 <b2>
    1502: d0 03        	bne	$1507 <f256main+0xcf5>
    1504: 4c 35 17     	jmp	$1735 <f256main+0xf23>
    1507: 64 82        	stz	$82                     ; 0x82 <b2>
    1509: 4c 3c 17     	jmp	$173c <f256main+0xf2a>
    150c: a9 01        	lda	#$1
    150e: 8d a6 d6     	sta	$d6a6                   ; 0xd6a6 <__heap_start+0xb37a>
    1511: ae a4 d6     	ldx	$d6a4                   ; 0xd6a4 <__heap_start+0xb378>
    1514: ac a5 d6     	ldy	$d6a5                   ; 0xd6a5 <__heap_start+0xb379>
    1517: 8d a6 d6     	sta	$d6a6                   ; 0xd6a6 <__heap_start+0xb37a>
    151a: ad a4 d6     	lda	$d6a4                   ; 0xd6a4 <__heap_start+0xb378>
    151d: ad a5 d6     	lda	$d6a5                   ; 0xd6a5 <__heap_start+0xb379>
    1520: 8c 0d d0     	sty	$d00d                   ; 0xd00d <__heap_start+0xace1>
    1523: 8e 0e d0     	stx	$d00e                   ; 0xd00e <__heap_start+0xace2>
    1526: 8d 0f d0     	sta	$d00f                   ; 0xd00f <__heap_start+0xace3>
    1529: 4c 9f 17     	jmp	$179f <f256main+0xf8d>
    152c: a2 01        	ldx	#$1
    152e: 8e a6 d6     	stx	$d6a6                   ; 0xd6a6 <__heap_start+0xb37a>
    1531: ac a4 d6     	ldy	$d6a4                   ; 0xd6a4 <__heap_start+0xb378>
    1534: 84 12        	sty	$12                     ; 0x12 <__rc2>
    1536: ac a5 d6     	ldy	$d6a5                   ; 0xd6a5 <__heap_start+0xb379>
    1539: 8e a6 d6     	stx	$d6a6                   ; 0xd6a6 <__heap_start+0xb37a>
    153c: ae a4 d6     	ldx	$d6a4                   ; 0xd6a4 <__heap_start+0xb378>
    153f: ae a5 d6     	ldx	$d6a5                   ; 0xd6a5 <__heap_start+0xb379>
    1542: ad 04 d0     	lda	$d004                   ; 0xd004 <__heap_start+0xacd8>
    1545: 49 01        	eor	#$1
    1547: 29 01        	and	#$1
    1549: 8d 04 d0     	sta	$d004                   ; 0xd004 <__heap_start+0xacd8>
    154c: 8c 05 d0     	sty	$d005                   ; 0xd005 <__heap_start+0xacd9>
    154f: a4 12        	ldy	$12                     ; 0x12 <__rc2>
    1551: 8c 06 d0     	sty	$d006                   ; 0xd006 <__heap_start+0xacda>
    1554: 8e 07 d0     	stx	$d007                   ; 0xd007 <__heap_start+0xacdb>
    1557: 4c 9f 17     	jmp	$179f <f256main+0xf8d>
    155a: a6 8d        	ldx	$8d                     ; 0x8d <t2>
    155c: d0 03        	bne	$1561 <f256main+0xd4f>
    155e: 4c 6e 17     	jmp	$176e <f256main+0xf5c>
    1561: a2 01        	ldx	#$1
    1563: 86 82        	stx	$82                     ; 0x82 <b2>
    1565: 64 8d        	stz	$8d                     ; 0x8d <t2>
    1567: a9 01        	lda	#$1
    1569: 05 8b        	ora	$8b                     ; 0x8b <_BITMAP_CLUT.2>
    156b: 8d 10 d1     	sta	$d110                   ; 0xd110 <__heap_start+0xade4>
    156e: a2 02        	ldx	#$2
    1570: 8e 03 d0     	stx	$d003                   ; 0xd003 <__heap_start+0xacd7>
    1573: 4c 9f 17     	jmp	$179f <f256main+0xf8d>
    1576: a6 81        	ldx	$81                     ; 0x81 <b1>
    1578: a9 00        	lda	#$0
    157a: e0 00        	cpx	#$0
    157c: d0 03        	bne	$1581 <f256main+0xd6f>
    157e: 4c 8d 17     	jmp	$178d <f256main+0xf7b>
    1581: 8d 08 d1     	sta	$d108                   ; 0xd108 <__heap_start+0xaddc>
    1584: a6 81        	ldx	$81                     ; 0x81 <b1>
    1586: f0 03        	beq	$158b <f256main+0xd79>
    1588: 4c 9b 17     	jmp	$179b <f256main+0xf89>
    158b: a2 01        	ldx	#$1
    158d: 86 81        	stx	$81                     ; 0x81 <b1>
    158f: 4c 9f 17     	jmp	$179f <f256main+0xf8d>
    1592: a6 91        	ldx	$91                     ; 0x91 <mEn>
    1594: d0 44        	bne	$15da <f256main+0xdc8>
    1596: a2 01        	ldx	#$1
    1598: 80 42        	bra	$15dc <f256main+0xdca>
    159a: ad 00 d0     	lda	$d000                   ; 0xd000 <__heap_start+0xacd4>
    159d: aa           	tax
    159e: 29 20        	and	#$20
    15a0: d0 42        	bne	$15e4 <f256main+0xdd2>
    15a2: 8a           	txa
    15a3: 09 20        	ora	#$20
    15a5: 8d 00 d0     	sta	$d000                   ; 0xd000 <__heap_start+0xacd4>
    15a8: 4c 9f 17     	jmp	$179f <f256main+0xf8d>
    15ab: a6 92        	ldx	$92                     ; 0x92 <isSunset>
    15ad: a0 01        	ldy	#$1
    15af: 8a           	txa
    15b0: f0 02        	beq	$15b4 <f256main+0xda2>
    15b2: a0 00        	ldy	#$0
    15b4: 98           	tya
    15b5: f0 36        	beq	$15ed <f256main+0xddb>
    15b7: a2 01        	ldx	#$1
    15b9: 80 34        	bra	$15ef <f256main+0xddd>
    15bb: ad 00 d0     	lda	$d000                   ; 0xd000 <__heap_start+0xacd4>
    15be: 29 01        	and	#$1
    15c0: ae 00 d0     	ldx	$d000                   ; 0xd000 <__heap_start+0xacd4>
    15c3: a8           	tay
    15c4: f0 03        	beq	$15c9 <f256main+0xdb7>
    15c6: 4c 2c 17     	jmp	$172c <f256main+0xf1a>
    15c9: 8a           	txa
    15ca: 09 01        	ora	#$1
    15cc: 8d 00 d0     	sta	$d000                   ; 0xd000 <__heap_start+0xacd4>
    15cf: 4c 9f 17     	jmp	$179f <f256main+0xf8d>
    15d2: 09 c0        	ora	#$c0
    15d4: 8d 01 d0     	sta	$d001                   ; 0xd001 <__heap_start+0xacd5>
    15d7: 4c 9f 17     	jmp	$179f <f256main+0xf8d>
    15da: a2 00        	ldx	#$0
    15dc: 86 91        	stx	$91                     ; 0x91 <mEn>
    15de: 8e e0 d6     	stx	$d6e0                   ; 0xd6e0 <__heap_start+0xb3b4>
    15e1: 4c 9f 17     	jmp	$179f <f256main+0xf8d>
    15e4: 8a           	txa
    15e5: 29 df        	and	#$df
    15e7: 8d 00 d0     	sta	$d000                   ; 0xd000 <__heap_start+0xacd4>
    15ea: 4c 9f 17     	jmp	$179f <f256main+0xf8d>
    15ed: a2 00        	ldx	#$0
    15ef: 86 92        	stx	$92                     ; 0x92 <isSunset>
    15f1: a2 00        	ldx	#$0
    15f3: 64 12        	stz	$12                     ; 0x12 <__rc2>
    15f5: 98           	tya
    15f6: f0 06        	beq	$15fe <f256main+0xdec>
    15f8: a2 02        	ldx	#$2
    15fa: 86 12        	stx	$12                     ; 0x12 <__rc2>
    15fc: a2 00        	ldx	#$0
    15fe: a4 12        	ldy	$12                     ; 0x12 <__rc2>
    1600: 84 89        	sty	$89                     ; 0x89 <_BITMAP_CLUT.0>
    1602: ad 00 d1     	lda	$d100                   ; 0xd100 <__heap_start+0xadd4>
    1605: 29 f9        	and	#$f9
    1607: 05 12        	ora	$12                     ; 0x12 <__rc2>
    1609: 8d 00 d1     	sta	$d100                   ; 0xd100 <__heap_start+0xadd4>
    160c: 84 8a        	sty	$8a                     ; 0x8a <_BITMAP_CLUT.1>
    160e: ad 08 d1     	lda	$d108                   ; 0xd108 <__heap_start+0xaddc>
    1611: 29 f9        	and	#$f9
    1613: 05 12        	ora	$12                     ; 0x12 <__rc2>
    1615: 8d 08 d1     	sta	$d108                   ; 0xd108 <__heap_start+0xaddc>
    1618: 84 8b        	sty	$8b                     ; 0x8b <_BITMAP_CLUT.2>
    161a: ad 10 d1     	lda	$d110                   ; 0xd110 <__heap_start+0xade4>
    161d: 29 f9        	and	#$f9
    161f: 05 12        	ora	$12                     ; 0x12 <__rc2>
    1621: 8d 10 d1     	sta	$d110                   ; 0xd110 <__heap_start+0xade4>
    1624: ad 00 d9     	lda	$d900                   ; 0xd900 <__heap_start+0xb5d4>
    1627: 29 f9        	and	#$f9
    1629: 05 12        	ora	$12                     ; 0x12 <__rc2>
    162b: 8d 00 d9     	sta	$d900                   ; 0xd900 <__heap_start+0xb5d4>
    162e: ad 08 d9     	lda	$d908                   ; 0xd908 <__heap_start+0xb5dc>
    1631: 29 f9        	and	#$f9
    1633: 05 12        	ora	$12                     ; 0x12 <__rc2>
    1635: 8d 08 d9     	sta	$d908                   ; 0xd908 <__heap_start+0xb5dc>
    1638: ad 10 d9     	lda	$d910                   ; 0xd910 <__heap_start+0xb5e4>
    163b: 29 f9        	and	#$f9
    163d: 05 12        	ora	$12                     ; 0x12 <__rc2>
    163f: 8d 10 d9     	sta	$d910                   ; 0xd910 <__heap_start+0xb5e4>
    1642: ad 18 d9     	lda	$d918                   ; 0xd918 <__heap_start+0xb5ec>
    1645: 29 f9        	and	#$f9
    1647: 05 12        	ora	$12                     ; 0x12 <__rc2>
    1649: 8d 18 d9     	sta	$d918                   ; 0xd918 <__heap_start+0xb5ec>
    164c: ad 20 d9     	lda	$d920                   ; 0xd920 <__heap_start+0xb5f4>
    164f: 29 f9        	and	#$f9
    1651: 05 12        	ora	$12                     ; 0x12 <__rc2>
    1653: 8d 20 d9     	sta	$d920                   ; 0xd920 <__heap_start+0xb5f4>
    1656: ad 28 d9     	lda	$d928                   ; 0xd928 <__heap_start+0xb5fc>
    1659: 29 f9        	and	#$f9
    165b: 05 12        	ora	$12                     ; 0x12 <__rc2>
    165d: 8d 28 d9     	sta	$d928                   ; 0xd928 <__heap_start+0xb5fc>
    1660: 64 17        	stz	$17                     ; 0x17 <__rc7>
    1662: 86 18        	stx	$18                     ; 0x18 <__rc8>
    1664: 8a           	txa
    1665: 0a           	asl
    1666: a6 17        	ldx	$17                     ; 0x17 <__rc7>
    1668: 86 12        	stx	$12                     ; 0x12 <__rc2>
    166a: 26 12        	rol	$12                     ; 0x12 <__rc2>
    166c: 0a           	asl
    166d: 26 12        	rol	$12                     ; 0x12 <__rc2>
    166f: 0a           	asl
    1670: 26 12        	rol	$12                     ; 0x12 <__rc2>
    1672: 0a           	asl
    1673: 85 13        	sta	$13                     ; 0x13 <__rc3>
    1675: 26 12        	rol	$12                     ; 0x12 <__rc2>
    1677: a6 12        	ldx	$12                     ; 0x12 <__rc2>
    1679: 86 14        	stx	$14                     ; 0x14 <__rc4>
    167b: 0a           	asl
    167c: aa           	tax
    167d: a5 12        	lda	$12                     ; 0x12 <__rc2>
    167f: 2a           	rol
    1680: 86 12        	stx	$12                     ; 0x12 <__rc2>
    1682: 06 12        	asl	$12                     ; 0x12 <__rc2>
    1684: 2a           	rol
    1685: aa           	tax
    1686: 18           	clc
    1687: a0 01        	ldy	#$1
    1689: b0 02        	bcs	$168d <f256main+0xe7b>
    168b: a0 00        	ldy	#$0
    168d: 84 19        	sty	$19                     ; 0x19 <__rc9>
    168f: a5 12        	lda	$12                     ; 0x12 <__rc2>
    1691: 65 13        	adc	$13                     ; 0x13 <__rc3>
    1693: 85 12        	sta	$12                     ; 0x12 <__rc2>
    1695: 8a           	txa
    1696: 65 14        	adc	$14                     ; 0x14 <__rc4>
    1698: 85 13        	sta	$13                     ; 0x13 <__rc3>
    169a: 64 1a        	stz	$1a                     ; 0x1a <__rc10>
    169c: a6 15        	ldx	$15                     ; 0x15 <__rc5>
    169e: 86 1b        	stx	$1b                     ; 0x1b <__rc11>
    16a0: a5 1a        	lda	$1a                     ; 0x1a <__rc10>
    16a2: a6 19        	ldx	$19                     ; 0x19 <__rc9>
    16a4: e0 01        	cpx	#$1
    16a6: 65 12        	adc	$12                     ; 0x12 <__rc2>
    16a8: 85 14        	sta	$14                     ; 0x14 <__rc4>
    16aa: a9 bf        	lda	#$bf
    16ac: 65 13        	adc	$13                     ; 0x13 <__rc3>
    16ae: a8           	tay
    16af: a9 04        	lda	#$4
    16b1: 69 00        	adc	#$0
    16b3: 85 15        	sta	$15                     ; 0x15 <__rc5>
    16b5: 98           	tya
    16b6: 0a           	asl
    16b7: 26 15        	rol	$15                     ; 0x15 <__rc5>
    16b9: 0a           	asl
    16ba: 26 15        	rol	$15                     ; 0x15 <__rc5>
    16bc: 0a           	asl
    16bd: a5 15        	lda	$15                     ; 0x15 <__rc5>
    16bf: 2a           	rol
    16c0: a6 0f        	ldx	$f                      ; 0xf <__data_size+0xf>
    16c2: 78           	sei
    16c3: 85 0f        	sta	$f                      ; 0xf <__data_size+0xf>
    16c5: 85 1c        	sta	$1c                     ; 0x1c <__rc12>
    16c7: 98           	tya
    16c8: 09 e0        	ora	#$e0
    16ca: 85 15        	sta	$15                     ; 0x15 <__rc5>
    16cc: b2 14        	lda	($14)                   ; 0x14 <__rc4>
    16ce: 85 1d        	sta	$1d                     ; 0x1d <__rc13>
    16d0: a4 1b        	ldy	$1b                     ; 0x1b <__rc11>
    16d2: b1 14        	lda	($14),y                 ; 0x14 <__rc4>
    16d4: 86 0f        	stx	$f                      ; 0xf <__data_size+0xf>
    16d6: 58           	cli
    16d7: 29 07        	and	#$7
    16d9: 85 16        	sta	$16                     ; 0x16 <__rc6>
    16db: a5 92        	lda	$92                     ; 0x92 <isSunset>
    16dd: 0a           	asl
    16de: 85 1e        	sta	$1e                     ; 0x1e <__rc14>
    16e0: a6 0f        	ldx	$f                      ; 0xf <__data_size+0xf>
    16e2: 86 1f        	stx	$1f                     ; 0x1f <__rc15>
    16e4: 78           	sei
    16e5: a6 1c        	ldx	$1c                     ; 0x1c <__rc12>
    16e7: 86 0f        	stx	$f                      ; 0xf <__data_size+0xf>
    16e9: 06 1e        	asl	$1e                     ; 0x1e <__rc14>
    16eb: a5 1d        	lda	$1d                     ; 0x1d <__rc13>
    16ed: 92 14        	sta	($14)                   ; 0x14 <__rc4>
    16ef: a5 1e        	lda	$1e                     ; 0x1e <__rc14>
    16f1: 0a           	asl
    16f2: 05 16        	ora	$16                     ; 0x16 <__rc6>
    16f4: 91 14        	sta	($14),y                 ; 0x14 <__rc4>
    16f6: a5 1a        	lda	$1a                     ; 0x1a <__rc10>
    16f8: a6 1f        	ldx	$1f                     ; 0x1f <__rc15>
    16fa: 86 0f        	stx	$f                      ; 0xf <__data_size+0xf>
    16fc: 58           	cli
    16fd: 18           	clc
    16fe: 69 02        	adc	#$2
    1700: 85 1a        	sta	$1a                     ; 0x1a <__rc10>
    1702: c9 50        	cmp	#$50
    1704: f0 03        	beq	$1709 <f256main+0xef7>
    1706: 4c a0 16     	jmp	$16a0 <f256main+0xe8e>
    1709: a2 01        	ldx	#$1
    170b: 86 15        	stx	$15                     ; 0x15 <__rc5>
    170d: a6 18        	ldx	$18                     ; 0x18 <__rc8>
    170f: e8           	inx
    1710: f0 07        	beq	$1719 <f256main+0xf07>
    1712: a5 17        	lda	$17                     ; 0x17 <__rc7>
    1714: f0 0c        	beq	$1722 <f256main+0xf10>
    1716: 4c 62 16     	jmp	$1662 <f256main+0xe50>
    1719: e6 17        	inc	$17                     ; 0x17 <__rc7>
    171b: a5 17        	lda	$17                     ; 0x17 <__rc7>
    171d: f0 03        	beq	$1722 <f256main+0xf10>
    171f: 4c 62 16     	jmp	$1662 <f256main+0xe50>
    1722: e0 11        	cpx	#$11
    1724: f0 03        	beq	$1729 <f256main+0xf17>
    1726: 4c 62 16     	jmp	$1662 <f256main+0xe50>
    1729: 4c 9f 17     	jmp	$179f <f256main+0xf8d>
    172c: 8a           	txa
    172d: 29 fe        	and	#$fe
    172f: 8d 00 d0     	sta	$d000                   ; 0xd000 <__heap_start+0xacd4>
    1732: 4c 9f 17     	jmp	$179f <f256main+0xf8d>
    1735: a6 8d        	ldx	$8d                     ; 0x8d <t2>
    1737: f0 03        	beq	$173c <f256main+0xf2a>
    1739: 4c 6c 1c     	jmp	$1c6c <f256main+0x145a>
    173c: a2 01        	ldx	#$1
    173e: 86 8d        	stx	$8d                     ; 0x8d <t2>
    1740: a2 06        	ldx	#$6
    1742: 8e 03 d0     	stx	$d003                   ; 0xd003 <__heap_start+0xacd7>
    1745: a4 8c        	ldy	$8c                     ; 0x8c <_tileSize.2>
    1747: a2 10        	ldx	#$10
    1749: c0 08        	cpy	#$8
    174b: f0 02        	beq	$174f <f256main+0xf3d>
    174d: a2 00        	ldx	#$0
    174f: 86 12        	stx	$12                     ; 0x12 <__rc2>
    1751: a5 8d        	lda	$8d                     ; 0x8d <t2>
    1753: 05 12        	ora	$12                     ; 0x12 <__rc2>
    1755: 8d 18 d2     	sta	$d218                   ; 0xd218 <__heap_start+0xaeec>
    1758: 80 45        	bra	$179f <f256main+0xf8d>
    175a: a9 01        	lda	#$1
    175c: 05 89        	ora	$89                     ; 0x89 <_BITMAP_CLUT.0>
    175e: 8d 00 d1     	sta	$d100                   ; 0xd100 <__heap_start+0xadd4>
    1761: a6 80        	ldx	$80                     ; 0x80 <b0>
    1763: d0 03        	bne	$1768 <f256main+0xf56>
    1765: 4c e4 14     	jmp	$14e4 <f256main+0xcd2>
    1768: a2 00        	ldx	#$0
    176a: 86 80        	stx	$80                     ; 0x80 <b0>
    176c: 80 31        	bra	$179f <f256main+0xf8d>
    176e: a4 82        	ldy	$82                     ; 0x82 <b2>
    1770: a2 01        	ldx	#$1
    1772: 98           	tya
    1773: f0 02        	beq	$1777 <f256main+0xf65>
    1775: a2 00        	ldx	#$0
    1777: 8a           	txa
    1778: d0 03        	bne	$177d <f256main+0xf6b>
    177a: 4c 71 1c     	jmp	$1c71 <f256main+0x145f>
    177d: a0 01        	ldy	#$1
    177f: 84 82        	sty	$82                     ; 0x82 <b2>
    1781: a9 00        	lda	#$0
    1783: e0 00        	cpx	#$0
    1785: d0 03        	bne	$178a <f256main+0xf78>
    1787: 4c 6b 15     	jmp	$156b <f256main+0xd59>
    178a: 4c 67 15     	jmp	$1567 <f256main+0xd55>
    178d: a9 01        	lda	#$1
    178f: 05 8a        	ora	$8a                     ; 0x8a <_BITMAP_CLUT.1>
    1791: 8d 08 d1     	sta	$d108                   ; 0xd108 <__heap_start+0xaddc>
    1794: a6 81        	ldx	$81                     ; 0x81 <b1>
    1796: d0 03        	bne	$179b <f256main+0xf89>
    1798: 4c 8b 15     	jmp	$158b <f256main+0xd79>
    179b: a2 00        	ldx	#$0
    179d: 86 81        	stx	$81                     ; 0x81 <b1>
    179f: a6 9f        	ldx	$9f                     ; 0x9f <kernelEventData>
    17a1: a0 01        	ldy	#$1
    17a3: e0 52        	cpx	#$52
    17a5: f0 03        	beq	$17aa <f256main+0xf98>
    17a7: 4c 56 1b     	jmp	$1b56 <f256main+0x1344>
    17aa: a6 a3        	ldx	$a3                     ; 0xa3 <kernelEventData+0x4>
    17ac: d0 03        	bne	$17b1 <f256main+0xf9f>
    17ae: 4c 73 18     	jmp	$1873 <f256main+0x1061>
    17b1: e0 02        	cpx	#$2
    17b3: d0 03        	bne	$17b8 <f256main+0xfa6>
    17b5: 4c 42 18     	jmp	$1842 <f256main+0x1030>
    17b8: e0 01        	cpx	#$1
    17ba: f0 03        	beq	$17bf <f256main+0xfad>
    17bc: 4c 9d 14     	jmp	$149d <f256main+0xc8b>
    17bf: a2 01        	ldx	#$1
    17c1: 86 16        	stx	$16                     ; 0x16 <__rc6>
    17c3: ad 1c d9     	lda	$d91c                   ; 0xd91c <__heap_start+0xb5f0>
    17c6: ac 1d d9     	ldy	$d91d                   ; 0xd91d <__heap_start+0xb5f1>
    17c9: ae 1e d9     	ldx	$d91e                   ; 0xd91e <__heap_start+0xb5f2>
    17cc: 86 12        	stx	$12                     ; 0x12 <__rc2>
    17ce: ae 1f d9     	ldx	$d91f                   ; 0xd91f <__heap_start+0xb5f3>
    17d1: 86 13        	stx	$13                     ; 0x13 <__rc3>
    17d3: 18           	clc
    17d4: 69 fd        	adc	#$fd
    17d6: aa           	tax
    17d7: 98           	tya
    17d8: 69 ff        	adc	#$ff
    17da: f0 03        	beq	$17df <f256main+0xfcd>
    17dc: 4c ce 19     	jmp	$19ce <f256main+0x11bc>
    17df: e0 10        	cpx	#$10
    17e1: b0 04        	bcs	$17e7 <f256main+0xfd5>
    17e3: a2 50        	ldx	#$50
    17e5: a9 01        	lda	#$1
    17e7: 8e 1c d9     	stx	$d91c                   ; 0xd91c <__heap_start+0xb5f0>
    17ea: 8d 1d d9     	sta	$d91d                   ; 0xd91d <__heap_start+0xb5f1>
    17ed: a6 12        	ldx	$12                     ; 0x12 <__rc2>
    17ef: 8e 1e d9     	stx	$d91e                   ; 0xd91e <__heap_start+0xb5f2>
    17f2: a6 13        	ldx	$13                     ; 0x13 <__rc3>
    17f4: 8e 1f d9     	stx	$d91f                   ; 0xd91f <__heap_start+0xb5f3>
    17f7: a6 95        	ldx	$95                     ; 0x95 <sprBirdFrame.0>
    17f9: e8           	inx
    17fa: e0 04        	cpx	#$4
    17fc: 90 02        	bcc	$1800 <f256main+0xfee>
    17fe: a2 00        	ldx	#$0
    1800: 86 95        	stx	$95                     ; 0x95 <sprBirdFrame.0>
    1802: 9c 19 d9     	stz	$d919                   ; 0xd919 <__heap_start+0xb5ed>
    1805: a9 ac        	lda	#$ac
    1807: 18           	clc
    1808: 65 93        	adc	$93                     ; 0x93 <sprFrame.0>
    180a: 8d 1a d9     	sta	$d91a                   ; 0xd91a <__heap_start+0xb5ee>
    180d: a5 93        	lda	$93                     ; 0x93 <sprFrame.0>
    180f: 18           	clc
    1810: 69 ac        	adc	#$ac
    1812: a9 00        	lda	#$0
    1814: 69 04        	adc	#$4
    1816: 8d 1b d9     	sta	$d91b                   ; 0xd91b <__heap_start+0xb5ef>
    1819: ad 24 d9     	lda	$d924                   ; 0xd924 <__heap_start+0xb5f8>
    181c: ac 25 d9     	ldy	$d925                   ; 0xd925 <__heap_start+0xb5f9>
    181f: ae 26 d9     	ldx	$d926                   ; 0xd926 <__heap_start+0xb5fa>
    1822: 86 12        	stx	$12                     ; 0x12 <__rc2>
    1824: ae 27 d9     	ldx	$d927                   ; 0xd927 <__heap_start+0xb5fb>
    1827: 86 13        	stx	$13                     ; 0x13 <__rc3>
    1829: 18           	clc
    182a: 69 fd        	adc	#$fd
    182c: aa           	tax
    182d: 98           	tya
    182e: 69 ff        	adc	#$ff
    1830: f0 03        	beq	$1835 <f256main+0x1023>
    1832: 4c d8 19     	jmp	$19d8 <f256main+0x11c6>
    1835: a8           	tay
    1836: e0 10        	cpx	#$10
    1838: a5 12        	lda	$12                     ; 0x12 <__rc2>
    183a: b0 03        	bcs	$183f <f256main+0x102d>
    183c: 4c df 19     	jmp	$19df <f256main+0x11cd>
    183f: 4c e3 19     	jmp	$19e3 <f256main+0x11d1>
    1842: a6 8d        	ldx	$8d                     ; 0x8d <t2>
    1844: d0 03        	bne	$1849 <f256main+0x1037>
    1846: 4c f1 1a     	jmp	$1af1 <f256main+0x12df>
    1849: a2 01        	ldx	#$1
    184b: 86 14        	stx	$14                     ; 0x14 <__rc4>
    184d: a5 8e        	lda	$8e                     ; 0x8e <tm2_xf>
    184f: a6 8f        	ldx	$8f                     ; 0x8f <tm2_xf+0x1>
    1851: 1a           	inc
    1852: d0 01        	bne	$1855 <f256main+0x1043>
    1854: e8           	inx
    1855: a8           	tay
    1856: 85 8e        	sta	$8e                     ; 0x8e <tm2_xf>
    1858: 86 8f        	stx	$8f                     ; 0x8f <tm2_xf+0x1>
    185a: a5 90        	lda	$90                     ; 0x90 <tm2_x>
    185c: e0 00        	cpx	#$0
    185e: f0 03        	beq	$1863 <f256main+0x1051>
    1860: 4c a7 1a     	jmp	$1aa7 <f256main+0x1295>
    1863: c0 10        	cpy	#$10
    1865: 90 03        	bcc	$186a <f256main+0x1058>
    1867: 4c ae 1a     	jmp	$1aae <f256main+0x129c>
    186a: 84 12        	sty	$12                     ; 0x12 <__rc2>
    186c: 86 13        	stx	$13                     ; 0x13 <__rc3>
    186e: a4 14        	ldy	$14                     ; 0x14 <__rc4>
    1870: 4c c7 1a     	jmp	$1ac7 <f256main+0x12b5>
    1873: a2 01        	ldx	#$1
    1875: 86 12        	stx	$12                     ; 0x12 <__rc2>
    1877: ad 04 d9     	lda	$d904                   ; 0xd904 <__heap_start+0xb5d8>
    187a: ae 05 d9     	ldx	$d905                   ; 0xd905 <__heap_start+0xb5d9>
    187d: ac 06 d9     	ldy	$d906                   ; 0xd906 <__heap_start+0xb5da>
    1880: 84 14        	sty	$14                     ; 0x14 <__rc4>
    1882: ac 07 d9     	ldy	$d907                   ; 0xd907 <__heap_start+0xb5db>
    1885: 18           	clc
    1886: 69 05        	adc	#$5
    1888: 85 13        	sta	$13                     ; 0x13 <__rc3>
    188a: 8a           	txa
    188b: 69 00        	adc	#$0
    188d: c9 01        	cmp	#$1
    188f: f0 03        	beq	$1894 <f256main+0x1082>
    1891: 4c 68 19     	jmp	$1968 <f256main+0x1156>
    1894: aa           	tax
    1895: a5 13        	lda	$13                     ; 0x13 <__rc3>
    1897: c9 55        	cmp	#$55
    1899: 90 04        	bcc	$189f <f256main+0x108d>
    189b: 64 13        	stz	$13                     ; 0x13 <__rc3>
    189d: a2 00        	ldx	#$0
    189f: a5 13        	lda	$13                     ; 0x13 <__rc3>
    18a1: 8d 04 d9     	sta	$d904                   ; 0xd904 <__heap_start+0xb5d8>
    18a4: 8e 05 d9     	stx	$d905                   ; 0xd905 <__heap_start+0xb5d9>
    18a7: a6 14        	ldx	$14                     ; 0x14 <__rc4>
    18a9: 8e 06 d9     	stx	$d906                   ; 0xd906 <__heap_start+0xb5da>
    18ac: 8c 07 d9     	sty	$d907                   ; 0xd907 <__heap_start+0xb5db>
    18af: a4 93        	ldy	$93                     ; 0x93 <sprFrame.0>
    18b1: a2 01        	ldx	#$1
    18b3: 98           	tya
    18b4: f0 02        	beq	$18b8 <f256main+0x10a6>
    18b6: a2 00        	ldx	#$0
    18b8: a0 01        	ldy	#$1
    18ba: 8a           	txa
    18bb: d0 02        	bne	$18bf <f256main+0x10ad>
    18bd: a0 00        	ldy	#$0
    18bf: 84 93        	sty	$93                     ; 0x93 <sprFrame.0>
    18c1: 9c 01 d9     	stz	$d901                   ; 0xd901 <__heap_start+0xb5d5>
    18c4: 18           	clc
    18c5: a9 6c        	lda	#$6c
    18c7: 65 93        	adc	$93                     ; 0x93 <sprFrame.0>
    18c9: 8d 02 d9     	sta	$d902                   ; 0xd902 <__heap_start+0xb5d6>
    18cc: a2 03        	ldx	#$3
    18ce: 8e 03 d9     	stx	$d903                   ; 0xd903 <__heap_start+0xb5d7>
    18d1: ad 0c d9     	lda	$d90c                   ; 0xd90c <__heap_start+0xb5e0>
    18d4: ae 0d d9     	ldx	$d90d                   ; 0xd90d <__heap_start+0xb5e1>
    18d7: ac 0e d9     	ldy	$d90e                   ; 0xd90e <__heap_start+0xb5e2>
    18da: 84 14        	sty	$14                     ; 0x14 <__rc4>
    18dc: ac 0f d9     	ldy	$d90f                   ; 0xd90f <__heap_start+0xb5e3>
    18df: 18           	clc
    18e0: 69 05        	adc	#$5
    18e2: 85 13        	sta	$13                     ; 0x13 <__rc3>
    18e4: 8a           	txa
    18e5: 69 00        	adc	#$0
    18e7: c9 01        	cmp	#$1
    18e9: f0 03        	beq	$18ee <f256main+0x10dc>
    18eb: 4c 73 19     	jmp	$1973 <f256main+0x1161>
    18ee: aa           	tax
    18ef: a5 13        	lda	$13                     ; 0x13 <__rc3>
    18f1: c9 55        	cmp	#$55
    18f3: 90 04        	bcc	$18f9 <f256main+0x10e7>
    18f5: 64 13        	stz	$13                     ; 0x13 <__rc3>
    18f7: a2 00        	ldx	#$0
    18f9: a5 13        	lda	$13                     ; 0x13 <__rc3>
    18fb: 8d 0c d9     	sta	$d90c                   ; 0xd90c <__heap_start+0xb5e0>
    18fe: 8e 0d d9     	stx	$d90d                   ; 0xd90d <__heap_start+0xb5e1>
    1901: a6 14        	ldx	$14                     ; 0x14 <__rc4>
    1903: 8e 0e d9     	stx	$d90e                   ; 0xd90e <__heap_start+0xb5e2>
    1906: 8c 0f d9     	sty	$d90f                   ; 0xd90f <__heap_start+0xb5e3>
    1909: a4 83        	ldy	$83                     ; 0x83 <sprFrame.1>
    190b: a2 01        	ldx	#$1
    190d: 98           	tya
    190e: f0 02        	beq	$1912 <f256main+0x1100>
    1910: a2 00        	ldx	#$0
    1912: a0 01        	ldy	#$1
    1914: 8a           	txa
    1915: d0 02        	bne	$1919 <f256main+0x1107>
    1917: a0 00        	ldy	#$0
    1919: 84 83        	sty	$83                     ; 0x83 <sprFrame.1>
    191b: 9c 09 d9     	stz	$d909                   ; 0xd909 <__heap_start+0xb5dd>
    191e: 18           	clc
    191f: a9 6c        	lda	#$6c
    1921: 65 83        	adc	$83                     ; 0x83 <sprFrame.1>
    1923: 8d 0a d9     	sta	$d90a                   ; 0xd90a <__heap_start+0xb5de>
    1926: a2 03        	ldx	#$3
    1928: 8e 0b d9     	stx	$d90b                   ; 0xd90b <__heap_start+0xb5df>
    192b: ad 14 d9     	lda	$d914                   ; 0xd914 <__heap_start+0xb5e8>
    192e: ae 15 d9     	ldx	$d915                   ; 0xd915 <__heap_start+0xb5e9>
    1931: ac 16 d9     	ldy	$d916                   ; 0xd916 <__heap_start+0xb5ea>
    1934: 84 14        	sty	$14                     ; 0x14 <__rc4>
    1936: ac 17 d9     	ldy	$d917                   ; 0xd917 <__heap_start+0xb5eb>
    1939: 18           	clc
    193a: 69 05        	adc	#$5
    193c: 85 13        	sta	$13                     ; 0x13 <__rc3>
    193e: 8a           	txa
    193f: 69 00        	adc	#$0
    1941: c9 01        	cmp	#$1
    1943: d0 39        	bne	$197e <f256main+0x116c>
    1945: aa           	tax
    1946: a5 13        	lda	$13                     ; 0x13 <__rc3>
    1948: c9 55        	cmp	#$55
    194a: 90 04        	bcc	$1950 <f256main+0x113e>
    194c: 64 13        	stz	$13                     ; 0x13 <__rc3>
    194e: a2 00        	ldx	#$0
    1950: a5 13        	lda	$13                     ; 0x13 <__rc3>
    1952: 8d 14 d9     	sta	$d914                   ; 0xd914 <__heap_start+0xb5e8>
    1955: 8e 15 d9     	stx	$d915                   ; 0xd915 <__heap_start+0xb5e9>
    1958: a6 14        	ldx	$14                     ; 0x14 <__rc4>
    195a: 8e 16 d9     	stx	$d916                   ; 0xd916 <__heap_start+0xb5ea>
    195d: 8c 17 d9     	sty	$d917                   ; 0xd917 <__heap_start+0xb5eb>
    1960: a6 94        	ldx	$94                     ; 0x94 <sprFrame.2>
    1962: d0 21        	bne	$1985 <f256main+0x1173>
    1964: a2 01        	ldx	#$1
    1966: 80 1f        	bra	$1987 <f256main+0x1175>
    1968: c9 01        	cmp	#$1
    196a: aa           	tax
    196b: 90 03        	bcc	$1970 <f256main+0x115e>
    196d: 4c 9b 18     	jmp	$189b <f256main+0x1089>
    1970: 4c 9f 18     	jmp	$189f <f256main+0x108d>
    1973: c9 01        	cmp	#$1
    1975: aa           	tax
    1976: 90 03        	bcc	$197b <f256main+0x1169>
    1978: 4c f5 18     	jmp	$18f5 <f256main+0x10e3>
    197b: 4c f9 18     	jmp	$18f9 <f256main+0x10e7>
    197e: c9 01        	cmp	#$1
    1980: aa           	tax
    1981: b0 c9        	bcs	$194c <f256main+0x113a>
    1983: 80 cb        	bra	$1950 <f256main+0x113e>
    1985: a2 00        	ldx	#$0
    1987: a4 12        	ldy	$12                     ; 0x12 <__rc2>
    1989: 86 94        	stx	$94                     ; 0x94 <sprFrame.2>
    198b: 9c 11 d9     	stz	$d911                   ; 0xd911 <__heap_start+0xb5e5>
    198e: 18           	clc
    198f: a9 6c        	lda	#$6c
    1991: 65 94        	adc	$94                     ; 0x94 <sprFrame.2>
    1993: 8d 12 d9     	sta	$d912                   ; 0xd912 <__heap_start+0xb5e6>
    1996: a2 03        	ldx	#$3
    1998: 8e 13 d9     	stx	$d913                   ; 0xd913 <__heap_start+0xb5e7>
    199b: a2 80        	ldx	#$80
    199d: 86 f3        	stx	$f3                     ; 0xf3 <__sunset_size+0x5f>
    199f: 18           	clc
    19a0: a5 10        	lda	$10                     ; 0x10 <__rc0>
    19a2: 69 07        	adc	#$7
    19a4: 85 12        	sta	$12                     ; 0x12 <__rc2>
    19a6: a5 11        	lda	$11                     ; 0x11 <__rc1>
    19a8: 69 00        	adc	#$0
    19aa: 85 13        	sta	$13                     ; 0x13 <__rc3>
    19ac: a2 2a        	ldx	#$2a
    19ae: 86 14        	stx	$14                     ; 0x14 <__rc4>
    19b0: a2 23        	ldx	#$23
    19b2: 86 15        	stx	$15                     ; 0x15 <__rc5>
    19b4: 20 f0 ff     	jsr	$fff0 <__heap_start+0xdcc4>
    19b7: 92 12        	sta	($12)                   ; 0x12 <__rc2>
    19b9: a9 00        	lda	#$0
    19bb: 6a           	ror
    19bc: 85 14        	sta	$14                     ; 0x14 <__rc4>
    19be: 18           	clc
    19bf: a9 05        	lda	#$5
    19c1: 72 12        	adc	($12)                   ; 0x12 <__rc2>
    19c3: 85 97        	sta	$97                     ; 0x97 <sprAnim+0x1>
    19c5: a2 96        	ldx	#$96
    19c7: 86 12        	stx	$12                     ; 0x12 <__rc2>
    19c9: a2 00        	ldx	#$0
    19cb: 4c 21 1b     	jmp	$1b21 <f256main+0x130f>
    19ce: c9 00        	cmp	#$0
    19d0: b0 03        	bcs	$19d5 <f256main+0x11c3>
    19d2: 4c e3 17     	jmp	$17e3 <f256main+0xfd1>
    19d5: 4c e7 17     	jmp	$17e7 <f256main+0xfd5>
    19d8: c9 00        	cmp	#$0
    19da: a8           	tay
    19db: a5 12        	lda	$12                     ; 0x12 <__rc2>
    19dd: b0 04        	bcs	$19e3 <f256main+0x11d1>
    19df: a2 50        	ldx	#$50
    19e1: a0 01        	ldy	#$1
    19e3: 8e 24 d9     	stx	$d924                   ; 0xd924 <__heap_start+0xb5f8>
    19e6: 8c 25 d9     	sty	$d925                   ; 0xd925 <__heap_start+0xb5f9>
    19e9: 8d 26 d9     	sta	$d926                   ; 0xd926 <__heap_start+0xb5fa>
    19ec: a6 13        	ldx	$13                     ; 0x13 <__rc3>
    19ee: 8e 27 d9     	stx	$d927                   ; 0xd927 <__heap_start+0xb5fb>
    19f1: a6 84        	ldx	$84                     ; 0x84 <sprBirdFrame.1>
    19f3: e8           	inx
    19f4: e0 04        	cpx	#$4
    19f6: 90 02        	bcc	$19fa <f256main+0x11e8>
    19f8: a2 00        	ldx	#$0
    19fa: 86 84        	stx	$84                     ; 0x84 <sprBirdFrame.1>
    19fc: 9c 21 d9     	stz	$d921                   ; 0xd921 <__heap_start+0xb5f5>
    19ff: a9 ac        	lda	#$ac
    1a01: 18           	clc
    1a02: 65 83        	adc	$83                     ; 0x83 <sprFrame.1>
    1a04: 8d 22 d9     	sta	$d922                   ; 0xd922 <__heap_start+0xb5f6>
    1a07: a5 83        	lda	$83                     ; 0x83 <sprFrame.1>
    1a09: 18           	clc
    1a0a: 69 ac        	adc	#$ac
    1a0c: a9 00        	lda	#$0
    1a0e: 69 04        	adc	#$4
    1a10: 8d 23 d9     	sta	$d923                   ; 0xd923 <__heap_start+0xb5f7>
    1a13: ad 2c d9     	lda	$d92c                   ; 0xd92c <__heap_start+0xb600>
    1a16: ac 2d d9     	ldy	$d92d                   ; 0xd92d <__heap_start+0xb601>
    1a19: ae 2e d9     	ldx	$d92e                   ; 0xd92e <__heap_start+0xb602>
    1a1c: 86 12        	stx	$12                     ; 0x12 <__rc2>
    1a1e: ae 2f d9     	ldx	$d92f                   ; 0xd92f <__heap_start+0xb603>
    1a21: 86 13        	stx	$13                     ; 0x13 <__rc3>
    1a23: 18           	clc
    1a24: 69 fd        	adc	#$fd
    1a26: aa           	tax
    1a27: 98           	tya
    1a28: 69 ff        	adc	#$ff
    1a2a: d0 09        	bne	$1a35 <f256main+0x1223>
    1a2c: a8           	tay
    1a2d: e0 10        	cpx	#$10
    1a2f: a5 12        	lda	$12                     ; 0x12 <__rc2>
    1a31: 90 09        	bcc	$1a3c <f256main+0x122a>
    1a33: 80 0b        	bra	$1a40 <f256main+0x122e>
    1a35: c9 00        	cmp	#$0
    1a37: a8           	tay
    1a38: a5 12        	lda	$12                     ; 0x12 <__rc2>
    1a3a: b0 04        	bcs	$1a40 <f256main+0x122e>
    1a3c: a2 50        	ldx	#$50
    1a3e: a0 01        	ldy	#$1
    1a40: 8e 2c d9     	stx	$d92c                   ; 0xd92c <__heap_start+0xb600>
    1a43: 8c 2d d9     	sty	$d92d                   ; 0xd92d <__heap_start+0xb601>
    1a46: 8d 2e d9     	sta	$d92e                   ; 0xd92e <__heap_start+0xb602>
    1a49: a6 13        	ldx	$13                     ; 0x13 <__rc3>
    1a4b: 8e 2f d9     	stx	$d92f                   ; 0xd92f <__heap_start+0xb603>
    1a4e: a6 85        	ldx	$85                     ; 0x85 <sprBirdFrame.2>
    1a50: e8           	inx
    1a51: e0 04        	cpx	#$4
    1a53: 90 02        	bcc	$1a57 <f256main+0x1245>
    1a55: a2 00        	ldx	#$0
    1a57: 86 85        	stx	$85                     ; 0x85 <sprBirdFrame.2>
    1a59: 9c 29 d9     	stz	$d929                   ; 0xd929 <__heap_start+0xb5fd>
    1a5c: a9 ac        	lda	#$ac
    1a5e: 18           	clc
    1a5f: 65 94        	adc	$94                     ; 0x94 <sprFrame.2>
    1a61: 8d 2a d9     	sta	$d92a                   ; 0xd92a <__heap_start+0xb5fe>
    1a64: a5 94        	lda	$94                     ; 0x94 <sprFrame.2>
    1a66: 18           	clc
    1a67: 69 ac        	adc	#$ac
    1a69: a9 00        	lda	#$0
    1a6b: 69 04        	adc	#$4
    1a6d: 8d 2b d9     	sta	$d92b                   ; 0xd92b <__heap_start+0xb5ff>
    1a70: a2 80        	ldx	#$80
    1a72: 86 f3        	stx	$f3                     ; 0xf3 <__sunset_size+0x5f>
    1a74: 18           	clc
    1a75: a5 10        	lda	$10                     ; 0x10 <__rc0>
    1a77: 69 08        	adc	#$8
    1a79: 85 12        	sta	$12                     ; 0x12 <__rc2>
    1a7b: a5 11        	lda	$11                     ; 0x11 <__rc1>
    1a7d: 69 00        	adc	#$0
    1a7f: 85 13        	sta	$13                     ; 0x13 <__rc3>
    1a81: a2 2a        	ldx	#$2a
    1a83: 86 14        	stx	$14                     ; 0x14 <__rc4>
    1a85: a2 23        	ldx	#$23
    1a87: 86 15        	stx	$15                     ; 0x15 <__rc5>
    1a89: 20 f0 ff     	jsr	$fff0 <__heap_start+0xdcc4>
    1a8c: 92 12        	sta	($12)                   ; 0x12 <__rc2>
    1a8e: a9 00        	lda	#$0
    1a90: 6a           	ror
    1a91: 85 14        	sta	$14                     ; 0x14 <__rc4>
    1a93: a9 03        	lda	#$3
    1a95: 18           	clc
    1a96: 72 12        	adc	($12)                   ; 0x12 <__rc2>
    1a98: 85 9a        	sta	$9a                     ; 0x9a <sprBirdAnim+0x1>
    1a9a: a2 99        	ldx	#$99
    1a9c: 86 12        	stx	$12                     ; 0x12 <__rc2>
    1a9e: a2 00        	ldx	#$0
    1aa0: 86 13        	stx	$13                     ; 0x13 <__rc3>
    1aa2: a4 16        	ldy	$16                     ; 0x16 <__rc6>
    1aa4: 4c 23 1b     	jmp	$1b23 <f256main+0x1311>
    1aa7: e0 00        	cpx	#$0
    1aa9: b0 03        	bcs	$1aae <f256main+0x129c>
    1aab: 4c 6a 18     	jmp	$186a <f256main+0x1058>
    1aae: 64 12        	stz	$12                     ; 0x12 <__rc2>
    1ab0: 64 8e        	stz	$8e                     ; 0x8e <tm2_xf>
    1ab2: 64 8f        	stz	$8f                     ; 0x8f <tm2_xf+0x1>
    1ab4: 1a           	inc
    1ab5: 85 90        	sta	$90                     ; 0x90 <tm2_x>
    1ab7: c9 14        	cmp	#$14
    1ab9: 64 13        	stz	$13                     ; 0x13 <__rc3>
    1abb: a4 14        	ldy	$14                     ; 0x14 <__rc4>
    1abd: 90 08        	bcc	$1ac7 <f256main+0x12b5>
    1abf: a9 00        	lda	#$0
    1ac1: 64 90        	stz	$90                     ; 0x90 <tm2_x>
    1ac3: 64 12        	stz	$12                     ; 0x12 <__rc2>
    1ac5: 64 13        	stz	$13                     ; 0x13 <__rc3>
    1ac7: 0a           	asl
    1ac8: aa           	tax
    1ac9: a9 00        	lda	#$0
    1acb: 2a           	rol
    1acc: 86 14        	stx	$14                     ; 0x14 <__rc4>
    1ace: 06 14        	asl	$14                     ; 0x14 <__rc4>
    1ad0: 2a           	rol
    1ad1: 06 14        	asl	$14                     ; 0x14 <__rc4>
    1ad3: 2a           	rol
    1ad4: 06 14        	asl	$14                     ; 0x14 <__rc4>
    1ad6: 2a           	rol
    1ad7: aa           	tax
    1ad8: a5 14        	lda	$14                     ; 0x14 <__rc4>
    1ada: 05 12        	ora	$12                     ; 0x12 <__rc2>
    1adc: 85 12        	sta	$12                     ; 0x12 <__rc2>
    1ade: 8a           	txa
    1adf: 05 13        	ora	$13                     ; 0x13 <__rc3>
    1ae1: a6 12        	ldx	$12                     ; 0x12 <__rc2>
    1ae3: 8e 20 d2     	stx	$d220                   ; 0xd220 <__heap_start+0xaef4>
    1ae6: 8d 21 d2     	sta	$d221                   ; 0xd221 <__heap_start+0xaef5>
    1ae9: a2 20        	ldx	#$20
    1aeb: 8e 22 d2     	stx	$d222                   ; 0xd222 <__heap_start+0xaef6>
    1aee: 9c 23 d2     	stz	$d223                   ; 0xd223 <__heap_start+0xaef7>
    1af1: a2 80        	ldx	#$80
    1af3: 86 f3        	stx	$f3                     ; 0xf3 <__sunset_size+0x5f>
    1af5: 18           	clc
    1af6: a5 10        	lda	$10                     ; 0x10 <__rc0>
    1af8: 69 09        	adc	#$9
    1afa: 85 12        	sta	$12                     ; 0x12 <__rc2>
    1afc: a5 11        	lda	$11                     ; 0x11 <__rc1>
    1afe: 69 00        	adc	#$0
    1b00: 85 13        	sta	$13                     ; 0x13 <__rc3>
    1b02: a2 2a        	ldx	#$2a
    1b04: 86 14        	stx	$14                     ; 0x14 <__rc4>
    1b06: a2 23        	ldx	#$23
    1b08: 86 15        	stx	$15                     ; 0x15 <__rc5>
    1b0a: 20 f0 ff     	jsr	$fff0 <__heap_start+0xdcc4>
    1b0d: 92 12        	sta	($12)                   ; 0x12 <__rc2>
    1b0f: a9 00        	lda	#$0
    1b11: 6a           	ror
    1b12: 85 14        	sta	$14                     ; 0x14 <__rc4>
    1b14: 18           	clc
    1b15: a9 02        	lda	#$2
    1b17: 72 12        	adc	($12)                   ; 0x12 <__rc2>
    1b19: 85 9d        	sta	$9d                     ; 0x9d <tileAnim+0x1>
    1b1b: a2 9c        	ldx	#$9c
    1b1d: 86 12        	stx	$12                     ; 0x12 <__rc2>
    1b1f: a2 00        	ldx	#$0
    1b21: 86 13        	stx	$13                     ; 0x13 <__rc3>
    1b23: b2 12        	lda	($12)                   ; 0x12 <__rc2>
    1b25: 85 f3        	sta	$f3                     ; 0xf3 <__sunset_size+0x5f>
    1b27: b1 12        	lda	($12),y                 ; 0x12 <__rc2>
    1b29: 85 f4        	sta	$f4                     ; 0xf4 <__sunset_size+0x60>
    1b2b: 84 14        	sty	$14                     ; 0x14 <__rc4>
    1b2d: a0 02        	ldy	#$2
    1b2f: b1 12        	lda	($12),y                 ; 0x12 <__rc2>
    1b31: a4 14        	ldy	$14                     ; 0x14 <__rc4>
    1b33: 85 f5        	sta	$f5                     ; 0xf5 <__sunset_size+0x61>
    1b35: 18           	clc
    1b36: a5 10        	lda	$10                     ; 0x10 <__rc0>
    1b38: 69 0a        	adc	#$a
    1b3a: 85 12        	sta	$12                     ; 0x12 <__rc2>
    1b3c: a5 11        	lda	$11                     ; 0x11 <__rc1>
    1b3e: 69 00        	adc	#$0
    1b40: 85 13        	sta	$13                     ; 0x13 <__rc3>
    1b42: a2 2a        	ldx	#$2a
    1b44: 86 14        	stx	$14                     ; 0x14 <__rc4>
    1b46: a2 23        	ldx	#$23
    1b48: 86 15        	stx	$15                     ; 0x15 <__rc5>
    1b4a: 20 f0 ff     	jsr	$fff0 <__heap_start+0xdcc4>
    1b4d: 92 12        	sta	($12)                   ; 0x12 <__rc2>
    1b4f: a9 00        	lda	#$0
    1b51: 6a           	ror
    1b52: 85 14        	sta	$14                     ; 0x14 <__rc4>
    1b54: a6 9f        	ldx	$9f                     ; 0x9f <kernelEventData>
    1b56: e0 0c        	cpx	#$c
    1b58: f0 03        	beq	$1b5d <f256main+0x134b>
    1b5a: 4c 9d 14     	jmp	$149d <f256main+0xc8b>
    1b5d: a5 a2        	lda	$a2                     ; 0xa2 <kernelEventData+0x3>
    1b5f: 10 15        	bpl	$1b76 <f256main+0x1364>
    1b61: a2 ff        	ldx	#$ff
    1b63: 85 12        	sta	$12                     ; 0x12 <__rc2>
    1b65: 38           	sec
    1b66: e9 05        	sbc	#$5
    1b68: 70 15        	bvs	$1b7f <f256main+0x136d>
    1b6a: a0 01        	ldy	#$1
    1b6c: 84 26        	sty	$26                     ; 0x26 <__rc22>
    1b6e: a0 02        	ldy	#$2
    1b70: c9 00        	cmp	#$0
    1b72: 30 17        	bmi	$1b8b <f256main+0x1379>
    1b74: 80 24        	bra	$1b9a <f256main+0x1388>
    1b76: a2 00        	ldx	#$0
    1b78: 85 12        	sta	$12                     ; 0x12 <__rc2>
    1b7a: 38           	sec
    1b7b: e9 05        	sbc	#$5
    1b7d: 50 eb        	bvc	$1b6a <f256main+0x1358>
    1b7f: a0 01        	ldy	#$1
    1b81: 84 26        	sty	$26                     ; 0x26 <__rc22>
    1b83: 49 80        	eor	#$80
    1b85: a0 02        	ldy	#$2
    1b87: c9 00        	cmp	#$0
    1b89: 10 0f        	bpl	$1b9a <f256main+0x1388>
    1b8b: a5 12        	lda	$12                     ; 0x12 <__rc2>
    1b8d: 38           	sec
    1b8e: e9 fc        	sbc	#$fc
    1b90: 50 02        	bvc	$1b94 <f256main+0x1382>
    1b92: 49 80        	eor	#$80
    1b94: c9 00        	cmp	#$0
    1b96: 30 02        	bmi	$1b9a <f256main+0x1388>
    1b98: a0 01        	ldy	#$1
    1b9a: ad e2 d6     	lda	$d6e2                   ; 0xd6e2 <__heap_start+0xb3b6>
    1b9d: 85 28        	sta	$28                     ; 0x28 <__rc24>
    1b9f: ad e3 d6     	lda	$d6e3                   ; 0xd6e3 <__heap_start+0xb3b7>
    1ba2: 85 27        	sta	$27                     ; 0x27 <__rc23>
    1ba4: 86 13        	stx	$13                     ; 0x13 <__rc3>
    1ba6: a2 00        	ldx	#$0
    1ba8: 98           	tya
    1ba9: 20 66 20     	jsr	$2066 <__mulhi3>
    1bac: 85 13        	sta	$13                     ; 0x13 <__rc3>
    1bae: 86 14        	stx	$14                     ; 0x14 <__rc4>
    1bb0: a4 a3        	ldy	$a3                     ; 0xa3 <kernelEventData+0x4>
    1bb2: 10 0c        	bpl	$1bc0 <f256main+0x13ae>
    1bb4: a2 ff        	ldx	#$ff
    1bb6: 98           	tya
    1bb7: 38           	sec
    1bb8: e9 05        	sbc	#$5
    1bba: 70 0c        	bvs	$1bc8 <f256main+0x13b6>
    1bbc: 84 12        	sty	$12                     ; 0x12 <__rc2>
    1bbe: 80 0c        	bra	$1bcc <f256main+0x13ba>
    1bc0: a2 00        	ldx	#$0
    1bc2: 98           	tya
    1bc3: 38           	sec
    1bc4: e9 05        	sbc	#$5
    1bc6: 50 f4        	bvc	$1bbc <f256main+0x13aa>
    1bc8: 84 12        	sty	$12                     ; 0x12 <__rc2>
    1bca: 49 80        	eor	#$80
    1bcc: 85 15        	sta	$15                     ; 0x15 <__rc5>
    1bce: 18           	clc
    1bcf: a5 28        	lda	$28                     ; 0x28 <__rc24>
    1bd1: 65 13        	adc	$13                     ; 0x13 <__rc3>
    1bd3: 85 28        	sta	$28                     ; 0x28 <__rc24>
    1bd5: a5 27        	lda	$27                     ; 0x27 <__rc23>
    1bd7: 65 14        	adc	$14                     ; 0x14 <__rc4>
    1bd9: 85 27        	sta	$27                     ; 0x27 <__rc23>
    1bdb: a0 02        	ldy	#$2
    1bdd: a5 15        	lda	$15                     ; 0x15 <__rc5>
    1bdf: 10 0f        	bpl	$1bf0 <f256main+0x13de>
    1be1: a5 12        	lda	$12                     ; 0x12 <__rc2>
    1be3: 38           	sec
    1be4: e9 fc        	sbc	#$fc
    1be6: 50 02        	bvc	$1bea <f256main+0x13d8>
    1be8: 49 80        	eor	#$80
    1bea: c9 00        	cmp	#$0
    1bec: 30 02        	bmi	$1bf0 <f256main+0x13de>
    1bee: a0 01        	ldy	#$1
    1bf0: ad e4 d6     	lda	$d6e4                   ; 0xd6e4 <__heap_start+0xb3b8>
    1bf3: 85 2a        	sta	$2a                     ; 0x2a <__rc26>
    1bf5: ad e5 d6     	lda	$d6e5                   ; 0xd6e5 <__heap_start+0xb3b9>
    1bf8: 85 29        	sta	$29                     ; 0x29 <__rc25>
    1bfa: 86 13        	stx	$13                     ; 0x13 <__rc3>
    1bfc: a2 00        	ldx	#$0
    1bfe: 98           	tya
    1bff: 20 66 20     	jsr	$2066 <__mulhi3>
    1c02: 85 12        	sta	$12                     ; 0x12 <__rc2>
    1c04: 86 13        	stx	$13                     ; 0x13 <__rc3>
    1c06: 18           	clc
    1c07: a5 2a        	lda	$2a                     ; 0x2a <__rc26>
    1c09: 65 12        	adc	$12                     ; 0x12 <__rc2>
    1c0b: 85 14        	sta	$14                     ; 0x14 <__rc4>
    1c0d: a5 29        	lda	$29                     ; 0x29 <__rc25>
    1c0f: 65 13        	adc	$13                     ; 0x13 <__rc3>
    1c11: 85 12        	sta	$12                     ; 0x12 <__rc2>
    1c13: 64 13        	stz	$13                     ; 0x13 <__rc3>
    1c15: 64 15        	stz	$15                     ; 0x15 <__rc5>
    1c17: a0 00        	ldy	#$0
    1c19: a5 27        	lda	$27                     ; 0x27 <__rc23>
    1c1b: 30 22        	bmi	$1c3f <f256main+0x142d>
    1c1d: a6 27        	ldx	$27                     ; 0x27 <__rc23>
    1c1f: a5 27        	lda	$27                     ; 0x27 <__rc23>
    1c21: e0 02        	cpx	#$2
    1c23: d0 0b        	bne	$1c30 <f256main+0x141e>
    1c25: a4 28        	ldy	$28                     ; 0x28 <__rc24>
    1c27: c0 71        	cpy	#$71
    1c29: 84 15        	sty	$15                     ; 0x15 <__rc5>
    1c2b: a8           	tay
    1c2c: b0 0b        	bcs	$1c39 <f256main+0x1427>
    1c2e: 80 0f        	bra	$1c3f <f256main+0x142d>
    1c30: c9 02        	cmp	#$2
    1c32: a6 28        	ldx	$28                     ; 0x28 <__rc24>
    1c34: 86 15        	stx	$15                     ; 0x15 <__rc5>
    1c36: a8           	tay
    1c37: 90 06        	bcc	$1c3f <f256main+0x142d>
    1c39: a2 70        	ldx	#$70
    1c3b: 86 15        	stx	$15                     ; 0x15 <__rc5>
    1c3d: a0 02        	ldy	#$2
    1c3f: a9 00        	lda	#$0
    1c41: a6 12        	ldx	$12                     ; 0x12 <__rc2>
    1c43: 10 03        	bpl	$1c48 <f256main+0x1436>
    1c45: 4c 8b 14     	jmp	$148b <f256main+0xc79>
    1c48: a6 12        	ldx	$12                     ; 0x12 <__rc2>
    1c4a: e0 01        	cpx	#$1
    1c4c: d0 0f        	bne	$1c5d <f256main+0x144b>
    1c4e: a5 14        	lda	$14                     ; 0x14 <__rc4>
    1c50: c9 d1        	cmp	#$d1
    1c52: 85 13        	sta	$13                     ; 0x13 <__rc3>
    1c54: 8a           	txa
    1c55: 90 03        	bcc	$1c5a <f256main+0x1448>
    1c57: 4c 85 14     	jmp	$1485 <f256main+0xc73>
    1c5a: 4c 8b 14     	jmp	$148b <f256main+0xc79>
    1c5d: e0 01        	cpx	#$1
    1c5f: a5 14        	lda	$14                     ; 0x14 <__rc4>
    1c61: 85 13        	sta	$13                     ; 0x13 <__rc3>
    1c63: 8a           	txa
    1c64: b0 03        	bcs	$1c69 <f256main+0x1457>
    1c66: 4c 8b 14     	jmp	$148b <f256main+0xc79>
    1c69: 4c 85 14     	jmp	$1485 <f256main+0xc73>
    1c6c: a2 00        	ldx	#$0
    1c6e: 4c 3e 17     	jmp	$173e <f256main+0xf2c>
    1c71: a0 00        	ldy	#$0
    1c73: 84 82        	sty	$82                     ; 0x82 <b2>
    1c75: a9 00        	lda	#$0
    1c77: e0 00        	cpx	#$0
    1c79: d0 03        	bne	$1c7e <f256main+0x146c>
    1c7b: 4c 6b 15     	jmp	$156b <f256main+0xd59>
    1c7e: 4c 67 15     	jmp	$1567 <f256main+0xd55>

00001c81 <textPrint>:
    1c81: a6 01        	ldx	$1                      ; 0x1 <__data_size+0x1>
    1c83: 86 1c        	stx	$1c                     ; 0x1c <__rc12>
    1c85: a6 88        	ldx	$88                     ; 0x88 <_row>
    1c87: a9 50        	lda	#$50
    1c89: a8           	tay
    1c8a: 84 1d        	sty	$1d                     ; 0x1d <__rc13>
    1c8c: 8d 00 de     	sta	$de00                   ; 0xde00 <__heap_start+0xbad4>
    1c8f: 9c 01 de     	stz	$de01                   ; 0xde01 <__heap_start+0xbad5>
    1c92: 8e 02 de     	stx	$de02                   ; 0xde02 <__heap_start+0xbad6>
    1c95: 9c 03 de     	stz	$de03                   ; 0xde03 <__heap_start+0xbad7>
    1c98: ae 10 de     	ldx	$de10                   ; 0xde10 <__heap_start+0xbae4>
    1c9b: ac 11 de     	ldy	$de11                   ; 0xde11 <__heap_start+0xbae5>
    1c9e: 84 15        	sty	$15                     ; 0x15 <__rc5>
    1ca0: ad 12 de     	lda	$de12                   ; 0xde12 <__heap_start+0xbae6>
    1ca3: ac 13 de     	ldy	$de13                   ; 0xde13 <__heap_start+0xbae7>
    1ca6: 84 18        	sty	$18                     ; 0x18 <__rc8>
    1ca8: 9c 08 de     	stz	$de08                   ; 0xde08 <__heap_start+0xbadc>
    1cab: a0 c0        	ldy	#$c0
    1cad: 8c 09 de     	sty	$de09                   ; 0xde09 <__heap_start+0xbadd>
    1cb0: 9c 0a de     	stz	$de0a                   ; 0xde0a <__heap_start+0xbade>
    1cb3: 9c 0b de     	stz	$de0b                   ; 0xde0b <__heap_start+0xbadf>
    1cb6: 8e 0c de     	stx	$de0c                   ; 0xde0c <__heap_start+0xbae0>
    1cb9: 64 14        	stz	$14                     ; 0x14 <__rc4>
    1cbb: a2 00        	ldx	#$0
    1cbd: 86 16        	stx	$16                     ; 0x16 <__rc6>
    1cbf: a2 c0        	ldx	#$c0
    1cc1: 86 17        	stx	$17                     ; 0x17 <__rc7>
    1cc3: a6 15        	ldx	$15                     ; 0x15 <__rc5>
    1cc5: 8e 0d de     	stx	$de0d                   ; 0xde0d <__heap_start+0xbae1>
    1cc8: 8d 0e de     	sta	$de0e                   ; 0xde0e <__heap_start+0xbae2>
    1ccb: a6 18        	ldx	$18                     ; 0x18 <__rc8>
    1ccd: 8e 0f de     	stx	$de0f                   ; 0xde0f <__heap_start+0xbae3>
    1cd0: ac 18 de     	ldy	$de18                   ; 0xde18 <__heap_start+0xbaec>
    1cd3: ad 19 de     	lda	$de19                   ; 0xde19 <__heap_start+0xbaed>
    1cd6: ae 1a de     	ldx	$de1a                   ; 0xde1a <__heap_start+0xbaee>
    1cd9: ae 1b de     	ldx	$de1b                   ; 0xde1b <__heap_start+0xbaef>
    1cdc: 84 18        	sty	$18                     ; 0x18 <__rc8>
    1cde: 85 19        	sta	$19                     ; 0x19 <__rc9>
    1ce0: 64 15        	stz	$15                     ; 0x15 <__rc5>
    1ce2: a2 20        	ldx	#$20
    1ce4: 4c 8c 1f     	jmp	$1f8c <textPrint+0x30b>
    1ce7: a5 1a        	lda	$1a                     ; 0x1a <__rc10>
    1ce9: f0 1c        	beq	$1d07 <textPrint+0x86>
    1ceb: b1 18        	lda	($18),y                 ; 0x18 <__rc8>
    1ced: 92 18        	sta	($18)                   ; 0x18 <__rc8>
    1cef: a9 ff        	lda	#$ff
    1cf1: c6 1b        	dec	$1b                     ; 0x1b <__rc11>
    1cf3: c5 1b        	cmp	$1b                     ; 0x1b <__rc11>
    1cf5: f0 06        	beq	$1cfd <textPrint+0x7c>
    1cf7: e6 18        	inc	$18                     ; 0x18 <__rc8>
    1cf9: d0 ec        	bne	$1ce7 <textPrint+0x66>
    1cfb: 80 06        	bra	$1d03 <textPrint+0x82>
    1cfd: c6 1a        	dec	$1a                     ; 0x1a <__rc10>
    1cff: e6 18        	inc	$18                     ; 0x18 <__rc8>
    1d01: d0 e4        	bne	$1ce7 <textPrint+0x66>
    1d03: e6 19        	inc	$19                     ; 0x19 <__rc9>
    1d05: 80 e0        	bra	$1ce7 <textPrint+0x66>
    1d07: a5 1b        	lda	$1b                     ; 0x1b <__rc11>
    1d09: d0 e0        	bne	$1ceb <textPrint+0x6a>
    1d0b: a9 02        	lda	#$2
    1d0d: 85 01        	sta	$1                      ; 0x1 <__data_size+0x1>
    1d0f: a9 10        	lda	#$10
    1d11: 5a           	phy
    1d12: a0 00        	ldy	#$0
    1d14: 84 18        	sty	$18                     ; 0x18 <__rc8>
    1d16: a0 c0        	ldy	#$c0
    1d18: 84 19        	sty	$19                     ; 0x19 <__rc9>
    1d1a: 7a           	ply
    1d1b: 85 1b        	sta	$1b                     ; 0x1b <__rc11>
    1d1d: a9 09        	lda	#$9
    1d1f: 85 1a        	sta	$1a                     ; 0x1a <__rc10>
    1d21: 80 04        	bra	$1d27 <textPrint+0xa6>
    1d23: a5 1a        	lda	$1a                     ; 0x1a <__rc10>
    1d25: f0 1c        	beq	$1d43 <textPrint+0xc2>
    1d27: b1 18        	lda	($18),y                 ; 0x18 <__rc8>
    1d29: 92 18        	sta	($18)                   ; 0x18 <__rc8>
    1d2b: a9 ff        	lda	#$ff
    1d2d: c6 1b        	dec	$1b                     ; 0x1b <__rc11>
    1d2f: c5 1b        	cmp	$1b                     ; 0x1b <__rc11>
    1d31: f0 06        	beq	$1d39 <textPrint+0xb8>
    1d33: e6 18        	inc	$18                     ; 0x18 <__rc8>
    1d35: d0 ec        	bne	$1d23 <textPrint+0xa2>
    1d37: 80 06        	bra	$1d3f <textPrint+0xbe>
    1d39: c6 1a        	dec	$1a                     ; 0x1a <__rc10>
    1d3b: e6 18        	inc	$18                     ; 0x18 <__rc8>
    1d3d: d0 e4        	bne	$1d23 <textPrint+0xa2>
    1d3f: e6 19        	inc	$19                     ; 0x19 <__rc9>
    1d41: 80 e0        	bra	$1d23 <textPrint+0xa2>
    1d43: a5 1b        	lda	$1b                     ; 0x1b <__rc11>
    1d45: d0 e0        	bne	$1d27 <textPrint+0xa6>
    1d47: a0 50        	ldy	#$50
    1d49: 84 1d        	sty	$1d                     ; 0x1d <__rc13>
    1d4b: a0 02        	ldy	#$2
    1d4d: 84 01        	sty	$1                      ; 0x1 <__data_size+0x1>
    1d4f: c8           	iny
    1d50: 84 01        	sty	$1                      ; 0x1 <__data_size+0x1>
    1d52: a5 86        	lda	$86                     ; 0x86 <_ccolor>
    1d54: 29 01        	and	#$1
    1d56: a8           	tay
    1d57: a9 d2        	lda	#$d2
    1d59: c0 00        	cpy	#$0
    1d5b: d0 02        	bne	$1d5f <textPrint+0xde>
    1d5d: a9 f0        	lda	#$f0
    1d5f: 8d 10 c9     	sta	$c910                   ; 0xc910 <__heap_start+0xa5e4>
    1d62: 8d 11 c9     	sta	$c911                   ; 0xc911 <__heap_start+0xa5e5>
    1d65: 8d 12 c9     	sta	$c912                   ; 0xc912 <__heap_start+0xa5e6>
    1d68: 8d 13 c9     	sta	$c913                   ; 0xc913 <__heap_start+0xa5e7>
    1d6b: 8d 14 c9     	sta	$c914                   ; 0xc914 <__heap_start+0xa5e8>
    1d6e: 8d 15 c9     	sta	$c915                   ; 0xc915 <__heap_start+0xa5e9>
    1d71: 8d 16 c9     	sta	$c916                   ; 0xc916 <__heap_start+0xa5ea>
    1d74: 8d 17 c9     	sta	$c917                   ; 0xc917 <__heap_start+0xa5eb>
    1d77: 8d 18 c9     	sta	$c918                   ; 0xc918 <__heap_start+0xa5ec>
    1d7a: 8d 19 c9     	sta	$c919                   ; 0xc919 <__heap_start+0xa5ed>
    1d7d: 8d 1a c9     	sta	$c91a                   ; 0xc91a <__heap_start+0xa5ee>
    1d80: 8d 1b c9     	sta	$c91b                   ; 0xc91b <__heap_start+0xa5ef>
    1d83: 8d 1c c9     	sta	$c91c                   ; 0xc91c <__heap_start+0xa5f0>
    1d86: 8d 1d c9     	sta	$c91d                   ; 0xc91d <__heap_start+0xa5f1>
    1d89: 8d 1e c9     	sta	$c91e                   ; 0xc91e <__heap_start+0xa5f2>
    1d8c: 8d 1f c9     	sta	$c91f                   ; 0xc91f <__heap_start+0xa5f3>
    1d8f: 8d 20 c9     	sta	$c920                   ; 0xc920 <__heap_start+0xa5f4>
    1d92: 8d 21 c9     	sta	$c921                   ; 0xc921 <__heap_start+0xa5f5>
    1d95: 8d 22 c9     	sta	$c922                   ; 0xc922 <__heap_start+0xa5f6>
    1d98: 8d 23 c9     	sta	$c923                   ; 0xc923 <__heap_start+0xa5f7>
    1d9b: 8d 24 c9     	sta	$c924                   ; 0xc924 <__heap_start+0xa5f8>
    1d9e: 8d 25 c9     	sta	$c925                   ; 0xc925 <__heap_start+0xa5f9>
    1da1: 8d 26 c9     	sta	$c926                   ; 0xc926 <__heap_start+0xa5fa>
    1da4: 8d 27 c9     	sta	$c927                   ; 0xc927 <__heap_start+0xa5fb>
    1da7: 8d 28 c9     	sta	$c928                   ; 0xc928 <__heap_start+0xa5fc>
    1daa: 8d 29 c9     	sta	$c929                   ; 0xc929 <__heap_start+0xa5fd>
    1dad: 8d 2a c9     	sta	$c92a                   ; 0xc92a <__heap_start+0xa5fe>
    1db0: 8d 2b c9     	sta	$c92b                   ; 0xc92b <__heap_start+0xa5ff>
    1db3: 8d 2c c9     	sta	$c92c                   ; 0xc92c <__heap_start+0xa600>
    1db6: 8d 2d c9     	sta	$c92d                   ; 0xc92d <__heap_start+0xa601>
    1db9: 8d 2e c9     	sta	$c92e                   ; 0xc92e <__heap_start+0xa602>
    1dbc: 8d 2f c9     	sta	$c92f                   ; 0xc92f <__heap_start+0xa603>
    1dbf: 8d 30 c9     	sta	$c930                   ; 0xc930 <__heap_start+0xa604>
    1dc2: 8d 31 c9     	sta	$c931                   ; 0xc931 <__heap_start+0xa605>
    1dc5: 8d 32 c9     	sta	$c932                   ; 0xc932 <__heap_start+0xa606>
    1dc8: 8d 33 c9     	sta	$c933                   ; 0xc933 <__heap_start+0xa607>
    1dcb: 8d 34 c9     	sta	$c934                   ; 0xc934 <__heap_start+0xa608>
    1dce: 8d 35 c9     	sta	$c935                   ; 0xc935 <__heap_start+0xa609>
    1dd1: 8d 36 c9     	sta	$c936                   ; 0xc936 <__heap_start+0xa60a>
    1dd4: 8d 37 c9     	sta	$c937                   ; 0xc937 <__heap_start+0xa60b>
    1dd7: 8d 38 c9     	sta	$c938                   ; 0xc938 <__heap_start+0xa60c>
    1dda: 8d 39 c9     	sta	$c939                   ; 0xc939 <__heap_start+0xa60d>
    1ddd: 8d 3a c9     	sta	$c93a                   ; 0xc93a <__heap_start+0xa60e>
    1de0: 8d 3b c9     	sta	$c93b                   ; 0xc93b <__heap_start+0xa60f>
    1de3: 8d 3c c9     	sta	$c93c                   ; 0xc93c <__heap_start+0xa610>
    1de6: 8d 3d c9     	sta	$c93d                   ; 0xc93d <__heap_start+0xa611>
    1de9: 8d 3e c9     	sta	$c93e                   ; 0xc93e <__heap_start+0xa612>
    1dec: 8d 3f c9     	sta	$c93f                   ; 0xc93f <__heap_start+0xa613>
    1def: 8d 40 c9     	sta	$c940                   ; 0xc940 <__heap_start+0xa614>
    1df2: 8d 41 c9     	sta	$c941                   ; 0xc941 <__heap_start+0xa615>
    1df5: 8d 42 c9     	sta	$c942                   ; 0xc942 <__heap_start+0xa616>
    1df8: 8d 43 c9     	sta	$c943                   ; 0xc943 <__heap_start+0xa617>
    1dfb: 8d 44 c9     	sta	$c944                   ; 0xc944 <__heap_start+0xa618>
    1dfe: 8d 45 c9     	sta	$c945                   ; 0xc945 <__heap_start+0xa619>
    1e01: 8d 46 c9     	sta	$c946                   ; 0xc946 <__heap_start+0xa61a>
    1e04: 8d 47 c9     	sta	$c947                   ; 0xc947 <__heap_start+0xa61b>
    1e07: 8d 48 c9     	sta	$c948                   ; 0xc948 <__heap_start+0xa61c>
    1e0a: 8d 49 c9     	sta	$c949                   ; 0xc949 <__heap_start+0xa61d>
    1e0d: 8d 4a c9     	sta	$c94a                   ; 0xc94a <__heap_start+0xa61e>
    1e10: 8d 4b c9     	sta	$c94b                   ; 0xc94b <__heap_start+0xa61f>
    1e13: 8d 4c c9     	sta	$c94c                   ; 0xc94c <__heap_start+0xa620>
    1e16: 8d 4d c9     	sta	$c94d                   ; 0xc94d <__heap_start+0xa621>
    1e19: 8d 4e c9     	sta	$c94e                   ; 0xc94e <__heap_start+0xa622>
    1e1c: 8d 4f c9     	sta	$c94f                   ; 0xc94f <__heap_start+0xa623>
    1e1f: 8d 50 c9     	sta	$c950                   ; 0xc950 <__heap_start+0xa624>
    1e22: 8d 51 c9     	sta	$c951                   ; 0xc951 <__heap_start+0xa625>
    1e25: 8d 52 c9     	sta	$c952                   ; 0xc952 <__heap_start+0xa626>
    1e28: 8d 53 c9     	sta	$c953                   ; 0xc953 <__heap_start+0xa627>
    1e2b: 8d 54 c9     	sta	$c954                   ; 0xc954 <__heap_start+0xa628>
    1e2e: 8d 55 c9     	sta	$c955                   ; 0xc955 <__heap_start+0xa629>
    1e31: 8d 56 c9     	sta	$c956                   ; 0xc956 <__heap_start+0xa62a>
    1e34: 8d 57 c9     	sta	$c957                   ; 0xc957 <__heap_start+0xa62b>
    1e37: 8d 58 c9     	sta	$c958                   ; 0xc958 <__heap_start+0xa62c>
    1e3a: 8d 59 c9     	sta	$c959                   ; 0xc959 <__heap_start+0xa62d>
    1e3d: 8d 5a c9     	sta	$c95a                   ; 0xc95a <__heap_start+0xa62e>
    1e40: 8d 5b c9     	sta	$c95b                   ; 0xc95b <__heap_start+0xa62f>
    1e43: 8d 5c c9     	sta	$c95c                   ; 0xc95c <__heap_start+0xa630>
    1e46: 8d 5d c9     	sta	$c95d                   ; 0xc95d <__heap_start+0xa631>
    1e49: 8d 5e c9     	sta	$c95e                   ; 0xc95e <__heap_start+0xa632>
    1e4c: 8d 5f c9     	sta	$c95f                   ; 0xc95f <__heap_start+0xa633>
    1e4f: a0 02        	ldy	#$2
    1e51: 84 01        	sty	$1                      ; 0x1 <__data_size+0x1>
    1e53: 8e 10 c9     	stx	$c910                   ; 0xc910 <__heap_start+0xa5e4>
    1e56: 8e 11 c9     	stx	$c911                   ; 0xc911 <__heap_start+0xa5e5>
    1e59: 8e 12 c9     	stx	$c912                   ; 0xc912 <__heap_start+0xa5e6>
    1e5c: 8e 13 c9     	stx	$c913                   ; 0xc913 <__heap_start+0xa5e7>
    1e5f: 8e 14 c9     	stx	$c914                   ; 0xc914 <__heap_start+0xa5e8>
    1e62: 8e 15 c9     	stx	$c915                   ; 0xc915 <__heap_start+0xa5e9>
    1e65: 8e 16 c9     	stx	$c916                   ; 0xc916 <__heap_start+0xa5ea>
    1e68: 8e 17 c9     	stx	$c917                   ; 0xc917 <__heap_start+0xa5eb>
    1e6b: 8e 18 c9     	stx	$c918                   ; 0xc918 <__heap_start+0xa5ec>
    1e6e: 8e 19 c9     	stx	$c919                   ; 0xc919 <__heap_start+0xa5ed>
    1e71: 8e 1a c9     	stx	$c91a                   ; 0xc91a <__heap_start+0xa5ee>
    1e74: 8e 1b c9     	stx	$c91b                   ; 0xc91b <__heap_start+0xa5ef>
    1e77: 8e 1c c9     	stx	$c91c                   ; 0xc91c <__heap_start+0xa5f0>
    1e7a: 8e 1d c9     	stx	$c91d                   ; 0xc91d <__heap_start+0xa5f1>
    1e7d: 8e 1e c9     	stx	$c91e                   ; 0xc91e <__heap_start+0xa5f2>
    1e80: 8e 1f c9     	stx	$c91f                   ; 0xc91f <__heap_start+0xa5f3>
    1e83: 8e 20 c9     	stx	$c920                   ; 0xc920 <__heap_start+0xa5f4>
    1e86: 8e 21 c9     	stx	$c921                   ; 0xc921 <__heap_start+0xa5f5>
    1e89: 8e 22 c9     	stx	$c922                   ; 0xc922 <__heap_start+0xa5f6>
    1e8c: 8e 23 c9     	stx	$c923                   ; 0xc923 <__heap_start+0xa5f7>
    1e8f: 8e 24 c9     	stx	$c924                   ; 0xc924 <__heap_start+0xa5f8>
    1e92: 8e 25 c9     	stx	$c925                   ; 0xc925 <__heap_start+0xa5f9>
    1e95: 8e 26 c9     	stx	$c926                   ; 0xc926 <__heap_start+0xa5fa>
    1e98: 8e 27 c9     	stx	$c927                   ; 0xc927 <__heap_start+0xa5fb>
    1e9b: 8e 28 c9     	stx	$c928                   ; 0xc928 <__heap_start+0xa5fc>
    1e9e: 8e 29 c9     	stx	$c929                   ; 0xc929 <__heap_start+0xa5fd>
    1ea1: 8e 2a c9     	stx	$c92a                   ; 0xc92a <__heap_start+0xa5fe>
    1ea4: 8e 2b c9     	stx	$c92b                   ; 0xc92b <__heap_start+0xa5ff>
    1ea7: 8e 2c c9     	stx	$c92c                   ; 0xc92c <__heap_start+0xa600>
    1eaa: 8e 2d c9     	stx	$c92d                   ; 0xc92d <__heap_start+0xa601>
    1ead: 8e 2e c9     	stx	$c92e                   ; 0xc92e <__heap_start+0xa602>
    1eb0: 8e 2f c9     	stx	$c92f                   ; 0xc92f <__heap_start+0xa603>
    1eb3: 8e 30 c9     	stx	$c930                   ; 0xc930 <__heap_start+0xa604>
    1eb6: 8e 31 c9     	stx	$c931                   ; 0xc931 <__heap_start+0xa605>
    1eb9: 8e 32 c9     	stx	$c932                   ; 0xc932 <__heap_start+0xa606>
    1ebc: 8e 33 c9     	stx	$c933                   ; 0xc933 <__heap_start+0xa607>
    1ebf: 8e 34 c9     	stx	$c934                   ; 0xc934 <__heap_start+0xa608>
    1ec2: 8e 35 c9     	stx	$c935                   ; 0xc935 <__heap_start+0xa609>
    1ec5: 8e 36 c9     	stx	$c936                   ; 0xc936 <__heap_start+0xa60a>
    1ec8: 8e 37 c9     	stx	$c937                   ; 0xc937 <__heap_start+0xa60b>
    1ecb: 8e 38 c9     	stx	$c938                   ; 0xc938 <__heap_start+0xa60c>
    1ece: 8e 39 c9     	stx	$c939                   ; 0xc939 <__heap_start+0xa60d>
    1ed1: 8e 3a c9     	stx	$c93a                   ; 0xc93a <__heap_start+0xa60e>
    1ed4: 8e 3b c9     	stx	$c93b                   ; 0xc93b <__heap_start+0xa60f>
    1ed7: 8e 3c c9     	stx	$c93c                   ; 0xc93c <__heap_start+0xa610>
    1eda: 8e 3d c9     	stx	$c93d                   ; 0xc93d <__heap_start+0xa611>
    1edd: 8e 3e c9     	stx	$c93e                   ; 0xc93e <__heap_start+0xa612>
    1ee0: 8e 3f c9     	stx	$c93f                   ; 0xc93f <__heap_start+0xa613>
    1ee3: 8e 40 c9     	stx	$c940                   ; 0xc940 <__heap_start+0xa614>
    1ee6: 8e 41 c9     	stx	$c941                   ; 0xc941 <__heap_start+0xa615>
    1ee9: 8e 42 c9     	stx	$c942                   ; 0xc942 <__heap_start+0xa616>
    1eec: 8e 43 c9     	stx	$c943                   ; 0xc943 <__heap_start+0xa617>
    1eef: 8e 44 c9     	stx	$c944                   ; 0xc944 <__heap_start+0xa618>
    1ef2: 8e 45 c9     	stx	$c945                   ; 0xc945 <__heap_start+0xa619>
    1ef5: 8e 46 c9     	stx	$c946                   ; 0xc946 <__heap_start+0xa61a>
    1ef8: 8e 47 c9     	stx	$c947                   ; 0xc947 <__heap_start+0xa61b>
    1efb: 8e 48 c9     	stx	$c948                   ; 0xc948 <__heap_start+0xa61c>
    1efe: 8e 49 c9     	stx	$c949                   ; 0xc949 <__heap_start+0xa61d>
    1f01: 8e 4a c9     	stx	$c94a                   ; 0xc94a <__heap_start+0xa61e>
    1f04: 8e 4b c9     	stx	$c94b                   ; 0xc94b <__heap_start+0xa61f>
    1f07: 8e 4c c9     	stx	$c94c                   ; 0xc94c <__heap_start+0xa620>
    1f0a: 8e 4d c9     	stx	$c94d                   ; 0xc94d <__heap_start+0xa621>
    1f0d: 8e 4e c9     	stx	$c94e                   ; 0xc94e <__heap_start+0xa622>
    1f10: 8e 4f c9     	stx	$c94f                   ; 0xc94f <__heap_start+0xa623>
    1f13: 8e 50 c9     	stx	$c950                   ; 0xc950 <__heap_start+0xa624>
    1f16: 8e 51 c9     	stx	$c951                   ; 0xc951 <__heap_start+0xa625>
    1f19: 8e 52 c9     	stx	$c952                   ; 0xc952 <__heap_start+0xa626>
    1f1c: 8e 53 c9     	stx	$c953                   ; 0xc953 <__heap_start+0xa627>
    1f1f: 8e 54 c9     	stx	$c954                   ; 0xc954 <__heap_start+0xa628>
    1f22: 8e 55 c9     	stx	$c955                   ; 0xc955 <__heap_start+0xa629>
    1f25: 8e 56 c9     	stx	$c956                   ; 0xc956 <__heap_start+0xa62a>
    1f28: 8e 57 c9     	stx	$c957                   ; 0xc957 <__heap_start+0xa62b>
    1f2b: 8e 58 c9     	stx	$c958                   ; 0xc958 <__heap_start+0xa62c>
    1f2e: 8e 59 c9     	stx	$c959                   ; 0xc959 <__heap_start+0xa62d>
    1f31: 8e 5a c9     	stx	$c95a                   ; 0xc95a <__heap_start+0xa62e>
    1f34: 8e 5b c9     	stx	$c95b                   ; 0xc95b <__heap_start+0xa62f>
    1f37: 8e 5c c9     	stx	$c95c                   ; 0xc95c <__heap_start+0xa630>
    1f3a: 8e 5d c9     	stx	$c95d                   ; 0xc95d <__heap_start+0xa631>
    1f3d: 8e 5e c9     	stx	$c95e                   ; 0xc95e <__heap_start+0xa632>
    1f40: 8e 5f c9     	stx	$c95f                   ; 0xc95f <__heap_start+0xa633>
    1f43: c6 88        	dec	$88                     ; 0x88 <_row>
    1f45: 9c 08 de     	stz	$de08                   ; 0xde08 <__heap_start+0xbadc>
    1f48: a0 c0        	ldy	#$c0
    1f4a: 8c 09 de     	sty	$de09                   ; 0xde09 <__heap_start+0xbadd>
    1f4d: 9c 0a de     	stz	$de0a                   ; 0xde0a <__heap_start+0xbade>
    1f50: 9c 0b de     	stz	$de0b                   ; 0xde0b <__heap_start+0xbadf>
    1f53: a0 1d        	ldy	#$1d
    1f55: 8c 0c de     	sty	$de0c                   ; 0xde0c <__heap_start+0xbae0>
    1f58: 9c 0d de     	stz	$de0d                   ; 0xde0d <__heap_start+0xbae1>
    1f5b: 9c 0e de     	stz	$de0e                   ; 0xde0e <__heap_start+0xbae2>
    1f5e: 9c 0f de     	stz	$de0f                   ; 0xde0f <__heap_start+0xbae3>
    1f61: ac 18 de     	ldy	$de18                   ; 0xde18 <__heap_start+0xbaec>
    1f64: ad 19 de     	lda	$de19                   ; 0xde19 <__heap_start+0xbaed>
    1f67: 85 19        	sta	$19                     ; 0x19 <__rc9>
    1f69: ad 1a de     	lda	$de1a                   ; 0xde1a <__heap_start+0xbaee>
    1f6c: 84 18        	sty	$18                     ; 0x18 <__rc8>
    1f6e: ac 1b de     	ldy	$de1b                   ; 0xde1b <__heap_start+0xbaef>
    1f71: e6 14        	inc	$14                     ; 0x14 <__rc4>
    1f73: d0 02        	bne	$1f77 <textPrint+0x2f6>
    1f75: e6 15        	inc	$15                     ; 0x15 <__rc5>
    1f77: 80 13        	bra	$1f8c <textPrint+0x30b>
    1f79: a5 18        	lda	$18                     ; 0x18 <__rc8>
    1f7b: 18           	clc
    1f7c: 69 50        	adc	#$50
    1f7e: 85 18        	sta	$18                     ; 0x18 <__rc8>
    1f80: a5 19        	lda	$19                     ; 0x19 <__rc9>
    1f82: 69 00        	adc	#$0
    1f84: 85 19        	sta	$19                     ; 0x19 <__rc9>
    1f86: e6 14        	inc	$14                     ; 0x14 <__rc4>
    1f88: d0 02        	bne	$1f8c <textPrint+0x30b>
    1f8a: e6 15        	inc	$15                     ; 0x15 <__rc5>
    1f8c: a5 12        	lda	$12                     ; 0x12 <__rc2>
    1f8e: 18           	clc
    1f8f: 65 14        	adc	$14                     ; 0x14 <__rc4>
    1f91: 85 1a        	sta	$1a                     ; 0x1a <__rc10>
    1f93: a5 13        	lda	$13                     ; 0x13 <__rc3>
    1f95: 65 15        	adc	$15                     ; 0x15 <__rc5>
    1f97: 85 1b        	sta	$1b                     ; 0x1b <__rc11>
    1f99: b2 1a        	lda	($1a)                   ; 0x1a <__rc10>
    1f9b: c9 0a        	cmp	#$a
    1f9d: f0 36        	beq	$1fd5 <textPrint+0x354>
    1f9f: c9 0d        	cmp	#$d
    1fa1: f0 32        	beq	$1fd5 <textPrint+0x354>
    1fa3: a8           	tay
    1fa4: d0 03        	bne	$1fa9 <textPrint+0x328>
    1fa6: 4c fe 1f     	jmp	$1ffe <textPrint+0x37d>
    1fa9: a0 03        	ldy	#$3
    1fab: 84 01        	sty	$1                      ; 0x1 <__data_size+0x1>
    1fad: a5 86        	lda	$86                     ; 0x86 <_ccolor>
    1faf: 29 01        	and	#$1
    1fb1: a0 d2        	ldy	#$d2
    1fb3: 84 1e        	sty	$1e                     ; 0x1e <__rc14>
    1fb5: a8           	tay
    1fb6: d0 04        	bne	$1fbc <textPrint+0x33b>
    1fb8: a0 f0        	ldy	#$f0
    1fba: 84 1e        	sty	$1e                     ; 0x1e <__rc14>
    1fbc: a4 87        	ldy	$87                     ; 0x87 <_col>
    1fbe: a5 1e        	lda	$1e                     ; 0x1e <__rc14>
    1fc0: 91 18        	sta	($18),y                 ; 0x18 <__rc8>
    1fc2: a0 02        	ldy	#$2
    1fc4: 84 01        	sty	$1                      ; 0x1 <__data_size+0x1>
    1fc6: b2 1a        	lda	($1a)                   ; 0x1a <__rc10>
    1fc8: a4 87        	ldy	$87                     ; 0x87 <_col>
    1fca: 91 18        	sta	($18),y                 ; 0x18 <__rc8>
    1fcc: a4 87        	ldy	$87                     ; 0x87 <_col>
    1fce: c8           	iny
    1fcf: e6 87        	inc	$87                     ; 0x87 <_col>
    1fd1: c0 50        	cpy	#$50
    1fd3: d0 b1        	bne	$1f86 <textPrint+0x305>
    1fd5: 64 87        	stz	$87                     ; 0x87 <_col>
    1fd7: a4 88        	ldy	$88                     ; 0x88 <_row>
    1fd9: c8           	iny
    1fda: e6 88        	inc	$88                     ; 0x88 <_row>
    1fdc: c0 1e        	cpy	#$1e
    1fde: f0 03        	beq	$1fe3 <textPrint+0x362>
    1fe0: 4c 79 1f     	jmp	$1f79 <textPrint+0x2f8>
    1fe3: a0 03        	ldy	#$3
    1fe5: 84 01        	sty	$1                      ; 0x1 <__data_size+0x1>
    1fe7: a0 09        	ldy	#$9
    1fe9: a9 10        	lda	#$10
    1feb: 5a           	phy
    1fec: a0 00        	ldy	#$0
    1fee: 84 18        	sty	$18                     ; 0x18 <__rc8>
    1ff0: a0 c0        	ldy	#$c0
    1ff2: 84 19        	sty	$19                     ; 0x19 <__rc9>
    1ff4: 7a           	ply
    1ff5: 85 1b        	sta	$1b                     ; 0x1b <__rc11>
    1ff7: 84 1a        	sty	$1a                     ; 0x1a <__rc10>
    1ff9: a4 1d        	ldy	$1d                     ; 0x1d <__rc13>
    1ffb: 4c eb 1c     	jmp	$1ceb <textPrint+0x6a>
    1ffe: a6 1c        	ldx	$1c                     ; 0x1c <__rc12>
    2000: 86 01        	stx	$1                      ; 0x1 <__data_size+0x1>
    2002: a6 87        	ldx	$87                     ; 0x87 <_col>
    2004: a4 88        	ldy	$88                     ; 0x88 <_row>
    2006: 8e 14 d0     	stx	$d014                   ; 0xd014 <__heap_start+0xace8>
    2009: 9c 15 d0     	stz	$d015                   ; 0xd015 <__heap_start+0xace9>
    200c: 84 88        	sty	$88                     ; 0x88 <_row>
    200e: 8c 16 d0     	sty	$d016                   ; 0xd016 <__heap_start+0xacea>
    2011: 9c 17 d0     	stz	$d017                   ; 0xd017 <__heap_start+0xaceb>
    2014: 60           	rts

00002015 <exit>:
    2015: 20 6d 03     	jsr	$36d <_fini>
    2018: 80 fe        	bra	$2018 <exit+0x3>

0000201a <memcpy>:
    201a: a8           	tay
    201b: 8a           	txa
    201c: d0 03        	bne	$2021 <memcpy+0x7>
    201e: 98           	tya
    201f: f0 24        	beq	$2045 <memcpy+0x2b>
    2021: a5 12        	lda	$12                     ; 0x12 <__rc2>
    2023: 85 16        	sta	$16                     ; 0x16 <__rc6>
    2025: a5 13        	lda	$13                     ; 0x13 <__rc3>
    2027: 85 17        	sta	$17                     ; 0x17 <__rc7>
    2029: b2 14        	lda	($14)                   ; 0x14 <__rc4>
    202b: 92 16        	sta	($16)                   ; 0x16 <__rc6>
    202d: e6 16        	inc	$16                     ; 0x16 <__rc6>
    202f: d0 02        	bne	$2033 <memcpy+0x19>
    2031: e6 17        	inc	$17                     ; 0x17 <__rc7>
    2033: e6 14        	inc	$14                     ; 0x14 <__rc4>
    2035: d0 02        	bne	$2039 <memcpy+0x1f>
    2037: e6 15        	inc	$15                     ; 0x15 <__rc5>
    2039: 88           	dey
    203a: c0 ff        	cpy	#$ff
    203c: d0 01        	bne	$203f <memcpy+0x25>
    203e: ca           	dex
    203f: 8a           	txa
    2040: d0 e7        	bne	$2029 <memcpy+0xf>
    2042: 98           	tya
    2043: d0 e4        	bne	$2029 <memcpy+0xf>
    2045: 60           	rts

00002046 <__memset>:
    2046: a4 14        	ldy	$14                     ; 0x14 <__rc4>
    2048: d0 04        	bne	$204e <__memset+0x8>
    204a: e0 00        	cpx	#$0
    204c: f0 17        	beq	$2065 <__memset+0x1f>
    204e: 92 12        	sta	($12)                   ; 0x12 <__rc2>
    2050: e6 12        	inc	$12                     ; 0x12 <__rc2>
    2052: d0 02        	bne	$2056 <__memset+0x10>
    2054: e6 13        	inc	$13                     ; 0x13 <__rc3>
    2056: ca           	dex
    2057: e0 ff        	cpx	#$ff
    2059: d0 02        	bne	$205d <__memset+0x17>
    205b: c6 14        	dec	$14                     ; 0x14 <__rc4>
    205d: a4 14        	ldy	$14                     ; 0x14 <__rc4>
    205f: d0 ed        	bne	$204e <__memset+0x8>
    2061: e0 00        	cpx	#$0
    2063: d0 e9        	bne	$204e <__memset+0x8>
    2065: 60           	rts

00002066 <__mulhi3>:
    2066: a4 13        	ldy	$13                     ; 0x13 <__rc3>
    2068: d0 04        	bne	$206e <__mulhi3+0x8>
    206a: a4 12        	ldy	$12                     ; 0x12 <__rc2>
    206c: f0 25        	beq	$2093 <__mulhi3+0x2d>
    206e: 85 14        	sta	$14                     ; 0x14 <__rc4>
    2070: 86 15        	stx	$15                     ; 0x15 <__rc5>
    2072: a0 00        	ldy	#$0
    2074: 98           	tya
    2075: 46 13        	lsr	$13                     ; 0x13 <__rc3>
    2077: 66 12        	ror	$12                     ; 0x12 <__rc2>
    2079: 90 09        	bcc	$2084 <__mulhi3+0x1e>
    207b: aa           	tax
    207c: 98           	tya
    207d: 18           	clc
    207e: 65 14        	adc	$14                     ; 0x14 <__rc4>
    2080: a8           	tay
    2081: 8a           	txa
    2082: 65 15        	adc	$15                     ; 0x15 <__rc5>
    2084: 06 14        	asl	$14                     ; 0x14 <__rc4>
    2086: 26 15        	rol	$15                     ; 0x15 <__rc5>
    2088: a6 13        	ldx	$13                     ; 0x13 <__rc3>
    208a: d0 e9        	bne	$2075 <__mulhi3+0xf>
    208c: a6 12        	ldx	$12                     ; 0x12 <__rc2>
    208e: d0 e5        	bne	$2075 <__mulhi3+0xf>
    2090: aa           	tax
    2091: 98           	tya
    2092: 60           	rts
    2093: a0 00        	ldy	#$0
    2095: 98           	tya
    2096: 80 f8        	bra	$2090 <__mulhi3+0x2a>
