
psidplayer.elf:	file format elf32-mos

SYMBOL TABLE:
00000000 l    df *ABS*	00000000 zero-bss.c
00000000 l    df *ABS*	00000000 zero-zp-bss.c
00000000 l    df *ABS*	00000000 copy-zp-data.c
00000000 l    df *ABS*	00000000 ld-temp.o
00000576 l     F .text	0000034c sortFileList
000045f1 l     O .bss	000011f6 fpr
000041c9 l     F .text	00000032 __mulhi3
000008c2 l     F .text	00000c4d pickFile
00000034 l     O .zp.bss	00000007 kernelEventData
0000003b l     O .zp.bss	00000001 kernelError
00002ccd l     F .text	00000011 textGotoXY
00003ad5 l     F .text	00000082 printf
0000150f l     F .text	0000038c displayFileList
0000003c l     O .zp.bss	00000001 _col
0000003d l     O .zp.bss	00000001 _row
00003c31 l     F .text	000001e5 putchar
0000189b l     F .text	00000401 readDirectory
00002bb9 l     F .text	00000114 fileOpenDir
00002cde l     F .text	000000df fileReadDir
00000033 l     O .zp.data	00000001 _ccolor
00004446 l     O .rodata	00000030 textColors
0000003e l     O .zp.bss	00000008 _dirStream
00004578 l     O .bss	00000078 name
00003b57 l     F .text	000000da sprintf
00002a83 l     F .text	00000136 fileOpen
000057e7 l     O .bss	00000002 theFile
000045f0 l     O .bss	00000001 sidTimer.1
00003feb l     F .text	00000192 free
00003e16 l     F .text	000001d5 malloc
00004476 l     O .bss	00000102 fileReadDir.fileDirEntS
00002dc2 l     F .text	00000b34 _ZN12_GLOBAL__N_15printEPKcP6Status
000038f6 l     F .text	000000d3 _ZN12_GLOBAL__N_13putEcP6Status
000039c9 l     F .text	0000010c _ZN12_GLOBAL__N_112print_stringEPKcP6Status
00000046 l     O .zp.bss	00000002 __putchar.s
000057e9 l     O .bss	00000001 _ZN12_GLOBAL__N_111initializedE
0000031c l     F .text	0000013d _ZN12_GLOBAL__N_19FreeChunk6insertEPvj
000057ea l     O .bss	00000001 _ZN12_GLOBAL__N_19last_freeE
000057ed l     O .bss	00000002 _ZN12_GLOBAL__N_19free_listE
0000045a l     F .text	000000df _ZN12_GLOBAL__N_19FreeChunk6removeEv
000057eb l     O .bss	00000002 _ZN12_GLOBAL__N_19free_sizeE
00001c9c g     F .text	00000de7 main
00000318 g       .text	00000000 __after_main
00000304 g       .text	00000000 __do_init_stack
00000312 g       .text	00000000 __do_copy_zp_data
0000055f g     F .text	00000017 __copy_zp_data
0000030c g       .text	00000000 __do_zero_bss
00000539 g     F .text	00000013 __zero_bss
0000030f g       .text	00000000 __do_zero_zp_bss
0000054c g     F .text	00000013 __zero_zp_bss
00002dbd g     F .text	00000005 exit
0000031b g       .text	00000000 _fini
000041fb g       .rodata	00000000 __set_v
000041a9  w    F .text	00000020 __memset
00001000  w      *ABS*	00000000 __heap_default_limit
000057f0 g       .noinit	00000000 __heap_start
0000417d  w    F .text	0000002c memcpy
00000010 g       *ABS*	00000000 __rc0
00000012 g       *ABS*	00000000 __rc2
00000014 g       *ABS*	00000000 __rc4
00000016 g       *ABS*	00000000 __rc6
00000018 g       *ABS*	00000000 __rc8
0000001a g       *ABS*	00000000 __rc10
0000001c g       *ABS*	00000000 __rc12
0000001e g       *ABS*	00000000 __rc14
00000020 g       *ABS*	00000000 __rc16
00000022 g       *ABS*	00000000 __rc18
00000024 g       *ABS*	00000000 __rc20
00000026 g       *ABS*	00000000 __rc22
00000028 g       *ABS*	00000000 __rc24
0000002a g       *ABS*	00000000 __rc26
0000002c g       *ABS*	00000000 __rc28
0000002e g       *ABS*	00000000 __rc30
0000002f g       *ABS*	00000000 __rc31
00000300 g       *ABS*	00000000 __f256_start
0000c000 g       *ABS*	00000000 __stack
0000c000 g       *ABS*	00000000 __SLOT_ADDR
0800c000 g       *ABS*	00000000 __block8_lma
00002000 g       *ABS*	00000000 __BLOCK_SIZE
0900c000 g       *ABS*	00000000 __block9_lma
0a00c000 g       *ABS*	00000000 __block10_lma
0b00c000 g       *ABS*	00000000 __block11_lma
0c00c000 g       *ABS*	00000000 __block12_lma
0d00c000 g       *ABS*	00000000 __block13_lma
0e00c000 g       *ABS*	00000000 __block14_lma
0f00c000 g       *ABS*	00000000 __block15_lma
1000c000 g       *ABS*	00000000 __block16_lma
1100c000 g       *ABS*	00000000 __block17_lma
1200c000 g       *ABS*	00000000 __block18_lma
1300c000 g       *ABS*	00000000 __block19_lma
1400c000 g       *ABS*	00000000 __block20_lma
1500c000 g       *ABS*	00000000 __block21_lma
1600c000 g       *ABS*	00000000 __block22_lma
1700c000 g       *ABS*	00000000 __block23_lma
00004476 g       .bss	00000000 __bss_start
00000304 g       .text	00000000 _start
0000002d g       *ABS*	00000000 __rc29
0000002b g       *ABS*	00000000 __rc27
00000029 g       *ABS*	00000000 __rc25
00000027 g       *ABS*	00000000 __rc23
00000025 g       *ABS*	00000000 __rc21
00000023 g       *ABS*	00000000 __rc19
00000021 g       *ABS*	00000000 __rc17
0000001f g       *ABS*	00000000 __rc15
0000001d g       *ABS*	00000000 __rc13
0000001b g       *ABS*	00000000 __rc11
00000019 g       *ABS*	00000000 __rc9
00000017 g       *ABS*	00000000 __rc7
00000015 g       *ABS*	00000000 __rc5
00000013 g       *ABS*	00000000 __rc3
00000011 g       *ABS*	00000000 __rc1
00000030 g       .zp.data	00000000 __zp_data_start
00000300 g       *ABS*	00000000 __zp_data_load_start
00000004 g       *ABS*	00000000 __zp_data_size
00000034 g       .zp.bss	00000000 __zp_bss_start
00000014 g       *ABS*	00000000 __zp_bss_size
00000304 g       .text	00000000 _init
000041fb g       .text	00000000 __init_array_start
000041fb g       .text	00000000 __init_array_end
000041fb g       .text	00000000 __fini_array_start
000041fb g       .text	00000000 __fini_array_end
00004476 g       .data	00000000 __data_start
00004476 g       .data	00000000 __data_end
00004476 g       *ABS*	00000000 __data_load_start
00000000 g       *ABS*	00000000 __data_size
000057ef g       .bss	00000000 __bss_end
00001379 g       *ABS*	00000000 __bss_size
000057ef g       .noinit	00000000 end_block8
000057ef g       .noinit	00000000 end_block9
000057ef g       .noinit	00000000 end_block10
000057ef g       .noinit	00000000 end_block11
000057ef g       .noinit	00000000 end_block12
000057ef g       .noinit	00000000 end_block13
000057ef g       .noinit	00000000 end_block14
000057ef g       .noinit	00000000 end_block15
000057ef g       .noinit	00000000 end_block16
000057ef g       .noinit	00000000 end_block17
000057ef g       .noinit	00000000 end_block18
000057ef g       .noinit	00000000 end_block19
000057ef g       .noinit	00000000 end_block20
000057ef g       .noinit	00000000 end_block21
000057ef g       .noinit	00000000 end_block22
000057ef g       .noinit	00000000 end_block23

Disassembly of section .text:

00000304 <_start>:
     304: a9 00        	lda	#$0
     306: 85 10        	sta	$10                     ; 0x2010 <main+0x374>
     308: a9 c0        	lda	#$c0
     30a: 85 11        	sta	$11                     ; 0x2011 <main+0x375>

0000030c <__do_zero_bss>:
     30c: 20 39 05     	jsr	$539 <__zero_bss>

0000030f <__do_zero_zp_bss>:
     30f: 20 4c 05     	jsr	$54c <__zero_zp_bss>

00000312 <__do_copy_zp_data>:
     312: 20 5f 05     	jsr	$55f <__copy_zp_data>
     315: 20 9c 1c     	jsr	$1c9c <main>

00000318 <__after_main>:
     318: 4c bd 2d     	jmp	$2dbd <exit>

0000031b <_fini>:
     31b: 60           	rts

0000031c <_ZN12_GLOBAL__N_19FreeChunk6insertEPvj>:
     31c: 85 16        	sta	$16                     ; 0x2016 <main+0x37a>
     31e: 29 fe        	and	#$fe
     320: 85 14        	sta	$14                     ; 0x2014 <main+0x378>
     322: a0 01        	ldy	#$1
     324: 98           	tya
     325: 32 12        	and	($12)                   ; 0x2012 <main+0x376>
     327: 05 14        	ora	$14                     ; 0x2014 <main+0x378>
     329: 92 12        	sta	($12)                   ; 0x2012 <main+0x376>
     32b: a5 12        	lda	$12                     ; 0x2012 <main+0x376>
     32d: 18           	clc
     32e: 65 14        	adc	$14                     ; 0x2014 <main+0x378>
     330: 85 15        	sta	$15                     ; 0x2015 <main+0x379>
     332: 8a           	txa
     333: 65 13        	adc	$13                     ; 0x2013 <main+0x377>
     335: 85 14        	sta	$14                     ; 0x2014 <main+0x378>
     337: 18           	clc
     338: a5 15        	lda	$15                     ; 0x2015 <main+0x379>
     33a: 69 fe        	adc	#$fe
     33c: 85 17        	sta	$17                     ; 0x2017 <main+0x37b>
     33e: a5 14        	lda	$14                     ; 0x2014 <main+0x378>
     340: 69 ff        	adc	#$ff
     342: 85 15        	sta	$15                     ; 0x2015 <main+0x379>
     344: a5 17        	lda	$17                     ; 0x2017 <main+0x37b>
     346: 85 14        	sta	$14                     ; 0x2014 <main+0x378>
     348: 8a           	txa
     349: 91 12        	sta	($12),y                 ; 0x2012 <main+0x376>
     34b: a5 16        	lda	$16                     ; 0x2016 <main+0x37a>
     34d: 92 14        	sta	($14)                   ; 0x2014 <main+0x378>
     34f: 8a           	txa
     350: 91 14        	sta	($14),y                 ; 0x2014 <main+0x378>
     352: b1 12        	lda	($12),y                 ; 0x2012 <main+0x376>
     354: 85 14        	sta	$14                     ; 0x2014 <main+0x378>
     356: a9 fe        	lda	#$fe
     358: 32 12        	and	($12)                   ; 0x2012 <main+0x376>
     35a: 18           	clc
     35b: 6d eb 57     	adc	$57eb                   ; 0x57eb <_ZN12_GLOBAL__N_19free_sizeE>
     35e: aa           	tax
     35f: a5 14        	lda	$14                     ; 0x2014 <main+0x378>
     361: 6d ec 57     	adc	$57ec                   ; 0x57ec <_ZN12_GLOBAL__N_19free_sizeE+0x1>
     364: a8           	tay
     365: 18           	clc
     366: 8a           	txa
     367: 69 fe        	adc	#$fe
     369: aa           	tax
     36a: 98           	tya
     36b: 69 ff        	adc	#$ff
     36d: 8e eb 57     	stx	$57eb                   ; 0x57eb <_ZN12_GLOBAL__N_19free_sizeE>
     370: 8d ec 57     	sta	$57ec                   ; 0x57ec <_ZN12_GLOBAL__N_19free_sizeE+0x1>
     373: ae ed 57     	ldx	$57ed                   ; 0x57ed <_ZN12_GLOBAL__N_19free_listE>
     376: 86 16        	stx	$16                     ; 0x2016 <main+0x37a>
     378: ac ee 57     	ldy	$57ee                   ; 0x57ee <_ZN12_GLOBAL__N_19free_listE+0x1>
     37b: a2 00        	ldx	#$0
     37d: 86 14        	stx	$14                     ; 0x2014 <main+0x378>
     37f: a2 00        	ldx	#$0
     381: 86 15        	stx	$15                     ; 0x2015 <main+0x379>
     383: c4 15        	cpy	$15                     ; 0x2015 <main+0x379>
     385: d0 3e        	bne	$3c5 <_ZN12_GLOBAL__N_19FreeChunk6insertEPvj+0xa9>
     387: a6 16        	ldx	$16                     ; 0x2016 <main+0x37a>
     389: e4 14        	cpx	$14                     ; 0x2014 <main+0x378>
     38b: d0 38        	bne	$3c5 <_ZN12_GLOBAL__N_19FreeChunk6insertEPvj+0xa9>
     38d: a0 04        	ldy	#$4
     38f: a5 12        	lda	$12                     ; 0x2012 <main+0x376>
     391: 18           	clc
     392: 69 04        	adc	#$4
     394: 85 14        	sta	$14                     ; 0x2014 <main+0x378>
     396: a5 13        	lda	$13                     ; 0x2013 <main+0x377>
     398: 69 00        	adc	#$0
     39a: 18           	clc
     39b: 85 15        	sta	$15                     ; 0x2015 <main+0x379>
     39d: a5 12        	lda	$12                     ; 0x2012 <main+0x376>
     39f: 91 12        	sta	($12),y                 ; 0x2012 <main+0x376>
     3a1: a0 02        	ldy	#$2
     3a3: 85 17        	sta	$17                     ; 0x2017 <main+0x37b>
     3a5: 69 02        	adc	#$2
     3a7: 85 16        	sta	$16                     ; 0x2016 <main+0x37a>
     3a9: a5 17        	lda	$17                     ; 0x2017 <main+0x37b>
     3ab: 91 12        	sta	($12),y                 ; 0x2012 <main+0x376>
     3ad: a5 13        	lda	$13                     ; 0x2013 <main+0x377>
     3af: 69 00        	adc	#$0
     3b1: 85 17        	sta	$17                     ; 0x2017 <main+0x37b>
     3b3: 88           	dey
     3b4: a5 13        	lda	$13                     ; 0x2013 <main+0x377>
     3b6: 91 14        	sta	($14),y                 ; 0x2014 <main+0x378>
     3b8: 91 16        	sta	($16),y                 ; 0x2016 <main+0x37a>
     3ba: a6 12        	ldx	$12                     ; 0x2012 <main+0x376>
     3bc: 8e ed 57     	stx	$57ed                   ; 0x57ed <_ZN12_GLOBAL__N_19free_listE>
     3bf: a6 13        	ldx	$13                     ; 0x2013 <main+0x377>
     3c1: 8e ee 57     	stx	$57ee                   ; 0x57ee <_ZN12_GLOBAL__N_19free_listE+0x1>
     3c4: 60           	rts
     3c5: a6 12        	ldx	$12                     ; 0x2012 <main+0x376>
     3c7: a5 12        	lda	$12                     ; 0x2012 <main+0x376>
     3c9: 18           	clc
     3ca: 69 02        	adc	#$2
     3cc: 85 14        	sta	$14                     ; 0x2014 <main+0x378>
     3ce: 84 18        	sty	$18                     ; 0x2018 <main+0x37c>
     3d0: a5 13        	lda	$13                     ; 0x2013 <main+0x377>
     3d2: 69 00        	adc	#$0
     3d4: 85 15        	sta	$15                     ; 0x2015 <main+0x379>
     3d6: a5 16        	lda	$16                     ; 0x2016 <main+0x37a>
     3d8: 84 17        	sty	$17                     ; 0x2017 <main+0x37b>
     3da: a0 02        	ldy	#$2
     3dc: 91 12        	sta	($12),y                 ; 0x2012 <main+0x376>
     3de: 85 19        	sta	$19                     ; 0x2019 <main+0x37d>
     3e0: 88           	dey
     3e1: a5 18        	lda	$18                     ; 0x2018 <main+0x37c>
     3e3: 91 14        	sta	($14),y                 ; 0x2014 <main+0x378>
     3e5: 18           	clc
     3e6: a5 19        	lda	$19                     ; 0x2019 <main+0x37d>
     3e8: 69 04        	adc	#$4
     3ea: a8           	tay
     3eb: a5 18        	lda	$18                     ; 0x2018 <main+0x37c>
     3ed: 69 00        	adc	#$0
     3ef: 85 19        	sta	$19                     ; 0x2019 <main+0x37d>
     3f1: 84 18        	sty	$18                     ; 0x2018 <main+0x37c>
     3f3: 8a           	txa
     3f4: 18           	clc
     3f5: 69 04        	adc	#$4
     3f7: 85 1a        	sta	$1a                     ; 0x201a <main+0x37e>
     3f9: a5 13        	lda	$13                     ; 0x2013 <main+0x377>
     3fb: 69 00        	adc	#$0
     3fd: 85 1b        	sta	$1b                     ; 0x201b <main+0x37f>
     3ff: a0 04        	ldy	#$4
     401: b1 16        	lda	($16),y                 ; 0x2016 <main+0x37a>
     403: 85 16        	sta	$16                     ; 0x2016 <main+0x37a>
     405: 85 1d        	sta	$1d                     ; 0x201d <main+0x381>
     407: a0 01        	ldy	#$1
     409: b1 18        	lda	($18),y                 ; 0x2018 <main+0x37c>
     40b: 85 17        	sta	$17                     ; 0x2017 <main+0x37b>
     40d: 85 19        	sta	$19                     ; 0x2019 <main+0x37d>
     40f: a0 04        	ldy	#$4
     411: a5 1d        	lda	$1d                     ; 0x201d <main+0x381>
     413: 91 12        	sta	($12),y                 ; 0x2012 <main+0x376>
     415: a5 19        	lda	$19                     ; 0x2019 <main+0x37d>
     417: a0 01        	ldy	#$1
     419: 91 1a        	sta	($1a),y                 ; 0x201a <main+0x37e>
     41b: 18           	clc
     41c: a5 1d        	lda	$1d                     ; 0x201d <main+0x381>
     41e: 69 02        	adc	#$2
     420: 85 18        	sta	$18                     ; 0x2018 <main+0x37c>
     422: a5 19        	lda	$19                     ; 0x2019 <main+0x37d>
     424: 69 00        	adc	#$0
     426: 85 19        	sta	$19                     ; 0x2019 <main+0x37d>
     428: 8a           	txa
     429: c8           	iny
     42a: 91 16        	sta	($16),y                 ; 0x2016 <main+0x37a>
     42c: a5 13        	lda	$13                     ; 0x2013 <main+0x377>
     42e: 88           	dey
     42f: 91 18        	sta	($18),y                 ; 0x2018 <main+0x37c>
     431: c8           	iny
     432: b1 12        	lda	($12),y                 ; 0x2012 <main+0x376>
     434: 85 16        	sta	$16                     ; 0x2016 <main+0x37a>
     436: 85 18        	sta	$18                     ; 0x2018 <main+0x37c>
     438: 88           	dey
     439: b1 14        	lda	($14),y                 ; 0x2014 <main+0x378>
     43b: 85 17        	sta	$17                     ; 0x2017 <main+0x37b>
     43d: 85 14        	sta	$14                     ; 0x2014 <main+0x378>
     43f: 8a           	txa
     440: a0 04        	ldy	#$4
     442: 91 16        	sta	($16),y                 ; 0x2016 <main+0x37a>
     444: 18           	clc
     445: a5 18        	lda	$18                     ; 0x2018 <main+0x37c>
     447: 69 04        	adc	#$4
     449: a8           	tay
     44a: a5 14        	lda	$14                     ; 0x2014 <main+0x378>
     44c: 69 00        	adc	#$0
     44e: 84 14        	sty	$14                     ; 0x2014 <main+0x378>
     450: 85 15        	sta	$15                     ; 0x2015 <main+0x379>
     452: a5 13        	lda	$13                     ; 0x2013 <main+0x377>
     454: a0 01        	ldy	#$1
     456: 91 14        	sta	($14),y                 ; 0x2014 <main+0x378>
     458: 60           	rts
     459: 00           	brk

0000045a <_ZN12_GLOBAL__N_19FreeChunk6removeEv>:
     45a: a0 01        	ldy	#$1
     45c: a9 fe        	lda	#$fe
     45e: 32 12        	and	($12)                   ; 0x2012 <main+0x376>
     460: 85 14        	sta	$14                     ; 0x2014 <main+0x378>
     462: ad eb 57     	lda	$57eb                   ; 0x57eb <_ZN12_GLOBAL__N_19free_sizeE>
     465: ae ec 57     	ldx	$57ec                   ; 0x57ec <_ZN12_GLOBAL__N_19free_sizeE+0x1>
     468: 86 15        	stx	$15                     ; 0x2015 <main+0x379>
     46a: 38           	sec
     46b: e5 14        	sbc	$14                     ; 0x2014 <main+0x378>
     46d: aa           	tax
     46e: a5 15        	lda	$15                     ; 0x2015 <main+0x379>
     470: f1 12        	sbc	($12),y                 ; 0x2012 <main+0x376>
     472: 85 14        	sta	$14                     ; 0x2014 <main+0x378>
     474: 18           	clc
     475: 8a           	txa
     476: 69 02        	adc	#$2
     478: 85 15        	sta	$15                     ; 0x2015 <main+0x379>
     47a: a5 14        	lda	$14                     ; 0x2014 <main+0x378>
     47c: 69 00        	adc	#$0
     47e: a6 15        	ldx	$15                     ; 0x2015 <main+0x379>
     480: 8e eb 57     	stx	$57eb                   ; 0x57eb <_ZN12_GLOBAL__N_19free_sizeE>
     483: 8d ec 57     	sta	$57ec                   ; 0x57ec <_ZN12_GLOBAL__N_19free_sizeE+0x1>
     486: a5 12        	lda	$12                     ; 0x2012 <main+0x376>
     488: 18           	clc
     489: 69 02        	adc	#$2
     48b: 85 14        	sta	$14                     ; 0x2014 <main+0x378>
     48d: a5 13        	lda	$13                     ; 0x2013 <main+0x377>
     48f: 69 00        	adc	#$0
     491: c8           	iny
     492: 85 15        	sta	$15                     ; 0x2015 <main+0x379>
     494: b1 12        	lda	($12),y                 ; 0x2012 <main+0x376>
     496: aa           	tax
     497: 88           	dey
     498: b1 14        	lda	($14),y                 ; 0x2014 <main+0x378>
     49a: 85 19        	sta	$19                     ; 0x2019 <main+0x37d>
     49c: c5 13        	cmp	$13                     ; 0x2013 <main+0x377>
     49e: d0 0f        	bne	$4af <_ZN12_GLOBAL__N_19FreeChunk6removeEv+0x55>
     4a0: e4 12        	cpx	$12                     ; 0x2012 <main+0x376>
     4a2: d0 0b        	bne	$4af <_ZN12_GLOBAL__N_19FreeChunk6removeEv+0x55>
     4a4: a2 00        	ldx	#$0
     4a6: 86 14        	stx	$14                     ; 0x2014 <main+0x378>
     4a8: a2 00        	ldx	#$0
     4aa: 86 15        	stx	$15                     ; 0x2015 <main+0x379>
     4ac: 4c 2e 05     	jmp	$52e <_ZN12_GLOBAL__N_19FreeChunk6removeEv+0xd4>
     4af: 86 18        	stx	$18                     ; 0x2018 <main+0x37c>
     4b1: a6 12        	ldx	$12                     ; 0x2012 <main+0x376>
     4b3: a5 12        	lda	$12                     ; 0x2012 <main+0x376>
     4b5: 86 1b        	stx	$1b                     ; 0x201b <main+0x37f>
     4b7: 18           	clc
     4b8: 69 04        	adc	#$4
     4ba: 85 14        	sta	$14                     ; 0x2014 <main+0x378>
     4bc: a5 13        	lda	$13                     ; 0x2013 <main+0x377>
     4be: 69 00        	adc	#$0
     4c0: a0 04        	ldy	#$4
     4c2: 85 15        	sta	$15                     ; 0x2015 <main+0x379>
     4c4: b1 12        	lda	($12),y                 ; 0x2012 <main+0x376>
     4c6: 85 1c        	sta	$1c                     ; 0x201c <main+0x380>
     4c8: 18           	clc
     4c9: 69 02        	adc	#$2
     4cb: 85 16        	sta	$16                     ; 0x2016 <main+0x37a>
     4cd: a0 01        	ldy	#$1
     4cf: b1 14        	lda	($14),y                 ; 0x2014 <main+0x378>
     4d1: aa           	tax
     4d2: 69 00        	adc	#$0
     4d4: a4 16        	ldy	$16                     ; 0x2016 <main+0x37a>
     4d6: 84 14        	sty	$14                     ; 0x2014 <main+0x378>
     4d8: 85 15        	sta	$15                     ; 0x2015 <main+0x379>
     4da: a4 1c        	ldy	$1c                     ; 0x201c <main+0x380>
     4dc: 84 16        	sty	$16                     ; 0x2016 <main+0x37a>
     4de: 86 17        	stx	$17                     ; 0x2017 <main+0x37b>
     4e0: a0 02        	ldy	#$2
     4e2: a5 18        	lda	$18                     ; 0x2018 <main+0x37c>
     4e4: 91 16        	sta	($16),y                 ; 0x2016 <main+0x37a>
     4e6: a5 19        	lda	$19                     ; 0x2019 <main+0x37d>
     4e8: 88           	dey
     4e9: 91 14        	sta	($14),y                 ; 0x2014 <main+0x378>
     4eb: 18           	clc
     4ec: a5 1b        	lda	$1b                     ; 0x201b <main+0x37f>
     4ee: 69 02        	adc	#$2
     4f0: 85 14        	sta	$14                     ; 0x2014 <main+0x378>
     4f2: a5 13        	lda	$13                     ; 0x2013 <main+0x377>
     4f4: 69 00        	adc	#$0
     4f6: 85 15        	sta	$15                     ; 0x2015 <main+0x379>
     4f8: c8           	iny
     4f9: b1 12        	lda	($12),y                 ; 0x2012 <main+0x376>
     4fb: 85 16        	sta	$16                     ; 0x2016 <main+0x37a>
     4fd: 88           	dey
     4fe: b1 14        	lda	($14),y                 ; 0x2014 <main+0x378>
     500: a4 16        	ldy	$16                     ; 0x2016 <main+0x37a>
     502: 84 14        	sty	$14                     ; 0x2014 <main+0x378>
     504: 85 15        	sta	$15                     ; 0x2015 <main+0x379>
     506: 85 17        	sta	$17                     ; 0x2017 <main+0x37b>
     508: a0 04        	ldy	#$4
     50a: a5 1c        	lda	$1c                     ; 0x201c <main+0x380>
     50c: 91 14        	sta	($14),y                 ; 0x2014 <main+0x378>
     50e: 18           	clc
     50f: a5 16        	lda	$16                     ; 0x2016 <main+0x37a>
     511: 69 04        	adc	#$4
     513: 85 16        	sta	$16                     ; 0x2016 <main+0x37a>
     515: a5 17        	lda	$17                     ; 0x2017 <main+0x37b>
     517: 69 00        	adc	#$0
     519: 85 17        	sta	$17                     ; 0x2017 <main+0x37b>
     51b: 8a           	txa
     51c: a0 01        	ldy	#$1
     51e: 91 16        	sta	($16),y                 ; 0x2016 <main+0x37a>
     520: ae ee 57     	ldx	$57ee                   ; 0x57ee <_ZN12_GLOBAL__N_19free_listE+0x1>
     523: e4 13        	cpx	$13                     ; 0x2013 <main+0x377>
     525: d0 11        	bne	$538 <_ZN12_GLOBAL__N_19FreeChunk6removeEv+0xde>
     527: ae ed 57     	ldx	$57ed                   ; 0x57ed <_ZN12_GLOBAL__N_19free_listE>
     52a: e4 12        	cpx	$12                     ; 0x2012 <main+0x376>
     52c: d0 0a        	bne	$538 <_ZN12_GLOBAL__N_19FreeChunk6removeEv+0xde>
     52e: a6 14        	ldx	$14                     ; 0x2014 <main+0x378>
     530: a4 15        	ldy	$15                     ; 0x2015 <main+0x379>
     532: 8e ed 57     	stx	$57ed                   ; 0x57ed <_ZN12_GLOBAL__N_19free_listE>
     535: 8c ee 57     	sty	$57ee                   ; 0x57ee <_ZN12_GLOBAL__N_19free_listE+0x1>
     538: 60           	rts

00000539 <__zero_bss>:
     539: a2 79        	ldx	#$79
     53b: a0 13        	ldy	#$13
     53d: a9 76        	lda	#$76
     53f: 85 12        	sta	$12                     ; 0x2012 <main+0x376>
     541: a9 44        	lda	#$44
     543: 85 13        	sta	$13                     ; 0x2013 <main+0x377>
     545: a9 00        	lda	#$0
     547: 84 14        	sty	$14                     ; 0x2014 <main+0x378>
     549: 4c a9 41     	jmp	$41a9 <__memset>

0000054c <__zero_zp_bss>:
     54c: a2 14        	ldx	#$14
     54e: a0 00        	ldy	#$0
     550: a9 34        	lda	#$34
     552: 85 12        	sta	$12                     ; 0x2012 <main+0x376>
     554: a9 00        	lda	#$0
     556: 85 13        	sta	$13                     ; 0x2013 <main+0x377>
     558: a9 00        	lda	#$0
     55a: 84 14        	sty	$14                     ; 0x2014 <main+0x378>
     55c: 4c a9 41     	jmp	$41a9 <__memset>

0000055f <__copy_zp_data>:
     55f: a9 04        	lda	#$4
     561: a2 00        	ldx	#$0
     563: a0 30        	ldy	#$30
     565: 84 12        	sty	$12                     ; 0x2012 <main+0x376>
     567: a0 00        	ldy	#$0
     569: 84 13        	sty	$13                     ; 0x2013 <main+0x377>
     56b: a0 00        	ldy	#$0
     56d: 84 14        	sty	$14                     ; 0x2014 <main+0x378>
     56f: a0 03        	ldy	#$3
     571: 84 15        	sty	$15                     ; 0x2015 <main+0x379>
     573: 4c 7d 41     	jmp	$417d <memcpy>

00000576 <sortFileList>:
     576: a6 30        	ldx	$30                     ; 0x2030 <main+0x394>
     578: 8e 3f 46     	stx	$463f                   ; 0x463f <fpr+0x4e>
     57b: a6 31        	ldx	$31                     ; 0x2031 <main+0x395>
     57d: 8e 40 46     	stx	$4640                   ; 0x4640 <fpr+0x4f>
     580: a6 32        	ldx	$32                     ; 0x2032 <main+0x396>
     582: 8e 41 46     	stx	$4641                   ; 0x4641 <fpr+0x50>
     585: a2 01        	ldx	#$1
     587: 8e 6f 57     	stx	$576f                   ; 0x576f <fpr+0x117e>
     58a: ad d3 57     	lda	$57d3                   ; 0x57d3 <fpr+0x11e2>
     58d: ac d4 57     	ldy	$57d4                   ; 0x57d4 <fpr+0x11e3>
     590: 85 81        	sta	$81                     ; 0x2081 <main+0x3e5>
     592: c9 03        	cmp	#$3
     594: 98           	tya
     595: 84 82        	sty	$82                     ; 0x2082 <main+0x3e6>
     597: e9 00        	sbc	#$0
     599: 50 02        	bvc	$59d <sortFileList+0x27>
     59b: 49 80        	eor	#$80
     59d: aa           	tax
     59e: 10 03        	bpl	$5a3 <sortFileList+0x2d>
     5a0: 4c c1 08     	jmp	$8c1 <sortFileList+0x34b>
     5a3: a2 54        	ldx	#$54
     5a5: a0 00        	ldy	#$0
     5a7: 86 12        	stx	$12                     ; 0x2012 <main+0x376>
     5a9: 84 13        	sty	$13                     ; 0x2013 <main+0x377>
     5ab: e6 12        	inc	$12                     ; 0x2012 <main+0x376>
     5ad: d0 02        	bne	$5b1 <sortFileList+0x3b>
     5af: e6 13        	inc	$13                     ; 0x2013 <main+0x377>
     5b1: a6 12        	ldx	$12                     ; 0x2012 <main+0x376>
     5b3: 86 86        	stx	$86                     ; 0x2086 <main+0x3ea>
     5b5: a6 13        	ldx	$13                     ; 0x2013 <main+0x377>
     5b7: 86 87        	stx	$87                     ; 0x2087 <main+0x3eb>
     5b9: a2 01        	ldx	#$1
     5bb: 86 80        	stx	$80                     ; 0x2080 <main+0x3e4>
     5bd: 64 18        	stz	$18                     ; 0x2018 <main+0x37c>
     5bf: 4c 85 08     	jmp	$885 <sortFileList+0x30f>
     5c2: a2 2c        	ldx	#$2c
     5c4: a4 49        	ldy	$49                     ; 0x2049 <main+0x3ad>
     5c6: c4 12        	cpy	$12                     ; 0x2012 <main+0x376>
     5c8: f0 03        	beq	$5cd <sortFileList+0x57>
     5ca: 4c 78 06     	jmp	$678 <sortFileList+0x102>
     5cd: a4 50        	ldy	$50                     ; 0x2050 <main+0x3b4>
     5cf: 84 83        	sty	$83                     ; 0x2083 <main+0x3e7>
     5d1: a4 51        	ldy	$51                     ; 0x2051 <main+0x3b5>
     5d3: 84 84        	sty	$84                     ; 0x2084 <main+0x3e8>
     5d5: a4 80        	ldy	$80                     ; 0x2080 <main+0x3e4>
     5d7: 84 4b        	sty	$4b                     ; 0x204b <main+0x3af>
     5d9: 86 12        	stx	$12                     ; 0x2012 <main+0x376>
     5db: 64 13        	stz	$13                     ; 0x2013 <main+0x377>
     5dd: a6 4d        	ldx	$4d                     ; 0x204d <main+0x3b1>
     5df: a5 4a        	lda	$4a                     ; 0x204a <main+0x3ae>
     5e1: 20 c9 41     	jsr	$41c9 <__mulhi3>
     5e4: 85 12        	sta	$12                     ; 0x2012 <main+0x376>
     5e6: 86 13        	stx	$13                     ; 0x2013 <main+0x377>
     5e8: a9 3f        	lda	#$3f
     5ea: 18           	clc
     5eb: 65 12        	adc	$12                     ; 0x2012 <main+0x376>
     5ed: 85 50        	sta	$50                     ; 0x2050 <main+0x3b4>
     5ef: a9 46        	lda	#$46
     5f1: 65 13        	adc	$13                     ; 0x2013 <main+0x377>
     5f3: 85 51        	sta	$51                     ; 0x2051 <main+0x3b5>
     5f5: a2 2c        	ldx	#$2c
     5f7: 86 12        	stx	$12                     ; 0x2012 <main+0x376>
     5f9: 64 13        	stz	$13                     ; 0x2013 <main+0x377>
     5fb: a6 48        	ldx	$48                     ; 0x2048 <main+0x3ac>
     5fd: a5 4c        	lda	$4c                     ; 0x204c <main+0x3b0>
     5ff: 20 c9 41     	jsr	$41c9 <__mulhi3>
     602: 85 14        	sta	$14                     ; 0x2014 <main+0x378>
     604: b2 50        	lda	($50)                   ; 0x2050 <main+0x3b4>
     606: 64 12        	stz	$12                     ; 0x2012 <main+0x376>
     608: d0 03        	bne	$60d <sortFileList+0x97>
     60a: 4c 7f 06     	jmp	$67f <sortFileList+0x109>
     60d: a6 4e        	ldx	$4e                     ; 0x204e <main+0x3b2>
     60f: 86 16        	stx	$16                     ; 0x2016 <main+0x37a>
     611: a6 4f        	ldx	$4f                     ; 0x204f <main+0x3b3>
     613: 86 17        	stx	$17                     ; 0x2017 <main+0x37b>
     615: 85 85        	sta	$85                     ; 0x2085 <main+0x3e9>
     617: a6 4b        	ldx	$4b                     ; 0x204b <main+0x3af>
     619: 86 80        	stx	$80                     ; 0x2080 <main+0x3e4>
     61b: a6 88        	ldx	$88                     ; 0x2088 <main+0x3ec>
     61d: 86 18        	stx	$18                     ; 0x2018 <main+0x37c>
     61f: aa           	tax
     620: a4 16        	ldy	$16                     ; 0x2016 <main+0x37a>
     622: 84 14        	sty	$14                     ; 0x2014 <main+0x378>
     624: a4 17        	ldy	$17                     ; 0x2017 <main+0x37b>
     626: 84 15        	sty	$15                     ; 0x2015 <main+0x379>
     628: a0 2b        	ldy	#$2b
     62a: b1 16        	lda	($16),y                 ; 0x2016 <main+0x37a>
     62c: d0 03        	bne	$631 <sortFileList+0xbb>
     62e: 4c 9a 06     	jmp	$69a <sortFileList+0x124>
     631: 85 13        	sta	$13                     ; 0x2013 <main+0x377>
     633: e0 41        	cpx	#$41
     635: 90 08        	bcc	$63f <sortFileList+0xc9>
     637: 8a           	txa
     638: c9 5b        	cmp	#$5b
     63a: b0 03        	bcs	$63f <sortFileList+0xc9>
     63c: 09 20        	ora	#$20
     63e: aa           	tax
     63f: a5 13        	lda	$13                     ; 0x2013 <main+0x377>
     641: c9 41        	cmp	#$41
     643: 90 06        	bcc	$64b <sortFileList+0xd5>
     645: c9 5b        	cmp	#$5b
     647: b0 02        	bcs	$64b <sortFileList+0xd5>
     649: 09 20        	ora	#$20
     64b: 85 16        	sta	$16                     ; 0x2016 <main+0x37a>
     64d: 86 13        	stx	$13                     ; 0x2013 <main+0x377>
     64f: e4 16        	cpx	$16                     ; 0x2016 <main+0x37a>
     651: f0 03        	beq	$656 <sortFileList+0xe0>
     653: 4c d2 06     	jmp	$6d2 <sortFileList+0x15c>
     656: b2 14        	lda	($14)                   ; 0x2014 <main+0x378>
     658: a6 14        	ldx	$14                     ; 0x2014 <main+0x378>
     65a: 86 16        	stx	$16                     ; 0x2016 <main+0x37a>
     65c: a6 15        	ldx	$15                     ; 0x2015 <main+0x379>
     65e: 86 17        	stx	$17                     ; 0x2017 <main+0x37b>
     660: e6 16        	inc	$16                     ; 0x2016 <main+0x37a>
     662: d0 02        	bne	$666 <sortFileList+0xf0>
     664: e6 17        	inc	$17                     ; 0x2017 <main+0x37b>
     666: aa           	tax
     667: d0 b6        	bne	$61f <sortFileList+0xa9>
     669: a5 14        	lda	$14                     ; 0x2014 <main+0x378>
     66b: 18           	clc
     66c: 69 2c        	adc	#$2c
     66e: 85 14        	sta	$14                     ; 0x2014 <main+0x378>
     670: a5 15        	lda	$15                     ; 0x2015 <main+0x379>
     672: 69 00        	adc	#$0
     674: 85 15        	sta	$15                     ; 0x2015 <main+0x379>
     676: 80 4a        	bra	$6c2 <sortFileList+0x14c>
     678: a6 12        	ldx	$12                     ; 0x2012 <main+0x376>
     67a: 86 49        	stx	$49                     ; 0x2049 <main+0x3ad>
     67c: 4c b5 07     	jmp	$7b5 <sortFileList+0x23f>
     67f: 86 13        	stx	$13                     ; 0x2013 <main+0x377>
     681: 85 85        	sta	$85                     ; 0x2085 <main+0x3e9>
     683: a9 3f        	lda	#$3f
     685: 18           	clc
     686: 65 14        	adc	$14                     ; 0x2014 <main+0x378>
     688: 85 14        	sta	$14                     ; 0x2014 <main+0x378>
     68a: a9 46        	lda	#$46
     68c: 65 13        	adc	$13                     ; 0x2013 <main+0x377>
     68e: 85 15        	sta	$15                     ; 0x2015 <main+0x379>
     690: a6 4b        	ldx	$4b                     ; 0x204b <main+0x3af>
     692: 86 80        	stx	$80                     ; 0x2080 <main+0x3e4>
     694: a6 88        	ldx	$88                     ; 0x2088 <main+0x3ec>
     696: 86 18        	stx	$18                     ; 0x2018 <main+0x37c>
     698: 80 28        	bra	$6c2 <sortFileList+0x14c>
     69a: e0 41        	cpx	#$41
     69c: a0 01        	ldy	#$1
     69e: b0 02        	bcs	$6a2 <sortFileList+0x12c>
     6a0: a0 00        	ldy	#$0
     6a2: 84 12        	sty	$12                     ; 0x2012 <main+0x376>
     6a4: a5 14        	lda	$14                     ; 0x2014 <main+0x378>
     6a6: 18           	clc
     6a7: 69 2b        	adc	#$2b
     6a9: 85 14        	sta	$14                     ; 0x2014 <main+0x378>
     6ab: a5 15        	lda	$15                     ; 0x2015 <main+0x379>
     6ad: 69 00        	adc	#$0
     6af: 85 15        	sta	$15                     ; 0x2015 <main+0x379>
     6b1: a5 12        	lda	$12                     ; 0x2012 <main+0x376>
     6b3: f0 0b        	beq	$6c0 <sortFileList+0x14a>
     6b5: e0 5b        	cpx	#$5b
     6b7: 8a           	txa
     6b8: b0 02        	bcs	$6bc <sortFileList+0x146>
     6ba: 09 20        	ora	#$20
     6bc: 85 12        	sta	$12                     ; 0x2012 <main+0x376>
     6be: 80 02        	bra	$6c2 <sortFileList+0x14c>
     6c0: 86 12        	stx	$12                     ; 0x2012 <main+0x376>
     6c2: b2 14        	lda	($14)                   ; 0x2014 <main+0x378>
     6c4: c9 41        	cmp	#$41
     6c6: 90 06        	bcc	$6ce <sortFileList+0x158>
     6c8: c9 5b        	cmp	#$5b
     6ca: b0 02        	bcs	$6ce <sortFileList+0x158>
     6cc: 09 20        	ora	#$20
     6ce: a6 12        	ldx	$12                     ; 0x2012 <main+0x376>
     6d0: 86 13        	stx	$13                     ; 0x2013 <main+0x377>
     6d2: c5 13        	cmp	$13                     ; 0x2013 <main+0x377>
     6d4: a6 83        	ldx	$83                     ; 0x2083 <main+0x3e7>
     6d6: 86 50        	stx	$50                     ; 0x2050 <main+0x3b4>
     6d8: a6 84        	ldx	$84                     ; 0x2084 <main+0x3e8>
     6da: 86 51        	stx	$51                     ; 0x2051 <main+0x3b5>
     6dc: 90 03        	bcc	$6e1 <sortFileList+0x16b>
     6de: 4c b5 07     	jmp	$7b5 <sortFileList+0x23f>
     6e1: a2 2c        	ldx	#$2c
     6e3: 86 12        	stx	$12                     ; 0x2012 <main+0x376>
     6e5: 64 13        	stz	$13                     ; 0x2013 <main+0x377>
     6e7: a6 4d        	ldx	$4d                     ; 0x204d <main+0x3b1>
     6e9: a5 4a        	lda	$4a                     ; 0x204a <main+0x3ae>
     6eb: 20 c9 41     	jsr	$41c9 <__mulhi3>
     6ee: 85 12        	sta	$12                     ; 0x2012 <main+0x376>
     6f0: 86 13        	stx	$13                     ; 0x2013 <main+0x377>
     6f2: a9 3f        	lda	#$3f
     6f4: 18           	clc
     6f5: 65 12        	adc	$12                     ; 0x2012 <main+0x376>
     6f7: 85 4a        	sta	$4a                     ; 0x204a <main+0x3ae>
     6f9: a9 46        	lda	#$46
     6fb: 65 13        	adc	$13                     ; 0x2013 <main+0x377>
     6fd: 85 4b        	sta	$4b                     ; 0x204b <main+0x3af>
     6ff: a6 85        	ldx	$85                     ; 0x2085 <main+0x3e9>
     701: f0 26        	beq	$729 <sortFileList+0x1b3>
     703: a6 4e        	ldx	$4e                     ; 0x204e <main+0x3b2>
     705: 86 12        	stx	$12                     ; 0x2012 <main+0x376>
     707: a6 4f        	ldx	$4f                     ; 0x204f <main+0x3b3>
     709: 86 13        	stx	$13                     ; 0x2013 <main+0x377>
     70b: a6 86        	ldx	$86                     ; 0x2086 <main+0x3ea>
     70d: 86 14        	stx	$14                     ; 0x2014 <main+0x378>
     70f: a6 87        	ldx	$87                     ; 0x2087 <main+0x3eb>
     711: 86 15        	stx	$15                     ; 0x2015 <main+0x379>
     713: b2 12        	lda	($12)                   ; 0x2012 <main+0x376>
     715: aa           	tax
     716: b2 12        	lda	($12)                   ; 0x2012 <main+0x376>
     718: 92 14        	sta	($14)                   ; 0x2014 <main+0x378>
     71a: e6 14        	inc	$14                     ; 0x2014 <main+0x378>
     71c: d0 02        	bne	$720 <sortFileList+0x1aa>
     71e: e6 15        	inc	$15                     ; 0x2015 <main+0x379>
     720: e6 12        	inc	$12                     ; 0x2012 <main+0x376>
     722: d0 02        	bne	$726 <sortFileList+0x1b0>
     724: e6 13        	inc	$13                     ; 0x2013 <main+0x377>
     726: 8a           	txa
     727: d0 ea        	bne	$713 <sortFileList+0x19d>
     729: a2 2c        	ldx	#$2c
     72b: 86 12        	stx	$12                     ; 0x2012 <main+0x376>
     72d: 64 13        	stz	$13                     ; 0x2013 <main+0x377>
     72f: a6 48        	ldx	$48                     ; 0x2048 <main+0x3ac>
     731: a5 4c        	lda	$4c                     ; 0x204c <main+0x3b0>
     733: 20 c9 41     	jsr	$41c9 <__mulhi3>
     736: a0 2c        	ldy	#$2c
     738: 85 12        	sta	$12                     ; 0x2012 <main+0x376>
     73a: 86 13        	stx	$13                     ; 0x2013 <main+0x377>
     73c: a9 3f        	lda	#$3f
     73e: 18           	clc
     73f: 65 12        	adc	$12                     ; 0x2012 <main+0x376>
     741: 85 12        	sta	$12                     ; 0x2012 <main+0x376>
     743: a9 46        	lda	#$46
     745: 65 13        	adc	$13                     ; 0x2013 <main+0x377>
     747: 85 13        	sta	$13                     ; 0x2013 <main+0x377>
     749: b2 12        	lda	($12)                   ; 0x2012 <main+0x376>
     74b: aa           	tax
     74c: b2 12        	lda	($12)                   ; 0x2012 <main+0x376>
     74e: 92 4a        	sta	($4a)                   ; 0x204a <main+0x3ae>
     750: 8a           	txa
     751: f0 18        	beq	$76b <sortFileList+0x1f5>
     753: a6 4e        	ldx	$4e                     ; 0x204e <main+0x3b2>
     755: 86 14        	stx	$14                     ; 0x2014 <main+0x378>
     757: a6 4f        	ldx	$4f                     ; 0x204f <main+0x3b3>
     759: 86 15        	stx	$15                     ; 0x2015 <main+0x379>
     75b: b1 14        	lda	($14),y                 ; 0x2014 <main+0x378>
     75d: aa           	tax
     75e: b1 14        	lda	($14),y                 ; 0x2014 <main+0x378>
     760: 92 14        	sta	($14)                   ; 0x2014 <main+0x378>
     762: e6 14        	inc	$14                     ; 0x2014 <main+0x378>
     764: d0 02        	bne	$768 <sortFileList+0x1f2>
     766: e6 15        	inc	$15                     ; 0x2015 <main+0x379>
     768: 8a           	txa
     769: d0 f0        	bne	$75b <sortFileList+0x1e5>
     76b: a6 85        	ldx	$85                     ; 0x2085 <main+0x3e9>
     76d: 8a           	txa
     76e: 92 12        	sta	($12)                   ; 0x2012 <main+0x376>
     770: a6 88        	ldx	$88                     ; 0x2088 <main+0x3ec>
     772: 86 18        	stx	$18                     ; 0x2018 <main+0x37c>
     774: aa           	tax
     775: f0 26        	beq	$79d <sortFileList+0x227>
     777: a6 86        	ldx	$86                     ; 0x2086 <main+0x3ea>
     779: 86 12        	stx	$12                     ; 0x2012 <main+0x376>
     77b: a6 87        	ldx	$87                     ; 0x2087 <main+0x3eb>
     77d: 86 13        	stx	$13                     ; 0x2013 <main+0x377>
     77f: a6 50        	ldx	$50                     ; 0x2050 <main+0x3b4>
     781: 86 14        	stx	$14                     ; 0x2014 <main+0x378>
     783: a6 51        	ldx	$51                     ; 0x2051 <main+0x3b5>
     785: 86 15        	stx	$15                     ; 0x2015 <main+0x379>
     787: b2 12        	lda	($12)                   ; 0x2012 <main+0x376>
     789: aa           	tax
     78a: b2 12        	lda	($12)                   ; 0x2012 <main+0x376>
     78c: 92 14        	sta	($14)                   ; 0x2014 <main+0x378>
     78e: e6 14        	inc	$14                     ; 0x2014 <main+0x378>
     790: d0 02        	bne	$794 <sortFileList+0x21e>
     792: e6 15        	inc	$15                     ; 0x2015 <main+0x379>
     794: e6 12        	inc	$12                     ; 0x2012 <main+0x376>
     796: d0 02        	bne	$79a <sortFileList+0x224>
     798: e6 13        	inc	$13                     ; 0x2013 <main+0x377>
     79a: 8a           	txa
     79b: d0 ea        	bne	$787 <sortFileList+0x211>
     79d: b2 52        	lda	($52)                   ; 0x2052 <main+0x3b6>
     79f: aa           	tax
     7a0: a0 01        	ldy	#$1
     7a2: b1 52        	lda	($52),y                 ; 0x2052 <main+0x3b6>
     7a4: 92 52        	sta	($52)                   ; 0x2052 <main+0x3b6>
     7a6: 8a           	txa
     7a7: 86 49        	stx	$49                     ; 0x2049 <main+0x3ad>
     7a9: 91 52        	sta	($52),y                 ; 0x2052 <main+0x3b6>
     7ab: ae d3 57     	ldx	$57d3                   ; 0x57d3 <fpr+0x11e2>
     7ae: 86 81        	stx	$81                     ; 0x2081 <main+0x3e5>
     7b0: ae d4 57     	ldx	$57d4                   ; 0x57d4 <fpr+0x11e3>
     7b3: 86 82        	stx	$82                     ; 0x2082 <main+0x3e6>
     7b5: 38           	sec
     7b6: a5 81        	lda	$81                     ; 0x2081 <main+0x3e5>
     7b8: a6 80        	ldx	$80                     ; 0x2080 <main+0x3e4>
     7ba: 86 12        	stx	$12                     ; 0x2012 <main+0x376>
     7bc: e5 12        	sbc	$12                     ; 0x2012 <main+0x376>
     7be: 85 12        	sta	$12                     ; 0x2012 <main+0x376>
     7c0: a5 82        	lda	$82                     ; 0x2082 <main+0x3e6>
     7c2: e5 18        	sbc	$18                     ; 0x2018 <main+0x37c>
     7c4: 85 13        	sta	$13                     ; 0x2013 <main+0x377>
     7c6: a5 4e        	lda	$4e                     ; 0x204e <main+0x3b2>
     7c8: 18           	clc
     7c9: 69 2c        	adc	#$2c
     7cb: 85 4e        	sta	$4e                     ; 0x204e <main+0x3b2>
     7cd: a5 4f        	lda	$4f                     ; 0x204f <main+0x3b3>
     7cf: 69 00        	adc	#$0
     7d1: 85 4f        	sta	$4f                     ; 0x204f <main+0x3b3>
     7d3: a5 50        	lda	$50                     ; 0x2050 <main+0x3b4>
     7d5: 18           	clc
     7d6: 69 2c        	adc	#$2c
     7d8: 85 16        	sta	$16                     ; 0x2016 <main+0x37a>
     7da: a5 51        	lda	$51                     ; 0x2051 <main+0x3b5>
     7dc: 69 00        	adc	#$0
     7de: a6 16        	ldx	$16                     ; 0x2016 <main+0x37a>
     7e0: 86 50        	stx	$50                     ; 0x2050 <main+0x3b4>
     7e2: 85 51        	sta	$51                     ; 0x2051 <main+0x3b5>
     7e4: a6 4c        	ldx	$4c                     ; 0x204c <main+0x3b0>
     7e6: e4 12        	cpx	$12                     ; 0x2012 <main+0x376>
     7e8: a5 48        	lda	$48                     ; 0x2048 <main+0x3ac>
     7ea: e5 13        	sbc	$13                     ; 0x2013 <main+0x377>
     7ec: 50 02        	bvc	$7f0 <sortFileList+0x27a>
     7ee: 49 80        	eor	#$80
     7f0: 86 4a        	stx	$4a                     ; 0x204a <main+0x3ae>
     7f2: a6 48        	ldx	$48                     ; 0x2048 <main+0x3ac>
     7f4: 86 4d        	stx	$4d                     ; 0x204d <main+0x3b1>
     7f6: aa           	tax
     7f7: 30 03        	bmi	$7fc <sortFileList+0x286>
     7f9: 4c 56 08     	jmp	$856 <sortFileList+0x2e0>
     7fc: a9 6f        	lda	#$6f
     7fe: 18           	clc
     7ff: 65 4a        	adc	$4a                     ; 0x204a <main+0x3ae>
     801: 85 52        	sta	$52                     ; 0x2052 <main+0x3b6>
     803: a9 57        	lda	#$57
     805: 65 4d        	adc	$4d                     ; 0x204d <main+0x3b1>
     807: 85 53        	sta	$53                     ; 0x2053 <main+0x3b7>
     809: a5 49        	lda	$49                     ; 0x2049 <main+0x3ad>
     80b: 29 01        	and	#$1
     80d: 85 13        	sta	$13                     ; 0x2013 <main+0x377>
     80f: a6 4a        	ldx	$4a                     ; 0x204a <main+0x3ae>
     811: 86 4c        	stx	$4c                     ; 0x204c <main+0x3b0>
     813: a6 4d        	ldx	$4d                     ; 0x204d <main+0x3b1>
     815: 86 48        	stx	$48                     ; 0x2048 <main+0x3ac>
     817: e6 4c        	inc	$4c                     ; 0x204c <main+0x3b0>
     819: d0 02        	bne	$81d <sortFileList+0x2a7>
     81b: e6 48        	inc	$48                     ; 0x2048 <main+0x3ac>
     81d: a0 01        	ldy	#$1
     81f: b1 52        	lda	($52),y                 ; 0x2052 <main+0x3b6>
     821: 85 12        	sta	$12                     ; 0x2012 <main+0x376>
     823: a6 13        	ldx	$13                     ; 0x2013 <main+0x377>
     825: f0 03        	beq	$82a <sortFileList+0x2b4>
     827: 4c c2 05     	jmp	$5c2 <sortFileList+0x4c>
     82a: 29 01        	and	#$1
     82c: d0 03        	bne	$831 <sortFileList+0x2bb>
     82e: 4c c2 05     	jmp	$5c2 <sortFileList+0x4c>
     831: a2 2c        	ldx	#$2c
     833: 86 12        	stx	$12                     ; 0x2012 <main+0x376>
     835: 64 13        	stz	$13                     ; 0x2013 <main+0x377>
     837: a6 4d        	ldx	$4d                     ; 0x204d <main+0x3b1>
     839: a5 4a        	lda	$4a                     ; 0x204a <main+0x3ae>
     83b: 20 c9 41     	jsr	$41c9 <__mulhi3>
     83e: 85 12        	sta	$12                     ; 0x2012 <main+0x376>
     840: 86 13        	stx	$13                     ; 0x2013 <main+0x377>
     842: a9 3f        	lda	#$3f
     844: 18           	clc
     845: 65 12        	adc	$12                     ; 0x2012 <main+0x376>
     847: 85 12        	sta	$12                     ; 0x2012 <main+0x376>
     849: a9 46        	lda	#$46
     84b: 65 13        	adc	$13                     ; 0x2013 <main+0x377>
     84d: 85 13        	sta	$13                     ; 0x2013 <main+0x377>
     84f: b2 12        	lda	($12)                   ; 0x2012 <main+0x376>
     851: 85 85        	sta	$85                     ; 0x2085 <main+0x3e9>
     853: 4c e1 06     	jmp	$6e1 <sortFileList+0x16b>
     856: a6 18        	ldx	$18                     ; 0x2018 <main+0x37c>
     858: 86 4c        	stx	$4c                     ; 0x204c <main+0x3b0>
     85a: a6 80        	ldx	$80                     ; 0x2080 <main+0x3e4>
     85c: e8           	inx
     85d: d0 02        	bne	$861 <sortFileList+0x2eb>
     85f: e6 4c        	inc	$4c                     ; 0x204c <main+0x3b0>
     861: a4 81        	ldy	$81                     ; 0x2081 <main+0x3e5>
     863: 84 12        	sty	$12                     ; 0x2012 <main+0x376>
     865: a5 82        	lda	$82                     ; 0x2082 <main+0x3e6>
     867: a0 ff        	ldy	#$ff
     869: c6 12        	dec	$12                     ; 0x2012 <main+0x376>
     86b: c4 12        	cpy	$12                     ; 0x2012 <main+0x376>
     86d: d0 01        	bne	$870 <sortFileList+0x2fa>
     86f: 3a           	dec
     870: 85 13        	sta	$13                     ; 0x2013 <main+0x377>
     872: e4 12        	cpx	$12                     ; 0x2012 <main+0x376>
     874: a5 4c        	lda	$4c                     ; 0x204c <main+0x3b0>
     876: e5 13        	sbc	$13                     ; 0x2013 <main+0x377>
     878: 50 02        	bvc	$87c <sortFileList+0x306>
     87a: 49 80        	eor	#$80
     87c: 86 80        	stx	$80                     ; 0x2080 <main+0x3e4>
     87e: a6 4c        	ldx	$4c                     ; 0x204c <main+0x3b0>
     880: 86 18        	stx	$18                     ; 0x2018 <main+0x37c>
     882: aa           	tax
     883: 10 3c        	bpl	$8c1 <sortFileList+0x34b>
     885: a6 81        	ldx	$81                     ; 0x2081 <main+0x3e5>
     887: 8a           	txa
     888: 38           	sec
     889: a6 80        	ldx	$80                     ; 0x2080 <main+0x3e4>
     88b: 86 12        	stx	$12                     ; 0x2012 <main+0x376>
     88d: e5 12        	sbc	$12                     ; 0x2012 <main+0x376>
     88f: aa           	tax
     890: a5 82        	lda	$82                     ; 0x2082 <main+0x3e6>
     892: e5 18        	sbc	$18                     ; 0x2018 <main+0x37c>
     894: e0 02        	cpx	#$2
     896: e9 00        	sbc	#$0
     898: 50 02        	bvc	$89c <sortFileList+0x326>
     89a: 49 80        	eor	#$80
     89c: aa           	tax
     89d: 30 b7        	bmi	$856 <sortFileList+0x2e0>
     89f: ae 70 57     	ldx	$5770                   ; 0x5770 <fpr+0x117f>
     8a2: 86 49        	stx	$49                     ; 0x2049 <main+0x3ad>
     8a4: a2 6c        	ldx	#$6c
     8a6: 86 4e        	stx	$4e                     ; 0x204e <main+0x3b2>
     8a8: a2 46        	ldx	#$46
     8aa: 86 4f        	stx	$4f                     ; 0x204f <main+0x3b3>
     8ac: a2 98        	ldx	#$98
     8ae: 86 50        	stx	$50                     ; 0x2050 <main+0x3b4>
     8b0: a2 46        	ldx	#$46
     8b2: 86 51        	stx	$51                     ; 0x2051 <main+0x3b5>
     8b4: a2 01        	ldx	#$1
     8b6: 64 4d        	stz	$4d                     ; 0x204d <main+0x3b1>
     8b8: 86 4a        	stx	$4a                     ; 0x204a <main+0x3ae>
     8ba: a6 18        	ldx	$18                     ; 0x2018 <main+0x37c>
     8bc: 86 88        	stx	$88                     ; 0x2088 <main+0x3ec>
     8be: 4c fc 07     	jmp	$7fc <sortFileList+0x286>
     8c1: 60           	rts

000008c2 <pickFile>:
     8c2: 18           	clc
     8c3: a5 10        	lda	$10                     ; 0x2010 <main+0x374>
     8c5: 69 f6        	adc	#$f6
     8c7: 85 10        	sta	$10                     ; 0x2010 <main+0x374>
     8c9: a5 11        	lda	$11                     ; 0x2011 <main+0x375>
     8cb: 69 ff        	adc	#$ff
     8cd: 85 11        	sta	$11                     ; 0x2011 <main+0x375>
     8cf: a6 24        	ldx	$24                     ; 0x2024 <main+0x388>
     8d1: da           	phx
     8d2: a6 25        	ldx	$25                     ; 0x2025 <main+0x389>
     8d4: da           	phx
     8d5: a6 26        	ldx	$26                     ; 0x2026 <main+0x38a>
     8d7: da           	phx
     8d8: a6 27        	ldx	$27                     ; 0x2027 <main+0x38b>
     8da: da           	phx
     8db: a5 28        	lda	$28                     ; 0x2028 <main+0x38c>
     8dd: a0 03        	ldy	#$3
     8df: 91 10        	sta	($10),y                 ; 0x2010 <main+0x374>
     8e1: a5 29        	lda	$29                     ; 0x2029 <main+0x38d>
     8e3: 88           	dey
     8e4: 91 10        	sta	($10),y                 ; 0x2010 <main+0x374>
     8e6: a2 08        	ldx	#$8
     8e8: 86 26        	stx	$26                     ; 0x2026 <main+0x38a>
     8ea: a2 00        	ldx	#$0
     8ec: 86 27        	stx	$27                     ; 0x2027 <main+0x38b>
     8ee: a9 f1        	lda	#$f1
     8f0: 18           	clc
     8f1: 48           	pha
     8f2: a5 10        	lda	$10                     ; 0x2010 <main+0x374>
     8f4: 69 07        	adc	#$7
     8f6: 85 12        	sta	$12                     ; 0x2012 <main+0x376>
     8f8: a5 11        	lda	$11                     ; 0x2011 <main+0x375>
     8fa: 69 00        	adc	#$0
     8fc: 85 13        	sta	$13                     ; 0x2013 <main+0x377>
     8fe: 68           	pla
     8ff: 92 12        	sta	($12)                   ; 0x2012 <main+0x376>
     901: 88           	dey
     902: a9 45        	lda	#$45
     904: 91 12        	sta	($12),y                 ; 0x2012 <main+0x376>
     906: 64 34        	stz	$34                     ; 0x2034 <main+0x398>
     908: 18           	clc
     909: a5 10        	lda	$10                     ; 0x2010 <main+0x374>
     90b: 69 05        	adc	#$5
     90d: 85 12        	sta	$12                     ; 0x2012 <main+0x376>
     90f: a5 11        	lda	$11                     ; 0x2011 <main+0x375>
     911: 69 00        	adc	#$0
     913: 85 13        	sta	$13                     ; 0x2013 <main+0x377>
     915: a2 3b        	ldx	#$3b
     917: 86 14        	stx	$14                     ; 0x2014 <main+0x378>
     919: a2 00        	ldx	#$0
     91b: 86 15        	stx	$15                     ; 0x2015 <main+0x379>
     91d: 20 00 ff     	jsr	$ff00 <__heap_start+0xa710>
     920: 92 12        	sta	($12)                   ; 0x2012 <main+0x376>
     922: a9 00        	lda	#$0
     924: 6a           	ror
     925: 85 14        	sta	$14                     ; 0x2014 <main+0x378>
     927: b2 12        	lda	($12)                   ; 0x2012 <main+0x376>
     929: 18           	clc
     92a: 48           	pha
     92b: a5 10        	lda	$10                     ; 0x2010 <main+0x374>
     92d: 69 04        	adc	#$4
     92f: 85 12        	sta	$12                     ; 0x2012 <main+0x376>
     931: a5 11        	lda	$11                     ; 0x2011 <main+0x375>
     933: 69 00        	adc	#$0
     935: 85 13        	sta	$13                     ; 0x2013 <main+0x377>
     937: 68           	pla
     938: 92 12        	sta	($12)                   ; 0x2012 <main+0x376>
     93a: b2 12        	lda	($12)                   ; 0x2012 <main+0x376>
     93c: 18           	clc
     93d: 48           	pha
     93e: a5 10        	lda	$10                     ; 0x2010 <main+0x374>
     940: 69 06        	adc	#$6
     942: 85 12        	sta	$12                     ; 0x2012 <main+0x376>
     944: a5 11        	lda	$11                     ; 0x2011 <main+0x375>
     946: 69 00        	adc	#$0
     948: 85 13        	sta	$13                     ; 0x2013 <main+0x377>
     94a: 68           	pla
     94b: 92 12        	sta	($12)                   ; 0x2012 <main+0x376>
     94d: a6 34        	ldx	$34                     ; 0x2034 <main+0x398>
     94f: a0 00        	ldy	#$0
     951: c4 27        	cpy	$27                     ; 0x2027 <main+0x38b>
     953: f0 02        	beq	$957 <pickFile+0x95>
     955: 80 0d        	bra	$964 <pickFile+0xa2>
     957: e4 26        	cpx	$26                     ; 0x2026 <main+0x38a>
     959: f0 02        	beq	$95d <pickFile+0x9b>
     95b: 80 02        	bra	$95f <pickFile+0x9d>
     95d: 80 03        	bra	$962 <pickFile+0xa0>
     95f: 4c d4 14     	jmp	$14d4 <pickFile+0xc12>
     962: 80 03        	bra	$967 <pickFile+0xa5>
     964: 4c d4 14     	jmp	$14d4 <pickFile+0xc12>
     967: 80 00        	bra	$969 <pickFile+0xa7>
     969: a5 38        	lda	$38                     ; 0x2038 <main+0x39c>
     96b: 18           	clc
     96c: 69 6e        	adc	#$6e
     96e: aa           	tax
     96f: a9 00        	lda	#$0
     971: 69 ff        	adc	#$ff
     973: c9 00        	cmp	#$0
     975: a0 01        	ldy	#$1
     977: b0 02        	bcs	$97b <pickFile+0xb9>
     979: a0 00        	ldy	#$0
     97b: 84 12        	sty	$12                     ; 0x2012 <main+0x376>
     97d: a8           	tay
     97e: f0 02        	beq	$982 <pickFile+0xc0>
     980: 80 08        	bra	$98a <pickFile+0xc8>
     982: 8a           	txa
     983: c9 28        	cmp	#$28
     985: 90 0b        	bcc	$992 <pickFile+0xd0>
     987: 4c d4 14     	jmp	$14d4 <pickFile+0xc12>
     98a: 8a           	txa
     98b: a6 12        	ldx	$12                     ; 0x2012 <main+0x376>
     98d: f0 03        	beq	$992 <pickFile+0xd0>
     98f: 4c d4 14     	jmp	$14d4 <pickFile+0xc12>
     992: 0a           	asl
     993: aa           	tax
     994: 7c fc 41     	jmp	($41fc,x)               ; 0x41fc <__set_v+0x1>
     997: 18           	clc
     998: a5 10        	lda	$10                     ; 0x2010 <main+0x374>
     99a: 69 09        	adc	#$9
     99c: 85 12        	sta	$12                     ; 0x2012 <main+0x376>
     99e: a5 11        	lda	$11                     ; 0x2011 <main+0x375>
     9a0: 69 00        	adc	#$0
     9a2: 85 13        	sta	$13                     ; 0x2013 <main+0x377>
     9a4: a9 03        	lda	#$3
     9a6: 92 12        	sta	($12)                   ; 0x2012 <main+0x376>
     9a8: 4c d7 14     	jmp	$14d7 <pickFile+0xc15>
     9ab: 18           	clc
     9ac: a5 10        	lda	$10                     ; 0x2010 <main+0x374>
     9ae: 69 07        	adc	#$7
     9b0: 85 26        	sta	$26                     ; 0x2026 <main+0x38a>
     9b2: a5 11        	lda	$11                     ; 0x2011 <main+0x375>
     9b4: 69 00        	adc	#$0
     9b6: 85 27        	sta	$27                     ; 0x2027 <main+0x38b>
     9b8: b2 26        	lda	($26)                   ; 0x2026 <main+0x38a>
     9ba: 85 12        	sta	$12                     ; 0x2012 <main+0x376>
     9bc: a0 01        	ldy	#$1
     9be: b1 26        	lda	($26),y                 ; 0x2026 <main+0x38a>
     9c0: aa           	tax
     9c1: 64 13        	stz	$13                     ; 0x2013 <main+0x377>
     9c3: 18           	clc
     9c4: a5 12        	lda	$12                     ; 0x2012 <main+0x376>
     9c6: 69 22        	adc	#$22
     9c8: 85 24        	sta	$24                     ; 0x2024 <main+0x388>
     9ca: 8a           	txa
     9cb: 69 00        	adc	#$0
     9cd: 85 25        	sta	$25                     ; 0x2025 <main+0x389>
     9cf: b2 26        	lda	($26)                   ; 0x2026 <main+0x38a>
     9d1: 85 28        	sta	$28                     ; 0x2028 <main+0x38c>
     9d3: b2 26        	lda	($26)                   ; 0x2026 <main+0x38a>
     9d5: 85 14        	sta	$14                     ; 0x2014 <main+0x378>
     9d7: b1 26        	lda	($26),y                 ; 0x2026 <main+0x38a>
     9d9: 85 12        	sta	$12                     ; 0x2012 <main+0x376>
     9db: 18           	clc
     9dc: a5 14        	lda	$14                     ; 0x2014 <main+0x378>
     9de: 69 e4        	adc	#$e4
     9e0: 85 14        	sta	$14                     ; 0x2014 <main+0x378>
     9e2: a5 12        	lda	$12                     ; 0x2012 <main+0x376>
     9e4: 69 11        	adc	#$11
     9e6: 85 15        	sta	$15                     ; 0x2015 <main+0x379>
     9e8: b1 26        	lda	($26),y                 ; 0x2026 <main+0x38a>
     9ea: 85 29        	sta	$29                     ; 0x2029 <main+0x38d>
     9ec: b2 14        	lda	($14)                   ; 0x2014 <main+0x378>
     9ee: 85 16        	sta	$16                     ; 0x2016 <main+0x37a>
     9f0: b1 14        	lda	($14),y                 ; 0x2014 <main+0x378>
     9f2: a2 2c        	ldx	#$2c
     9f4: 86 12        	stx	$12                     ; 0x2012 <main+0x376>
     9f6: aa           	tax
     9f7: a5 16        	lda	$16                     ; 0x2016 <main+0x37a>
     9f9: 20 c9 41     	jsr	$41c9 <__mulhi3>
     9fc: 85 12        	sta	$12                     ; 0x2012 <main+0x376>
     9fe: 86 13        	stx	$13                     ; 0x2013 <main+0x377>
     a00: a5 28        	lda	$28                     ; 0x2028 <main+0x38c>
     a02: 18           	clc
     a03: 65 12        	adc	$12                     ; 0x2012 <main+0x376>
     a05: a8           	tay
     a06: a5 29        	lda	$29                     ; 0x2029 <main+0x38d>
     a08: 65 13        	adc	$13                     ; 0x2013 <main+0x377>
     a0a: aa           	tax
     a0b: 18           	clc
     a0c: 98           	tya
     a0d: 69 4e        	adc	#$4e
     a0f: 85 14        	sta	$14                     ; 0x2014 <main+0x378>
     a11: 8a           	txa
     a12: 69 00        	adc	#$0
     a14: 85 15        	sta	$15                     ; 0x2015 <main+0x379>
     a16: a6 24        	ldx	$24                     ; 0x2024 <main+0x388>
     a18: 86 12        	stx	$12                     ; 0x2012 <main+0x376>
     a1a: a6 25        	ldx	$25                     ; 0x2025 <main+0x389>
     a1c: 86 13        	stx	$13                     ; 0x2013 <main+0x377>
     a1e: a9 2c        	lda	#$2c
     a20: a2 00        	ldx	#$0
     a22: 20 7d 41     	jsr	$417d <memcpy>
     a25: b2 26        	lda	($26)                   ; 0x2026 <main+0x38a>
     a27: 85 13        	sta	$13                     ; 0x2013 <main+0x377>
     a29: a0 01        	ldy	#$1
     a2b: b1 26        	lda	($26),y                 ; 0x2026 <main+0x38a>
     a2d: 85 12        	sta	$12                     ; 0x2012 <main+0x376>
     a2f: 18           	clc
     a30: a5 13        	lda	$13                     ; 0x2013 <main+0x377>
     a32: 69 e6        	adc	#$e6
     a34: aa           	tax
     a35: a5 12        	lda	$12                     ; 0x2012 <main+0x376>
     a37: 69 11        	adc	#$11
     a39: 86 12        	stx	$12                     ; 0x2012 <main+0x376>
     a3b: 85 13        	sta	$13                     ; 0x2013 <main+0x377>
     a3d: b2 12        	lda	($12)                   ; 0x2012 <main+0x376>
     a3f: 85 14        	sta	$14                     ; 0x2014 <main+0x378>
     a41: b1 12        	lda	($12),y                 ; 0x2012 <main+0x376>
     a43: d0 1c        	bne	$a61 <pickFile+0x19f>
     a45: 80 00        	bra	$a47 <pickFile+0x185>
     a47: a5 14        	lda	$14                     ; 0x2014 <main+0x378>
     a49: d0 16        	bne	$a61 <pickFile+0x19f>
     a4b: 80 00        	bra	$a4d <pickFile+0x18b>
     a4d: 18           	clc
     a4e: a5 10        	lda	$10                     ; 0x2010 <main+0x374>
     a50: 69 09        	adc	#$9
     a52: 85 12        	sta	$12                     ; 0x2012 <main+0x376>
     a54: a5 11        	lda	$11                     ; 0x2011 <main+0x375>
     a56: 69 00        	adc	#$0
     a58: 85 13        	sta	$13                     ; 0x2013 <main+0x377>
     a5a: a9 00        	lda	#$0
     a5c: 92 12        	sta	($12)                   ; 0x2012 <main+0x376>
     a5e: 4c d7 14     	jmp	$14d7 <pickFile+0xc15>
     a61: 18           	clc
     a62: a5 10        	lda	$10                     ; 0x2010 <main+0x374>
     a64: 69 07        	adc	#$7
     a66: 85 12        	sta	$12                     ; 0x2012 <main+0x376>
     a68: a5 11        	lda	$11                     ; 0x2011 <main+0x375>
     a6a: 69 00        	adc	#$0
     a6c: 85 13        	sta	$13                     ; 0x2013 <main+0x377>
     a6e: a0 01        	ldy	#$1
     a70: b2 12        	lda	($12)                   ; 0x2012 <main+0x376>
     a72: 85 15        	sta	$15                     ; 0x2015 <main+0x379>
     a74: b1 12        	lda	($12),y                 ; 0x2012 <main+0x376>
     a76: 85 14        	sta	$14                     ; 0x2014 <main+0x378>
     a78: 18           	clc
     a79: a5 15        	lda	$15                     ; 0x2015 <main+0x379>
     a7b: 69 e4        	adc	#$e4
     a7d: aa           	tax
     a7e: a5 14        	lda	$14                     ; 0x2014 <main+0x378>
     a80: 69 11        	adc	#$11
     a82: 86 14        	stx	$14                     ; 0x2014 <main+0x378>
     a84: 85 15        	sta	$15                     ; 0x2015 <main+0x379>
     a86: b2 14        	lda	($14)                   ; 0x2014 <main+0x378>
     a88: 85 16        	sta	$16                     ; 0x2016 <main+0x37a>
     a8a: b1 14        	lda	($14),y                 ; 0x2014 <main+0x378>
     a8c: 85 14        	sta	$14                     ; 0x2014 <main+0x378>
     a8e: 18           	clc
     a8f: a5 16        	lda	$16                     ; 0x2016 <main+0x37a>
     a91: 72 12        	adc	($12)                   ; 0x2012 <main+0x376>
     a93: 85 15        	sta	$15                     ; 0x2015 <main+0x379>
     a95: a5 14        	lda	$14                     ; 0x2014 <main+0x378>
     a97: 71 12        	adc	($12),y                 ; 0x2012 <main+0x376>
     a99: 85 12        	sta	$12                     ; 0x2012 <main+0x376>
     a9b: 18           	clc
     a9c: a5 15        	lda	$15                     ; 0x2015 <main+0x379>
     a9e: 69 7e        	adc	#$7e
     aa0: aa           	tax
     aa1: a5 12        	lda	$12                     ; 0x2012 <main+0x376>
     aa3: 69 11        	adc	#$11
     aa5: 85 13        	sta	$13                     ; 0x2013 <main+0x377>
     aa7: 86 12        	stx	$12                     ; 0x2012 <main+0x376>
     aa9: b2 12        	lda	($12)                   ; 0x2012 <main+0x376>
     aab: 29 01        	and	#$1
     aad: f0 16        	beq	$ac5 <pickFile+0x203>
     aaf: 80 00        	bra	$ab1 <pickFile+0x1ef>
     ab1: 18           	clc
     ab2: a5 10        	lda	$10                     ; 0x2010 <main+0x374>
     ab4: 69 09        	adc	#$9
     ab6: 85 12        	sta	$12                     ; 0x2012 <main+0x376>
     ab8: a5 11        	lda	$11                     ; 0x2011 <main+0x375>
     aba: 69 00        	adc	#$0
     abc: 85 13        	sta	$13                     ; 0x2013 <main+0x377>
     abe: a9 01        	lda	#$1
     ac0: 92 12        	sta	($12)                   ; 0x2012 <main+0x376>
     ac2: 4c d7 14     	jmp	$14d7 <pickFile+0xc15>
     ac5: 18           	clc
     ac6: a5 10        	lda	$10                     ; 0x2010 <main+0x374>
     ac8: 69 09        	adc	#$9
     aca: 85 12        	sta	$12                     ; 0x2012 <main+0x376>
     acc: a5 11        	lda	$11                     ; 0x2011 <main+0x375>
     ace: 69 00        	adc	#$0
     ad0: 85 13        	sta	$13                     ; 0x2013 <main+0x377>
     ad2: a9 02        	lda	#$2
     ad4: 92 12        	sta	($12)                   ; 0x2012 <main+0x376>
     ad6: 4c d7 14     	jmp	$14d7 <pickFile+0xc15>
     ad9: 18           	clc
     ada: a5 10        	lda	$10                     ; 0x2010 <main+0x374>
     adc: 69 07        	adc	#$7
     ade: 85 12        	sta	$12                     ; 0x2012 <main+0x376>
     ae0: a5 11        	lda	$11                     ; 0x2011 <main+0x375>
     ae2: 69 00        	adc	#$0
     ae4: 85 13        	sta	$13                     ; 0x2013 <main+0x377>
     ae6: b2 12        	lda	($12)                   ; 0x2012 <main+0x376>
     ae8: 85 14        	sta	$14                     ; 0x2014 <main+0x378>
     aea: a0 01        	ldy	#$1
     aec: b1 12        	lda	($12),y                 ; 0x2012 <main+0x376>
     aee: aa           	tax
     aef: 18           	clc
     af0: a5 14        	lda	$14                     ; 0x2014 <main+0x378>
     af2: 69 e4        	adc	#$e4
     af4: 85 12        	sta	$12                     ; 0x2012 <main+0x376>
     af6: 8a           	txa
     af7: 69 11        	adc	#$11
     af9: 85 13        	sta	$13                     ; 0x2013 <main+0x377>
     afb: b2 12        	lda	($12)                   ; 0x2012 <main+0x376>
     afd: 85 14        	sta	$14                     ; 0x2014 <main+0x378>
     aff: b1 12        	lda	($12),y                 ; 0x2012 <main+0x376>
     b01: a6 14        	ldx	$14                     ; 0x2014 <main+0x378>
     b03: e0 01        	cpx	#$1
     b05: e9 00        	sbc	#$0
     b07: 70 02        	bvs	$b0b <pickFile+0x249>
     b09: 80 04        	bra	$b0f <pickFile+0x24d>
     b0b: 49 80        	eor	#$80
     b0d: 80 02        	bra	$b11 <pickFile+0x24f>
     b0f: 80 00        	bra	$b11 <pickFile+0x24f>
     b11: aa           	tax
     b12: 10 03        	bpl	$b17 <pickFile+0x255>
     b14: 4c c9 0d     	jmp	$dc9 <pickFile+0x507>
     b17: 18           	clc
     b18: a5 10        	lda	$10                     ; 0x2010 <main+0x374>
     b1a: 69 07        	adc	#$7
     b1c: 85 12        	sta	$12                     ; 0x2012 <main+0x376>
     b1e: a5 11        	lda	$11                     ; 0x2011 <main+0x375>
     b20: 69 00        	adc	#$0
     b22: 85 13        	sta	$13                     ; 0x2013 <main+0x377>
     b24: b2 12        	lda	($12)                   ; 0x2012 <main+0x376>
     b26: 85 14        	sta	$14                     ; 0x2014 <main+0x378>
     b28: a0 01        	ldy	#$1
     b2a: b1 12        	lda	($12),y                 ; 0x2012 <main+0x376>
     b2c: aa           	tax
     b2d: 18           	clc
     b2e: a5 14        	lda	$14                     ; 0x2014 <main+0x378>
     b30: 69 e6        	adc	#$e6
     b32: 85 12        	sta	$12                     ; 0x2012 <main+0x376>
     b34: 8a           	txa
     b35: 69 11        	adc	#$11
     b37: 85 13        	sta	$13                     ; 0x2013 <main+0x377>
     b39: b2 12        	lda	($12)                   ; 0x2012 <main+0x376>
     b3b: 85 14        	sta	$14                     ; 0x2014 <main+0x378>
     b3d: b1 12        	lda	($12),y                 ; 0x2012 <main+0x376>
     b3f: a6 14        	ldx	$14                     ; 0x2014 <main+0x378>
     b41: e0 01        	cpx	#$1
     b43: e9 00        	sbc	#$0
     b45: 70 02        	bvs	$b49 <pickFile+0x287>
     b47: 80 04        	bra	$b4d <pickFile+0x28b>
     b49: 49 80        	eor	#$80
     b4b: 80 02        	bra	$b4f <pickFile+0x28d>
     b4d: 80 00        	bra	$b4f <pickFile+0x28d>
     b4f: aa           	tax
     b50: 10 03        	bpl	$b55 <pickFile+0x293>
     b52: 4c 69 0c     	jmp	$c69 <pickFile+0x3a7>
     b55: 18           	clc
     b56: a5 10        	lda	$10                     ; 0x2010 <main+0x374>
     b58: 69 07        	adc	#$7
     b5a: 85 24        	sta	$24                     ; 0x2024 <main+0x388>
     b5c: a5 11        	lda	$11                     ; 0x2011 <main+0x375>
     b5e: 69 00        	adc	#$0
     b60: 85 25        	sta	$25                     ; 0x2025 <main+0x389>
     b62: b2 24        	lda	($24)                   ; 0x2024 <main+0x388>
     b64: 85 12        	sta	$12                     ; 0x2012 <main+0x376>
     b66: a0 01        	ldy	#$1
     b68: b1 24        	lda	($24),y                 ; 0x2024 <main+0x388>
     b6a: 85 13        	sta	$13                     ; 0x2013 <main+0x377>
     b6c: b2 12        	lda	($12)                   ; 0x2012 <main+0x376>
     b6e: 85 14        	sta	$14                     ; 0x2014 <main+0x378>
     b70: b2 24        	lda	($24)                   ; 0x2024 <main+0x388>
     b72: 85 12        	sta	$12                     ; 0x2012 <main+0x376>
     b74: b1 24        	lda	($24),y                 ; 0x2024 <main+0x388>
     b76: 85 13        	sta	$13                     ; 0x2013 <main+0x377>
     b78: b2 24        	lda	($24)                   ; 0x2024 <main+0x388>
     b7a: 85 16        	sta	$16                     ; 0x2016 <main+0x37a>
     b7c: b1 24        	lda	($24),y                 ; 0x2024 <main+0x388>
     b7e: 85 15        	sta	$15                     ; 0x2015 <main+0x379>
     b80: 18           	clc
     b81: a5 16        	lda	$16                     ; 0x2016 <main+0x37a>
     b83: 69 e6        	adc	#$e6
     b85: aa           	tax
     b86: a5 15        	lda	$15                     ; 0x2015 <main+0x379>
     b88: 69 11        	adc	#$11
     b8a: 85 15        	sta	$15                     ; 0x2015 <main+0x379>
     b8c: b1 12        	lda	($12),y                 ; 0x2012 <main+0x376>
     b8e: 86 12        	stx	$12                     ; 0x2012 <main+0x376>
     b90: a6 15        	ldx	$15                     ; 0x2015 <main+0x379>
     b92: 86 13        	stx	$13                     ; 0x2013 <main+0x377>
     b94: 18           	clc
     b95: 72 12        	adc	($12)                   ; 0x2012 <main+0x376>
     b97: aa           	tax
     b98: a5 14        	lda	$14                     ; 0x2014 <main+0x378>
     b9a: 20 cd 2c     	jsr	$2ccd <textGotoXY>
     b9d: a9 20        	lda	#$20
     b9f: 92 10        	sta	($10)                   ; 0x2010 <main+0x374>
     ba1: a9 00        	lda	#$0
     ba3: a0 01        	ldy	#$1
     ba5: 91 10        	sta	($10),y                 ; 0x2010 <main+0x374>
     ba7: a2 56        	ldx	#$56
     ba9: 86 12        	stx	$12                     ; 0x2012 <main+0x376>
     bab: a2 43        	ldx	#$43
     bad: 86 13        	stx	$13                     ; 0x2013 <main+0x377>
     baf: 20 d5 3a     	jsr	$3ad5 <printf>
     bb2: b2 24        	lda	($24)                   ; 0x2024 <main+0x388>
     bb4: 85 13        	sta	$13                     ; 0x2013 <main+0x377>
     bb6: a0 01        	ldy	#$1
     bb8: b1 24        	lda	($24),y                 ; 0x2024 <main+0x388>
     bba: 85 12        	sta	$12                     ; 0x2012 <main+0x376>
     bbc: 18           	clc
     bbd: a5 13        	lda	$13                     ; 0x2013 <main+0x377>
     bbf: 69 e4        	adc	#$e4
     bc1: aa           	tax
     bc2: a5 12        	lda	$12                     ; 0x2012 <main+0x376>
     bc4: 69 11        	adc	#$11
     bc6: 86 12        	stx	$12                     ; 0x2012 <main+0x376>
     bc8: 85 13        	sta	$13                     ; 0x2013 <main+0x377>
     bca: b2 12        	lda	($12)                   ; 0x2012 <main+0x376>
     bcc: aa           	tax
     bcd: b1 12        	lda	($12),y                 ; 0x2012 <main+0x376>
     bcf: 85 14        	sta	$14                     ; 0x2014 <main+0x378>
     bd1: 8a           	txa
     bd2: 3a           	dec
     bd3: c9 ff        	cmp	#$ff
     bd5: f0 03        	beq	$bda <pickFile+0x318>
     bd7: 4c df 0b     	jmp	$bdf <pickFile+0x31d>
     bda: c6 14        	dec	$14                     ; 0x2014 <main+0x378>
     bdc: 4c df 0b     	jmp	$bdf <pickFile+0x31d>
     bdf: 92 12        	sta	($12)                   ; 0x2012 <main+0x376>
     be1: a5 14        	lda	$14                     ; 0x2014 <main+0x378>
     be3: 91 12        	sta	($12),y                 ; 0x2012 <main+0x376>
     be5: b2 24        	lda	($24)                   ; 0x2024 <main+0x388>
     be7: 85 13        	sta	$13                     ; 0x2013 <main+0x377>
     be9: b1 24        	lda	($24),y                 ; 0x2024 <main+0x388>
     beb: 85 12        	sta	$12                     ; 0x2012 <main+0x376>
     bed: 18           	clc
     bee: a5 13        	lda	$13                     ; 0x2013 <main+0x377>
     bf0: 69 e6        	adc	#$e6
     bf2: aa           	tax
     bf3: a5 12        	lda	$12                     ; 0x2012 <main+0x376>
     bf5: 69 11        	adc	#$11
     bf7: 86 12        	stx	$12                     ; 0x2012 <main+0x376>
     bf9: 85 13        	sta	$13                     ; 0x2013 <main+0x377>
     bfb: b2 12        	lda	($12)                   ; 0x2012 <main+0x376>
     bfd: aa           	tax
     bfe: b1 12        	lda	($12),y                 ; 0x2012 <main+0x376>
     c00: 85 14        	sta	$14                     ; 0x2014 <main+0x378>
     c02: 8a           	txa
     c03: 3a           	dec
     c04: c9 ff        	cmp	#$ff
     c06: f0 03        	beq	$c0b <pickFile+0x349>
     c08: 4c 10 0c     	jmp	$c10 <pickFile+0x34e>
     c0b: c6 14        	dec	$14                     ; 0x2014 <main+0x378>
     c0d: 4c 10 0c     	jmp	$c10 <pickFile+0x34e>
     c10: 92 12        	sta	($12)                   ; 0x2012 <main+0x376>
     c12: a5 14        	lda	$14                     ; 0x2014 <main+0x378>
     c14: 91 12        	sta	($12),y                 ; 0x2012 <main+0x376>
     c16: b2 24        	lda	($24)                   ; 0x2024 <main+0x388>
     c18: 85 12        	sta	$12                     ; 0x2012 <main+0x376>
     c1a: b1 24        	lda	($24),y                 ; 0x2024 <main+0x388>
     c1c: 85 13        	sta	$13                     ; 0x2013 <main+0x377>
     c1e: b2 24        	lda	($24)                   ; 0x2024 <main+0x388>
     c20: 85 14        	sta	$14                     ; 0x2014 <main+0x378>
     c22: b1 24        	lda	($24),y                 ; 0x2024 <main+0x388>
     c24: 85 15        	sta	$15                     ; 0x2015 <main+0x379>
     c26: b2 24        	lda	($24)                   ; 0x2024 <main+0x388>
     c28: 85 16        	sta	$16                     ; 0x2016 <main+0x37a>
     c2a: b1 24        	lda	($24),y                 ; 0x2024 <main+0x388>
     c2c: 85 18        	sta	$18                     ; 0x2018 <main+0x37c>
     c2e: a0 01        	ldy	#$1
     c30: 18           	clc
     c31: a5 16        	lda	$16                     ; 0x2016 <main+0x37a>
     c33: 69 e6        	adc	#$e6
     c35: 85 17        	sta	$17                     ; 0x2017 <main+0x37b>
     c37: a5 18        	lda	$18                     ; 0x2018 <main+0x37c>
     c39: 69 11        	adc	#$11
     c3b: aa           	tax
     c3c: b2 12        	lda	($12)                   ; 0x2012 <main+0x376>
     c3e: 85 16        	sta	$16                     ; 0x2016 <main+0x37a>
     c40: a5 17        	lda	$17                     ; 0x2017 <main+0x37b>
     c42: 85 12        	sta	$12                     ; 0x2012 <main+0x376>
     c44: b1 14        	lda	($14),y                 ; 0x2014 <main+0x378>
     c46: 86 13        	stx	$13                     ; 0x2013 <main+0x377>
     c48: 18           	clc
     c49: 72 12        	adc	($12)                   ; 0x2012 <main+0x376>
     c4b: aa           	tax
     c4c: a5 16        	lda	$16                     ; 0x2016 <main+0x37a>
     c4e: 20 cd 2c     	jsr	$2ccd <textGotoXY>
     c51: a9 fa        	lda	#$fa
     c53: 92 10        	sta	($10)                   ; 0x2010 <main+0x374>
     c55: a9 00        	lda	#$0
     c57: a0 01        	ldy	#$1
     c59: 91 10        	sta	($10),y                 ; 0x2010 <main+0x374>
     c5b: a2 56        	ldx	#$56
     c5d: 86 12        	stx	$12                     ; 0x2012 <main+0x376>
     c5f: a2 43        	ldx	#$43
     c61: 86 13        	stx	$13                     ; 0x2013 <main+0x377>
     c63: 20 d5 3a     	jsr	$3ad5 <printf>
     c66: 4c c9 0d     	jmp	$dc9 <pickFile+0x507>
     c69: 18           	clc
     c6a: a5 10        	lda	$10                     ; 0x2010 <main+0x374>
     c6c: 69 07        	adc	#$7
     c6e: 85 12        	sta	$12                     ; 0x2012 <main+0x376>
     c70: a5 11        	lda	$11                     ; 0x2011 <main+0x375>
     c72: 69 00        	adc	#$0
     c74: 85 13        	sta	$13                     ; 0x2013 <main+0x377>
     c76: b2 12        	lda	($12)                   ; 0x2012 <main+0x376>
     c78: 85 14        	sta	$14                     ; 0x2014 <main+0x378>
     c7a: a0 01        	ldy	#$1
     c7c: b1 12        	lda	($12),y                 ; 0x2012 <main+0x376>
     c7e: aa           	tax
     c7f: 18           	clc
     c80: a5 14        	lda	$14                     ; 0x2014 <main+0x378>
     c82: 69 e6        	adc	#$e6
     c84: 85 12        	sta	$12                     ; 0x2012 <main+0x376>
     c86: 8a           	txa
     c87: 69 11        	adc	#$11
     c89: 85 13        	sta	$13                     ; 0x2013 <main+0x377>
     c8b: b2 12        	lda	($12)                   ; 0x2012 <main+0x376>
     c8d: 85 14        	sta	$14                     ; 0x2014 <main+0x378>
     c8f: b1 12        	lda	($12),y                 ; 0x2012 <main+0x376>
     c91: f0 03        	beq	$c96 <pickFile+0x3d4>
     c93: 4c c9 0d     	jmp	$dc9 <pickFile+0x507>
     c96: a5 14        	lda	$14                     ; 0x2014 <main+0x378>
     c98: f0 03        	beq	$c9d <pickFile+0x3db>
     c9a: 4c c9 0d     	jmp	$dc9 <pickFile+0x507>
     c9d: 18           	clc
     c9e: a5 10        	lda	$10                     ; 0x2010 <main+0x374>
     ca0: 69 07        	adc	#$7
     ca2: 85 24        	sta	$24                     ; 0x2024 <main+0x388>
     ca4: a5 11        	lda	$11                     ; 0x2011 <main+0x375>
     ca6: 69 00        	adc	#$0
     ca8: 85 25        	sta	$25                     ; 0x2025 <main+0x389>
     caa: b2 24        	lda	($24)                   ; 0x2024 <main+0x388>
     cac: 85 12        	sta	$12                     ; 0x2012 <main+0x376>
     cae: a0 01        	ldy	#$1
     cb0: b1 24        	lda	($24),y                 ; 0x2024 <main+0x388>
     cb2: 85 13        	sta	$13                     ; 0x2013 <main+0x377>
     cb4: b2 12        	lda	($12)                   ; 0x2012 <main+0x376>
     cb6: 85 14        	sta	$14                     ; 0x2014 <main+0x378>
     cb8: b2 24        	lda	($24)                   ; 0x2024 <main+0x388>
     cba: 85 12        	sta	$12                     ; 0x2012 <main+0x376>
     cbc: b1 24        	lda	($24),y                 ; 0x2024 <main+0x388>
     cbe: 85 13        	sta	$13                     ; 0x2013 <main+0x377>
     cc0: b2 24        	lda	($24)                   ; 0x2024 <main+0x388>
     cc2: 85 16        	sta	$16                     ; 0x2016 <main+0x37a>
     cc4: b1 24        	lda	($24),y                 ; 0x2024 <main+0x388>
     cc6: 85 15        	sta	$15                     ; 0x2015 <main+0x379>
     cc8: 18           	clc
     cc9: a5 16        	lda	$16                     ; 0x2016 <main+0x37a>
     ccb: 69 e6        	adc	#$e6
     ccd: aa           	tax
     cce: a5 15        	lda	$15                     ; 0x2015 <main+0x379>
     cd0: 69 11        	adc	#$11
     cd2: 85 15        	sta	$15                     ; 0x2015 <main+0x379>
     cd4: b1 12        	lda	($12),y                 ; 0x2012 <main+0x376>
     cd6: 86 12        	stx	$12                     ; 0x2012 <main+0x376>
     cd8: a6 15        	ldx	$15                     ; 0x2015 <main+0x379>
     cda: 86 13        	stx	$13                     ; 0x2013 <main+0x377>
     cdc: 18           	clc
     cdd: 72 12        	adc	($12)                   ; 0x2012 <main+0x376>
     cdf: aa           	tax
     ce0: a5 14        	lda	$14                     ; 0x2014 <main+0x378>
     ce2: 20 cd 2c     	jsr	$2ccd <textGotoXY>
     ce5: a9 20        	lda	#$20
     ce7: 92 10        	sta	($10)                   ; 0x2010 <main+0x374>
     ce9: a9 00        	lda	#$0
     ceb: a0 01        	ldy	#$1
     ced: 91 10        	sta	($10),y                 ; 0x2010 <main+0x374>
     cef: a2 56        	ldx	#$56
     cf1: 86 12        	stx	$12                     ; 0x2012 <main+0x376>
     cf3: a2 43        	ldx	#$43
     cf5: 86 13        	stx	$13                     ; 0x2013 <main+0x377>
     cf7: 20 d5 3a     	jsr	$3ad5 <printf>
     cfa: b2 24        	lda	($24)                   ; 0x2024 <main+0x388>
     cfc: 85 13        	sta	$13                     ; 0x2013 <main+0x377>
     cfe: a0 01        	ldy	#$1
     d00: b1 24        	lda	($24),y                 ; 0x2024 <main+0x388>
     d02: 85 12        	sta	$12                     ; 0x2012 <main+0x376>
     d04: 18           	clc
     d05: a5 13        	lda	$13                     ; 0x2013 <main+0x377>
     d07: 69 e6        	adc	#$e6
     d09: aa           	tax
     d0a: a5 12        	lda	$12                     ; 0x2012 <main+0x376>
     d0c: 69 11        	adc	#$11
     d0e: 86 12        	stx	$12                     ; 0x2012 <main+0x376>
     d10: 85 13        	sta	$13                     ; 0x2013 <main+0x377>
     d12: a9 0f        	lda	#$f
     d14: 92 12        	sta	($12)                   ; 0x2012 <main+0x376>
     d16: a9 00        	lda	#$0
     d18: 91 12        	sta	($12),y                 ; 0x2012 <main+0x376>
     d1a: b2 24        	lda	($24)                   ; 0x2024 <main+0x388>
     d1c: 85 13        	sta	$13                     ; 0x2013 <main+0x377>
     d1e: b1 24        	lda	($24),y                 ; 0x2024 <main+0x388>
     d20: 85 12        	sta	$12                     ; 0x2012 <main+0x376>
     d22: 18           	clc
     d23: a5 13        	lda	$13                     ; 0x2013 <main+0x377>
     d25: 69 e8        	adc	#$e8
     d27: aa           	tax
     d28: a5 12        	lda	$12                     ; 0x2012 <main+0x376>
     d2a: 69 11        	adc	#$11
     d2c: 86 12        	stx	$12                     ; 0x2012 <main+0x376>
     d2e: 85 13        	sta	$13                     ; 0x2013 <main+0x377>
     d30: b2 12        	lda	($12)                   ; 0x2012 <main+0x376>
     d32: 85 15        	sta	$15                     ; 0x2015 <main+0x379>
     d34: b1 12        	lda	($12),y                 ; 0x2012 <main+0x376>
     d36: 85 14        	sta	$14                     ; 0x2014 <main+0x378>
     d38: 18           	clc
     d39: a5 15        	lda	$15                     ; 0x2015 <main+0x379>
     d3b: 69 f1        	adc	#$f1
     d3d: 85 15        	sta	$15                     ; 0x2015 <main+0x379>
     d3f: a5 14        	lda	$14                     ; 0x2014 <main+0x378>
     d41: 69 ff        	adc	#$ff
     d43: aa           	tax
     d44: a5 15        	lda	$15                     ; 0x2015 <main+0x379>
     d46: 92 12        	sta	($12)                   ; 0x2012 <main+0x376>
     d48: 8a           	txa
     d49: 91 12        	sta	($12),y                 ; 0x2012 <main+0x376>
     d4b: b2 24        	lda	($24)                   ; 0x2024 <main+0x388>
     d4d: 85 12        	sta	$12                     ; 0x2012 <main+0x376>
     d4f: b1 24        	lda	($24),y                 ; 0x2024 <main+0x388>
     d51: 85 13        	sta	$13                     ; 0x2013 <main+0x377>
     d53: b2 24        	lda	($24)                   ; 0x2024 <main+0x388>
     d55: 85 15        	sta	$15                     ; 0x2015 <main+0x379>
     d57: b1 24        	lda	($24),y                 ; 0x2024 <main+0x388>
     d59: 85 14        	sta	$14                     ; 0x2014 <main+0x378>
     d5b: a0 01        	ldy	#$1
     d5d: 18           	clc
     d5e: a5 15        	lda	$15                     ; 0x2015 <main+0x379>
     d60: 69 e8        	adc	#$e8
     d62: aa           	tax
     d63: a5 14        	lda	$14                     ; 0x2014 <main+0x378>
     d65: 69 11        	adc	#$11
     d67: 86 14        	stx	$14                     ; 0x2014 <main+0x378>
     d69: 85 15        	sta	$15                     ; 0x2015 <main+0x379>
     d6b: b2 14        	lda	($14)                   ; 0x2014 <main+0x378>
     d6d: 85 16        	sta	$16                     ; 0x2016 <main+0x37a>
     d6f: b1 14        	lda	($14),y                 ; 0x2014 <main+0x378>
     d71: aa           	tax
     d72: a5 16        	lda	$16                     ; 0x2016 <main+0x37a>
     d74: 20 0f 15     	jsr	$150f <displayFileList>
     d77: b2 24        	lda	($24)                   ; 0x2024 <main+0x388>
     d79: 85 12        	sta	$12                     ; 0x2012 <main+0x376>
     d7b: a0 01        	ldy	#$1
     d7d: b1 24        	lda	($24),y                 ; 0x2024 <main+0x388>
     d7f: 85 13        	sta	$13                     ; 0x2013 <main+0x377>
     d81: b2 24        	lda	($24)                   ; 0x2024 <main+0x388>
     d83: 85 14        	sta	$14                     ; 0x2014 <main+0x378>
     d85: b1 24        	lda	($24),y                 ; 0x2024 <main+0x388>
     d87: 85 15        	sta	$15                     ; 0x2015 <main+0x379>
     d89: b2 24        	lda	($24)                   ; 0x2024 <main+0x388>
     d8b: 85 16        	sta	$16                     ; 0x2016 <main+0x37a>
     d8d: b1 24        	lda	($24),y                 ; 0x2024 <main+0x388>
     d8f: 85 18        	sta	$18                     ; 0x2018 <main+0x37c>
     d91: a0 01        	ldy	#$1
     d93: 18           	clc
     d94: a5 16        	lda	$16                     ; 0x2016 <main+0x37a>
     d96: 69 e6        	adc	#$e6
     d98: 85 17        	sta	$17                     ; 0x2017 <main+0x37b>
     d9a: a5 18        	lda	$18                     ; 0x2018 <main+0x37c>
     d9c: 69 11        	adc	#$11
     d9e: aa           	tax
     d9f: b2 12        	lda	($12)                   ; 0x2012 <main+0x376>
     da1: 85 16        	sta	$16                     ; 0x2016 <main+0x37a>
     da3: a5 17        	lda	$17                     ; 0x2017 <main+0x37b>
     da5: 85 12        	sta	$12                     ; 0x2012 <main+0x376>
     da7: b1 14        	lda	($14),y                 ; 0x2014 <main+0x378>
     da9: 86 13        	stx	$13                     ; 0x2013 <main+0x377>
     dab: 18           	clc
     dac: 72 12        	adc	($12)                   ; 0x2012 <main+0x376>
     dae: aa           	tax
     daf: a5 16        	lda	$16                     ; 0x2016 <main+0x37a>
     db1: 20 cd 2c     	jsr	$2ccd <textGotoXY>
     db4: a9 fa        	lda	#$fa
     db6: 92 10        	sta	($10)                   ; 0x2010 <main+0x374>
     db8: a9 00        	lda	#$0
     dba: a0 01        	ldy	#$1
     dbc: 91 10        	sta	($10),y                 ; 0x2010 <main+0x374>
     dbe: a2 56        	ldx	#$56
     dc0: 86 12        	stx	$12                     ; 0x2012 <main+0x376>
     dc2: a2 43        	ldx	#$43
     dc4: 86 13        	stx	$13                     ; 0x2013 <main+0x377>
     dc6: 20 d5 3a     	jsr	$3ad5 <printf>
     dc9: 4c d4 14     	jmp	$14d4 <pickFile+0xc12>
     dcc: 18           	clc
     dcd: a5 10        	lda	$10                     ; 0x2010 <main+0x374>
     dcf: 69 07        	adc	#$7
     dd1: 85 12        	sta	$12                     ; 0x2012 <main+0x376>
     dd3: a5 11        	lda	$11                     ; 0x2011 <main+0x375>
     dd5: 69 00        	adc	#$0
     dd7: 85 13        	sta	$13                     ; 0x2013 <main+0x377>
     dd9: b2 12        	lda	($12)                   ; 0x2012 <main+0x376>
     ddb: 85 14        	sta	$14                     ; 0x2014 <main+0x378>
     ddd: a0 01        	ldy	#$1
     ddf: b1 12        	lda	($12),y                 ; 0x2012 <main+0x376>
     de1: aa           	tax
     de2: 18           	clc
     de3: a5 14        	lda	$14                     ; 0x2014 <main+0x378>
     de5: 69 e4        	adc	#$e4
     de7: 85 14        	sta	$14                     ; 0x2014 <main+0x378>
     de9: 8a           	txa
     dea: 69 11        	adc	#$11
     dec: 85 15        	sta	$15                     ; 0x2015 <main+0x379>
     dee: b2 14        	lda	($14)                   ; 0x2014 <main+0x378>
     df0: 85 16        	sta	$16                     ; 0x2016 <main+0x37a>
     df2: b2 12        	lda	($12)                   ; 0x2012 <main+0x376>
     df4: 85 17        	sta	$17                     ; 0x2017 <main+0x37b>
     df6: b1 12        	lda	($12),y                 ; 0x2012 <main+0x376>
     df8: 85 12        	sta	$12                     ; 0x2012 <main+0x376>
     dfa: 18           	clc
     dfb: a5 17        	lda	$17                     ; 0x2017 <main+0x37b>
     dfd: 69 e2        	adc	#$e2
     dff: aa           	tax
     e00: a5 12        	lda	$12                     ; 0x2012 <main+0x376>
     e02: 69 11        	adc	#$11
     e04: 85 13        	sta	$13                     ; 0x2013 <main+0x377>
     e06: b1 14        	lda	($14),y                 ; 0x2014 <main+0x378>
     e08: 85 14        	sta	$14                     ; 0x2014 <main+0x378>
     e0a: 86 12        	stx	$12                     ; 0x2012 <main+0x376>
     e0c: b2 12        	lda	($12)                   ; 0x2012 <main+0x376>
     e0e: aa           	tax
     e0f: b1 12        	lda	($12),y                 ; 0x2012 <main+0x376>
     e11: 85 12        	sta	$12                     ; 0x2012 <main+0x376>
     e13: a5 14        	lda	$14                     ; 0x2014 <main+0x378>
     e15: 86 13        	stx	$13                     ; 0x2013 <main+0x377>
     e17: a2 ff        	ldx	#$ff
     e19: c6 13        	dec	$13                     ; 0x2013 <main+0x377>
     e1b: e4 13        	cpx	$13                     ; 0x2013 <main+0x377>
     e1d: f0 03        	beq	$e22 <pickFile+0x560>
     e1f: 4c 27 0e     	jmp	$e27 <pickFile+0x565>
     e22: c6 12        	dec	$12                     ; 0x2012 <main+0x376>
     e24: 4c 27 0e     	jmp	$e27 <pickFile+0x565>
     e27: a6 16        	ldx	$16                     ; 0x2016 <main+0x37a>
     e29: e4 13        	cpx	$13                     ; 0x2013 <main+0x377>
     e2b: e5 12        	sbc	$12                     ; 0x2012 <main+0x376>
     e2d: 70 02        	bvs	$e31 <pickFile+0x56f>
     e2f: 80 04        	bra	$e35 <pickFile+0x573>
     e31: 49 80        	eor	#$80
     e33: 80 02        	bra	$e37 <pickFile+0x575>
     e35: 80 00        	bra	$e37 <pickFile+0x575>
     e37: aa           	tax
     e38: 30 03        	bmi	$e3d <pickFile+0x57b>
     e3a: 4c 49 11     	jmp	$1149 <pickFile+0x887>
     e3d: 18           	clc
     e3e: a5 10        	lda	$10                     ; 0x2010 <main+0x374>
     e40: 69 07        	adc	#$7
     e42: 85 12        	sta	$12                     ; 0x2012 <main+0x376>
     e44: a5 11        	lda	$11                     ; 0x2011 <main+0x375>
     e46: 69 00        	adc	#$0
     e48: 85 13        	sta	$13                     ; 0x2013 <main+0x377>
     e4a: b2 12        	lda	($12)                   ; 0x2012 <main+0x376>
     e4c: 85 14        	sta	$14                     ; 0x2014 <main+0x378>
     e4e: a0 01        	ldy	#$1
     e50: b1 12        	lda	($12),y                 ; 0x2012 <main+0x376>
     e52: aa           	tax
     e53: 18           	clc
     e54: a5 14        	lda	$14                     ; 0x2014 <main+0x378>
     e56: 69 e6        	adc	#$e6
     e58: 85 12        	sta	$12                     ; 0x2012 <main+0x376>
     e5a: 8a           	txa
     e5b: 69 11        	adc	#$11
     e5d: 85 13        	sta	$13                     ; 0x2013 <main+0x377>
     e5f: b2 12        	lda	($12)                   ; 0x2012 <main+0x376>
     e61: 85 14        	sta	$14                     ; 0x2014 <main+0x378>
     e63: b1 12        	lda	($12),y                 ; 0x2012 <main+0x376>
     e65: a6 14        	ldx	$14                     ; 0x2014 <main+0x378>
     e67: e0 0f        	cpx	#$f
     e69: e9 00        	sbc	#$0
     e6b: 70 02        	bvs	$e6f <pickFile+0x5ad>
     e6d: 80 04        	bra	$e73 <pickFile+0x5b1>
     e6f: 49 80        	eor	#$80
     e71: 80 02        	bra	$e75 <pickFile+0x5b3>
     e73: 80 00        	bra	$e75 <pickFile+0x5b3>
     e75: aa           	tax
     e76: 30 03        	bmi	$e7b <pickFile+0x5b9>
     e78: 4c 89 0f     	jmp	$f89 <pickFile+0x6c7>
     e7b: 18           	clc
     e7c: a5 10        	lda	$10                     ; 0x2010 <main+0x374>
     e7e: 69 07        	adc	#$7
     e80: 85 24        	sta	$24                     ; 0x2024 <main+0x388>
     e82: a5 11        	lda	$11                     ; 0x2011 <main+0x375>
     e84: 69 00        	adc	#$0
     e86: 85 25        	sta	$25                     ; 0x2025 <main+0x389>
     e88: b2 24        	lda	($24)                   ; 0x2024 <main+0x388>
     e8a: 85 12        	sta	$12                     ; 0x2012 <main+0x376>
     e8c: a0 01        	ldy	#$1
     e8e: b1 24        	lda	($24),y                 ; 0x2024 <main+0x388>
     e90: 85 13        	sta	$13                     ; 0x2013 <main+0x377>
     e92: b2 12        	lda	($12)                   ; 0x2012 <main+0x376>
     e94: 85 14        	sta	$14                     ; 0x2014 <main+0x378>
     e96: b2 24        	lda	($24)                   ; 0x2024 <main+0x388>
     e98: 85 12        	sta	$12                     ; 0x2012 <main+0x376>
     e9a: b1 24        	lda	($24),y                 ; 0x2024 <main+0x388>
     e9c: 85 13        	sta	$13                     ; 0x2013 <main+0x377>
     e9e: b2 24        	lda	($24)                   ; 0x2024 <main+0x388>
     ea0: 85 16        	sta	$16                     ; 0x2016 <main+0x37a>
     ea2: b1 24        	lda	($24),y                 ; 0x2024 <main+0x388>
     ea4: 85 15        	sta	$15                     ; 0x2015 <main+0x379>
     ea6: 18           	clc
     ea7: a5 16        	lda	$16                     ; 0x2016 <main+0x37a>
     ea9: 69 e6        	adc	#$e6
     eab: aa           	tax
     eac: a5 15        	lda	$15                     ; 0x2015 <main+0x379>
     eae: 69 11        	adc	#$11
     eb0: 85 15        	sta	$15                     ; 0x2015 <main+0x379>
     eb2: b1 12        	lda	($12),y                 ; 0x2012 <main+0x376>
     eb4: 86 12        	stx	$12                     ; 0x2012 <main+0x376>
     eb6: a6 15        	ldx	$15                     ; 0x2015 <main+0x379>
     eb8: 86 13        	stx	$13                     ; 0x2013 <main+0x377>
     eba: 18           	clc
     ebb: 72 12        	adc	($12)                   ; 0x2012 <main+0x376>
     ebd: aa           	tax
     ebe: a5 14        	lda	$14                     ; 0x2014 <main+0x378>
     ec0: 20 cd 2c     	jsr	$2ccd <textGotoXY>
     ec3: a9 20        	lda	#$20
     ec5: 92 10        	sta	($10)                   ; 0x2010 <main+0x374>
     ec7: a9 00        	lda	#$0
     ec9: a0 01        	ldy	#$1
     ecb: 91 10        	sta	($10),y                 ; 0x2010 <main+0x374>
     ecd: a2 56        	ldx	#$56
     ecf: 86 12        	stx	$12                     ; 0x2012 <main+0x376>
     ed1: a2 43        	ldx	#$43
     ed3: 86 13        	stx	$13                     ; 0x2013 <main+0x377>
     ed5: 20 d5 3a     	jsr	$3ad5 <printf>
     ed8: b2 24        	lda	($24)                   ; 0x2024 <main+0x388>
     eda: 85 13        	sta	$13                     ; 0x2013 <main+0x377>
     edc: a0 01        	ldy	#$1
     ede: b1 24        	lda	($24),y                 ; 0x2024 <main+0x388>
     ee0: 85 12        	sta	$12                     ; 0x2012 <main+0x376>
     ee2: 18           	clc
     ee3: a5 13        	lda	$13                     ; 0x2013 <main+0x377>
     ee5: 69 e4        	adc	#$e4
     ee7: aa           	tax
     ee8: a5 12        	lda	$12                     ; 0x2012 <main+0x376>
     eea: 69 11        	adc	#$11
     eec: 86 12        	stx	$12                     ; 0x2012 <main+0x376>
     eee: 85 13        	sta	$13                     ; 0x2013 <main+0x377>
     ef0: b2 12        	lda	($12)                   ; 0x2012 <main+0x376>
     ef2: 85 14        	sta	$14                     ; 0x2014 <main+0x378>
     ef4: b1 12        	lda	($12),y                 ; 0x2012 <main+0x376>
     ef6: aa           	tax
     ef7: a5 14        	lda	$14                     ; 0x2014 <main+0x378>
     ef9: 1a           	inc
     efa: f0 03        	beq	$eff <pickFile+0x63d>
     efc: 4c 03 0f     	jmp	$f03 <pickFile+0x641>
     eff: e8           	inx
     f00: 4c 03 0f     	jmp	$f03 <pickFile+0x641>
     f03: 92 12        	sta	($12)                   ; 0x2012 <main+0x376>
     f05: 8a           	txa
     f06: 91 12        	sta	($12),y                 ; 0x2012 <main+0x376>
     f08: b2 24        	lda	($24)                   ; 0x2024 <main+0x388>
     f0a: 85 13        	sta	$13                     ; 0x2013 <main+0x377>
     f0c: b1 24        	lda	($24),y                 ; 0x2024 <main+0x388>
     f0e: 85 12        	sta	$12                     ; 0x2012 <main+0x376>
     f10: 18           	clc
     f11: a5 13        	lda	$13                     ; 0x2013 <main+0x377>
     f13: 69 e6        	adc	#$e6
     f15: aa           	tax
     f16: a5 12        	lda	$12                     ; 0x2012 <main+0x376>
     f18: 69 11        	adc	#$11
     f1a: 86 12        	stx	$12                     ; 0x2012 <main+0x376>
     f1c: 85 13        	sta	$13                     ; 0x2013 <main+0x377>
     f1e: b2 12        	lda	($12)                   ; 0x2012 <main+0x376>
     f20: 85 14        	sta	$14                     ; 0x2014 <main+0x378>
     f22: b1 12        	lda	($12),y                 ; 0x2012 <main+0x376>
     f24: aa           	tax
     f25: a5 14        	lda	$14                     ; 0x2014 <main+0x378>
     f27: 1a           	inc
     f28: f0 03        	beq	$f2d <pickFile+0x66b>
     f2a: 4c 31 0f     	jmp	$f31 <pickFile+0x66f>
     f2d: e8           	inx
     f2e: 4c 31 0f     	jmp	$f31 <pickFile+0x66f>
     f31: 92 12        	sta	($12)                   ; 0x2012 <main+0x376>
     f33: 8a           	txa
     f34: 91 12        	sta	($12),y                 ; 0x2012 <main+0x376>
     f36: b2 24        	lda	($24)                   ; 0x2024 <main+0x388>
     f38: 85 12        	sta	$12                     ; 0x2012 <main+0x376>
     f3a: b1 24        	lda	($24),y                 ; 0x2024 <main+0x388>
     f3c: 85 13        	sta	$13                     ; 0x2013 <main+0x377>
     f3e: b2 24        	lda	($24)                   ; 0x2024 <main+0x388>
     f40: 85 14        	sta	$14                     ; 0x2014 <main+0x378>
     f42: b1 24        	lda	($24),y                 ; 0x2024 <main+0x388>
     f44: 85 15        	sta	$15                     ; 0x2015 <main+0x379>
     f46: b2 24        	lda	($24)                   ; 0x2024 <main+0x388>
     f48: 85 16        	sta	$16                     ; 0x2016 <main+0x37a>
     f4a: b1 24        	lda	($24),y                 ; 0x2024 <main+0x388>
     f4c: 85 18        	sta	$18                     ; 0x2018 <main+0x37c>
     f4e: a0 01        	ldy	#$1
     f50: 18           	clc
     f51: a5 16        	lda	$16                     ; 0x2016 <main+0x37a>
     f53: 69 e6        	adc	#$e6
     f55: 85 17        	sta	$17                     ; 0x2017 <main+0x37b>
     f57: a5 18        	lda	$18                     ; 0x2018 <main+0x37c>
     f59: 69 11        	adc	#$11
     f5b: aa           	tax
     f5c: b2 12        	lda	($12)                   ; 0x2012 <main+0x376>
     f5e: 85 16        	sta	$16                     ; 0x2016 <main+0x37a>
     f60: a5 17        	lda	$17                     ; 0x2017 <main+0x37b>
     f62: 85 12        	sta	$12                     ; 0x2012 <main+0x376>
     f64: b1 14        	lda	($14),y                 ; 0x2014 <main+0x378>
     f66: 86 13        	stx	$13                     ; 0x2013 <main+0x377>
     f68: 18           	clc
     f69: 72 12        	adc	($12)                   ; 0x2012 <main+0x376>
     f6b: aa           	tax
     f6c: a5 16        	lda	$16                     ; 0x2016 <main+0x37a>
     f6e: 20 cd 2c     	jsr	$2ccd <textGotoXY>
     f71: a9 fa        	lda	#$fa
     f73: 92 10        	sta	($10)                   ; 0x2010 <main+0x374>
     f75: a9 00        	lda	#$0
     f77: a0 01        	ldy	#$1
     f79: 91 10        	sta	($10),y                 ; 0x2010 <main+0x374>
     f7b: a2 56        	ldx	#$56
     f7d: 86 12        	stx	$12                     ; 0x2012 <main+0x376>
     f7f: a2 43        	ldx	#$43
     f81: 86 13        	stx	$13                     ; 0x2013 <main+0x377>
     f83: 20 d5 3a     	jsr	$3ad5 <printf>
     f86: 4c 49 11     	jmp	$1149 <pickFile+0x887>
     f89: 18           	clc
     f8a: a5 10        	lda	$10                     ; 0x2010 <main+0x374>
     f8c: 69 07        	adc	#$7
     f8e: 85 12        	sta	$12                     ; 0x2012 <main+0x376>
     f90: a5 11        	lda	$11                     ; 0x2011 <main+0x375>
     f92: 69 00        	adc	#$0
     f94: 85 13        	sta	$13                     ; 0x2013 <main+0x377>
     f96: b2 12        	lda	($12)                   ; 0x2012 <main+0x376>
     f98: 85 14        	sta	$14                     ; 0x2014 <main+0x378>
     f9a: a0 01        	ldy	#$1
     f9c: b1 12        	lda	($12),y                 ; 0x2012 <main+0x376>
     f9e: aa           	tax
     f9f: 18           	clc
     fa0: a5 14        	lda	$14                     ; 0x2014 <main+0x378>
     fa2: 69 e6        	adc	#$e6
     fa4: 85 12        	sta	$12                     ; 0x2012 <main+0x376>
     fa6: 8a           	txa
     fa7: 69 11        	adc	#$11
     fa9: 85 13        	sta	$13                     ; 0x2013 <main+0x377>
     fab: b2 12        	lda	($12)                   ; 0x2012 <main+0x376>
     fad: 85 14        	sta	$14                     ; 0x2014 <main+0x378>
     faf: b1 12        	lda	($12),y                 ; 0x2012 <main+0x376>
     fb1: f0 02        	beq	$fb5 <pickFile+0x6f3>
     fb3: 80 0f        	bra	$fc4 <pickFile+0x702>
     fb5: a6 14        	ldx	$14                     ; 0x2014 <main+0x378>
     fb7: e0 0f        	cpx	#$f
     fb9: f0 02        	beq	$fbd <pickFile+0x6fb>
     fbb: 80 02        	bra	$fbf <pickFile+0x6fd>
     fbd: 80 03        	bra	$fc2 <pickFile+0x700>
     fbf: 4c 49 11     	jmp	$1149 <pickFile+0x887>
     fc2: 80 03        	bra	$fc7 <pickFile+0x705>
     fc4: 4c 49 11     	jmp	$1149 <pickFile+0x887>
     fc7: 80 00        	bra	$fc9 <pickFile+0x707>
     fc9: 18           	clc
     fca: a5 10        	lda	$10                     ; 0x2010 <main+0x374>
     fcc: 69 07        	adc	#$7
     fce: 85 12        	sta	$12                     ; 0x2012 <main+0x376>
     fd0: a5 11        	lda	$11                     ; 0x2011 <main+0x375>
     fd2: 69 00        	adc	#$0
     fd4: 85 13        	sta	$13                     ; 0x2013 <main+0x377>
     fd6: b2 12        	lda	($12)                   ; 0x2012 <main+0x376>
     fd8: 85 14        	sta	$14                     ; 0x2014 <main+0x378>
     fda: a0 01        	ldy	#$1
     fdc: b1 12        	lda	($12),y                 ; 0x2012 <main+0x376>
     fde: aa           	tax
     fdf: 18           	clc
     fe0: a5 14        	lda	$14                     ; 0x2014 <main+0x378>
     fe2: 69 e2        	adc	#$e2
     fe4: 85 14        	sta	$14                     ; 0x2014 <main+0x378>
     fe6: 8a           	txa
     fe7: 69 11        	adc	#$11
     fe9: 85 15        	sta	$15                     ; 0x2015 <main+0x379>
     feb: b2 12        	lda	($12)                   ; 0x2012 <main+0x376>
     fed: 85 16        	sta	$16                     ; 0x2016 <main+0x37a>
     fef: b1 12        	lda	($12),y                 ; 0x2012 <main+0x376>
     ff1: 85 12        	sta	$12                     ; 0x2012 <main+0x376>
     ff3: 18           	clc
     ff4: a5 16        	lda	$16                     ; 0x2016 <main+0x37a>
     ff6: 69 e4        	adc	#$e4
     ff8: aa           	tax
     ff9: a5 12        	lda	$12                     ; 0x2012 <main+0x376>
     ffb: 69 11        	adc	#$11
     ffd: 86 12        	stx	$12                     ; 0x2012 <main+0x376>
     fff: 85 13        	sta	$13                     ; 0x2013 <main+0x377>
    1001: b2 12        	lda	($12)                   ; 0x2012 <main+0x376>
    1003: 85 16        	sta	$16                     ; 0x2016 <main+0x37a>
    1005: b1 12        	lda	($12),y                 ; 0x2012 <main+0x376>
    1007: aa           	tax
    1008: a5 16        	lda	$16                     ; 0x2016 <main+0x37a>
    100a: d2 14        	cmp	($14)                   ; 0x2014 <main+0x378>
    100c: 8a           	txa
    100d: f1 14        	sbc	($14),y                 ; 0x2014 <main+0x378>
    100f: 70 02        	bvs	$1013 <pickFile+0x751>
    1011: 80 04        	bra	$1017 <pickFile+0x755>
    1013: 49 80        	eor	#$80
    1015: 80 02        	bra	$1019 <pickFile+0x757>
    1017: 80 00        	bra	$1019 <pickFile+0x757>
    1019: aa           	tax
    101a: 30 03        	bmi	$101f <pickFile+0x75d>
    101c: 4c 49 11     	jmp	$1149 <pickFile+0x887>
    101f: 18           	clc
    1020: a5 10        	lda	$10                     ; 0x2010 <main+0x374>
    1022: 69 07        	adc	#$7
    1024: 85 24        	sta	$24                     ; 0x2024 <main+0x388>
    1026: a5 11        	lda	$11                     ; 0x2011 <main+0x375>
    1028: 69 00        	adc	#$0
    102a: 85 25        	sta	$25                     ; 0x2025 <main+0x389>
    102c: b2 24        	lda	($24)                   ; 0x2024 <main+0x388>
    102e: 85 12        	sta	$12                     ; 0x2012 <main+0x376>
    1030: a0 01        	ldy	#$1
    1032: b1 24        	lda	($24),y                 ; 0x2024 <main+0x388>
    1034: 85 13        	sta	$13                     ; 0x2013 <main+0x377>
    1036: b2 12        	lda	($12)                   ; 0x2012 <main+0x376>
    1038: 85 14        	sta	$14                     ; 0x2014 <main+0x378>
    103a: b2 24        	lda	($24)                   ; 0x2024 <main+0x388>
    103c: 85 12        	sta	$12                     ; 0x2012 <main+0x376>
    103e: b1 24        	lda	($24),y                 ; 0x2024 <main+0x388>
    1040: 85 13        	sta	$13                     ; 0x2013 <main+0x377>
    1042: b2 24        	lda	($24)                   ; 0x2024 <main+0x388>
    1044: 85 16        	sta	$16                     ; 0x2016 <main+0x37a>
    1046: b1 24        	lda	($24),y                 ; 0x2024 <main+0x388>
    1048: 85 15        	sta	$15                     ; 0x2015 <main+0x379>
    104a: 18           	clc
    104b: a5 16        	lda	$16                     ; 0x2016 <main+0x37a>
    104d: 69 e6        	adc	#$e6
    104f: aa           	tax
    1050: a5 15        	lda	$15                     ; 0x2015 <main+0x379>
    1052: 69 11        	adc	#$11
    1054: 85 15        	sta	$15                     ; 0x2015 <main+0x379>
    1056: b1 12        	lda	($12),y                 ; 0x2012 <main+0x376>
    1058: 86 12        	stx	$12                     ; 0x2012 <main+0x376>
    105a: a6 15        	ldx	$15                     ; 0x2015 <main+0x379>
    105c: 86 13        	stx	$13                     ; 0x2013 <main+0x377>
    105e: 18           	clc
    105f: 72 12        	adc	($12)                   ; 0x2012 <main+0x376>
    1061: aa           	tax
    1062: a5 14        	lda	$14                     ; 0x2014 <main+0x378>
    1064: 20 cd 2c     	jsr	$2ccd <textGotoXY>
    1067: a9 20        	lda	#$20
    1069: 92 10        	sta	($10)                   ; 0x2010 <main+0x374>
    106b: a9 00        	lda	#$0
    106d: a0 01        	ldy	#$1
    106f: 91 10        	sta	($10),y                 ; 0x2010 <main+0x374>
    1071: a2 56        	ldx	#$56
    1073: 86 12        	stx	$12                     ; 0x2012 <main+0x376>
    1075: a2 43        	ldx	#$43
    1077: 86 13        	stx	$13                     ; 0x2013 <main+0x377>
    1079: 20 d5 3a     	jsr	$3ad5 <printf>
    107c: b2 24        	lda	($24)                   ; 0x2024 <main+0x388>
    107e: 85 13        	sta	$13                     ; 0x2013 <main+0x377>
    1080: a0 01        	ldy	#$1
    1082: b1 24        	lda	($24),y                 ; 0x2024 <main+0x388>
    1084: 85 12        	sta	$12                     ; 0x2012 <main+0x376>
    1086: 18           	clc
    1087: a5 13        	lda	$13                     ; 0x2013 <main+0x377>
    1089: 69 e6        	adc	#$e6
    108b: aa           	tax
    108c: a5 12        	lda	$12                     ; 0x2012 <main+0x376>
    108e: 69 11        	adc	#$11
    1090: 86 12        	stx	$12                     ; 0x2012 <main+0x376>
    1092: 85 13        	sta	$13                     ; 0x2013 <main+0x377>
    1094: a9 00        	lda	#$0
    1096: 92 12        	sta	($12)                   ; 0x2012 <main+0x376>
    1098: 91 12        	sta	($12),y                 ; 0x2012 <main+0x376>
    109a: b2 24        	lda	($24)                   ; 0x2024 <main+0x388>
    109c: 85 13        	sta	$13                     ; 0x2013 <main+0x377>
    109e: b1 24        	lda	($24),y                 ; 0x2024 <main+0x388>
    10a0: 85 12        	sta	$12                     ; 0x2012 <main+0x376>
    10a2: 18           	clc
    10a3: a5 13        	lda	$13                     ; 0x2013 <main+0x377>
    10a5: 69 e8        	adc	#$e8
    10a7: aa           	tax
    10a8: a5 12        	lda	$12                     ; 0x2012 <main+0x376>
    10aa: 69 11        	adc	#$11
    10ac: 86 12        	stx	$12                     ; 0x2012 <main+0x376>
    10ae: 85 13        	sta	$13                     ; 0x2013 <main+0x377>
    10b0: b2 12        	lda	($12)                   ; 0x2012 <main+0x376>
    10b2: 85 15        	sta	$15                     ; 0x2015 <main+0x379>
    10b4: b1 12        	lda	($12),y                 ; 0x2012 <main+0x376>
    10b6: 85 14        	sta	$14                     ; 0x2014 <main+0x378>
    10b8: 18           	clc
    10b9: a5 15        	lda	$15                     ; 0x2015 <main+0x379>
    10bb: 69 0f        	adc	#$f
    10bd: 85 15        	sta	$15                     ; 0x2015 <main+0x379>
    10bf: a5 14        	lda	$14                     ; 0x2014 <main+0x378>
    10c1: 69 00        	adc	#$0
    10c3: aa           	tax
    10c4: a5 15        	lda	$15                     ; 0x2015 <main+0x379>
    10c6: 92 12        	sta	($12)                   ; 0x2012 <main+0x376>
    10c8: 8a           	txa
    10c9: 91 12        	sta	($12),y                 ; 0x2012 <main+0x376>
    10cb: b2 24        	lda	($24)                   ; 0x2024 <main+0x388>
    10cd: 85 12        	sta	$12                     ; 0x2012 <main+0x376>
    10cf: b1 24        	lda	($24),y                 ; 0x2024 <main+0x388>
    10d1: 85 13        	sta	$13                     ; 0x2013 <main+0x377>
    10d3: b2 24        	lda	($24)                   ; 0x2024 <main+0x388>
    10d5: 85 15        	sta	$15                     ; 0x2015 <main+0x379>
    10d7: b1 24        	lda	($24),y                 ; 0x2024 <main+0x388>
    10d9: 85 14        	sta	$14                     ; 0x2014 <main+0x378>
    10db: a0 01        	ldy	#$1
    10dd: 18           	clc
    10de: a5 15        	lda	$15                     ; 0x2015 <main+0x379>
    10e0: 69 e8        	adc	#$e8
    10e2: aa           	tax
    10e3: a5 14        	lda	$14                     ; 0x2014 <main+0x378>
    10e5: 69 11        	adc	#$11
    10e7: 86 14        	stx	$14                     ; 0x2014 <main+0x378>
    10e9: 85 15        	sta	$15                     ; 0x2015 <main+0x379>
    10eb: b2 14        	lda	($14)                   ; 0x2014 <main+0x378>
    10ed: 85 16        	sta	$16                     ; 0x2016 <main+0x37a>
    10ef: b1 14        	lda	($14),y                 ; 0x2014 <main+0x378>
    10f1: aa           	tax
    10f2: a5 16        	lda	$16                     ; 0x2016 <main+0x37a>
    10f4: 20 0f 15     	jsr	$150f <displayFileList>
    10f7: b2 24        	lda	($24)                   ; 0x2024 <main+0x388>
    10f9: 85 12        	sta	$12                     ; 0x2012 <main+0x376>
    10fb: a0 01        	ldy	#$1
    10fd: b1 24        	lda	($24),y                 ; 0x2024 <main+0x388>
    10ff: 85 13        	sta	$13                     ; 0x2013 <main+0x377>
    1101: b2 24        	lda	($24)                   ; 0x2024 <main+0x388>
    1103: 85 14        	sta	$14                     ; 0x2014 <main+0x378>
    1105: b1 24        	lda	($24),y                 ; 0x2024 <main+0x388>
    1107: 85 15        	sta	$15                     ; 0x2015 <main+0x379>
    1109: b2 24        	lda	($24)                   ; 0x2024 <main+0x388>
    110b: 85 16        	sta	$16                     ; 0x2016 <main+0x37a>
    110d: b1 24        	lda	($24),y                 ; 0x2024 <main+0x388>
    110f: 85 18        	sta	$18                     ; 0x2018 <main+0x37c>
    1111: a0 01        	ldy	#$1
    1113: 18           	clc
    1114: a5 16        	lda	$16                     ; 0x2016 <main+0x37a>
    1116: 69 e6        	adc	#$e6
    1118: 85 17        	sta	$17                     ; 0x2017 <main+0x37b>
    111a: a5 18        	lda	$18                     ; 0x2018 <main+0x37c>
    111c: 69 11        	adc	#$11
    111e: aa           	tax
    111f: b2 12        	lda	($12)                   ; 0x2012 <main+0x376>
    1121: 85 16        	sta	$16                     ; 0x2016 <main+0x37a>
    1123: a5 17        	lda	$17                     ; 0x2017 <main+0x37b>
    1125: 85 12        	sta	$12                     ; 0x2012 <main+0x376>
    1127: b1 14        	lda	($14),y                 ; 0x2014 <main+0x378>
    1129: 86 13        	stx	$13                     ; 0x2013 <main+0x377>
    112b: 18           	clc
    112c: 72 12        	adc	($12)                   ; 0x2012 <main+0x376>
    112e: aa           	tax
    112f: a5 16        	lda	$16                     ; 0x2016 <main+0x37a>
    1131: 20 cd 2c     	jsr	$2ccd <textGotoXY>
    1134: a9 fa        	lda	#$fa
    1136: 92 10        	sta	($10)                   ; 0x2010 <main+0x374>
    1138: a9 00        	lda	#$0
    113a: a0 01        	ldy	#$1
    113c: 91 10        	sta	($10),y                 ; 0x2010 <main+0x374>
    113e: a2 56        	ldx	#$56
    1140: 86 12        	stx	$12                     ; 0x2012 <main+0x376>
    1142: a2 43        	ldx	#$43
    1144: 86 13        	stx	$13                     ; 0x2013 <main+0x377>
    1146: 20 d5 3a     	jsr	$3ad5 <printf>
    1149: 4c d4 14     	jmp	$14d4 <pickFile+0xc12>
    114c: 18           	clc
    114d: a5 10        	lda	$10                     ; 0x2010 <main+0x374>
    114f: 69 07        	adc	#$7
    1151: 85 12        	sta	$12                     ; 0x2012 <main+0x376>
    1153: a5 11        	lda	$11                     ; 0x2011 <main+0x375>
    1155: 69 00        	adc	#$0
    1157: 85 13        	sta	$13                     ; 0x2013 <main+0x377>
    1159: b2 12        	lda	($12)                   ; 0x2012 <main+0x376>
    115b: 85 14        	sta	$14                     ; 0x2014 <main+0x378>
    115d: a0 01        	ldy	#$1
    115f: b1 12        	lda	($12),y                 ; 0x2012 <main+0x376>
    1161: aa           	tax
    1162: 18           	clc
    1163: a5 14        	lda	$14                     ; 0x2014 <main+0x378>
    1165: 69 e4        	adc	#$e4
    1167: 85 12        	sta	$12                     ; 0x2012 <main+0x376>
    1169: 8a           	txa
    116a: 69 11        	adc	#$11
    116c: 85 13        	sta	$13                     ; 0x2013 <main+0x377>
    116e: b2 12        	lda	($12)                   ; 0x2012 <main+0x376>
    1170: 85 14        	sta	$14                     ; 0x2014 <main+0x378>
    1172: b1 12        	lda	($12),y                 ; 0x2012 <main+0x376>
    1174: a6 14        	ldx	$14                     ; 0x2014 <main+0x378>
    1176: e0 0f        	cpx	#$f
    1178: e9 00        	sbc	#$0
    117a: 70 02        	bvs	$117e <pickFile+0x8bc>
    117c: 80 04        	bra	$1182 <pickFile+0x8c0>
    117e: 49 80        	eor	#$80
    1180: 80 02        	bra	$1184 <pickFile+0x8c2>
    1182: 80 00        	bra	$1184 <pickFile+0x8c2>
    1184: aa           	tax
    1185: 10 03        	bpl	$118a <pickFile+0x8c8>
    1187: 4c c9 12     	jmp	$12c9 <pickFile+0xa07>
    118a: 18           	clc
    118b: a5 10        	lda	$10                     ; 0x2010 <main+0x374>
    118d: 69 07        	adc	#$7
    118f: 85 24        	sta	$24                     ; 0x2024 <main+0x388>
    1191: a5 11        	lda	$11                     ; 0x2011 <main+0x375>
    1193: 69 00        	adc	#$0
    1195: 85 25        	sta	$25                     ; 0x2025 <main+0x389>
    1197: b2 24        	lda	($24)                   ; 0x2024 <main+0x388>
    1199: 85 12        	sta	$12                     ; 0x2012 <main+0x376>
    119b: a0 01        	ldy	#$1
    119d: b1 24        	lda	($24),y                 ; 0x2024 <main+0x388>
    119f: 85 13        	sta	$13                     ; 0x2013 <main+0x377>
    11a1: b2 12        	lda	($12)                   ; 0x2012 <main+0x376>
    11a3: 85 14        	sta	$14                     ; 0x2014 <main+0x378>
    11a5: b2 24        	lda	($24)                   ; 0x2024 <main+0x388>
    11a7: 85 12        	sta	$12                     ; 0x2012 <main+0x376>
    11a9: b1 24        	lda	($24),y                 ; 0x2024 <main+0x388>
    11ab: 85 13        	sta	$13                     ; 0x2013 <main+0x377>
    11ad: b2 24        	lda	($24)                   ; 0x2024 <main+0x388>
    11af: 85 16        	sta	$16                     ; 0x2016 <main+0x37a>
    11b1: b1 24        	lda	($24),y                 ; 0x2024 <main+0x388>
    11b3: 85 15        	sta	$15                     ; 0x2015 <main+0x379>
    11b5: 18           	clc
    11b6: a5 16        	lda	$16                     ; 0x2016 <main+0x37a>
    11b8: 69 e6        	adc	#$e6
    11ba: aa           	tax
    11bb: a5 15        	lda	$15                     ; 0x2015 <main+0x379>
    11bd: 69 11        	adc	#$11
    11bf: 85 15        	sta	$15                     ; 0x2015 <main+0x379>
    11c1: b1 12        	lda	($12),y                 ; 0x2012 <main+0x376>
    11c3: 86 12        	stx	$12                     ; 0x2012 <main+0x376>
    11c5: a6 15        	ldx	$15                     ; 0x2015 <main+0x379>
    11c7: 86 13        	stx	$13                     ; 0x2013 <main+0x377>
    11c9: 18           	clc
    11ca: 72 12        	adc	($12)                   ; 0x2012 <main+0x376>
    11cc: aa           	tax
    11cd: a5 14        	lda	$14                     ; 0x2014 <main+0x378>
    11cf: 20 cd 2c     	jsr	$2ccd <textGotoXY>
    11d2: a9 20        	lda	#$20
    11d4: 92 10        	sta	($10)                   ; 0x2010 <main+0x374>
    11d6: a9 00        	lda	#$0
    11d8: a0 01        	ldy	#$1
    11da: 91 10        	sta	($10),y                 ; 0x2010 <main+0x374>
    11dc: a2 56        	ldx	#$56
    11de: 86 12        	stx	$12                     ; 0x2012 <main+0x376>
    11e0: a2 43        	ldx	#$43
    11e2: 86 13        	stx	$13                     ; 0x2013 <main+0x377>
    11e4: 20 d5 3a     	jsr	$3ad5 <printf>
    11e7: b2 24        	lda	($24)                   ; 0x2024 <main+0x388>
    11e9: 85 13        	sta	$13                     ; 0x2013 <main+0x377>
    11eb: a0 01        	ldy	#$1
    11ed: b1 24        	lda	($24),y                 ; 0x2024 <main+0x388>
    11ef: 85 12        	sta	$12                     ; 0x2012 <main+0x376>
    11f1: 18           	clc
    11f2: a5 13        	lda	$13                     ; 0x2013 <main+0x377>
    11f4: 69 e4        	adc	#$e4
    11f6: aa           	tax
    11f7: a5 12        	lda	$12                     ; 0x2012 <main+0x376>
    11f9: 69 11        	adc	#$11
    11fb: 86 12        	stx	$12                     ; 0x2012 <main+0x376>
    11fd: 85 13        	sta	$13                     ; 0x2013 <main+0x377>
    11ff: b2 12        	lda	($12)                   ; 0x2012 <main+0x376>
    1201: 85 15        	sta	$15                     ; 0x2015 <main+0x379>
    1203: b1 12        	lda	($12),y                 ; 0x2012 <main+0x376>
    1205: 85 14        	sta	$14                     ; 0x2014 <main+0x378>
    1207: 18           	clc
    1208: a5 15        	lda	$15                     ; 0x2015 <main+0x379>
    120a: 69 f1        	adc	#$f1
    120c: 85 15        	sta	$15                     ; 0x2015 <main+0x379>
    120e: a5 14        	lda	$14                     ; 0x2014 <main+0x378>
    1210: 69 ff        	adc	#$ff
    1212: aa           	tax
    1213: a5 15        	lda	$15                     ; 0x2015 <main+0x379>
    1215: 92 12        	sta	($12)                   ; 0x2012 <main+0x376>
    1217: 8a           	txa
    1218: 91 12        	sta	($12),y                 ; 0x2012 <main+0x376>
    121a: b2 24        	lda	($24)                   ; 0x2024 <main+0x388>
    121c: 85 13        	sta	$13                     ; 0x2013 <main+0x377>
    121e: b1 24        	lda	($24),y                 ; 0x2024 <main+0x388>
    1220: 85 12        	sta	$12                     ; 0x2012 <main+0x376>
    1222: 18           	clc
    1223: a5 13        	lda	$13                     ; 0x2013 <main+0x377>
    1225: 69 e8        	adc	#$e8
    1227: aa           	tax
    1228: a5 12        	lda	$12                     ; 0x2012 <main+0x376>
    122a: 69 11        	adc	#$11
    122c: 86 12        	stx	$12                     ; 0x2012 <main+0x376>
    122e: 85 13        	sta	$13                     ; 0x2013 <main+0x377>
    1230: b2 12        	lda	($12)                   ; 0x2012 <main+0x376>
    1232: 85 15        	sta	$15                     ; 0x2015 <main+0x379>
    1234: b1 12        	lda	($12),y                 ; 0x2012 <main+0x376>
    1236: 85 14        	sta	$14                     ; 0x2014 <main+0x378>
    1238: 18           	clc
    1239: a5 15        	lda	$15                     ; 0x2015 <main+0x379>
    123b: 69 f1        	adc	#$f1
    123d: 85 15        	sta	$15                     ; 0x2015 <main+0x379>
    123f: a5 14        	lda	$14                     ; 0x2014 <main+0x378>
    1241: 69 ff        	adc	#$ff
    1243: aa           	tax
    1244: a5 15        	lda	$15                     ; 0x2015 <main+0x379>
    1246: 92 12        	sta	($12)                   ; 0x2012 <main+0x376>
    1248: 8a           	txa
    1249: 91 12        	sta	($12),y                 ; 0x2012 <main+0x376>
    124b: b2 24        	lda	($24)                   ; 0x2024 <main+0x388>
    124d: 85 12        	sta	$12                     ; 0x2012 <main+0x376>
    124f: b1 24        	lda	($24),y                 ; 0x2024 <main+0x388>
    1251: 85 13        	sta	$13                     ; 0x2013 <main+0x377>
    1253: b2 24        	lda	($24)                   ; 0x2024 <main+0x388>
    1255: 85 15        	sta	$15                     ; 0x2015 <main+0x379>
    1257: b1 24        	lda	($24),y                 ; 0x2024 <main+0x388>
    1259: 85 14        	sta	$14                     ; 0x2014 <main+0x378>
    125b: a0 01        	ldy	#$1
    125d: 18           	clc
    125e: a5 15        	lda	$15                     ; 0x2015 <main+0x379>
    1260: 69 e8        	adc	#$e8
    1262: aa           	tax
    1263: a5 14        	lda	$14                     ; 0x2014 <main+0x378>
    1265: 69 11        	adc	#$11
    1267: 86 14        	stx	$14                     ; 0x2014 <main+0x378>
    1269: 85 15        	sta	$15                     ; 0x2015 <main+0x379>
    126b: b2 14        	lda	($14)                   ; 0x2014 <main+0x378>
    126d: 85 16        	sta	$16                     ; 0x2016 <main+0x37a>
    126f: b1 14        	lda	($14),y                 ; 0x2014 <main+0x378>
    1271: aa           	tax
    1272: a5 16        	lda	$16                     ; 0x2016 <main+0x37a>
    1274: 20 0f 15     	jsr	$150f <displayFileList>
    1277: b2 24        	lda	($24)                   ; 0x2024 <main+0x388>
    1279: 85 12        	sta	$12                     ; 0x2012 <main+0x376>
    127b: a0 01        	ldy	#$1
    127d: b1 24        	lda	($24),y                 ; 0x2024 <main+0x388>
    127f: 85 13        	sta	$13                     ; 0x2013 <main+0x377>
    1281: b2 24        	lda	($24)                   ; 0x2024 <main+0x388>
    1283: 85 14        	sta	$14                     ; 0x2014 <main+0x378>
    1285: b1 24        	lda	($24),y                 ; 0x2024 <main+0x388>
    1287: 85 15        	sta	$15                     ; 0x2015 <main+0x379>
    1289: b2 24        	lda	($24)                   ; 0x2024 <main+0x388>
    128b: 85 16        	sta	$16                     ; 0x2016 <main+0x37a>
    128d: b1 24        	lda	($24),y                 ; 0x2024 <main+0x388>
    128f: 85 18        	sta	$18                     ; 0x2018 <main+0x37c>
    1291: a0 01        	ldy	#$1
    1293: 18           	clc
    1294: a5 16        	lda	$16                     ; 0x2016 <main+0x37a>
    1296: 69 e6        	adc	#$e6
    1298: 85 17        	sta	$17                     ; 0x2017 <main+0x37b>
    129a: a5 18        	lda	$18                     ; 0x2018 <main+0x37c>
    129c: 69 11        	adc	#$11
    129e: aa           	tax
    129f: b2 12        	lda	($12)                   ; 0x2012 <main+0x376>
    12a1: 85 16        	sta	$16                     ; 0x2016 <main+0x37a>
    12a3: a5 17        	lda	$17                     ; 0x2017 <main+0x37b>
    12a5: 85 12        	sta	$12                     ; 0x2012 <main+0x376>
    12a7: b1 14        	lda	($14),y                 ; 0x2014 <main+0x378>
    12a9: 86 13        	stx	$13                     ; 0x2013 <main+0x377>
    12ab: 18           	clc
    12ac: 72 12        	adc	($12)                   ; 0x2012 <main+0x376>
    12ae: aa           	tax
    12af: a5 16        	lda	$16                     ; 0x2016 <main+0x37a>
    12b1: 20 cd 2c     	jsr	$2ccd <textGotoXY>
    12b4: a9 fa        	lda	#$fa
    12b6: 92 10        	sta	($10)                   ; 0x2010 <main+0x374>
    12b8: a9 00        	lda	#$0
    12ba: a0 01        	ldy	#$1
    12bc: 91 10        	sta	($10),y                 ; 0x2010 <main+0x374>
    12be: a2 56        	ldx	#$56
    12c0: 86 12        	stx	$12                     ; 0x2012 <main+0x376>
    12c2: a2 43        	ldx	#$43
    12c4: 86 13        	stx	$13                     ; 0x2013 <main+0x377>
    12c6: 20 d5 3a     	jsr	$3ad5 <printf>
    12c9: 4c d4 14     	jmp	$14d4 <pickFile+0xc12>
    12cc: 18           	clc
    12cd: a5 10        	lda	$10                     ; 0x2010 <main+0x374>
    12cf: 69 07        	adc	#$7
    12d1: 85 14        	sta	$14                     ; 0x2014 <main+0x378>
    12d3: a5 11        	lda	$11                     ; 0x2011 <main+0x375>
    12d5: 69 00        	adc	#$0
    12d7: 85 15        	sta	$15                     ; 0x2015 <main+0x379>
    12d9: b2 14        	lda	($14)                   ; 0x2014 <main+0x378>
    12db: 85 12        	sta	$12                     ; 0x2012 <main+0x376>
    12dd: a0 01        	ldy	#$1
    12df: b1 14        	lda	($14),y                 ; 0x2014 <main+0x378>
    12e1: aa           	tax
    12e2: 18           	clc
    12e3: a5 12        	lda	$12                     ; 0x2012 <main+0x376>
    12e5: 69 e2        	adc	#$e2
    12e7: 85 12        	sta	$12                     ; 0x2012 <main+0x376>
    12e9: 8a           	txa
    12ea: 69 11        	adc	#$11
    12ec: 85 13        	sta	$13                     ; 0x2013 <main+0x377>
    12ee: b2 14        	lda	($14)                   ; 0x2014 <main+0x378>
    12f0: 85 17        	sta	$17                     ; 0x2017 <main+0x37b>
    12f2: b1 14        	lda	($14),y                 ; 0x2014 <main+0x378>
    12f4: 85 16        	sta	$16                     ; 0x2016 <main+0x37a>
    12f6: 18           	clc
    12f7: a5 17        	lda	$17                     ; 0x2017 <main+0x37b>
    12f9: 69 e4        	adc	#$e4
    12fb: aa           	tax
    12fc: a5 16        	lda	$16                     ; 0x2016 <main+0x37a>
    12fe: 69 11        	adc	#$11
    1300: 86 16        	stx	$16                     ; 0x2016 <main+0x37a>
    1302: 85 17        	sta	$17                     ; 0x2017 <main+0x37b>
    1304: b2 16        	lda	($16)                   ; 0x2016 <main+0x37a>
    1306: 85 18        	sta	$18                     ; 0x2018 <main+0x37c>
    1308: b2 14        	lda	($14)                   ; 0x2014 <main+0x378>
    130a: 85 19        	sta	$19                     ; 0x2019 <main+0x37d>
    130c: b1 14        	lda	($14),y                 ; 0x2014 <main+0x378>
    130e: 85 15        	sta	$15                     ; 0x2015 <main+0x379>
    1310: 18           	clc
    1311: a5 19        	lda	$19                     ; 0x2019 <main+0x37d>
    1313: 69 e6        	adc	#$e6
    1315: 85 14        	sta	$14                     ; 0x2014 <main+0x378>
    1317: a5 15        	lda	$15                     ; 0x2015 <main+0x379>
    1319: 69 11        	adc	#$11
    131b: 85 15        	sta	$15                     ; 0x2015 <main+0x379>
    131d: b1 16        	lda	($16),y                 ; 0x2016 <main+0x37a>
    131f: 85 17        	sta	$17                     ; 0x2017 <main+0x37b>
    1321: 38           	sec
    1322: a5 18        	lda	$18                     ; 0x2018 <main+0x37c>
    1324: f2 14        	sbc	($14)                   ; 0x2014 <main+0x378>
    1326: 85 16        	sta	$16                     ; 0x2016 <main+0x37a>
    1328: a5 17        	lda	$17                     ; 0x2017 <main+0x37b>
    132a: f1 14        	sbc	($14),y                 ; 0x2014 <main+0x378>
    132c: 85 15        	sta	$15                     ; 0x2015 <main+0x379>
    132e: 18           	clc
    132f: a5 16        	lda	$16                     ; 0x2016 <main+0x37a>
    1331: 69 10        	adc	#$10
    1333: 85 14        	sta	$14                     ; 0x2014 <main+0x378>
    1335: a5 15        	lda	$15                     ; 0x2015 <main+0x379>
    1337: 69 00        	adc	#$0
    1339: aa           	tax
    133a: a5 14        	lda	$14                     ; 0x2014 <main+0x378>
    133c: d2 12        	cmp	($12)                   ; 0x2012 <main+0x376>
    133e: 8a           	txa
    133f: f1 12        	sbc	($12),y                 ; 0x2012 <main+0x376>
    1341: 70 02        	bvs	$1345 <pickFile+0xa83>
    1343: 80 04        	bra	$1349 <pickFile+0xa87>
    1345: 49 80        	eor	#$80
    1347: 80 02        	bra	$134b <pickFile+0xa89>
    1349: 80 00        	bra	$134b <pickFile+0xa89>
    134b: aa           	tax
    134c: 30 03        	bmi	$1351 <pickFile+0xa8f>
    134e: 4c d4 14     	jmp	$14d4 <pickFile+0xc12>
    1351: 18           	clc
    1352: a5 10        	lda	$10                     ; 0x2010 <main+0x374>
    1354: 69 07        	adc	#$7
    1356: 85 24        	sta	$24                     ; 0x2024 <main+0x388>
    1358: a5 11        	lda	$11                     ; 0x2011 <main+0x375>
    135a: 69 00        	adc	#$0
    135c: 85 25        	sta	$25                     ; 0x2025 <main+0x389>
    135e: b2 24        	lda	($24)                   ; 0x2024 <main+0x388>
    1360: 85 12        	sta	$12                     ; 0x2012 <main+0x376>
    1362: a0 01        	ldy	#$1
    1364: b1 24        	lda	($24),y                 ; 0x2024 <main+0x388>
    1366: 85 13        	sta	$13                     ; 0x2013 <main+0x377>
    1368: b2 12        	lda	($12)                   ; 0x2012 <main+0x376>
    136a: 85 14        	sta	$14                     ; 0x2014 <main+0x378>
    136c: b2 24        	lda	($24)                   ; 0x2024 <main+0x388>
    136e: 85 12        	sta	$12                     ; 0x2012 <main+0x376>
    1370: b1 24        	lda	($24),y                 ; 0x2024 <main+0x388>
    1372: 85 13        	sta	$13                     ; 0x2013 <main+0x377>
    1374: b2 24        	lda	($24)                   ; 0x2024 <main+0x388>
    1376: 85 16        	sta	$16                     ; 0x2016 <main+0x37a>
    1378: b1 24        	lda	($24),y                 ; 0x2024 <main+0x388>
    137a: 85 15        	sta	$15                     ; 0x2015 <main+0x379>
    137c: 18           	clc
    137d: a5 16        	lda	$16                     ; 0x2016 <main+0x37a>
    137f: 69 e6        	adc	#$e6
    1381: aa           	tax
    1382: a5 15        	lda	$15                     ; 0x2015 <main+0x379>
    1384: 69 11        	adc	#$11
    1386: 85 15        	sta	$15                     ; 0x2015 <main+0x379>
    1388: b1 12        	lda	($12),y                 ; 0x2012 <main+0x376>
    138a: 86 12        	stx	$12                     ; 0x2012 <main+0x376>
    138c: a6 15        	ldx	$15                     ; 0x2015 <main+0x379>
    138e: 86 13        	stx	$13                     ; 0x2013 <main+0x377>
    1390: 18           	clc
    1391: 72 12        	adc	($12)                   ; 0x2012 <main+0x376>
    1393: aa           	tax
    1394: a5 14        	lda	$14                     ; 0x2014 <main+0x378>
    1396: 20 cd 2c     	jsr	$2ccd <textGotoXY>
    1399: a9 20        	lda	#$20
    139b: 92 10        	sta	($10)                   ; 0x2010 <main+0x374>
    139d: a9 00        	lda	#$0
    139f: a0 01        	ldy	#$1
    13a1: 91 10        	sta	($10),y                 ; 0x2010 <main+0x374>
    13a3: a2 56        	ldx	#$56
    13a5: 86 12        	stx	$12                     ; 0x2012 <main+0x376>
    13a7: a2 43        	ldx	#$43
    13a9: 86 13        	stx	$13                     ; 0x2013 <main+0x377>
    13ab: 20 d5 3a     	jsr	$3ad5 <printf>
    13ae: b2 24        	lda	($24)                   ; 0x2024 <main+0x388>
    13b0: 85 13        	sta	$13                     ; 0x2013 <main+0x377>
    13b2: a0 01        	ldy	#$1
    13b4: b1 24        	lda	($24),y                 ; 0x2024 <main+0x388>
    13b6: 85 12        	sta	$12                     ; 0x2012 <main+0x376>
    13b8: 18           	clc
    13b9: a5 13        	lda	$13                     ; 0x2013 <main+0x377>
    13bb: 69 e6        	adc	#$e6
    13bd: aa           	tax
    13be: a5 12        	lda	$12                     ; 0x2012 <main+0x376>
    13c0: 69 11        	adc	#$11
    13c2: 86 12        	stx	$12                     ; 0x2012 <main+0x376>
    13c4: 85 13        	sta	$13                     ; 0x2013 <main+0x377>
    13c6: 38           	sec
    13c7: a9 0f        	lda	#$f
    13c9: f2 12        	sbc	($12)                   ; 0x2012 <main+0x376>
    13cb: aa           	tax
    13cc: a9 00        	lda	#$0
    13ce: f1 12        	sbc	($12),y                 ; 0x2012 <main+0x376>
    13d0: 85 15        	sta	$15                     ; 0x2015 <main+0x379>
    13d2: b2 24        	lda	($24)                   ; 0x2024 <main+0x388>
    13d4: 85 13        	sta	$13                     ; 0x2013 <main+0x377>
    13d6: b1 24        	lda	($24),y                 ; 0x2024 <main+0x388>
    13d8: 85 12        	sta	$12                     ; 0x2012 <main+0x376>
    13da: 18           	clc
    13db: a5 13        	lda	$13                     ; 0x2013 <main+0x377>
    13dd: 69 e4        	adc	#$e4
    13df: 85 14        	sta	$14                     ; 0x2014 <main+0x378>
    13e1: a5 12        	lda	$12                     ; 0x2012 <main+0x376>
    13e3: 69 11        	adc	#$11
    13e5: 5a           	phy
    13e6: a4 14        	ldy	$14                     ; 0x2014 <main+0x378>
    13e8: 84 12        	sty	$12                     ; 0x2012 <main+0x376>
    13ea: 7a           	ply
    13eb: 85 13        	sta	$13                     ; 0x2013 <main+0x377>
    13ed: 18           	clc
    13ee: 8a           	txa
    13ef: 72 12        	adc	($12)                   ; 0x2012 <main+0x376>
    13f1: 85 14        	sta	$14                     ; 0x2014 <main+0x378>
    13f3: a5 15        	lda	$15                     ; 0x2015 <main+0x379>
    13f5: 71 12        	adc	($12),y                 ; 0x2012 <main+0x376>
    13f7: 85 15        	sta	$15                     ; 0x2015 <main+0x379>
    13f9: a5 14        	lda	$14                     ; 0x2014 <main+0x378>
    13fb: 92 12        	sta	($12)                   ; 0x2012 <main+0x376>
    13fd: a5 15        	lda	$15                     ; 0x2015 <main+0x379>
    13ff: 91 12        	sta	($12),y                 ; 0x2012 <main+0x376>
    1401: b2 24        	lda	($24)                   ; 0x2024 <main+0x388>
    1403: 85 13        	sta	$13                     ; 0x2013 <main+0x377>
    1405: b1 24        	lda	($24),y                 ; 0x2024 <main+0x388>
    1407: 85 12        	sta	$12                     ; 0x2012 <main+0x376>
    1409: 18           	clc
    140a: a5 13        	lda	$13                     ; 0x2013 <main+0x377>
    140c: 69 e6        	adc	#$e6
    140e: aa           	tax
    140f: a5 12        	lda	$12                     ; 0x2012 <main+0x376>
    1411: 69 11        	adc	#$11
    1413: 86 12        	stx	$12                     ; 0x2012 <main+0x376>
    1415: 85 13        	sta	$13                     ; 0x2013 <main+0x377>
    1417: a9 00        	lda	#$0
    1419: 92 12        	sta	($12)                   ; 0x2012 <main+0x376>
    141b: 91 12        	sta	($12),y                 ; 0x2012 <main+0x376>
    141d: b2 24        	lda	($24)                   ; 0x2024 <main+0x388>
    141f: 85 13        	sta	$13                     ; 0x2013 <main+0x377>
    1421: b1 24        	lda	($24),y                 ; 0x2024 <main+0x388>
    1423: 85 12        	sta	$12                     ; 0x2012 <main+0x376>
    1425: 18           	clc
    1426: a5 13        	lda	$13                     ; 0x2013 <main+0x377>
    1428: 69 e8        	adc	#$e8
    142a: aa           	tax
    142b: a5 12        	lda	$12                     ; 0x2012 <main+0x376>
    142d: 69 11        	adc	#$11
    142f: 86 12        	stx	$12                     ; 0x2012 <main+0x376>
    1431: 85 13        	sta	$13                     ; 0x2013 <main+0x377>
    1433: b2 12        	lda	($12)                   ; 0x2012 <main+0x376>
    1435: 85 15        	sta	$15                     ; 0x2015 <main+0x379>
    1437: b1 12        	lda	($12),y                 ; 0x2012 <main+0x376>
    1439: 85 14        	sta	$14                     ; 0x2014 <main+0x378>
    143b: 18           	clc
    143c: a5 15        	lda	$15                     ; 0x2015 <main+0x379>
    143e: 69 0f        	adc	#$f
    1440: 85 15        	sta	$15                     ; 0x2015 <main+0x379>
    1442: a5 14        	lda	$14                     ; 0x2014 <main+0x378>
    1444: 69 00        	adc	#$0
    1446: aa           	tax
    1447: a5 15        	lda	$15                     ; 0x2015 <main+0x379>
    1449: 92 12        	sta	($12)                   ; 0x2012 <main+0x376>
    144b: 8a           	txa
    144c: 91 12        	sta	($12),y                 ; 0x2012 <main+0x376>
    144e: b2 24        	lda	($24)                   ; 0x2024 <main+0x388>
    1450: 85 12        	sta	$12                     ; 0x2012 <main+0x376>
    1452: b1 24        	lda	($24),y                 ; 0x2024 <main+0x388>
    1454: 85 13        	sta	$13                     ; 0x2013 <main+0x377>
    1456: b2 24        	lda	($24)                   ; 0x2024 <main+0x388>
    1458: 85 15        	sta	$15                     ; 0x2015 <main+0x379>
    145a: b1 24        	lda	($24),y                 ; 0x2024 <main+0x388>
    145c: 85 14        	sta	$14                     ; 0x2014 <main+0x378>
    145e: a0 01        	ldy	#$1
    1460: 18           	clc
    1461: a5 15        	lda	$15                     ; 0x2015 <main+0x379>
    1463: 69 e8        	adc	#$e8
    1465: aa           	tax
    1466: a5 14        	lda	$14                     ; 0x2014 <main+0x378>
    1468: 69 11        	adc	#$11
    146a: 86 14        	stx	$14                     ; 0x2014 <main+0x378>
    146c: 85 15        	sta	$15                     ; 0x2015 <main+0x379>
    146e: b2 14        	lda	($14)                   ; 0x2014 <main+0x378>
    1470: 85 16        	sta	$16                     ; 0x2016 <main+0x37a>
    1472: b1 14        	lda	($14),y                 ; 0x2014 <main+0x378>
    1474: aa           	tax
    1475: a5 16        	lda	$16                     ; 0x2016 <main+0x37a>
    1477: 20 0f 15     	jsr	$150f <displayFileList>
    147a: b2 24        	lda	($24)                   ; 0x2024 <main+0x388>
    147c: 85 12        	sta	$12                     ; 0x2012 <main+0x376>
    147e: a0 01        	ldy	#$1
    1480: b1 24        	lda	($24),y                 ; 0x2024 <main+0x388>
    1482: 85 13        	sta	$13                     ; 0x2013 <main+0x377>
    1484: b2 24        	lda	($24)                   ; 0x2024 <main+0x388>
    1486: 85 14        	sta	$14                     ; 0x2014 <main+0x378>
    1488: b1 24        	lda	($24),y                 ; 0x2024 <main+0x388>
    148a: 85 15        	sta	$15                     ; 0x2015 <main+0x379>
    148c: b2 24        	lda	($24)                   ; 0x2024 <main+0x388>
    148e: 85 16        	sta	$16                     ; 0x2016 <main+0x37a>
    1490: b1 24        	lda	($24),y                 ; 0x2024 <main+0x388>
    1492: 85 18        	sta	$18                     ; 0x2018 <main+0x37c>
    1494: a0 01        	ldy	#$1
    1496: a2 08        	ldx	#$8
    1498: 86 26        	stx	$26                     ; 0x2026 <main+0x38a>
    149a: a2 00        	ldx	#$0
    149c: 86 27        	stx	$27                     ; 0x2027 <main+0x38b>
    149e: 18           	clc
    149f: a5 16        	lda	$16                     ; 0x2016 <main+0x37a>
    14a1: 69 e6        	adc	#$e6
    14a3: 85 17        	sta	$17                     ; 0x2017 <main+0x37b>
    14a5: a5 18        	lda	$18                     ; 0x2018 <main+0x37c>
    14a7: 69 11        	adc	#$11
    14a9: aa           	tax
    14aa: b2 12        	lda	($12)                   ; 0x2012 <main+0x376>
    14ac: 85 16        	sta	$16                     ; 0x2016 <main+0x37a>
    14ae: a5 17        	lda	$17                     ; 0x2017 <main+0x37b>
    14b0: 85 12        	sta	$12                     ; 0x2012 <main+0x376>
    14b2: b1 14        	lda	($14),y                 ; 0x2014 <main+0x378>
    14b4: 86 13        	stx	$13                     ; 0x2013 <main+0x377>
    14b6: 18           	clc
    14b7: 72 12        	adc	($12)                   ; 0x2012 <main+0x376>
    14b9: aa           	tax
    14ba: a5 16        	lda	$16                     ; 0x2016 <main+0x37a>
    14bc: 20 cd 2c     	jsr	$2ccd <textGotoXY>
    14bf: a9 fa        	lda	#$fa
    14c1: 92 10        	sta	($10)                   ; 0x2010 <main+0x374>
    14c3: a9 00        	lda	#$0
    14c5: a0 01        	ldy	#$1
    14c7: 91 10        	sta	($10),y                 ; 0x2010 <main+0x374>
    14c9: a2 56        	ldx	#$56
    14cb: 86 12        	stx	$12                     ; 0x2012 <main+0x376>
    14cd: a2 43        	ldx	#$43
    14cf: 86 13        	stx	$13                     ; 0x2013 <main+0x377>
    14d1: 20 d5 3a     	jsr	$3ad5 <printf>
    14d4: 4c 06 09     	jmp	$906 <pickFile+0x44>
    14d7: 18           	clc
    14d8: a5 10        	lda	$10                     ; 0x2010 <main+0x374>
    14da: 69 09        	adc	#$9
    14dc: 85 12        	sta	$12                     ; 0x2012 <main+0x376>
    14de: a5 11        	lda	$11                     ; 0x2011 <main+0x375>
    14e0: 69 00        	adc	#$0
    14e2: 85 13        	sta	$13                     ; 0x2013 <main+0x377>
    14e4: b2 12        	lda	($12)                   ; 0x2012 <main+0x376>
    14e6: 85 20        	sta	$20                     ; 0x2020 <main+0x384>
    14e8: a0 02        	ldy	#$2
    14ea: b1 10        	lda	($10),y                 ; 0x2010 <main+0x374>
    14ec: 85 29        	sta	$29                     ; 0x2029 <main+0x38d>
    14ee: c8           	iny
    14ef: b1 10        	lda	($10),y                 ; 0x2010 <main+0x374>
    14f1: 85 28        	sta	$28                     ; 0x2028 <main+0x38c>
    14f3: fa           	plx
    14f4: 86 27        	stx	$27                     ; 0x2027 <main+0x38b>
    14f6: fa           	plx
    14f7: 86 26        	stx	$26                     ; 0x2026 <main+0x38a>
    14f9: fa           	plx
    14fa: 86 25        	stx	$25                     ; 0x2025 <main+0x389>
    14fc: fa           	plx
    14fd: 86 24        	stx	$24                     ; 0x2024 <main+0x388>
    14ff: 18           	clc
    1500: a5 10        	lda	$10                     ; 0x2010 <main+0x374>
    1502: 69 0a        	adc	#$a
    1504: 85 10        	sta	$10                     ; 0x2010 <main+0x374>
    1506: a5 11        	lda	$11                     ; 0x2011 <main+0x375>
    1508: 69 00        	adc	#$0
    150a: 85 11        	sta	$11                     ; 0x2011 <main+0x375>
    150c: a5 20        	lda	$20                     ; 0x2020 <main+0x384>
    150e: 60           	rts

0000150f <displayFileList>:
    150f: 48           	pha
    1510: 18           	clc
    1511: a5 10        	lda	$10                     ; 0x2010 <main+0x374>
    1513: 69 fa        	adc	#$fa
    1515: 85 10        	sta	$10                     ; 0x2010 <main+0x374>
    1517: a5 11        	lda	$11                     ; 0x2011 <main+0x375>
    1519: 69 ff        	adc	#$ff
    151b: 85 11        	sta	$11                     ; 0x2011 <main+0x375>
    151d: 68           	pla
    151e: 86 4e        	stx	$4e                     ; 0x204e <main+0x3b2>
    1520: a6 12        	ldx	$12                     ; 0x2012 <main+0x376>
    1522: 86 48        	stx	$48                     ; 0x2048 <main+0x3ac>
    1524: a6 13        	ldx	$13                     ; 0x2013 <main+0x377>
    1526: 86 49        	stx	$49                     ; 0x2049 <main+0x3ad>
    1528: aa           	tax
    1529: 85 5a        	sta	$5a                     ; 0x205a <main+0x3be>
    152b: 18           	clc
    152c: 69 10        	adc	#$10
    152e: 85 13        	sta	$13                     ; 0x2013 <main+0x377>
    1530: a5 4e        	lda	$4e                     ; 0x204e <main+0x3b2>
    1532: 69 00        	adc	#$0
    1534: 85 14        	sta	$14                     ; 0x2014 <main+0x378>
    1536: a5 48        	lda	$48                     ; 0x2048 <main+0x3ac>
    1538: 18           	clc
    1539: 69 e2        	adc	#$e2
    153b: 85 4c        	sta	$4c                     ; 0x204c <main+0x3b0>
    153d: a5 49        	lda	$49                     ; 0x2049 <main+0x3ad>
    153f: 69 11        	adc	#$11
    1541: a4 4e        	ldy	$4e                     ; 0x204e <main+0x3b2>
    1543: 84 4a        	sty	$4a                     ; 0x204a <main+0x3ae>
    1545: e8           	inx
    1546: d0 02        	bne	$154a <displayFileList+0x3b>
    1548: e6 4a        	inc	$4a                     ; 0x204a <main+0x3ae>
    154a: 85 4d        	sta	$4d                     ; 0x204d <main+0x3b1>
    154c: a0 01        	ldy	#$1
    154e: b1 4c        	lda	($4c),y                 ; 0x204c <main+0x3b0>
    1550: 85 12        	sta	$12                     ; 0x2012 <main+0x376>
    1552: a5 13        	lda	$13                     ; 0x2013 <main+0x377>
    1554: a4 13        	ldy	$13                     ; 0x2013 <main+0x377>
    1556: 84 54        	sty	$54                     ; 0x2054 <main+0x3b8>
    1558: d2 4c        	cmp	($4c)                   ; 0x204c <main+0x3b0>
    155a: a5 14        	lda	$14                     ; 0x2014 <main+0x378>
    155c: a4 14        	ldy	$14                     ; 0x2014 <main+0x378>
    155e: 84 55        	sty	$55                     ; 0x2055 <main+0x3b9>
    1560: e5 12        	sbc	$12                     ; 0x2012 <main+0x376>
    1562: 50 02        	bvc	$1566 <displayFileList+0x57>
    1564: 49 80        	eor	#$80
    1566: 86 4b        	stx	$4b                     ; 0x204b <main+0x3af>
    1568: aa           	tax
    1569: 30 08        	bmi	$1573 <displayFileList+0x64>
    156b: b2 4c        	lda	($4c)                   ; 0x204c <main+0x3b0>
    156d: 85 54        	sta	$54                     ; 0x2054 <main+0x3b8>
    156f: a6 12        	ldx	$12                     ; 0x2012 <main+0x376>
    1571: 86 55        	stx	$55                     ; 0x2055 <main+0x3b9>
    1573: b2 48        	lda	($48)                   ; 0x2048 <main+0x3ac>
    1575: aa           	tax
    1576: a0 01        	ldy	#$1
    1578: b1 48        	lda	($48),y                 ; 0x2048 <main+0x3ac>
    157a: 86 3c        	stx	$3c                     ; 0x203c <main+0x3a0>
    157c: 8e 14 d0     	stx	$d014                   ; 0xd014 <__heap_start+0x7824>
    157f: a2 00        	ldx	#$0
    1581: 9c 15 d0     	stz	$d015                   ; 0xd015 <__heap_start+0x7825>
    1584: 85 3d        	sta	$3d                     ; 0x203d <main+0x3a1>
    1586: 8d 16 d0     	sta	$d016                   ; 0xd016 <__heap_start+0x7826>
    1589: 9c 17 d0     	stz	$d017                   ; 0xd017 <__heap_start+0x7827>
    158c: 88           	dey
    158d: 80 14        	bra	$15a3 <displayFileList+0x94>
    158f: e4 12        	cpx	$12                     ; 0x2012 <main+0x376>
    1591: a5 50        	lda	$50                     ; 0x2050 <main+0x3b4>
    1593: 90 14        	bcc	$15a9 <displayFileList+0x9a>
    1595: a9 0a        	lda	#$a
    1597: 20 31 3c     	jsr	$3c31 <putchar>
    159a: a2 00        	ldx	#$0
    159c: a4 4f        	ldy	$4f                     ; 0x204f <main+0x3b3>
    159e: c8           	iny
    159f: c0 11        	cpy	#$11
    15a1: f0 2c        	beq	$15cf <displayFileList+0xc0>
    15a3: 84 4f        	sty	$4f                     ; 0x204f <main+0x3b3>
    15a5: a0 01        	ldy	#$1
    15a7: b1 48        	lda	($48),y                 ; 0x2048 <main+0x3ac>
    15a9: 1a           	inc
    15aa: 85 50        	sta	$50                     ; 0x2050 <main+0x3b4>
    15ac: a9 20        	lda	#$20
    15ae: 20 31 3c     	jsr	$3c31 <putchar>
    15b1: a0 01        	ldy	#$1
    15b3: b1 48        	lda	($48),y                 ; 0x2048 <main+0x3ac>
    15b5: 18           	clc
    15b6: 69 2c        	adc	#$2c
    15b8: a8           	tay
    15b9: a9 00        	lda	#$0
    15bb: 69 00        	adc	#$0
    15bd: 85 12        	sta	$12                     ; 0x2012 <main+0x376>
    15bf: a2 00        	ldx	#$0
    15c1: e4 12        	cpx	$12                     ; 0x2012 <main+0x376>
    15c3: d0 ca        	bne	$158f <displayFileList+0x80>
    15c5: 84 12        	sty	$12                     ; 0x2012 <main+0x376>
    15c7: a5 50        	lda	$50                     ; 0x2050 <main+0x3b4>
    15c9: c5 12        	cmp	$12                     ; 0x2012 <main+0x376>
    15cb: 90 dc        	bcc	$15a9 <displayFileList+0x9a>
    15cd: 80 c6        	bra	$1595 <displayFileList+0x86>
    15cf: a6 4c        	ldx	$4c                     ; 0x204c <main+0x3b0>
    15d1: 86 12        	stx	$12                     ; 0x2012 <main+0x376>
    15d3: a6 4d        	ldx	$4d                     ; 0x204d <main+0x3b1>
    15d5: 86 13        	stx	$13                     ; 0x2013 <main+0x377>
    15d7: a6 12        	ldx	$12                     ; 0x2012 <main+0x376>
    15d9: 86 56        	stx	$56                     ; 0x2056 <main+0x3ba>
    15db: a6 13        	ldx	$13                     ; 0x2013 <main+0x377>
    15dd: 86 57        	stx	$57                     ; 0x2057 <main+0x3bb>
    15df: b2 48        	lda	($48)                   ; 0x2048 <main+0x3ac>
    15e1: 85 12        	sta	$12                     ; 0x2012 <main+0x376>
    15e3: a0 01        	ldy	#$1
    15e5: b1 48        	lda	($48),y                 ; 0x2048 <main+0x3ac>
    15e7: aa           	tax
    15e8: a5 12        	lda	$12                     ; 0x2012 <main+0x376>
    15ea: 85 3c        	sta	$3c                     ; 0x203c <main+0x3a0>
    15ec: 8d 14 d0     	sta	$d014                   ; 0xd014 <__heap_start+0x7824>
    15ef: 9c 15 d0     	stz	$d015                   ; 0xd015 <__heap_start+0x7825>
    15f2: 86 3d        	stx	$3d                     ; 0x203d <main+0x3a1>
    15f4: 8e 16 d0     	stx	$d016                   ; 0xd016 <__heap_start+0x7826>
    15f7: a5 48        	lda	$48                     ; 0x2048 <main+0x3ac>
    15f9: 18           	clc
    15fa: 69 e6        	adc	#$e6
    15fc: 85 14        	sta	$14                     ; 0x2014 <main+0x378>
    15fe: a5 49        	lda	$49                     ; 0x2049 <main+0x3ad>
    1600: 69 11        	adc	#$11
    1602: 64 16        	stz	$16                     ; 0x2016 <main+0x37a>
    1604: 9c 17 d0     	stz	$d017                   ; 0xd017 <__heap_start+0x7827>
    1607: 85 15        	sta	$15                     ; 0x2015 <main+0x379>
    1609: b2 14        	lda	($14)                   ; 0x2014 <main+0x378>
    160b: 85 17        	sta	$17                     ; 0x2017 <main+0x37b>
    160d: a6 14        	ldx	$14                     ; 0x2014 <main+0x378>
    160f: 86 12        	stx	$12                     ; 0x2012 <main+0x376>
    1611: a6 15        	ldx	$15                     ; 0x2015 <main+0x379>
    1613: 86 13        	stx	$13                     ; 0x2013 <main+0x377>
    1615: a6 12        	ldx	$12                     ; 0x2012 <main+0x376>
    1617: 86 58        	stx	$58                     ; 0x2058 <main+0x3bc>
    1619: a6 13        	ldx	$13                     ; 0x2013 <main+0x377>
    161b: 86 59        	stx	$59                     ; 0x2059 <main+0x3bd>
    161d: b1 14        	lda	($14),y                 ; 0x2014 <main+0x378>
    161f: d0 07        	bne	$1628 <displayFileList+0x119>
    1621: a5 17        	lda	$17                     ; 0x2017 <main+0x37b>
    1623: d0 03        	bne	$1628 <displayFileList+0x119>
    1625: 4c 96 18     	jmp	$1896 <displayFileList+0x387>
    1628: a0 20        	ldy	#$20
    162a: 18           	clc
    162b: a5 48        	lda	$48                     ; 0x2048 <main+0x3ac>
    162d: 69 4e        	adc	#$4e
    162f: 85 14        	sta	$14                     ; 0x2014 <main+0x378>
    1631: a5 49        	lda	$49                     ; 0x2049 <main+0x3ad>
    1633: 69 00        	adc	#$0
    1635: 85 17        	sta	$17                     ; 0x2017 <main+0x37b>
    1637: 18           	clc
    1638: a5 48        	lda	$48                     ; 0x2048 <main+0x3ac>
    163a: 69 7e        	adc	#$7e
    163c: aa           	tax
    163d: a5 49        	lda	$49                     ; 0x2049 <main+0x3ad>
    163f: 69 11        	adc	#$11
    1641: 86 12        	stx	$12                     ; 0x2012 <main+0x376>
    1643: 85 13        	sta	$13                     ; 0x2013 <main+0x377>
    1645: b2 12        	lda	($12)                   ; 0x2012 <main+0x376>
    1647: 29 01        	and	#$1
    1649: a2 4d        	ldx	#$4d
    164b: 86 12        	stx	$12                     ; 0x2012 <main+0x376>
    164d: a2 43        	ldx	#$43
    164f: 86 13        	stx	$13                     ; 0x2013 <main+0x377>
    1651: aa           	tax
    1652: d0 08        	bne	$165c <displayFileList+0x14d>
    1654: a2 a8        	ldx	#$a8
    1656: 86 12        	stx	$12                     ; 0x2012 <main+0x376>
    1658: a2 42        	ldx	#$42
    165a: 86 13        	stx	$13                     ; 0x2013 <main+0x377>
    165c: a6 10        	ldx	$10                     ; 0x2010 <main+0x374>
    165e: 98           	tya
    165f: 92 10        	sta	($10)                   ; 0x2010 <main+0x374>
    1661: a0 01        	ldy	#$1
    1663: a9 00        	lda	#$0
    1665: 91 10        	sta	($10),y                 ; 0x2010 <main+0x374>
    1667: c8           	iny
    1668: a5 14        	lda	$14                     ; 0x2014 <main+0x378>
    166a: 91 10        	sta	($10),y                 ; 0x2010 <main+0x374>
    166c: 8a           	txa
    166d: 18           	clc
    166e: 69 02        	adc	#$2
    1670: 85 14        	sta	$14                     ; 0x2014 <main+0x378>
    1672: a5 11        	lda	$11                     ; 0x2011 <main+0x375>
    1674: 69 00        	adc	#$0
    1676: 18           	clc
    1677: 85 15        	sta	$15                     ; 0x2015 <main+0x379>
    1679: a5 17        	lda	$17                     ; 0x2017 <main+0x37b>
    167b: 88           	dey
    167c: 91 14        	sta	($14),y                 ; 0x2014 <main+0x378>
    167e: 8a           	txa
    167f: 69 04        	adc	#$4
    1681: 85 14        	sta	$14                     ; 0x2014 <main+0x378>
    1683: a5 11        	lda	$11                     ; 0x2011 <main+0x375>
    1685: 69 00        	adc	#$0
    1687: 85 15        	sta	$15                     ; 0x2015 <main+0x379>
    1689: a5 12        	lda	$12                     ; 0x2012 <main+0x376>
    168b: a0 04        	ldy	#$4
    168d: 91 10        	sta	($10),y                 ; 0x2010 <main+0x374>
    168f: a0 01        	ldy	#$1
    1691: a5 13        	lda	$13                     ; 0x2013 <main+0x377>
    1693: 91 14        	sta	($14),y                 ; 0x2014 <main+0x378>
    1695: a2 a7        	ldx	#$a7
    1697: 86 12        	stx	$12                     ; 0x2012 <main+0x376>
    1699: a2 43        	ldx	#$43
    169b: 86 13        	stx	$13                     ; 0x2013 <main+0x377>
    169d: 20 d5 3a     	jsr	$3ad5 <printf>
    16a0: a6 54        	ldx	$54                     ; 0x2054 <main+0x3b8>
    16a2: 86 12        	stx	$12                     ; 0x2012 <main+0x376>
    16a4: a6 4b        	ldx	$4b                     ; 0x204b <main+0x3af>
    16a6: e4 12        	cpx	$12                     ; 0x2012 <main+0x376>
    16a8: a6 55        	ldx	$55                     ; 0x2055 <main+0x3b9>
    16aa: 86 12        	stx	$12                     ; 0x2012 <main+0x376>
    16ac: a5 4a        	lda	$4a                     ; 0x204a <main+0x3ae>
    16ae: e5 12        	sbc	$12                     ; 0x2012 <main+0x376>
    16b0: 50 02        	bvc	$16b4 <displayFileList+0x1a5>
    16b2: 49 80        	eor	#$80
    16b4: aa           	tax
    16b5: 30 03        	bmi	$16ba <displayFileList+0x1ab>
    16b7: 4c d5 17     	jmp	$17d5 <displayFileList+0x2c6>
    16ba: a5 48        	lda	$48                     ; 0x2048 <main+0x3ac>
    16bc: 18           	clc
    16bd: 69 e4        	adc	#$e4
    16bf: 85 50        	sta	$50                     ; 0x2050 <main+0x3b4>
    16c1: a5 49        	lda	$49                     ; 0x2049 <main+0x3ad>
    16c3: 69 11        	adc	#$11
    16c5: 85 51        	sta	$51                     ; 0x2051 <main+0x3b5>
    16c7: a4 5a        	ldy	$5a                     ; 0x205a <main+0x3be>
    16c9: 84 12        	sty	$12                     ; 0x2012 <main+0x376>
    16cb: a5 48        	lda	$48                     ; 0x2048 <main+0x3ac>
    16cd: 18           	clc
    16ce: 65 12        	adc	$12                     ; 0x2012 <main+0x376>
    16d0: aa           	tax
    16d1: a5 49        	lda	$49                     ; 0x2049 <main+0x3ad>
    16d3: 65 4e        	adc	$4e                     ; 0x204e <main+0x3b2>
    16d5: 85 12        	sta	$12                     ; 0x2012 <main+0x376>
    16d7: 18           	clc
    16d8: 8a           	txa
    16d9: 69 7f        	adc	#$7f
    16db: 85 14        	sta	$14                     ; 0x2014 <main+0x378>
    16dd: a5 12        	lda	$12                     ; 0x2012 <main+0x376>
    16df: 69 11        	adc	#$11
    16e1: 85 15        	sta	$15                     ; 0x2015 <main+0x379>
    16e3: a2 2c        	ldx	#$2c
    16e5: 64 13        	stz	$13                     ; 0x2013 <main+0x377>
    16e7: 86 12        	stx	$12                     ; 0x2012 <main+0x376>
    16e9: a6 4e        	ldx	$4e                     ; 0x204e <main+0x3b2>
    16eb: 5a           	phy
    16ec: a4 14        	ldy	$14                     ; 0x2014 <main+0x378>
    16ee: 84 4e        	sty	$4e                     ; 0x204e <main+0x3b2>
    16f0: 7a           	ply
    16f1: 85 4f        	sta	$4f                     ; 0x204f <main+0x3b3>
    16f3: 98           	tya
    16f4: 20 c9 41     	jsr	$41c9 <__mulhi3>
    16f7: a4 4b        	ldy	$4b                     ; 0x204b <main+0x3af>
    16f9: 18           	clc
    16fa: 65 48        	adc	$48                     ; 0x2048 <main+0x3ac>
    16fc: 85 13        	sta	$13                     ; 0x2013 <main+0x377>
    16fe: 8a           	txa
    16ff: 65 49        	adc	$49                     ; 0x2049 <main+0x3ad>
    1701: 85 12        	sta	$12                     ; 0x2012 <main+0x376>
    1703: 18           	clc
    1704: a5 13        	lda	$13                     ; 0x2013 <main+0x377>
    1706: 69 7a        	adc	#$7a
    1708: 85 52        	sta	$52                     ; 0x2052 <main+0x3b6>
    170a: a5 12        	lda	$12                     ; 0x2012 <main+0x376>
    170c: 69 00        	adc	#$0
    170e: 85 53        	sta	$53                     ; 0x2053 <main+0x3b7>
    1710: a9 01        	lda	#$1
    1712: 5a           	phy
    1713: fa           	plx
    1714: 85 4c        	sta	$4c                     ; 0x204c <main+0x3b0>
    1716: 18           	clc
    1717: a0 01        	ldy	#$1
    1719: 71 48        	adc	($48),y                 ; 0x2048 <main+0x3ac>
    171b: 85 13        	sta	$13                     ; 0x2013 <main+0x377>
    171d: b2 48        	lda	($48)                   ; 0x2048 <main+0x3ac>
    171f: 85 3c        	sta	$3c                     ; 0x203c <main+0x3a0>
    1721: 8d 14 d0     	sta	$d014                   ; 0xd014 <__heap_start+0x7824>
    1724: 9c 15 d0     	stz	$d015                   ; 0xd015 <__heap_start+0x7825>
    1727: a4 13        	ldy	$13                     ; 0x2013 <main+0x377>
    1729: 84 3d        	sty	$3d                     ; 0x203d <main+0x3a1>
    172b: 8c 16 d0     	sty	$d016                   ; 0xd016 <__heap_start+0x7826>
    172e: 9c 17 d0     	stz	$d017                   ; 0xd017 <__heap_start+0x7827>
    1731: a5 4a        	lda	$4a                     ; 0x204a <main+0x3ae>
    1733: a0 01        	ldy	#$1
    1735: d1 50        	cmp	($50),y                 ; 0x2050 <main+0x3b4>
    1737: d0 0e        	bne	$1747 <displayFileList+0x238>
    1739: b2 50        	lda	($50)                   ; 0x2050 <main+0x3b4>
    173b: 85 12        	sta	$12                     ; 0x2012 <main+0x376>
    173d: e4 12        	cpx	$12                     ; 0x2012 <main+0x376>
    173f: d0 06        	bne	$1747 <displayFileList+0x238>
    1741: 86 4b        	stx	$4b                     ; 0x204b <main+0x3af>
    1743: a9 fa        	lda	#$fa
    1745: 80 04        	bra	$174b <displayFileList+0x23c>
    1747: 86 4b        	stx	$4b                     ; 0x204b <main+0x3af>
    1749: a9 20        	lda	#$20
    174b: a2 00        	ldx	#$0
    174d: 20 31 3c     	jsr	$3c31 <putchar>
    1750: b2 4e        	lda	($4e)                   ; 0x204e <main+0x3b2>
    1752: 29 01        	and	#$1
    1754: a2 4d        	ldx	#$4d
    1756: 86 12        	stx	$12                     ; 0x2012 <main+0x376>
    1758: a2 43        	ldx	#$43
    175a: 86 13        	stx	$13                     ; 0x2013 <main+0x377>
    175c: aa           	tax
    175d: d0 08        	bne	$1767 <displayFileList+0x258>
    175f: a2 a8        	ldx	#$a8
    1761: 86 12        	stx	$12                     ; 0x2012 <main+0x376>
    1763: a2 42        	ldx	#$42
    1765: 86 13        	stx	$13                     ; 0x2013 <main+0x377>
    1767: a5 10        	lda	$10                     ; 0x2010 <main+0x374>
    1769: a6 11        	ldx	$11                     ; 0x2011 <main+0x375>
    176b: 18           	clc
    176c: 69 02        	adc	#$2
    176e: 85 14        	sta	$14                     ; 0x2014 <main+0x378>
    1770: 8a           	txa
    1771: 69 00        	adc	#$0
    1773: 85 15        	sta	$15                     ; 0x2015 <main+0x379>
    1775: a5 12        	lda	$12                     ; 0x2012 <main+0x376>
    1777: a0 02        	ldy	#$2
    1779: 91 10        	sta	($10),y                 ; 0x2010 <main+0x374>
    177b: a5 13        	lda	$13                     ; 0x2013 <main+0x377>
    177d: 88           	dey
    177e: 91 14        	sta	($14),y                 ; 0x2014 <main+0x378>
    1780: a5 52        	lda	$52                     ; 0x2052 <main+0x3b6>
    1782: 92 10        	sta	($10)                   ; 0x2010 <main+0x374>
    1784: a5 53        	lda	$53                     ; 0x2053 <main+0x3b7>
    1786: 91 10        	sta	($10),y                 ; 0x2010 <main+0x374>
    1788: a2 fb        	ldx	#$fb
    178a: 86 12        	stx	$12                     ; 0x2012 <main+0x376>
    178c: a2 42        	ldx	#$42
    178e: 86 13        	stx	$13                     ; 0x2013 <main+0x377>
    1790: 20 d5 3a     	jsr	$3ad5 <printf>
    1793: a6 4b        	ldx	$4b                     ; 0x204b <main+0x3af>
    1795: 86 12        	stx	$12                     ; 0x2012 <main+0x376>
    1797: a6 4a        	ldx	$4a                     ; 0x204a <main+0x3ae>
    1799: 86 13        	stx	$13                     ; 0x2013 <main+0x377>
    179b: e6 12        	inc	$12                     ; 0x2012 <main+0x376>
    179d: d0 02        	bne	$17a1 <displayFileList+0x292>
    179f: e6 13        	inc	$13                     ; 0x2013 <main+0x377>
    17a1: e6 4e        	inc	$4e                     ; 0x204e <main+0x3b2>
    17a3: d0 02        	bne	$17a7 <displayFileList+0x298>
    17a5: e6 4f        	inc	$4f                     ; 0x204f <main+0x3b3>
    17a7: 18           	clc
    17a8: a5 52        	lda	$52                     ; 0x2052 <main+0x3b6>
    17aa: 69 2c        	adc	#$2c
    17ac: 85 52        	sta	$52                     ; 0x2052 <main+0x3b6>
    17ae: a5 53        	lda	$53                     ; 0x2053 <main+0x3b7>
    17b0: 69 00        	adc	#$0
    17b2: 85 53        	sta	$53                     ; 0x2053 <main+0x3b7>
    17b4: a5 4c        	lda	$4c                     ; 0x204c <main+0x3b0>
    17b6: 1a           	inc
    17b7: a4 12        	ldy	$12                     ; 0x2012 <main+0x376>
    17b9: a6 13        	ldx	$13                     ; 0x2013 <main+0x377>
    17bb: 86 4a        	stx	$4a                     ; 0x204a <main+0x3ae>
    17bd: a6 55        	ldx	$55                     ; 0x2055 <main+0x3b9>
    17bf: e4 13        	cpx	$13                     ; 0x2013 <main+0x377>
    17c1: f0 03        	beq	$17c6 <displayFileList+0x2b7>
    17c3: 4c 12 17     	jmp	$1712 <displayFileList+0x203>
    17c6: a4 12        	ldy	$12                     ; 0x2012 <main+0x376>
    17c8: a6 13        	ldx	$13                     ; 0x2013 <main+0x377>
    17ca: 86 4a        	stx	$4a                     ; 0x204a <main+0x3ae>
    17cc: a6 54        	ldx	$54                     ; 0x2054 <main+0x3b8>
    17ce: e4 12        	cpx	$12                     ; 0x2012 <main+0x376>
    17d0: f0 03        	beq	$17d5 <displayFileList+0x2c6>
    17d2: 4c 12 17     	jmp	$1712 <displayFileList+0x203>
    17d5: a5 5a        	lda	$5a                     ; 0x205a <main+0x3be>
    17d7: 49 ff        	eor	#$ff
    17d9: 85 12        	sta	$12                     ; 0x2012 <main+0x376>
    17db: a9 02        	lda	#$2
    17dd: 18           	clc
    17de: 72 48        	adc	($48)                   ; 0x2048 <main+0x3ac>
    17e0: aa           	tax
    17e1: a0 01        	ldy	#$1
    17e3: 18           	clc
    17e4: a5 54        	lda	$54                     ; 0x2054 <main+0x3b8>
    17e6: 65 12        	adc	$12                     ; 0x2012 <main+0x376>
    17e8: 18           	clc
    17e9: 71 48        	adc	($48),y                 ; 0x2048 <main+0x3ac>
    17eb: 1a           	inc
    17ec: 86 3c        	stx	$3c                     ; 0x203c <main+0x3a0>
    17ee: 8e 14 d0     	stx	$d014                   ; 0xd014 <__heap_start+0x7824>
    17f1: 9c 15 d0     	stz	$d015                   ; 0xd015 <__heap_start+0x7825>
    17f4: 85 3d        	sta	$3d                     ; 0x203d <main+0x3a1>
    17f6: 8d 16 d0     	sta	$d016                   ; 0xd016 <__heap_start+0x7826>
    17f9: 9c 17 d0     	stz	$d017                   ; 0xd017 <__heap_start+0x7827>
    17fc: a5 48        	lda	$48                     ; 0x2048 <main+0x3ac>
    17fe: 18           	clc
    17ff: 69 e4        	adc	#$e4
    1801: 85 12        	sta	$12                     ; 0x2012 <main+0x376>
    1803: a5 49        	lda	$49                     ; 0x2049 <main+0x3ad>
    1805: 69 11        	adc	#$11
    1807: 85 13        	sta	$13                     ; 0x2013 <main+0x377>
    1809: b2 12        	lda	($12)                   ; 0x2012 <main+0x376>
    180b: 85 14        	sta	$14                     ; 0x2014 <main+0x378>
    180d: b1 12        	lda	($12),y                 ; 0x2012 <main+0x376>
    180f: a4 14        	ldy	$14                     ; 0x2014 <main+0x378>
    1811: 84 12        	sty	$12                     ; 0x2012 <main+0x376>
    1813: c0 0f        	cpy	#$f
    1815: aa           	tax
    1816: e9 00        	sbc	#$0
    1818: 50 02        	bvc	$181c <displayFileList+0x30d>
    181a: 49 80        	eor	#$80
    181c: a0 fb        	ldy	#$fb
    181e: 84 54        	sty	$54                     ; 0x2054 <main+0x3b8>
    1820: 64 14        	stz	$14                     ; 0x2014 <main+0x378>
    1822: a8           	tay
    1823: 10 04        	bpl	$1829 <displayFileList+0x31a>
    1825: a0 20        	ldy	#$20
    1827: 84 54        	sty	$54                     ; 0x2054 <main+0x3b8>
    1829: a0 01        	ldy	#$1
    182b: 18           	clc
    182c: a5 12        	lda	$12                     ; 0x2012 <main+0x376>
    182e: 69 10        	adc	#$10
    1830: 85 15        	sta	$15                     ; 0x2015 <main+0x379>
    1832: 8a           	txa
    1833: 69 00        	adc	#$0
    1835: 85 16        	sta	$16                     ; 0x2016 <main+0x37a>
    1837: 38           	sec
    1838: a6 58        	ldx	$58                     ; 0x2058 <main+0x3bc>
    183a: 86 12        	stx	$12                     ; 0x2012 <main+0x376>
    183c: a6 59        	ldx	$59                     ; 0x2059 <main+0x3bd>
    183e: 86 13        	stx	$13                     ; 0x2013 <main+0x377>
    1840: a5 15        	lda	$15                     ; 0x2015 <main+0x379>
    1842: f2 12        	sbc	($12)                   ; 0x2012 <main+0x376>
    1844: 85 15        	sta	$15                     ; 0x2015 <main+0x379>
    1846: a5 16        	lda	$16                     ; 0x2016 <main+0x37a>
    1848: f1 12        	sbc	($12),y                 ; 0x2012 <main+0x376>
    184a: 85 16        	sta	$16                     ; 0x2016 <main+0x37a>
    184c: a6 56        	ldx	$56                     ; 0x2056 <main+0x3ba>
    184e: 86 12        	stx	$12                     ; 0x2012 <main+0x376>
    1850: a6 57        	ldx	$57                     ; 0x2057 <main+0x3bb>
    1852: 86 13        	stx	$13                     ; 0x2013 <main+0x377>
    1854: a5 15        	lda	$15                     ; 0x2015 <main+0x379>
    1856: d2 12        	cmp	($12)                   ; 0x2012 <main+0x376>
    1858: a5 16        	lda	$16                     ; 0x2016 <main+0x37a>
    185a: f1 12        	sbc	($12),y                 ; 0x2012 <main+0x376>
    185c: 50 02        	bvc	$1860 <displayFileList+0x351>
    185e: 49 80        	eor	#$80
    1860: 64 12        	stz	$12                     ; 0x2012 <main+0x376>
    1862: aa           	tax
    1863: 10 04        	bpl	$1869 <displayFileList+0x35a>
    1865: a2 f8        	ldx	#$f8
    1867: 80 02        	bra	$186b <displayFileList+0x35c>
    1869: a2 20        	ldx	#$20
    186b: a5 54        	lda	$54                     ; 0x2054 <main+0x3b8>
    186d: 92 10        	sta	($10)                   ; 0x2010 <main+0x374>
    186f: a9 00        	lda	#$0
    1871: 91 10        	sta	($10),y                 ; 0x2010 <main+0x374>
    1873: a0 02        	ldy	#$2
    1875: 8a           	txa
    1876: 91 10        	sta	($10),y                 ; 0x2010 <main+0x374>
    1878: c8           	iny
    1879: a9 00        	lda	#$0
    187b: 91 10        	sta	($10),y                 ; 0x2010 <main+0x374>
    187d: a2 b4        	ldx	#$b4
    187f: 86 12        	stx	$12                     ; 0x2012 <main+0x376>
    1881: a2 43        	ldx	#$43
    1883: 86 13        	stx	$13                     ; 0x2013 <main+0x377>
    1885: 20 d5 3a     	jsr	$3ad5 <printf>
    1888: 18           	clc
    1889: a5 10        	lda	$10                     ; 0x2010 <main+0x374>
    188b: 69 06        	adc	#$6
    188d: 85 10        	sta	$10                     ; 0x2010 <main+0x374>
    188f: a5 11        	lda	$11                     ; 0x2011 <main+0x375>
    1891: 69 00        	adc	#$0
    1893: 85 11        	sta	$11                     ; 0x2011 <main+0x375>
    1895: 60           	rts
    1896: a0 fa        	ldy	#$fa
    1898: 4c 2a 16     	jmp	$162a <displayFileList+0x11b>

0000189b <readDirectory>:
    189b: a2 f3        	ldx	#$f3
    189d: 86 12        	stx	$12                     ; 0x2012 <main+0x376>
    189f: a2 45        	ldx	#$45
    18a1: 86 13        	stx	$13                     ; 0x2013 <main+0x377>
    18a3: 20 b9 2b     	jsr	$2bb9 <fileOpenDir>
    18a6: a6 12        	ldx	$12                     ; 0x2012 <main+0x376>
    18a8: 86 48        	stx	$48                     ; 0x2048 <main+0x3ac>
    18aa: a6 13        	ldx	$13                     ; 0x2013 <main+0x377>
    18ac: 86 49        	stx	$49                     ; 0x2049 <main+0x3ad>
    18ae: a2 00        	ldx	#$0
    18b0: 86 12        	stx	$12                     ; 0x2012 <main+0x376>
    18b2: a2 00        	ldx	#$0
    18b4: 86 13        	stx	$13                     ; 0x2013 <main+0x377>
    18b6: a6 49        	ldx	$49                     ; 0x2049 <main+0x3ad>
    18b8: e4 13        	cpx	$13                     ; 0x2013 <main+0x377>
    18ba: d0 09        	bne	$18c5 <readDirectory+0x2a>
    18bc: a6 48        	ldx	$48                     ; 0x2048 <main+0x3ac>
    18be: e4 12        	cpx	$12                     ; 0x2012 <main+0x376>
    18c0: d0 03        	bne	$18c5 <readDirectory+0x2a>
    18c2: 4c 91 1c     	jmp	$1c91 <readDirectory+0x3f6>
    18c5: a6 48        	ldx	$48                     ; 0x2048 <main+0x3ac>
    18c7: 86 12        	stx	$12                     ; 0x2012 <main+0x376>
    18c9: a6 49        	ldx	$49                     ; 0x2049 <main+0x3ad>
    18cb: 86 13        	stx	$13                     ; 0x2013 <main+0x377>
    18cd: 20 de 2c     	jsr	$2cde <fileReadDir>
    18d0: a2 6b        	ldx	#$6b
    18d2: 86 4c        	stx	$4c                     ; 0x204c <main+0x3b0>
    18d4: a2 46        	ldx	#$46
    18d6: 86 4d        	stx	$4d                     ; 0x204d <main+0x3b1>
    18d8: 64 12        	stz	$12                     ; 0x2012 <main+0x376>
    18da: a2 00        	ldx	#$0
    18dc: 86 4a        	stx	$4a                     ; 0x204a <main+0x3ae>
    18de: a2 00        	ldx	#$0
    18e0: 86 4b        	stx	$4b                     ; 0x204b <main+0x3af>
    18e2: e8           	inx
    18e3: 86 55        	stx	$55                     ; 0x2055 <main+0x3b9>
    18e5: 64 4f        	stz	$4f                     ; 0x204f <main+0x3b3>
    18e7: ca           	dex
    18e8: 86 4e        	stx	$4e                     ; 0x204e <main+0x3b2>
    18ea: a5 4f        	lda	$4f                     ; 0x204f <main+0x3b3>
    18ec: d0 0a        	bne	$18f8 <readDirectory+0x5d>
    18ee: a6 55        	ldx	$55                     ; 0x2055 <main+0x3b9>
    18f0: e0 64        	cpx	#$64
    18f2: 90 0a        	bcc	$18fe <readDirectory+0x63>
    18f4: a2 00        	ldx	#$0
    18f6: 80 08        	bra	$1900 <readDirectory+0x65>
    18f8: a6 4f        	ldx	$4f                     ; 0x204f <main+0x3b3>
    18fa: e0 00        	cpx	#$0
    18fc: b0 f6        	bcs	$18f4 <readDirectory+0x59>
    18fe: a2 01        	ldx	#$1
    1900: 86 53        	stx	$53                     ; 0x2053 <main+0x3b7>
    1902: a6 48        	ldx	$48                     ; 0x2048 <main+0x3ac>
    1904: 86 12        	stx	$12                     ; 0x2012 <main+0x376>
    1906: a6 49        	ldx	$49                     ; 0x2049 <main+0x3ad>
    1908: 86 13        	stx	$13                     ; 0x2013 <main+0x377>
    190a: 20 de 2c     	jsr	$2cde <fileReadDir>
    190d: a6 13        	ldx	$13                     ; 0x2013 <main+0x377>
    190f: e4 4b        	cpx	$4b                     ; 0x204b <main+0x3af>
    1911: d0 0e        	bne	$1921 <readDirectory+0x86>
    1913: a6 12        	ldx	$12                     ; 0x2012 <main+0x376>
    1915: a0 02        	ldy	#$2
    1917: a5 53        	lda	$53                     ; 0x2053 <main+0x3b7>
    1919: e4 4a        	cpx	$4a                     ; 0x204a <main+0x3ae>
    191b: d0 08        	bne	$1925 <readDirectory+0x8a>
    191d: a9 00        	lda	#$0
    191f: 80 04        	bra	$1925 <readDirectory+0x8a>
    1921: a0 02        	ldy	#$2
    1923: a5 53        	lda	$53                     ; 0x2053 <main+0x3b7>
    1925: aa           	tax
    1926: d0 03        	bne	$192b <readDirectory+0x90>
    1928: 4c 2e 1c     	jmp	$1c2e <readDirectory+0x393>
    192b: b1 12        	lda	($12),y                 ; 0x2012 <main+0x376>
    192d: a0 03        	ldy	#$3
    192f: 85 1d        	sta	$1d                     ; 0x201d <main+0x381>
    1931: c9 2e        	cmp	#$2e
    1933: d0 11        	bne	$1946 <readDirectory+0xab>
    1935: b1 12        	lda	($12),y                 ; 0x2012 <main+0x376>
    1937: f0 b1        	beq	$18ea <readDirectory+0x4f>
    1939: c9 2e        	cmp	#$2e
    193b: d0 09        	bne	$1946 <readDirectory+0xab>
    193d: a0 04        	ldy	#$4
    193f: b1 12        	lda	($12),y                 ; 0x2012 <main+0x376>
    1941: d0 03        	bne	$1946 <readDirectory+0xab>
    1943: 4c ea 18     	jmp	$18ea <readDirectory+0x4f>
    1946: a5 12        	lda	$12                     ; 0x2012 <main+0x376>
    1948: 18           	clc
    1949: 69 02        	adc	#$2
    194b: 85 14        	sta	$14                     ; 0x2014 <main+0x378>
    194d: a5 13        	lda	$13                     ; 0x2013 <main+0x377>
    194f: 69 00        	adc	#$0
    1951: 85 15        	sta	$15                     ; 0x2015 <main+0x379>
    1953: a9 00        	lda	#$0
    1955: a6 1d        	ldx	$1d                     ; 0x201d <main+0x381>
    1957: 86 18        	stx	$18                     ; 0x2018 <main+0x37c>
    1959: aa           	tax
    195a: 64 19        	stz	$19                     ; 0x2019 <main+0x37d>
    195c: 86 1f        	stx	$1f                     ; 0x201f <main+0x383>
    195e: aa           	tax
    195f: 48           	pha
    1960: bd db 57     	lda	$57db,x                 ; 0x57db <fpr+0x11ea>
    1963: aa           	tax
    1964: 68           	pla
    1965: e0 00        	cpx	#$0
    1967: f0 3d        	beq	$19a6 <readDirectory+0x10b>
    1969: a4 18        	ldy	$18                     ; 0x2018 <main+0x37c>
    196b: f0 3e        	beq	$19ab <readDirectory+0x110>
    196d: 86 22        	stx	$22                     ; 0x2022 <main+0x386>
    196f: 85 1e        	sta	$1e                     ; 0x201e <main+0x382>
    1971: a0 00        	ldy	#$0
    1973: a2 00        	ldx	#$0
    1975: 86 16        	stx	$16                     ; 0x2016 <main+0x37a>
    1977: 98           	tya
    1978: c8           	iny
    1979: d0 01        	bne	$197c <readDirectory+0xe1>
    197b: e8           	inx
    197c: 18           	clc
    197d: 65 12        	adc	$12                     ; 0x2012 <main+0x376>
    197f: 85 1b        	sta	$1b                     ; 0x201b <main+0x37f>
    1981: a5 16        	lda	$16                     ; 0x2016 <main+0x37a>
    1983: 65 13        	adc	$13                     ; 0x2013 <main+0x377>
    1985: 84 1a        	sty	$1a                     ; 0x201a <main+0x37e>
    1987: a4 1b        	ldy	$1b                     ; 0x201b <main+0x37f>
    1989: 84 16        	sty	$16                     ; 0x2016 <main+0x37a>
    198b: 85 17        	sta	$17                     ; 0x2017 <main+0x37b>
    198d: a0 03        	ldy	#$3
    198f: b1 16        	lda	($16),y                 ; 0x2016 <main+0x37a>
    1991: a4 1a        	ldy	$1a                     ; 0x201a <main+0x37e>
    1993: c9 00        	cmp	#$0
    1995: d0 de        	bne	$1975 <readDirectory+0xda>
    1997: 2c fb 41     	bit	$41fb                   ; 0x41fb <__set_v>
    199a: a5 1d        	lda	$1d                     ; 0x201d <main+0x381>
    199c: f0 01        	beq	$199f <readDirectory+0x104>
    199e: b8           	clv
    199f: 8a           	txa
    19a0: d0 10        	bne	$19b2 <readDirectory+0x117>
    19a2: c0 04        	cpy	#$4
    19a4: 80 0e        	bra	$19b4 <readDirectory+0x119>
    19a6: 85 50        	sta	$50                     ; 0x2050 <main+0x3b4>
    19a8: 4c 59 1a     	jmp	$1a59 <readDirectory+0x1be>
    19ab: 85 50        	sta	$50                     ; 0x2050 <main+0x3b4>
    19ad: 64 18        	stz	$18                     ; 0x2018 <main+0x37c>
    19af: 4c 59 1a     	jmp	$1a59 <readDirectory+0x1be>
    19b2: e0 00        	cpx	#$0
    19b4: a2 01        	ldx	#$1
    19b6: a9 00        	lda	#$0
    19b8: b0 02        	bcs	$19bc <readDirectory+0x121>
    19ba: a9 01        	lda	#$1
    19bc: 86 16        	stx	$16                     ; 0x2016 <main+0x37a>
    19be: 70 02        	bvs	$19c2 <readDirectory+0x127>
    19c0: 64 16        	stz	$16                     ; 0x2016 <main+0x37a>
    19c2: aa           	tax
    19c3: 29 01        	and	#$1
    19c5: d0 02        	bne	$19c9 <readDirectory+0x12e>
    19c7: 64 18        	stz	$18                     ; 0x2018 <main+0x37c>
    19c9: 8a           	txa
    19ca: 05 16        	ora	$16                     ; 0x2016 <main+0x37a>
    19cc: 29 01        	and	#$1
    19ce: a6 1e        	ldx	$1e                     ; 0x201e <main+0x382>
    19d0: 86 50        	stx	$50                     ; 0x2050 <main+0x3b4>
    19d2: aa           	tax
    19d3: f0 03        	beq	$19d8 <readDirectory+0x13d>
    19d5: 4c 59 1a     	jmp	$1a59 <readDirectory+0x1be>
    19d8: a2 00        	ldx	#$0
    19da: 86 16        	stx	$16                     ; 0x2016 <main+0x37a>
    19dc: a2 00        	ldx	#$0
    19de: 86 17        	stx	$17                     ; 0x2017 <main+0x37b>
    19e0: a5 1d        	lda	$1d                     ; 0x201d <main+0x381>
    19e2: a6 14        	ldx	$14                     ; 0x2014 <main+0x378>
    19e4: 86 1a        	stx	$1a                     ; 0x201a <main+0x37e>
    19e6: a6 15        	ldx	$15                     ; 0x2015 <main+0x379>
    19e8: 86 1b        	stx	$1b                     ; 0x201b <main+0x37f>
    19ea: a0 01        	ldy	#$1
    19ec: c9 2e        	cmp	#$2e
    19ee: d0 08        	bne	$19f8 <readDirectory+0x15d>
    19f0: a6 1a        	ldx	$1a                     ; 0x201a <main+0x37e>
    19f2: 86 16        	stx	$16                     ; 0x2016 <main+0x37a>
    19f4: a6 1b        	ldx	$1b                     ; 0x201b <main+0x37f>
    19f6: 86 17        	stx	$17                     ; 0x2017 <main+0x37b>
    19f8: b1 1a        	lda	($1a),y                 ; 0x201a <main+0x37e>
    19fa: e6 1a        	inc	$1a                     ; 0x201a <main+0x37e>
    19fc: d0 02        	bne	$1a00 <readDirectory+0x165>
    19fe: e6 1b        	inc	$1b                     ; 0x201b <main+0x37f>
    1a00: aa           	tax
    1a01: d0 e9        	bne	$19ec <readDirectory+0x151>
    1a03: a6 17        	ldx	$17                     ; 0x2017 <main+0x37b>
    1a05: e4 4b        	cpx	$4b                     ; 0x204b <main+0x3af>
    1a07: d0 10        	bne	$1a19 <readDirectory+0x17e>
    1a09: a6 16        	ldx	$16                     ; 0x2016 <main+0x37a>
    1a0b: a4 1d        	ldy	$1d                     ; 0x201d <main+0x381>
    1a0d: 84 18        	sty	$18                     ; 0x2018 <main+0x37c>
    1a0f: a4 1e        	ldy	$1e                     ; 0x201e <main+0x382>
    1a11: 84 50        	sty	$50                     ; 0x2050 <main+0x3b4>
    1a13: e4 4a        	cpx	$4a                     ; 0x204a <main+0x3ae>
    1a15: d0 06        	bne	$1a1d <readDirectory+0x182>
    1a17: 80 40        	bra	$1a59 <readDirectory+0x1be>
    1a19: a6 1e        	ldx	$1e                     ; 0x201e <main+0x382>
    1a1b: 86 50        	stx	$50                     ; 0x2050 <main+0x3b4>
    1a1d: a0 01        	ldy	#$1
    1a1f: b1 16        	lda	($16),y                 ; 0x2016 <main+0x37a>
    1a21: a6 1d        	ldx	$1d                     ; 0x201d <main+0x381>
    1a23: 86 18        	stx	$18                     ; 0x2018 <main+0x37c>
    1a25: aa           	tax
    1a26: f0 31        	beq	$1a59 <readDirectory+0x1be>
    1a28: 85 23        	sta	$23                     ; 0x2023 <main+0x387>
    1a2a: a2 00        	ldx	#$0
    1a2c: 64 1c        	stz	$1c                     ; 0x201c <main+0x380>
    1a2e: a0 02        	ldy	#$2
    1a30: 8a           	txa
    1a31: 18           	clc
    1a32: 65 16        	adc	$16                     ; 0x2016 <main+0x37a>
    1a34: 85 1a        	sta	$1a                     ; 0x201a <main+0x37e>
    1a36: a5 1c        	lda	$1c                     ; 0x201c <main+0x380>
    1a38: 65 17        	adc	$17                     ; 0x2017 <main+0x37b>
    1a3a: e8           	inx
    1a3b: d0 02        	bne	$1a3f <readDirectory+0x1a4>
    1a3d: e6 1c        	inc	$1c                     ; 0x201c <main+0x380>
    1a3f: 85 1b        	sta	$1b                     ; 0x201b <main+0x37f>
    1a41: b1 1a        	lda	($1a),y                 ; 0x201a <main+0x37e>
    1a43: d0 eb        	bne	$1a30 <readDirectory+0x195>
    1a45: a4 1d        	ldy	$1d                     ; 0x201d <main+0x381>
    1a47: 84 18        	sty	$18                     ; 0x2018 <main+0x37c>
    1a49: a4 1e        	ldy	$1e                     ; 0x201e <main+0x382>
    1a4b: 84 50        	sty	$50                     ; 0x2050 <main+0x3b4>
    1a4d: a5 1c        	lda	$1c                     ; 0x201c <main+0x380>
    1a4f: d0 08        	bne	$1a59 <readDirectory+0x1be>
    1a51: a4 1d        	ldy	$1d                     ; 0x201d <main+0x381>
    1a53: 84 18        	sty	$18                     ; 0x2018 <main+0x37c>
    1a55: e0 03        	cpx	#$3
    1a57: f0 26        	beq	$1a7f <readDirectory+0x1e4>
    1a59: a6 1f        	ldx	$1f                     ; 0x201f <main+0x383>
    1a5b: e8           	inx
    1a5c: d0 02        	bne	$1a60 <readDirectory+0x1c5>
    1a5e: e6 19        	inc	$19                     ; 0x2019 <main+0x37d>
    1a60: 18           	clc
    1a61: a5 50        	lda	$50                     ; 0x2050 <main+0x3b4>
    1a63: 69 03        	adc	#$3
    1a65: a4 19        	ldy	$19                     ; 0x2019 <main+0x37d>
    1a67: f0 03        	beq	$1a6c <readDirectory+0x1d1>
    1a69: 4c 5c 19     	jmp	$195c <readDirectory+0xc1>
    1a6c: e0 04        	cpx	#$4
    1a6e: f0 03        	beq	$1a73 <readDirectory+0x1d8>
    1a70: 4c 5c 19     	jmp	$195c <readDirectory+0xc1>
    1a73: a0 01        	ldy	#$1
    1a75: b1 12        	lda	($12),y                 ; 0x2012 <main+0x376>
    1a77: d0 03        	bne	$1a7c <readDirectory+0x1e1>
    1a79: 4c ea 18     	jmp	$18ea <readDirectory+0x4f>
    1a7c: 4c 16 1b     	jmp	$1b16 <readDirectory+0x27b>
    1a7f: a5 23        	lda	$23                     ; 0x2023 <main+0x387>
    1a81: c9 41        	cmp	#$41
    1a83: 90 08        	bcc	$1a8d <readDirectory+0x1f2>
    1a85: c9 5b        	cmp	#$5b
    1a87: b0 04        	bcs	$1a8d <readDirectory+0x1f2>
    1a89: 09 20        	ora	#$20
    1a8b: 85 23        	sta	$23                     ; 0x2023 <main+0x387>
    1a8d: a5 22        	lda	$22                     ; 0x2022 <main+0x386>
    1a8f: c9 41        	cmp	#$41
    1a91: 90 06        	bcc	$1a99 <readDirectory+0x1fe>
    1a93: c9 5b        	cmp	#$5b
    1a95: b0 02        	bcs	$1a99 <readDirectory+0x1fe>
    1a97: 09 20        	ora	#$20
    1a99: 85 1a        	sta	$1a                     ; 0x201a <main+0x37e>
    1a9b: a6 1d        	ldx	$1d                     ; 0x201d <main+0x381>
    1a9d: 86 18        	stx	$18                     ; 0x2018 <main+0x37c>
    1a9f: a6 23        	ldx	$23                     ; 0x2023 <main+0x387>
    1aa1: e4 1a        	cpx	$1a                     ; 0x201a <main+0x37e>
    1aa3: d0 b4        	bne	$1a59 <readDirectory+0x1be>
    1aa5: a0 02        	ldy	#$2
    1aa7: b1 16        	lda	($16),y                 ; 0x2016 <main+0x37a>
    1aa9: c9 41        	cmp	#$41
    1aab: 90 2c        	bcc	$1ad9 <readDirectory+0x23e>
    1aad: c9 5b        	cmp	#$5b
    1aaf: a6 1e        	ldx	$1e                     ; 0x201e <main+0x382>
    1ab1: b0 03        	bcs	$1ab6 <readDirectory+0x21b>
    1ab3: 4c 13 1c     	jmp	$1c13 <readDirectory+0x378>
    1ab6: 85 1b        	sta	$1b                     ; 0x201b <main+0x37f>
    1ab8: a0 03        	ldy	#$3
    1aba: 80 23        	bra	$1adf <readDirectory+0x244>
    1abc: bd dd 57     	lda	$57dd,x                 ; 0x57dd <fpr+0x11ec>
    1abf: c9 41        	cmp	#$41
    1ac1: 90 03        	bcc	$1ac6 <readDirectory+0x22b>
    1ac3: 4c 18 1c     	jmp	$1c18 <readDirectory+0x37d>
    1ac6: 85 16        	sta	$16                     ; 0x2016 <main+0x37a>
    1ac8: a6 1d        	ldx	$1d                     ; 0x201d <main+0x381>
    1aca: 86 18        	stx	$18                     ; 0x2018 <main+0x37c>
    1acc: a6 1e        	ldx	$1e                     ; 0x201e <main+0x382>
    1ace: 86 50        	stx	$50                     ; 0x2050 <main+0x3b4>
    1ad0: a6 17        	ldx	$17                     ; 0x2017 <main+0x37b>
    1ad2: e4 16        	cpx	$16                     ; 0x2016 <main+0x37a>
    1ad4: f0 40        	beq	$1b16 <readDirectory+0x27b>
    1ad6: 4c 59 1a     	jmp	$1a59 <readDirectory+0x1be>
    1ad9: 85 1b        	sta	$1b                     ; 0x201b <main+0x37f>
    1adb: a0 03        	ldy	#$3
    1add: a6 1e        	ldx	$1e                     ; 0x201e <main+0x382>
    1adf: bd dc 57     	lda	$57dc,x                 ; 0x57dc <fpr+0x11eb>
    1ae2: c9 41        	cmp	#$41
    1ae4: 90 07        	bcc	$1aed <readDirectory+0x252>
    1ae6: c9 5b        	cmp	#$5b
    1ae8: b0 03        	bcs	$1aed <readDirectory+0x252>
    1aea: 4c 22 1c     	jmp	$1c22 <readDirectory+0x387>
    1aed: 85 1a        	sta	$1a                     ; 0x201a <main+0x37e>
    1aef: a6 1d        	ldx	$1d                     ; 0x201d <main+0x381>
    1af1: 86 18        	stx	$18                     ; 0x2018 <main+0x37c>
    1af3: a6 1e        	ldx	$1e                     ; 0x201e <main+0x382>
    1af5: 86 50        	stx	$50                     ; 0x2050 <main+0x3b4>
    1af7: a6 1b        	ldx	$1b                     ; 0x201b <main+0x37f>
    1af9: e4 1a        	cpx	$1a                     ; 0x201a <main+0x37e>
    1afb: f0 03        	beq	$1b00 <readDirectory+0x265>
    1afd: 4c 59 1a     	jmp	$1a59 <readDirectory+0x1be>
    1b00: b1 16        	lda	($16),y                 ; 0x2016 <main+0x37a>
    1b02: c9 41        	cmp	#$41
    1b04: b0 03        	bcs	$1b09 <readDirectory+0x26e>
    1b06: 4c 27 1c     	jmp	$1c27 <readDirectory+0x38c>
    1b09: c9 5b        	cmp	#$5b
    1b0b: a6 1e        	ldx	$1e                     ; 0x201e <main+0x382>
    1b0d: b0 03        	bcs	$1b12 <readDirectory+0x277>
    1b0f: 4c 92 1c     	jmp	$1c92 <readDirectory+0x3f7>
    1b12: 85 17        	sta	$17                     ; 0x2017 <main+0x37b>
    1b14: 80 a6        	bra	$1abc <readDirectory+0x221>
    1b16: a6 12        	ldx	$12                     ; 0x2012 <main+0x376>
    1b18: 86 53        	stx	$53                     ; 0x2053 <main+0x3b7>
    1b1a: a6 13        	ldx	$13                     ; 0x2013 <main+0x377>
    1b1c: 86 54        	stx	$54                     ; 0x2054 <main+0x3b8>
    1b1e: a2 2c        	ldx	#$2c
    1b20: 86 12        	stx	$12                     ; 0x2012 <main+0x376>
    1b22: 64 13        	stz	$13                     ; 0x2013 <main+0x377>
    1b24: a6 4f        	ldx	$4f                     ; 0x204f <main+0x3b3>
    1b26: a5 55        	lda	$55                     ; 0x2055 <main+0x3b9>
    1b28: a4 4c        	ldy	$4c                     ; 0x204c <main+0x3b0>
    1b2a: 84 56        	sty	$56                     ; 0x2056 <main+0x3ba>
    1b2c: a4 4d        	ldy	$4d                     ; 0x204d <main+0x3b1>
    1b2e: 84 57        	sty	$57                     ; 0x2057 <main+0x3bb>
    1b30: a4 14        	ldy	$14                     ; 0x2014 <main+0x378>
    1b32: 84 4c        	sty	$4c                     ; 0x204c <main+0x3b0>
    1b34: a4 15        	ldy	$15                     ; 0x2015 <main+0x379>
    1b36: 84 4d        	sty	$4d                     ; 0x204d <main+0x3b1>
    1b38: 20 c9 41     	jsr	$41c9 <__mulhi3>
    1b3b: a4 4c        	ldy	$4c                     ; 0x204c <main+0x3b0>
    1b3d: 84 16        	sty	$16                     ; 0x2016 <main+0x37a>
    1b3f: a4 4d        	ldy	$4d                     ; 0x204d <main+0x3b1>
    1b41: 84 17        	sty	$17                     ; 0x2017 <main+0x37b>
    1b43: a4 56        	ldy	$56                     ; 0x2056 <main+0x3ba>
    1b45: 84 4c        	sty	$4c                     ; 0x204c <main+0x3b0>
    1b47: a4 57        	ldy	$57                     ; 0x2057 <main+0x3bb>
    1b49: 84 4d        	sty	$4d                     ; 0x204d <main+0x3b1>
    1b4b: a4 53        	ldy	$53                     ; 0x2053 <main+0x3b7>
    1b4d: 84 12        	sty	$12                     ; 0x2012 <main+0x376>
    1b4f: a4 54        	ldy	$54                     ; 0x2054 <main+0x3b8>
    1b51: 84 13        	sty	$13                     ; 0x2013 <main+0x377>
    1b53: 85 14        	sta	$14                     ; 0x2014 <main+0x378>
    1b55: 86 15        	stx	$15                     ; 0x2015 <main+0x379>
    1b57: a9 3f        	lda	#$3f
    1b59: 18           	clc
    1b5a: 65 14        	adc	$14                     ; 0x2014 <main+0x378>
    1b5c: aa           	tax
    1b5d: a9 46        	lda	#$46
    1b5f: 65 15        	adc	$15                     ; 0x2015 <main+0x379>
    1b61: 86 1a        	stx	$1a                     ; 0x201a <main+0x37e>
    1b63: 86 14        	stx	$14                     ; 0x2014 <main+0x378>
    1b65: 85 1b        	sta	$1b                     ; 0x201b <main+0x37f>
    1b67: 85 15        	sta	$15                     ; 0x2015 <main+0x379>
    1b69: a2 2b        	ldx	#$2b
    1b6b: 64 18        	stz	$18                     ; 0x2018 <main+0x37c>
    1b6d: 64 19        	stz	$19                     ; 0x2019 <main+0x37d>
    1b6f: 80 06        	bra	$1b77 <readDirectory+0x2dc>
    1b71: e6 18        	inc	$18                     ; 0x2018 <main+0x37c>
    1b73: a5 19        	lda	$19                     ; 0x2019 <main+0x37d>
    1b75: f0 17        	beq	$1b8e <readDirectory+0x2f3>
    1b77: a4 18        	ldy	$18                     ; 0x2018 <main+0x37c>
    1b79: b1 16        	lda	($16),y                 ; 0x2016 <main+0x37a>
    1b7b: 85 1c        	sta	$1c                     ; 0x201c <main+0x380>
    1b7d: b1 16        	lda	($16),y                 ; 0x2016 <main+0x37a>
    1b7f: 91 4c        	sta	($4c),y                 ; 0x204c <main+0x3b0>
    1b81: a5 1c        	lda	$1c                     ; 0x201c <main+0x380>
    1b83: f0 0e        	beq	$1b93 <readDirectory+0x2f8>
    1b85: ca           	dex
    1b86: e0 ff        	cpx	#$ff
    1b88: d0 e7        	bne	$1b71 <readDirectory+0x2d6>
    1b8a: c6 19        	dec	$19                     ; 0x2019 <main+0x37d>
    1b8c: 80 e3        	bra	$1b71 <readDirectory+0x2d6>
    1b8e: 8a           	txa
    1b8f: d0 e6        	bne	$1b77 <readDirectory+0x2dc>
    1b91: 80 42        	bra	$1bd5 <readDirectory+0x33a>
    1b93: ca           	dex
    1b94: e0 ff        	cpx	#$ff
    1b96: d0 02        	bne	$1b9a <readDirectory+0x2ff>
    1b98: c6 19        	dec	$19                     ; 0x2019 <main+0x37d>
    1b9a: a5 19        	lda	$19                     ; 0x2019 <main+0x37d>
    1b9c: d0 03        	bne	$1ba1 <readDirectory+0x306>
    1b9e: 8a           	txa
    1b9f: f0 34        	beq	$1bd5 <readDirectory+0x33a>
    1ba1: 18           	clc
    1ba2: a5 1a        	lda	$1a                     ; 0x201a <main+0x37e>
    1ba4: 65 18        	adc	$18                     ; 0x2018 <main+0x37c>
    1ba6: 85 12        	sta	$12                     ; 0x2012 <main+0x376>
    1ba8: a5 1b        	lda	$1b                     ; 0x201b <main+0x37f>
    1baa: 69 00        	adc	#$0
    1bac: a4 14        	ldy	$14                     ; 0x2014 <main+0x378>
    1bae: 84 58        	sty	$58                     ; 0x2058 <main+0x3bc>
    1bb0: a4 15        	ldy	$15                     ; 0x2015 <main+0x379>
    1bb2: 84 59        	sty	$59                     ; 0x2059 <main+0x3bd>
    1bb4: 85 13        	sta	$13                     ; 0x2013 <main+0x377>
    1bb6: e6 12        	inc	$12                     ; 0x2012 <main+0x376>
    1bb8: d0 02        	bne	$1bbc <readDirectory+0x321>
    1bba: e6 13        	inc	$13                     ; 0x2013 <main+0x377>
    1bbc: a4 19        	ldy	$19                     ; 0x2019 <main+0x37d>
    1bbe: 84 14        	sty	$14                     ; 0x2014 <main+0x378>
    1bc0: a9 00        	lda	#$0
    1bc2: 20 a9 41     	jsr	$41a9 <__memset>
    1bc5: a6 58        	ldx	$58                     ; 0x2058 <main+0x3bc>
    1bc7: 86 14        	stx	$14                     ; 0x2014 <main+0x378>
    1bc9: a6 59        	ldx	$59                     ; 0x2059 <main+0x3bd>
    1bcb: 86 15        	stx	$15                     ; 0x2015 <main+0x379>
    1bcd: a6 53        	ldx	$53                     ; 0x2053 <main+0x3b7>
    1bcf: 86 12        	stx	$12                     ; 0x2012 <main+0x376>
    1bd1: a6 54        	ldx	$54                     ; 0x2054 <main+0x3b8>
    1bd3: 86 13        	stx	$13                     ; 0x2013 <main+0x377>
    1bd5: a9 00        	lda	#$0
    1bd7: a0 2b        	ldy	#$2b
    1bd9: 91 14        	sta	($14),y                 ; 0x2014 <main+0x378>
    1bdb: a0 01        	ldy	#$1
    1bdd: b1 12        	lda	($12),y                 ; 0x2012 <main+0x376>
    1bdf: 2c fb 41     	bit	$41fb                   ; 0x41fb <__set_v>
    1be2: c9 01        	cmp	#$1
    1be4: f0 01        	beq	$1be7 <readDirectory+0x34c>
    1be6: b8           	clv
    1be7: 98           	tya
    1be8: a6 4e        	ldx	$4e                     ; 0x204e <main+0x3b2>
    1bea: 70 02        	bvs	$1bee <readDirectory+0x353>
    1bec: a9 00        	lda	#$0
    1bee: 9d 70 57     	sta	$5770,x                 ; 0x5770 <fpr+0x117f>
    1bf1: a4 55        	ldy	$55                     ; 0x2055 <main+0x3b9>
    1bf3: 84 12        	sty	$12                     ; 0x2012 <main+0x376>
    1bf5: a4 4f        	ldy	$4f                     ; 0x204f <main+0x3b3>
    1bf7: e6 12        	inc	$12                     ; 0x2012 <main+0x376>
    1bf9: d0 01        	bne	$1bfc <readDirectory+0x361>
    1bfb: c8           	iny
    1bfc: e8           	inx
    1bfd: a5 4c        	lda	$4c                     ; 0x204c <main+0x3b0>
    1bff: 18           	clc
    1c00: 69 2c        	adc	#$2c
    1c02: 85 4c        	sta	$4c                     ; 0x204c <main+0x3b0>
    1c04: a5 4d        	lda	$4d                     ; 0x204d <main+0x3b1>
    1c06: 69 00        	adc	#$0
    1c08: 85 4d        	sta	$4d                     ; 0x204d <main+0x3b1>
    1c0a: a5 12        	lda	$12                     ; 0x2012 <main+0x376>
    1c0c: 85 55        	sta	$55                     ; 0x2055 <main+0x3b9>
    1c0e: 84 4f        	sty	$4f                     ; 0x204f <main+0x3b3>
    1c10: 4c e8 18     	jmp	$18e8 <readDirectory+0x4d>
    1c13: 09 20        	ora	#$20
    1c15: 4c b6 1a     	jmp	$1ab6 <readDirectory+0x21b>
    1c18: c9 5b        	cmp	#$5b
    1c1a: b0 03        	bcs	$1c1f <readDirectory+0x384>
    1c1c: 4c 97 1c     	jmp	$1c97 <readDirectory+0x3fc>
    1c1f: 4c c6 1a     	jmp	$1ac6 <readDirectory+0x22b>
    1c22: 09 20        	ora	#$20
    1c24: 4c ed 1a     	jmp	$1aed <readDirectory+0x252>
    1c27: 85 17        	sta	$17                     ; 0x2017 <main+0x37b>
    1c29: a6 1e        	ldx	$1e                     ; 0x201e <main+0x382>
    1c2b: 4c bc 1a     	jmp	$1abc <readDirectory+0x221>
    1c2e: a6 55        	ldx	$55                     ; 0x2055 <main+0x3b9>
    1c30: 8e d3 57     	stx	$57d3                   ; 0x57d3 <fpr+0x11e2>
    1c33: a6 4f        	ldx	$4f                     ; 0x204f <main+0x3b3>
    1c35: 8e d4 57     	stx	$57d4                   ; 0x57d4 <fpr+0x11e3>
    1c38: a2 3f        	ldx	#$3f
    1c3a: 86 12        	stx	$12                     ; 0x2012 <main+0x376>
    1c3c: a2 46        	ldx	#$46
    1c3e: 86 13        	stx	$13                     ; 0x2013 <main+0x377>
    1c40: a2 1a        	ldx	#$1a
    1c42: 86 14        	stx	$14                     ; 0x2014 <main+0x378>
    1c44: a2 44        	ldx	#$44
    1c46: 86 15        	stx	$15                     ; 0x2015 <main+0x379>
    1c48: a9 2c        	lda	#$2c
    1c4a: a2 00        	ldx	#$0
    1c4c: 20 7d 41     	jsr	$417d <memcpy>
    1c4f: a2 52        	ldx	#$52
    1c51: a0 00        	ldy	#$0
    1c53: 86 12        	stx	$12                     ; 0x2012 <main+0x376>
    1c55: 84 13        	sty	$13                     ; 0x2013 <main+0x377>
    1c57: a2 3b        	ldx	#$3b
    1c59: 86 14        	stx	$14                     ; 0x2014 <main+0x378>
    1c5b: a2 00        	ldx	#$0
    1c5d: 86 15        	stx	$15                     ; 0x2015 <main+0x379>
    1c5f: a2 51        	ldx	#$51
    1c61: a0 00        	ldy	#$0
    1c63: b2 48        	lda	($48)                   ; 0x2048 <main+0x3ac>
    1c65: f0 18        	beq	$1c7f <readDirectory+0x3e4>
    1c67: 85 f3        	sta	$f3                     ; 0x20f3 <main+0x457>
    1c69: 86 16        	stx	$16                     ; 0x2016 <main+0x37a>
    1c6b: 84 17        	sty	$17                     ; 0x2017 <main+0x37b>
    1c6d: 20 80 ff     	jsr	$ff80 <__heap_start+0xa790>
    1c70: 92 16        	sta	($16)                   ; 0x2016 <main+0x37a>
    1c72: a9 00        	lda	#$0
    1c74: 6a           	ror
    1c75: 85 14        	sta	$14                     ; 0x2014 <main+0x378>
    1c77: a5 3b        	lda	$3b                     ; 0x203b <main+0x39f>
    1c79: d0 04        	bne	$1c7f <readDirectory+0x3e4>
    1c7b: a9 00        	lda	#$0
    1c7d: 92 48        	sta	($48)                   ; 0x2048 <main+0x3ac>
    1c7f: 64 34        	stz	$34                     ; 0x2034 <main+0x398>
    1c81: 20 00 ff     	jsr	$ff00 <__heap_start+0xa710>
    1c84: 92 12        	sta	($12)                   ; 0x2012 <main+0x376>
    1c86: a9 00        	lda	#$0
    1c88: 6a           	ror
    1c89: 85 14        	sta	$14                     ; 0x2014 <main+0x378>
    1c8b: a5 34        	lda	$34                     ; 0x2034 <main+0x398>
    1c8d: c9 46        	cmp	#$46
    1c8f: d0 d2        	bne	$1c63 <readDirectory+0x3c8>
    1c91: 60           	rts
    1c92: 09 20        	ora	#$20
    1c94: 4c 12 1b     	jmp	$1b12 <readDirectory+0x277>
    1c97: 09 20        	ora	#$20
    1c99: 4c c6 1a     	jmp	$1ac6 <readDirectory+0x22b>

00001c9c <main>:
    1c9c: 18           	clc
    1c9d: a5 10        	lda	$10                     ; 0x2010 <main+0x374>
    1c9f: 69 7b        	adc	#$7b
    1ca1: 85 10        	sta	$10                     ; 0x2010 <main+0x374>
    1ca3: a5 11        	lda	$11                     ; 0x2011 <main+0x375>
    1ca5: 69 ff        	adc	#$ff
    1ca7: 85 11        	sta	$11                     ; 0x2011 <main+0x375>
    1ca9: a6 24        	ldx	$24                     ; 0x2024 <main+0x388>
    1cab: da           	phx
    1cac: a6 25        	ldx	$25                     ; 0x2025 <main+0x389>
    1cae: da           	phx
    1caf: a6 26        	ldx	$26                     ; 0x2026 <main+0x38a>
    1cb1: da           	phx
    1cb2: a6 27        	ldx	$27                     ; 0x2027 <main+0x38b>
    1cb4: da           	phx
    1cb5: a5 28        	lda	$28                     ; 0x2028 <main+0x38c>
    1cb7: a0 0a        	ldy	#$a
    1cb9: 91 10        	sta	($10),y                 ; 0x2010 <main+0x374>
    1cbb: a5 29        	lda	$29                     ; 0x2029 <main+0x38d>
    1cbd: 88           	dey
    1cbe: 91 10        	sta	($10),y                 ; 0x2010 <main+0x374>
    1cc0: a5 2a        	lda	$2a                     ; 0x202a <main+0x38e>
    1cc2: 88           	dey
    1cc3: 91 10        	sta	($10),y                 ; 0x2010 <main+0x374>
    1cc5: a5 2b        	lda	$2b                     ; 0x202b <main+0x38f>
    1cc7: 88           	dey
    1cc8: 91 10        	sta	($10),y                 ; 0x2010 <main+0x374>
    1cca: a5 2c        	lda	$2c                     ; 0x202c <main+0x390>
    1ccc: 88           	dey
    1ccd: 91 10        	sta	($10),y                 ; 0x2010 <main+0x374>
    1ccf: 64 1c        	stz	$1c                     ; 0x201c <main+0x380>
    1cd1: a2 00        	ldx	#$0
    1cd3: 86 1a        	stx	$1a                     ; 0x201a <main+0x37e>
    1cd5: a2 d0        	ldx	#$d0
    1cd7: 86 1b        	stx	$1b                     ; 0x201b <main+0x37f>
    1cd9: a2 00        	ldx	#$0
    1cdb: 86 16        	stx	$16                     ; 0x2016 <main+0x37a>
    1cdd: a2 d8        	ldx	#$d8
    1cdf: 86 17        	stx	$17                     ; 0x2017 <main+0x37b>
    1ce1: a2 00        	ldx	#$0
    1ce3: 86 18        	stx	$18                     ; 0x2018 <main+0x37c>
    1ce5: a2 d4        	ldx	#$d4
    1ce7: 86 19        	stx	$19                     ; 0x2019 <main+0x37d>
    1ce9: a2 00        	ldx	#$0
    1ceb: 86 14        	stx	$14                     ; 0x2014 <main+0x378>
    1ced: a2 dc        	ldx	#$dc
    1cef: 86 15        	stx	$15                     ; 0x2015 <main+0x379>
    1cf1: a2 00        	ldx	#$0
    1cf3: 86 12        	stx	$12                     ; 0x2012 <main+0x376>
    1cf5: a2 c0        	ldx	#$c0
    1cf7: 86 13        	stx	$13                     ; 0x2013 <main+0x377>
    1cf9: 64 01        	stz	$1                      ; 0x2001 <main+0x365>
    1cfb: a2 3f        	ldx	#$3f
    1cfd: 8e 00 d0     	stx	$d000                   ; 0xd000 <__heap_start+0x7810>
    1d00: a2 b3        	ldx	#$b3
    1d02: 86 00        	stx	$0                      ; 0x2000 <main+0x364>
    1d04: 64 08        	stz	$8                      ; 0x2008 <main+0x36c>
    1d06: a2 01        	ldx	#$1
    1d08: 86 09        	stx	$9                      ; 0x2009 <main+0x36d>
    1d0a: e8           	inx
    1d0b: 86 0a        	stx	$a                      ; 0x200a <main+0x36e>
    1d0d: e8           	inx
    1d0e: 86 0b        	stx	$b                      ; 0x200b <main+0x36f>
    1d10: e8           	inx
    1d11: 86 0c        	stx	$c                      ; 0x200c <main+0x370>
    1d13: e8           	inx
    1d14: 86 0d        	stx	$d                      ; 0x200d <main+0x371>
    1d16: a2 34        	ldx	#$34
    1d18: a9 00        	lda	#$0
    1d1a: 86 f0        	stx	$f0                     ; 0x20f0 <main+0x454>
    1d1c: 85 f1        	sta	$f1                     ; 0x20f1 <main+0x455>
    1d1e: a6 01        	ldx	$1                      ; 0x2001 <main+0x365>
    1d20: a0 01        	ldy	#$1
    1d22: 84 01        	sty	$1                      ; 0x2001 <main+0x365>
    1d24: a5 1c        	lda	$1c                     ; 0x201c <main+0x380>
    1d26: 92 1a        	sta	($1a)                   ; 0x201a <main+0x37e>
    1d28: 91 1a        	sta	($1a),y                 ; 0x201a <main+0x37e>
    1d2a: c8           	iny
    1d2b: 91 1a        	sta	($1a),y                 ; 0x201a <main+0x37e>
    1d2d: c8           	iny
    1d2e: a9 ff        	lda	#$ff
    1d30: 91 1a        	sta	($1a),y                 ; 0x201a <main+0x37e>
    1d32: 86 01        	stx	$1                      ; 0x2001 <main+0x365>
    1d34: a5 1a        	lda	$1a                     ; 0x201a <main+0x37e>
    1d36: 18           	clc
    1d37: 69 04        	adc	#$4
    1d39: 85 1a        	sta	$1a                     ; 0x201a <main+0x37e>
    1d3b: a5 1b        	lda	$1b                     ; 0x201b <main+0x37f>
    1d3d: 69 00        	adc	#$0
    1d3f: e6 1c        	inc	$1c                     ; 0x201c <main+0x380>
    1d41: 85 1b        	sta	$1b                     ; 0x201b <main+0x37f>
    1d43: d0 d9        	bne	$1d1e <main+0x82>
    1d45: a9 00        	lda	#$0
    1d47: a6 01        	ldx	$1                      ; 0x2001 <main+0x365>
    1d49: a0 01        	ldy	#$1
    1d4b: 84 01        	sty	$1                      ; 0x2001 <main+0x365>
    1d4d: 92 18        	sta	($18)                   ; 0x2018 <main+0x37c>
    1d4f: 91 18        	sta	($18),y                 ; 0x2018 <main+0x37c>
    1d51: c8           	iny
    1d52: 91 18        	sta	($18),y                 ; 0x2018 <main+0x37c>
    1d54: c8           	iny
    1d55: 85 1a        	sta	$1a                     ; 0x201a <main+0x37e>
    1d57: a9 ff        	lda	#$ff
    1d59: 91 18        	sta	($18),y                 ; 0x2018 <main+0x37c>
    1d5b: 86 01        	stx	$1                      ; 0x2001 <main+0x365>
    1d5d: a5 18        	lda	$18                     ; 0x2018 <main+0x37c>
    1d5f: 18           	clc
    1d60: 69 04        	adc	#$4
    1d62: 85 18        	sta	$18                     ; 0x2018 <main+0x37c>
    1d64: a5 19        	lda	$19                     ; 0x2019 <main+0x37d>
    1d66: 69 00        	adc	#$0
    1d68: e6 1a        	inc	$1a                     ; 0x201a <main+0x37e>
    1d6a: 85 19        	sta	$19                     ; 0x2019 <main+0x37d>
    1d6c: a5 1a        	lda	$1a                     ; 0x201a <main+0x37e>
    1d6e: d0 d7        	bne	$1d47 <main+0xab>
    1d70: a9 00        	lda	#$0
    1d72: a6 01        	ldx	$1                      ; 0x2001 <main+0x365>
    1d74: a0 01        	ldy	#$1
    1d76: 84 01        	sty	$1                      ; 0x2001 <main+0x365>
    1d78: 92 16        	sta	($16)                   ; 0x2016 <main+0x37a>
    1d7a: 91 16        	sta	($16),y                 ; 0x2016 <main+0x37a>
    1d7c: c8           	iny
    1d7d: 91 16        	sta	($16),y                 ; 0x2016 <main+0x37a>
    1d7f: c8           	iny
    1d80: 85 18        	sta	$18                     ; 0x2018 <main+0x37c>
    1d82: a9 ff        	lda	#$ff
    1d84: 91 16        	sta	($16),y                 ; 0x2016 <main+0x37a>
    1d86: 86 01        	stx	$1                      ; 0x2001 <main+0x365>
    1d88: a5 16        	lda	$16                     ; 0x2016 <main+0x37a>
    1d8a: 18           	clc
    1d8b: 69 04        	adc	#$4
    1d8d: 85 16        	sta	$16                     ; 0x2016 <main+0x37a>
    1d8f: a5 17        	lda	$17                     ; 0x2017 <main+0x37b>
    1d91: 69 00        	adc	#$0
    1d93: e6 18        	inc	$18                     ; 0x2018 <main+0x37c>
    1d95: 85 17        	sta	$17                     ; 0x2017 <main+0x37b>
    1d97: a5 18        	lda	$18                     ; 0x2018 <main+0x37c>
    1d99: d0 d7        	bne	$1d72 <main+0xd6>
    1d9b: a9 00        	lda	#$0
    1d9d: a6 01        	ldx	$1                      ; 0x2001 <main+0x365>
    1d9f: a0 01        	ldy	#$1
    1da1: 84 01        	sty	$1                      ; 0x2001 <main+0x365>
    1da3: 92 14        	sta	($14)                   ; 0x2014 <main+0x378>
    1da5: 91 14        	sta	($14),y                 ; 0x2014 <main+0x378>
    1da7: c8           	iny
    1da8: 91 14        	sta	($14),y                 ; 0x2014 <main+0x378>
    1daa: c8           	iny
    1dab: 85 16        	sta	$16                     ; 0x2016 <main+0x37a>
    1dad: a9 ff        	lda	#$ff
    1daf: 91 14        	sta	($14),y                 ; 0x2014 <main+0x378>
    1db1: 86 01        	stx	$1                      ; 0x2001 <main+0x365>
    1db3: a5 14        	lda	$14                     ; 0x2014 <main+0x378>
    1db5: 18           	clc
    1db6: 69 04        	adc	#$4
    1db8: 85 14        	sta	$14                     ; 0x2014 <main+0x378>
    1dba: a5 15        	lda	$15                     ; 0x2015 <main+0x379>
    1dbc: 69 00        	adc	#$0
    1dbe: e6 16        	inc	$16                     ; 0x2016 <main+0x37a>
    1dc0: 85 15        	sta	$15                     ; 0x2015 <main+0x379>
    1dc2: a5 16        	lda	$16                     ; 0x2016 <main+0x37a>
    1dc4: d0 d7        	bne	$1d9d <main+0x101>
    1dc6: ad 02 d0     	lda	$d002                   ; 0xd002 <__heap_start+0x7812>
    1dc9: a2 f0        	ldx	#$f0
    1dcb: 29 f0        	and	#$f0
    1dcd: 8d 02 d0     	sta	$d002                   ; 0xd002 <__heap_start+0x7812>
    1dd0: ad 02 d0     	lda	$d002                   ; 0xd002 <__heap_start+0x7812>
    1dd3: 29 0f        	and	#$f
    1dd5: 09 10        	ora	#$10
    1dd7: 8d 02 d0     	sta	$d002                   ; 0xd002 <__heap_start+0x7812>
    1dda: a0 02        	ldy	#$2
    1ddc: 8c 03 d0     	sty	$d003                   ; 0xd003 <__heap_start+0x7813>
    1ddf: 86 33        	stx	$33                     ; 0x2033 <main+0x397>
    1de1: ad 01 d0     	lda	$d001                   ; 0xd001 <__heap_start+0x7811>
    1de4: 29 f9        	and	#$f9
    1de6: 09 04        	ora	#$4
    1de8: 8d 01 d0     	sta	$d001                   ; 0xd001 <__heap_start+0x7811>
    1deb: 64 14        	stz	$14                     ; 0x2014 <main+0x378>
    1ded: 9c 10 d0     	stz	$d010                   ; 0xd010 <__heap_start+0x7820>
    1df0: a2 00        	ldx	#$0
    1df2: 64 15        	stz	$15                     ; 0x2015 <main+0x379>
    1df4: 86 18        	stx	$18                     ; 0x2018 <main+0x37c>
    1df6: a4 18        	ldy	$18                     ; 0x2018 <main+0x37c>
    1df8: be 46 44     	ldx	$4446,y                 ; 0x4446 <textColors>
    1dfb: 86 19        	stx	$19                     ; 0x2019 <main+0x37d>
    1dfd: be 47 44     	ldx	$4447,y                 ; 0x4447 <textColors+0x1>
    1e00: 86 1a        	stx	$1a                     ; 0x201a <main+0x37e>
    1e02: be 48 44     	ldx	$4448,y                 ; 0x4448 <textColors+0x2>
    1e05: 86 1b        	stx	$1b                     ; 0x201b <main+0x37f>
    1e07: a6 15        	ldx	$15                     ; 0x2015 <main+0x379>
    1e09: 8e 00 de     	stx	$de00                   ; 0xde00 <__heap_start+0x8610>
    1e0c: 86 17        	stx	$17                     ; 0x2017 <main+0x37b>
    1e0e: 9c 01 de     	stz	$de01                   ; 0xde01 <__heap_start+0x8611>
    1e11: a2 04        	ldx	#$4
    1e13: 8e 02 de     	stx	$de02                   ; 0xde02 <__heap_start+0x8612>
    1e16: 9c 03 de     	stz	$de03                   ; 0xde03 <__heap_start+0x8613>
    1e19: ad 10 de     	lda	$de10                   ; 0xde10 <__heap_start+0x8620>
    1e1c: ac 11 de     	ldy	$de11                   ; 0xde11 <__heap_start+0x8621>
    1e1f: 84 15        	sty	$15                     ; 0x2015 <main+0x379>
    1e21: ac 12 de     	ldy	$de12                   ; 0xde12 <__heap_start+0x8622>
    1e24: ac 13 de     	ldy	$de13                   ; 0xde13 <__heap_start+0x8623>
    1e27: 18           	clc
    1e28: 65 14        	adc	$14                     ; 0x2014 <main+0x378>
    1e2a: 85 16        	sta	$16                     ; 0x2016 <main+0x37a>
    1e2c: a6 17        	ldx	$17                     ; 0x2017 <main+0x37b>
    1e2e: a9 d8        	lda	#$d8
    1e30: 65 15        	adc	$15                     ; 0x2015 <main+0x379>
    1e32: 85 17        	sta	$17                     ; 0x2017 <main+0x37b>
    1e34: a5 1b        	lda	$1b                     ; 0x201b <main+0x37f>
    1e36: 92 16        	sta	($16)                   ; 0x2016 <main+0x37a>
    1e38: a0 01        	ldy	#$1
    1e3a: a5 1a        	lda	$1a                     ; 0x201a <main+0x37e>
    1e3c: 91 16        	sta	($16),y                 ; 0x2016 <main+0x37a>
    1e3e: c8           	iny
    1e3f: a5 19        	lda	$19                     ; 0x2019 <main+0x37d>
    1e41: 91 16        	sta	($16),y                 ; 0x2016 <main+0x37a>
    1e43: c8           	iny
    1e44: a9 ff        	lda	#$ff
    1e46: 91 16        	sta	($16),y                 ; 0x2016 <main+0x37a>
    1e48: 8e 00 de     	stx	$de00                   ; 0xde00 <__heap_start+0x8610>
    1e4b: 9c 01 de     	stz	$de01                   ; 0xde01 <__heap_start+0x8611>
    1e4e: c8           	iny
    1e4f: 8c 02 de     	sty	$de02                   ; 0xde02 <__heap_start+0x8612>
    1e52: 9c 03 de     	stz	$de03                   ; 0xde03 <__heap_start+0x8613>
    1e55: ad 10 de     	lda	$de10                   ; 0xde10 <__heap_start+0x8620>
    1e58: 85 15        	sta	$15                     ; 0x2015 <main+0x379>
    1e5a: ad 11 de     	lda	$de11                   ; 0xde11 <__heap_start+0x8621>
    1e5d: 85 16        	sta	$16                     ; 0x2016 <main+0x37a>
    1e5f: a9 40        	lda	#$40
    1e61: 18           	clc
    1e62: 65 15        	adc	$15                     ; 0x2015 <main+0x379>
    1e64: a8           	tay
    1e65: a9 d8        	lda	#$d8
    1e67: 65 16        	adc	$16                     ; 0x2016 <main+0x37a>
    1e69: 85 17        	sta	$17                     ; 0x2017 <main+0x37b>
    1e6b: 84 16        	sty	$16                     ; 0x2016 <main+0x37a>
    1e6d: ad 12 de     	lda	$de12                   ; 0xde12 <__heap_start+0x8622>
    1e70: ad 13 de     	lda	$de13                   ; 0xde13 <__heap_start+0x8623>
    1e73: a5 1b        	lda	$1b                     ; 0x201b <main+0x37f>
    1e75: 92 16        	sta	($16)                   ; 0x2016 <main+0x37a>
    1e77: a5 1a        	lda	$1a                     ; 0x201a <main+0x37e>
    1e79: a0 01        	ldy	#$1
    1e7b: 91 16        	sta	($16),y                 ; 0x2016 <main+0x37a>
    1e7d: a5 19        	lda	$19                     ; 0x2019 <main+0x37d>
    1e7f: c8           	iny
    1e80: 91 16        	sta	($16),y                 ; 0x2016 <main+0x37a>
    1e82: c8           	iny
    1e83: a9 ff        	lda	#$ff
    1e85: 91 16        	sta	($16),y                 ; 0x2016 <main+0x37a>
    1e87: e8           	inx
    1e88: 86 15        	stx	$15                     ; 0x2015 <main+0x379>
    1e8a: 18           	clc
    1e8b: a5 18        	lda	$18                     ; 0x2018 <main+0x37c>
    1e8d: 69 03        	adc	#$3
    1e8f: aa           	tax
    1e90: c9 30        	cmp	#$30
    1e92: f0 03        	beq	$1e97 <main+0x1fb>
    1e94: 4c f4 1d     	jmp	$1df4 <main+0x158>
    1e97: a6 01        	ldx	$1                      ; 0x2001 <main+0x365>
    1e99: 86 18        	stx	$18                     ; 0x2018 <main+0x37c>
    1e9b: a2 50        	ldx	#$50
    1e9d: 8e 00 de     	stx	$de00                   ; 0xde00 <__heap_start+0x8610>
    1ea0: 9c 01 de     	stz	$de01                   ; 0xde01 <__heap_start+0x8611>
    1ea3: a2 1e        	ldx	#$1e
    1ea5: 8e 02 de     	stx	$de02                   ; 0xde02 <__heap_start+0x8612>
    1ea8: 9c 03 de     	stz	$de03                   ; 0xde03 <__heap_start+0x8613>
    1eab: ae 10 de     	ldx	$de10                   ; 0xde10 <__heap_start+0x8620>
    1eae: ac 11 de     	ldy	$de11                   ; 0xde11 <__heap_start+0x8621>
    1eb1: ad 12 de     	lda	$de12                   ; 0xde12 <__heap_start+0x8622>
    1eb4: ad 13 de     	lda	$de13                   ; 0xde13 <__heap_start+0x8623>
    1eb7: a9 02        	lda	#$2
    1eb9: 85 01        	sta	$1                      ; 0x2001 <main+0x365>
    1ebb: e0 01        	cpx	#$1
    1ebd: 98           	tya
    1ebe: e9 00        	sbc	#$0
    1ec0: 50 02        	bvc	$1ec4 <main+0x228>
    1ec2: 49 80        	eor	#$80
    1ec4: c9 00        	cmp	#$0
    1ec6: 10 03        	bpl	$1ecb <main+0x22f>
    1ec8: 4c 1f 1f     	jmp	$1f1f <main+0x283>
    1ecb: a9 20        	lda	#$20
    1ecd: 86 19        	stx	$19                     ; 0x2019 <main+0x37d>
    1ecf: 86 14        	stx	$14                     ; 0x2014 <main+0x378>
    1ed1: 84 15        	sty	$15                     ; 0x2015 <main+0x379>
    1ed3: a2 00        	ldx	#$0
    1ed5: 86 16        	stx	$16                     ; 0x2016 <main+0x37a>
    1ed7: a2 c0        	ldx	#$c0
    1ed9: 86 17        	stx	$17                     ; 0x2017 <main+0x37b>
    1edb: 80 04        	bra	$1ee1 <main+0x245>
    1edd: a6 15        	ldx	$15                     ; 0x2015 <main+0x379>
    1edf: f0 14        	beq	$1ef5 <main+0x259>
    1ee1: 92 16        	sta	($16)                   ; 0x2016 <main+0x37a>
    1ee3: e6 16        	inc	$16                     ; 0x2016 <main+0x37a>
    1ee5: d0 02        	bne	$1ee9 <main+0x24d>
    1ee7: e6 17        	inc	$17                     ; 0x2017 <main+0x37b>
    1ee9: a2 ff        	ldx	#$ff
    1eeb: c6 14        	dec	$14                     ; 0x2014 <main+0x378>
    1eed: e4 14        	cpx	$14                     ; 0x2014 <main+0x378>
    1eef: d0 ec        	bne	$1edd <main+0x241>
    1ef1: c6 15        	dec	$15                     ; 0x2015 <main+0x379>
    1ef3: 80 e8        	bra	$1edd <main+0x241>
    1ef5: a6 14        	ldx	$14                     ; 0x2014 <main+0x378>
    1ef7: d0 e8        	bne	$1ee1 <main+0x245>
    1ef9: a2 03        	ldx	#$3
    1efb: 86 01        	stx	$1                      ; 0x2001 <main+0x365>
    1efd: a6 33        	ldx	$33                     ; 0x2033 <main+0x397>
    1eff: 86 14        	stx	$14                     ; 0x2014 <main+0x378>
    1f01: a6 19        	ldx	$19                     ; 0x2019 <main+0x37d>
    1f03: 80 03        	bra	$1f08 <main+0x26c>
    1f05: 98           	tya
    1f06: f0 12        	beq	$1f1a <main+0x27e>
    1f08: a5 14        	lda	$14                     ; 0x2014 <main+0x378>
    1f0a: 92 12        	sta	($12)                   ; 0x2012 <main+0x376>
    1f0c: e6 12        	inc	$12                     ; 0x2012 <main+0x376>
    1f0e: d0 02        	bne	$1f12 <main+0x276>
    1f10: e6 13        	inc	$13                     ; 0x2013 <main+0x377>
    1f12: ca           	dex
    1f13: e0 ff        	cpx	#$ff
    1f15: d0 ee        	bne	$1f05 <main+0x269>
    1f17: 88           	dey
    1f18: 80 eb        	bra	$1f05 <main+0x269>
    1f1a: 8a           	txa
    1f1b: d0 eb        	bne	$1f08 <main+0x26c>
    1f1d: 80 04        	bra	$1f23 <main+0x287>
    1f1f: a2 03        	ldx	#$3
    1f21: 86 01        	stx	$1                      ; 0x2001 <main+0x365>
    1f23: a6 18        	ldx	$18                     ; 0x2018 <main+0x37c>
    1f25: 86 01        	stx	$1                      ; 0x2001 <main+0x365>
    1f27: 64 3c        	stz	$3c                     ; 0x203c <main+0x3a0>
    1f29: 9c 14 d0     	stz	$d014                   ; 0xd014 <__heap_start+0x7824>
    1f2c: 9c 15 d0     	stz	$d015                   ; 0xd015 <__heap_start+0x7825>
    1f2f: 64 3d        	stz	$3d                     ; 0x203d <main+0x3a1>
    1f31: 9c 16 d0     	stz	$d016                   ; 0xd016 <__heap_start+0x7826>
    1f34: 9c 17 d0     	stz	$d017                   ; 0xd017 <__heap_start+0x7827>
    1f37: a2 40        	ldx	#$40
    1f39: 8e 00 de     	stx	$de00                   ; 0xde00 <__heap_start+0x8610>
    1f3c: a2 01        	ldx	#$1
    1f3e: 8e 01 de     	stx	$de01                   ; 0xde01 <__heap_start+0x8611>
    1f41: a2 f0        	ldx	#$f0
    1f43: 8e 02 de     	stx	$de02                   ; 0xde02 <__heap_start+0x8612>
    1f46: 9c 03 de     	stz	$de03                   ; 0xde03 <__heap_start+0x8613>
    1f49: ae 10 de     	ldx	$de10                   ; 0xde10 <__heap_start+0x8620>
    1f4c: 86 17        	stx	$17                     ; 0x2017 <main+0x37b>
    1f4e: ae 11 de     	ldx	$de11                   ; 0xde11 <__heap_start+0x8621>
    1f51: 86 12        	stx	$12                     ; 0x2012 <main+0x376>
    1f53: ae 12 de     	ldx	$de12                   ; 0xde12 <__heap_start+0x8622>
    1f56: 86 13        	stx	$13                     ; 0x2013 <main+0x377>
    1f58: ae 13 de     	ldx	$de13                   ; 0xde13 <__heap_start+0x8623>
    1f5b: 86 14        	stx	$14                     ; 0x2014 <main+0x378>
    1f5d: a4 12        	ldy	$12                     ; 0x2012 <main+0x376>
    1f5f: 84 15        	sty	$15                     ; 0x2015 <main+0x379>
    1f61: 06 15        	asl	$15                     ; 0x2015 <main+0x379>
    1f63: a5 13        	lda	$13                     ; 0x2013 <main+0x377>
    1f65: 2a           	rol
    1f66: 86 16        	stx	$16                     ; 0x2016 <main+0x37a>
    1f68: 26 16        	rol	$16                     ; 0x2016 <main+0x37a>
    1f6a: 06 15        	asl	$15                     ; 0x2015 <main+0x379>
    1f6c: 2a           	rol
    1f6d: 26 16        	rol	$16                     ; 0x2016 <main+0x37a>
    1f6f: 06 15        	asl	$15                     ; 0x2015 <main+0x379>
    1f71: 2a           	rol
    1f72: 26 16        	rol	$16                     ; 0x2016 <main+0x37a>
    1f74: 85 15        	sta	$15                     ; 0x2015 <main+0x379>
    1f76: 8d 00 de     	sta	$de00                   ; 0xde00 <__heap_start+0x8610>
    1f79: a5 16        	lda	$16                     ; 0x2016 <main+0x37a>
    1f7b: 8d 01 de     	sta	$de01                   ; 0xde01 <__heap_start+0x8611>
    1f7e: 9c 02 de     	stz	$de02                   ; 0xde02 <__heap_start+0x8612>
    1f81: a2 20        	ldx	#$20
    1f83: 8e 03 de     	stx	$de03                   ; 0xde03 <__heap_start+0x8613>
    1f86: ae 10 de     	ldx	$de10                   ; 0xde10 <__heap_start+0x8620>
    1f89: 86 16        	stx	$16                     ; 0x2016 <main+0x37a>
    1f8b: ae 11 de     	ldx	$de11                   ; 0xde11 <__heap_start+0x8621>
    1f8e: 86 18        	stx	$18                     ; 0x2018 <main+0x37c>
    1f90: ac 12 de     	ldy	$de12                   ; 0xde12 <__heap_start+0x8622>
    1f93: ae 13 de     	ldx	$de13                   ; 0xde13 <__heap_start+0x8623>
    1f96: e4 14        	cpx	$14                     ; 0x2014 <main+0x378>
    1f98: d0 14        	bne	$1fae <main+0x312>
    1f9a: c4 13        	cpy	$13                     ; 0x2013 <main+0x377>
    1f9c: d0 10        	bne	$1fae <main+0x312>
    1f9e: a6 18        	ldx	$18                     ; 0x2018 <main+0x37c>
    1fa0: e4 12        	cpx	$12                     ; 0x2012 <main+0x376>
    1fa2: d0 0a        	bne	$1fae <main+0x312>
    1fa4: a6 16        	ldx	$16                     ; 0x2016 <main+0x37a>
    1fa6: e4 17        	cpx	$17                     ; 0x2017 <main+0x37b>
    1fa8: d0 04        	bne	$1fae <main+0x312>
    1faa: a6 15        	ldx	$15                     ; 0x2015 <main+0x379>
    1fac: 80 06        	bra	$1fb4 <main+0x318>
    1fae: a6 15        	ldx	$15                     ; 0x2015 <main+0x379>
    1fb0: e8           	inx
    1fb1: d0 01        	bne	$1fb4 <main+0x318>
    1fb3: 1a           	inc
    1fb4: 8e 00 de     	stx	$de00                   ; 0xde00 <__heap_start+0x8610>
    1fb7: 8d 01 de     	sta	$de01                   ; 0xde01 <__heap_start+0x8611>
    1fba: 9c 02 de     	stz	$de02                   ; 0xde02 <__heap_start+0x8612>
    1fbd: a2 20        	ldx	#$20
    1fbf: 8e 03 de     	stx	$de03                   ; 0xde03 <__heap_start+0x8613>
    1fc2: ae 10 de     	ldx	$de10                   ; 0xde10 <__heap_start+0x8620>
    1fc5: 86 12        	stx	$12                     ; 0x2012 <main+0x376>
    1fc7: ae 11 de     	ldx	$de11                   ; 0xde11 <__heap_start+0x8621>
    1fca: 86 13        	stx	$13                     ; 0x2013 <main+0x377>
    1fcc: ae 12 de     	ldx	$de12                   ; 0xde12 <__heap_start+0x8622>
    1fcf: 86 14        	stx	$14                     ; 0x2014 <main+0x378>
    1fd1: a9 00        	lda	#$0
    1fd3: 38           	sec
    1fd4: e5 12        	sbc	$12                     ; 0x2012 <main+0x376>
    1fd6: a8           	tay
    1fd7: a9 00        	lda	#$0
    1fd9: e5 13        	sbc	$13                     ; 0x2013 <main+0x377>
    1fdb: 85 15        	sta	$15                     ; 0x2015 <main+0x379>
    1fdd: a9 08        	lda	#$8
    1fdf: e5 14        	sbc	$14                     ; 0x2014 <main+0x378>
    1fe1: aa           	tax
    1fe2: 98           	tya
    1fe3: 84 17        	sty	$17                     ; 0x2017 <main+0x37b>
    1fe5: 38           	sec
    1fe6: e5 12        	sbc	$12                     ; 0x2012 <main+0x376>
    1fe8: 85 16        	sta	$16                     ; 0x2016 <main+0x37a>
    1fea: a5 15        	lda	$15                     ; 0x2015 <main+0x379>
    1fec: e5 13        	sbc	$13                     ; 0x2013 <main+0x377>
    1fee: 85 18        	sta	$18                     ; 0x2018 <main+0x37c>
    1ff0: 8a           	txa
    1ff1: 86 19        	stx	$19                     ; 0x2019 <main+0x37d>
    1ff3: e5 14        	sbc	$14                     ; 0x2014 <main+0x378>
    1ff5: a8           	tay
    1ff6: 38           	sec
    1ff7: a5 16        	lda	$16                     ; 0x2016 <main+0x37a>
    1ff9: e5 12        	sbc	$12                     ; 0x2012 <main+0x376>
    1ffb: 85 12        	sta	$12                     ; 0x2012 <main+0x376>
    1ffd: a5 18        	lda	$18                     ; 0x2018 <main+0x37c>
    1fff: e5 13        	sbc	$13                     ; 0x2013 <main+0x377>
    2001: 85 13        	sta	$13                     ; 0x2013 <main+0x377>
    2003: 98           	tya
    2004: e5 14        	sbc	$14                     ; 0x2014 <main+0x378>
    2006: ae 13 de     	ldx	$de13                   ; 0xde13 <__heap_start+0x8623>
    2009: a6 17        	ldx	$17                     ; 0x2017 <main+0x37b>
    200b: 8e 01 d1     	stx	$d101                   ; 0xd101 <__heap_start+0x7911>
    200e: a6 15        	ldx	$15                     ; 0x2015 <main+0x379>
    2010: 8e 02 d1     	stx	$d102                   ; 0xd102 <__heap_start+0x7912>
    2013: a6 19        	ldx	$19                     ; 0x2019 <main+0x37d>
    2015: 8e 03 d1     	stx	$d103                   ; 0xd103 <__heap_start+0x7913>
    2018: a6 16        	ldx	$16                     ; 0x2016 <main+0x37a>
    201a: 8e 09 d1     	stx	$d109                   ; 0xd109 <__heap_start+0x7919>
    201d: a6 18        	ldx	$18                     ; 0x2018 <main+0x37c>
    201f: 8e 0a d1     	stx	$d10a                   ; 0xd10a <__heap_start+0x791a>
    2022: 8c 0b d1     	sty	$d10b                   ; 0xd10b <__heap_start+0x791b>
    2025: a6 12        	ldx	$12                     ; 0x2012 <main+0x376>
    2027: 8e 11 d1     	stx	$d111                   ; 0xd111 <__heap_start+0x7921>
    202a: a6 13        	ldx	$13                     ; 0x2013 <main+0x377>
    202c: 8e 12 d1     	stx	$d112                   ; 0xd112 <__heap_start+0x7922>
    202f: 8d 13 d1     	sta	$d113                   ; 0xd113 <__heap_start+0x7923>
    2032: 9c 00 d1     	stz	$d100                   ; 0xd100 <__heap_start+0x7910>
    2035: 9c 08 d1     	stz	$d108                   ; 0xd108 <__heap_start+0x7918>
    2038: 9c 10 d1     	stz	$d110                   ; 0xd110 <__heap_start+0x7920>
    203b: a2 10        	ldx	#$10
    203d: 8e 00 d2     	stx	$d200                   ; 0xd200 <__heap_start+0x7a10>
    2040: 8e 0c d2     	stx	$d20c                   ; 0xd20c <__heap_start+0x7a1c>
    2043: 8e 18 d2     	stx	$d218                   ; 0xd218 <__heap_start+0x7a28>
    2046: a0 d9        	ldy	#$d9
    2048: a2 40        	ldx	#$40
    204a: 64 12        	stz	$12                     ; 0x2012 <main+0x376>
    204c: 84 13        	sty	$13                     ; 0x2013 <main+0x377>
    204e: a9 00        	lda	#$0
    2050: 92 12        	sta	($12)                   ; 0x2012 <main+0x376>
    2052: ca           	dex
    2053: 18           	clc
    2054: a5 12        	lda	$12                     ; 0x2012 <main+0x376>
    2056: 69 08        	adc	#$8
    2058: 85 12        	sta	$12                     ; 0x2012 <main+0x376>
    205a: 98           	tya
    205b: 69 00        	adc	#$0
    205d: a8           	tay
    205e: 8a           	txa
    205f: d0 eb        	bne	$204c <main+0x3b0>
    2061: 64 3e        	stz	$3e                     ; 0x203e <main+0x3a2>
    2063: 64 3f        	stz	$3f                     ; 0x203f <main+0x3a3>
    2065: 64 40        	stz	$40                     ; 0x2040 <main+0x3a4>
    2067: 64 41        	stz	$41                     ; 0x2041 <main+0x3a5>
    2069: 64 42        	stz	$42                     ; 0x2042 <main+0x3a6>
    206b: 64 43        	stz	$43                     ; 0x2043 <main+0x3a7>
    206d: 64 44        	stz	$44                     ; 0x2044 <main+0x3a8>
    206f: 64 45        	stz	$45                     ; 0x2045 <main+0x3a9>
    2071: 18           	clc
    2072: a5 10        	lda	$10                     ; 0x2010 <main+0x374>
    2074: 69 0c        	adc	#$c
    2076: 85 24        	sta	$24                     ; 0x2024 <main+0x388>
    2078: a5 11        	lda	$11                     ; 0x2011 <main+0x375>
    207a: 69 00        	adc	#$0
    207c: 85 25        	sta	$25                     ; 0x2025 <main+0x389>
    207e: a6 24        	ldx	$24                     ; 0x2024 <main+0x388>
    2080: 86 fb        	stx	$fb                     ; 0x20fb <main+0x45f>
    2082: 85 fc        	sta	$fc                     ; 0x20fc <main+0x460>
    2084: a2 08        	ldx	#$8
    2086: 86 fd        	stx	$fd                     ; 0x20fd <main+0x461>
    2088: 18           	clc
    2089: a5 10        	lda	$10                     ; 0x2010 <main+0x374>
    208b: 69 84        	adc	#$84
    208d: 85 28        	sta	$28                     ; 0x2028 <main+0x38c>
    208f: a5 11        	lda	$11                     ; 0x2011 <main+0x375>
    2091: 69 00        	adc	#$0
    2093: 85 29        	sta	$29                     ; 0x2029 <main+0x38d>
    2095: a2 3b        	ldx	#$3b
    2097: 86 26        	stx	$26                     ; 0x2026 <main+0x38a>
    2099: a2 00        	ldx	#$0
    209b: 86 27        	stx	$27                     ; 0x2027 <main+0x38b>
    209d: a0 06        	ldy	#$6
    209f: 20 dc ff     	jsr	$ffdc <__heap_start+0xa7ec>
    20a2: 92 28        	sta	($28)                   ; 0x2028 <main+0x38c>
    20a4: a9 00        	lda	#$0
    20a6: 6a           	ror
    20a7: 85 26        	sta	$26                     ; 0x2026 <main+0x38a>
    20a9: b1 24        	lda	($24),y                 ; 0x2024 <main+0x388>
    20ab: 85 12        	sta	$12                     ; 0x2012 <main+0x376>
    20ad: c8           	iny
    20ae: b1 24        	lda	($24),y                 ; 0x2024 <main+0x388>
    20b0: a6 12        	ldx	$12                     ; 0x2012 <main+0x376>
    20b2: 8e 00 de     	stx	$de00                   ; 0xde00 <__heap_start+0x8610>
    20b5: 9c 01 de     	stz	$de01                   ; 0xde01 <__heap_start+0x8611>
    20b8: 8d 02 de     	sta	$de02                   ; 0xde02 <__heap_start+0x8612>
    20bb: 9c 03 de     	stz	$de03                   ; 0xde03 <__heap_start+0x8613>
    20be: ae 10 de     	ldx	$de10                   ; 0xde10 <__heap_start+0x8620>
    20c1: ac 11 de     	ldy	$de11                   ; 0xde11 <__heap_start+0x8621>
    20c4: ad 12 de     	lda	$de12                   ; 0xde12 <__heap_start+0x8622>
    20c7: ad 13 de     	lda	$de13                   ; 0xde13 <__heap_start+0x8623>
    20ca: 8e a4 d6     	stx	$d6a4                   ; 0xd6a4 <__heap_start+0x7eb4>
    20cd: 8c a5 d6     	sty	$d6a5                   ; 0xd6a5 <__heap_start+0x7eb5>
    20d0: a2 03        	ldx	#$3
    20d2: 8e a6 d6     	stx	$d6a6                   ; 0xd6a6 <__heap_start+0x7eb6>
    20d5: a6 fa        	ldx	$fa                     ; 0x20fa <main+0x45e>
    20d7: 86 2c        	stx	$2c                     ; 0x202c <main+0x390>
    20d9: a6 f8        	ldx	$f8                     ; 0x20f8 <main+0x45c>
    20db: 86 2a        	stx	$2a                     ; 0x202a <main+0x38e>
    20dd: a6 f9        	ldx	$f9                     ; 0x20f9 <main+0x45d>
    20df: 86 2b        	stx	$2b                     ; 0x202b <main+0x38f>
    20e1: a2 00        	ldx	#$0
    20e3: 64 01        	stz	$1                      ; 0x2001 <main+0x365>
    20e5: a0 0f        	ldy	#$f
    20e7: 8c 00 d0     	sty	$d000                   ; 0xd000 <__heap_start+0x7810>
    20ea: a0 14        	ldy	#$14
    20ec: 8c 01 d0     	sty	$d001                   ; 0xd001 <__heap_start+0x7811>
    20ef: a0 10        	ldy	#$10
    20f1: 8c 02 d0     	sty	$d002                   ; 0xd002 <__heap_start+0x7812>
    20f4: 9c 0d d0     	stz	$d00d                   ; 0xd00d <__heap_start+0x781d>
    20f7: 9c 0e d0     	stz	$d00e                   ; 0xd00e <__heap_start+0x781e>
    20fa: 9c 0f d0     	stz	$d00f                   ; 0xd00f <__heap_start+0x781f>
    20fd: ad a1 d6     	lda	$d6a1                   ; 0xd6a1 <__heap_start+0x7eb1>
    2100: 29 f7        	and	#$f7
    2102: 8d a1 d6     	sta	$d6a1                   ; 0xd6a1 <__heap_start+0x7eb1>
    2105: a0 f3        	ldy	#$f3
    2107: 84 12        	sty	$12                     ; 0x2012 <main+0x376>
    2109: a0 45        	ldy	#$45
    210b: 84 13        	sty	$13                     ; 0x2013 <main+0x377>
    210d: a0 da        	ldy	#$da
    210f: 84 14        	sty	$14                     ; 0x2014 <main+0x378>
    2111: a0 43        	ldy	#$43
    2113: 84 15        	sty	$15                     ; 0x2015 <main+0x379>
    2115: a9 20        	lda	#$20
    2117: 20 7d 41     	jsr	$417d <memcpy>
    211a: a6 2c        	ldx	$2c                     ; 0x202c <main+0x390>
    211c: e0 04        	cpx	#$4
    211e: b0 03        	bcs	$2123 <main+0x487>
    2120: 4c c0 21     	jmp	$21c0 <main+0x524>
    2123: a5 2a        	lda	$2a                     ; 0x202a <main+0x38e>
    2125: 85 12        	sta	$12                     ; 0x2012 <main+0x376>
    2127: a6 2b        	ldx	$2b                     ; 0x202b <main+0x38f>
    2129: 86 13        	stx	$13                     ; 0x2013 <main+0x377>
    212b: a0 02        	ldy	#$2
    212d: 18           	clc
    212e: 69 02        	adc	#$2
    2130: 85 14        	sta	$14                     ; 0x2014 <main+0x378>
    2132: a5 2b        	lda	$2b                     ; 0x202b <main+0x38f>
    2134: 69 00        	adc	#$0
    2136: 85 15        	sta	$15                     ; 0x2015 <main+0x379>
    2138: b1 12        	lda	($12),y                 ; 0x2012 <main+0x376>
    213a: 85 12        	sta	$12                     ; 0x2012 <main+0x376>
    213c: 88           	dey
    213d: b1 14        	lda	($14),y                 ; 0x2014 <main+0x378>
    213f: 85 13        	sta	$13                     ; 0x2013 <main+0x377>
    2141: b2 12        	lda	($12)                   ; 0x2012 <main+0x376>
    2143: d0 03        	bne	$2148 <main+0x4ac>
    2145: 4c 29 22     	jmp	$2229 <main+0x58d>
    2148: c9 2d        	cmp	#$2d
    214a: f0 03        	beq	$214f <main+0x4b3>
    214c: 4c 2c 22     	jmp	$222c <main+0x590>
    214f: a2 80        	ldx	#$80
    2151: 86 f3        	stx	$f3                     ; 0x20f3 <main+0x457>
    2153: a2 3b        	ldx	#$3b
    2155: 86 12        	stx	$12                     ; 0x2012 <main+0x376>
    2157: a2 00        	ldx	#$0
    2159: 86 13        	stx	$13                     ; 0x2013 <main+0x377>
    215b: 20 f0 ff     	jsr	$fff0 <__heap_start+0xa800>
    215e: 92 24        	sta	($24)                   ; 0x2024 <main+0x388>
    2160: a9 00        	lda	#$0
    2162: 6a           	ror
    2163: 85 12        	sta	$12                     ; 0x2012 <main+0x376>
    2165: b2 24        	lda	($24)                   ; 0x2024 <main+0x388>
    2167: 1a           	inc
    2168: 64 f3        	stz	$f3                     ; 0x20f3 <main+0x457>
    216a: 85 f4        	sta	$f4                     ; 0x20f4 <main+0x458>
    216c: a2 d5        	ldx	#$d5
    216e: 86 f5        	stx	$f5                     ; 0x20f5 <main+0x459>
    2170: 20 f0 ff     	jsr	$fff0 <__heap_start+0xa800>
    2173: 92 24        	sta	($24)                   ; 0x2024 <main+0x388>
    2175: a9 00        	lda	#$0
    2177: 6a           	ror
    2178: 85 12        	sta	$12                     ; 0x2012 <main+0x376>
    217a: 64 34        	stz	$34                     ; 0x2034 <main+0x398>
    217c: 20 00 ff     	jsr	$ff00 <__heap_start+0xa710>
    217f: 92 24        	sta	($24)                   ; 0x2024 <main+0x388>
    2181: a9 00        	lda	#$0
    2183: 6a           	ror
    2184: 85 12        	sta	$12                     ; 0x2012 <main+0x376>
    2186: a6 34        	ldx	$34                     ; 0x2034 <main+0x398>
    2188: e0 52        	cpx	#$52
    218a: d0 ee        	bne	$217a <main+0x4de>
    218c: a6 38        	ldx	$38                     ; 0x2038 <main+0x39c>
    218e: e0 d5        	cpx	#$d5
    2190: d0 e8        	bne	$217a <main+0x4de>
    2192: a2 d4        	ldx	#$d4
    2194: a0 00        	ldy	#$0
    2196: 98           	tya
    2197: 18           	clc
    2198: 69 00        	adc	#$0
    219a: 85 14        	sta	$14                     ; 0x2014 <main+0x378>
    219c: 8a           	txa
    219d: 69 01        	adc	#$1
    219f: 85 15        	sta	$15                     ; 0x2015 <main+0x379>
    21a1: 84 12        	sty	$12                     ; 0x2012 <main+0x376>
    21a3: 86 13        	stx	$13                     ; 0x2013 <main+0x377>
    21a5: a9 00        	lda	#$0
    21a7: 92 12        	sta	($12)                   ; 0x2012 <main+0x376>
    21a9: 5a           	phy
    21aa: a4 14        	ldy	$14                     ; 0x2014 <main+0x378>
    21ac: 84 12        	sty	$12                     ; 0x2012 <main+0x376>
    21ae: a4 15        	ldy	$15                     ; 0x2015 <main+0x379>
    21b0: 84 13        	sty	$13                     ; 0x2013 <main+0x377>
    21b2: 7a           	ply
    21b3: 92 12        	sta	($12)                   ; 0x2012 <main+0x376>
    21b5: c8           	iny
    21b6: d0 01        	bne	$21b9 <main+0x51d>
    21b8: e8           	inx
    21b9: c0 19        	cpy	#$19
    21bb: d0 d9        	bne	$2196 <main+0x4fa>
    21bd: 4c 36 23     	jmp	$2336 <main+0x69a>
    21c0: a2 80        	ldx	#$80
    21c2: 86 f3        	stx	$f3                     ; 0x20f3 <main+0x457>
    21c4: 20 f0 ff     	jsr	$fff0 <__heap_start+0xa800>
    21c7: 92 24        	sta	($24)                   ; 0x2024 <main+0x388>
    21c9: a9 00        	lda	#$0
    21cb: 6a           	ror
    21cc: 85 26        	sta	$26                     ; 0x2026 <main+0x38a>
    21ce: b2 24        	lda	($24)                   ; 0x2024 <main+0x388>
    21d0: 1a           	inc
    21d1: 64 f3        	stz	$f3                     ; 0x20f3 <main+0x457>
    21d3: 85 f4        	sta	$f4                     ; 0x20f4 <main+0x458>
    21d5: a2 d5        	ldx	#$d5
    21d7: 86 f5        	stx	$f5                     ; 0x20f5 <main+0x459>
    21d9: 20 f0 ff     	jsr	$fff0 <__heap_start+0xa800>
    21dc: 92 24        	sta	($24)                   ; 0x2024 <main+0x388>
    21de: a9 00        	lda	#$0
    21e0: 6a           	ror
    21e1: 85 26        	sta	$26                     ; 0x2026 <main+0x38a>
    21e3: 64 34        	stz	$34                     ; 0x2034 <main+0x398>
    21e5: 20 00 ff     	jsr	$ff00 <__heap_start+0xa710>
    21e8: 92 24        	sta	($24)                   ; 0x2024 <main+0x388>
    21ea: a9 00        	lda	#$0
    21ec: 6a           	ror
    21ed: 85 26        	sta	$26                     ; 0x2026 <main+0x38a>
    21ef: a6 34        	ldx	$34                     ; 0x2034 <main+0x398>
    21f1: e0 52        	cpx	#$52
    21f3: d0 ee        	bne	$21e3 <main+0x547>
    21f5: a6 38        	ldx	$38                     ; 0x2038 <main+0x39c>
    21f7: e0 d5        	cpx	#$d5
    21f9: d0 e8        	bne	$21e3 <main+0x547>
    21fb: a2 d4        	ldx	#$d4
    21fd: a0 00        	ldy	#$0
    21ff: 18           	clc
    2200: 98           	tya
    2201: 69 00        	adc	#$0
    2203: 85 14        	sta	$14                     ; 0x2014 <main+0x378>
    2205: 8a           	txa
    2206: 69 01        	adc	#$1
    2208: 85 15        	sta	$15                     ; 0x2015 <main+0x379>
    220a: 84 12        	sty	$12                     ; 0x2012 <main+0x376>
    220c: 86 13        	stx	$13                     ; 0x2013 <main+0x377>
    220e: a9 00        	lda	#$0
    2210: 92 12        	sta	($12)                   ; 0x2012 <main+0x376>
    2212: 5a           	phy
    2213: a4 14        	ldy	$14                     ; 0x2014 <main+0x378>
    2215: 84 12        	sty	$12                     ; 0x2012 <main+0x376>
    2217: a4 15        	ldy	$15                     ; 0x2015 <main+0x379>
    2219: 84 13        	sty	$13                     ; 0x2013 <main+0x377>
    221b: 7a           	ply
    221c: 92 12        	sta	($12)                   ; 0x2012 <main+0x376>
    221e: c8           	iny
    221f: d0 01        	bne	$2222 <main+0x586>
    2221: e8           	inx
    2222: c0 19        	cpy	#$19
    2224: d0 d9        	bne	$21ff <main+0x563>
    2226: 4c 36 23     	jmp	$2336 <main+0x69a>
    2229: a8           	tay
    222a: 80 12        	bra	$223e <main+0x5a2>
    222c: a2 01        	ldx	#$1
    222e: 86 14        	stx	$14                     ; 0x2014 <main+0x378>
    2230: a4 14        	ldy	$14                     ; 0x2014 <main+0x378>
    2232: 88           	dey
    2233: 91 24        	sta	($24),y                 ; 0x2024 <main+0x388>
    2235: a4 14        	ldy	$14                     ; 0x2014 <main+0x378>
    2237: b1 12        	lda	($12),y                 ; 0x2012 <main+0x376>
    2239: e8           	inx
    223a: c9 00        	cmp	#$0
    223c: d0 f0        	bne	$222e <main+0x592>
    223e: a9 00        	lda	#$0
    2240: 91 24        	sta	($24),y                 ; 0x2024 <main+0x388>
    2242: b2 24        	lda	($24)                   ; 0x2024 <main+0x388>
    2244: aa           	tax
    2245: b2 24        	lda	($24)                   ; 0x2024 <main+0x388>
    2247: 8d 78 45     	sta	$4578                   ; 0x4578 <name>
    224a: 8a           	txa
    224b: f0 38        	beq	$2285 <main+0x5e9>
    224d: a2 79        	ldx	#$79
    224f: 86 12        	stx	$12                     ; 0x2012 <main+0x376>
    2251: a2 45        	ldx	#$45
    2253: 86 13        	stx	$13                     ; 0x2013 <main+0x377>
    2255: a0 01        	ldy	#$1
    2257: a6 24        	ldx	$24                     ; 0x2024 <main+0x388>
    2259: 86 16        	stx	$16                     ; 0x2016 <main+0x37a>
    225b: a6 25        	ldx	$25                     ; 0x2025 <main+0x389>
    225d: 86 17        	stx	$17                     ; 0x2017 <main+0x37b>
    225f: a6 24        	ldx	$24                     ; 0x2024 <main+0x388>
    2261: 86 14        	stx	$14                     ; 0x2014 <main+0x378>
    2263: a6 25        	ldx	$25                     ; 0x2025 <main+0x389>
    2265: 86 15        	stx	$15                     ; 0x2015 <main+0x379>
    2267: e6 14        	inc	$14                     ; 0x2014 <main+0x378>
    2269: d0 02        	bne	$226d <main+0x5d1>
    226b: e6 15        	inc	$15                     ; 0x2015 <main+0x379>
    226d: b1 16        	lda	($16),y                 ; 0x2016 <main+0x37a>
    226f: aa           	tax
    2270: b1 16        	lda	($16),y                 ; 0x2016 <main+0x37a>
    2272: 92 12        	sta	($12)                   ; 0x2012 <main+0x376>
    2274: e6 12        	inc	$12                     ; 0x2012 <main+0x376>
    2276: d0 02        	bne	$227a <main+0x5de>
    2278: e6 13        	inc	$13                     ; 0x2013 <main+0x377>
    227a: a5 14        	lda	$14                     ; 0x2014 <main+0x378>
    227c: 85 16        	sta	$16                     ; 0x2016 <main+0x37a>
    227e: a5 15        	lda	$15                     ; 0x2015 <main+0x379>
    2280: 85 17        	sta	$17                     ; 0x2017 <main+0x37b>
    2282: 8a           	txa
    2283: d0 e2        	bne	$2267 <main+0x5cb>
    2285: a2 80        	ldx	#$80
    2287: 86 f3        	stx	$f3                     ; 0x20f3 <main+0x457>
    2289: a2 3b        	ldx	#$3b
    228b: 86 12        	stx	$12                     ; 0x2012 <main+0x376>
    228d: a2 00        	ldx	#$0
    228f: 86 13        	stx	$13                     ; 0x2013 <main+0x377>
    2291: 20 f0 ff     	jsr	$fff0 <__heap_start+0xa800>
    2294: 92 24        	sta	($24)                   ; 0x2024 <main+0x388>
    2296: a9 00        	lda	#$0
    2298: 6a           	ror
    2299: 85 12        	sta	$12                     ; 0x2012 <main+0x376>
    229b: b2 24        	lda	($24)                   ; 0x2024 <main+0x388>
    229d: 1a           	inc
    229e: 64 f3        	stz	$f3                     ; 0x20f3 <main+0x457>
    22a0: 85 f4        	sta	$f4                     ; 0x20f4 <main+0x458>
    22a2: a2 d5        	ldx	#$d5
    22a4: 86 f5        	stx	$f5                     ; 0x20f5 <main+0x459>
    22a6: 20 f0 ff     	jsr	$fff0 <__heap_start+0xa800>
    22a9: 92 24        	sta	($24)                   ; 0x2024 <main+0x388>
    22ab: a9 00        	lda	#$0
    22ad: 6a           	ror
    22ae: 85 12        	sta	$12                     ; 0x2012 <main+0x376>
    22b0: 64 34        	stz	$34                     ; 0x2034 <main+0x398>
    22b2: 20 00 ff     	jsr	$ff00 <__heap_start+0xa710>
    22b5: 92 24        	sta	($24)                   ; 0x2024 <main+0x388>
    22b7: a9 00        	lda	#$0
    22b9: 6a           	ror
    22ba: 85 12        	sta	$12                     ; 0x2012 <main+0x376>
    22bc: a6 34        	ldx	$34                     ; 0x2034 <main+0x398>
    22be: e0 52        	cpx	#$52
    22c0: d0 ee        	bne	$22b0 <main+0x614>
    22c2: a6 38        	ldx	$38                     ; 0x2038 <main+0x39c>
    22c4: e0 d5        	cpx	#$d5
    22c6: d0 e8        	bne	$22b0 <main+0x614>
    22c8: a2 d4        	ldx	#$d4
    22ca: a0 00        	ldy	#$0
    22cc: 18           	clc
    22cd: 98           	tya
    22ce: 69 00        	adc	#$0
    22d0: 85 14        	sta	$14                     ; 0x2014 <main+0x378>
    22d2: 8a           	txa
    22d3: 69 01        	adc	#$1
    22d5: 85 15        	sta	$15                     ; 0x2015 <main+0x379>
    22d7: 84 12        	sty	$12                     ; 0x2012 <main+0x376>
    22d9: 86 13        	stx	$13                     ; 0x2013 <main+0x377>
    22db: a9 00        	lda	#$0
    22dd: 92 12        	sta	($12)                   ; 0x2012 <main+0x376>
    22df: 5a           	phy
    22e0: a4 14        	ldy	$14                     ; 0x2014 <main+0x378>
    22e2: 84 12        	sty	$12                     ; 0x2012 <main+0x376>
    22e4: a4 15        	ldy	$15                     ; 0x2015 <main+0x379>
    22e6: 84 13        	sty	$13                     ; 0x2013 <main+0x377>
    22e8: 7a           	ply
    22e9: 92 12        	sta	($12)                   ; 0x2012 <main+0x376>
    22eb: c8           	iny
    22ec: d0 01        	bne	$22ef <main+0x653>
    22ee: e8           	inx
    22ef: c0 19        	cpy	#$19
    22f1: d0 d9        	bne	$22cc <main+0x630>
    22f3: a2 d1        	ldx	#$d1
    22f5: 86 33        	stx	$33                     ; 0x2033 <main+0x397>
    22f7: 64 3c        	stz	$3c                     ; 0x203c <main+0x3a0>
    22f9: 9c 14 d0     	stz	$d014                   ; 0xd014 <__heap_start+0x7824>
    22fc: 9c 15 d0     	stz	$d015                   ; 0xd015 <__heap_start+0x7825>
    22ff: 64 3d        	stz	$3d                     ; 0x203d <main+0x3a1>
    2301: 9c 16 d0     	stz	$d016                   ; 0xd016 <__heap_start+0x7826>
    2304: 9c 17 d0     	stz	$d017                   ; 0xd017 <__heap_start+0x7827>
    2307: a2 00        	ldx	#$0
    2309: 86 12        	stx	$12                     ; 0x2012 <main+0x376>
    230b: a2 43        	ldx	#$43
    230d: 86 13        	stx	$13                     ; 0x2013 <main+0x377>
    230f: 20 d5 3a     	jsr	$3ad5 <printf>
    2312: a2 d0        	ldx	#$d0
    2314: 86 33        	stx	$33                     ; 0x2033 <main+0x397>
    2316: 64 3c        	stz	$3c                     ; 0x203c <main+0x3a0>
    2318: 9c 14 d0     	stz	$d014                   ; 0xd014 <__heap_start+0x7824>
    231b: 9c 15 d0     	stz	$d015                   ; 0xd015 <__heap_start+0x7825>
    231e: a2 01        	ldx	#$1
    2320: 86 3d        	stx	$3d                     ; 0x203d <main+0x3a1>
    2322: 8e 16 d0     	stx	$d016                   ; 0xd016 <__heap_start+0x7826>
    2325: 9c 17 d0     	stz	$d017                   ; 0xd017 <__heap_start+0x7827>
    2328: a2 76        	ldx	#$76
    232a: 86 12        	stx	$12                     ; 0x2012 <main+0x376>
    232c: a2 43        	ldx	#$43
    232e: 86 13        	stx	$13                     ; 0x2013 <main+0x377>
    2330: 20 d5 3a     	jsr	$3ad5 <printf>
    2333: 4c a1 26     	jmp	$26a1 <main+0xa05>
    2336: a2 d1        	ldx	#$d1
    2338: 86 33        	stx	$33                     ; 0x2033 <main+0x397>
    233a: 64 3c        	stz	$3c                     ; 0x203c <main+0x3a0>
    233c: 9c 14 d0     	stz	$d014                   ; 0xd014 <__heap_start+0x7824>
    233f: 9c 15 d0     	stz	$d015                   ; 0xd015 <__heap_start+0x7825>
    2342: 64 3d        	stz	$3d                     ; 0x203d <main+0x3a1>
    2344: 9c 16 d0     	stz	$d016                   ; 0xd016 <__heap_start+0x7826>
    2347: 9c 17 d0     	stz	$d017                   ; 0xd017 <__heap_start+0x7827>
    234a: a2 00        	ldx	#$0
    234c: 86 12        	stx	$12                     ; 0x2012 <main+0x376>
    234e: a2 43        	ldx	#$43
    2350: 86 13        	stx	$13                     ; 0x2013 <main+0x377>
    2352: 20 d5 3a     	jsr	$3ad5 <printf>
    2355: a2 d0        	ldx	#$d0
    2357: 86 33        	stx	$33                     ; 0x2033 <main+0x397>
    2359: 64 3c        	stz	$3c                     ; 0x203c <main+0x3a0>
    235b: 9c 14 d0     	stz	$d014                   ; 0xd014 <__heap_start+0x7824>
    235e: 9c 15 d0     	stz	$d015                   ; 0xd015 <__heap_start+0x7825>
    2361: a2 01        	ldx	#$1
    2363: 86 3d        	stx	$3d                     ; 0x203d <main+0x3a1>
    2365: 8e 16 d0     	stx	$d016                   ; 0xd016 <__heap_start+0x7826>
    2368: 9c 17 d0     	stz	$d017                   ; 0xd017 <__heap_start+0x7827>
    236b: a2 76        	ldx	#$76
    236d: 86 12        	stx	$12                     ; 0x2012 <main+0x376>
    236f: a2 43        	ldx	#$43
    2371: 86 13        	stx	$13                     ; 0x2013 <main+0x377>
    2373: 20 d5 3a     	jsr	$3ad5 <printf>
    2376: a2 5e        	ldx	#$5e
    2378: 86 12        	stx	$12                     ; 0x2012 <main+0x376>
    237a: a2 43        	ldx	#$43
    237c: 86 13        	stx	$13                     ; 0x2013 <main+0x377>
    237e: 20 b9 2b     	jsr	$2bb9 <fileOpenDir>
    2381: a6 12        	ldx	$12                     ; 0x2012 <main+0x376>
    2383: 86 26        	stx	$26                     ; 0x2026 <main+0x38a>
    2385: a6 13        	ldx	$13                     ; 0x2013 <main+0x377>
    2387: 86 27        	stx	$27                     ; 0x2027 <main+0x38b>
    2389: a2 00        	ldx	#$0
    238b: 86 12        	stx	$12                     ; 0x2012 <main+0x376>
    238d: a2 00        	ldx	#$0
    238f: 86 13        	stx	$13                     ; 0x2013 <main+0x377>
    2391: a6 27        	ldx	$27                     ; 0x2027 <main+0x38b>
    2393: e4 13        	cpx	$13                     ; 0x2013 <main+0x377>
    2395: d0 1f        	bne	$23b6 <main+0x71a>
    2397: a6 26        	ldx	$26                     ; 0x2026 <main+0x38a>
    2399: e4 12        	cpx	$12                     ; 0x2012 <main+0x376>
    239b: d0 19        	bne	$23b6 <main+0x71a>
    239d: a2 f3        	ldx	#$f3
    239f: 86 12        	stx	$12                     ; 0x2012 <main+0x376>
    23a1: a2 45        	ldx	#$45
    23a3: 86 13        	stx	$13                     ; 0x2013 <main+0x377>
    23a5: a2 ba        	ldx	#$ba
    23a7: 86 14        	stx	$14                     ; 0x2014 <main+0x378>
    23a9: a2 43        	ldx	#$43
    23ab: 86 15        	stx	$15                     ; 0x2015 <main+0x379>
    23ad: a9 20        	lda	#$20
    23af: a2 00        	ldx	#$0
    23b1: 20 7d 41     	jsr	$417d <memcpy>
    23b4: 80 49        	bra	$23ff <main+0x763>
    23b6: a2 f3        	ldx	#$f3
    23b8: 86 12        	stx	$12                     ; 0x2012 <main+0x376>
    23ba: a2 45        	ldx	#$45
    23bc: 86 13        	stx	$13                     ; 0x2013 <main+0x377>
    23be: a2 fa        	ldx	#$fa
    23c0: 86 14        	stx	$14                     ; 0x2014 <main+0x378>
    23c2: a2 43        	ldx	#$43
    23c4: 86 15        	stx	$15                     ; 0x2015 <main+0x379>
    23c6: a9 20        	lda	#$20
    23c8: a2 00        	ldx	#$0
    23ca: 20 7d 41     	jsr	$417d <memcpy>
    23cd: a2 3b        	ldx	#$3b
    23cf: 86 12        	stx	$12                     ; 0x2012 <main+0x376>
    23d1: a2 00        	ldx	#$0
    23d3: 86 13        	stx	$13                     ; 0x2013 <main+0x377>
    23d5: b2 26        	lda	($26)                   ; 0x2026 <main+0x38a>
    23d7: f0 14        	beq	$23ed <main+0x751>
    23d9: 85 f3        	sta	$f3                     ; 0x20f3 <main+0x457>
    23db: 20 80 ff     	jsr	$ff80 <__heap_start+0xa790>
    23de: 92 24        	sta	($24)                   ; 0x2024 <main+0x388>
    23e0: a9 00        	lda	#$0
    23e2: 6a           	ror
    23e3: 85 12        	sta	$12                     ; 0x2012 <main+0x376>
    23e5: a6 3b        	ldx	$3b                     ; 0x203b <main+0x39f>
    23e7: d0 04        	bne	$23ed <main+0x751>
    23e9: a9 00        	lda	#$0
    23eb: 92 26        	sta	($26)                   ; 0x2026 <main+0x38a>
    23ed: 64 34        	stz	$34                     ; 0x2034 <main+0x398>
    23ef: 20 00 ff     	jsr	$ff00 <__heap_start+0xa710>
    23f2: 92 24        	sta	($24)                   ; 0x2024 <main+0x388>
    23f4: a9 00        	lda	#$0
    23f6: 6a           	ror
    23f7: 85 12        	sta	$12                     ; 0x2012 <main+0x376>
    23f9: a6 34        	ldx	$34                     ; 0x2034 <main+0x398>
    23fb: e0 46        	cpx	#$46
    23fd: d0 d6        	bne	$23d5 <main+0x739>
    23ff: a2 13        	ldx	#$13
    2401: 86 12        	stx	$12                     ; 0x2012 <main+0x376>
    2403: a2 46        	ldx	#$46
    2405: 86 13        	stx	$13                     ; 0x2013 <main+0x377>
    2407: a2 2c        	ldx	#$2c
    2409: 64 14        	stz	$14                     ; 0x2014 <main+0x378>
    240b: a9 00        	lda	#$0
    240d: 20 a9 41     	jsr	$41a9 <__memset>
    2410: a2 6b        	ldx	#$6b
    2412: 86 12        	stx	$12                     ; 0x2012 <main+0x376>
    2414: a2 46        	ldx	#$46
    2416: 86 13        	stx	$13                     ; 0x2013 <main+0x377>
    2418: a2 04        	ldx	#$4
    241a: a0 11        	ldy	#$11
    241c: 84 14        	sty	$14                     ; 0x2014 <main+0x378>
    241e: a9 00        	lda	#$0
    2420: 20 a9 41     	jsr	$41a9 <__memset>
    2423: 9c f1 45     	stz	$45f1                   ; 0x45f1 <fpr>
    2426: a2 70        	ldx	#$70
    2428: 86 12        	stx	$12                     ; 0x2012 <main+0x376>
    242a: a2 57        	ldx	#$57
    242c: 86 13        	stx	$13                     ; 0x2013 <main+0x377>
    242e: 64 14        	stz	$14                     ; 0x2014 <main+0x378>
    2430: a2 6b        	ldx	#$6b
    2432: a9 00        	lda	#$0
    2434: 20 a9 41     	jsr	$41a9 <__memset>
    2437: a2 03        	ldx	#$3
    2439: 8e f2 45     	stx	$45f2                   ; 0x45f2 <fpr+0x1>
    243c: ae a4 42     	ldx	$42a4                   ; 0x42a4 <__set_v+0xa9>
    243f: 8e db 57     	stx	$57db                   ; 0x57db <fpr+0x11ea>
    2442: ae a5 42     	ldx	$42a5                   ; 0x42a5 <__set_v+0xaa>
    2445: 8e dc 57     	stx	$57dc                   ; 0x57dc <fpr+0x11eb>
    2448: ae a6 42     	ldx	$42a6                   ; 0x42a6 <__set_v+0xab>
    244b: 8e dd 57     	stx	$57dd                   ; 0x57dd <fpr+0x11ec>
    244e: a2 09        	ldx	#$9
    2450: a0 de        	ldy	#$de
    2452: 84 12        	sty	$12                     ; 0x2012 <main+0x376>
    2454: a0 57        	ldy	#$57
    2456: 84 13        	sty	$13                     ; 0x2013 <main+0x377>
    2458: 64 14        	stz	$14                     ; 0x2014 <main+0x378>
    245a: a9 00        	lda	#$0
    245c: 20 a9 41     	jsr	$41a9 <__memset>
    245f: 20 9b 18     	jsr	$189b <readDirectory>
    2462: 20 76 05     	jsr	$576 <sortFileList>
    2465: a2 a0        	ldx	#$a0
    2467: 86 33        	stx	$33                     ; 0x2033 <main+0x397>
    2469: ad d9 57     	lda	$57d9                   ; 0x57d9 <fpr+0x11e8>
    246c: ae da 57     	ldx	$57da                   ; 0x57da <fpr+0x11e9>
    246f: a0 f1        	ldy	#$f1
    2471: 84 12        	sty	$12                     ; 0x2012 <main+0x376>
    2473: a0 45        	ldy	#$45
    2475: 84 13        	sty	$13                     ; 0x2013 <main+0x377>
    2477: 20 0f 15     	jsr	$150f <displayFileList>
    247a: a2 00        	ldx	#$0
    247c: 86 26        	stx	$26                     ; 0x2026 <main+0x38a>
    247e: a2 00        	ldx	#$0
    2480: 86 27        	stx	$27                     ; 0x2027 <main+0x38b>
    2482: a2 f3        	ldx	#$f3
    2484: a0 45        	ldy	#$45
    2486: 86 2a        	stx	$2a                     ; 0x202a <main+0x38e>
    2488: 84 2b        	sty	$2b                     ; 0x202b <main+0x38f>
    248a: 4c ef 25     	jmp	$25ef <main+0x953>
    248d: ad f3 45     	lda	$45f3                   ; 0x45f3 <fpr+0x2>
    2490: d0 03        	bne	$2495 <main+0x7f9>
    2492: 4c b4 25     	jmp	$25b4 <main+0x918>
    2495: c9 2f        	cmp	#$2f
    2497: d0 0c        	bne	$24a5 <main+0x809>
    2499: ae f4 45     	ldx	$45f4                   ; 0x45f4 <fpr+0x3>
    249c: a9 2f        	lda	#$2f
    249e: e0 00        	cpx	#$0
    24a0: d0 03        	bne	$24a5 <main+0x809>
    24a2: 4c b4 25     	jmp	$25b4 <main+0x918>
    24a5: a2 f3        	ldx	#$f3
    24a7: 86 14        	stx	$14                     ; 0x2014 <main+0x378>
    24a9: a2 45        	ldx	#$45
    24ab: 86 15        	stx	$15                     ; 0x2015 <main+0x379>
    24ad: a2 00        	ldx	#$0
    24af: 86 12        	stx	$12                     ; 0x2012 <main+0x376>
    24b1: a2 00        	ldx	#$0
    24b3: 86 13        	stx	$13                     ; 0x2013 <main+0x377>
    24b5: a0 01        	ldy	#$1
    24b7: c9 2f        	cmp	#$2f
    24b9: d0 08        	bne	$24c3 <main+0x827>
    24bb: a6 14        	ldx	$14                     ; 0x2014 <main+0x378>
    24bd: 86 12        	stx	$12                     ; 0x2012 <main+0x376>
    24bf: a6 15        	ldx	$15                     ; 0x2015 <main+0x379>
    24c1: 86 13        	stx	$13                     ; 0x2013 <main+0x377>
    24c3: b1 14        	lda	($14),y                 ; 0x2014 <main+0x378>
    24c5: e6 14        	inc	$14                     ; 0x2014 <main+0x378>
    24c7: d0 02        	bne	$24cb <main+0x82f>
    24c9: e6 15        	inc	$15                     ; 0x2015 <main+0x379>
    24cb: aa           	tax
    24cc: d0 e9        	bne	$24b7 <main+0x81b>
    24ce: a6 13        	ldx	$13                     ; 0x2013 <main+0x377>
    24d0: e4 27        	cpx	$27                     ; 0x2027 <main+0x38b>
    24d2: d0 06        	bne	$24da <main+0x83e>
    24d4: a6 12        	ldx	$12                     ; 0x2012 <main+0x376>
    24d6: e4 26        	cpx	$26                     ; 0x2026 <main+0x38a>
    24d8: f0 12        	beq	$24ec <main+0x850>
    24da: a6 13        	ldx	$13                     ; 0x2013 <main+0x377>
    24dc: e4 2b        	cpx	$2b                     ; 0x202b <main+0x38f>
    24de: f0 03        	beq	$24e3 <main+0x847>
    24e0: 4c b0 25     	jmp	$25b0 <main+0x914>
    24e3: a6 12        	ldx	$12                     ; 0x2012 <main+0x376>
    24e5: e4 2a        	cpx	$2a                     ; 0x202a <main+0x38e>
    24e7: f0 03        	beq	$24ec <main+0x850>
    24e9: 4c b0 25     	jmp	$25b0 <main+0x914>
    24ec: 9c f3 45     	stz	$45f3                   ; 0x45f3 <fpr+0x2>
    24ef: 4c b4 25     	jmp	$25b4 <main+0x918>
    24f2: a6 10        	ldx	$10                     ; 0x2010 <main+0x374>
    24f4: a4 11        	ldy	$11                     ; 0x2011 <main+0x375>
    24f6: 18           	clc
    24f7: 8a           	txa
    24f8: 69 02        	adc	#$2
    24fa: 85 12        	sta	$12                     ; 0x2012 <main+0x376>
    24fc: 98           	tya
    24fd: 69 00        	adc	#$0
    24ff: 85 13        	sta	$13                     ; 0x2013 <main+0x377>
    2501: 18           	clc
    2502: 8a           	txa
    2503: 69 04        	adc	#$4
    2505: 85 14        	sta	$14                     ; 0x2014 <main+0x378>
    2507: 98           	tya
    2508: 69 00        	adc	#$0
    250a: aa           	tax
    250b: a9 f3        	lda	#$f3
    250d: 92 10        	sta	($10)                   ; 0x2010 <main+0x374>
    250f: a0 01        	ldy	#$1
    2511: a9 45        	lda	#$45
    2513: 91 10        	sta	($10),y                 ; 0x2010 <main+0x374>
    2515: c8           	iny
    2516: a9 4d        	lda	#$4d
    2518: 91 10        	sta	($10),y                 ; 0x2010 <main+0x374>
    251a: a9 43        	lda	#$43
    251c: 88           	dey
    251d: 91 12        	sta	($12),y                 ; 0x2012 <main+0x376>
    251f: a4 14        	ldy	$14                     ; 0x2014 <main+0x378>
    2521: 84 12        	sty	$12                     ; 0x2012 <main+0x376>
    2523: 86 13        	stx	$13                     ; 0x2013 <main+0x377>
    2525: a9 13        	lda	#$13
    2527: a0 04        	ldy	#$4
    2529: 91 10        	sta	($10),y                 ; 0x2010 <main+0x374>
    252b: a9 46        	lda	#$46
    252d: a0 01        	ldy	#$1
    252f: 91 12        	sta	($12),y                 ; 0x2012 <main+0x376>
    2531: a6 24        	ldx	$24                     ; 0x2024 <main+0x388>
    2533: 86 12        	stx	$12                     ; 0x2012 <main+0x376>
    2535: a6 25        	ldx	$25                     ; 0x2025 <main+0x389>
    2537: 86 13        	stx	$13                     ; 0x2013 <main+0x377>
    2539: a2 a0        	ldx	#$a0
    253b: 86 14        	stx	$14                     ; 0x2014 <main+0x378>
    253d: a2 43        	ldx	#$43
    253f: 86 15        	stx	$15                     ; 0x2015 <main+0x379>
    2541: 20 57 3b     	jsr	$3b57 <sprintf>
    2544: a2 6b        	ldx	#$6b
    2546: 86 12        	stx	$12                     ; 0x2012 <main+0x376>
    2548: a2 46        	ldx	#$46
    254a: 86 13        	stx	$13                     ; 0x2013 <main+0x377>
    254c: 64 2c        	stz	$2c                     ; 0x202c <main+0x390>
    254e: a2 11        	ldx	#$11
    2550: 86 14        	stx	$14                     ; 0x2014 <main+0x378>
    2552: a2 04        	ldx	#$4
    2554: a9 00        	lda	#$0
    2556: 20 a9 41     	jsr	$41a9 <__memset>
    2559: a2 70        	ldx	#$70
    255b: 86 12        	stx	$12                     ; 0x2012 <main+0x376>
    255d: a2 57        	ldx	#$57
    255f: 86 13        	stx	$13                     ; 0x2013 <main+0x377>
    2561: 64 14        	stz	$14                     ; 0x2014 <main+0x378>
    2563: a2 6b        	ldx	#$6b
    2565: a9 00        	lda	#$0
    2567: 20 a9 41     	jsr	$41a9 <__memset>
    256a: a2 20        	ldx	#$20
    256c: 64 14        	stz	$14                     ; 0x2014 <main+0x378>
    256e: 80 06        	bra	$2576 <main+0x8da>
    2570: e6 2c        	inc	$2c                     ; 0x202c <main+0x390>
    2572: a5 14        	lda	$14                     ; 0x2014 <main+0x378>
    2574: f0 18        	beq	$258e <main+0x8f2>
    2576: a4 2c        	ldy	$2c                     ; 0x202c <main+0x390>
    2578: b1 24        	lda	($24),y                 ; 0x2024 <main+0x388>
    257a: 85 12        	sta	$12                     ; 0x2012 <main+0x376>
    257c: b1 24        	lda	($24),y                 ; 0x2024 <main+0x388>
    257e: 99 f3 45     	sta	$45f3,y                 ; 0x45f3 <fpr+0x2>
    2581: a5 12        	lda	$12                     ; 0x2012 <main+0x376>
    2583: f0 0e        	beq	$2593 <main+0x8f7>
    2585: ca           	dex
    2586: e0 ff        	cpx	#$ff
    2588: d0 e6        	bne	$2570 <main+0x8d4>
    258a: c6 14        	dec	$14                     ; 0x2014 <main+0x378>
    258c: 80 e2        	bra	$2570 <main+0x8d4>
    258e: 8a           	txa
    258f: d0 e5        	bne	$2576 <main+0x8da>
    2591: 80 45        	bra	$25d8 <main+0x93c>
    2593: ca           	dex
    2594: e0 ff        	cpx	#$ff
    2596: d0 02        	bne	$259a <main+0x8fe>
    2598: c6 14        	dec	$14                     ; 0x2014 <main+0x378>
    259a: a5 14        	lda	$14                     ; 0x2014 <main+0x378>
    259c: d0 03        	bne	$25a1 <main+0x905>
    259e: 8a           	txa
    259f: f0 37        	beq	$25d8 <main+0x93c>
    25a1: a9 f4        	lda	#$f4
    25a3: 18           	clc
    25a4: 65 2c        	adc	$2c                     ; 0x202c <main+0x390>
    25a6: 85 12        	sta	$12                     ; 0x2012 <main+0x376>
    25a8: a9 45        	lda	#$45
    25aa: 69 00        	adc	#$0
    25ac: 85 13        	sta	$13                     ; 0x2013 <main+0x377>
    25ae: 80 23        	bra	$25d3 <main+0x937>
    25b0: a9 00        	lda	#$0
    25b2: 92 12        	sta	($12)                   ; 0x2012 <main+0x376>
    25b4: a2 6b        	ldx	#$6b
    25b6: 86 12        	stx	$12                     ; 0x2012 <main+0x376>
    25b8: a2 46        	ldx	#$46
    25ba: 86 13        	stx	$13                     ; 0x2013 <main+0x377>
    25bc: a2 11        	ldx	#$11
    25be: 86 14        	stx	$14                     ; 0x2014 <main+0x378>
    25c0: a2 04        	ldx	#$4
    25c2: a9 00        	lda	#$0
    25c4: 20 a9 41     	jsr	$41a9 <__memset>
    25c7: a2 70        	ldx	#$70
    25c9: 86 12        	stx	$12                     ; 0x2012 <main+0x376>
    25cb: a2 57        	ldx	#$57
    25cd: 86 13        	stx	$13                     ; 0x2013 <main+0x377>
    25cf: 64 14        	stz	$14                     ; 0x2014 <main+0x378>
    25d1: a2 6b        	ldx	#$6b
    25d3: a9 00        	lda	#$0
    25d5: 20 a9 41     	jsr	$41a9 <__memset>
    25d8: 20 9b 18     	jsr	$189b <readDirectory>
    25db: 20 76 05     	jsr	$576 <sortFileList>
    25de: ad d9 57     	lda	$57d9                   ; 0x57d9 <fpr+0x11e8>
    25e1: ae da 57     	ldx	$57da                   ; 0x57da <fpr+0x11e9>
    25e4: a0 f1        	ldy	#$f1
    25e6: 84 12        	sty	$12                     ; 0x2012 <main+0x376>
    25e8: a0 45        	ldy	#$45
    25ea: 84 13        	sty	$13                     ; 0x2013 <main+0x377>
    25ec: 20 0f 15     	jsr	$150f <displayFileList>
    25ef: 20 c2 08     	jsr	$8c2 <pickFile>
    25f2: c9 04        	cmp	#$4
    25f4: b0 f9        	bcs	$25ef <main+0x953>
    25f6: 0a           	asl
    25f7: aa           	tax
    25f8: 7c 4c 42     	jmp	($424c,x)               ; 0x424c <__set_v+0x51>
    25fb: ae f1 45     	ldx	$45f1                   ; 0x45f1 <fpr>
    25fe: ac f2 45     	ldy	$45f2                   ; 0x45f2 <fpr+0x1>
    2601: 86 3c        	stx	$3c                     ; 0x203c <main+0x3a0>
    2603: 8e 14 d0     	stx	$d014                   ; 0xd014 <__heap_start+0x7824>
    2606: a2 00        	ldx	#$0
    2608: 9c 15 d0     	stz	$d015                   ; 0xd015 <__heap_start+0x7825>
    260b: 84 3d        	sty	$3d                     ; 0x203d <main+0x3a1>
    260d: 8c 16 d0     	sty	$d016                   ; 0xd016 <__heap_start+0x7826>
    2610: 9c 17 d0     	stz	$d017                   ; 0xd017 <__heap_start+0x7827>
    2613: a0 00        	ldy	#$0
    2615: 80 14        	bra	$262b <main+0x98f>
    2617: e4 12        	cpx	$12                     ; 0x2012 <main+0x376>
    2619: a4 27        	ldy	$27                     ; 0x2027 <main+0x38b>
    261b: 90 13        	bcc	$2630 <main+0x994>
    261d: a9 0a        	lda	#$a
    261f: 20 31 3c     	jsr	$3c31 <putchar>
    2622: a2 00        	ldx	#$0
    2624: a4 26        	ldy	$26                     ; 0x2026 <main+0x38a>
    2626: c8           	iny
    2627: c0 11        	cpy	#$11
    2629: f0 2a        	beq	$2655 <main+0x9b9>
    262b: 84 26        	sty	$26                     ; 0x2026 <main+0x38a>
    262d: ac f2 45     	ldy	$45f2                   ; 0x45f2 <fpr+0x1>
    2630: c8           	iny
    2631: a9 20        	lda	#$20
    2633: 84 27        	sty	$27                     ; 0x2027 <main+0x38b>
    2635: 20 31 3c     	jsr	$3c31 <putchar>
    2638: ad f2 45     	lda	$45f2                   ; 0x45f2 <fpr+0x1>
    263b: 18           	clc
    263c: 69 2c        	adc	#$2c
    263e: a8           	tay
    263f: a9 00        	lda	#$0
    2641: 69 00        	adc	#$0
    2643: 85 12        	sta	$12                     ; 0x2012 <main+0x376>
    2645: a2 00        	ldx	#$0
    2647: e4 12        	cpx	$12                     ; 0x2012 <main+0x376>
    2649: d0 cc        	bne	$2617 <main+0x97b>
    264b: 84 12        	sty	$12                     ; 0x2012 <main+0x376>
    264d: a4 27        	ldy	$27                     ; 0x2027 <main+0x38b>
    264f: c4 12        	cpy	$12                     ; 0x2012 <main+0x376>
    2651: 90 dd        	bcc	$2630 <main+0x994>
    2653: 80 c8        	bra	$261d <main+0x981>
    2655: a6 10        	ldx	$10                     ; 0x2010 <main+0x374>
    2657: a9 f3        	lda	#$f3
    2659: 92 10        	sta	($10)                   ; 0x2010 <main+0x374>
    265b: a0 01        	ldy	#$1
    265d: a9 45        	lda	#$45
    265f: 91 10        	sta	($10),y                 ; 0x2010 <main+0x374>
    2661: a9 4d        	lda	#$4d
    2663: c8           	iny
    2664: 91 10        	sta	($10),y                 ; 0x2010 <main+0x374>
    2666: a0 04        	ldy	#$4
    2668: a9 13        	lda	#$13
    266a: 91 10        	sta	($10),y                 ; 0x2010 <main+0x374>
    266c: 18           	clc
    266d: 8a           	txa
    266e: 69 02        	adc	#$2
    2670: 85 12        	sta	$12                     ; 0x2012 <main+0x376>
    2672: a5 11        	lda	$11                     ; 0x2011 <main+0x375>
    2674: 69 00        	adc	#$0
    2676: 18           	clc
    2677: 85 13        	sta	$13                     ; 0x2013 <main+0x377>
    2679: a9 43        	lda	#$43
    267b: a0 01        	ldy	#$1
    267d: 91 12        	sta	($12),y                 ; 0x2012 <main+0x376>
    267f: 8a           	txa
    2680: 69 04        	adc	#$4
    2682: 85 12        	sta	$12                     ; 0x2012 <main+0x376>
    2684: a5 11        	lda	$11                     ; 0x2011 <main+0x375>
    2686: 69 00        	adc	#$0
    2688: 85 13        	sta	$13                     ; 0x2013 <main+0x377>
    268a: a9 46        	lda	#$46
    268c: 91 12        	sta	($12),y                 ; 0x2012 <main+0x376>
    268e: a2 78        	ldx	#$78
    2690: 86 12        	stx	$12                     ; 0x2012 <main+0x376>
    2692: a2 45        	ldx	#$45
    2694: 86 13        	stx	$13                     ; 0x2013 <main+0x377>
    2696: a2 a0        	ldx	#$a0
    2698: 86 14        	stx	$14                     ; 0x2014 <main+0x378>
    269a: a2 43        	ldx	#$43
    269c: 86 15        	stx	$15                     ; 0x2015 <main+0x379>
    269e: 20 57 3b     	jsr	$3b57 <sprintf>
    26a1: 20 83 2a     	jsr	$2a83 <fileOpen>
    26a4: a6 12        	ldx	$12                     ; 0x2012 <main+0x376>
    26a6: 86 26        	stx	$26                     ; 0x2026 <main+0x38a>
    26a8: a6 13        	ldx	$13                     ; 0x2013 <main+0x377>
    26aa: 86 27        	stx	$27                     ; 0x2027 <main+0x38b>
    26ac: a6 26        	ldx	$26                     ; 0x2026 <main+0x38a>
    26ae: a4 27        	ldy	$27                     ; 0x2027 <main+0x38b>
    26b0: 8e e7 57     	stx	$57e7                   ; 0x57e7 <theFile>
    26b3: 8c e8 57     	sty	$57e8                   ; 0x57e8 <theFile+0x1>
    26b6: 64 3c        	stz	$3c                     ; 0x203c <main+0x3a0>
    26b8: 9c 14 d0     	stz	$d014                   ; 0xd014 <__heap_start+0x7824>
    26bb: 9c 15 d0     	stz	$d015                   ; 0xd015 <__heap_start+0x7825>
    26be: 64 3d        	stz	$3d                     ; 0x203d <main+0x3a1>
    26c0: 9c 16 d0     	stz	$d016                   ; 0xd016 <__heap_start+0x7826>
    26c3: 9c 17 d0     	stz	$d017                   ; 0xd017 <__heap_start+0x7827>
    26c6: a2 aa        	ldx	#$aa
    26c8: 86 12        	stx	$12                     ; 0x2012 <main+0x376>
    26ca: a2 42        	ldx	#$42
    26cc: 86 13        	stx	$13                     ; 0x2013 <main+0x377>
    26ce: 20 d5 3a     	jsr	$3ad5 <printf>
    26d1: 64 3c        	stz	$3c                     ; 0x203c <main+0x3a0>
    26d3: 9c 14 d0     	stz	$d014                   ; 0xd014 <__heap_start+0x7824>
    26d6: 9c 15 d0     	stz	$d015                   ; 0xd015 <__heap_start+0x7825>
    26d9: a2 01        	ldx	#$1
    26db: 86 3d        	stx	$3d                     ; 0x203d <main+0x3a1>
    26dd: 8e 16 d0     	stx	$d016                   ; 0xd016 <__heap_start+0x7826>
    26e0: 9c 17 d0     	stz	$d017                   ; 0xd017 <__heap_start+0x7827>
    26e3: a2 aa        	ldx	#$aa
    26e5: 86 12        	stx	$12                     ; 0x2012 <main+0x376>
    26e7: a2 42        	ldx	#$42
    26e9: 86 13        	stx	$13                     ; 0x2013 <main+0x377>
    26eb: 20 d5 3a     	jsr	$3ad5 <printf>
    26ee: 64 3c        	stz	$3c                     ; 0x203c <main+0x3a0>
    26f0: 9c 14 d0     	stz	$d014                   ; 0xd014 <__heap_start+0x7824>
    26f3: 9c 15 d0     	stz	$d015                   ; 0xd015 <__heap_start+0x7825>
    26f6: 64 3d        	stz	$3d                     ; 0x203d <main+0x3a1>
    26f8: 9c 16 d0     	stz	$d016                   ; 0xd016 <__heap_start+0x7826>
    26fb: 9c 17 d0     	stz	$d017                   ; 0xd017 <__heap_start+0x7827>
    26fe: a9 78        	lda	#$78
    2700: 92 10        	sta	($10)                   ; 0x2010 <main+0x374>
    2702: a0 01        	ldy	#$1
    2704: a9 45        	lda	#$45
    2706: 91 10        	sta	($10),y                 ; 0x2010 <main+0x374>
    2708: a2 6a        	ldx	#$6a
    270a: 86 12        	stx	$12                     ; 0x2012 <main+0x376>
    270c: a2 43        	ldx	#$43
    270e: 86 13        	stx	$13                     ; 0x2013 <main+0x377>
    2710: 20 d5 3a     	jsr	$3ad5 <printf>
    2713: 64 3c        	stz	$3c                     ; 0x203c <main+0x3a0>
    2715: 9c 14 d0     	stz	$d014                   ; 0xd014 <__heap_start+0x7824>
    2718: 9c 15 d0     	stz	$d015                   ; 0xd015 <__heap_start+0x7825>
    271b: a2 18        	ldx	#$18
    271d: 86 3d        	stx	$3d                     ; 0x203d <main+0x3a1>
    271f: 8e 16 d0     	stx	$d016                   ; 0xd016 <__heap_start+0x7826>
    2722: 9c 17 d0     	stz	$d017                   ; 0xd017 <__heap_start+0x7827>
    2725: a2 76        	ldx	#$76
    2727: 86 33        	stx	$33                     ; 0x2033 <main+0x397>
    2729: a2 9a        	ldx	#$9a
    272b: 86 12        	stx	$12                     ; 0x2012 <main+0x376>
    272d: a2 43        	ldx	#$43
    272f: 86 13        	stx	$13                     ; 0x2013 <main+0x377>
    2731: 20 d5 3a     	jsr	$3ad5 <printf>
    2734: a2 f0        	ldx	#$f0
    2736: 86 33        	stx	$33                     ; 0x2033 <main+0x397>
    2738: a2 4f        	ldx	#$4f
    273a: 86 12        	stx	$12                     ; 0x2012 <main+0x376>
    273c: a2 43        	ldx	#$43
    273e: 86 13        	stx	$13                     ; 0x2013 <main+0x377>
    2740: 20 d5 3a     	jsr	$3ad5 <printf>
    2743: a2 76        	ldx	#$76
    2745: 86 33        	stx	$33                     ; 0x2033 <main+0x397>
    2747: a2 59        	ldx	#$59
    2749: 86 12        	stx	$12                     ; 0x2012 <main+0x376>
    274b: a2 43        	ldx	#$43
    274d: 86 13        	stx	$13                     ; 0x2013 <main+0x377>
    274f: 20 d5 3a     	jsr	$3ad5 <printf>
    2752: a2 f0        	ldx	#$f0
    2754: 86 33        	stx	$33                     ; 0x2033 <main+0x397>
    2756: a2 ae        	ldx	#$ae
    2758: 86 12        	stx	$12                     ; 0x2012 <main+0x376>
    275a: a2 43        	ldx	#$43
    275c: 86 13        	stx	$13                     ; 0x2013 <main+0x377>
    275e: 20 d5 3a     	jsr	$3ad5 <printf>
    2761: a2 80        	ldx	#$80
    2763: 86 f3        	stx	$f3                     ; 0x20f3 <main+0x457>
    2765: a2 3b        	ldx	#$3b
    2767: 86 12        	stx	$12                     ; 0x2012 <main+0x376>
    2769: a2 00        	ldx	#$0
    276b: 86 13        	stx	$13                     ; 0x2013 <main+0x377>
    276d: 20 f0 ff     	jsr	$fff0 <__heap_start+0xa800>
    2770: 92 28        	sta	($28)                   ; 0x2028 <main+0x38c>
    2772: a9 00        	lda	#$0
    2774: 6a           	ror
    2775: 85 12        	sta	$12                     ; 0x2012 <main+0x376>
    2777: b2 28        	lda	($28)                   ; 0x2028 <main+0x38c>
    2779: 1a           	inc
    277a: 8d f0 45     	sta	$45f0                   ; 0x45f0 <sidTimer.1>
    277d: 64 f3        	stz	$f3                     ; 0x20f3 <main+0x457>
    277f: ae f0 45     	ldx	$45f0                   ; 0x45f0 <sidTimer.1>
    2782: 86 f4        	stx	$f4                     ; 0x20f4 <main+0x458>
    2784: 64 f5        	stz	$f5                     ; 0x20f5 <main+0x459>
    2786: a2 02        	ldx	#$2
    2788: 20 f0 ff     	jsr	$fff0 <__heap_start+0xa800>
    278b: 92 28        	sta	($28)                   ; 0x2028 <main+0x38c>
    278d: a9 00        	lda	#$0
    278f: 6a           	ror
    2790: 85 12        	sta	$12                     ; 0x2012 <main+0x376>
    2792: 8e 50 d6     	stx	$d650                   ; 0xd650 <__heap_start+0x7e60>
    2795: a0 15        	ldy	#$15
    2797: 8c 55 d6     	sty	$d655                   ; 0xd655 <__heap_start+0x7e65>
    279a: a0 ae        	ldy	#$ae
    279c: 8c 56 d6     	sty	$d656                   ; 0xd656 <__heap_start+0x7e66>
    279f: a0 07        	ldy	#$7
    27a1: 8c 57 d6     	sty	$d657                   ; 0xd657 <__heap_start+0x7e67>
    27a4: 9c 54 d6     	stz	$d654                   ; 0xd654 <__heap_start+0x7e64>
    27a7: 8e 50 d6     	stx	$d650                   ; 0xd650 <__heap_start+0x7e60>
    27aa: a2 89        	ldx	#$89
    27ac: 8e 50 d6     	stx	$d650                   ; 0xd650 <__heap_start+0x7e60>
    27af: a2 d4        	ldx	#$d4
    27b1: 64 34        	stz	$34                     ; 0x2034 <main+0x398>
    27b3: 20 00 ff     	jsr	$ff00 <__heap_start+0xa710>
    27b6: 92 28        	sta	($28)                   ; 0x2028 <main+0x38c>
    27b8: a9 00        	lda	#$0
    27ba: 6a           	ror
    27bb: 85 12        	sta	$12                     ; 0x2012 <main+0x376>
    27bd: a4 34        	ldy	$34                     ; 0x2034 <main+0x398>
    27bf: c0 08        	cpy	#$8
    27c1: d0 10        	bne	$27d3 <main+0xb37>
    27c3: a4 38        	ldy	$38                     ; 0x2038 <main+0x39c>
    27c5: c0 83        	cpy	#$83
    27c7: d0 03        	bne	$27cc <main+0xb30>
    27c9: 4c d7 29     	jmp	$29d7 <main+0xd3b>
    27cc: c0 92        	cpy	#$92
    27ce: d0 03        	bne	$27d3 <main+0xb37>
    27d0: 4c 1e 29     	jmp	$291e <main+0xc82>
    27d3: ad 60 d6     	lda	$d660                   ; 0xd660 <__heap_start+0x7e70>
    27d6: 29 10        	and	#$10
    27d8: f0 d7        	beq	$27b1 <main+0xb15>
    27da: a0 10        	ldy	#$10
    27dc: 8c 60 d6     	sty	$d660                   ; 0xd660 <__heap_start+0x7e70>
    27df: 64 14        	stz	$14                     ; 0x2014 <main+0x378>
    27e1: 64 15        	stz	$15                     ; 0x2015 <main+0x379>
    27e3: b2 26        	lda	($26)                   ; 0x2026 <main+0x38a>
    27e5: 85 17        	sta	$17                     ; 0x2017 <main+0x37b>
    27e7: 18           	clc
    27e8: a5 10        	lda	$10                     ; 0x2010 <main+0x374>
    27ea: 69 0c        	adc	#$c
    27ec: a8           	tay
    27ed: a5 11        	lda	$11                     ; 0x2011 <main+0x375>
    27ef: 69 00        	adc	#$0
    27f1: 85 16        	sta	$16                     ; 0x2016 <main+0x37a>
    27f3: 84 18        	sty	$18                     ; 0x2018 <main+0x37c>
    27f5: 98           	tya
    27f6: 18           	clc
    27f7: 65 14        	adc	$14                     ; 0x2014 <main+0x378>
    27f9: 85 1a        	sta	$1a                     ; 0x201a <main+0x37e>
    27fb: a4 16        	ldy	$16                     ; 0x2016 <main+0x37a>
    27fd: 84 19        	sty	$19                     ; 0x2019 <main+0x37d>
    27ff: a5 16        	lda	$16                     ; 0x2016 <main+0x37a>
    2801: 65 15        	adc	$15                     ; 0x2015 <main+0x379>
    2803: a4 17        	ldy	$17                     ; 0x2017 <main+0x37b>
    2805: d0 03        	bne	$280a <main+0xb6e>
    2807: 4c 69 28     	jmp	$2869 <main+0xbcd>
    280a: a4 17        	ldy	$17                     ; 0x2017 <main+0x37b>
    280c: 85 17        	sta	$17                     ; 0x2017 <main+0x37b>
    280e: 38           	sec
    280f: a9 19        	lda	#$19
    2811: e5 14        	sbc	$14                     ; 0x2014 <main+0x378>
    2813: 84 f3        	sty	$f3                     ; 0x20f3 <main+0x457>
    2815: 85 f4        	sta	$f4                     ; 0x20f4 <main+0x458>
    2817: 20 60 ff     	jsr	$ff60 <__heap_start+0xa770>
    281a: 92 28        	sta	($28)                   ; 0x2028 <main+0x38c>
    281c: a9 00        	lda	#$0
    281e: 6a           	ror
    281f: 85 12        	sta	$12                     ; 0x2012 <main+0x376>
    2821: a4 3b        	ldy	$3b                     ; 0x203b <main+0x39f>
    2823: f0 03        	beq	$2828 <main+0xb8c>
    2825: 4c bb 28     	jmp	$28bb <main+0xc1f>
    2828: a4 1a        	ldy	$1a                     ; 0x201a <main+0x37e>
    282a: 84 16        	sty	$16                     ; 0x2016 <main+0x37a>
    282c: 64 34        	stz	$34                     ; 0x2034 <main+0x398>
    282e: 20 00 ff     	jsr	$ff00 <__heap_start+0xa710>
    2831: 92 28        	sta	($28)                   ; 0x2028 <main+0x38c>
    2833: a9 00        	lda	#$0
    2835: 6a           	ror
    2836: 85 12        	sta	$12                     ; 0x2012 <main+0x376>
    2838: a4 34        	ldy	$34                     ; 0x2034 <main+0x398>
    283a: c0 38        	cpy	#$38
    283c: d0 03        	bne	$2841 <main+0xba5>
    283e: 4c bb 28     	jmp	$28bb <main+0xc1f>
    2841: c0 30        	cpy	#$30
    2843: d0 03        	bne	$2848 <main+0xbac>
    2845: 4c fc 28     	jmp	$28fc <main+0xc60>
    2848: c0 2c        	cpy	#$2c
    284a: d0 e0        	bne	$282c <main+0xb90>
    284c: a4 1a        	ldy	$1a                     ; 0x201a <main+0x37e>
    284e: 84 fb        	sty	$fb                     ; 0x20fb <main+0x45f>
    2850: a4 17        	ldy	$17                     ; 0x2017 <main+0x37b>
    2852: 84 fc        	sty	$fc                     ; 0x20fc <main+0x460>
    2854: a4 3a        	ldy	$3a                     ; 0x203a <main+0x39e>
    2856: 84 fd        	sty	$fd                     ; 0x20fd <main+0x461>
    2858: 20 04 ff     	jsr	$ff04 <__heap_start+0xa714>
    285b: 92 28        	sta	($28)                   ; 0x2028 <main+0x38c>
    285d: a9 00        	lda	#$0
    285f: 6a           	ror
    2860: 85 12        	sta	$12                     ; 0x2012 <main+0x376>
    2862: a5 3a        	lda	$3a                     ; 0x203a <main+0x39e>
    2864: d0 35        	bne	$289b <main+0xbff>
    2866: 4c 17 29     	jmp	$2917 <main+0xc7b>
    2869: a4 1a        	ldy	$1a                     ; 0x201a <main+0x37e>
    286b: 84 16        	sty	$16                     ; 0x2016 <main+0x37a>
    286d: 85 17        	sta	$17                     ; 0x2017 <main+0x37b>
    286f: 80 0a        	bra	$287b <main+0xbdf>
    2871: 20 0c ff     	jsr	$ff0c <__heap_start+0xa71c>
    2874: 92 28        	sta	($28)                   ; 0x2028 <main+0x38c>
    2876: a9 00        	lda	#$0
    2878: 6a           	ror
    2879: 85 12        	sta	$12                     ; 0x2012 <main+0x376>
    287b: 64 34        	stz	$34                     ; 0x2034 <main+0x398>
    287d: 20 00 ff     	jsr	$ff00 <__heap_start+0xa710>
    2880: 92 28        	sta	($28)                   ; 0x2028 <main+0x38c>
    2882: a9 00        	lda	#$0
    2884: 6a           	ror
    2885: 85 12        	sta	$12                     ; 0x2012 <main+0x376>
    2887: a4 3b        	ldy	$3b                     ; 0x203b <main+0x39f>
    2889: d0 e6        	bne	$2871 <main+0xbd5>
    288b: a4 34        	ldy	$34                     ; 0x2034 <main+0x398>
    288d: c0 08        	cpy	#$8
    288f: d0 ea        	bne	$287b <main+0xbdf>
    2891: a4 3a        	ldy	$3a                     ; 0x203a <main+0x39e>
    2893: d0 e6        	bne	$287b <main+0xbdf>
    2895: a5 39        	lda	$39                     ; 0x2039 <main+0x39d>
    2897: 92 16        	sta	($16)                   ; 0x2016 <main+0x37a>
    2899: a9 01        	lda	#$1
    289b: a0 00        	ldy	#$0
    289d: 18           	clc
    289e: 65 14        	adc	$14                     ; 0x2014 <main+0x378>
    28a0: 85 14        	sta	$14                     ; 0x2014 <main+0x378>
    28a2: 98           	tya
    28a3: 65 15        	adc	$15                     ; 0x2015 <main+0x379>
    28a5: d0 0b        	bne	$28b2 <main+0xc16>
    28a7: a4 14        	ldy	$14                     ; 0x2014 <main+0x378>
    28a9: c0 19        	cpy	#$19
    28ab: 85 15        	sta	$15                     ; 0x2015 <main+0x379>
    28ad: b0 0c        	bcs	$28bb <main+0xc1f>
    28af: 4c e3 27     	jmp	$27e3 <main+0xb47>
    28b2: c9 00        	cmp	#$0
    28b4: 85 15        	sta	$15                     ; 0x2015 <main+0x379>
    28b6: b0 03        	bcs	$28bb <main+0xc1f>
    28b8: 4c e3 27     	jmp	$27e3 <main+0xb47>
    28bb: 2c fb 41     	bit	$41fb                   ; 0x41fb <__set_v>
    28be: a0 00        	ldy	#$0
    28c0: a5 18        	lda	$18                     ; 0x2018 <main+0x37c>
    28c2: 85 14        	sta	$14                     ; 0x2014 <main+0x378>
    28c4: a5 19        	lda	$19                     ; 0x2019 <main+0x37d>
    28c6: 85 15        	sta	$15                     ; 0x2015 <main+0x379>
    28c8: b1 14        	lda	($14),y                 ; 0x2014 <main+0x378>
    28ca: 84 14        	sty	$14                     ; 0x2014 <main+0x378>
    28cc: 86 15        	stx	$15                     ; 0x2015 <main+0x379>
    28ce: 92 14        	sta	($14)                   ; 0x2014 <main+0x378>
    28d0: c8           	iny
    28d1: c0 19        	cpy	#$19
    28d3: d0 eb        	bne	$28c0 <main+0xc24>
    28d5: a0 02        	ldy	#$2
    28d7: 8c 50 d6     	sty	$d650                   ; 0xd650 <__heap_start+0x7e60>
    28da: a9 15        	lda	#$15
    28dc: 8d 55 d6     	sta	$d655                   ; 0xd655 <__heap_start+0x7e65>
    28df: a9 ae        	lda	#$ae
    28e1: 8d 56 d6     	sta	$d656                   ; 0xd656 <__heap_start+0x7e66>
    28e4: a9 07        	lda	#$7
    28e6: 8d 57 d6     	sta	$d657                   ; 0xd657 <__heap_start+0x7e67>
    28e9: 9c 54 d6     	stz	$d654                   ; 0xd654 <__heap_start+0x7e64>
    28ec: 8c 50 d6     	sty	$d650                   ; 0xd650 <__heap_start+0x7e60>
    28ef: a0 89        	ldy	#$89
    28f1: 8c 50 d6     	sty	$d650                   ; 0xd650 <__heap_start+0x7e60>
    28f4: 50 03        	bvc	$28f9 <main+0xc5d>
    28f6: 4c b1 27     	jmp	$27b1 <main+0xb15>
    28f9: 4c db 29     	jmp	$29db <main+0xd3f>
    28fc: a5 15        	lda	$15                     ; 0x2015 <main+0x379>
    28fe: d0 0b        	bne	$290b <main+0xc6f>
    2900: a4 14        	ldy	$14                     ; 0x2014 <main+0x378>
    2902: c0 19        	cpy	#$19
    2904: 2c fb 41     	bit	$41fb                   ; 0x41fb <__set_v>
    2907: b0 b5        	bcs	$28be <main+0xc22>
    2909: 80 09        	bra	$2914 <main+0xc78>
    290b: a4 15        	ldy	$15                     ; 0x2015 <main+0x379>
    290d: c0 00        	cpy	#$0
    290f: 2c fb 41     	bit	$41fb                   ; 0x41fb <__set_v>
    2912: b0 aa        	bcs	$28be <main+0xc22>
    2914: b8           	clv
    2915: 80 a7        	bra	$28be <main+0xc22>
    2917: a9 00        	lda	#$0
    2919: a0 01        	ldy	#$1
    291b: 4c 9d 28     	jmp	$289d <main+0xc01>
    291e: a2 d4        	ldx	#$d4
    2920: a0 00        	ldy	#$0
    2922: 18           	clc
    2923: 98           	tya
    2924: 69 00        	adc	#$0
    2926: 85 14        	sta	$14                     ; 0x2014 <main+0x378>
    2928: 8a           	txa
    2929: 69 01        	adc	#$1
    292b: 85 15        	sta	$15                     ; 0x2015 <main+0x379>
    292d: 84 12        	sty	$12                     ; 0x2012 <main+0x376>
    292f: 86 13        	stx	$13                     ; 0x2013 <main+0x377>
    2931: a9 00        	lda	#$0
    2933: 92 12        	sta	($12)                   ; 0x2012 <main+0x376>
    2935: 5a           	phy
    2936: a4 14        	ldy	$14                     ; 0x2014 <main+0x378>
    2938: 84 12        	sty	$12                     ; 0x2012 <main+0x376>
    293a: a4 15        	ldy	$15                     ; 0x2015 <main+0x379>
    293c: 84 13        	sty	$13                     ; 0x2013 <main+0x377>
    293e: 7a           	ply
    293f: 92 12        	sta	($12)                   ; 0x2012 <main+0x376>
    2941: c8           	iny
    2942: d0 01        	bne	$2945 <main+0xca9>
    2944: e8           	inx
    2945: c0 19        	cpy	#$19
    2947: d0 d9        	bne	$2922 <main+0xc86>
    2949: ae e7 57     	ldx	$57e7                   ; 0x57e7 <theFile>
    294c: ac e8 57     	ldy	$57e8                   ; 0x57e8 <theFile+0x1>
    294f: 86 12        	stx	$12                     ; 0x2012 <main+0x376>
    2951: 84 13        	sty	$13                     ; 0x2013 <main+0x377>
    2953: b2 12        	lda	($12)                   ; 0x2012 <main+0x376>
    2955: 85 f3        	sta	$f3                     ; 0x20f3 <main+0x457>
    2957: a2 3b        	ldx	#$3b
    2959: 86 26        	stx	$26                     ; 0x2026 <main+0x38a>
    295b: a2 00        	ldx	#$0
    295d: 86 27        	stx	$27                     ; 0x2027 <main+0x38b>
    295f: 20 68 ff     	jsr	$ff68 <__heap_start+0xa778>
    2962: 92 24        	sta	($24)                   ; 0x2024 <main+0x388>
    2964: a9 00        	lda	#$0
    2966: 6a           	ror
    2967: 85 26        	sta	$26                     ; 0x2026 <main+0x38a>
    2969: 20 eb 3f     	jsr	$3feb <free>
    296c: 64 34        	stz	$34                     ; 0x2034 <main+0x398>
    296e: 20 00 ff     	jsr	$ff00 <__heap_start+0xa710>
    2971: 92 24        	sta	($24)                   ; 0x2024 <main+0x388>
    2973: a9 00        	lda	#$0
    2975: 6a           	ror
    2976: 85 26        	sta	$26                     ; 0x2026 <main+0x38a>
    2978: a6 34        	ldx	$34                     ; 0x2034 <main+0x398>
    297a: e0 32        	cpx	#$32
    297c: f0 04        	beq	$2982 <main+0xce6>
    297e: e0 38        	cpx	#$38
    2980: d0 ea        	bne	$296c <main+0xcd0>
    2982: 78           	sei
    2983: a2 07        	ldx	#$7
    2985: 86 0f        	stx	$f                      ; 0x200f <main+0x373>
    2987: a2 de        	ldx	#$de
    2989: 8e a2 d6     	stx	$d6a2                   ; 0xd6a2 <__heap_start+0x7eb2>
    298c: a2 ad        	ldx	#$ad
    298e: 8e a3 d6     	stx	$d6a3                   ; 0xd6a3 <__heap_start+0x7eb3>
    2991: a2 f0        	ldx	#$f0
    2993: 8e a0 d6     	stx	$d6a0                   ; 0xd6a0 <__heap_start+0x7eb0>
    2996: 9c a0 d6     	stz	$d6a0                   ; 0xd6a0 <__heap_start+0x7eb0>
    2999: 6c fc ff     	jmp	($fffc)                 ; 0xfffc <__heap_start+0xa80c>
    299c: a2 00        	ldx	#$0
    299e: 8a           	txa
    299f: 85 20        	sta	$20                     ; 0x2020 <main+0x384>
    29a1: a0 06        	ldy	#$6
    29a3: b1 10        	lda	($10),y                 ; 0x2010 <main+0x374>
    29a5: 85 2c        	sta	$2c                     ; 0x202c <main+0x390>
    29a7: c8           	iny
    29a8: b1 10        	lda	($10),y                 ; 0x2010 <main+0x374>
    29aa: 85 2b        	sta	$2b                     ; 0x202b <main+0x38f>
    29ac: c8           	iny
    29ad: b1 10        	lda	($10),y                 ; 0x2010 <main+0x374>
    29af: 85 2a        	sta	$2a                     ; 0x202a <main+0x38e>
    29b1: c8           	iny
    29b2: b1 10        	lda	($10),y                 ; 0x2010 <main+0x374>
    29b4: 85 29        	sta	$29                     ; 0x2029 <main+0x38d>
    29b6: c8           	iny
    29b7: b1 10        	lda	($10),y                 ; 0x2010 <main+0x374>
    29b9: 85 28        	sta	$28                     ; 0x2028 <main+0x38c>
    29bb: 7a           	ply
    29bc: 84 27        	sty	$27                     ; 0x2027 <main+0x38b>
    29be: 7a           	ply
    29bf: 84 26        	sty	$26                     ; 0x2026 <main+0x38a>
    29c1: 7a           	ply
    29c2: 84 25        	sty	$25                     ; 0x2025 <main+0x389>
    29c4: 7a           	ply
    29c5: 84 24        	sty	$24                     ; 0x2024 <main+0x388>
    29c7: 18           	clc
    29c8: a5 10        	lda	$10                     ; 0x2010 <main+0x374>
    29ca: 69 85        	adc	#$85
    29cc: 85 10        	sta	$10                     ; 0x2010 <main+0x374>
    29ce: a5 11        	lda	$11                     ; 0x2011 <main+0x375>
    29d0: 69 00        	adc	#$0
    29d2: 85 11        	sta	$11                     ; 0x2011 <main+0x375>
    29d4: a5 20        	lda	$20                     ; 0x2020 <main+0x384>
    29d6: 60           	rts
    29d7: a2 27        	ldx	#$27
    29d9: 80 02        	bra	$29dd <main+0xd41>
    29db: a2 18        	ldx	#$18
    29dd: 8a           	txa
    29de: a0 0b        	ldy	#$b
    29e0: 91 10        	sta	($10),y                 ; 0x2010 <main+0x374>
    29e2: 64 3c        	stz	$3c                     ; 0x203c <main+0x3a0>
    29e4: 9c 14 d0     	stz	$d014                   ; 0xd014 <__heap_start+0x7824>
    29e7: 9c 15 d0     	stz	$d015                   ; 0xd015 <__heap_start+0x7825>
    29ea: 64 3d        	stz	$3d                     ; 0x203d <main+0x3a1>
    29ec: 9c 16 d0     	stz	$d016                   ; 0xd016 <__heap_start+0x7826>
    29ef: 9c 17 d0     	stz	$d017                   ; 0xd017 <__heap_start+0x7827>
    29f2: a2 aa        	ldx	#$aa
    29f4: 86 12        	stx	$12                     ; 0x2012 <main+0x376>
    29f6: a2 42        	ldx	#$42
    29f8: 86 13        	stx	$13                     ; 0x2013 <main+0x377>
    29fa: 20 d5 3a     	jsr	$3ad5 <printf>
    29fd: 64 3c        	stz	$3c                     ; 0x203c <main+0x3a0>
    29ff: 9c 14 d0     	stz	$d014                   ; 0xd014 <__heap_start+0x7824>
    2a02: 9c 15 d0     	stz	$d015                   ; 0xd015 <__heap_start+0x7825>
    2a05: a0 0b        	ldy	#$b
    2a07: b1 10        	lda	($10),y                 ; 0x2010 <main+0x374>
    2a09: 85 3d        	sta	$3d                     ; 0x203d <main+0x3a1>
    2a0b: 8d 16 d0     	sta	$d016                   ; 0xd016 <__heap_start+0x7826>
    2a0e: 9c 17 d0     	stz	$d017                   ; 0xd017 <__heap_start+0x7827>
    2a11: a2 aa        	ldx	#$aa
    2a13: 86 12        	stx	$12                     ; 0x2012 <main+0x376>
    2a15: a2 42        	ldx	#$42
    2a17: 86 13        	stx	$13                     ; 0x2013 <main+0x377>
    2a19: 20 d5 3a     	jsr	$3ad5 <printf>
    2a1c: ae e7 57     	ldx	$57e7                   ; 0x57e7 <theFile>
    2a1f: ac e8 57     	ldy	$57e8                   ; 0x57e8 <theFile+0x1>
    2a22: 86 12        	stx	$12                     ; 0x2012 <main+0x376>
    2a24: 84 13        	sty	$13                     ; 0x2013 <main+0x377>
    2a26: b2 12        	lda	($12)                   ; 0x2012 <main+0x376>
    2a28: 85 f3        	sta	$f3                     ; 0x20f3 <main+0x457>
    2a2a: a2 3b        	ldx	#$3b
    2a2c: 86 26        	stx	$26                     ; 0x2026 <main+0x38a>
    2a2e: a2 00        	ldx	#$0
    2a30: 86 27        	stx	$27                     ; 0x2027 <main+0x38b>
    2a32: 20 68 ff     	jsr	$ff68 <__heap_start+0xa778>
    2a35: 92 24        	sta	($24)                   ; 0x2024 <main+0x388>
    2a37: a9 00        	lda	#$0
    2a39: 6a           	ror
    2a3a: 85 26        	sta	$26                     ; 0x2026 <main+0x38a>
    2a3c: 20 eb 3f     	jsr	$3feb <free>
    2a3f: 64 34        	stz	$34                     ; 0x2034 <main+0x398>
    2a41: 20 00 ff     	jsr	$ff00 <__heap_start+0xa710>
    2a44: 92 24        	sta	($24)                   ; 0x2024 <main+0x388>
    2a46: a9 00        	lda	#$0
    2a48: 6a           	ror
    2a49: 85 26        	sta	$26                     ; 0x2026 <main+0x38a>
    2a4b: a6 34        	ldx	$34                     ; 0x2034 <main+0x398>
    2a4d: e0 38        	cpx	#$38
    2a4f: f0 04        	beq	$2a55 <main+0xdb9>
    2a51: e0 32        	cpx	#$32
    2a53: d0 ea        	bne	$2a3f <main+0xda3>
    2a55: a2 d4        	ldx	#$d4
    2a57: a0 00        	ldy	#$0
    2a59: 98           	tya
    2a5a: 18           	clc
    2a5b: 69 00        	adc	#$0
    2a5d: 85 14        	sta	$14                     ; 0x2014 <main+0x378>
    2a5f: 8a           	txa
    2a60: 69 01        	adc	#$1
    2a62: 85 15        	sta	$15                     ; 0x2015 <main+0x379>
    2a64: 84 12        	sty	$12                     ; 0x2012 <main+0x376>
    2a66: 86 13        	stx	$13                     ; 0x2013 <main+0x377>
    2a68: a9 00        	lda	#$0
    2a6a: 92 12        	sta	($12)                   ; 0x2012 <main+0x376>
    2a6c: 5a           	phy
    2a6d: a4 14        	ldy	$14                     ; 0x2014 <main+0x378>
    2a6f: 84 12        	sty	$12                     ; 0x2012 <main+0x376>
    2a71: a4 15        	ldy	$15                     ; 0x2015 <main+0x379>
    2a73: 84 13        	sty	$13                     ; 0x2013 <main+0x377>
    2a75: 7a           	ply
    2a76: 92 12        	sta	($12)                   ; 0x2012 <main+0x376>
    2a78: c8           	iny
    2a79: d0 01        	bne	$2a7c <main+0xde0>
    2a7b: e8           	inx
    2a7c: c0 19        	cpy	#$19
    2a7e: d0 d9        	bne	$2a59 <main+0xdbd>
    2a80: 4c 36 23     	jmp	$2336 <main+0x69a>

00002a83 <fileOpen>:
    2a83: ac 78 45     	ldy	$4578                   ; 0x4578 <name>
    2a86: 64 16        	stz	$16                     ; 0x2016 <main+0x37a>
    2a88: a2 78        	ldx	#$78
    2a8a: 86 12        	stx	$12                     ; 0x2012 <main+0x376>
    2a8c: a2 45        	ldx	#$45
    2a8e: 86 13        	stx	$13                     ; 0x2013 <main+0x377>
    2a90: 98           	tya
    2a91: f0 30        	beq	$2ac3 <fileOpen+0x40>
    2a93: 84 18        	sty	$18                     ; 0x2018 <main+0x37c>
    2a95: 64 14        	stz	$14                     ; 0x2014 <main+0x378>
    2a97: 64 15        	stz	$15                     ; 0x2015 <main+0x379>
    2a99: a4 14        	ldy	$14                     ; 0x2014 <main+0x378>
    2a9b: a6 15        	ldx	$15                     ; 0x2015 <main+0x379>
    2a9d: c8           	iny
    2a9e: d0 01        	bne	$2aa1 <fileOpen+0x1e>
    2aa0: e8           	inx
    2aa1: a9 79        	lda	#$79
    2aa3: 18           	clc
    2aa4: 65 14        	adc	$14                     ; 0x2014 <main+0x378>
    2aa6: 85 14        	sta	$14                     ; 0x2014 <main+0x378>
    2aa8: a9 45        	lda	#$45
    2aaa: 65 15        	adc	$15                     ; 0x2015 <main+0x379>
    2aac: 85 15        	sta	$15                     ; 0x2015 <main+0x379>
    2aae: b2 14        	lda	($14)                   ; 0x2014 <main+0x378>
    2ab0: 84 14        	sty	$14                     ; 0x2014 <main+0x378>
    2ab2: 86 15        	stx	$15                     ; 0x2015 <main+0x379>
    2ab4: d0 e3        	bne	$2a99 <fileOpen+0x16>
    2ab6: 8a           	txa
    2ab7: d0 0e        	bne	$2ac7 <fileOpen+0x44>
    2ab9: c0 02        	cpy	#$2
    2abb: b0 0e        	bcs	$2acb <fileOpen+0x48>
    2abd: 64 17        	stz	$17                     ; 0x2017 <main+0x37b>
    2abf: 64 16        	stz	$16                     ; 0x2016 <main+0x37a>
    2ac1: 80 2a        	bra	$2aed <fileOpen+0x6a>
    2ac3: 64 17        	stz	$17                     ; 0x2017 <main+0x37b>
    2ac5: 80 26        	bra	$2aed <fileOpen+0x6a>
    2ac7: e0 00        	cpx	#$0
    2ac9: 90 f2        	bcc	$2abd <fileOpen+0x3a>
    2acb: 64 16        	stz	$16                     ; 0x2016 <main+0x37a>
    2acd: ae 79 45     	ldx	$4579                   ; 0x4579 <name+0x1>
    2ad0: 64 17        	stz	$17                     ; 0x2017 <main+0x37b>
    2ad2: e0 3a        	cpx	#$3a
    2ad4: d0 17        	bne	$2aed <fileOpen+0x6a>
    2ad6: a5 18        	lda	$18                     ; 0x2018 <main+0x37c>
    2ad8: c9 30        	cmp	#$30
    2ada: 90 09        	bcc	$2ae5 <fileOpen+0x62>
    2adc: c9 38        	cmp	#$38
    2ade: b0 05        	bcs	$2ae5 <fileOpen+0x62>
    2ae0: 18           	clc
    2ae1: 69 d0        	adc	#$d0
    2ae3: 85 17        	sta	$17                     ; 0x2017 <main+0x37b>
    2ae5: a2 7a        	ldx	#$7a
    2ae7: 86 12        	stx	$12                     ; 0x2012 <main+0x376>
    2ae9: a2 45        	ldx	#$45
    2aeb: 86 13        	stx	$13                     ; 0x2013 <main+0x377>
    2aed: a2 68        	ldx	#$68
    2aef: 86 14        	stx	$14                     ; 0x2014 <main+0x378>
    2af1: a2 43        	ldx	#$43
    2af3: 86 15        	stx	$15                     ; 0x2015 <main+0x379>
    2af5: 80 0a        	bra	$2b01 <fileOpen+0x7e>
    2af7: a2 02        	ldx	#$2
    2af9: e6 14        	inc	$14                     ; 0x2014 <main+0x378>
    2afb: d0 02        	bne	$2aff <fileOpen+0x7c>
    2afd: e6 15        	inc	$15                     ; 0x2015 <main+0x379>
    2aff: 86 16        	stx	$16                     ; 0x2016 <main+0x37a>
    2b01: b2 14        	lda	($14)                   ; 0x2014 <main+0x378>
    2b03: c9 61        	cmp	#$61
    2b05: f0 f0        	beq	$2af7 <fileOpen+0x74>
    2b07: a2 01        	ldx	#$1
    2b09: c9 77        	cmp	#$77
    2b0b: f0 ec        	beq	$2af9 <fileOpen+0x76>
    2b0d: aa           	tax
    2b0e: f0 04        	beq	$2b14 <fileOpen+0x91>
    2b10: a6 16        	ldx	$16                     ; 0x2016 <main+0x37a>
    2b12: 80 e5        	bra	$2af9 <fileOpen+0x76>
    2b14: a6 17        	ldx	$17                     ; 0x2017 <main+0x37b>
    2b16: 86 19        	stx	$19                     ; 0x2019 <main+0x37d>
    2b18: a6 16        	ldx	$16                     ; 0x2016 <main+0x37a>
    2b1a: 86 18        	stx	$18                     ; 0x2018 <main+0x37c>
    2b1c: a6 12        	ldx	$12                     ; 0x2012 <main+0x376>
    2b1e: a4 13        	ldy	$13                     ; 0x2013 <main+0x377>
    2b20: 86 fb        	stx	$fb                     ; 0x20fb <main+0x45f>
    2b22: 84 fc        	sty	$fc                     ; 0x20fc <main+0x460>
    2b24: b2 12        	lda	($12)                   ; 0x2012 <main+0x376>
    2b26: f0 2b        	beq	$2b53 <fileOpen+0xd0>
    2b28: 64 15        	stz	$15                     ; 0x2015 <main+0x379>
    2b2a: a0 01        	ldy	#$1
    2b2c: a9 00        	lda	#$0
    2b2e: 64 14        	stz	$14                     ; 0x2014 <main+0x378>
    2b30: a6 15        	ldx	$15                     ; 0x2015 <main+0x379>
    2b32: e6 15        	inc	$15                     ; 0x2015 <main+0x379>
    2b34: d0 02        	bne	$2b38 <fileOpen+0xb5>
    2b36: e6 14        	inc	$14                     ; 0x2014 <main+0x378>
    2b38: 18           	clc
    2b39: 85 17        	sta	$17                     ; 0x2017 <main+0x37b>
    2b3b: 8a           	txa
    2b3c: 65 12        	adc	$12                     ; 0x2012 <main+0x376>
    2b3e: 85 16        	sta	$16                     ; 0x2016 <main+0x37a>
    2b40: a5 17        	lda	$17                     ; 0x2017 <main+0x37b>
    2b42: 65 13        	adc	$13                     ; 0x2013 <main+0x377>
    2b44: 85 17        	sta	$17                     ; 0x2017 <main+0x37b>
    2b46: b1 16        	lda	($16),y                 ; 0x2016 <main+0x37a>
    2b48: aa           	tax
    2b49: a5 14        	lda	$14                     ; 0x2014 <main+0x378>
    2b4b: e0 00        	cpx	#$0
    2b4d: d0 e1        	bne	$2b30 <fileOpen+0xad>
    2b4f: a6 15        	ldx	$15                     ; 0x2015 <main+0x379>
    2b51: 80 02        	bra	$2b55 <fileOpen+0xd2>
    2b53: a2 00        	ldx	#$0
    2b55: 86 fd        	stx	$fd                     ; 0x20fd <main+0x461>
    2b57: a6 19        	ldx	$19                     ; 0x2019 <main+0x37d>
    2b59: 86 f3        	stx	$f3                     ; 0x20f3 <main+0x457>
    2b5b: a6 18        	ldx	$18                     ; 0x2018 <main+0x37c>
    2b5d: 86 f5        	stx	$f5                     ; 0x20f5 <main+0x459>
    2b5f: a2 48        	ldx	#$48
    2b61: a0 00        	ldy	#$0
    2b63: 86 12        	stx	$12                     ; 0x2012 <main+0x376>
    2b65: 84 13        	sty	$13                     ; 0x2013 <main+0x377>
    2b67: a2 3b        	ldx	#$3b
    2b69: 86 14        	stx	$14                     ; 0x2014 <main+0x378>
    2b6b: a2 00        	ldx	#$0
    2b6d: 86 15        	stx	$15                     ; 0x2015 <main+0x379>
    2b6f: 20 5c ff     	jsr	$ff5c <__heap_start+0xa76c>
    2b72: 92 12        	sta	($12)                   ; 0x2012 <main+0x376>
    2b74: a9 00        	lda	#$0
    2b76: 6a           	ror
    2b77: 85 14        	sta	$14                     ; 0x2014 <main+0x378>
    2b79: a6 3b        	ldx	$3b                     ; 0x203b <main+0x39f>
    2b7b: a0 00        	ldy	#$0
    2b7d: 84 12        	sty	$12                     ; 0x2012 <main+0x376>
    2b7f: a0 00        	ldy	#$0
    2b81: 84 13        	sty	$13                     ; 0x2013 <main+0x377>
    2b83: 8a           	txa
    2b84: f0 01        	beq	$2b87 <fileOpen+0x104>
    2b86: 60           	rts
    2b87: a6 48        	ldx	$48                     ; 0x2048 <main+0x3ac>
    2b89: 86 4a        	stx	$4a                     ; 0x204a <main+0x3ae>
    2b8b: a2 49        	ldx	#$49
    2b8d: a0 00        	ldy	#$0
    2b8f: 86 16        	stx	$16                     ; 0x2016 <main+0x37a>
    2b91: 84 17        	sty	$17                     ; 0x2017 <main+0x37b>
    2b93: 64 34        	stz	$34                     ; 0x2034 <main+0x398>
    2b95: 20 00 ff     	jsr	$ff00 <__heap_start+0xa710>
    2b98: 92 16        	sta	($16)                   ; 0x2016 <main+0x37a>
    2b9a: a9 00        	lda	#$0
    2b9c: 6a           	ror
    2b9d: 85 14        	sta	$14                     ; 0x2014 <main+0x378>
    2b9f: a6 34        	ldx	$34                     ; 0x2034 <main+0x398>
    2ba1: e0 28        	cpx	#$28
    2ba3: f0 e1        	beq	$2b86 <fileOpen+0x103>
    2ba5: e0 38        	cpx	#$38
    2ba7: f0 dd        	beq	$2b86 <fileOpen+0x103>
    2ba9: e0 2a        	cpx	#$2a
    2bab: d0 e6        	bne	$2b93 <fileOpen+0x110>
    2bad: a9 01        	lda	#$1
    2baf: a2 00        	ldx	#$0
    2bb1: 20 16 3e     	jsr	$3e16 <malloc>
    2bb4: a5 4a        	lda	$4a                     ; 0x204a <main+0x3ae>
    2bb6: 92 12        	sta	($12)                   ; 0x2012 <main+0x376>
    2bb8: 60           	rts

00002bb9 <fileOpenDir>:
    2bb9: b2 12        	lda	($12)                   ; 0x2012 <main+0x376>
    2bbb: a0 00        	ldy	#$0
    2bbd: aa           	tax
    2bbe: d0 03        	bne	$2bc3 <fileOpenDir+0xa>
    2bc0: 4c 1b 2c     	jmp	$2c1b <fileOpenDir+0x62>
    2bc3: 85 16        	sta	$16                     ; 0x2016 <main+0x37a>
    2bc5: a2 00        	ldx	#$0
    2bc7: 86 14        	stx	$14                     ; 0x2014 <main+0x378>
    2bc9: 98           	tya
    2bca: c8           	iny
    2bcb: d0 01        	bne	$2bce <fileOpenDir+0x15>
    2bcd: e8           	inx
    2bce: 18           	clc
    2bcf: 65 12        	adc	$12                     ; 0x2012 <main+0x376>
    2bd1: 85 18        	sta	$18                     ; 0x2018 <main+0x37c>
    2bd3: a5 14        	lda	$14                     ; 0x2014 <main+0x378>
    2bd5: 65 13        	adc	$13                     ; 0x2013 <main+0x377>
    2bd7: 84 17        	sty	$17                     ; 0x2017 <main+0x37b>
    2bd9: a4 18        	ldy	$18                     ; 0x2018 <main+0x37c>
    2bdb: 84 14        	sty	$14                     ; 0x2014 <main+0x378>
    2bdd: 85 15        	sta	$15                     ; 0x2015 <main+0x379>
    2bdf: a0 01        	ldy	#$1
    2be1: b1 14        	lda	($14),y                 ; 0x2014 <main+0x378>
    2be3: a4 17        	ldy	$17                     ; 0x2017 <main+0x37b>
    2be5: c9 00        	cmp	#$0
    2be7: d0 de        	bne	$2bc7 <fileOpenDir+0xe>
    2be9: 8a           	txa
    2bea: d0 06        	bne	$2bf2 <fileOpenDir+0x39>
    2bec: c0 02        	cpy	#$2
    2bee: b0 06        	bcs	$2bf6 <fileOpenDir+0x3d>
    2bf0: 80 30        	bra	$2c22 <fileOpenDir+0x69>
    2bf2: e0 00        	cpx	#$0
    2bf4: 90 2c        	bcc	$2c22 <fileOpenDir+0x69>
    2bf6: a0 01        	ldy	#$1
    2bf8: b1 12        	lda	($12),y                 ; 0x2012 <main+0x376>
    2bfa: c9 3a        	cmp	#$3a
    2bfc: d0 24        	bne	$2c22 <fileOpenDir+0x69>
    2bfe: a5 16        	lda	$16                     ; 0x2016 <main+0x37a>
    2c00: c9 30        	cmp	#$30
    2c02: a0 00        	ldy	#$0
    2c04: 90 08        	bcc	$2c0e <fileOpenDir+0x55>
    2c06: c9 38        	cmp	#$38
    2c08: b0 04        	bcs	$2c0e <fileOpenDir+0x55>
    2c0a: 18           	clc
    2c0b: 69 d0        	adc	#$d0
    2c0d: a8           	tay
    2c0e: a5 12        	lda	$12                     ; 0x2012 <main+0x376>
    2c10: 18           	clc
    2c11: 69 02        	adc	#$2
    2c13: 85 12        	sta	$12                     ; 0x2012 <main+0x376>
    2c15: a5 13        	lda	$13                     ; 0x2013 <main+0x377>
    2c17: 69 00        	adc	#$0
    2c19: 85 13        	sta	$13                     ; 0x2013 <main+0x377>
    2c1b: b6 3e        	ldx	$3e,y                   ; 0x203e <main+0x3a2>
    2c1d: f0 0c        	beq	$2c2b <fileOpenDir+0x72>
    2c1f: 4c 8d 2c     	jmp	$2c8d <fileOpenDir+0xd4>
    2c22: a0 00        	ldy	#$0
    2c24: b6 3e        	ldx	$3e,y                   ; 0x203e <main+0x3a2>
    2c26: f0 03        	beq	$2c2b <fileOpenDir+0x72>
    2c28: 4c 8d 2c     	jmp	$2c8d <fileOpenDir+0xd4>
    2c2b: 84 18        	sty	$18                     ; 0x2018 <main+0x37c>
    2c2d: 84 f3        	sty	$f3                     ; 0x20f3 <main+0x457>
    2c2f: a6 12        	ldx	$12                     ; 0x2012 <main+0x376>
    2c31: a4 13        	ldy	$13                     ; 0x2013 <main+0x377>
    2c33: 86 fb        	stx	$fb                     ; 0x20fb <main+0x45f>
    2c35: 84 fc        	sty	$fc                     ; 0x20fc <main+0x460>
    2c37: b2 12        	lda	($12)                   ; 0x2012 <main+0x376>
    2c39: f0 30        	beq	$2c6b <fileOpenDir+0xb2>
    2c3b: 64 14        	stz	$14                     ; 0x2014 <main+0x378>
    2c3d: a0 01        	ldy	#$1
    2c3f: a9 00        	lda	#$0
    2c41: aa           	tax
    2c42: 5a           	phy
    2c43: a4 14        	ldy	$14                     ; 0x2014 <main+0x378>
    2c45: 84 15        	sty	$15                     ; 0x2015 <main+0x379>
    2c47: 7a           	ply
    2c48: e6 14        	inc	$14                     ; 0x2014 <main+0x378>
    2c4a: d0 01        	bne	$2c4d <fileOpenDir+0x94>
    2c4c: e8           	inx
    2c4d: 18           	clc
    2c4e: 85 17        	sta	$17                     ; 0x2017 <main+0x37b>
    2c50: a5 15        	lda	$15                     ; 0x2015 <main+0x379>
    2c52: 65 12        	adc	$12                     ; 0x2012 <main+0x376>
    2c54: 85 16        	sta	$16                     ; 0x2016 <main+0x37a>
    2c56: a5 17        	lda	$17                     ; 0x2017 <main+0x37b>
    2c58: 65 13        	adc	$13                     ; 0x2013 <main+0x377>
    2c5a: 85 17        	sta	$17                     ; 0x2017 <main+0x37b>
    2c5c: b1 16        	lda	($16),y                 ; 0x2016 <main+0x37a>
    2c5e: 85 15        	sta	$15                     ; 0x2015 <main+0x379>
    2c60: 8a           	txa
    2c61: e6 15        	inc	$15                     ; 0x2015 <main+0x379>
    2c63: c6 15        	dec	$15                     ; 0x2015 <main+0x379>
    2c65: d0 db        	bne	$2c42 <fileOpenDir+0x89>
    2c67: a6 14        	ldx	$14                     ; 0x2014 <main+0x378>
    2c69: 80 02        	bra	$2c6d <fileOpenDir+0xb4>
    2c6b: a2 00        	ldx	#$0
    2c6d: 86 fd        	stx	$fd                     ; 0x20fd <main+0x461>
    2c6f: a2 5a        	ldx	#$5a
    2c71: a0 00        	ldy	#$0
    2c73: 86 12        	stx	$12                     ; 0x2012 <main+0x376>
    2c75: 84 13        	sty	$13                     ; 0x2013 <main+0x377>
    2c77: a2 3b        	ldx	#$3b
    2c79: 86 14        	stx	$14                     ; 0x2014 <main+0x378>
    2c7b: a2 00        	ldx	#$0
    2c7d: 86 15        	stx	$15                     ; 0x2015 <main+0x379>
    2c7f: 20 78 ff     	jsr	$ff78 <__heap_start+0xa788>
    2c82: 92 12        	sta	($12)                   ; 0x2012 <main+0x376>
    2c84: a9 00        	lda	#$0
    2c86: 6a           	ror
    2c87: 85 14        	sta	$14                     ; 0x2014 <main+0x378>
    2c89: a6 3b        	ldx	$3b                     ; 0x203b <main+0x39f>
    2c8b: f0 09        	beq	$2c96 <fileOpenDir+0xdd>
    2c8d: a2 00        	ldx	#$0
    2c8f: 86 12        	stx	$12                     ; 0x2012 <main+0x376>
    2c91: a2 00        	ldx	#$0
    2c93: 86 13        	stx	$13                     ; 0x2013 <main+0x377>
    2c95: 60           	rts
    2c96: a9 3e        	lda	#$3e
    2c98: 18           	clc
    2c99: 65 18        	adc	$18                     ; 0x2018 <main+0x37c>
    2c9b: 85 12        	sta	$12                     ; 0x2012 <main+0x376>
    2c9d: a9 00        	lda	#$0
    2c9f: 69 00        	adc	#$0
    2ca1: 85 13        	sta	$13                     ; 0x2013 <main+0x377>
    2ca3: a6 5a        	ldx	$5a                     ; 0x205a <main+0x3be>
    2ca5: 86 19        	stx	$19                     ; 0x2019 <main+0x37d>
    2ca7: a2 5b        	ldx	#$5b
    2ca9: a0 00        	ldy	#$0
    2cab: 86 16        	stx	$16                     ; 0x2016 <main+0x37a>
    2cad: 84 17        	sty	$17                     ; 0x2017 <main+0x37b>
    2caf: 64 34        	stz	$34                     ; 0x2034 <main+0x398>
    2cb1: 20 00 ff     	jsr	$ff00 <__heap_start+0xa710>
    2cb4: 92 16        	sta	($16)                   ; 0x2016 <main+0x37a>
    2cb6: a9 00        	lda	#$0
    2cb8: 6a           	ror
    2cb9: 85 14        	sta	$14                     ; 0x2014 <main+0x378>
    2cbb: a6 34        	ldx	$34                     ; 0x2034 <main+0x398>
    2cbd: e0 48        	cpx	#$48
    2cbf: f0 cc        	beq	$2c8d <fileOpenDir+0xd4>
    2cc1: e0 3c        	cpx	#$3c
    2cc3: d0 ea        	bne	$2caf <fileOpenDir+0xf6>
    2cc5: a6 18        	ldx	$18                     ; 0x2018 <main+0x37c>
    2cc7: a5 19        	lda	$19                     ; 0x2019 <main+0x37d>
    2cc9: 9d 3e 00     	sta	$3e,x                   ; 0x3e <_dirStream>
    2ccc: 60           	rts

00002ccd <textGotoXY>:
    2ccd: 85 3c        	sta	$3c                     ; 0x203c <main+0x3a0>
    2ccf: 8d 14 d0     	sta	$d014                   ; 0xd014 <__heap_start+0x7824>
    2cd2: 9c 15 d0     	stz	$d015                   ; 0xd015 <__heap_start+0x7825>
    2cd5: 86 3d        	stx	$3d                     ; 0x203d <main+0x3a1>
    2cd7: 8e 16 d0     	stx	$d016                   ; 0xd016 <__heap_start+0x7826>
    2cda: 9c 17 d0     	stz	$d017                   ; 0xd017 <__heap_start+0x7827>
    2cdd: 60           	rts

00002cde <fileReadDir>:
    2cde: b2 12        	lda	($12)                   ; 0x2012 <main+0x376>
    2ce0: 85 f3        	sta	$f3                     ; 0x20f3 <main+0x457>
    2ce2: a2 5a        	ldx	#$5a
    2ce4: a0 00        	ldy	#$0
    2ce6: 86 14        	stx	$14                     ; 0x2014 <main+0x378>
    2ce8: 84 15        	sty	$15                     ; 0x2015 <main+0x379>
    2cea: a2 3b        	ldx	#$3b
    2cec: 86 16        	stx	$16                     ; 0x2016 <main+0x37a>
    2cee: a2 00        	ldx	#$0
    2cf0: 86 17        	stx	$17                     ; 0x2017 <main+0x37b>
    2cf2: 20 7c ff     	jsr	$ff7c <__heap_start+0xa78c>
    2cf5: 92 14        	sta	($14)                   ; 0x2014 <main+0x378>
    2cf7: a9 00        	lda	#$0
    2cf9: 6a           	ror
    2cfa: 85 16        	sta	$16                     ; 0x2016 <main+0x37a>
    2cfc: a6 3b        	ldx	$3b                     ; 0x203b <main+0x39f>
    2cfe: a0 00        	ldy	#$0
    2d00: 84 14        	sty	$14                     ; 0x2014 <main+0x378>
    2d02: a0 00        	ldy	#$0
    2d04: 84 15        	sty	$15                     ; 0x2015 <main+0x379>
    2d06: 8a           	txa
    2d07: f0 09        	beq	$2d12 <fileReadDir+0x34>
    2d09: a6 14        	ldx	$14                     ; 0x2014 <main+0x378>
    2d0b: 86 12        	stx	$12                     ; 0x2012 <main+0x376>
    2d0d: a6 15        	ldx	$15                     ; 0x2015 <main+0x379>
    2d0f: 86 13        	stx	$13                     ; 0x2013 <main+0x377>
    2d11: 60           	rts
    2d12: a2 5b        	ldx	#$5b
    2d14: a0 00        	ldy	#$0
    2d16: 86 18        	stx	$18                     ; 0x2018 <main+0x37c>
    2d18: 84 19        	sty	$19                     ; 0x2019 <main+0x37d>
    2d1a: a0 00        	ldy	#$0
    2d1c: 80 18        	bra	$2d36 <fileReadDir+0x58>
    2d1e: b2 12        	lda	($12)                   ; 0x2012 <main+0x376>
    2d20: 85 f3        	sta	$f3                     ; 0x20f3 <main+0x457>
    2d22: a2 5d        	ldx	#$5d
    2d24: 86 1a        	stx	$1a                     ; 0x201a <main+0x37e>
    2d26: 84 1b        	sty	$1b                     ; 0x201b <main+0x37f>
    2d28: 20 7c ff     	jsr	$ff7c <__heap_start+0xa78c>
    2d2b: 92 1a        	sta	($1a)                   ; 0x201a <main+0x37e>
    2d2d: a9 00        	lda	#$0
    2d2f: 6a           	ror
    2d30: 85 16        	sta	$16                     ; 0x2016 <main+0x37a>
    2d32: a6 3b        	ldx	$3b                     ; 0x203b <main+0x39f>
    2d34: d0 d3        	bne	$2d09 <fileReadDir+0x2b>
    2d36: 64 34        	stz	$34                     ; 0x2034 <main+0x398>
    2d38: 20 00 ff     	jsr	$ff00 <__heap_start+0xa710>
    2d3b: 92 18        	sta	($18)                   ; 0x2018 <main+0x37c>
    2d3d: a9 00        	lda	#$0
    2d3f: 6a           	ror
    2d40: 85 16        	sta	$16                     ; 0x2016 <main+0x37a>
    2d42: a9 c2        	lda	#$c2
    2d44: 18           	clc
    2d45: 65 34        	adc	$34                     ; 0x2034 <main+0x398>
    2d47: c9 0b        	cmp	#$b
    2d49: b0 eb        	bcs	$2d36 <fileReadDir+0x58>
    2d4b: 0a           	asl
    2d4c: aa           	tax
    2d4d: 7c 54 42     	jmp	($4254,x)               ; 0x4254 <__set_v+0x59>
    2d50: 9c 76 44     	stz	$4476                   ; 0x4476 <fileReadDir.fileDirEntS>
    2d53: a2 02        	ldx	#$2
    2d55: 80 2d        	bra	$2d84 <fileReadDir+0xa6>
    2d57: a2 76        	ldx	#$76
    2d59: a0 44        	ldy	#$44
    2d5b: 86 fb        	stx	$fb                     ; 0x20fb <main+0x45f>
    2d5d: 84 fc        	sty	$fc                     ; 0x20fc <main+0x460>
    2d5f: a2 01        	ldx	#$1
    2d61: 86 fd        	stx	$fd                     ; 0x20fd <main+0x461>
    2d63: a0 5c        	ldy	#$5c
    2d65: a9 00        	lda	#$0
    2d67: 84 12        	sty	$12                     ; 0x2012 <main+0x376>
    2d69: 85 13        	sta	$13                     ; 0x2013 <main+0x377>
    2d6b: a0 3b        	ldy	#$3b
    2d6d: 84 14        	sty	$14                     ; 0x2014 <main+0x378>
    2d6f: a0 00        	ldy	#$0
    2d71: 84 15        	sty	$15                     ; 0x2015 <main+0x379>
    2d73: 20 08 ff     	jsr	$ff08 <__heap_start+0xa718>
    2d76: 92 12        	sta	($12)                   ; 0x2012 <main+0x376>
    2d78: a9 00        	lda	#$0
    2d7a: 6a           	ror
    2d7b: 85 14        	sta	$14                     ; 0x2014 <main+0x378>
    2d7d: ac 76 44     	ldy	$4476                   ; 0x4476 <fileReadDir.fileDirEntS>
    2d80: f0 02        	beq	$2d84 <fileReadDir+0xa6>
    2d82: a2 00        	ldx	#$0
    2d84: 8e 77 44     	stx	$4477                   ; 0x4477 <fileReadDir.fileDirEntS+0x1>
    2d87: a6 39        	ldx	$39                     ; 0x2039 <main+0x39d>
    2d89: f0 24        	beq	$2daf <fileReadDir+0xd1>
    2d8b: a0 78        	ldy	#$78
    2d8d: a9 44        	lda	#$44
    2d8f: 84 fb        	sty	$fb                     ; 0x20fb <main+0x45f>
    2d91: 85 fc        	sta	$fc                     ; 0x20fc <main+0x460>
    2d93: 86 fd        	stx	$fd                     ; 0x20fd <main+0x461>
    2d95: a0 5e        	ldy	#$5e
    2d97: a9 00        	lda	#$0
    2d99: 84 12        	sty	$12                     ; 0x2012 <main+0x376>
    2d9b: 85 13        	sta	$13                     ; 0x2013 <main+0x377>
    2d9d: a0 3b        	ldy	#$3b
    2d9f: 84 14        	sty	$14                     ; 0x2014 <main+0x378>
    2da1: a0 00        	ldy	#$0
    2da3: 84 15        	sty	$15                     ; 0x2015 <main+0x379>
    2da5: 20 04 ff     	jsr	$ff04 <__heap_start+0xa714>
    2da8: 92 12        	sta	($12)                   ; 0x2012 <main+0x376>
    2daa: a9 00        	lda	#$0
    2dac: 6a           	ror
    2dad: 85 14        	sta	$14                     ; 0x2014 <main+0x378>
    2daf: 9e 78 44     	stz	$4478,x                 ; 0x4478 <fileReadDir.fileDirEntS+0x2>
    2db2: a2 76        	ldx	#$76
    2db4: 86 14        	stx	$14                     ; 0x2014 <main+0x378>
    2db6: a2 44        	ldx	#$44
    2db8: 86 15        	stx	$15                     ; 0x2015 <main+0x379>
    2dba: 4c 09 2d     	jmp	$2d09 <fileReadDir+0x2b>

00002dbd <exit>:
    2dbd: 20 1b 03     	jsr	$31b <_fini>
    2dc0: 80 fe        	bra	$2dc0 <exit+0x3>

00002dc2 <_ZN12_GLOBAL__N_15printEPKcP6Status>:
    2dc2: a6 14        	ldx	$14                     ; 0x2014 <main+0x378>
    2dc4: 86 74        	stx	$74                     ; 0x2074 <main+0x3d8>
    2dc6: a6 15        	ldx	$15                     ; 0x2015 <main+0x379>
    2dc8: 86 75        	stx	$75                     ; 0x2075 <main+0x3d9>
    2dca: a6 12        	ldx	$12                     ; 0x2012 <main+0x376>
    2dcc: 86 14        	stx	$14                     ; 0x2014 <main+0x378>
    2dce: a6 13        	ldx	$13                     ; 0x2013 <main+0x377>
    2dd0: 86 15        	stx	$15                     ; 0x2015 <main+0x379>
    2dd2: e6 14        	inc	$14                     ; 0x2014 <main+0x378>
    2dd4: d0 02        	bne	$2dd8 <_ZN12_GLOBAL__N_15printEPKcP6Status+0x16>
    2dd6: e6 15        	inc	$15                     ; 0x2015 <main+0x379>
    2dd8: a0 01        	ldy	#$1
    2dda: b1 12        	lda	($12),y                 ; 0x2012 <main+0x376>
    2ddc: c9 25        	cmp	#$25
    2dde: d0 23        	bne	$2e03 <_ZN12_GLOBAL__N_15printEPKcP6Status+0x41>
    2de0: a9 25        	lda	#$25
    2de2: a6 12        	ldx	$12                     ; 0x2012 <main+0x376>
    2de4: 86 76        	stx	$76                     ; 0x2076 <main+0x3da>
    2de6: a6 13        	ldx	$13                     ; 0x2013 <main+0x377>
    2de8: 86 77        	stx	$77                     ; 0x2077 <main+0x3db>
    2dea: a6 74        	ldx	$74                     ; 0x2074 <main+0x3d8>
    2dec: 86 12        	stx	$12                     ; 0x2012 <main+0x376>
    2dee: a6 75        	ldx	$75                     ; 0x2075 <main+0x3d9>
    2df0: 86 13        	stx	$13                     ; 0x2013 <main+0x377>
    2df2: 20 f6 38     	jsr	$38f6 <_ZN12_GLOBAL__N_13putEcP6Status>
    2df5: a5 76        	lda	$76                     ; 0x2076 <main+0x3da>
    2df7: 18           	clc
    2df8: 69 02        	adc	#$2
    2dfa: 85 12        	sta	$12                     ; 0x2012 <main+0x376>
    2dfc: a5 77        	lda	$77                     ; 0x2077 <main+0x3db>
    2dfe: 69 00        	adc	#$0
    2e00: 85 13        	sta	$13                     ; 0x2013 <main+0x377>
    2e02: 60           	rts
    2e03: 18           	clc
    2e04: a5 74        	lda	$74                     ; 0x2074 <main+0x3d8>
    2e06: 69 0b        	adc	#$b
    2e08: 85 18        	sta	$18                     ; 0x2018 <main+0x37c>
    2e0a: a5 75        	lda	$75                     ; 0x2075 <main+0x3d9>
    2e0c: 69 00        	adc	#$0
    2e0e: 85 19        	sta	$19                     ; 0x2019 <main+0x37d>
    2e10: a2 10        	ldx	#$10
    2e12: 86 9d        	stx	$9d                     ; 0x209d <main+0x401>
    2e14: a9 00        	lda	#$0
    2e16: a0 0b        	ldy	#$b
    2e18: 91 74        	sta	($74),y                 ; 0x2074 <main+0x3d8>
    2e1a: 18           	clc
    2e1b: a5 74        	lda	$74                     ; 0x2074 <main+0x3d8>
    2e1d: 69 0d        	adc	#$d
    2e1f: aa           	tax
    2e20: a5 75        	lda	$75                     ; 0x2075 <main+0x3d9>
    2e22: 69 00        	adc	#$0
    2e24: 86 16        	stx	$16                     ; 0x2016 <main+0x37a>
    2e26: a0 0d        	ldy	#$d
    2e28: 85 17        	sta	$17                     ; 0x2017 <main+0x37b>
    2e2a: a9 ff        	lda	#$ff
    2e2c: 91 74        	sta	($74),y                 ; 0x2074 <main+0x3d8>
    2e2e: a0 01        	ldy	#$1
    2e30: 91 16        	sta	($16),y                 ; 0x2016 <main+0x37a>
    2e32: a2 00        	ldx	#$0
    2e34: 86 a0        	stx	$a0                     ; 0x20a0 <main+0x404>
    2e36: a6 74        	ldx	$74                     ; 0x2074 <main+0x3d8>
    2e38: 86 16        	stx	$16                     ; 0x2016 <main+0x37a>
    2e3a: a6 75        	ldx	$75                     ; 0x2075 <main+0x3d9>
    2e3c: 86 17        	stx	$17                     ; 0x2017 <main+0x37b>
    2e3e: e6 16        	inc	$16                     ; 0x2016 <main+0x37a>
    2e40: d0 02        	bne	$2e44 <_ZN12_GLOBAL__N_15printEPKcP6Status+0x82>
    2e42: e6 17        	inc	$17                     ; 0x2017 <main+0x37b>
    2e44: a9 00        	lda	#$0
    2e46: 91 74        	sta	($74),y                 ; 0x2074 <main+0x3d8>
    2e48: 91 16        	sta	($16),y                 ; 0x2016 <main+0x37a>
    2e4a: 92 74        	sta	($74)                   ; 0x2074 <main+0x3d8>
    2e4c: 91 18        	sta	($18),y                 ; 0x2018 <main+0x37c>
    2e4e: 64 7a        	stz	$7a                     ; 0x207a <main+0x3de>
    2e50: 80 33        	bra	$2e85 <_ZN12_GLOBAL__N_15printEPKcP6Status+0xc3>
    2e52: a2 02        	ldx	#$2
    2e54: 80 15        	bra	$2e6b <_ZN12_GLOBAL__N_15printEPKcP6Status+0xa9>
    2e56: e0 20        	cpx	#$20
    2e58: f0 15        	beq	$2e6f <_ZN12_GLOBAL__N_15printEPKcP6Status+0xad>
    2e5a: 86 19        	stx	$19                     ; 0x2019 <main+0x37d>
    2e5c: e0 23        	cpx	#$23
    2e5e: f0 03        	beq	$2e63 <_ZN12_GLOBAL__N_15printEPKcP6Status+0xa1>
    2e60: 4c d2 2e     	jmp	$2ed2 <_ZN12_GLOBAL__N_15printEPKcP6Status+0x110>
    2e63: a5 7a        	lda	$7a                     ; 0x207a <main+0x3de>
    2e65: a2 04        	ldx	#$4
    2e67: 80 02        	bra	$2e6b <_ZN12_GLOBAL__N_15printEPKcP6Status+0xa9>
    2e69: a2 10        	ldx	#$10
    2e6b: 86 18        	stx	$18                     ; 0x2018 <main+0x37c>
    2e6d: 80 06        	bra	$2e75 <_ZN12_GLOBAL__N_15printEPKcP6Status+0xb3>
    2e6f: a2 08        	ldx	#$8
    2e71: 86 18        	stx	$18                     ; 0x2018 <main+0x37c>
    2e73: a5 7a        	lda	$7a                     ; 0x207a <main+0x3de>
    2e75: 05 18        	ora	$18                     ; 0x2018 <main+0x37c>
    2e77: 85 7a        	sta	$7a                     ; 0x207a <main+0x3de>
    2e79: 91 74        	sta	($74),y                 ; 0x2074 <main+0x3d8>
    2e7b: a9 00        	lda	#$0
    2e7d: 91 16        	sta	($16),y                 ; 0x2016 <main+0x37a>
    2e7f: e6 14        	inc	$14                     ; 0x2014 <main+0x378>
    2e81: d0 02        	bne	$2e85 <_ZN12_GLOBAL__N_15printEPKcP6Status+0xc3>
    2e83: e6 15        	inc	$15                     ; 0x2015 <main+0x379>
    2e85: b2 14        	lda	($14)                   ; 0x2014 <main+0x378>
    2e87: aa           	tax
    2e88: 18           	clc
    2e89: 69 d6        	adc	#$d6
    2e8b: c9 07        	cmp	#$7
    2e8d: b0 c7        	bcs	$2e56 <_ZN12_GLOBAL__N_15printEPKcP6Status+0x94>
    2e8f: 86 19        	stx	$19                     ; 0x2019 <main+0x37d>
    2e91: 0a           	asl
    2e92: aa           	tax
    2e93: a9 01        	lda	#$1
    2e95: 85 18        	sta	$18                     ; 0x2018 <main+0x37c>
    2e97: a5 7a        	lda	$7a                     ; 0x207a <main+0x3de>
    2e99: 7c 6a 42     	jmp	($426a,x)               ; 0x426a <__set_v+0x6f>
    2e9c: a0 11        	ldy	#$11
    2e9e: a5 74        	lda	$74                     ; 0x2074 <main+0x3d8>
    2ea0: 18           	clc
    2ea1: 69 11        	adc	#$11
    2ea3: 85 16        	sta	$16                     ; 0x2016 <main+0x37a>
    2ea5: a5 75        	lda	$75                     ; 0x2075 <main+0x3d9>
    2ea7: 69 00        	adc	#$0
    2ea9: 85 17        	sta	$17                     ; 0x2017 <main+0x37b>
    2eab: b1 74        	lda	($74),y                 ; 0x2074 <main+0x3d8>
    2ead: 85 18        	sta	$18                     ; 0x2018 <main+0x37c>
    2eaf: 18           	clc
    2eb0: 69 02        	adc	#$2
    2eb2: 91 74        	sta	($74),y                 ; 0x2074 <main+0x3d8>
    2eb4: a0 01        	ldy	#$1
    2eb6: b1 16        	lda	($16),y                 ; 0x2016 <main+0x37a>
    2eb8: 85 19        	sta	$19                     ; 0x2019 <main+0x37d>
    2eba: 69 00        	adc	#$0
    2ebc: 91 16        	sta	($16),y                 ; 0x2016 <main+0x37a>
    2ebe: b2 18        	lda	($18)                   ; 0x2018 <main+0x37c>
    2ec0: 85 17        	sta	$17                     ; 0x2017 <main+0x37b>
    2ec2: b1 18        	lda	($18),y                 ; 0x2018 <main+0x37c>
    2ec4: 85 16        	sta	$16                     ; 0x2016 <main+0x37a>
    2ec6: 10 03        	bpl	$2ecb <_ZN12_GLOBAL__N_15printEPKcP6Status+0x109>
    2ec8: 4c 59 2f     	jmp	$2f59 <_ZN12_GLOBAL__N_15printEPKcP6Status+0x197>
    2ecb: a6 17        	ldx	$17                     ; 0x2017 <main+0x37b>
    2ecd: 85 1a        	sta	$1a                     ; 0x201a <main+0x37e>
    2ecf: 4c 83 2f     	jmp	$2f83 <_ZN12_GLOBAL__N_15printEPKcP6Status+0x1c1>
    2ed2: 18           	clc
    2ed3: a5 19        	lda	$19                     ; 0x2019 <main+0x37d>
    2ed5: 69 d0        	adc	#$d0
    2ed7: c9 0a        	cmp	#$a
    2ed9: 90 03        	bcc	$2ede <_ZN12_GLOBAL__N_15printEPKcP6Status+0x11c>
    2edb: 4c 34 2f     	jmp	$2f34 <_ZN12_GLOBAL__N_15printEPKcP6Status+0x172>
    2ede: a6 19        	ldx	$19                     ; 0x2019 <main+0x37d>
    2ee0: 86 16        	stx	$16                     ; 0x2016 <main+0x37a>
    2ee2: 64 18        	stz	$18                     ; 0x2018 <main+0x37c>
    2ee4: a0 01        	ldy	#$1
    2ee6: 64 17        	stz	$17                     ; 0x2017 <main+0x37b>
    2ee8: 64 19        	stz	$19                     ; 0x2019 <main+0x37d>
    2eea: 06 18        	asl	$18                     ; 0x2018 <main+0x37c>
    2eec: 26 19        	rol	$19                     ; 0x2019 <main+0x37d>
    2eee: a5 18        	lda	$18                     ; 0x2018 <main+0x37c>
    2ef0: 0a           	asl
    2ef1: aa           	tax
    2ef2: a5 19        	lda	$19                     ; 0x2019 <main+0x37d>
    2ef4: 2a           	rol
    2ef5: 86 1a        	stx	$1a                     ; 0x201a <main+0x37e>
    2ef7: 06 1a        	asl	$1a                     ; 0x201a <main+0x37e>
    2ef9: 2a           	rol
    2efa: aa           	tax
    2efb: a5 1a        	lda	$1a                     ; 0x201a <main+0x37e>
    2efd: 18           	clc
    2efe: 65 18        	adc	$18                     ; 0x2018 <main+0x37c>
    2f00: 85 18        	sta	$18                     ; 0x2018 <main+0x37c>
    2f02: 8a           	txa
    2f03: 65 19        	adc	$19                     ; 0x2019 <main+0x37d>
    2f05: 85 19        	sta	$19                     ; 0x2019 <main+0x37d>
    2f07: a5 18        	lda	$18                     ; 0x2018 <main+0x37c>
    2f09: 18           	clc
    2f0a: 65 16        	adc	$16                     ; 0x2016 <main+0x37a>
    2f0c: 85 16        	sta	$16                     ; 0x2016 <main+0x37a>
    2f0e: a5 19        	lda	$19                     ; 0x2019 <main+0x37d>
    2f10: 65 17        	adc	$17                     ; 0x2017 <main+0x37b>
    2f12: aa           	tax
    2f13: 18           	clc
    2f14: a5 16        	lda	$16                     ; 0x2016 <main+0x37a>
    2f16: 69 d0        	adc	#$d0
    2f18: 85 18        	sta	$18                     ; 0x2018 <main+0x37c>
    2f1a: 8a           	txa
    2f1b: 69 ff        	adc	#$ff
    2f1d: 85 19        	sta	$19                     ; 0x2019 <main+0x37d>
    2f1f: b1 14        	lda	($14),y                 ; 0x2014 <main+0x378>
    2f21: 85 16        	sta	$16                     ; 0x2016 <main+0x37a>
    2f23: 18           	clc
    2f24: 69 d0        	adc	#$d0
    2f26: e6 14        	inc	$14                     ; 0x2014 <main+0x378>
    2f28: d0 02        	bne	$2f2c <_ZN12_GLOBAL__N_15printEPKcP6Status+0x16a>
    2f2a: e6 15        	inc	$15                     ; 0x2015 <main+0x379>
    2f2c: c9 0a        	cmp	#$a
    2f2e: 64 17        	stz	$17                     ; 0x2017 <main+0x37b>
    2f30: 90 b8        	bcc	$2eea <_ZN12_GLOBAL__N_15printEPKcP6Status+0x128>
    2f32: 80 04        	bra	$2f38 <_ZN12_GLOBAL__N_15printEPKcP6Status+0x176>
    2f34: 64 18        	stz	$18                     ; 0x2018 <main+0x37c>
    2f36: 64 19        	stz	$19                     ; 0x2019 <main+0x37d>
    2f38: a5 74        	lda	$74                     ; 0x2074 <main+0x3d8>
    2f3a: 18           	clc
    2f3b: 69 0b        	adc	#$b
    2f3d: 85 16        	sta	$16                     ; 0x2016 <main+0x37a>
    2f3f: a5 75        	lda	$75                     ; 0x2075 <main+0x3d9>
    2f41: 69 00        	adc	#$0
    2f43: 85 17        	sta	$17                     ; 0x2017 <main+0x37b>
    2f45: a0 0b        	ldy	#$b
    2f47: a5 18        	lda	$18                     ; 0x2018 <main+0x37c>
    2f49: 91 74        	sta	($74),y                 ; 0x2074 <main+0x3d8>
    2f4b: a6 18        	ldx	$18                     ; 0x2018 <main+0x37c>
    2f4d: a0 01        	ldy	#$1
    2f4f: a5 19        	lda	$19                     ; 0x2019 <main+0x37d>
    2f51: 91 16        	sta	($16),y                 ; 0x2016 <main+0x37a>
    2f53: 86 16        	stx	$16                     ; 0x2016 <main+0x37a>
    2f55: 85 17        	sta	$17                     ; 0x2017 <main+0x37b>
    2f57: 80 4c        	bra	$2fa5 <_ZN12_GLOBAL__N_15printEPKcP6Status+0x1e3>
    2f59: a5 7a        	lda	$7a                     ; 0x207a <main+0x3de>
    2f5b: 09 01        	ora	#$1
    2f5d: 85 1b        	sta	$1b                     ; 0x201b <main+0x37f>
    2f5f: a6 74        	ldx	$74                     ; 0x2074 <main+0x3d8>
    2f61: 86 18        	stx	$18                     ; 0x2018 <main+0x37c>
    2f63: a6 75        	ldx	$75                     ; 0x2075 <main+0x3d9>
    2f65: 86 19        	stx	$19                     ; 0x2019 <main+0x37d>
    2f67: 38           	sec
    2f68: a9 00        	lda	#$0
    2f6a: e5 17        	sbc	$17                     ; 0x2017 <main+0x37b>
    2f6c: aa           	tax
    2f6d: a9 00        	lda	#$0
    2f6f: e5 16        	sbc	$16                     ; 0x2016 <main+0x37a>
    2f71: 85 1a        	sta	$1a                     ; 0x201a <main+0x37e>
    2f73: e6 18        	inc	$18                     ; 0x2018 <main+0x37c>
    2f75: d0 02        	bne	$2f79 <_ZN12_GLOBAL__N_15printEPKcP6Status+0x1b7>
    2f77: e6 19        	inc	$19                     ; 0x2019 <main+0x37d>
    2f79: a5 1b        	lda	$1b                     ; 0x201b <main+0x37f>
    2f7b: 85 7a        	sta	$7a                     ; 0x207a <main+0x3de>
    2f7d: 91 74        	sta	($74),y                 ; 0x2074 <main+0x3d8>
    2f7f: a9 00        	lda	#$0
    2f81: 91 18        	sta	($18),y                 ; 0x2018 <main+0x37c>
    2f83: a5 74        	lda	$74                     ; 0x2074 <main+0x3d8>
    2f85: 18           	clc
    2f86: 69 0b        	adc	#$b
    2f88: 85 16        	sta	$16                     ; 0x2016 <main+0x37a>
    2f8a: a5 75        	lda	$75                     ; 0x2075 <main+0x3d9>
    2f8c: 69 00        	adc	#$0
    2f8e: 85 17        	sta	$17                     ; 0x2017 <main+0x37b>
    2f90: a0 0b        	ldy	#$b
    2f92: 8a           	txa
    2f93: 91 74        	sta	($74),y                 ; 0x2074 <main+0x3d8>
    2f95: a5 1a        	lda	$1a                     ; 0x201a <main+0x37e>
    2f97: a0 01        	ldy	#$1
    2f99: 91 16        	sta	($16),y                 ; 0x2016 <main+0x37a>
    2f9b: 86 16        	stx	$16                     ; 0x2016 <main+0x37a>
    2f9d: 85 17        	sta	$17                     ; 0x2017 <main+0x37b>
    2f9f: e6 14        	inc	$14                     ; 0x2014 <main+0x378>
    2fa1: d0 02        	bne	$2fa5 <_ZN12_GLOBAL__N_15printEPKcP6Status+0x1e3>
    2fa3: e6 15        	inc	$15                     ; 0x2015 <main+0x379>
    2fa5: b2 14        	lda	($14)                   ; 0x2014 <main+0x378>
    2fa7: a2 ff        	ldx	#$ff
    2fa9: c9 2e        	cmp	#$2e
    2fab: f0 03        	beq	$2fb0 <_ZN12_GLOBAL__N_15printEPKcP6Status+0x1ee>
    2fad: 4c 2f 30     	jmp	$302f <_ZN12_GLOBAL__N_15printEPKcP6Status+0x26d>
    2fb0: a6 14        	ldx	$14                     ; 0x2014 <main+0x378>
    2fb2: 86 18        	stx	$18                     ; 0x2018 <main+0x37c>
    2fb4: a6 15        	ldx	$15                     ; 0x2015 <main+0x379>
    2fb6: 86 19        	stx	$19                     ; 0x2019 <main+0x37d>
    2fb8: e6 18        	inc	$18                     ; 0x2018 <main+0x37c>
    2fba: d0 02        	bne	$2fbe <_ZN12_GLOBAL__N_15printEPKcP6Status+0x1fc>
    2fbc: e6 19        	inc	$19                     ; 0x2019 <main+0x37d>
    2fbe: b1 14        	lda	($14),y                 ; 0x2014 <main+0x378>
    2fc0: c9 2a        	cmp	#$2a
    2fc2: f0 03        	beq	$2fc7 <_ZN12_GLOBAL__N_15printEPKcP6Status+0x205>
    2fc4: 4c 36 30     	jmp	$3036 <_ZN12_GLOBAL__N_15printEPKcP6Status+0x274>
    2fc7: a0 11        	ldy	#$11
    2fc9: b1 74        	lda	($74),y                 ; 0x2074 <main+0x3d8>
    2fcb: 85 18        	sta	$18                     ; 0x2018 <main+0x37c>
    2fcd: 18           	clc
    2fce: 69 02        	adc	#$2
    2fd0: a2 01        	ldx	#$1
    2fd2: b0 02        	bcs	$2fd6 <_ZN12_GLOBAL__N_15printEPKcP6Status+0x214>
    2fd4: a2 00        	ldx	#$0
    2fd6: 86 1d        	stx	$1d                     ; 0x201d <main+0x381>
    2fd8: 91 74        	sta	($74),y                 ; 0x2074 <main+0x3d8>
    2fda: 18           	clc
    2fdb: a5 74        	lda	$74                     ; 0x2074 <main+0x3d8>
    2fdd: 69 11        	adc	#$11
    2fdf: 85 1a        	sta	$1a                     ; 0x201a <main+0x37e>
    2fe1: a5 75        	lda	$75                     ; 0x2075 <main+0x3d9>
    2fe3: 69 00        	adc	#$0
    2fe5: 85 1b        	sta	$1b                     ; 0x201b <main+0x37f>
    2fe7: a0 01        	ldy	#$1
    2fe9: b1 1a        	lda	($1a),y                 ; 0x201a <main+0x37e>
    2feb: 85 19        	sta	$19                     ; 0x2019 <main+0x37d>
    2fed: a6 1d        	ldx	$1d                     ; 0x201d <main+0x381>
    2fef: e0 01        	cpx	#$1
    2ff1: 69 00        	adc	#$0
    2ff3: 91 1a        	sta	($1a),y                 ; 0x201a <main+0x37e>
    2ff5: b2 18        	lda	($18)                   ; 0x2018 <main+0x37c>
    2ff7: 85 1b        	sta	$1b                     ; 0x201b <main+0x37f>
    2ff9: 18           	clc
    2ffa: a5 74        	lda	$74                     ; 0x2074 <main+0x3d8>
    2ffc: 69 0d        	adc	#$d
    2ffe: 85 1a        	sta	$1a                     ; 0x201a <main+0x37e>
    3000: a5 75        	lda	$75                     ; 0x2075 <main+0x3d9>
    3002: 69 00        	adc	#$0
    3004: aa           	tax
    3005: b1 18        	lda	($18),y                 ; 0x2018 <main+0x37c>
    3007: 85 1c        	sta	$1c                     ; 0x201c <main+0x380>
    3009: a4 1a        	ldy	$1a                     ; 0x201a <main+0x37e>
    300b: 84 18        	sty	$18                     ; 0x2018 <main+0x37c>
    300d: 86 19        	stx	$19                     ; 0x2019 <main+0x37d>
    300f: a5 1b        	lda	$1b                     ; 0x201b <main+0x37f>
    3011: 85 1a        	sta	$1a                     ; 0x201a <main+0x37e>
    3013: a0 0d        	ldy	#$d
    3015: 91 74        	sta	($74),y                 ; 0x2074 <main+0x3d8>
    3017: a5 1c        	lda	$1c                     ; 0x201c <main+0x380>
    3019: 85 1e        	sta	$1e                     ; 0x201e <main+0x382>
    301b: a0 01        	ldy	#$1
    301d: 91 18        	sta	($18),y                 ; 0x2018 <main+0x37c>
    301f: a5 14        	lda	$14                     ; 0x2014 <main+0x378>
    3021: 18           	clc
    3022: 69 02        	adc	#$2
    3024: 85 18        	sta	$18                     ; 0x2018 <main+0x37c>
    3026: a5 15        	lda	$15                     ; 0x2015 <main+0x379>
    3028: 69 00        	adc	#$0
    302a: 85 19        	sta	$19                     ; 0x2019 <main+0x37d>
    302c: 4c fc 30     	jmp	$30fc <_ZN12_GLOBAL__N_15printEPKcP6Status+0x33a>
    302f: 86 1a        	stx	$1a                     ; 0x201a <main+0x37e>
    3031: 86 1b        	stx	$1b                     ; 0x201b <main+0x37f>
    3033: 4c 24 31     	jmp	$3124 <_ZN12_GLOBAL__N_15printEPKcP6Status+0x362>
    3036: 18           	clc
    3037: 85 1c        	sta	$1c                     ; 0x201c <main+0x380>
    3039: 69 d0        	adc	#$d0
    303b: c9 0a        	cmp	#$a
    303d: 90 03        	bcc	$3042 <_ZN12_GLOBAL__N_15printEPKcP6Status+0x280>
    303f: 4c e1 30     	jmp	$30e1 <_ZN12_GLOBAL__N_15printEPKcP6Status+0x31f>
    3042: 64 1b        	stz	$1b                     ; 0x201b <main+0x37f>
    3044: 64 1f        	stz	$1f                     ; 0x201f <main+0x383>
    3046: 64 1e        	stz	$1e                     ; 0x201e <main+0x382>
    3048: a2 01        	ldx	#$1
    304a: 64 1a        	stz	$1a                     ; 0x201a <main+0x37e>
    304c: 5a           	phy
    304d: a4 1a        	ldy	$1a                     ; 0x201a <main+0x37e>
    304f: 84 18        	sty	$18                     ; 0x2018 <main+0x37c>
    3051: 86 19        	stx	$19                     ; 0x2019 <main+0x37d>
    3053: a5 1f        	lda	$1f                     ; 0x201f <main+0x383>
    3055: 0a           	asl
    3056: 85 1d        	sta	$1d                     ; 0x201d <main+0x381>
    3058: 26 1e        	rol	$1e                     ; 0x201e <main+0x382>
    305a: 0a           	asl
    305b: a4 1e        	ldy	$1e                     ; 0x201e <main+0x382>
    305d: 84 1f        	sty	$1f                     ; 0x201f <main+0x383>
    305f: 7a           	ply
    3060: 26 1f        	rol	$1f                     ; 0x201f <main+0x383>
    3062: 0a           	asl
    3063: 26 1f        	rol	$1f                     ; 0x201f <main+0x383>
    3065: 18           	clc
    3066: 65 1d        	adc	$1d                     ; 0x201d <main+0x381>
    3068: 85 22        	sta	$22                     ; 0x2022 <main+0x386>
    306a: a5 1f        	lda	$1f                     ; 0x201f <main+0x383>
    306c: 65 1e        	adc	$1e                     ; 0x201e <main+0x382>
    306e: 85 1d        	sta	$1d                     ; 0x201d <main+0x381>
    3070: 18           	clc
    3071: a5 22        	lda	$22                     ; 0x2022 <main+0x386>
    3073: 65 1c        	adc	$1c                     ; 0x201c <main+0x380>
    3075: 85 1c        	sta	$1c                     ; 0x201c <main+0x380>
    3077: a5 1d        	lda	$1d                     ; 0x201d <main+0x381>
    3079: 65 1b        	adc	$1b                     ; 0x201b <main+0x37f>
    307b: 85 1b        	sta	$1b                     ; 0x201b <main+0x37f>
    307d: 18           	clc
    307e: a5 1c        	lda	$1c                     ; 0x201c <main+0x380>
    3080: 69 d0        	adc	#$d0
    3082: 85 1c        	sta	$1c                     ; 0x201c <main+0x380>
    3084: a5 1b        	lda	$1b                     ; 0x201b <main+0x37f>
    3086: 69 ff        	adc	#$ff
    3088: 85 1e        	sta	$1e                     ; 0x201e <main+0x382>
    308a: a5 1c        	lda	$1c                     ; 0x201c <main+0x380>
    308c: 85 1f        	sta	$1f                     ; 0x201f <main+0x383>
    308e: e8           	inx
    308f: d0 02        	bne	$3093 <_ZN12_GLOBAL__N_15printEPKcP6Status+0x2d1>
    3091: e6 1a        	inc	$1a                     ; 0x201a <main+0x37e>
    3093: a5 14        	lda	$14                     ; 0x2014 <main+0x378>
    3095: 18           	clc
    3096: 65 19        	adc	$19                     ; 0x2019 <main+0x37d>
    3098: 85 1c        	sta	$1c                     ; 0x201c <main+0x380>
    309a: a5 15        	lda	$15                     ; 0x2015 <main+0x379>
    309c: 65 18        	adc	$18                     ; 0x2018 <main+0x37c>
    309e: 85 1d        	sta	$1d                     ; 0x201d <main+0x381>
    30a0: b1 1c        	lda	($1c),y                 ; 0x201c <main+0x380>
    30a2: 85 1c        	sta	$1c                     ; 0x201c <main+0x380>
    30a4: 18           	clc
    30a5: 69 d0        	adc	#$d0
    30a7: c9 0a        	cmp	#$a
    30a9: 64 1b        	stz	$1b                     ; 0x201b <main+0x37f>
    30ab: b0 03        	bcs	$30b0 <_ZN12_GLOBAL__N_15printEPKcP6Status+0x2ee>
    30ad: 4c 4c 30     	jmp	$304c <_ZN12_GLOBAL__N_15printEPKcP6Status+0x28a>
    30b0: a5 14        	lda	$14                     ; 0x2014 <main+0x378>
    30b2: 18           	clc
    30b3: 65 19        	adc	$19                     ; 0x2019 <main+0x37d>
    30b5: aa           	tax
    30b6: a5 15        	lda	$15                     ; 0x2015 <main+0x379>
    30b8: 65 18        	adc	$18                     ; 0x2018 <main+0x37c>
    30ba: 86 18        	stx	$18                     ; 0x2018 <main+0x37c>
    30bc: 85 19        	sta	$19                     ; 0x2019 <main+0x37d>
    30be: a5 74        	lda	$74                     ; 0x2074 <main+0x3d8>
    30c0: 18           	clc
    30c1: 69 0d        	adc	#$d
    30c3: 85 14        	sta	$14                     ; 0x2014 <main+0x378>
    30c5: a5 75        	lda	$75                     ; 0x2075 <main+0x3d9>
    30c7: 69 00        	adc	#$0
    30c9: a0 0d        	ldy	#$d
    30cb: 85 15        	sta	$15                     ; 0x2015 <main+0x379>
    30cd: a5 1f        	lda	$1f                     ; 0x201f <main+0x383>
    30cf: 85 1a        	sta	$1a                     ; 0x201a <main+0x37e>
    30d1: 91 74        	sta	($74),y                 ; 0x2074 <main+0x3d8>
    30d3: a0 01        	ldy	#$1
    30d5: a5 1e        	lda	$1e                     ; 0x201e <main+0x382>
    30d7: 91 14        	sta	($14),y                 ; 0x2014 <main+0x378>
    30d9: e6 18        	inc	$18                     ; 0x2018 <main+0x37c>
    30db: d0 1f        	bne	$30fc <_ZN12_GLOBAL__N_15printEPKcP6Status+0x33a>
    30dd: e6 19        	inc	$19                     ; 0x2019 <main+0x37d>
    30df: 80 1b        	bra	$30fc <_ZN12_GLOBAL__N_15printEPKcP6Status+0x33a>
    30e1: a0 0d        	ldy	#$d
    30e3: a5 74        	lda	$74                     ; 0x2074 <main+0x3d8>
    30e5: 18           	clc
    30e6: 69 0d        	adc	#$d
    30e8: 85 14        	sta	$14                     ; 0x2014 <main+0x378>
    30ea: a5 75        	lda	$75                     ; 0x2075 <main+0x3d9>
    30ec: 69 00        	adc	#$0
    30ee: 85 15        	sta	$15                     ; 0x2015 <main+0x379>
    30f0: a9 00        	lda	#$0
    30f2: 91 74        	sta	($74),y                 ; 0x2074 <main+0x3d8>
    30f4: a0 01        	ldy	#$1
    30f6: 64 1a        	stz	$1a                     ; 0x201a <main+0x37e>
    30f8: 91 14        	sta	($14),y                 ; 0x2014 <main+0x378>
    30fa: 64 1e        	stz	$1e                     ; 0x201e <main+0x382>
    30fc: a5 7a        	lda	$7a                     ; 0x207a <main+0x3de>
    30fe: 29 ef        	and	#$ef
    3100: a6 74        	ldx	$74                     ; 0x2074 <main+0x3d8>
    3102: 86 14        	stx	$14                     ; 0x2014 <main+0x378>
    3104: a6 75        	ldx	$75                     ; 0x2075 <main+0x3d9>
    3106: 86 15        	stx	$15                     ; 0x2015 <main+0x379>
    3108: e6 14        	inc	$14                     ; 0x2014 <main+0x378>
    310a: d0 02        	bne	$310e <_ZN12_GLOBAL__N_15printEPKcP6Status+0x34c>
    310c: e6 15        	inc	$15                     ; 0x2015 <main+0x379>
    310e: 85 7a        	sta	$7a                     ; 0x207a <main+0x3de>
    3110: 91 74        	sta	($74),y                 ; 0x2074 <main+0x3d8>
    3112: a9 00        	lda	#$0
    3114: 91 14        	sta	($14),y                 ; 0x2014 <main+0x378>
    3116: b2 18        	lda	($18)                   ; 0x2018 <main+0x37c>
    3118: a6 1e        	ldx	$1e                     ; 0x201e <main+0x382>
    311a: 86 1b        	stx	$1b                     ; 0x201b <main+0x37f>
    311c: a6 18        	ldx	$18                     ; 0x2018 <main+0x37c>
    311e: 86 14        	stx	$14                     ; 0x2014 <main+0x378>
    3120: a6 19        	ldx	$19                     ; 0x2019 <main+0x37d>
    3122: 86 15        	stx	$15                     ; 0x2015 <main+0x379>
    3124: a6 14        	ldx	$14                     ; 0x2014 <main+0x378>
    3126: 86 18        	stx	$18                     ; 0x2018 <main+0x37c>
    3128: a6 15        	ldx	$15                     ; 0x2015 <main+0x379>
    312a: 86 19        	stx	$19                     ; 0x2019 <main+0x37d>
    312c: e6 18        	inc	$18                     ; 0x2018 <main+0x37c>
    312e: d0 02        	bne	$3132 <_ZN12_GLOBAL__N_15printEPKcP6Status+0x370>
    3130: e6 19        	inc	$19                     ; 0x2019 <main+0x37d>
    3132: 38           	sec
    3133: aa           	tax
    3134: e9 6c        	sbc	#$6c
    3136: 50 02        	bvc	$313a <_ZN12_GLOBAL__N_15printEPKcP6Status+0x378>
    3138: 49 80        	eor	#$80
    313a: c9 00        	cmp	#$0
    313c: 10 20        	bpl	$315e <_ZN12_GLOBAL__N_15printEPKcP6Status+0x39c>
    313e: e0 4c        	cpx	#$4c
    3140: f0 3a        	beq	$317c <_ZN12_GLOBAL__N_15printEPKcP6Status+0x3ba>
    3142: 8a           	txa
    3143: e0 68        	cpx	#$68
    3145: d0 03        	bne	$314a <_ZN12_GLOBAL__N_15printEPKcP6Status+0x388>
    3147: 4c 0e 32     	jmp	$320e <_ZN12_GLOBAL__N_15printEPKcP6Status+0x44c>
    314a: a0 08        	ldy	#$8
    314c: a2 02        	ldx	#$2
    314e: c9 6a        	cmp	#$6a
    3150: d0 26        	bne	$3178 <_ZN12_GLOBAL__N_15printEPKcP6Status+0x3b6>
    3152: a6 18        	ldx	$18                     ; 0x2018 <main+0x37c>
    3154: 86 14        	stx	$14                     ; 0x2014 <main+0x378>
    3156: a6 19        	ldx	$19                     ; 0x2019 <main+0x37d>
    3158: 86 15        	stx	$15                     ; 0x2015 <main+0x379>
    315a: a2 08        	ldx	#$8
    315c: 80 44        	bra	$31a2 <_ZN12_GLOBAL__N_15printEPKcP6Status+0x3e0>
    315e: e0 6c        	cpx	#$6c
    3160: d0 03        	bne	$3165 <_ZN12_GLOBAL__N_15printEPKcP6Status+0x3a3>
    3162: 4c f2 31     	jmp	$31f2 <_ZN12_GLOBAL__N_15printEPKcP6Status+0x430>
    3165: 8a           	txa
    3166: e0 74        	cpx	#$74
    3168: f0 2c        	beq	$3196 <_ZN12_GLOBAL__N_15printEPKcP6Status+0x3d4>
    316a: a2 02        	ldx	#$2
    316c: c9 7a        	cmp	#$7a
    316e: d0 08        	bne	$3178 <_ZN12_GLOBAL__N_15printEPKcP6Status+0x3b6>
    3170: a4 18        	ldy	$18                     ; 0x2018 <main+0x37c>
    3172: 84 14        	sty	$14                     ; 0x2014 <main+0x378>
    3174: a4 19        	ldy	$19                     ; 0x2019 <main+0x37d>
    3176: 84 15        	sty	$15                     ; 0x2015 <main+0x379>
    3178: a0 02        	ldy	#$2
    317a: 80 26        	bra	$31a2 <_ZN12_GLOBAL__N_15printEPKcP6Status+0x3e0>
    317c: a5 7a        	lda	$7a                     ; 0x207a <main+0x3de>
    317e: 09 40        	ora	#$40
    3180: a6 74        	ldx	$74                     ; 0x2074 <main+0x3d8>
    3182: 86 14        	stx	$14                     ; 0x2014 <main+0x378>
    3184: a6 75        	ldx	$75                     ; 0x2075 <main+0x3d9>
    3186: 86 15        	stx	$15                     ; 0x2015 <main+0x379>
    3188: e6 14        	inc	$14                     ; 0x2014 <main+0x378>
    318a: d0 02        	bne	$318e <_ZN12_GLOBAL__N_15printEPKcP6Status+0x3cc>
    318c: e6 15        	inc	$15                     ; 0x2015 <main+0x379>
    318e: 85 7a        	sta	$7a                     ; 0x207a <main+0x3de>
    3190: 91 74        	sta	($74),y                 ; 0x2074 <main+0x3d8>
    3192: a9 00        	lda	#$0
    3194: 91 14        	sta	($14),y                 ; 0x2014 <main+0x378>
    3196: a6 18        	ldx	$18                     ; 0x2018 <main+0x37c>
    3198: 86 14        	stx	$14                     ; 0x2014 <main+0x378>
    319a: a6 19        	ldx	$19                     ; 0x2019 <main+0x37d>
    319c: 86 15        	stx	$15                     ; 0x2015 <main+0x379>
    319e: a0 02        	ldy	#$2
    31a0: a2 02        	ldx	#$2
    31a2: b2 14        	lda	($14)                   ; 0x2014 <main+0x378>
    31a4: 5a           	phy
    31a5: a4 14        	ldy	$14                     ; 0x2014 <main+0x378>
    31a7: 84 18        	sty	$18                     ; 0x2018 <main+0x37c>
    31a9: a4 15        	ldy	$15                     ; 0x2015 <main+0x379>
    31ab: 84 19        	sty	$19                     ; 0x2019 <main+0x37d>
    31ad: 7a           	ply
    31ae: 86 76        	stx	$76                     ; 0x2076 <main+0x3da>
    31b0: 5a           	phy
    31b1: fa           	plx
    31b2: 18           	clc
    31b3: a8           	tay
    31b4: 69 9d        	adc	#$9d
    31b6: c9 16        	cmp	#$16
    31b8: 86 7b        	stx	$7b                     ; 0x207b <main+0x3df>
    31ba: 90 03        	bcc	$31bf <_ZN12_GLOBAL__N_15printEPKcP6Status+0x3fd>
    31bc: 4c 2b 32     	jmp	$322b <_ZN12_GLOBAL__N_15printEPKcP6Status+0x469>
    31bf: 0a           	asl
    31c0: aa           	tax
    31c1: 7c 78 42     	jmp	($4278,x)               ; 0x4278 <__set_v+0x7d>
    31c4: a5 1b        	lda	$1b                     ; 0x201b <main+0x37f>
    31c6: 85 a2        	sta	$a2                     ; 0x20a2 <main+0x406>
    31c8: a4 1a        	ldy	$1a                     ; 0x201a <main+0x37e>
    31ca: 84 a3        	sty	$a3                     ; 0x20a3 <main+0x407>
    31cc: a6 16        	ldx	$16                     ; 0x2016 <main+0x37a>
    31ce: 86 a5        	stx	$a5                     ; 0x20a5 <main+0x409>
    31d0: a6 17        	ldx	$17                     ; 0x2017 <main+0x37b>
    31d2: 86 a4        	stx	$a4                     ; 0x20a4 <main+0x408>
    31d4: a6 18        	ldx	$18                     ; 0x2018 <main+0x37c>
    31d6: 86 12        	stx	$12                     ; 0x2012 <main+0x376>
    31d8: a6 19        	ldx	$19                     ; 0x2019 <main+0x37d>
    31da: 86 13        	stx	$13                     ; 0x2013 <main+0x377>
    31dc: a6 12        	ldx	$12                     ; 0x2012 <main+0x376>
    31de: 86 9e        	stx	$9e                     ; 0x209e <main+0x402>
    31e0: a6 13        	ldx	$13                     ; 0x2013 <main+0x377>
    31e2: 86 9f        	stx	$9f                     ; 0x209f <main+0x403>
    31e4: a9 0a        	lda	#$a
    31e6: aa           	tax
    31e7: 86 9d        	stx	$9d                     ; 0x209d <main+0x401>
    31e9: 92 74        	sta	($74)                   ; 0x2074 <main+0x3d8>
    31eb: a2 00        	ldx	#$0
    31ed: 86 a6        	stx	$a6                     ; 0x20a6 <main+0x40a>
    31ef: 4c 4f 34     	jmp	$344f <_ZN12_GLOBAL__N_15printEPKcP6Status+0x68d>
    31f2: b1 14        	lda	($14),y                 ; 0x2014 <main+0x378>
    31f4: a2 04        	ldx	#$4
    31f6: c9 6c        	cmp	#$6c
    31f8: d0 2c        	bne	$3226 <_ZN12_GLOBAL__N_15printEPKcP6Status+0x464>
    31fa: a5 14        	lda	$14                     ; 0x2014 <main+0x378>
    31fc: 18           	clc
    31fd: 69 02        	adc	#$2
    31ff: 85 14        	sta	$14                     ; 0x2014 <main+0x378>
    3201: a5 15        	lda	$15                     ; 0x2015 <main+0x379>
    3203: 69 00        	adc	#$0
    3205: 85 15        	sta	$15                     ; 0x2015 <main+0x379>
    3207: a2 08        	ldx	#$8
    3209: a0 08        	ldy	#$8
    320b: 4c a2 31     	jmp	$31a2 <_ZN12_GLOBAL__N_15printEPKcP6Status+0x3e0>
    320e: b1 14        	lda	($14),y                 ; 0x2014 <main+0x378>
    3210: a2 02        	ldx	#$2
    3212: c9 68        	cmp	#$68
    3214: d0 10        	bne	$3226 <_ZN12_GLOBAL__N_15printEPKcP6Status+0x464>
    3216: a5 14        	lda	$14                     ; 0x2014 <main+0x378>
    3218: 18           	clc
    3219: 69 02        	adc	#$2
    321b: 85 14        	sta	$14                     ; 0x2014 <main+0x378>
    321d: a5 15        	lda	$15                     ; 0x2015 <main+0x379>
    321f: 69 00        	adc	#$0
    3221: 85 15        	sta	$15                     ; 0x2015 <main+0x379>
    3223: 4c a2 31     	jmp	$31a2 <_ZN12_GLOBAL__N_15printEPKcP6Status+0x3e0>
    3226: 86 76        	stx	$76                     ; 0x2076 <main+0x3da>
    3228: 4c b2 31     	jmp	$31b2 <_ZN12_GLOBAL__N_15printEPKcP6Status+0x3f0>
    322b: c0 58        	cpy	#$58
    322d: f0 03        	beq	$3232 <_ZN12_GLOBAL__N_15printEPKcP6Status+0x470>
    322f: 4c f5 38     	jmp	$38f5 <_ZN12_GLOBAL__N_15printEPKcP6Status+0xb33>
    3232: a5 1b        	lda	$1b                     ; 0x201b <main+0x37f>
    3234: 85 a2        	sta	$a2                     ; 0x20a2 <main+0x406>
    3236: a4 1a        	ldy	$1a                     ; 0x201a <main+0x37e>
    3238: 84 a3        	sty	$a3                     ; 0x20a3 <main+0x407>
    323a: a6 16        	ldx	$16                     ; 0x2016 <main+0x37a>
    323c: 86 a5        	stx	$a5                     ; 0x20a5 <main+0x409>
    323e: a6 17        	ldx	$17                     ; 0x2017 <main+0x37b>
    3240: 86 a4        	stx	$a4                     ; 0x20a4 <main+0x408>
    3242: a6 18        	ldx	$18                     ; 0x2018 <main+0x37c>
    3244: 86 12        	stx	$12                     ; 0x2012 <main+0x376>
    3246: a6 19        	ldx	$19                     ; 0x2019 <main+0x37d>
    3248: 86 13        	stx	$13                     ; 0x2013 <main+0x377>
    324a: a6 12        	ldx	$12                     ; 0x2012 <main+0x376>
    324c: 86 9e        	stx	$9e                     ; 0x209e <main+0x402>
    324e: a6 13        	ldx	$13                     ; 0x2013 <main+0x377>
    3250: 86 9f        	stx	$9f                     ; 0x209f <main+0x403>
    3252: a9 10        	lda	#$10
    3254: 4c 2f 34     	jmp	$342f <_ZN12_GLOBAL__N_15printEPKcP6Status+0x66d>
    3257: a5 1b        	lda	$1b                     ; 0x201b <main+0x37f>
    3259: 85 a2        	sta	$a2                     ; 0x20a2 <main+0x406>
    325b: a4 1a        	ldy	$1a                     ; 0x201a <main+0x37e>
    325d: 84 a3        	sty	$a3                     ; 0x20a3 <main+0x407>
    325f: a6 16        	ldx	$16                     ; 0x2016 <main+0x37a>
    3261: 86 a5        	stx	$a5                     ; 0x20a5 <main+0x409>
    3263: a6 17        	ldx	$17                     ; 0x2017 <main+0x37b>
    3265: 86 a4        	stx	$a4                     ; 0x20a4 <main+0x408>
    3267: a6 18        	ldx	$18                     ; 0x2018 <main+0x37c>
    3269: 86 12        	stx	$12                     ; 0x2012 <main+0x376>
    326b: a6 19        	ldx	$19                     ; 0x2019 <main+0x37d>
    326d: 86 13        	stx	$13                     ; 0x2013 <main+0x377>
    326f: a6 12        	ldx	$12                     ; 0x2012 <main+0x376>
    3271: 86 9e        	stx	$9e                     ; 0x209e <main+0x402>
    3273: a6 13        	ldx	$13                     ; 0x2013 <main+0x377>
    3275: 86 9f        	stx	$9f                     ; 0x209f <main+0x403>
    3277: a9 10        	lda	#$10
    3279: 92 74        	sta	($74)                   ; 0x2074 <main+0x3d8>
    327b: a5 7a        	lda	$7a                     ; 0x207a <main+0x3de>
    327d: 09 84        	ora	#$84
    327f: aa           	tax
    3280: a9 00        	lda	#$0
    3282: 09 01        	ora	#$1
    3284: 85 14        	sta	$14                     ; 0x2014 <main+0x378>
    3286: a4 74        	ldy	$74                     ; 0x2074 <main+0x3d8>
    3288: 84 12        	sty	$12                     ; 0x2012 <main+0x376>
    328a: a4 75        	ldy	$75                     ; 0x2075 <main+0x3d9>
    328c: 84 13        	sty	$13                     ; 0x2013 <main+0x377>
    328e: e6 12        	inc	$12                     ; 0x2012 <main+0x376>
    3290: d0 02        	bne	$3294 <_ZN12_GLOBAL__N_15printEPKcP6Status+0x4d2>
    3292: e6 13        	inc	$13                     ; 0x2013 <main+0x377>
    3294: a0 01        	ldy	#$1
    3296: 86 7a        	stx	$7a                     ; 0x207a <main+0x3de>
    3298: 8a           	txa
    3299: 91 74        	sta	($74),y                 ; 0x2074 <main+0x3d8>
    329b: a5 14        	lda	$14                     ; 0x2014 <main+0x378>
    329d: a6 14        	ldx	$14                     ; 0x2014 <main+0x378>
    329f: 4c 4b 34     	jmp	$344b <_ZN12_GLOBAL__N_15printEPKcP6Status+0x689>
    32a2: a5 1b        	lda	$1b                     ; 0x201b <main+0x37f>
    32a4: 85 a2        	sta	$a2                     ; 0x20a2 <main+0x406>
    32a6: a4 1a        	ldy	$1a                     ; 0x201a <main+0x37e>
    32a8: 84 a3        	sty	$a3                     ; 0x20a3 <main+0x407>
    32aa: a6 16        	ldx	$16                     ; 0x2016 <main+0x37a>
    32ac: 86 a5        	stx	$a5                     ; 0x20a5 <main+0x409>
    32ae: a6 17        	ldx	$17                     ; 0x2017 <main+0x37b>
    32b0: 86 a4        	stx	$a4                     ; 0x20a4 <main+0x408>
    32b2: a6 18        	ldx	$18                     ; 0x2018 <main+0x37c>
    32b4: 86 12        	stx	$12                     ; 0x2012 <main+0x376>
    32b6: a6 19        	ldx	$19                     ; 0x2019 <main+0x37d>
    32b8: 86 13        	stx	$13                     ; 0x2013 <main+0x377>
    32ba: a6 12        	ldx	$12                     ; 0x2012 <main+0x376>
    32bc: 86 9e        	stx	$9e                     ; 0x209e <main+0x402>
    32be: a6 13        	ldx	$13                     ; 0x2013 <main+0x377>
    32c0: 86 9f        	stx	$9f                     ; 0x209f <main+0x403>
    32c2: a9 10        	lda	#$10
    32c4: 92 74        	sta	($74)                   ; 0x2074 <main+0x3d8>
    32c6: a5 7a        	lda	$7a                     ; 0x207a <main+0x3de>
    32c8: 09 80        	ora	#$80
    32ca: 85 14        	sta	$14                     ; 0x2014 <main+0x378>
    32cc: a9 00        	lda	#$0
    32ce: 09 01        	ora	#$1
    32d0: aa           	tax
    32d1: a4 74        	ldy	$74                     ; 0x2074 <main+0x3d8>
    32d3: 84 12        	sty	$12                     ; 0x2012 <main+0x376>
    32d5: a4 75        	ldy	$75                     ; 0x2075 <main+0x3d9>
    32d7: 84 13        	sty	$13                     ; 0x2013 <main+0x377>
    32d9: e6 12        	inc	$12                     ; 0x2012 <main+0x376>
    32db: d0 02        	bne	$32df <_ZN12_GLOBAL__N_15printEPKcP6Status+0x51d>
    32dd: e6 13        	inc	$13                     ; 0x2013 <main+0x377>
    32df: a0 01        	ldy	#$1
    32e1: a5 14        	lda	$14                     ; 0x2014 <main+0x378>
    32e3: 85 7a        	sta	$7a                     ; 0x207a <main+0x3de>
    32e5: 4c 48 34     	jmp	$3448 <_ZN12_GLOBAL__N_15printEPKcP6Status+0x686>
    32e8: a4 74        	ldy	$74                     ; 0x2074 <main+0x3d8>
    32ea: a5 74        	lda	$74                     ; 0x2074 <main+0x3d8>
    32ec: 84 16        	sty	$16                     ; 0x2016 <main+0x37a>
    32ee: 18           	clc
    32ef: 69 11        	adc	#$11
    32f1: 85 12        	sta	$12                     ; 0x2012 <main+0x376>
    32f3: a5 75        	lda	$75                     ; 0x2075 <main+0x3d9>
    32f5: 69 00        	adc	#$0
    32f7: 85 13        	sta	$13                     ; 0x2013 <main+0x377>
    32f9: a0 11        	ldy	#$11
    32fb: b1 74        	lda	($74),y                 ; 0x2074 <main+0x3d8>
    32fd: 85 14        	sta	$14                     ; 0x2014 <main+0x378>
    32ff: 18           	clc
    3300: 69 02        	adc	#$2
    3302: 91 74        	sta	($74),y                 ; 0x2074 <main+0x3d8>
    3304: a0 01        	ldy	#$1
    3306: b1 12        	lda	($12),y                 ; 0x2012 <main+0x376>
    3308: 85 15        	sta	$15                     ; 0x2015 <main+0x379>
    330a: 69 00        	adc	#$0
    330c: 18           	clc
    330d: 91 12        	sta	($12),y                 ; 0x2012 <main+0x376>
    330f: b2 14        	lda	($14)                   ; 0x2014 <main+0x378>
    3311: 85 12        	sta	$12                     ; 0x2012 <main+0x376>
    3313: b1 14        	lda	($14),y                 ; 0x2014 <main+0x378>
    3315: 85 13        	sta	$13                     ; 0x2013 <main+0x377>
    3317: a5 16        	lda	$16                     ; 0x2016 <main+0x37a>
    3319: 69 05        	adc	#$5
    331b: 85 14        	sta	$14                     ; 0x2014 <main+0x378>
    331d: a5 75        	lda	$75                     ; 0x2075 <main+0x3d9>
    331f: 69 00        	adc	#$0
    3321: 85 15        	sta	$15                     ; 0x2015 <main+0x379>
    3323: a0 05        	ldy	#$5
    3325: b1 74        	lda	($74),y                 ; 0x2074 <main+0x3d8>
    3327: 85 16        	sta	$16                     ; 0x2016 <main+0x37a>
    3329: a0 01        	ldy	#$1
    332b: b1 14        	lda	($14),y                 ; 0x2014 <main+0x378>
    332d: 85 14        	sta	$14                     ; 0x2014 <main+0x378>
    332f: a5 16        	lda	$16                     ; 0x2016 <main+0x37a>
    3331: 92 12        	sta	($12)                   ; 0x2012 <main+0x376>
    3333: a5 14        	lda	$14                     ; 0x2014 <main+0x378>
    3335: 91 12        	sta	($12),y                 ; 0x2012 <main+0x376>
    3337: e6 18        	inc	$18                     ; 0x2018 <main+0x37c>
    3339: d0 02        	bne	$333d <_ZN12_GLOBAL__N_15printEPKcP6Status+0x57b>
    333b: e6 19        	inc	$19                     ; 0x2019 <main+0x37d>
    333d: a6 18        	ldx	$18                     ; 0x2018 <main+0x37c>
    333f: 86 12        	stx	$12                     ; 0x2012 <main+0x376>
    3341: a6 19        	ldx	$19                     ; 0x2019 <main+0x37d>
    3343: 4c 07 34     	jmp	$3407 <_ZN12_GLOBAL__N_15printEPKcP6Status+0x645>
    3346: a0 11        	ldy	#$11
    3348: a5 74        	lda	$74                     ; 0x2074 <main+0x3d8>
    334a: 18           	clc
    334b: 69 11        	adc	#$11
    334d: 85 12        	sta	$12                     ; 0x2012 <main+0x376>
    334f: a5 75        	lda	$75                     ; 0x2075 <main+0x3d9>
    3351: 69 00        	adc	#$0
    3353: 85 13        	sta	$13                     ; 0x2013 <main+0x377>
    3355: b1 74        	lda	($74),y                 ; 0x2074 <main+0x3d8>
    3357: aa           	tax
    3358: a0 01        	ldy	#$1
    335a: b1 12        	lda	($12),y                 ; 0x2012 <main+0x376>
    335c: 86 14        	stx	$14                     ; 0x2014 <main+0x378>
    335e: 85 15        	sta	$15                     ; 0x2015 <main+0x379>
    3360: a8           	tay
    3361: 18           	clc
    3362: 8a           	txa
    3363: 69 02        	adc	#$2
    3365: 85 16        	sta	$16                     ; 0x2016 <main+0x37a>
    3367: 98           	tya
    3368: 69 00        	adc	#$0
    336a: 85 17        	sta	$17                     ; 0x2017 <main+0x37b>
    336c: a5 16        	lda	$16                     ; 0x2016 <main+0x37a>
    336e: a0 11        	ldy	#$11
    3370: 91 74        	sta	($74),y                 ; 0x2074 <main+0x3d8>
    3372: a0 01        	ldy	#$1
    3374: a5 17        	lda	$17                     ; 0x2017 <main+0x37b>
    3376: 91 12        	sta	($12),y                 ; 0x2012 <main+0x376>
    3378: b2 14        	lda	($14)                   ; 0x2014 <main+0x378>
    337a: 85 12        	sta	$12                     ; 0x2012 <main+0x376>
    337c: b1 14        	lda	($14),y                 ; 0x2014 <main+0x378>
    337e: 85 13        	sta	$13                     ; 0x2013 <main+0x377>
    3380: 4c e8 33     	jmp	$33e8 <_ZN12_GLOBAL__N_15printEPKcP6Status+0x626>
    3383: a5 1b        	lda	$1b                     ; 0x201b <main+0x37f>
    3385: 85 a2        	sta	$a2                     ; 0x20a2 <main+0x406>
    3387: a4 1a        	ldy	$1a                     ; 0x201a <main+0x37e>
    3389: 84 a3        	sty	$a3                     ; 0x20a3 <main+0x407>
    338b: a6 16        	ldx	$16                     ; 0x2016 <main+0x37a>
    338d: 86 a5        	stx	$a5                     ; 0x20a5 <main+0x409>
    338f: a6 17        	ldx	$17                     ; 0x2017 <main+0x37b>
    3391: 86 a4        	stx	$a4                     ; 0x20a4 <main+0x408>
    3393: a6 18        	ldx	$18                     ; 0x2018 <main+0x37c>
    3395: 86 12        	stx	$12                     ; 0x2012 <main+0x376>
    3397: a6 19        	ldx	$19                     ; 0x2019 <main+0x37d>
    3399: 86 13        	stx	$13                     ; 0x2013 <main+0x377>
    339b: a6 12        	ldx	$12                     ; 0x2012 <main+0x376>
    339d: 86 9e        	stx	$9e                     ; 0x209e <main+0x402>
    339f: a6 13        	ldx	$13                     ; 0x2013 <main+0x377>
    33a1: 86 9f        	stx	$9f                     ; 0x209f <main+0x403>
    33a3: a9 08        	lda	#$8
    33a5: 4c 2c 34     	jmp	$342c <_ZN12_GLOBAL__N_15printEPKcP6Status+0x66a>
    33a8: a0 11        	ldy	#$11
    33aa: a5 74        	lda	$74                     ; 0x2074 <main+0x3d8>
    33ac: 18           	clc
    33ad: 69 11        	adc	#$11
    33af: 85 12        	sta	$12                     ; 0x2012 <main+0x376>
    33b1: a5 75        	lda	$75                     ; 0x2075 <main+0x3d9>
    33b3: 69 00        	adc	#$0
    33b5: 85 13        	sta	$13                     ; 0x2013 <main+0x377>
    33b7: b1 74        	lda	($74),y                 ; 0x2074 <main+0x3d8>
    33b9: aa           	tax
    33ba: a0 01        	ldy	#$1
    33bc: b1 12        	lda	($12),y                 ; 0x2012 <main+0x376>
    33be: 86 14        	stx	$14                     ; 0x2014 <main+0x378>
    33c0: 85 15        	sta	$15                     ; 0x2015 <main+0x379>
    33c2: a8           	tay
    33c3: 18           	clc
    33c4: 8a           	txa
    33c5: 69 02        	adc	#$2
    33c7: 85 16        	sta	$16                     ; 0x2016 <main+0x37a>
    33c9: 98           	tya
    33ca: 69 00        	adc	#$0
    33cc: 85 17        	sta	$17                     ; 0x2017 <main+0x37b>
    33ce: a5 16        	lda	$16                     ; 0x2016 <main+0x37a>
    33d0: a0 11        	ldy	#$11
    33d2: 91 74        	sta	($74),y                 ; 0x2074 <main+0x3d8>
    33d4: a0 01        	ldy	#$1
    33d6: a5 17        	lda	$17                     ; 0x2017 <main+0x37b>
    33d8: 91 12        	sta	($12),y                 ; 0x2012 <main+0x376>
    33da: b2 14        	lda	($14)                   ; 0x2014 <main+0x378>
    33dc: 85 7d        	sta	$7d                     ; 0x207d <main+0x3e1>
    33de: 64 7e        	stz	$7e                     ; 0x207e <main+0x3e2>
    33e0: a2 7d        	ldx	#$7d
    33e2: a0 00        	ldy	#$0
    33e4: 86 12        	stx	$12                     ; 0x2012 <main+0x376>
    33e6: 84 13        	sty	$13                     ; 0x2013 <main+0x377>
    33e8: a6 18        	ldx	$18                     ; 0x2018 <main+0x37c>
    33ea: 86 76        	stx	$76                     ; 0x2076 <main+0x3da>
    33ec: a6 19        	ldx	$19                     ; 0x2019 <main+0x37d>
    33ee: 86 77        	stx	$77                     ; 0x2077 <main+0x3db>
    33f0: a6 74        	ldx	$74                     ; 0x2074 <main+0x3d8>
    33f2: 86 14        	stx	$14                     ; 0x2014 <main+0x378>
    33f4: a6 75        	ldx	$75                     ; 0x2075 <main+0x3d9>
    33f6: 86 15        	stx	$15                     ; 0x2015 <main+0x379>
    33f8: 20 c9 39     	jsr	$39c9 <_ZN12_GLOBAL__N_112print_stringEPKcP6Status>
    33fb: e6 76        	inc	$76                     ; 0x2076 <main+0x3da>
    33fd: d0 02        	bne	$3401 <_ZN12_GLOBAL__N_15printEPKcP6Status+0x63f>
    33ff: e6 77        	inc	$77                     ; 0x2077 <main+0x3db>
    3401: a6 76        	ldx	$76                     ; 0x2076 <main+0x3da>
    3403: 86 12        	stx	$12                     ; 0x2012 <main+0x376>
    3405: a6 77        	ldx	$77                     ; 0x2077 <main+0x3db>
    3407: 86 13        	stx	$13                     ; 0x2013 <main+0x377>
    3409: 60           	rts
    340a: a5 1b        	lda	$1b                     ; 0x201b <main+0x37f>
    340c: 85 a2        	sta	$a2                     ; 0x20a2 <main+0x406>
    340e: a4 1a        	ldy	$1a                     ; 0x201a <main+0x37e>
    3410: 84 a3        	sty	$a3                     ; 0x20a3 <main+0x407>
    3412: a6 16        	ldx	$16                     ; 0x2016 <main+0x37a>
    3414: 86 a5        	stx	$a5                     ; 0x20a5 <main+0x409>
    3416: a6 17        	ldx	$17                     ; 0x2017 <main+0x37b>
    3418: 86 a4        	stx	$a4                     ; 0x20a4 <main+0x408>
    341a: a6 18        	ldx	$18                     ; 0x2018 <main+0x37c>
    341c: 86 12        	stx	$12                     ; 0x2012 <main+0x376>
    341e: a6 19        	ldx	$19                     ; 0x2019 <main+0x37d>
    3420: 86 13        	stx	$13                     ; 0x2013 <main+0x377>
    3422: a6 12        	ldx	$12                     ; 0x2012 <main+0x376>
    3424: 86 9e        	stx	$9e                     ; 0x209e <main+0x402>
    3426: a6 13        	ldx	$13                     ; 0x2013 <main+0x377>
    3428: 86 9f        	stx	$9f                     ; 0x209f <main+0x403>
    342a: a9 0a        	lda	#$a
    342c: aa           	tax
    342d: 86 9d        	stx	$9d                     ; 0x209d <main+0x401>
    342f: 92 74        	sta	($74)                   ; 0x2074 <main+0x3d8>
    3431: a9 00        	lda	#$0
    3433: 09 01        	ora	#$1
    3435: aa           	tax
    3436: a4 74        	ldy	$74                     ; 0x2074 <main+0x3d8>
    3438: 84 12        	sty	$12                     ; 0x2012 <main+0x376>
    343a: a4 75        	ldy	$75                     ; 0x2075 <main+0x3d9>
    343c: 84 13        	sty	$13                     ; 0x2013 <main+0x377>
    343e: e6 12        	inc	$12                     ; 0x2012 <main+0x376>
    3440: d0 02        	bne	$3444 <_ZN12_GLOBAL__N_15printEPKcP6Status+0x682>
    3442: e6 13        	inc	$13                     ; 0x2013 <main+0x377>
    3444: a0 01        	ldy	#$1
    3446: a5 7a        	lda	$7a                     ; 0x207a <main+0x3de>
    3448: 91 74        	sta	($74),y                 ; 0x2074 <main+0x3d8>
    344a: 8a           	txa
    344b: 86 a6        	stx	$a6                     ; 0x20a6 <main+0x40a>
    344d: 91 12        	sta	($12),y                 ; 0x2012 <main+0x376>
    344f: a2 94        	ldx	#$94
    3451: a0 00        	ldy	#$0
    3453: 86 12        	stx	$12                     ; 0x2012 <main+0x376>
    3455: 84 13        	sty	$13                     ; 0x2013 <main+0x377>
    3457: e6 12        	inc	$12                     ; 0x2012 <main+0x376>
    3459: d0 02        	bne	$345d <_ZN12_GLOBAL__N_15printEPKcP6Status+0x69b>
    345b: e6 13        	inc	$13                     ; 0x2013 <main+0x377>
    345d: a0 11        	ldy	#$11
    345f: a2 00        	ldx	#$0
    3461: a5 74        	lda	$74                     ; 0x2074 <main+0x3d8>
    3463: 18           	clc
    3464: 69 11        	adc	#$11
    3466: 85 78        	sta	$78                     ; 0x2078 <main+0x3dc>
    3468: a5 75        	lda	$75                     ; 0x2075 <main+0x3d9>
    346a: 69 00        	adc	#$0
    346c: 85 79        	sta	$79                     ; 0x2079 <main+0x3dd>
    346e: b1 74        	lda	($74),y                 ; 0x2074 <main+0x3d8>
    3470: 85 77        	sta	$77                     ; 0x2077 <main+0x3db>
    3472: a0 01        	ldy	#$1
    3474: b1 78        	lda	($78),y                 ; 0x2078 <main+0x3dc>
    3476: 85 a7        	sta	$a7                     ; 0x20a7 <main+0x40b>
    3478: a4 77        	ldy	$77                     ; 0x2077 <main+0x3db>
    347a: 84 14        	sty	$14                     ; 0x2014 <main+0x378>
    347c: 85 15        	sta	$15                     ; 0x2015 <main+0x379>
    347e: 64 7c        	stz	$7c                     ; 0x207c <main+0x3e0>
    3480: a5 7b        	lda	$7b                     ; 0x207b <main+0x3df>
    3482: a4 7b        	ldy	$7b                     ; 0x207b <main+0x3df>
    3484: 84 a8        	sty	$a8                     ; 0x20a8 <main+0x40c>
    3486: 20 7d 41     	jsr	$417d <memcpy>
    3489: a2 00        	ldx	#$0
    348b: 86 a1        	stx	$a1                     ; 0x20a1 <main+0x405>
    348d: 18           	clc
    348e: a5 77        	lda	$77                     ; 0x2077 <main+0x3db>
    3490: 65 76        	adc	$76                     ; 0x2076 <main+0x3da>
    3492: 85 13        	sta	$13                     ; 0x2013 <main+0x377>
    3494: a5 a7        	lda	$a7                     ; 0x20a7 <main+0x40b>
    3496: 69 00        	adc	#$0
    3498: 85 12        	sta	$12                     ; 0x2012 <main+0x376>
    349a: a0 11        	ldy	#$11
    349c: a5 13        	lda	$13                     ; 0x2013 <main+0x377>
    349e: 91 74        	sta	($74),y                 ; 0x2074 <main+0x3d8>
    34a0: a0 01        	ldy	#$1
    34a2: a5 12        	lda	$12                     ; 0x2012 <main+0x376>
    34a4: 91 78        	sta	($78),y                 ; 0x2078 <main+0x3dc>
    34a6: a5 a6        	lda	$a6                     ; 0x20a6 <main+0x40a>
    34a8: 29 01        	and	#$1
    34aa: d0 4c        	bne	$34f8 <_ZN12_GLOBAL__N_15printEPKcP6Status+0x736>
    34ac: a6 a8        	ldx	$a8                     ; 0x20a8 <main+0x40c>
    34ae: b4 94        	ldy	$94,x                   ; 0x2094 <main+0x3f8>
    34b0: a6 a4        	ldx	$a4                     ; 0x20a4 <main+0x408>
    34b2: 86 12        	stx	$12                     ; 0x2012 <main+0x376>
    34b4: a6 a5        	ldx	$a5                     ; 0x20a5 <main+0x409>
    34b6: 86 13        	stx	$13                     ; 0x2013 <main+0x377>
    34b8: a6 a3        	ldx	$a3                     ; 0x20a3 <main+0x407>
    34ba: 86 76        	stx	$76                     ; 0x2076 <main+0x3da>
    34bc: a6 a2        	ldx	$a2                     ; 0x20a2 <main+0x406>
    34be: 86 77        	stx	$77                     ; 0x2077 <main+0x3db>
    34c0: 98           	tya
    34c1: 10 45        	bpl	$3508 <_ZN12_GLOBAL__N_15printEPKcP6Status+0x746>
    34c3: a2 00        	ldx	#$0
    34c5: 64 14        	stz	$14                     ; 0x2014 <main+0x378>
    34c7: 38           	sec
    34c8: a9 00        	lda	#$0
    34ca: f5 95        	sbc	$95,x                   ; 0x2095 <main+0x3f9>
    34cc: a0 00        	ldy	#$0
    34ce: b0 02        	bcs	$34d2 <_ZN12_GLOBAL__N_15printEPKcP6Status+0x710>
    34d0: a0 01        	ldy	#$1
    34d2: 38           	sec
    34d3: e5 14        	sbc	$14                     ; 0x2014 <main+0x378>
    34d5: 85 15        	sta	$15                     ; 0x2015 <main+0x379>
    34d7: 64 14        	stz	$14                     ; 0x2014 <main+0x378>
    34d9: b0 04        	bcs	$34df <_ZN12_GLOBAL__N_15printEPKcP6Status+0x71d>
    34db: a9 01        	lda	#$1
    34dd: 85 14        	sta	$14                     ; 0x2014 <main+0x378>
    34df: 98           	tya
    34e0: 05 14        	ora	$14                     ; 0x2014 <main+0x378>
    34e2: 85 14        	sta	$14                     ; 0x2014 <main+0x378>
    34e4: a5 15        	lda	$15                     ; 0x2015 <main+0x379>
    34e6: 9d 95 00     	sta	$95,x                   ; 0x95 <__rc31+0x66>
    34e9: e8           	inx
    34ea: 86 15        	stx	$15                     ; 0x2015 <main+0x379>
    34ec: a4 7b        	ldy	$7b                     ; 0x207b <main+0x3df>
    34ee: c4 15        	cpy	$15                     ; 0x2015 <main+0x379>
    34f0: d0 d5        	bne	$34c7 <_ZN12_GLOBAL__N_15printEPKcP6Status+0x705>
    34f2: a2 01        	ldx	#$1
    34f4: 86 a1        	stx	$a1                     ; 0x20a1 <main+0x405>
    34f6: 80 10        	bra	$3508 <_ZN12_GLOBAL__N_15printEPKcP6Status+0x746>
    34f8: a6 a4        	ldx	$a4                     ; 0x20a4 <main+0x408>
    34fa: 86 12        	stx	$12                     ; 0x2012 <main+0x376>
    34fc: a6 a5        	ldx	$a5                     ; 0x20a5 <main+0x409>
    34fe: 86 13        	stx	$13                     ; 0x2013 <main+0x377>
    3500: a6 a3        	ldx	$a3                     ; 0x20a3 <main+0x407>
    3502: 86 76        	stx	$76                     ; 0x2076 <main+0x3da>
    3504: a6 a2        	ldx	$a2                     ; 0x20a2 <main+0x406>
    3506: 86 77        	stx	$77                     ; 0x2077 <main+0x3db>
    3508: a5 7b        	lda	$7b                     ; 0x207b <main+0x3df>
    350a: 0a           	asl
    350b: 0a           	asl
    350c: 0a           	asl
    350d: 85 14        	sta	$14                     ; 0x2014 <main+0x378>
    350f: 64 79        	stz	$79                     ; 0x2079 <main+0x3dd>
    3511: a5 79        	lda	$79                     ; 0x2079 <main+0x3dd>
    3513: f0 50        	beq	$3565 <_ZN12_GLOBAL__N_15printEPKcP6Status+0x7a3>
    3515: a6 79        	ldx	$79                     ; 0x2079 <main+0x3dd>
    3517: ca           	dex
    3518: 86 17        	stx	$17                     ; 0x2017 <main+0x37b>
    351a: a2 00        	ldx	#$0
    351c: 64 15        	stz	$15                     ; 0x2015 <main+0x379>
    351e: 80 0d        	bra	$352d <_ZN12_GLOBAL__N_15printEPKcP6Status+0x76b>
    3520: a4 15        	ldy	$15                     ; 0x2015 <main+0x379>
    3522: 99 7f 00     	sta	$7f,y                   ; 0x7f <__rc31+0x50>
    3525: a4 17        	ldy	$17                     ; 0x2017 <main+0x37b>
    3527: c4 15        	cpy	$15                     ; 0x2015 <main+0x379>
    3529: f0 46        	beq	$3571 <_ZN12_GLOBAL__N_15printEPKcP6Status+0x7af>
    352b: e6 15        	inc	$15                     ; 0x2015 <main+0x379>
    352d: a4 15        	ldy	$15                     ; 0x2015 <main+0x379>
    352f: b9 7f 00     	lda	$7f,y                   ; 0x7f <__rc31+0x50>
    3532: 0a           	asl
    3533: e0 00        	cpx	#$0
    3535: f0 02        	beq	$3539 <_ZN12_GLOBAL__N_15printEPKcP6Status+0x777>
    3537: 09 01        	ora	#$1
    3539: a4 9d        	ldy	$9d                     ; 0x209d <main+0x401>
    353b: 84 16        	sty	$16                     ; 0x2016 <main+0x37a>
    353d: c5 16        	cmp	$16                     ; 0x2016 <main+0x37a>
    353f: a2 01        	ldx	#$1
    3541: b0 02        	bcs	$3545 <_ZN12_GLOBAL__N_15printEPKcP6Status+0x783>
    3543: a2 00        	ldx	#$0
    3545: 90 d9        	bcc	$3520 <_ZN12_GLOBAL__N_15printEPKcP6Status+0x75e>
    3547: 84 16        	sty	$16                     ; 0x2016 <main+0x37a>
    3549: 38           	sec
    354a: e5 16        	sbc	$16                     ; 0x2016 <main+0x37a>
    354c: a4 15        	ldy	$15                     ; 0x2015 <main+0x379>
    354e: 99 7f 00     	sta	$7f,y                   ; 0x7f <__rc31+0x50>
    3551: a4 17        	ldy	$17                     ; 0x2017 <main+0x37b>
    3553: c4 15        	cpy	$15                     ; 0x2015 <main+0x379>
    3555: d0 d4        	bne	$352b <_ZN12_GLOBAL__N_15printEPKcP6Status+0x769>
    3557: a4 79        	ldy	$79                     ; 0x2079 <main+0x3dd>
    3559: a6 79        	ldx	$79                     ; 0x2079 <main+0x3dd>
    355b: e8           	inx
    355c: a9 01        	lda	#$1
    355e: 99 7f 00     	sta	$7f,y                   ; 0x7f <__rc31+0x50>
    3561: da           	phx
    3562: 7a           	ply
    3563: 80 0e        	bra	$3573 <_ZN12_GLOBAL__N_15printEPKcP6Status+0x7b1>
    3565: a6 7b        	ldx	$7b                     ; 0x207b <main+0x3df>
    3567: b5 94        	lda	$94,x                   ; 0x2094 <main+0x3f8>
    3569: aa           	tax
    356a: a0 00        	ldy	#$0
    356c: 8a           	txa
    356d: 30 36        	bmi	$35a5 <_ZN12_GLOBAL__N_15printEPKcP6Status+0x7e3>
    356f: 80 3e        	bra	$35af <_ZN12_GLOBAL__N_15printEPKcP6Status+0x7ed>
    3571: a4 79        	ldy	$79                     ; 0x2079 <main+0x3dd>
    3573: a6 7b        	ldx	$7b                     ; 0x207b <main+0x3df>
    3575: b5 94        	lda	$94,x                   ; 0x2094 <main+0x3f8>
    3577: aa           	tax
    3578: 10 35        	bpl	$35af <_ZN12_GLOBAL__N_15printEPKcP6Status+0x7ed>
    357a: 98           	tya
    357b: f0 26        	beq	$35a3 <_ZN12_GLOBAL__N_15printEPKcP6Status+0x7e1>
    357d: 84 16        	sty	$16                     ; 0x2016 <main+0x37a>
    357f: a2 00        	ldx	#$0
    3581: a4 9d        	ldy	$9d                     ; 0x209d <main+0x401>
    3583: b5 7f        	lda	$7f,x                   ; 0x207f <main+0x3e3>
    3585: 1a           	inc
    3586: f6 7f        	inc	$7f,x                   ; 0x207f <main+0x3e3>
    3588: 84 15        	sty	$15                     ; 0x2015 <main+0x379>
    358a: c5 15        	cmp	$15                     ; 0x2015 <main+0x379>
    358c: 90 4a        	bcc	$35d8 <_ZN12_GLOBAL__N_15printEPKcP6Status+0x816>
    358e: 84 15        	sty	$15                     ; 0x2015 <main+0x379>
    3590: 38           	sec
    3591: e5 15        	sbc	$15                     ; 0x2015 <main+0x379>
    3593: 9d 7f 00     	sta	$7f,x                   ; 0x7f <__rc31+0x50>
    3596: e8           	inx
    3597: 86 15        	stx	$15                     ; 0x2015 <main+0x379>
    3599: a5 16        	lda	$16                     ; 0x2016 <main+0x37a>
    359b: c5 15        	cmp	$15                     ; 0x2015 <main+0x379>
    359d: d0 e4        	bne	$3583 <_ZN12_GLOBAL__N_15printEPKcP6Status+0x7c1>
    359f: a4 16        	ldy	$16                     ; 0x2016 <main+0x37a>
    35a1: 80 02        	bra	$35a5 <_ZN12_GLOBAL__N_15printEPKcP6Status+0x7e3>
    35a3: a0 00        	ldy	#$0
    35a5: 5a           	phy
    35a6: fa           	plx
    35a7: e8           	inx
    35a8: a9 01        	lda	#$1
    35aa: 99 7f 00     	sta	$7f,y                   ; 0x7f <__rc31+0x50>
    35ad: da           	phx
    35ae: 7a           	ply
    35af: 84 79        	sty	$79                     ; 0x2079 <main+0x3dd>
    35b1: a2 01        	ldx	#$1
    35b3: 64 15        	stz	$15                     ; 0x2015 <main+0x379>
    35b5: a4 7b        	ldy	$7b                     ; 0x207b <main+0x3df>
    35b7: b5 94        	lda	$94,x                   ; 0x2094 <main+0x3f8>
    35b9: 0a           	asl
    35ba: 64 16        	stz	$16                     ; 0x2016 <main+0x37a>
    35bc: 26 16        	rol	$16                     ; 0x2016 <main+0x37a>
    35be: 05 15        	ora	$15                     ; 0x2015 <main+0x379>
    35c0: 9d 94 00     	sta	$94,x                   ; 0x94 <__rc31+0x65>
    35c3: e8           	inx
    35c4: 88           	dey
    35c5: a5 16        	lda	$16                     ; 0x2016 <main+0x37a>
    35c7: 85 15        	sta	$15                     ; 0x2015 <main+0x379>
    35c9: 98           	tya
    35ca: d0 eb        	bne	$35b7 <_ZN12_GLOBAL__N_15printEPKcP6Status+0x7f5>
    35cc: a6 7c        	ldx	$7c                     ; 0x207c <main+0x3e0>
    35ce: e8           	inx
    35cf: 86 7c        	stx	$7c                     ; 0x207c <main+0x3e0>
    35d1: e4 14        	cpx	$14                     ; 0x2014 <main+0x378>
    35d3: b0 07        	bcs	$35dc <_ZN12_GLOBAL__N_15printEPKcP6Status+0x81a>
    35d5: 4c 11 35     	jmp	$3511 <_ZN12_GLOBAL__N_15printEPKcP6Status+0x74f>
    35d8: a4 16        	ldy	$16                     ; 0x2016 <main+0x37a>
    35da: 80 d3        	bra	$35af <_ZN12_GLOBAL__N_15printEPKcP6Status+0x7ed>
    35dc: a5 7a        	lda	$7a                     ; 0x207a <main+0x3de>
    35de: a6 77        	ldx	$77                     ; 0x2077 <main+0x3db>
    35e0: 10 06        	bpl	$35e8 <_ZN12_GLOBAL__N_15printEPKcP6Status+0x826>
    35e2: a2 01        	ldx	#$1
    35e4: 64 77        	stz	$77                     ; 0x2077 <main+0x3db>
    35e6: 86 76        	stx	$76                     ; 0x2076 <main+0x3da>
    35e8: 29 04        	and	#$4
    35ea: f0 2c        	beq	$3618 <_ZN12_GLOBAL__N_15printEPKcP6Status+0x856>
    35ec: a6 9d        	ldx	$9d                     ; 0x209d <main+0x401>
    35ee: e0 10        	cpx	#$10
    35f0: f0 14        	beq	$3606 <_ZN12_GLOBAL__N_15printEPKcP6Status+0x844>
    35f2: e0 08        	cpx	#$8
    35f4: d0 22        	bne	$3618 <_ZN12_GLOBAL__N_15printEPKcP6Status+0x856>
    35f6: a2 00        	ldx	#$0
    35f8: e4 77        	cpx	$77                     ; 0x2077 <main+0x3db>
    35fa: f0 03        	beq	$35ff <_ZN12_GLOBAL__N_15printEPKcP6Status+0x83d>
    35fc: 4c 3f 37     	jmp	$373f <_ZN12_GLOBAL__N_15printEPKcP6Status+0x97d>
    35ff: a5 79        	lda	$79                     ; 0x2079 <main+0x3dd>
    3601: c5 76        	cmp	$76                     ; 0x2076 <main+0x3da>
    3603: 4c 41 37     	jmp	$3741 <_ZN12_GLOBAL__N_15printEPKcP6Status+0x97f>
    3606: a5 79        	lda	$79                     ; 0x2079 <main+0x3dd>
    3608: f0 0e        	beq	$3618 <_ZN12_GLOBAL__N_15printEPKcP6Status+0x856>
    360a: a5 7a        	lda	$7a                     ; 0x207a <main+0x3de>
    360c: 29 80        	and	#$80
    360e: d0 03        	bne	$3613 <_ZN12_GLOBAL__N_15printEPKcP6Status+0x851>
    3610: 4c 56 37     	jmp	$3756 <_ZN12_GLOBAL__N_15printEPKcP6Status+0x994>
    3613: a2 78        	ldx	#$78
    3615: 4c 58 37     	jmp	$3758 <_ZN12_GLOBAL__N_15printEPKcP6Status+0x996>
    3618: a5 7a        	lda	$7a                     ; 0x207a <main+0x3de>
    361a: a2 2d        	ldx	#$2d
    361c: 86 9d        	stx	$9d                     ; 0x209d <main+0x401>
    361e: a6 a1        	ldx	$a1                     ; 0x20a1 <main+0x405>
    3620: d0 1b        	bne	$363d <_ZN12_GLOBAL__N_15printEPKcP6Status+0x87b>
    3622: aa           	tax
    3623: 29 02        	and	#$2
    3625: a0 2b        	ldy	#$2b
    3627: 84 9d        	sty	$9d                     ; 0x209d <main+0x401>
    3629: a8           	tay
    362a: d0 11        	bne	$363d <_ZN12_GLOBAL__N_15printEPKcP6Status+0x87b>
    362c: 8a           	txa
    362d: 29 08        	and	#$8
    362f: d0 08        	bne	$3639 <_ZN12_GLOBAL__N_15printEPKcP6Status+0x877>
    3631: a2 01        	ldx	#$1
    3633: 86 a1        	stx	$a1                     ; 0x20a1 <main+0x405>
    3635: a9 00        	lda	#$0
    3637: 80 0a        	bra	$3643 <_ZN12_GLOBAL__N_15printEPKcP6Status+0x881>
    3639: a2 20        	ldx	#$20
    363b: 86 9d        	stx	$9d                     ; 0x209d <main+0x401>
    363d: a2 00        	ldx	#$0
    363f: 86 a1        	stx	$a1                     ; 0x20a1 <main+0x405>
    3641: a9 01        	lda	#$1
    3643: a4 79        	ldy	$79                     ; 0x2079 <main+0x3dd>
    3645: a6 77        	ldx	$77                     ; 0x2077 <main+0x3db>
    3647: d0 08        	bne	$3651 <_ZN12_GLOBAL__N_15printEPKcP6Status+0x88f>
    3649: a6 76        	ldx	$76                     ; 0x2076 <main+0x3da>
    364b: 84 14        	sty	$14                     ; 0x2014 <main+0x378>
    364d: e4 14        	cpx	$14                     ; 0x2014 <main+0x378>
    364f: 80 04        	bra	$3655 <_ZN12_GLOBAL__N_15printEPKcP6Status+0x893>
    3651: a6 77        	ldx	$77                     ; 0x2077 <main+0x3db>
    3653: e0 00        	cpx	#$0
    3655: a6 76        	ldx	$76                     ; 0x2076 <main+0x3da>
    3657: 86 14        	stx	$14                     ; 0x2014 <main+0x378>
    3659: a6 77        	ldx	$77                     ; 0x2077 <main+0x3db>
    365b: 86 15        	stx	$15                     ; 0x2015 <main+0x379>
    365d: b0 04        	bcs	$3663 <_ZN12_GLOBAL__N_15printEPKcP6Status+0x8a1>
    365f: 84 14        	sty	$14                     ; 0x2014 <main+0x378>
    3661: 64 15        	stz	$15                     ; 0x2015 <main+0x379>
    3663: 18           	clc
    3664: aa           	tax
    3665: 65 14        	adc	$14                     ; 0x2014 <main+0x378>
    3667: a8           	tay
    3668: 85 16        	sta	$16                     ; 0x2016 <main+0x37a>
    366a: a5 15        	lda	$15                     ; 0x2015 <main+0x379>
    366c: 69 00        	adc	#$0
    366e: 85 17        	sta	$17                     ; 0x2017 <main+0x37b>
    3670: c5 12        	cmp	$12                     ; 0x2012 <main+0x376>
    3672: d0 04        	bne	$3678 <_ZN12_GLOBAL__N_15printEPKcP6Status+0x8b6>
    3674: c4 13        	cpy	$13                     ; 0x2013 <main+0x377>
    3676: 80 02        	bra	$367a <_ZN12_GLOBAL__N_15printEPKcP6Status+0x8b8>
    3678: c5 12        	cmp	$12                     ; 0x2012 <main+0x376>
    367a: 64 78        	stz	$78                     ; 0x2078 <main+0x3dc>
    367c: 90 04        	bcc	$3682 <_ZN12_GLOBAL__N_15printEPKcP6Status+0x8c0>
    367e: 64 7a        	stz	$7a                     ; 0x207a <main+0x3de>
    3680: 80 4d        	bra	$36cf <_ZN12_GLOBAL__N_15printEPKcP6Status+0x90d>
    3682: a5 7a        	lda	$7a                     ; 0x207a <main+0x3de>
    3684: 29 11        	and	#$11
    3686: f0 0f        	beq	$3697 <_ZN12_GLOBAL__N_15printEPKcP6Status+0x8d5>
    3688: a5 13        	lda	$13                     ; 0x2013 <main+0x377>
    368a: 38           	sec
    368b: e5 16        	sbc	$16                     ; 0x2016 <main+0x37a>
    368d: 85 78        	sta	$78                     ; 0x2078 <main+0x3dc>
    368f: a5 12        	lda	$12                     ; 0x2012 <main+0x376>
    3691: e5 17        	sbc	$17                     ; 0x2017 <main+0x37b>
    3693: 85 7a        	sta	$7a                     ; 0x207a <main+0x3de>
    3695: 80 38        	bra	$36cf <_ZN12_GLOBAL__N_15printEPKcP6Status+0x90d>
    3697: 8a           	txa
    3698: 38           	sec
    3699: e5 13        	sbc	$13                     ; 0x2013 <main+0x377>
    369b: aa           	tax
    369c: a9 00        	lda	#$0
    369e: e5 12        	sbc	$12                     ; 0x2012 <main+0x376>
    36a0: 85 12        	sta	$12                     ; 0x2012 <main+0x376>
    36a2: 18           	clc
    36a3: 8a           	txa
    36a4: 65 14        	adc	$14                     ; 0x2014 <main+0x378>
    36a6: 85 78        	sta	$78                     ; 0x2078 <main+0x3dc>
    36a8: a5 12        	lda	$12                     ; 0x2012 <main+0x376>
    36aa: 65 15        	adc	$15                     ; 0x2015 <main+0x379>
    36ac: 85 7a        	sta	$7a                     ; 0x207a <main+0x3de>
    36ae: a6 74        	ldx	$74                     ; 0x2074 <main+0x3d8>
    36b0: 86 12        	stx	$12                     ; 0x2012 <main+0x376>
    36b2: a6 75        	ldx	$75                     ; 0x2075 <main+0x3d9>
    36b4: 86 13        	stx	$13                     ; 0x2013 <main+0x377>
    36b6: a9 20        	lda	#$20
    36b8: 20 f6 38     	jsr	$38f6 <_ZN12_GLOBAL__N_13putEcP6Status>
    36bb: a6 7a        	ldx	$7a                     ; 0x207a <main+0x3de>
    36bd: e6 78        	inc	$78                     ; 0x2078 <main+0x3dc>
    36bf: d0 01        	bne	$36c2 <_ZN12_GLOBAL__N_15printEPKcP6Status+0x900>
    36c1: e8           	inx
    36c2: 86 7a        	stx	$7a                     ; 0x207a <main+0x3de>
    36c4: 8a           	txa
    36c5: d0 e7        	bne	$36ae <_ZN12_GLOBAL__N_15printEPKcP6Status+0x8ec>
    36c7: a5 78        	lda	$78                     ; 0x2078 <main+0x3dc>
    36c9: d0 e3        	bne	$36ae <_ZN12_GLOBAL__N_15printEPKcP6Status+0x8ec>
    36cb: 64 7a        	stz	$7a                     ; 0x207a <main+0x3de>
    36cd: 64 78        	stz	$78                     ; 0x2078 <main+0x3dc>
    36cf: a6 a1        	ldx	$a1                     ; 0x20a1 <main+0x405>
    36d1: d0 0d        	bne	$36e0 <_ZN12_GLOBAL__N_15printEPKcP6Status+0x91e>
    36d3: a6 74        	ldx	$74                     ; 0x2074 <main+0x3d8>
    36d5: 86 12        	stx	$12                     ; 0x2012 <main+0x376>
    36d7: a6 75        	ldx	$75                     ; 0x2075 <main+0x3d9>
    36d9: 86 13        	stx	$13                     ; 0x2013 <main+0x377>
    36db: a5 9d        	lda	$9d                     ; 0x209d <main+0x401>
    36dd: 20 f6 38     	jsr	$38f6 <_ZN12_GLOBAL__N_13putEcP6Status>
    36e0: a6 a0        	ldx	$a0                     ; 0x20a0 <main+0x404>
    36e2: f0 0d        	beq	$36f1 <_ZN12_GLOBAL__N_15printEPKcP6Status+0x92f>
    36e4: a6 74        	ldx	$74                     ; 0x2074 <main+0x3d8>
    36e6: 86 12        	stx	$12                     ; 0x2012 <main+0x376>
    36e8: a6 75        	ldx	$75                     ; 0x2075 <main+0x3d9>
    36ea: 86 13        	stx	$13                     ; 0x2013 <main+0x377>
    36ec: a5 a2        	lda	$a2                     ; 0x20a2 <main+0x406>
    36ee: 20 f6 38     	jsr	$38f6 <_ZN12_GLOBAL__N_13putEcP6Status>
    36f1: a0 01        	ldy	#$1
    36f3: b1 74        	lda	($74),y                 ; 0x2074 <main+0x3d8>
    36f5: aa           	tax
    36f6: 29 10        	and	#$10
    36f8: f0 36        	beq	$3730 <_ZN12_GLOBAL__N_15printEPKcP6Status+0x96e>
    36fa: 8a           	txa
    36fb: 29 01        	and	#$1
    36fd: a6 79        	ldx	$79                     ; 0x2079 <main+0x3dd>
    36ff: a8           	tay
    3700: d0 30        	bne	$3732 <_ZN12_GLOBAL__N_15printEPKcP6Status+0x970>
    3702: a5 7a        	lda	$7a                     ; 0x207a <main+0x3de>
    3704: d0 07        	bne	$370d <_ZN12_GLOBAL__N_15printEPKcP6Status+0x94b>
    3706: a5 78        	lda	$78                     ; 0x2078 <main+0x3dc>
    3708: d0 03        	bne	$370d <_ZN12_GLOBAL__N_15printEPKcP6Status+0x94b>
    370a: 4c 6d 37     	jmp	$376d <_ZN12_GLOBAL__N_15printEPKcP6Status+0x9ab>
    370d: a6 74        	ldx	$74                     ; 0x2074 <main+0x3d8>
    370f: 86 12        	stx	$12                     ; 0x2012 <main+0x376>
    3711: a6 75        	ldx	$75                     ; 0x2075 <main+0x3d9>
    3713: 86 13        	stx	$13                     ; 0x2013 <main+0x377>
    3715: a9 30        	lda	#$30
    3717: 20 f6 38     	jsr	$38f6 <_ZN12_GLOBAL__N_13putEcP6Status>
    371a: a2 ff        	ldx	#$ff
    371c: c6 78        	dec	$78                     ; 0x2078 <main+0x3dc>
    371e: e4 78        	cpx	$78                     ; 0x2078 <main+0x3dc>
    3720: d0 02        	bne	$3724 <_ZN12_GLOBAL__N_15printEPKcP6Status+0x962>
    3722: c6 7a        	dec	$7a                     ; 0x207a <main+0x3de>
    3724: a5 7a        	lda	$7a                     ; 0x207a <main+0x3de>
    3726: d0 e5        	bne	$370d <_ZN12_GLOBAL__N_15printEPKcP6Status+0x94b>
    3728: a5 78        	lda	$78                     ; 0x2078 <main+0x3dc>
    372a: d0 e1        	bne	$370d <_ZN12_GLOBAL__N_15printEPKcP6Status+0x94b>
    372c: 64 78        	stz	$78                     ; 0x2078 <main+0x3dc>
    372e: 64 7a        	stz	$7a                     ; 0x207a <main+0x3de>
    3730: a6 79        	ldx	$79                     ; 0x2079 <main+0x3dd>
    3732: a0 00        	ldy	#$0
    3734: c4 77        	cpy	$77                     ; 0x2077 <main+0x3db>
    3736: f0 3d        	beq	$3775 <_ZN12_GLOBAL__N_15printEPKcP6Status+0x9b3>
    3738: c4 77        	cpy	$77                     ; 0x2077 <main+0x3db>
    373a: 90 3d        	bcc	$3779 <_ZN12_GLOBAL__N_15printEPKcP6Status+0x9b7>
    373c: 4c 9c 37     	jmp	$379c <_ZN12_GLOBAL__N_15printEPKcP6Status+0x9da>
    373f: e4 77        	cpx	$77                     ; 0x2077 <main+0x3db>
    3741: a5 7a        	lda	$7a                     ; 0x207a <main+0x3de>
    3743: b0 03        	bcs	$3748 <_ZN12_GLOBAL__N_15printEPKcP6Status+0x986>
    3745: 4c 1a 36     	jmp	$361a <_ZN12_GLOBAL__N_15printEPKcP6Status+0x858>
    3748: a4 79        	ldy	$79                     ; 0x2079 <main+0x3dd>
    374a: 84 76        	sty	$76                     ; 0x2076 <main+0x3da>
    374c: e6 76        	inc	$76                     ; 0x2076 <main+0x3da>
    374e: d0 01        	bne	$3751 <_ZN12_GLOBAL__N_15printEPKcP6Status+0x98f>
    3750: e8           	inx
    3751: 86 77        	stx	$77                     ; 0x2077 <main+0x3db>
    3753: 4c 1a 36     	jmp	$361a <_ZN12_GLOBAL__N_15printEPKcP6Status+0x858>
    3756: a2 58        	ldx	#$58
    3758: 86 a2        	stx	$a2                     ; 0x20a2 <main+0x406>
    375a: a4 79        	ldy	$79                     ; 0x2079 <main+0x3dd>
    375c: a2 01        	ldx	#$1
    375e: 86 a0        	stx	$a0                     ; 0x20a0 <main+0x404>
    3760: a2 30        	ldx	#$30
    3762: 86 9d        	stx	$9d                     ; 0x209d <main+0x401>
    3764: a9 02        	lda	#$2
    3766: a2 00        	ldx	#$0
    3768: 86 a1        	stx	$a1                     ; 0x20a1 <main+0x405>
    376a: 4c 45 36     	jmp	$3645 <_ZN12_GLOBAL__N_15printEPKcP6Status+0x883>
    376d: 64 78        	stz	$78                     ; 0x2078 <main+0x3dc>
    376f: 64 7a        	stz	$7a                     ; 0x207a <main+0x3de>
    3771: 80 bf        	bra	$3732 <_ZN12_GLOBAL__N_15printEPKcP6Status+0x970>
    3773: a6 79        	ldx	$79                     ; 0x2079 <main+0x3dd>
    3775: e4 76        	cpx	$76                     ; 0x2076 <main+0x3da>
    3777: b0 23        	bcs	$379c <_ZN12_GLOBAL__N_15printEPKcP6Status+0x9da>
    3779: a2 ff        	ldx	#$ff
    377b: c6 76        	dec	$76                     ; 0x2076 <main+0x3da>
    377d: e4 76        	cpx	$76                     ; 0x2076 <main+0x3da>
    377f: d0 02        	bne	$3783 <_ZN12_GLOBAL__N_15printEPKcP6Status+0x9c1>
    3781: c6 77        	dec	$77                     ; 0x2077 <main+0x3db>
    3783: a6 74        	ldx	$74                     ; 0x2074 <main+0x3d8>
    3785: 86 12        	stx	$12                     ; 0x2012 <main+0x376>
    3787: a6 75        	ldx	$75                     ; 0x2075 <main+0x3d9>
    3789: 86 13        	stx	$13                     ; 0x2013 <main+0x377>
    378b: a9 30        	lda	#$30
    378d: 20 f6 38     	jsr	$38f6 <_ZN12_GLOBAL__N_13putEcP6Status>
    3790: a2 00        	ldx	#$0
    3792: e4 77        	cpx	$77                     ; 0x2077 <main+0x3db>
    3794: f0 dd        	beq	$3773 <_ZN12_GLOBAL__N_15printEPKcP6Status+0x9b1>
    3796: e4 77        	cpx	$77                     ; 0x2077 <main+0x3db>
    3798: a6 79        	ldx	$79                     ; 0x2079 <main+0x3dd>
    379a: 90 dd        	bcc	$3779 <_ZN12_GLOBAL__N_15printEPKcP6Status+0x9b7>
    379c: a4 78        	ldy	$78                     ; 0x2078 <main+0x3dc>
    379e: 84 79        	sty	$79                     ; 0x2079 <main+0x3dd>
    37a0: 8a           	txa
    37a1: d0 03        	bne	$37a6 <_ZN12_GLOBAL__N_15printEPKcP6Status+0x9e4>
    37a3: 4c 36 38     	jmp	$3836 <_ZN12_GLOBAL__N_15printEPKcP6Status+0xa74>
    37a6: ca           	dex
    37a7: d0 03        	bne	$37ac <_ZN12_GLOBAL__N_15printEPKcP6Status+0x9ea>
    37a9: 4c 07 38     	jmp	$3807 <_ZN12_GLOBAL__N_15printEPKcP6Status+0xa45>
    37ac: 86 78        	stx	$78                     ; 0x2078 <main+0x3dc>
    37ae: a9 7d        	lda	#$7d
    37b0: 18           	clc
    37b1: 65 78        	adc	$78                     ; 0x2078 <main+0x3dc>
    37b3: aa           	tax
    37b4: a9 00        	lda	#$0
    37b6: 69 00        	adc	#$0
    37b8: 85 12        	sta	$12                     ; 0x2012 <main+0x376>
    37ba: 18           	clc
    37bb: 8a           	txa
    37bc: 69 02        	adc	#$2
    37be: 85 76        	sta	$76                     ; 0x2076 <main+0x3da>
    37c0: a5 12        	lda	$12                     ; 0x2012 <main+0x376>
    37c2: 69 00        	adc	#$0
    37c4: 85 77        	sta	$77                     ; 0x2077 <main+0x3db>
    37c6: 80 35        	bra	$37fd <_ZN12_GLOBAL__N_15printEPKcP6Status+0xa3b>
    37c8: 85 13        	sta	$13                     ; 0x2013 <main+0x377>
    37ca: a9 80        	lda	#$80
    37cc: a0 01        	ldy	#$1
    37ce: 31 74        	and	($74),y                 ; 0x2074 <main+0x3d8>
    37d0: f0 04        	beq	$37d6 <_ZN12_GLOBAL__N_15printEPKcP6Status+0xa14>
    37d2: a2 61        	ldx	#$61
    37d4: 80 02        	bra	$37d8 <_ZN12_GLOBAL__N_15printEPKcP6Status+0xa16>
    37d6: a2 41        	ldx	#$41
    37d8: 86 12        	stx	$12                     ; 0x2012 <main+0x376>
    37da: 18           	clc
    37db: a5 13        	lda	$13                     ; 0x2013 <main+0x377>
    37dd: 65 12        	adc	$12                     ; 0x2012 <main+0x376>
    37df: 18           	clc
    37e0: 69 f6        	adc	#$f6
    37e2: a6 74        	ldx	$74                     ; 0x2074 <main+0x3d8>
    37e4: 86 12        	stx	$12                     ; 0x2012 <main+0x376>
    37e6: a6 75        	ldx	$75                     ; 0x2075 <main+0x3d9>
    37e8: 86 13        	stx	$13                     ; 0x2013 <main+0x377>
    37ea: 20 f6 38     	jsr	$38f6 <_ZN12_GLOBAL__N_13putEcP6Status>
    37ed: c6 78        	dec	$78                     ; 0x2078 <main+0x3dc>
    37ef: a2 ff        	ldx	#$ff
    37f1: c6 76        	dec	$76                     ; 0x2076 <main+0x3da>
    37f3: e4 76        	cpx	$76                     ; 0x2076 <main+0x3da>
    37f5: d0 02        	bne	$37f9 <_ZN12_GLOBAL__N_15printEPKcP6Status+0xa37>
    37f7: c6 77        	dec	$77                     ; 0x2077 <main+0x3db>
    37f9: a5 78        	lda	$78                     ; 0x2078 <main+0x3dc>
    37fb: f0 0a        	beq	$3807 <_ZN12_GLOBAL__N_15printEPKcP6Status+0xa45>
    37fd: b2 76        	lda	($76)                   ; 0x2076 <main+0x3da>
    37ff: c9 0a        	cmp	#$a
    3801: b0 c5        	bcs	$37c8 <_ZN12_GLOBAL__N_15printEPKcP6Status+0xa06>
    3803: 09 30        	ora	#$30
    3805: 80 db        	bra	$37e2 <_ZN12_GLOBAL__N_15printEPKcP6Status+0xa20>
    3807: a5 7f        	lda	$7f                     ; 0x207f <main+0x3e3>
    3809: c9 0a        	cmp	#$a
    380b: b0 04        	bcs	$3811 <_ZN12_GLOBAL__N_15printEPKcP6Status+0xa4f>
    380d: 09 30        	ora	#$30
    380f: 80 1a        	bra	$382b <_ZN12_GLOBAL__N_15printEPKcP6Status+0xa69>
    3811: 85 13        	sta	$13                     ; 0x2013 <main+0x377>
    3813: a0 01        	ldy	#$1
    3815: a9 80        	lda	#$80
    3817: 31 74        	and	($74),y                 ; 0x2074 <main+0x3d8>
    3819: f0 04        	beq	$381f <_ZN12_GLOBAL__N_15printEPKcP6Status+0xa5d>
    381b: a2 61        	ldx	#$61
    381d: 80 02        	bra	$3821 <_ZN12_GLOBAL__N_15printEPKcP6Status+0xa5f>
    381f: a2 41        	ldx	#$41
    3821: 86 12        	stx	$12                     ; 0x2012 <main+0x376>
    3823: a5 13        	lda	$13                     ; 0x2013 <main+0x377>
    3825: 18           	clc
    3826: 65 12        	adc	$12                     ; 0x2012 <main+0x376>
    3828: 18           	clc
    3829: 69 f6        	adc	#$f6
    382b: a6 74        	ldx	$74                     ; 0x2074 <main+0x3d8>
    382d: 86 12        	stx	$12                     ; 0x2012 <main+0x376>
    382f: a6 75        	ldx	$75                     ; 0x2075 <main+0x3d9>
    3831: 86 13        	stx	$13                     ; 0x2013 <main+0x377>
    3833: 20 f6 38     	jsr	$38f6 <_ZN12_GLOBAL__N_13putEcP6Status>
    3836: a0 01        	ldy	#$1
    3838: 98           	tya
    3839: 31 74        	and	($74),y                 ; 0x2074 <main+0x3d8>
    383b: f0 21        	beq	$385e <_ZN12_GLOBAL__N_15printEPKcP6Status+0xa9c>
    383d: a5 7a        	lda	$7a                     ; 0x207a <main+0x3de>
    383f: f0 19        	beq	$385a <_ZN12_GLOBAL__N_15printEPKcP6Status+0xa98>
    3841: a6 74        	ldx	$74                     ; 0x2074 <main+0x3d8>
    3843: 86 12        	stx	$12                     ; 0x2012 <main+0x376>
    3845: a6 75        	ldx	$75                     ; 0x2075 <main+0x3d9>
    3847: 86 13        	stx	$13                     ; 0x2013 <main+0x377>
    3849: a9 20        	lda	#$20
    384b: 20 f6 38     	jsr	$38f6 <_ZN12_GLOBAL__N_13putEcP6Status>
    384e: a2 ff        	ldx	#$ff
    3850: c6 79        	dec	$79                     ; 0x2079 <main+0x3dd>
    3852: e4 79        	cpx	$79                     ; 0x2079 <main+0x3dd>
    3854: d0 e7        	bne	$383d <_ZN12_GLOBAL__N_15printEPKcP6Status+0xa7b>
    3856: c6 7a        	dec	$7a                     ; 0x207a <main+0x3de>
    3858: 80 e3        	bra	$383d <_ZN12_GLOBAL__N_15printEPKcP6Status+0xa7b>
    385a: a5 79        	lda	$79                     ; 0x2079 <main+0x3dd>
    385c: d0 e3        	bne	$3841 <_ZN12_GLOBAL__N_15printEPKcP6Status+0xa7f>
    385e: a4 74        	ldy	$74                     ; 0x2074 <main+0x3d8>
    3860: a5 74        	lda	$74                     ; 0x2074 <main+0x3d8>
    3862: 84 14        	sty	$14                     ; 0x2014 <main+0x378>
    3864: 18           	clc
    3865: 69 05        	adc	#$5
    3867: 85 12        	sta	$12                     ; 0x2012 <main+0x376>
    3869: a5 75        	lda	$75                     ; 0x2075 <main+0x3d9>
    386b: 69 00        	adc	#$0
    386d: 18           	clc
    386e: 85 13        	sta	$13                     ; 0x2013 <main+0x377>
    3870: a0 01        	ldy	#$1
    3872: a5 14        	lda	$14                     ; 0x2014 <main+0x378>
    3874: 69 03        	adc	#$3
    3876: 85 14        	sta	$14                     ; 0x2014 <main+0x378>
    3878: a5 75        	lda	$75                     ; 0x2075 <main+0x3d9>
    387a: 69 00        	adc	#$0
    387c: aa           	tax
    387d: b1 12        	lda	($12),y                 ; 0x2012 <main+0x376>
    387f: 85 15        	sta	$15                     ; 0x2015 <main+0x379>
    3881: a4 14        	ldy	$14                     ; 0x2014 <main+0x378>
    3883: 84 12        	sty	$12                     ; 0x2012 <main+0x376>
    3885: 86 13        	stx	$13                     ; 0x2013 <main+0x377>
    3887: a0 03        	ldy	#$3
    3889: b1 74        	lda	($74),y                 ; 0x2074 <main+0x3d8>
    388b: 85 16        	sta	$16                     ; 0x2016 <main+0x37a>
    388d: a0 01        	ldy	#$1
    388f: b1 12        	lda	($12),y                 ; 0x2012 <main+0x376>
    3891: 85 17        	sta	$17                     ; 0x2017 <main+0x37b>
    3893: 85 12        	sta	$12                     ; 0x2012 <main+0x376>
    3895: a4 15        	ldy	$15                     ; 0x2015 <main+0x379>
    3897: c4 12        	cpy	$12                     ; 0x2012 <main+0x376>
    3899: d0 0c        	bne	$38a7 <_ZN12_GLOBAL__N_15printEPKcP6Status+0xae5>
    389b: a6 16        	ldx	$16                     ; 0x2016 <main+0x37a>
    389d: a0 05        	ldy	#$5
    389f: b1 74        	lda	($74),y                 ; 0x2074 <main+0x3d8>
    38a1: 86 12        	stx	$12                     ; 0x2012 <main+0x376>
    38a3: c5 12        	cmp	$12                     ; 0x2012 <main+0x376>
    38a5: 80 08        	bra	$38af <_ZN12_GLOBAL__N_15printEPKcP6Status+0xaed>
    38a7: 84 13        	sty	$13                     ; 0x2013 <main+0x377>
    38a9: 85 12        	sta	$12                     ; 0x2012 <main+0x376>
    38ab: a6 13        	ldx	$13                     ; 0x2013 <main+0x377>
    38ad: e4 12        	cpx	$12                     ; 0x2012 <main+0x376>
    38af: a6 9e        	ldx	$9e                     ; 0x209e <main+0x402>
    38b1: 86 12        	stx	$12                     ; 0x2012 <main+0x376>
    38b3: a6 9f        	ldx	$9f                     ; 0x209f <main+0x403>
    38b5: 86 13        	stx	$13                     ; 0x2013 <main+0x377>
    38b7: 90 36        	bcc	$38ef <_ZN12_GLOBAL__N_15printEPKcP6Status+0xb2d>
    38b9: a6 16        	ldx	$16                     ; 0x2016 <main+0x37a>
    38bb: a5 17        	lda	$17                     ; 0x2017 <main+0x37b>
    38bd: d0 03        	bne	$38c2 <_ZN12_GLOBAL__N_15printEPKcP6Status+0xb00>
    38bf: 8a           	txa
    38c0: f0 2d        	beq	$38ef <_ZN12_GLOBAL__N_15printEPKcP6Status+0xb2d>
    38c2: a5 74        	lda	$74                     ; 0x2074 <main+0x3d8>
    38c4: 18           	clc
    38c5: 69 09        	adc	#$9
    38c7: 85 14        	sta	$14                     ; 0x2014 <main+0x378>
    38c9: a5 75        	lda	$75                     ; 0x2075 <main+0x3d9>
    38cb: 69 00        	adc	#$0
    38cd: a0 09        	ldy	#$9
    38cf: 85 15        	sta	$15                     ; 0x2015 <main+0x379>
    38d1: 18           	clc
    38d2: a5 16        	lda	$16                     ; 0x2016 <main+0x37a>
    38d4: 71 74        	adc	($74),y                 ; 0x2074 <main+0x3d8>
    38d6: aa           	tax
    38d7: a0 01        	ldy	#$1
    38d9: a5 17        	lda	$17                     ; 0x2017 <main+0x37b>
    38db: 71 14        	adc	($14),y                 ; 0x2014 <main+0x378>
    38dd: 86 14        	stx	$14                     ; 0x2014 <main+0x378>
    38df: 85 15        	sta	$15                     ; 0x2015 <main+0x379>
    38e1: a2 ff        	ldx	#$ff
    38e3: c6 14        	dec	$14                     ; 0x2014 <main+0x378>
    38e5: e4 14        	cpx	$14                     ; 0x2014 <main+0x378>
    38e7: d0 02        	bne	$38eb <_ZN12_GLOBAL__N_15printEPKcP6Status+0xb29>
    38e9: c6 15        	dec	$15                     ; 0x2015 <main+0x379>
    38eb: a9 00        	lda	#$0
    38ed: 92 14        	sta	($14)                   ; 0x2014 <main+0x378>
    38ef: e6 12        	inc	$12                     ; 0x2012 <main+0x376>
    38f1: d0 02        	bne	$38f5 <_ZN12_GLOBAL__N_15printEPKcP6Status+0xb33>
    38f3: e6 13        	inc	$13                     ; 0x2013 <main+0x377>
    38f5: 60           	rts

000038f6 <_ZN12_GLOBAL__N_13putEcP6Status>:
    38f6: 85 18        	sta	$18                     ; 0x2018 <main+0x37c>
    38f8: a6 13        	ldx	$13                     ; 0x2013 <main+0x377>
    38fa: 18           	clc
    38fb: a5 12        	lda	$12                     ; 0x2012 <main+0x376>
    38fd: 69 05        	adc	#$5
    38ff: a8           	tay
    3900: a5 13        	lda	$13                     ; 0x2013 <main+0x377>
    3902: 86 15        	stx	$15                     ; 0x2015 <main+0x379>
    3904: 69 00        	adc	#$0
    3906: 18           	clc
    3907: 84 16        	sty	$16                     ; 0x2016 <main+0x37a>
    3909: a0 05        	ldy	#$5
    390b: 85 17        	sta	$17                     ; 0x2017 <main+0x37b>
    390d: b1 12        	lda	($12),y                 ; 0x2012 <main+0x376>
    390f: aa           	tax
    3910: a5 12        	lda	$12                     ; 0x2012 <main+0x376>
    3912: 69 03        	adc	#$3
    3914: 85 14        	sta	$14                     ; 0x2014 <main+0x378>
    3916: a5 15        	lda	$15                     ; 0x2015 <main+0x379>
    3918: 69 00        	adc	#$0
    391a: 85 15        	sta	$15                     ; 0x2015 <main+0x379>
    391c: a0 01        	ldy	#$1
    391e: b1 16        	lda	($16),y                 ; 0x2016 <main+0x37a>
    3920: d1 14        	cmp	($14),y                 ; 0x2014 <main+0x378>
    3922: d0 11        	bne	$3935 <_ZN12_GLOBAL__N_13putEcP6Status+0x3f>
    3924: a0 03        	ldy	#$3
    3926: 85 17        	sta	$17                     ; 0x2017 <main+0x37b>
    3928: b1 12        	lda	($12),y                 ; 0x2012 <main+0x376>
    392a: 85 14        	sta	$14                     ; 0x2014 <main+0x378>
    392c: 86 16        	stx	$16                     ; 0x2016 <main+0x37a>
    392e: e4 14        	cpx	$14                     ; 0x2014 <main+0x378>
    3930: 90 0e        	bcc	$3940 <_ZN12_GLOBAL__N_13putEcP6Status+0x4a>
    3932: 4c a1 39     	jmp	$39a1 <_ZN12_GLOBAL__N_13putEcP6Status+0xab>
    3935: 86 16        	stx	$16                     ; 0x2016 <main+0x37a>
    3937: d1 14        	cmp	($14),y                 ; 0x2014 <main+0x378>
    3939: 85 17        	sta	$17                     ; 0x2017 <main+0x37b>
    393b: 90 03        	bcc	$3940 <_ZN12_GLOBAL__N_13putEcP6Status+0x4a>
    393d: 4c a1 39     	jmp	$39a1 <_ZN12_GLOBAL__N_13putEcP6Status+0xab>
    3940: a5 12        	lda	$12                     ; 0x2012 <main+0x376>
    3942: 18           	clc
    3943: 69 0f        	adc	#$f
    3945: 85 14        	sta	$14                     ; 0x2014 <main+0x378>
    3947: a5 13        	lda	$13                     ; 0x2013 <main+0x377>
    3949: 69 00        	adc	#$0
    394b: 85 15        	sta	$15                     ; 0x2015 <main+0x379>
    394d: a0 01        	ldy	#$1
    394f: b1 14        	lda	($14),y                 ; 0x2014 <main+0x378>
    3951: a2 00        	ldx	#$0
    3953: 86 14        	stx	$14                     ; 0x2014 <main+0x378>
    3955: a2 00        	ldx	#$0
    3957: 86 15        	stx	$15                     ; 0x2015 <main+0x379>
    3959: c5 15        	cmp	$15                     ; 0x2015 <main+0x379>
    395b: d0 2d        	bne	$398a <_ZN12_GLOBAL__N_13putEcP6Status+0x94>
    395d: a0 0f        	ldy	#$f
    395f: b1 12        	lda	($12),y                 ; 0x2012 <main+0x376>
    3961: c5 14        	cmp	$14                     ; 0x2014 <main+0x378>
    3963: d0 25        	bne	$398a <_ZN12_GLOBAL__N_13putEcP6Status+0x94>
    3965: a5 12        	lda	$12                     ; 0x2012 <main+0x376>
    3967: 18           	clc
    3968: 69 09        	adc	#$9
    396a: 85 14        	sta	$14                     ; 0x2014 <main+0x378>
    396c: a5 13        	lda	$13                     ; 0x2013 <main+0x377>
    396e: 69 00        	adc	#$0
    3970: a0 09        	ldy	#$9
    3972: 85 15        	sta	$15                     ; 0x2015 <main+0x379>
    3974: 18           	clc
    3975: a5 16        	lda	$16                     ; 0x2016 <main+0x37a>
    3977: 71 12        	adc	($12),y                 ; 0x2012 <main+0x376>
    3979: aa           	tax
    397a: a0 01        	ldy	#$1
    397c: a5 17        	lda	$17                     ; 0x2017 <main+0x37b>
    397e: 71 14        	adc	($14),y                 ; 0x2014 <main+0x378>
    3980: 86 14        	stx	$14                     ; 0x2014 <main+0x378>
    3982: 85 15        	sta	$15                     ; 0x2015 <main+0x379>
    3984: a5 18        	lda	$18                     ; 0x2018 <main+0x37c>
    3986: 92 14        	sta	($14)                   ; 0x2014 <main+0x378>
    3988: 80 17        	bra	$39a1 <_ZN12_GLOBAL__N_13putEcP6Status+0xab>
    398a: a6 12        	ldx	$12                     ; 0x2012 <main+0x376>
    398c: 86 b1        	stx	$b1                     ; 0x20b1 <main+0x415>
    398e: a6 13        	ldx	$13                     ; 0x2013 <main+0x377>
    3990: 86 b2        	stx	$b2                     ; 0x20b2 <main+0x416>
    3992: a2 00        	ldx	#$0
    3994: a5 18        	lda	$18                     ; 0x2018 <main+0x37c>
    3996: 20 31 3c     	jsr	$3c31 <putchar>
    3999: a6 b1        	ldx	$b1                     ; 0x20b1 <main+0x415>
    399b: 86 12        	stx	$12                     ; 0x2012 <main+0x376>
    399d: a6 b2        	ldx	$b2                     ; 0x20b2 <main+0x416>
    399f: 86 13        	stx	$13                     ; 0x2013 <main+0x377>
    39a1: a0 05        	ldy	#$5
    39a3: a5 12        	lda	$12                     ; 0x2012 <main+0x376>
    39a5: 18           	clc
    39a6: 69 05        	adc	#$5
    39a8: 85 14        	sta	$14                     ; 0x2014 <main+0x378>
    39aa: a5 13        	lda	$13                     ; 0x2013 <main+0x377>
    39ac: 69 00        	adc	#$0
    39ae: 85 15        	sta	$15                     ; 0x2015 <main+0x379>
    39b0: b1 12        	lda	($12),y                 ; 0x2012 <main+0x376>
    39b2: aa           	tax
    39b3: a0 01        	ldy	#$1
    39b5: b1 14        	lda	($14),y                 ; 0x2014 <main+0x378>
    39b7: e8           	inx
    39b8: d0 01        	bne	$39bb <_ZN12_GLOBAL__N_13putEcP6Status+0xc5>
    39ba: 1a           	inc
    39bb: 85 16        	sta	$16                     ; 0x2016 <main+0x37a>
    39bd: 8a           	txa
    39be: a0 05        	ldy	#$5
    39c0: 91 12        	sta	($12),y                 ; 0x2012 <main+0x376>
    39c2: a0 01        	ldy	#$1
    39c4: a5 16        	lda	$16                     ; 0x2016 <main+0x37a>
    39c6: 91 14        	sta	($14),y                 ; 0x2014 <main+0x378>
    39c8: 60           	rts

000039c9 <_ZN12_GLOBAL__N_112print_stringEPKcP6Status>:
    39c9: a6 12        	ldx	$12                     ; 0x2012 <main+0x376>
    39cb: 86 a9        	stx	$a9                     ; 0x20a9 <main+0x40d>
    39cd: a6 13        	ldx	$13                     ; 0x2013 <main+0x377>
    39cf: 86 aa        	stx	$aa                     ; 0x20aa <main+0x40e>
    39d1: a6 14        	ldx	$14                     ; 0x2014 <main+0x378>
    39d3: 86 ab        	stx	$ab                     ; 0x20ab <main+0x40f>
    39d5: a6 15        	ldx	$15                     ; 0x2015 <main+0x379>
    39d7: 86 ac        	stx	$ac                     ; 0x20ac <main+0x410>
    39d9: a5 ab        	lda	$ab                     ; 0x20ab <main+0x40f>
    39db: 18           	clc
    39dc: 69 0d        	adc	#$d
    39de: 85 12        	sta	$12                     ; 0x2012 <main+0x376>
    39e0: a5 ac        	lda	$ac                     ; 0x20ac <main+0x410>
    39e2: 69 00        	adc	#$0
    39e4: 85 13        	sta	$13                     ; 0x2013 <main+0x377>
    39e6: a0 01        	ldy	#$1
    39e8: b1 12        	lda	($12),y                 ; 0x2012 <main+0x376>
    39ea: 30 16        	bmi	$3a02 <_ZN12_GLOBAL__N_112print_stringEPKcP6Status+0x39>
    39ec: a0 0d        	ldy	#$d
    39ee: 85 12        	sta	$12                     ; 0x2012 <main+0x376>
    39f0: b1 ab        	lda	($ab),y                 ; 0x20ab <main+0x40f>
    39f2: a6 12        	ldx	$12                     ; 0x2012 <main+0x376>
    39f4: 86 b0        	stx	$b0                     ; 0x20b0 <main+0x414>
    39f6: d0 0f        	bne	$3a07 <_ZN12_GLOBAL__N_112print_stringEPKcP6Status+0x3e>
    39f8: aa           	tax
    39f9: d0 0c        	bne	$3a07 <_ZN12_GLOBAL__N_112print_stringEPKcP6Status+0x3e>
    39fb: 64 ad        	stz	$ad                     ; 0x20ad <main+0x411>
    39fd: a2 00        	ldx	#$0
    39ff: 4c d0 3a     	jmp	$3ad0 <_ZN12_GLOBAL__N_112print_stringEPKcP6Status+0x107>
    3a02: a9 ff        	lda	#$ff
    3a04: aa           	tax
    3a05: 86 b0        	stx	$b0                     ; 0x20b0 <main+0x414>
    3a07: 85 ad        	sta	$ad                     ; 0x20ad <main+0x411>
    3a09: 64 12        	stz	$12                     ; 0x2012 <main+0x376>
    3a0b: a4 a9        	ldy	$a9                     ; 0x20a9 <main+0x40d>
    3a0d: a6 aa        	ldx	$aa                     ; 0x20aa <main+0x40e>
    3a0f: 86 16        	stx	$16                     ; 0x2016 <main+0x37a>
    3a11: 64 13        	stz	$13                     ; 0x2013 <main+0x377>
    3a13: 98           	tya
    3a14: 18           	clc
    3a15: 65 12        	adc	$12                     ; 0x2012 <main+0x376>
    3a17: 85 14        	sta	$14                     ; 0x2014 <main+0x378>
    3a19: a5 aa        	lda	$aa                     ; 0x20aa <main+0x40e>
    3a1b: 65 13        	adc	$13                     ; 0x2013 <main+0x377>
    3a1d: 85 15        	sta	$15                     ; 0x2015 <main+0x379>
    3a1f: b2 14        	lda	($14)                   ; 0x2014 <main+0x378>
    3a21: d0 03        	bne	$3a26 <_ZN12_GLOBAL__N_112print_stringEPKcP6Status+0x5d>
    3a23: 4c ca 3a     	jmp	$3aca <_ZN12_GLOBAL__N_112print_stringEPKcP6Status+0x101>
    3a26: e6 12        	inc	$12                     ; 0x2012 <main+0x376>
    3a28: d0 02        	bne	$3a2c <_ZN12_GLOBAL__N_112print_stringEPKcP6Status+0x63>
    3a2a: e6 13        	inc	$13                     ; 0x2013 <main+0x377>
    3a2c: a6 b0        	ldx	$b0                     ; 0x20b0 <main+0x414>
    3a2e: e4 13        	cpx	$13                     ; 0x2013 <main+0x377>
    3a30: d0 e1        	bne	$3a13 <_ZN12_GLOBAL__N_112print_stringEPKcP6Status+0x4a>
    3a32: a6 ad        	ldx	$ad                     ; 0x20ad <main+0x411>
    3a34: e4 12        	cpx	$12                     ; 0x2012 <main+0x376>
    3a36: d0 db        	bne	$3a13 <_ZN12_GLOBAL__N_112print_stringEPKcP6Status+0x4a>
    3a38: a0 01        	ldy	#$1
    3a3a: b1 ab        	lda	($ab),y                 ; 0x20ab <main+0x40f>
    3a3c: 29 01        	and	#$1
    3a3e: f0 03        	beq	$3a43 <_ZN12_GLOBAL__N_112print_stringEPKcP6Status+0x7a>
    3a40: 4c 9b 3a     	jmp	$3a9b <_ZN12_GLOBAL__N_112print_stringEPKcP6Status+0xd2>
    3a43: a5 ab        	lda	$ab                     ; 0x20ab <main+0x40f>
    3a45: 18           	clc
    3a46: 69 0b        	adc	#$b
    3a48: 85 14        	sta	$14                     ; 0x2014 <main+0x378>
    3a4a: a5 ac        	lda	$ac                     ; 0x20ac <main+0x410>
    3a4c: 69 00        	adc	#$0
    3a4e: 85 15        	sta	$15                     ; 0x2015 <main+0x379>
    3a50: a0 0b        	ldy	#$b
    3a52: b1 ab        	lda	($ab),y                 ; 0x20ab <main+0x40f>
    3a54: 85 13        	sta	$13                     ; 0x2013 <main+0x377>
    3a56: a0 01        	ldy	#$1
    3a58: b1 14        	lda	($14),y                 ; 0x2014 <main+0x378>
    3a5a: 85 12        	sta	$12                     ; 0x2012 <main+0x376>
    3a5c: a6 b0        	ldx	$b0                     ; 0x20b0 <main+0x414>
    3a5e: e4 12        	cpx	$12                     ; 0x2012 <main+0x376>
    3a60: d0 08        	bne	$3a6a <_ZN12_GLOBAL__N_112print_stringEPKcP6Status+0xa1>
    3a62: a6 ad        	ldx	$ad                     ; 0x20ad <main+0x411>
    3a64: e4 13        	cpx	$13                     ; 0x2013 <main+0x377>
    3a66: 90 06        	bcc	$3a6e <_ZN12_GLOBAL__N_112print_stringEPKcP6Status+0xa5>
    3a68: 80 31        	bra	$3a9b <_ZN12_GLOBAL__N_112print_stringEPKcP6Status+0xd2>
    3a6a: e4 12        	cpx	$12                     ; 0x2012 <main+0x376>
    3a6c: b0 2d        	bcs	$3a9b <_ZN12_GLOBAL__N_112print_stringEPKcP6Status+0xd2>
    3a6e: 38           	sec
    3a6f: a5 ad        	lda	$ad                     ; 0x20ad <main+0x411>
    3a71: e5 13        	sbc	$13                     ; 0x2013 <main+0x377>
    3a73: a8           	tay
    3a74: a5 b0        	lda	$b0                     ; 0x20b0 <main+0x414>
    3a76: e5 12        	sbc	$12                     ; 0x2012 <main+0x376>
    3a78: 85 af        	sta	$af                     ; 0x20af <main+0x413>
    3a7a: a6 ab        	ldx	$ab                     ; 0x20ab <main+0x40f>
    3a7c: 86 12        	stx	$12                     ; 0x2012 <main+0x376>
    3a7e: a6 ac        	ldx	$ac                     ; 0x20ac <main+0x410>
    3a80: 86 13        	stx	$13                     ; 0x2013 <main+0x377>
    3a82: 84 ae        	sty	$ae                     ; 0x20ae <main+0x412>
    3a84: a9 20        	lda	#$20
    3a86: 20 f6 38     	jsr	$38f6 <_ZN12_GLOBAL__N_13putEcP6Status>
    3a89: a6 af        	ldx	$af                     ; 0x20af <main+0x413>
    3a8b: e6 ae        	inc	$ae                     ; 0x20ae <main+0x412>
    3a8d: d0 01        	bne	$3a90 <_ZN12_GLOBAL__N_112print_stringEPKcP6Status+0xc7>
    3a8f: e8           	inx
    3a90: 86 af        	stx	$af                     ; 0x20af <main+0x413>
    3a92: a4 ae        	ldy	$ae                     ; 0x20ae <main+0x412>
    3a94: 8a           	txa
    3a95: d0 e3        	bne	$3a7a <_ZN12_GLOBAL__N_112print_stringEPKcP6Status+0xb1>
    3a97: a5 ae        	lda	$ae                     ; 0x20ae <main+0x412>
    3a99: d0 df        	bne	$3a7a <_ZN12_GLOBAL__N_112print_stringEPKcP6Status+0xb1>
    3a9b: a4 b0        	ldy	$b0                     ; 0x20b0 <main+0x414>
    3a9d: d0 04        	bne	$3aa3 <_ZN12_GLOBAL__N_112print_stringEPKcP6Status+0xda>
    3a9f: a5 ad        	lda	$ad                     ; 0x20ad <main+0x411>
    3aa1: f0 26        	beq	$3ac9 <_ZN12_GLOBAL__N_112print_stringEPKcP6Status+0x100>
    3aa3: a2 ff        	ldx	#$ff
    3aa5: c6 ad        	dec	$ad                     ; 0x20ad <main+0x411>
    3aa7: e4 ad        	cpx	$ad                     ; 0x20ad <main+0x411>
    3aa9: d0 01        	bne	$3aac <_ZN12_GLOBAL__N_112print_stringEPKcP6Status+0xe3>
    3aab: 88           	dey
    3aac: 84 ae        	sty	$ae                     ; 0x20ae <main+0x412>
    3aae: b2 a9        	lda	($a9)                   ; 0x20a9 <main+0x40d>
    3ab0: e6 a9        	inc	$a9                     ; 0x20a9 <main+0x40d>
    3ab2: d0 02        	bne	$3ab6 <_ZN12_GLOBAL__N_112print_stringEPKcP6Status+0xed>
    3ab4: e6 aa        	inc	$aa                     ; 0x20aa <main+0x40e>
    3ab6: a6 ab        	ldx	$ab                     ; 0x20ab <main+0x40f>
    3ab8: 86 12        	stx	$12                     ; 0x2012 <main+0x376>
    3aba: a6 ac        	ldx	$ac                     ; 0x20ac <main+0x410>
    3abc: 86 13        	stx	$13                     ; 0x2013 <main+0x377>
    3abe: 20 f6 38     	jsr	$38f6 <_ZN12_GLOBAL__N_13putEcP6Status>
    3ac1: a4 ae        	ldy	$ae                     ; 0x20ae <main+0x412>
    3ac3: d0 de        	bne	$3aa3 <_ZN12_GLOBAL__N_112print_stringEPKcP6Status+0xda>
    3ac5: a5 ad        	lda	$ad                     ; 0x20ad <main+0x411>
    3ac7: d0 da        	bne	$3aa3 <_ZN12_GLOBAL__N_112print_stringEPKcP6Status+0xda>
    3ac9: 60           	rts
    3aca: a6 12        	ldx	$12                     ; 0x2012 <main+0x376>
    3acc: 86 ad        	stx	$ad                     ; 0x20ad <main+0x411>
    3ace: a6 13        	ldx	$13                     ; 0x2013 <main+0x377>
    3ad0: 86 b0        	stx	$b0                     ; 0x20b0 <main+0x414>
    3ad2: 4c 38 3a     	jmp	$3a38 <_ZN12_GLOBAL__N_112print_stringEPKcP6Status+0x6f>

00003ad5 <printf>:
    3ad5: 18           	clc
    3ad6: a6 10        	ldx	$10                     ; 0x2010 <main+0x374>
    3ad8: a4 11        	ldy	$11                     ; 0x2011 <main+0x375>
    3ada: 86 72        	stx	$72                     ; 0x2072 <main+0x3d6>
    3adc: 84 73        	sty	$73                     ; 0x2073 <main+0x3d7>
    3ade: a6 72        	ldx	$72                     ; 0x2072 <main+0x3d6>
    3ae0: a4 73        	ldy	$73                     ; 0x2073 <main+0x3d7>
    3ae2: 86 5d        	stx	$5d                     ; 0x205d <main+0x3c1>
    3ae4: 84 5e        	sty	$5e                     ; 0x205e <main+0x3c2>
    3ae6: a2 ff        	ldx	#$ff
    3ae8: 86 62        	stx	$62                     ; 0x2062 <main+0x3c6>
    3aea: 86 63        	stx	$63                     ; 0x2063 <main+0x3c7>
    3aec: 64 64        	stz	$64                     ; 0x2064 <main+0x3c8>
    3aee: 64 65        	stz	$65                     ; 0x2065 <main+0x3c9>
    3af0: e8           	inx
    3af1: 86 14        	stx	$14                     ; 0x2014 <main+0x378>
    3af3: a2 00        	ldx	#$0
    3af5: 86 15        	stx	$15                     ; 0x2015 <main+0x379>
    3af7: a6 14        	ldx	$14                     ; 0x2014 <main+0x378>
    3af9: a4 15        	ldy	$15                     ; 0x2015 <main+0x379>
    3afb: 86 68        	stx	$68                     ; 0x2068 <main+0x3cc>
    3afd: 84 69        	sty	$69                     ; 0x2069 <main+0x3cd>
    3aff: a2 02        	ldx	#$2
    3b01: 86 6e        	stx	$6e                     ; 0x206e <main+0x3d2>
    3b03: 64 6f        	stz	$6f                     ; 0x206f <main+0x3d3>
    3b05: a6 5d        	ldx	$5d                     ; 0x205d <main+0x3c1>
    3b07: a4 5e        	ldy	$5e                     ; 0x205e <main+0x3c2>
    3b09: 86 70        	stx	$70                     ; 0x2070 <main+0x3d4>
    3b0b: 84 71        	sty	$71                     ; 0x2071 <main+0x3d5>
    3b0d: a6 12        	ldx	$12                     ; 0x2012 <main+0x376>
    3b0f: 86 5b        	stx	$5b                     ; 0x205b <main+0x3bf>
    3b11: a6 13        	ldx	$13                     ; 0x2013 <main+0x377>
    3b13: 86 5c        	stx	$5c                     ; 0x205c <main+0x3c0>
    3b15: b2 12        	lda	($12)                   ; 0x2012 <main+0x376>
    3b17: a2 00        	ldx	#$0
    3b19: c9 25        	cmp	#$25
    3b1b: f0 1c        	beq	$3b39 <printf+0x64>
    3b1d: a8           	tay
    3b1e: f0 36        	beq	$3b56 <printf+0x81>
    3b20: 20 31 3c     	jsr	$3c31 <putchar>
    3b23: e6 5b        	inc	$5b                     ; 0x205b <main+0x3bf>
    3b25: d0 02        	bne	$3b29 <printf+0x54>
    3b27: e6 5c        	inc	$5c                     ; 0x205c <main+0x3c0>
    3b29: e6 64        	inc	$64                     ; 0x2064 <main+0x3c8>
    3b2b: d0 02        	bne	$3b2f <printf+0x5a>
    3b2d: e6 65        	inc	$65                     ; 0x2065 <main+0x3c9>
    3b2f: a6 5b        	ldx	$5b                     ; 0x205b <main+0x3bf>
    3b31: 86 12        	stx	$12                     ; 0x2012 <main+0x376>
    3b33: a6 5c        	ldx	$5c                     ; 0x205c <main+0x3c0>
    3b35: 86 13        	stx	$13                     ; 0x2013 <main+0x377>
    3b37: 80 d4        	bra	$3b0d <printf+0x38>
    3b39: a2 5f        	ldx	#$5f
    3b3b: 86 14        	stx	$14                     ; 0x2014 <main+0x378>
    3b3d: a2 00        	ldx	#$0
    3b3f: 86 15        	stx	$15                     ; 0x2015 <main+0x379>
    3b41: 20 c2 2d     	jsr	$2dc2 <_ZN12_GLOBAL__N_15printEPKcP6Status>
    3b44: a6 13        	ldx	$13                     ; 0x2013 <main+0x377>
    3b46: e4 5c        	cpx	$5c                     ; 0x205c <main+0x3c0>
    3b48: d0 c3        	bne	$3b0d <printf+0x38>
    3b4a: a6 12        	ldx	$12                     ; 0x2012 <main+0x376>
    3b4c: e4 5b        	cpx	$5b                     ; 0x205b <main+0x3bf>
    3b4e: d0 bd        	bne	$3b0d <printf+0x38>
    3b50: b2 5b        	lda	($5b)                   ; 0x205b <main+0x3bf>
    3b52: a2 00        	ldx	#$0
    3b54: 80 ca        	bra	$3b20 <printf+0x4b>
    3b56: 60           	rts

00003b57 <sprintf>:
    3b57: a6 12        	ldx	$12                     ; 0x2012 <main+0x376>
    3b59: 86 48        	stx	$48                     ; 0x2048 <main+0x3ac>
    3b5b: a6 13        	ldx	$13                     ; 0x2013 <main+0x377>
    3b5d: 86 49        	stx	$49                     ; 0x2049 <main+0x3ad>
    3b5f: a6 14        	ldx	$14                     ; 0x2014 <main+0x378>
    3b61: 86 12        	stx	$12                     ; 0x2012 <main+0x376>
    3b63: a6 15        	ldx	$15                     ; 0x2015 <main+0x379>
    3b65: 86 13        	stx	$13                     ; 0x2013 <main+0x377>
    3b67: 18           	clc
    3b68: a6 10        	ldx	$10                     ; 0x2010 <main+0x374>
    3b6a: a4 11        	ldy	$11                     ; 0x2011 <main+0x375>
    3b6c: 86 61        	stx	$61                     ; 0x2061 <main+0x3c5>
    3b6e: 84 62        	sty	$62                     ; 0x2062 <main+0x3c6>
    3b70: a6 61        	ldx	$61                     ; 0x2061 <main+0x3c5>
    3b72: a4 62        	ldy	$62                     ; 0x2062 <main+0x3c6>
    3b74: 86 4c        	stx	$4c                     ; 0x204c <main+0x3b0>
    3b76: 84 4d        	sty	$4d                     ; 0x204d <main+0x3b1>
    3b78: a2 ff        	ldx	#$ff
    3b7a: 86 51        	stx	$51                     ; 0x2051 <main+0x3b5>
    3b7c: 86 52        	stx	$52                     ; 0x2052 <main+0x3b6>
    3b7e: 64 53        	stz	$53                     ; 0x2053 <main+0x3b7>
    3b80: 64 54        	stz	$54                     ; 0x2054 <main+0x3b8>
    3b82: a6 48        	ldx	$48                     ; 0x2048 <main+0x3ac>
    3b84: a4 49        	ldy	$49                     ; 0x2049 <main+0x3ad>
    3b86: 86 57        	stx	$57                     ; 0x2057 <main+0x3bb>
    3b88: 84 58        	sty	$58                     ; 0x2058 <main+0x3bc>
    3b8a: a2 00        	ldx	#$0
    3b8c: 86 14        	stx	$14                     ; 0x2014 <main+0x378>
    3b8e: a2 00        	ldx	#$0
    3b90: 86 15        	stx	$15                     ; 0x2015 <main+0x379>
    3b92: a6 14        	ldx	$14                     ; 0x2014 <main+0x378>
    3b94: a4 15        	ldy	$15                     ; 0x2015 <main+0x379>
    3b96: 86 5d        	stx	$5d                     ; 0x205d <main+0x3c1>
    3b98: 84 5e        	sty	$5e                     ; 0x205e <main+0x3c2>
    3b9a: a6 4c        	ldx	$4c                     ; 0x204c <main+0x3b0>
    3b9c: a4 4d        	ldy	$4d                     ; 0x204d <main+0x3b1>
    3b9e: 86 5f        	stx	$5f                     ; 0x205f <main+0x3c3>
    3ba0: 84 60        	sty	$60                     ; 0x2060 <main+0x3c4>
    3ba2: 80 17        	bra	$3bbb <sprintf+0x64>
    3ba4: a2 4e        	ldx	#$4e
    3ba6: 86 14        	stx	$14                     ; 0x2014 <main+0x378>
    3ba8: a2 00        	ldx	#$0
    3baa: 86 15        	stx	$15                     ; 0x2015 <main+0x379>
    3bac: 20 c2 2d     	jsr	$2dc2 <_ZN12_GLOBAL__N_15printEPKcP6Status>
    3baf: a6 13        	ldx	$13                     ; 0x2013 <main+0x377>
    3bb1: e4 4b        	cpx	$4b                     ; 0x204b <main+0x3af>
    3bb3: d0 06        	bne	$3bbb <sprintf+0x64>
    3bb5: a6 12        	ldx	$12                     ; 0x2012 <main+0x376>
    3bb7: e4 4a        	cpx	$4a                     ; 0x204a <main+0x3ae>
    3bb9: f0 11        	beq	$3bcc <sprintf+0x75>
    3bbb: a6 12        	ldx	$12                     ; 0x2012 <main+0x376>
    3bbd: 86 4a        	stx	$4a                     ; 0x204a <main+0x3ae>
    3bbf: a6 13        	ldx	$13                     ; 0x2013 <main+0x377>
    3bc1: 86 4b        	stx	$4b                     ; 0x204b <main+0x3af>
    3bc3: b2 12        	lda	($12)                   ; 0x2012 <main+0x376>
    3bc5: c9 25        	cmp	#$25
    3bc7: f0 db        	beq	$3ba4 <sprintf+0x4d>
    3bc9: aa           	tax
    3bca: f0 43        	beq	$3c0f <sprintf+0xb8>
    3bcc: a6 53        	ldx	$53                     ; 0x2053 <main+0x3b7>
    3bce: 86 12        	stx	$12                     ; 0x2012 <main+0x376>
    3bd0: a4 54        	ldy	$54                     ; 0x2054 <main+0x3b8>
    3bd2: 84 13        	sty	$13                     ; 0x2013 <main+0x377>
    3bd4: c0 ff        	cpy	#$ff
    3bd6: d0 04        	bne	$3bdc <sprintf+0x85>
    3bd8: e0 ff        	cpx	#$ff
    3bda: f0 15        	beq	$3bf1 <sprintf+0x9a>
    3bdc: b2 4a        	lda	($4a)                   ; 0x204a <main+0x3ae>
    3bde: 85 16        	sta	$16                     ; 0x2016 <main+0x37a>
    3be0: a5 48        	lda	$48                     ; 0x2048 <main+0x3ac>
    3be2: 18           	clc
    3be3: 65 12        	adc	$12                     ; 0x2012 <main+0x376>
    3be5: 85 14        	sta	$14                     ; 0x2014 <main+0x378>
    3be7: a5 49        	lda	$49                     ; 0x2049 <main+0x3ad>
    3be9: 65 13        	adc	$13                     ; 0x2013 <main+0x377>
    3beb: 85 15        	sta	$15                     ; 0x2015 <main+0x379>
    3bed: a5 16        	lda	$16                     ; 0x2016 <main+0x37a>
    3bef: 92 14        	sta	($14)                   ; 0x2014 <main+0x378>
    3bf1: e6 12        	inc	$12                     ; 0x2012 <main+0x376>
    3bf3: d0 02        	bne	$3bf7 <sprintf+0xa0>
    3bf5: e6 13        	inc	$13                     ; 0x2013 <main+0x377>
    3bf7: a6 12        	ldx	$12                     ; 0x2012 <main+0x376>
    3bf9: a4 13        	ldy	$13                     ; 0x2013 <main+0x377>
    3bfb: 86 53        	stx	$53                     ; 0x2053 <main+0x3b7>
    3bfd: 84 54        	sty	$54                     ; 0x2054 <main+0x3b8>
    3bff: e6 4a        	inc	$4a                     ; 0x204a <main+0x3ae>
    3c01: d0 02        	bne	$3c05 <sprintf+0xae>
    3c03: e6 4b        	inc	$4b                     ; 0x204b <main+0x3af>
    3c05: a6 4a        	ldx	$4a                     ; 0x204a <main+0x3ae>
    3c07: 86 12        	stx	$12                     ; 0x2012 <main+0x376>
    3c09: a6 4b        	ldx	$4b                     ; 0x204b <main+0x3af>
    3c0b: 86 13        	stx	$13                     ; 0x2013 <main+0x377>
    3c0d: 80 ac        	bra	$3bbb <sprintf+0x64>
    3c0f: a6 53        	ldx	$53                     ; 0x2053 <main+0x3b7>
    3c11: 86 12        	stx	$12                     ; 0x2012 <main+0x376>
    3c13: a4 54        	ldy	$54                     ; 0x2054 <main+0x3b8>
    3c15: 84 13        	sty	$13                     ; 0x2013 <main+0x377>
    3c17: c0 ff        	cpy	#$ff
    3c19: d0 04        	bne	$3c1f <sprintf+0xc8>
    3c1b: e0 ff        	cpx	#$ff
    3c1d: f0 11        	beq	$3c30 <sprintf+0xd9>
    3c1f: a5 48        	lda	$48                     ; 0x2048 <main+0x3ac>
    3c21: 18           	clc
    3c22: 65 12        	adc	$12                     ; 0x2012 <main+0x376>
    3c24: 85 12        	sta	$12                     ; 0x2012 <main+0x376>
    3c26: a5 49        	lda	$49                     ; 0x2049 <main+0x3ad>
    3c28: 65 13        	adc	$13                     ; 0x2013 <main+0x377>
    3c2a: 85 13        	sta	$13                     ; 0x2013 <main+0x377>
    3c2c: a9 00        	lda	#$0
    3c2e: 92 12        	sta	($12)                   ; 0x2012 <main+0x376>
    3c30: 60           	rts

00003c31 <putchar>:
    3c31: 86 12        	stx	$12                     ; 0x2012 <main+0x376>
    3c33: 85 1b        	sta	$1b                     ; 0x201b <main+0x37f>
    3c35: 85 46        	sta	$46                     ; 0x2046 <main+0x3aa>
    3c37: a6 01        	ldx	$1                      ; 0x2001 <main+0x365>
    3c39: 86 b3        	stx	$b3                     ; 0x20b3 <main+0x417>
    3c3b: a6 3d        	ldx	$3d                     ; 0x203d <main+0x3a1>
    3c3d: a0 50        	ldy	#$50
    3c3f: 8c 00 de     	sty	$de00                   ; 0xde00 <__heap_start+0x8610>
    3c42: 9c 01 de     	stz	$de01                   ; 0xde01 <__heap_start+0x8611>
    3c45: 8e 02 de     	stx	$de02                   ; 0xde02 <__heap_start+0x8612>
    3c48: 9c 03 de     	stz	$de03                   ; 0xde03 <__heap_start+0x8613>
    3c4b: ae 10 de     	ldx	$de10                   ; 0xde10 <__heap_start+0x8620>
    3c4e: ad 11 de     	lda	$de11                   ; 0xde11 <__heap_start+0x8621>
    3c51: ac 12 de     	ldy	$de12                   ; 0xde12 <__heap_start+0x8622>
    3c54: 84 1a        	sty	$1a                     ; 0x201a <main+0x37e>
    3c56: ac 13 de     	ldy	$de13                   ; 0xde13 <__heap_start+0x8623>
    3c59: 84 1c        	sty	$1c                     ; 0x201c <main+0x380>
    3c5b: 9c 08 de     	stz	$de08                   ; 0xde08 <__heap_start+0x8618>
    3c5e: a0 c0        	ldy	#$c0
    3c60: 8c 09 de     	sty	$de09                   ; 0xde09 <__heap_start+0x8619>
    3c63: 9c 0a de     	stz	$de0a                   ; 0xde0a <__heap_start+0x861a>
    3c66: 9c 0b de     	stz	$de0b                   ; 0xde0b <__heap_start+0x861b>
    3c69: 8e 0c de     	stx	$de0c                   ; 0xde0c <__heap_start+0x861c>
    3c6c: 8d 0d de     	sta	$de0d                   ; 0xde0d <__heap_start+0x861d>
    3c6f: 64 13        	stz	$13                     ; 0x2013 <main+0x377>
    3c71: a2 00        	ldx	#$0
    3c73: 86 14        	stx	$14                     ; 0x2014 <main+0x378>
    3c75: a2 c0        	ldx	#$c0
    3c77: 86 15        	stx	$15                     ; 0x2015 <main+0x379>
    3c79: a2 11        	ldx	#$11
    3c7b: 86 16        	stx	$16                     ; 0x2016 <main+0x37a>
    3c7d: a2 c9        	ldx	#$c9
    3c7f: 86 17        	stx	$17                     ; 0x2017 <main+0x37b>
    3c81: a2 10        	ldx	#$10
    3c83: 86 18        	stx	$18                     ; 0x2018 <main+0x37c>
    3c85: a2 c9        	ldx	#$c9
    3c87: 86 19        	stx	$19                     ; 0x2019 <main+0x37d>
    3c89: a6 1a        	ldx	$1a                     ; 0x201a <main+0x37e>
    3c8b: 8e 0e de     	stx	$de0e                   ; 0xde0e <__heap_start+0x861e>
    3c8e: a6 1c        	ldx	$1c                     ; 0x201c <main+0x380>
    3c90: 8e 0f de     	stx	$de0f                   ; 0xde0f <__heap_start+0x861f>
    3c93: ac 18 de     	ldy	$de18                   ; 0xde18 <__heap_start+0x8628>
    3c96: ad 19 de     	lda	$de19                   ; 0xde19 <__heap_start+0x8629>
    3c99: ae 1a de     	ldx	$de1a                   ; 0xde1a <__heap_start+0x862a>
    3c9c: ae 1b de     	ldx	$de1b                   ; 0xde1b <__heap_start+0x862b>
    3c9f: 84 1c        	sty	$1c                     ; 0x201c <main+0x380>
    3ca1: 85 1d        	sta	$1d                     ; 0x201d <main+0x381>
    3ca3: 64 1a        	stz	$1a                     ; 0x201a <main+0x37e>
    3ca5: 80 13        	bra	$3cba <putchar+0x89>
    3ca7: a5 1c        	lda	$1c                     ; 0x201c <main+0x380>
    3ca9: 18           	clc
    3caa: 69 50        	adc	#$50
    3cac: 85 1c        	sta	$1c                     ; 0x201c <main+0x380>
    3cae: a5 1d        	lda	$1d                     ; 0x201d <main+0x381>
    3cb0: 69 00        	adc	#$0
    3cb2: 85 1d        	sta	$1d                     ; 0x201d <main+0x381>
    3cb4: e6 13        	inc	$13                     ; 0x2013 <main+0x377>
    3cb6: d0 02        	bne	$3cba <putchar+0x89>
    3cb8: e6 1a        	inc	$1a                     ; 0x201a <main+0x37e>
    3cba: a9 46        	lda	#$46
    3cbc: 18           	clc
    3cbd: 65 13        	adc	$13                     ; 0x2013 <main+0x377>
    3cbf: 85 1e        	sta	$1e                     ; 0x201e <main+0x382>
    3cc1: a9 00        	lda	#$0
    3cc3: 65 1a        	adc	$1a                     ; 0x201a <main+0x37e>
    3cc5: 85 1f        	sta	$1f                     ; 0x201f <main+0x383>
    3cc7: b2 1e        	lda	($1e)                   ; 0x201e <main+0x382>
    3cc9: c9 0a        	cmp	#$a
    3ccb: f0 26        	beq	$3cf3 <putchar+0xc2>
    3ccd: c9 0d        	cmp	#$d
    3ccf: f0 22        	beq	$3cf3 <putchar+0xc2>
    3cd1: aa           	tax
    3cd2: d0 03        	bne	$3cd7 <putchar+0xa6>
    3cd4: 4c fb 3d     	jmp	$3dfb <putchar+0x1ca>
    3cd7: a2 03        	ldx	#$3
    3cd9: 86 01        	stx	$1                      ; 0x2001 <main+0x365>
    3cdb: a5 33        	lda	$33                     ; 0x2033 <main+0x397>
    3cdd: a4 3c        	ldy	$3c                     ; 0x203c <main+0x3a0>
    3cdf: 91 1c        	sta	($1c),y                 ; 0x201c <main+0x380>
    3ce1: ca           	dex
    3ce2: 86 01        	stx	$1                      ; 0x2001 <main+0x365>
    3ce4: b2 1e        	lda	($1e)                   ; 0x201e <main+0x382>
    3ce6: a4 3c        	ldy	$3c                     ; 0x203c <main+0x3a0>
    3ce8: 91 1c        	sta	($1c),y                 ; 0x201c <main+0x380>
    3cea: a6 3c        	ldx	$3c                     ; 0x203c <main+0x3a0>
    3cec: e8           	inx
    3ced: e6 3c        	inc	$3c                     ; 0x203c <main+0x3a0>
    3cef: e0 50        	cpx	#$50
    3cf1: d0 c1        	bne	$3cb4 <putchar+0x83>
    3cf3: 64 3c        	stz	$3c                     ; 0x203c <main+0x3a0>
    3cf5: a6 3d        	ldx	$3d                     ; 0x203d <main+0x3a1>
    3cf7: e8           	inx
    3cf8: e6 3d        	inc	$3d                     ; 0x203d <main+0x3a1>
    3cfa: e0 1e        	cpx	#$1e
    3cfc: f0 03        	beq	$3d01 <putchar+0xd0>
    3cfe: 4c a7 3c     	jmp	$3ca7 <putchar+0x76>
    3d01: a2 03        	ldx	#$3
    3d03: 86 01        	stx	$1                      ; 0x2001 <main+0x365>
    3d05: a2 09        	ldx	#$9
    3d07: a9 10        	lda	#$10
    3d09: a0 00        	ldy	#$0
    3d0b: 84 1c        	sty	$1c                     ; 0x201c <main+0x380>
    3d0d: a0 c0        	ldy	#$c0
    3d0f: 84 1d        	sty	$1d                     ; 0x201d <main+0x381>
    3d11: a0 50        	ldy	#$50
    3d13: 85 1e        	sta	$1e                     ; 0x201e <main+0x382>
    3d15: b1 1c        	lda	($1c),y                 ; 0x201c <main+0x380>
    3d17: 92 1c        	sta	($1c)                   ; 0x201c <main+0x380>
    3d19: a9 ff        	lda	#$ff
    3d1b: c6 1e        	dec	$1e                     ; 0x201e <main+0x382>
    3d1d: c5 1e        	cmp	$1e                     ; 0x201e <main+0x382>
    3d1f: d0 01        	bne	$3d22 <putchar+0xf1>
    3d21: ca           	dex
    3d22: e6 1c        	inc	$1c                     ; 0x201c <main+0x380>
    3d24: d0 02        	bne	$3d28 <putchar+0xf7>
    3d26: e6 1d        	inc	$1d                     ; 0x201d <main+0x381>
    3d28: 8a           	txa
    3d29: d0 ea        	bne	$3d15 <putchar+0xe4>
    3d2b: a5 1e        	lda	$1e                     ; 0x201e <main+0x382>
    3d2d: d0 e6        	bne	$3d15 <putchar+0xe4>
    3d2f: a2 02        	ldx	#$2
    3d31: 86 01        	stx	$1                      ; 0x2001 <main+0x365>
    3d33: a2 09        	ldx	#$9
    3d35: a9 10        	lda	#$10
    3d37: 5a           	phy
    3d38: a0 00        	ldy	#$0
    3d3a: 84 1c        	sty	$1c                     ; 0x201c <main+0x380>
    3d3c: a0 c0        	ldy	#$c0
    3d3e: 84 1d        	sty	$1d                     ; 0x201d <main+0x381>
    3d40: 7a           	ply
    3d41: 85 1e        	sta	$1e                     ; 0x201e <main+0x382>
    3d43: b1 1c        	lda	($1c),y                 ; 0x201c <main+0x380>
    3d45: 92 1c        	sta	($1c)                   ; 0x201c <main+0x380>
    3d47: a9 ff        	lda	#$ff
    3d49: c6 1e        	dec	$1e                     ; 0x201e <main+0x382>
    3d4b: c5 1e        	cmp	$1e                     ; 0x201e <main+0x382>
    3d4d: d0 01        	bne	$3d50 <putchar+0x11f>
    3d4f: ca           	dex
    3d50: e6 1c        	inc	$1c                     ; 0x201c <main+0x380>
    3d52: d0 02        	bne	$3d56 <putchar+0x125>
    3d54: e6 1d        	inc	$1d                     ; 0x201d <main+0x381>
    3d56: 8a           	txa
    3d57: d0 ea        	bne	$3d43 <putchar+0x112>
    3d59: a5 1e        	lda	$1e                     ; 0x201e <main+0x382>
    3d5b: d0 e6        	bne	$3d43 <putchar+0x112>
    3d5d: a2 02        	ldx	#$2
    3d5f: 86 01        	stx	$1                      ; 0x2001 <main+0x365>
    3d61: e8           	inx
    3d62: 86 01        	stx	$1                      ; 0x2001 <main+0x365>
    3d64: a5 33        	lda	$33                     ; 0x2033 <main+0x397>
    3d66: a2 50        	ldx	#$50
    3d68: a0 11        	ldy	#$11
    3d6a: 84 1c        	sty	$1c                     ; 0x201c <main+0x380>
    3d6c: a0 c9        	ldy	#$c9
    3d6e: 84 1d        	sty	$1d                     ; 0x201d <main+0x381>
    3d70: a0 10        	ldy	#$10
    3d72: 84 1e        	sty	$1e                     ; 0x201e <main+0x382>
    3d74: a0 c9        	ldy	#$c9
    3d76: 84 1f        	sty	$1f                     ; 0x201f <main+0x383>
    3d78: a4 1c        	ldy	$1c                     ; 0x201c <main+0x380>
    3d7a: 84 22        	sty	$22                     ; 0x2022 <main+0x386>
    3d7c: a4 1d        	ldy	$1d                     ; 0x201d <main+0x381>
    3d7e: 84 23        	sty	$23                     ; 0x2023 <main+0x387>
    3d80: 92 1e        	sta	($1e)                   ; 0x201e <main+0x382>
    3d82: e6 1c        	inc	$1c                     ; 0x201c <main+0x380>
    3d84: d0 02        	bne	$3d88 <putchar+0x157>
    3d86: e6 1d        	inc	$1d                     ; 0x201d <main+0x381>
    3d88: ca           	dex
    3d89: a4 22        	ldy	$22                     ; 0x2022 <main+0x386>
    3d8b: 84 1e        	sty	$1e                     ; 0x201e <main+0x382>
    3d8d: a4 23        	ldy	$23                     ; 0x2023 <main+0x387>
    3d8f: 84 1f        	sty	$1f                     ; 0x201f <main+0x383>
    3d91: e0 00        	cpx	#$0
    3d93: d0 e3        	bne	$3d78 <putchar+0x147>
    3d95: a2 02        	ldx	#$2
    3d97: 86 01        	stx	$1                      ; 0x2001 <main+0x365>
    3d99: a2 50        	ldx	#$50
    3d9b: a0 11        	ldy	#$11
    3d9d: 84 1c        	sty	$1c                     ; 0x201c <main+0x380>
    3d9f: a0 c9        	ldy	#$c9
    3da1: 84 1d        	sty	$1d                     ; 0x201d <main+0x381>
    3da3: a0 10        	ldy	#$10
    3da5: 84 1e        	sty	$1e                     ; 0x201e <main+0x382>
    3da7: a0 c9        	ldy	#$c9
    3da9: 84 1f        	sty	$1f                     ; 0x201f <main+0x383>
    3dab: a9 20        	lda	#$20
    3dad: a4 1c        	ldy	$1c                     ; 0x201c <main+0x380>
    3daf: 84 22        	sty	$22                     ; 0x2022 <main+0x386>
    3db1: a4 1d        	ldy	$1d                     ; 0x201d <main+0x381>
    3db3: 84 23        	sty	$23                     ; 0x2023 <main+0x387>
    3db5: 92 1e        	sta	($1e)                   ; 0x201e <main+0x382>
    3db7: e6 1c        	inc	$1c                     ; 0x201c <main+0x380>
    3db9: d0 02        	bne	$3dbd <putchar+0x18c>
    3dbb: e6 1d        	inc	$1d                     ; 0x201d <main+0x381>
    3dbd: ca           	dex
    3dbe: a4 22        	ldy	$22                     ; 0x2022 <main+0x386>
    3dc0: 84 1e        	sty	$1e                     ; 0x201e <main+0x382>
    3dc2: a4 23        	ldy	$23                     ; 0x2023 <main+0x387>
    3dc4: 84 1f        	sty	$1f                     ; 0x201f <main+0x383>
    3dc6: e0 00        	cpx	#$0
    3dc8: d0 e3        	bne	$3dad <putchar+0x17c>
    3dca: c6 3d        	dec	$3d                     ; 0x203d <main+0x3a1>
    3dcc: 9c 08 de     	stz	$de08                   ; 0xde08 <__heap_start+0x8618>
    3dcf: a2 c0        	ldx	#$c0
    3dd1: 8e 09 de     	stx	$de09                   ; 0xde09 <__heap_start+0x8619>
    3dd4: 9c 0a de     	stz	$de0a                   ; 0xde0a <__heap_start+0x861a>
    3dd7: 9c 0b de     	stz	$de0b                   ; 0xde0b <__heap_start+0x861b>
    3dda: a2 1d        	ldx	#$1d
    3ddc: 8e 0c de     	stx	$de0c                   ; 0xde0c <__heap_start+0x861c>
    3ddf: 9c 0d de     	stz	$de0d                   ; 0xde0d <__heap_start+0x861d>
    3de2: 9c 0e de     	stz	$de0e                   ; 0xde0e <__heap_start+0x861e>
    3de5: 9c 0f de     	stz	$de0f                   ; 0xde0f <__heap_start+0x861f>
    3de8: ae 18 de     	ldx	$de18                   ; 0xde18 <__heap_start+0x8628>
    3deb: ac 19 de     	ldy	$de19                   ; 0xde19 <__heap_start+0x8629>
    3dee: ad 1a de     	lda	$de1a                   ; 0xde1a <__heap_start+0x862a>
    3df1: ad 1b de     	lda	$de1b                   ; 0xde1b <__heap_start+0x862b>
    3df4: 86 1c        	stx	$1c                     ; 0x201c <main+0x380>
    3df6: 84 1d        	sty	$1d                     ; 0x201d <main+0x381>
    3df8: 4c b4 3c     	jmp	$3cb4 <putchar+0x83>
    3dfb: a6 b3        	ldx	$b3                     ; 0x20b3 <main+0x417>
    3dfd: 86 01        	stx	$1                      ; 0x2001 <main+0x365>
    3dff: a6 3c        	ldx	$3c                     ; 0x203c <main+0x3a0>
    3e01: a4 3d        	ldy	$3d                     ; 0x203d <main+0x3a1>
    3e03: 8e 14 d0     	stx	$d014                   ; 0xd014 <__heap_start+0x7824>
    3e06: 9c 15 d0     	stz	$d015                   ; 0xd015 <__heap_start+0x7825>
    3e09: 84 3d        	sty	$3d                     ; 0x203d <main+0x3a1>
    3e0b: 8c 16 d0     	sty	$d016                   ; 0xd016 <__heap_start+0x7826>
    3e0e: 9c 17 d0     	stz	$d017                   ; 0xd017 <__heap_start+0x7827>
    3e11: a6 12        	ldx	$12                     ; 0x2012 <main+0x376>
    3e13: a5 1b        	lda	$1b                     ; 0x201b <main+0x37f>
    3e15: 60           	rts

00003e16 <malloc>:
    3e16: a8           	tay
    3e17: 8a           	txa
    3e18: a2 00        	ldx	#$0
    3e1a: 86 12        	stx	$12                     ; 0x2012 <main+0x376>
    3e1c: a2 00        	ldx	#$0
    3e1e: 86 13        	stx	$13                     ; 0x2013 <main+0x377>
    3e20: aa           	tax
    3e21: d0 07        	bne	$3e2a <malloc+0x14>
    3e23: c0 00        	cpy	#$0
    3e25: d0 03        	bne	$3e2a <malloc+0x14>
    3e27: 4c 1c 3f     	jmp	$3f1c <malloc+0x106>
    3e2a: 84 16        	sty	$16                     ; 0x2016 <main+0x37a>
    3e2c: aa           	tax
    3e2d: d0 0e        	bne	$3e3d <malloc+0x27>
    3e2f: a6 16        	ldx	$16                     ; 0x2016 <main+0x37a>
    3e31: e0 07        	cpx	#$7
    3e33: b0 0c        	bcs	$3e41 <malloc+0x2b>
    3e35: a2 08        	ldx	#$8
    3e37: 86 4c        	stx	$4c                     ; 0x204c <main+0x3b0>
    3e39: a9 00        	lda	#$0
    3e3b: 80 2f        	bra	$3e6c <malloc+0x56>
    3e3d: c9 00        	cmp	#$0
    3e3f: 90 f4        	bcc	$3e35 <malloc+0x1f>
    3e41: a8           	tay
    3e42: a5 16        	lda	$16                     ; 0x2016 <main+0x37a>
    3e44: 29 01        	and	#$1
    3e46: a2 02        	ldx	#$2
    3e48: 64 14        	stz	$14                     ; 0x2014 <main+0x378>
    3e4a: c9 00        	cmp	#$0
    3e4c: f0 02        	beq	$3e50 <malloc+0x3a>
    3e4e: a2 03        	ldx	#$3
    3e50: 86 15        	stx	$15                     ; 0x2015 <main+0x379>
    3e52: 18           	clc
    3e53: a5 16        	lda	$16                     ; 0x2016 <main+0x37a>
    3e55: 65 15        	adc	$15                     ; 0x2015 <main+0x379>
    3e57: aa           	tax
    3e58: 98           	tya
    3e59: 65 14        	adc	$14                     ; 0x2014 <main+0x378>
    3e5b: 90 03        	bcc	$3e60 <malloc+0x4a>
    3e5d: 4c 1c 3f     	jmp	$3f1c <malloc+0x106>
    3e60: 86 4c        	stx	$4c                     ; 0x204c <main+0x3b0>
    3e62: a8           	tay
    3e63: d0 07        	bne	$3e6c <malloc+0x56>
    3e65: e0 00        	cpx	#$0
    3e67: d0 03        	bne	$3e6c <malloc+0x56>
    3e69: 4c 1c 3f     	jmp	$3f1c <malloc+0x106>
    3e6c: 85 4b        	sta	$4b                     ; 0x204b <main+0x3af>
    3e6e: ad e9 57     	lda	$57e9                   ; 0x57e9 <_ZN12_GLOBAL__N_111initializedE>
    3e71: 29 01        	and	#$1
    3e73: d0 2d        	bne	$3ea2 <malloc+0x8c>
    3e75: a9 00        	lda	#$0
    3e77: a2 10        	ldx	#$10
    3e79: a0 f0        	ldy	#$f0
    3e7b: 84 12        	sty	$12                     ; 0x2012 <main+0x376>
    3e7d: a0 57        	ldy	#$57
    3e7f: 84 13        	sty	$13                     ; 0x2013 <main+0x377>
    3e81: 20 1c 03     	jsr	$31c <_ZN12_GLOBAL__N_19FreeChunk6insertEPvj>
    3e84: a2 00        	ldx	#$0
    3e86: 86 12        	stx	$12                     ; 0x2012 <main+0x376>
    3e88: a2 00        	ldx	#$0
    3e8a: 86 13        	stx	$13                     ; 0x2013 <main+0x377>
    3e8c: ae f1 57     	ldx	$57f1                   ; 0x57f1 <__heap_start+0x1>
    3e8f: a9 fe        	lda	#$fe
    3e91: 2d f0 57     	and	$57f0                   ; 0x57f0 <__heap_start>
    3e94: 8d f0 57     	sta	$57f0                   ; 0x57f0 <__heap_start>
    3e97: 8e f1 57     	stx	$57f1                   ; 0x57f1 <__heap_start+0x1>
    3e9a: a2 01        	ldx	#$1
    3e9c: 8e ea 57     	stx	$57ea                   ; 0x57ea <_ZN12_GLOBAL__N_19last_freeE>
    3e9f: 8e e9 57     	stx	$57e9                   ; 0x57e9 <_ZN12_GLOBAL__N_111initializedE>
    3ea2: ae ed 57     	ldx	$57ed                   ; 0x57ed <_ZN12_GLOBAL__N_19free_listE>
    3ea5: 86 16        	stx	$16                     ; 0x2016 <main+0x37a>
    3ea7: ac ee 57     	ldy	$57ee                   ; 0x57ee <_ZN12_GLOBAL__N_19free_listE+0x1>
    3eaa: 84 17        	sty	$17                     ; 0x2017 <main+0x37b>
    3eac: a9 00        	lda	#$0
    3eae: 85 14        	sta	$14                     ; 0x2014 <main+0x378>
    3eb0: a9 00        	lda	#$0
    3eb2: 85 15        	sta	$15                     ; 0x2015 <main+0x379>
    3eb4: c4 15        	cpy	$15                     ; 0x2015 <main+0x379>
    3eb6: d0 07        	bne	$3ebf <malloc+0xa9>
    3eb8: e4 14        	cpx	$14                     ; 0x2014 <main+0x378>
    3eba: d0 03        	bne	$3ebf <malloc+0xa9>
    3ebc: 4c 1c 3f     	jmp	$3f1c <malloc+0x106>
    3ebf: a2 00        	ldx	#$0
    3ec1: a0 10        	ldy	#$10
    3ec3: 86 14        	stx	$14                     ; 0x2014 <main+0x378>
    3ec5: 84 15        	sty	$15                     ; 0x2015 <main+0x379>
    3ec7: 18           	clc
    3ec8: a9 f0        	lda	#$f0
    3eca: 65 14        	adc	$14                     ; 0x2014 <main+0x378>
    3ecc: 85 18        	sta	$18                     ; 0x2018 <main+0x37c>
    3ece: a9 57        	lda	#$57
    3ed0: 65 15        	adc	$15                     ; 0x2015 <main+0x379>
    3ed2: 85 4f        	sta	$4f                     ; 0x204f <main+0x3b3>
    3ed4: a0 01        	ldy	#$1
    3ed6: a6 4b        	ldx	$4b                     ; 0x204b <main+0x3af>
    3ed8: 86 19        	stx	$19                     ; 0x2019 <main+0x37d>
    3eda: a6 16        	ldx	$16                     ; 0x2016 <main+0x37a>
    3edc: 86 14        	stx	$14                     ; 0x2014 <main+0x378>
    3ede: a6 17        	ldx	$17                     ; 0x2017 <main+0x37b>
    3ee0: 86 15        	stx	$15                     ; 0x2015 <main+0x379>
    3ee2: b1 14        	lda	($14),y                 ; 0x2014 <main+0x378>
    3ee4: c5 19        	cmp	$19                     ; 0x2019 <main+0x37d>
    3ee6: d0 0e        	bne	$3ef6 <malloc+0xe0>
    3ee8: b2 14        	lda	($14)                   ; 0x2014 <main+0x378>
    3eea: 29 fe        	and	#$fe
    3eec: a6 4c        	ldx	$4c                     ; 0x204c <main+0x3b0>
    3eee: 86 1a        	stx	$1a                     ; 0x201a <main+0x37e>
    3ef0: c5 1a        	cmp	$1a                     ; 0x201a <main+0x37e>
    3ef2: b0 29        	bcs	$3f1d <malloc+0x107>
    3ef4: 80 04        	bra	$3efa <malloc+0xe4>
    3ef6: c5 19        	cmp	$19                     ; 0x2019 <main+0x37d>
    3ef8: b0 23        	bcs	$3f1d <malloc+0x107>
    3efa: a5 14        	lda	$14                     ; 0x2014 <main+0x378>
    3efc: 18           	clc
    3efd: 69 02        	adc	#$2
    3eff: 85 1a        	sta	$1a                     ; 0x201a <main+0x37e>
    3f01: a5 15        	lda	$15                     ; 0x2015 <main+0x379>
    3f03: 69 00        	adc	#$0
    3f05: 85 1b        	sta	$1b                     ; 0x201b <main+0x37f>
    3f07: a0 02        	ldy	#$2
    3f09: b1 14        	lda	($14),y                 ; 0x2014 <main+0x378>
    3f0b: 85 14        	sta	$14                     ; 0x2014 <main+0x378>
    3f0d: 88           	dey
    3f0e: b1 1a        	lda	($1a),y                 ; 0x201a <main+0x37e>
    3f10: 85 15        	sta	$15                     ; 0x2015 <main+0x379>
    3f12: c5 17        	cmp	$17                     ; 0x2017 <main+0x37b>
    3f14: d0 cc        	bne	$3ee2 <malloc+0xcc>
    3f16: a5 14        	lda	$14                     ; 0x2014 <main+0x378>
    3f18: c5 16        	cmp	$16                     ; 0x2016 <main+0x37a>
    3f1a: d0 c6        	bne	$3ee2 <malloc+0xcc>
    3f1c: 60           	rts
    3f1d: a6 18        	ldx	$18                     ; 0x2018 <main+0x37c>
    3f1f: 86 50        	stx	$50                     ; 0x2050 <main+0x3b4>
    3f21: a6 14        	ldx	$14                     ; 0x2014 <main+0x378>
    3f23: 86 12        	stx	$12                     ; 0x2012 <main+0x376>
    3f25: a6 15        	ldx	$15                     ; 0x2015 <main+0x379>
    3f27: 86 13        	stx	$13                     ; 0x2013 <main+0x377>
    3f29: a6 14        	ldx	$14                     ; 0x2014 <main+0x378>
    3f2b: 86 4d        	stx	$4d                     ; 0x204d <main+0x3b1>
    3f2d: a6 15        	ldx	$15                     ; 0x2015 <main+0x379>
    3f2f: 86 4e        	stx	$4e                     ; 0x204e <main+0x3b2>
    3f31: 20 5a 04     	jsr	$45a <_ZN12_GLOBAL__N_19FreeChunk6removeEv>
    3f34: a6 4d        	ldx	$4d                     ; 0x204d <main+0x3b1>
    3f36: 86 12        	stx	$12                     ; 0x2012 <main+0x376>
    3f38: a6 4e        	ldx	$4e                     ; 0x204e <main+0x3b2>
    3f3a: 86 13        	stx	$13                     ; 0x2013 <main+0x377>
    3f3c: a0 01        	ldy	#$1
    3f3e: b1 12        	lda	($12),y                 ; 0x2012 <main+0x376>
    3f40: 85 15        	sta	$15                     ; 0x2015 <main+0x379>
    3f42: a9 fe        	lda	#$fe
    3f44: 32 12        	and	($12)                   ; 0x2012 <main+0x376>
    3f46: 38           	sec
    3f47: a6 4c        	ldx	$4c                     ; 0x204c <main+0x3b0>
    3f49: 86 14        	stx	$14                     ; 0x2014 <main+0x378>
    3f4b: 85 17        	sta	$17                     ; 0x2017 <main+0x37b>
    3f4d: e5 14        	sbc	$14                     ; 0x2014 <main+0x378>
    3f4f: a8           	tay
    3f50: a6 4b        	ldx	$4b                     ; 0x204b <main+0x3af>
    3f52: 86 14        	stx	$14                     ; 0x2014 <main+0x378>
    3f54: a5 15        	lda	$15                     ; 0x2015 <main+0x379>
    3f56: 85 16        	sta	$16                     ; 0x2016 <main+0x37a>
    3f58: e5 14        	sbc	$14                     ; 0x2014 <main+0x378>
    3f5a: d0 06        	bne	$3f62 <malloc+0x14c>
    3f5c: 85 18        	sta	$18                     ; 0x2018 <main+0x37c>
    3f5e: c0 08        	cpy	#$8
    3f60: 80 04        	bra	$3f66 <malloc+0x150>
    3f62: 85 18        	sta	$18                     ; 0x2018 <main+0x37c>
    3f64: c9 00        	cmp	#$0
    3f66: a6 50        	ldx	$50                     ; 0x2050 <main+0x3b4>
    3f68: 86 14        	stx	$14                     ; 0x2014 <main+0x378>
    3f6a: a6 4f        	ldx	$4f                     ; 0x204f <main+0x3b3>
    3f6c: 86 15        	stx	$15                     ; 0x2015 <main+0x379>
    3f6e: a5 17        	lda	$17                     ; 0x2017 <main+0x37b>
    3f70: 90 42        	bcc	$3fb4 <malloc+0x19e>
    3f72: 18           	clc
    3f73: a5 4c        	lda	$4c                     ; 0x204c <main+0x3b0>
    3f75: 85 4c        	sta	$4c                     ; 0x204c <main+0x3b0>
    3f77: 65 12        	adc	$12                     ; 0x2012 <main+0x376>
    3f79: 85 12        	sta	$12                     ; 0x2012 <main+0x376>
    3f7b: a6 4b        	ldx	$4b                     ; 0x204b <main+0x3af>
    3f7d: 86 4b        	stx	$4b                     ; 0x204b <main+0x3af>
    3f7f: a5 4b        	lda	$4b                     ; 0x204b <main+0x3af>
    3f81: 65 13        	adc	$13                     ; 0x2013 <main+0x377>
    3f83: 85 13        	sta	$13                     ; 0x2013 <main+0x377>
    3f85: a6 18        	ldx	$18                     ; 0x2018 <main+0x37c>
    3f87: 98           	tya
    3f88: 20 1c 03     	jsr	$31c <_ZN12_GLOBAL__N_19FreeChunk6insertEPvj>
    3f8b: a6 4d        	ldx	$4d                     ; 0x204d <main+0x3b1>
    3f8d: 86 12        	stx	$12                     ; 0x2012 <main+0x376>
    3f8f: a6 4e        	ldx	$4e                     ; 0x204e <main+0x3b2>
    3f91: 86 13        	stx	$13                     ; 0x2013 <main+0x377>
    3f93: a5 4c        	lda	$4c                     ; 0x204c <main+0x3b0>
    3f95: 29 fe        	and	#$fe
    3f97: 85 14        	sta	$14                     ; 0x2014 <main+0x378>
    3f99: a0 01        	ldy	#$1
    3f9b: 98           	tya
    3f9c: 32 12        	and	($12)                   ; 0x2012 <main+0x376>
    3f9e: 05 14        	ora	$14                     ; 0x2014 <main+0x378>
    3fa0: 92 12        	sta	($12)                   ; 0x2012 <main+0x376>
    3fa2: a5 4b        	lda	$4b                     ; 0x204b <main+0x3af>
    3fa4: 91 12        	sta	($12),y                 ; 0x2012 <main+0x376>
    3fa6: a5 14        	lda	$14                     ; 0x2014 <main+0x378>
    3fa8: a6 4b        	ldx	$4b                     ; 0x204b <main+0x3af>
    3faa: 86 16        	stx	$16                     ; 0x2016 <main+0x37a>
    3fac: a6 50        	ldx	$50                     ; 0x2050 <main+0x3b4>
    3fae: 86 14        	stx	$14                     ; 0x2014 <main+0x378>
    3fb0: a6 4f        	ldx	$4f                     ; 0x204f <main+0x3b3>
    3fb2: 86 15        	stx	$15                     ; 0x2015 <main+0x379>
    3fb4: 18           	clc
    3fb5: 65 12        	adc	$12                     ; 0x2012 <main+0x376>
    3fb7: a8           	tay
    3fb8: a5 16        	lda	$16                     ; 0x2016 <main+0x37a>
    3fba: 65 13        	adc	$13                     ; 0x2013 <main+0x377>
    3fbc: c5 15        	cmp	$15                     ; 0x2015 <main+0x379>
    3fbe: d0 09        	bne	$3fc9 <malloc+0x1b3>
    3fc0: c4 14        	cpy	$14                     ; 0x2014 <main+0x378>
    3fc2: d0 05        	bne	$3fc9 <malloc+0x1b3>
    3fc4: 9c ea 57     	stz	$57ea                   ; 0x57ea <_ZN12_GLOBAL__N_19last_freeE>
    3fc7: 80 14        	bra	$3fdd <malloc+0x1c7>
    3fc9: 84 14        	sty	$14                     ; 0x2014 <main+0x378>
    3fcb: 85 15        	sta	$15                     ; 0x2015 <main+0x379>
    3fcd: a0 01        	ldy	#$1
    3fcf: b1 14        	lda	($14),y                 ; 0x2014 <main+0x378>
    3fd1: 85 16        	sta	$16                     ; 0x2016 <main+0x37a>
    3fd3: a9 fe        	lda	#$fe
    3fd5: 32 14        	and	($14)                   ; 0x2014 <main+0x378>
    3fd7: 92 14        	sta	($14)                   ; 0x2014 <main+0x378>
    3fd9: a5 16        	lda	$16                     ; 0x2016 <main+0x37a>
    3fdb: 91 14        	sta	($14),y                 ; 0x2014 <main+0x378>
    3fdd: a5 12        	lda	$12                     ; 0x2012 <main+0x376>
    3fdf: 18           	clc
    3fe0: 69 02        	adc	#$2
    3fe2: 85 12        	sta	$12                     ; 0x2012 <main+0x376>
    3fe4: a5 13        	lda	$13                     ; 0x2013 <main+0x377>
    3fe6: 69 00        	adc	#$0
    3fe8: 85 13        	sta	$13                     ; 0x2013 <main+0x377>
    3fea: 60           	rts

00003feb <free>:
    3feb: a6 12        	ldx	$12                     ; 0x2012 <main+0x376>
    3fed: 86 14        	stx	$14                     ; 0x2014 <main+0x378>
    3fef: a6 13        	ldx	$13                     ; 0x2013 <main+0x377>
    3ff1: 86 15        	stx	$15                     ; 0x2015 <main+0x379>
    3ff3: a2 00        	ldx	#$0
    3ff5: 86 12        	stx	$12                     ; 0x2012 <main+0x376>
    3ff7: a2 00        	ldx	#$0
    3ff9: 86 13        	stx	$13                     ; 0x2013 <main+0x377>
    3ffb: a6 15        	ldx	$15                     ; 0x2015 <main+0x379>
    3ffd: e4 13        	cpx	$13                     ; 0x2013 <main+0x377>
    3fff: d0 09        	bne	$400a <free+0x1f>
    4001: a6 14        	ldx	$14                     ; 0x2014 <main+0x378>
    4003: e4 12        	cpx	$12                     ; 0x2012 <main+0x376>
    4005: d0 03        	bne	$400a <free+0x1f>
    4007: 4c 6e 41     	jmp	$416e <free+0x183>
    400a: a2 00        	ldx	#$0
    400c: a0 10        	ldy	#$10
    400e: a9 f0        	lda	#$f0
    4010: 86 12        	stx	$12                     ; 0x2012 <main+0x376>
    4012: 84 13        	sty	$13                     ; 0x2013 <main+0x377>
    4014: 18           	clc
    4015: 65 12        	adc	$12                     ; 0x2012 <main+0x376>
    4017: 85 18        	sta	$18                     ; 0x2018 <main+0x37c>
    4019: a9 57        	lda	#$57
    401b: 65 13        	adc	$13                     ; 0x2013 <main+0x377>
    401d: 85 19        	sta	$19                     ; 0x2019 <main+0x37d>
    401f: a5 14        	lda	$14                     ; 0x2014 <main+0x378>
    4021: 18           	clc
    4022: 69 fe        	adc	#$fe
    4024: 85 12        	sta	$12                     ; 0x2012 <main+0x376>
    4026: a5 15        	lda	$15                     ; 0x2015 <main+0x379>
    4028: 69 ff        	adc	#$ff
    402a: a6 12        	ldx	$12                     ; 0x2012 <main+0x376>
    402c: 86 48        	stx	$48                     ; 0x2048 <main+0x3ac>
    402e: aa           	tax
    402f: 85 49        	sta	$49                     ; 0x2049 <main+0x3ad>
    4031: b2 48        	lda	($48)                   ; 0x2048 <main+0x3ac>
    4033: 85 1a        	sta	$1a                     ; 0x201a <main+0x37e>
    4035: a0 01        	ldy	#$1
    4037: b1 48        	lda	($48),y                 ; 0x2048 <main+0x3ac>
    4039: 85 16        	sta	$16                     ; 0x2016 <main+0x37a>
    403b: a9 fe        	lda	#$fe
    403d: 32 48        	and	($48)                   ; 0x2048 <main+0x3ac>
    403f: 85 17        	sta	$17                     ; 0x2017 <main+0x37b>
    4041: a4 12        	ldy	$12                     ; 0x2012 <main+0x376>
    4043: 84 1b        	sty	$1b                     ; 0x201b <main+0x37f>
    4045: a5 12        	lda	$12                     ; 0x2012 <main+0x376>
    4047: 18           	clc
    4048: 65 17        	adc	$17                     ; 0x2017 <main+0x37b>
    404a: 85 12        	sta	$12                     ; 0x2012 <main+0x376>
    404c: 8a           	txa
    404d: 86 1c        	stx	$1c                     ; 0x201c <main+0x380>
    404f: 65 16        	adc	$16                     ; 0x2016 <main+0x37a>
    4051: c5 19        	cmp	$19                     ; 0x2019 <main+0x37d>
    4053: d0 10        	bne	$4065 <free+0x7a>
    4055: a6 12        	ldx	$12                     ; 0x2012 <main+0x376>
    4057: e4 18        	cpx	$18                     ; 0x2018 <main+0x37c>
    4059: d0 0a        	bne	$4065 <free+0x7a>
    405b: a2 00        	ldx	#$0
    405d: 86 12        	stx	$12                     ; 0x2012 <main+0x376>
    405f: a2 00        	ldx	#$0
    4061: 86 13        	stx	$13                     ; 0x2013 <main+0x377>
    4063: 80 02        	bra	$4067 <free+0x7c>
    4065: 85 13        	sta	$13                     ; 0x2013 <main+0x377>
    4067: a5 1a        	lda	$1a                     ; 0x201a <main+0x37e>
    4069: 29 01        	and	#$1
    406b: d0 03        	bne	$4070 <free+0x85>
    406d: 4c eb 40     	jmp	$40eb <free+0x100>
    4070: a5 14        	lda	$14                     ; 0x2014 <main+0x378>
    4072: 18           	clc
    4073: 69 fc        	adc	#$fc
    4075: 85 14        	sta	$14                     ; 0x2014 <main+0x378>
    4077: a5 15        	lda	$15                     ; 0x2015 <main+0x379>
    4079: 69 ff        	adc	#$ff
    407b: 85 15        	sta	$15                     ; 0x2015 <main+0x379>
    407d: a0 01        	ldy	#$1
    407f: 38           	sec
    4080: a9 00        	lda	#$0
    4082: f2 14        	sbc	($14)                   ; 0x2014 <main+0x378>
    4084: 85 1a        	sta	$1a                     ; 0x201a <main+0x37e>
    4086: a9 00        	lda	#$0
    4088: f1 14        	sbc	($14),y                 ; 0x2014 <main+0x378>
    408a: 85 14        	sta	$14                     ; 0x2014 <main+0x378>
    408c: a5 1b        	lda	$1b                     ; 0x201b <main+0x37f>
    408e: 18           	clc
    408f: 65 1a        	adc	$1a                     ; 0x201a <main+0x37e>
    4091: 85 48        	sta	$48                     ; 0x2048 <main+0x3ac>
    4093: a5 1c        	lda	$1c                     ; 0x201c <main+0x380>
    4095: 65 14        	adc	$14                     ; 0x2014 <main+0x378>
    4097: 85 49        	sta	$49                     ; 0x2049 <main+0x3ad>
    4099: b1 48        	lda	($48),y                 ; 0x2048 <main+0x3ac>
    409b: 85 50        	sta	$50                     ; 0x2050 <main+0x3b4>
    409d: a9 fe        	lda	#$fe
    409f: 32 48        	and	($48)                   ; 0x2048 <main+0x3ac>
    40a1: 85 51        	sta	$51                     ; 0x2051 <main+0x3b5>
    40a3: a6 12        	ldx	$12                     ; 0x2012 <main+0x376>
    40a5: 86 4a        	stx	$4a                     ; 0x204a <main+0x3ae>
    40a7: a6 13        	ldx	$13                     ; 0x2013 <main+0x377>
    40a9: 86 4b        	stx	$4b                     ; 0x204b <main+0x3af>
    40ab: a6 48        	ldx	$48                     ; 0x2048 <main+0x3ac>
    40ad: 86 12        	stx	$12                     ; 0x2012 <main+0x376>
    40af: a6 49        	ldx	$49                     ; 0x2049 <main+0x3ad>
    40b1: 86 13        	stx	$13                     ; 0x2013 <main+0x377>
    40b3: a6 16        	ldx	$16                     ; 0x2016 <main+0x37a>
    40b5: 86 4c        	stx	$4c                     ; 0x204c <main+0x3b0>
    40b7: a6 17        	ldx	$17                     ; 0x2017 <main+0x37b>
    40b9: 86 4d        	stx	$4d                     ; 0x204d <main+0x3b1>
    40bb: a6 18        	ldx	$18                     ; 0x2018 <main+0x37c>
    40bd: 86 4e        	stx	$4e                     ; 0x204e <main+0x3b2>
    40bf: a6 19        	ldx	$19                     ; 0x2019 <main+0x37d>
    40c1: 86 4f        	stx	$4f                     ; 0x204f <main+0x3b3>
    40c3: 20 5a 04     	jsr	$45a <_ZN12_GLOBAL__N_19FreeChunk6removeEv>
    40c6: a6 4f        	ldx	$4f                     ; 0x204f <main+0x3b3>
    40c8: 86 19        	stx	$19                     ; 0x2019 <main+0x37d>
    40ca: a6 4e        	ldx	$4e                     ; 0x204e <main+0x3b2>
    40cc: 86 18        	stx	$18                     ; 0x2018 <main+0x37c>
    40ce: a6 4a        	ldx	$4a                     ; 0x204a <main+0x3ae>
    40d0: 86 12        	stx	$12                     ; 0x2012 <main+0x376>
    40d2: a6 4b        	ldx	$4b                     ; 0x204b <main+0x3af>
    40d4: 86 13        	stx	$13                     ; 0x2013 <main+0x377>
    40d6: 18           	clc
    40d7: a5 51        	lda	$51                     ; 0x2051 <main+0x3b5>
    40d9: a6 4d        	ldx	$4d                     ; 0x204d <main+0x3b1>
    40db: 86 14        	stx	$14                     ; 0x2014 <main+0x378>
    40dd: 65 14        	adc	$14                     ; 0x2014 <main+0x378>
    40df: 85 17        	sta	$17                     ; 0x2017 <main+0x37b>
    40e1: a5 50        	lda	$50                     ; 0x2050 <main+0x3b4>
    40e3: a6 4c        	ldx	$4c                     ; 0x204c <main+0x3b0>
    40e5: 86 14        	stx	$14                     ; 0x2014 <main+0x378>
    40e7: 65 14        	adc	$14                     ; 0x2014 <main+0x378>
    40e9: 85 16        	sta	$16                     ; 0x2016 <main+0x37a>
    40eb: a2 00        	ldx	#$0
    40ed: 86 14        	stx	$14                     ; 0x2014 <main+0x378>
    40ef: a2 00        	ldx	#$0
    40f1: 86 15        	stx	$15                     ; 0x2015 <main+0x379>
    40f3: a6 13        	ldx	$13                     ; 0x2013 <main+0x377>
    40f5: e4 15        	cpx	$15                     ; 0x2015 <main+0x379>
    40f7: d0 0e        	bne	$4107 <free+0x11c>
    40f9: a6 12        	ldx	$12                     ; 0x2012 <main+0x376>
    40fb: e4 14        	cpx	$14                     ; 0x2014 <main+0x378>
    40fd: d0 08        	bne	$4107 <free+0x11c>
    40ff: a2 01        	ldx	#$1
    4101: 8e ea 57     	stx	$57ea                   ; 0x57ea <_ZN12_GLOBAL__N_19last_freeE>
    4104: 4c 5f 41     	jmp	$415f <free+0x174>
    4107: a0 01        	ldy	#$1
    4109: b1 12        	lda	($12),y                 ; 0x2012 <main+0x376>
    410b: a8           	tay
    410c: a9 fe        	lda	#$fe
    410e: 32 12        	and	($12)                   ; 0x2012 <main+0x376>
    4110: 18           	clc
    4111: 85 4e        	sta	$4e                     ; 0x204e <main+0x3b2>
    4113: 65 12        	adc	$12                     ; 0x2012 <main+0x376>
    4115: 85 14        	sta	$14                     ; 0x2014 <main+0x378>
    4117: 98           	tya
    4118: 85 4a        	sta	$4a                     ; 0x204a <main+0x3ae>
    411a: 65 13        	adc	$13                     ; 0x2013 <main+0x377>
    411c: c5 19        	cmp	$19                     ; 0x2019 <main+0x37d>
    411e: d0 0f        	bne	$412f <free+0x144>
    4120: a6 14        	ldx	$14                     ; 0x2014 <main+0x378>
    4122: e4 18        	cpx	$18                     ; 0x2018 <main+0x37c>
    4124: d0 09        	bne	$412f <free+0x144>
    4126: a9 01        	lda	#$1
    4128: 64 14        	stz	$14                     ; 0x2014 <main+0x378>
    412a: 2d ea 57     	and	$57ea                   ; 0x57ea <_ZN12_GLOBAL__N_19last_freeE>
    412d: 80 08        	bra	$4137 <free+0x14c>
    412f: 85 15        	sta	$15                     ; 0x2015 <main+0x379>
    4131: a9 01        	lda	#$1
    4133: 32 14        	and	($14)                   ; 0x2014 <main+0x378>
    4135: 64 14        	stz	$14                     ; 0x2014 <main+0x378>
    4137: a6 14        	ldx	$14                     ; 0x2014 <main+0x378>
    4139: d0 03        	bne	$413e <free+0x153>
    413b: aa           	tax
    413c: f0 31        	beq	$416f <free+0x184>
    413e: a6 16        	ldx	$16                     ; 0x2016 <main+0x37a>
    4140: 86 4c        	stx	$4c                     ; 0x204c <main+0x3b0>
    4142: a6 17        	ldx	$17                     ; 0x2017 <main+0x37b>
    4144: 86 4d        	stx	$4d                     ; 0x204d <main+0x3b1>
    4146: 20 5a 04     	jsr	$45a <_ZN12_GLOBAL__N_19FreeChunk6removeEv>
    4149: 18           	clc
    414a: a6 4e        	ldx	$4e                     ; 0x204e <main+0x3b2>
    414c: 8a           	txa
    414d: a6 4d        	ldx	$4d                     ; 0x204d <main+0x3b1>
    414f: 86 12        	stx	$12                     ; 0x2012 <main+0x376>
    4151: 65 12        	adc	$12                     ; 0x2012 <main+0x376>
    4153: 85 17        	sta	$17                     ; 0x2017 <main+0x37b>
    4155: a5 4a        	lda	$4a                     ; 0x204a <main+0x3ae>
    4157: a6 4c        	ldx	$4c                     ; 0x204c <main+0x3b0>
    4159: 86 12        	stx	$12                     ; 0x2012 <main+0x376>
    415b: 65 12        	adc	$12                     ; 0x2012 <main+0x376>
    415d: 85 16        	sta	$16                     ; 0x2016 <main+0x37a>
    415f: a6 48        	ldx	$48                     ; 0x2048 <main+0x3ac>
    4161: 86 12        	stx	$12                     ; 0x2012 <main+0x376>
    4163: a6 49        	ldx	$49                     ; 0x2049 <main+0x3ad>
    4165: 86 13        	stx	$13                     ; 0x2013 <main+0x377>
    4167: a6 16        	ldx	$16                     ; 0x2016 <main+0x37a>
    4169: a5 17        	lda	$17                     ; 0x2017 <main+0x37b>
    416b: 20 1c 03     	jsr	$31c <_ZN12_GLOBAL__N_19FreeChunk6insertEPvj>
    416e: 60           	rts
    416f: b2 12        	lda	($12)                   ; 0x2012 <main+0x376>
    4171: 09 01        	ora	#$1
    4173: 92 12        	sta	($12)                   ; 0x2012 <main+0x376>
    4175: a0 01        	ldy	#$1
    4177: a5 4a        	lda	$4a                     ; 0x204a <main+0x3ae>
    4179: 91 12        	sta	($12),y                 ; 0x2012 <main+0x376>
    417b: 80 e2        	bra	$415f <free+0x174>

0000417d <memcpy>:
    417d: a8           	tay
    417e: 8a           	txa
    417f: d0 03        	bne	$4184 <memcpy+0x7>
    4181: 98           	tya
    4182: f0 24        	beq	$41a8 <memcpy+0x2b>
    4184: a5 12        	lda	$12                     ; 0x2012 <main+0x376>
    4186: 85 16        	sta	$16                     ; 0x2016 <main+0x37a>
    4188: a5 13        	lda	$13                     ; 0x2013 <main+0x377>
    418a: 85 17        	sta	$17                     ; 0x2017 <main+0x37b>
    418c: b2 14        	lda	($14)                   ; 0x2014 <main+0x378>
    418e: 92 16        	sta	($16)                   ; 0x2016 <main+0x37a>
    4190: e6 16        	inc	$16                     ; 0x2016 <main+0x37a>
    4192: d0 02        	bne	$4196 <memcpy+0x19>
    4194: e6 17        	inc	$17                     ; 0x2017 <main+0x37b>
    4196: e6 14        	inc	$14                     ; 0x2014 <main+0x378>
    4198: d0 02        	bne	$419c <memcpy+0x1f>
    419a: e6 15        	inc	$15                     ; 0x2015 <main+0x379>
    419c: 88           	dey
    419d: c0 ff        	cpy	#$ff
    419f: d0 01        	bne	$41a2 <memcpy+0x25>
    41a1: ca           	dex
    41a2: 8a           	txa
    41a3: d0 e7        	bne	$418c <memcpy+0xf>
    41a5: 98           	tya
    41a6: d0 e4        	bne	$418c <memcpy+0xf>
    41a8: 60           	rts

000041a9 <__memset>:
    41a9: a4 14        	ldy	$14                     ; 0x2014 <main+0x378>
    41ab: d0 04        	bne	$41b1 <__memset+0x8>
    41ad: e0 00        	cpx	#$0
    41af: f0 17        	beq	$41c8 <__memset+0x1f>
    41b1: 92 12        	sta	($12)                   ; 0x2012 <main+0x376>
    41b3: e6 12        	inc	$12                     ; 0x2012 <main+0x376>
    41b5: d0 02        	bne	$41b9 <__memset+0x10>
    41b7: e6 13        	inc	$13                     ; 0x2013 <main+0x377>
    41b9: ca           	dex
    41ba: e0 ff        	cpx	#$ff
    41bc: d0 02        	bne	$41c0 <__memset+0x17>
    41be: c6 14        	dec	$14                     ; 0x2014 <main+0x378>
    41c0: a4 14        	ldy	$14                     ; 0x2014 <main+0x378>
    41c2: d0 ed        	bne	$41b1 <__memset+0x8>
    41c4: e0 00        	cpx	#$0
    41c6: d0 e9        	bne	$41b1 <__memset+0x8>
    41c8: 60           	rts

000041c9 <__mulhi3>:
    41c9: a4 13        	ldy	$13                     ; 0x2013 <main+0x377>
    41cb: d0 04        	bne	$41d1 <__mulhi3+0x8>
    41cd: a4 12        	ldy	$12                     ; 0x2012 <main+0x376>
    41cf: f0 25        	beq	$41f6 <__mulhi3+0x2d>
    41d1: 85 14        	sta	$14                     ; 0x2014 <main+0x378>
    41d3: 86 15        	stx	$15                     ; 0x2015 <main+0x379>
    41d5: a0 00        	ldy	#$0
    41d7: 98           	tya
    41d8: 46 13        	lsr	$13                     ; 0x2013 <main+0x377>
    41da: 66 12        	ror	$12                     ; 0x2012 <main+0x376>
    41dc: 90 09        	bcc	$41e7 <__mulhi3+0x1e>
    41de: aa           	tax
    41df: 98           	tya
    41e0: 18           	clc
    41e1: 65 14        	adc	$14                     ; 0x2014 <main+0x378>
    41e3: a8           	tay
    41e4: 8a           	txa
    41e5: 65 15        	adc	$15                     ; 0x2015 <main+0x379>
    41e7: 06 14        	asl	$14                     ; 0x2014 <main+0x378>
    41e9: 26 15        	rol	$15                     ; 0x2015 <main+0x379>
    41eb: a6 13        	ldx	$13                     ; 0x2013 <main+0x377>
    41ed: d0 e9        	bne	$41d8 <__mulhi3+0xf>
    41ef: a6 12        	ldx	$12                     ; 0x2012 <main+0x376>
    41f1: d0 e5        	bne	$41d8 <__mulhi3+0xf>
    41f3: aa           	tax
    41f4: 98           	tya
    41f5: 60           	rts
    41f6: a0 00        	ldy	#$0
    41f8: 98           	tya
    41f9: 80 f8        	bra	$41f3 <__mulhi3+0x2a>
