
psidplayer.elf:	file format elf32-mos

SYMBOL TABLE:
00000000 l    df *ABS*	00000000 zero-bss.c
00000000 l    df *ABS*	00000000 zero-zp-bss.c
00000000 l    df *ABS*	00000000 copy-zp-data.c
00000000 l    df *ABS*	00000000 ld-temp.o
00000643 l     F .text	0000010a isExtensionAllowed
00004ae6 l     F .text	00000039 strlen
00004b47 l     F .text	0000003a strrchr
00003364 l     F .text	0000000d tolower
0000074d l     F .text	00000326 sortFileList
00004bef l     F .text	00000032 __mulhi3
00004a27 l     F .text	0000003b strcpy
00000a73 l     F .text	00000c4e pickFile
0000006c l     O .zp.bss	00000007 kernelEventData
00000073 l     O .zp.bss	00000001 kernelError
00002f2c l     F .text	00000011 textGotoXY
00004322 l     F .text	00000057 printf
000016c1 l     F .text	000003ea displayFileList
00004662 l     F .text	00000028 putchar
00001aab l     F .text	000001d5 readDirectory
00002e26 l     F .text	00000106 fileOpenDir
00003209 l     F .text	0000013d fileReadDir
00004b1f l     F .text	00000028 strcmp
00004a62 l     F .text	00000084 strncpy
000031a3 l     F .text	00000066 fileCloseDir
00001c80 l     F .text	000004ac filePickModal
00003197 l     F .text	0000000c textSetColor
00004615 l     F .text	0000004a sprintf
0000212c l     F .text	0000002c clearSIDRegisters
00002158 l     F .text	00000009 setMonoSID
00002161 l     F .text	0000001c setTimer0
0000217d l     F .text	00000033 setTimer
000021b0 l     F .text	00000021 getTimerAbsolute
000021d1 l     F .text	00000034 hitspace
00002205 l     F .text	0000017c f256Init
0000006a l     O .zp.bss	00000002 kernelArgs
00002381 l     F .text	00000173 textReset
000024f4 l     F .text	00000156 bitmapReset
00000089 l     O .zp.bss	00000003 _tileSize
00004f08 l     O .bss	00000040 _spriteCtl
0000008c l     O .zp.bss	00000008 _dirStream
00000065 l     O .zp.data	00000001 _ccolor
00000063 l     O .zp.data	00000001 _MAX_COL
00000064 l     O .zp.data	00000001 _MAX_ROW
00000033 l     O .zp.data	00000030 textColors
00000074 l     O .zp.bss	00000001 _col
00000075 l     O .zp.bss	00000001 _row
00000084 l     O .zp.bss	00000001 _MAX_X
00000085 l     O .zp.bss	00000001 _MAX_Y
00000082 l     O .zp.bss	00000001 _active
00000083 l     O .zp.bss	00000001 _color
00000076 l     O .zp.bss	0000000c _BITMAP_BASE
00000086 l     O .zp.bss	00000003 _BITMAP_CLUT
0000266e l     F .text	00000174 f256main
00004855 l     F .text	00000186 free
000027e2 l     F .text	0000016c getTheFile
0000504c l     O .bss	00000064 name
0000294e l     F .text	00000103 fileOpen
00002a51 l     F .text	00000216 playback
000050b0 l     O .bss	000011f6 fpr
0000469f l     F .text	00000100 malloc
00000094 l     O .zp.bss	00000003 sidTimer
00002c67 l     F .text	000001bf fileRead
00004c21 l     F .text	000000c0 __udivhi3
00002f3d l     F .text	0000025a textPrint
00004f48 l     O .bss	00000102 fileReadDir.fileDirEntS
00003346 l     F .text	0000000e __putchar
0000504a l     O .bss	00000002 __putchar.s
00003362 l     F .text	00000002 _Exit
00003371 l     F .text	00000218 vfprintf
00004691 l     F .text	00000003 putc
00003589 l     F .text	00000b44 _ZN12_GLOBAL__N_15printEPKcP6Status
000040cd l     F .text	000000e1 _ZN12_GLOBAL__N_13putEcP6Status
00004b81 l     F .text	0000006e __simple_strtoui
000041ae l     F .text	00000174 _ZN12_GLOBAL__N_112print_stringEPKcP6Status
00000560 l     F .text	00000003 _ZN6__impl6VarInt4makeEPvc
00000572 l     F .text	0000000d _ZNK6__impl6VarInt8negativeEv
00000580 l     F .text	00000047 _ZN6__impl6VarInt6negateEv
00000564 l     F .text	0000000d _ZNK6__impl6VarInt8high_bitEv
000005c8 l     F .text	0000003b _ZN6__impl6VarInt3shlEv
00000066 l     O .zp.data	00000002 stdout
00004379 l     F .text	0000029c vsnprintf
0000465f l     F .text	00000003 fputc
0000468a l     F .text	00000007 putchar_wrapper
00004694 l     F .text	0000000b __from_ascii
00000097 l     O .zp.bss	00000001 _ZN12_GLOBAL__N_111initializedE
00000068 l     O .zp.data	00000002 _ZN12_GLOBAL__N_110heap_limitE
00000352 l     F .text	00000135 _ZN12_GLOBAL__N_19FreeChunk6insertEPvj
00000098 l     O .zp.bss	00000001 _ZN12_GLOBAL__N_19last_freeE
0000009b l     O .zp.bss	00000002 _ZN12_GLOBAL__N_19free_listE
0000479f l     F .text	000000b6 _ZN12_GLOBAL__N_119allocate_free_chunkEPNS_9FreeChunkEj
00000099 l     O .zp.bss	00000002 _ZN12_GLOBAL__N_19free_sizeE
00000488 l     F .text	000000d7 _ZN12_GLOBAL__N_19FreeChunk6removeEv
0000264a g     F .text	00000024 main
0000034e g       .text	00000000 __after_main
0000033a g       .text	00000000 __do_init_stack
00000348 g       .text	00000000 __do_copy_zp_data
0000062c g     F .text	00000017 __copy_zp_data
00000342 g       .text	00000000 __do_zero_bss
00000606 g     F .text	00000013 __zero_bss
00000345 g       .text	00000000 __do_zero_zp_bss
00000619 g     F .text	00000013 __zero_zp_bss
00003354 g     F .text	0000000e exit
00000351 g       .text	00000000 _fini
00000603 g       .text	00000000 __call_indir
00004a07  w    F .text	00000020 __memset
00001000  w      *ABS*	00000000 __heap_default_limit
000062a6 g       .noinit	00000000 __heap_start
000049db  w    F .text	0000002c memcpy
00000010 g       *ABS*	00000000 __rc0
00000012 g       *ABS*	00000000 __rc2
00000014 g       *ABS*	00000000 __rc4
00000016 g       *ABS*	00000000 __rc6
00000018 g       *ABS*	00000000 __rc8
0000001a g       *ABS*	00000000 __rc10
0000001c g       *ABS*	00000000 __rc12
0000001e g       *ABS*	00000000 __rc14
00000020 g       *ABS*	00000000 __rc16
00000022 g       *ABS*	00000000 __rc18
00000024 g       *ABS*	00000000 __rc20
00000026 g       *ABS*	00000000 __rc22
00000028 g       *ABS*	00000000 __rc24
0000002a g       *ABS*	00000000 __rc26
0000002c g       *ABS*	00000000 __rc28
0000002e g       *ABS*	00000000 __rc30
0000002f g       *ABS*	00000000 __rc31
00000300 g       *ABS*	00000000 __f256_start
0000c000 g       *ABS*	00000000 __stack
0000c000 g       *ABS*	00000000 __SLOT_ADDR
0800c000 g       *ABS*	00000000 __block8_lma
00002000 g       *ABS*	00000000 __BLOCK_SIZE
0900c000 g       *ABS*	00000000 __block9_lma
0a00c000 g       *ABS*	00000000 __block10_lma
0b00c000 g       *ABS*	00000000 __block11_lma
0c00c000 g       *ABS*	00000000 __block12_lma
0d00c000 g       *ABS*	00000000 __block13_lma
0e00c000 g       *ABS*	00000000 __block14_lma
0f00c000 g       *ABS*	00000000 __block15_lma
1000c000 g       *ABS*	00000000 __block16_lma
1100c000 g       *ABS*	00000000 __block17_lma
1200c000 g       *ABS*	00000000 __block18_lma
1300c000 g       *ABS*	00000000 __block19_lma
1400c000 g       *ABS*	00000000 __block20_lma
1500c000 g       *ABS*	00000000 __block21_lma
1600c000 g       *ABS*	00000000 __block22_lma
1700c000 g       *ABS*	00000000 __block23_lma
00004f08 g       .bss	00000000 __bss_start
0000033a g       .text	00000000 _start
0000002d g       *ABS*	00000000 __rc29
0000002b g       *ABS*	00000000 __rc27
00000029 g       *ABS*	00000000 __rc25
00000027 g       *ABS*	00000000 __rc23
00000025 g       *ABS*	00000000 __rc21
00000023 g       *ABS*	00000000 __rc19
00000021 g       *ABS*	00000000 __rc17
0000001f g       *ABS*	00000000 __rc15
0000001d g       *ABS*	00000000 __rc13
0000001b g       *ABS*	00000000 __rc11
00000019 g       *ABS*	00000000 __rc9
00000017 g       *ABS*	00000000 __rc7
00000015 g       *ABS*	00000000 __rc5
00000013 g       *ABS*	00000000 __rc3
00000011 g       *ABS*	00000000 __rc1
00000030 g       .zp.data	00000000 __zp_data_start
00000300 g       *ABS*	00000000 __zp_data_load_start
0000003a g       *ABS*	00000000 __zp_data_size
0000006a g       .zp.bss	00000000 __zp_bss_start
00000033 g       *ABS*	00000000 __zp_bss_size
0000033a g       .text	00000000 _init
00004ce1 g       .text	00000000 __init_array_start
00004ce1 g       .text	00000000 __init_array_end
00004ce1 g       .text	00000000 __fini_array_start
00004ce1 g       .text	00000000 __fini_array_end
00004f08 g       .data	00000000 __data_start
00004f08 g       .data	00000000 __data_end
00004f08 g       *ABS*	00000000 __data_load_start
00000000 g       *ABS*	00000000 __data_size
000062a6 g       .bss	00000000 __bss_end
0000139e g       *ABS*	00000000 __bss_size
000062a6 g       .noinit	00000000 end_block8
000062a6 g       .noinit	00000000 end_block9
000062a6 g       .noinit	00000000 end_block10
000062a6 g       .noinit	00000000 end_block11
000062a6 g       .noinit	00000000 end_block12
000062a6 g       .noinit	00000000 end_block13
000062a6 g       .noinit	00000000 end_block14
000062a6 g       .noinit	00000000 end_block15
000062a6 g       .noinit	00000000 end_block16
000062a6 g       .noinit	00000000 end_block17
000062a6 g       .noinit	00000000 end_block18
000062a6 g       .noinit	00000000 end_block19
000062a6 g       .noinit	00000000 end_block20
000062a6 g       .noinit	00000000 end_block21
000062a6 g       .noinit	00000000 end_block22
000062a6 g       .noinit	00000000 end_block23

Disassembly of section .text:

0000033a <_start>:
     33a: a9 00        	lda	#$0
     33c: 85 10        	sta	$10                     ; 0x10 <__rc0>
     33e: a9 c0        	lda	#$c0
     340: 85 11        	sta	$11                     ; 0x11 <__rc1>

00000342 <__do_zero_bss>:
     342: 20 06 06     	jsr	$606 <__zero_bss>

00000345 <__do_zero_zp_bss>:
     345: 20 19 06     	jsr	$619 <__zero_zp_bss>

00000348 <__do_copy_zp_data>:
     348: 20 2c 06     	jsr	$62c <__copy_zp_data>
     34b: 20 4a 26     	jsr	$264a <main>

0000034e <__after_main>:
     34e: 4c 54 33     	jmp	$3354 <exit>

00000351 <_fini>:
     351: 60           	rts

00000352 <_ZN12_GLOBAL__N_19FreeChunk6insertEPvj>:
     352: 85 16        	sta	$16                     ; 0x16 <__rc6>
     354: 29 fe        	and	#$fe
     356: 85 14        	sta	$14                     ; 0x14 <__rc4>
     358: a0 01        	ldy	#$1
     35a: 98           	tya
     35b: 32 12        	and	($12)                   ; 0x12 <__rc2>
     35d: 05 14        	ora	$14                     ; 0x14 <__rc4>
     35f: 92 12        	sta	($12)                   ; 0x12 <__rc2>
     361: a5 12        	lda	$12                     ; 0x12 <__rc2>
     363: 18           	clc
     364: 65 14        	adc	$14                     ; 0x14 <__rc4>
     366: 85 15        	sta	$15                     ; 0x15 <__rc5>
     368: 8a           	txa
     369: 65 13        	adc	$13                     ; 0x13 <__rc3>
     36b: 85 14        	sta	$14                     ; 0x14 <__rc4>
     36d: 18           	clc
     36e: a5 15        	lda	$15                     ; 0x15 <__rc5>
     370: 69 fe        	adc	#$fe
     372: 85 17        	sta	$17                     ; 0x17 <__rc7>
     374: a5 14        	lda	$14                     ; 0x14 <__rc4>
     376: 69 ff        	adc	#$ff
     378: 85 15        	sta	$15                     ; 0x15 <__rc5>
     37a: a5 17        	lda	$17                     ; 0x17 <__rc7>
     37c: 85 14        	sta	$14                     ; 0x14 <__rc4>
     37e: 8a           	txa
     37f: 91 12        	sta	($12),y                 ; 0x12 <__rc2>
     381: a5 16        	lda	$16                     ; 0x16 <__rc6>
     383: 92 14        	sta	($14)                   ; 0x14 <__rc4>
     385: 8a           	txa
     386: 91 14        	sta	($14),y                 ; 0x14 <__rc4>
     388: b1 12        	lda	($12),y                 ; 0x12 <__rc2>
     38a: 85 14        	sta	$14                     ; 0x14 <__rc4>
     38c: a9 fe        	lda	#$fe
     38e: 32 12        	and	($12)                   ; 0x12 <__rc2>
     390: 18           	clc
     391: 65 99        	adc	$99                     ; 0x99 <_ZN12_GLOBAL__N_19free_sizeE>
     393: aa           	tax
     394: a5 14        	lda	$14                     ; 0x14 <__rc4>
     396: 65 9a        	adc	$9a                     ; 0x9a <_ZN12_GLOBAL__N_19free_sizeE+0x1>
     398: a8           	tay
     399: 18           	clc
     39a: 8a           	txa
     39b: 69 fe        	adc	#$fe
     39d: aa           	tax
     39e: 98           	tya
     39f: 69 ff        	adc	#$ff
     3a1: 86 99        	stx	$99                     ; 0x99 <_ZN12_GLOBAL__N_19free_sizeE>
     3a3: 85 9a        	sta	$9a                     ; 0x9a <_ZN12_GLOBAL__N_19free_sizeE+0x1>
     3a5: a6 9b        	ldx	$9b                     ; 0x9b <_ZN12_GLOBAL__N_19free_listE>
     3a7: 86 16        	stx	$16                     ; 0x16 <__rc6>
     3a9: a4 9c        	ldy	$9c                     ; 0x9c <_ZN12_GLOBAL__N_19free_listE+0x1>
     3ab: a2 00        	ldx	#$0
     3ad: 86 14        	stx	$14                     ; 0x14 <__rc4>
     3af: a2 00        	ldx	#$0
     3b1: 86 15        	stx	$15                     ; 0x15 <__rc5>
     3b3: c4 15        	cpy	$15                     ; 0x15 <__rc5>
     3b5: d0 3c        	bne	$3f3 <_ZN12_GLOBAL__N_19FreeChunk6insertEPvj+0xa1>
     3b7: a6 16        	ldx	$16                     ; 0x16 <__rc6>
     3b9: e4 14        	cpx	$14                     ; 0x14 <__rc4>
     3bb: d0 36        	bne	$3f3 <_ZN12_GLOBAL__N_19FreeChunk6insertEPvj+0xa1>
     3bd: a0 04        	ldy	#$4
     3bf: a5 12        	lda	$12                     ; 0x12 <__rc2>
     3c1: 18           	clc
     3c2: 69 04        	adc	#$4
     3c4: 85 14        	sta	$14                     ; 0x14 <__rc4>
     3c6: a5 13        	lda	$13                     ; 0x13 <__rc3>
     3c8: 69 00        	adc	#$0
     3ca: 18           	clc
     3cb: 85 15        	sta	$15                     ; 0x15 <__rc5>
     3cd: a5 12        	lda	$12                     ; 0x12 <__rc2>
     3cf: 91 12        	sta	($12),y                 ; 0x12 <__rc2>
     3d1: a0 02        	ldy	#$2
     3d3: 85 17        	sta	$17                     ; 0x17 <__rc7>
     3d5: 69 02        	adc	#$2
     3d7: 85 16        	sta	$16                     ; 0x16 <__rc6>
     3d9: a5 17        	lda	$17                     ; 0x17 <__rc7>
     3db: 91 12        	sta	($12),y                 ; 0x12 <__rc2>
     3dd: a5 13        	lda	$13                     ; 0x13 <__rc3>
     3df: 69 00        	adc	#$0
     3e1: 85 17        	sta	$17                     ; 0x17 <__rc7>
     3e3: 88           	dey
     3e4: a5 13        	lda	$13                     ; 0x13 <__rc3>
     3e6: 91 14        	sta	($14),y                 ; 0x14 <__rc4>
     3e8: 91 16        	sta	($16),y                 ; 0x16 <__rc6>
     3ea: a6 12        	ldx	$12                     ; 0x12 <__rc2>
     3ec: 86 9b        	stx	$9b                     ; 0x9b <_ZN12_GLOBAL__N_19free_listE>
     3ee: a6 13        	ldx	$13                     ; 0x13 <__rc3>
     3f0: 86 9c        	stx	$9c                     ; 0x9c <_ZN12_GLOBAL__N_19free_listE+0x1>
     3f2: 60           	rts
     3f3: a6 12        	ldx	$12                     ; 0x12 <__rc2>
     3f5: a5 12        	lda	$12                     ; 0x12 <__rc2>
     3f7: 18           	clc
     3f8: 69 02        	adc	#$2
     3fa: 85 14        	sta	$14                     ; 0x14 <__rc4>
     3fc: 84 18        	sty	$18                     ; 0x18 <__rc8>
     3fe: a5 13        	lda	$13                     ; 0x13 <__rc3>
     400: 69 00        	adc	#$0
     402: 85 15        	sta	$15                     ; 0x15 <__rc5>
     404: a5 16        	lda	$16                     ; 0x16 <__rc6>
     406: 84 17        	sty	$17                     ; 0x17 <__rc7>
     408: a0 02        	ldy	#$2
     40a: 91 12        	sta	($12),y                 ; 0x12 <__rc2>
     40c: 85 19        	sta	$19                     ; 0x19 <__rc9>
     40e: 88           	dey
     40f: a5 18        	lda	$18                     ; 0x18 <__rc8>
     411: 91 14        	sta	($14),y                 ; 0x14 <__rc4>
     413: 18           	clc
     414: a5 19        	lda	$19                     ; 0x19 <__rc9>
     416: 69 04        	adc	#$4
     418: a8           	tay
     419: a5 18        	lda	$18                     ; 0x18 <__rc8>
     41b: 69 00        	adc	#$0
     41d: 85 19        	sta	$19                     ; 0x19 <__rc9>
     41f: 84 18        	sty	$18                     ; 0x18 <__rc8>
     421: 8a           	txa
     422: 18           	clc
     423: 69 04        	adc	#$4
     425: 85 1a        	sta	$1a                     ; 0x1a <__rc10>
     427: a5 13        	lda	$13                     ; 0x13 <__rc3>
     429: 69 00        	adc	#$0
     42b: 85 1b        	sta	$1b                     ; 0x1b <__rc11>
     42d: a0 04        	ldy	#$4
     42f: b1 16        	lda	($16),y                 ; 0x16 <__rc6>
     431: 85 16        	sta	$16                     ; 0x16 <__rc6>
     433: 85 1d        	sta	$1d                     ; 0x1d <__rc13>
     435: a0 01        	ldy	#$1
     437: b1 18        	lda	($18),y                 ; 0x18 <__rc8>
     439: 85 17        	sta	$17                     ; 0x17 <__rc7>
     43b: 85 19        	sta	$19                     ; 0x19 <__rc9>
     43d: a0 04        	ldy	#$4
     43f: a5 1d        	lda	$1d                     ; 0x1d <__rc13>
     441: 91 12        	sta	($12),y                 ; 0x12 <__rc2>
     443: a5 19        	lda	$19                     ; 0x19 <__rc9>
     445: a0 01        	ldy	#$1
     447: 91 1a        	sta	($1a),y                 ; 0x1a <__rc10>
     449: 18           	clc
     44a: a5 1d        	lda	$1d                     ; 0x1d <__rc13>
     44c: 69 02        	adc	#$2
     44e: 85 18        	sta	$18                     ; 0x18 <__rc8>
     450: a5 19        	lda	$19                     ; 0x19 <__rc9>
     452: 69 00        	adc	#$0
     454: 85 19        	sta	$19                     ; 0x19 <__rc9>
     456: 8a           	txa
     457: c8           	iny
     458: 91 16        	sta	($16),y                 ; 0x16 <__rc6>
     45a: a5 13        	lda	$13                     ; 0x13 <__rc3>
     45c: 88           	dey
     45d: 91 18        	sta	($18),y                 ; 0x18 <__rc8>
     45f: c8           	iny
     460: b1 12        	lda	($12),y                 ; 0x12 <__rc2>
     462: 85 16        	sta	$16                     ; 0x16 <__rc6>
     464: 85 18        	sta	$18                     ; 0x18 <__rc8>
     466: 88           	dey
     467: b1 14        	lda	($14),y                 ; 0x14 <__rc4>
     469: 85 17        	sta	$17                     ; 0x17 <__rc7>
     46b: 85 14        	sta	$14                     ; 0x14 <__rc4>
     46d: 8a           	txa
     46e: a0 04        	ldy	#$4
     470: 91 16        	sta	($16),y                 ; 0x16 <__rc6>
     472: 18           	clc
     473: a5 18        	lda	$18                     ; 0x18 <__rc8>
     475: 69 04        	adc	#$4
     477: a8           	tay
     478: a5 14        	lda	$14                     ; 0x14 <__rc4>
     47a: 69 00        	adc	#$0
     47c: 84 14        	sty	$14                     ; 0x14 <__rc4>
     47e: 85 15        	sta	$15                     ; 0x15 <__rc5>
     480: a5 13        	lda	$13                     ; 0x13 <__rc3>
     482: a0 01        	ldy	#$1
     484: 91 14        	sta	($14),y                 ; 0x14 <__rc4>
     486: 60           	rts
     487: 00           	brk

00000488 <_ZN12_GLOBAL__N_19FreeChunk6removeEv>:
     488: a0 01        	ldy	#$1
     48a: a9 fe        	lda	#$fe
     48c: 32 12        	and	($12)                   ; 0x12 <__rc2>
     48e: 85 14        	sta	$14                     ; 0x14 <__rc4>
     490: a5 99        	lda	$99                     ; 0x99 <_ZN12_GLOBAL__N_19free_sizeE>
     492: a6 9a        	ldx	$9a                     ; 0x9a <_ZN12_GLOBAL__N_19free_sizeE+0x1>
     494: 86 15        	stx	$15                     ; 0x15 <__rc5>
     496: 38           	sec
     497: e5 14        	sbc	$14                     ; 0x14 <__rc4>
     499: aa           	tax
     49a: a5 15        	lda	$15                     ; 0x15 <__rc5>
     49c: f1 12        	sbc	($12),y                 ; 0x12 <__rc2>
     49e: 85 14        	sta	$14                     ; 0x14 <__rc4>
     4a0: 18           	clc
     4a1: 8a           	txa
     4a2: 69 02        	adc	#$2
     4a4: 85 15        	sta	$15                     ; 0x15 <__rc5>
     4a6: a5 14        	lda	$14                     ; 0x14 <__rc4>
     4a8: 69 00        	adc	#$0
     4aa: a6 15        	ldx	$15                     ; 0x15 <__rc5>
     4ac: 86 99        	stx	$99                     ; 0x99 <_ZN12_GLOBAL__N_19free_sizeE>
     4ae: 85 9a        	sta	$9a                     ; 0x9a <_ZN12_GLOBAL__N_19free_sizeE+0x1>
     4b0: a5 12        	lda	$12                     ; 0x12 <__rc2>
     4b2: 18           	clc
     4b3: 69 02        	adc	#$2
     4b5: 85 14        	sta	$14                     ; 0x14 <__rc4>
     4b7: a5 13        	lda	$13                     ; 0x13 <__rc3>
     4b9: 69 00        	adc	#$0
     4bb: c8           	iny
     4bc: 85 15        	sta	$15                     ; 0x15 <__rc5>
     4be: b1 12        	lda	($12),y                 ; 0x12 <__rc2>
     4c0: aa           	tax
     4c1: 88           	dey
     4c2: b1 14        	lda	($14),y                 ; 0x14 <__rc4>
     4c4: 85 19        	sta	$19                     ; 0x19 <__rc9>
     4c6: c5 13        	cmp	$13                     ; 0x13 <__rc3>
     4c8: d0 0f        	bne	$4d9 <_ZN12_GLOBAL__N_19FreeChunk6removeEv+0x51>
     4ca: e4 12        	cpx	$12                     ; 0x12 <__rc2>
     4cc: d0 0b        	bne	$4d9 <_ZN12_GLOBAL__N_19FreeChunk6removeEv+0x51>
     4ce: a2 00        	ldx	#$0
     4d0: 86 14        	stx	$14                     ; 0x14 <__rc4>
     4d2: a2 00        	ldx	#$0
     4d4: 86 15        	stx	$15                     ; 0x15 <__rc5>
     4d6: 4c 56 05     	jmp	$556 <_ZN12_GLOBAL__N_19FreeChunk6removeEv+0xce>
     4d9: 86 18        	stx	$18                     ; 0x18 <__rc8>
     4db: a6 12        	ldx	$12                     ; 0x12 <__rc2>
     4dd: a5 12        	lda	$12                     ; 0x12 <__rc2>
     4df: 86 1b        	stx	$1b                     ; 0x1b <__rc11>
     4e1: 18           	clc
     4e2: 69 04        	adc	#$4
     4e4: 85 14        	sta	$14                     ; 0x14 <__rc4>
     4e6: a5 13        	lda	$13                     ; 0x13 <__rc3>
     4e8: 69 00        	adc	#$0
     4ea: a0 04        	ldy	#$4
     4ec: 85 15        	sta	$15                     ; 0x15 <__rc5>
     4ee: b1 12        	lda	($12),y                 ; 0x12 <__rc2>
     4f0: 85 1c        	sta	$1c                     ; 0x1c <__rc12>
     4f2: 18           	clc
     4f3: 69 02        	adc	#$2
     4f5: 85 16        	sta	$16                     ; 0x16 <__rc6>
     4f7: a0 01        	ldy	#$1
     4f9: b1 14        	lda	($14),y                 ; 0x14 <__rc4>
     4fb: aa           	tax
     4fc: 69 00        	adc	#$0
     4fe: a4 16        	ldy	$16                     ; 0x16 <__rc6>
     500: 84 14        	sty	$14                     ; 0x14 <__rc4>
     502: 85 15        	sta	$15                     ; 0x15 <__rc5>
     504: a4 1c        	ldy	$1c                     ; 0x1c <__rc12>
     506: 84 16        	sty	$16                     ; 0x16 <__rc6>
     508: 86 17        	stx	$17                     ; 0x17 <__rc7>
     50a: a0 02        	ldy	#$2
     50c: a5 18        	lda	$18                     ; 0x18 <__rc8>
     50e: 91 16        	sta	($16),y                 ; 0x16 <__rc6>
     510: a5 19        	lda	$19                     ; 0x19 <__rc9>
     512: 88           	dey
     513: 91 14        	sta	($14),y                 ; 0x14 <__rc4>
     515: 18           	clc
     516: a5 1b        	lda	$1b                     ; 0x1b <__rc11>
     518: 69 02        	adc	#$2
     51a: 85 14        	sta	$14                     ; 0x14 <__rc4>
     51c: a5 13        	lda	$13                     ; 0x13 <__rc3>
     51e: 69 00        	adc	#$0
     520: 85 15        	sta	$15                     ; 0x15 <__rc5>
     522: c8           	iny
     523: b1 12        	lda	($12),y                 ; 0x12 <__rc2>
     525: 85 16        	sta	$16                     ; 0x16 <__rc6>
     527: 88           	dey
     528: b1 14        	lda	($14),y                 ; 0x14 <__rc4>
     52a: a4 16        	ldy	$16                     ; 0x16 <__rc6>
     52c: 84 14        	sty	$14                     ; 0x14 <__rc4>
     52e: 85 15        	sta	$15                     ; 0x15 <__rc5>
     530: 85 17        	sta	$17                     ; 0x17 <__rc7>
     532: a0 04        	ldy	#$4
     534: a5 1c        	lda	$1c                     ; 0x1c <__rc12>
     536: 91 14        	sta	($14),y                 ; 0x14 <__rc4>
     538: 18           	clc
     539: a5 16        	lda	$16                     ; 0x16 <__rc6>
     53b: 69 04        	adc	#$4
     53d: 85 16        	sta	$16                     ; 0x16 <__rc6>
     53f: a5 17        	lda	$17                     ; 0x17 <__rc7>
     541: 69 00        	adc	#$0
     543: 85 17        	sta	$17                     ; 0x17 <__rc7>
     545: 8a           	txa
     546: a0 01        	ldy	#$1
     548: 91 16        	sta	($16),y                 ; 0x16 <__rc6>
     54a: a6 9c        	ldx	$9c                     ; 0x9c <_ZN12_GLOBAL__N_19free_listE+0x1>
     54c: e4 13        	cpx	$13                     ; 0x13 <__rc3>
     54e: d0 0e        	bne	$55e <_ZN12_GLOBAL__N_19FreeChunk6removeEv+0xd6>
     550: a6 9b        	ldx	$9b                     ; 0x9b <_ZN12_GLOBAL__N_19free_listE>
     552: e4 12        	cpx	$12                     ; 0x12 <__rc2>
     554: d0 08        	bne	$55e <_ZN12_GLOBAL__N_19FreeChunk6removeEv+0xd6>
     556: a6 14        	ldx	$14                     ; 0x14 <__rc4>
     558: a4 15        	ldy	$15                     ; 0x15 <__rc5>
     55a: 86 9b        	stx	$9b                     ; 0x9b <_ZN12_GLOBAL__N_19free_listE>
     55c: 84 9c        	sty	$9c                     ; 0x9c <_ZN12_GLOBAL__N_19free_listE+0x1>
     55e: 60           	rts
     55f: 00           	brk

00000560 <_ZN6__impl6VarInt4makeEPvc>:
     560: 92 12        	sta	($12)                   ; 0x12 <__rc2>
     562: 60           	rts
     563: 00           	brk

00000564 <_ZNK6__impl6VarInt8high_bitEv>:
     564: b2 12        	lda	($12)                   ; 0x12 <__rc2>
     566: a8           	tay
     567: b1 12        	lda	($12),y                 ; 0x12 <__rc2>
     569: 10 03        	bpl	$56e <_ZNK6__impl6VarInt8high_bitEv+0xa>
     56b: a9 01        	lda	#$1
     56d: 60           	rts
     56e: a9 00        	lda	#$0
     570: 60           	rts
     571: 00           	brk

00000572 <_ZNK6__impl6VarInt8negativeEv>:
     572: b2 12        	lda	($12)                   ; 0x12 <__rc2>
     574: a8           	tay
     575: b1 12        	lda	($12),y                 ; 0x12 <__rc2>
     577: 10 03        	bpl	$57c <_ZNK6__impl6VarInt8negativeEv+0xa>
     579: a9 01        	lda	#$1
     57b: 60           	rts
     57c: a9 00        	lda	#$0
     57e: 60           	rts
     57f: 00           	brk

00000580 <_ZN6__impl6VarInt6negateEv>:
     580: b2 12        	lda	($12)                   ; 0x12 <__rc2>
     582: f0 42        	beq	$5c6 <_ZN6__impl6VarInt6negateEv+0x46>
     584: aa           	tax
     585: a4 12        	ldy	$12                     ; 0x12 <__rc2>
     587: 84 16        	sty	$16                     ; 0x16 <__rc6>
     589: a4 13        	ldy	$13                     ; 0x13 <__rc3>
     58b: 84 17        	sty	$17                     ; 0x17 <__rc7>
     58d: 64 12        	stz	$12                     ; 0x12 <__rc2>
     58f: 64 13        	stz	$13                     ; 0x13 <__rc3>
     591: a0 01        	ldy	#$1
     593: a5 16        	lda	$16                     ; 0x16 <__rc6>
     595: 18           	clc
     596: 65 12        	adc	$12                     ; 0x12 <__rc2>
     598: 85 14        	sta	$14                     ; 0x14 <__rc4>
     59a: a5 17        	lda	$17                     ; 0x17 <__rc7>
     59c: 69 00        	adc	#$0
     59e: 85 15        	sta	$15                     ; 0x15 <__rc5>
     5a0: a9 00        	lda	#$0
     5a2: 38           	sec
     5a3: f1 14        	sbc	($14),y                 ; 0x14 <__rc4>
     5a5: 64 19        	stz	$19                     ; 0x19 <__rc9>
     5a7: b0 02        	bcs	$5ab <_ZN6__impl6VarInt6negateEv+0x2b>
     5a9: 84 19        	sty	$19                     ; 0x19 <__rc9>
     5ab: 38           	sec
     5ac: e5 13        	sbc	$13                     ; 0x13 <__rc3>
     5ae: 85 18        	sta	$18                     ; 0x18 <__rc8>
     5b0: 64 13        	stz	$13                     ; 0x13 <__rc3>
     5b2: b0 02        	bcs	$5b6 <_ZN6__impl6VarInt6negateEv+0x36>
     5b4: 84 13        	sty	$13                     ; 0x13 <__rc3>
     5b6: a5 19        	lda	$19                     ; 0x19 <__rc9>
     5b8: 05 13        	ora	$13                     ; 0x13 <__rc3>
     5ba: 85 13        	sta	$13                     ; 0x13 <__rc3>
     5bc: a5 18        	lda	$18                     ; 0x18 <__rc8>
     5be: 91 14        	sta	($14),y                 ; 0x14 <__rc4>
     5c0: e6 12        	inc	$12                     ; 0x12 <__rc2>
     5c2: e4 12        	cpx	$12                     ; 0x12 <__rc2>
     5c4: d0 cd        	bne	$593 <_ZN6__impl6VarInt6negateEv+0x13>
     5c6: 60           	rts
     5c7: 00           	brk

000005c8 <_ZN6__impl6VarInt3shlEv>:
     5c8: b2 12        	lda	($12)                   ; 0x12 <__rc2>
     5ca: f0 36        	beq	$602 <_ZN6__impl6VarInt3shlEv+0x3a>
     5cc: 85 17        	sta	$17                     ; 0x17 <__rc7>
     5ce: 64 14        	stz	$14                     ; 0x14 <__rc4>
     5d0: a6 12        	ldx	$12                     ; 0x12 <__rc2>
     5d2: 86 15        	stx	$15                     ; 0x15 <__rc5>
     5d4: a6 13        	ldx	$13                     ; 0x13 <__rc3>
     5d6: 86 18        	stx	$18                     ; 0x18 <__rc8>
     5d8: a0 01        	ldy	#$1
     5da: 64 12        	stz	$12                     ; 0x12 <__rc2>
     5dc: a5 15        	lda	$15                     ; 0x15 <__rc5>
     5de: 18           	clc
     5df: 65 12        	adc	$12                     ; 0x12 <__rc2>
     5e1: 85 16        	sta	$16                     ; 0x16 <__rc6>
     5e3: a6 17        	ldx	$17                     ; 0x17 <__rc7>
     5e5: a5 18        	lda	$18                     ; 0x18 <__rc8>
     5e7: 69 00        	adc	#$0
     5e9: 85 17        	sta	$17                     ; 0x17 <__rc7>
     5eb: b1 16        	lda	($16),y                 ; 0x16 <__rc6>
     5ed: 0a           	asl
     5ee: 64 13        	stz	$13                     ; 0x13 <__rc3>
     5f0: 26 13        	rol	$13                     ; 0x13 <__rc3>
     5f2: 05 14        	ora	$14                     ; 0x14 <__rc4>
     5f4: 91 16        	sta	($16),y                 ; 0x16 <__rc6>
     5f6: e6 12        	inc	$12                     ; 0x12 <__rc2>
     5f8: a5 13        	lda	$13                     ; 0x13 <__rc3>
     5fa: 85 14        	sta	$14                     ; 0x14 <__rc4>
     5fc: 86 17        	stx	$17                     ; 0x17 <__rc7>
     5fe: e4 12        	cpx	$12                     ; 0x12 <__rc2>
     600: d0 da        	bne	$5dc <_ZN6__impl6VarInt3shlEv+0x14>
     602: 60           	rts

00000603 <__call_indir>:
     603: 6c 22 00     	jmp	($22)                   ; 0x22 <__rc18>

00000606 <__zero_bss>:
     606: a2 9e        	ldx	#$9e
     608: a0 13        	ldy	#$13
     60a: a9 08        	lda	#$8
     60c: 85 12        	sta	$12                     ; 0x12 <__rc2>
     60e: a9 4f        	lda	#$4f
     610: 85 13        	sta	$13                     ; 0x13 <__rc3>
     612: a9 00        	lda	#$0
     614: 84 14        	sty	$14                     ; 0x14 <__rc4>
     616: 4c 07 4a     	jmp	$4a07 <__memset>

00000619 <__zero_zp_bss>:
     619: a2 33        	ldx	#$33
     61b: a0 00        	ldy	#$0
     61d: a9 6a        	lda	#$6a
     61f: 85 12        	sta	$12                     ; 0x12 <__rc2>
     621: a9 00        	lda	#$0
     623: 85 13        	sta	$13                     ; 0x13 <__rc3>
     625: a9 00        	lda	#$0
     627: 84 14        	sty	$14                     ; 0x14 <__rc4>
     629: 4c 07 4a     	jmp	$4a07 <__memset>

0000062c <__copy_zp_data>:
     62c: a9 3a        	lda	#$3a
     62e: a2 00        	ldx	#$0
     630: a0 30        	ldy	#$30
     632: 84 12        	sty	$12                     ; 0x12 <__rc2>
     634: a0 00        	ldy	#$0
     636: 84 13        	sty	$13                     ; 0x13 <__rc3>
     638: a0 00        	ldy	#$0
     63a: 84 14        	sty	$14                     ; 0x14 <__rc4>
     63c: a0 03        	ldy	#$3
     63e: 84 15        	sty	$15                     ; 0x15 <__rc5>
     640: 4c db 49     	jmp	$49db <memcpy>

00000643 <isExtensionAllowed>:
     643: a6 14        	ldx	$14                     ; 0x14 <__rc4>
     645: 86 b3        	stx	$b3                     ; 0xb3 <__zp_data_size+0x79>
     647: a6 15        	ldx	$15                     ; 0x15 <__rc5>
     649: 86 b4        	stx	$b4                     ; 0xb4 <__zp_data_size+0x7a>
     64b: a5 12        	lda	$12                     ; 0x12 <__rc2>
     64d: 18           	clc
     64e: 69 ea        	adc	#$ea
     650: 85 b1        	sta	$b1                     ; 0xb1 <__zp_data_size+0x77>
     652: a5 13        	lda	$13                     ; 0x13 <__rc3>
     654: 69 11        	adc	#$11
     656: 85 b2        	sta	$b2                     ; 0xb2 <__zp_data_size+0x78>
     658: a6 b1        	ldx	$b1                     ; 0xb1 <__zp_data_size+0x77>
     65a: 86 b7        	stx	$b7                     ; 0xb7 <__zp_data_size+0x7d>
     65c: 85 b8        	sta	$b8                     ; 0xb8 <__zp_data_size+0x7e>
     65e: a0 00        	ldy	#$0
     660: a2 00        	ldx	#$0
     662: 64 b5        	stz	$b5                     ; 0xb5 <__zp_data_size+0x7b>
     664: 86 ae        	stx	$ae                     ; 0xae <__zp_data_size+0x74>
     666: 84 ad        	sty	$ad                     ; 0xad <__zp_data_size+0x73>
     668: b1 b1        	lda	($b1),y                 ; 0xb1 <__zp_data_size+0x77>
     66a: d0 03        	bne	$66f <isExtensionAllowed+0x2c>
     66c: 4c 15 07     	jmp	$715 <isExtensionAllowed+0xd2>
     66f: a6 b3        	ldx	$b3                     ; 0xb3 <__zp_data_size+0x79>
     671: 86 12        	stx	$12                     ; 0x12 <__rc2>
     673: a6 b4        	ldx	$b4                     ; 0xb4 <__zp_data_size+0x7a>
     675: 86 13        	stx	$13                     ; 0x13 <__rc3>
     677: 20 e6 4a     	jsr	$4ae6 <strlen>
     67a: e0 00        	cpx	#$0
     67c: d0 07        	bne	$685 <isExtensionAllowed+0x42>
     67e: c9 04        	cmp	#$4
     680: b0 0a        	bcs	$68c <isExtensionAllowed+0x49>
     682: 4c 15 07     	jmp	$715 <isExtensionAllowed+0xd2>
     685: e0 00        	cpx	#$0
     687: b0 03        	bcs	$68c <isExtensionAllowed+0x49>
     689: 4c 15 07     	jmp	$715 <isExtensionAllowed+0xd2>
     68c: a6 b3        	ldx	$b3                     ; 0xb3 <__zp_data_size+0x79>
     68e: 86 12        	stx	$12                     ; 0x12 <__rc2>
     690: a6 b4        	ldx	$b4                     ; 0xb4 <__zp_data_size+0x7a>
     692: 86 13        	stx	$13                     ; 0x13 <__rc3>
     694: a2 00        	ldx	#$0
     696: a9 2e        	lda	#$2e
     698: 20 47 4b     	jsr	$4b47 <strrchr>
     69b: a6 12        	ldx	$12                     ; 0x12 <__rc2>
     69d: 86 af        	stx	$af                     ; 0xaf <__zp_data_size+0x75>
     69f: a6 13        	ldx	$13                     ; 0x13 <__rc3>
     6a1: 86 b0        	stx	$b0                     ; 0xb0 <__zp_data_size+0x76>
     6a3: a6 b0        	ldx	$b0                     ; 0xb0 <__zp_data_size+0x76>
     6a5: a0 00        	ldy	#$0
     6a7: 84 12        	sty	$12                     ; 0x12 <__rc2>
     6a9: a0 00        	ldy	#$0
     6ab: 84 13        	sty	$13                     ; 0x13 <__rc3>
     6ad: e4 13        	cpx	$13                     ; 0x13 <__rc3>
     6af: d0 09        	bne	$6ba <isExtensionAllowed+0x77>
     6b1: a6 af        	ldx	$af                     ; 0xaf <__zp_data_size+0x75>
     6b3: e4 12        	cpx	$12                     ; 0x12 <__rc2>
     6b5: d0 03        	bne	$6ba <isExtensionAllowed+0x77>
     6b7: 4c 15 07     	jmp	$715 <isExtensionAllowed+0xd2>
     6ba: e6 af        	inc	$af                     ; 0xaf <__zp_data_size+0x75>
     6bc: d0 02        	bne	$6c0 <isExtensionAllowed+0x7d>
     6be: e6 b0        	inc	$b0                     ; 0xb0 <__zp_data_size+0x76>
     6c0: a6 af        	ldx	$af                     ; 0xaf <__zp_data_size+0x75>
     6c2: 86 12        	stx	$12                     ; 0x12 <__rc2>
     6c4: a6 b0        	ldx	$b0                     ; 0xb0 <__zp_data_size+0x76>
     6c6: 86 13        	stx	$13                     ; 0x13 <__rc3>
     6c8: 20 e6 4a     	jsr	$4ae6 <strlen>
     6cb: e0 00        	cpx	#$0
     6cd: d0 46        	bne	$715 <isExtensionAllowed+0xd2>
     6cf: c9 03        	cmp	#$3
     6d1: d0 42        	bne	$715 <isExtensionAllowed+0xd2>
     6d3: a0 00        	ldy	#$0
     6d5: c0 03        	cpy	#$3
     6d7: d0 03        	bne	$6dc <isExtensionAllowed+0x99>
     6d9: 4c 4a 07     	jmp	$74a <isExtensionAllowed+0x107>
     6dc: a6 b3        	ldx	$b3                     ; 0xb3 <__zp_data_size+0x79>
     6de: 86 b9        	stx	$b9                     ; 0xb9 <__zp_data_size+0x7f>
     6e0: a6 b4        	ldx	$b4                     ; 0xb4 <__zp_data_size+0x7a>
     6e2: 86 ba        	stx	$ba                     ; 0xba <__zp_data_size+0x80>
     6e4: b1 af        	lda	($af),y                 ; 0xaf <__zp_data_size+0x75>
     6e6: a2 00        	ldx	#$0
     6e8: 84 b3        	sty	$b3                     ; 0xb3 <__zp_data_size+0x79>
     6ea: 20 64 33     	jsr	$3364 <tolower>
     6ed: 85 b6        	sta	$b6                     ; 0xb6 <__zp_data_size+0x7c>
     6ef: 86 b4        	stx	$b4                     ; 0xb4 <__zp_data_size+0x7a>
     6f1: a4 b3        	ldy	$b3                     ; 0xb3 <__zp_data_size+0x79>
     6f3: b1 b7        	lda	($b7),y                 ; 0xb7 <__zp_data_size+0x7d>
     6f5: a2 00        	ldx	#$0
     6f7: 20 64 33     	jsr	$3364 <tolower>
     6fa: 86 13        	stx	$13                     ; 0x13 <__rc3>
     6fc: a6 b4        	ldx	$b4                     ; 0xb4 <__zp_data_size+0x7a>
     6fe: e4 13        	cpx	$13                     ; 0x13 <__rc3>
     700: d0 3e        	bne	$740 <isExtensionAllowed+0xfd>
     702: 85 12        	sta	$12                     ; 0x12 <__rc2>
     704: a4 b3        	ldy	$b3                     ; 0xb3 <__zp_data_size+0x79>
     706: c8           	iny
     707: a6 b9        	ldx	$b9                     ; 0xb9 <__zp_data_size+0x7f>
     709: 86 b3        	stx	$b3                     ; 0xb3 <__zp_data_size+0x79>
     70b: a6 ba        	ldx	$ba                     ; 0xba <__zp_data_size+0x80>
     70d: 86 b4        	stx	$b4                     ; 0xb4 <__zp_data_size+0x7a>
     70f: a6 b6        	ldx	$b6                     ; 0xb6 <__zp_data_size+0x7c>
     711: e4 12        	cpx	$12                     ; 0x12 <__rc2>
     713: f0 c0        	beq	$6d5 <isExtensionAllowed+0x92>
     715: a6 ae        	ldx	$ae                     ; 0xae <__zp_data_size+0x74>
     717: e8           	inx
     718: d0 02        	bne	$71c <isExtensionAllowed+0xd9>
     71a: e6 b5        	inc	$b5                     ; 0xb5 <__zp_data_size+0x7b>
     71c: 18           	clc
     71d: a5 ad        	lda	$ad                     ; 0xad <__zp_data_size+0x73>
     71f: 69 03        	adc	#$3
     721: a8           	tay
     722: a5 b7        	lda	$b7                     ; 0xb7 <__zp_data_size+0x7d>
     724: 18           	clc
     725: 69 03        	adc	#$3
     727: 85 b7        	sta	$b7                     ; 0xb7 <__zp_data_size+0x7d>
     729: a5 b8        	lda	$b8                     ; 0xb8 <__zp_data_size+0x7e>
     72b: 69 00        	adc	#$0
     72d: 85 b8        	sta	$b8                     ; 0xb8 <__zp_data_size+0x7e>
     72f: a5 b5        	lda	$b5                     ; 0xb5 <__zp_data_size+0x7b>
     731: f0 03        	beq	$736 <isExtensionAllowed+0xf3>
     733: 4c 64 06     	jmp	$664 <isExtensionAllowed+0x21>
     736: e0 04        	cpx	#$4
     738: f0 03        	beq	$73d <isExtensionAllowed+0xfa>
     73a: 4c 64 06     	jmp	$664 <isExtensionAllowed+0x21>
     73d: a9 00        	lda	#$0
     73f: 60           	rts
     740: a6 b9        	ldx	$b9                     ; 0xb9 <__zp_data_size+0x7f>
     742: 86 b3        	stx	$b3                     ; 0xb3 <__zp_data_size+0x79>
     744: a6 ba        	ldx	$ba                     ; 0xba <__zp_data_size+0x80>
     746: 86 b4        	stx	$b4                     ; 0xb4 <__zp_data_size+0x7a>
     748: 80 cb        	bra	$715 <isExtensionAllowed+0xd2>
     74a: a9 01        	lda	#$1
     74c: 60           	rts

0000074d <sortFileList>:
     74d: a6 12        	ldx	$12                     ; 0x12 <__rc2>
     74f: 86 16        	stx	$16                     ; 0x16 <__rc6>
     751: a6 13        	ldx	$13                     ; 0x13 <__rc3>
     753: 86 17        	stx	$17                     ; 0x17 <__rc7>
     755: a0 4e        	ldy	#$4e
     757: a5 12        	lda	$12                     ; 0x12 <__rc2>
     759: 18           	clc
     75a: 69 4e        	adc	#$4e
     75c: 85 14        	sta	$14                     ; 0x14 <__rc4>
     75e: a5 13        	lda	$13                     ; 0x13 <__rc3>
     760: 69 00        	adc	#$0
     762: a6 14        	ldx	$14                     ; 0x14 <__rc4>
     764: 86 dd        	stx	$dd                     ; 0xdd <__zp_data_size+0xa3>
     766: 85 de        	sta	$de                     ; 0xde <__zp_data_size+0xa4>
     768: 85 15        	sta	$15                     ; 0x15 <__rc5>
     76a: a5 30        	lda	$30                     ; 0x30 <__zp_data_start>
     76c: 91 12        	sta	($12),y                 ; 0x12 <__rc2>
     76e: a5 32        	lda	$32                     ; 0x32 <__zp_data_start+0x2>
     770: a0 02        	ldy	#$2
     772: 91 14        	sta	($14),y                 ; 0x14 <__rc4>
     774: a5 31        	lda	$31                     ; 0x31 <__zp_data_start+0x1>
     776: 88           	dey
     777: 91 14        	sta	($14),y                 ; 0x14 <__rc4>
     779: a5 12        	lda	$12                     ; 0x12 <__rc2>
     77b: 18           	clc
     77c: 69 7e        	adc	#$7e
     77e: 85 12        	sta	$12                     ; 0x12 <__rc2>
     780: a5 13        	lda	$13                     ; 0x13 <__rc3>
     782: 69 11        	adc	#$11
     784: a6 12        	ldx	$12                     ; 0x12 <__rc2>
     786: 86 d9        	stx	$d9                     ; 0xd9 <__zp_data_size+0x9f>
     788: 85 da        	sta	$da                     ; 0xda <__zp_data_size+0xa0>
     78a: 85 13        	sta	$13                     ; 0x13 <__rc3>
     78c: 98           	tya
     78d: 92 12        	sta	($12)                   ; 0x12 <__rc2>
     78f: 18           	clc
     790: a5 16        	lda	$16                     ; 0x16 <__rc6>
     792: 69 e2        	adc	#$e2
     794: 85 a5        	sta	$a5                     ; 0xa5 <__zp_data_size+0x6b>
     796: a5 17        	lda	$17                     ; 0x17 <__rc7>
     798: 69 11        	adc	#$11
     79a: 85 a6        	sta	$a6                     ; 0xa6 <__zp_data_size+0x6c>
     79c: b2 a5        	lda	($a5)                   ; 0xa5 <__zp_data_size+0x6b>
     79e: 85 12        	sta	$12                     ; 0x12 <__rc2>
     7a0: b1 a5        	lda	($a5),y                 ; 0xa5 <__zp_data_size+0x6b>
     7a2: a6 12        	ldx	$12                     ; 0x12 <__rc2>
     7a4: e0 03        	cpx	#$3
     7a6: e9 00        	sbc	#$0
     7a8: 50 02        	bvc	$7ac <sortFileList+0x5f>
     7aa: 49 80        	eor	#$80
     7ac: aa           	tax
     7ad: 10 03        	bpl	$7b2 <sortFileList+0x65>
     7af: 4c 72 0a     	jmp	$a72 <sortFileList+0x325>
     7b2: 84 14        	sty	$14                     ; 0x14 <__rc4>
     7b4: 64 15        	stz	$15                     ; 0x15 <__rc5>
     7b6: 4c 43 0a     	jmp	$a43 <sortFileList+0x2f6>
     7b9: a5 a6        	lda	$a6                     ; 0xa6 <__zp_data_size+0x6c>
     7bb: a4 a3        	ldy	$a3                     ; 0xa3 <__zp_data_size+0x69>
     7bd: 84 a5        	sty	$a5                     ; 0xa5 <__zp_data_size+0x6b>
     7bf: a4 a4        	ldy	$a4                     ; 0xa4 <__zp_data_size+0x6a>
     7c1: 84 a6        	sty	$a6                     ; 0xa6 <__zp_data_size+0x6c>
     7c3: 85 14        	sta	$14                     ; 0x14 <__rc4>
     7c5: 38           	sec
     7c6: e5 12        	sbc	$12                     ; 0x12 <__rc2>
     7c8: 85 e0        	sta	$e0                     ; 0xe0 <__zp_data_size+0xa6>
     7ca: 8a           	txa
     7cb: e5 13        	sbc	$13                     ; 0x13 <__rc3>
     7cd: e4 13        	cpx	$13                     ; 0x13 <__rc3>
     7cf: d0 43        	bne	$814 <sortFileList+0xc7>
     7d1: a6 14        	ldx	$14                     ; 0x14 <__rc4>
     7d3: a4 d5        	ldy	$d5                     ; 0xd5 <__zp_data_size+0x9b>
     7d5: 84 14        	sty	$14                     ; 0x14 <__rc4>
     7d7: a4 d6        	ldy	$d6                     ; 0xd6 <__zp_data_size+0x9c>
     7d9: 84 15        	sty	$15                     ; 0x15 <__rc5>
     7db: e4 12        	cpx	$12                     ; 0x12 <__rc2>
     7dd: d0 35        	bne	$814 <sortFileList+0xc7>
     7df: 4c 86 09     	jmp	$986 <sortFileList+0x239>
     7e2: e6 a6        	inc	$a6                     ; 0xa6 <__zp_data_size+0x6c>
     7e4: 4c ed 09     	jmp	$9ed <sortFileList+0x2a0>
     7e7: e6 17        	inc	$17                     ; 0x17 <__rc7>
     7e9: 4c fc 09     	jmp	$9fc <sortFileList+0x2af>
     7ec: a2 00        	ldx	#$0
     7ee: a4 14        	ldy	$14                     ; 0x14 <__rc4>
     7f0: 84 a3        	sty	$a3                     ; 0xa3 <__zp_data_size+0x69>
     7f2: a4 15        	ldy	$15                     ; 0x15 <__rc5>
     7f4: 84 a4        	sty	$a4                     ; 0xa4 <__zp_data_size+0x6a>
     7f6: 20 64 33     	jsr	$3364 <tolower>
     7f9: 85 a1        	sta	$a1                     ; 0xa1 <__zp_data_size+0x67>
     7fb: 86 9d        	stx	$9d                     ; 0x9d <__zp_data_size+0x63>
     7fd: b2 a3        	lda	($a3)                   ; 0xa3 <__zp_data_size+0x69>
     7ff: a2 00        	ldx	#$0
     801: 20 64 33     	jsr	$3364 <tolower>
     804: 85 12        	sta	$12                     ; 0x12 <__rc2>
     806: 86 13        	stx	$13                     ; 0x13 <__rc3>
     808: 38           	sec
     809: a5 a1        	lda	$a1                     ; 0xa1 <__zp_data_size+0x67>
     80b: e5 12        	sbc	$12                     ; 0x12 <__rc2>
     80d: aa           	tax
     80e: a5 9d        	lda	$9d                     ; 0x9d <__zp_data_size+0x63>
     810: 86 e0        	stx	$e0                     ; 0xe0 <__zp_data_size+0xa6>
     812: e5 13        	sbc	$13                     ; 0x13 <__rc3>
     814: a6 e0        	ldx	$e0                     ; 0xe0 <__zp_data_size+0xa6>
     816: e0 01        	cpx	#$1
     818: e9 00        	sbc	#$0
     81a: 50 02        	bvc	$81e <sortFileList+0xd1>
     81c: 49 80        	eor	#$80
     81e: a0 01        	ldy	#$1
     820: a6 db        	ldx	$db                     ; 0xdb <__zp_data_size+0xa1>
     822: 86 14        	stx	$14                     ; 0x14 <__rc4>
     824: a6 dc        	ldx	$dc                     ; 0xdc <__zp_data_size+0xa2>
     826: 86 15        	stx	$15                     ; 0x15 <__rc5>
     828: a6 d7        	ldx	$d7                     ; 0xd7 <__zp_data_size+0x9d>
     82a: 86 a5        	stx	$a5                     ; 0xa5 <__zp_data_size+0x6b>
     82c: a6 d8        	ldx	$d8                     ; 0xd8 <__zp_data_size+0x9e>
     82e: 86 a6        	stx	$a6                     ; 0xa6 <__zp_data_size+0x6c>
     830: a6 df        	ldx	$df                     ; 0xdf <__zp_data_size+0xa5>
     832: c9 00        	cmp	#$0
     834: 10 03        	bpl	$839 <sortFileList+0xec>
     836: 4c d0 08     	jmp	$8d0 <sortFileList+0x183>
     839: a0 2c        	ldy	#$2c
     83b: 84 12        	sty	$12                     ; 0x12 <__rc2>
     83d: 64 13        	stz	$13                     ; 0x13 <__rc3>
     83f: 86 9d        	stx	$9d                     ; 0x9d <__zp_data_size+0x63>
     841: a6 a0        	ldx	$a0                     ; 0xa0 <__zp_data_size+0x66>
     843: a5 9f        	lda	$9f                     ; 0x9f <__zp_data_size+0x65>
     845: 20 ef 4b     	jsr	$4bef <__mulhi3>
     848: 85 12        	sta	$12                     ; 0x12 <__rc2>
     84a: 86 13        	stx	$13                     ; 0x13 <__rc3>
     84c: a6 dd        	ldx	$dd                     ; 0xdd <__zp_data_size+0xa3>
     84e: 86 a3        	stx	$a3                     ; 0xa3 <__zp_data_size+0x69>
     850: 8a           	txa
     851: 18           	clc
     852: 65 12        	adc	$12                     ; 0x12 <__rc2>
     854: 85 a1        	sta	$a1                     ; 0xa1 <__zp_data_size+0x67>
     856: a6 de        	ldx	$de                     ; 0xde <__zp_data_size+0xa4>
     858: 86 a4        	stx	$a4                     ; 0xa4 <__zp_data_size+0x6a>
     85a: 8a           	txa
     85b: 65 13        	adc	$13                     ; 0x13 <__rc3>
     85d: 85 a2        	sta	$a2                     ; 0xa2 <__zp_data_size+0x68>
     85f: a2 a9        	ldx	#$a9
     861: 86 9f        	stx	$9f                     ; 0x9f <__zp_data_size+0x65>
     863: a2 00        	ldx	#$0
     865: 86 a0        	stx	$a0                     ; 0xa0 <__zp_data_size+0x66>
     867: a4 9f        	ldy	$9f                     ; 0x9f <__zp_data_size+0x65>
     869: 84 12        	sty	$12                     ; 0x12 <__rc2>
     86b: 86 13        	stx	$13                     ; 0x13 <__rc3>
     86d: a6 a1        	ldx	$a1                     ; 0xa1 <__zp_data_size+0x67>
     86f: 86 14        	stx	$14                     ; 0x14 <__rc4>
     871: 85 15        	sta	$15                     ; 0x15 <__rc5>
     873: 20 27 4a     	jsr	$4a27 <strcpy>
     876: a2 2c        	ldx	#$2c
     878: 86 12        	stx	$12                     ; 0x12 <__rc2>
     87a: 64 13        	stz	$13                     ; 0x13 <__rc3>
     87c: a6 9e        	ldx	$9e                     ; 0x9e <__zp_data_size+0x64>
     87e: a5 9d        	lda	$9d                     ; 0x9d <__zp_data_size+0x63>
     880: 20 ef 4b     	jsr	$4bef <__mulhi3>
     883: 85 12        	sta	$12                     ; 0x12 <__rc2>
     885: 86 13        	stx	$13                     ; 0x13 <__rc3>
     887: a5 a3        	lda	$a3                     ; 0xa3 <__zp_data_size+0x69>
     889: 18           	clc
     88a: 65 12        	adc	$12                     ; 0x12 <__rc2>
     88c: 85 a3        	sta	$a3                     ; 0xa3 <__zp_data_size+0x69>
     88e: a5 a4        	lda	$a4                     ; 0xa4 <__zp_data_size+0x6a>
     890: 65 13        	adc	$13                     ; 0x13 <__rc3>
     892: 85 a4        	sta	$a4                     ; 0xa4 <__zp_data_size+0x6a>
     894: a6 a1        	ldx	$a1                     ; 0xa1 <__zp_data_size+0x67>
     896: 86 12        	stx	$12                     ; 0x12 <__rc2>
     898: a6 a2        	ldx	$a2                     ; 0xa2 <__zp_data_size+0x68>
     89a: 86 13        	stx	$13                     ; 0x13 <__rc3>
     89c: a6 a3        	ldx	$a3                     ; 0xa3 <__zp_data_size+0x69>
     89e: 86 14        	stx	$14                     ; 0x14 <__rc4>
     8a0: 85 15        	sta	$15                     ; 0x15 <__rc5>
     8a2: 20 27 4a     	jsr	$4a27 <strcpy>
     8a5: a6 a3        	ldx	$a3                     ; 0xa3 <__zp_data_size+0x69>
     8a7: 86 12        	stx	$12                     ; 0x12 <__rc2>
     8a9: a6 a4        	ldx	$a4                     ; 0xa4 <__zp_data_size+0x6a>
     8ab: 86 13        	stx	$13                     ; 0x13 <__rc3>
     8ad: a6 9f        	ldx	$9f                     ; 0x9f <__zp_data_size+0x65>
     8af: 86 14        	stx	$14                     ; 0x14 <__rc4>
     8b1: a6 a0        	ldx	$a0                     ; 0xa0 <__zp_data_size+0x66>
     8b3: 86 15        	stx	$15                     ; 0x15 <__rc5>
     8b5: 20 27 4a     	jsr	$4a27 <strcpy>
     8b8: a6 dc        	ldx	$dc                     ; 0xdc <__zp_data_size+0xa2>
     8ba: 86 15        	stx	$15                     ; 0x15 <__rc5>
     8bc: a6 db        	ldx	$db                     ; 0xdb <__zp_data_size+0xa1>
     8be: 86 14        	stx	$14                     ; 0x14 <__rc4>
     8c0: a6 9d        	ldx	$9d                     ; 0x9d <__zp_data_size+0x63>
     8c2: a0 01        	ldy	#$1
     8c4: b2 a7        	lda	($a7)                   ; 0xa7 <__zp_data_size+0x6d>
     8c6: 85 12        	sta	$12                     ; 0x12 <__rc2>
     8c8: b1 a7        	lda	($a7),y                 ; 0xa7 <__zp_data_size+0x6d>
     8ca: 92 a7        	sta	($a7)                   ; 0xa7 <__zp_data_size+0x6d>
     8cc: a5 12        	lda	$12                     ; 0x12 <__rc2>
     8ce: 91 a7        	sta	($a7),y                 ; 0xa7 <__zp_data_size+0x6d>
     8d0: b2 a5        	lda	($a5)                   ; 0xa5 <__zp_data_size+0x6b>
     8d2: 85 12        	sta	$12                     ; 0x12 <__rc2>
     8d4: b1 a5        	lda	($a5),y                 ; 0xa5 <__zp_data_size+0x6b>
     8d6: 85 13        	sta	$13                     ; 0x13 <__rc3>
     8d8: 38           	sec
     8d9: a5 12        	lda	$12                     ; 0x12 <__rc2>
     8db: e5 14        	sbc	$14                     ; 0x14 <__rc4>
     8dd: 85 12        	sta	$12                     ; 0x12 <__rc2>
     8df: a5 13        	lda	$13                     ; 0x13 <__rc3>
     8e1: e5 15        	sbc	$15                     ; 0x15 <__rc5>
     8e3: 85 13        	sta	$13                     ; 0x13 <__rc3>
     8e5: e4 12        	cpx	$12                     ; 0x12 <__rc2>
     8e7: a5 9e        	lda	$9e                     ; 0x9e <__zp_data_size+0x64>
     8e9: e5 13        	sbc	$13                     ; 0x13 <__rc3>
     8eb: 50 02        	bvc	$8ef <sortFileList+0x1a2>
     8ed: 49 80        	eor	#$80
     8ef: 86 9f        	stx	$9f                     ; 0x9f <__zp_data_size+0x65>
     8f1: a6 9e        	ldx	$9e                     ; 0x9e <__zp_data_size+0x64>
     8f3: 86 a0        	stx	$a0                     ; 0xa0 <__zp_data_size+0x66>
     8f5: aa           	tax
     8f6: 30 03        	bmi	$8fb <sortFileList+0x1ae>
     8f8: 4c 12 0a     	jmp	$a12 <sortFileList+0x2c5>
     8fb: a6 d9        	ldx	$d9                     ; 0xd9 <__zp_data_size+0x9f>
     8fd: 8a           	txa
     8fe: 18           	clc
     8ff: 65 9f        	adc	$9f                     ; 0x9f <__zp_data_size+0x65>
     901: 85 a7        	sta	$a7                     ; 0xa7 <__zp_data_size+0x6d>
     903: a5 da        	lda	$da                     ; 0xda <__zp_data_size+0xa0>
     905: 65 a0        	adc	$a0                     ; 0xa0 <__zp_data_size+0x66>
     907: 85 a8        	sta	$a8                     ; 0xa8 <__zp_data_size+0x6e>
     909: b2 a7        	lda	($a7)                   ; 0xa7 <__zp_data_size+0x6d>
     90b: 85 13        	sta	$13                     ; 0x13 <__rc3>
     90d: 29 01        	and	#$1
     90f: 85 17        	sta	$17                     ; 0x17 <__rc7>
     911: a6 9f        	ldx	$9f                     ; 0x9f <__zp_data_size+0x65>
     913: a5 a0        	lda	$a0                     ; 0xa0 <__zp_data_size+0x66>
     915: 85 9e        	sta	$9e                     ; 0x9e <__zp_data_size+0x64>
     917: e8           	inx
     918: d0 02        	bne	$91c <sortFileList+0x1cf>
     91a: e6 9e        	inc	$9e                     ; 0x9e <__zp_data_size+0x64>
     91c: b1 a7        	lda	($a7),y                 ; 0xa7 <__zp_data_size+0x6d>
     91e: 85 12        	sta	$12                     ; 0x12 <__rc2>
     920: e6 17        	inc	$17                     ; 0x17 <__rc7>
     922: c6 17        	dec	$17                     ; 0x17 <__rc7>
     924: d0 07        	bne	$92d <sortFileList+0x1e0>
     926: 29 01        	and	#$1
     928: f0 03        	beq	$92d <sortFileList+0x1e0>
     92a: 4c 39 08     	jmp	$839 <sortFileList+0xec>
     92d: a5 13        	lda	$13                     ; 0x13 <__rc3>
     92f: c5 12        	cmp	$12                     ; 0x12 <__rc2>
     931: f0 03        	beq	$936 <sortFileList+0x1e9>
     933: 4c d0 08     	jmp	$8d0 <sortFileList+0x183>
     936: a4 a5        	ldy	$a5                     ; 0xa5 <__zp_data_size+0x6b>
     938: 84 d7        	sty	$d7                     ; 0xd7 <__zp_data_size+0x9d>
     93a: a4 a6        	ldy	$a6                     ; 0xa6 <__zp_data_size+0x6c>
     93c: 84 d8        	sty	$d8                     ; 0xd8 <__zp_data_size+0x9e>
     93e: a0 2c        	ldy	#$2c
     940: 84 12        	sty	$12                     ; 0x12 <__rc2>
     942: 64 13        	stz	$13                     ; 0x13 <__rc3>
     944: 86 9d        	stx	$9d                     ; 0x9d <__zp_data_size+0x63>
     946: a6 a0        	ldx	$a0                     ; 0xa0 <__zp_data_size+0x66>
     948: a5 9f        	lda	$9f                     ; 0x9f <__zp_data_size+0x65>
     94a: 20 ef 4b     	jsr	$4bef <__mulhi3>
     94d: 85 12        	sta	$12                     ; 0x12 <__rc2>
     94f: 86 13        	stx	$13                     ; 0x13 <__rc3>
     951: a6 dd        	ldx	$dd                     ; 0xdd <__zp_data_size+0xa3>
     953: 86 a3        	stx	$a3                     ; 0xa3 <__zp_data_size+0x69>
     955: 8a           	txa
     956: 18           	clc
     957: 65 12        	adc	$12                     ; 0x12 <__rc2>
     959: 85 a5        	sta	$a5                     ; 0xa5 <__zp_data_size+0x6b>
     95b: a6 de        	ldx	$de                     ; 0xde <__zp_data_size+0xa4>
     95d: 86 a4        	stx	$a4                     ; 0xa4 <__zp_data_size+0x6a>
     95f: 8a           	txa
     960: 65 13        	adc	$13                     ; 0x13 <__rc3>
     962: 85 a6        	sta	$a6                     ; 0xa6 <__zp_data_size+0x6c>
     964: a2 2c        	ldx	#$2c
     966: 86 12        	stx	$12                     ; 0x12 <__rc2>
     968: 64 13        	stz	$13                     ; 0x13 <__rc3>
     96a: a6 9e        	ldx	$9e                     ; 0x9e <__zp_data_size+0x64>
     96c: a4 9d        	ldy	$9d                     ; 0x9d <__zp_data_size+0x63>
     96e: 84 df        	sty	$df                     ; 0xdf <__zp_data_size+0xa5>
     970: a5 9d        	lda	$9d                     ; 0x9d <__zp_data_size+0x63>
     972: 20 ef 4b     	jsr	$4bef <__mulhi3>
     975: 85 12        	sta	$12                     ; 0x12 <__rc2>
     977: 86 13        	stx	$13                     ; 0x13 <__rc3>
     979: a5 a3        	lda	$a3                     ; 0xa3 <__zp_data_size+0x69>
     97b: 18           	clc
     97c: 65 12        	adc	$12                     ; 0x12 <__rc2>
     97e: 85 14        	sta	$14                     ; 0x14 <__rc4>
     980: a5 a4        	lda	$a4                     ; 0xa4 <__zp_data_size+0x6a>
     982: 65 13        	adc	$13                     ; 0x13 <__rc3>
     984: 85 15        	sta	$15                     ; 0x15 <__rc5>
     986: 85 a1        	sta	$a1                     ; 0xa1 <__zp_data_size+0x67>
     988: b2 a5        	lda	($a5)                   ; 0xa5 <__zp_data_size+0x6b>
     98a: d0 03        	bne	$98f <sortFileList+0x242>
     98c: 4c ec 07     	jmp	$7ec <sortFileList+0x9f>
     98f: a6 a5        	ldx	$a5                     ; 0xa5 <__zp_data_size+0x6b>
     991: 86 a3        	stx	$a3                     ; 0xa3 <__zp_data_size+0x69>
     993: a6 a6        	ldx	$a6                     ; 0xa6 <__zp_data_size+0x6c>
     995: 86 a4        	stx	$a4                     ; 0xa4 <__zp_data_size+0x6a>
     997: aa           	tax
     998: b2 14        	lda	($14)                   ; 0x14 <__rc4>
     99a: 85 a5        	sta	$a5                     ; 0xa5 <__zp_data_size+0x6b>
     99c: 8a           	txa
     99d: a6 a5        	ldx	$a5                     ; 0xa5 <__zp_data_size+0x6b>
     99f: d0 03        	bne	$9a4 <sortFileList+0x257>
     9a1: 4c ec 07     	jmp	$7ec <sortFileList+0x9f>
     9a4: a6 14        	ldx	$14                     ; 0x14 <__rc4>
     9a6: 86 12        	stx	$12                     ; 0x12 <__rc2>
     9a8: a6 15        	ldx	$15                     ; 0x15 <__rc5>
     9aa: 86 13        	stx	$13                     ; 0x13 <__rc3>
     9ac: a6 12        	ldx	$12                     ; 0x12 <__rc2>
     9ae: 86 d5        	stx	$d5                     ; 0xd5 <__zp_data_size+0x9b>
     9b0: a6 13        	ldx	$13                     ; 0x13 <__rc3>
     9b2: 86 d6        	stx	$d6                     ; 0xd6 <__zp_data_size+0x9c>
     9b4: a2 00        	ldx	#$0
     9b6: 20 64 33     	jsr	$3364 <tolower>
     9b9: 85 a6        	sta	$a6                     ; 0xa6 <__zp_data_size+0x6c>
     9bb: 86 9d        	stx	$9d                     ; 0x9d <__zp_data_size+0x63>
     9bd: a2 00        	ldx	#$0
     9bf: a5 a5        	lda	$a5                     ; 0xa5 <__zp_data_size+0x6b>
     9c1: 20 64 33     	jsr	$3364 <tolower>
     9c4: 85 12        	sta	$12                     ; 0x12 <__rc2>
     9c6: 86 13        	stx	$13                     ; 0x13 <__rc3>
     9c8: a6 9d        	ldx	$9d                     ; 0x9d <__zp_data_size+0x63>
     9ca: 86 15        	stx	$15                     ; 0x15 <__rc5>
     9cc: e4 13        	cpx	$13                     ; 0x13 <__rc3>
     9ce: f0 03        	beq	$9d3 <sortFileList+0x286>
     9d0: 4c b9 07     	jmp	$7b9 <sortFileList+0x6c>
     9d3: a5 a6        	lda	$a6                     ; 0xa6 <__zp_data_size+0x6c>
     9d5: c5 12        	cmp	$12                     ; 0x12 <__rc2>
     9d7: f0 03        	beq	$9dc <sortFileList+0x28f>
     9d9: 4c bb 07     	jmp	$7bb <sortFileList+0x6e>
     9dc: 85 14        	sta	$14                     ; 0x14 <__rc4>
     9de: a6 a3        	ldx	$a3                     ; 0xa3 <__zp_data_size+0x69>
     9e0: 86 a5        	stx	$a5                     ; 0xa5 <__zp_data_size+0x6b>
     9e2: a6 a4        	ldx	$a4                     ; 0xa4 <__zp_data_size+0x6a>
     9e4: 86 a6        	stx	$a6                     ; 0xa6 <__zp_data_size+0x6c>
     9e6: e6 a5        	inc	$a5                     ; 0xa5 <__zp_data_size+0x6b>
     9e8: d0 03        	bne	$9ed <sortFileList+0x2a0>
     9ea: 4c e2 07     	jmp	$7e2 <sortFileList+0x95>
     9ed: a6 d5        	ldx	$d5                     ; 0xd5 <__zp_data_size+0x9b>
     9ef: 86 16        	stx	$16                     ; 0x16 <__rc6>
     9f1: a6 d6        	ldx	$d6                     ; 0xd6 <__zp_data_size+0x9c>
     9f3: 86 17        	stx	$17                     ; 0x17 <__rc7>
     9f5: e6 16        	inc	$16                     ; 0x16 <__rc6>
     9f7: d0 03        	bne	$9fc <sortFileList+0x2af>
     9f9: 4c e7 07     	jmp	$7e7 <sortFileList+0x9a>
     9fc: a6 16        	ldx	$16                     ; 0x16 <__rc6>
     9fe: 86 d5        	stx	$d5                     ; 0xd5 <__zp_data_size+0x9b>
     a00: a6 17        	ldx	$17                     ; 0x17 <__rc7>
     a02: 86 d6        	stx	$d6                     ; 0xd6 <__zp_data_size+0x9c>
     a04: a5 a1        	lda	$a1                     ; 0xa1 <__zp_data_size+0x67>
     a06: a6 15        	ldx	$15                     ; 0x15 <__rc5>
     a08: e4 13        	cpx	$13                     ; 0x13 <__rc3>
     a0a: f0 03        	beq	$a0f <sortFileList+0x2c2>
     a0c: 4c 14 08     	jmp	$814 <sortFileList+0xc7>
     a0f: 4c d1 07     	jmp	$7d1 <sortFileList+0x84>
     a12: a6 14        	ldx	$14                     ; 0x14 <__rc4>
     a14: a5 15        	lda	$15                     ; 0x15 <__rc5>
     a16: 85 9e        	sta	$9e                     ; 0x9e <__zp_data_size+0x64>
     a18: e8           	inx
     a19: d0 02        	bne	$a1d <sortFileList+0x2d0>
     a1b: e6 9e        	inc	$9e                     ; 0x9e <__zp_data_size+0x64>
     a1d: b2 a5        	lda	($a5)                   ; 0xa5 <__zp_data_size+0x6b>
     a1f: 85 12        	sta	$12                     ; 0x12 <__rc2>
     a21: b1 a5        	lda	($a5),y                 ; 0xa5 <__zp_data_size+0x6b>
     a23: a0 ff        	ldy	#$ff
     a25: c6 12        	dec	$12                     ; 0x12 <__rc2>
     a27: c4 12        	cpy	$12                     ; 0x12 <__rc2>
     a29: d0 01        	bne	$a2c <sortFileList+0x2df>
     a2b: 3a           	dec
     a2c: 85 13        	sta	$13                     ; 0x13 <__rc3>
     a2e: e4 12        	cpx	$12                     ; 0x12 <__rc2>
     a30: a5 9e        	lda	$9e                     ; 0x9e <__zp_data_size+0x64>
     a32: e5 13        	sbc	$13                     ; 0x13 <__rc3>
     a34: 50 02        	bvc	$a38 <sortFileList+0x2eb>
     a36: 49 80        	eor	#$80
     a38: 86 14        	stx	$14                     ; 0x14 <__rc4>
     a3a: a6 9e        	ldx	$9e                     ; 0x9e <__zp_data_size+0x64>
     a3c: 86 15        	stx	$15                     ; 0x15 <__rc5>
     a3e: a0 01        	ldy	#$1
     a40: aa           	tax
     a41: 10 2f        	bpl	$a72 <sortFileList+0x325>
     a43: b2 a5        	lda	($a5)                   ; 0xa5 <__zp_data_size+0x6b>
     a45: 85 12        	sta	$12                     ; 0x12 <__rc2>
     a47: b1 a5        	lda	($a5),y                 ; 0xa5 <__zp_data_size+0x6b>
     a49: aa           	tax
     a4a: 38           	sec
     a4b: a5 12        	lda	$12                     ; 0x12 <__rc2>
     a4d: e5 14        	sbc	$14                     ; 0x14 <__rc4>
     a4f: 85 12        	sta	$12                     ; 0x12 <__rc2>
     a51: 8a           	txa
     a52: e5 15        	sbc	$15                     ; 0x15 <__rc5>
     a54: a6 12        	ldx	$12                     ; 0x12 <__rc2>
     a56: e0 02        	cpx	#$2
     a58: e9 00        	sbc	#$0
     a5a: 50 02        	bvc	$a5e <sortFileList+0x311>
     a5c: 49 80        	eor	#$80
     a5e: aa           	tax
     a5f: 30 b1        	bmi	$a12 <sortFileList+0x2c5>
     a61: a2 01        	ldx	#$1
     a63: 64 a0        	stz	$a0                     ; 0xa0 <__zp_data_size+0x66>
     a65: 86 9f        	stx	$9f                     ; 0x9f <__zp_data_size+0x65>
     a67: a6 14        	ldx	$14                     ; 0x14 <__rc4>
     a69: 86 db        	stx	$db                     ; 0xdb <__zp_data_size+0xa1>
     a6b: a6 15        	ldx	$15                     ; 0x15 <__rc5>
     a6d: 86 dc        	stx	$dc                     ; 0xdc <__zp_data_size+0xa2>
     a6f: 4c fb 08     	jmp	$8fb <sortFileList+0x1ae>
     a72: 60           	rts

00000a73 <pickFile>:
     a73: 18           	clc
     a74: a5 10        	lda	$10                     ; 0x10 <__rc0>
     a76: 69 f6        	adc	#$f6
     a78: 85 10        	sta	$10                     ; 0x10 <__rc0>
     a7a: a5 11        	lda	$11                     ; 0x11 <__rc1>
     a7c: 69 ff        	adc	#$ff
     a7e: 85 11        	sta	$11                     ; 0x11 <__rc1>
     a80: a6 24        	ldx	$24                     ; 0x24 <__rc20>
     a82: da           	phx
     a83: a6 25        	ldx	$25                     ; 0x25 <__rc21>
     a85: da           	phx
     a86: a6 26        	ldx	$26                     ; 0x26 <__rc22>
     a88: da           	phx
     a89: a6 27        	ldx	$27                     ; 0x27 <__rc23>
     a8b: da           	phx
     a8c: a5 28        	lda	$28                     ; 0x28 <__rc24>
     a8e: a0 03        	ldy	#$3
     a90: 91 10        	sta	($10),y                 ; 0x10 <__rc0>
     a92: a5 29        	lda	$29                     ; 0x29 <__rc25>
     a94: 88           	dey
     a95: 91 10        	sta	($10),y                 ; 0x10 <__rc0>
     a97: a2 08        	ldx	#$8
     a99: 86 26        	stx	$26                     ; 0x26 <__rc22>
     a9b: a2 00        	ldx	#$0
     a9d: 86 27        	stx	$27                     ; 0x27 <__rc23>
     a9f: a5 12        	lda	$12                     ; 0x12 <__rc2>
     aa1: a6 13        	ldx	$13                     ; 0x13 <__rc3>
     aa3: 18           	clc
     aa4: 48           	pha
     aa5: a5 10        	lda	$10                     ; 0x10 <__rc0>
     aa7: 69 07        	adc	#$7
     aa9: 85 12        	sta	$12                     ; 0x12 <__rc2>
     aab: a5 11        	lda	$11                     ; 0x11 <__rc1>
     aad: 69 00        	adc	#$0
     aaf: 85 13        	sta	$13                     ; 0x13 <__rc3>
     ab1: 68           	pla
     ab2: 92 12        	sta	($12)                   ; 0x12 <__rc2>
     ab4: 88           	dey
     ab5: 8a           	txa
     ab6: 91 12        	sta	($12),y                 ; 0x12 <__rc2>
     ab8: 64 6c        	stz	$6c                     ; 0x6c <kernelEventData>
     aba: 18           	clc
     abb: a5 10        	lda	$10                     ; 0x10 <__rc0>
     abd: 69 05        	adc	#$5
     abf: 85 12        	sta	$12                     ; 0x12 <__rc2>
     ac1: a5 11        	lda	$11                     ; 0x11 <__rc1>
     ac3: 69 00        	adc	#$0
     ac5: 85 13        	sta	$13                     ; 0x13 <__rc3>
     ac7: a2 73        	ldx	#$73
     ac9: 86 14        	stx	$14                     ; 0x14 <__rc4>
     acb: a2 00        	ldx	#$0
     acd: 86 15        	stx	$15                     ; 0x15 <__rc5>
     acf: 20 00 ff     	jsr	$ff00 <end_block9+0x9c5a>
     ad2: 92 12        	sta	($12)                   ; 0x12 <__rc2>
     ad4: a9 00        	lda	#$0
     ad6: 6a           	ror
     ad7: 85 14        	sta	$14                     ; 0x14 <__rc4>
     ad9: b2 12        	lda	($12)                   ; 0x12 <__rc2>
     adb: 18           	clc
     adc: 48           	pha
     add: a5 10        	lda	$10                     ; 0x10 <__rc0>
     adf: 69 04        	adc	#$4
     ae1: 85 12        	sta	$12                     ; 0x12 <__rc2>
     ae3: a5 11        	lda	$11                     ; 0x11 <__rc1>
     ae5: 69 00        	adc	#$0
     ae7: 85 13        	sta	$13                     ; 0x13 <__rc3>
     ae9: 68           	pla
     aea: 92 12        	sta	($12)                   ; 0x12 <__rc2>
     aec: b2 12        	lda	($12)                   ; 0x12 <__rc2>
     aee: 18           	clc
     aef: 48           	pha
     af0: a5 10        	lda	$10                     ; 0x10 <__rc0>
     af2: 69 06        	adc	#$6
     af4: 85 12        	sta	$12                     ; 0x12 <__rc2>
     af6: a5 11        	lda	$11                     ; 0x11 <__rc1>
     af8: 69 00        	adc	#$0
     afa: 85 13        	sta	$13                     ; 0x13 <__rc3>
     afc: 68           	pla
     afd: 92 12        	sta	($12)                   ; 0x12 <__rc2>
     aff: a6 6c        	ldx	$6c                     ; 0x6c <kernelEventData>
     b01: a0 00        	ldy	#$0
     b03: c4 27        	cpy	$27                     ; 0x27 <__rc23>
     b05: f0 02        	beq	$b09 <pickFile+0x96>
     b07: 80 0d        	bra	$b16 <pickFile+0xa3>
     b09: e4 26        	cpx	$26                     ; 0x26 <__rc22>
     b0b: f0 02        	beq	$b0f <pickFile+0x9c>
     b0d: 80 02        	bra	$b11 <pickFile+0x9e>
     b0f: 80 03        	bra	$b14 <pickFile+0xa1>
     b11: 4c 86 16     	jmp	$1686 <pickFile+0xc13>
     b14: 80 03        	bra	$b19 <pickFile+0xa6>
     b16: 4c 86 16     	jmp	$1686 <pickFile+0xc13>
     b19: 80 00        	bra	$b1b <pickFile+0xa8>
     b1b: a5 70        	lda	$70                     ; 0x70 <kernelEventData+0x4>
     b1d: 18           	clc
     b1e: 69 6e        	adc	#$6e
     b20: aa           	tax
     b21: a9 00        	lda	#$0
     b23: 69 ff        	adc	#$ff
     b25: c9 00        	cmp	#$0
     b27: a0 01        	ldy	#$1
     b29: b0 02        	bcs	$b2d <pickFile+0xba>
     b2b: a0 00        	ldy	#$0
     b2d: 84 12        	sty	$12                     ; 0x12 <__rc2>
     b2f: a8           	tay
     b30: f0 02        	beq	$b34 <pickFile+0xc1>
     b32: 80 08        	bra	$b3c <pickFile+0xc9>
     b34: 8a           	txa
     b35: c9 28        	cmp	#$28
     b37: 90 0b        	bcc	$b44 <pickFile+0xd1>
     b39: 4c 86 16     	jmp	$1686 <pickFile+0xc13>
     b3c: 8a           	txa
     b3d: a6 12        	ldx	$12                     ; 0x12 <__rc2>
     b3f: f0 03        	beq	$b44 <pickFile+0xd1>
     b41: 4c 86 16     	jmp	$1686 <pickFile+0xc13>
     b44: 0a           	asl
     b45: aa           	tax
     b46: 7c e1 4c     	jmp	($4ce1,x)               ; 0x4ce1 <__BLOCK_SIZE+0x2ce1>
     b49: 18           	clc
     b4a: a5 10        	lda	$10                     ; 0x10 <__rc0>
     b4c: 69 09        	adc	#$9
     b4e: 85 12        	sta	$12                     ; 0x12 <__rc2>
     b50: a5 11        	lda	$11                     ; 0x11 <__rc1>
     b52: 69 00        	adc	#$0
     b54: 85 13        	sta	$13                     ; 0x13 <__rc3>
     b56: a9 03        	lda	#$3
     b58: 92 12        	sta	($12)                   ; 0x12 <__rc2>
     b5a: 4c 89 16     	jmp	$1689 <pickFile+0xc16>
     b5d: 18           	clc
     b5e: a5 10        	lda	$10                     ; 0x10 <__rc0>
     b60: 69 07        	adc	#$7
     b62: 85 26        	sta	$26                     ; 0x26 <__rc22>
     b64: a5 11        	lda	$11                     ; 0x11 <__rc1>
     b66: 69 00        	adc	#$0
     b68: 85 27        	sta	$27                     ; 0x27 <__rc23>
     b6a: b2 26        	lda	($26)                   ; 0x26 <__rc22>
     b6c: 85 12        	sta	$12                     ; 0x12 <__rc2>
     b6e: a0 01        	ldy	#$1
     b70: b1 26        	lda	($26),y                 ; 0x26 <__rc22>
     b72: aa           	tax
     b73: 64 13        	stz	$13                     ; 0x13 <__rc3>
     b75: 18           	clc
     b76: a5 12        	lda	$12                     ; 0x12 <__rc2>
     b78: 69 22        	adc	#$22
     b7a: 85 24        	sta	$24                     ; 0x24 <__rc20>
     b7c: 8a           	txa
     b7d: 69 00        	adc	#$0
     b7f: 85 25        	sta	$25                     ; 0x25 <__rc21>
     b81: b2 26        	lda	($26)                   ; 0x26 <__rc22>
     b83: 85 28        	sta	$28                     ; 0x28 <__rc24>
     b85: b2 26        	lda	($26)                   ; 0x26 <__rc22>
     b87: 85 14        	sta	$14                     ; 0x14 <__rc4>
     b89: b1 26        	lda	($26),y                 ; 0x26 <__rc22>
     b8b: 85 12        	sta	$12                     ; 0x12 <__rc2>
     b8d: 18           	clc
     b8e: a5 14        	lda	$14                     ; 0x14 <__rc4>
     b90: 69 e4        	adc	#$e4
     b92: 85 14        	sta	$14                     ; 0x14 <__rc4>
     b94: a5 12        	lda	$12                     ; 0x12 <__rc2>
     b96: 69 11        	adc	#$11
     b98: 85 15        	sta	$15                     ; 0x15 <__rc5>
     b9a: b1 26        	lda	($26),y                 ; 0x26 <__rc22>
     b9c: 85 29        	sta	$29                     ; 0x29 <__rc25>
     b9e: b2 14        	lda	($14)                   ; 0x14 <__rc4>
     ba0: 85 16        	sta	$16                     ; 0x16 <__rc6>
     ba2: b1 14        	lda	($14),y                 ; 0x14 <__rc4>
     ba4: a2 2c        	ldx	#$2c
     ba6: 86 12        	stx	$12                     ; 0x12 <__rc2>
     ba8: aa           	tax
     ba9: a5 16        	lda	$16                     ; 0x16 <__rc6>
     bab: 20 ef 4b     	jsr	$4bef <__mulhi3>
     bae: 85 12        	sta	$12                     ; 0x12 <__rc2>
     bb0: 86 13        	stx	$13                     ; 0x13 <__rc3>
     bb2: a5 28        	lda	$28                     ; 0x28 <__rc24>
     bb4: 18           	clc
     bb5: 65 12        	adc	$12                     ; 0x12 <__rc2>
     bb7: a8           	tay
     bb8: a5 29        	lda	$29                     ; 0x29 <__rc25>
     bba: 65 13        	adc	$13                     ; 0x13 <__rc3>
     bbc: aa           	tax
     bbd: 18           	clc
     bbe: 98           	tya
     bbf: 69 4e        	adc	#$4e
     bc1: 85 14        	sta	$14                     ; 0x14 <__rc4>
     bc3: 8a           	txa
     bc4: 69 00        	adc	#$0
     bc6: 85 15        	sta	$15                     ; 0x15 <__rc5>
     bc8: a6 24        	ldx	$24                     ; 0x24 <__rc20>
     bca: 86 12        	stx	$12                     ; 0x12 <__rc2>
     bcc: a6 25        	ldx	$25                     ; 0x25 <__rc21>
     bce: 86 13        	stx	$13                     ; 0x13 <__rc3>
     bd0: a9 2c        	lda	#$2c
     bd2: a2 00        	ldx	#$0
     bd4: 20 db 49     	jsr	$49db <memcpy>
     bd7: b2 26        	lda	($26)                   ; 0x26 <__rc22>
     bd9: 85 13        	sta	$13                     ; 0x13 <__rc3>
     bdb: a0 01        	ldy	#$1
     bdd: b1 26        	lda	($26),y                 ; 0x26 <__rc22>
     bdf: 85 12        	sta	$12                     ; 0x12 <__rc2>
     be1: 18           	clc
     be2: a5 13        	lda	$13                     ; 0x13 <__rc3>
     be4: 69 e6        	adc	#$e6
     be6: aa           	tax
     be7: a5 12        	lda	$12                     ; 0x12 <__rc2>
     be9: 69 11        	adc	#$11
     beb: 86 12        	stx	$12                     ; 0x12 <__rc2>
     bed: 85 13        	sta	$13                     ; 0x13 <__rc3>
     bef: b2 12        	lda	($12)                   ; 0x12 <__rc2>
     bf1: 85 14        	sta	$14                     ; 0x14 <__rc4>
     bf3: b1 12        	lda	($12),y                 ; 0x12 <__rc2>
     bf5: d0 1c        	bne	$c13 <pickFile+0x1a0>
     bf7: 80 00        	bra	$bf9 <pickFile+0x186>
     bf9: a5 14        	lda	$14                     ; 0x14 <__rc4>
     bfb: d0 16        	bne	$c13 <pickFile+0x1a0>
     bfd: 80 00        	bra	$bff <pickFile+0x18c>
     bff: 18           	clc
     c00: a5 10        	lda	$10                     ; 0x10 <__rc0>
     c02: 69 09        	adc	#$9
     c04: 85 12        	sta	$12                     ; 0x12 <__rc2>
     c06: a5 11        	lda	$11                     ; 0x11 <__rc1>
     c08: 69 00        	adc	#$0
     c0a: 85 13        	sta	$13                     ; 0x13 <__rc3>
     c0c: a9 00        	lda	#$0
     c0e: 92 12        	sta	($12)                   ; 0x12 <__rc2>
     c10: 4c 89 16     	jmp	$1689 <pickFile+0xc16>
     c13: 18           	clc
     c14: a5 10        	lda	$10                     ; 0x10 <__rc0>
     c16: 69 07        	adc	#$7
     c18: 85 12        	sta	$12                     ; 0x12 <__rc2>
     c1a: a5 11        	lda	$11                     ; 0x11 <__rc1>
     c1c: 69 00        	adc	#$0
     c1e: 85 13        	sta	$13                     ; 0x13 <__rc3>
     c20: a0 01        	ldy	#$1
     c22: b2 12        	lda	($12)                   ; 0x12 <__rc2>
     c24: 85 15        	sta	$15                     ; 0x15 <__rc5>
     c26: b1 12        	lda	($12),y                 ; 0x12 <__rc2>
     c28: 85 14        	sta	$14                     ; 0x14 <__rc4>
     c2a: 18           	clc
     c2b: a5 15        	lda	$15                     ; 0x15 <__rc5>
     c2d: 69 e4        	adc	#$e4
     c2f: aa           	tax
     c30: a5 14        	lda	$14                     ; 0x14 <__rc4>
     c32: 69 11        	adc	#$11
     c34: 86 14        	stx	$14                     ; 0x14 <__rc4>
     c36: 85 15        	sta	$15                     ; 0x15 <__rc5>
     c38: b2 14        	lda	($14)                   ; 0x14 <__rc4>
     c3a: 85 16        	sta	$16                     ; 0x16 <__rc6>
     c3c: b1 14        	lda	($14),y                 ; 0x14 <__rc4>
     c3e: 85 14        	sta	$14                     ; 0x14 <__rc4>
     c40: 18           	clc
     c41: a5 16        	lda	$16                     ; 0x16 <__rc6>
     c43: 72 12        	adc	($12)                   ; 0x12 <__rc2>
     c45: 85 15        	sta	$15                     ; 0x15 <__rc5>
     c47: a5 14        	lda	$14                     ; 0x14 <__rc4>
     c49: 71 12        	adc	($12),y                 ; 0x12 <__rc2>
     c4b: 85 12        	sta	$12                     ; 0x12 <__rc2>
     c4d: 18           	clc
     c4e: a5 15        	lda	$15                     ; 0x15 <__rc5>
     c50: 69 7e        	adc	#$7e
     c52: aa           	tax
     c53: a5 12        	lda	$12                     ; 0x12 <__rc2>
     c55: 69 11        	adc	#$11
     c57: 85 13        	sta	$13                     ; 0x13 <__rc3>
     c59: 86 12        	stx	$12                     ; 0x12 <__rc2>
     c5b: b2 12        	lda	($12)                   ; 0x12 <__rc2>
     c5d: 29 01        	and	#$1
     c5f: f0 16        	beq	$c77 <pickFile+0x204>
     c61: 80 00        	bra	$c63 <pickFile+0x1f0>
     c63: 18           	clc
     c64: a5 10        	lda	$10                     ; 0x10 <__rc0>
     c66: 69 09        	adc	#$9
     c68: 85 12        	sta	$12                     ; 0x12 <__rc2>
     c6a: a5 11        	lda	$11                     ; 0x11 <__rc1>
     c6c: 69 00        	adc	#$0
     c6e: 85 13        	sta	$13                     ; 0x13 <__rc3>
     c70: a9 01        	lda	#$1
     c72: 92 12        	sta	($12)                   ; 0x12 <__rc2>
     c74: 4c 89 16     	jmp	$1689 <pickFile+0xc16>
     c77: 18           	clc
     c78: a5 10        	lda	$10                     ; 0x10 <__rc0>
     c7a: 69 09        	adc	#$9
     c7c: 85 12        	sta	$12                     ; 0x12 <__rc2>
     c7e: a5 11        	lda	$11                     ; 0x11 <__rc1>
     c80: 69 00        	adc	#$0
     c82: 85 13        	sta	$13                     ; 0x13 <__rc3>
     c84: a9 02        	lda	#$2
     c86: 92 12        	sta	($12)                   ; 0x12 <__rc2>
     c88: 4c 89 16     	jmp	$1689 <pickFile+0xc16>
     c8b: 18           	clc
     c8c: a5 10        	lda	$10                     ; 0x10 <__rc0>
     c8e: 69 07        	adc	#$7
     c90: 85 12        	sta	$12                     ; 0x12 <__rc2>
     c92: a5 11        	lda	$11                     ; 0x11 <__rc1>
     c94: 69 00        	adc	#$0
     c96: 85 13        	sta	$13                     ; 0x13 <__rc3>
     c98: b2 12        	lda	($12)                   ; 0x12 <__rc2>
     c9a: 85 14        	sta	$14                     ; 0x14 <__rc4>
     c9c: a0 01        	ldy	#$1
     c9e: b1 12        	lda	($12),y                 ; 0x12 <__rc2>
     ca0: aa           	tax
     ca1: 18           	clc
     ca2: a5 14        	lda	$14                     ; 0x14 <__rc4>
     ca4: 69 e4        	adc	#$e4
     ca6: 85 12        	sta	$12                     ; 0x12 <__rc2>
     ca8: 8a           	txa
     ca9: 69 11        	adc	#$11
     cab: 85 13        	sta	$13                     ; 0x13 <__rc3>
     cad: b2 12        	lda	($12)                   ; 0x12 <__rc2>
     caf: 85 14        	sta	$14                     ; 0x14 <__rc4>
     cb1: b1 12        	lda	($12),y                 ; 0x12 <__rc2>
     cb3: a6 14        	ldx	$14                     ; 0x14 <__rc4>
     cb5: e0 01        	cpx	#$1
     cb7: e9 00        	sbc	#$0
     cb9: 70 02        	bvs	$cbd <pickFile+0x24a>
     cbb: 80 04        	bra	$cc1 <pickFile+0x24e>
     cbd: 49 80        	eor	#$80
     cbf: 80 02        	bra	$cc3 <pickFile+0x250>
     cc1: 80 00        	bra	$cc3 <pickFile+0x250>
     cc3: aa           	tax
     cc4: 10 03        	bpl	$cc9 <pickFile+0x256>
     cc6: 4c 7b 0f     	jmp	$f7b <pickFile+0x508>
     cc9: 18           	clc
     cca: a5 10        	lda	$10                     ; 0x10 <__rc0>
     ccc: 69 07        	adc	#$7
     cce: 85 12        	sta	$12                     ; 0x12 <__rc2>
     cd0: a5 11        	lda	$11                     ; 0x11 <__rc1>
     cd2: 69 00        	adc	#$0
     cd4: 85 13        	sta	$13                     ; 0x13 <__rc3>
     cd6: b2 12        	lda	($12)                   ; 0x12 <__rc2>
     cd8: 85 14        	sta	$14                     ; 0x14 <__rc4>
     cda: a0 01        	ldy	#$1
     cdc: b1 12        	lda	($12),y                 ; 0x12 <__rc2>
     cde: aa           	tax
     cdf: 18           	clc
     ce0: a5 14        	lda	$14                     ; 0x14 <__rc4>
     ce2: 69 e6        	adc	#$e6
     ce4: 85 12        	sta	$12                     ; 0x12 <__rc2>
     ce6: 8a           	txa
     ce7: 69 11        	adc	#$11
     ce9: 85 13        	sta	$13                     ; 0x13 <__rc3>
     ceb: b2 12        	lda	($12)                   ; 0x12 <__rc2>
     ced: 85 14        	sta	$14                     ; 0x14 <__rc4>
     cef: b1 12        	lda	($12),y                 ; 0x12 <__rc2>
     cf1: a6 14        	ldx	$14                     ; 0x14 <__rc4>
     cf3: e0 01        	cpx	#$1
     cf5: e9 00        	sbc	#$0
     cf7: 70 02        	bvs	$cfb <pickFile+0x288>
     cf9: 80 04        	bra	$cff <pickFile+0x28c>
     cfb: 49 80        	eor	#$80
     cfd: 80 02        	bra	$d01 <pickFile+0x28e>
     cff: 80 00        	bra	$d01 <pickFile+0x28e>
     d01: aa           	tax
     d02: 10 03        	bpl	$d07 <pickFile+0x294>
     d04: 4c 1b 0e     	jmp	$e1b <pickFile+0x3a8>
     d07: 18           	clc
     d08: a5 10        	lda	$10                     ; 0x10 <__rc0>
     d0a: 69 07        	adc	#$7
     d0c: 85 24        	sta	$24                     ; 0x24 <__rc20>
     d0e: a5 11        	lda	$11                     ; 0x11 <__rc1>
     d10: 69 00        	adc	#$0
     d12: 85 25        	sta	$25                     ; 0x25 <__rc21>
     d14: b2 24        	lda	($24)                   ; 0x24 <__rc20>
     d16: 85 12        	sta	$12                     ; 0x12 <__rc2>
     d18: a0 01        	ldy	#$1
     d1a: b1 24        	lda	($24),y                 ; 0x24 <__rc20>
     d1c: 85 13        	sta	$13                     ; 0x13 <__rc3>
     d1e: b2 12        	lda	($12)                   ; 0x12 <__rc2>
     d20: 85 14        	sta	$14                     ; 0x14 <__rc4>
     d22: b2 24        	lda	($24)                   ; 0x24 <__rc20>
     d24: 85 12        	sta	$12                     ; 0x12 <__rc2>
     d26: b1 24        	lda	($24),y                 ; 0x24 <__rc20>
     d28: 85 13        	sta	$13                     ; 0x13 <__rc3>
     d2a: b2 24        	lda	($24)                   ; 0x24 <__rc20>
     d2c: 85 16        	sta	$16                     ; 0x16 <__rc6>
     d2e: b1 24        	lda	($24),y                 ; 0x24 <__rc20>
     d30: 85 15        	sta	$15                     ; 0x15 <__rc5>
     d32: 18           	clc
     d33: a5 16        	lda	$16                     ; 0x16 <__rc6>
     d35: 69 e6        	adc	#$e6
     d37: aa           	tax
     d38: a5 15        	lda	$15                     ; 0x15 <__rc5>
     d3a: 69 11        	adc	#$11
     d3c: 85 15        	sta	$15                     ; 0x15 <__rc5>
     d3e: b1 12        	lda	($12),y                 ; 0x12 <__rc2>
     d40: 86 12        	stx	$12                     ; 0x12 <__rc2>
     d42: a6 15        	ldx	$15                     ; 0x15 <__rc5>
     d44: 86 13        	stx	$13                     ; 0x13 <__rc3>
     d46: 18           	clc
     d47: 72 12        	adc	($12)                   ; 0x12 <__rc2>
     d49: aa           	tax
     d4a: a5 14        	lda	$14                     ; 0x14 <__rc4>
     d4c: 20 2c 2f     	jsr	$2f2c <textGotoXY>
     d4f: a9 20        	lda	#$20
     d51: 92 10        	sta	($10)                   ; 0x10 <__rc0>
     d53: a9 00        	lda	#$0
     d55: a0 01        	ldy	#$1
     d57: 91 10        	sta	($10),y                 ; 0x10 <__rc0>
     d59: a2 60        	ldx	#$60
     d5b: 86 12        	stx	$12                     ; 0x12 <__rc2>
     d5d: a2 4e        	ldx	#$4e
     d5f: 86 13        	stx	$13                     ; 0x13 <__rc3>
     d61: 20 22 43     	jsr	$4322 <printf>
     d64: b2 24        	lda	($24)                   ; 0x24 <__rc20>
     d66: 85 13        	sta	$13                     ; 0x13 <__rc3>
     d68: a0 01        	ldy	#$1
     d6a: b1 24        	lda	($24),y                 ; 0x24 <__rc20>
     d6c: 85 12        	sta	$12                     ; 0x12 <__rc2>
     d6e: 18           	clc
     d6f: a5 13        	lda	$13                     ; 0x13 <__rc3>
     d71: 69 e4        	adc	#$e4
     d73: aa           	tax
     d74: a5 12        	lda	$12                     ; 0x12 <__rc2>
     d76: 69 11        	adc	#$11
     d78: 86 12        	stx	$12                     ; 0x12 <__rc2>
     d7a: 85 13        	sta	$13                     ; 0x13 <__rc3>
     d7c: b2 12        	lda	($12)                   ; 0x12 <__rc2>
     d7e: aa           	tax
     d7f: b1 12        	lda	($12),y                 ; 0x12 <__rc2>
     d81: 85 14        	sta	$14                     ; 0x14 <__rc4>
     d83: 8a           	txa
     d84: 3a           	dec
     d85: c9 ff        	cmp	#$ff
     d87: f0 03        	beq	$d8c <pickFile+0x319>
     d89: 4c 91 0d     	jmp	$d91 <pickFile+0x31e>
     d8c: c6 14        	dec	$14                     ; 0x14 <__rc4>
     d8e: 4c 91 0d     	jmp	$d91 <pickFile+0x31e>
     d91: 92 12        	sta	($12)                   ; 0x12 <__rc2>
     d93: a5 14        	lda	$14                     ; 0x14 <__rc4>
     d95: 91 12        	sta	($12),y                 ; 0x12 <__rc2>
     d97: b2 24        	lda	($24)                   ; 0x24 <__rc20>
     d99: 85 13        	sta	$13                     ; 0x13 <__rc3>
     d9b: b1 24        	lda	($24),y                 ; 0x24 <__rc20>
     d9d: 85 12        	sta	$12                     ; 0x12 <__rc2>
     d9f: 18           	clc
     da0: a5 13        	lda	$13                     ; 0x13 <__rc3>
     da2: 69 e6        	adc	#$e6
     da4: aa           	tax
     da5: a5 12        	lda	$12                     ; 0x12 <__rc2>
     da7: 69 11        	adc	#$11
     da9: 86 12        	stx	$12                     ; 0x12 <__rc2>
     dab: 85 13        	sta	$13                     ; 0x13 <__rc3>
     dad: b2 12        	lda	($12)                   ; 0x12 <__rc2>
     daf: aa           	tax
     db0: b1 12        	lda	($12),y                 ; 0x12 <__rc2>
     db2: 85 14        	sta	$14                     ; 0x14 <__rc4>
     db4: 8a           	txa
     db5: 3a           	dec
     db6: c9 ff        	cmp	#$ff
     db8: f0 03        	beq	$dbd <pickFile+0x34a>
     dba: 4c c2 0d     	jmp	$dc2 <pickFile+0x34f>
     dbd: c6 14        	dec	$14                     ; 0x14 <__rc4>
     dbf: 4c c2 0d     	jmp	$dc2 <pickFile+0x34f>
     dc2: 92 12        	sta	($12)                   ; 0x12 <__rc2>
     dc4: a5 14        	lda	$14                     ; 0x14 <__rc4>
     dc6: 91 12        	sta	($12),y                 ; 0x12 <__rc2>
     dc8: b2 24        	lda	($24)                   ; 0x24 <__rc20>
     dca: 85 12        	sta	$12                     ; 0x12 <__rc2>
     dcc: b1 24        	lda	($24),y                 ; 0x24 <__rc20>
     dce: 85 13        	sta	$13                     ; 0x13 <__rc3>
     dd0: b2 24        	lda	($24)                   ; 0x24 <__rc20>
     dd2: 85 14        	sta	$14                     ; 0x14 <__rc4>
     dd4: b1 24        	lda	($24),y                 ; 0x24 <__rc20>
     dd6: 85 15        	sta	$15                     ; 0x15 <__rc5>
     dd8: b2 24        	lda	($24)                   ; 0x24 <__rc20>
     dda: 85 16        	sta	$16                     ; 0x16 <__rc6>
     ddc: b1 24        	lda	($24),y                 ; 0x24 <__rc20>
     dde: 85 18        	sta	$18                     ; 0x18 <__rc8>
     de0: a0 01        	ldy	#$1
     de2: 18           	clc
     de3: a5 16        	lda	$16                     ; 0x16 <__rc6>
     de5: 69 e6        	adc	#$e6
     de7: 85 17        	sta	$17                     ; 0x17 <__rc7>
     de9: a5 18        	lda	$18                     ; 0x18 <__rc8>
     deb: 69 11        	adc	#$11
     ded: aa           	tax
     dee: b2 12        	lda	($12)                   ; 0x12 <__rc2>
     df0: 85 16        	sta	$16                     ; 0x16 <__rc6>
     df2: a5 17        	lda	$17                     ; 0x17 <__rc7>
     df4: 85 12        	sta	$12                     ; 0x12 <__rc2>
     df6: b1 14        	lda	($14),y                 ; 0x14 <__rc4>
     df8: 86 13        	stx	$13                     ; 0x13 <__rc3>
     dfa: 18           	clc
     dfb: 72 12        	adc	($12)                   ; 0x12 <__rc2>
     dfd: aa           	tax
     dfe: a5 16        	lda	$16                     ; 0x16 <__rc6>
     e00: 20 2c 2f     	jsr	$2f2c <textGotoXY>
     e03: a9 fa        	lda	#$fa
     e05: 92 10        	sta	($10)                   ; 0x10 <__rc0>
     e07: a9 00        	lda	#$0
     e09: a0 01        	ldy	#$1
     e0b: 91 10        	sta	($10),y                 ; 0x10 <__rc0>
     e0d: a2 60        	ldx	#$60
     e0f: 86 12        	stx	$12                     ; 0x12 <__rc2>
     e11: a2 4e        	ldx	#$4e
     e13: 86 13        	stx	$13                     ; 0x13 <__rc3>
     e15: 20 22 43     	jsr	$4322 <printf>
     e18: 4c 7b 0f     	jmp	$f7b <pickFile+0x508>
     e1b: 18           	clc
     e1c: a5 10        	lda	$10                     ; 0x10 <__rc0>
     e1e: 69 07        	adc	#$7
     e20: 85 12        	sta	$12                     ; 0x12 <__rc2>
     e22: a5 11        	lda	$11                     ; 0x11 <__rc1>
     e24: 69 00        	adc	#$0
     e26: 85 13        	sta	$13                     ; 0x13 <__rc3>
     e28: b2 12        	lda	($12)                   ; 0x12 <__rc2>
     e2a: 85 14        	sta	$14                     ; 0x14 <__rc4>
     e2c: a0 01        	ldy	#$1
     e2e: b1 12        	lda	($12),y                 ; 0x12 <__rc2>
     e30: aa           	tax
     e31: 18           	clc
     e32: a5 14        	lda	$14                     ; 0x14 <__rc4>
     e34: 69 e6        	adc	#$e6
     e36: 85 12        	sta	$12                     ; 0x12 <__rc2>
     e38: 8a           	txa
     e39: 69 11        	adc	#$11
     e3b: 85 13        	sta	$13                     ; 0x13 <__rc3>
     e3d: b2 12        	lda	($12)                   ; 0x12 <__rc2>
     e3f: 85 14        	sta	$14                     ; 0x14 <__rc4>
     e41: b1 12        	lda	($12),y                 ; 0x12 <__rc2>
     e43: f0 03        	beq	$e48 <pickFile+0x3d5>
     e45: 4c 7b 0f     	jmp	$f7b <pickFile+0x508>
     e48: a5 14        	lda	$14                     ; 0x14 <__rc4>
     e4a: f0 03        	beq	$e4f <pickFile+0x3dc>
     e4c: 4c 7b 0f     	jmp	$f7b <pickFile+0x508>
     e4f: 18           	clc
     e50: a5 10        	lda	$10                     ; 0x10 <__rc0>
     e52: 69 07        	adc	#$7
     e54: 85 24        	sta	$24                     ; 0x24 <__rc20>
     e56: a5 11        	lda	$11                     ; 0x11 <__rc1>
     e58: 69 00        	adc	#$0
     e5a: 85 25        	sta	$25                     ; 0x25 <__rc21>
     e5c: b2 24        	lda	($24)                   ; 0x24 <__rc20>
     e5e: 85 12        	sta	$12                     ; 0x12 <__rc2>
     e60: a0 01        	ldy	#$1
     e62: b1 24        	lda	($24),y                 ; 0x24 <__rc20>
     e64: 85 13        	sta	$13                     ; 0x13 <__rc3>
     e66: b2 12        	lda	($12)                   ; 0x12 <__rc2>
     e68: 85 14        	sta	$14                     ; 0x14 <__rc4>
     e6a: b2 24        	lda	($24)                   ; 0x24 <__rc20>
     e6c: 85 12        	sta	$12                     ; 0x12 <__rc2>
     e6e: b1 24        	lda	($24),y                 ; 0x24 <__rc20>
     e70: 85 13        	sta	$13                     ; 0x13 <__rc3>
     e72: b2 24        	lda	($24)                   ; 0x24 <__rc20>
     e74: 85 16        	sta	$16                     ; 0x16 <__rc6>
     e76: b1 24        	lda	($24),y                 ; 0x24 <__rc20>
     e78: 85 15        	sta	$15                     ; 0x15 <__rc5>
     e7a: 18           	clc
     e7b: a5 16        	lda	$16                     ; 0x16 <__rc6>
     e7d: 69 e6        	adc	#$e6
     e7f: aa           	tax
     e80: a5 15        	lda	$15                     ; 0x15 <__rc5>
     e82: 69 11        	adc	#$11
     e84: 85 15        	sta	$15                     ; 0x15 <__rc5>
     e86: b1 12        	lda	($12),y                 ; 0x12 <__rc2>
     e88: 86 12        	stx	$12                     ; 0x12 <__rc2>
     e8a: a6 15        	ldx	$15                     ; 0x15 <__rc5>
     e8c: 86 13        	stx	$13                     ; 0x13 <__rc3>
     e8e: 18           	clc
     e8f: 72 12        	adc	($12)                   ; 0x12 <__rc2>
     e91: aa           	tax
     e92: a5 14        	lda	$14                     ; 0x14 <__rc4>
     e94: 20 2c 2f     	jsr	$2f2c <textGotoXY>
     e97: a9 20        	lda	#$20
     e99: 92 10        	sta	($10)                   ; 0x10 <__rc0>
     e9b: a9 00        	lda	#$0
     e9d: a0 01        	ldy	#$1
     e9f: 91 10        	sta	($10),y                 ; 0x10 <__rc0>
     ea1: a2 60        	ldx	#$60
     ea3: 86 12        	stx	$12                     ; 0x12 <__rc2>
     ea5: a2 4e        	ldx	#$4e
     ea7: 86 13        	stx	$13                     ; 0x13 <__rc3>
     ea9: 20 22 43     	jsr	$4322 <printf>
     eac: b2 24        	lda	($24)                   ; 0x24 <__rc20>
     eae: 85 13        	sta	$13                     ; 0x13 <__rc3>
     eb0: a0 01        	ldy	#$1
     eb2: b1 24        	lda	($24),y                 ; 0x24 <__rc20>
     eb4: 85 12        	sta	$12                     ; 0x12 <__rc2>
     eb6: 18           	clc
     eb7: a5 13        	lda	$13                     ; 0x13 <__rc3>
     eb9: 69 e6        	adc	#$e6
     ebb: aa           	tax
     ebc: a5 12        	lda	$12                     ; 0x12 <__rc2>
     ebe: 69 11        	adc	#$11
     ec0: 86 12        	stx	$12                     ; 0x12 <__rc2>
     ec2: 85 13        	sta	$13                     ; 0x13 <__rc3>
     ec4: a9 0f        	lda	#$f
     ec6: 92 12        	sta	($12)                   ; 0x12 <__rc2>
     ec8: a9 00        	lda	#$0
     eca: 91 12        	sta	($12),y                 ; 0x12 <__rc2>
     ecc: b2 24        	lda	($24)                   ; 0x24 <__rc20>
     ece: 85 13        	sta	$13                     ; 0x13 <__rc3>
     ed0: b1 24        	lda	($24),y                 ; 0x24 <__rc20>
     ed2: 85 12        	sta	$12                     ; 0x12 <__rc2>
     ed4: 18           	clc
     ed5: a5 13        	lda	$13                     ; 0x13 <__rc3>
     ed7: 69 e8        	adc	#$e8
     ed9: aa           	tax
     eda: a5 12        	lda	$12                     ; 0x12 <__rc2>
     edc: 69 11        	adc	#$11
     ede: 86 12        	stx	$12                     ; 0x12 <__rc2>
     ee0: 85 13        	sta	$13                     ; 0x13 <__rc3>
     ee2: b2 12        	lda	($12)                   ; 0x12 <__rc2>
     ee4: 85 15        	sta	$15                     ; 0x15 <__rc5>
     ee6: b1 12        	lda	($12),y                 ; 0x12 <__rc2>
     ee8: 85 14        	sta	$14                     ; 0x14 <__rc4>
     eea: 18           	clc
     eeb: a5 15        	lda	$15                     ; 0x15 <__rc5>
     eed: 69 f1        	adc	#$f1
     eef: 85 15        	sta	$15                     ; 0x15 <__rc5>
     ef1: a5 14        	lda	$14                     ; 0x14 <__rc4>
     ef3: 69 ff        	adc	#$ff
     ef5: aa           	tax
     ef6: a5 15        	lda	$15                     ; 0x15 <__rc5>
     ef8: 92 12        	sta	($12)                   ; 0x12 <__rc2>
     efa: 8a           	txa
     efb: 91 12        	sta	($12),y                 ; 0x12 <__rc2>
     efd: b2 24        	lda	($24)                   ; 0x24 <__rc20>
     eff: 85 12        	sta	$12                     ; 0x12 <__rc2>
     f01: b1 24        	lda	($24),y                 ; 0x24 <__rc20>
     f03: 85 13        	sta	$13                     ; 0x13 <__rc3>
     f05: b2 24        	lda	($24)                   ; 0x24 <__rc20>
     f07: 85 15        	sta	$15                     ; 0x15 <__rc5>
     f09: b1 24        	lda	($24),y                 ; 0x24 <__rc20>
     f0b: 85 14        	sta	$14                     ; 0x14 <__rc4>
     f0d: a0 01        	ldy	#$1
     f0f: 18           	clc
     f10: a5 15        	lda	$15                     ; 0x15 <__rc5>
     f12: 69 e8        	adc	#$e8
     f14: aa           	tax
     f15: a5 14        	lda	$14                     ; 0x14 <__rc4>
     f17: 69 11        	adc	#$11
     f19: 86 14        	stx	$14                     ; 0x14 <__rc4>
     f1b: 85 15        	sta	$15                     ; 0x15 <__rc5>
     f1d: b2 14        	lda	($14)                   ; 0x14 <__rc4>
     f1f: 85 16        	sta	$16                     ; 0x16 <__rc6>
     f21: b1 14        	lda	($14),y                 ; 0x14 <__rc4>
     f23: aa           	tax
     f24: a5 16        	lda	$16                     ; 0x16 <__rc6>
     f26: 20 c1 16     	jsr	$16c1 <displayFileList>
     f29: b2 24        	lda	($24)                   ; 0x24 <__rc20>
     f2b: 85 12        	sta	$12                     ; 0x12 <__rc2>
     f2d: a0 01        	ldy	#$1
     f2f: b1 24        	lda	($24),y                 ; 0x24 <__rc20>
     f31: 85 13        	sta	$13                     ; 0x13 <__rc3>
     f33: b2 24        	lda	($24)                   ; 0x24 <__rc20>
     f35: 85 14        	sta	$14                     ; 0x14 <__rc4>
     f37: b1 24        	lda	($24),y                 ; 0x24 <__rc20>
     f39: 85 15        	sta	$15                     ; 0x15 <__rc5>
     f3b: b2 24        	lda	($24)                   ; 0x24 <__rc20>
     f3d: 85 16        	sta	$16                     ; 0x16 <__rc6>
     f3f: b1 24        	lda	($24),y                 ; 0x24 <__rc20>
     f41: 85 18        	sta	$18                     ; 0x18 <__rc8>
     f43: a0 01        	ldy	#$1
     f45: 18           	clc
     f46: a5 16        	lda	$16                     ; 0x16 <__rc6>
     f48: 69 e6        	adc	#$e6
     f4a: 85 17        	sta	$17                     ; 0x17 <__rc7>
     f4c: a5 18        	lda	$18                     ; 0x18 <__rc8>
     f4e: 69 11        	adc	#$11
     f50: aa           	tax
     f51: b2 12        	lda	($12)                   ; 0x12 <__rc2>
     f53: 85 16        	sta	$16                     ; 0x16 <__rc6>
     f55: a5 17        	lda	$17                     ; 0x17 <__rc7>
     f57: 85 12        	sta	$12                     ; 0x12 <__rc2>
     f59: b1 14        	lda	($14),y                 ; 0x14 <__rc4>
     f5b: 86 13        	stx	$13                     ; 0x13 <__rc3>
     f5d: 18           	clc
     f5e: 72 12        	adc	($12)                   ; 0x12 <__rc2>
     f60: aa           	tax
     f61: a5 16        	lda	$16                     ; 0x16 <__rc6>
     f63: 20 2c 2f     	jsr	$2f2c <textGotoXY>
     f66: a9 fa        	lda	#$fa
     f68: 92 10        	sta	($10)                   ; 0x10 <__rc0>
     f6a: a9 00        	lda	#$0
     f6c: a0 01        	ldy	#$1
     f6e: 91 10        	sta	($10),y                 ; 0x10 <__rc0>
     f70: a2 60        	ldx	#$60
     f72: 86 12        	stx	$12                     ; 0x12 <__rc2>
     f74: a2 4e        	ldx	#$4e
     f76: 86 13        	stx	$13                     ; 0x13 <__rc3>
     f78: 20 22 43     	jsr	$4322 <printf>
     f7b: 4c 86 16     	jmp	$1686 <pickFile+0xc13>
     f7e: 18           	clc
     f7f: a5 10        	lda	$10                     ; 0x10 <__rc0>
     f81: 69 07        	adc	#$7
     f83: 85 12        	sta	$12                     ; 0x12 <__rc2>
     f85: a5 11        	lda	$11                     ; 0x11 <__rc1>
     f87: 69 00        	adc	#$0
     f89: 85 13        	sta	$13                     ; 0x13 <__rc3>
     f8b: b2 12        	lda	($12)                   ; 0x12 <__rc2>
     f8d: 85 14        	sta	$14                     ; 0x14 <__rc4>
     f8f: a0 01        	ldy	#$1
     f91: b1 12        	lda	($12),y                 ; 0x12 <__rc2>
     f93: aa           	tax
     f94: 18           	clc
     f95: a5 14        	lda	$14                     ; 0x14 <__rc4>
     f97: 69 e4        	adc	#$e4
     f99: 85 14        	sta	$14                     ; 0x14 <__rc4>
     f9b: 8a           	txa
     f9c: 69 11        	adc	#$11
     f9e: 85 15        	sta	$15                     ; 0x15 <__rc5>
     fa0: b2 14        	lda	($14)                   ; 0x14 <__rc4>
     fa2: 85 16        	sta	$16                     ; 0x16 <__rc6>
     fa4: b2 12        	lda	($12)                   ; 0x12 <__rc2>
     fa6: 85 17        	sta	$17                     ; 0x17 <__rc7>
     fa8: b1 12        	lda	($12),y                 ; 0x12 <__rc2>
     faa: 85 12        	sta	$12                     ; 0x12 <__rc2>
     fac: 18           	clc
     fad: a5 17        	lda	$17                     ; 0x17 <__rc7>
     faf: 69 e2        	adc	#$e2
     fb1: aa           	tax
     fb2: a5 12        	lda	$12                     ; 0x12 <__rc2>
     fb4: 69 11        	adc	#$11
     fb6: 85 13        	sta	$13                     ; 0x13 <__rc3>
     fb8: b1 14        	lda	($14),y                 ; 0x14 <__rc4>
     fba: 85 14        	sta	$14                     ; 0x14 <__rc4>
     fbc: 86 12        	stx	$12                     ; 0x12 <__rc2>
     fbe: b2 12        	lda	($12)                   ; 0x12 <__rc2>
     fc0: aa           	tax
     fc1: b1 12        	lda	($12),y                 ; 0x12 <__rc2>
     fc3: 85 12        	sta	$12                     ; 0x12 <__rc2>
     fc5: a5 14        	lda	$14                     ; 0x14 <__rc4>
     fc7: 86 13        	stx	$13                     ; 0x13 <__rc3>
     fc9: a2 ff        	ldx	#$ff
     fcb: c6 13        	dec	$13                     ; 0x13 <__rc3>
     fcd: e4 13        	cpx	$13                     ; 0x13 <__rc3>
     fcf: f0 03        	beq	$fd4 <pickFile+0x561>
     fd1: 4c d9 0f     	jmp	$fd9 <pickFile+0x566>
     fd4: c6 12        	dec	$12                     ; 0x12 <__rc2>
     fd6: 4c d9 0f     	jmp	$fd9 <pickFile+0x566>
     fd9: a6 16        	ldx	$16                     ; 0x16 <__rc6>
     fdb: e4 13        	cpx	$13                     ; 0x13 <__rc3>
     fdd: e5 12        	sbc	$12                     ; 0x12 <__rc2>
     fdf: 70 02        	bvs	$fe3 <pickFile+0x570>
     fe1: 80 04        	bra	$fe7 <pickFile+0x574>
     fe3: 49 80        	eor	#$80
     fe5: 80 02        	bra	$fe9 <pickFile+0x576>
     fe7: 80 00        	bra	$fe9 <pickFile+0x576>
     fe9: aa           	tax
     fea: 30 03        	bmi	$fef <pickFile+0x57c>
     fec: 4c fb 12     	jmp	$12fb <pickFile+0x888>
     fef: 18           	clc
     ff0: a5 10        	lda	$10                     ; 0x10 <__rc0>
     ff2: 69 07        	adc	#$7
     ff4: 85 12        	sta	$12                     ; 0x12 <__rc2>
     ff6: a5 11        	lda	$11                     ; 0x11 <__rc1>
     ff8: 69 00        	adc	#$0
     ffa: 85 13        	sta	$13                     ; 0x13 <__rc3>
     ffc: b2 12        	lda	($12)                   ; 0x12 <__rc2>
     ffe: 85 14        	sta	$14                     ; 0x14 <__rc4>
    1000: a0 01        	ldy	#$1
    1002: b1 12        	lda	($12),y                 ; 0x12 <__rc2>
    1004: aa           	tax
    1005: 18           	clc
    1006: a5 14        	lda	$14                     ; 0x14 <__rc4>
    1008: 69 e6        	adc	#$e6
    100a: 85 12        	sta	$12                     ; 0x12 <__rc2>
    100c: 8a           	txa
    100d: 69 11        	adc	#$11
    100f: 85 13        	sta	$13                     ; 0x13 <__rc3>
    1011: b2 12        	lda	($12)                   ; 0x12 <__rc2>
    1013: 85 14        	sta	$14                     ; 0x14 <__rc4>
    1015: b1 12        	lda	($12),y                 ; 0x12 <__rc2>
    1017: a6 14        	ldx	$14                     ; 0x14 <__rc4>
    1019: e0 0f        	cpx	#$f
    101b: e9 00        	sbc	#$0
    101d: 70 02        	bvs	$1021 <pickFile+0x5ae>
    101f: 80 04        	bra	$1025 <pickFile+0x5b2>
    1021: 49 80        	eor	#$80
    1023: 80 02        	bra	$1027 <pickFile+0x5b4>
    1025: 80 00        	bra	$1027 <pickFile+0x5b4>
    1027: aa           	tax
    1028: 30 03        	bmi	$102d <pickFile+0x5ba>
    102a: 4c 3b 11     	jmp	$113b <pickFile+0x6c8>
    102d: 18           	clc
    102e: a5 10        	lda	$10                     ; 0x10 <__rc0>
    1030: 69 07        	adc	#$7
    1032: 85 24        	sta	$24                     ; 0x24 <__rc20>
    1034: a5 11        	lda	$11                     ; 0x11 <__rc1>
    1036: 69 00        	adc	#$0
    1038: 85 25        	sta	$25                     ; 0x25 <__rc21>
    103a: b2 24        	lda	($24)                   ; 0x24 <__rc20>
    103c: 85 12        	sta	$12                     ; 0x12 <__rc2>
    103e: a0 01        	ldy	#$1
    1040: b1 24        	lda	($24),y                 ; 0x24 <__rc20>
    1042: 85 13        	sta	$13                     ; 0x13 <__rc3>
    1044: b2 12        	lda	($12)                   ; 0x12 <__rc2>
    1046: 85 14        	sta	$14                     ; 0x14 <__rc4>
    1048: b2 24        	lda	($24)                   ; 0x24 <__rc20>
    104a: 85 12        	sta	$12                     ; 0x12 <__rc2>
    104c: b1 24        	lda	($24),y                 ; 0x24 <__rc20>
    104e: 85 13        	sta	$13                     ; 0x13 <__rc3>
    1050: b2 24        	lda	($24)                   ; 0x24 <__rc20>
    1052: 85 16        	sta	$16                     ; 0x16 <__rc6>
    1054: b1 24        	lda	($24),y                 ; 0x24 <__rc20>
    1056: 85 15        	sta	$15                     ; 0x15 <__rc5>
    1058: 18           	clc
    1059: a5 16        	lda	$16                     ; 0x16 <__rc6>
    105b: 69 e6        	adc	#$e6
    105d: aa           	tax
    105e: a5 15        	lda	$15                     ; 0x15 <__rc5>
    1060: 69 11        	adc	#$11
    1062: 85 15        	sta	$15                     ; 0x15 <__rc5>
    1064: b1 12        	lda	($12),y                 ; 0x12 <__rc2>
    1066: 86 12        	stx	$12                     ; 0x12 <__rc2>
    1068: a6 15        	ldx	$15                     ; 0x15 <__rc5>
    106a: 86 13        	stx	$13                     ; 0x13 <__rc3>
    106c: 18           	clc
    106d: 72 12        	adc	($12)                   ; 0x12 <__rc2>
    106f: aa           	tax
    1070: a5 14        	lda	$14                     ; 0x14 <__rc4>
    1072: 20 2c 2f     	jsr	$2f2c <textGotoXY>
    1075: a9 20        	lda	#$20
    1077: 92 10        	sta	($10)                   ; 0x10 <__rc0>
    1079: a9 00        	lda	#$0
    107b: a0 01        	ldy	#$1
    107d: 91 10        	sta	($10),y                 ; 0x10 <__rc0>
    107f: a2 60        	ldx	#$60
    1081: 86 12        	stx	$12                     ; 0x12 <__rc2>
    1083: a2 4e        	ldx	#$4e
    1085: 86 13        	stx	$13                     ; 0x13 <__rc3>
    1087: 20 22 43     	jsr	$4322 <printf>
    108a: b2 24        	lda	($24)                   ; 0x24 <__rc20>
    108c: 85 13        	sta	$13                     ; 0x13 <__rc3>
    108e: a0 01        	ldy	#$1
    1090: b1 24        	lda	($24),y                 ; 0x24 <__rc20>
    1092: 85 12        	sta	$12                     ; 0x12 <__rc2>
    1094: 18           	clc
    1095: a5 13        	lda	$13                     ; 0x13 <__rc3>
    1097: 69 e4        	adc	#$e4
    1099: aa           	tax
    109a: a5 12        	lda	$12                     ; 0x12 <__rc2>
    109c: 69 11        	adc	#$11
    109e: 86 12        	stx	$12                     ; 0x12 <__rc2>
    10a0: 85 13        	sta	$13                     ; 0x13 <__rc3>
    10a2: b2 12        	lda	($12)                   ; 0x12 <__rc2>
    10a4: 85 14        	sta	$14                     ; 0x14 <__rc4>
    10a6: b1 12        	lda	($12),y                 ; 0x12 <__rc2>
    10a8: aa           	tax
    10a9: a5 14        	lda	$14                     ; 0x14 <__rc4>
    10ab: 1a           	inc
    10ac: f0 03        	beq	$10b1 <pickFile+0x63e>
    10ae: 4c b5 10     	jmp	$10b5 <pickFile+0x642>
    10b1: e8           	inx
    10b2: 4c b5 10     	jmp	$10b5 <pickFile+0x642>
    10b5: 92 12        	sta	($12)                   ; 0x12 <__rc2>
    10b7: 8a           	txa
    10b8: 91 12        	sta	($12),y                 ; 0x12 <__rc2>
    10ba: b2 24        	lda	($24)                   ; 0x24 <__rc20>
    10bc: 85 13        	sta	$13                     ; 0x13 <__rc3>
    10be: b1 24        	lda	($24),y                 ; 0x24 <__rc20>
    10c0: 85 12        	sta	$12                     ; 0x12 <__rc2>
    10c2: 18           	clc
    10c3: a5 13        	lda	$13                     ; 0x13 <__rc3>
    10c5: 69 e6        	adc	#$e6
    10c7: aa           	tax
    10c8: a5 12        	lda	$12                     ; 0x12 <__rc2>
    10ca: 69 11        	adc	#$11
    10cc: 86 12        	stx	$12                     ; 0x12 <__rc2>
    10ce: 85 13        	sta	$13                     ; 0x13 <__rc3>
    10d0: b2 12        	lda	($12)                   ; 0x12 <__rc2>
    10d2: 85 14        	sta	$14                     ; 0x14 <__rc4>
    10d4: b1 12        	lda	($12),y                 ; 0x12 <__rc2>
    10d6: aa           	tax
    10d7: a5 14        	lda	$14                     ; 0x14 <__rc4>
    10d9: 1a           	inc
    10da: f0 03        	beq	$10df <pickFile+0x66c>
    10dc: 4c e3 10     	jmp	$10e3 <pickFile+0x670>
    10df: e8           	inx
    10e0: 4c e3 10     	jmp	$10e3 <pickFile+0x670>
    10e3: 92 12        	sta	($12)                   ; 0x12 <__rc2>
    10e5: 8a           	txa
    10e6: 91 12        	sta	($12),y                 ; 0x12 <__rc2>
    10e8: b2 24        	lda	($24)                   ; 0x24 <__rc20>
    10ea: 85 12        	sta	$12                     ; 0x12 <__rc2>
    10ec: b1 24        	lda	($24),y                 ; 0x24 <__rc20>
    10ee: 85 13        	sta	$13                     ; 0x13 <__rc3>
    10f0: b2 24        	lda	($24)                   ; 0x24 <__rc20>
    10f2: 85 14        	sta	$14                     ; 0x14 <__rc4>
    10f4: b1 24        	lda	($24),y                 ; 0x24 <__rc20>
    10f6: 85 15        	sta	$15                     ; 0x15 <__rc5>
    10f8: b2 24        	lda	($24)                   ; 0x24 <__rc20>
    10fa: 85 16        	sta	$16                     ; 0x16 <__rc6>
    10fc: b1 24        	lda	($24),y                 ; 0x24 <__rc20>
    10fe: 85 18        	sta	$18                     ; 0x18 <__rc8>
    1100: a0 01        	ldy	#$1
    1102: 18           	clc
    1103: a5 16        	lda	$16                     ; 0x16 <__rc6>
    1105: 69 e6        	adc	#$e6
    1107: 85 17        	sta	$17                     ; 0x17 <__rc7>
    1109: a5 18        	lda	$18                     ; 0x18 <__rc8>
    110b: 69 11        	adc	#$11
    110d: aa           	tax
    110e: b2 12        	lda	($12)                   ; 0x12 <__rc2>
    1110: 85 16        	sta	$16                     ; 0x16 <__rc6>
    1112: a5 17        	lda	$17                     ; 0x17 <__rc7>
    1114: 85 12        	sta	$12                     ; 0x12 <__rc2>
    1116: b1 14        	lda	($14),y                 ; 0x14 <__rc4>
    1118: 86 13        	stx	$13                     ; 0x13 <__rc3>
    111a: 18           	clc
    111b: 72 12        	adc	($12)                   ; 0x12 <__rc2>
    111d: aa           	tax
    111e: a5 16        	lda	$16                     ; 0x16 <__rc6>
    1120: 20 2c 2f     	jsr	$2f2c <textGotoXY>
    1123: a9 fa        	lda	#$fa
    1125: 92 10        	sta	($10)                   ; 0x10 <__rc0>
    1127: a9 00        	lda	#$0
    1129: a0 01        	ldy	#$1
    112b: 91 10        	sta	($10),y                 ; 0x10 <__rc0>
    112d: a2 60        	ldx	#$60
    112f: 86 12        	stx	$12                     ; 0x12 <__rc2>
    1131: a2 4e        	ldx	#$4e
    1133: 86 13        	stx	$13                     ; 0x13 <__rc3>
    1135: 20 22 43     	jsr	$4322 <printf>
    1138: 4c fb 12     	jmp	$12fb <pickFile+0x888>
    113b: 18           	clc
    113c: a5 10        	lda	$10                     ; 0x10 <__rc0>
    113e: 69 07        	adc	#$7
    1140: 85 12        	sta	$12                     ; 0x12 <__rc2>
    1142: a5 11        	lda	$11                     ; 0x11 <__rc1>
    1144: 69 00        	adc	#$0
    1146: 85 13        	sta	$13                     ; 0x13 <__rc3>
    1148: b2 12        	lda	($12)                   ; 0x12 <__rc2>
    114a: 85 14        	sta	$14                     ; 0x14 <__rc4>
    114c: a0 01        	ldy	#$1
    114e: b1 12        	lda	($12),y                 ; 0x12 <__rc2>
    1150: aa           	tax
    1151: 18           	clc
    1152: a5 14        	lda	$14                     ; 0x14 <__rc4>
    1154: 69 e6        	adc	#$e6
    1156: 85 12        	sta	$12                     ; 0x12 <__rc2>
    1158: 8a           	txa
    1159: 69 11        	adc	#$11
    115b: 85 13        	sta	$13                     ; 0x13 <__rc3>
    115d: b2 12        	lda	($12)                   ; 0x12 <__rc2>
    115f: 85 14        	sta	$14                     ; 0x14 <__rc4>
    1161: b1 12        	lda	($12),y                 ; 0x12 <__rc2>
    1163: f0 02        	beq	$1167 <pickFile+0x6f4>
    1165: 80 0f        	bra	$1176 <pickFile+0x703>
    1167: a6 14        	ldx	$14                     ; 0x14 <__rc4>
    1169: e0 0f        	cpx	#$f
    116b: f0 02        	beq	$116f <pickFile+0x6fc>
    116d: 80 02        	bra	$1171 <pickFile+0x6fe>
    116f: 80 03        	bra	$1174 <pickFile+0x701>
    1171: 4c fb 12     	jmp	$12fb <pickFile+0x888>
    1174: 80 03        	bra	$1179 <pickFile+0x706>
    1176: 4c fb 12     	jmp	$12fb <pickFile+0x888>
    1179: 80 00        	bra	$117b <pickFile+0x708>
    117b: 18           	clc
    117c: a5 10        	lda	$10                     ; 0x10 <__rc0>
    117e: 69 07        	adc	#$7
    1180: 85 12        	sta	$12                     ; 0x12 <__rc2>
    1182: a5 11        	lda	$11                     ; 0x11 <__rc1>
    1184: 69 00        	adc	#$0
    1186: 85 13        	sta	$13                     ; 0x13 <__rc3>
    1188: b2 12        	lda	($12)                   ; 0x12 <__rc2>
    118a: 85 14        	sta	$14                     ; 0x14 <__rc4>
    118c: a0 01        	ldy	#$1
    118e: b1 12        	lda	($12),y                 ; 0x12 <__rc2>
    1190: aa           	tax
    1191: 18           	clc
    1192: a5 14        	lda	$14                     ; 0x14 <__rc4>
    1194: 69 e2        	adc	#$e2
    1196: 85 14        	sta	$14                     ; 0x14 <__rc4>
    1198: 8a           	txa
    1199: 69 11        	adc	#$11
    119b: 85 15        	sta	$15                     ; 0x15 <__rc5>
    119d: b2 12        	lda	($12)                   ; 0x12 <__rc2>
    119f: 85 16        	sta	$16                     ; 0x16 <__rc6>
    11a1: b1 12        	lda	($12),y                 ; 0x12 <__rc2>
    11a3: 85 12        	sta	$12                     ; 0x12 <__rc2>
    11a5: 18           	clc
    11a6: a5 16        	lda	$16                     ; 0x16 <__rc6>
    11a8: 69 e4        	adc	#$e4
    11aa: aa           	tax
    11ab: a5 12        	lda	$12                     ; 0x12 <__rc2>
    11ad: 69 11        	adc	#$11
    11af: 86 12        	stx	$12                     ; 0x12 <__rc2>
    11b1: 85 13        	sta	$13                     ; 0x13 <__rc3>
    11b3: b2 12        	lda	($12)                   ; 0x12 <__rc2>
    11b5: 85 16        	sta	$16                     ; 0x16 <__rc6>
    11b7: b1 12        	lda	($12),y                 ; 0x12 <__rc2>
    11b9: aa           	tax
    11ba: a5 16        	lda	$16                     ; 0x16 <__rc6>
    11bc: d2 14        	cmp	($14)                   ; 0x14 <__rc4>
    11be: 8a           	txa
    11bf: f1 14        	sbc	($14),y                 ; 0x14 <__rc4>
    11c1: 70 02        	bvs	$11c5 <pickFile+0x752>
    11c3: 80 04        	bra	$11c9 <pickFile+0x756>
    11c5: 49 80        	eor	#$80
    11c7: 80 02        	bra	$11cb <pickFile+0x758>
    11c9: 80 00        	bra	$11cb <pickFile+0x758>
    11cb: aa           	tax
    11cc: 30 03        	bmi	$11d1 <pickFile+0x75e>
    11ce: 4c fb 12     	jmp	$12fb <pickFile+0x888>
    11d1: 18           	clc
    11d2: a5 10        	lda	$10                     ; 0x10 <__rc0>
    11d4: 69 07        	adc	#$7
    11d6: 85 24        	sta	$24                     ; 0x24 <__rc20>
    11d8: a5 11        	lda	$11                     ; 0x11 <__rc1>
    11da: 69 00        	adc	#$0
    11dc: 85 25        	sta	$25                     ; 0x25 <__rc21>
    11de: b2 24        	lda	($24)                   ; 0x24 <__rc20>
    11e0: 85 12        	sta	$12                     ; 0x12 <__rc2>
    11e2: a0 01        	ldy	#$1
    11e4: b1 24        	lda	($24),y                 ; 0x24 <__rc20>
    11e6: 85 13        	sta	$13                     ; 0x13 <__rc3>
    11e8: b2 12        	lda	($12)                   ; 0x12 <__rc2>
    11ea: 85 14        	sta	$14                     ; 0x14 <__rc4>
    11ec: b2 24        	lda	($24)                   ; 0x24 <__rc20>
    11ee: 85 12        	sta	$12                     ; 0x12 <__rc2>
    11f0: b1 24        	lda	($24),y                 ; 0x24 <__rc20>
    11f2: 85 13        	sta	$13                     ; 0x13 <__rc3>
    11f4: b2 24        	lda	($24)                   ; 0x24 <__rc20>
    11f6: 85 16        	sta	$16                     ; 0x16 <__rc6>
    11f8: b1 24        	lda	($24),y                 ; 0x24 <__rc20>
    11fa: 85 15        	sta	$15                     ; 0x15 <__rc5>
    11fc: 18           	clc
    11fd: a5 16        	lda	$16                     ; 0x16 <__rc6>
    11ff: 69 e6        	adc	#$e6
    1201: aa           	tax
    1202: a5 15        	lda	$15                     ; 0x15 <__rc5>
    1204: 69 11        	adc	#$11
    1206: 85 15        	sta	$15                     ; 0x15 <__rc5>
    1208: b1 12        	lda	($12),y                 ; 0x12 <__rc2>
    120a: 86 12        	stx	$12                     ; 0x12 <__rc2>
    120c: a6 15        	ldx	$15                     ; 0x15 <__rc5>
    120e: 86 13        	stx	$13                     ; 0x13 <__rc3>
    1210: 18           	clc
    1211: 72 12        	adc	($12)                   ; 0x12 <__rc2>
    1213: aa           	tax
    1214: a5 14        	lda	$14                     ; 0x14 <__rc4>
    1216: 20 2c 2f     	jsr	$2f2c <textGotoXY>
    1219: a9 20        	lda	#$20
    121b: 92 10        	sta	($10)                   ; 0x10 <__rc0>
    121d: a9 00        	lda	#$0
    121f: a0 01        	ldy	#$1
    1221: 91 10        	sta	($10),y                 ; 0x10 <__rc0>
    1223: a2 60        	ldx	#$60
    1225: 86 12        	stx	$12                     ; 0x12 <__rc2>
    1227: a2 4e        	ldx	#$4e
    1229: 86 13        	stx	$13                     ; 0x13 <__rc3>
    122b: 20 22 43     	jsr	$4322 <printf>
    122e: b2 24        	lda	($24)                   ; 0x24 <__rc20>
    1230: 85 13        	sta	$13                     ; 0x13 <__rc3>
    1232: a0 01        	ldy	#$1
    1234: b1 24        	lda	($24),y                 ; 0x24 <__rc20>
    1236: 85 12        	sta	$12                     ; 0x12 <__rc2>
    1238: 18           	clc
    1239: a5 13        	lda	$13                     ; 0x13 <__rc3>
    123b: 69 e6        	adc	#$e6
    123d: aa           	tax
    123e: a5 12        	lda	$12                     ; 0x12 <__rc2>
    1240: 69 11        	adc	#$11
    1242: 86 12        	stx	$12                     ; 0x12 <__rc2>
    1244: 85 13        	sta	$13                     ; 0x13 <__rc3>
    1246: a9 00        	lda	#$0
    1248: 92 12        	sta	($12)                   ; 0x12 <__rc2>
    124a: 91 12        	sta	($12),y                 ; 0x12 <__rc2>
    124c: b2 24        	lda	($24)                   ; 0x24 <__rc20>
    124e: 85 13        	sta	$13                     ; 0x13 <__rc3>
    1250: b1 24        	lda	($24),y                 ; 0x24 <__rc20>
    1252: 85 12        	sta	$12                     ; 0x12 <__rc2>
    1254: 18           	clc
    1255: a5 13        	lda	$13                     ; 0x13 <__rc3>
    1257: 69 e8        	adc	#$e8
    1259: aa           	tax
    125a: a5 12        	lda	$12                     ; 0x12 <__rc2>
    125c: 69 11        	adc	#$11
    125e: 86 12        	stx	$12                     ; 0x12 <__rc2>
    1260: 85 13        	sta	$13                     ; 0x13 <__rc3>
    1262: b2 12        	lda	($12)                   ; 0x12 <__rc2>
    1264: 85 15        	sta	$15                     ; 0x15 <__rc5>
    1266: b1 12        	lda	($12),y                 ; 0x12 <__rc2>
    1268: 85 14        	sta	$14                     ; 0x14 <__rc4>
    126a: 18           	clc
    126b: a5 15        	lda	$15                     ; 0x15 <__rc5>
    126d: 69 0f        	adc	#$f
    126f: 85 15        	sta	$15                     ; 0x15 <__rc5>
    1271: a5 14        	lda	$14                     ; 0x14 <__rc4>
    1273: 69 00        	adc	#$0
    1275: aa           	tax
    1276: a5 15        	lda	$15                     ; 0x15 <__rc5>
    1278: 92 12        	sta	($12)                   ; 0x12 <__rc2>
    127a: 8a           	txa
    127b: 91 12        	sta	($12),y                 ; 0x12 <__rc2>
    127d: b2 24        	lda	($24)                   ; 0x24 <__rc20>
    127f: 85 12        	sta	$12                     ; 0x12 <__rc2>
    1281: b1 24        	lda	($24),y                 ; 0x24 <__rc20>
    1283: 85 13        	sta	$13                     ; 0x13 <__rc3>
    1285: b2 24        	lda	($24)                   ; 0x24 <__rc20>
    1287: 85 15        	sta	$15                     ; 0x15 <__rc5>
    1289: b1 24        	lda	($24),y                 ; 0x24 <__rc20>
    128b: 85 14        	sta	$14                     ; 0x14 <__rc4>
    128d: a0 01        	ldy	#$1
    128f: 18           	clc
    1290: a5 15        	lda	$15                     ; 0x15 <__rc5>
    1292: 69 e8        	adc	#$e8
    1294: aa           	tax
    1295: a5 14        	lda	$14                     ; 0x14 <__rc4>
    1297: 69 11        	adc	#$11
    1299: 86 14        	stx	$14                     ; 0x14 <__rc4>
    129b: 85 15        	sta	$15                     ; 0x15 <__rc5>
    129d: b2 14        	lda	($14)                   ; 0x14 <__rc4>
    129f: 85 16        	sta	$16                     ; 0x16 <__rc6>
    12a1: b1 14        	lda	($14),y                 ; 0x14 <__rc4>
    12a3: aa           	tax
    12a4: a5 16        	lda	$16                     ; 0x16 <__rc6>
    12a6: 20 c1 16     	jsr	$16c1 <displayFileList>
    12a9: b2 24        	lda	($24)                   ; 0x24 <__rc20>
    12ab: 85 12        	sta	$12                     ; 0x12 <__rc2>
    12ad: a0 01        	ldy	#$1
    12af: b1 24        	lda	($24),y                 ; 0x24 <__rc20>
    12b1: 85 13        	sta	$13                     ; 0x13 <__rc3>
    12b3: b2 24        	lda	($24)                   ; 0x24 <__rc20>
    12b5: 85 14        	sta	$14                     ; 0x14 <__rc4>
    12b7: b1 24        	lda	($24),y                 ; 0x24 <__rc20>
    12b9: 85 15        	sta	$15                     ; 0x15 <__rc5>
    12bb: b2 24        	lda	($24)                   ; 0x24 <__rc20>
    12bd: 85 16        	sta	$16                     ; 0x16 <__rc6>
    12bf: b1 24        	lda	($24),y                 ; 0x24 <__rc20>
    12c1: 85 18        	sta	$18                     ; 0x18 <__rc8>
    12c3: a0 01        	ldy	#$1
    12c5: 18           	clc
    12c6: a5 16        	lda	$16                     ; 0x16 <__rc6>
    12c8: 69 e6        	adc	#$e6
    12ca: 85 17        	sta	$17                     ; 0x17 <__rc7>
    12cc: a5 18        	lda	$18                     ; 0x18 <__rc8>
    12ce: 69 11        	adc	#$11
    12d0: aa           	tax
    12d1: b2 12        	lda	($12)                   ; 0x12 <__rc2>
    12d3: 85 16        	sta	$16                     ; 0x16 <__rc6>
    12d5: a5 17        	lda	$17                     ; 0x17 <__rc7>
    12d7: 85 12        	sta	$12                     ; 0x12 <__rc2>
    12d9: b1 14        	lda	($14),y                 ; 0x14 <__rc4>
    12db: 86 13        	stx	$13                     ; 0x13 <__rc3>
    12dd: 18           	clc
    12de: 72 12        	adc	($12)                   ; 0x12 <__rc2>
    12e0: aa           	tax
    12e1: a5 16        	lda	$16                     ; 0x16 <__rc6>
    12e3: 20 2c 2f     	jsr	$2f2c <textGotoXY>
    12e6: a9 fa        	lda	#$fa
    12e8: 92 10        	sta	($10)                   ; 0x10 <__rc0>
    12ea: a9 00        	lda	#$0
    12ec: a0 01        	ldy	#$1
    12ee: 91 10        	sta	($10),y                 ; 0x10 <__rc0>
    12f0: a2 60        	ldx	#$60
    12f2: 86 12        	stx	$12                     ; 0x12 <__rc2>
    12f4: a2 4e        	ldx	#$4e
    12f6: 86 13        	stx	$13                     ; 0x13 <__rc3>
    12f8: 20 22 43     	jsr	$4322 <printf>
    12fb: 4c 86 16     	jmp	$1686 <pickFile+0xc13>
    12fe: 18           	clc
    12ff: a5 10        	lda	$10                     ; 0x10 <__rc0>
    1301: 69 07        	adc	#$7
    1303: 85 12        	sta	$12                     ; 0x12 <__rc2>
    1305: a5 11        	lda	$11                     ; 0x11 <__rc1>
    1307: 69 00        	adc	#$0
    1309: 85 13        	sta	$13                     ; 0x13 <__rc3>
    130b: b2 12        	lda	($12)                   ; 0x12 <__rc2>
    130d: 85 14        	sta	$14                     ; 0x14 <__rc4>
    130f: a0 01        	ldy	#$1
    1311: b1 12        	lda	($12),y                 ; 0x12 <__rc2>
    1313: aa           	tax
    1314: 18           	clc
    1315: a5 14        	lda	$14                     ; 0x14 <__rc4>
    1317: 69 e4        	adc	#$e4
    1319: 85 12        	sta	$12                     ; 0x12 <__rc2>
    131b: 8a           	txa
    131c: 69 11        	adc	#$11
    131e: 85 13        	sta	$13                     ; 0x13 <__rc3>
    1320: b2 12        	lda	($12)                   ; 0x12 <__rc2>
    1322: 85 14        	sta	$14                     ; 0x14 <__rc4>
    1324: b1 12        	lda	($12),y                 ; 0x12 <__rc2>
    1326: a6 14        	ldx	$14                     ; 0x14 <__rc4>
    1328: e0 0f        	cpx	#$f
    132a: e9 00        	sbc	#$0
    132c: 70 02        	bvs	$1330 <pickFile+0x8bd>
    132e: 80 04        	bra	$1334 <pickFile+0x8c1>
    1330: 49 80        	eor	#$80
    1332: 80 02        	bra	$1336 <pickFile+0x8c3>
    1334: 80 00        	bra	$1336 <pickFile+0x8c3>
    1336: aa           	tax
    1337: 10 03        	bpl	$133c <pickFile+0x8c9>
    1339: 4c 7b 14     	jmp	$147b <pickFile+0xa08>
    133c: 18           	clc
    133d: a5 10        	lda	$10                     ; 0x10 <__rc0>
    133f: 69 07        	adc	#$7
    1341: 85 24        	sta	$24                     ; 0x24 <__rc20>
    1343: a5 11        	lda	$11                     ; 0x11 <__rc1>
    1345: 69 00        	adc	#$0
    1347: 85 25        	sta	$25                     ; 0x25 <__rc21>
    1349: b2 24        	lda	($24)                   ; 0x24 <__rc20>
    134b: 85 12        	sta	$12                     ; 0x12 <__rc2>
    134d: a0 01        	ldy	#$1
    134f: b1 24        	lda	($24),y                 ; 0x24 <__rc20>
    1351: 85 13        	sta	$13                     ; 0x13 <__rc3>
    1353: b2 12        	lda	($12)                   ; 0x12 <__rc2>
    1355: 85 14        	sta	$14                     ; 0x14 <__rc4>
    1357: b2 24        	lda	($24)                   ; 0x24 <__rc20>
    1359: 85 12        	sta	$12                     ; 0x12 <__rc2>
    135b: b1 24        	lda	($24),y                 ; 0x24 <__rc20>
    135d: 85 13        	sta	$13                     ; 0x13 <__rc3>
    135f: b2 24        	lda	($24)                   ; 0x24 <__rc20>
    1361: 85 16        	sta	$16                     ; 0x16 <__rc6>
    1363: b1 24        	lda	($24),y                 ; 0x24 <__rc20>
    1365: 85 15        	sta	$15                     ; 0x15 <__rc5>
    1367: 18           	clc
    1368: a5 16        	lda	$16                     ; 0x16 <__rc6>
    136a: 69 e6        	adc	#$e6
    136c: aa           	tax
    136d: a5 15        	lda	$15                     ; 0x15 <__rc5>
    136f: 69 11        	adc	#$11
    1371: 85 15        	sta	$15                     ; 0x15 <__rc5>
    1373: b1 12        	lda	($12),y                 ; 0x12 <__rc2>
    1375: 86 12        	stx	$12                     ; 0x12 <__rc2>
    1377: a6 15        	ldx	$15                     ; 0x15 <__rc5>
    1379: 86 13        	stx	$13                     ; 0x13 <__rc3>
    137b: 18           	clc
    137c: 72 12        	adc	($12)                   ; 0x12 <__rc2>
    137e: aa           	tax
    137f: a5 14        	lda	$14                     ; 0x14 <__rc4>
    1381: 20 2c 2f     	jsr	$2f2c <textGotoXY>
    1384: a9 20        	lda	#$20
    1386: 92 10        	sta	($10)                   ; 0x10 <__rc0>
    1388: a9 00        	lda	#$0
    138a: a0 01        	ldy	#$1
    138c: 91 10        	sta	($10),y                 ; 0x10 <__rc0>
    138e: a2 60        	ldx	#$60
    1390: 86 12        	stx	$12                     ; 0x12 <__rc2>
    1392: a2 4e        	ldx	#$4e
    1394: 86 13        	stx	$13                     ; 0x13 <__rc3>
    1396: 20 22 43     	jsr	$4322 <printf>
    1399: b2 24        	lda	($24)                   ; 0x24 <__rc20>
    139b: 85 13        	sta	$13                     ; 0x13 <__rc3>
    139d: a0 01        	ldy	#$1
    139f: b1 24        	lda	($24),y                 ; 0x24 <__rc20>
    13a1: 85 12        	sta	$12                     ; 0x12 <__rc2>
    13a3: 18           	clc
    13a4: a5 13        	lda	$13                     ; 0x13 <__rc3>
    13a6: 69 e4        	adc	#$e4
    13a8: aa           	tax
    13a9: a5 12        	lda	$12                     ; 0x12 <__rc2>
    13ab: 69 11        	adc	#$11
    13ad: 86 12        	stx	$12                     ; 0x12 <__rc2>
    13af: 85 13        	sta	$13                     ; 0x13 <__rc3>
    13b1: b2 12        	lda	($12)                   ; 0x12 <__rc2>
    13b3: 85 15        	sta	$15                     ; 0x15 <__rc5>
    13b5: b1 12        	lda	($12),y                 ; 0x12 <__rc2>
    13b7: 85 14        	sta	$14                     ; 0x14 <__rc4>
    13b9: 18           	clc
    13ba: a5 15        	lda	$15                     ; 0x15 <__rc5>
    13bc: 69 f1        	adc	#$f1
    13be: 85 15        	sta	$15                     ; 0x15 <__rc5>
    13c0: a5 14        	lda	$14                     ; 0x14 <__rc4>
    13c2: 69 ff        	adc	#$ff
    13c4: aa           	tax
    13c5: a5 15        	lda	$15                     ; 0x15 <__rc5>
    13c7: 92 12        	sta	($12)                   ; 0x12 <__rc2>
    13c9: 8a           	txa
    13ca: 91 12        	sta	($12),y                 ; 0x12 <__rc2>
    13cc: b2 24        	lda	($24)                   ; 0x24 <__rc20>
    13ce: 85 13        	sta	$13                     ; 0x13 <__rc3>
    13d0: b1 24        	lda	($24),y                 ; 0x24 <__rc20>
    13d2: 85 12        	sta	$12                     ; 0x12 <__rc2>
    13d4: 18           	clc
    13d5: a5 13        	lda	$13                     ; 0x13 <__rc3>
    13d7: 69 e8        	adc	#$e8
    13d9: aa           	tax
    13da: a5 12        	lda	$12                     ; 0x12 <__rc2>
    13dc: 69 11        	adc	#$11
    13de: 86 12        	stx	$12                     ; 0x12 <__rc2>
    13e0: 85 13        	sta	$13                     ; 0x13 <__rc3>
    13e2: b2 12        	lda	($12)                   ; 0x12 <__rc2>
    13e4: 85 15        	sta	$15                     ; 0x15 <__rc5>
    13e6: b1 12        	lda	($12),y                 ; 0x12 <__rc2>
    13e8: 85 14        	sta	$14                     ; 0x14 <__rc4>
    13ea: 18           	clc
    13eb: a5 15        	lda	$15                     ; 0x15 <__rc5>
    13ed: 69 f1        	adc	#$f1
    13ef: 85 15        	sta	$15                     ; 0x15 <__rc5>
    13f1: a5 14        	lda	$14                     ; 0x14 <__rc4>
    13f3: 69 ff        	adc	#$ff
    13f5: aa           	tax
    13f6: a5 15        	lda	$15                     ; 0x15 <__rc5>
    13f8: 92 12        	sta	($12)                   ; 0x12 <__rc2>
    13fa: 8a           	txa
    13fb: 91 12        	sta	($12),y                 ; 0x12 <__rc2>
    13fd: b2 24        	lda	($24)                   ; 0x24 <__rc20>
    13ff: 85 12        	sta	$12                     ; 0x12 <__rc2>
    1401: b1 24        	lda	($24),y                 ; 0x24 <__rc20>
    1403: 85 13        	sta	$13                     ; 0x13 <__rc3>
    1405: b2 24        	lda	($24)                   ; 0x24 <__rc20>
    1407: 85 15        	sta	$15                     ; 0x15 <__rc5>
    1409: b1 24        	lda	($24),y                 ; 0x24 <__rc20>
    140b: 85 14        	sta	$14                     ; 0x14 <__rc4>
    140d: a0 01        	ldy	#$1
    140f: 18           	clc
    1410: a5 15        	lda	$15                     ; 0x15 <__rc5>
    1412: 69 e8        	adc	#$e8
    1414: aa           	tax
    1415: a5 14        	lda	$14                     ; 0x14 <__rc4>
    1417: 69 11        	adc	#$11
    1419: 86 14        	stx	$14                     ; 0x14 <__rc4>
    141b: 85 15        	sta	$15                     ; 0x15 <__rc5>
    141d: b2 14        	lda	($14)                   ; 0x14 <__rc4>
    141f: 85 16        	sta	$16                     ; 0x16 <__rc6>
    1421: b1 14        	lda	($14),y                 ; 0x14 <__rc4>
    1423: aa           	tax
    1424: a5 16        	lda	$16                     ; 0x16 <__rc6>
    1426: 20 c1 16     	jsr	$16c1 <displayFileList>
    1429: b2 24        	lda	($24)                   ; 0x24 <__rc20>
    142b: 85 12        	sta	$12                     ; 0x12 <__rc2>
    142d: a0 01        	ldy	#$1
    142f: b1 24        	lda	($24),y                 ; 0x24 <__rc20>
    1431: 85 13        	sta	$13                     ; 0x13 <__rc3>
    1433: b2 24        	lda	($24)                   ; 0x24 <__rc20>
    1435: 85 14        	sta	$14                     ; 0x14 <__rc4>
    1437: b1 24        	lda	($24),y                 ; 0x24 <__rc20>
    1439: 85 15        	sta	$15                     ; 0x15 <__rc5>
    143b: b2 24        	lda	($24)                   ; 0x24 <__rc20>
    143d: 85 16        	sta	$16                     ; 0x16 <__rc6>
    143f: b1 24        	lda	($24),y                 ; 0x24 <__rc20>
    1441: 85 18        	sta	$18                     ; 0x18 <__rc8>
    1443: a0 01        	ldy	#$1
    1445: 18           	clc
    1446: a5 16        	lda	$16                     ; 0x16 <__rc6>
    1448: 69 e6        	adc	#$e6
    144a: 85 17        	sta	$17                     ; 0x17 <__rc7>
    144c: a5 18        	lda	$18                     ; 0x18 <__rc8>
    144e: 69 11        	adc	#$11
    1450: aa           	tax
    1451: b2 12        	lda	($12)                   ; 0x12 <__rc2>
    1453: 85 16        	sta	$16                     ; 0x16 <__rc6>
    1455: a5 17        	lda	$17                     ; 0x17 <__rc7>
    1457: 85 12        	sta	$12                     ; 0x12 <__rc2>
    1459: b1 14        	lda	($14),y                 ; 0x14 <__rc4>
    145b: 86 13        	stx	$13                     ; 0x13 <__rc3>
    145d: 18           	clc
    145e: 72 12        	adc	($12)                   ; 0x12 <__rc2>
    1460: aa           	tax
    1461: a5 16        	lda	$16                     ; 0x16 <__rc6>
    1463: 20 2c 2f     	jsr	$2f2c <textGotoXY>
    1466: a9 fa        	lda	#$fa
    1468: 92 10        	sta	($10)                   ; 0x10 <__rc0>
    146a: a9 00        	lda	#$0
    146c: a0 01        	ldy	#$1
    146e: 91 10        	sta	($10),y                 ; 0x10 <__rc0>
    1470: a2 60        	ldx	#$60
    1472: 86 12        	stx	$12                     ; 0x12 <__rc2>
    1474: a2 4e        	ldx	#$4e
    1476: 86 13        	stx	$13                     ; 0x13 <__rc3>
    1478: 20 22 43     	jsr	$4322 <printf>
    147b: 4c 86 16     	jmp	$1686 <pickFile+0xc13>
    147e: 18           	clc
    147f: a5 10        	lda	$10                     ; 0x10 <__rc0>
    1481: 69 07        	adc	#$7
    1483: 85 14        	sta	$14                     ; 0x14 <__rc4>
    1485: a5 11        	lda	$11                     ; 0x11 <__rc1>
    1487: 69 00        	adc	#$0
    1489: 85 15        	sta	$15                     ; 0x15 <__rc5>
    148b: b2 14        	lda	($14)                   ; 0x14 <__rc4>
    148d: 85 12        	sta	$12                     ; 0x12 <__rc2>
    148f: a0 01        	ldy	#$1
    1491: b1 14        	lda	($14),y                 ; 0x14 <__rc4>
    1493: aa           	tax
    1494: 18           	clc
    1495: a5 12        	lda	$12                     ; 0x12 <__rc2>
    1497: 69 e2        	adc	#$e2
    1499: 85 12        	sta	$12                     ; 0x12 <__rc2>
    149b: 8a           	txa
    149c: 69 11        	adc	#$11
    149e: 85 13        	sta	$13                     ; 0x13 <__rc3>
    14a0: b2 14        	lda	($14)                   ; 0x14 <__rc4>
    14a2: 85 17        	sta	$17                     ; 0x17 <__rc7>
    14a4: b1 14        	lda	($14),y                 ; 0x14 <__rc4>
    14a6: 85 16        	sta	$16                     ; 0x16 <__rc6>
    14a8: 18           	clc
    14a9: a5 17        	lda	$17                     ; 0x17 <__rc7>
    14ab: 69 e4        	adc	#$e4
    14ad: aa           	tax
    14ae: a5 16        	lda	$16                     ; 0x16 <__rc6>
    14b0: 69 11        	adc	#$11
    14b2: 86 16        	stx	$16                     ; 0x16 <__rc6>
    14b4: 85 17        	sta	$17                     ; 0x17 <__rc7>
    14b6: b2 16        	lda	($16)                   ; 0x16 <__rc6>
    14b8: 85 18        	sta	$18                     ; 0x18 <__rc8>
    14ba: b2 14        	lda	($14)                   ; 0x14 <__rc4>
    14bc: 85 19        	sta	$19                     ; 0x19 <__rc9>
    14be: b1 14        	lda	($14),y                 ; 0x14 <__rc4>
    14c0: 85 15        	sta	$15                     ; 0x15 <__rc5>
    14c2: 18           	clc
    14c3: a5 19        	lda	$19                     ; 0x19 <__rc9>
    14c5: 69 e6        	adc	#$e6
    14c7: 85 14        	sta	$14                     ; 0x14 <__rc4>
    14c9: a5 15        	lda	$15                     ; 0x15 <__rc5>
    14cb: 69 11        	adc	#$11
    14cd: 85 15        	sta	$15                     ; 0x15 <__rc5>
    14cf: b1 16        	lda	($16),y                 ; 0x16 <__rc6>
    14d1: 85 17        	sta	$17                     ; 0x17 <__rc7>
    14d3: 38           	sec
    14d4: a5 18        	lda	$18                     ; 0x18 <__rc8>
    14d6: f2 14        	sbc	($14)                   ; 0x14 <__rc4>
    14d8: 85 16        	sta	$16                     ; 0x16 <__rc6>
    14da: a5 17        	lda	$17                     ; 0x17 <__rc7>
    14dc: f1 14        	sbc	($14),y                 ; 0x14 <__rc4>
    14de: 85 15        	sta	$15                     ; 0x15 <__rc5>
    14e0: 18           	clc
    14e1: a5 16        	lda	$16                     ; 0x16 <__rc6>
    14e3: 69 10        	adc	#$10
    14e5: 85 14        	sta	$14                     ; 0x14 <__rc4>
    14e7: a5 15        	lda	$15                     ; 0x15 <__rc5>
    14e9: 69 00        	adc	#$0
    14eb: aa           	tax
    14ec: a5 14        	lda	$14                     ; 0x14 <__rc4>
    14ee: d2 12        	cmp	($12)                   ; 0x12 <__rc2>
    14f0: 8a           	txa
    14f1: f1 12        	sbc	($12),y                 ; 0x12 <__rc2>
    14f3: 70 02        	bvs	$14f7 <pickFile+0xa84>
    14f5: 80 04        	bra	$14fb <pickFile+0xa88>
    14f7: 49 80        	eor	#$80
    14f9: 80 02        	bra	$14fd <pickFile+0xa8a>
    14fb: 80 00        	bra	$14fd <pickFile+0xa8a>
    14fd: aa           	tax
    14fe: 30 03        	bmi	$1503 <pickFile+0xa90>
    1500: 4c 86 16     	jmp	$1686 <pickFile+0xc13>
    1503: 18           	clc
    1504: a5 10        	lda	$10                     ; 0x10 <__rc0>
    1506: 69 07        	adc	#$7
    1508: 85 24        	sta	$24                     ; 0x24 <__rc20>
    150a: a5 11        	lda	$11                     ; 0x11 <__rc1>
    150c: 69 00        	adc	#$0
    150e: 85 25        	sta	$25                     ; 0x25 <__rc21>
    1510: b2 24        	lda	($24)                   ; 0x24 <__rc20>
    1512: 85 12        	sta	$12                     ; 0x12 <__rc2>
    1514: a0 01        	ldy	#$1
    1516: b1 24        	lda	($24),y                 ; 0x24 <__rc20>
    1518: 85 13        	sta	$13                     ; 0x13 <__rc3>
    151a: b2 12        	lda	($12)                   ; 0x12 <__rc2>
    151c: 85 14        	sta	$14                     ; 0x14 <__rc4>
    151e: b2 24        	lda	($24)                   ; 0x24 <__rc20>
    1520: 85 12        	sta	$12                     ; 0x12 <__rc2>
    1522: b1 24        	lda	($24),y                 ; 0x24 <__rc20>
    1524: 85 13        	sta	$13                     ; 0x13 <__rc3>
    1526: b2 24        	lda	($24)                   ; 0x24 <__rc20>
    1528: 85 16        	sta	$16                     ; 0x16 <__rc6>
    152a: b1 24        	lda	($24),y                 ; 0x24 <__rc20>
    152c: 85 15        	sta	$15                     ; 0x15 <__rc5>
    152e: 18           	clc
    152f: a5 16        	lda	$16                     ; 0x16 <__rc6>
    1531: 69 e6        	adc	#$e6
    1533: aa           	tax
    1534: a5 15        	lda	$15                     ; 0x15 <__rc5>
    1536: 69 11        	adc	#$11
    1538: 85 15        	sta	$15                     ; 0x15 <__rc5>
    153a: b1 12        	lda	($12),y                 ; 0x12 <__rc2>
    153c: 86 12        	stx	$12                     ; 0x12 <__rc2>
    153e: a6 15        	ldx	$15                     ; 0x15 <__rc5>
    1540: 86 13        	stx	$13                     ; 0x13 <__rc3>
    1542: 18           	clc
    1543: 72 12        	adc	($12)                   ; 0x12 <__rc2>
    1545: aa           	tax
    1546: a5 14        	lda	$14                     ; 0x14 <__rc4>
    1548: 20 2c 2f     	jsr	$2f2c <textGotoXY>
    154b: a9 20        	lda	#$20
    154d: 92 10        	sta	($10)                   ; 0x10 <__rc0>
    154f: a9 00        	lda	#$0
    1551: a0 01        	ldy	#$1
    1553: 91 10        	sta	($10),y                 ; 0x10 <__rc0>
    1555: a2 60        	ldx	#$60
    1557: 86 12        	stx	$12                     ; 0x12 <__rc2>
    1559: a2 4e        	ldx	#$4e
    155b: 86 13        	stx	$13                     ; 0x13 <__rc3>
    155d: 20 22 43     	jsr	$4322 <printf>
    1560: b2 24        	lda	($24)                   ; 0x24 <__rc20>
    1562: 85 13        	sta	$13                     ; 0x13 <__rc3>
    1564: a0 01        	ldy	#$1
    1566: b1 24        	lda	($24),y                 ; 0x24 <__rc20>
    1568: 85 12        	sta	$12                     ; 0x12 <__rc2>
    156a: 18           	clc
    156b: a5 13        	lda	$13                     ; 0x13 <__rc3>
    156d: 69 e6        	adc	#$e6
    156f: aa           	tax
    1570: a5 12        	lda	$12                     ; 0x12 <__rc2>
    1572: 69 11        	adc	#$11
    1574: 86 12        	stx	$12                     ; 0x12 <__rc2>
    1576: 85 13        	sta	$13                     ; 0x13 <__rc3>
    1578: 38           	sec
    1579: a9 0f        	lda	#$f
    157b: f2 12        	sbc	($12)                   ; 0x12 <__rc2>
    157d: aa           	tax
    157e: a9 00        	lda	#$0
    1580: f1 12        	sbc	($12),y                 ; 0x12 <__rc2>
    1582: 85 15        	sta	$15                     ; 0x15 <__rc5>
    1584: b2 24        	lda	($24)                   ; 0x24 <__rc20>
    1586: 85 13        	sta	$13                     ; 0x13 <__rc3>
    1588: b1 24        	lda	($24),y                 ; 0x24 <__rc20>
    158a: 85 12        	sta	$12                     ; 0x12 <__rc2>
    158c: 18           	clc
    158d: a5 13        	lda	$13                     ; 0x13 <__rc3>
    158f: 69 e4        	adc	#$e4
    1591: 85 14        	sta	$14                     ; 0x14 <__rc4>
    1593: a5 12        	lda	$12                     ; 0x12 <__rc2>
    1595: 69 11        	adc	#$11
    1597: 5a           	phy
    1598: a4 14        	ldy	$14                     ; 0x14 <__rc4>
    159a: 84 12        	sty	$12                     ; 0x12 <__rc2>
    159c: 7a           	ply
    159d: 85 13        	sta	$13                     ; 0x13 <__rc3>
    159f: 18           	clc
    15a0: 8a           	txa
    15a1: 72 12        	adc	($12)                   ; 0x12 <__rc2>
    15a3: 85 14        	sta	$14                     ; 0x14 <__rc4>
    15a5: a5 15        	lda	$15                     ; 0x15 <__rc5>
    15a7: 71 12        	adc	($12),y                 ; 0x12 <__rc2>
    15a9: 85 15        	sta	$15                     ; 0x15 <__rc5>
    15ab: a5 14        	lda	$14                     ; 0x14 <__rc4>
    15ad: 92 12        	sta	($12)                   ; 0x12 <__rc2>
    15af: a5 15        	lda	$15                     ; 0x15 <__rc5>
    15b1: 91 12        	sta	($12),y                 ; 0x12 <__rc2>
    15b3: b2 24        	lda	($24)                   ; 0x24 <__rc20>
    15b5: 85 13        	sta	$13                     ; 0x13 <__rc3>
    15b7: b1 24        	lda	($24),y                 ; 0x24 <__rc20>
    15b9: 85 12        	sta	$12                     ; 0x12 <__rc2>
    15bb: 18           	clc
    15bc: a5 13        	lda	$13                     ; 0x13 <__rc3>
    15be: 69 e6        	adc	#$e6
    15c0: aa           	tax
    15c1: a5 12        	lda	$12                     ; 0x12 <__rc2>
    15c3: 69 11        	adc	#$11
    15c5: 86 12        	stx	$12                     ; 0x12 <__rc2>
    15c7: 85 13        	sta	$13                     ; 0x13 <__rc3>
    15c9: a9 00        	lda	#$0
    15cb: 92 12        	sta	($12)                   ; 0x12 <__rc2>
    15cd: 91 12        	sta	($12),y                 ; 0x12 <__rc2>
    15cf: b2 24        	lda	($24)                   ; 0x24 <__rc20>
    15d1: 85 13        	sta	$13                     ; 0x13 <__rc3>
    15d3: b1 24        	lda	($24),y                 ; 0x24 <__rc20>
    15d5: 85 12        	sta	$12                     ; 0x12 <__rc2>
    15d7: 18           	clc
    15d8: a5 13        	lda	$13                     ; 0x13 <__rc3>
    15da: 69 e8        	adc	#$e8
    15dc: aa           	tax
    15dd: a5 12        	lda	$12                     ; 0x12 <__rc2>
    15df: 69 11        	adc	#$11
    15e1: 86 12        	stx	$12                     ; 0x12 <__rc2>
    15e3: 85 13        	sta	$13                     ; 0x13 <__rc3>
    15e5: b2 12        	lda	($12)                   ; 0x12 <__rc2>
    15e7: 85 15        	sta	$15                     ; 0x15 <__rc5>
    15e9: b1 12        	lda	($12),y                 ; 0x12 <__rc2>
    15eb: 85 14        	sta	$14                     ; 0x14 <__rc4>
    15ed: 18           	clc
    15ee: a5 15        	lda	$15                     ; 0x15 <__rc5>
    15f0: 69 0f        	adc	#$f
    15f2: 85 15        	sta	$15                     ; 0x15 <__rc5>
    15f4: a5 14        	lda	$14                     ; 0x14 <__rc4>
    15f6: 69 00        	adc	#$0
    15f8: aa           	tax
    15f9: a5 15        	lda	$15                     ; 0x15 <__rc5>
    15fb: 92 12        	sta	($12)                   ; 0x12 <__rc2>
    15fd: 8a           	txa
    15fe: 91 12        	sta	($12),y                 ; 0x12 <__rc2>
    1600: b2 24        	lda	($24)                   ; 0x24 <__rc20>
    1602: 85 12        	sta	$12                     ; 0x12 <__rc2>
    1604: b1 24        	lda	($24),y                 ; 0x24 <__rc20>
    1606: 85 13        	sta	$13                     ; 0x13 <__rc3>
    1608: b2 24        	lda	($24)                   ; 0x24 <__rc20>
    160a: 85 15        	sta	$15                     ; 0x15 <__rc5>
    160c: b1 24        	lda	($24),y                 ; 0x24 <__rc20>
    160e: 85 14        	sta	$14                     ; 0x14 <__rc4>
    1610: a0 01        	ldy	#$1
    1612: 18           	clc
    1613: a5 15        	lda	$15                     ; 0x15 <__rc5>
    1615: 69 e8        	adc	#$e8
    1617: aa           	tax
    1618: a5 14        	lda	$14                     ; 0x14 <__rc4>
    161a: 69 11        	adc	#$11
    161c: 86 14        	stx	$14                     ; 0x14 <__rc4>
    161e: 85 15        	sta	$15                     ; 0x15 <__rc5>
    1620: b2 14        	lda	($14)                   ; 0x14 <__rc4>
    1622: 85 16        	sta	$16                     ; 0x16 <__rc6>
    1624: b1 14        	lda	($14),y                 ; 0x14 <__rc4>
    1626: aa           	tax
    1627: a5 16        	lda	$16                     ; 0x16 <__rc6>
    1629: 20 c1 16     	jsr	$16c1 <displayFileList>
    162c: b2 24        	lda	($24)                   ; 0x24 <__rc20>
    162e: 85 12        	sta	$12                     ; 0x12 <__rc2>
    1630: a0 01        	ldy	#$1
    1632: b1 24        	lda	($24),y                 ; 0x24 <__rc20>
    1634: 85 13        	sta	$13                     ; 0x13 <__rc3>
    1636: b2 24        	lda	($24)                   ; 0x24 <__rc20>
    1638: 85 14        	sta	$14                     ; 0x14 <__rc4>
    163a: b1 24        	lda	($24),y                 ; 0x24 <__rc20>
    163c: 85 15        	sta	$15                     ; 0x15 <__rc5>
    163e: b2 24        	lda	($24)                   ; 0x24 <__rc20>
    1640: 85 16        	sta	$16                     ; 0x16 <__rc6>
    1642: b1 24        	lda	($24),y                 ; 0x24 <__rc20>
    1644: 85 18        	sta	$18                     ; 0x18 <__rc8>
    1646: a0 01        	ldy	#$1
    1648: a2 08        	ldx	#$8
    164a: 86 26        	stx	$26                     ; 0x26 <__rc22>
    164c: a2 00        	ldx	#$0
    164e: 86 27        	stx	$27                     ; 0x27 <__rc23>
    1650: 18           	clc
    1651: a5 16        	lda	$16                     ; 0x16 <__rc6>
    1653: 69 e6        	adc	#$e6
    1655: 85 17        	sta	$17                     ; 0x17 <__rc7>
    1657: a5 18        	lda	$18                     ; 0x18 <__rc8>
    1659: 69 11        	adc	#$11
    165b: aa           	tax
    165c: b2 12        	lda	($12)                   ; 0x12 <__rc2>
    165e: 85 16        	sta	$16                     ; 0x16 <__rc6>
    1660: a5 17        	lda	$17                     ; 0x17 <__rc7>
    1662: 85 12        	sta	$12                     ; 0x12 <__rc2>
    1664: b1 14        	lda	($14),y                 ; 0x14 <__rc4>
    1666: 86 13        	stx	$13                     ; 0x13 <__rc3>
    1668: 18           	clc
    1669: 72 12        	adc	($12)                   ; 0x12 <__rc2>
    166b: aa           	tax
    166c: a5 16        	lda	$16                     ; 0x16 <__rc6>
    166e: 20 2c 2f     	jsr	$2f2c <textGotoXY>
    1671: a9 fa        	lda	#$fa
    1673: 92 10        	sta	($10)                   ; 0x10 <__rc0>
    1675: a9 00        	lda	#$0
    1677: a0 01        	ldy	#$1
    1679: 91 10        	sta	($10),y                 ; 0x10 <__rc0>
    167b: a2 60        	ldx	#$60
    167d: 86 12        	stx	$12                     ; 0x12 <__rc2>
    167f: a2 4e        	ldx	#$4e
    1681: 86 13        	stx	$13                     ; 0x13 <__rc3>
    1683: 20 22 43     	jsr	$4322 <printf>
    1686: 4c b8 0a     	jmp	$ab8 <pickFile+0x45>
    1689: 18           	clc
    168a: a5 10        	lda	$10                     ; 0x10 <__rc0>
    168c: 69 09        	adc	#$9
    168e: 85 12        	sta	$12                     ; 0x12 <__rc2>
    1690: a5 11        	lda	$11                     ; 0x11 <__rc1>
    1692: 69 00        	adc	#$0
    1694: 85 13        	sta	$13                     ; 0x13 <__rc3>
    1696: b2 12        	lda	($12)                   ; 0x12 <__rc2>
    1698: 85 20        	sta	$20                     ; 0x20 <__rc16>
    169a: a0 02        	ldy	#$2
    169c: b1 10        	lda	($10),y                 ; 0x10 <__rc0>
    169e: 85 29        	sta	$29                     ; 0x29 <__rc25>
    16a0: c8           	iny
    16a1: b1 10        	lda	($10),y                 ; 0x10 <__rc0>
    16a3: 85 28        	sta	$28                     ; 0x28 <__rc24>
    16a5: fa           	plx
    16a6: 86 27        	stx	$27                     ; 0x27 <__rc23>
    16a8: fa           	plx
    16a9: 86 26        	stx	$26                     ; 0x26 <__rc22>
    16ab: fa           	plx
    16ac: 86 25        	stx	$25                     ; 0x25 <__rc21>
    16ae: fa           	plx
    16af: 86 24        	stx	$24                     ; 0x24 <__rc20>
    16b1: 18           	clc
    16b2: a5 10        	lda	$10                     ; 0x10 <__rc0>
    16b4: 69 0a        	adc	#$a
    16b6: 85 10        	sta	$10                     ; 0x10 <__rc0>
    16b8: a5 11        	lda	$11                     ; 0x11 <__rc1>
    16ba: 69 00        	adc	#$0
    16bc: 85 11        	sta	$11                     ; 0x11 <__rc1>
    16be: a5 20        	lda	$20                     ; 0x20 <__rc16>
    16c0: 60           	rts

000016c1 <displayFileList>:
    16c1: 48           	pha
    16c2: 18           	clc
    16c3: a5 10        	lda	$10                     ; 0x10 <__rc0>
    16c5: 69 eb        	adc	#$eb
    16c7: 85 10        	sta	$10                     ; 0x10 <__rc0>
    16c9: a5 11        	lda	$11                     ; 0x11 <__rc1>
    16cb: 69 ff        	adc	#$ff
    16cd: 85 11        	sta	$11                     ; 0x11 <__rc1>
    16cf: 68           	pla
    16d0: a4 24        	ldy	$24                     ; 0x24 <__rc20>
    16d2: 5a           	phy
    16d3: a4 25        	ldy	$25                     ; 0x25 <__rc21>
    16d5: 5a           	phy
    16d6: a4 26        	ldy	$26                     ; 0x26 <__rc22>
    16d8: 5a           	phy
    16d9: a4 27        	ldy	$27                     ; 0x27 <__rc23>
    16db: 5a           	phy
    16dc: 48           	pha
    16dd: a5 28        	lda	$28                     ; 0x28 <__rc24>
    16df: a0 0d        	ldy	#$d
    16e1: 91 10        	sta	($10),y                 ; 0x10 <__rc0>
    16e3: a5 29        	lda	$29                     ; 0x29 <__rc25>
    16e5: 88           	dey
    16e6: 91 10        	sta	($10),y                 ; 0x10 <__rc0>
    16e8: a5 2a        	lda	$2a                     ; 0x2a <__rc26>
    16ea: 88           	dey
    16eb: 91 10        	sta	($10),y                 ; 0x10 <__rc0>
    16ed: a5 2b        	lda	$2b                     ; 0x2b <__rc27>
    16ef: 88           	dey
    16f0: 91 10        	sta	($10),y                 ; 0x10 <__rc0>
    16f2: a5 2c        	lda	$2c                     ; 0x2c <__rc28>
    16f4: 88           	dey
    16f5: 91 10        	sta	($10),y                 ; 0x10 <__rc0>
    16f7: a5 2d        	lda	$2d                     ; 0x2d <__rc29>
    16f9: 88           	dey
    16fa: 91 10        	sta	($10),y                 ; 0x10 <__rc0>
    16fc: a5 2e        	lda	$2e                     ; 0x2e <__rc30>
    16fe: 88           	dey
    16ff: 91 10        	sta	($10),y                 ; 0x10 <__rc0>
    1701: a5 2f        	lda	$2f                     ; 0x2f <__rc31>
    1703: 88           	dey
    1704: 91 10        	sta	($10),y                 ; 0x10 <__rc0>
    1706: 68           	pla
    1707: 85 14        	sta	$14                     ; 0x14 <__rc4>
    1709: 86 2a        	stx	$2a                     ; 0x2a <__rc26>
    170b: a4 12        	ldy	$12                     ; 0x12 <__rc2>
    170d: 84 24        	sty	$24                     ; 0x24 <__rc20>
    170f: a4 13        	ldy	$13                     ; 0x13 <__rc3>
    1711: 84 25        	sty	$25                     ; 0x25 <__rc21>
    1713: 18           	clc
    1714: 69 10        	adc	#$10
    1716: 85 15        	sta	$15                     ; 0x15 <__rc5>
    1718: 8a           	txa
    1719: 69 00        	adc	#$0
    171b: 85 18        	sta	$18                     ; 0x18 <__rc8>
    171d: a5 24        	lda	$24                     ; 0x24 <__rc20>
    171f: 18           	clc
    1720: 69 e2        	adc	#$e2
    1722: 85 16        	sta	$16                     ; 0x16 <__rc6>
    1724: a5 25        	lda	$25                     ; 0x25 <__rc21>
    1726: 69 11        	adc	#$11
    1728: 86 26        	stx	$26                     ; 0x26 <__rc22>
    172a: 48           	pha
    172b: a5 14        	lda	$14                     ; 0x14 <__rc4>
    172d: a0 12        	ldy	#$12
    172f: 91 10        	sta	($10),y                 ; 0x10 <__rc0>
    1731: 68           	pla
    1732: a6 14        	ldx	$14                     ; 0x14 <__rc4>
    1734: e8           	inx
    1735: d0 02        	bne	$1739 <displayFileList+0x78>
    1737: e6 26        	inc	$26                     ; 0x26 <__rc22>
    1739: 85 17        	sta	$17                     ; 0x17 <__rc7>
    173b: a0 01        	ldy	#$1
    173d: b1 16        	lda	($16),y                 ; 0x16 <__rc6>
    173f: 85 12        	sta	$12                     ; 0x12 <__rc2>
    1741: a5 15        	lda	$15                     ; 0x15 <__rc5>
    1743: a0 14        	ldy	#$14
    1745: 91 10        	sta	($10),y                 ; 0x10 <__rc0>
    1747: d2 16        	cmp	($16)                   ; 0x16 <__rc6>
    1749: a5 18        	lda	$18                     ; 0x18 <__rc8>
    174b: 88           	dey
    174c: 91 10        	sta	($10),y                 ; 0x10 <__rc0>
    174e: e5 12        	sbc	$12                     ; 0x12 <__rc2>
    1750: 86 27        	stx	$27                     ; 0x27 <__rc23>
    1752: 50 02        	bvc	$1756 <displayFileList+0x95>
    1754: 49 80        	eor	#$80
    1756: aa           	tax
    1757: 30 0b        	bmi	$1764 <displayFileList+0xa3>
    1759: b2 16        	lda	($16)                   ; 0x16 <__rc6>
    175b: a0 14        	ldy	#$14
    175d: 91 10        	sta	($10),y                 ; 0x10 <__rc0>
    175f: a5 12        	lda	$12                     ; 0x12 <__rc2>
    1761: 88           	dey
    1762: 91 10        	sta	($10),y                 ; 0x10 <__rc0>
    1764: a5 16        	lda	$16                     ; 0x16 <__rc6>
    1766: a0 10        	ldy	#$10
    1768: 91 10        	sta	($10),y                 ; 0x10 <__rc0>
    176a: a5 17        	lda	$17                     ; 0x17 <__rc7>
    176c: c8           	iny
    176d: 91 10        	sta	($10),y                 ; 0x10 <__rc0>
    176f: b2 24        	lda	($24)                   ; 0x24 <__rc20>
    1771: 85 12        	sta	$12                     ; 0x12 <__rc2>
    1773: a0 01        	ldy	#$1
    1775: b1 24        	lda	($24),y                 ; 0x24 <__rc20>
    1777: aa           	tax
    1778: a5 12        	lda	$12                     ; 0x12 <__rc2>
    177a: 20 2c 2f     	jsr	$2f2c <textGotoXY>
    177d: a2 00        	ldx	#$0
    177f: a0 00        	ldy	#$0
    1781: 80 14        	bra	$1797 <displayFileList+0xd6>
    1783: e4 12        	cpx	$12                     ; 0x12 <__rc2>
    1785: a5 29        	lda	$29                     ; 0x29 <__rc25>
    1787: 90 14        	bcc	$179d <displayFileList+0xdc>
    1789: a9 0a        	lda	#$a
    178b: 20 62 46     	jsr	$4662 <putchar>
    178e: a2 00        	ldx	#$0
    1790: a4 28        	ldy	$28                     ; 0x28 <__rc24>
    1792: c8           	iny
    1793: c0 11        	cpy	#$11
    1795: f0 2c        	beq	$17c3 <displayFileList+0x102>
    1797: 84 28        	sty	$28                     ; 0x28 <__rc24>
    1799: a0 01        	ldy	#$1
    179b: b1 24        	lda	($24),y                 ; 0x24 <__rc20>
    179d: 1a           	inc
    179e: 85 29        	sta	$29                     ; 0x29 <__rc25>
    17a0: a9 20        	lda	#$20
    17a2: 20 62 46     	jsr	$4662 <putchar>
    17a5: a0 01        	ldy	#$1
    17a7: b1 24        	lda	($24),y                 ; 0x24 <__rc20>
    17a9: 18           	clc
    17aa: 69 2c        	adc	#$2c
    17ac: a8           	tay
    17ad: a9 00        	lda	#$0
    17af: 69 00        	adc	#$0
    17b1: 85 12        	sta	$12                     ; 0x12 <__rc2>
    17b3: a2 00        	ldx	#$0
    17b5: e4 12        	cpx	$12                     ; 0x12 <__rc2>
    17b7: d0 ca        	bne	$1783 <displayFileList+0xc2>
    17b9: 84 12        	sty	$12                     ; 0x12 <__rc2>
    17bb: a5 29        	lda	$29                     ; 0x29 <__rc25>
    17bd: c5 12        	cmp	$12                     ; 0x12 <__rc2>
    17bf: 90 dc        	bcc	$179d <displayFileList+0xdc>
    17c1: 80 c6        	bra	$1789 <displayFileList+0xc8>
    17c3: b2 24        	lda	($24)                   ; 0x24 <__rc20>
    17c5: 85 12        	sta	$12                     ; 0x12 <__rc2>
    17c7: a0 01        	ldy	#$1
    17c9: b1 24        	lda	($24),y                 ; 0x24 <__rc20>
    17cb: aa           	tax
    17cc: a5 12        	lda	$12                     ; 0x12 <__rc2>
    17ce: 20 2c 2f     	jsr	$2f2c <textGotoXY>
    17d1: a5 24        	lda	$24                     ; 0x24 <__rc20>
    17d3: 18           	clc
    17d4: 69 e6        	adc	#$e6
    17d6: 85 14        	sta	$14                     ; 0x14 <__rc4>
    17d8: a5 25        	lda	$25                     ; 0x25 <__rc21>
    17da: 69 11        	adc	#$11
    17dc: 85 15        	sta	$15                     ; 0x15 <__rc5>
    17de: b2 14        	lda	($14)                   ; 0x14 <__rc4>
    17e0: 85 16        	sta	$16                     ; 0x16 <__rc6>
    17e2: a5 14        	lda	$14                     ; 0x14 <__rc4>
    17e4: a0 0e        	ldy	#$e
    17e6: 91 10        	sta	($10),y                 ; 0x10 <__rc0>
    17e8: a5 15        	lda	$15                     ; 0x15 <__rc5>
    17ea: c8           	iny
    17eb: 91 10        	sta	($10),y                 ; 0x10 <__rc0>
    17ed: a0 01        	ldy	#$1
    17ef: b1 14        	lda	($14),y                 ; 0x14 <__rc4>
    17f1: 64 14        	stz	$14                     ; 0x14 <__rc4>
    17f3: d0 07        	bne	$17fc <displayFileList+0x13b>
    17f5: a5 16        	lda	$16                     ; 0x16 <__rc6>
    17f7: d0 03        	bne	$17fc <displayFileList+0x13b>
    17f9: 4c a6 1a     	jmp	$1aa6 <displayFileList+0x3e5>
    17fc: a0 20        	ldy	#$20
    17fe: a5 24        	lda	$24                     ; 0x24 <__rc20>
    1800: 18           	clc
    1801: 69 4e        	adc	#$4e
    1803: 85 15        	sta	$15                     ; 0x15 <__rc5>
    1805: a5 25        	lda	$25                     ; 0x25 <__rc21>
    1807: 69 00        	adc	#$0
    1809: 85 16        	sta	$16                     ; 0x16 <__rc6>
    180b: 18           	clc
    180c: a5 24        	lda	$24                     ; 0x24 <__rc20>
    180e: 69 7e        	adc	#$7e
    1810: aa           	tax
    1811: a5 25        	lda	$25                     ; 0x25 <__rc21>
    1813: 69 11        	adc	#$11
    1815: 86 12        	stx	$12                     ; 0x12 <__rc2>
    1817: 85 13        	sta	$13                     ; 0x13 <__rc3>
    1819: b2 12        	lda	($12)                   ; 0x12 <__rc2>
    181b: 29 01        	and	#$1
    181d: a2 e9        	ldx	#$e9
    181f: 86 12        	stx	$12                     ; 0x12 <__rc2>
    1821: a2 4d        	ldx	#$4d
    1823: 86 13        	stx	$13                     ; 0x13 <__rc3>
    1825: aa           	tax
    1826: d0 08        	bne	$1830 <displayFileList+0x16f>
    1828: a2 8d        	ldx	#$8d
    182a: 86 12        	stx	$12                     ; 0x12 <__rc2>
    182c: a2 4d        	ldx	#$4d
    182e: 86 13        	stx	$13                     ; 0x13 <__rc3>
    1830: a6 10        	ldx	$10                     ; 0x10 <__rc0>
    1832: 98           	tya
    1833: 92 10        	sta	($10)                   ; 0x10 <__rc0>
    1835: a0 01        	ldy	#$1
    1837: a9 00        	lda	#$0
    1839: 91 10        	sta	($10),y                 ; 0x10 <__rc0>
    183b: c8           	iny
    183c: a5 15        	lda	$15                     ; 0x15 <__rc5>
    183e: 91 10        	sta	($10),y                 ; 0x10 <__rc0>
    1840: 18           	clc
    1841: 8a           	txa
    1842: 69 02        	adc	#$2
    1844: 85 14        	sta	$14                     ; 0x14 <__rc4>
    1846: a5 11        	lda	$11                     ; 0x11 <__rc1>
    1848: 69 00        	adc	#$0
    184a: 18           	clc
    184b: 85 15        	sta	$15                     ; 0x15 <__rc5>
    184d: a5 16        	lda	$16                     ; 0x16 <__rc6>
    184f: 88           	dey
    1850: 91 14        	sta	($14),y                 ; 0x14 <__rc4>
    1852: 8a           	txa
    1853: 69 04        	adc	#$4
    1855: 85 14        	sta	$14                     ; 0x14 <__rc4>
    1857: a5 11        	lda	$11                     ; 0x11 <__rc1>
    1859: 69 00        	adc	#$0
    185b: 85 15        	sta	$15                     ; 0x15 <__rc5>
    185d: a5 12        	lda	$12                     ; 0x12 <__rc2>
    185f: a0 04        	ldy	#$4
    1861: 91 10        	sta	($10),y                 ; 0x10 <__rc0>
    1863: a0 01        	ldy	#$1
    1865: a5 13        	lda	$13                     ; 0x13 <__rc3>
    1867: 91 14        	sta	($14),y                 ; 0x14 <__rc4>
    1869: a2 8f        	ldx	#$8f
    186b: 86 12        	stx	$12                     ; 0x12 <__rc2>
    186d: a2 4e        	ldx	#$4e
    186f: 86 13        	stx	$13                     ; 0x13 <__rc3>
    1871: 20 22 43     	jsr	$4322 <printf>
    1874: a0 14        	ldy	#$14
    1876: b1 10        	lda	($10),y                 ; 0x10 <__rc0>
    1878: 85 12        	sta	$12                     ; 0x12 <__rc2>
    187a: a6 27        	ldx	$27                     ; 0x27 <__rc23>
    187c: e4 12        	cpx	$12                     ; 0x12 <__rc2>
    187e: 88           	dey
    187f: b1 10        	lda	($10),y                 ; 0x10 <__rc0>
    1881: 85 12        	sta	$12                     ; 0x12 <__rc2>
    1883: a5 26        	lda	$26                     ; 0x26 <__rc22>
    1885: e5 12        	sbc	$12                     ; 0x12 <__rc2>
    1887: 50 02        	bvc	$188b <displayFileList+0x1ca>
    1889: 49 80        	eor	#$80
    188b: aa           	tax
    188c: 30 03        	bmi	$1891 <displayFileList+0x1d0>
    188e: 4c a1 19     	jmp	$19a1 <displayFileList+0x2e0>
    1891: a5 24        	lda	$24                     ; 0x24 <__rc20>
    1893: 18           	clc
    1894: 69 e4        	adc	#$e4
    1896: 85 2c        	sta	$2c                     ; 0x2c <__rc28>
    1898: a5 25        	lda	$25                     ; 0x25 <__rc21>
    189a: 69 11        	adc	#$11
    189c: 85 2d        	sta	$2d                     ; 0x2d <__rc29>
    189e: a0 12        	ldy	#$12
    18a0: b1 10        	lda	($10),y                 ; 0x10 <__rc0>
    18a2: a8           	tay
    18a3: 85 12        	sta	$12                     ; 0x12 <__rc2>
    18a5: a5 24        	lda	$24                     ; 0x24 <__rc20>
    18a7: 18           	clc
    18a8: 65 12        	adc	$12                     ; 0x12 <__rc2>
    18aa: aa           	tax
    18ab: a5 25        	lda	$25                     ; 0x25 <__rc21>
    18ad: 65 2a        	adc	$2a                     ; 0x2a <__rc26>
    18af: 85 12        	sta	$12                     ; 0x12 <__rc2>
    18b1: 18           	clc
    18b2: 8a           	txa
    18b3: 69 7f        	adc	#$7f
    18b5: 85 2e        	sta	$2e                     ; 0x2e <__rc30>
    18b7: a5 12        	lda	$12                     ; 0x12 <__rc2>
    18b9: 69 11        	adc	#$11
    18bb: 85 2f        	sta	$2f                     ; 0x2f <__rc31>
    18bd: a2 2c        	ldx	#$2c
    18bf: 64 13        	stz	$13                     ; 0x13 <__rc3>
    18c1: 86 12        	stx	$12                     ; 0x12 <__rc2>
    18c3: a6 2a        	ldx	$2a                     ; 0x2a <__rc26>
    18c5: 98           	tya
    18c6: 20 ef 4b     	jsr	$4bef <__mulhi3>
    18c9: 18           	clc
    18ca: 65 24        	adc	$24                     ; 0x24 <__rc20>
    18cc: a8           	tay
    18cd: 8a           	txa
    18ce: 65 25        	adc	$25                     ; 0x25 <__rc21>
    18d0: 85 12        	sta	$12                     ; 0x12 <__rc2>
    18d2: 18           	clc
    18d3: 98           	tya
    18d4: 69 7a        	adc	#$7a
    18d6: 85 2a        	sta	$2a                     ; 0x2a <__rc26>
    18d8: a5 12        	lda	$12                     ; 0x12 <__rc2>
    18da: 69 00        	adc	#$0
    18dc: 85 2b        	sta	$2b                     ; 0x2b <__rc27>
    18de: a0 01        	ldy	#$1
    18e0: b2 24        	lda	($24)                   ; 0x24 <__rc20>
    18e2: 85 12        	sta	$12                     ; 0x12 <__rc2>
    18e4: 84 28        	sty	$28                     ; 0x28 <__rc24>
    18e6: 98           	tya
    18e7: 18           	clc
    18e8: a0 01        	ldy	#$1
    18ea: 71 24        	adc	($24),y                 ; 0x24 <__rc20>
    18ec: aa           	tax
    18ed: a5 12        	lda	$12                     ; 0x12 <__rc2>
    18ef: 20 2c 2f     	jsr	$2f2c <textGotoXY>
    18f2: a0 01        	ldy	#$1
    18f4: a5 26        	lda	$26                     ; 0x26 <__rc22>
    18f6: d1 2c        	cmp	($2c),y                 ; 0x2c <__rc28>
    18f8: d0 0e        	bne	$1908 <displayFileList+0x247>
    18fa: b2 2c        	lda	($2c)                   ; 0x2c <__rc28>
    18fc: 85 12        	sta	$12                     ; 0x12 <__rc2>
    18fe: a6 27        	ldx	$27                     ; 0x27 <__rc23>
    1900: e4 12        	cpx	$12                     ; 0x12 <__rc2>
    1902: d0 04        	bne	$1908 <displayFileList+0x247>
    1904: a9 fa        	lda	#$fa
    1906: 80 02        	bra	$190a <displayFileList+0x249>
    1908: a9 20        	lda	#$20
    190a: a2 00        	ldx	#$0
    190c: 20 62 46     	jsr	$4662 <putchar>
    190f: b2 2e        	lda	($2e)                   ; 0x2e <__rc30>
    1911: 29 01        	and	#$1
    1913: a2 e9        	ldx	#$e9
    1915: 86 12        	stx	$12                     ; 0x12 <__rc2>
    1917: a2 4d        	ldx	#$4d
    1919: 86 13        	stx	$13                     ; 0x13 <__rc3>
    191b: aa           	tax
    191c: d0 08        	bne	$1926 <displayFileList+0x265>
    191e: a2 8d        	ldx	#$8d
    1920: 86 12        	stx	$12                     ; 0x12 <__rc2>
    1922: a2 4d        	ldx	#$4d
    1924: 86 13        	stx	$13                     ; 0x13 <__rc3>
    1926: a5 10        	lda	$10                     ; 0x10 <__rc0>
    1928: a6 11        	ldx	$11                     ; 0x11 <__rc1>
    192a: 18           	clc
    192b: 69 02        	adc	#$2
    192d: 85 14        	sta	$14                     ; 0x14 <__rc4>
    192f: 8a           	txa
    1930: 69 00        	adc	#$0
    1932: 85 15        	sta	$15                     ; 0x15 <__rc5>
    1934: a5 2a        	lda	$2a                     ; 0x2a <__rc26>
    1936: 92 10        	sta	($10)                   ; 0x10 <__rc0>
    1938: a0 01        	ldy	#$1
    193a: a5 2b        	lda	$2b                     ; 0x2b <__rc27>
    193c: 91 10        	sta	($10),y                 ; 0x10 <__rc0>
    193e: a5 12        	lda	$12                     ; 0x12 <__rc2>
    1940: c8           	iny
    1941: 91 10        	sta	($10),y                 ; 0x10 <__rc0>
    1943: 88           	dey
    1944: a5 13        	lda	$13                     ; 0x13 <__rc3>
    1946: 91 14        	sta	($14),y                 ; 0x14 <__rc4>
    1948: a2 e0        	ldx	#$e0
    194a: 86 12        	stx	$12                     ; 0x12 <__rc2>
    194c: a2 4d        	ldx	#$4d
    194e: 86 13        	stx	$13                     ; 0x13 <__rc3>
    1950: 20 22 43     	jsr	$4322 <printf>
    1953: a6 27        	ldx	$27                     ; 0x27 <__rc23>
    1955: 86 12        	stx	$12                     ; 0x12 <__rc2>
    1957: a6 26        	ldx	$26                     ; 0x26 <__rc22>
    1959: 86 13        	stx	$13                     ; 0x13 <__rc3>
    195b: e6 12        	inc	$12                     ; 0x12 <__rc2>
    195d: d0 02        	bne	$1961 <displayFileList+0x2a0>
    195f: e6 13        	inc	$13                     ; 0x13 <__rc3>
    1961: e6 2e        	inc	$2e                     ; 0x2e <__rc30>
    1963: d0 02        	bne	$1967 <displayFileList+0x2a6>
    1965: e6 2f        	inc	$2f                     ; 0x2f <__rc31>
    1967: 18           	clc
    1968: a5 2a        	lda	$2a                     ; 0x2a <__rc26>
    196a: 69 2c        	adc	#$2c
    196c: 85 2a        	sta	$2a                     ; 0x2a <__rc26>
    196e: a5 2b        	lda	$2b                     ; 0x2b <__rc27>
    1970: 69 00        	adc	#$0
    1972: 85 2b        	sta	$2b                     ; 0x2b <__rc27>
    1974: a4 28        	ldy	$28                     ; 0x28 <__rc24>
    1976: c8           	iny
    1977: a6 12        	ldx	$12                     ; 0x12 <__rc2>
    1979: 86 27        	stx	$27                     ; 0x27 <__rc23>
    197b: a6 13        	ldx	$13                     ; 0x13 <__rc3>
    197d: 86 26        	stx	$26                     ; 0x26 <__rc22>
    197f: 5a           	phy
    1980: a0 13        	ldy	#$13
    1982: b1 10        	lda	($10),y                 ; 0x10 <__rc0>
    1984: 7a           	ply
    1985: c5 13        	cmp	$13                     ; 0x13 <__rc3>
    1987: f0 03        	beq	$198c <displayFileList+0x2cb>
    1989: 4c e0 18     	jmp	$18e0 <displayFileList+0x21f>
    198c: a6 12        	ldx	$12                     ; 0x12 <__rc2>
    198e: 86 27        	stx	$27                     ; 0x27 <__rc23>
    1990: a6 13        	ldx	$13                     ; 0x13 <__rc3>
    1992: 86 26        	stx	$26                     ; 0x26 <__rc22>
    1994: 5a           	phy
    1995: a0 14        	ldy	#$14
    1997: b1 10        	lda	($10),y                 ; 0x10 <__rc0>
    1999: 7a           	ply
    199a: c5 12        	cmp	$12                     ; 0x12 <__rc2>
    199c: f0 03        	beq	$19a1 <displayFileList+0x2e0>
    199e: 4c e0 18     	jmp	$18e0 <displayFileList+0x21f>
    19a1: a0 12        	ldy	#$12
    19a3: b1 10        	lda	($10),y                 ; 0x10 <__rc0>
    19a5: 49 ff        	eor	#$ff
    19a7: 85 12        	sta	$12                     ; 0x12 <__rc2>
    19a9: a9 02        	lda	#$2
    19ab: 18           	clc
    19ac: 72 24        	adc	($24)                   ; 0x24 <__rc20>
    19ae: 85 13        	sta	$13                     ; 0x13 <__rc3>
    19b0: a0 01        	ldy	#$1
    19b2: 18           	clc
    19b3: 5a           	phy
    19b4: a0 14        	ldy	#$14
    19b6: b1 10        	lda	($10),y                 ; 0x10 <__rc0>
    19b8: 7a           	ply
    19b9: 65 12        	adc	$12                     ; 0x12 <__rc2>
    19bb: 18           	clc
    19bc: 71 24        	adc	($24),y                 ; 0x24 <__rc20>
    19be: 1a           	inc
    19bf: aa           	tax
    19c0: a5 13        	lda	$13                     ; 0x13 <__rc3>
    19c2: 20 2c 2f     	jsr	$2f2c <textGotoXY>
    19c5: a5 24        	lda	$24                     ; 0x24 <__rc20>
    19c7: 18           	clc
    19c8: 69 e4        	adc	#$e4
    19ca: 85 12        	sta	$12                     ; 0x12 <__rc2>
    19cc: a5 25        	lda	$25                     ; 0x25 <__rc21>
    19ce: 69 11        	adc	#$11
    19d0: 85 13        	sta	$13                     ; 0x13 <__rc3>
    19d2: b2 12        	lda	($12)                   ; 0x12 <__rc2>
    19d4: 85 14        	sta	$14                     ; 0x14 <__rc4>
    19d6: a0 01        	ldy	#$1
    19d8: b1 12        	lda	($12),y                 ; 0x12 <__rc2>
    19da: a4 14        	ldy	$14                     ; 0x14 <__rc4>
    19dc: 84 16        	sty	$16                     ; 0x16 <__rc6>
    19de: c0 0f        	cpy	#$f
    19e0: aa           	tax
    19e1: e9 00        	sbc	#$0
    19e3: 50 02        	bvc	$19e7 <displayFileList+0x326>
    19e5: 49 80        	eor	#$80
    19e7: 48           	pha
    19e8: a0 10        	ldy	#$10
    19ea: b1 10        	lda	($10),y                 ; 0x10 <__rc0>
    19ec: 85 12        	sta	$12                     ; 0x12 <__rc2>
    19ee: c8           	iny
    19ef: b1 10        	lda	($10),y                 ; 0x10 <__rc0>
    19f1: 85 13        	sta	$13                     ; 0x13 <__rc3>
    19f3: 68           	pla
    19f4: a0 fb        	ldy	#$fb
    19f6: 48           	pha
    19f7: 98           	tya
    19f8: a0 14        	ldy	#$14
    19fa: 91 10        	sta	($10),y                 ; 0x10 <__rc0>
    19fc: 68           	pla
    19fd: 64 18        	stz	$18                     ; 0x18 <__rc8>
    19ff: 10 07        	bpl	$1a08 <displayFileList+0x347>
    1a01: a0 20        	ldy	#$20
    1a03: 98           	tya
    1a04: a0 14        	ldy	#$14
    1a06: 91 10        	sta	($10),y                 ; 0x10 <__rc0>
    1a08: a0 01        	ldy	#$1
    1a0a: 18           	clc
    1a0b: a5 16        	lda	$16                     ; 0x16 <__rc6>
    1a0d: 69 10        	adc	#$10
    1a0f: 85 19        	sta	$19                     ; 0x19 <__rc9>
    1a11: 8a           	txa
    1a12: 69 00        	adc	#$0
    1a14: aa           	tax
    1a15: 38           	sec
    1a16: 5a           	phy
    1a17: a0 0e        	ldy	#$e
    1a19: b1 10        	lda	($10),y                 ; 0x10 <__rc0>
    1a1b: 85 16        	sta	$16                     ; 0x16 <__rc6>
    1a1d: c8           	iny
    1a1e: b1 10        	lda	($10),y                 ; 0x10 <__rc0>
    1a20: 7a           	ply
    1a21: 85 17        	sta	$17                     ; 0x17 <__rc7>
    1a23: a5 19        	lda	$19                     ; 0x19 <__rc9>
    1a25: f2 16        	sbc	($16)                   ; 0x16 <__rc6>
    1a27: 85 14        	sta	$14                     ; 0x14 <__rc4>
    1a29: 8a           	txa
    1a2a: f1 16        	sbc	($16),y                 ; 0x16 <__rc6>
    1a2c: aa           	tax
    1a2d: a5 14        	lda	$14                     ; 0x14 <__rc4>
    1a2f: d2 12        	cmp	($12)                   ; 0x12 <__rc2>
    1a31: 8a           	txa
    1a32: f1 12        	sbc	($12),y                 ; 0x12 <__rc2>
    1a34: 50 02        	bvc	$1a38 <displayFileList+0x377>
    1a36: 49 80        	eor	#$80
    1a38: 64 14        	stz	$14                     ; 0x14 <__rc4>
    1a3a: aa           	tax
    1a3b: 10 04        	bpl	$1a41 <displayFileList+0x380>
    1a3d: a2 f8        	ldx	#$f8
    1a3f: 80 02        	bra	$1a43 <displayFileList+0x382>
    1a41: a2 20        	ldx	#$20
    1a43: a0 14        	ldy	#$14
    1a45: b1 10        	lda	($10),y                 ; 0x10 <__rc0>
    1a47: 92 10        	sta	($10)                   ; 0x10 <__rc0>
    1a49: a0 01        	ldy	#$1
    1a4b: a9 00        	lda	#$0
    1a4d: 91 10        	sta	($10),y                 ; 0x10 <__rc0>
    1a4f: c8           	iny
    1a50: 8a           	txa
    1a51: 91 10        	sta	($10),y                 ; 0x10 <__rc0>
    1a53: c8           	iny
    1a54: a9 00        	lda	#$0
    1a56: 91 10        	sta	($10),y                 ; 0x10 <__rc0>
    1a58: a2 96        	ldx	#$96
    1a5a: 86 12        	stx	$12                     ; 0x12 <__rc2>
    1a5c: a2 4e        	ldx	#$4e
    1a5e: 86 13        	stx	$13                     ; 0x13 <__rc3>
    1a60: 20 22 43     	jsr	$4322 <printf>
    1a63: a0 06        	ldy	#$6
    1a65: b1 10        	lda	($10),y                 ; 0x10 <__rc0>
    1a67: 85 2f        	sta	$2f                     ; 0x2f <__rc31>
    1a69: c8           	iny
    1a6a: b1 10        	lda	($10),y                 ; 0x10 <__rc0>
    1a6c: 85 2e        	sta	$2e                     ; 0x2e <__rc30>
    1a6e: c8           	iny
    1a6f: b1 10        	lda	($10),y                 ; 0x10 <__rc0>
    1a71: 85 2d        	sta	$2d                     ; 0x2d <__rc29>
    1a73: c8           	iny
    1a74: b1 10        	lda	($10),y                 ; 0x10 <__rc0>
    1a76: 85 2c        	sta	$2c                     ; 0x2c <__rc28>
    1a78: c8           	iny
    1a79: b1 10        	lda	($10),y                 ; 0x10 <__rc0>
    1a7b: 85 2b        	sta	$2b                     ; 0x2b <__rc27>
    1a7d: c8           	iny
    1a7e: b1 10        	lda	($10),y                 ; 0x10 <__rc0>
    1a80: 85 2a        	sta	$2a                     ; 0x2a <__rc26>
    1a82: c8           	iny
    1a83: b1 10        	lda	($10),y                 ; 0x10 <__rc0>
    1a85: 85 29        	sta	$29                     ; 0x29 <__rc25>
    1a87: c8           	iny
    1a88: b1 10        	lda	($10),y                 ; 0x10 <__rc0>
    1a8a: 85 28        	sta	$28                     ; 0x28 <__rc24>
    1a8c: fa           	plx
    1a8d: 86 27        	stx	$27                     ; 0x27 <__rc23>
    1a8f: fa           	plx
    1a90: 86 26        	stx	$26                     ; 0x26 <__rc22>
    1a92: fa           	plx
    1a93: 86 25        	stx	$25                     ; 0x25 <__rc21>
    1a95: fa           	plx
    1a96: 86 24        	stx	$24                     ; 0x24 <__rc20>
    1a98: 18           	clc
    1a99: a5 10        	lda	$10                     ; 0x10 <__rc0>
    1a9b: 69 15        	adc	#$15
    1a9d: 85 10        	sta	$10                     ; 0x10 <__rc0>
    1a9f: a5 11        	lda	$11                     ; 0x11 <__rc1>
    1aa1: 69 00        	adc	#$0
    1aa3: 85 11        	sta	$11                     ; 0x11 <__rc1>
    1aa5: 60           	rts
    1aa6: a0 fa        	ldy	#$fa
    1aa8: 4c fe 17     	jmp	$17fe <displayFileList+0x13d>

00001aab <readDirectory>:
    1aab: a6 12        	ldx	$12                     ; 0x12 <__rc2>
    1aad: 86 9f        	stx	$9f                     ; 0x9f <__zp_data_size+0x65>
    1aaf: a6 13        	ldx	$13                     ; 0x13 <__rc3>
    1ab1: 86 a0        	stx	$a0                     ; 0xa0 <__zp_data_size+0x66>
    1ab3: a5 9f        	lda	$9f                     ; 0x9f <__zp_data_size+0x65>
    1ab5: 18           	clc
    1ab6: 69 02        	adc	#$2
    1ab8: 85 12        	sta	$12                     ; 0x12 <__rc2>
    1aba: a5 a0        	lda	$a0                     ; 0xa0 <__zp_data_size+0x66>
    1abc: 69 00        	adc	#$0
    1abe: 85 13        	sta	$13                     ; 0x13 <__rc3>
    1ac0: 20 26 2e     	jsr	$2e26 <fileOpenDir>
    1ac3: a6 12        	ldx	$12                     ; 0x12 <__rc2>
    1ac5: 86 a7        	stx	$a7                     ; 0xa7 <__zp_data_size+0x6d>
    1ac7: a6 13        	ldx	$13                     ; 0x13 <__rc3>
    1ac9: 86 a8        	stx	$a8                     ; 0xa8 <__zp_data_size+0x6e>
    1acb: a2 00        	ldx	#$0
    1acd: 86 12        	stx	$12                     ; 0x12 <__rc2>
    1acf: a2 00        	ldx	#$0
    1ad1: 86 13        	stx	$13                     ; 0x13 <__rc3>
    1ad3: a6 a8        	ldx	$a8                     ; 0xa8 <__zp_data_size+0x6e>
    1ad5: e4 13        	cpx	$13                     ; 0x13 <__rc3>
    1ad7: d0 09        	bne	$1ae2 <readDirectory+0x37>
    1ad9: a6 a7        	ldx	$a7                     ; 0xa7 <__zp_data_size+0x6d>
    1adb: e4 12        	cpx	$12                     ; 0x12 <__rc2>
    1add: d0 03        	bne	$1ae2 <readDirectory+0x37>
    1adf: 4c 7f 1c     	jmp	$1c7f <readDirectory+0x1d4>
    1ae2: a6 a7        	ldx	$a7                     ; 0xa7 <__zp_data_size+0x6d>
    1ae4: 86 12        	stx	$12                     ; 0x12 <__rc2>
    1ae6: a6 a8        	ldx	$a8                     ; 0xa8 <__zp_data_size+0x6e>
    1ae8: 86 13        	stx	$13                     ; 0x13 <__rc3>
    1aea: 20 09 32     	jsr	$3209 <fileReadDir>
    1aed: a2 01        	ldx	#$1
    1aef: 86 ab        	stx	$ab                     ; 0xab <__zp_data_size+0x71>
    1af1: a0 00        	ldy	#$0
    1af3: ca           	dex
    1af4: 86 a5        	stx	$a5                     ; 0xa5 <__zp_data_size+0x6b>
    1af6: a2 00        	ldx	#$0
    1af8: 86 a6        	stx	$a6                     ; 0xa6 <__zp_data_size+0x6c>
    1afa: a2 00        	ldx	#$0
    1afc: 4c 30 1c     	jmp	$1c30 <readDirectory+0x185>
    1aff: a5 9e        	lda	$9e                     ; 0x9e <__zp_data_size+0x64>
    1b01: f0 03        	beq	$1b06 <readDirectory+0x5b>
    1b03: 4c a3 1b     	jmp	$1ba3 <readDirectory+0xf8>
    1b06: a2 01        	ldx	#$1
    1b08: 86 a9        	stx	$a9                     ; 0xa9 <__zp_data_size+0x6f>
    1b0a: a6 a7        	ldx	$a7                     ; 0xa7 <__zp_data_size+0x6d>
    1b0c: 86 12        	stx	$12                     ; 0x12 <__rc2>
    1b0e: a6 a8        	ldx	$a8                     ; 0xa8 <__zp_data_size+0x6e>
    1b10: 86 13        	stx	$13                     ; 0x13 <__rc3>
    1b12: 20 09 32     	jsr	$3209 <fileReadDir>
    1b15: a6 12        	ldx	$12                     ; 0x12 <__rc2>
    1b17: 86 a1        	stx	$a1                     ; 0xa1 <__zp_data_size+0x67>
    1b19: a6 13        	ldx	$13                     ; 0x13 <__rc3>
    1b1b: 86 a2        	stx	$a2                     ; 0xa2 <__zp_data_size+0x68>
    1b1d: a6 a2        	ldx	$a2                     ; 0xa2 <__zp_data_size+0x68>
    1b1f: e4 a6        	cpx	$a6                     ; 0xa6 <__zp_data_size+0x6c>
    1b21: d0 0c        	bne	$1b2f <readDirectory+0x84>
    1b23: a6 a1        	ldx	$a1                     ; 0xa1 <__zp_data_size+0x67>
    1b25: a4 a9        	ldy	$a9                     ; 0xa9 <__zp_data_size+0x6f>
    1b27: e4 a5        	cpx	$a5                     ; 0xa5 <__zp_data_size+0x6b>
    1b29: d0 06        	bne	$1b31 <readDirectory+0x86>
    1b2b: a0 00        	ldy	#$0
    1b2d: 80 02        	bra	$1b31 <readDirectory+0x86>
    1b2f: a4 a9        	ldy	$a9                     ; 0xa9 <__zp_data_size+0x6f>
    1b31: 98           	tya
    1b32: d0 03        	bne	$1b37 <readDirectory+0x8c>
    1b34: 4c 41 1c     	jmp	$1c41 <readDirectory+0x196>
    1b37: a5 a1        	lda	$a1                     ; 0xa1 <__zp_data_size+0x67>
    1b39: 18           	clc
    1b3a: 69 02        	adc	#$2
    1b3c: 85 a3        	sta	$a3                     ; 0xa3 <__zp_data_size+0x69>
    1b3e: a5 a2        	lda	$a2                     ; 0xa2 <__zp_data_size+0x68>
    1b40: 69 00        	adc	#$0
    1b42: 85 a4        	sta	$a4                     ; 0xa4 <__zp_data_size+0x6a>
    1b44: a6 a3        	ldx	$a3                     ; 0xa3 <__zp_data_size+0x69>
    1b46: 86 12        	stx	$12                     ; 0x12 <__rc2>
    1b48: 85 13        	sta	$13                     ; 0x13 <__rc3>
    1b4a: a2 38        	ldx	#$38
    1b4c: 86 14        	stx	$14                     ; 0x14 <__rc4>
    1b4e: a2 4e        	ldx	#$4e
    1b50: 86 15        	stx	$15                     ; 0x15 <__rc5>
    1b52: 20 1f 4b     	jsr	$4b1f <strcmp>
    1b55: e0 00        	cpx	#$0
    1b57: d0 03        	bne	$1b5c <readDirectory+0xb1>
    1b59: aa           	tax
    1b5a: f0 37        	beq	$1b93 <readDirectory+0xe8>
    1b5c: a6 a3        	ldx	$a3                     ; 0xa3 <__zp_data_size+0x69>
    1b5e: 86 12        	stx	$12                     ; 0x12 <__rc2>
    1b60: a6 a4        	ldx	$a4                     ; 0xa4 <__zp_data_size+0x6a>
    1b62: 86 13        	stx	$13                     ; 0x13 <__rc3>
    1b64: a2 30        	ldx	#$30
    1b66: 86 14        	stx	$14                     ; 0x14 <__rc4>
    1b68: a2 00        	ldx	#$0
    1b6a: 86 15        	stx	$15                     ; 0x15 <__rc5>
    1b6c: 20 1f 4b     	jsr	$4b1f <strcmp>
    1b6f: e0 00        	cpx	#$0
    1b71: d0 03        	bne	$1b76 <readDirectory+0xcb>
    1b73: aa           	tax
    1b74: f0 1d        	beq	$1b93 <readDirectory+0xe8>
    1b76: a6 9f        	ldx	$9f                     ; 0x9f <__zp_data_size+0x65>
    1b78: 86 12        	stx	$12                     ; 0x12 <__rc2>
    1b7a: a6 a0        	ldx	$a0                     ; 0xa0 <__zp_data_size+0x66>
    1b7c: 86 13        	stx	$13                     ; 0x13 <__rc3>
    1b7e: a6 a3        	ldx	$a3                     ; 0xa3 <__zp_data_size+0x69>
    1b80: 86 14        	stx	$14                     ; 0x14 <__rc4>
    1b82: a6 a4        	ldx	$a4                     ; 0xa4 <__zp_data_size+0x6a>
    1b84: 86 15        	stx	$15                     ; 0x15 <__rc5>
    1b86: 20 43 06     	jsr	$643 <isExtensionAllowed>
    1b89: 29 01        	and	#$1
    1b8b: d0 1b        	bne	$1ba8 <readDirectory+0xfd>
    1b8d: a0 01        	ldy	#$1
    1b8f: b1 a1        	lda	($a1),y                 ; 0xa1 <__zp_data_size+0x67>
    1b91: d0 15        	bne	$1ba8 <readDirectory+0xfd>
    1b93: a5 9d        	lda	$9d                     ; 0x9d <__zp_data_size+0x63>
    1b95: f0 03        	beq	$1b9a <readDirectory+0xef>
    1b97: 4c ff 1a     	jmp	$1aff <readDirectory+0x54>
    1b9a: a6 ab        	ldx	$ab                     ; 0xab <__zp_data_size+0x71>
    1b9c: e0 64        	cpx	#$64
    1b9e: b0 03        	bcs	$1ba3 <readDirectory+0xf8>
    1ba0: 4c 06 1b     	jmp	$1b06 <readDirectory+0x5b>
    1ba3: a2 00        	ldx	#$0
    1ba5: 4c 08 1b     	jmp	$1b08 <readDirectory+0x5d>
    1ba8: a2 2c        	ldx	#$2c
    1baa: 86 12        	stx	$12                     ; 0x12 <__rc2>
    1bac: 64 13        	stz	$13                     ; 0x13 <__rc3>
    1bae: a6 9d        	ldx	$9d                     ; 0x9d <__zp_data_size+0x63>
    1bb0: a5 ab        	lda	$ab                     ; 0xab <__zp_data_size+0x71>
    1bb2: 20 ef 4b     	jsr	$4bef <__mulhi3>
    1bb5: 18           	clc
    1bb6: 65 9f        	adc	$9f                     ; 0x9f <__zp_data_size+0x65>
    1bb8: a8           	tay
    1bb9: 8a           	txa
    1bba: 65 a0        	adc	$a0                     ; 0xa0 <__zp_data_size+0x66>
    1bbc: 85 12        	sta	$12                     ; 0x12 <__rc2>
    1bbe: 98           	tya
    1bbf: 84 14        	sty	$14                     ; 0x14 <__rc4>
    1bc1: a6 14        	ldx	$14                     ; 0x14 <__rc4>
    1bc3: 86 a9        	stx	$a9                     ; 0xa9 <__zp_data_size+0x6f>
    1bc5: a6 12        	ldx	$12                     ; 0x12 <__rc2>
    1bc7: 86 aa        	stx	$aa                     ; 0xaa <__zp_data_size+0x70>
    1bc9: 18           	clc
    1bca: 69 4e        	adc	#$4e
    1bcc: aa           	tax
    1bcd: a5 12        	lda	$12                     ; 0x12 <__rc2>
    1bcf: 69 00        	adc	#$0
    1bd1: 85 13        	sta	$13                     ; 0x13 <__rc3>
    1bd3: 86 12        	stx	$12                     ; 0x12 <__rc2>
    1bd5: a6 a3        	ldx	$a3                     ; 0xa3 <__zp_data_size+0x69>
    1bd7: 86 14        	stx	$14                     ; 0x14 <__rc4>
    1bd9: a6 a4        	ldx	$a4                     ; 0xa4 <__zp_data_size+0x6a>
    1bdb: 86 15        	stx	$15                     ; 0x15 <__rc5>
    1bdd: a2 00        	ldx	#$0
    1bdf: a9 2b        	lda	#$2b
    1be1: 20 62 4a     	jsr	$4a62 <strncpy>
    1be4: a0 79        	ldy	#$79
    1be6: a9 00        	lda	#$0
    1be8: a6 a9        	ldx	$a9                     ; 0xa9 <__zp_data_size+0x6f>
    1bea: 86 12        	stx	$12                     ; 0x12 <__rc2>
    1bec: a6 aa        	ldx	$aa                     ; 0xaa <__zp_data_size+0x70>
    1bee: 86 13        	stx	$13                     ; 0x13 <__rc3>
    1bf0: 91 12        	sta	($12),y                 ; 0x12 <__rc2>
    1bf2: a0 01        	ldy	#$1
    1bf4: b1 a1        	lda	($a1),y                 ; 0xa1 <__zp_data_size+0x67>
    1bf6: a2 01        	ldx	#$1
    1bf8: c9 01        	cmp	#$1
    1bfa: f0 02        	beq	$1bfe <readDirectory+0x153>
    1bfc: a2 00        	ldx	#$0
    1bfe: 8a           	txa
    1bff: d0 02        	bne	$1c03 <readDirectory+0x158>
    1c01: a0 00        	ldy	#$0
    1c03: a5 9f        	lda	$9f                     ; 0x9f <__zp_data_size+0x65>
    1c05: a6 ac        	ldx	$ac                     ; 0xac <__zp_data_size+0x72>
    1c07: 86 14        	stx	$14                     ; 0x14 <__rc4>
    1c09: 18           	clc
    1c0a: 65 14        	adc	$14                     ; 0x14 <__rc4>
    1c0c: aa           	tax
    1c0d: a5 a0        	lda	$a0                     ; 0xa0 <__zp_data_size+0x66>
    1c0f: 69 00        	adc	#$0
    1c11: 85 12        	sta	$12                     ; 0x12 <__rc2>
    1c13: 8a           	txa
    1c14: 18           	clc
    1c15: 69 7f        	adc	#$7f
    1c17: aa           	tax
    1c18: a5 12        	lda	$12                     ; 0x12 <__rc2>
    1c1a: 69 11        	adc	#$11
    1c1c: 85 13        	sta	$13                     ; 0x13 <__rc3>
    1c1e: 86 12        	stx	$12                     ; 0x12 <__rc2>
    1c20: 98           	tya
    1c21: 92 12        	sta	($12)                   ; 0x12 <__rc2>
    1c23: a6 ab        	ldx	$ab                     ; 0xab <__zp_data_size+0x71>
    1c25: a4 9d        	ldy	$9d                     ; 0x9d <__zp_data_size+0x63>
    1c27: e8           	inx
    1c28: d0 01        	bne	$1c2b <readDirectory+0x180>
    1c2a: c8           	iny
    1c2b: 86 ab        	stx	$ab                     ; 0xab <__zp_data_size+0x71>
    1c2d: a6 14        	ldx	$14                     ; 0x14 <__rc4>
    1c2f: e8           	inx
    1c30: 86 ac        	stx	$ac                     ; 0xac <__zp_data_size+0x72>
    1c32: 84 9d        	sty	$9d                     ; 0x9d <__zp_data_size+0x63>
    1c34: c0 00        	cpy	#$0
    1c36: a2 01        	ldx	#$1
    1c38: b0 02        	bcs	$1c3c <readDirectory+0x191>
    1c3a: a2 00        	ldx	#$0
    1c3c: 86 9e        	stx	$9e                     ; 0x9e <__zp_data_size+0x64>
    1c3e: 4c 93 1b     	jmp	$1b93 <readDirectory+0xe8>
    1c41: a5 9f        	lda	$9f                     ; 0x9f <__zp_data_size+0x65>
    1c43: 18           	clc
    1c44: 69 e2        	adc	#$e2
    1c46: 85 12        	sta	$12                     ; 0x12 <__rc2>
    1c48: a5 a0        	lda	$a0                     ; 0xa0 <__zp_data_size+0x66>
    1c4a: 69 11        	adc	#$11
    1c4c: 85 13        	sta	$13                     ; 0x13 <__rc3>
    1c4e: a0 01        	ldy	#$1
    1c50: a5 9d        	lda	$9d                     ; 0x9d <__zp_data_size+0x63>
    1c52: 91 12        	sta	($12),y                 ; 0x12 <__rc2>
    1c54: 18           	clc
    1c55: a5 ab        	lda	$ab                     ; 0xab <__zp_data_size+0x71>
    1c57: 92 12        	sta	($12)                   ; 0x12 <__rc2>
    1c59: a5 9f        	lda	$9f                     ; 0x9f <__zp_data_size+0x65>
    1c5b: 69 4e        	adc	#$4e
    1c5d: 85 12        	sta	$12                     ; 0x12 <__rc2>
    1c5f: a5 a0        	lda	$a0                     ; 0xa0 <__zp_data_size+0x66>
    1c61: 69 00        	adc	#$0
    1c63: 85 13        	sta	$13                     ; 0x13 <__rc3>
    1c65: a2 9c        	ldx	#$9c
    1c67: 86 14        	stx	$14                     ; 0x14 <__rc4>
    1c69: a2 4e        	ldx	#$4e
    1c6b: 86 15        	stx	$15                     ; 0x15 <__rc5>
    1c6d: a9 2c        	lda	#$2c
    1c6f: a2 00        	ldx	#$0
    1c71: 20 db 49     	jsr	$49db <memcpy>
    1c74: a6 a7        	ldx	$a7                     ; 0xa7 <__zp_data_size+0x6d>
    1c76: 86 12        	stx	$12                     ; 0x12 <__rc2>
    1c78: a6 a8        	ldx	$a8                     ; 0xa8 <__zp_data_size+0x6e>
    1c7a: 86 13        	stx	$13                     ; 0x13 <__rc3>
    1c7c: 20 a3 31     	jsr	$31a3 <fileCloseDir>
    1c7f: 60           	rts

00001c80 <filePickModal>:
    1c80: 48           	pha
    1c81: 18           	clc
    1c82: a5 10        	lda	$10                     ; 0x10 <__rc0>
    1c84: 69 a8        	adc	#$a8
    1c86: 85 10        	sta	$10                     ; 0x10 <__rc0>
    1c88: a5 11        	lda	$11                     ; 0x11 <__rc1>
    1c8a: 69 ff        	adc	#$ff
    1c8c: 85 11        	sta	$11                     ; 0x11 <__rc1>
    1c8e: 68           	pla
    1c8f: a4 24        	ldy	$24                     ; 0x24 <__rc20>
    1c91: 5a           	phy
    1c92: a4 25        	ldy	$25                     ; 0x25 <__rc21>
    1c94: 5a           	phy
    1c95: a4 26        	ldy	$26                     ; 0x26 <__rc22>
    1c97: 5a           	phy
    1c98: a4 27        	ldy	$27                     ; 0x27 <__rc23>
    1c9a: 5a           	phy
    1c9b: 48           	pha
    1c9c: a5 28        	lda	$28                     ; 0x28 <__rc24>
    1c9e: a0 0d        	ldy	#$d
    1ca0: 91 10        	sta	($10),y                 ; 0x10 <__rc0>
    1ca2: a5 29        	lda	$29                     ; 0x29 <__rc25>
    1ca4: 88           	dey
    1ca5: 91 10        	sta	($10),y                 ; 0x10 <__rc0>
    1ca7: a5 2a        	lda	$2a                     ; 0x2a <__rc26>
    1ca9: 88           	dey
    1caa: 91 10        	sta	($10),y                 ; 0x10 <__rc0>
    1cac: a5 2b        	lda	$2b                     ; 0x2b <__rc27>
    1cae: 88           	dey
    1caf: 91 10        	sta	($10),y                 ; 0x10 <__rc0>
    1cb1: a5 2c        	lda	$2c                     ; 0x2c <__rc28>
    1cb3: 88           	dey
    1cb4: 91 10        	sta	($10),y                 ; 0x10 <__rc0>
    1cb6: a5 2d        	lda	$2d                     ; 0x2d <__rc29>
    1cb8: 88           	dey
    1cb9: 91 10        	sta	($10),y                 ; 0x10 <__rc0>
    1cbb: a5 2e        	lda	$2e                     ; 0x2e <__rc30>
    1cbd: 88           	dey
    1cbe: 91 10        	sta	($10),y                 ; 0x10 <__rc0>
    1cc0: a5 2f        	lda	$2f                     ; 0x2f <__rc31>
    1cc2: 88           	dey
    1cc3: 91 10        	sta	($10),y                 ; 0x10 <__rc0>
    1cc5: 68           	pla
    1cc6: a0 10        	ldy	#$10
    1cc8: 91 10        	sta	($10),y                 ; 0x10 <__rc0>
    1cca: 8a           	txa
    1ccb: c8           	iny
    1ccc: 91 10        	sta	($10),y                 ; 0x10 <__rc0>
    1cce: a6 12        	ldx	$12                     ; 0x12 <__rc2>
    1cd0: 86 24        	stx	$24                     ; 0x24 <__rc20>
    1cd2: a6 13        	ldx	$13                     ; 0x13 <__rc3>
    1cd4: 86 25        	stx	$25                     ; 0x25 <__rc21>
    1cd6: a6 24        	ldx	$24                     ; 0x24 <__rc20>
    1cd8: a5 24        	lda	$24                     ; 0x24 <__rc20>
    1cda: 86 27        	stx	$27                     ; 0x27 <__rc23>
    1cdc: 18           	clc
    1cdd: 69 22        	adc	#$22
    1cdf: 85 1d        	sta	$1d                     ; 0x1d <__rc13>
    1ce1: a6 25        	ldx	$25                     ; 0x25 <__rc21>
    1ce3: a5 25        	lda	$25                     ; 0x25 <__rc21>
    1ce5: 86 28        	stx	$28                     ; 0x28 <__rc24>
    1ce7: 69 00        	adc	#$0
    1ce9: a8           	tay
    1cea: a6 14        	ldx	$14                     ; 0x14 <__rc4>
    1cec: 86 2a        	stx	$2a                     ; 0x2a <__rc26>
    1cee: a6 15        	ldx	$15                     ; 0x15 <__rc5>
    1cf0: 86 2b        	stx	$2b                     ; 0x2b <__rc27>
    1cf2: a6 16        	ldx	$16                     ; 0x16 <__rc6>
    1cf4: 86 2e        	stx	$2e                     ; 0x2e <__rc30>
    1cf6: a6 17        	ldx	$17                     ; 0x17 <__rc7>
    1cf8: 86 2f        	stx	$2f                     ; 0x2f <__rc31>
    1cfa: a6 18        	ldx	$18                     ; 0x18 <__rc8>
    1cfc: 86 2c        	stx	$2c                     ; 0x2c <__rc28>
    1cfe: a6 19        	ldx	$19                     ; 0x19 <__rc9>
    1d00: 86 2d        	stx	$2d                     ; 0x2d <__rc29>
    1d02: 5a           	phy
    1d03: a5 1a        	lda	$1a                     ; 0x1a <__rc10>
    1d05: a0 12        	ldy	#$12
    1d07: 91 10        	sta	($10),y                 ; 0x10 <__rc0>
    1d09: a5 1b        	lda	$1b                     ; 0x1b <__rc11>
    1d0b: c8           	iny
    1d0c: 91 10        	sta	($10),y                 ; 0x10 <__rc0>
    1d0e: a5 1c        	lda	$1c                     ; 0x1c <__rc12>
    1d10: 29 01        	and	#$1
    1d12: 85 26        	sta	$26                     ; 0x26 <__rc22>
    1d14: a6 1d        	ldx	$1d                     ; 0x1d <__rc13>
    1d16: 8a           	txa
    1d17: a0 15        	ldy	#$15
    1d19: 91 10        	sta	($10),y                 ; 0x10 <__rc0>
    1d1b: 7a           	ply
    1d1c: 86 12        	stx	$12                     ; 0x12 <__rc2>
    1d1e: 84 13        	sty	$13                     ; 0x13 <__rc3>
    1d20: 98           	tya
    1d21: a0 14        	ldy	#$14
    1d23: 91 10        	sta	($10),y                 ; 0x10 <__rc0>
    1d25: a2 2c        	ldx	#$2c
    1d27: 64 14        	stz	$14                     ; 0x14 <__rc4>
    1d29: a9 00        	lda	#$0
    1d2b: 20 07 4a     	jsr	$4a07 <__memset>
    1d2e: a5 27        	lda	$27                     ; 0x27 <__rc23>
    1d30: 18           	clc
    1d31: 69 7a        	adc	#$7a
    1d33: 85 12        	sta	$12                     ; 0x12 <__rc2>
    1d35: a5 28        	lda	$28                     ; 0x28 <__rc24>
    1d37: 69 00        	adc	#$0
    1d39: 85 13        	sta	$13                     ; 0x13 <__rc3>
    1d3b: a5 12        	lda	$12                     ; 0x12 <__rc2>
    1d3d: a0 16        	ldy	#$16
    1d3f: 91 10        	sta	($10),y                 ; 0x10 <__rc0>
    1d41: a5 13        	lda	$13                     ; 0x13 <__rc3>
    1d43: c8           	iny
    1d44: 91 10        	sta	($10),y                 ; 0x10 <__rc0>
    1d46: a2 11        	ldx	#$11
    1d48: 86 14        	stx	$14                     ; 0x14 <__rc4>
    1d4a: a2 04        	ldx	#$4
    1d4c: a9 00        	lda	#$0
    1d4e: 20 07 4a     	jsr	$4a07 <__memset>
    1d51: 18           	clc
    1d52: a5 27        	lda	$27                     ; 0x27 <__rc23>
    1d54: 69 7f        	adc	#$7f
    1d56: 85 12        	sta	$12                     ; 0x12 <__rc2>
    1d58: a5 28        	lda	$28                     ; 0x28 <__rc24>
    1d5a: 69 11        	adc	#$11
    1d5c: 85 13        	sta	$13                     ; 0x13 <__rc3>
    1d5e: a5 12        	lda	$12                     ; 0x12 <__rc2>
    1d60: a0 0e        	ldy	#$e
    1d62: 91 10        	sta	($10),y                 ; 0x10 <__rc0>
    1d64: a5 13        	lda	$13                     ; 0x13 <__rc3>
    1d66: c8           	iny
    1d67: 91 10        	sta	($10),y                 ; 0x10 <__rc0>
    1d69: a2 63        	ldx	#$63
    1d6b: 64 14        	stz	$14                     ; 0x14 <__rc4>
    1d6d: a9 00        	lda	#$0
    1d6f: 20 07 4a     	jsr	$4a07 <__memset>
    1d72: a5 26        	lda	$26                     ; 0x26 <__rc22>
    1d74: f0 27        	beq	$1d9d <filePickModal+0x11d>
    1d76: a5 24        	lda	$24                     ; 0x24 <__rc20>
    1d78: 18           	clc
    1d79: 69 e2        	adc	#$e2
    1d7b: 85 12        	sta	$12                     ; 0x12 <__rc2>
    1d7d: a5 25        	lda	$25                     ; 0x25 <__rc21>
    1d7f: 69 11        	adc	#$11
    1d81: 85 13        	sta	$13                     ; 0x13 <__rc3>
    1d83: a9 00        	lda	#$0
    1d85: 92 12        	sta	($12)                   ; 0x12 <__rc2>
    1d87: a0 01        	ldy	#$1
    1d89: 91 12        	sta	($12),y                 ; 0x12 <__rc2>
    1d8b: c8           	iny
    1d8c: 91 12        	sta	($12),y                 ; 0x12 <__rc2>
    1d8e: c8           	iny
    1d8f: 91 12        	sta	($12),y                 ; 0x12 <__rc2>
    1d91: c8           	iny
    1d92: 91 12        	sta	($12),y                 ; 0x12 <__rc2>
    1d94: c8           	iny
    1d95: 91 12        	sta	($12),y                 ; 0x12 <__rc2>
    1d97: c8           	iny
    1d98: 91 12        	sta	($12),y                 ; 0x12 <__rc2>
    1d9a: c8           	iny
    1d9b: 91 12        	sta	($12),y                 ; 0x12 <__rc2>
    1d9d: a6 24        	ldx	$24                     ; 0x24 <__rc20>
    1d9f: a5 24        	lda	$24                     ; 0x24 <__rc20>
    1da1: 86 29        	stx	$29                     ; 0x29 <__rc25>
    1da3: 18           	clc
    1da4: 69 ea        	adc	#$ea
    1da6: 85 26        	sta	$26                     ; 0x26 <__rc22>
    1da8: a5 25        	lda	$25                     ; 0x25 <__rc21>
    1daa: 69 11        	adc	#$11
    1dac: 85 27        	sta	$27                     ; 0x27 <__rc23>
    1dae: a6 26        	ldx	$26                     ; 0x26 <__rc22>
    1db0: 86 12        	stx	$12                     ; 0x12 <__rc2>
    1db2: 85 13        	sta	$13                     ; 0x13 <__rc3>
    1db4: a2 0c        	ldx	#$c
    1db6: 64 14        	stz	$14                     ; 0x14 <__rc4>
    1db8: a9 00        	lda	#$0
    1dba: 20 07 4a     	jsr	$4a07 <__memset>
    1dbd: a0 10        	ldy	#$10
    1dbf: b1 10        	lda	($10),y                 ; 0x10 <__rc0>
    1dc1: 92 24        	sta	($24)                   ; 0x24 <__rc20>
    1dc3: a0 01        	ldy	#$1
    1dc5: 5a           	phy
    1dc6: a0 11        	ldy	#$11
    1dc8: b1 10        	lda	($10),y                 ; 0x10 <__rc0>
    1dca: 7a           	ply
    1dcb: 91 24        	sta	($24),y                 ; 0x24 <__rc20>
    1dcd: b2 2a        	lda	($2a)                   ; 0x2a <__rc26>
    1dcf: 92 26        	sta	($26)                   ; 0x26 <__rc22>
    1dd1: b1 2a        	lda	($2a),y                 ; 0x2a <__rc26>
    1dd3: 91 26        	sta	($26),y                 ; 0x26 <__rc22>
    1dd5: a0 02        	ldy	#$2
    1dd7: b1 2a        	lda	($2a),y                 ; 0x2a <__rc26>
    1dd9: 91 26        	sta	($26),y                 ; 0x26 <__rc22>
    1ddb: a5 29        	lda	$29                     ; 0x29 <__rc25>
    1ddd: 18           	clc
    1dde: 69 ed        	adc	#$ed
    1de0: 85 12        	sta	$12                     ; 0x12 <__rc2>
    1de2: a5 25        	lda	$25                     ; 0x25 <__rc21>
    1de4: 69 11        	adc	#$11
    1de6: 85 13        	sta	$13                     ; 0x13 <__rc3>
    1de8: b2 2e        	lda	($2e)                   ; 0x2e <__rc30>
    1dea: 92 12        	sta	($12)                   ; 0x12 <__rc2>
    1dec: 88           	dey
    1ded: b1 2e        	lda	($2e),y                 ; 0x2e <__rc30>
    1def: 91 12        	sta	($12),y                 ; 0x12 <__rc2>
    1df1: c8           	iny
    1df2: b1 2e        	lda	($2e),y                 ; 0x2e <__rc30>
    1df4: 91 12        	sta	($12),y                 ; 0x12 <__rc2>
    1df6: a5 29        	lda	$29                     ; 0x29 <__rc25>
    1df8: 18           	clc
    1df9: 69 f0        	adc	#$f0
    1dfb: 85 12        	sta	$12                     ; 0x12 <__rc2>
    1dfd: a5 25        	lda	$25                     ; 0x25 <__rc21>
    1dff: 69 11        	adc	#$11
    1e01: 85 13        	sta	$13                     ; 0x13 <__rc3>
    1e03: b2 2c        	lda	($2c)                   ; 0x2c <__rc28>
    1e05: 92 12        	sta	($12)                   ; 0x12 <__rc2>
    1e07: 88           	dey
    1e08: b1 2c        	lda	($2c),y                 ; 0x2c <__rc28>
    1e0a: 91 12        	sta	($12),y                 ; 0x12 <__rc2>
    1e0c: c8           	iny
    1e0d: b1 2c        	lda	($2c),y                 ; 0x2c <__rc28>
    1e0f: 91 12        	sta	($12),y                 ; 0x12 <__rc2>
    1e11: a5 29        	lda	$29                     ; 0x29 <__rc25>
    1e13: 18           	clc
    1e14: 69 f3        	adc	#$f3
    1e16: 85 12        	sta	$12                     ; 0x12 <__rc2>
    1e18: a5 25        	lda	$25                     ; 0x25 <__rc21>
    1e1a: 69 11        	adc	#$11
    1e1c: 85 13        	sta	$13                     ; 0x13 <__rc3>
    1e1e: a0 12        	ldy	#$12
    1e20: b1 10        	lda	($10),y                 ; 0x10 <__rc0>
    1e22: 85 16        	sta	$16                     ; 0x16 <__rc6>
    1e24: c8           	iny
    1e25: b1 10        	lda	($10),y                 ; 0x10 <__rc0>
    1e27: 85 17        	sta	$17                     ; 0x17 <__rc7>
    1e29: b2 16        	lda	($16)                   ; 0x16 <__rc6>
    1e2b: 92 12        	sta	($12)                   ; 0x12 <__rc2>
    1e2d: a0 01        	ldy	#$1
    1e2f: b1 16        	lda	($16),y                 ; 0x16 <__rc6>
    1e31: 91 12        	sta	($12),y                 ; 0x12 <__rc2>
    1e33: c8           	iny
    1e34: b1 16        	lda	($16),y                 ; 0x16 <__rc6>
    1e36: 91 12        	sta	($12),y                 ; 0x12 <__rc2>
    1e38: a6 24        	ldx	$24                     ; 0x24 <__rc20>
    1e3a: 86 12        	stx	$12                     ; 0x12 <__rc2>
    1e3c: a6 25        	ldx	$25                     ; 0x25 <__rc21>
    1e3e: 86 13        	stx	$13                     ; 0x13 <__rc3>
    1e40: 20 ab 1a     	jsr	$1aab <readDirectory>
    1e43: a6 24        	ldx	$24                     ; 0x24 <__rc20>
    1e45: 86 12        	stx	$12                     ; 0x12 <__rc2>
    1e47: a6 25        	ldx	$25                     ; 0x25 <__rc21>
    1e49: 86 13        	stx	$13                     ; 0x13 <__rc3>
    1e4b: 20 4d 07     	jsr	$74d <sortFileList>
    1e4e: a9 0a        	lda	#$a
    1e50: a2 00        	ldx	#$0
    1e52: 20 97 31     	jsr	$3197 <textSetColor>
    1e55: a5 29        	lda	$29                     ; 0x29 <__rc25>
    1e57: 18           	clc
    1e58: 69 e8        	adc	#$e8
    1e5a: 85 26        	sta	$26                     ; 0x26 <__rc22>
    1e5c: a5 25        	lda	$25                     ; 0x25 <__rc21>
    1e5e: 69 11        	adc	#$11
    1e60: 85 27        	sta	$27                     ; 0x27 <__rc23>
    1e62: b2 26        	lda	($26)                   ; 0x26 <__rc22>
    1e64: 85 14        	sta	$14                     ; 0x14 <__rc4>
    1e66: a0 01        	ldy	#$1
    1e68: b1 26        	lda	($26),y                 ; 0x26 <__rc22>
    1e6a: a6 24        	ldx	$24                     ; 0x24 <__rc20>
    1e6c: 86 12        	stx	$12                     ; 0x12 <__rc2>
    1e6e: a6 25        	ldx	$25                     ; 0x25 <__rc21>
    1e70: 86 13        	stx	$13                     ; 0x13 <__rc3>
    1e72: aa           	tax
    1e73: a5 14        	lda	$14                     ; 0x14 <__rc4>
    1e75: 20 c1 16     	jsr	$16c1 <displayFileList>
    1e78: a5 29        	lda	$29                     ; 0x29 <__rc25>
    1e7a: 18           	clc
    1e7b: 69 02        	adc	#$2
    1e7d: a0 12        	ldy	#$12
    1e7f: 91 10        	sta	($10),y                 ; 0x10 <__rc0>
    1e81: 85 2a        	sta	$2a                     ; 0x2a <__rc26>
    1e83: a5 25        	lda	$25                     ; 0x25 <__rc21>
    1e85: 69 00        	adc	#$0
    1e87: 88           	dey
    1e88: 91 10        	sta	($10),y                 ; 0x10 <__rc0>
    1e8a: 85 2b        	sta	$2b                     ; 0x2b <__rc27>
    1e8c: 18           	clc
    1e8d: a5 29        	lda	$29                     ; 0x29 <__rc25>
    1e8f: 69 e2        	adc	#$e2
    1e91: 85 2e        	sta	$2e                     ; 0x2e <__rc30>
    1e93: a5 25        	lda	$25                     ; 0x25 <__rc21>
    1e95: 69 11        	adc	#$11
    1e97: 85 2f        	sta	$2f                     ; 0x2f <__rc31>
    1e99: a2 00        	ldx	#$0
    1e9b: 86 2c        	stx	$2c                     ; 0x2c <__rc28>
    1e9d: a2 00        	ldx	#$0
    1e9f: 86 2d        	stx	$2d                     ; 0x2d <__rc29>
    1ea1: a0 0e        	ldy	#$e
    1ea3: b1 10        	lda	($10),y                 ; 0x10 <__rc0>
    1ea5: 85 28        	sta	$28                     ; 0x28 <__rc24>
    1ea7: c8           	iny
    1ea8: b1 10        	lda	($10),y                 ; 0x10 <__rc0>
    1eaa: 85 29        	sta	$29                     ; 0x29 <__rc25>
    1eac: a6 24        	ldx	$24                     ; 0x24 <__rc20>
    1eae: 86 12        	stx	$12                     ; 0x12 <__rc2>
    1eb0: a6 25        	ldx	$25                     ; 0x25 <__rc21>
    1eb2: 86 13        	stx	$13                     ; 0x13 <__rc3>
    1eb4: 20 73 0a     	jsr	$a73 <pickFile>
    1eb7: c9 04        	cmp	#$4
    1eb9: 90 03        	bcc	$1ebe <filePickModal+0x23e>
    1ebb: 4c 65 20     	jmp	$2065 <filePickModal+0x3e5>
    1ebe: a0 00        	ldy	#$0
    1ec0: 85 12        	sta	$12                     ; 0x12 <__rc2>
    1ec2: 06 12        	asl	$12                     ; 0x12 <__rc2>
    1ec4: a6 12        	ldx	$12                     ; 0x12 <__rc2>
    1ec6: 7c 31 4d     	jmp	($4d31,x)               ; 0x4d31 <__BLOCK_SIZE+0x2d31>
    1ec9: a0 02        	ldy	#$2
    1ecb: b1 24        	lda	($24),y                 ; 0x24 <__rc20>
    1ecd: d0 03        	bne	$1ed2 <filePickModal+0x252>
    1ecf: 4c f8 1f     	jmp	$1ff8 <filePickModal+0x378>
    1ed2: a6 2a        	ldx	$2a                     ; 0x2a <__rc26>
    1ed4: 86 12        	stx	$12                     ; 0x12 <__rc2>
    1ed6: a6 2b        	ldx	$2b                     ; 0x2b <__rc27>
    1ed8: 86 13        	stx	$13                     ; 0x13 <__rc3>
    1eda: a2 e9        	ldx	#$e9
    1edc: 86 14        	stx	$14                     ; 0x14 <__rc4>
    1ede: a2 4d        	ldx	#$4d
    1ee0: 86 15        	stx	$15                     ; 0x15 <__rc5>
    1ee2: 20 1f 4b     	jsr	$4b1f <strcmp>
    1ee5: e0 00        	cpx	#$0
    1ee7: d0 06        	bne	$1eef <filePickModal+0x26f>
    1ee9: aa           	tax
    1eea: d0 03        	bne	$1eef <filePickModal+0x26f>
    1eec: 4c f8 1f     	jmp	$1ff8 <filePickModal+0x378>
    1eef: a6 2a        	ldx	$2a                     ; 0x2a <__rc26>
    1ef1: 86 12        	stx	$12                     ; 0x12 <__rc2>
    1ef3: a6 2b        	ldx	$2b                     ; 0x2b <__rc27>
    1ef5: 86 13        	stx	$13                     ; 0x13 <__rc3>
    1ef7: a2 00        	ldx	#$0
    1ef9: a9 2f        	lda	#$2f
    1efb: 20 47 4b     	jsr	$4b47 <strrchr>
    1efe: a6 13        	ldx	$13                     ; 0x13 <__rc3>
    1f00: e4 2d        	cpx	$2d                     ; 0x2d <__rc29>
    1f02: f0 03        	beq	$1f07 <filePickModal+0x287>
    1f04: 4c e2 1f     	jmp	$1fe2 <filePickModal+0x362>
    1f07: a6 12        	ldx	$12                     ; 0x12 <__rc2>
    1f09: a9 00        	lda	#$0
    1f0b: e4 2c        	cpx	$2c                     ; 0x2c <__rc28>
    1f0d: f0 03        	beq	$1f12 <filePickModal+0x292>
    1f0f: 4c e4 1f     	jmp	$1fe4 <filePickModal+0x364>
    1f12: 4c f0 1f     	jmp	$1ff0 <filePickModal+0x370>
    1f15: a6 10        	ldx	$10                     ; 0x10 <__rc0>
    1f17: a4 11        	ldy	$11                     ; 0x11 <__rc1>
    1f19: 8a           	txa
    1f1a: 18           	clc
    1f1b: 69 02        	adc	#$2
    1f1d: 85 12        	sta	$12                     ; 0x12 <__rc2>
    1f1f: 98           	tya
    1f20: 69 00        	adc	#$0
    1f22: 85 13        	sta	$13                     ; 0x13 <__rc3>
    1f24: 18           	clc
    1f25: 8a           	txa
    1f26: 69 04        	adc	#$4
    1f28: 85 16        	sta	$16                     ; 0x16 <__rc6>
    1f2a: 98           	tya
    1f2b: 69 00        	adc	#$0
    1f2d: aa           	tax
    1f2e: a0 12        	ldy	#$12
    1f30: b1 10        	lda	($10),y                 ; 0x10 <__rc0>
    1f32: 92 10        	sta	($10)                   ; 0x10 <__rc0>
    1f34: a0 01        	ldy	#$1
    1f36: 5a           	phy
    1f37: a0 11        	ldy	#$11
    1f39: b1 10        	lda	($10),y                 ; 0x10 <__rc0>
    1f3b: 7a           	ply
    1f3c: 91 10        	sta	($10),y                 ; 0x10 <__rc0>
    1f3e: a9 e9        	lda	#$e9
    1f40: a0 02        	ldy	#$2
    1f42: 91 10        	sta	($10),y                 ; 0x10 <__rc0>
    1f44: a9 4d        	lda	#$4d
    1f46: 88           	dey
    1f47: 91 12        	sta	($12),y                 ; 0x12 <__rc2>
    1f49: a4 16        	ldy	$16                     ; 0x16 <__rc6>
    1f4b: 84 12        	sty	$12                     ; 0x12 <__rc2>
    1f4d: 86 13        	stx	$13                     ; 0x13 <__rc3>
    1f4f: a0 15        	ldy	#$15
    1f51: b1 10        	lda	($10),y                 ; 0x10 <__rc0>
    1f53: a0 04        	ldy	#$4
    1f55: 91 10        	sta	($10),y                 ; 0x10 <__rc0>
    1f57: a0 14        	ldy	#$14
    1f59: b1 10        	lda	($10),y                 ; 0x10 <__rc0>
    1f5b: a0 01        	ldy	#$1
    1f5d: 91 12        	sta	($12),y                 ; 0x12 <__rc2>
    1f5f: 18           	clc
    1f60: a5 10        	lda	$10                     ; 0x10 <__rc0>
    1f62: 69 18        	adc	#$18
    1f64: 85 2c        	sta	$2c                     ; 0x2c <__rc28>
    1f66: a5 11        	lda	$11                     ; 0x11 <__rc1>
    1f68: 69 00        	adc	#$0
    1f6a: 85 2d        	sta	$2d                     ; 0x2d <__rc29>
    1f6c: a6 2c        	ldx	$2c                     ; 0x2c <__rc28>
    1f6e: 86 12        	stx	$12                     ; 0x12 <__rc2>
    1f70: 85 13        	sta	$13                     ; 0x13 <__rc3>
    1f72: a2 88        	ldx	#$88
    1f74: 86 14        	stx	$14                     ; 0x14 <__rc4>
    1f76: a2 4e        	ldx	#$4e
    1f78: 86 15        	stx	$15                     ; 0x15 <__rc5>
    1f7a: 20 15 46     	jsr	$4615 <sprintf>
    1f7d: a0 16        	ldy	#$16
    1f7f: b1 10        	lda	($10),y                 ; 0x10 <__rc0>
    1f81: 85 12        	sta	$12                     ; 0x12 <__rc2>
    1f83: c8           	iny
    1f84: b1 10        	lda	($10),y                 ; 0x10 <__rc0>
    1f86: 85 13        	sta	$13                     ; 0x13 <__rc3>
    1f88: a2 11        	ldx	#$11
    1f8a: 86 14        	stx	$14                     ; 0x14 <__rc4>
    1f8c: a2 04        	ldx	#$4
    1f8e: a9 00        	lda	#$0
    1f90: 20 07 4a     	jsr	$4a07 <__memset>
    1f93: a6 28        	ldx	$28                     ; 0x28 <__rc24>
    1f95: 86 12        	stx	$12                     ; 0x12 <__rc2>
    1f97: a6 29        	ldx	$29                     ; 0x29 <__rc25>
    1f99: 86 13        	stx	$13                     ; 0x13 <__rc3>
    1f9b: 64 14        	stz	$14                     ; 0x14 <__rc4>
    1f9d: a2 63        	ldx	#$63
    1f9f: a9 00        	lda	#$0
    1fa1: 20 07 4a     	jsr	$4a07 <__memset>
    1fa4: a9 00        	lda	#$0
    1fa6: 92 2e        	sta	($2e)                   ; 0x2e <__rc30>
    1fa8: a0 01        	ldy	#$1
    1faa: 91 2e        	sta	($2e),y                 ; 0x2e <__rc30>
    1fac: c8           	iny
    1fad: 91 2e        	sta	($2e),y                 ; 0x2e <__rc30>
    1faf: c8           	iny
    1fb0: 91 2e        	sta	($2e),y                 ; 0x2e <__rc30>
    1fb2: c8           	iny
    1fb3: 91 2e        	sta	($2e),y                 ; 0x2e <__rc30>
    1fb5: c8           	iny
    1fb6: 91 2e        	sta	($2e),y                 ; 0x2e <__rc30>
    1fb8: c8           	iny
    1fb9: 91 2e        	sta	($2e),y                 ; 0x2e <__rc30>
    1fbb: c8           	iny
    1fbc: 91 2e        	sta	($2e),y                 ; 0x2e <__rc30>
    1fbe: aa           	tax
    1fbf: a4 2a        	ldy	$2a                     ; 0x2a <__rc26>
    1fc1: 84 12        	sty	$12                     ; 0x12 <__rc2>
    1fc3: a4 2b        	ldy	$2b                     ; 0x2b <__rc27>
    1fc5: 84 13        	sty	$13                     ; 0x13 <__rc3>
    1fc7: a4 2c        	ldy	$2c                     ; 0x2c <__rc28>
    1fc9: 84 14        	sty	$14                     ; 0x14 <__rc4>
    1fcb: a4 2d        	ldy	$2d                     ; 0x2d <__rc29>
    1fcd: 84 15        	sty	$15                     ; 0x15 <__rc5>
    1fcf: a8           	tay
    1fd0: 84 2c        	sty	$2c                     ; 0x2c <__rc28>
    1fd2: a8           	tay
    1fd3: 84 2d        	sty	$2d                     ; 0x2d <__rc29>
    1fd5: a9 20        	lda	#$20
    1fd7: 20 62 4a     	jsr	$4a62 <strncpy>
    1fda: 4c 39 20     	jmp	$2039 <filePickModal+0x3b9>
    1fdd: a9 01        	lda	#$1
    1fdf: 4c 68 20     	jmp	$2068 <filePickModal+0x3e8>
    1fe2: a9 00        	lda	#$0
    1fe4: a6 13        	ldx	$13                     ; 0x13 <__rc3>
    1fe6: e4 2b        	cpx	$2b                     ; 0x2b <__rc27>
    1fe8: d0 0c        	bne	$1ff6 <filePickModal+0x376>
    1fea: a6 12        	ldx	$12                     ; 0x12 <__rc2>
    1fec: e4 2a        	cpx	$2a                     ; 0x2a <__rc26>
    1fee: d0 06        	bne	$1ff6 <filePickModal+0x376>
    1ff0: a0 02        	ldy	#$2
    1ff2: 91 24        	sta	($24),y                 ; 0x24 <__rc20>
    1ff4: 80 02        	bra	$1ff8 <filePickModal+0x378>
    1ff6: 92 12        	sta	($12)                   ; 0x12 <__rc2>
    1ff8: a0 16        	ldy	#$16
    1ffa: b1 10        	lda	($10),y                 ; 0x10 <__rc0>
    1ffc: 85 12        	sta	$12                     ; 0x12 <__rc2>
    1ffe: c8           	iny
    1fff: b1 10        	lda	($10),y                 ; 0x10 <__rc0>
    2001: 85 13        	sta	$13                     ; 0x13 <__rc3>
    2003: a2 11        	ldx	#$11
    2005: 86 14        	stx	$14                     ; 0x14 <__rc4>
    2007: a2 04        	ldx	#$4
    2009: a9 00        	lda	#$0
    200b: 20 07 4a     	jsr	$4a07 <__memset>
    200e: a6 28        	ldx	$28                     ; 0x28 <__rc24>
    2010: 86 12        	stx	$12                     ; 0x12 <__rc2>
    2012: a6 29        	ldx	$29                     ; 0x29 <__rc25>
    2014: 86 13        	stx	$13                     ; 0x13 <__rc3>
    2016: 64 14        	stz	$14                     ; 0x14 <__rc4>
    2018: a2 63        	ldx	#$63
    201a: a9 00        	lda	#$0
    201c: 20 07 4a     	jsr	$4a07 <__memset>
    201f: a9 00        	lda	#$0
    2021: 92 2e        	sta	($2e)                   ; 0x2e <__rc30>
    2023: a0 01        	ldy	#$1
    2025: 91 2e        	sta	($2e),y                 ; 0x2e <__rc30>
    2027: c8           	iny
    2028: 91 2e        	sta	($2e),y                 ; 0x2e <__rc30>
    202a: c8           	iny
    202b: 91 2e        	sta	($2e),y                 ; 0x2e <__rc30>
    202d: c8           	iny
    202e: 91 2e        	sta	($2e),y                 ; 0x2e <__rc30>
    2030: c8           	iny
    2031: 91 2e        	sta	($2e),y                 ; 0x2e <__rc30>
    2033: c8           	iny
    2034: 91 2e        	sta	($2e),y                 ; 0x2e <__rc30>
    2036: c8           	iny
    2037: 91 2e        	sta	($2e),y                 ; 0x2e <__rc30>
    2039: a6 24        	ldx	$24                     ; 0x24 <__rc20>
    203b: 86 12        	stx	$12                     ; 0x12 <__rc2>
    203d: a6 25        	ldx	$25                     ; 0x25 <__rc21>
    203f: 86 13        	stx	$13                     ; 0x13 <__rc3>
    2041: 20 ab 1a     	jsr	$1aab <readDirectory>
    2044: a6 24        	ldx	$24                     ; 0x24 <__rc20>
    2046: 86 12        	stx	$12                     ; 0x12 <__rc2>
    2048: a6 25        	ldx	$25                     ; 0x25 <__rc21>
    204a: 86 13        	stx	$13                     ; 0x13 <__rc3>
    204c: 20 4d 07     	jsr	$74d <sortFileList>
    204f: b2 26        	lda	($26)                   ; 0x26 <__rc22>
    2051: 85 14        	sta	$14                     ; 0x14 <__rc4>
    2053: a0 01        	ldy	#$1
    2055: b1 26        	lda	($26),y                 ; 0x26 <__rc22>
    2057: a6 24        	ldx	$24                     ; 0x24 <__rc20>
    2059: 86 12        	stx	$12                     ; 0x12 <__rc2>
    205b: a6 25        	ldx	$25                     ; 0x25 <__rc21>
    205d: 86 13        	stx	$13                     ; 0x13 <__rc3>
    205f: aa           	tax
    2060: a5 14        	lda	$14                     ; 0x14 <__rc4>
    2062: 20 c1 16     	jsr	$16c1 <displayFileList>
    2065: a9 00        	lda	#$0
    2067: a8           	tay
    2068: c0 00        	cpy	#$0
    206a: d0 0e        	bne	$207a <filePickModal+0x3fa>
    206c: c0 00        	cpy	#$0
    206e: d0 0a        	bne	$207a <filePickModal+0x3fa>
    2070: c0 00        	cpy	#$0
    2072: d0 06        	bne	$207a <filePickModal+0x3fa>
    2074: aa           	tax
    2075: d0 03        	bne	$207a <filePickModal+0x3fa>
    2077: 4c ac 1e     	jmp	$1eac <filePickModal+0x22c>
    207a: c0 00        	cpy	#$0
    207c: d0 11        	bne	$208f <filePickModal+0x40f>
    207e: c0 00        	cpy	#$0
    2080: d0 0d        	bne	$208f <filePickModal+0x40f>
    2082: c0 00        	cpy	#$0
    2084: d0 09        	bne	$208f <filePickModal+0x40f>
    2086: c9 01        	cmp	#$1
    2088: d0 05        	bne	$208f <filePickModal+0x40f>
    208a: a9 01        	lda	#$1
    208c: 4c e5 20     	jmp	$20e5 <filePickModal+0x465>
    208f: b2 24        	lda	($24)                   ; 0x24 <__rc20>
    2091: 85 12        	sta	$12                     ; 0x12 <__rc2>
    2093: a0 01        	ldy	#$1
    2095: b1 24        	lda	($24),y                 ; 0x24 <__rc20>
    2097: aa           	tax
    2098: a5 12        	lda	$12                     ; 0x12 <__rc2>
    209a: 20 2c 2f     	jsr	$2f2c <textGotoXY>
    209d: a2 00        	ldx	#$0
    209f: a0 00        	ldy	#$0
    20a1: 80 14        	bra	$20b7 <filePickModal+0x437>
    20a3: e4 12        	cpx	$12                     ; 0x12 <__rc2>
    20a5: a5 27        	lda	$27                     ; 0x27 <__rc23>
    20a7: 90 14        	bcc	$20bd <filePickModal+0x43d>
    20a9: a9 0a        	lda	#$a
    20ab: 20 62 46     	jsr	$4662 <putchar>
    20ae: a2 00        	ldx	#$0
    20b0: a4 26        	ldy	$26                     ; 0x26 <__rc22>
    20b2: c8           	iny
    20b3: c0 11        	cpy	#$11
    20b5: f0 2c        	beq	$20e3 <filePickModal+0x463>
    20b7: 84 26        	sty	$26                     ; 0x26 <__rc22>
    20b9: a0 01        	ldy	#$1
    20bb: b1 24        	lda	($24),y                 ; 0x24 <__rc20>
    20bd: 1a           	inc
    20be: 85 27        	sta	$27                     ; 0x27 <__rc23>
    20c0: a9 20        	lda	#$20
    20c2: 20 62 46     	jsr	$4662 <putchar>
    20c5: a0 01        	ldy	#$1
    20c7: b1 24        	lda	($24),y                 ; 0x24 <__rc20>
    20c9: 18           	clc
    20ca: 69 2c        	adc	#$2c
    20cc: a8           	tay
    20cd: a9 00        	lda	#$0
    20cf: 69 00        	adc	#$0
    20d1: 85 12        	sta	$12                     ; 0x12 <__rc2>
    20d3: a2 00        	ldx	#$0
    20d5: e4 12        	cpx	$12                     ; 0x12 <__rc2>
    20d7: d0 ca        	bne	$20a3 <filePickModal+0x423>
    20d9: 84 12        	sty	$12                     ; 0x12 <__rc2>
    20db: a5 27        	lda	$27                     ; 0x27 <__rc23>
    20dd: c5 12        	cmp	$12                     ; 0x12 <__rc2>
    20df: b0 c8        	bcs	$20a9 <filePickModal+0x429>
    20e1: 80 da        	bra	$20bd <filePickModal+0x43d>
    20e3: a9 00        	lda	#$0
    20e5: 85 20        	sta	$20                     ; 0x20 <__rc16>
    20e7: a0 06        	ldy	#$6
    20e9: b1 10        	lda	($10),y                 ; 0x10 <__rc0>
    20eb: 85 2f        	sta	$2f                     ; 0x2f <__rc31>
    20ed: c8           	iny
    20ee: b1 10        	lda	($10),y                 ; 0x10 <__rc0>
    20f0: 85 2e        	sta	$2e                     ; 0x2e <__rc30>
    20f2: c8           	iny
    20f3: b1 10        	lda	($10),y                 ; 0x10 <__rc0>
    20f5: 85 2d        	sta	$2d                     ; 0x2d <__rc29>
    20f7: c8           	iny
    20f8: b1 10        	lda	($10),y                 ; 0x10 <__rc0>
    20fa: 85 2c        	sta	$2c                     ; 0x2c <__rc28>
    20fc: c8           	iny
    20fd: b1 10        	lda	($10),y                 ; 0x10 <__rc0>
    20ff: 85 2b        	sta	$2b                     ; 0x2b <__rc27>
    2101: c8           	iny
    2102: b1 10        	lda	($10),y                 ; 0x10 <__rc0>
    2104: 85 2a        	sta	$2a                     ; 0x2a <__rc26>
    2106: c8           	iny
    2107: b1 10        	lda	($10),y                 ; 0x10 <__rc0>
    2109: 85 29        	sta	$29                     ; 0x29 <__rc25>
    210b: c8           	iny
    210c: b1 10        	lda	($10),y                 ; 0x10 <__rc0>
    210e: 85 28        	sta	$28                     ; 0x28 <__rc24>
    2110: fa           	plx
    2111: 86 27        	stx	$27                     ; 0x27 <__rc23>
    2113: fa           	plx
    2114: 86 26        	stx	$26                     ; 0x26 <__rc22>
    2116: fa           	plx
    2117: 86 25        	stx	$25                     ; 0x25 <__rc21>
    2119: fa           	plx
    211a: 86 24        	stx	$24                     ; 0x24 <__rc20>
    211c: 18           	clc
    211d: a5 10        	lda	$10                     ; 0x10 <__rc0>
    211f: 69 58        	adc	#$58
    2121: 85 10        	sta	$10                     ; 0x10 <__rc0>
    2123: a5 11        	lda	$11                     ; 0x11 <__rc1>
    2125: 69 00        	adc	#$0
    2127: 85 11        	sta	$11                     ; 0x11 <__rc1>
    2129: a5 20        	lda	$20                     ; 0x20 <__rc16>
    212b: 60           	rts

0000212c <clearSIDRegisters>:
    212c: a2 d4        	ldx	#$d4
    212e: a0 00        	ldy	#$0
    2130: 18           	clc
    2131: 98           	tya
    2132: 69 00        	adc	#$0
    2134: 85 14        	sta	$14                     ; 0x14 <__rc4>
    2136: 8a           	txa
    2137: 69 01        	adc	#$1
    2139: 85 15        	sta	$15                     ; 0x15 <__rc5>
    213b: 84 12        	sty	$12                     ; 0x12 <__rc2>
    213d: 86 13        	stx	$13                     ; 0x13 <__rc3>
    213f: a9 00        	lda	#$0
    2141: 92 12        	sta	($12)                   ; 0x12 <__rc2>
    2143: 5a           	phy
    2144: a4 14        	ldy	$14                     ; 0x14 <__rc4>
    2146: 84 12        	sty	$12                     ; 0x12 <__rc2>
    2148: a4 15        	ldy	$15                     ; 0x15 <__rc5>
    214a: 84 13        	sty	$13                     ; 0x13 <__rc3>
    214c: 7a           	ply
    214d: 92 12        	sta	($12)                   ; 0x12 <__rc2>
    214f: c8           	iny
    2150: d0 01        	bne	$2153 <clearSIDRegisters+0x27>
    2152: e8           	inx
    2153: c0 19        	cpy	#$19
    2155: d0 d9        	bne	$2130 <clearSIDRegisters+0x4>
    2157: 60           	rts

00002158 <setMonoSID>:
    2158: ad a1 d6     	lda	$d6a1                   ; 0xd6a1 <end_block9+0x73fb>
    215b: 29 f7        	and	#$f7
    215d: 8d a1 d6     	sta	$d6a1                   ; 0xd6a1 <end_block9+0x73fb>
    2160: 60           	rts

00002161 <setTimer0>:
    2161: a0 02        	ldy	#$2
    2163: 8c 50 d6     	sty	$d650                   ; 0xd650 <end_block9+0x73aa>
    2166: 8d 55 d6     	sta	$d655                   ; 0xd655 <end_block9+0x73af>
    2169: 8e 56 d6     	stx	$d656                   ; 0xd656 <end_block9+0x73b0>
    216c: a6 12        	ldx	$12                     ; 0x12 <__rc2>
    216e: 8e 57 d6     	stx	$d657                   ; 0xd657 <end_block9+0x73b1>
    2171: 9c 54 d6     	stz	$d654                   ; 0xd654 <end_block9+0x73ae>
    2174: 8c 50 d6     	sty	$d650                   ; 0xd650 <end_block9+0x73aa>
    2177: a2 89        	ldx	#$89
    2179: 8e 50 d6     	stx	$d650                   ; 0xd650 <end_block9+0x73aa>
    217c: 60           	rts

0000217d <setTimer>:
    217d: b2 12        	lda	($12)                   ; 0x12 <__rc2>
    217f: 85 f3        	sta	$f3                     ; 0xf3 <__zp_data_size+0xb9>
    2181: a0 01        	ldy	#$1
    2183: b1 12        	lda	($12),y                 ; 0x12 <__rc2>
    2185: 85 f4        	sta	$f4                     ; 0xf4 <__zp_data_size+0xba>
    2187: c8           	iny
    2188: b1 12        	lda	($12),y                 ; 0x12 <__rc2>
    218a: 85 f5        	sta	$f5                     ; 0xf5 <__zp_data_size+0xbb>
    218c: a2 9d        	ldx	#$9d
    218e: a0 00        	ldy	#$0
    2190: 86 12        	stx	$12                     ; 0x12 <__rc2>
    2192: 84 13        	sty	$13                     ; 0x13 <__rc3>
    2194: a2 73        	ldx	#$73
    2196: 86 14        	stx	$14                     ; 0x14 <__rc4>
    2198: a2 00        	ldx	#$0
    219a: 86 15        	stx	$15                     ; 0x15 <__rc5>
    219c: 20 f0 ff     	jsr	$fff0 <end_block9+0x9d4a>
    219f: 92 12        	sta	($12)                   ; 0x12 <__rc2>
    21a1: a9 00        	lda	#$0
    21a3: 6a           	ror
    21a4: 85 14        	sta	$14                     ; 0x14 <__rc4>
    21a6: a6 73        	ldx	$73                     ; 0x73 <kernelError>
    21a8: d0 03        	bne	$21ad <setTimer+0x30>
    21aa: a9 01        	lda	#$1
    21ac: 60           	rts
    21ad: a9 00        	lda	#$0
    21af: 60           	rts

000021b0 <getTimerAbsolute>:
    21b0: 09 80        	ora	#$80
    21b2: 85 f3        	sta	$f3                     ; 0xf3 <__zp_data_size+0xb9>
    21b4: a2 9d        	ldx	#$9d
    21b6: a0 00        	ldy	#$0
    21b8: 86 12        	stx	$12                     ; 0x12 <__rc2>
    21ba: 84 13        	sty	$13                     ; 0x13 <__rc3>
    21bc: a2 73        	ldx	#$73
    21be: 86 14        	stx	$14                     ; 0x14 <__rc4>
    21c0: a2 00        	ldx	#$0
    21c2: 86 15        	stx	$15                     ; 0x15 <__rc5>
    21c4: 20 f0 ff     	jsr	$fff0 <end_block9+0x9d4a>
    21c7: 92 12        	sta	($12)                   ; 0x12 <__rc2>
    21c9: a9 00        	lda	#$0
    21cb: 6a           	ror
    21cc: 85 14        	sta	$14                     ; 0x14 <__rc4>
    21ce: a5 9d        	lda	$9d                     ; 0x9d <__zp_data_size+0x63>
    21d0: 60           	rts

000021d1 <hitspace>:
    21d1: a2 00        	ldx	#$0
    21d3: a0 9d        	ldy	#$9d
    21d5: a9 00        	lda	#$0
    21d7: 84 12        	sty	$12                     ; 0x12 <__rc2>
    21d9: 85 13        	sta	$13                     ; 0x13 <__rc3>
    21db: a0 73        	ldy	#$73
    21dd: 84 14        	sty	$14                     ; 0x14 <__rc4>
    21df: a0 00        	ldy	#$0
    21e1: 84 15        	sty	$15                     ; 0x15 <__rc5>
    21e3: 64 6c        	stz	$6c                     ; 0x6c <kernelEventData>
    21e5: 20 00 ff     	jsr	$ff00 <end_block9+0x9c5a>
    21e8: 92 12        	sta	($12)                   ; 0x12 <__rc2>
    21ea: a9 00        	lda	#$0
    21ec: 6a           	ror
    21ed: 85 14        	sta	$14                     ; 0x14 <__rc4>
    21ef: a4 6c        	ldy	$6c                     ; 0x6c <kernelEventData>
    21f1: c0 08        	cpy	#$8
    21f3: d0 0c        	bne	$2201 <hitspace+0x30>
    21f5: a4 70        	ldy	$70                     ; 0x70 <kernelEventData+0x4>
    21f7: c0 20        	cpy	#$20
    21f9: f0 04        	beq	$21ff <hitspace+0x2e>
    21fb: c0 94        	cpy	#$94
    21fd: d0 02        	bne	$2201 <hitspace+0x30>
    21ff: a2 01        	ldx	#$1
    2201: 8a           	txa
    2202: f0 df        	beq	$21e3 <hitspace+0x12>
    2204: 60           	rts

00002205 <f256Init>:
    2205: 64 12        	stz	$12                     ; 0x12 <__rc2>
    2207: 64 01        	stz	$1                      ; 0x1 <__data_size+0x1>
    2209: a2 3f        	ldx	#$3f
    220b: 8e 00 d0     	stx	$d000                   ; 0xd000 <end_block9+0x6d5a>
    220e: a2 b3        	ldx	#$b3
    2210: 86 00        	stx	$0                      ; 0x0 <__data_size>
    2212: 64 08        	stz	$8                      ; 0x8 <__data_size+0x8>
    2214: a2 01        	ldx	#$1
    2216: 86 09        	stx	$9                      ; 0x9 <__data_size+0x9>
    2218: e8           	inx
    2219: 86 0a        	stx	$a                      ; 0xa <__data_size+0xa>
    221b: e8           	inx
    221c: 86 0b        	stx	$b                      ; 0xb <__data_size+0xb>
    221e: e8           	inx
    221f: 86 0c        	stx	$c                      ; 0xc <__data_size+0xc>
    2221: e8           	inx
    2222: 86 0d        	stx	$d                      ; 0xd <__data_size+0xd>
    2224: a2 f0        	ldx	#$f0
    2226: 86 6a        	stx	$6a                     ; 0x6a <kernelArgs>
    2228: 64 6b        	stz	$6b                     ; 0x6b <kernelArgs+0x1>
    222a: a2 6c        	ldx	#$6c
    222c: a0 00        	ldy	#$0
    222e: 86 f0        	stx	$f0                     ; 0xf0 <__zp_data_size+0xb6>
    2230: 84 f1        	sty	$f1                     ; 0xf1 <__zp_data_size+0xb7>
    2232: a2 00        	ldx	#$0
    2234: 86 16        	stx	$16                     ; 0x16 <__rc6>
    2236: ca           	dex
    2237: 86 17        	stx	$17                     ; 0x17 <__rc7>
    2239: 8a           	txa
    223a: 0a           	asl
    223b: 0a           	asl
    223c: 18           	clc
    223d: 69 d4        	adc	#$d4
    223f: 85 18        	sta	$18                     ; 0x18 <__rc8>
    2241: a0 00        	ldy	#$0
    2243: 64 15        	stz	$15                     ; 0x15 <__rc5>
    2245: 64 14        	stz	$14                     ; 0x14 <__rc4>
    2247: a6 17        	ldx	$17                     ; 0x17 <__rc7>
    2249: e0 03        	cpx	#$3
    224b: a6 01        	ldx	$1                      ; 0x1 <__data_size+0x1>
    224d: 86 1a        	stx	$1a                     ; 0x1a <__rc10>
    224f: a2 d0        	ldx	#$d0
    2251: 84 19        	sty	$19                     ; 0x19 <__rc9>
    2253: b0 02        	bcs	$2257 <f256Init+0x52>
    2255: a6 18        	ldx	$18                     ; 0x18 <__rc8>
    2257: 86 13        	stx	$13                     ; 0x13 <__rc3>
    2259: a5 15        	lda	$15                     ; 0x15 <__rc5>
    225b: 18           	clc
    225c: 65 12        	adc	$12                     ; 0x12 <__rc2>
    225e: a8           	tay
    225f: a6 15        	ldx	$15                     ; 0x15 <__rc5>
    2261: a5 14        	lda	$14                     ; 0x14 <__rc4>
    2263: 85 1b        	sta	$1b                     ; 0x1b <__rc11>
    2265: a5 14        	lda	$14                     ; 0x14 <__rc4>
    2267: 65 13        	adc	$13                     ; 0x13 <__rc3>
    2269: 84 14        	sty	$14                     ; 0x14 <__rc4>
    226b: a0 01        	ldy	#$1
    226d: 84 01        	sty	$1                      ; 0x1 <__data_size+0x1>
    226f: 85 15        	sta	$15                     ; 0x15 <__rc5>
    2271: a5 19        	lda	$19                     ; 0x19 <__rc9>
    2273: 92 14        	sta	($14)                   ; 0x14 <__rc4>
    2275: 91 14        	sta	($14),y                 ; 0x14 <__rc4>
    2277: c8           	iny
    2278: 91 14        	sta	($14),y                 ; 0x14 <__rc4>
    227a: 85 13        	sta	$13                     ; 0x13 <__rc3>
    227c: c8           	iny
    227d: a9 ff        	lda	#$ff
    227f: 91 14        	sta	($14),y                 ; 0x14 <__rc4>
    2281: 8a           	txa
    2282: a6 1a        	ldx	$1a                     ; 0x1a <__rc10>
    2284: 86 01        	stx	$1                      ; 0x1 <__data_size+0x1>
    2286: 18           	clc
    2287: 69 04        	adc	#$4
    2289: 85 15        	sta	$15                     ; 0x15 <__rc5>
    228b: a5 1b        	lda	$1b                     ; 0x1b <__rc11>
    228d: 69 00        	adc	#$0
    228f: e6 13        	inc	$13                     ; 0x13 <__rc3>
    2291: a4 13        	ldy	$13                     ; 0x13 <__rc3>
    2293: 85 14        	sta	$14                     ; 0x14 <__rc4>
    2295: c9 04        	cmp	#$4
    2297: f0 03        	beq	$229c <f256Init+0x97>
    2299: 4c 47 22     	jmp	$2247 <f256Init+0x42>
    229c: a5 15        	lda	$15                     ; 0x15 <__rc5>
    229e: f0 03        	beq	$22a3 <f256Init+0x9e>
    22a0: 4c 47 22     	jmp	$2247 <f256Init+0x42>
    22a3: a6 16        	ldx	$16                     ; 0x16 <__rc6>
    22a5: e8           	inx
    22a6: e0 04        	cpx	#$4
    22a8: f0 03        	beq	$22ad <f256Init+0xa8>
    22aa: 4c 34 22     	jmp	$2234 <f256Init+0x2f>
    22ad: ad 02 d0     	lda	$d002                   ; 0xd002 <end_block9+0x6d5c>
    22b0: 29 f0        	and	#$f0
    22b2: 8d 02 d0     	sta	$d002                   ; 0xd002 <end_block9+0x6d5c>
    22b5: ad 02 d0     	lda	$d002                   ; 0xd002 <end_block9+0x6d5c>
    22b8: 29 0f        	and	#$f
    22ba: 09 10        	ora	#$10
    22bc: 8d 02 d0     	sta	$d002                   ; 0xd002 <end_block9+0x6d5c>
    22bf: a2 02        	ldx	#$2
    22c1: 8e 03 d0     	stx	$d003                   ; 0xd003 <end_block9+0x6d5d>
    22c4: 20 81 23     	jsr	$2381 <textReset>
    22c7: 20 f4 24     	jsr	$24f4 <bitmapReset>
    22ca: a9 10        	lda	#$10
    22cc: a2 08        	ldx	#$8
    22ce: 86 89        	stx	$89                     ; 0x89 <_tileSize>
    22d0: 86 8a        	stx	$8a                     ; 0x8a <_tileSize+0x1>
    22d2: 86 8b        	stx	$8b                     ; 0x8b <_tileSize+0x2>
    22d4: 8d 00 d2     	sta	$d200                   ; 0xd200 <end_block9+0x6f5a>
    22d7: a4 8a        	ldy	$8a                     ; 0x8a <_tileSize+0x1>
    22d9: aa           	tax
    22da: c0 08        	cpy	#$8
    22dc: f0 02        	beq	$22e0 <f256Init+0xdb>
    22de: a2 00        	ldx	#$0
    22e0: 8e 0c d2     	stx	$d20c                   ; 0xd20c <end_block9+0x6f66>
    22e3: a6 8b        	ldx	$8b                     ; 0x8b <_tileSize+0x2>
    22e5: e0 08        	cpx	#$8
    22e7: f0 02        	beq	$22eb <f256Init+0xe6>
    22e9: a9 00        	lda	#$0
    22eb: 8d 18 d2     	sta	$d218                   ; 0xd218 <end_block9+0x6f72>
    22ee: a0 d9        	ldy	#$d9
    22f0: a2 00        	ldx	#$0
    22f2: 64 12        	stz	$12                     ; 0x12 <__rc2>
    22f4: 84 13        	sty	$13                     ; 0x13 <__rc3>
    22f6: bd 08 4f     	lda	$4f08,x                 ; 0x4f08 <_spriteCtl>
    22f9: 92 12        	sta	($12)                   ; 0x12 <__rc2>
    22fb: e8           	inx
    22fc: 18           	clc
    22fd: a5 12        	lda	$12                     ; 0x12 <__rc2>
    22ff: 69 08        	adc	#$8
    2301: 85 12        	sta	$12                     ; 0x12 <__rc2>
    2303: 98           	tya
    2304: 69 00        	adc	#$0
    2306: a8           	tay
    2307: e0 40        	cpx	#$40
    2309: d0 e9        	bne	$22f4 <f256Init+0xef>
    230b: 64 8c        	stz	$8c                     ; 0x8c <_dirStream>
    230d: 64 8d        	stz	$8d                     ; 0x8d <_dirStream+0x1>
    230f: 64 8e        	stz	$8e                     ; 0x8e <_dirStream+0x2>
    2311: 64 8f        	stz	$8f                     ; 0x8f <_dirStream+0x3>
    2313: 64 90        	stz	$90                     ; 0x90 <_dirStream+0x4>
    2315: 64 91        	stz	$91                     ; 0x91 <_dirStream+0x5>
    2317: 64 92        	stz	$92                     ; 0x92 <_dirStream+0x6>
    2319: 64 93        	stz	$93                     ; 0x93 <_dirStream+0x7>
    231b: a5 6a        	lda	$6a                     ; 0x6a <kernelArgs>
    231d: a6 6b        	ldx	$6b                     ; 0x6b <kernelArgs+0x1>
    231f: 85 12        	sta	$12                     ; 0x12 <__rc2>
    2321: 86 13        	stx	$13                     ; 0x13 <__rc3>
    2323: a0 0b        	ldy	#$b
    2325: 18           	clc
    2326: 69 0b        	adc	#$b
    2328: 85 14        	sta	$14                     ; 0x14 <__rc4>
    232a: 8a           	txa
    232b: 69 00        	adc	#$0
    232d: 85 15        	sta	$15                     ; 0x15 <__rc5>
    232f: a9 9d        	lda	#$9d
    2331: 91 12        	sta	($12),y                 ; 0x12 <__rc2>
    2333: a0 01        	ldy	#$1
    2335: a9 00        	lda	#$0
    2337: 91 14        	sta	($14),y                 ; 0x14 <__rc4>
    2339: a0 0d        	ldy	#$d
    233b: a9 08        	lda	#$8
    233d: 91 12        	sta	($12),y                 ; 0x12 <__rc2>
    233f: a2 a5        	ldx	#$a5
    2341: a0 00        	ldy	#$0
    2343: 86 12        	stx	$12                     ; 0x12 <__rc2>
    2345: 84 13        	sty	$13                     ; 0x13 <__rc3>
    2347: a2 73        	ldx	#$73
    2349: 86 14        	stx	$14                     ; 0x14 <__rc4>
    234b: a2 00        	ldx	#$0
    234d: 86 15        	stx	$15                     ; 0x15 <__rc5>
    234f: 20 dc ff     	jsr	$ffdc <end_block9+0x9d36>
    2352: 92 12        	sta	($12)                   ; 0x12 <__rc2>
    2354: a9 00        	lda	#$0
    2356: 6a           	ror
    2357: 85 14        	sta	$14                     ; 0x14 <__rc4>
    2359: a6 a3        	ldx	$a3                     ; 0xa3 <__zp_data_size+0x69>
    235b: a4 a4        	ldy	$a4                     ; 0xa4 <__zp_data_size+0x6a>
    235d: 8e 00 de     	stx	$de00                   ; 0xde00 <end_block9+0x7b5a>
    2360: 9c 01 de     	stz	$de01                   ; 0xde01 <end_block9+0x7b5b>
    2363: 8c 02 de     	sty	$de02                   ; 0xde02 <end_block9+0x7b5c>
    2366: 9c 03 de     	stz	$de03                   ; 0xde03 <end_block9+0x7b5d>
    2369: ae 10 de     	ldx	$de10                   ; 0xde10 <end_block9+0x7b6a>
    236c: ac 11 de     	ldy	$de11                   ; 0xde11 <end_block9+0x7b6b>
    236f: ad 12 de     	lda	$de12                   ; 0xde12 <end_block9+0x7b6c>
    2372: ad 13 de     	lda	$de13                   ; 0xde13 <end_block9+0x7b6d>
    2375: 8e a4 d6     	stx	$d6a4                   ; 0xd6a4 <end_block9+0x73fe>
    2378: 8c a5 d6     	sty	$d6a5                   ; 0xd6a5 <end_block9+0x73ff>
    237b: a2 03        	ldx	#$3
    237d: 8e a6 d6     	stx	$d6a6                   ; 0xd6a6 <end_block9+0x7400>
    2380: 60           	rts

00002381 <textReset>:
    2381: 64 14        	stz	$14                     ; 0x14 <__rc4>
    2383: a2 00        	ldx	#$0
    2385: 86 12        	stx	$12                     ; 0x12 <__rc2>
    2387: a2 c0        	ldx	#$c0
    2389: 86 13        	stx	$13                     ; 0x13 <__rc3>
    238b: a2 f0        	ldx	#$f0
    238d: 86 65        	stx	$65                     ; 0x65 <_ccolor>
    238f: ad 01 d0     	lda	$d001                   ; 0xd001 <end_block9+0x6d5b>
    2392: 29 f9        	and	#$f9
    2394: 09 04        	ora	#$4
    2396: 8d 01 d0     	sta	$d001                   ; 0xd001 <end_block9+0x6d5b>
    2399: a2 50        	ldx	#$50
    239b: 86 63        	stx	$63                     ; 0x63 <_MAX_COL>
    239d: a2 1e        	ldx	#$1e
    239f: 86 64        	stx	$64                     ; 0x64 <_MAX_ROW>
    23a1: 9c 10 d0     	stz	$d010                   ; 0xd010 <end_block9+0x6d6a>
    23a4: a0 00        	ldy	#$0
    23a6: a2 00        	ldx	#$0
    23a8: 84 18        	sty	$18                     ; 0x18 <__rc8>
    23aa: b9 33 00     	lda	$33,y                   ; 0x33 <textColors>
    23ad: 85 1b        	sta	$1b                     ; 0x1b <__rc11>
    23af: b9 34 00     	lda	$34,y                   ; 0x34 <textColors+0x1>
    23b2: 85 1c        	sta	$1c                     ; 0x1c <__rc12>
    23b4: b9 35 00     	lda	$35,y                   ; 0x35 <textColors+0x2>
    23b7: 85 1d        	sta	$1d                     ; 0x1d <__rc13>
    23b9: 84 1a        	sty	$1a                     ; 0x1a <__rc10>
    23bb: 8e 00 de     	stx	$de00                   ; 0xde00 <end_block9+0x7b5a>
    23be: 9c 01 de     	stz	$de01                   ; 0xde01 <end_block9+0x7b5b>
    23c1: a0 04        	ldy	#$4
    23c3: 8c 02 de     	sty	$de02                   ; 0xde02 <end_block9+0x7b5c>
    23c6: 9c 03 de     	stz	$de03                   ; 0xde03 <end_block9+0x7b5d>
    23c9: ac 10 de     	ldy	$de10                   ; 0xde10 <end_block9+0x7b6a>
    23cc: ad 11 de     	lda	$de11                   ; 0xde11 <end_block9+0x7b6b>
    23cf: 85 15        	sta	$15                     ; 0x15 <__rc5>
    23d1: 18           	clc
    23d2: 98           	tya
    23d3: 65 14        	adc	$14                     ; 0x14 <__rc4>
    23d5: 85 16        	sta	$16                     ; 0x16 <__rc6>
    23d7: a9 d8        	lda	#$d8
    23d9: 65 15        	adc	$15                     ; 0x15 <__rc5>
    23db: 86 19        	stx	$19                     ; 0x19 <__rc9>
    23dd: ae 12 de     	ldx	$de12                   ; 0xde12 <end_block9+0x7b6c>
    23e0: ae 13 de     	ldx	$de13                   ; 0xde13 <end_block9+0x7b6d>
    23e3: 85 17        	sta	$17                     ; 0x17 <__rc7>
    23e5: a5 1d        	lda	$1d                     ; 0x1d <__rc13>
    23e7: 92 16        	sta	($16)                   ; 0x16 <__rc6>
    23e9: a0 01        	ldy	#$1
    23eb: a5 1c        	lda	$1c                     ; 0x1c <__rc12>
    23ed: 91 16        	sta	($16),y                 ; 0x16 <__rc6>
    23ef: c8           	iny
    23f0: a5 1b        	lda	$1b                     ; 0x1b <__rc11>
    23f2: 91 16        	sta	($16),y                 ; 0x16 <__rc6>
    23f4: c8           	iny
    23f5: a9 ff        	lda	#$ff
    23f7: 91 16        	sta	($16),y                 ; 0x16 <__rc6>
    23f9: a6 1a        	ldx	$1a                     ; 0x1a <__rc10>
    23fb: b4 33        	ldy	$33,x                   ; 0x33 <textColors>
    23fd: 84 1a        	sty	$1a                     ; 0x1a <__rc10>
    23ff: b4 34        	ldy	$34,x                   ; 0x34 <textColors+0x1>
    2401: 84 1b        	sty	$1b                     ; 0x1b <__rc11>
    2403: b5 35        	lda	$35,x                   ; 0x35 <textColors+0x2>
    2405: aa           	tax
    2406: 86 1c        	stx	$1c                     ; 0x1c <__rc12>
    2408: a6 19        	ldx	$19                     ; 0x19 <__rc9>
    240a: 8e 00 de     	stx	$de00                   ; 0xde00 <end_block9+0x7b5a>
    240d: 9c 01 de     	stz	$de01                   ; 0xde01 <end_block9+0x7b5b>
    2410: a2 04        	ldx	#$4
    2412: 8e 02 de     	stx	$de02                   ; 0xde02 <end_block9+0x7b5c>
    2415: 9c 03 de     	stz	$de03                   ; 0xde03 <end_block9+0x7b5d>
    2418: ae 10 de     	ldx	$de10                   ; 0xde10 <end_block9+0x7b6a>
    241b: 86 15        	stx	$15                     ; 0x15 <__rc5>
    241d: ae 11 de     	ldx	$de11                   ; 0xde11 <end_block9+0x7b6b>
    2420: 86 16        	stx	$16                     ; 0x16 <__rc6>
    2422: a9 40        	lda	#$40
    2424: 18           	clc
    2425: 65 15        	adc	$15                     ; 0x15 <__rc5>
    2427: aa           	tax
    2428: a9 d8        	lda	#$d8
    242a: 65 16        	adc	$16                     ; 0x16 <__rc6>
    242c: 86 16        	stx	$16                     ; 0x16 <__rc6>
    242e: ae 12 de     	ldx	$de12                   ; 0xde12 <end_block9+0x7b6c>
    2431: 85 17        	sta	$17                     ; 0x17 <__rc7>
    2433: ae 13 de     	ldx	$de13                   ; 0xde13 <end_block9+0x7b6d>
    2436: a6 19        	ldx	$19                     ; 0x19 <__rc9>
    2438: a5 1c        	lda	$1c                     ; 0x1c <__rc12>
    243a: 92 16        	sta	($16)                   ; 0x16 <__rc6>
    243c: a0 01        	ldy	#$1
    243e: a5 1b        	lda	$1b                     ; 0x1b <__rc11>
    2440: 91 16        	sta	($16),y                 ; 0x16 <__rc6>
    2442: c8           	iny
    2443: a5 1a        	lda	$1a                     ; 0x1a <__rc10>
    2445: 91 16        	sta	($16),y                 ; 0x16 <__rc6>
    2447: a9 ff        	lda	#$ff
    2449: c8           	iny
    244a: 91 16        	sta	($16),y                 ; 0x16 <__rc6>
    244c: e8           	inx
    244d: 18           	clc
    244e: a5 18        	lda	$18                     ; 0x18 <__rc8>
    2450: 69 03        	adc	#$3
    2452: a8           	tay
    2453: c9 30        	cmp	#$30
    2455: f0 03        	beq	$245a <textReset+0xd9>
    2457: 4c a8 23     	jmp	$23a8 <textReset+0x27>
    245a: a6 01        	ldx	$1                      ; 0x1 <__data_size+0x1>
    245c: 86 18        	stx	$18                     ; 0x18 <__rc8>
    245e: a6 63        	ldx	$63                     ; 0x63 <_MAX_COL>
    2460: a4 64        	ldy	$64                     ; 0x64 <_MAX_ROW>
    2462: 8e 00 de     	stx	$de00                   ; 0xde00 <end_block9+0x7b5a>
    2465: 9c 01 de     	stz	$de01                   ; 0xde01 <end_block9+0x7b5b>
    2468: 8c 02 de     	sty	$de02                   ; 0xde02 <end_block9+0x7b5c>
    246b: 9c 03 de     	stz	$de03                   ; 0xde03 <end_block9+0x7b5d>
    246e: ae 10 de     	ldx	$de10                   ; 0xde10 <end_block9+0x7b6a>
    2471: ac 11 de     	ldy	$de11                   ; 0xde11 <end_block9+0x7b6b>
    2474: ad 12 de     	lda	$de12                   ; 0xde12 <end_block9+0x7b6c>
    2477: ad 13 de     	lda	$de13                   ; 0xde13 <end_block9+0x7b6d>
    247a: a9 02        	lda	#$2
    247c: 85 01        	sta	$1                      ; 0x1 <__data_size+0x1>
    247e: e0 01        	cpx	#$1
    2480: 98           	tya
    2481: e9 00        	sbc	#$0
    2483: 50 02        	bvc	$2487 <textReset+0x106>
    2485: 49 80        	eor	#$80
    2487: c9 00        	cmp	#$0
    2489: 30 50        	bmi	$24db <textReset+0x15a>
    248b: a9 20        	lda	#$20
    248d: 86 19        	stx	$19                     ; 0x19 <__rc9>
    248f: 86 14        	stx	$14                     ; 0x14 <__rc4>
    2491: 84 15        	sty	$15                     ; 0x15 <__rc5>
    2493: a2 00        	ldx	#$0
    2495: 86 16        	stx	$16                     ; 0x16 <__rc6>
    2497: a2 c0        	ldx	#$c0
    2499: 86 17        	stx	$17                     ; 0x17 <__rc7>
    249b: 80 04        	bra	$24a1 <textReset+0x120>
    249d: a6 15        	ldx	$15                     ; 0x15 <__rc5>
    249f: f0 14        	beq	$24b5 <textReset+0x134>
    24a1: 92 16        	sta	($16)                   ; 0x16 <__rc6>
    24a3: e6 16        	inc	$16                     ; 0x16 <__rc6>
    24a5: d0 02        	bne	$24a9 <textReset+0x128>
    24a7: e6 17        	inc	$17                     ; 0x17 <__rc7>
    24a9: a2 ff        	ldx	#$ff
    24ab: c6 14        	dec	$14                     ; 0x14 <__rc4>
    24ad: e4 14        	cpx	$14                     ; 0x14 <__rc4>
    24af: d0 ec        	bne	$249d <textReset+0x11c>
    24b1: c6 15        	dec	$15                     ; 0x15 <__rc5>
    24b3: 80 e8        	bra	$249d <textReset+0x11c>
    24b5: a6 14        	ldx	$14                     ; 0x14 <__rc4>
    24b7: d0 e8        	bne	$24a1 <textReset+0x120>
    24b9: a2 03        	ldx	#$3
    24bb: 86 01        	stx	$1                      ; 0x1 <__data_size+0x1>
    24bd: a6 19        	ldx	$19                     ; 0x19 <__rc9>
    24bf: 80 03        	bra	$24c4 <textReset+0x143>
    24c1: 98           	tya
    24c2: f0 12        	beq	$24d6 <textReset+0x155>
    24c4: a5 65        	lda	$65                     ; 0x65 <_ccolor>
    24c6: 92 12        	sta	($12)                   ; 0x12 <__rc2>
    24c8: e6 12        	inc	$12                     ; 0x12 <__rc2>
    24ca: d0 02        	bne	$24ce <textReset+0x14d>
    24cc: e6 13        	inc	$13                     ; 0x13 <__rc3>
    24ce: ca           	dex
    24cf: e0 ff        	cpx	#$ff
    24d1: d0 ee        	bne	$24c1 <textReset+0x140>
    24d3: 88           	dey
    24d4: 80 eb        	bra	$24c1 <textReset+0x140>
    24d6: 8a           	txa
    24d7: d0 eb        	bne	$24c4 <textReset+0x143>
    24d9: 80 04        	bra	$24df <textReset+0x15e>
    24db: a2 03        	ldx	#$3
    24dd: 86 01        	stx	$1                      ; 0x1 <__data_size+0x1>
    24df: a6 18        	ldx	$18                     ; 0x18 <__rc8>
    24e1: 86 01        	stx	$1                      ; 0x1 <__data_size+0x1>
    24e3: 64 74        	stz	$74                     ; 0x74 <_col>
    24e5: 9c 14 d0     	stz	$d014                   ; 0xd014 <end_block9+0x6d6e>
    24e8: 9c 15 d0     	stz	$d015                   ; 0xd015 <end_block9+0x6d6f>
    24eb: 64 75        	stz	$75                     ; 0x75 <_row>
    24ed: 9c 16 d0     	stz	$d016                   ; 0xd016 <end_block9+0x6d70>
    24f0: 9c 17 d0     	stz	$d017                   ; 0xd017 <end_block9+0x6d71>
    24f3: 60           	rts

000024f4 <bitmapReset>:
    24f4: a2 01        	ldx	#$1
    24f6: 86 84        	stx	$84                     ; 0x84 <_MAX_X>
    24f8: 86 85        	stx	$85                     ; 0x85 <_MAX_Y>
    24fa: a0 40        	ldy	#$40
    24fc: 8c 00 de     	sty	$de00                   ; 0xde00 <end_block9+0x7b5a>
    24ff: 8e 01 de     	stx	$de01                   ; 0xde01 <end_block9+0x7b5b>
    2502: a2 f0        	ldx	#$f0
    2504: 8e 02 de     	stx	$de02                   ; 0xde02 <end_block9+0x7b5c>
    2507: 9c 03 de     	stz	$de03                   ; 0xde03 <end_block9+0x7b5d>
    250a: ae 10 de     	ldx	$de10                   ; 0xde10 <end_block9+0x7b6a>
    250d: 86 17        	stx	$17                     ; 0x17 <__rc7>
    250f: ae 11 de     	ldx	$de11                   ; 0xde11 <end_block9+0x7b6b>
    2512: 86 12        	stx	$12                     ; 0x12 <__rc2>
    2514: ae 12 de     	ldx	$de12                   ; 0xde12 <end_block9+0x7b6c>
    2517: 86 13        	stx	$13                     ; 0x13 <__rc3>
    2519: ae 13 de     	ldx	$de13                   ; 0xde13 <end_block9+0x7b6d>
    251c: 86 14        	stx	$14                     ; 0x14 <__rc4>
    251e: 64 82        	stz	$82                     ; 0x82 <_active>
    2520: a2 ff        	ldx	#$ff
    2522: 86 83        	stx	$83                     ; 0x83 <_color>
    2524: a6 12        	ldx	$12                     ; 0x12 <__rc2>
    2526: 86 15        	stx	$15                     ; 0x15 <__rc5>
    2528: 06 15        	asl	$15                     ; 0x15 <__rc5>
    252a: a5 13        	lda	$13                     ; 0x13 <__rc3>
    252c: 2a           	rol
    252d: a6 14        	ldx	$14                     ; 0x14 <__rc4>
    252f: 86 16        	stx	$16                     ; 0x16 <__rc6>
    2531: 26 16        	rol	$16                     ; 0x16 <__rc6>
    2533: 06 15        	asl	$15                     ; 0x15 <__rc5>
    2535: 2a           	rol
    2536: 26 16        	rol	$16                     ; 0x16 <__rc6>
    2538: 06 15        	asl	$15                     ; 0x15 <__rc5>
    253a: 2a           	rol
    253b: 26 16        	rol	$16                     ; 0x16 <__rc6>
    253d: 85 15        	sta	$15                     ; 0x15 <__rc5>
    253f: 8d 00 de     	sta	$de00                   ; 0xde00 <end_block9+0x7b5a>
    2542: a5 16        	lda	$16                     ; 0x16 <__rc6>
    2544: 8d 01 de     	sta	$de01                   ; 0xde01 <end_block9+0x7b5b>
    2547: 9c 02 de     	stz	$de02                   ; 0xde02 <end_block9+0x7b5c>
    254a: a2 20        	ldx	#$20
    254c: 8e 03 de     	stx	$de03                   ; 0xde03 <end_block9+0x7b5d>
    254f: ae 10 de     	ldx	$de10                   ; 0xde10 <end_block9+0x7b6a>
    2552: 86 16        	stx	$16                     ; 0x16 <__rc6>
    2554: ae 11 de     	ldx	$de11                   ; 0xde11 <end_block9+0x7b6b>
    2557: 86 18        	stx	$18                     ; 0x18 <__rc8>
    2559: ac 12 de     	ldy	$de12                   ; 0xde12 <end_block9+0x7b6c>
    255c: ae 13 de     	ldx	$de13                   ; 0xde13 <end_block9+0x7b6d>
    255f: e4 14        	cpx	$14                     ; 0x14 <__rc4>
    2561: d0 14        	bne	$2577 <bitmapReset+0x83>
    2563: c4 13        	cpy	$13                     ; 0x13 <__rc3>
    2565: d0 10        	bne	$2577 <bitmapReset+0x83>
    2567: a6 18        	ldx	$18                     ; 0x18 <__rc8>
    2569: e4 12        	cpx	$12                     ; 0x12 <__rc2>
    256b: d0 0a        	bne	$2577 <bitmapReset+0x83>
    256d: a6 16        	ldx	$16                     ; 0x16 <__rc6>
    256f: e4 17        	cpx	$17                     ; 0x17 <__rc7>
    2571: d0 04        	bne	$2577 <bitmapReset+0x83>
    2573: a6 15        	ldx	$15                     ; 0x15 <__rc5>
    2575: 80 06        	bra	$257d <bitmapReset+0x89>
    2577: a6 15        	ldx	$15                     ; 0x15 <__rc5>
    2579: e8           	inx
    257a: d0 01        	bne	$257d <bitmapReset+0x89>
    257c: 1a           	inc
    257d: 8e 00 de     	stx	$de00                   ; 0xde00 <end_block9+0x7b5a>
    2580: 8d 01 de     	sta	$de01                   ; 0xde01 <end_block9+0x7b5b>
    2583: 9c 02 de     	stz	$de02                   ; 0xde02 <end_block9+0x7b5c>
    2586: a2 20        	ldx	#$20
    2588: 8e 03 de     	stx	$de03                   ; 0xde03 <end_block9+0x7b5d>
    258b: ae 10 de     	ldx	$de10                   ; 0xde10 <end_block9+0x7b6a>
    258e: 86 12        	stx	$12                     ; 0x12 <__rc2>
    2590: ae 11 de     	ldx	$de11                   ; 0xde11 <end_block9+0x7b6b>
    2593: 86 13        	stx	$13                     ; 0x13 <__rc3>
    2595: ae 12 de     	ldx	$de12                   ; 0xde12 <end_block9+0x7b6c>
    2598: 86 14        	stx	$14                     ; 0x14 <__rc4>
    259a: ae 13 de     	ldx	$de13                   ; 0xde13 <end_block9+0x7b6d>
    259d: 86 15        	stx	$15                     ; 0x15 <__rc5>
    259f: a9 00        	lda	#$0
    25a1: 38           	sec
    25a2: e5 12        	sbc	$12                     ; 0x12 <__rc2>
    25a4: 85 1a        	sta	$1a                     ; 0x1a <__rc10>
    25a6: a9 00        	lda	#$0
    25a8: e5 13        	sbc	$13                     ; 0x13 <__rc3>
    25aa: 85 18        	sta	$18                     ; 0x18 <__rc8>
    25ac: a9 08        	lda	#$8
    25ae: e5 14        	sbc	$14                     ; 0x14 <__rc4>
    25b0: a8           	tay
    25b1: a9 00        	lda	#$0
    25b3: e5 15        	sbc	$15                     ; 0x15 <__rc5>
    25b5: 85 16        	sta	$16                     ; 0x16 <__rc6>
    25b7: a6 18        	ldx	$18                     ; 0x18 <__rc8>
    25b9: 86 77        	stx	$77                     ; 0x77 <_BITMAP_BASE+0x1>
    25bb: 84 78        	sty	$78                     ; 0x78 <_BITMAP_BASE+0x2>
    25bd: 85 79        	sta	$79                     ; 0x79 <_BITMAP_BASE+0x3>
    25bf: a5 1a        	lda	$1a                     ; 0x1a <__rc10>
    25c1: 38           	sec
    25c2: e5 12        	sbc	$12                     ; 0x12 <__rc2>
    25c4: 85 17        	sta	$17                     ; 0x17 <__rc7>
    25c6: a5 18        	lda	$18                     ; 0x18 <__rc8>
    25c8: e5 13        	sbc	$13                     ; 0x13 <__rc3>
    25ca: 85 18        	sta	$18                     ; 0x18 <__rc8>
    25cc: 98           	tya
    25cd: e5 14        	sbc	$14                     ; 0x14 <__rc4>
    25cf: 85 19        	sta	$19                     ; 0x19 <__rc9>
    25d1: a5 16        	lda	$16                     ; 0x16 <__rc6>
    25d3: e5 15        	sbc	$15                     ; 0x15 <__rc5>
    25d5: 85 16        	sta	$16                     ; 0x16 <__rc6>
    25d7: 38           	sec
    25d8: a6 17        	ldx	$17                     ; 0x17 <__rc7>
    25da: 86 7a        	stx	$7a                     ; 0x7a <_BITMAP_BASE+0x4>
    25dc: a4 18        	ldy	$18                     ; 0x18 <__rc8>
    25de: 84 7b        	sty	$7b                     ; 0x7b <_BITMAP_BASE+0x5>
    25e0: a6 19        	ldx	$19                     ; 0x19 <__rc9>
    25e2: 86 7c        	stx	$7c                     ; 0x7c <_BITMAP_BASE+0x6>
    25e4: 85 7d        	sta	$7d                     ; 0x7d <_BITMAP_BASE+0x7>
    25e6: a5 17        	lda	$17                     ; 0x17 <__rc7>
    25e8: e5 12        	sbc	$12                     ; 0x12 <__rc2>
    25ea: 85 17        	sta	$17                     ; 0x17 <__rc7>
    25ec: a5 18        	lda	$18                     ; 0x18 <__rc8>
    25ee: e5 13        	sbc	$13                     ; 0x13 <__rc3>
    25f0: aa           	tax
    25f1: a5 19        	lda	$19                     ; 0x19 <__rc9>
    25f3: e5 14        	sbc	$14                     ; 0x14 <__rc4>
    25f5: 85 13        	sta	$13                     ; 0x13 <__rc3>
    25f7: a5 16        	lda	$16                     ; 0x16 <__rc6>
    25f9: e5 15        	sbc	$15                     ; 0x15 <__rc5>
    25fb: 85 12        	sta	$12                     ; 0x12 <__rc2>
    25fd: a5 17        	lda	$17                     ; 0x17 <__rc7>
    25ff: 85 7e        	sta	$7e                     ; 0x7e <_BITMAP_BASE+0x8>
    2601: 86 7f        	stx	$7f                     ; 0x7f <_BITMAP_BASE+0x9>
    2603: a6 13        	ldx	$13                     ; 0x13 <__rc3>
    2605: 86 80        	stx	$80                     ; 0x80 <_BITMAP_BASE+0xa>
    2607: a6 12        	ldx	$12                     ; 0x12 <__rc2>
    2609: 86 81        	stx	$81                     ; 0x81 <_BITMAP_BASE+0xb>
    260b: a6 1a        	ldx	$1a                     ; 0x1a <__rc10>
    260d: 86 76        	stx	$76                     ; 0x76 <_BITMAP_BASE>
    260f: 64 86        	stz	$86                     ; 0x86 <_BITMAP_CLUT>
    2611: 64 87        	stz	$87                     ; 0x87 <_BITMAP_CLUT+0x1>
    2613: 64 88        	stz	$88                     ; 0x88 <_BITMAP_CLUT+0x2>
    2615: 8e 01 d1     	stx	$d101                   ; 0xd101 <end_block9+0x6e5b>
    2618: a6 77        	ldx	$77                     ; 0x77 <_BITMAP_BASE+0x1>
    261a: 8e 02 d1     	stx	$d102                   ; 0xd102 <end_block9+0x6e5c>
    261d: a6 78        	ldx	$78                     ; 0x78 <_BITMAP_BASE+0x2>
    261f: 8e 03 d1     	stx	$d103                   ; 0xd103 <end_block9+0x6e5d>
    2622: a6 7a        	ldx	$7a                     ; 0x7a <_BITMAP_BASE+0x4>
    2624: 8e 09 d1     	stx	$d109                   ; 0xd109 <end_block9+0x6e63>
    2627: a6 7b        	ldx	$7b                     ; 0x7b <_BITMAP_BASE+0x5>
    2629: 8e 0a d1     	stx	$d10a                   ; 0xd10a <end_block9+0x6e64>
    262c: a6 7c        	ldx	$7c                     ; 0x7c <_BITMAP_BASE+0x6>
    262e: 8e 0b d1     	stx	$d10b                   ; 0xd10b <end_block9+0x6e65>
    2631: a6 7e        	ldx	$7e                     ; 0x7e <_BITMAP_BASE+0x8>
    2633: 8e 11 d1     	stx	$d111                   ; 0xd111 <end_block9+0x6e6b>
    2636: a6 7f        	ldx	$7f                     ; 0x7f <_BITMAP_BASE+0x9>
    2638: 8e 12 d1     	stx	$d112                   ; 0xd112 <end_block9+0x6e6c>
    263b: a6 80        	ldx	$80                     ; 0x80 <_BITMAP_BASE+0xa>
    263d: 8e 13 d1     	stx	$d113                   ; 0xd113 <end_block9+0x6e6d>
    2640: 9c 00 d1     	stz	$d100                   ; 0xd100 <end_block9+0x6e5a>
    2643: 9c 08 d1     	stz	$d108                   ; 0xd108 <end_block9+0x6e62>
    2646: 9c 10 d1     	stz	$d110                   ; 0xd110 <end_block9+0x6e6a>
    2649: 60           	rts

0000264a <main>:
    264a: 20 05 22     	jsr	$2205 <f256Init>
    264d: 20 6e 26     	jsr	$266e <f256main>
    2650: 78           	sei
    2651: a2 07        	ldx	#$7
    2653: 86 0f        	stx	$f                      ; 0xf <__data_size+0xf>
    2655: a2 de        	ldx	#$de
    2657: 8e a2 d6     	stx	$d6a2                   ; 0xd6a2 <end_block9+0x73fc>
    265a: a2 ad        	ldx	#$ad
    265c: 8e a3 d6     	stx	$d6a3                   ; 0xd6a3 <end_block9+0x73fd>
    265f: a2 f0        	ldx	#$f0
    2661: 8e a0 d6     	stx	$d6a0                   ; 0xd6a0 <end_block9+0x73fa>
    2664: 9c a0 d6     	stz	$d6a0                   ; 0xd6a0 <end_block9+0x73fa>
    2667: 6c fc ff     	jmp	($fffc)                 ; 0xfffc <end_block9+0x9d56>
    266a: a2 00        	ldx	#$0
    266c: 8a           	txa
    266d: 60           	rts

0000266e <f256main>:
    266e: 18           	clc
    266f: a5 10        	lda	$10                     ; 0x10 <__rc0>
    2671: 69 fc        	adc	#$fc
    2673: 85 10        	sta	$10                     ; 0x10 <__rc0>
    2675: a5 11        	lda	$11                     ; 0x11 <__rc1>
    2677: 69 ff        	adc	#$ff
    2679: 85 11        	sta	$11                     ; 0x11 <__rc1>
    267b: a6 24        	ldx	$24                     ; 0x24 <__rc20>
    267d: da           	phx
    267e: a6 25        	ldx	$25                     ; 0x25 <__rc21>
    2680: da           	phx
    2681: a6 26        	ldx	$26                     ; 0x26 <__rc22>
    2683: da           	phx
    2684: a6 27        	ldx	$27                     ; 0x27 <__rc23>
    2686: da           	phx
    2687: 64 01        	stz	$1                      ; 0x1 <__data_size+0x1>
    2689: a2 0f        	ldx	#$f
    268b: 8e 00 d0     	stx	$d000                   ; 0xd000 <end_block9+0x6d5a>
    268e: a2 14        	ldx	#$14
    2690: 8e 01 d0     	stx	$d001                   ; 0xd001 <end_block9+0x6d5b>
    2693: a2 10        	ldx	#$10
    2695: 8e 02 d0     	stx	$d002                   ; 0xd002 <end_block9+0x6d5c>
    2698: 9c 0d d0     	stz	$d00d                   ; 0xd00d <end_block9+0x6d67>
    269b: 9c 0e d0     	stz	$d00e                   ; 0xd00e <end_block9+0x6d68>
    269e: 9c 0f d0     	stz	$d00f                   ; 0xd00f <end_block9+0x6d69>
    26a1: 20 58 21     	jsr	$2158 <setMonoSID>
    26a4: a2 91        	ldx	#$91
    26a6: 86 00        	stx	$0                      ; 0x0 <__data_size>
    26a8: a2 33        	ldx	#$33
    26aa: 86 09        	stx	$9                      ; 0x9 <__data_size+0x9>
    26ac: a2 ab        	ldx	#$ab
    26ae: 8e 23 81     	stx	$8123                   ; 0x8123 <end_block9+0x1e7d>
    26b1: 20 d1 21     	jsr	$21d1 <hitspace>
    26b4: a2 73        	ldx	#$73
    26b6: 86 26        	stx	$26                     ; 0x26 <__rc22>
    26b8: a2 00        	ldx	#$0
    26ba: 86 27        	stx	$27                     ; 0x27 <__rc23>
    26bc: 80 3d        	bra	$26fb <f256main+0x8d>
    26be: 18           	clc
    26bf: a5 10        	lda	$10                     ; 0x10 <__rc0>
    26c1: 69 03        	adc	#$3
    26c3: 85 14        	sta	$14                     ; 0x14 <__rc4>
    26c5: a5 11        	lda	$11                     ; 0x11 <__rc1>
    26c7: 69 00        	adc	#$0
    26c9: 85 15        	sta	$15                     ; 0x15 <__rc5>
    26cb: 20 68 ff     	jsr	$ff68 <end_block9+0x9cc2>
    26ce: 92 14        	sta	($14)                   ; 0x14 <__rc4>
    26d0: a9 00        	lda	#$0
    26d2: 6a           	ror
    26d3: 85 26        	sta	$26                     ; 0x26 <__rc22>
    26d5: 20 55 48     	jsr	$4855 <free>
    26d8: 64 6c        	stz	$6c                     ; 0x6c <kernelEventData>
    26da: 18           	clc
    26db: a5 10        	lda	$10                     ; 0x10 <__rc0>
    26dd: 69 02        	adc	#$2
    26df: 85 12        	sta	$12                     ; 0x12 <__rc2>
    26e1: a5 11        	lda	$11                     ; 0x11 <__rc1>
    26e3: 69 00        	adc	#$0
    26e5: 85 13        	sta	$13                     ; 0x13 <__rc3>
    26e7: 20 00 ff     	jsr	$ff00 <end_block9+0x9c5a>
    26ea: 92 12        	sta	($12)                   ; 0x12 <__rc2>
    26ec: a9 00        	lda	#$0
    26ee: 6a           	ror
    26ef: 85 26        	sta	$26                     ; 0x26 <__rc22>
    26f1: a6 6c        	ldx	$6c                     ; 0x6c <kernelEventData>
    26f3: e0 32        	cpx	#$32
    26f5: f0 04        	beq	$26fb <f256main+0x8d>
    26f7: e0 38        	cpx	#$38
    26f9: d0 dd        	bne	$26d8 <f256main+0x6a>
    26fb: 20 2c 21     	jsr	$212c <clearSIDRegisters>
    26fe: a2 f0        	ldx	#$f0
    2700: 86 65        	stx	$65                     ; 0x65 <_ccolor>
    2702: 64 74        	stz	$74                     ; 0x74 <_col>
    2704: 9c 14 d0     	stz	$d014                   ; 0xd014 <end_block9+0x6d6e>
    2707: 9c 15 d0     	stz	$d015                   ; 0xd015 <end_block9+0x6d6f>
    270a: 64 75        	stz	$75                     ; 0x75 <_row>
    270c: 9c 16 d0     	stz	$d016                   ; 0xd016 <end_block9+0x6d70>
    270f: 9c 17 d0     	stz	$d017                   ; 0xd017 <end_block9+0x6d71>
    2712: a2 eb        	ldx	#$eb
    2714: 86 12        	stx	$12                     ; 0x12 <__rc2>
    2716: a2 4d        	ldx	#$4d
    2718: 86 13        	stx	$13                     ; 0x13 <__rc3>
    271a: 20 22 43     	jsr	$4322 <printf>
    271d: 64 74        	stz	$74                     ; 0x74 <_col>
    271f: 9c 14 d0     	stz	$d014                   ; 0xd014 <end_block9+0x6d6e>
    2722: 9c 15 d0     	stz	$d015                   ; 0xd015 <end_block9+0x6d6f>
    2725: a2 01        	ldx	#$1
    2727: 86 75        	stx	$75                     ; 0x75 <_row>
    2729: 8e 16 d0     	stx	$d016                   ; 0xd016 <end_block9+0x6d70>
    272c: 9c 17 d0     	stz	$d017                   ; 0xd017 <end_block9+0x6d71>
    272f: a2 3b        	ldx	#$3b
    2731: 86 12        	stx	$12                     ; 0x12 <__rc2>
    2733: a2 4e        	ldx	#$4e
    2735: 86 13        	stx	$13                     ; 0x13 <__rc3>
    2737: 20 22 43     	jsr	$4322 <printf>
    273a: 20 e2 27     	jsr	$27e2 <getTheFile>
    273d: aa           	tax
    273e: f0 03        	beq	$2743 <f256main+0xd5>
    2740: 4c c1 27     	jmp	$27c1 <f256main+0x153>
    2743: a2 4c        	ldx	#$4c
    2745: 86 12        	stx	$12                     ; 0x12 <__rc2>
    2747: a2 50        	ldx	#$50
    2749: 86 13        	stx	$13                     ; 0x13 <__rc3>
    274b: a2 63        	ldx	#$63
    274d: 86 14        	stx	$14                     ; 0x14 <__rc4>
    274f: a2 4e        	ldx	#$4e
    2751: 86 15        	stx	$15                     ; 0x15 <__rc5>
    2753: 20 4e 29     	jsr	$294e <fileOpen>
    2756: a6 12        	ldx	$12                     ; 0x12 <__rc2>
    2758: 86 24        	stx	$24                     ; 0x24 <__rc20>
    275a: a6 13        	ldx	$13                     ; 0x13 <__rc3>
    275c: 86 25        	stx	$25                     ; 0x25 <__rc21>
    275e: 20 51 2a     	jsr	$2a51 <playback>
    2761: a6 24        	ldx	$24                     ; 0x24 <__rc20>
    2763: 86 12        	stx	$12                     ; 0x12 <__rc2>
    2765: a6 25        	ldx	$25                     ; 0x25 <__rc21>
    2767: 86 13        	stx	$13                     ; 0x13 <__rc3>
    2769: 85 14        	sta	$14                     ; 0x14 <__rc4>
    276b: b2 24        	lda	($24)                   ; 0x24 <__rc20>
    276d: a4 6a        	ldy	$6a                     ; 0x6a <kernelArgs>
    276f: a6 6b        	ldx	$6b                     ; 0x6b <kernelArgs+0x1>
    2771: 84 16        	sty	$16                     ; 0x16 <__rc6>
    2773: 86 17        	stx	$17                     ; 0x17 <__rc7>
    2775: a0 03        	ldy	#$3
    2777: 91 16        	sta	($16),y                 ; 0x16 <__rc6>
    2779: a5 14        	lda	$14                     ; 0x14 <__rc4>
    277b: d0 03        	bne	$2780 <f256main+0x112>
    277d: 4c be 26     	jmp	$26be <f256main+0x50>
    2780: 18           	clc
    2781: a5 10        	lda	$10                     ; 0x10 <__rc0>
    2783: 69 01        	adc	#$1
    2785: 85 14        	sta	$14                     ; 0x14 <__rc4>
    2787: a5 11        	lda	$11                     ; 0x11 <__rc1>
    2789: 69 00        	adc	#$0
    278b: 85 15        	sta	$15                     ; 0x15 <__rc5>
    278d: a2 73        	ldx	#$73
    278f: 86 24        	stx	$24                     ; 0x24 <__rc20>
    2791: a2 00        	ldx	#$0
    2793: 86 25        	stx	$25                     ; 0x25 <__rc21>
    2795: 20 68 ff     	jsr	$ff68 <end_block9+0x9cc2>
    2798: 92 14        	sta	($14)                   ; 0x14 <__rc4>
    279a: a9 00        	lda	#$0
    279c: 6a           	ror
    279d: 85 24        	sta	$24                     ; 0x24 <__rc20>
    279f: 20 55 48     	jsr	$4855 <free>
    27a2: 64 6c        	stz	$6c                     ; 0x6c <kernelEventData>
    27a4: 18           	clc
    27a5: a6 10        	ldx	$10                     ; 0x10 <__rc0>
    27a7: 86 12        	stx	$12                     ; 0x12 <__rc2>
    27a9: a6 11        	ldx	$11                     ; 0x11 <__rc1>
    27ab: 86 13        	stx	$13                     ; 0x13 <__rc3>
    27ad: 20 00 ff     	jsr	$ff00 <end_block9+0x9c5a>
    27b0: 92 12        	sta	($12)                   ; 0x12 <__rc2>
    27b2: a9 00        	lda	#$0
    27b4: 6a           	ror
    27b5: 85 24        	sta	$24                     ; 0x24 <__rc20>
    27b7: a6 6c        	ldx	$6c                     ; 0x6c <kernelEventData>
    27b9: e0 32        	cpx	#$32
    27bb: f0 04        	beq	$27c1 <f256main+0x153>
    27bd: e0 38        	cpx	#$38
    27bf: d0 e1        	bne	$27a2 <f256main+0x134>
    27c1: a2 00        	ldx	#$0
    27c3: 8a           	txa
    27c4: 85 20        	sta	$20                     ; 0x20 <__rc16>
    27c6: 7a           	ply
    27c7: 84 27        	sty	$27                     ; 0x27 <__rc23>
    27c9: 7a           	ply
    27ca: 84 26        	sty	$26                     ; 0x26 <__rc22>
    27cc: 7a           	ply
    27cd: 84 25        	sty	$25                     ; 0x25 <__rc21>
    27cf: 7a           	ply
    27d0: 84 24        	sty	$24                     ; 0x24 <__rc20>
    27d2: 18           	clc
    27d3: a5 10        	lda	$10                     ; 0x10 <__rc0>
    27d5: 69 04        	adc	#$4
    27d7: 85 10        	sta	$10                     ; 0x10 <__rc0>
    27d9: a5 11        	lda	$11                     ; 0x11 <__rc1>
    27db: 69 00        	adc	#$0
    27dd: 85 11        	sta	$11                     ; 0x11 <__rc1>
    27df: a5 20        	lda	$20                     ; 0x20 <__rc16>
    27e1: 60           	rts

000027e2 <getTheFile>:
    27e2: 18           	clc
    27e3: a5 10        	lda	$10                     ; 0x10 <__rc0>
    27e5: 69 f8        	adc	#$f8
    27e7: 85 10        	sta	$10                     ; 0x10 <__rc0>
    27e9: a5 11        	lda	$11                     ; 0x11 <__rc1>
    27eb: 69 ff        	adc	#$ff
    27ed: 85 11        	sta	$11                     ; 0x11 <__rc1>
    27ef: a6 24        	ldx	$24                     ; 0x24 <__rc20>
    27f1: da           	phx
    27f2: a6 25        	ldx	$25                     ; 0x25 <__rc21>
    27f4: da           	phx
    27f5: a2 89        	ldx	#$89
    27f7: 86 12        	stx	$12                     ; 0x12 <__rc2>
    27f9: a2 4d        	ldx	#$4d
    27fb: 86 13        	stx	$13                     ; 0x13 <__rc3>
    27fd: 20 26 2e     	jsr	$2e26 <fileOpenDir>
    2800: a6 12        	ldx	$12                     ; 0x12 <__rc2>
    2802: 86 24        	stx	$24                     ; 0x24 <__rc20>
    2804: a6 13        	ldx	$13                     ; 0x13 <__rc3>
    2806: 86 25        	stx	$25                     ; 0x25 <__rc21>
    2808: a2 00        	ldx	#$0
    280a: 86 12        	stx	$12                     ; 0x12 <__rc2>
    280c: a2 00        	ldx	#$0
    280e: 86 13        	stx	$13                     ; 0x13 <__rc3>
    2810: a6 25        	ldx	$25                     ; 0x25 <__rc21>
    2812: e4 13        	cpx	$13                     ; 0x13 <__rc3>
    2814: d0 20        	bne	$2836 <getTheFile+0x54>
    2816: a6 24        	ldx	$24                     ; 0x24 <__rc20>
    2818: e4 12        	cpx	$12                     ; 0x12 <__rc2>
    281a: d0 1a        	bne	$2836 <getTheFile+0x54>
    281c: a2 b2        	ldx	#$b2
    281e: 86 12        	stx	$12                     ; 0x12 <__rc2>
    2820: a2 50        	ldx	#$50
    2822: 86 13        	stx	$13                     ; 0x13 <__rc3>
    2824: a2 e8        	ldx	#$e8
    2826: 86 14        	stx	$14                     ; 0x14 <__rc4>
    2828: a2 4e        	ldx	#$4e
    282a: 86 15        	stx	$15                     ; 0x15 <__rc5>
    282c: a9 20        	lda	#$20
    282e: a2 00        	ldx	#$0
    2830: 20 db 49     	jsr	$49db <memcpy>
    2833: 4c af 28     	jmp	$28af <getTheFile+0xcd>
    2836: a2 b2        	ldx	#$b2
    2838: 86 12        	stx	$12                     ; 0x12 <__rc2>
    283a: a2 50        	ldx	#$50
    283c: 86 13        	stx	$13                     ; 0x13 <__rc3>
    283e: a2 c8        	ldx	#$c8
    2840: 86 14        	stx	$14                     ; 0x14 <__rc4>
    2842: a2 4e        	ldx	#$4e
    2844: 86 15        	stx	$15                     ; 0x15 <__rc5>
    2846: a9 20        	lda	#$20
    2848: a2 00        	ldx	#$0
    284a: 20 db 49     	jsr	$49db <memcpy>
    284d: 18           	clc
    284e: a5 10        	lda	$10                     ; 0x10 <__rc0>
    2850: 69 06        	adc	#$6
    2852: 85 12        	sta	$12                     ; 0x12 <__rc2>
    2854: a2 01        	ldx	#$1
    2856: b0 02        	bcs	$285a <getTheFile+0x78>
    2858: a2 00        	ldx	#$0
    285a: 86 18        	stx	$18                     ; 0x18 <__rc8>
    285c: a2 73        	ldx	#$73
    285e: 86 14        	stx	$14                     ; 0x14 <__rc4>
    2860: a2 00        	ldx	#$0
    2862: 86 15        	stx	$15                     ; 0x15 <__rc5>
    2864: b2 24        	lda	($24)                   ; 0x24 <__rc20>
    2866: f0 2b        	beq	$2893 <getTheFile+0xb1>
    2868: a6 6a        	ldx	$6a                     ; 0x6a <kernelArgs>
    286a: a4 6b        	ldy	$6b                     ; 0x6b <kernelArgs+0x1>
    286c: 86 16        	stx	$16                     ; 0x16 <__rc6>
    286e: 84 17        	sty	$17                     ; 0x17 <__rc7>
    2870: a0 03        	ldy	#$3
    2872: 91 16        	sta	($16),y                 ; 0x16 <__rc6>
    2874: 18           	clc
    2875: a5 10        	lda	$10                     ; 0x10 <__rc0>
    2877: 69 07        	adc	#$7
    2879: 85 16        	sta	$16                     ; 0x16 <__rc6>
    287b: a5 11        	lda	$11                     ; 0x11 <__rc1>
    287d: 69 00        	adc	#$0
    287f: 85 17        	sta	$17                     ; 0x17 <__rc7>
    2881: 20 80 ff     	jsr	$ff80 <end_block9+0x9cda>
    2884: 92 16        	sta	($16)                   ; 0x16 <__rc6>
    2886: a9 00        	lda	#$0
    2888: 6a           	ror
    2889: 85 14        	sta	$14                     ; 0x14 <__rc4>
    288b: a6 73        	ldx	$73                     ; 0x73 <kernelError>
    288d: d0 04        	bne	$2893 <getTheFile+0xb1>
    288f: a9 00        	lda	#$0
    2891: 92 24        	sta	($24)                   ; 0x24 <__rc20>
    2893: 64 6c        	stz	$6c                     ; 0x6c <kernelEventData>
    2895: a6 18        	ldx	$18                     ; 0x18 <__rc8>
    2897: e0 01        	cpx	#$1
    2899: a5 11        	lda	$11                     ; 0x11 <__rc1>
    289b: 69 00        	adc	#$0
    289d: 85 13        	sta	$13                     ; 0x13 <__rc3>
    289f: 20 00 ff     	jsr	$ff00 <end_block9+0x9c5a>
    28a2: 92 12        	sta	($12)                   ; 0x12 <__rc2>
    28a4: a9 00        	lda	#$0
    28a6: 6a           	ror
    28a7: 85 14        	sta	$14                     ; 0x14 <__rc4>
    28a9: a6 6c        	ldx	$6c                     ; 0x6c <kernelEventData>
    28ab: e0 46        	cpx	#$46
    28ad: d0 b5        	bne	$2864 <getTheFile+0x82>
    28af: a2 b0        	ldx	#$b0
    28b1: 86 12        	stx	$12                     ; 0x12 <__rc2>
    28b3: a2 50        	ldx	#$50
    28b5: 86 13        	stx	$13                     ; 0x13 <__rc3>
    28b7: a9 00        	lda	#$0
    28b9: a2 03        	ldx	#$3
    28bb: a0 e5        	ldy	#$e5
    28bd: 84 14        	sty	$14                     ; 0x14 <__rc4>
    28bf: a0 4d        	ldy	#$4d
    28c1: 84 15        	sty	$15                     ; 0x15 <__rc5>
    28c3: a0 3a        	ldy	#$3a
    28c5: 84 16        	sty	$16                     ; 0x16 <__rc6>
    28c7: a0 4e        	ldy	#$4e
    28c9: 84 17        	sty	$17                     ; 0x17 <__rc7>
    28cb: a0 3a        	ldy	#$3a
    28cd: 84 18        	sty	$18                     ; 0x18 <__rc8>
    28cf: a0 4e        	ldy	#$4e
    28d1: 84 19        	sty	$19                     ; 0x19 <__rc9>
    28d3: a0 3a        	ldy	#$3a
    28d5: 84 1a        	sty	$1a                     ; 0x1a <__rc10>
    28d7: a0 4e        	ldy	#$4e
    28d9: 84 1b        	sty	$1b                     ; 0x1b <__rc11>
    28db: a0 01        	ldy	#$1
    28dd: 84 1c        	sty	$1c                     ; 0x1c <__rc12>
    28df: 20 80 1c     	jsr	$1c80 <filePickModal>
    28e2: a2 01        	ldx	#$1
    28e4: a8           	tay
    28e5: d0 4e        	bne	$2935 <getTheFile+0x153>
    28e7: a6 10        	ldx	$10                     ; 0x10 <__rc0>
    28e9: a9 b2        	lda	#$b2
    28eb: 92 10        	sta	($10)                   ; 0x10 <__rc0>
    28ed: a0 01        	ldy	#$1
    28ef: a9 50        	lda	#$50
    28f1: 91 10        	sta	($10),y                 ; 0x10 <__rc0>
    28f3: a9 e9        	lda	#$e9
    28f5: c8           	iny
    28f6: 91 10        	sta	($10),y                 ; 0x10 <__rc0>
    28f8: a0 04        	ldy	#$4
    28fa: a9 d2        	lda	#$d2
    28fc: 91 10        	sta	($10),y                 ; 0x10 <__rc0>
    28fe: 18           	clc
    28ff: 8a           	txa
    2900: 69 02        	adc	#$2
    2902: 85 12        	sta	$12                     ; 0x12 <__rc2>
    2904: a5 11        	lda	$11                     ; 0x11 <__rc1>
    2906: 69 00        	adc	#$0
    2908: 18           	clc
    2909: 85 13        	sta	$13                     ; 0x13 <__rc3>
    290b: a9 4d        	lda	#$4d
    290d: a0 01        	ldy	#$1
    290f: 91 12        	sta	($12),y                 ; 0x12 <__rc2>
    2911: 8a           	txa
    2912: 69 04        	adc	#$4
    2914: 85 12        	sta	$12                     ; 0x12 <__rc2>
    2916: a5 11        	lda	$11                     ; 0x11 <__rc1>
    2918: 69 00        	adc	#$0
    291a: 85 13        	sta	$13                     ; 0x13 <__rc3>
    291c: a9 50        	lda	#$50
    291e: 91 12        	sta	($12),y                 ; 0x12 <__rc2>
    2920: a2 4c        	ldx	#$4c
    2922: 86 12        	stx	$12                     ; 0x12 <__rc2>
    2924: a2 50        	ldx	#$50
    2926: 86 13        	stx	$13                     ; 0x13 <__rc3>
    2928: a2 88        	ldx	#$88
    292a: 86 14        	stx	$14                     ; 0x14 <__rc4>
    292c: a2 4e        	ldx	#$4e
    292e: 86 15        	stx	$15                     ; 0x15 <__rc5>
    2930: 20 15 46     	jsr	$4615 <sprintf>
    2933: a2 00        	ldx	#$0
    2935: 8a           	txa
    2936: 85 20        	sta	$20                     ; 0x20 <__rc16>
    2938: fa           	plx
    2939: 86 25        	stx	$25                     ; 0x25 <__rc21>
    293b: fa           	plx
    293c: 86 24        	stx	$24                     ; 0x24 <__rc20>
    293e: 18           	clc
    293f: a5 10        	lda	$10                     ; 0x10 <__rc0>
    2941: 69 08        	adc	#$8
    2943: 85 10        	sta	$10                     ; 0x10 <__rc0>
    2945: a5 11        	lda	$11                     ; 0x11 <__rc1>
    2947: 69 00        	adc	#$0
    2949: 85 11        	sta	$11                     ; 0x11 <__rc1>
    294b: a5 20        	lda	$20                     ; 0x20 <__rc16>
    294d: 60           	rts

0000294e <fileOpen>:
    294e: a6 12        	ldx	$12                     ; 0x12 <__rc2>
    2950: 86 9d        	stx	$9d                     ; 0x9d <__zp_data_size+0x63>
    2952: a6 13        	ldx	$13                     ; 0x13 <__rc3>
    2954: 86 9e        	stx	$9e                     ; 0x9e <__zp_data_size+0x64>
    2956: a6 14        	ldx	$14                     ; 0x14 <__rc4>
    2958: 86 9f        	stx	$9f                     ; 0x9f <__zp_data_size+0x65>
    295a: a6 15        	ldx	$15                     ; 0x15 <__rc5>
    295c: 86 a0        	stx	$a0                     ; 0xa0 <__zp_data_size+0x66>
    295e: 20 e6 4a     	jsr	$4ae6 <strlen>
    2961: 64 a1        	stz	$a1                     ; 0xa1 <__zp_data_size+0x67>
    2963: e0 00        	cpx	#$0
    2965: d0 06        	bne	$296d <fileOpen+0x1f>
    2967: c9 02        	cmp	#$2
    2969: b0 06        	bcs	$2971 <fileOpen+0x23>
    296b: 80 28        	bra	$2995 <fileOpen+0x47>
    296d: e0 00        	cpx	#$0
    296f: 90 24        	bcc	$2995 <fileOpen+0x47>
    2971: a0 01        	ldy	#$1
    2973: b1 9d        	lda	($9d),y                 ; 0x9d <__zp_data_size+0x63>
    2975: c9 3a        	cmp	#$3a
    2977: d0 1c        	bne	$2995 <fileOpen+0x47>
    2979: b2 9d        	lda	($9d)                   ; 0x9d <__zp_data_size+0x63>
    297b: c9 30        	cmp	#$30
    297d: 90 09        	bcc	$2988 <fileOpen+0x3a>
    297f: c9 38        	cmp	#$38
    2981: b0 05        	bcs	$2988 <fileOpen+0x3a>
    2983: 18           	clc
    2984: 69 d0        	adc	#$d0
    2986: 85 a1        	sta	$a1                     ; 0xa1 <__zp_data_size+0x67>
    2988: a5 9d        	lda	$9d                     ; 0x9d <__zp_data_size+0x63>
    298a: 18           	clc
    298b: 69 02        	adc	#$2
    298d: 85 9d        	sta	$9d                     ; 0x9d <__zp_data_size+0x63>
    298f: a5 9e        	lda	$9e                     ; 0x9e <__zp_data_size+0x64>
    2991: 69 00        	adc	#$0
    2993: 85 9e        	sta	$9e                     ; 0x9e <__zp_data_size+0x64>
    2995: a2 00        	ldx	#$0
    2997: 86 a4        	stx	$a4                     ; 0xa4 <__zp_data_size+0x6a>
    2999: 80 00        	bra	$299b <fileOpen+0x4d>
    299b: b2 9f        	lda	($9f)                   ; 0x9f <__zp_data_size+0x65>
    299d: c9 77        	cmp	#$77
    299f: f0 13        	beq	$29b4 <fileOpen+0x66>
    29a1: aa           	tax
    29a2: f0 1a        	beq	$29be <fileOpen+0x70>
    29a4: c9 61        	cmp	#$61
    29a6: d0 04        	bne	$29ac <fileOpen+0x5e>
    29a8: a2 02        	ldx	#$2
    29aa: 86 a4        	stx	$a4                     ; 0xa4 <__zp_data_size+0x6a>
    29ac: e6 9f        	inc	$9f                     ; 0x9f <__zp_data_size+0x65>
    29ae: d0 eb        	bne	$299b <fileOpen+0x4d>
    29b0: e6 a0        	inc	$a0                     ; 0xa0 <__zp_data_size+0x66>
    29b2: 80 e7        	bra	$299b <fileOpen+0x4d>
    29b4: a2 01        	ldx	#$1
    29b6: 86 a4        	stx	$a4                     ; 0xa4 <__zp_data_size+0x6a>
    29b8: c9 61        	cmp	#$61
    29ba: f0 ec        	beq	$29a8 <fileOpen+0x5a>
    29bc: 80 ee        	bra	$29ac <fileOpen+0x5e>
    29be: a5 6a        	lda	$6a                     ; 0x6a <kernelArgs>
    29c0: a6 6b        	ldx	$6b                     ; 0x6b <kernelArgs+0x1>
    29c2: 85 9f        	sta	$9f                     ; 0x9f <__zp_data_size+0x65>
    29c4: 86 a0        	stx	$a0                     ; 0xa0 <__zp_data_size+0x66>
    29c6: a0 0b        	ldy	#$b
    29c8: 18           	clc
    29c9: 69 0b        	adc	#$b
    29cb: 85 12        	sta	$12                     ; 0x12 <__rc2>
    29cd: 8a           	txa
    29ce: 69 00        	adc	#$0
    29d0: 85 13        	sta	$13                     ; 0x13 <__rc3>
    29d2: a5 9d        	lda	$9d                     ; 0x9d <__zp_data_size+0x63>
    29d4: 91 9f        	sta	($9f),y                 ; 0x9f <__zp_data_size+0x65>
    29d6: a0 01        	ldy	#$1
    29d8: a5 9e        	lda	$9e                     ; 0x9e <__zp_data_size+0x64>
    29da: 91 12        	sta	($12),y                 ; 0x12 <__rc2>
    29dc: a6 9d        	ldx	$9d                     ; 0x9d <__zp_data_size+0x63>
    29de: 86 12        	stx	$12                     ; 0x12 <__rc2>
    29e0: a6 9e        	ldx	$9e                     ; 0x9e <__zp_data_size+0x64>
    29e2: 86 13        	stx	$13                     ; 0x13 <__rc3>
    29e4: 20 e6 4a     	jsr	$4ae6 <strlen>
    29e7: a0 0d        	ldy	#$d
    29e9: 91 9f        	sta	($9f),y                 ; 0x9f <__zp_data_size+0x65>
    29eb: a0 03        	ldy	#$3
    29ed: a5 a1        	lda	$a1                     ; 0xa1 <__zp_data_size+0x67>
    29ef: 91 9f        	sta	($9f),y                 ; 0x9f <__zp_data_size+0x65>
    29f1: a0 05        	ldy	#$5
    29f3: a5 a4        	lda	$a4                     ; 0xa4 <__zp_data_size+0x6a>
    29f5: 91 9f        	sta	($9f),y                 ; 0x9f <__zp_data_size+0x65>
    29f7: a2 a2        	ldx	#$a2
    29f9: a0 00        	ldy	#$0
    29fb: 86 12        	stx	$12                     ; 0x12 <__rc2>
    29fd: 84 13        	sty	$13                     ; 0x13 <__rc3>
    29ff: a2 73        	ldx	#$73
    2a01: 86 14        	stx	$14                     ; 0x14 <__rc4>
    2a03: a2 00        	ldx	#$0
    2a05: 86 15        	stx	$15                     ; 0x15 <__rc5>
    2a07: 20 5c ff     	jsr	$ff5c <end_block9+0x9cb6>
    2a0a: 92 12        	sta	($12)                   ; 0x12 <__rc2>
    2a0c: a9 00        	lda	#$0
    2a0e: 6a           	ror
    2a0f: 85 14        	sta	$14                     ; 0x14 <__rc4>
    2a11: a6 73        	ldx	$73                     ; 0x73 <kernelError>
    2a13: a0 00        	ldy	#$0
    2a15: 84 12        	sty	$12                     ; 0x12 <__rc2>
    2a17: a0 00        	ldy	#$0
    2a19: 84 13        	sty	$13                     ; 0x13 <__rc3>
    2a1b: 8a           	txa
    2a1c: f0 01        	beq	$2a1f <fileOpen+0xd1>
    2a1e: 60           	rts
    2a1f: a6 a2        	ldx	$a2                     ; 0xa2 <__zp_data_size+0x68>
    2a21: 86 9d        	stx	$9d                     ; 0x9d <__zp_data_size+0x63>
    2a23: a2 a3        	ldx	#$a3
    2a25: a0 00        	ldy	#$0
    2a27: 86 16        	stx	$16                     ; 0x16 <__rc6>
    2a29: 84 17        	sty	$17                     ; 0x17 <__rc7>
    2a2b: 64 6c        	stz	$6c                     ; 0x6c <kernelEventData>
    2a2d: 20 00 ff     	jsr	$ff00 <end_block9+0x9c5a>
    2a30: 92 16        	sta	($16)                   ; 0x16 <__rc6>
    2a32: a9 00        	lda	#$0
    2a34: 6a           	ror
    2a35: 85 14        	sta	$14                     ; 0x14 <__rc4>
    2a37: a6 6c        	ldx	$6c                     ; 0x6c <kernelEventData>
    2a39: e0 28        	cpx	#$28
    2a3b: f0 e1        	beq	$2a1e <fileOpen+0xd0>
    2a3d: e0 38        	cpx	#$38
    2a3f: f0 dd        	beq	$2a1e <fileOpen+0xd0>
    2a41: e0 2a        	cpx	#$2a
    2a43: d0 e6        	bne	$2a2b <fileOpen+0xdd>
    2a45: a9 01        	lda	#$1
    2a47: a2 00        	ldx	#$0
    2a49: 20 9f 46     	jsr	$469f <malloc>
    2a4c: a5 9d        	lda	$9d                     ; 0x9d <__zp_data_size+0x63>
    2a4e: 92 12        	sta	($12)                   ; 0x12 <__rc2>
    2a50: 60           	rts

00002a51 <playback>:
    2a51: 18           	clc
    2a52: a5 10        	lda	$10                     ; 0x10 <__rc0>
    2a54: 69 e1        	adc	#$e1
    2a56: 85 10        	sta	$10                     ; 0x10 <__rc0>
    2a58: a5 11        	lda	$11                     ; 0x11 <__rc1>
    2a5a: 69 ff        	adc	#$ff
    2a5c: 85 11        	sta	$11                     ; 0x11 <__rc1>
    2a5e: a6 24        	ldx	$24                     ; 0x24 <__rc20>
    2a60: da           	phx
    2a61: a6 25        	ldx	$25                     ; 0x25 <__rc21>
    2a63: da           	phx
    2a64: a6 26        	ldx	$26                     ; 0x26 <__rc22>
    2a66: da           	phx
    2a67: a6 27        	ldx	$27                     ; 0x27 <__rc23>
    2a69: da           	phx
    2a6a: a5 28        	lda	$28                     ; 0x28 <__rc24>
    2a6c: a0 03        	ldy	#$3
    2a6e: 91 10        	sta	($10),y                 ; 0x10 <__rc0>
    2a70: a5 29        	lda	$29                     ; 0x29 <__rc25>
    2a72: 88           	dey
    2a73: 91 10        	sta	($10),y                 ; 0x10 <__rc0>
    2a75: a6 12        	ldx	$12                     ; 0x12 <__rc2>
    2a77: 86 24        	stx	$24                     ; 0x24 <__rc20>
    2a79: a6 13        	ldx	$13                     ; 0x13 <__rc3>
    2a7b: 86 25        	stx	$25                     ; 0x25 <__rc21>
    2a7d: 64 74        	stz	$74                     ; 0x74 <_col>
    2a7f: 9c 14 d0     	stz	$d014                   ; 0xd014 <end_block9+0x6d6e>
    2a82: 9c 15 d0     	stz	$d015                   ; 0xd015 <end_block9+0x6d6f>
    2a85: 64 75        	stz	$75                     ; 0x75 <_row>
    2a87: 9c 16 d0     	stz	$d016                   ; 0xd016 <end_block9+0x6d70>
    2a8a: 9c 17 d0     	stz	$d017                   ; 0xd017 <end_block9+0x6d71>
    2a8d: a2 8f        	ldx	#$8f
    2a8f: 86 12        	stx	$12                     ; 0x12 <__rc2>
    2a91: a2 4d        	ldx	#$4d
    2a93: 86 13        	stx	$13                     ; 0x13 <__rc3>
    2a95: 20 22 43     	jsr	$4322 <printf>
    2a98: 64 74        	stz	$74                     ; 0x74 <_col>
    2a9a: 9c 14 d0     	stz	$d014                   ; 0xd014 <end_block9+0x6d6e>
    2a9d: 9c 15 d0     	stz	$d015                   ; 0xd015 <end_block9+0x6d6f>
    2aa0: a2 01        	ldx	#$1
    2aa2: 86 75        	stx	$75                     ; 0x75 <_row>
    2aa4: 8e 16 d0     	stx	$d016                   ; 0xd016 <end_block9+0x6d70>
    2aa7: 9c 17 d0     	stz	$d017                   ; 0xd017 <end_block9+0x6d71>
    2aaa: a2 8f        	ldx	#$8f
    2aac: 86 12        	stx	$12                     ; 0x12 <__rc2>
    2aae: a2 4d        	ldx	#$4d
    2ab0: 86 13        	stx	$13                     ; 0x13 <__rc3>
    2ab2: 20 22 43     	jsr	$4322 <printf>
    2ab5: 64 74        	stz	$74                     ; 0x74 <_col>
    2ab7: 9c 14 d0     	stz	$d014                   ; 0xd014 <end_block9+0x6d6e>
    2aba: 9c 15 d0     	stz	$d015                   ; 0xd015 <end_block9+0x6d6f>
    2abd: 64 75        	stz	$75                     ; 0x75 <_row>
    2abf: 9c 16 d0     	stz	$d016                   ; 0xd016 <end_block9+0x6d70>
    2ac2: 9c 17 d0     	stz	$d017                   ; 0xd017 <end_block9+0x6d71>
    2ac5: a9 4c        	lda	#$4c
    2ac7: 92 10        	sta	($10)                   ; 0x10 <__rc0>
    2ac9: a0 01        	ldy	#$1
    2acb: a9 50        	lda	#$50
    2acd: 91 10        	sta	($10),y                 ; 0x10 <__rc0>
    2acf: a2 65        	ldx	#$65
    2ad1: 86 12        	stx	$12                     ; 0x12 <__rc2>
    2ad3: a2 4e        	ldx	#$4e
    2ad5: 86 13        	stx	$13                     ; 0x13 <__rc3>
    2ad7: 20 22 43     	jsr	$4322 <printf>
    2ada: 64 74        	stz	$74                     ; 0x74 <_col>
    2adc: 9c 14 d0     	stz	$d014                   ; 0xd014 <end_block9+0x6d6e>
    2adf: 9c 15 d0     	stz	$d015                   ; 0xd015 <end_block9+0x6d6f>
    2ae2: a2 18        	ldx	#$18
    2ae4: 86 75        	stx	$75                     ; 0x75 <_row>
    2ae6: 8e 16 d0     	stx	$d016                   ; 0xd016 <end_block9+0x6d70>
    2ae9: 9c 17 d0     	stz	$d017                   ; 0xd017 <end_block9+0x6d71>
    2aec: a2 71        	ldx	#$71
    2aee: 86 12        	stx	$12                     ; 0x12 <__rc2>
    2af0: a2 4e        	ldx	#$4e
    2af2: 86 13        	stx	$13                     ; 0x13 <__rc3>
    2af4: 20 22 43     	jsr	$4322 <printf>
    2af7: 64 94        	stz	$94                     ; 0x94 <sidTimer>
    2af9: 64 96        	stz	$96                     ; 0x96 <sidTimer+0x2>
    2afb: a9 00        	lda	#$0
    2afd: 20 b0 21     	jsr	$21b0 <getTimerAbsolute>
    2b00: 1a           	inc
    2b01: 85 95        	sta	$95                     ; 0x95 <sidTimer+0x1>
    2b03: a2 94        	ldx	#$94
    2b05: 86 12        	stx	$12                     ; 0x12 <__rc2>
    2b07: a2 00        	ldx	#$0
    2b09: 86 13        	stx	$13                     ; 0x13 <__rc3>
    2b0b: 20 7d 21     	jsr	$217d <setTimer>
    2b0e: a9 15        	lda	#$15
    2b10: a2 ae        	ldx	#$ae
    2b12: a0 07        	ldy	#$7
    2b14: 84 12        	sty	$12                     ; 0x12 <__rc2>
    2b16: 64 13        	stz	$13                     ; 0x13 <__rc3>
    2b18: 20 61 21     	jsr	$2161 <setTimer0>
    2b1b: a2 73        	ldx	#$73
    2b1d: 86 28        	stx	$28                     ; 0x28 <__rc24>
    2b1f: a2 00        	ldx	#$0
    2b21: 86 29        	stx	$29                     ; 0x29 <__rc25>
    2b23: a0 00        	ldy	#$0
    2b25: 80 34        	bra	$2b5b <playback+0x10a>
    2b27: e0 00        	cpx	#$0
    2b29: a2 d4        	ldx	#$d4
    2b2b: b0 07        	bcs	$2b34 <playback+0xe3>
    2b2d: a0 01        	ldy	#$1
    2b2f: 98           	tya
    2b30: a0 04        	ldy	#$4
    2b32: 91 10        	sta	($10),y                 ; 0x10 <__rc0>
    2b34: a0 00        	ldy	#$0
    2b36: b1 26        	lda	($26),y                 ; 0x26 <__rc22>
    2b38: 84 12        	sty	$12                     ; 0x12 <__rc2>
    2b3a: 86 13        	stx	$13                     ; 0x13 <__rc3>
    2b3c: 92 12        	sta	($12)                   ; 0x12 <__rc2>
    2b3e: c8           	iny
    2b3f: c0 19        	cpy	#$19
    2b41: d0 f3        	bne	$2b36 <playback+0xe5>
    2b43: a2 07        	ldx	#$7
    2b45: 86 12        	stx	$12                     ; 0x12 <__rc2>
    2b47: 64 13        	stz	$13                     ; 0x13 <__rc3>
    2b49: a2 ae        	ldx	#$ae
    2b4b: a9 15        	lda	#$15
    2b4d: 20 61 21     	jsr	$2161 <setTimer0>
    2b50: a0 04        	ldy	#$4
    2b52: b1 10        	lda	($10),y                 ; 0x10 <__rc0>
    2b54: a8           	tay
    2b55: 98           	tya
    2b56: f0 03        	beq	$2b5b <playback+0x10a>
    2b58: 4c d6 2b     	jmp	$2bd6 <playback+0x185>
    2b5b: 64 6c        	stz	$6c                     ; 0x6c <kernelEventData>
    2b5d: 18           	clc
    2b5e: a5 10        	lda	$10                     ; 0x10 <__rc0>
    2b60: 69 05        	adc	#$5
    2b62: 85 12        	sta	$12                     ; 0x12 <__rc2>
    2b64: a5 11        	lda	$11                     ; 0x11 <__rc1>
    2b66: 69 00        	adc	#$0
    2b68: 85 13        	sta	$13                     ; 0x13 <__rc3>
    2b6a: 20 00 ff     	jsr	$ff00 <end_block9+0x9c5a>
    2b6d: 92 12        	sta	($12)                   ; 0x12 <__rc2>
    2b6f: a9 00        	lda	#$0
    2b71: 6a           	ror
    2b72: 85 28        	sta	$28                     ; 0x28 <__rc24>
    2b74: a6 6c        	ldx	$6c                     ; 0x6c <kernelEventData>
    2b76: e0 08        	cpx	#$8
    2b78: d0 10        	bne	$2b8a <playback+0x139>
    2b7a: a6 70        	ldx	$70                     ; 0x70 <kernelEventData+0x4>
    2b7c: e0 92        	cpx	#$92
    2b7e: d0 03        	bne	$2b83 <playback+0x132>
    2b80: 4c 39 2c     	jmp	$2c39 <playback+0x1e8>
    2b83: e0 83        	cpx	#$83
    2b85: d0 03        	bne	$2b8a <playback+0x139>
    2b87: 4c fd 2b     	jmp	$2bfd <playback+0x1ac>
    2b8a: ad 60 d6     	lda	$d660                   ; 0xd660 <end_block9+0x73ba>
    2b8d: 29 10        	and	#$10
    2b8f: f0 c4        	beq	$2b55 <playback+0x104>
    2b91: 98           	tya
    2b92: a0 04        	ldy	#$4
    2b94: 91 10        	sta	($10),y                 ; 0x10 <__rc0>
    2b96: a2 10        	ldx	#$10
    2b98: 8e 60 d6     	stx	$d660                   ; 0xd660 <end_block9+0x73ba>
    2b9b: 18           	clc
    2b9c: a5 10        	lda	$10                     ; 0x10 <__rc0>
    2b9e: 69 06        	adc	#$6
    2ba0: 85 26        	sta	$26                     ; 0x26 <__rc22>
    2ba2: a5 11        	lda	$11                     ; 0x11 <__rc1>
    2ba4: 69 00        	adc	#$0
    2ba6: 85 27        	sta	$27                     ; 0x27 <__rc23>
    2ba8: a6 26        	ldx	$26                     ; 0x26 <__rc22>
    2baa: 86 12        	stx	$12                     ; 0x12 <__rc2>
    2bac: 85 13        	sta	$13                     ; 0x13 <__rc3>
    2bae: a6 24        	ldx	$24                     ; 0x24 <__rc20>
    2bb0: 86 16        	stx	$16                     ; 0x16 <__rc6>
    2bb2: a6 25        	ldx	$25                     ; 0x25 <__rc21>
    2bb4: 86 17        	stx	$17                     ; 0x17 <__rc7>
    2bb6: a2 19        	ldx	#$19
    2bb8: 86 14        	stx	$14                     ; 0x14 <__rc4>
    2bba: 64 15        	stz	$15                     ; 0x15 <__rc5>
    2bbc: a2 00        	ldx	#$0
    2bbe: a9 01        	lda	#$1
    2bc0: 20 67 2c     	jsr	$2c67 <fileRead>
    2bc3: e0 00        	cpx	#$0
    2bc5: f0 03        	beq	$2bca <playback+0x179>
    2bc7: 4c 27 2b     	jmp	$2b27 <playback+0xd6>
    2bca: c9 19        	cmp	#$19
    2bcc: a2 d4        	ldx	#$d4
    2bce: b0 03        	bcs	$2bd3 <playback+0x182>
    2bd0: 4c 2d 2b     	jmp	$2b2d <playback+0xdc>
    2bd3: 4c 34 2b     	jmp	$2b34 <playback+0xe3>
    2bd6: 64 74        	stz	$74                     ; 0x74 <_col>
    2bd8: 9c 14 d0     	stz	$d014                   ; 0xd014 <end_block9+0x6d6e>
    2bdb: 9c 15 d0     	stz	$d015                   ; 0xd015 <end_block9+0x6d6f>
    2bde: 64 75        	stz	$75                     ; 0x75 <_row>
    2be0: 9c 16 d0     	stz	$d016                   ; 0xd016 <end_block9+0x6d70>
    2be3: 9c 17 d0     	stz	$d017                   ; 0xd017 <end_block9+0x6d71>
    2be6: a2 8f        	ldx	#$8f
    2be8: 86 12        	stx	$12                     ; 0x12 <__rc2>
    2bea: a2 4d        	ldx	#$4d
    2bec: 86 13        	stx	$13                     ; 0x13 <__rc3>
    2bee: 20 22 43     	jsr	$4322 <printf>
    2bf1: 64 74        	stz	$74                     ; 0x74 <_col>
    2bf3: 9c 14 d0     	stz	$d014                   ; 0xd014 <end_block9+0x6d6e>
    2bf6: 9c 15 d0     	stz	$d015                   ; 0xd015 <end_block9+0x6d6f>
    2bf9: a2 18        	ldx	#$18
    2bfb: 80 25        	bra	$2c22 <playback+0x1d1>
    2bfd: 64 74        	stz	$74                     ; 0x74 <_col>
    2bff: 9c 14 d0     	stz	$d014                   ; 0xd014 <end_block9+0x6d6e>
    2c02: 9c 15 d0     	stz	$d015                   ; 0xd015 <end_block9+0x6d6f>
    2c05: 64 75        	stz	$75                     ; 0x75 <_row>
    2c07: 9c 16 d0     	stz	$d016                   ; 0xd016 <end_block9+0x6d70>
    2c0a: 9c 17 d0     	stz	$d017                   ; 0xd017 <end_block9+0x6d71>
    2c0d: a2 8f        	ldx	#$8f
    2c0f: 86 12        	stx	$12                     ; 0x12 <__rc2>
    2c11: a2 4d        	ldx	#$4d
    2c13: 86 13        	stx	$13                     ; 0x13 <__rc3>
    2c15: 20 22 43     	jsr	$4322 <printf>
    2c18: 64 74        	stz	$74                     ; 0x74 <_col>
    2c1a: 9c 14 d0     	stz	$d014                   ; 0xd014 <end_block9+0x6d6e>
    2c1d: 9c 15 d0     	stz	$d015                   ; 0xd015 <end_block9+0x6d6f>
    2c20: a2 27        	ldx	#$27
    2c22: 86 75        	stx	$75                     ; 0x75 <_row>
    2c24: 8e 16 d0     	stx	$d016                   ; 0xd016 <end_block9+0x6d70>
    2c27: 9c 17 d0     	stz	$d017                   ; 0xd017 <end_block9+0x6d71>
    2c2a: a2 8f        	ldx	#$8f
    2c2c: 86 12        	stx	$12                     ; 0x12 <__rc2>
    2c2e: a2 4d        	ldx	#$4d
    2c30: 86 13        	stx	$13                     ; 0x13 <__rc3>
    2c32: 20 22 43     	jsr	$4322 <printf>
    2c35: a9 00        	lda	#$0
    2c37: 80 05        	bra	$2c3e <playback+0x1ed>
    2c39: 20 2c 21     	jsr	$212c <clearSIDRegisters>
    2c3c: a9 01        	lda	#$1
    2c3e: 85 20        	sta	$20                     ; 0x20 <__rc16>
    2c40: a0 02        	ldy	#$2
    2c42: b1 10        	lda	($10),y                 ; 0x10 <__rc0>
    2c44: 85 29        	sta	$29                     ; 0x29 <__rc25>
    2c46: c8           	iny
    2c47: b1 10        	lda	($10),y                 ; 0x10 <__rc0>
    2c49: 85 28        	sta	$28                     ; 0x28 <__rc24>
    2c4b: fa           	plx
    2c4c: 86 27        	stx	$27                     ; 0x27 <__rc23>
    2c4e: fa           	plx
    2c4f: 86 26        	stx	$26                     ; 0x26 <__rc22>
    2c51: fa           	plx
    2c52: 86 25        	stx	$25                     ; 0x25 <__rc21>
    2c54: fa           	plx
    2c55: 86 24        	stx	$24                     ; 0x24 <__rc20>
    2c57: 18           	clc
    2c58: a5 10        	lda	$10                     ; 0x10 <__rc0>
    2c5a: 69 1f        	adc	#$1f
    2c5c: 85 10        	sta	$10                     ; 0x10 <__rc0>
    2c5e: a5 11        	lda	$11                     ; 0x11 <__rc1>
    2c60: 69 00        	adc	#$0
    2c62: 85 11        	sta	$11                     ; 0x11 <__rc1>
    2c64: a5 20        	lda	$20                     ; 0x20 <__rc16>
    2c66: 60           	rts

00002c67 <fileRead>:
    2c67: 85 9d        	sta	$9d                     ; 0x9d <__zp_data_size+0x63>
    2c69: 86 9e        	stx	$9e                     ; 0x9e <__zp_data_size+0x64>
    2c6b: a4 12        	ldy	$12                     ; 0x12 <__rc2>
    2c6d: 84 a1        	sty	$a1                     ; 0xa1 <__zp_data_size+0x67>
    2c6f: a4 13        	ldy	$13                     ; 0x13 <__rc3>
    2c71: 84 a2        	sty	$a2                     ; 0xa2 <__zp_data_size+0x68>
    2c73: a4 16        	ldy	$16                     ; 0x16 <__rc6>
    2c75: 84 9f        	sty	$9f                     ; 0x9f <__zp_data_size+0x65>
    2c77: a4 17        	ldy	$17                     ; 0x17 <__rc7>
    2c79: 84 a0        	sty	$a0                     ; 0xa0 <__zp_data_size+0x66>
    2c7b: 85 12        	sta	$12                     ; 0x12 <__rc2>
    2c7d: 86 13        	stx	$13                     ; 0x13 <__rc3>
    2c7f: a6 15        	ldx	$15                     ; 0x15 <__rc5>
    2c81: a5 14        	lda	$14                     ; 0x14 <__rc4>
    2c83: 20 ef 4b     	jsr	$4bef <__mulhi3>
    2c86: 85 12        	sta	$12                     ; 0x12 <__rc2>
    2c88: 64 14        	stz	$14                     ; 0x14 <__rc4>
    2c8a: 86 13        	stx	$13                     ; 0x13 <__rc3>
    2c8c: a5 13        	lda	$13                     ; 0x13 <__rc3>
    2c8e: d0 07        	bne	$2c97 <fileRead+0x30>
    2c90: a5 12        	lda	$12                     ; 0x12 <__rc2>
    2c92: d0 03        	bne	$2c97 <fileRead+0x30>
    2c94: 4c 12 2e     	jmp	$2e12 <fileRead+0x1ab>
    2c97: a2 00        	ldx	#$0
    2c99: a0 73        	ldy	#$73
    2c9b: 84 16        	sty	$16                     ; 0x16 <__rc6>
    2c9d: a0 00        	ldy	#$0
    2c9f: 84 17        	sty	$17                     ; 0x17 <__rc7>
    2ca1: 64 15        	stz	$15                     ; 0x15 <__rc5>
    2ca3: b2 9f        	lda	($9f)                   ; 0x9f <__zp_data_size+0x65>
    2ca5: 85 1a        	sta	$1a                     ; 0x1a <__rc10>
    2ca7: a4 a1        	ldy	$a1                     ; 0xa1 <__zp_data_size+0x67>
    2ca9: 84 1c        	sty	$1c                     ; 0x1c <__rc12>
    2cab: a5 a1        	lda	$a1                     ; 0xa1 <__zp_data_size+0x67>
    2cad: 18           	clc
    2cae: 65 14        	adc	$14                     ; 0x14 <__rc4>
    2cb0: a8           	tay
    2cb1: a5 a2        	lda	$a2                     ; 0xa2 <__zp_data_size+0x68>
    2cb3: 85 1d        	sta	$1d                     ; 0x1d <__rc13>
    2cb5: a5 a2        	lda	$a2                     ; 0xa2 <__zp_data_size+0x68>
    2cb7: 65 15        	adc	$15                     ; 0x15 <__rc5>
    2cb9: e6 1a        	inc	$1a                     ; 0x1a <__rc10>
    2cbb: c6 1a        	dec	$1a                     ; 0x1a <__rc10>
    2cbd: f0 53        	beq	$2d12 <fileRead+0xab>
    2cbf: 85 1f        	sta	$1f                     ; 0x1f <__rc15>
    2cc1: 84 1e        	sty	$1e                     ; 0x1e <__rc14>
    2cc3: a5 12        	lda	$12                     ; 0x12 <__rc2>
    2cc5: 38           	sec
    2cc6: e5 14        	sbc	$14                     ; 0x14 <__rc4>
    2cc8: 85 1b        	sta	$1b                     ; 0x1b <__rc11>
    2cca: a5 13        	lda	$13                     ; 0x13 <__rc3>
    2ccc: e5 15        	sbc	$15                     ; 0x15 <__rc5>
    2cce: c9 01        	cmp	#$1
    2cd0: f0 03        	beq	$2cd5 <fileRead+0x6e>
    2cd2: 4c 89 2d     	jmp	$2d89 <fileRead+0x122>
    2cd5: a4 1b        	ldy	$1b                     ; 0x1b <__rc11>
    2cd7: c0 01        	cpy	#$1
    2cd9: 90 02        	bcc	$2cdd <fileRead+0x76>
    2cdb: 64 1b        	stz	$1b                     ; 0x1b <__rc11>
    2cdd: a5 6a        	lda	$6a                     ; 0x6a <kernelArgs>
    2cdf: 85 18        	sta	$18                     ; 0x18 <__rc8>
    2ce1: a5 6b        	lda	$6b                     ; 0x6b <kernelArgs+0x1>
    2ce3: 85 19        	sta	$19                     ; 0x19 <__rc9>
    2ce5: a0 03        	ldy	#$3
    2ce7: a5 1a        	lda	$1a                     ; 0x1a <__rc10>
    2ce9: 91 18        	sta	($18),y                 ; 0x18 <__rc8>
    2ceb: c8           	iny
    2cec: a5 1b        	lda	$1b                     ; 0x1b <__rc11>
    2cee: 91 18        	sta	($18),y                 ; 0x18 <__rc8>
    2cf0: a0 a5        	ldy	#$a5
    2cf2: 84 18        	sty	$18                     ; 0x18 <__rc8>
    2cf4: a0 00        	ldy	#$0
    2cf6: 84 19        	sty	$19                     ; 0x19 <__rc9>
    2cf8: 20 60 ff     	jsr	$ff60 <end_block9+0x9cba>
    2cfb: 92 18        	sta	($18)                   ; 0x18 <__rc8>
    2cfd: a9 00        	lda	#$0
    2cff: 6a           	ror
    2d00: 85 16        	sta	$16                     ; 0x16 <__rc6>
    2d02: a5 73        	lda	$73                     ; 0x73 <kernelError>
    2d04: a0 ff        	ldy	#$ff
    2d06: 84 a8        	sty	$a8                     ; 0xa8 <__zp_data_size+0x6e>
    2d08: a8           	tay
    2d09: d0 03        	bne	$2d0e <fileRead+0xa7>
    2d0b: 4c 93 2d     	jmp	$2d93 <fileRead+0x12c>
    2d0e: a9 ff        	lda	#$ff
    2d10: 80 42        	bra	$2d54 <fileRead+0xed>
    2d12: 84 18        	sty	$18                     ; 0x18 <__rc8>
    2d14: 85 19        	sta	$19                     ; 0x19 <__rc9>
    2d16: 80 12        	bra	$2d2a <fileRead+0xc3>
    2d18: a9 a4        	lda	#$a4
    2d1a: 85 1a        	sta	$1a                     ; 0x1a <__rc10>
    2d1c: a9 00        	lda	#$0
    2d1e: 85 1b        	sta	$1b                     ; 0x1b <__rc11>
    2d20: 20 0c ff     	jsr	$ff0c <end_block9+0x9c66>
    2d23: 92 1a        	sta	($1a)                   ; 0x1a <__rc10>
    2d25: a9 00        	lda	#$0
    2d27: 6a           	ror
    2d28: 85 16        	sta	$16                     ; 0x16 <__rc6>
    2d2a: 64 6c        	stz	$6c                     ; 0x6c <kernelEventData>
    2d2c: a9 a3        	lda	#$a3
    2d2e: 85 1a        	sta	$1a                     ; 0x1a <__rc10>
    2d30: 86 1b        	stx	$1b                     ; 0x1b <__rc11>
    2d32: 20 00 ff     	jsr	$ff00 <end_block9+0x9c5a>
    2d35: 92 1a        	sta	($1a)                   ; 0x1a <__rc10>
    2d37: a9 00        	lda	#$0
    2d39: 6a           	ror
    2d3a: 85 16        	sta	$16                     ; 0x16 <__rc6>
    2d3c: a5 73        	lda	$73                     ; 0x73 <kernelError>
    2d3e: d0 d8        	bne	$2d18 <fileRead+0xb1>
    2d40: a5 6c        	lda	$6c                     ; 0x6c <kernelEventData>
    2d42: c9 08        	cmp	#$8
    2d44: d0 e4        	bne	$2d2a <fileRead+0xc3>
    2d46: a5 72        	lda	$72                     ; 0x72 <kernelEventData+0x6>
    2d48: d0 e0        	bne	$2d2a <fileRead+0xc3>
    2d4a: a5 71        	lda	$71                     ; 0x71 <kernelEventData+0x5>
    2d4c: 92 18        	sta	($18)                   ; 0x18 <__rc8>
    2d4e: a0 01        	ldy	#$1
    2d50: 84 a8        	sty	$a8                     ; 0xa8 <__zp_data_size+0x6e>
    2d52: a9 00        	lda	#$0
    2d54: a8           	tay
    2d55: 10 03        	bpl	$2d5a <fileRead+0xf3>
    2d57: 4c 1b 2e     	jmp	$2e1b <fileRead+0x1b4>
    2d5a: a4 a8        	ldy	$a8                     ; 0xa8 <__zp_data_size+0x6e>
    2d5c: c9 00        	cmp	#$0
    2d5e: d0 03        	bne	$2d63 <fileRead+0xfc>
    2d60: 4c 1f 2e     	jmp	$2e1f <fileRead+0x1b8>
    2d63: 84 18        	sty	$18                     ; 0x18 <__rc8>
    2d65: 18           	clc
    2d66: a8           	tay
    2d67: a5 18        	lda	$18                     ; 0x18 <__rc8>
    2d69: 65 14        	adc	$14                     ; 0x14 <__rc4>
    2d6b: 85 14        	sta	$14                     ; 0x14 <__rc4>
    2d6d: 98           	tya
    2d6e: 65 15        	adc	$15                     ; 0x15 <__rc5>
    2d70: c5 13        	cmp	$13                     ; 0x13 <__rc3>
    2d72: d0 09        	bne	$2d7d <fileRead+0x116>
    2d74: a4 14        	ldy	$14                     ; 0x14 <__rc4>
    2d76: c4 12        	cpy	$12                     ; 0x12 <__rc2>
    2d78: 90 0a        	bcc	$2d84 <fileRead+0x11d>
    2d7a: 4c 01 2e     	jmp	$2e01 <fileRead+0x19a>
    2d7d: c5 13        	cmp	$13                     ; 0x13 <__rc3>
    2d7f: 90 03        	bcc	$2d84 <fileRead+0x11d>
    2d81: 4c 01 2e     	jmp	$2e01 <fileRead+0x19a>
    2d84: 85 15        	sta	$15                     ; 0x15 <__rc5>
    2d86: 4c a3 2c     	jmp	$2ca3 <fileRead+0x3c>
    2d89: c9 01        	cmp	#$1
    2d8b: 90 03        	bcc	$2d90 <fileRead+0x129>
    2d8d: 4c db 2c     	jmp	$2cdb <fileRead+0x74>
    2d90: 4c dd 2c     	jmp	$2cdd <fileRead+0x76>
    2d93: a0 a6        	ldy	#$a6
    2d95: 64 6c        	stz	$6c                     ; 0x6c <kernelEventData>
    2d97: 84 18        	sty	$18                     ; 0x18 <__rc8>
    2d99: a9 00        	lda	#$0
    2d9b: 85 19        	sta	$19                     ; 0x19 <__rc9>
    2d9d: 20 00 ff     	jsr	$ff00 <end_block9+0x9c5a>
    2da0: 92 18        	sta	($18)                   ; 0x18 <__rc8>
    2da2: a9 00        	lda	#$0
    2da4: 6a           	ror
    2da5: 85 16        	sta	$16                     ; 0x16 <__rc6>
    2da7: a5 6c        	lda	$6c                     ; 0x6c <kernelEventData>
    2da9: c9 38        	cmp	#$38
    2dab: d0 03        	bne	$2db0 <fileRead+0x149>
    2dad: 4c 0e 2d     	jmp	$2d0e <fileRead+0xa7>
    2db0: c9 30        	cmp	#$30
    2db2: d0 03        	bne	$2db7 <fileRead+0x150>
    2db4: 4c 16 2e     	jmp	$2e16 <fileRead+0x1af>
    2db7: c9 2c        	cmp	#$2c
    2db9: d0 da        	bne	$2d95 <fileRead+0x12e>
    2dbb: a5 6a        	lda	$6a                     ; 0x6a <kernelArgs>
    2dbd: a4 6b        	ldy	$6b                     ; 0x6b <kernelArgs+0x1>
    2dbf: 85 18        	sta	$18                     ; 0x18 <__rc8>
    2dc1: 84 19        	sty	$19                     ; 0x19 <__rc9>
    2dc3: 18           	clc
    2dc4: 69 0b        	adc	#$b
    2dc6: 85 1a        	sta	$1a                     ; 0x1a <__rc10>
    2dc8: 98           	tya
    2dc9: 69 00        	adc	#$0
    2dcb: 85 1b        	sta	$1b                     ; 0x1b <__rc11>
    2dcd: a0 0b        	ldy	#$b
    2dcf: a5 1e        	lda	$1e                     ; 0x1e <__rc14>
    2dd1: 91 18        	sta	($18),y                 ; 0x18 <__rc8>
    2dd3: a0 01        	ldy	#$1
    2dd5: a5 1f        	lda	$1f                     ; 0x1f <__rc15>
    2dd7: 91 1a        	sta	($1a),y                 ; 0x1a <__rc10>
    2dd9: a5 72        	lda	$72                     ; 0x72 <kernelEventData+0x6>
    2ddb: a0 0d        	ldy	#$d
    2ddd: 91 18        	sta	($18),y                 ; 0x18 <__rc8>
    2ddf: a0 a7        	ldy	#$a7
    2de1: 84 18        	sty	$18                     ; 0x18 <__rc8>
    2de3: a0 00        	ldy	#$0
    2de5: 84 19        	sty	$19                     ; 0x19 <__rc9>
    2de7: 20 04 ff     	jsr	$ff04 <end_block9+0x9c5e>
    2dea: 92 18        	sta	($18)                   ; 0x18 <__rc8>
    2dec: a9 00        	lda	#$0
    2dee: 6a           	ror
    2def: 85 16        	sta	$16                     ; 0x16 <__rc6>
    2df1: a4 72        	ldy	$72                     ; 0x72 <kernelEventData+0x6>
    2df3: f0 03        	beq	$2df8 <fileRead+0x191>
    2df5: 4c 50 2d     	jmp	$2d50 <fileRead+0xe9>
    2df8: a0 00        	ldy	#$0
    2dfa: 84 a8        	sty	$a8                     ; 0xa8 <__zp_data_size+0x6e>
    2dfc: a9 01        	lda	#$1
    2dfe: 4c 54 2d     	jmp	$2d54 <fileRead+0xed>
    2e01: 85 15        	sta	$15                     ; 0x15 <__rc5>
    2e03: a6 9d        	ldx	$9d                     ; 0x9d <__zp_data_size+0x63>
    2e05: 86 12        	stx	$12                     ; 0x12 <__rc2>
    2e07: a6 9e        	ldx	$9e                     ; 0x9e <__zp_data_size+0x64>
    2e09: 86 13        	stx	$13                     ; 0x13 <__rc3>
    2e0b: a6 15        	ldx	$15                     ; 0x15 <__rc5>
    2e0d: a5 14        	lda	$14                     ; 0x14 <__rc4>
    2e0f: 4c 21 4c     	jmp	$4c21 <__udivhi3>
    2e12: 64 15        	stz	$15                     ; 0x15 <__rc5>
    2e14: 80 ed        	bra	$2e03 <fileRead+0x19c>
    2e16: a0 00        	ldy	#$0
    2e18: 4c 50 2d     	jmp	$2d50 <fileRead+0xe9>
    2e1b: a9 ff        	lda	#$ff
    2e1d: aa           	tax
    2e1e: 60           	rts
    2e1f: c0 00        	cpy	#$0
    2e21: f0 e0        	beq	$2e03 <fileRead+0x19c>
    2e23: 4c 63 2d     	jmp	$2d63 <fileRead+0xfc>

00002e26 <fileOpenDir>:
    2e26: a6 12        	ldx	$12                     ; 0x12 <__rc2>
    2e28: 86 ad        	stx	$ad                     ; 0xad <__zp_data_size+0x73>
    2e2a: a6 13        	ldx	$13                     ; 0x13 <__rc3>
    2e2c: 86 ae        	stx	$ae                     ; 0xae <__zp_data_size+0x74>
    2e2e: 20 e6 4a     	jsr	$4ae6 <strlen>
    2e31: a0 00        	ldy	#$0
    2e33: e0 00        	cpx	#$0
    2e35: d0 06        	bne	$2e3d <fileOpenDir+0x17>
    2e37: c9 02        	cmp	#$2
    2e39: b0 06        	bcs	$2e41 <fileOpenDir+0x1b>
    2e3b: 80 2d        	bra	$2e6a <fileOpenDir+0x44>
    2e3d: e0 00        	cpx	#$0
    2e3f: 90 29        	bcc	$2e6a <fileOpenDir+0x44>
    2e41: a0 01        	ldy	#$1
    2e43: b1 ad        	lda	($ad),y                 ; 0xad <__zp_data_size+0x73>
    2e45: c9 3a        	cmp	#$3a
    2e47: d0 1f        	bne	$2e68 <fileOpenDir+0x42>
    2e49: b2 ad        	lda	($ad)                   ; 0xad <__zp_data_size+0x73>
    2e4b: c9 30        	cmp	#$30
    2e4d: a0 00        	ldy	#$0
    2e4f: 90 08        	bcc	$2e59 <fileOpenDir+0x33>
    2e51: c9 38        	cmp	#$38
    2e53: b0 04        	bcs	$2e59 <fileOpenDir+0x33>
    2e55: 18           	clc
    2e56: 69 d0        	adc	#$d0
    2e58: a8           	tay
    2e59: a5 ad        	lda	$ad                     ; 0xad <__zp_data_size+0x73>
    2e5b: 18           	clc
    2e5c: 69 02        	adc	#$2
    2e5e: 85 ad        	sta	$ad                     ; 0xad <__zp_data_size+0x73>
    2e60: a5 ae        	lda	$ae                     ; 0xae <__zp_data_size+0x74>
    2e62: 69 00        	adc	#$0
    2e64: 85 ae        	sta	$ae                     ; 0xae <__zp_data_size+0x74>
    2e66: 80 02        	bra	$2e6a <fileOpenDir+0x44>
    2e68: a0 00        	ldy	#$0
    2e6a: a2 00        	ldx	#$0
    2e6c: 86 12        	stx	$12                     ; 0x12 <__rc2>
    2e6e: a2 00        	ldx	#$0
    2e70: 86 13        	stx	$13                     ; 0x13 <__rc3>
    2e72: b6 8c        	ldx	$8c,y                   ; 0x8c <_dirStream>
    2e74: f0 01        	beq	$2e77 <fileOpenDir+0x51>
    2e76: 60           	rts
    2e77: a5 6a        	lda	$6a                     ; 0x6a <kernelArgs>
    2e79: a6 6b        	ldx	$6b                     ; 0x6b <kernelArgs+0x1>
    2e7b: 85 12        	sta	$12                     ; 0x12 <__rc2>
    2e7d: 85 17        	sta	$17                     ; 0x17 <__rc7>
    2e7f: 86 13        	stx	$13                     ; 0x13 <__rc3>
    2e81: 86 16        	stx	$16                     ; 0x16 <__rc6>
    2e83: 98           	tya
    2e84: a0 03        	ldy	#$3
    2e86: 85 b3        	sta	$b3                     ; 0xb3 <__zp_data_size+0x79>
    2e88: 91 12        	sta	($12),y                 ; 0x12 <__rc2>
    2e8a: a4 12        	ldy	$12                     ; 0x12 <__rc2>
    2e8c: 84 14        	sty	$14                     ; 0x14 <__rc4>
    2e8e: 86 15        	stx	$15                     ; 0x15 <__rc5>
    2e90: a6 12        	ldx	$12                     ; 0x12 <__rc2>
    2e92: 86 b1        	stx	$b1                     ; 0xb1 <__zp_data_size+0x77>
    2e94: a6 13        	ldx	$13                     ; 0x13 <__rc3>
    2e96: 86 b2        	stx	$b2                     ; 0xb2 <__zp_data_size+0x78>
    2e98: 18           	clc
    2e99: a5 17        	lda	$17                     ; 0x17 <__rc7>
    2e9b: 69 0b        	adc	#$b
    2e9d: 85 12        	sta	$12                     ; 0x12 <__rc2>
    2e9f: a5 16        	lda	$16                     ; 0x16 <__rc6>
    2ea1: 69 00        	adc	#$0
    2ea3: a0 0b        	ldy	#$b
    2ea5: 85 13        	sta	$13                     ; 0x13 <__rc3>
    2ea7: a5 ad        	lda	$ad                     ; 0xad <__zp_data_size+0x73>
    2ea9: 91 14        	sta	($14),y                 ; 0x14 <__rc4>
    2eab: a5 ae        	lda	$ae                     ; 0xae <__zp_data_size+0x74>
    2ead: a0 01        	ldy	#$1
    2eaf: 91 12        	sta	($12),y                 ; 0x12 <__rc2>
    2eb1: a6 ad        	ldx	$ad                     ; 0xad <__zp_data_size+0x73>
    2eb3: 86 12        	stx	$12                     ; 0x12 <__rc2>
    2eb5: a6 ae        	ldx	$ae                     ; 0xae <__zp_data_size+0x74>
    2eb7: 86 13        	stx	$13                     ; 0x13 <__rc3>
    2eb9: 20 e6 4a     	jsr	$4ae6 <strlen>
    2ebc: a0 0d        	ldy	#$d
    2ebe: a6 b1        	ldx	$b1                     ; 0xb1 <__zp_data_size+0x77>
    2ec0: 86 12        	stx	$12                     ; 0x12 <__rc2>
    2ec2: a6 b2        	ldx	$b2                     ; 0xb2 <__zp_data_size+0x78>
    2ec4: 86 13        	stx	$13                     ; 0x13 <__rc3>
    2ec6: 91 12        	sta	($12),y                 ; 0x12 <__rc2>
    2ec8: a2 af        	ldx	#$af
    2eca: a0 00        	ldy	#$0
    2ecc: 86 12        	stx	$12                     ; 0x12 <__rc2>
    2ece: 84 13        	sty	$13                     ; 0x13 <__rc3>
    2ed0: a2 73        	ldx	#$73
    2ed2: 86 14        	stx	$14                     ; 0x14 <__rc4>
    2ed4: a2 00        	ldx	#$0
    2ed6: 86 15        	stx	$15                     ; 0x15 <__rc5>
    2ed8: 20 78 ff     	jsr	$ff78 <end_block9+0x9cd2>
    2edb: 92 12        	sta	($12)                   ; 0x12 <__rc2>
    2edd: a9 00        	lda	#$0
    2edf: 6a           	ror
    2ee0: 85 14        	sta	$14                     ; 0x14 <__rc4>
    2ee2: a6 73        	ldx	$73                     ; 0x73 <kernelError>
    2ee4: f0 09        	beq	$2eef <fileOpenDir+0xc9>
    2ee6: a2 00        	ldx	#$0
    2ee8: 86 12        	stx	$12                     ; 0x12 <__rc2>
    2eea: a2 00        	ldx	#$0
    2eec: 86 13        	stx	$13                     ; 0x13 <__rc3>
    2eee: 60           	rts
    2eef: a9 8c        	lda	#$8c
    2ef1: a6 b3        	ldx	$b3                     ; 0xb3 <__zp_data_size+0x79>
    2ef3: 86 18        	stx	$18                     ; 0x18 <__rc8>
    2ef5: 86 12        	stx	$12                     ; 0x12 <__rc2>
    2ef7: 18           	clc
    2ef8: 65 12        	adc	$12                     ; 0x12 <__rc2>
    2efa: 85 12        	sta	$12                     ; 0x12 <__rc2>
    2efc: a9 00        	lda	#$0
    2efe: 69 00        	adc	#$0
    2f00: 85 13        	sta	$13                     ; 0x13 <__rc3>
    2f02: a6 af        	ldx	$af                     ; 0xaf <__zp_data_size+0x75>
    2f04: 86 19        	stx	$19                     ; 0x19 <__rc9>
    2f06: a2 b0        	ldx	#$b0
    2f08: a0 00        	ldy	#$0
    2f0a: 86 16        	stx	$16                     ; 0x16 <__rc6>
    2f0c: 84 17        	sty	$17                     ; 0x17 <__rc7>
    2f0e: 64 6c        	stz	$6c                     ; 0x6c <kernelEventData>
    2f10: 20 00 ff     	jsr	$ff00 <end_block9+0x9c5a>
    2f13: 92 16        	sta	($16)                   ; 0x16 <__rc6>
    2f15: a9 00        	lda	#$0
    2f17: 6a           	ror
    2f18: 85 14        	sta	$14                     ; 0x14 <__rc4>
    2f1a: a6 6c        	ldx	$6c                     ; 0x6c <kernelEventData>
    2f1c: e0 48        	cpx	#$48
    2f1e: f0 c6        	beq	$2ee6 <fileOpenDir+0xc0>
    2f20: e0 3c        	cpx	#$3c
    2f22: d0 ea        	bne	$2f0e <fileOpenDir+0xe8>
    2f24: a6 18        	ldx	$18                     ; 0x18 <__rc8>
    2f26: a5 19        	lda	$19                     ; 0x19 <__rc9>
    2f28: 9d 8c 00     	sta	$8c,x                   ; 0x8c <_dirStream>
    2f2b: 60           	rts

00002f2c <textGotoXY>:
    2f2c: 85 74        	sta	$74                     ; 0x74 <_col>
    2f2e: 8d 14 d0     	sta	$d014                   ; 0xd014 <end_block9+0x6d6e>
    2f31: 9c 15 d0     	stz	$d015                   ; 0xd015 <end_block9+0x6d6f>
    2f34: 86 75        	stx	$75                     ; 0x75 <_row>
    2f36: 8e 16 d0     	stx	$d016                   ; 0xd016 <end_block9+0x6d70>
    2f39: 9c 17 d0     	stz	$d017                   ; 0xd017 <end_block9+0x6d71>
    2f3c: 60           	rts

00002f3d <textPrint>:
    2f3d: a6 12        	ldx	$12                     ; 0x12 <__rc2>
    2f3f: 86 9d        	stx	$9d                     ; 0x9d <__zp_data_size+0x63>
    2f41: a6 13        	ldx	$13                     ; 0x13 <__rc3>
    2f43: 86 9e        	stx	$9e                     ; 0x9e <__zp_data_size+0x64>
    2f45: a2 00        	ldx	#$0
    2f47: 86 9f        	stx	$9f                     ; 0x9f <__zp_data_size+0x65>
    2f49: a2 c0        	ldx	#$c0
    2f4b: 86 a0        	stx	$a0                     ; 0xa0 <__zp_data_size+0x66>
    2f4d: a6 01        	ldx	$1                      ; 0x1 <__data_size+0x1>
    2f4f: 86 a4        	stx	$a4                     ; 0xa4 <__zp_data_size+0x6a>
    2f51: a6 63        	ldx	$63                     ; 0x63 <_MAX_COL>
    2f53: a4 75        	ldy	$75                     ; 0x75 <_row>
    2f55: 8e 00 de     	stx	$de00                   ; 0xde00 <end_block9+0x7b5a>
    2f58: 9c 01 de     	stz	$de01                   ; 0xde01 <end_block9+0x7b5b>
    2f5b: 8c 02 de     	sty	$de02                   ; 0xde02 <end_block9+0x7b5c>
    2f5e: 9c 03 de     	stz	$de03                   ; 0xde03 <end_block9+0x7b5d>
    2f61: ae 10 de     	ldx	$de10                   ; 0xde10 <end_block9+0x7b6a>
    2f64: 86 12        	stx	$12                     ; 0x12 <__rc2>
    2f66: ac 11 de     	ldy	$de11                   ; 0xde11 <end_block9+0x7b6b>
    2f69: ad 12 de     	lda	$de12                   ; 0xde12 <end_block9+0x7b6c>
    2f6c: ae 13 de     	ldx	$de13                   ; 0xde13 <end_block9+0x7b6d>
    2f6f: 86 13        	stx	$13                     ; 0x13 <__rc3>
    2f71: 9c 08 de     	stz	$de08                   ; 0xde08 <end_block9+0x7b62>
    2f74: a2 c0        	ldx	#$c0
    2f76: 8e 09 de     	stx	$de09                   ; 0xde09 <end_block9+0x7b63>
    2f79: 9c 0a de     	stz	$de0a                   ; 0xde0a <end_block9+0x7b64>
    2f7c: 9c 0b de     	stz	$de0b                   ; 0xde0b <end_block9+0x7b65>
    2f7f: a6 12        	ldx	$12                     ; 0x12 <__rc2>
    2f81: 8e 0c de     	stx	$de0c                   ; 0xde0c <end_block9+0x7b66>
    2f84: 8c 0d de     	sty	$de0d                   ; 0xde0d <end_block9+0x7b67>
    2f87: 8d 0e de     	sta	$de0e                   ; 0xde0e <end_block9+0x7b68>
    2f8a: a6 13        	ldx	$13                     ; 0x13 <__rc3>
    2f8c: 8e 0f de     	stx	$de0f                   ; 0xde0f <end_block9+0x7b69>
    2f8f: ae 18 de     	ldx	$de18                   ; 0xde18 <end_block9+0x7b72>
    2f92: ac 19 de     	ldy	$de19                   ; 0xde19 <end_block9+0x7b73>
    2f95: ad 1a de     	lda	$de1a                   ; 0xde1a <end_block9+0x7b74>
    2f98: ad 1b de     	lda	$de1b                   ; 0xde1b <end_block9+0x7b75>
    2f9b: 86 12        	stx	$12                     ; 0x12 <__rc2>
    2f9d: 84 13        	sty	$13                     ; 0x13 <__rc3>
    2f9f: 64 a1        	stz	$a1                     ; 0xa1 <__zp_data_size+0x67>
    2fa1: 64 a2        	stz	$a2                     ; 0xa2 <__zp_data_size+0x68>
    2fa3: 80 00        	bra	$2fa5 <textPrint+0x68>
    2fa5: a5 9d        	lda	$9d                     ; 0x9d <__zp_data_size+0x63>
    2fa7: 18           	clc
    2fa8: 65 a1        	adc	$a1                     ; 0xa1 <__zp_data_size+0x67>
    2faa: 85 14        	sta	$14                     ; 0x14 <__rc4>
    2fac: a5 9e        	lda	$9e                     ; 0x9e <__zp_data_size+0x64>
    2fae: 65 a2        	adc	$a2                     ; 0xa2 <__zp_data_size+0x68>
    2fb0: 85 15        	sta	$15                     ; 0x15 <__rc5>
    2fb2: b2 14        	lda	($14)                   ; 0x14 <__rc4>
    2fb4: c9 0a        	cmp	#$a
    2fb6: f0 29        	beq	$2fe1 <textPrint+0xa4>
    2fb8: c9 0d        	cmp	#$d
    2fba: f0 25        	beq	$2fe1 <textPrint+0xa4>
    2fbc: aa           	tax
    2fbd: d0 03        	bne	$2fc2 <textPrint+0x85>
    2fbf: 4c 80 31     	jmp	$3180 <textPrint+0x243>
    2fc2: a2 03        	ldx	#$3
    2fc4: 86 01        	stx	$1                      ; 0x1 <__data_size+0x1>
    2fc6: a5 65        	lda	$65                     ; 0x65 <_ccolor>
    2fc8: a4 74        	ldy	$74                     ; 0x74 <_col>
    2fca: 91 12        	sta	($12),y                 ; 0x12 <__rc2>
    2fcc: ca           	dex
    2fcd: 86 01        	stx	$1                      ; 0x1 <__data_size+0x1>
    2fcf: b2 14        	lda	($14)                   ; 0x14 <__rc4>
    2fd1: a4 74        	ldy	$74                     ; 0x74 <_col>
    2fd3: 91 12        	sta	($12),y                 ; 0x12 <__rc2>
    2fd5: a6 74        	ldx	$74                     ; 0x74 <_col>
    2fd7: e8           	inx
    2fd8: e6 74        	inc	$74                     ; 0x74 <_col>
    2fda: e4 63        	cpx	$63                     ; 0x63 <_MAX_COL>
    2fdc: f0 03        	beq	$2fe1 <textPrint+0xa4>
    2fde: 4c b2 30     	jmp	$30b2 <textPrint+0x175>
    2fe1: 64 74        	stz	$74                     ; 0x74 <_col>
    2fe3: a6 75        	ldx	$75                     ; 0x75 <_row>
    2fe5: e8           	inx
    2fe6: e6 75        	inc	$75                     ; 0x75 <_row>
    2fe8: a4 64        	ldy	$64                     ; 0x64 <_MAX_ROW>
    2fea: 84 a3        	sty	$a3                     ; 0xa3 <__zp_data_size+0x69>
    2fec: e4 a3        	cpx	$a3                     ; 0xa3 <__zp_data_size+0x69>
    2fee: f0 03        	beq	$2ff3 <textPrint+0xb6>
    2ff0: 4c a5 30     	jmp	$30a5 <textPrint+0x168>
    2ff3: a6 63        	ldx	$63                     ; 0x63 <_MAX_COL>
    2ff5: 86 a7        	stx	$a7                     ; 0xa7 <__zp_data_size+0x6d>
    2ff7: 98           	tya
    2ff8: a2 00        	ldx	#$0
    2ffa: 3a           	dec
    2ffb: c9 ff        	cmp	#$ff
    2ffd: d0 01        	bne	$3000 <textPrint+0xc3>
    2fff: ca           	dex
    3000: a4 a7        	ldy	$a7                     ; 0xa7 <__zp_data_size+0x6d>
    3002: 84 12        	sty	$12                     ; 0x12 <__rc2>
    3004: 64 13        	stz	$13                     ; 0x13 <__rc3>
    3006: 20 ef 4b     	jsr	$4bef <__mulhi3>
    3009: 85 a5        	sta	$a5                     ; 0xa5 <__zp_data_size+0x6b>
    300b: 86 a6        	stx	$a6                     ; 0xa6 <__zp_data_size+0x6c>
    300d: a2 03        	ldx	#$3
    300f: 86 01        	stx	$1                      ; 0x1 <__data_size+0x1>
    3011: 38           	sec
    3012: a9 01        	lda	#$1
    3014: e5 a3        	sbc	$a3                     ; 0xa3 <__zp_data_size+0x69>
    3016: a8           	tay
    3017: 64 a3        	stz	$a3                     ; 0xa3 <__zp_data_size+0x69>
    3019: a9 00        	lda	#$0
    301b: e9 00        	sbc	#$0
    301d: a6 a7        	ldx	$a7                     ; 0xa7 <__zp_data_size+0x6d>
    301f: 86 12        	stx	$12                     ; 0x12 <__rc2>
    3021: 64 13        	stz	$13                     ; 0x13 <__rc3>
    3023: aa           	tax
    3024: 98           	tya
    3025: 20 ef 4b     	jsr	$4bef <__mulhi3>
    3028: 85 1a        	sta	$1a                     ; 0x1a <__rc10>
    302a: a9 00        	lda	#$0
    302c: 80 1d        	bra	$304b <textPrint+0x10e>
    302e: 64 14        	stz	$14                     ; 0x14 <__rc4>
    3030: 64 15        	stz	$15                     ; 0x15 <__rc5>
    3032: a0 02        	ldy	#$2
    3034: 84 01        	sty	$1                      ; 0x1 <__data_size+0x1>
    3036: a5 12        	lda	$12                     ; 0x12 <__rc2>
    3038: e6 a3        	inc	$a3                     ; 0xa3 <__zp_data_size+0x69>
    303a: d0 01        	bne	$303d <textPrint+0x100>
    303c: 1a           	inc
    303d: a4 12        	ldy	$12                     ; 0x12 <__rc2>
    303f: f0 03        	beq	$3044 <textPrint+0x107>
    3041: 4c be 30     	jmp	$30be <textPrint+0x181>
    3044: a4 13        	ldy	$13                     ; 0x13 <__rc3>
    3046: f0 03        	beq	$304b <textPrint+0x10e>
    3048: 4c be 30     	jmp	$30be <textPrint+0x181>
    304b: 85 12        	sta	$12                     ; 0x12 <__rc2>
    304d: a4 a3        	ldy	$a3                     ; 0xa3 <__zp_data_size+0x69>
    304f: 84 13        	sty	$13                     ; 0x13 <__rc3>
    3051: a4 a5        	ldy	$a5                     ; 0xa5 <__zp_data_size+0x6b>
    3053: c0 01        	cpy	#$1
    3055: a5 a6        	lda	$a6                     ; 0xa6 <__zp_data_size+0x6c>
    3057: e9 00        	sbc	#$0
    3059: 50 02        	bvc	$305d <textPrint+0x120>
    305b: 49 80        	eor	#$80
    305d: a8           	tay
    305e: 30 ce        	bmi	$302e <textPrint+0xf1>
    3060: 64 15        	stz	$15                     ; 0x15 <__rc5>
    3062: a0 00        	ldy	#$0
    3064: 84 18        	sty	$18                     ; 0x18 <__rc8>
    3066: a0 c0        	ldy	#$c0
    3068: 84 19        	sty	$19                     ; 0x19 <__rc9>
    306a: 64 17        	stz	$17                     ; 0x17 <__rc7>
    306c: a4 17        	ldy	$17                     ; 0x17 <__rc7>
    306e: 84 14        	sty	$14                     ; 0x14 <__rc4>
    3070: a4 15        	ldy	$15                     ; 0x15 <__rc5>
    3072: 84 16        	sty	$16                     ; 0x16 <__rc6>
    3074: a4 63        	ldy	$63                     ; 0x63 <_MAX_COL>
    3076: b1 18        	lda	($18),y                 ; 0x18 <__rc8>
    3078: 92 18        	sta	($18)                   ; 0x18 <__rc8>
    307a: a0 ff        	ldy	#$ff
    307c: c6 15        	dec	$15                     ; 0x15 <__rc5>
    307e: c4 15        	cpy	$15                     ; 0x15 <__rc5>
    3080: d0 02        	bne	$3084 <textPrint+0x147>
    3082: c6 17        	dec	$17                     ; 0x17 <__rc7>
    3084: e6 18        	inc	$18                     ; 0x18 <__rc8>
    3086: d0 02        	bne	$308a <textPrint+0x14d>
    3088: e6 19        	inc	$19                     ; 0x19 <__rc9>
    308a: e4 17        	cpx	$17                     ; 0x17 <__rc7>
    308c: d0 de        	bne	$306c <textPrint+0x12f>
    308e: a4 1a        	ldy	$1a                     ; 0x1a <__rc10>
    3090: c4 15        	cpy	$15                     ; 0x15 <__rc5>
    3092: d0 d8        	bne	$306c <textPrint+0x12f>
    3094: 38           	sec
    3095: a9 01        	lda	#$1
    3097: e5 16        	sbc	$16                     ; 0x16 <__rc6>
    3099: a8           	tay
    309a: a9 00        	lda	#$0
    309c: e5 14        	sbc	$14                     ; 0x14 <__rc4>
    309e: 84 14        	sty	$14                     ; 0x14 <__rc4>
    30a0: 85 15        	sta	$15                     ; 0x15 <__rc5>
    30a2: 4c 32 30     	jmp	$3032 <textPrint+0xf5>
    30a5: a5 12        	lda	$12                     ; 0x12 <__rc2>
    30a7: 18           	clc
    30a8: 65 63        	adc	$63                     ; 0x63 <_MAX_COL>
    30aa: 85 12        	sta	$12                     ; 0x12 <__rc2>
    30ac: a5 13        	lda	$13                     ; 0x13 <__rc3>
    30ae: 69 00        	adc	#$0
    30b0: 85 13        	sta	$13                     ; 0x13 <__rc3>
    30b2: e6 a1        	inc	$a1                     ; 0xa1 <__zp_data_size+0x67>
    30b4: f0 03        	beq	$30b9 <textPrint+0x17c>
    30b6: 4c a5 2f     	jmp	$2fa5 <textPrint+0x68>
    30b9: e6 a2        	inc	$a2                     ; 0xa2 <__zp_data_size+0x68>
    30bb: 4c a5 2f     	jmp	$2fa5 <textPrint+0x68>
    30be: a9 00        	lda	#$0
    30c0: 18           	clc
    30c1: 65 14        	adc	$14                     ; 0x14 <__rc4>
    30c3: 85 12        	sta	$12                     ; 0x12 <__rc2>
    30c5: a9 c0        	lda	#$c0
    30c7: 65 15        	adc	$15                     ; 0x15 <__rc5>
    30c9: 85 13        	sta	$13                     ; 0x13 <__rc3>
    30cb: a2 03        	ldx	#$3
    30cd: 86 01        	stx	$1                      ; 0x1 <__data_size+0x1>
    30cf: a6 63        	ldx	$63                     ; 0x63 <_MAX_COL>
    30d1: f0 37        	beq	$310a <textPrint+0x1cd>
    30d3: a9 01        	lda	#$1
    30d5: 18           	clc
    30d6: 65 14        	adc	$14                     ; 0x14 <__rc4>
    30d8: 85 17        	sta	$17                     ; 0x17 <__rc7>
    30da: a9 c0        	lda	#$c0
    30dc: 65 15        	adc	$15                     ; 0x15 <__rc5>
    30de: a8           	tay
    30df: 64 16        	stz	$16                     ; 0x16 <__rc6>
    30e1: a6 12        	ldx	$12                     ; 0x12 <__rc2>
    30e3: 86 18        	stx	$18                     ; 0x18 <__rc8>
    30e5: a6 13        	ldx	$13                     ; 0x13 <__rc3>
    30e7: 86 19        	stx	$19                     ; 0x19 <__rc9>
    30e9: a5 17        	lda	$17                     ; 0x17 <__rc7>
    30eb: 18           	clc
    30ec: 65 16        	adc	$16                     ; 0x16 <__rc6>
    30ee: 85 1a        	sta	$1a                     ; 0x1a <__rc10>
    30f0: 98           	tya
    30f1: 69 00        	adc	#$0
    30f3: 85 1b        	sta	$1b                     ; 0x1b <__rc11>
    30f5: a5 65        	lda	$65                     ; 0x65 <_ccolor>
    30f7: 92 18        	sta	($18)                   ; 0x18 <__rc8>
    30f9: a6 16        	ldx	$16                     ; 0x16 <__rc6>
    30fb: e8           	inx
    30fc: 86 16        	stx	$16                     ; 0x16 <__rc6>
    30fe: e4 63        	cpx	$63                     ; 0x63 <_MAX_COL>
    3100: a6 1a        	ldx	$1a                     ; 0x1a <__rc10>
    3102: 86 18        	stx	$18                     ; 0x18 <__rc8>
    3104: a6 1b        	ldx	$1b                     ; 0x1b <__rc11>
    3106: 86 19        	stx	$19                     ; 0x19 <__rc9>
    3108: 90 df        	bcc	$30e9 <textPrint+0x1ac>
    310a: a2 02        	ldx	#$2
    310c: 86 01        	stx	$1                      ; 0x1 <__data_size+0x1>
    310e: a6 63        	ldx	$63                     ; 0x63 <_MAX_COL>
    3110: f0 2f        	beq	$3141 <textPrint+0x204>
    3112: a9 01        	lda	#$1
    3114: 18           	clc
    3115: 65 14        	adc	$14                     ; 0x14 <__rc4>
    3117: 85 18        	sta	$18                     ; 0x18 <__rc8>
    3119: a9 c0        	lda	#$c0
    311b: 65 15        	adc	$15                     ; 0x15 <__rc5>
    311d: a8           	tay
    311e: 64 14        	stz	$14                     ; 0x14 <__rc4>
    3120: a5 18        	lda	$18                     ; 0x18 <__rc8>
    3122: 18           	clc
    3123: 65 14        	adc	$14                     ; 0x14 <__rc4>
    3125: 85 16        	sta	$16                     ; 0x16 <__rc6>
    3127: 98           	tya
    3128: 69 00        	adc	#$0
    312a: 85 17        	sta	$17                     ; 0x17 <__rc7>
    312c: a9 20        	lda	#$20
    312e: 92 12        	sta	($12)                   ; 0x12 <__rc2>
    3130: a6 14        	ldx	$14                     ; 0x14 <__rc4>
    3132: e8           	inx
    3133: 86 14        	stx	$14                     ; 0x14 <__rc4>
    3135: e4 63        	cpx	$63                     ; 0x63 <_MAX_COL>
    3137: a6 16        	ldx	$16                     ; 0x16 <__rc6>
    3139: 86 12        	stx	$12                     ; 0x12 <__rc2>
    313b: a6 17        	ldx	$17                     ; 0x17 <__rc7>
    313d: 86 13        	stx	$13                     ; 0x13 <__rc3>
    313f: 90 df        	bcc	$3120 <textPrint+0x1e3>
    3141: c6 75        	dec	$75                     ; 0x75 <_row>
    3143: a6 64        	ldx	$64                     ; 0x64 <_MAX_ROW>
    3145: a0 00        	ldy	#$0
    3147: ca           	dex
    3148: e0 ff        	cpx	#$ff
    314a: d0 01        	bne	$314d <textPrint+0x210>
    314c: 88           	dey
    314d: 9c 08 de     	stz	$de08                   ; 0xde08 <end_block9+0x7b62>
    3150: a9 c0        	lda	#$c0
    3152: 8d 09 de     	sta	$de09                   ; 0xde09 <end_block9+0x7b63>
    3155: 9c 0a de     	stz	$de0a                   ; 0xde0a <end_block9+0x7b64>
    3158: 9c 0b de     	stz	$de0b                   ; 0xde0b <end_block9+0x7b65>
    315b: 8e 0c de     	stx	$de0c                   ; 0xde0c <end_block9+0x7b66>
    315e: 8c 0d de     	sty	$de0d                   ; 0xde0d <end_block9+0x7b67>
    3161: 9c 0e de     	stz	$de0e                   ; 0xde0e <end_block9+0x7b68>
    3164: 9c 0f de     	stz	$de0f                   ; 0xde0f <end_block9+0x7b69>
    3167: ae 18 de     	ldx	$de18                   ; 0xde18 <end_block9+0x7b72>
    316a: ac 19 de     	ldy	$de19                   ; 0xde19 <end_block9+0x7b73>
    316d: ad 1a de     	lda	$de1a                   ; 0xde1a <end_block9+0x7b74>
    3170: ad 1b de     	lda	$de1b                   ; 0xde1b <end_block9+0x7b75>
    3173: 86 12        	stx	$12                     ; 0x12 <__rc2>
    3175: 84 13        	sty	$13                     ; 0x13 <__rc3>
    3177: e6 a1        	inc	$a1                     ; 0xa1 <__zp_data_size+0x67>
    3179: d0 02        	bne	$317d <textPrint+0x240>
    317b: e6 a2        	inc	$a2                     ; 0xa2 <__zp_data_size+0x68>
    317d: 4c a5 2f     	jmp	$2fa5 <textPrint+0x68>
    3180: a6 a4        	ldx	$a4                     ; 0xa4 <__zp_data_size+0x6a>
    3182: 86 01        	stx	$1                      ; 0x1 <__data_size+0x1>
    3184: a6 74        	ldx	$74                     ; 0x74 <_col>
    3186: a4 75        	ldy	$75                     ; 0x75 <_row>
    3188: 8e 14 d0     	stx	$d014                   ; 0xd014 <end_block9+0x6d6e>
    318b: 9c 15 d0     	stz	$d015                   ; 0xd015 <end_block9+0x6d6f>
    318e: 84 75        	sty	$75                     ; 0x75 <_row>
    3190: 8c 16 d0     	sty	$d016                   ; 0xd016 <end_block9+0x6d70>
    3193: 9c 17 d0     	stz	$d017                   ; 0xd017 <end_block9+0x6d71>
    3196: 60           	rts

00003197 <textSetColor>:
    3197: 86 12        	stx	$12                     ; 0x12 <__rc2>
    3199: 0a           	asl
    319a: 0a           	asl
    319b: 0a           	asl
    319c: 0a           	asl
    319d: 18           	clc
    319e: 65 12        	adc	$12                     ; 0x12 <__rc2>
    31a0: 85 65        	sta	$65                     ; 0x65 <_ccolor>
    31a2: 60           	rts

000031a3 <fileCloseDir>:
    31a3: a2 00        	ldx	#$0
    31a5: 86 14        	stx	$14                     ; 0x14 <__rc4>
    31a7: a2 00        	ldx	#$0
    31a9: 86 15        	stx	$15                     ; 0x15 <__rc5>
    31ab: a6 13        	ldx	$13                     ; 0x13 <__rc3>
    31ad: e4 15        	cpx	$15                     ; 0x15 <__rc5>
    31af: d0 09        	bne	$31ba <fileCloseDir+0x17>
    31b1: a6 12        	ldx	$12                     ; 0x12 <__rc2>
    31b3: e4 14        	cpx	$14                     ; 0x14 <__rc4>
    31b5: d0 03        	bne	$31ba <fileCloseDir+0x17>
    31b7: a9 ff        	lda	#$ff
    31b9: 60           	rts
    31ba: a2 ae        	ldx	#$ae
    31bc: a0 00        	ldy	#$0
    31be: 86 14        	stx	$14                     ; 0x14 <__rc4>
    31c0: 84 15        	sty	$15                     ; 0x15 <__rc5>
    31c2: a2 73        	ldx	#$73
    31c4: 86 16        	stx	$16                     ; 0x16 <__rc6>
    31c6: a2 00        	ldx	#$0
    31c8: 86 17        	stx	$17                     ; 0x17 <__rc7>
    31ca: b2 12        	lda	($12)                   ; 0x12 <__rc2>
    31cc: f0 26        	beq	$31f4 <fileCloseDir+0x51>
    31ce: a6 6a        	ldx	$6a                     ; 0x6a <kernelArgs>
    31d0: a4 6b        	ldy	$6b                     ; 0x6b <kernelArgs+0x1>
    31d2: 86 18        	stx	$18                     ; 0x18 <__rc8>
    31d4: 84 19        	sty	$19                     ; 0x19 <__rc9>
    31d6: a0 03        	ldy	#$3
    31d8: 91 18        	sta	($18),y                 ; 0x18 <__rc8>
    31da: a2 ad        	ldx	#$ad
    31dc: 86 18        	stx	$18                     ; 0x18 <__rc8>
    31de: a2 00        	ldx	#$0
    31e0: 86 19        	stx	$19                     ; 0x19 <__rc9>
    31e2: 20 80 ff     	jsr	$ff80 <end_block9+0x9cda>
    31e5: 92 18        	sta	($18)                   ; 0x18 <__rc8>
    31e7: a9 00        	lda	#$0
    31e9: 6a           	ror
    31ea: 85 16        	sta	$16                     ; 0x16 <__rc6>
    31ec: a6 73        	ldx	$73                     ; 0x73 <kernelError>
    31ee: d0 04        	bne	$31f4 <fileCloseDir+0x51>
    31f0: a9 00        	lda	#$0
    31f2: 92 12        	sta	($12)                   ; 0x12 <__rc2>
    31f4: 64 6c        	stz	$6c                     ; 0x6c <kernelEventData>
    31f6: 20 00 ff     	jsr	$ff00 <end_block9+0x9c5a>
    31f9: 92 14        	sta	($14)                   ; 0x14 <__rc4>
    31fb: a9 00        	lda	#$0
    31fd: 6a           	ror
    31fe: 85 16        	sta	$16                     ; 0x16 <__rc6>
    3200: a6 6c        	ldx	$6c                     ; 0x6c <kernelEventData>
    3202: e0 46        	cpx	#$46
    3204: d0 c4        	bne	$31ca <fileCloseDir+0x27>
    3206: a9 00        	lda	#$0
    3208: 60           	rts

00003209 <fileReadDir>:
    3209: a6 12        	ldx	$12                     ; 0x12 <__rc2>
    320b: 86 14        	stx	$14                     ; 0x14 <__rc4>
    320d: a6 13        	ldx	$13                     ; 0x13 <__rc3>
    320f: 86 15        	stx	$15                     ; 0x15 <__rc5>
    3211: a2 00        	ldx	#$0
    3213: 86 12        	stx	$12                     ; 0x12 <__rc2>
    3215: a2 00        	ldx	#$0
    3217: 86 13        	stx	$13                     ; 0x13 <__rc3>
    3219: a6 15        	ldx	$15                     ; 0x15 <__rc5>
    321b: e4 13        	cpx	$13                     ; 0x13 <__rc3>
    321d: d0 06        	bne	$3225 <fileReadDir+0x1c>
    321f: a6 14        	ldx	$14                     ; 0x14 <__rc4>
    3221: e4 12        	cpx	$12                     ; 0x12 <__rc2>
    3223: f0 2c        	beq	$3251 <fileReadDir+0x48>
    3225: b2 14        	lda	($14)                   ; 0x14 <__rc4>
    3227: a6 6a        	ldx	$6a                     ; 0x6a <kernelArgs>
    3229: a4 6b        	ldy	$6b                     ; 0x6b <kernelArgs+0x1>
    322b: 86 16        	stx	$16                     ; 0x16 <__rc6>
    322d: 84 17        	sty	$17                     ; 0x17 <__rc7>
    322f: a0 03        	ldy	#$3
    3231: 91 16        	sta	($16),y                 ; 0x16 <__rc6>
    3233: a2 ad        	ldx	#$ad
    3235: a9 00        	lda	#$0
    3237: 86 18        	stx	$18                     ; 0x18 <__rc8>
    3239: 85 19        	sta	$19                     ; 0x19 <__rc9>
    323b: a2 73        	ldx	#$73
    323d: 86 16        	stx	$16                     ; 0x16 <__rc6>
    323f: a2 00        	ldx	#$0
    3241: 86 17        	stx	$17                     ; 0x17 <__rc7>
    3243: 20 7c ff     	jsr	$ff7c <end_block9+0x9cd6>
    3246: 92 18        	sta	($18)                   ; 0x18 <__rc8>
    3248: a9 00        	lda	#$0
    324a: 6a           	ror
    324b: 85 16        	sta	$16                     ; 0x16 <__rc6>
    324d: a6 73        	ldx	$73                     ; 0x73 <kernelError>
    324f: f0 01        	beq	$3252 <fileReadDir+0x49>
    3251: 60           	rts
    3252: a2 ae        	ldx	#$ae
    3254: a9 00        	lda	#$0
    3256: 86 18        	stx	$18                     ; 0x18 <__rc8>
    3258: 85 19        	sta	$19                     ; 0x19 <__rc9>
    325a: 80 24        	bra	$3280 <fileReadDir+0x77>
    325c: b2 14        	lda	($14)                   ; 0x14 <__rc4>
    325e: a6 6a        	ldx	$6a                     ; 0x6a <kernelArgs>
    3260: a4 6b        	ldy	$6b                     ; 0x6b <kernelArgs+0x1>
    3262: 86 1a        	stx	$1a                     ; 0x1a <__rc10>
    3264: 84 1b        	sty	$1b                     ; 0x1b <__rc11>
    3266: a0 03        	ldy	#$3
    3268: 91 1a        	sta	($1a),y                 ; 0x1a <__rc10>
    326a: a2 b0        	ldx	#$b0
    326c: 86 1a        	stx	$1a                     ; 0x1a <__rc10>
    326e: a2 00        	ldx	#$0
    3270: 86 1b        	stx	$1b                     ; 0x1b <__rc11>
    3272: 20 7c ff     	jsr	$ff7c <end_block9+0x9cd6>
    3275: 92 1a        	sta	($1a)                   ; 0x1a <__rc10>
    3277: a9 00        	lda	#$0
    3279: 6a           	ror
    327a: 85 16        	sta	$16                     ; 0x16 <__rc6>
    327c: a6 73        	ldx	$73                     ; 0x73 <kernelError>
    327e: d0 d1        	bne	$3251 <fileReadDir+0x48>
    3280: 64 6c        	stz	$6c                     ; 0x6c <kernelEventData>
    3282: 20 00 ff     	jsr	$ff00 <end_block9+0x9c5a>
    3285: 92 18        	sta	($18)                   ; 0x18 <__rc8>
    3287: a9 00        	lda	#$0
    3289: 6a           	ror
    328a: 85 16        	sta	$16                     ; 0x16 <__rc6>
    328c: a9 c2        	lda	#$c2
    328e: 18           	clc
    328f: 65 6c        	adc	$6c                     ; 0x6c <kernelEventData>
    3291: c9 0b        	cmp	#$b
    3293: b0 eb        	bcs	$3280 <fileReadDir+0x77>
    3295: 0a           	asl
    3296: aa           	tax
    3297: 7c 39 4d     	jmp	($4d39,x)               ; 0x4d39 <__BLOCK_SIZE+0x2d39>
    329a: 9c 48 4f     	stz	$4f48                   ; 0x4f48 <fileReadDir.fileDirEntS>
    329d: a2 02        	ldx	#$2
    329f: 80 4c        	bra	$32ed <fileReadDir+0xe4>
    32a1: a5 6a        	lda	$6a                     ; 0x6a <kernelArgs>
    32a3: a6 6b        	ldx	$6b                     ; 0x6b <kernelArgs+0x1>
    32a5: 85 12        	sta	$12                     ; 0x12 <__rc2>
    32a7: 86 13        	stx	$13                     ; 0x13 <__rc3>
    32a9: a0 0b        	ldy	#$b
    32ab: 18           	clc
    32ac: 69 0b        	adc	#$b
    32ae: 85 14        	sta	$14                     ; 0x14 <__rc4>
    32b0: 8a           	txa
    32b1: 69 00        	adc	#$0
    32b3: 85 15        	sta	$15                     ; 0x15 <__rc5>
    32b5: a9 48        	lda	#$48
    32b7: 91 12        	sta	($12),y                 ; 0x12 <__rc2>
    32b9: a0 01        	ldy	#$1
    32bb: a9 4f        	lda	#$4f
    32bd: a2 01        	ldx	#$1
    32bf: 86 b2        	stx	$b2                     ; 0xb2 <__zp_data_size+0x78>
    32c1: 91 14        	sta	($14),y                 ; 0x14 <__rc4>
    32c3: 98           	tya
    32c4: a0 0d        	ldy	#$d
    32c6: 91 12        	sta	($12),y                 ; 0x12 <__rc2>
    32c8: a2 af        	ldx	#$af
    32ca: a9 00        	lda	#$0
    32cc: 86 12        	stx	$12                     ; 0x12 <__rc2>
    32ce: 85 13        	sta	$13                     ; 0x13 <__rc3>
    32d0: a2 73        	ldx	#$73
    32d2: 86 14        	stx	$14                     ; 0x14 <__rc4>
    32d4: a2 00        	ldx	#$0
    32d6: 86 15        	stx	$15                     ; 0x15 <__rc5>
    32d8: 20 08 ff     	jsr	$ff08 <end_block9+0x9c62>
    32db: 92 12        	sta	($12)                   ; 0x12 <__rc2>
    32dd: a9 00        	lda	#$0
    32df: 6a           	ror
    32e0: 85 14        	sta	$14                     ; 0x14 <__rc4>
    32e2: ae 48 4f     	ldx	$4f48                   ; 0x4f48 <fileReadDir.fileDirEntS>
    32e5: f0 04        	beq	$32eb <fileReadDir+0xe2>
    32e7: a2 00        	ldx	#$0
    32e9: 86 b2        	stx	$b2                     ; 0xb2 <__zp_data_size+0x78>
    32eb: a6 b2        	ldx	$b2                     ; 0xb2 <__zp_data_size+0x78>
    32ed: 8e 49 4f     	stx	$4f49                   ; 0x4f49 <fileReadDir.fileDirEntS+0x1>
    32f0: a6 71        	ldx	$71                     ; 0x71 <kernelEventData+0x5>
    32f2: f0 46        	beq	$333a <fileReadDir+0x131>
    32f4: a5 6a        	lda	$6a                     ; 0x6a <kernelArgs>
    32f6: a4 6b        	ldy	$6b                     ; 0x6b <kernelArgs+0x1>
    32f8: 84 14        	sty	$14                     ; 0x14 <__rc4>
    32fa: 85 12        	sta	$12                     ; 0x12 <__rc2>
    32fc: 84 13        	sty	$13                     ; 0x13 <__rc3>
    32fe: a0 0b        	ldy	#$b
    3300: 18           	clc
    3301: 69 0b        	adc	#$b
    3303: 85 16        	sta	$16                     ; 0x16 <__rc6>
    3305: a5 14        	lda	$14                     ; 0x14 <__rc4>
    3307: 69 00        	adc	#$0
    3309: 5a           	phy
    330a: a4 16        	ldy	$16                     ; 0x16 <__rc6>
    330c: 84 14        	sty	$14                     ; 0x14 <__rc4>
    330e: 7a           	ply
    330f: 85 15        	sta	$15                     ; 0x15 <__rc5>
    3311: a9 4a        	lda	#$4a
    3313: 91 12        	sta	($12),y                 ; 0x12 <__rc2>
    3315: a0 01        	ldy	#$1
    3317: a9 4f        	lda	#$4f
    3319: 91 14        	sta	($14),y                 ; 0x14 <__rc4>
    331b: a0 0d        	ldy	#$d
    331d: 8a           	txa
    331e: 91 12        	sta	($12),y                 ; 0x12 <__rc2>
    3320: a0 b1        	ldy	#$b1
    3322: a9 00        	lda	#$0
    3324: 84 12        	sty	$12                     ; 0x12 <__rc2>
    3326: 85 13        	sta	$13                     ; 0x13 <__rc3>
    3328: a0 73        	ldy	#$73
    332a: 84 14        	sty	$14                     ; 0x14 <__rc4>
    332c: a0 00        	ldy	#$0
    332e: 84 15        	sty	$15                     ; 0x15 <__rc5>
    3330: 20 04 ff     	jsr	$ff04 <end_block9+0x9c5e>
    3333: 92 12        	sta	($12)                   ; 0x12 <__rc2>
    3335: a9 00        	lda	#$0
    3337: 6a           	ror
    3338: 85 14        	sta	$14                     ; 0x14 <__rc4>
    333a: 9e 4a 4f     	stz	$4f4a,x                 ; 0x4f4a <fileReadDir.fileDirEntS+0x2>
    333d: a2 48        	ldx	#$48
    333f: 86 12        	stx	$12                     ; 0x12 <__rc2>
    3341: a2 4f        	ldx	#$4f
    3343: 86 13        	stx	$13                     ; 0x13 <__rc3>
    3345: 60           	rts

00003346 <__putchar>:
    3346: 8d 4a 50     	sta	$504a                   ; 0x504a <__putchar.s>
    3349: a2 4a        	ldx	#$4a
    334b: 86 12        	stx	$12                     ; 0x12 <__rc2>
    334d: a2 50        	ldx	#$50
    334f: 86 13        	stx	$13                     ; 0x13 <__rc3>
    3351: 4c 3d 2f     	jmp	$2f3d <textPrint>

00003354 <exit>:
    3354: 85 9d        	sta	$9d                     ; 0x9d <__zp_data_size+0x63>
    3356: 86 9e        	stx	$9e                     ; 0x9e <__zp_data_size+0x64>
    3358: 20 51 03     	jsr	$351 <_fini>
    335b: a6 9e        	ldx	$9e                     ; 0x9e <__zp_data_size+0x64>
    335d: a5 9d        	lda	$9d                     ; 0x9d <__zp_data_size+0x63>
    335f: 20 62 33     	jsr	$3362 <_Exit>

00003362 <_Exit>:
    3362: 80 fe        	bra	$3362 <_Exit>

00003364 <tolower>:
    3364: c9 41        	cmp	#$41
    3366: 90 06        	bcc	$336e <tolower+0xa>
    3368: c9 5b        	cmp	#$5b
    336a: b0 02        	bcs	$336e <tolower+0xa>
    336c: 09 20        	ora	#$20
    336e: a2 00        	ldx	#$0
    3370: 60           	rts

00003371 <vfprintf>:
    3371: 18           	clc
    3372: a5 10        	lda	$10                     ; 0x10 <__rc0>
    3374: 69 e8        	adc	#$e8
    3376: 85 10        	sta	$10                     ; 0x10 <__rc0>
    3378: a5 11        	lda	$11                     ; 0x11 <__rc1>
    337a: 69 ff        	adc	#$ff
    337c: 85 11        	sta	$11                     ; 0x11 <__rc1>
    337e: a6 24        	ldx	$24                     ; 0x24 <__rc20>
    3380: da           	phx
    3381: a6 25        	ldx	$25                     ; 0x25 <__rc21>
    3383: da           	phx
    3384: a6 26        	ldx	$26                     ; 0x26 <__rc22>
    3386: da           	phx
    3387: a6 27        	ldx	$27                     ; 0x27 <__rc23>
    3389: da           	phx
    338a: a5 28        	lda	$28                     ; 0x28 <__rc24>
    338c: a0 01        	ldy	#$1
    338e: 91 10        	sta	($10),y                 ; 0x10 <__rc0>
    3390: a5 29        	lda	$29                     ; 0x29 <__rc25>
    3392: 88           	dey
    3393: 91 10        	sta	($10),y                 ; 0x10 <__rc0>
    3395: a6 12        	ldx	$12                     ; 0x12 <__rc2>
    3397: 86 24        	stx	$24                     ; 0x24 <__rc20>
    3399: a6 13        	ldx	$13                     ; 0x13 <__rc3>
    339b: 86 25        	stx	$25                     ; 0x25 <__rc21>
    339d: a5 16        	lda	$16                     ; 0x16 <__rc6>
    339f: 18           	clc
    33a0: 48           	pha
    33a1: a5 10        	lda	$10                     ; 0x10 <__rc0>
    33a3: 69 16        	adc	#$16
    33a5: 85 12        	sta	$12                     ; 0x12 <__rc2>
    33a7: a5 11        	lda	$11                     ; 0x11 <__rc1>
    33a9: 69 00        	adc	#$0
    33ab: 85 13        	sta	$13                     ; 0x13 <__rc3>
    33ad: 68           	pla
    33ae: 92 12        	sta	($12)                   ; 0x12 <__rc2>
    33b0: c8           	iny
    33b1: a5 17        	lda	$17                     ; 0x17 <__rc7>
    33b3: 91 12        	sta	($12),y                 ; 0x12 <__rc2>
    33b5: 18           	clc
    33b6: a5 10        	lda	$10                     ; 0x10 <__rc0>
    33b8: 69 03        	adc	#$3
    33ba: 48           	pha
    33bb: a5 11        	lda	$11                     ; 0x11 <__rc1>
    33bd: 69 00        	adc	#$0
    33bf: a8           	tay
    33c0: 68           	pla
    33c1: 85 16        	sta	$16                     ; 0x16 <__rc6>
    33c3: 84 17        	sty	$17                     ; 0x17 <__rc7>
    33c5: 85 28        	sta	$28                     ; 0x28 <__rc24>
    33c7: 18           	clc
    33c8: 69 03        	adc	#$3
    33ca: 85 18        	sta	$18                     ; 0x18 <__rc8>
    33cc: 84 29        	sty	$29                     ; 0x29 <__rc25>
    33ce: 98           	tya
    33cf: 69 00        	adc	#$0
    33d1: a0 03        	ldy	#$3
    33d3: 85 19        	sta	$19                     ; 0x19 <__rc9>
    33d5: a9 ff        	lda	#$ff
    33d7: 91 16        	sta	($16),y                 ; 0x16 <__rc6>
    33d9: 18           	clc
    33da: a5 10        	lda	$10                     ; 0x10 <__rc0>
    33dc: 69 03        	adc	#$3
    33de: 85 1b        	sta	$1b                     ; 0x1b <__rc11>
    33e0: a5 11        	lda	$11                     ; 0x11 <__rc1>
    33e2: 69 00        	adc	#$0
    33e4: 85 1a        	sta	$1a                     ; 0x1a <__rc10>
    33e6: a0 01        	ldy	#$1
    33e8: a9 ff        	lda	#$ff
    33ea: 91 18        	sta	($18),y                 ; 0x18 <__rc8>
    33ec: 18           	clc
    33ed: a5 1b        	lda	$1b                     ; 0x1b <__rc11>
    33ef: 69 05        	adc	#$5
    33f1: 85 18        	sta	$18                     ; 0x18 <__rc8>
    33f3: a5 1a        	lda	$1a                     ; 0x1a <__rc10>
    33f5: 69 00        	adc	#$0
    33f7: 85 19        	sta	$19                     ; 0x19 <__rc9>
    33f9: 18           	clc
    33fa: a5 10        	lda	$10                     ; 0x10 <__rc0>
    33fc: 69 03        	adc	#$3
    33fe: 48           	pha
    33ff: a5 11        	lda	$11                     ; 0x11 <__rc1>
    3401: 69 00        	adc	#$0
    3403: 85 1b        	sta	$1b                     ; 0x1b <__rc11>
    3405: 68           	pla
    3406: 18           	clc
    3407: 69 09        	adc	#$9
    3409: 85 1a        	sta	$1a                     ; 0x1a <__rc10>
    340b: a5 1b        	lda	$1b                     ; 0x1b <__rc11>
    340d: 69 00        	adc	#$0
    340f: 85 1b        	sta	$1b                     ; 0x1b <__rc11>
    3411: a0 09        	ldy	#$9
    3413: a2 00        	ldx	#$0
    3415: 86 1c        	stx	$1c                     ; 0x1c <__rc12>
    3417: a2 00        	ldx	#$0
    3419: 86 1d        	stx	$1d                     ; 0x1d <__rc13>
    341b: a5 1c        	lda	$1c                     ; 0x1c <__rc12>
    341d: 91 16        	sta	($16),y                 ; 0x16 <__rc6>
    341f: a0 0f        	ldy	#$f
    3421: a5 24        	lda	$24                     ; 0x24 <__rc20>
    3423: 91 16        	sta	($16),y                 ; 0x16 <__rc6>
    3425: 18           	clc
    3426: a5 10        	lda	$10                     ; 0x10 <__rc0>
    3428: 69 03        	adc	#$3
    342a: 85 1c        	sta	$1c                     ; 0x1c <__rc12>
    342c: a5 11        	lda	$11                     ; 0x11 <__rc1>
    342e: 69 00        	adc	#$0
    3430: aa           	tax
    3431: a5 1d        	lda	$1d                     ; 0x1d <__rc13>
    3433: a0 01        	ldy	#$1
    3435: 91 1a        	sta	($1a),y                 ; 0x1a <__rc10>
    3437: 18           	clc
    3438: a5 1c        	lda	$1c                     ; 0x1c <__rc12>
    343a: 69 0f        	adc	#$f
    343c: 85 1a        	sta	$1a                     ; 0x1a <__rc10>
    343e: 8a           	txa
    343f: 69 00        	adc	#$0
    3441: aa           	tax
    3442: a0 05        	ldy	#$5
    3444: a9 00        	lda	#$0
    3446: 91 16        	sta	($16),y                 ; 0x16 <__rc6>
    3448: 64 1b        	stz	$1b                     ; 0x1b <__rc11>
    344a: a9 00        	lda	#$0
    344c: a0 02        	ldy	#$2
    344e: 91 10        	sta	($10),y                 ; 0x10 <__rc0>
    3450: 88           	dey
    3451: a9 00        	lda	#$0
    3453: 91 18        	sta	($18),y                 ; 0x18 <__rc8>
    3455: 86 1b        	stx	$1b                     ; 0x1b <__rc11>
    3457: a5 25        	lda	$25                     ; 0x25 <__rc21>
    3459: 91 1a        	sta	($1a),y                 ; 0x1a <__rc10>
    345b: b2 12        	lda	($12)                   ; 0x12 <__rc2>
    345d: 85 19        	sta	$19                     ; 0x19 <__rc9>
    345f: b1 12        	lda	($12),y                 ; 0x12 <__rc2>
    3461: 85 18        	sta	$18                     ; 0x18 <__rc8>
    3463: a0 11        	ldy	#$11
    3465: a5 19        	lda	$19                     ; 0x19 <__rc9>
    3467: 91 16        	sta	($16),y                 ; 0x16 <__rc6>
    3469: 18           	clc
    346a: a5 10        	lda	$10                     ; 0x10 <__rc0>
    346c: 69 03        	adc	#$3
    346e: 48           	pha
    346f: a5 11        	lda	$11                     ; 0x11 <__rc1>
    3471: 69 00        	adc	#$0
    3473: 85 12        	sta	$12                     ; 0x12 <__rc2>
    3475: 68           	pla
    3476: 18           	clc
    3477: 69 11        	adc	#$11
    3479: aa           	tax
    347a: a5 12        	lda	$12                     ; 0x12 <__rc2>
    347c: 69 00        	adc	#$0
    347e: 86 12        	stx	$12                     ; 0x12 <__rc2>
    3480: 85 13        	sta	$13                     ; 0x13 <__rc3>
    3482: a5 18        	lda	$18                     ; 0x18 <__rc8>
    3484: a0 01        	ldy	#$1
    3486: 91 12        	sta	($12),y                 ; 0x12 <__rc2>
    3488: a6 14        	ldx	$14                     ; 0x14 <__rc4>
    348a: 86 12        	stx	$12                     ; 0x12 <__rc2>
    348c: a6 15        	ldx	$15                     ; 0x15 <__rc5>
    348e: 86 13        	stx	$13                     ; 0x13 <__rc3>
    3490: a6 12        	ldx	$12                     ; 0x12 <__rc2>
    3492: 86 26        	stx	$26                     ; 0x26 <__rc22>
    3494: a6 13        	ldx	$13                     ; 0x13 <__rc3>
    3496: 86 27        	stx	$27                     ; 0x27 <__rc23>
    3498: b2 12        	lda	($12)                   ; 0x12 <__rc2>
    349a: c9 25        	cmp	#$25
    349c: d0 03        	bne	$34a1 <vfprintf+0x130>
    349e: 4c 09 35     	jmp	$3509 <vfprintf+0x198>
    34a1: aa           	tax
    34a2: d0 03        	bne	$34a7 <vfprintf+0x136>
    34a4: 4c 61 35     	jmp	$3561 <vfprintf+0x1f0>
    34a7: a6 24        	ldx	$24                     ; 0x24 <__rc20>
    34a9: 86 12        	stx	$12                     ; 0x12 <__rc2>
    34ab: a6 25        	ldx	$25                     ; 0x25 <__rc21>
    34ad: 86 13        	stx	$13                     ; 0x13 <__rc3>
    34af: 48           	pha
    34b0: a0 02        	ldy	#$2
    34b2: b1 10        	lda	($10),y                 ; 0x10 <__rc0>
    34b4: aa           	tax
    34b5: 68           	pla
    34b6: 20 91 46     	jsr	$4691 <putc>
    34b9: e0 ff        	cpx	#$ff
    34bb: d0 07        	bne	$34c4 <vfprintf+0x153>
    34bd: c9 ff        	cmp	#$ff
    34bf: d0 03        	bne	$34c4 <vfprintf+0x153>
    34c1: 4c 2b 35     	jmp	$352b <vfprintf+0x1ba>
    34c4: e6 26        	inc	$26                     ; 0x26 <__rc22>
    34c6: d0 02        	bne	$34ca <vfprintf+0x159>
    34c8: e6 27        	inc	$27                     ; 0x27 <__rc23>
    34ca: 18           	clc
    34cb: a5 10        	lda	$10                     ; 0x10 <__rc0>
    34cd: 69 03        	adc	#$3
    34cf: 48           	pha
    34d0: a5 11        	lda	$11                     ; 0x11 <__rc1>
    34d2: 69 00        	adc	#$0
    34d4: aa           	tax
    34d5: 68           	pla
    34d6: 85 12        	sta	$12                     ; 0x12 <__rc2>
    34d8: 86 13        	stx	$13                     ; 0x13 <__rc3>
    34da: 18           	clc
    34db: 69 05        	adc	#$5
    34dd: 85 14        	sta	$14                     ; 0x14 <__rc4>
    34df: 8a           	txa
    34e0: 69 00        	adc	#$0
    34e2: 85 15        	sta	$15                     ; 0x15 <__rc5>
    34e4: a0 05        	ldy	#$5
    34e6: b1 12        	lda	($12),y                 ; 0x12 <__rc2>
    34e8: 85 16        	sta	$16                     ; 0x16 <__rc6>
    34ea: a0 01        	ldy	#$1
    34ec: b1 14        	lda	($14),y                 ; 0x14 <__rc4>
    34ee: aa           	tax
    34ef: a5 16        	lda	$16                     ; 0x16 <__rc6>
    34f1: 1a           	inc
    34f2: d0 01        	bne	$34f5 <vfprintf+0x184>
    34f4: e8           	inx
    34f5: a0 05        	ldy	#$5
    34f7: 91 12        	sta	($12),y                 ; 0x12 <__rc2>
    34f9: 8a           	txa
    34fa: a0 01        	ldy	#$1
    34fc: 91 14        	sta	($14),y                 ; 0x14 <__rc4>
    34fe: a6 26        	ldx	$26                     ; 0x26 <__rc22>
    3500: 86 12        	stx	$12                     ; 0x12 <__rc2>
    3502: a6 27        	ldx	$27                     ; 0x27 <__rc23>
    3504: 86 13        	stx	$13                     ; 0x13 <__rc3>
    3506: 4c 90 34     	jmp	$3490 <vfprintf+0x11f>
    3509: a6 28        	ldx	$28                     ; 0x28 <__rc24>
    350b: 86 14        	stx	$14                     ; 0x14 <__rc4>
    350d: a6 29        	ldx	$29                     ; 0x29 <__rc25>
    350f: 86 15        	stx	$15                     ; 0x15 <__rc5>
    3511: 20 89 35     	jsr	$3589 <_ZN12_GLOBAL__N_15printEPKcP6Status>
    3514: a6 13        	ldx	$13                     ; 0x13 <__rc3>
    3516: e4 27        	cpx	$27                     ; 0x27 <__rc23>
    3518: f0 03        	beq	$351d <vfprintf+0x1ac>
    351a: 4c 90 34     	jmp	$3490 <vfprintf+0x11f>
    351d: a6 12        	ldx	$12                     ; 0x12 <__rc2>
    351f: e4 26        	cpx	$26                     ; 0x26 <__rc22>
    3521: f0 03        	beq	$3526 <vfprintf+0x1b5>
    3523: 4c 90 34     	jmp	$3490 <vfprintf+0x11f>
    3526: b2 26        	lda	($26)                   ; 0x26 <__rc22>
    3528: 4c a7 34     	jmp	$34a7 <vfprintf+0x136>
    352b: a2 ff        	ldx	#$ff
    352d: 8a           	txa
    352e: a0 02        	ldy	#$2
    3530: 91 10        	sta	($10),y                 ; 0x10 <__rc0>
    3532: 8a           	txa
    3533: aa           	tax
    3534: a0 02        	ldy	#$2
    3536: b1 10        	lda	($10),y                 ; 0x10 <__rc0>
    3538: 85 20        	sta	$20                     ; 0x20 <__rc16>
    353a: a0 00        	ldy	#$0
    353c: b1 10        	lda	($10),y                 ; 0x10 <__rc0>
    353e: 85 29        	sta	$29                     ; 0x29 <__rc25>
    3540: c8           	iny
    3541: b1 10        	lda	($10),y                 ; 0x10 <__rc0>
    3543: 85 28        	sta	$28                     ; 0x28 <__rc24>
    3545: 7a           	ply
    3546: 84 27        	sty	$27                     ; 0x27 <__rc23>
    3548: 7a           	ply
    3549: 84 26        	sty	$26                     ; 0x26 <__rc22>
    354b: 7a           	ply
    354c: 84 25        	sty	$25                     ; 0x25 <__rc21>
    354e: 7a           	ply
    354f: 84 24        	sty	$24                     ; 0x24 <__rc20>
    3551: 18           	clc
    3552: a5 10        	lda	$10                     ; 0x10 <__rc0>
    3554: 69 18        	adc	#$18
    3556: 85 10        	sta	$10                     ; 0x10 <__rc0>
    3558: a5 11        	lda	$11                     ; 0x11 <__rc1>
    355a: 69 00        	adc	#$0
    355c: 85 11        	sta	$11                     ; 0x11 <__rc1>
    355e: a5 20        	lda	$20                     ; 0x20 <__rc16>
    3560: 60           	rts
    3561: a0 05        	ldy	#$5
    3563: 18           	clc
    3564: a5 10        	lda	$10                     ; 0x10 <__rc0>
    3566: 69 03        	adc	#$3
    3568: 48           	pha
    3569: a5 11        	lda	$11                     ; 0x11 <__rc1>
    356b: 69 00        	adc	#$0
    356d: aa           	tax
    356e: 68           	pla
    356f: 85 12        	sta	$12                     ; 0x12 <__rc2>
    3571: 86 13        	stx	$13                     ; 0x13 <__rc3>
    3573: 18           	clc
    3574: 69 05        	adc	#$5
    3576: 85 14        	sta	$14                     ; 0x14 <__rc4>
    3578: 8a           	txa
    3579: 69 00        	adc	#$0
    357b: 85 15        	sta	$15                     ; 0x15 <__rc5>
    357d: b1 12        	lda	($12),y                 ; 0x12 <__rc2>
    357f: a0 02        	ldy	#$2
    3581: 91 10        	sta	($10),y                 ; 0x10 <__rc0>
    3583: 88           	dey
    3584: b1 14        	lda	($14),y                 ; 0x14 <__rc4>
    3586: 4c 33 35     	jmp	$3533 <vfprintf+0x1c2>

00003589 <_ZN12_GLOBAL__N_15printEPKcP6Status>:
    3589: 18           	clc
    358a: a5 10        	lda	$10                     ; 0x10 <__rc0>
    358c: 69 d1        	adc	#$d1
    358e: 85 10        	sta	$10                     ; 0x10 <__rc0>
    3590: a5 11        	lda	$11                     ; 0x11 <__rc1>
    3592: 69 ff        	adc	#$ff
    3594: 85 11        	sta	$11                     ; 0x11 <__rc1>
    3596: a6 24        	ldx	$24                     ; 0x24 <__rc20>
    3598: da           	phx
    3599: a6 25        	ldx	$25                     ; 0x25 <__rc21>
    359b: da           	phx
    359c: a6 26        	ldx	$26                     ; 0x26 <__rc22>
    359e: da           	phx
    359f: a6 27        	ldx	$27                     ; 0x27 <__rc23>
    35a1: da           	phx
    35a2: a5 28        	lda	$28                     ; 0x28 <__rc24>
    35a4: a0 07        	ldy	#$7
    35a6: 91 10        	sta	($10),y                 ; 0x10 <__rc0>
    35a8: a5 29        	lda	$29                     ; 0x29 <__rc25>
    35aa: 88           	dey
    35ab: 91 10        	sta	($10),y                 ; 0x10 <__rc0>
    35ad: a5 2a        	lda	$2a                     ; 0x2a <__rc26>
    35af: 88           	dey
    35b0: 91 10        	sta	($10),y                 ; 0x10 <__rc0>
    35b2: a5 2b        	lda	$2b                     ; 0x2b <__rc27>
    35b4: 88           	dey
    35b5: 91 10        	sta	($10),y                 ; 0x10 <__rc0>
    35b7: a5 2c        	lda	$2c                     ; 0x2c <__rc28>
    35b9: 88           	dey
    35ba: 91 10        	sta	($10),y                 ; 0x10 <__rc0>
    35bc: a5 2d        	lda	$2d                     ; 0x2d <__rc29>
    35be: 88           	dey
    35bf: 91 10        	sta	($10),y                 ; 0x10 <__rc0>
    35c1: a5 2e        	lda	$2e                     ; 0x2e <__rc30>
    35c3: 88           	dey
    35c4: 91 10        	sta	($10),y                 ; 0x10 <__rc0>
    35c6: a5 2f        	lda	$2f                     ; 0x2f <__rc31>
    35c8: 88           	dey
    35c9: 91 10        	sta	($10),y                 ; 0x10 <__rc0>
    35cb: a6 12        	ldx	$12                     ; 0x12 <__rc2>
    35cd: 86 28        	stx	$28                     ; 0x28 <__rc24>
    35cf: a6 13        	ldx	$13                     ; 0x13 <__rc3>
    35d1: 86 29        	stx	$29                     ; 0x29 <__rc25>
    35d3: a6 14        	ldx	$14                     ; 0x14 <__rc4>
    35d5: 86 24        	stx	$24                     ; 0x24 <__rc20>
    35d7: a6 15        	ldx	$15                     ; 0x15 <__rc5>
    35d9: 86 25        	stx	$25                     ; 0x25 <__rc21>
    35db: e6 12        	inc	$12                     ; 0x12 <__rc2>
    35dd: d0 02        	bne	$35e1 <_ZN12_GLOBAL__N_15printEPKcP6Status+0x58>
    35df: e6 13        	inc	$13                     ; 0x13 <__rc3>
    35e1: a5 12        	lda	$12                     ; 0x12 <__rc2>
    35e3: 18           	clc
    35e4: 48           	pha
    35e5: a5 10        	lda	$10                     ; 0x10 <__rc0>
    35e7: 69 16        	adc	#$16
    35e9: 85 26        	sta	$26                     ; 0x26 <__rc22>
    35eb: a5 11        	lda	$11                     ; 0x11 <__rc1>
    35ed: 69 00        	adc	#$0
    35ef: 85 27        	sta	$27                     ; 0x27 <__rc23>
    35f1: 68           	pla
    35f2: 92 26        	sta	($26)                   ; 0x26 <__rc22>
    35f4: a0 01        	ldy	#$1
    35f6: a5 13        	lda	$13                     ; 0x13 <__rc3>
    35f8: 91 26        	sta	($26),y                 ; 0x26 <__rc22>
    35fa: b1 28        	lda	($28),y                 ; 0x28 <__rc24>
    35fc: c9 25        	cmp	#$25
    35fe: d0 1d        	bne	$361d <_ZN12_GLOBAL__N_15printEPKcP6Status+0x94>
    3600: a9 25        	lda	#$25
    3602: a6 14        	ldx	$14                     ; 0x14 <__rc4>
    3604: 86 12        	stx	$12                     ; 0x12 <__rc2>
    3606: a6 15        	ldx	$15                     ; 0x15 <__rc5>
    3608: 86 13        	stx	$13                     ; 0x13 <__rc3>
    360a: 20 cd 40     	jsr	$40cd <_ZN12_GLOBAL__N_13putEcP6Status>
    360d: a5 28        	lda	$28                     ; 0x28 <__rc24>
    360f: 18           	clc
    3610: 69 02        	adc	#$2
    3612: 85 28        	sta	$28                     ; 0x28 <__rc24>
    3614: a5 29        	lda	$29                     ; 0x29 <__rc25>
    3616: 69 00        	adc	#$0
    3618: 85 29        	sta	$29                     ; 0x29 <__rc25>
    361a: 4c 82 40     	jmp	$4082 <_ZN12_GLOBAL__N_15printEPKcP6Status+0xaf9>
    361d: 64 2a        	stz	$2a                     ; 0x2a <__rc26>
    361f: 18           	clc
    3620: a5 24        	lda	$24                     ; 0x24 <__rc20>
    3622: 69 0b        	adc	#$b
    3624: 85 16        	sta	$16                     ; 0x16 <__rc6>
    3626: a5 25        	lda	$25                     ; 0x25 <__rc21>
    3628: 69 00        	adc	#$0
    362a: 85 17        	sta	$17                     ; 0x17 <__rc7>
    362c: 18           	clc
    362d: a9 00        	lda	#$0
    362f: a0 0b        	ldy	#$b
    3631: 91 10        	sta	($10),y                 ; 0x10 <__rc0>
    3633: a9 00        	lda	#$0
    3635: 91 24        	sta	($24),y                 ; 0x24 <__rc20>
    3637: a5 24        	lda	$24                     ; 0x24 <__rc20>
    3639: 69 0d        	adc	#$d
    363b: 85 18        	sta	$18                     ; 0x18 <__rc8>
    363d: a5 25        	lda	$25                     ; 0x25 <__rc21>
    363f: 69 00        	adc	#$0
    3641: e6 14        	inc	$14                     ; 0x14 <__rc4>
    3643: d0 02        	bne	$3647 <_ZN12_GLOBAL__N_15printEPKcP6Status+0xbe>
    3645: e6 15        	inc	$15                     ; 0x15 <__rc5>
    3647: a0 0d        	ldy	#$d
    3649: 85 19        	sta	$19                     ; 0x19 <__rc9>
    364b: a9 ff        	lda	#$ff
    364d: 91 24        	sta	($24),y                 ; 0x24 <__rc20>
    364f: a0 01        	ldy	#$1
    3651: 1a           	inc
    3652: 91 24        	sta	($24),y                 ; 0x24 <__rc20>
    3654: 91 14        	sta	($14),y                 ; 0x14 <__rc4>
    3656: 92 24        	sta	($24)                   ; 0x24 <__rc20>
    3658: 91 16        	sta	($16),y                 ; 0x16 <__rc6>
    365a: 3a           	dec
    365b: 91 18        	sta	($18),y                 ; 0x18 <__rc8>
    365d: 64 18        	stz	$18                     ; 0x18 <__rc8>
    365f: 80 35        	bra	$3696 <_ZN12_GLOBAL__N_15printEPKcP6Status+0x10d>
    3661: a2 02        	ldx	#$2
    3663: 80 15        	bra	$367a <_ZN12_GLOBAL__N_15printEPKcP6Status+0xf1>
    3665: e0 20        	cpx	#$20
    3667: f0 0f        	beq	$3678 <_ZN12_GLOBAL__N_15printEPKcP6Status+0xef>
    3669: e0 23        	cpx	#$23
    366b: f0 03        	beq	$3670 <_ZN12_GLOBAL__N_15printEPKcP6Status+0xe7>
    366d: 4c db 36     	jmp	$36db <_ZN12_GLOBAL__N_15printEPKcP6Status+0x152>
    3670: a2 04        	ldx	#$4
    3672: 80 06        	bra	$367a <_ZN12_GLOBAL__N_15printEPKcP6Status+0xf1>
    3674: a2 10        	ldx	#$10
    3676: 80 02        	bra	$367a <_ZN12_GLOBAL__N_15printEPKcP6Status+0xf1>
    3678: a2 08        	ldx	#$8
    367a: 86 16        	stx	$16                     ; 0x16 <__rc6>
    367c: a5 18        	lda	$18                     ; 0x18 <__rc8>
    367e: 05 16        	ora	$16                     ; 0x16 <__rc6>
    3680: 85 18        	sta	$18                     ; 0x18 <__rc8>
    3682: 91 24        	sta	($24),y                 ; 0x24 <__rc20>
    3684: a9 00        	lda	#$0
    3686: 91 14        	sta	($14),y                 ; 0x14 <__rc4>
    3688: e6 12        	inc	$12                     ; 0x12 <__rc2>
    368a: d0 02        	bne	$368e <_ZN12_GLOBAL__N_15printEPKcP6Status+0x105>
    368c: e6 13        	inc	$13                     ; 0x13 <__rc3>
    368e: a5 12        	lda	$12                     ; 0x12 <__rc2>
    3690: 92 26        	sta	($26)                   ; 0x26 <__rc22>
    3692: a5 13        	lda	$13                     ; 0x13 <__rc3>
    3694: 91 26        	sta	($26),y                 ; 0x26 <__rc22>
    3696: b2 12        	lda	($12)                   ; 0x12 <__rc2>
    3698: 18           	clc
    3699: aa           	tax
    369a: 69 d6        	adc	#$d6
    369c: c9 07        	cmp	#$7
    369e: b0 c5        	bcs	$3665 <_ZN12_GLOBAL__N_15printEPKcP6Status+0xdc>
    36a0: 0a           	asl
    36a1: aa           	tax
    36a2: a9 01        	lda	#$1
    36a4: 85 16        	sta	$16                     ; 0x16 <__rc6>
    36a6: 7c 4f 4d     	jmp	($4d4f,x)               ; 0x4d4f <__BLOCK_SIZE+0x2d4f>
    36a9: a0 11        	ldy	#$11
    36ab: a5 24        	lda	$24                     ; 0x24 <__rc20>
    36ad: 18           	clc
    36ae: 69 11        	adc	#$11
    36b0: 85 14        	sta	$14                     ; 0x14 <__rc4>
    36b2: a5 25        	lda	$25                     ; 0x25 <__rc21>
    36b4: 69 00        	adc	#$0
    36b6: 85 15        	sta	$15                     ; 0x15 <__rc5>
    36b8: b1 24        	lda	($24),y                 ; 0x24 <__rc20>
    36ba: 85 16        	sta	$16                     ; 0x16 <__rc6>
    36bc: 18           	clc
    36bd: 69 02        	adc	#$2
    36bf: 91 24        	sta	($24),y                 ; 0x24 <__rc20>
    36c1: a0 01        	ldy	#$1
    36c3: b1 14        	lda	($14),y                 ; 0x14 <__rc4>
    36c5: 85 17        	sta	$17                     ; 0x17 <__rc7>
    36c7: 69 00        	adc	#$0
    36c9: 91 14        	sta	($14),y                 ; 0x14 <__rc4>
    36cb: b2 16        	lda	($16)                   ; 0x16 <__rc6>
    36cd: 85 15        	sta	$15                     ; 0x15 <__rc5>
    36cf: b1 16        	lda	($16),y                 ; 0x16 <__rc6>
    36d1: 85 14        	sta	$14                     ; 0x14 <__rc4>
    36d3: 30 31        	bmi	$3706 <_ZN12_GLOBAL__N_15printEPKcP6Status+0x17d>
    36d5: a5 15        	lda	$15                     ; 0x15 <__rc5>
    36d7: a6 14        	ldx	$14                     ; 0x14 <__rc4>
    36d9: 80 4d        	bra	$3728 <_ZN12_GLOBAL__N_15printEPKcP6Status+0x19f>
    36db: a6 26        	ldx	$26                     ; 0x26 <__rc22>
    36dd: 86 14        	stx	$14                     ; 0x14 <__rc4>
    36df: a6 27        	ldx	$27                     ; 0x27 <__rc23>
    36e1: 86 15        	stx	$15                     ; 0x15 <__rc5>
    36e3: 20 81 4b     	jsr	$4b81 <__simple_strtoui>
    36e6: a0 0b        	ldy	#$b
    36e8: 91 24        	sta	($24),y                 ; 0x24 <__rc20>
    36ea: 18           	clc
    36eb: a5 24        	lda	$24                     ; 0x24 <__rc20>
    36ed: 69 0b        	adc	#$b
    36ef: 85 12        	sta	$12                     ; 0x12 <__rc2>
    36f1: a5 25        	lda	$25                     ; 0x25 <__rc21>
    36f3: 69 00        	adc	#$0
    36f5: 85 13        	sta	$13                     ; 0x13 <__rc3>
    36f7: a0 01        	ldy	#$1
    36f9: 8a           	txa
    36fa: 91 12        	sta	($12),y                 ; 0x12 <__rc2>
    36fc: b2 26        	lda	($26)                   ; 0x26 <__rc22>
    36fe: 85 12        	sta	$12                     ; 0x12 <__rc2>
    3700: b1 26        	lda	($26),y                 ; 0x26 <__rc22>
    3702: 85 13        	sta	$13                     ; 0x13 <__rc3>
    3704: 80 46        	bra	$374c <_ZN12_GLOBAL__N_15printEPKcP6Status+0x1c3>
    3706: a5 18        	lda	$18                     ; 0x18 <__rc8>
    3708: 09 01        	ora	#$1
    370a: a6 24        	ldx	$24                     ; 0x24 <__rc20>
    370c: 86 16        	stx	$16                     ; 0x16 <__rc6>
    370e: a6 25        	ldx	$25                     ; 0x25 <__rc21>
    3710: 86 17        	stx	$17                     ; 0x17 <__rc7>
    3712: e6 16        	inc	$16                     ; 0x16 <__rc6>
    3714: d0 02        	bne	$3718 <_ZN12_GLOBAL__N_15printEPKcP6Status+0x18f>
    3716: e6 17        	inc	$17                     ; 0x17 <__rc7>
    3718: 91 24        	sta	($24),y                 ; 0x24 <__rc20>
    371a: a9 00        	lda	#$0
    371c: 91 16        	sta	($16),y                 ; 0x16 <__rc6>
    371e: 38           	sec
    371f: e5 15        	sbc	$15                     ; 0x15 <__rc5>
    3721: a8           	tay
    3722: a9 00        	lda	#$0
    3724: e5 14        	sbc	$14                     ; 0x14 <__rc4>
    3726: aa           	tax
    3727: 98           	tya
    3728: a0 0b        	ldy	#$b
    372a: 91 24        	sta	($24),y                 ; 0x24 <__rc20>
    372c: 18           	clc
    372d: a5 24        	lda	$24                     ; 0x24 <__rc20>
    372f: 69 0b        	adc	#$b
    3731: 85 14        	sta	$14                     ; 0x14 <__rc4>
    3733: a5 25        	lda	$25                     ; 0x25 <__rc21>
    3735: 69 00        	adc	#$0
    3737: 85 15        	sta	$15                     ; 0x15 <__rc5>
    3739: 8a           	txa
    373a: a0 01        	ldy	#$1
    373c: 91 14        	sta	($14),y                 ; 0x14 <__rc4>
    373e: e6 12        	inc	$12                     ; 0x12 <__rc2>
    3740: d0 02        	bne	$3744 <_ZN12_GLOBAL__N_15printEPKcP6Status+0x1bb>
    3742: e6 13        	inc	$13                     ; 0x13 <__rc3>
    3744: a5 13        	lda	$13                     ; 0x13 <__rc3>
    3746: 91 26        	sta	($26),y                 ; 0x26 <__rc22>
    3748: a5 12        	lda	$12                     ; 0x12 <__rc2>
    374a: 92 26        	sta	($26)                   ; 0x26 <__rc22>
    374c: b2 12        	lda	($12)                   ; 0x12 <__rc2>
    374e: c9 2e        	cmp	#$2e
    3750: f0 03        	beq	$3755 <_ZN12_GLOBAL__N_15printEPKcP6Status+0x1cc>
    3752: 4c 6a 38     	jmp	$386a <_ZN12_GLOBAL__N_15printEPKcP6Status+0x2e1>
    3755: a6 12        	ldx	$12                     ; 0x12 <__rc2>
    3757: 86 14        	stx	$14                     ; 0x14 <__rc4>
    3759: a6 13        	ldx	$13                     ; 0x13 <__rc3>
    375b: 86 15        	stx	$15                     ; 0x15 <__rc5>
    375d: e6 14        	inc	$14                     ; 0x14 <__rc4>
    375f: d0 02        	bne	$3763 <_ZN12_GLOBAL__N_15printEPKcP6Status+0x1da>
    3761: e6 15        	inc	$15                     ; 0x15 <__rc5>
    3763: a5 14        	lda	$14                     ; 0x14 <__rc4>
    3765: 92 26        	sta	($26)                   ; 0x26 <__rc22>
    3767: a5 15        	lda	$15                     ; 0x15 <__rc5>
    3769: 91 26        	sta	($26),y                 ; 0x26 <__rc22>
    376b: b1 12        	lda	($12),y                 ; 0x12 <__rc2>
    376d: c9 2a        	cmp	#$2a
    376f: f0 03        	beq	$3774 <_ZN12_GLOBAL__N_15printEPKcP6Status+0x1eb>
    3771: 4c df 37     	jmp	$37df <_ZN12_GLOBAL__N_15printEPKcP6Status+0x256>
    3774: a4 24        	ldy	$24                     ; 0x24 <__rc20>
    3776: a5 24        	lda	$24                     ; 0x24 <__rc20>
    3778: 84 18        	sty	$18                     ; 0x18 <__rc8>
    377a: 18           	clc
    377b: 69 11        	adc	#$11
    377d: 85 14        	sta	$14                     ; 0x14 <__rc4>
    377f: a5 25        	lda	$25                     ; 0x25 <__rc21>
    3781: 69 00        	adc	#$0
    3783: a0 11        	ldy	#$11
    3785: 85 15        	sta	$15                     ; 0x15 <__rc5>
    3787: b1 24        	lda	($24),y                 ; 0x24 <__rc20>
    3789: 85 16        	sta	$16                     ; 0x16 <__rc6>
    378b: a0 01        	ldy	#$1
    378d: b1 14        	lda	($14),y                 ; 0x14 <__rc4>
    378f: 85 19        	sta	$19                     ; 0x19 <__rc9>
    3791: a5 16        	lda	$16                     ; 0x16 <__rc6>
    3793: a6 19        	ldx	$19                     ; 0x19 <__rc9>
    3795: 86 17        	stx	$17                     ; 0x17 <__rc7>
    3797: 18           	clc
    3798: 69 02        	adc	#$2
    379a: 85 1a        	sta	$1a                     ; 0x1a <__rc10>
    379c: a5 19        	lda	$19                     ; 0x19 <__rc9>
    379e: 69 00        	adc	#$0
    37a0: 85 19        	sta	$19                     ; 0x19 <__rc9>
    37a2: a0 11        	ldy	#$11
    37a4: a5 1a        	lda	$1a                     ; 0x1a <__rc10>
    37a6: 91 24        	sta	($24),y                 ; 0x24 <__rc20>
    37a8: a5 19        	lda	$19                     ; 0x19 <__rc9>
    37aa: a0 01        	ldy	#$1
    37ac: 91 14        	sta	($14),y                 ; 0x14 <__rc4>
    37ae: b2 16        	lda	($16)                   ; 0x16 <__rc6>
    37b0: 85 14        	sta	$14                     ; 0x14 <__rc4>
    37b2: b1 16        	lda	($16),y                 ; 0x16 <__rc6>
    37b4: 85 16        	sta	$16                     ; 0x16 <__rc6>
    37b6: a0 0d        	ldy	#$d
    37b8: a5 14        	lda	$14                     ; 0x14 <__rc4>
    37ba: 91 24        	sta	($24),y                 ; 0x24 <__rc20>
    37bc: 18           	clc
    37bd: a5 18        	lda	$18                     ; 0x18 <__rc8>
    37bf: 69 0d        	adc	#$d
    37c1: 85 14        	sta	$14                     ; 0x14 <__rc4>
    37c3: a5 25        	lda	$25                     ; 0x25 <__rc21>
    37c5: 69 00        	adc	#$0
    37c7: 18           	clc
    37c8: 85 15        	sta	$15                     ; 0x15 <__rc5>
    37ca: a5 16        	lda	$16                     ; 0x16 <__rc6>
    37cc: a0 01        	ldy	#$1
    37ce: 91 14        	sta	($14),y                 ; 0x14 <__rc4>
    37d0: a5 12        	lda	$12                     ; 0x12 <__rc2>
    37d2: 69 02        	adc	#$2
    37d4: 85 12        	sta	$12                     ; 0x12 <__rc2>
    37d6: a5 13        	lda	$13                     ; 0x13 <__rc3>
    37d8: 69 00        	adc	#$0
    37da: 85 13        	sta	$13                     ; 0x13 <__rc3>
    37dc: 4c 4e 38     	jmp	$384e <_ZN12_GLOBAL__N_15printEPKcP6Status+0x2c5>
    37df: a6 28        	ldx	$28                     ; 0x28 <__rc24>
    37e1: 86 2c        	stx	$2c                     ; 0x2c <__rc28>
    37e3: a6 29        	ldx	$29                     ; 0x29 <__rc25>
    37e5: 86 2d        	stx	$2d                     ; 0x2d <__rc29>
    37e7: a6 14        	ldx	$14                     ; 0x14 <__rc4>
    37e9: 86 12        	stx	$12                     ; 0x12 <__rc2>
    37eb: a6 15        	ldx	$15                     ; 0x15 <__rc5>
    37ed: 86 13        	stx	$13                     ; 0x13 <__rc3>
    37ef: 18           	clc
    37f0: a5 10        	lda	$10                     ; 0x10 <__rc0>
    37f2: 69 18        	adc	#$18
    37f4: 85 28        	sta	$28                     ; 0x28 <__rc24>
    37f6: a5 11        	lda	$11                     ; 0x11 <__rc1>
    37f8: 69 00        	adc	#$0
    37fa: 85 29        	sta	$29                     ; 0x29 <__rc25>
    37fc: a6 28        	ldx	$28                     ; 0x28 <__rc24>
    37fe: 86 14        	stx	$14                     ; 0x14 <__rc4>
    3800: 85 15        	sta	$15                     ; 0x15 <__rc5>
    3802: 20 81 4b     	jsr	$4b81 <__simple_strtoui>
    3805: a0 0d        	ldy	#$d
    3807: 91 24        	sta	($24),y                 ; 0x24 <__rc20>
    3809: 18           	clc
    380a: a5 24        	lda	$24                     ; 0x24 <__rc20>
    380c: 69 0d        	adc	#$d
    380e: 85 12        	sta	$12                     ; 0x12 <__rc2>
    3810: a5 25        	lda	$25                     ; 0x25 <__rc21>
    3812: 69 00        	adc	#$0
    3814: 85 13        	sta	$13                     ; 0x13 <__rc3>
    3816: a0 01        	ldy	#$1
    3818: 8a           	txa
    3819: 91 12        	sta	($12),y                 ; 0x12 <__rc2>
    381b: b2 28        	lda	($28)                   ; 0x28 <__rc24>
    381d: 85 12        	sta	$12                     ; 0x12 <__rc2>
    381f: b1 28        	lda	($28),y                 ; 0x28 <__rc24>
    3821: 85 13        	sta	$13                     ; 0x13 <__rc3>
    3823: b1 26        	lda	($26),y                 ; 0x26 <__rc22>
    3825: c5 13        	cmp	$13                     ; 0x13 <__rc3>
    3827: d0 1d        	bne	$3846 <_ZN12_GLOBAL__N_15printEPKcP6Status+0x2bd>
    3829: b2 26        	lda	($26)                   ; 0x26 <__rc22>
    382b: c5 12        	cmp	$12                     ; 0x12 <__rc2>
    382d: d0 17        	bne	$3846 <_ZN12_GLOBAL__N_15printEPKcP6Status+0x2bd>
    382f: a0 0d        	ldy	#$d
    3831: a5 24        	lda	$24                     ; 0x24 <__rc20>
    3833: 18           	clc
    3834: 69 0d        	adc	#$d
    3836: 85 14        	sta	$14                     ; 0x14 <__rc4>
    3838: a5 25        	lda	$25                     ; 0x25 <__rc21>
    383a: 69 00        	adc	#$0
    383c: 85 15        	sta	$15                     ; 0x15 <__rc5>
    383e: a9 00        	lda	#$0
    3840: 91 24        	sta	($24),y                 ; 0x24 <__rc20>
    3842: a0 01        	ldy	#$1
    3844: 91 14        	sta	($14),y                 ; 0x14 <__rc4>
    3846: a6 2c        	ldx	$2c                     ; 0x2c <__rc28>
    3848: 86 28        	stx	$28                     ; 0x28 <__rc24>
    384a: a6 2d        	ldx	$2d                     ; 0x2d <__rc29>
    384c: 86 29        	stx	$29                     ; 0x29 <__rc25>
    384e: a6 24        	ldx	$24                     ; 0x24 <__rc20>
    3850: 86 14        	stx	$14                     ; 0x14 <__rc4>
    3852: a6 25        	ldx	$25                     ; 0x25 <__rc21>
    3854: 86 15        	stx	$15                     ; 0x15 <__rc5>
    3856: e6 14        	inc	$14                     ; 0x14 <__rc4>
    3858: d0 02        	bne	$385c <_ZN12_GLOBAL__N_15printEPKcP6Status+0x2d3>
    385a: e6 15        	inc	$15                     ; 0x15 <__rc5>
    385c: b1 14        	lda	($14),y                 ; 0x14 <__rc4>
    385e: 85 16        	sta	$16                     ; 0x16 <__rc6>
    3860: a9 ef        	lda	#$ef
    3862: 31 24        	and	($24),y                 ; 0x24 <__rc20>
    3864: 91 24        	sta	($24),y                 ; 0x24 <__rc20>
    3866: a5 16        	lda	$16                     ; 0x16 <__rc6>
    3868: 91 14        	sta	($14),y                 ; 0x14 <__rc4>
    386a: a6 12        	ldx	$12                     ; 0x12 <__rc2>
    386c: 86 14        	stx	$14                     ; 0x14 <__rc4>
    386e: a6 13        	ldx	$13                     ; 0x13 <__rc3>
    3870: 86 15        	stx	$15                     ; 0x15 <__rc5>
    3872: e6 14        	inc	$14                     ; 0x14 <__rc4>
    3874: d0 02        	bne	$3878 <_ZN12_GLOBAL__N_15printEPKcP6Status+0x2ef>
    3876: e6 15        	inc	$15                     ; 0x15 <__rc5>
    3878: a5 14        	lda	$14                     ; 0x14 <__rc4>
    387a: 92 26        	sta	($26)                   ; 0x26 <__rc22>
    387c: a5 15        	lda	$15                     ; 0x15 <__rc5>
    387e: 91 26        	sta	($26),y                 ; 0x26 <__rc22>
    3880: b2 12        	lda	($12)                   ; 0x12 <__rc2>
    3882: 38           	sec
    3883: aa           	tax
    3884: e9 6c        	sbc	#$6c
    3886: 50 02        	bvc	$388a <_ZN12_GLOBAL__N_15printEPKcP6Status+0x301>
    3888: 49 80        	eor	#$80
    388a: c9 00        	cmp	#$0
    388c: 10 16        	bpl	$38a4 <_ZN12_GLOBAL__N_15printEPKcP6Status+0x31b>
    388e: e0 4c        	cpx	#$4c
    3890: f0 3c        	beq	$38ce <_ZN12_GLOBAL__N_15printEPKcP6Status+0x345>
    3892: 8a           	txa
    3893: e0 68        	cpx	#$68
    3895: d0 03        	bne	$389a <_ZN12_GLOBAL__N_15printEPKcP6Status+0x311>
    3897: 4c 4a 39     	jmp	$394a <_ZN12_GLOBAL__N_15printEPKcP6Status+0x3c1>
    389a: a2 08        	ldx	#$8
    389c: a0 08        	ldy	#$8
    389e: c9 6a        	cmp	#$6a
    38a0: d0 14        	bne	$38b6 <_ZN12_GLOBAL__N_15printEPKcP6Status+0x32d>
    38a2: 80 4a        	bra	$38ee <_ZN12_GLOBAL__N_15printEPKcP6Status+0x365>
    38a4: e0 6c        	cpx	#$6c
    38a6: d0 03        	bne	$38ab <_ZN12_GLOBAL__N_15printEPKcP6Status+0x322>
    38a8: 4c 15 39     	jmp	$3915 <_ZN12_GLOBAL__N_15printEPKcP6Status+0x38c>
    38ab: 8a           	txa
    38ac: e0 74        	cpx	#$74
    38ae: f0 3a        	beq	$38ea <_ZN12_GLOBAL__N_15printEPKcP6Status+0x361>
    38b0: a2 02        	ldx	#$2
    38b2: c9 7a        	cmp	#$7a
    38b4: f0 14        	beq	$38ca <_ZN12_GLOBAL__N_15printEPKcP6Status+0x341>
    38b6: a5 12        	lda	$12                     ; 0x12 <__rc2>
    38b8: 92 26        	sta	($26)                   ; 0x26 <__rc22>
    38ba: a0 01        	ldy	#$1
    38bc: a5 13        	lda	$13                     ; 0x13 <__rc3>
    38be: 91 26        	sta	($26),y                 ; 0x26 <__rc22>
    38c0: a6 12        	ldx	$12                     ; 0x12 <__rc2>
    38c2: 86 14        	stx	$14                     ; 0x14 <__rc4>
    38c4: a6 13        	ldx	$13                     ; 0x13 <__rc3>
    38c6: 86 15        	stx	$15                     ; 0x15 <__rc5>
    38c8: a2 02        	ldx	#$2
    38ca: a0 02        	ldy	#$2
    38cc: 80 20        	bra	$38ee <_ZN12_GLOBAL__N_15printEPKcP6Status+0x365>
    38ce: a6 24        	ldx	$24                     ; 0x24 <__rc20>
    38d0: 86 12        	stx	$12                     ; 0x12 <__rc2>
    38d2: a6 25        	ldx	$25                     ; 0x25 <__rc21>
    38d4: 86 13        	stx	$13                     ; 0x13 <__rc3>
    38d6: e6 12        	inc	$12                     ; 0x12 <__rc2>
    38d8: d0 02        	bne	$38dc <_ZN12_GLOBAL__N_15printEPKcP6Status+0x353>
    38da: e6 13        	inc	$13                     ; 0x13 <__rc3>
    38dc: b1 12        	lda	($12),y                 ; 0x12 <__rc2>
    38de: 85 16        	sta	$16                     ; 0x16 <__rc6>
    38e0: a9 40        	lda	#$40
    38e2: 11 24        	ora	($24),y                 ; 0x24 <__rc20>
    38e4: 91 24        	sta	($24),y                 ; 0x24 <__rc20>
    38e6: a5 16        	lda	$16                     ; 0x16 <__rc6>
    38e8: 91 12        	sta	($12),y                 ; 0x12 <__rc2>
    38ea: a0 02        	ldy	#$2
    38ec: a2 02        	ldx	#$2
    38ee: b2 14        	lda	($14)                   ; 0x14 <__rc4>
    38f0: 85 16        	sta	$16                     ; 0x16 <__rc6>
    38f2: 86 2b        	stx	$2b                     ; 0x2b <__rc27>
    38f4: 98           	tya
    38f5: a0 0c        	ldy	#$c
    38f7: 91 10        	sta	($10),y                 ; 0x10 <__rc0>
    38f9: 18           	clc
    38fa: a5 16        	lda	$16                     ; 0x16 <__rc6>
    38fc: 69 9d        	adc	#$9d
    38fe: c9 16        	cmp	#$16
    3900: 90 03        	bcc	$3905 <_ZN12_GLOBAL__N_15printEPKcP6Status+0x37c>
    3902: 4c 7e 39     	jmp	$397e <_ZN12_GLOBAL__N_15printEPKcP6Status+0x3f5>
    3905: aa           	tax
    3906: b1 10        	lda	($10),y                 ; 0x10 <__rc0>
    3908: 8a           	txa
    3909: 0a           	asl
    390a: aa           	tax
    390b: 7c 5d 4d     	jmp	($4d5d,x)               ; 0x4d5d <__BLOCK_SIZE+0x2d5d>
    390e: a9 0a        	lda	#$a
    3910: 92 24        	sta	($24)                   ; 0x24 <__rc20>
    3912: 4c e7 3a     	jmp	$3ae7 <_ZN12_GLOBAL__N_15printEPKcP6Status+0x55e>
    3915: b1 12        	lda	($12),y                 ; 0x12 <__rc2>
    3917: a2 04        	ldx	#$4
    3919: a0 04        	ldy	#$4
    391b: 48           	pha
    391c: 98           	tya
    391d: a0 0c        	ldy	#$c
    391f: 91 10        	sta	($10),y                 ; 0x10 <__rc0>
    3921: 68           	pla
    3922: 86 2b        	stx	$2b                     ; 0x2b <__rc27>
    3924: 85 16        	sta	$16                     ; 0x16 <__rc6>
    3926: c9 6c        	cmp	#$6c
    3928: d0 cf        	bne	$38f9 <_ZN12_GLOBAL__N_15printEPKcP6Status+0x370>
    392a: a5 12        	lda	$12                     ; 0x12 <__rc2>
    392c: 18           	clc
    392d: 69 02        	adc	#$2
    392f: aa           	tax
    3930: a5 13        	lda	$13                     ; 0x13 <__rc3>
    3932: 69 00        	adc	#$0
    3934: 86 14        	stx	$14                     ; 0x14 <__rc4>
    3936: 85 15        	sta	$15                     ; 0x15 <__rc5>
    3938: 85 12        	sta	$12                     ; 0x12 <__rc2>
    393a: 8a           	txa
    393b: 92 26        	sta	($26)                   ; 0x26 <__rc22>
    393d: a0 01        	ldy	#$1
    393f: a5 12        	lda	$12                     ; 0x12 <__rc2>
    3941: 91 26        	sta	($26),y                 ; 0x26 <__rc22>
    3943: a2 08        	ldx	#$8
    3945: a0 08        	ldy	#$8
    3947: 4c ee 38     	jmp	$38ee <_ZN12_GLOBAL__N_15printEPKcP6Status+0x365>
    394a: b1 12        	lda	($12),y                 ; 0x12 <__rc2>
    394c: a2 02        	ldx	#$2
    394e: a0 02        	ldy	#$2
    3950: 48           	pha
    3951: 98           	tya
    3952: a0 0c        	ldy	#$c
    3954: 91 10        	sta	($10),y                 ; 0x10 <__rc0>
    3956: 68           	pla
    3957: 86 2b        	stx	$2b                     ; 0x2b <__rc27>
    3959: 85 16        	sta	$16                     ; 0x16 <__rc6>
    395b: c9 68        	cmp	#$68
    395d: f0 03        	beq	$3962 <_ZN12_GLOBAL__N_15printEPKcP6Status+0x3d9>
    395f: 4c f9 38     	jmp	$38f9 <_ZN12_GLOBAL__N_15printEPKcP6Status+0x370>
    3962: a5 12        	lda	$12                     ; 0x12 <__rc2>
    3964: 18           	clc
    3965: 69 02        	adc	#$2
    3967: aa           	tax
    3968: a5 13        	lda	$13                     ; 0x13 <__rc3>
    396a: 69 00        	adc	#$0
    396c: 86 14        	stx	$14                     ; 0x14 <__rc4>
    396e: 85 15        	sta	$15                     ; 0x15 <__rc5>
    3970: 85 12        	sta	$12                     ; 0x12 <__rc2>
    3972: 8a           	txa
    3973: 92 26        	sta	($26)                   ; 0x26 <__rc22>
    3975: a0 01        	ldy	#$1
    3977: a5 12        	lda	$12                     ; 0x12 <__rc2>
    3979: 91 26        	sta	($26),y                 ; 0x26 <__rc22>
    397b: 4c ec 38     	jmp	$38ec <_ZN12_GLOBAL__N_15printEPKcP6Status+0x363>
    397e: a6 16        	ldx	$16                     ; 0x16 <__rc6>
    3980: e0 58        	cpx	#$58
    3982: f0 03        	beq	$3987 <_ZN12_GLOBAL__N_15printEPKcP6Status+0x3fe>
    3984: 4c 82 40     	jmp	$4082 <_ZN12_GLOBAL__N_15printEPKcP6Status+0xaf9>
    3987: a9 10        	lda	#$10
    3989: 4c c6 3a     	jmp	$3ac6 <_ZN12_GLOBAL__N_15printEPKcP6Status+0x53d>
    398c: a9 10        	lda	#$10
    398e: 92 24        	sta	($24)                   ; 0x24 <__rc20>
    3990: a6 24        	ldx	$24                     ; 0x24 <__rc20>
    3992: 86 12        	stx	$12                     ; 0x12 <__rc2>
    3994: a6 25        	ldx	$25                     ; 0x25 <__rc21>
    3996: 86 13        	stx	$13                     ; 0x13 <__rc3>
    3998: e6 12        	inc	$12                     ; 0x12 <__rc2>
    399a: d0 02        	bne	$399e <_ZN12_GLOBAL__N_15printEPKcP6Status+0x415>
    399c: e6 13        	inc	$13                     ; 0x13 <__rc3>
    399e: a0 01        	ldy	#$1
    39a0: a9 84        	lda	#$84
    39a2: 80 16        	bra	$39ba <_ZN12_GLOBAL__N_15printEPKcP6Status+0x431>
    39a4: a9 10        	lda	#$10
    39a6: 92 24        	sta	($24)                   ; 0x24 <__rc20>
    39a8: a6 24        	ldx	$24                     ; 0x24 <__rc20>
    39aa: 86 12        	stx	$12                     ; 0x12 <__rc2>
    39ac: a6 25        	ldx	$25                     ; 0x25 <__rc21>
    39ae: 86 13        	stx	$13                     ; 0x13 <__rc3>
    39b0: e6 12        	inc	$12                     ; 0x12 <__rc2>
    39b2: d0 02        	bne	$39b6 <_ZN12_GLOBAL__N_15printEPKcP6Status+0x42d>
    39b4: e6 13        	inc	$13                     ; 0x13 <__rc3>
    39b6: a0 01        	ldy	#$1
    39b8: a9 80        	lda	#$80
    39ba: 11 24        	ora	($24),y                 ; 0x24 <__rc20>
    39bc: aa           	tax
    39bd: a9 01        	lda	#$1
    39bf: 11 12        	ora	($12),y                 ; 0x12 <__rc2>
    39c1: 85 14        	sta	$14                     ; 0x14 <__rc4>
    39c3: 8a           	txa
    39c4: 91 24        	sta	($24),y                 ; 0x24 <__rc20>
    39c6: a5 14        	lda	$14                     ; 0x14 <__rc4>
    39c8: 4c e5 3a     	jmp	$3ae5 <_ZN12_GLOBAL__N_15printEPKcP6Status+0x55c>
    39cb: a4 24        	ldy	$24                     ; 0x24 <__rc20>
    39cd: 18           	clc
    39ce: a5 24        	lda	$24                     ; 0x24 <__rc20>
    39d0: 84 18        	sty	$18                     ; 0x18 <__rc8>
    39d2: 69 11        	adc	#$11
    39d4: 85 12        	sta	$12                     ; 0x12 <__rc2>
    39d6: a5 25        	lda	$25                     ; 0x25 <__rc21>
    39d8: 69 00        	adc	#$0
    39da: 85 13        	sta	$13                     ; 0x13 <__rc3>
    39dc: a0 11        	ldy	#$11
    39de: b1 24        	lda	($24),y                 ; 0x24 <__rc20>
    39e0: 85 16        	sta	$16                     ; 0x16 <__rc6>
    39e2: 18           	clc
    39e3: 69 02        	adc	#$2
    39e5: 91 24        	sta	($24),y                 ; 0x24 <__rc20>
    39e7: a0 01        	ldy	#$1
    39e9: b1 12        	lda	($12),y                 ; 0x12 <__rc2>
    39eb: 85 17        	sta	$17                     ; 0x17 <__rc7>
    39ed: 69 00        	adc	#$0
    39ef: 18           	clc
    39f0: 91 12        	sta	($12),y                 ; 0x12 <__rc2>
    39f2: b2 16        	lda	($16)                   ; 0x16 <__rc6>
    39f4: 85 12        	sta	$12                     ; 0x12 <__rc2>
    39f6: b1 16        	lda	($16),y                 ; 0x16 <__rc6>
    39f8: 85 13        	sta	$13                     ; 0x13 <__rc3>
    39fa: a5 18        	lda	$18                     ; 0x18 <__rc8>
    39fc: 69 05        	adc	#$5
    39fe: 85 16        	sta	$16                     ; 0x16 <__rc6>
    3a00: a5 25        	lda	$25                     ; 0x25 <__rc21>
    3a02: 69 00        	adc	#$0
    3a04: 85 17        	sta	$17                     ; 0x17 <__rc7>
    3a06: a0 05        	ldy	#$5
    3a08: b1 24        	lda	($24),y                 ; 0x24 <__rc20>
    3a0a: 85 18        	sta	$18                     ; 0x18 <__rc8>
    3a0c: a0 01        	ldy	#$1
    3a0e: b1 16        	lda	($16),y                 ; 0x16 <__rc6>
    3a10: 85 16        	sta	$16                     ; 0x16 <__rc6>
    3a12: a5 18        	lda	$18                     ; 0x18 <__rc8>
    3a14: 92 12        	sta	($12)                   ; 0x12 <__rc2>
    3a16: a5 16        	lda	$16                     ; 0x16 <__rc6>
    3a18: 91 12        	sta	($12),y                 ; 0x12 <__rc2>
    3a1a: e6 14        	inc	$14                     ; 0x14 <__rc4>
    3a1c: d0 02        	bne	$3a20 <_ZN12_GLOBAL__N_15printEPKcP6Status+0x497>
    3a1e: e6 15        	inc	$15                     ; 0x15 <__rc5>
    3a20: a6 14        	ldx	$14                     ; 0x14 <__rc4>
    3a22: 86 28        	stx	$28                     ; 0x28 <__rc24>
    3a24: a6 15        	ldx	$15                     ; 0x15 <__rc5>
    3a26: 86 29        	stx	$29                     ; 0x29 <__rc25>
    3a28: 4c 82 40     	jmp	$4082 <_ZN12_GLOBAL__N_15printEPKcP6Status+0xaf9>
    3a2b: a0 11        	ldy	#$11
    3a2d: a5 24        	lda	$24                     ; 0x24 <__rc20>
    3a2f: 18           	clc
    3a30: 69 11        	adc	#$11
    3a32: 85 12        	sta	$12                     ; 0x12 <__rc2>
    3a34: a5 25        	lda	$25                     ; 0x25 <__rc21>
    3a36: 69 00        	adc	#$0
    3a38: 85 13        	sta	$13                     ; 0x13 <__rc3>
    3a3a: b1 24        	lda	($24),y                 ; 0x24 <__rc20>
    3a3c: aa           	tax
    3a3d: a0 01        	ldy	#$1
    3a3f: b1 12        	lda	($12),y                 ; 0x12 <__rc2>
    3a41: 86 14        	stx	$14                     ; 0x14 <__rc4>
    3a43: 85 15        	sta	$15                     ; 0x15 <__rc5>
    3a45: a8           	tay
    3a46: 18           	clc
    3a47: 8a           	txa
    3a48: 69 02        	adc	#$2
    3a4a: 85 16        	sta	$16                     ; 0x16 <__rc6>
    3a4c: 98           	tya
    3a4d: 69 00        	adc	#$0
    3a4f: 85 17        	sta	$17                     ; 0x17 <__rc7>
    3a51: a5 16        	lda	$16                     ; 0x16 <__rc6>
    3a53: a0 11        	ldy	#$11
    3a55: 91 24        	sta	($24),y                 ; 0x24 <__rc20>
    3a57: a0 01        	ldy	#$1
    3a59: a5 17        	lda	$17                     ; 0x17 <__rc7>
    3a5b: 91 12        	sta	($12),y                 ; 0x12 <__rc2>
    3a5d: b2 14        	lda	($14)                   ; 0x14 <__rc4>
    3a5f: 85 12        	sta	$12                     ; 0x12 <__rc2>
    3a61: b1 14        	lda	($14),y                 ; 0x14 <__rc4>
    3a63: 85 13        	sta	$13                     ; 0x13 <__rc3>
    3a65: 4c b6 3a     	jmp	$3ab6 <_ZN12_GLOBAL__N_15printEPKcP6Status+0x52d>
    3a68: a9 08        	lda	#$8
    3a6a: 4c c6 3a     	jmp	$3ac6 <_ZN12_GLOBAL__N_15printEPKcP6Status+0x53d>
    3a6d: a0 11        	ldy	#$11
    3a6f: a5 24        	lda	$24                     ; 0x24 <__rc20>
    3a71: 18           	clc
    3a72: 69 11        	adc	#$11
    3a74: 85 12        	sta	$12                     ; 0x12 <__rc2>
    3a76: a5 25        	lda	$25                     ; 0x25 <__rc21>
    3a78: 69 00        	adc	#$0
    3a7a: 85 13        	sta	$13                     ; 0x13 <__rc3>
    3a7c: b1 24        	lda	($24),y                 ; 0x24 <__rc20>
    3a7e: aa           	tax
    3a7f: a0 01        	ldy	#$1
    3a81: b1 12        	lda	($12),y                 ; 0x12 <__rc2>
    3a83: 86 14        	stx	$14                     ; 0x14 <__rc4>
    3a85: 85 15        	sta	$15                     ; 0x15 <__rc5>
    3a87: a8           	tay
    3a88: 18           	clc
    3a89: 8a           	txa
    3a8a: 69 02        	adc	#$2
    3a8c: 85 16        	sta	$16                     ; 0x16 <__rc6>
    3a8e: 98           	tya
    3a8f: 69 00        	adc	#$0
    3a91: 85 17        	sta	$17                     ; 0x17 <__rc7>
    3a93: a5 16        	lda	$16                     ; 0x16 <__rc6>
    3a95: a0 11        	ldy	#$11
    3a97: 91 24        	sta	($24),y                 ; 0x24 <__rc20>
    3a99: a0 01        	ldy	#$1
    3a9b: a5 17        	lda	$17                     ; 0x17 <__rc7>
    3a9d: 91 12        	sta	($12),y                 ; 0x12 <__rc2>
    3a9f: b2 14        	lda	($14)                   ; 0x14 <__rc4>
    3aa1: 18           	clc
    3aa2: 48           	pha
    3aa3: a5 10        	lda	$10                     ; 0x10 <__rc0>
    3aa5: 69 18        	adc	#$18
    3aa7: 85 12        	sta	$12                     ; 0x12 <__rc2>
    3aa9: a5 11        	lda	$11                     ; 0x11 <__rc1>
    3aab: 69 00        	adc	#$0
    3aad: 85 13        	sta	$13                     ; 0x13 <__rc3>
    3aaf: 68           	pla
    3ab0: 92 12        	sta	($12)                   ; 0x12 <__rc2>
    3ab2: a9 00        	lda	#$0
    3ab4: 91 12        	sta	($12),y                 ; 0x12 <__rc2>
    3ab6: a6 24        	ldx	$24                     ; 0x24 <__rc20>
    3ab8: 86 14        	stx	$14                     ; 0x14 <__rc4>
    3aba: a6 25        	ldx	$25                     ; 0x25 <__rc21>
    3abc: 86 15        	stx	$15                     ; 0x15 <__rc5>
    3abe: 20 ae 41     	jsr	$41ae <_ZN12_GLOBAL__N_112print_stringEPKcP6Status>
    3ac1: 4c 72 40     	jmp	$4072 <_ZN12_GLOBAL__N_15printEPKcP6Status+0xae9>
    3ac4: a9 0a        	lda	#$a
    3ac6: 92 24        	sta	($24)                   ; 0x24 <__rc20>
    3ac8: a6 24        	ldx	$24                     ; 0x24 <__rc20>
    3aca: 86 12        	stx	$12                     ; 0x12 <__rc2>
    3acc: a6 25        	ldx	$25                     ; 0x25 <__rc21>
    3ace: 86 13        	stx	$13                     ; 0x13 <__rc3>
    3ad0: e6 12        	inc	$12                     ; 0x12 <__rc2>
    3ad2: d0 02        	bne	$3ad6 <_ZN12_GLOBAL__N_15printEPKcP6Status+0x54d>
    3ad4: e6 13        	inc	$13                     ; 0x13 <__rc3>
    3ad6: a0 01        	ldy	#$1
    3ad8: b1 24        	lda	($24),y                 ; 0x24 <__rc20>
    3ada: 85 14        	sta	$14                     ; 0x14 <__rc4>
    3adc: 98           	tya
    3add: 11 12        	ora	($12),y                 ; 0x12 <__rc2>
    3adf: aa           	tax
    3ae0: a5 14        	lda	$14                     ; 0x14 <__rc4>
    3ae2: 91 24        	sta	($24),y                 ; 0x24 <__rc20>
    3ae4: 8a           	txa
    3ae5: 91 12        	sta	($12),y                 ; 0x12 <__rc2>
    3ae7: 18           	clc
    3ae8: a5 10        	lda	$10                     ; 0x10 <__rc0>
    3aea: 69 0d        	adc	#$d
    3aec: 85 28        	sta	$28                     ; 0x28 <__rc24>
    3aee: a5 11        	lda	$11                     ; 0x11 <__rc1>
    3af0: 69 00        	adc	#$0
    3af2: 85 29        	sta	$29                     ; 0x29 <__rc25>
    3af4: a6 28        	ldx	$28                     ; 0x28 <__rc24>
    3af6: 86 12        	stx	$12                     ; 0x12 <__rc2>
    3af8: 85 13        	sta	$13                     ; 0x13 <__rc3>
    3afa: a0 0c        	ldy	#$c
    3afc: b1 10        	lda	($10),y                 ; 0x10 <__rc0>
    3afe: 20 60 05     	jsr	$560 <_ZN6__impl6VarInt4makeEPvc>
    3b01: a6 28        	ldx	$28                     ; 0x28 <__rc24>
    3b03: 86 12        	stx	$12                     ; 0x12 <__rc2>
    3b05: a6 29        	ldx	$29                     ; 0x29 <__rc25>
    3b07: 86 13        	stx	$13                     ; 0x13 <__rc3>
    3b09: e6 12        	inc	$12                     ; 0x12 <__rc2>
    3b0b: d0 02        	bne	$3b0f <_ZN12_GLOBAL__N_15printEPKcP6Status+0x586>
    3b0d: e6 13        	inc	$13                     ; 0x13 <__rc3>
    3b0f: a0 11        	ldy	#$11
    3b11: a2 00        	ldx	#$0
    3b13: a5 24        	lda	$24                     ; 0x24 <__rc20>
    3b15: 18           	clc
    3b16: 69 11        	adc	#$11
    3b18: 85 2c        	sta	$2c                     ; 0x2c <__rc28>
    3b1a: a5 25        	lda	$25                     ; 0x25 <__rc21>
    3b1c: 69 00        	adc	#$0
    3b1e: 85 2d        	sta	$2d                     ; 0x2d <__rc29>
    3b20: b1 24        	lda	($24),y                 ; 0x24 <__rc20>
    3b22: 85 2f        	sta	$2f                     ; 0x2f <__rc31>
    3b24: a0 01        	ldy	#$1
    3b26: b1 2c        	lda	($2c),y                 ; 0x2c <__rc28>
    3b28: a4 2f        	ldy	$2f                     ; 0x2f <__rc31>
    3b2a: 84 14        	sty	$14                     ; 0x14 <__rc4>
    3b2c: 85 15        	sta	$15                     ; 0x15 <__rc5>
    3b2e: 85 2e        	sta	$2e                     ; 0x2e <__rc30>
    3b30: b2 28        	lda	($28)                   ; 0x28 <__rc24>
    3b32: 64 16        	stz	$16                     ; 0x16 <__rc6>
    3b34: 48           	pha
    3b35: 8a           	txa
    3b36: a0 0c        	ldy	#$c
    3b38: 91 10        	sta	($10),y                 ; 0x10 <__rc0>
    3b3a: 68           	pla
    3b3b: 20 db 49     	jsr	$49db <memcpy>
    3b3e: 18           	clc
    3b3f: a9 00        	lda	#$0
    3b41: a0 0a        	ldy	#$a
    3b43: 91 10        	sta	($10),y                 ; 0x10 <__rc0>
    3b45: a5 2f        	lda	$2f                     ; 0x2f <__rc31>
    3b47: 65 2b        	adc	$2b                     ; 0x2b <__rc27>
    3b49: aa           	tax
    3b4a: a5 2e        	lda	$2e                     ; 0x2e <__rc30>
    3b4c: 69 00        	adc	#$0
    3b4e: 85 12        	sta	$12                     ; 0x12 <__rc2>
    3b50: a0 11        	ldy	#$11
    3b52: 8a           	txa
    3b53: 91 24        	sta	($24),y                 ; 0x24 <__rc20>
    3b55: a0 01        	ldy	#$1
    3b57: a5 12        	lda	$12                     ; 0x12 <__rc2>
    3b59: 91 2c        	sta	($2c),y                 ; 0x2c <__rc28>
    3b5b: a6 24        	ldx	$24                     ; 0x24 <__rc20>
    3b5d: 86 12        	stx	$12                     ; 0x12 <__rc2>
    3b5f: a6 25        	ldx	$25                     ; 0x25 <__rc21>
    3b61: 86 13        	stx	$13                     ; 0x13 <__rc3>
    3b63: e6 12        	inc	$12                     ; 0x12 <__rc2>
    3b65: d0 02        	bne	$3b69 <_ZN12_GLOBAL__N_15printEPKcP6Status+0x5e0>
    3b67: e6 13        	inc	$13                     ; 0x13 <__rc3>
    3b69: a9 01        	lda	#$1
    3b6b: 31 12        	and	($12),y                 ; 0x12 <__rc2>
    3b6d: d0 21        	bne	$3b90 <_ZN12_GLOBAL__N_15printEPKcP6Status+0x607>
    3b6f: a6 28        	ldx	$28                     ; 0x28 <__rc24>
    3b71: 86 12        	stx	$12                     ; 0x12 <__rc2>
    3b73: a6 29        	ldx	$29                     ; 0x29 <__rc25>
    3b75: 86 13        	stx	$13                     ; 0x13 <__rc3>
    3b77: 20 72 05     	jsr	$572 <_ZNK6__impl6VarInt8negativeEv>
    3b7a: 29 01        	and	#$1
    3b7c: f0 12        	beq	$3b90 <_ZN12_GLOBAL__N_15printEPKcP6Status+0x607>
    3b7e: a6 28        	ldx	$28                     ; 0x28 <__rc24>
    3b80: 86 12        	stx	$12                     ; 0x12 <__rc2>
    3b82: a6 29        	ldx	$29                     ; 0x29 <__rc25>
    3b84: 86 13        	stx	$13                     ; 0x13 <__rc3>
    3b86: 20 80 05     	jsr	$580 <_ZN6__impl6VarInt6negateEv>
    3b89: 38           	sec
    3b8a: a9 01        	lda	#$1
    3b8c: a0 0a        	ldy	#$a
    3b8e: 91 10        	sta	($10),y                 ; 0x10 <__rc0>
    3b90: b2 28        	lda	($28)                   ; 0x28 <__rc24>
    3b92: d0 03        	bne	$3b97 <_ZN12_GLOBAL__N_15printEPKcP6Status+0x60e>
    3b94: 4c 8e 3c     	jmp	$3c8e <_ZN12_GLOBAL__N_15printEPKcP6Status+0x705>
    3b97: b2 24        	lda	($24)                   ; 0x24 <__rc20>
    3b99: 85 2b        	sta	$2b                     ; 0x2b <__rc27>
    3b9b: 18           	clc
    3b9c: a5 10        	lda	$10                     ; 0x10 <__rc0>
    3b9e: 69 18        	adc	#$18
    3ba0: 48           	pha
    3ba1: a5 11        	lda	$11                     ; 0x11 <__rc1>
    3ba3: 69 00        	adc	#$0
    3ba5: 85 12        	sta	$12                     ; 0x12 <__rc2>
    3ba7: 68           	pla
    3ba8: 18           	clc
    3ba9: 69 02        	adc	#$2
    3bab: 85 2c        	sta	$2c                     ; 0x2c <__rc28>
    3bad: a5 12        	lda	$12                     ; 0x12 <__rc2>
    3baf: 69 00        	adc	#$0
    3bb1: 85 2d        	sta	$2d                     ; 0x2d <__rc29>
    3bb3: a2 00        	ldx	#$0
    3bb5: a0 00        	ldy	#$0
    3bb7: 8a           	txa
    3bb8: d0 03        	bne	$3bbd <_ZN12_GLOBAL__N_15printEPKcP6Status+0x634>
    3bba: 4c 37 3c     	jmp	$3c37 <_ZN12_GLOBAL__N_15printEPKcP6Status+0x6ae>
    3bbd: 84 2f        	sty	$2f                     ; 0x2f <__rc31>
    3bbf: 86 2e        	stx	$2e                     ; 0x2e <__rc30>
    3bc1: ca           	dex
    3bc2: 86 13        	stx	$13                     ; 0x13 <__rc3>
    3bc4: a2 00        	ldx	#$0
    3bc6: 64 12        	stz	$12                     ; 0x12 <__rc2>
    3bc8: 80 0c        	bra	$3bd6 <_ZN12_GLOBAL__N_15printEPKcP6Status+0x64d>
    3bca: a4 12        	ldy	$12                     ; 0x12 <__rc2>
    3bcc: 91 2c        	sta	($2c),y                 ; 0x2c <__rc28>
    3bce: a4 13        	ldy	$13                     ; 0x13 <__rc3>
    3bd0: c4 12        	cpy	$12                     ; 0x12 <__rc2>
    3bd2: f0 2f        	beq	$3c03 <_ZN12_GLOBAL__N_15printEPKcP6Status+0x67a>
    3bd4: e6 12        	inc	$12                     ; 0x12 <__rc2>
    3bd6: a4 12        	ldy	$12                     ; 0x12 <__rc2>
    3bd8: b1 2c        	lda	($2c),y                 ; 0x2c <__rc28>
    3bda: 0a           	asl
    3bdb: e0 00        	cpx	#$0
    3bdd: f0 02        	beq	$3be1 <_ZN12_GLOBAL__N_15printEPKcP6Status+0x658>
    3bdf: 09 01        	ora	#$1
    3be1: c5 2b        	cmp	$2b                     ; 0x2b <__rc27>
    3be3: a2 01        	ldx	#$1
    3be5: b0 02        	bcs	$3be9 <_ZN12_GLOBAL__N_15printEPKcP6Status+0x660>
    3be7: a2 00        	ldx	#$0
    3be9: 90 df        	bcc	$3bca <_ZN12_GLOBAL__N_15printEPKcP6Status+0x641>
    3beb: 38           	sec
    3bec: e5 2b        	sbc	$2b                     ; 0x2b <__rc27>
    3bee: a4 12        	ldy	$12                     ; 0x12 <__rc2>
    3bf0: 91 2c        	sta	($2c),y                 ; 0x2c <__rc28>
    3bf2: a4 13        	ldy	$13                     ; 0x13 <__rc3>
    3bf4: c4 12        	cpy	$12                     ; 0x12 <__rc2>
    3bf6: d0 dc        	bne	$3bd4 <_ZN12_GLOBAL__N_15printEPKcP6Status+0x64b>
    3bf8: a4 2e        	ldy	$2e                     ; 0x2e <__rc30>
    3bfa: a6 2e        	ldx	$2e                     ; 0x2e <__rc30>
    3bfc: e8           	inx
    3bfd: a9 01        	lda	#$1
    3bff: 91 2c        	sta	($2c),y                 ; 0x2c <__rc28>
    3c01: 86 2e        	stx	$2e                     ; 0x2e <__rc30>
    3c03: a6 28        	ldx	$28                     ; 0x28 <__rc24>
    3c05: 86 12        	stx	$12                     ; 0x12 <__rc2>
    3c07: a6 29        	ldx	$29                     ; 0x29 <__rc25>
    3c09: 86 13        	stx	$13                     ; 0x13 <__rc3>
    3c0b: 20 64 05     	jsr	$564 <_ZNK6__impl6VarInt8high_bitEv>
    3c0e: 29 01        	and	#$1
    3c10: f0 21        	beq	$3c33 <_ZN12_GLOBAL__N_15printEPKcP6Status+0x6aa>
    3c12: a0 00        	ldy	#$0
    3c14: a5 2e        	lda	$2e                     ; 0x2e <__rc30>
    3c16: f0 33        	beq	$3c4b <_ZN12_GLOBAL__N_15printEPKcP6Status+0x6c2>
    3c18: b1 2c        	lda	($2c),y                 ; 0x2c <__rc28>
    3c1a: 1a           	inc
    3c1b: 91 2c        	sta	($2c),y                 ; 0x2c <__rc28>
    3c1d: c5 2b        	cmp	$2b                     ; 0x2b <__rc27>
    3c1f: 90 12        	bcc	$3c33 <_ZN12_GLOBAL__N_15printEPKcP6Status+0x6aa>
    3c21: 38           	sec
    3c22: e5 2b        	sbc	$2b                     ; 0x2b <__rc27>
    3c24: 91 2c        	sta	($2c),y                 ; 0x2c <__rc28>
    3c26: c8           	iny
    3c27: 84 12        	sty	$12                     ; 0x12 <__rc2>
    3c29: a6 2e        	ldx	$2e                     ; 0x2e <__rc30>
    3c2b: e4 12        	cpx	$12                     ; 0x12 <__rc2>
    3c2d: d0 e9        	bne	$3c18 <_ZN12_GLOBAL__N_15printEPKcP6Status+0x68f>
    3c2f: a4 2e        	ldy	$2e                     ; 0x2e <__rc30>
    3c31: 80 18        	bra	$3c4b <_ZN12_GLOBAL__N_15printEPKcP6Status+0x6c2>
    3c33: a4 2e        	ldy	$2e                     ; 0x2e <__rc30>
    3c35: 80 1d        	bra	$3c54 <_ZN12_GLOBAL__N_15printEPKcP6Status+0x6cb>
    3c37: 84 2f        	sty	$2f                     ; 0x2f <__rc31>
    3c39: a6 28        	ldx	$28                     ; 0x28 <__rc24>
    3c3b: 86 12        	stx	$12                     ; 0x12 <__rc2>
    3c3d: a6 29        	ldx	$29                     ; 0x29 <__rc25>
    3c3f: 86 13        	stx	$13                     ; 0x13 <__rc3>
    3c41: 20 64 05     	jsr	$564 <_ZNK6__impl6VarInt8high_bitEv>
    3c44: 29 01        	and	#$1
    3c46: a0 00        	ldy	#$0
    3c48: aa           	tax
    3c49: f0 09        	beq	$3c54 <_ZN12_GLOBAL__N_15printEPKcP6Status+0x6cb>
    3c4b: 5a           	phy
    3c4c: fa           	plx
    3c4d: e8           	inx
    3c4e: a9 01        	lda	#$1
    3c50: 91 2c        	sta	($2c),y                 ; 0x2c <__rc28>
    3c52: da           	phx
    3c53: 7a           	ply
    3c54: 98           	tya
    3c55: a0 0c        	ldy	#$c
    3c57: 91 10        	sta	($10),y                 ; 0x10 <__rc0>
    3c59: a6 28        	ldx	$28                     ; 0x28 <__rc24>
    3c5b: 86 12        	stx	$12                     ; 0x12 <__rc2>
    3c5d: a6 29        	ldx	$29                     ; 0x29 <__rc25>
    3c5f: 86 13        	stx	$13                     ; 0x13 <__rc3>
    3c61: 20 c8 05     	jsr	$5c8 <_ZN6__impl6VarInt3shlEv>
    3c64: a4 2f        	ldy	$2f                     ; 0x2f <__rc31>
    3c66: c8           	iny
    3c67: b2 28        	lda	($28)                   ; 0x28 <__rc24>
    3c69: 0a           	asl
    3c6a: 64 13        	stz	$13                     ; 0x13 <__rc3>
    3c6c: 26 13        	rol	$13                     ; 0x13 <__rc3>
    3c6e: 0a           	asl
    3c6f: 26 13        	rol	$13                     ; 0x13 <__rc3>
    3c71: 0a           	asl
    3c72: 26 13        	rol	$13                     ; 0x13 <__rc3>
    3c74: a2 00        	ldx	#$0
    3c76: e4 13        	cpx	$13                     ; 0x13 <__rc3>
    3c78: d0 06        	bne	$3c80 <_ZN12_GLOBAL__N_15printEPKcP6Status+0x6f7>
    3c7a: 85 12        	sta	$12                     ; 0x12 <__rc2>
    3c7c: c4 12        	cpy	$12                     ; 0x12 <__rc2>
    3c7e: 80 02        	bra	$3c82 <_ZN12_GLOBAL__N_15printEPKcP6Status+0x6f9>
    3c80: e4 13        	cpx	$13                     ; 0x13 <__rc3>
    3c82: 5a           	phy
    3c83: a0 0c        	ldy	#$c
    3c85: b1 10        	lda	($10),y                 ; 0x10 <__rc0>
    3c87: 7a           	ply
    3c88: aa           	tax
    3c89: b0 03        	bcs	$3c8e <_ZN12_GLOBAL__N_15printEPKcP6Status+0x705>
    3c8b: 4c b7 3b     	jmp	$3bb7 <_ZN12_GLOBAL__N_15printEPKcP6Status+0x62e>
    3c8e: a5 24        	lda	$24                     ; 0x24 <__rc20>
    3c90: 18           	clc
    3c91: 69 0d        	adc	#$d
    3c93: 85 12        	sta	$12                     ; 0x12 <__rc2>
    3c95: a5 25        	lda	$25                     ; 0x25 <__rc21>
    3c97: 69 00        	adc	#$0
    3c99: 85 13        	sta	$13                     ; 0x13 <__rc3>
    3c9b: a0 01        	ldy	#$1
    3c9d: b1 12        	lda	($12),y                 ; 0x12 <__rc2>
    3c9f: 30 0a        	bmi	$3cab <_ZN12_GLOBAL__N_15printEPKcP6Status+0x722>
    3ca1: a0 0d        	ldy	#$d
    3ca3: 85 29        	sta	$29                     ; 0x29 <__rc25>
    3ca5: b1 24        	lda	($24),y                 ; 0x24 <__rc20>
    3ca7: 85 28        	sta	$28                     ; 0x28 <__rc24>
    3ca9: 80 04        	bra	$3caf <_ZN12_GLOBAL__N_15printEPKcP6Status+0x726>
    3cab: 64 29        	stz	$29                     ; 0x29 <__rc25>
    3cad: 84 28        	sty	$28                     ; 0x28 <__rc24>
    3caf: a0 01        	ldy	#$1
    3cb1: b1 24        	lda	($24),y                 ; 0x24 <__rc20>
    3cb3: 85 18        	sta	$18                     ; 0x18 <__rc8>
    3cb5: 29 04        	and	#$4
    3cb7: f0 35        	beq	$3cee <_ZN12_GLOBAL__N_15printEPKcP6Status+0x765>
    3cb9: b2 24        	lda	($24)                   ; 0x24 <__rc20>
    3cbb: c9 10        	cmp	#$10
    3cbd: f0 18        	beq	$3cd7 <_ZN12_GLOBAL__N_15printEPKcP6Status+0x74e>
    3cbf: c9 08        	cmp	#$8
    3cc1: d0 2b        	bne	$3cee <_ZN12_GLOBAL__N_15printEPKcP6Status+0x765>
    3cc3: a2 00        	ldx	#$0
    3cc5: e4 29        	cpx	$29                     ; 0x29 <__rc25>
    3cc7: f0 03        	beq	$3ccc <_ZN12_GLOBAL__N_15printEPKcP6Status+0x743>
    3cc9: 4c 8d 3e     	jmp	$3e8d <_ZN12_GLOBAL__N_15printEPKcP6Status+0x904>
    3ccc: 5a           	phy
    3ccd: a0 0c        	ldy	#$c
    3ccf: b1 10        	lda	($10),y                 ; 0x10 <__rc0>
    3cd1: 7a           	ply
    3cd2: c5 28        	cmp	$28                     ; 0x28 <__rc24>
    3cd4: 4c 8f 3e     	jmp	$3e8f <_ZN12_GLOBAL__N_15printEPKcP6Status+0x906>
    3cd7: 5a           	phy
    3cd8: a0 0c        	ldy	#$c
    3cda: b1 10        	lda	($10),y                 ; 0x10 <__rc0>
    3cdc: 7a           	ply
    3cdd: aa           	tax
    3cde: f0 0e        	beq	$3cee <_ZN12_GLOBAL__N_15printEPKcP6Status+0x765>
    3ce0: a5 18        	lda	$18                     ; 0x18 <__rc8>
    3ce2: 29 80        	and	#$80
    3ce4: d0 03        	bne	$3ce9 <_ZN12_GLOBAL__N_15printEPKcP6Status+0x760>
    3ce6: 4c aa 3e     	jmp	$3eaa <_ZN12_GLOBAL__N_15printEPKcP6Status+0x921>
    3ce9: a2 78        	ldx	#$78
    3ceb: 4c ac 3e     	jmp	$3eac <_ZN12_GLOBAL__N_15printEPKcP6Status+0x923>
    3cee: a5 18        	lda	$18                     ; 0x18 <__rc8>
    3cf0: a2 2d        	ldx	#$2d
    3cf2: 48           	pha
    3cf3: 5a           	phy
    3cf4: 8a           	txa
    3cf5: a0 09        	ldy	#$9
    3cf7: 91 10        	sta	($10),y                 ; 0x10 <__rc0>
    3cf9: c8           	iny
    3cfa: b1 10        	lda	($10),y                 ; 0x10 <__rc0>
    3cfc: 7a           	ply
    3cfd: 85 12        	sta	$12                     ; 0x12 <__rc2>
    3cff: 68           	pla
    3d00: a6 12        	ldx	$12                     ; 0x12 <__rc2>
    3d02: f0 0d        	beq	$3d11 <_ZN12_GLOBAL__N_15printEPKcP6Status+0x788>
    3d04: 18           	clc
    3d05: a9 00        	lda	#$0
    3d07: 5a           	phy
    3d08: a0 0a        	ldy	#$a
    3d0a: 91 10        	sta	($10),y                 ; 0x10 <__rc0>
    3d0c: 7a           	ply
    3d0d: 84 12        	sty	$12                     ; 0x12 <__rc2>
    3d0f: 80 2f        	bra	$3d40 <_ZN12_GLOBAL__N_15printEPKcP6Status+0x7b7>
    3d11: aa           	tax
    3d12: 29 02        	and	#$2
    3d14: a0 2b        	ldy	#$2b
    3d16: 48           	pha
    3d17: 98           	tya
    3d18: a0 09        	ldy	#$9
    3d1a: 91 10        	sta	($10),y                 ; 0x10 <__rc0>
    3d1c: 68           	pla
    3d1d: d0 16        	bne	$3d35 <_ZN12_GLOBAL__N_15printEPKcP6Status+0x7ac>
    3d1f: 8a           	txa
    3d20: 29 08        	and	#$8
    3d22: a0 01        	ldy	#$1
    3d24: aa           	tax
    3d25: f0 03        	beq	$3d2a <_ZN12_GLOBAL__N_15printEPKcP6Status+0x7a1>
    3d27: 4c 7f 3e     	jmp	$3e7f <_ZN12_GLOBAL__N_15printEPKcP6Status+0x8f6>
    3d2a: 38           	sec
    3d2b: a9 01        	lda	#$1
    3d2d: a0 0a        	ldy	#$a
    3d2f: 91 10        	sta	($10),y                 ; 0x10 <__rc0>
    3d31: 64 12        	stz	$12                     ; 0x12 <__rc2>
    3d33: 80 0b        	bra	$3d40 <_ZN12_GLOBAL__N_15printEPKcP6Status+0x7b7>
    3d35: 18           	clc
    3d36: a9 00        	lda	#$0
    3d38: a0 0a        	ldy	#$a
    3d3a: 91 10        	sta	($10),y                 ; 0x10 <__rc0>
    3d3c: a2 01        	ldx	#$1
    3d3e: 86 12        	stx	$12                     ; 0x12 <__rc2>
    3d40: a0 0c        	ldy	#$c
    3d42: b1 10        	lda	($10),y                 ; 0x10 <__rc0>
    3d44: a8           	tay
    3d45: a5 29        	lda	$29                     ; 0x29 <__rc25>
    3d47: d0 4d        	bne	$3d96 <_ZN12_GLOBAL__N_15printEPKcP6Status+0x80d>
    3d49: a6 28        	ldx	$28                     ; 0x28 <__rc24>
    3d4b: 84 13        	sty	$13                     ; 0x13 <__rc3>
    3d4d: e4 13        	cpx	$13                     ; 0x13 <__rc3>
    3d4f: a5 28        	lda	$28                     ; 0x28 <__rc24>
    3d51: a6 29        	ldx	$29                     ; 0x29 <__rc25>
    3d53: b0 03        	bcs	$3d58 <_ZN12_GLOBAL__N_15printEPKcP6Status+0x7cf>
    3d55: 98           	tya
    3d56: a2 00        	ldx	#$0
    3d58: 18           	clc
    3d59: 85 19        	sta	$19                     ; 0x19 <__rc9>
    3d5b: 65 12        	adc	$12                     ; 0x12 <__rc2>
    3d5d: 85 1c        	sta	$1c                     ; 0x1c <__rc12>
    3d5f: 85 13        	sta	$13                     ; 0x13 <__rc3>
    3d61: 86 1a        	stx	$1a                     ; 0x1a <__rc10>
    3d63: 8a           	txa
    3d64: 69 00        	adc	#$0
    3d66: 85 14        	sta	$14                     ; 0x14 <__rc4>
    3d68: 85 1d        	sta	$1d                     ; 0x1d <__rc13>
    3d6a: a5 24        	lda	$24                     ; 0x24 <__rc20>
    3d6c: 18           	clc
    3d6d: 69 0b        	adc	#$b
    3d6f: 85 16        	sta	$16                     ; 0x16 <__rc6>
    3d71: a5 25        	lda	$25                     ; 0x25 <__rc21>
    3d73: 69 00        	adc	#$0
    3d75: a0 0b        	ldy	#$b
    3d77: 85 17        	sta	$17                     ; 0x17 <__rc7>
    3d79: b1 24        	lda	($24),y                 ; 0x24 <__rc20>
    3d7b: 85 1b        	sta	$1b                     ; 0x1b <__rc11>
    3d7d: 85 15        	sta	$15                     ; 0x15 <__rc5>
    3d7f: a0 01        	ldy	#$1
    3d81: b1 16        	lda	($16),y                 ; 0x16 <__rc6>
    3d83: 85 17        	sta	$17                     ; 0x17 <__rc7>
    3d85: 85 16        	sta	$16                     ; 0x16 <__rc6>
    3d87: a5 1d        	lda	$1d                     ; 0x1d <__rc13>
    3d89: c5 16        	cmp	$16                     ; 0x16 <__rc6>
    3d8b: d0 13        	bne	$3da0 <_ZN12_GLOBAL__N_15printEPKcP6Status+0x817>
    3d8d: a6 1c        	ldx	$1c                     ; 0x1c <__rc12>
    3d8f: e4 15        	cpx	$15                     ; 0x15 <__rc5>
    3d91: 90 13        	bcc	$3da6 <_ZN12_GLOBAL__N_15printEPKcP6Status+0x81d>
    3d93: 4c ee 3d     	jmp	$3dee <_ZN12_GLOBAL__N_15printEPKcP6Status+0x865>
    3d96: a6 29        	ldx	$29                     ; 0x29 <__rc25>
    3d98: e0 00        	cpx	#$0
    3d9a: a5 28        	lda	$28                     ; 0x28 <__rc24>
    3d9c: 90 b7        	bcc	$3d55 <_ZN12_GLOBAL__N_15printEPKcP6Status+0x7cc>
    3d9e: 80 b8        	bra	$3d58 <_ZN12_GLOBAL__N_15printEPKcP6Status+0x7cf>
    3da0: a6 1d        	ldx	$1d                     ; 0x1d <__rc13>
    3da2: e4 16        	cpx	$16                     ; 0x16 <__rc6>
    3da4: b0 48        	bcs	$3dee <_ZN12_GLOBAL__N_15printEPKcP6Status+0x865>
    3da6: a5 18        	lda	$18                     ; 0x18 <__rc8>
    3da8: 29 11        	and	#$11
    3daa: f0 0d        	beq	$3db9 <_ZN12_GLOBAL__N_15printEPKcP6Status+0x830>
    3dac: a5 1b        	lda	$1b                     ; 0x1b <__rc11>
    3dae: 38           	sec
    3daf: e5 13        	sbc	$13                     ; 0x13 <__rc3>
    3db1: 85 2a        	sta	$2a                     ; 0x2a <__rc26>
    3db3: a5 17        	lda	$17                     ; 0x17 <__rc7>
    3db5: e5 14        	sbc	$14                     ; 0x14 <__rc4>
    3db7: 80 37        	bra	$3df0 <_ZN12_GLOBAL__N_15printEPKcP6Status+0x867>
    3db9: 18           	clc
    3dba: a5 19        	lda	$19                     ; 0x19 <__rc9>
    3dbc: 65 12        	adc	$12                     ; 0x12 <__rc2>
    3dbe: aa           	tax
    3dbf: a5 1a        	lda	$1a                     ; 0x1a <__rc10>
    3dc1: 69 00        	adc	#$0
    3dc3: 85 12        	sta	$12                     ; 0x12 <__rc2>
    3dc5: 38           	sec
    3dc6: 8a           	txa
    3dc7: e5 15        	sbc	$15                     ; 0x15 <__rc5>
    3dc9: 85 2b        	sta	$2b                     ; 0x2b <__rc27>
    3dcb: a5 12        	lda	$12                     ; 0x12 <__rc2>
    3dcd: e5 16        	sbc	$16                     ; 0x16 <__rc6>
    3dcf: 85 2c        	sta	$2c                     ; 0x2c <__rc28>
    3dd1: a6 24        	ldx	$24                     ; 0x24 <__rc20>
    3dd3: 86 12        	stx	$12                     ; 0x12 <__rc2>
    3dd5: a6 25        	ldx	$25                     ; 0x25 <__rc21>
    3dd7: 86 13        	stx	$13                     ; 0x13 <__rc3>
    3dd9: a9 20        	lda	#$20
    3ddb: 20 cd 40     	jsr	$40cd <_ZN12_GLOBAL__N_13putEcP6Status>
    3dde: a6 2c        	ldx	$2c                     ; 0x2c <__rc28>
    3de0: e6 2b        	inc	$2b                     ; 0x2b <__rc27>
    3de2: d0 01        	bne	$3de5 <_ZN12_GLOBAL__N_15printEPKcP6Status+0x85c>
    3de4: e8           	inx
    3de5: 86 2c        	stx	$2c                     ; 0x2c <__rc28>
    3de7: 8a           	txa
    3de8: d0 e7        	bne	$3dd1 <_ZN12_GLOBAL__N_15printEPKcP6Status+0x848>
    3dea: a5 2b        	lda	$2b                     ; 0x2b <__rc27>
    3dec: d0 e3        	bne	$3dd1 <_ZN12_GLOBAL__N_15printEPKcP6Status+0x848>
    3dee: a9 00        	lda	#$0
    3df0: 85 2b        	sta	$2b                     ; 0x2b <__rc27>
    3df2: a0 0a        	ldy	#$a
    3df4: b1 10        	lda	($10),y                 ; 0x10 <__rc0>
    3df6: 85 12        	sta	$12                     ; 0x12 <__rc2>
    3df8: a5 12        	lda	$12                     ; 0x12 <__rc2>
    3dfa: d0 0f        	bne	$3e0b <_ZN12_GLOBAL__N_15printEPKcP6Status+0x882>
    3dfc: a6 24        	ldx	$24                     ; 0x24 <__rc20>
    3dfe: 86 12        	stx	$12                     ; 0x12 <__rc2>
    3e00: a6 25        	ldx	$25                     ; 0x25 <__rc21>
    3e02: 86 13        	stx	$13                     ; 0x13 <__rc3>
    3e04: a0 09        	ldy	#$9
    3e06: b1 10        	lda	($10),y                 ; 0x10 <__rc0>
    3e08: 20 cd 40     	jsr	$40cd <_ZN12_GLOBAL__N_13putEcP6Status>
    3e0b: a0 0b        	ldy	#$b
    3e0d: b1 10        	lda	($10),y                 ; 0x10 <__rc0>
    3e0f: 85 12        	sta	$12                     ; 0x12 <__rc2>
    3e11: a5 12        	lda	$12                     ; 0x12 <__rc2>
    3e13: f0 0f        	beq	$3e24 <_ZN12_GLOBAL__N_15printEPKcP6Status+0x89b>
    3e15: a6 24        	ldx	$24                     ; 0x24 <__rc20>
    3e17: 86 12        	stx	$12                     ; 0x12 <__rc2>
    3e19: a6 25        	ldx	$25                     ; 0x25 <__rc21>
    3e1b: 86 13        	stx	$13                     ; 0x13 <__rc3>
    3e1d: a0 08        	ldy	#$8
    3e1f: b1 10        	lda	($10),y                 ; 0x10 <__rc0>
    3e21: 20 cd 40     	jsr	$40cd <_ZN12_GLOBAL__N_13putEcP6Status>
    3e24: a0 01        	ldy	#$1
    3e26: b1 24        	lda	($24),y                 ; 0x24 <__rc20>
    3e28: aa           	tax
    3e29: 29 10        	and	#$10
    3e2b: f0 3a        	beq	$3e67 <_ZN12_GLOBAL__N_15printEPKcP6Status+0x8de>
    3e2d: 8a           	txa
    3e2e: 29 01        	and	#$1
    3e30: 48           	pha
    3e31: a0 0c        	ldy	#$c
    3e33: b1 10        	lda	($10),y                 ; 0x10 <__rc0>
    3e35: aa           	tax
    3e36: 68           	pla
    3e37: d0 33        	bne	$3e6c <_ZN12_GLOBAL__N_15printEPKcP6Status+0x8e3>
    3e39: a5 2b        	lda	$2b                     ; 0x2b <__rc27>
    3e3b: d0 07        	bne	$3e44 <_ZN12_GLOBAL__N_15printEPKcP6Status+0x8bb>
    3e3d: a5 2a        	lda	$2a                     ; 0x2a <__rc26>
    3e3f: d0 03        	bne	$3e44 <_ZN12_GLOBAL__N_15printEPKcP6Status+0x8bb>
    3e41: 4c d3 3e     	jmp	$3ed3 <_ZN12_GLOBAL__N_15printEPKcP6Status+0x94a>
    3e44: a6 24        	ldx	$24                     ; 0x24 <__rc20>
    3e46: 86 12        	stx	$12                     ; 0x12 <__rc2>
    3e48: a6 25        	ldx	$25                     ; 0x25 <__rc21>
    3e4a: 86 13        	stx	$13                     ; 0x13 <__rc3>
    3e4c: a9 30        	lda	#$30
    3e4e: 20 cd 40     	jsr	$40cd <_ZN12_GLOBAL__N_13putEcP6Status>
    3e51: a2 ff        	ldx	#$ff
    3e53: c6 2a        	dec	$2a                     ; 0x2a <__rc26>
    3e55: e4 2a        	cpx	$2a                     ; 0x2a <__rc26>
    3e57: d0 02        	bne	$3e5b <_ZN12_GLOBAL__N_15printEPKcP6Status+0x8d2>
    3e59: c6 2b        	dec	$2b                     ; 0x2b <__rc27>
    3e5b: a5 2b        	lda	$2b                     ; 0x2b <__rc27>
    3e5d: d0 e5        	bne	$3e44 <_ZN12_GLOBAL__N_15printEPKcP6Status+0x8bb>
    3e5f: a5 2a        	lda	$2a                     ; 0x2a <__rc26>
    3e61: d0 e1        	bne	$3e44 <_ZN12_GLOBAL__N_15printEPKcP6Status+0x8bb>
    3e63: 64 2a        	stz	$2a                     ; 0x2a <__rc26>
    3e65: 64 2b        	stz	$2b                     ; 0x2b <__rc27>
    3e67: a0 0c        	ldy	#$c
    3e69: b1 10        	lda	($10),y                 ; 0x10 <__rc0>
    3e6b: aa           	tax
    3e6c: a0 00        	ldy	#$0
    3e6e: c4 29        	cpy	$29                     ; 0x29 <__rc25>
    3e70: d0 03        	bne	$3e75 <_ZN12_GLOBAL__N_15printEPKcP6Status+0x8ec>
    3e72: 4c df 3e     	jmp	$3edf <_ZN12_GLOBAL__N_15printEPKcP6Status+0x956>
    3e75: c4 29        	cpy	$29                     ; 0x29 <__rc25>
    3e77: b0 03        	bcs	$3e7c <_ZN12_GLOBAL__N_15printEPKcP6Status+0x8f3>
    3e79: 4c e3 3e     	jmp	$3ee3 <_ZN12_GLOBAL__N_15printEPKcP6Status+0x95a>
    3e7c: 4c 09 3f     	jmp	$3f09 <_ZN12_GLOBAL__N_15printEPKcP6Status+0x980>
    3e7f: a2 20        	ldx	#$20
    3e81: 5a           	phy
    3e82: 8a           	txa
    3e83: a0 09        	ldy	#$9
    3e85: 91 10        	sta	($10),y                 ; 0x10 <__rc0>
    3e87: 18           	clc
    3e88: a9 00        	lda	#$0
    3e8a: 4c 08 3d     	jmp	$3d08 <_ZN12_GLOBAL__N_15printEPKcP6Status+0x77f>
    3e8d: e4 29        	cpx	$29                     ; 0x29 <__rc25>
    3e8f: a5 18        	lda	$18                     ; 0x18 <__rc8>
    3e91: b0 03        	bcs	$3e96 <_ZN12_GLOBAL__N_15printEPKcP6Status+0x90d>
    3e93: 4c f0 3c     	jmp	$3cf0 <_ZN12_GLOBAL__N_15printEPKcP6Status+0x767>
    3e96: 48           	pha
    3e97: 5a           	phy
    3e98: a0 0c        	ldy	#$c
    3e9a: b1 10        	lda	($10),y                 ; 0x10 <__rc0>
    3e9c: 7a           	ply
    3e9d: 85 28        	sta	$28                     ; 0x28 <__rc24>
    3e9f: 68           	pla
    3ea0: e6 28        	inc	$28                     ; 0x28 <__rc24>
    3ea2: d0 01        	bne	$3ea5 <_ZN12_GLOBAL__N_15printEPKcP6Status+0x91c>
    3ea4: e8           	inx
    3ea5: 86 29        	stx	$29                     ; 0x29 <__rc25>
    3ea7: 4c f0 3c     	jmp	$3cf0 <_ZN12_GLOBAL__N_15printEPKcP6Status+0x767>
    3eaa: a2 58        	ldx	#$58
    3eac: 8a           	txa
    3ead: a0 08        	ldy	#$8
    3eaf: 91 10        	sta	($10),y                 ; 0x10 <__rc0>
    3eb1: a0 0c        	ldy	#$c
    3eb3: b1 10        	lda	($10),y                 ; 0x10 <__rc0>
    3eb5: a8           	tay
    3eb6: 38           	sec
    3eb7: 5a           	phy
    3eb8: a9 01        	lda	#$1
    3eba: a0 0b        	ldy	#$b
    3ebc: 91 10        	sta	($10),y                 ; 0x10 <__rc0>
    3ebe: a2 30        	ldx	#$30
    3ec0: 8a           	txa
    3ec1: a0 09        	ldy	#$9
    3ec3: 91 10        	sta	($10),y                 ; 0x10 <__rc0>
    3ec5: a2 02        	ldx	#$2
    3ec7: 18           	clc
    3ec8: a9 00        	lda	#$0
    3eca: c8           	iny
    3ecb: 91 10        	sta	($10),y                 ; 0x10 <__rc0>
    3ecd: 7a           	ply
    3ece: 86 12        	stx	$12                     ; 0x12 <__rc2>
    3ed0: 4c 45 3d     	jmp	$3d45 <_ZN12_GLOBAL__N_15printEPKcP6Status+0x7bc>
    3ed3: 64 2a        	stz	$2a                     ; 0x2a <__rc26>
    3ed5: 64 2b        	stz	$2b                     ; 0x2b <__rc27>
    3ed7: 4c 6c 3e     	jmp	$3e6c <_ZN12_GLOBAL__N_15printEPKcP6Status+0x8e3>
    3eda: a0 0c        	ldy	#$c
    3edc: b1 10        	lda	($10),y                 ; 0x10 <__rc0>
    3ede: aa           	tax
    3edf: e4 28        	cpx	$28                     ; 0x28 <__rc24>
    3ee1: b0 26        	bcs	$3f09 <_ZN12_GLOBAL__N_15printEPKcP6Status+0x980>
    3ee3: a2 ff        	ldx	#$ff
    3ee5: c6 28        	dec	$28                     ; 0x28 <__rc24>
    3ee7: e4 28        	cpx	$28                     ; 0x28 <__rc24>
    3ee9: d0 02        	bne	$3eed <_ZN12_GLOBAL__N_15printEPKcP6Status+0x964>
    3eeb: c6 29        	dec	$29                     ; 0x29 <__rc25>
    3eed: a6 24        	ldx	$24                     ; 0x24 <__rc20>
    3eef: 86 12        	stx	$12                     ; 0x12 <__rc2>
    3ef1: a6 25        	ldx	$25                     ; 0x25 <__rc21>
    3ef3: 86 13        	stx	$13                     ; 0x13 <__rc3>
    3ef5: a9 30        	lda	#$30
    3ef7: 20 cd 40     	jsr	$40cd <_ZN12_GLOBAL__N_13putEcP6Status>
    3efa: a2 00        	ldx	#$0
    3efc: e4 29        	cpx	$29                     ; 0x29 <__rc25>
    3efe: f0 da        	beq	$3eda <_ZN12_GLOBAL__N_15printEPKcP6Status+0x951>
    3f00: e4 29        	cpx	$29                     ; 0x29 <__rc25>
    3f02: a0 0c        	ldy	#$c
    3f04: b1 10        	lda	($10),y                 ; 0x10 <__rc0>
    3f06: aa           	tax
    3f07: 90 da        	bcc	$3ee3 <_ZN12_GLOBAL__N_15printEPKcP6Status+0x95a>
    3f09: a4 2b        	ldy	$2b                     ; 0x2b <__rc27>
    3f0b: 84 2c        	sty	$2c                     ; 0x2c <__rc28>
    3f0d: 8a           	txa
    3f0e: d0 03        	bne	$3f13 <_ZN12_GLOBAL__N_15printEPKcP6Status+0x98a>
    3f10: 4c bd 3f     	jmp	$3fbd <_ZN12_GLOBAL__N_15printEPKcP6Status+0xa34>
    3f13: ca           	dex
    3f14: d0 03        	bne	$3f19 <_ZN12_GLOBAL__N_15printEPKcP6Status+0x990>
    3f16: 4c 7f 3f     	jmp	$3f7f <_ZN12_GLOBAL__N_15printEPKcP6Status+0x9f6>
    3f19: 86 2b        	stx	$2b                     ; 0x2b <__rc27>
    3f1b: 18           	clc
    3f1c: a5 10        	lda	$10                     ; 0x10 <__rc0>
    3f1e: 69 18        	adc	#$18
    3f20: 48           	pha
    3f21: a5 11        	lda	$11                     ; 0x11 <__rc1>
    3f23: 69 00        	adc	#$0
    3f25: 85 12        	sta	$12                     ; 0x12 <__rc2>
    3f27: 68           	pla
    3f28: 18           	clc
    3f29: 65 2b        	adc	$2b                     ; 0x2b <__rc27>
    3f2b: aa           	tax
    3f2c: a5 12        	lda	$12                     ; 0x12 <__rc2>
    3f2e: 69 00        	adc	#$0
    3f30: 85 12        	sta	$12                     ; 0x12 <__rc2>
    3f32: 18           	clc
    3f33: 8a           	txa
    3f34: 69 02        	adc	#$2
    3f36: 85 28        	sta	$28                     ; 0x28 <__rc24>
    3f38: a5 12        	lda	$12                     ; 0x12 <__rc2>
    3f3a: 69 00        	adc	#$0
    3f3c: 85 29        	sta	$29                     ; 0x29 <__rc25>
    3f3e: 80 35        	bra	$3f75 <_ZN12_GLOBAL__N_15printEPKcP6Status+0x9ec>
    3f40: 85 13        	sta	$13                     ; 0x13 <__rc3>
    3f42: a9 80        	lda	#$80
    3f44: a0 01        	ldy	#$1
    3f46: 31 24        	and	($24),y                 ; 0x24 <__rc20>
    3f48: f0 04        	beq	$3f4e <_ZN12_GLOBAL__N_15printEPKcP6Status+0x9c5>
    3f4a: a2 61        	ldx	#$61
    3f4c: 80 02        	bra	$3f50 <_ZN12_GLOBAL__N_15printEPKcP6Status+0x9c7>
    3f4e: a2 41        	ldx	#$41
    3f50: 86 12        	stx	$12                     ; 0x12 <__rc2>
    3f52: 18           	clc
    3f53: a5 13        	lda	$13                     ; 0x13 <__rc3>
    3f55: 65 12        	adc	$12                     ; 0x12 <__rc2>
    3f57: 18           	clc
    3f58: 69 f6        	adc	#$f6
    3f5a: a6 24        	ldx	$24                     ; 0x24 <__rc20>
    3f5c: 86 12        	stx	$12                     ; 0x12 <__rc2>
    3f5e: a6 25        	ldx	$25                     ; 0x25 <__rc21>
    3f60: 86 13        	stx	$13                     ; 0x13 <__rc3>
    3f62: 20 cd 40     	jsr	$40cd <_ZN12_GLOBAL__N_13putEcP6Status>
    3f65: c6 2b        	dec	$2b                     ; 0x2b <__rc27>
    3f67: a2 ff        	ldx	#$ff
    3f69: c6 28        	dec	$28                     ; 0x28 <__rc24>
    3f6b: e4 28        	cpx	$28                     ; 0x28 <__rc24>
    3f6d: d0 02        	bne	$3f71 <_ZN12_GLOBAL__N_15printEPKcP6Status+0x9e8>
    3f6f: c6 29        	dec	$29                     ; 0x29 <__rc25>
    3f71: a5 2b        	lda	$2b                     ; 0x2b <__rc27>
    3f73: f0 0a        	beq	$3f7f <_ZN12_GLOBAL__N_15printEPKcP6Status+0x9f6>
    3f75: b2 28        	lda	($28)                   ; 0x28 <__rc24>
    3f77: c9 0a        	cmp	#$a
    3f79: b0 c5        	bcs	$3f40 <_ZN12_GLOBAL__N_15printEPKcP6Status+0x9b7>
    3f7b: 09 30        	ora	#$30
    3f7d: 80 db        	bra	$3f5a <_ZN12_GLOBAL__N_15printEPKcP6Status+0x9d1>
    3f7f: a0 02        	ldy	#$2
    3f81: 18           	clc
    3f82: a5 10        	lda	$10                     ; 0x10 <__rc0>
    3f84: 69 18        	adc	#$18
    3f86: 85 12        	sta	$12                     ; 0x12 <__rc2>
    3f88: a5 11        	lda	$11                     ; 0x11 <__rc1>
    3f8a: 69 00        	adc	#$0
    3f8c: 85 13        	sta	$13                     ; 0x13 <__rc3>
    3f8e: b1 12        	lda	($12),y                 ; 0x12 <__rc2>
    3f90: c9 0a        	cmp	#$a
    3f92: b0 04        	bcs	$3f98 <_ZN12_GLOBAL__N_15printEPKcP6Status+0xa0f>
    3f94: 09 30        	ora	#$30
    3f96: 80 1a        	bra	$3fb2 <_ZN12_GLOBAL__N_15printEPKcP6Status+0xa29>
    3f98: 85 13        	sta	$13                     ; 0x13 <__rc3>
    3f9a: a0 01        	ldy	#$1
    3f9c: a9 80        	lda	#$80
    3f9e: 31 24        	and	($24),y                 ; 0x24 <__rc20>
    3fa0: f0 04        	beq	$3fa6 <_ZN12_GLOBAL__N_15printEPKcP6Status+0xa1d>
    3fa2: a2 61        	ldx	#$61
    3fa4: 80 02        	bra	$3fa8 <_ZN12_GLOBAL__N_15printEPKcP6Status+0xa1f>
    3fa6: a2 41        	ldx	#$41
    3fa8: 86 12        	stx	$12                     ; 0x12 <__rc2>
    3faa: a5 13        	lda	$13                     ; 0x13 <__rc3>
    3fac: 18           	clc
    3fad: 65 12        	adc	$12                     ; 0x12 <__rc2>
    3faf: 18           	clc
    3fb0: 69 f6        	adc	#$f6
    3fb2: a6 24        	ldx	$24                     ; 0x24 <__rc20>
    3fb4: 86 12        	stx	$12                     ; 0x12 <__rc2>
    3fb6: a6 25        	ldx	$25                     ; 0x25 <__rc21>
    3fb8: 86 13        	stx	$13                     ; 0x13 <__rc3>
    3fba: 20 cd 40     	jsr	$40cd <_ZN12_GLOBAL__N_13putEcP6Status>
    3fbd: a0 01        	ldy	#$1
    3fbf: 98           	tya
    3fc0: 31 24        	and	($24),y                 ; 0x24 <__rc20>
    3fc2: f0 21        	beq	$3fe5 <_ZN12_GLOBAL__N_15printEPKcP6Status+0xa5c>
    3fc4: a5 2c        	lda	$2c                     ; 0x2c <__rc28>
    3fc6: f0 19        	beq	$3fe1 <_ZN12_GLOBAL__N_15printEPKcP6Status+0xa58>
    3fc8: a6 24        	ldx	$24                     ; 0x24 <__rc20>
    3fca: 86 12        	stx	$12                     ; 0x12 <__rc2>
    3fcc: a6 25        	ldx	$25                     ; 0x25 <__rc21>
    3fce: 86 13        	stx	$13                     ; 0x13 <__rc3>
    3fd0: a9 20        	lda	#$20
    3fd2: 20 cd 40     	jsr	$40cd <_ZN12_GLOBAL__N_13putEcP6Status>
    3fd5: a2 ff        	ldx	#$ff
    3fd7: c6 2a        	dec	$2a                     ; 0x2a <__rc26>
    3fd9: e4 2a        	cpx	$2a                     ; 0x2a <__rc26>
    3fdb: d0 e7        	bne	$3fc4 <_ZN12_GLOBAL__N_15printEPKcP6Status+0xa3b>
    3fdd: c6 2c        	dec	$2c                     ; 0x2c <__rc28>
    3fdf: 80 e3        	bra	$3fc4 <_ZN12_GLOBAL__N_15printEPKcP6Status+0xa3b>
    3fe1: a5 2a        	lda	$2a                     ; 0x2a <__rc26>
    3fe3: d0 e3        	bne	$3fc8 <_ZN12_GLOBAL__N_15printEPKcP6Status+0xa3f>
    3fe5: a4 24        	ldy	$24                     ; 0x24 <__rc20>
    3fe7: a5 24        	lda	$24                     ; 0x24 <__rc20>
    3fe9: 84 14        	sty	$14                     ; 0x14 <__rc4>
    3feb: 18           	clc
    3fec: 69 05        	adc	#$5
    3fee: 85 12        	sta	$12                     ; 0x12 <__rc2>
    3ff0: a5 25        	lda	$25                     ; 0x25 <__rc21>
    3ff2: 69 00        	adc	#$0
    3ff4: 18           	clc
    3ff5: 85 13        	sta	$13                     ; 0x13 <__rc3>
    3ff7: a0 01        	ldy	#$1
    3ff9: a5 14        	lda	$14                     ; 0x14 <__rc4>
    3ffb: 69 03        	adc	#$3
    3ffd: 85 14        	sta	$14                     ; 0x14 <__rc4>
    3fff: a5 25        	lda	$25                     ; 0x25 <__rc21>
    4001: 69 00        	adc	#$0
    4003: aa           	tax
    4004: b1 12        	lda	($12),y                 ; 0x12 <__rc2>
    4006: 85 15        	sta	$15                     ; 0x15 <__rc5>
    4008: a4 14        	ldy	$14                     ; 0x14 <__rc4>
    400a: 84 12        	sty	$12                     ; 0x12 <__rc2>
    400c: 86 13        	stx	$13                     ; 0x13 <__rc3>
    400e: a0 03        	ldy	#$3
    4010: b1 24        	lda	($24),y                 ; 0x24 <__rc20>
    4012: aa           	tax
    4013: a0 01        	ldy	#$1
    4015: b1 12        	lda	($12),y                 ; 0x12 <__rc2>
    4017: 85 12        	sta	$12                     ; 0x12 <__rc2>
    4019: a4 15        	ldy	$15                     ; 0x15 <__rc5>
    401b: c4 12        	cpy	$12                     ; 0x12 <__rc2>
    401d: d0 10        	bne	$402f <_ZN12_GLOBAL__N_15printEPKcP6Status+0xaa6>
    401f: a0 05        	ldy	#$5
    4021: 85 15        	sta	$15                     ; 0x15 <__rc5>
    4023: b1 24        	lda	($24),y                 ; 0x24 <__rc20>
    4025: 86 13        	stx	$13                     ; 0x13 <__rc3>
    4027: 86 12        	stx	$12                     ; 0x12 <__rc2>
    4029: c5 12        	cmp	$12                     ; 0x12 <__rc2>
    402b: b0 10        	bcs	$403d <_ZN12_GLOBAL__N_15printEPKcP6Status+0xab4>
    402d: 80 43        	bra	$4072 <_ZN12_GLOBAL__N_15printEPKcP6Status+0xae9>
    402f: 84 14        	sty	$14                     ; 0x14 <__rc4>
    4031: 86 13        	stx	$13                     ; 0x13 <__rc3>
    4033: 85 12        	sta	$12                     ; 0x12 <__rc2>
    4035: a6 14        	ldx	$14                     ; 0x14 <__rc4>
    4037: e4 12        	cpx	$12                     ; 0x12 <__rc2>
    4039: 85 15        	sta	$15                     ; 0x15 <__rc5>
    403b: 90 35        	bcc	$4072 <_ZN12_GLOBAL__N_15printEPKcP6Status+0xae9>
    403d: a6 13        	ldx	$13                     ; 0x13 <__rc3>
    403f: a5 15        	lda	$15                     ; 0x15 <__rc5>
    4041: d0 03        	bne	$4046 <_ZN12_GLOBAL__N_15printEPKcP6Status+0xabd>
    4043: 8a           	txa
    4044: f0 2c        	beq	$4072 <_ZN12_GLOBAL__N_15printEPKcP6Status+0xae9>
    4046: a5 24        	lda	$24                     ; 0x24 <__rc20>
    4048: 18           	clc
    4049: 69 09        	adc	#$9
    404b: 85 12        	sta	$12                     ; 0x12 <__rc2>
    404d: a5 25        	lda	$25                     ; 0x25 <__rc21>
    404f: 69 00        	adc	#$0
    4051: a0 09        	ldy	#$9
    4053: 85 13        	sta	$13                     ; 0x13 <__rc3>
    4055: 18           	clc
    4056: 8a           	txa
    4057: 71 24        	adc	($24),y                 ; 0x24 <__rc20>
    4059: aa           	tax
    405a: a0 01        	ldy	#$1
    405c: a5 15        	lda	$15                     ; 0x15 <__rc5>
    405e: 71 12        	adc	($12),y                 ; 0x12 <__rc2>
    4060: 86 12        	stx	$12                     ; 0x12 <__rc2>
    4062: 85 13        	sta	$13                     ; 0x13 <__rc3>
    4064: a2 ff        	ldx	#$ff
    4066: c6 12        	dec	$12                     ; 0x12 <__rc2>
    4068: e4 12        	cpx	$12                     ; 0x12 <__rc2>
    406a: d0 02        	bne	$406e <_ZN12_GLOBAL__N_15printEPKcP6Status+0xae5>
    406c: c6 13        	dec	$13                     ; 0x13 <__rc3>
    406e: a9 00        	lda	#$0
    4070: 92 12        	sta	($12)                   ; 0x12 <__rc2>
    4072: b2 26        	lda	($26)                   ; 0x26 <__rc22>
    4074: 85 28        	sta	$28                     ; 0x28 <__rc24>
    4076: a0 01        	ldy	#$1
    4078: b1 26        	lda	($26),y                 ; 0x26 <__rc22>
    407a: 85 29        	sta	$29                     ; 0x29 <__rc25>
    407c: e6 28        	inc	$28                     ; 0x28 <__rc24>
    407e: d0 02        	bne	$4082 <_ZN12_GLOBAL__N_15printEPKcP6Status+0xaf9>
    4080: e6 29        	inc	$29                     ; 0x29 <__rc25>
    4082: a6 28        	ldx	$28                     ; 0x28 <__rc24>
    4084: 86 12        	stx	$12                     ; 0x12 <__rc2>
    4086: a6 29        	ldx	$29                     ; 0x29 <__rc25>
    4088: 86 13        	stx	$13                     ; 0x13 <__rc3>
    408a: a0 00        	ldy	#$0
    408c: b1 10        	lda	($10),y                 ; 0x10 <__rc0>
    408e: 85 2f        	sta	$2f                     ; 0x2f <__rc31>
    4090: c8           	iny
    4091: b1 10        	lda	($10),y                 ; 0x10 <__rc0>
    4093: 85 2e        	sta	$2e                     ; 0x2e <__rc30>
    4095: c8           	iny
    4096: b1 10        	lda	($10),y                 ; 0x10 <__rc0>
    4098: 85 2d        	sta	$2d                     ; 0x2d <__rc29>
    409a: c8           	iny
    409b: b1 10        	lda	($10),y                 ; 0x10 <__rc0>
    409d: 85 2c        	sta	$2c                     ; 0x2c <__rc28>
    409f: c8           	iny
    40a0: b1 10        	lda	($10),y                 ; 0x10 <__rc0>
    40a2: 85 2b        	sta	$2b                     ; 0x2b <__rc27>
    40a4: c8           	iny
    40a5: b1 10        	lda	($10),y                 ; 0x10 <__rc0>
    40a7: 85 2a        	sta	$2a                     ; 0x2a <__rc26>
    40a9: c8           	iny
    40aa: b1 10        	lda	($10),y                 ; 0x10 <__rc0>
    40ac: 85 29        	sta	$29                     ; 0x29 <__rc25>
    40ae: c8           	iny
    40af: b1 10        	lda	($10),y                 ; 0x10 <__rc0>
    40b1: 85 28        	sta	$28                     ; 0x28 <__rc24>
    40b3: fa           	plx
    40b4: 86 27        	stx	$27                     ; 0x27 <__rc23>
    40b6: fa           	plx
    40b7: 86 26        	stx	$26                     ; 0x26 <__rc22>
    40b9: fa           	plx
    40ba: 86 25        	stx	$25                     ; 0x25 <__rc21>
    40bc: fa           	plx
    40bd: 86 24        	stx	$24                     ; 0x24 <__rc20>
    40bf: 18           	clc
    40c0: a5 10        	lda	$10                     ; 0x10 <__rc0>
    40c2: 69 2f        	adc	#$2f
    40c4: 85 10        	sta	$10                     ; 0x10 <__rc0>
    40c6: a5 11        	lda	$11                     ; 0x11 <__rc1>
    40c8: 69 00        	adc	#$0
    40ca: 85 11        	sta	$11                     ; 0x11 <__rc1>
    40cc: 60           	rts

000040cd <_ZN12_GLOBAL__N_13putEcP6Status>:
    40cd: a6 24        	ldx	$24                     ; 0x24 <__rc20>
    40cf: da           	phx
    40d0: a6 25        	ldx	$25                     ; 0x25 <__rc21>
    40d2: da           	phx
    40d3: 85 16        	sta	$16                     ; 0x16 <__rc6>
    40d5: a6 12        	ldx	$12                     ; 0x12 <__rc2>
    40d7: 86 24        	stx	$24                     ; 0x24 <__rc20>
    40d9: a6 13        	ldx	$13                     ; 0x13 <__rc3>
    40db: 86 25        	stx	$25                     ; 0x25 <__rc21>
    40dd: a6 25        	ldx	$25                     ; 0x25 <__rc21>
    40df: 18           	clc
    40e0: a5 12        	lda	$12                     ; 0x12 <__rc2>
    40e2: 69 05        	adc	#$5
    40e4: a8           	tay
    40e5: a5 25        	lda	$25                     ; 0x25 <__rc21>
    40e7: 86 13        	stx	$13                     ; 0x13 <__rc3>
    40e9: 69 00        	adc	#$0
    40eb: 18           	clc
    40ec: 84 14        	sty	$14                     ; 0x14 <__rc4>
    40ee: a0 05        	ldy	#$5
    40f0: 85 15        	sta	$15                     ; 0x15 <__rc5>
    40f2: b1 24        	lda	($24),y                 ; 0x24 <__rc20>
    40f4: aa           	tax
    40f5: a5 12        	lda	$12                     ; 0x12 <__rc2>
    40f7: 69 03        	adc	#$3
    40f9: 85 12        	sta	$12                     ; 0x12 <__rc2>
    40fb: a5 13        	lda	$13                     ; 0x13 <__rc3>
    40fd: 69 00        	adc	#$0
    40ff: 85 13        	sta	$13                     ; 0x13 <__rc3>
    4101: a0 01        	ldy	#$1
    4103: b1 14        	lda	($14),y                 ; 0x14 <__rc4>
    4105: d1 12        	cmp	($12),y                 ; 0x12 <__rc2>
    4107: d0 11        	bne	$411a <_ZN12_GLOBAL__N_13putEcP6Status+0x4d>
    4109: a0 03        	ldy	#$3
    410b: 85 15        	sta	$15                     ; 0x15 <__rc5>
    410d: b1 24        	lda	($24),y                 ; 0x24 <__rc20>
    410f: 85 12        	sta	$12                     ; 0x12 <__rc2>
    4111: 86 14        	stx	$14                     ; 0x14 <__rc4>
    4113: e4 12        	cpx	$12                     ; 0x12 <__rc2>
    4115: 90 0e        	bcc	$4125 <_ZN12_GLOBAL__N_13putEcP6Status+0x58>
    4117: 4c 80 41     	jmp	$4180 <_ZN12_GLOBAL__N_13putEcP6Status+0xb3>
    411a: 86 14        	stx	$14                     ; 0x14 <__rc4>
    411c: d1 12        	cmp	($12),y                 ; 0x12 <__rc2>
    411e: 85 15        	sta	$15                     ; 0x15 <__rc5>
    4120: 90 03        	bcc	$4125 <_ZN12_GLOBAL__N_13putEcP6Status+0x58>
    4122: 4c 80 41     	jmp	$4180 <_ZN12_GLOBAL__N_13putEcP6Status+0xb3>
    4125: a0 0f        	ldy	#$f
    4127: a5 24        	lda	$24                     ; 0x24 <__rc20>
    4129: 18           	clc
    412a: 69 0f        	adc	#$f
    412c: 85 12        	sta	$12                     ; 0x12 <__rc2>
    412e: a5 25        	lda	$25                     ; 0x25 <__rc21>
    4130: 69 00        	adc	#$0
    4132: 85 13        	sta	$13                     ; 0x13 <__rc3>
    4134: b1 24        	lda	($24),y                 ; 0x24 <__rc20>
    4136: 85 17        	sta	$17                     ; 0x17 <__rc7>
    4138: a0 01        	ldy	#$1
    413a: b1 12        	lda	($12),y                 ; 0x12 <__rc2>
    413c: a2 00        	ldx	#$0
    413e: 86 12        	stx	$12                     ; 0x12 <__rc2>
    4140: a2 00        	ldx	#$0
    4142: 86 13        	stx	$13                     ; 0x13 <__rc3>
    4144: c5 13        	cmp	$13                     ; 0x13 <__rc3>
    4146: d0 2b        	bne	$4173 <_ZN12_GLOBAL__N_13putEcP6Status+0xa6>
    4148: a4 17        	ldy	$17                     ; 0x17 <__rc7>
    414a: c4 12        	cpy	$12                     ; 0x12 <__rc2>
    414c: d0 27        	bne	$4175 <_ZN12_GLOBAL__N_13putEcP6Status+0xa8>
    414e: a5 24        	lda	$24                     ; 0x24 <__rc20>
    4150: 18           	clc
    4151: 69 09        	adc	#$9
    4153: 85 12        	sta	$12                     ; 0x12 <__rc2>
    4155: a5 25        	lda	$25                     ; 0x25 <__rc21>
    4157: 69 00        	adc	#$0
    4159: a0 09        	ldy	#$9
    415b: 85 13        	sta	$13                     ; 0x13 <__rc3>
    415d: 18           	clc
    415e: a5 14        	lda	$14                     ; 0x14 <__rc4>
    4160: 71 24        	adc	($24),y                 ; 0x24 <__rc20>
    4162: aa           	tax
    4163: a0 01        	ldy	#$1
    4165: a5 15        	lda	$15                     ; 0x15 <__rc5>
    4167: 71 12        	adc	($12),y                 ; 0x12 <__rc2>
    4169: 86 12        	stx	$12                     ; 0x12 <__rc2>
    416b: 85 13        	sta	$13                     ; 0x13 <__rc3>
    416d: a5 16        	lda	$16                     ; 0x16 <__rc6>
    416f: 92 12        	sta	($12)                   ; 0x12 <__rc2>
    4171: 80 0d        	bra	$4180 <_ZN12_GLOBAL__N_13putEcP6Status+0xb3>
    4173: a4 17        	ldy	$17                     ; 0x17 <__rc7>
    4175: 84 12        	sty	$12                     ; 0x12 <__rc2>
    4177: 85 13        	sta	$13                     ; 0x13 <__rc3>
    4179: a2 00        	ldx	#$0
    417b: a5 16        	lda	$16                     ; 0x16 <__rc6>
    417d: 20 91 46     	jsr	$4691 <putc>
    4180: a0 05        	ldy	#$5
    4182: a5 24        	lda	$24                     ; 0x24 <__rc20>
    4184: 18           	clc
    4185: 69 05        	adc	#$5
    4187: 85 12        	sta	$12                     ; 0x12 <__rc2>
    4189: a5 25        	lda	$25                     ; 0x25 <__rc21>
    418b: 69 00        	adc	#$0
    418d: 85 13        	sta	$13                     ; 0x13 <__rc3>
    418f: b1 24        	lda	($24),y                 ; 0x24 <__rc20>
    4191: aa           	tax
    4192: a0 01        	ldy	#$1
    4194: b1 12        	lda	($12),y                 ; 0x12 <__rc2>
    4196: e8           	inx
    4197: d0 01        	bne	$419a <_ZN12_GLOBAL__N_13putEcP6Status+0xcd>
    4199: 1a           	inc
    419a: 85 14        	sta	$14                     ; 0x14 <__rc4>
    419c: 8a           	txa
    419d: a0 05        	ldy	#$5
    419f: 91 24        	sta	($24),y                 ; 0x24 <__rc20>
    41a1: a0 01        	ldy	#$1
    41a3: a5 14        	lda	$14                     ; 0x14 <__rc4>
    41a5: 91 12        	sta	($12),y                 ; 0x12 <__rc2>
    41a7: fa           	plx
    41a8: 86 25        	stx	$25                     ; 0x25 <__rc21>
    41aa: fa           	plx
    41ab: 86 24        	stx	$24                     ; 0x24 <__rc20>
    41ad: 60           	rts

000041ae <_ZN12_GLOBAL__N_112print_stringEPKcP6Status>:
    41ae: 18           	clc
    41af: a5 10        	lda	$10                     ; 0x10 <__rc0>
    41b1: 69 fc        	adc	#$fc
    41b3: 85 10        	sta	$10                     ; 0x10 <__rc0>
    41b5: a5 11        	lda	$11                     ; 0x11 <__rc1>
    41b7: 69 ff        	adc	#$ff
    41b9: 85 11        	sta	$11                     ; 0x11 <__rc1>
    41bb: a6 24        	ldx	$24                     ; 0x24 <__rc20>
    41bd: da           	phx
    41be: a6 25        	ldx	$25                     ; 0x25 <__rc21>
    41c0: da           	phx
    41c1: a6 26        	ldx	$26                     ; 0x26 <__rc22>
    41c3: da           	phx
    41c4: a6 27        	ldx	$27                     ; 0x27 <__rc23>
    41c6: da           	phx
    41c7: a5 28        	lda	$28                     ; 0x28 <__rc24>
    41c9: a0 02        	ldy	#$2
    41cb: 91 10        	sta	($10),y                 ; 0x10 <__rc0>
    41cd: a5 29        	lda	$29                     ; 0x29 <__rc25>
    41cf: 88           	dey
    41d0: 91 10        	sta	($10),y                 ; 0x10 <__rc0>
    41d2: a5 2a        	lda	$2a                     ; 0x2a <__rc26>
    41d4: 88           	dey
    41d5: 91 10        	sta	($10),y                 ; 0x10 <__rc0>
    41d7: a6 12        	ldx	$12                     ; 0x12 <__rc2>
    41d9: 86 24        	stx	$24                     ; 0x24 <__rc20>
    41db: a6 13        	ldx	$13                     ; 0x13 <__rc3>
    41dd: 86 25        	stx	$25                     ; 0x25 <__rc21>
    41df: a6 14        	ldx	$14                     ; 0x14 <__rc4>
    41e1: 86 26        	stx	$26                     ; 0x26 <__rc22>
    41e3: a6 15        	ldx	$15                     ; 0x15 <__rc5>
    41e5: 86 27        	stx	$27                     ; 0x27 <__rc23>
    41e7: a5 26        	lda	$26                     ; 0x26 <__rc22>
    41e9: 18           	clc
    41ea: 69 0d        	adc	#$d
    41ec: 85 12        	sta	$12                     ; 0x12 <__rc2>
    41ee: a5 27        	lda	$27                     ; 0x27 <__rc23>
    41f0: 69 00        	adc	#$0
    41f2: 85 13        	sta	$13                     ; 0x13 <__rc3>
    41f4: c8           	iny
    41f5: b1 12        	lda	($12),y                 ; 0x12 <__rc2>
    41f7: 30 1c        	bmi	$4215 <_ZN12_GLOBAL__N_112print_stringEPKcP6Status+0x67>
    41f9: a0 0d        	ldy	#$d
    41fb: aa           	tax
    41fc: b1 26        	lda	($26),y                 ; 0x26 <__rc22>
    41fe: 48           	pha
    41ff: 8a           	txa
    4200: a0 03        	ldy	#$3
    4202: 91 10        	sta	($10),y                 ; 0x10 <__rc0>
    4204: 68           	pla
    4205: e0 00        	cpx	#$0
    4207: d0 16        	bne	$421f <_ZN12_GLOBAL__N_112print_stringEPKcP6Status+0x71>
    4209: aa           	tax
    420a: d0 13        	bne	$421f <_ZN12_GLOBAL__N_112print_stringEPKcP6Status+0x71>
    420c: 64 28        	stz	$28                     ; 0x28 <__rc24>
    420e: 64 12        	stz	$12                     ; 0x12 <__rc2>
    4210: a9 00        	lda	#$0
    4212: 4c 1d 43     	jmp	$431d <_ZN12_GLOBAL__N_112print_stringEPKcP6Status+0x16f>
    4215: a9 ff        	lda	#$ff
    4217: aa           	tax
    4218: 48           	pha
    4219: 8a           	txa
    421a: a0 03        	ldy	#$3
    421c: 91 10        	sta	($10),y                 ; 0x10 <__rc0>
    421e: 68           	pla
    421f: 85 28        	sta	$28                     ; 0x28 <__rc24>
    4221: 64 12        	stz	$12                     ; 0x12 <__rc2>
    4223: a4 24        	ldy	$24                     ; 0x24 <__rc20>
    4225: a6 25        	ldx	$25                     ; 0x25 <__rc21>
    4227: 86 16        	stx	$16                     ; 0x16 <__rc6>
    4229: 64 13        	stz	$13                     ; 0x13 <__rc3>
    422b: 98           	tya
    422c: 18           	clc
    422d: 65 12        	adc	$12                     ; 0x12 <__rc2>
    422f: 85 14        	sta	$14                     ; 0x14 <__rc4>
    4231: a5 25        	lda	$25                     ; 0x25 <__rc21>
    4233: 65 13        	adc	$13                     ; 0x13 <__rc3>
    4235: 85 15        	sta	$15                     ; 0x15 <__rc5>
    4237: b2 14        	lda	($14)                   ; 0x14 <__rc4>
    4239: d0 03        	bne	$423e <_ZN12_GLOBAL__N_112print_stringEPKcP6Status+0x90>
    423b: 4c 15 43     	jmp	$4315 <_ZN12_GLOBAL__N_112print_stringEPKcP6Status+0x167>
    423e: e6 12        	inc	$12                     ; 0x12 <__rc2>
    4240: d0 02        	bne	$4244 <_ZN12_GLOBAL__N_112print_stringEPKcP6Status+0x96>
    4242: e6 13        	inc	$13                     ; 0x13 <__rc3>
    4244: 5a           	phy
    4245: a0 03        	ldy	#$3
    4247: b1 10        	lda	($10),y                 ; 0x10 <__rc0>
    4249: 7a           	ply
    424a: c5 13        	cmp	$13                     ; 0x13 <__rc3>
    424c: d0 dd        	bne	$422b <_ZN12_GLOBAL__N_112print_stringEPKcP6Status+0x7d>
    424e: a6 28        	ldx	$28                     ; 0x28 <__rc24>
    4250: e4 12        	cpx	$12                     ; 0x12 <__rc2>
    4252: d0 d7        	bne	$422b <_ZN12_GLOBAL__N_112print_stringEPKcP6Status+0x7d>
    4254: a0 01        	ldy	#$1
    4256: b1 26        	lda	($26),y                 ; 0x26 <__rc22>
    4258: 29 01        	and	#$1
    425a: f0 03        	beq	$425f <_ZN12_GLOBAL__N_112print_stringEPKcP6Status+0xb1>
    425c: 4c ba 42     	jmp	$42ba <_ZN12_GLOBAL__N_112print_stringEPKcP6Status+0x10c>
    425f: a5 26        	lda	$26                     ; 0x26 <__rc22>
    4261: 18           	clc
    4262: 69 0b        	adc	#$b
    4264: 85 14        	sta	$14                     ; 0x14 <__rc4>
    4266: a5 27        	lda	$27                     ; 0x27 <__rc23>
    4268: 69 00        	adc	#$0
    426a: 85 15        	sta	$15                     ; 0x15 <__rc5>
    426c: a0 0b        	ldy	#$b
    426e: b1 26        	lda	($26),y                 ; 0x26 <__rc22>
    4270: 85 13        	sta	$13                     ; 0x13 <__rc3>
    4272: a0 01        	ldy	#$1
    4274: b1 14        	lda	($14),y                 ; 0x14 <__rc4>
    4276: 85 12        	sta	$12                     ; 0x12 <__rc2>
    4278: a0 03        	ldy	#$3
    427a: b1 10        	lda	($10),y                 ; 0x10 <__rc0>
    427c: aa           	tax
    427d: c5 12        	cmp	$12                     ; 0x12 <__rc2>
    427f: d0 08        	bne	$4289 <_ZN12_GLOBAL__N_112print_stringEPKcP6Status+0xdb>
    4281: a6 28        	ldx	$28                     ; 0x28 <__rc24>
    4283: e4 13        	cpx	$13                     ; 0x13 <__rc3>
    4285: 90 06        	bcc	$428d <_ZN12_GLOBAL__N_112print_stringEPKcP6Status+0xdf>
    4287: 80 31        	bra	$42ba <_ZN12_GLOBAL__N_112print_stringEPKcP6Status+0x10c>
    4289: e4 12        	cpx	$12                     ; 0x12 <__rc2>
    428b: b0 2d        	bcs	$42ba <_ZN12_GLOBAL__N_112print_stringEPKcP6Status+0x10c>
    428d: 38           	sec
    428e: a5 28        	lda	$28                     ; 0x28 <__rc24>
    4290: e5 13        	sbc	$13                     ; 0x13 <__rc3>
    4292: aa           	tax
    4293: b1 10        	lda	($10),y                 ; 0x10 <__rc0>
    4295: e5 12        	sbc	$12                     ; 0x12 <__rc2>
    4297: 85 2a        	sta	$2a                     ; 0x2a <__rc26>
    4299: a4 26        	ldy	$26                     ; 0x26 <__rc22>
    429b: 84 12        	sty	$12                     ; 0x12 <__rc2>
    429d: a4 27        	ldy	$27                     ; 0x27 <__rc23>
    429f: 84 13        	sty	$13                     ; 0x13 <__rc3>
    42a1: 86 29        	stx	$29                     ; 0x29 <__rc25>
    42a3: a9 20        	lda	#$20
    42a5: 20 cd 40     	jsr	$40cd <_ZN12_GLOBAL__N_13putEcP6Status>
    42a8: a4 2a        	ldy	$2a                     ; 0x2a <__rc26>
    42aa: e6 29        	inc	$29                     ; 0x29 <__rc25>
    42ac: d0 01        	bne	$42af <_ZN12_GLOBAL__N_112print_stringEPKcP6Status+0x101>
    42ae: c8           	iny
    42af: 84 2a        	sty	$2a                     ; 0x2a <__rc26>
    42b1: a6 29        	ldx	$29                     ; 0x29 <__rc25>
    42b3: 98           	tya
    42b4: d0 e3        	bne	$4299 <_ZN12_GLOBAL__N_112print_stringEPKcP6Status+0xeb>
    42b6: a5 29        	lda	$29                     ; 0x29 <__rc25>
    42b8: d0 df        	bne	$4299 <_ZN12_GLOBAL__N_112print_stringEPKcP6Status+0xeb>
    42ba: a0 03        	ldy	#$3
    42bc: b1 10        	lda	($10),y                 ; 0x10 <__rc0>
    42be: a8           	tay
    42bf: d0 04        	bne	$42c5 <_ZN12_GLOBAL__N_112print_stringEPKcP6Status+0x117>
    42c1: a5 28        	lda	$28                     ; 0x28 <__rc24>
    42c3: f0 26        	beq	$42eb <_ZN12_GLOBAL__N_112print_stringEPKcP6Status+0x13d>
    42c5: a2 ff        	ldx	#$ff
    42c7: c6 28        	dec	$28                     ; 0x28 <__rc24>
    42c9: e4 28        	cpx	$28                     ; 0x28 <__rc24>
    42cb: d0 01        	bne	$42ce <_ZN12_GLOBAL__N_112print_stringEPKcP6Status+0x120>
    42cd: 88           	dey
    42ce: 84 29        	sty	$29                     ; 0x29 <__rc25>
    42d0: b2 24        	lda	($24)                   ; 0x24 <__rc20>
    42d2: e6 24        	inc	$24                     ; 0x24 <__rc20>
    42d4: d0 02        	bne	$42d8 <_ZN12_GLOBAL__N_112print_stringEPKcP6Status+0x12a>
    42d6: e6 25        	inc	$25                     ; 0x25 <__rc21>
    42d8: a6 26        	ldx	$26                     ; 0x26 <__rc22>
    42da: 86 12        	stx	$12                     ; 0x12 <__rc2>
    42dc: a6 27        	ldx	$27                     ; 0x27 <__rc23>
    42de: 86 13        	stx	$13                     ; 0x13 <__rc3>
    42e0: 20 cd 40     	jsr	$40cd <_ZN12_GLOBAL__N_13putEcP6Status>
    42e3: a4 29        	ldy	$29                     ; 0x29 <__rc25>
    42e5: d0 de        	bne	$42c5 <_ZN12_GLOBAL__N_112print_stringEPKcP6Status+0x117>
    42e7: a5 28        	lda	$28                     ; 0x28 <__rc24>
    42e9: d0 da        	bne	$42c5 <_ZN12_GLOBAL__N_112print_stringEPKcP6Status+0x117>
    42eb: a0 00        	ldy	#$0
    42ed: b1 10        	lda	($10),y                 ; 0x10 <__rc0>
    42ef: 85 2a        	sta	$2a                     ; 0x2a <__rc26>
    42f1: c8           	iny
    42f2: b1 10        	lda	($10),y                 ; 0x10 <__rc0>
    42f4: 85 29        	sta	$29                     ; 0x29 <__rc25>
    42f6: c8           	iny
    42f7: b1 10        	lda	($10),y                 ; 0x10 <__rc0>
    42f9: 85 28        	sta	$28                     ; 0x28 <__rc24>
    42fb: fa           	plx
    42fc: 86 27        	stx	$27                     ; 0x27 <__rc23>
    42fe: fa           	plx
    42ff: 86 26        	stx	$26                     ; 0x26 <__rc22>
    4301: fa           	plx
    4302: 86 25        	stx	$25                     ; 0x25 <__rc21>
    4304: fa           	plx
    4305: 86 24        	stx	$24                     ; 0x24 <__rc20>
    4307: 18           	clc
    4308: a5 10        	lda	$10                     ; 0x10 <__rc0>
    430a: 69 04        	adc	#$4
    430c: 85 10        	sta	$10                     ; 0x10 <__rc0>
    430e: a5 11        	lda	$11                     ; 0x11 <__rc1>
    4310: 69 00        	adc	#$0
    4312: 85 11        	sta	$11                     ; 0x11 <__rc1>
    4314: 60           	rts
    4315: a6 12        	ldx	$12                     ; 0x12 <__rc2>
    4317: 86 28        	stx	$28                     ; 0x28 <__rc24>
    4319: a5 13        	lda	$13                     ; 0x13 <__rc3>
    431b: a0 03        	ldy	#$3
    431d: 91 10        	sta	($10),y                 ; 0x10 <__rc0>
    431f: 4c 54 42     	jmp	$4254 <_ZN12_GLOBAL__N_112print_stringEPKcP6Status+0xa6>

00004322 <printf>:
    4322: 18           	clc
    4323: a5 10        	lda	$10                     ; 0x10 <__rc0>
    4325: 69 fe        	adc	#$fe
    4327: 85 10        	sta	$10                     ; 0x10 <__rc0>
    4329: a5 11        	lda	$11                     ; 0x11 <__rc1>
    432b: 69 ff        	adc	#$ff
    432d: 85 11        	sta	$11                     ; 0x11 <__rc1>
    432f: a6 12        	ldx	$12                     ; 0x12 <__rc2>
    4331: 86 14        	stx	$14                     ; 0x14 <__rc4>
    4333: a6 13        	ldx	$13                     ; 0x13 <__rc3>
    4335: 86 15        	stx	$15                     ; 0x15 <__rc5>
    4337: 18           	clc
    4338: a5 10        	lda	$10                     ; 0x10 <__rc0>
    433a: 69 02        	adc	#$2
    433c: 48           	pha
    433d: a5 11        	lda	$11                     ; 0x11 <__rc1>
    433f: 69 00        	adc	#$0
    4341: 85 12        	sta	$12                     ; 0x12 <__rc2>
    4343: 68           	pla
    4344: 18           	clc
    4345: a6 10        	ldx	$10                     ; 0x10 <__rc0>
    4347: 86 16        	stx	$16                     ; 0x16 <__rc6>
    4349: a6 11        	ldx	$11                     ; 0x11 <__rc1>
    434b: 86 17        	stx	$17                     ; 0x17 <__rc7>
    434d: 92 16        	sta	($16)                   ; 0x16 <__rc6>
    434f: a0 01        	ldy	#$1
    4351: a5 12        	lda	$12                     ; 0x12 <__rc2>
    4353: 91 16        	sta	($16),y                 ; 0x16 <__rc6>
    4355: a6 66        	ldx	$66                     ; 0x66 <stdout>
    4357: a5 67        	lda	$67                     ; 0x67 <stdout+0x1>
    4359: 86 12        	stx	$12                     ; 0x12 <__rc2>
    435b: 85 13        	sta	$13                     ; 0x13 <__rc3>
    435d: b2 16        	lda	($16)                   ; 0x16 <__rc6>
    435f: aa           	tax
    4360: b1 16        	lda	($16),y                 ; 0x16 <__rc6>
    4362: 86 16        	stx	$16                     ; 0x16 <__rc6>
    4364: 85 17        	sta	$17                     ; 0x17 <__rc7>
    4366: 20 71 33     	jsr	$3371 <vfprintf>
    4369: 48           	pha
    436a: 18           	clc
    436b: a5 10        	lda	$10                     ; 0x10 <__rc0>
    436d: 69 02        	adc	#$2
    436f: 85 10        	sta	$10                     ; 0x10 <__rc0>
    4371: a5 11        	lda	$11                     ; 0x11 <__rc1>
    4373: 69 00        	adc	#$0
    4375: 85 11        	sta	$11                     ; 0x11 <__rc1>
    4377: 68           	pla
    4378: 60           	rts

00004379 <vsnprintf>:
    4379: 48           	pha
    437a: 18           	clc
    437b: a5 10        	lda	$10                     ; 0x10 <__rc0>
    437d: 69 e7        	adc	#$e7
    437f: 85 10        	sta	$10                     ; 0x10 <__rc0>
    4381: a5 11        	lda	$11                     ; 0x11 <__rc1>
    4383: 69 ff        	adc	#$ff
    4385: 85 11        	sta	$11                     ; 0x11 <__rc1>
    4387: 68           	pla
    4388: a4 24        	ldy	$24                     ; 0x24 <__rc20>
    438a: 5a           	phy
    438b: a4 25        	ldy	$25                     ; 0x25 <__rc21>
    438d: 5a           	phy
    438e: a4 26        	ldy	$26                     ; 0x26 <__rc22>
    4390: 5a           	phy
    4391: a4 27        	ldy	$27                     ; 0x27 <__rc23>
    4393: 5a           	phy
    4394: 48           	pha
    4395: a5 28        	lda	$28                     ; 0x28 <__rc24>
    4397: a0 03        	ldy	#$3
    4399: 91 10        	sta	($10),y                 ; 0x10 <__rc0>
    439b: a5 29        	lda	$29                     ; 0x29 <__rc25>
    439d: 88           	dey
    439e: 91 10        	sta	($10),y                 ; 0x10 <__rc0>
    43a0: a5 2a        	lda	$2a                     ; 0x2a <__rc26>
    43a2: 88           	dey
    43a3: 91 10        	sta	($10),y                 ; 0x10 <__rc0>
    43a5: a5 2b        	lda	$2b                     ; 0x2b <__rc27>
    43a7: 88           	dey
    43a8: 91 10        	sta	($10),y                 ; 0x10 <__rc0>
    43aa: 68           	pla
    43ab: 85 28        	sta	$28                     ; 0x28 <__rc24>
    43ad: 86 29        	stx	$29                     ; 0x29 <__rc25>
    43af: a5 16        	lda	$16                     ; 0x16 <__rc6>
    43b1: a6 17        	ldx	$17                     ; 0x17 <__rc7>
    43b3: 18           	clc
    43b4: 48           	pha
    43b5: a5 10        	lda	$10                     ; 0x10 <__rc0>
    43b7: 69 17        	adc	#$17
    43b9: 85 16        	sta	$16                     ; 0x16 <__rc6>
    43bb: a5 11        	lda	$11                     ; 0x11 <__rc1>
    43bd: 69 00        	adc	#$0
    43bf: 85 17        	sta	$17                     ; 0x17 <__rc7>
    43c1: 68           	pla
    43c2: 92 16        	sta	($16)                   ; 0x16 <__rc6>
    43c4: c8           	iny
    43c5: 8a           	txa
    43c6: 91 16        	sta	($16),y                 ; 0x16 <__rc6>
    43c8: 18           	clc
    43c9: a5 10        	lda	$10                     ; 0x10 <__rc0>
    43cb: 69 04        	adc	#$4
    43cd: 48           	pha
    43ce: a5 11        	lda	$11                     ; 0x11 <__rc1>
    43d0: 69 00        	adc	#$0
    43d2: aa           	tax
    43d3: 68           	pla
    43d4: 85 18        	sta	$18                     ; 0x18 <__rc8>
    43d6: 86 19        	stx	$19                     ; 0x19 <__rc9>
    43d8: 18           	clc
    43d9: 85 2a        	sta	$2a                     ; 0x2a <__rc26>
    43db: 69 03        	adc	#$3
    43dd: 85 1a        	sta	$1a                     ; 0x1a <__rc10>
    43df: 86 2b        	stx	$2b                     ; 0x2b <__rc27>
    43e1: 8a           	txa
    43e2: 69 00        	adc	#$0
    43e4: 85 1b        	sta	$1b                     ; 0x1b <__rc11>
    43e6: a0 03        	ldy	#$3
    43e8: a5 28        	lda	$28                     ; 0x28 <__rc24>
    43ea: 91 18        	sta	($18),y                 ; 0x18 <__rc8>
    43ec: 18           	clc
    43ed: a5 10        	lda	$10                     ; 0x10 <__rc0>
    43ef: 69 04        	adc	#$4
    43f1: 85 1c        	sta	$1c                     ; 0x1c <__rc12>
    43f3: a5 11        	lda	$11                     ; 0x11 <__rc1>
    43f5: 69 00        	adc	#$0
    43f7: aa           	tax
    43f8: a5 29        	lda	$29                     ; 0x29 <__rc25>
    43fa: a0 01        	ldy	#$1
    43fc: 91 1a        	sta	($1a),y                 ; 0x1a <__rc10>
    43fe: 18           	clc
    43ff: a5 1c        	lda	$1c                     ; 0x1c <__rc12>
    4401: 69 05        	adc	#$5
    4403: 85 1a        	sta	$1a                     ; 0x1a <__rc10>
    4405: 8a           	txa
    4406: 69 00        	adc	#$0
    4408: a0 05        	ldy	#$5
    440a: 85 1b        	sta	$1b                     ; 0x1b <__rc11>
    440c: a9 00        	lda	#$0
    440e: 91 18        	sta	($18),y                 ; 0x18 <__rc8>
    4410: a0 01        	ldy	#$1
    4412: 91 1a        	sta	($1a),y                 ; 0x1a <__rc10>
    4414: 18           	clc
    4415: a5 10        	lda	$10                     ; 0x10 <__rc0>
    4417: 69 04        	adc	#$4
    4419: 48           	pha
    441a: a5 11        	lda	$11                     ; 0x11 <__rc1>
    441c: 69 00        	adc	#$0
    441e: 85 1a        	sta	$1a                     ; 0x1a <__rc10>
    4420: 68           	pla
    4421: 18           	clc
    4422: 69 09        	adc	#$9
    4424: a8           	tay
    4425: a5 1a        	lda	$1a                     ; 0x1a <__rc10>
    4427: 69 00        	adc	#$0
    4429: a6 12        	ldx	$12                     ; 0x12 <__rc2>
    442b: 86 24        	stx	$24                     ; 0x24 <__rc20>
    442d: a6 13        	ldx	$13                     ; 0x13 <__rc3>
    442f: 86 25        	stx	$25                     ; 0x25 <__rc21>
    4431: 84 12        	sty	$12                     ; 0x12 <__rc2>
    4433: a0 09        	ldy	#$9
    4435: 85 13        	sta	$13                     ; 0x13 <__rc3>
    4437: a5 24        	lda	$24                     ; 0x24 <__rc20>
    4439: 91 18        	sta	($18),y                 ; 0x18 <__rc8>
    443b: a5 25        	lda	$25                     ; 0x25 <__rc21>
    443d: a0 01        	ldy	#$1
    443f: 91 12        	sta	($12),y                 ; 0x12 <__rc2>
    4441: 18           	clc
    4442: a5 10        	lda	$10                     ; 0x10 <__rc0>
    4444: 69 04        	adc	#$4
    4446: 48           	pha
    4447: a5 11        	lda	$11                     ; 0x11 <__rc1>
    4449: 69 00        	adc	#$0
    444b: 85 12        	sta	$12                     ; 0x12 <__rc2>
    444d: 68           	pla
    444e: 18           	clc
    444f: 69 0f        	adc	#$f
    4451: aa           	tax
    4452: a5 12        	lda	$12                     ; 0x12 <__rc2>
    4454: 69 00        	adc	#$0
    4456: 86 12        	stx	$12                     ; 0x12 <__rc2>
    4458: a0 0f        	ldy	#$f
    445a: 85 13        	sta	$13                     ; 0x13 <__rc3>
    445c: a2 00        	ldx	#$0
    445e: 86 1a        	stx	$1a                     ; 0x1a <__rc10>
    4460: a2 00        	ldx	#$0
    4462: 86 1b        	stx	$1b                     ; 0x1b <__rc11>
    4464: a5 1a        	lda	$1a                     ; 0x1a <__rc10>
    4466: 91 18        	sta	($18),y                 ; 0x18 <__rc8>
    4468: a5 1b        	lda	$1b                     ; 0x1b <__rc11>
    446a: a0 01        	ldy	#$1
    446c: 91 12        	sta	($12),y                 ; 0x12 <__rc2>
    446e: b2 16        	lda	($16)                   ; 0x16 <__rc6>
    4470: 85 12        	sta	$12                     ; 0x12 <__rc2>
    4472: b1 16        	lda	($16),y                 ; 0x16 <__rc6>
    4474: 85 1a        	sta	$1a                     ; 0x1a <__rc10>
    4476: a0 11        	ldy	#$11
    4478: a5 12        	lda	$12                     ; 0x12 <__rc2>
    447a: 91 18        	sta	($18),y                 ; 0x18 <__rc8>
    447c: a0 01        	ldy	#$1
    447e: 18           	clc
    447f: a5 10        	lda	$10                     ; 0x10 <__rc0>
    4481: 69 04        	adc	#$4
    4483: 48           	pha
    4484: a5 11        	lda	$11                     ; 0x11 <__rc1>
    4486: 69 00        	adc	#$0
    4488: 85 12        	sta	$12                     ; 0x12 <__rc2>
    448a: 68           	pla
    448b: 18           	clc
    448c: 69 11        	adc	#$11
    448e: 85 16        	sta	$16                     ; 0x16 <__rc6>
    4490: a5 12        	lda	$12                     ; 0x12 <__rc2>
    4492: 69 00        	adc	#$0
    4494: 85 17        	sta	$17                     ; 0x17 <__rc7>
    4496: a6 14        	ldx	$14                     ; 0x14 <__rc4>
    4498: 86 12        	stx	$12                     ; 0x12 <__rc2>
    449a: a6 15        	ldx	$15                     ; 0x15 <__rc5>
    449c: 86 13        	stx	$13                     ; 0x13 <__rc3>
    449e: a5 1a        	lda	$1a                     ; 0x1a <__rc10>
    44a0: 91 16        	sta	($16),y                 ; 0x16 <__rc6>
    44a2: a6 12        	ldx	$12                     ; 0x12 <__rc2>
    44a4: 86 26        	stx	$26                     ; 0x26 <__rc22>
    44a6: a6 13        	ldx	$13                     ; 0x13 <__rc3>
    44a8: 86 27        	stx	$27                     ; 0x27 <__rc23>
    44aa: b2 12        	lda	($12)                   ; 0x12 <__rc2>
    44ac: c9 25        	cmp	#$25
    44ae: d0 03        	bne	$44b3 <vsnprintf+0x13a>
    44b0: 4c 45 45     	jmp	$4545 <vsnprintf+0x1cc>
    44b3: aa           	tax
    44b4: d0 03        	bne	$44b9 <vsnprintf+0x140>
    44b6: 4c 6f 45     	jmp	$456f <vsnprintf+0x1f6>
    44b9: 18           	clc
    44ba: a5 10        	lda	$10                     ; 0x10 <__rc0>
    44bc: 69 04        	adc	#$4
    44be: 48           	pha
    44bf: a5 11        	lda	$11                     ; 0x11 <__rc1>
    44c1: 69 00        	adc	#$0
    44c3: aa           	tax
    44c4: 68           	pla
    44c5: 85 12        	sta	$12                     ; 0x12 <__rc2>
    44c7: 86 13        	stx	$13                     ; 0x13 <__rc3>
    44c9: 18           	clc
    44ca: 69 05        	adc	#$5
    44cc: 85 14        	sta	$14                     ; 0x14 <__rc4>
    44ce: 8a           	txa
    44cf: 69 00        	adc	#$0
    44d1: 85 15        	sta	$15                     ; 0x15 <__rc5>
    44d3: a0 05        	ldy	#$5
    44d5: b1 12        	lda	($12),y                 ; 0x12 <__rc2>
    44d7: aa           	tax
    44d8: 85 13        	sta	$13                     ; 0x13 <__rc3>
    44da: a0 01        	ldy	#$1
    44dc: b1 14        	lda	($14),y                 ; 0x14 <__rc4>
    44de: 85 12        	sta	$12                     ; 0x12 <__rc2>
    44e0: c5 29        	cmp	$29                     ; 0x29 <__rc25>
    44e2: f0 03        	beq	$44e7 <vsnprintf+0x16e>
    44e4: 4c 65 45     	jmp	$4565 <vsnprintf+0x1ec>
    44e7: e4 28        	cpx	$28                     ; 0x28 <__rc24>
    44e9: b0 15        	bcs	$4500 <vsnprintf+0x187>
    44eb: b2 26        	lda	($26)                   ; 0x26 <__rc22>
    44ed: 85 16        	sta	$16                     ; 0x16 <__rc6>
    44ef: a5 24        	lda	$24                     ; 0x24 <__rc20>
    44f1: 18           	clc
    44f2: 65 13        	adc	$13                     ; 0x13 <__rc3>
    44f4: 85 14        	sta	$14                     ; 0x14 <__rc4>
    44f6: a5 25        	lda	$25                     ; 0x25 <__rc21>
    44f8: 65 12        	adc	$12                     ; 0x12 <__rc2>
    44fa: 85 15        	sta	$15                     ; 0x15 <__rc5>
    44fc: a5 16        	lda	$16                     ; 0x16 <__rc6>
    44fe: 92 14        	sta	($14)                   ; 0x14 <__rc4>
    4500: a6 13        	ldx	$13                     ; 0x13 <__rc3>
    4502: 18           	clc
    4503: a5 10        	lda	$10                     ; 0x10 <__rc0>
    4505: 69 04        	adc	#$4
    4507: 48           	pha
    4508: a5 11        	lda	$11                     ; 0x11 <__rc1>
    450a: 69 00        	adc	#$0
    450c: a8           	tay
    450d: 68           	pla
    450e: 85 14        	sta	$14                     ; 0x14 <__rc4>
    4510: 84 15        	sty	$15                     ; 0x15 <__rc5>
    4512: 18           	clc
    4513: 69 05        	adc	#$5
    4515: 85 16        	sta	$16                     ; 0x16 <__rc6>
    4517: 98           	tya
    4518: 69 00        	adc	#$0
    451a: a4 12        	ldy	$12                     ; 0x12 <__rc2>
    451c: 84 17        	sty	$17                     ; 0x17 <__rc7>
    451e: a4 16        	ldy	$16                     ; 0x16 <__rc6>
    4520: 84 12        	sty	$12                     ; 0x12 <__rc2>
    4522: 85 13        	sta	$13                     ; 0x13 <__rc3>
    4524: 8a           	txa
    4525: 1a           	inc
    4526: d0 02        	bne	$452a <vsnprintf+0x1b1>
    4528: e6 17        	inc	$17                     ; 0x17 <__rc7>
    452a: a0 05        	ldy	#$5
    452c: 91 14        	sta	($14),y                 ; 0x14 <__rc4>
    452e: a0 01        	ldy	#$1
    4530: a5 17        	lda	$17                     ; 0x17 <__rc7>
    4532: 91 12        	sta	($12),y                 ; 0x12 <__rc2>
    4534: e6 26        	inc	$26                     ; 0x26 <__rc22>
    4536: d0 02        	bne	$453a <vsnprintf+0x1c1>
    4538: e6 27        	inc	$27                     ; 0x27 <__rc23>
    453a: a6 26        	ldx	$26                     ; 0x26 <__rc22>
    453c: 86 12        	stx	$12                     ; 0x12 <__rc2>
    453e: a6 27        	ldx	$27                     ; 0x27 <__rc23>
    4540: 86 13        	stx	$13                     ; 0x13 <__rc3>
    4542: 4c a2 44     	jmp	$44a2 <vsnprintf+0x129>
    4545: a6 2a        	ldx	$2a                     ; 0x2a <__rc26>
    4547: 86 14        	stx	$14                     ; 0x14 <__rc4>
    4549: a6 2b        	ldx	$2b                     ; 0x2b <__rc27>
    454b: 86 15        	stx	$15                     ; 0x15 <__rc5>
    454d: 20 89 35     	jsr	$3589 <_ZN12_GLOBAL__N_15printEPKcP6Status>
    4550: a6 13        	ldx	$13                     ; 0x13 <__rc3>
    4552: e4 27        	cpx	$27                     ; 0x27 <__rc23>
    4554: f0 03        	beq	$4559 <vsnprintf+0x1e0>
    4556: 4c a2 44     	jmp	$44a2 <vsnprintf+0x129>
    4559: a6 12        	ldx	$12                     ; 0x12 <__rc2>
    455b: e4 26        	cpx	$26                     ; 0x26 <__rc22>
    455d: f0 03        	beq	$4562 <vsnprintf+0x1e9>
    455f: 4c a2 44     	jmp	$44a2 <vsnprintf+0x129>
    4562: 4c b9 44     	jmp	$44b9 <vsnprintf+0x140>
    4565: c5 29        	cmp	$29                     ; 0x29 <__rc25>
    4567: b0 03        	bcs	$456c <vsnprintf+0x1f3>
    4569: 4c eb 44     	jmp	$44eb <vsnprintf+0x172>
    456c: 4c 00 45     	jmp	$4500 <vsnprintf+0x187>
    456f: a0 05        	ldy	#$5
    4571: 18           	clc
    4572: a5 10        	lda	$10                     ; 0x10 <__rc0>
    4574: 69 04        	adc	#$4
    4576: 48           	pha
    4577: a5 11        	lda	$11                     ; 0x11 <__rc1>
    4579: 69 00        	adc	#$0
    457b: aa           	tax
    457c: 68           	pla
    457d: 85 12        	sta	$12                     ; 0x12 <__rc2>
    457f: 86 13        	stx	$13                     ; 0x13 <__rc3>
    4581: 18           	clc
    4582: 69 05        	adc	#$5
    4584: 85 14        	sta	$14                     ; 0x14 <__rc4>
    4586: 8a           	txa
    4587: 69 00        	adc	#$0
    4589: 85 15        	sta	$15                     ; 0x15 <__rc5>
    458b: b1 12        	lda	($12),y                 ; 0x12 <__rc2>
    458d: aa           	tax
    458e: 85 12        	sta	$12                     ; 0x12 <__rc2>
    4590: a0 01        	ldy	#$1
    4592: b1 14        	lda	($14),y                 ; 0x14 <__rc4>
    4594: 85 13        	sta	$13                     ; 0x13 <__rc3>
    4596: c5 29        	cmp	$29                     ; 0x29 <__rc25>
    4598: f0 03        	beq	$459d <vsnprintf+0x224>
    459a: 4c 0b 46     	jmp	$460b <vsnprintf+0x292>
    459d: e4 28        	cpx	$28                     ; 0x28 <__rc24>
    459f: b0 11        	bcs	$45b2 <vsnprintf+0x239>
    45a1: a5 24        	lda	$24                     ; 0x24 <__rc20>
    45a3: 18           	clc
    45a4: 65 12        	adc	$12                     ; 0x12 <__rc2>
    45a6: 85 12        	sta	$12                     ; 0x12 <__rc2>
    45a8: a5 25        	lda	$25                     ; 0x25 <__rc21>
    45aa: 65 13        	adc	$13                     ; 0x13 <__rc3>
    45ac: 85 13        	sta	$13                     ; 0x13 <__rc3>
    45ae: a9 00        	lda	#$0
    45b0: 92 12        	sta	($12)                   ; 0x12 <__rc2>
    45b2: a0 05        	ldy	#$5
    45b4: 18           	clc
    45b5: a5 10        	lda	$10                     ; 0x10 <__rc0>
    45b7: 69 04        	adc	#$4
    45b9: 48           	pha
    45ba: a5 11        	lda	$11                     ; 0x11 <__rc1>
    45bc: 69 00        	adc	#$0
    45be: aa           	tax
    45bf: 68           	pla
    45c0: 85 12        	sta	$12                     ; 0x12 <__rc2>
    45c2: 86 13        	stx	$13                     ; 0x13 <__rc3>
    45c4: 18           	clc
    45c5: 69 05        	adc	#$5
    45c7: 85 14        	sta	$14                     ; 0x14 <__rc4>
    45c9: 8a           	txa
    45ca: 69 00        	adc	#$0
    45cc: 85 15        	sta	$15                     ; 0x15 <__rc5>
    45ce: b1 12        	lda	($12),y                 ; 0x12 <__rc2>
    45d0: 85 12        	sta	$12                     ; 0x12 <__rc2>
    45d2: a0 01        	ldy	#$1
    45d4: b1 14        	lda	($14),y                 ; 0x14 <__rc4>
    45d6: aa           	tax
    45d7: a5 12        	lda	$12                     ; 0x12 <__rc2>
    45d9: 85 20        	sta	$20                     ; 0x20 <__rc16>
    45db: 88           	dey
    45dc: b1 10        	lda	($10),y                 ; 0x10 <__rc0>
    45de: 85 2b        	sta	$2b                     ; 0x2b <__rc27>
    45e0: c8           	iny
    45e1: b1 10        	lda	($10),y                 ; 0x10 <__rc0>
    45e3: 85 2a        	sta	$2a                     ; 0x2a <__rc26>
    45e5: c8           	iny
    45e6: b1 10        	lda	($10),y                 ; 0x10 <__rc0>
    45e8: 85 29        	sta	$29                     ; 0x29 <__rc25>
    45ea: c8           	iny
    45eb: b1 10        	lda	($10),y                 ; 0x10 <__rc0>
    45ed: 85 28        	sta	$28                     ; 0x28 <__rc24>
    45ef: 7a           	ply
    45f0: 84 27        	sty	$27                     ; 0x27 <__rc23>
    45f2: 7a           	ply
    45f3: 84 26        	sty	$26                     ; 0x26 <__rc22>
    45f5: 7a           	ply
    45f6: 84 25        	sty	$25                     ; 0x25 <__rc21>
    45f8: 7a           	ply
    45f9: 84 24        	sty	$24                     ; 0x24 <__rc20>
    45fb: 18           	clc
    45fc: a5 10        	lda	$10                     ; 0x10 <__rc0>
    45fe: 69 19        	adc	#$19
    4600: 85 10        	sta	$10                     ; 0x10 <__rc0>
    4602: a5 11        	lda	$11                     ; 0x11 <__rc1>
    4604: 69 00        	adc	#$0
    4606: 85 11        	sta	$11                     ; 0x11 <__rc1>
    4608: a5 20        	lda	$20                     ; 0x20 <__rc16>
    460a: 60           	rts
    460b: c5 29        	cmp	$29                     ; 0x29 <__rc25>
    460d: b0 03        	bcs	$4612 <vsnprintf+0x299>
    460f: 4c a1 45     	jmp	$45a1 <vsnprintf+0x228>
    4612: 4c b2 45     	jmp	$45b2 <vsnprintf+0x239>

00004615 <sprintf>:
    4615: 18           	clc
    4616: a5 10        	lda	$10                     ; 0x10 <__rc0>
    4618: 69 fe        	adc	#$fe
    461a: 85 10        	sta	$10                     ; 0x10 <__rc0>
    461c: a5 11        	lda	$11                     ; 0x11 <__rc1>
    461e: 69 ff        	adc	#$ff
    4620: 85 11        	sta	$11                     ; 0x11 <__rc1>
    4622: 18           	clc
    4623: a5 10        	lda	$10                     ; 0x10 <__rc0>
    4625: 69 02        	adc	#$2
    4627: 48           	pha
    4628: a5 11        	lda	$11                     ; 0x11 <__rc1>
    462a: 69 00        	adc	#$0
    462c: 85 18        	sta	$18                     ; 0x18 <__rc8>
    462e: 68           	pla
    462f: 18           	clc
    4630: a6 10        	ldx	$10                     ; 0x10 <__rc0>
    4632: 86 16        	stx	$16                     ; 0x16 <__rc6>
    4634: a6 11        	ldx	$11                     ; 0x11 <__rc1>
    4636: 86 17        	stx	$17                     ; 0x17 <__rc7>
    4638: 92 16        	sta	($16)                   ; 0x16 <__rc6>
    463a: a0 01        	ldy	#$1
    463c: a5 18        	lda	$18                     ; 0x18 <__rc8>
    463e: 91 16        	sta	($16),y                 ; 0x16 <__rc6>
    4640: b2 16        	lda	($16)                   ; 0x16 <__rc6>
    4642: aa           	tax
    4643: b1 16        	lda	($16),y                 ; 0x16 <__rc6>
    4645: 86 16        	stx	$16                     ; 0x16 <__rc6>
    4647: 85 17        	sta	$17                     ; 0x17 <__rc7>
    4649: a2 ff        	ldx	#$ff
    464b: 8a           	txa
    464c: 20 79 43     	jsr	$4379 <vsnprintf>
    464f: 48           	pha
    4650: 18           	clc
    4651: a5 10        	lda	$10                     ; 0x10 <__rc0>
    4653: 69 02        	adc	#$2
    4655: 85 10        	sta	$10                     ; 0x10 <__rc0>
    4657: a5 11        	lda	$11                     ; 0x11 <__rc1>
    4659: 69 00        	adc	#$0
    465b: 85 11        	sta	$11                     ; 0x11 <__rc1>
    465d: 68           	pla
    465e: 60           	rts

0000465f <fputc>:
    465f: 4c 62 46     	jmp	$4662 <putchar>

00004662 <putchar>:
    4662: a4 24        	ldy	$24                     ; 0x24 <__rc20>
    4664: 5a           	phy
    4665: a4 25        	ldy	$25                     ; 0x25 <__rc21>
    4667: 5a           	phy
    4668: 85 24        	sta	$24                     ; 0x24 <__rc20>
    466a: 86 25        	stx	$25                     ; 0x25 <__rc21>
    466c: a2 00        	ldx	#$0
    466e: 86 12        	stx	$12                     ; 0x12 <__rc2>
    4670: a2 00        	ldx	#$0
    4672: 86 13        	stx	$13                     ; 0x13 <__rc3>
    4674: a2 8a        	ldx	#$8a
    4676: 86 14        	stx	$14                     ; 0x14 <__rc4>
    4678: a2 46        	ldx	#$46
    467a: 86 15        	stx	$15                     ; 0x15 <__rc5>
    467c: 20 94 46     	jsr	$4694 <__from_ascii>
    467f: a6 25        	ldx	$25                     ; 0x25 <__rc21>
    4681: a5 24        	lda	$24                     ; 0x24 <__rc20>
    4683: 7a           	ply
    4684: 84 25        	sty	$25                     ; 0x25 <__rc21>
    4686: 7a           	ply
    4687: 84 24        	sty	$24                     ; 0x24 <__rc20>
    4689: 60           	rts

0000468a <putchar_wrapper>:
    468a: 20 46 33     	jsr	$3346 <__putchar>
    468d: a2 00        	ldx	#$0
    468f: 8a           	txa
    4690: 60           	rts

00004691 <putc>:
    4691: 4c 5f 46     	jmp	$465f <fputc>

00004694 <__from_ascii>:
    4694: a6 14        	ldx	$14                     ; 0x14 <__rc4>
    4696: 86 22        	stx	$22                     ; 0x22 <__rc18>
    4698: a6 15        	ldx	$15                     ; 0x15 <__rc5>
    469a: 86 23        	stx	$23                     ; 0x23 <__rc19>
    469c: 4c 03 06     	jmp	$603 <__call_indir>

0000469f <malloc>:
    469f: a8           	tay
    46a0: 8a           	txa
    46a1: a2 00        	ldx	#$0
    46a3: 86 12        	stx	$12                     ; 0x12 <__rc2>
    46a5: a2 00        	ldx	#$0
    46a7: 86 13        	stx	$13                     ; 0x13 <__rc3>
    46a9: aa           	tax
    46aa: d0 07        	bne	$46b3 <malloc+0x14>
    46ac: c0 00        	cpy	#$0
    46ae: d0 03        	bne	$46b3 <malloc+0x14>
    46b0: 4c 8f 47     	jmp	$478f <malloc+0xf0>
    46b3: 84 16        	sty	$16                     ; 0x16 <__rc6>
    46b5: aa           	tax
    46b6: d0 0e        	bne	$46c6 <malloc+0x27>
    46b8: a6 16        	ldx	$16                     ; 0x16 <__rc6>
    46ba: e0 07        	cpx	#$7
    46bc: b0 0c        	bcs	$46ca <malloc+0x2b>
    46be: a2 08        	ldx	#$8
    46c0: 64 17        	stz	$17                     ; 0x17 <__rc7>
    46c2: 86 16        	stx	$16                     ; 0x16 <__rc6>
    46c4: 80 30        	bra	$46f6 <malloc+0x57>
    46c6: c9 00        	cmp	#$0
    46c8: 90 f4        	bcc	$46be <malloc+0x1f>
    46ca: a8           	tay
    46cb: a5 16        	lda	$16                     ; 0x16 <__rc6>
    46cd: 29 01        	and	#$1
    46cf: a2 02        	ldx	#$2
    46d1: 64 14        	stz	$14                     ; 0x14 <__rc4>
    46d3: c9 00        	cmp	#$0
    46d5: f0 02        	beq	$46d9 <malloc+0x3a>
    46d7: a2 03        	ldx	#$3
    46d9: 86 15        	stx	$15                     ; 0x15 <__rc5>
    46db: 18           	clc
    46dc: a5 16        	lda	$16                     ; 0x16 <__rc6>
    46de: 65 15        	adc	$15                     ; 0x15 <__rc5>
    46e0: aa           	tax
    46e1: 98           	tya
    46e2: 65 14        	adc	$14                     ; 0x14 <__rc4>
    46e4: 90 03        	bcc	$46e9 <malloc+0x4a>
    46e6: 4c 8f 47     	jmp	$478f <malloc+0xf0>
    46e9: 86 16        	stx	$16                     ; 0x16 <__rc6>
    46eb: 85 17        	sta	$17                     ; 0x17 <__rc7>
    46ed: a8           	tay
    46ee: d0 06        	bne	$46f6 <malloc+0x57>
    46f0: 8a           	txa
    46f1: d0 03        	bne	$46f6 <malloc+0x57>
    46f3: 4c 8f 47     	jmp	$478f <malloc+0xf0>
    46f6: a5 97        	lda	$97                     ; 0x97 <_ZN12_GLOBAL__N_111initializedE>
    46f8: 29 01        	and	#$1
    46fa: d0 3b        	bne	$4737 <malloc+0x98>
    46fc: a5 68        	lda	$68                     ; 0x68 <_ZN12_GLOBAL__N_110heap_limitE>
    46fe: a6 69        	ldx	$69                     ; 0x69 <_ZN12_GLOBAL__N_110heap_limitE+0x1>
    4700: a0 a6        	ldy	#$a6
    4702: 84 12        	sty	$12                     ; 0x12 <__rc2>
    4704: a0 62        	ldy	#$62
    4706: 84 13        	sty	$13                     ; 0x13 <__rc3>
    4708: a4 16        	ldy	$16                     ; 0x16 <__rc6>
    470a: 84 a5        	sty	$a5                     ; 0xa5 <__zp_data_size+0x6b>
    470c: a4 17        	ldy	$17                     ; 0x17 <__rc7>
    470e: 84 a6        	sty	$a6                     ; 0xa6 <__zp_data_size+0x6c>
    4710: 20 52 03     	jsr	$352 <_ZN12_GLOBAL__N_19FreeChunk6insertEPvj>
    4713: a6 a6        	ldx	$a6                     ; 0xa6 <__zp_data_size+0x6c>
    4715: 86 17        	stx	$17                     ; 0x17 <__rc7>
    4717: a6 a5        	ldx	$a5                     ; 0xa5 <__zp_data_size+0x6b>
    4719: 86 16        	stx	$16                     ; 0x16 <__rc6>
    471b: a2 00        	ldx	#$0
    471d: 86 12        	stx	$12                     ; 0x12 <__rc2>
    471f: a2 00        	ldx	#$0
    4721: 86 13        	stx	$13                     ; 0x13 <__rc3>
    4723: ae a7 62     	ldx	$62a7                   ; 0x62a7 <end_block9+0x1>
    4726: a9 fe        	lda	#$fe
    4728: 2d a6 62     	and	$62a6                   ; 0x62a6 <end_block9>
    472b: 8d a6 62     	sta	$62a6                   ; 0x62a6 <end_block9>
    472e: 8e a7 62     	stx	$62a7                   ; 0x62a7 <end_block9+0x1>
    4731: a2 01        	ldx	#$1
    4733: 86 98        	stx	$98                     ; 0x98 <_ZN12_GLOBAL__N_19last_freeE>
    4735: 86 97        	stx	$97                     ; 0x97 <_ZN12_GLOBAL__N_111initializedE>
    4737: a6 9b        	ldx	$9b                     ; 0x9b <_ZN12_GLOBAL__N_19free_listE>
    4739: 86 18        	stx	$18                     ; 0x18 <__rc8>
    473b: a4 9c        	ldy	$9c                     ; 0x9c <_ZN12_GLOBAL__N_19free_listE+0x1>
    473d: 84 19        	sty	$19                     ; 0x19 <__rc9>
    473f: a9 00        	lda	#$0
    4741: 85 14        	sta	$14                     ; 0x14 <__rc4>
    4743: a9 00        	lda	#$0
    4745: 85 15        	sta	$15                     ; 0x15 <__rc5>
    4747: c4 15        	cpy	$15                     ; 0x15 <__rc5>
    4749: d0 04        	bne	$474f <malloc+0xb0>
    474b: e4 14        	cpx	$14                     ; 0x14 <__rc4>
    474d: f0 40        	beq	$478f <malloc+0xf0>
    474f: a0 01        	ldy	#$1
    4751: a6 18        	ldx	$18                     ; 0x18 <__rc8>
    4753: 86 14        	stx	$14                     ; 0x14 <__rc4>
    4755: a6 19        	ldx	$19                     ; 0x19 <__rc9>
    4757: 86 15        	stx	$15                     ; 0x15 <__rc5>
    4759: b1 14        	lda	($14),y                 ; 0x14 <__rc4>
    475b: c5 17        	cmp	$17                     ; 0x17 <__rc7>
    475d: d0 0a        	bne	$4769 <malloc+0xca>
    475f: b2 14        	lda	($14)                   ; 0x14 <__rc4>
    4761: 29 fe        	and	#$fe
    4763: c5 16        	cmp	$16                     ; 0x16 <__rc6>
    4765: b0 29        	bcs	$4790 <malloc+0xf1>
    4767: 80 04        	bra	$476d <malloc+0xce>
    4769: c5 17        	cmp	$17                     ; 0x17 <__rc7>
    476b: b0 23        	bcs	$4790 <malloc+0xf1>
    476d: a5 14        	lda	$14                     ; 0x14 <__rc4>
    476f: 18           	clc
    4770: 69 02        	adc	#$2
    4772: 85 1a        	sta	$1a                     ; 0x1a <__rc10>
    4774: a5 15        	lda	$15                     ; 0x15 <__rc5>
    4776: 69 00        	adc	#$0
    4778: 85 1b        	sta	$1b                     ; 0x1b <__rc11>
    477a: a0 02        	ldy	#$2
    477c: b1 14        	lda	($14),y                 ; 0x14 <__rc4>
    477e: 85 14        	sta	$14                     ; 0x14 <__rc4>
    4780: 88           	dey
    4781: b1 1a        	lda	($1a),y                 ; 0x1a <__rc10>
    4783: 85 15        	sta	$15                     ; 0x15 <__rc5>
    4785: c5 19        	cmp	$19                     ; 0x19 <__rc9>
    4787: d0 d0        	bne	$4759 <malloc+0xba>
    4789: a5 14        	lda	$14                     ; 0x14 <__rc4>
    478b: c5 18        	cmp	$18                     ; 0x18 <__rc8>
    478d: d0 ca        	bne	$4759 <malloc+0xba>
    478f: 60           	rts
    4790: a6 14        	ldx	$14                     ; 0x14 <__rc4>
    4792: 86 12        	stx	$12                     ; 0x12 <__rc2>
    4794: a6 15        	ldx	$15                     ; 0x15 <__rc5>
    4796: 86 13        	stx	$13                     ; 0x13 <__rc3>
    4798: a6 17        	ldx	$17                     ; 0x17 <__rc7>
    479a: a5 16        	lda	$16                     ; 0x16 <__rc6>
    479c: 4c 9f 47     	jmp	$479f <_ZN12_GLOBAL__N_119allocate_free_chunkEPNS_9FreeChunkEj>

0000479f <_ZN12_GLOBAL__N_119allocate_free_chunkEPNS_9FreeChunkEj>:
    479f: 85 a7        	sta	$a7                     ; 0xa7 <__zp_data_size+0x6d>
    47a1: 86 aa        	stx	$aa                     ; 0xaa <__zp_data_size+0x70>
    47a3: a6 12        	ldx	$12                     ; 0x12 <__rc2>
    47a5: 86 a8        	stx	$a8                     ; 0xa8 <__zp_data_size+0x6e>
    47a7: a6 13        	ldx	$13                     ; 0x13 <__rc3>
    47a9: 86 a9        	stx	$a9                     ; 0xa9 <__zp_data_size+0x6f>
    47ab: 20 88 04     	jsr	$488 <_ZN12_GLOBAL__N_19FreeChunk6removeEv>
    47ae: a0 01        	ldy	#$1
    47b0: b1 a8        	lda	($a8),y                 ; 0xa8 <__zp_data_size+0x6e>
    47b2: 85 14        	sta	$14                     ; 0x14 <__rc4>
    47b4: a9 fe        	lda	#$fe
    47b6: 32 a8        	and	($a8)                   ; 0xa8 <__zp_data_size+0x6e>
    47b8: 38           	sec
    47b9: a6 a7        	ldx	$a7                     ; 0xa7 <__zp_data_size+0x6d>
    47bb: a8           	tay
    47bc: e5 a7        	sbc	$a7                     ; 0xa7 <__zp_data_size+0x6d>
    47be: 85 16        	sta	$16                     ; 0x16 <__rc6>
    47c0: a5 aa        	lda	$aa                     ; 0xaa <__zp_data_size+0x70>
    47c2: 85 13        	sta	$13                     ; 0x13 <__rc3>
    47c4: 85 12        	sta	$12                     ; 0x12 <__rc2>
    47c6: a5 14        	lda	$14                     ; 0x14 <__rc4>
    47c8: e5 12        	sbc	$12                     ; 0x12 <__rc2>
    47ca: f0 03        	beq	$47cf <_ZN12_GLOBAL__N_119allocate_free_chunkEPNS_9FreeChunkEj+0x30>
    47cc: 4c 4a 48     	jmp	$484a <_ZN12_GLOBAL__N_119allocate_free_chunkEPNS_9FreeChunkEj+0xab>
    47cf: 85 15        	sta	$15                     ; 0x15 <__rc5>
    47d1: a5 16        	lda	$16                     ; 0x16 <__rc6>
    47d3: c9 08        	cmp	#$8
    47d5: 90 2e        	bcc	$4805 <_ZN12_GLOBAL__N_119allocate_free_chunkEPNS_9FreeChunkEj+0x66>
    47d7: a8           	tay
    47d8: 18           	clc
    47d9: 8a           	txa
    47da: 65 a8        	adc	$a8                     ; 0xa8 <__zp_data_size+0x6e>
    47dc: 85 12        	sta	$12                     ; 0x12 <__rc2>
    47de: a5 13        	lda	$13                     ; 0x13 <__rc3>
    47e0: a6 13        	ldx	$13                     ; 0x13 <__rc3>
    47e2: 86 aa        	stx	$aa                     ; 0xaa <__zp_data_size+0x70>
    47e4: 65 a9        	adc	$a9                     ; 0xa9 <__zp_data_size+0x6f>
    47e6: 85 13        	sta	$13                     ; 0x13 <__rc3>
    47e8: a6 15        	ldx	$15                     ; 0x15 <__rc5>
    47ea: 98           	tya
    47eb: 20 52 03     	jsr	$352 <_ZN12_GLOBAL__N_19FreeChunk6insertEPvj>
    47ee: a5 a7        	lda	$a7                     ; 0xa7 <__zp_data_size+0x6d>
    47f0: 29 fe        	and	#$fe
    47f2: 85 12        	sta	$12                     ; 0x12 <__rc2>
    47f4: a0 01        	ldy	#$1
    47f6: 98           	tya
    47f7: 32 a8        	and	($a8)                   ; 0xa8 <__zp_data_size+0x6e>
    47f9: 05 12        	ora	$12                     ; 0x12 <__rc2>
    47fb: 92 a8        	sta	($a8)                   ; 0xa8 <__zp_data_size+0x6e>
    47fd: a5 aa        	lda	$aa                     ; 0xaa <__zp_data_size+0x70>
    47ff: 91 a8        	sta	($a8),y                 ; 0xa8 <__zp_data_size+0x6e>
    4801: a4 12        	ldy	$12                     ; 0x12 <__rc2>
    4803: 85 14        	sta	$14                     ; 0x14 <__rc4>
    4805: 18           	clc
    4806: 98           	tya
    4807: 65 a8        	adc	$a8                     ; 0xa8 <__zp_data_size+0x6e>
    4809: a8           	tay
    480a: a5 14        	lda	$14                     ; 0x14 <__rc4>
    480c: 65 a9        	adc	$a9                     ; 0xa9 <__zp_data_size+0x6f>
    480e: aa           	tax
    480f: 18           	clc
    4810: a9 a6        	lda	#$a6
    4812: 65 68        	adc	$68                     ; 0x68 <_ZN12_GLOBAL__N_110heap_limitE>
    4814: 85 13        	sta	$13                     ; 0x13 <__rc3>
    4816: a9 62        	lda	#$62
    4818: 65 69        	adc	$69                     ; 0x69 <_ZN12_GLOBAL__N_110heap_limitE+0x1>
    481a: 85 12        	sta	$12                     ; 0x12 <__rc2>
    481c: e4 12        	cpx	$12                     ; 0x12 <__rc2>
    481e: d0 08        	bne	$4828 <_ZN12_GLOBAL__N_119allocate_free_chunkEPNS_9FreeChunkEj+0x89>
    4820: c4 13        	cpy	$13                     ; 0x13 <__rc3>
    4822: d0 04        	bne	$4828 <_ZN12_GLOBAL__N_119allocate_free_chunkEPNS_9FreeChunkEj+0x89>
    4824: 64 98        	stz	$98                     ; 0x98 <_ZN12_GLOBAL__N_19last_freeE>
    4826: 80 14        	bra	$483c <_ZN12_GLOBAL__N_119allocate_free_chunkEPNS_9FreeChunkEj+0x9d>
    4828: 84 12        	sty	$12                     ; 0x12 <__rc2>
    482a: 86 13        	stx	$13                     ; 0x13 <__rc3>
    482c: a0 01        	ldy	#$1
    482e: b1 12        	lda	($12),y                 ; 0x12 <__rc2>
    4830: 85 14        	sta	$14                     ; 0x14 <__rc4>
    4832: a9 fe        	lda	#$fe
    4834: 32 12        	and	($12)                   ; 0x12 <__rc2>
    4836: 92 12        	sta	($12)                   ; 0x12 <__rc2>
    4838: a5 14        	lda	$14                     ; 0x14 <__rc4>
    483a: 91 12        	sta	($12),y                 ; 0x12 <__rc2>
    483c: a5 a8        	lda	$a8                     ; 0xa8 <__zp_data_size+0x6e>
    483e: 18           	clc
    483f: 69 02        	adc	#$2
    4841: 85 12        	sta	$12                     ; 0x12 <__rc2>
    4843: a5 a9        	lda	$a9                     ; 0xa9 <__zp_data_size+0x6f>
    4845: 69 00        	adc	#$0
    4847: 85 13        	sta	$13                     ; 0x13 <__rc3>
    4849: 60           	rts
    484a: 85 15        	sta	$15                     ; 0x15 <__rc5>
    484c: c9 00        	cmp	#$0
    484e: a5 16        	lda	$16                     ; 0x16 <__rc6>
    4850: 90 b3        	bcc	$4805 <_ZN12_GLOBAL__N_119allocate_free_chunkEPNS_9FreeChunkEj+0x66>
    4852: 4c d7 47     	jmp	$47d7 <_ZN12_GLOBAL__N_119allocate_free_chunkEPNS_9FreeChunkEj+0x38>

00004855 <free>:
    4855: a6 12        	ldx	$12                     ; 0x12 <__rc2>
    4857: 86 14        	stx	$14                     ; 0x14 <__rc4>
    4859: a6 13        	ldx	$13                     ; 0x13 <__rc3>
    485b: 86 15        	stx	$15                     ; 0x15 <__rc5>
    485d: a2 00        	ldx	#$0
    485f: 86 12        	stx	$12                     ; 0x12 <__rc2>
    4861: a2 00        	ldx	#$0
    4863: 86 13        	stx	$13                     ; 0x13 <__rc3>
    4865: a6 15        	ldx	$15                     ; 0x15 <__rc5>
    4867: e4 13        	cpx	$13                     ; 0x13 <__rc3>
    4869: d0 09        	bne	$4874 <free+0x1f>
    486b: a6 14        	ldx	$14                     ; 0x14 <__rc4>
    486d: e4 12        	cpx	$12                     ; 0x12 <__rc2>
    486f: d0 03        	bne	$4874 <free+0x1f>
    4871: 4c cc 49     	jmp	$49cc <free+0x177>
    4874: a5 14        	lda	$14                     ; 0x14 <__rc4>
    4876: 18           	clc
    4877: 69 fe        	adc	#$fe
    4879: aa           	tax
    487a: a5 15        	lda	$15                     ; 0x15 <__rc5>
    487c: 69 ff        	adc	#$ff
    487e: 86 9d        	stx	$9d                     ; 0x9d <__zp_data_size+0x63>
    4880: 85 9e        	sta	$9e                     ; 0x9e <__zp_data_size+0x64>
    4882: 85 12        	sta	$12                     ; 0x12 <__rc2>
    4884: a0 01        	ldy	#$1
    4886: b1 9d        	lda	($9d),y                 ; 0x9d <__zp_data_size+0x63>
    4888: 85 16        	sta	$16                     ; 0x16 <__rc6>
    488a: a9 fe        	lda	#$fe
    488c: 32 9d        	and	($9d)                   ; 0x9d <__zp_data_size+0x63>
    488e: 85 17        	sta	$17                     ; 0x17 <__rc7>
    4890: 8a           	txa
    4891: 86 1b        	stx	$1b                     ; 0x1b <__rc11>
    4893: 18           	clc
    4894: 65 17        	adc	$17                     ; 0x17 <__rc7>
    4896: aa           	tax
    4897: a4 12        	ldy	$12                     ; 0x12 <__rc2>
    4899: 84 1c        	sty	$1c                     ; 0x1c <__rc12>
    489b: a5 12        	lda	$12                     ; 0x12 <__rc2>
    489d: 65 16        	adc	$16                     ; 0x16 <__rc6>
    489f: a8           	tay
    48a0: b2 9d        	lda	($9d)                   ; 0x9d <__zp_data_size+0x63>
    48a2: 85 1a        	sta	$1a                     ; 0x1a <__rc10>
    48a4: a9 a6        	lda	#$a6
    48a6: 18           	clc
    48a7: 65 68        	adc	$68                     ; 0x68 <_ZN12_GLOBAL__N_110heap_limitE>
    48a9: 85 18        	sta	$18                     ; 0x18 <__rc8>
    48ab: a9 62        	lda	#$62
    48ad: 65 69        	adc	$69                     ; 0x69 <_ZN12_GLOBAL__N_110heap_limitE+0x1>
    48af: 85 19        	sta	$19                     ; 0x19 <__rc9>
    48b1: c4 19        	cpy	$19                     ; 0x19 <__rc9>
    48b3: d0 0e        	bne	$48c3 <free+0x6e>
    48b5: e4 18        	cpx	$18                     ; 0x18 <__rc8>
    48b7: d0 0a        	bne	$48c3 <free+0x6e>
    48b9: a2 00        	ldx	#$0
    48bb: 86 12        	stx	$12                     ; 0x12 <__rc2>
    48bd: a2 00        	ldx	#$0
    48bf: 86 13        	stx	$13                     ; 0x13 <__rc3>
    48c1: 80 04        	bra	$48c7 <free+0x72>
    48c3: 86 12        	stx	$12                     ; 0x12 <__rc2>
    48c5: 84 13        	sty	$13                     ; 0x13 <__rc3>
    48c7: a5 1a        	lda	$1a                     ; 0x1a <__rc10>
    48c9: 29 01        	and	#$1
    48cb: d0 03        	bne	$48d0 <free+0x7b>
    48cd: 4c 4b 49     	jmp	$494b <free+0xf6>
    48d0: a5 14        	lda	$14                     ; 0x14 <__rc4>
    48d2: 18           	clc
    48d3: 69 fc        	adc	#$fc
    48d5: 85 14        	sta	$14                     ; 0x14 <__rc4>
    48d7: a5 15        	lda	$15                     ; 0x15 <__rc5>
    48d9: 69 ff        	adc	#$ff
    48db: 85 15        	sta	$15                     ; 0x15 <__rc5>
    48dd: a0 01        	ldy	#$1
    48df: 38           	sec
    48e0: a9 00        	lda	#$0
    48e2: f2 14        	sbc	($14)                   ; 0x14 <__rc4>
    48e4: 85 1a        	sta	$1a                     ; 0x1a <__rc10>
    48e6: a9 00        	lda	#$0
    48e8: f1 14        	sbc	($14),y                 ; 0x14 <__rc4>
    48ea: 85 14        	sta	$14                     ; 0x14 <__rc4>
    48ec: a5 1b        	lda	$1b                     ; 0x1b <__rc11>
    48ee: 18           	clc
    48ef: 65 1a        	adc	$1a                     ; 0x1a <__rc10>
    48f1: 85 9d        	sta	$9d                     ; 0x9d <__zp_data_size+0x63>
    48f3: a5 1c        	lda	$1c                     ; 0x1c <__rc12>
    48f5: 65 14        	adc	$14                     ; 0x14 <__rc4>
    48f7: 85 9e        	sta	$9e                     ; 0x9e <__zp_data_size+0x64>
    48f9: b1 9d        	lda	($9d),y                 ; 0x9d <__zp_data_size+0x63>
    48fb: 85 a5        	sta	$a5                     ; 0xa5 <__zp_data_size+0x6b>
    48fd: a9 fe        	lda	#$fe
    48ff: 32 9d        	and	($9d)                   ; 0x9d <__zp_data_size+0x63>
    4901: 85 a6        	sta	$a6                     ; 0xa6 <__zp_data_size+0x6c>
    4903: a6 12        	ldx	$12                     ; 0x12 <__rc2>
    4905: 86 9f        	stx	$9f                     ; 0x9f <__zp_data_size+0x65>
    4907: a6 13        	ldx	$13                     ; 0x13 <__rc3>
    4909: 86 a0        	stx	$a0                     ; 0xa0 <__zp_data_size+0x66>
    490b: a6 9d        	ldx	$9d                     ; 0x9d <__zp_data_size+0x63>
    490d: 86 12        	stx	$12                     ; 0x12 <__rc2>
    490f: a6 9e        	ldx	$9e                     ; 0x9e <__zp_data_size+0x64>
    4911: 86 13        	stx	$13                     ; 0x13 <__rc3>
    4913: a6 16        	ldx	$16                     ; 0x16 <__rc6>
    4915: 86 a1        	stx	$a1                     ; 0xa1 <__zp_data_size+0x67>
    4917: a6 17        	ldx	$17                     ; 0x17 <__rc7>
    4919: 86 a2        	stx	$a2                     ; 0xa2 <__zp_data_size+0x68>
    491b: a6 18        	ldx	$18                     ; 0x18 <__rc8>
    491d: 86 a3        	stx	$a3                     ; 0xa3 <__zp_data_size+0x69>
    491f: a6 19        	ldx	$19                     ; 0x19 <__rc9>
    4921: 86 a4        	stx	$a4                     ; 0xa4 <__zp_data_size+0x6a>
    4923: 20 88 04     	jsr	$488 <_ZN12_GLOBAL__N_19FreeChunk6removeEv>
    4926: a6 a4        	ldx	$a4                     ; 0xa4 <__zp_data_size+0x6a>
    4928: 86 19        	stx	$19                     ; 0x19 <__rc9>
    492a: a6 a3        	ldx	$a3                     ; 0xa3 <__zp_data_size+0x69>
    492c: 86 18        	stx	$18                     ; 0x18 <__rc8>
    492e: a6 9f        	ldx	$9f                     ; 0x9f <__zp_data_size+0x65>
    4930: 86 12        	stx	$12                     ; 0x12 <__rc2>
    4932: a6 a0        	ldx	$a0                     ; 0xa0 <__zp_data_size+0x66>
    4934: 86 13        	stx	$13                     ; 0x13 <__rc3>
    4936: 18           	clc
    4937: a5 a6        	lda	$a6                     ; 0xa6 <__zp_data_size+0x6c>
    4939: a6 a2        	ldx	$a2                     ; 0xa2 <__zp_data_size+0x68>
    493b: 86 14        	stx	$14                     ; 0x14 <__rc4>
    493d: 65 14        	adc	$14                     ; 0x14 <__rc4>
    493f: 85 17        	sta	$17                     ; 0x17 <__rc7>
    4941: a5 a5        	lda	$a5                     ; 0xa5 <__zp_data_size+0x6b>
    4943: a6 a1        	ldx	$a1                     ; 0xa1 <__zp_data_size+0x67>
    4945: 86 14        	stx	$14                     ; 0x14 <__rc4>
    4947: 65 14        	adc	$14                     ; 0x14 <__rc4>
    4949: 85 16        	sta	$16                     ; 0x16 <__rc6>
    494b: a2 00        	ldx	#$0
    494d: 86 14        	stx	$14                     ; 0x14 <__rc4>
    494f: a2 00        	ldx	#$0
    4951: 86 15        	stx	$15                     ; 0x15 <__rc5>
    4953: a6 13        	ldx	$13                     ; 0x13 <__rc3>
    4955: e4 15        	cpx	$15                     ; 0x15 <__rc5>
    4957: d0 0d        	bne	$4966 <free+0x111>
    4959: a6 12        	ldx	$12                     ; 0x12 <__rc2>
    495b: e4 14        	cpx	$14                     ; 0x14 <__rc4>
    495d: d0 07        	bne	$4966 <free+0x111>
    495f: a2 01        	ldx	#$1
    4961: 86 98        	stx	$98                     ; 0x98 <_ZN12_GLOBAL__N_19last_freeE>
    4963: 4c bd 49     	jmp	$49bd <free+0x168>
    4966: a0 01        	ldy	#$1
    4968: b1 12        	lda	($12),y                 ; 0x12 <__rc2>
    496a: a8           	tay
    496b: a9 fe        	lda	#$fe
    496d: 32 12        	and	($12)                   ; 0x12 <__rc2>
    496f: 18           	clc
    4970: 85 a3        	sta	$a3                     ; 0xa3 <__zp_data_size+0x69>
    4972: 65 12        	adc	$12                     ; 0x12 <__rc2>
    4974: 85 14        	sta	$14                     ; 0x14 <__rc4>
    4976: 98           	tya
    4977: 85 9f        	sta	$9f                     ; 0x9f <__zp_data_size+0x65>
    4979: 65 13        	adc	$13                     ; 0x13 <__rc3>
    497b: c5 19        	cmp	$19                     ; 0x19 <__rc9>
    497d: d0 0e        	bne	$498d <free+0x138>
    497f: a6 14        	ldx	$14                     ; 0x14 <__rc4>
    4981: e4 18        	cpx	$18                     ; 0x18 <__rc8>
    4983: d0 08        	bne	$498d <free+0x138>
    4985: a9 01        	lda	#$1
    4987: 64 14        	stz	$14                     ; 0x14 <__rc4>
    4989: 25 98        	and	$98                     ; 0x98 <_ZN12_GLOBAL__N_19last_freeE>
    498b: 80 08        	bra	$4995 <free+0x140>
    498d: 85 15        	sta	$15                     ; 0x15 <__rc5>
    498f: a9 01        	lda	#$1
    4991: 32 14        	and	($14)                   ; 0x14 <__rc4>
    4993: 64 14        	stz	$14                     ; 0x14 <__rc4>
    4995: a6 14        	ldx	$14                     ; 0x14 <__rc4>
    4997: d0 03        	bne	$499c <free+0x147>
    4999: aa           	tax
    499a: f0 31        	beq	$49cd <free+0x178>
    499c: a6 16        	ldx	$16                     ; 0x16 <__rc6>
    499e: 86 a1        	stx	$a1                     ; 0xa1 <__zp_data_size+0x67>
    49a0: a6 17        	ldx	$17                     ; 0x17 <__rc7>
    49a2: 86 a2        	stx	$a2                     ; 0xa2 <__zp_data_size+0x68>
    49a4: 20 88 04     	jsr	$488 <_ZN12_GLOBAL__N_19FreeChunk6removeEv>
    49a7: 18           	clc
    49a8: a6 a3        	ldx	$a3                     ; 0xa3 <__zp_data_size+0x69>
    49aa: 8a           	txa
    49ab: a6 a2        	ldx	$a2                     ; 0xa2 <__zp_data_size+0x68>
    49ad: 86 12        	stx	$12                     ; 0x12 <__rc2>
    49af: 65 12        	adc	$12                     ; 0x12 <__rc2>
    49b1: 85 17        	sta	$17                     ; 0x17 <__rc7>
    49b3: a5 9f        	lda	$9f                     ; 0x9f <__zp_data_size+0x65>
    49b5: a6 a1        	ldx	$a1                     ; 0xa1 <__zp_data_size+0x67>
    49b7: 86 12        	stx	$12                     ; 0x12 <__rc2>
    49b9: 65 12        	adc	$12                     ; 0x12 <__rc2>
    49bb: 85 16        	sta	$16                     ; 0x16 <__rc6>
    49bd: a6 9d        	ldx	$9d                     ; 0x9d <__zp_data_size+0x63>
    49bf: 86 12        	stx	$12                     ; 0x12 <__rc2>
    49c1: a6 9e        	ldx	$9e                     ; 0x9e <__zp_data_size+0x64>
    49c3: 86 13        	stx	$13                     ; 0x13 <__rc3>
    49c5: a6 16        	ldx	$16                     ; 0x16 <__rc6>
    49c7: a5 17        	lda	$17                     ; 0x17 <__rc7>
    49c9: 20 52 03     	jsr	$352 <_ZN12_GLOBAL__N_19FreeChunk6insertEPvj>
    49cc: 60           	rts
    49cd: b2 12        	lda	($12)                   ; 0x12 <__rc2>
    49cf: 09 01        	ora	#$1
    49d1: 92 12        	sta	($12)                   ; 0x12 <__rc2>
    49d3: a0 01        	ldy	#$1
    49d5: a5 9f        	lda	$9f                     ; 0x9f <__zp_data_size+0x65>
    49d7: 91 12        	sta	($12),y                 ; 0x12 <__rc2>
    49d9: 80 e2        	bra	$49bd <free+0x168>

000049db <memcpy>:
    49db: a8           	tay
    49dc: 8a           	txa
    49dd: d0 03        	bne	$49e2 <memcpy+0x7>
    49df: 98           	tya
    49e0: f0 24        	beq	$4a06 <memcpy+0x2b>
    49e2: a5 12        	lda	$12                     ; 0x12 <__rc2>
    49e4: 85 16        	sta	$16                     ; 0x16 <__rc6>
    49e6: a5 13        	lda	$13                     ; 0x13 <__rc3>
    49e8: 85 17        	sta	$17                     ; 0x17 <__rc7>
    49ea: b2 14        	lda	($14)                   ; 0x14 <__rc4>
    49ec: 92 16        	sta	($16)                   ; 0x16 <__rc6>
    49ee: e6 16        	inc	$16                     ; 0x16 <__rc6>
    49f0: d0 02        	bne	$49f4 <memcpy+0x19>
    49f2: e6 17        	inc	$17                     ; 0x17 <__rc7>
    49f4: e6 14        	inc	$14                     ; 0x14 <__rc4>
    49f6: d0 02        	bne	$49fa <memcpy+0x1f>
    49f8: e6 15        	inc	$15                     ; 0x15 <__rc5>
    49fa: 88           	dey
    49fb: c0 ff        	cpy	#$ff
    49fd: d0 01        	bne	$4a00 <memcpy+0x25>
    49ff: ca           	dex
    4a00: 8a           	txa
    4a01: d0 e7        	bne	$49ea <memcpy+0xf>
    4a03: 98           	tya
    4a04: d0 e4        	bne	$49ea <memcpy+0xf>
    4a06: 60           	rts

00004a07 <__memset>:
    4a07: a4 14        	ldy	$14                     ; 0x14 <__rc4>
    4a09: d0 04        	bne	$4a0f <__memset+0x8>
    4a0b: e0 00        	cpx	#$0
    4a0d: f0 17        	beq	$4a26 <__memset+0x1f>
    4a0f: 92 12        	sta	($12)                   ; 0x12 <__rc2>
    4a11: e6 12        	inc	$12                     ; 0x12 <__rc2>
    4a13: d0 02        	bne	$4a17 <__memset+0x10>
    4a15: e6 13        	inc	$13                     ; 0x13 <__rc3>
    4a17: ca           	dex
    4a18: e0 ff        	cpx	#$ff
    4a1a: d0 02        	bne	$4a1e <__memset+0x17>
    4a1c: c6 14        	dec	$14                     ; 0x14 <__rc4>
    4a1e: a4 14        	ldy	$14                     ; 0x14 <__rc4>
    4a20: d0 ed        	bne	$4a0f <__memset+0x8>
    4a22: e0 00        	cpx	#$0
    4a24: d0 e9        	bne	$4a0f <__memset+0x8>
    4a26: 60           	rts

00004a27 <strcpy>:
    4a27: b2 14        	lda	($14)                   ; 0x14 <__rc4>
    4a29: aa           	tax
    4a2a: b2 14        	lda	($14)                   ; 0x14 <__rc4>
    4a2c: 92 12        	sta	($12)                   ; 0x12 <__rc2>
    4a2e: 8a           	txa
    4a2f: f0 30        	beq	$4a61 <strcpy+0x3a>
    4a31: a0 01        	ldy	#$1
    4a33: a6 12        	ldx	$12                     ; 0x12 <__rc2>
    4a35: 86 16        	stx	$16                     ; 0x16 <__rc6>
    4a37: a6 13        	ldx	$13                     ; 0x13 <__rc3>
    4a39: 86 17        	stx	$17                     ; 0x17 <__rc7>
    4a3b: a6 14        	ldx	$14                     ; 0x14 <__rc4>
    4a3d: 86 18        	stx	$18                     ; 0x18 <__rc8>
    4a3f: a6 15        	ldx	$15                     ; 0x15 <__rc5>
    4a41: 86 19        	stx	$19                     ; 0x19 <__rc9>
    4a43: e6 18        	inc	$18                     ; 0x18 <__rc8>
    4a45: d0 02        	bne	$4a49 <strcpy+0x22>
    4a47: e6 19        	inc	$19                     ; 0x19 <__rc9>
    4a49: b1 14        	lda	($14),y                 ; 0x14 <__rc4>
    4a4b: aa           	tax
    4a4c: b1 14        	lda	($14),y                 ; 0x14 <__rc4>
    4a4e: 91 16        	sta	($16),y                 ; 0x16 <__rc6>
    4a50: e6 16        	inc	$16                     ; 0x16 <__rc6>
    4a52: d0 02        	bne	$4a56 <strcpy+0x2f>
    4a54: e6 17        	inc	$17                     ; 0x17 <__rc7>
    4a56: a5 18        	lda	$18                     ; 0x18 <__rc8>
    4a58: 85 14        	sta	$14                     ; 0x14 <__rc4>
    4a5a: a5 19        	lda	$19                     ; 0x19 <__rc9>
    4a5c: 85 15        	sta	$15                     ; 0x15 <__rc5>
    4a5e: 8a           	txa
    4a5f: d0 e2        	bne	$4a43 <strcpy+0x1c>
    4a61: 60           	rts

00004a62 <strncpy>:
    4a62: 85 17        	sta	$17                     ; 0x17 <__rc7>
    4a64: 86 16        	stx	$16                     ; 0x16 <__rc6>
    4a66: a5 16        	lda	$16                     ; 0x16 <__rc6>
    4a68: d0 04        	bne	$4a6e <strncpy+0xc>
    4a6a: a5 17        	lda	$17                     ; 0x17 <__rc7>
    4a6c: f0 3c        	beq	$4aaa <strncpy+0x48>
    4a6e: 38           	sec
    4a6f: a9 01        	lda	#$1
    4a71: e5 17        	sbc	$17                     ; 0x17 <__rc7>
    4a73: aa           	tax
    4a74: a9 00        	lda	#$0
    4a76: e5 16        	sbc	$16                     ; 0x16 <__rc6>
    4a78: a4 12        	ldy	$12                     ; 0x12 <__rc2>
    4a7a: 84 16        	sty	$16                     ; 0x16 <__rc6>
    4a7c: a4 13        	ldy	$13                     ; 0x13 <__rc3>
    4a7e: 84 17        	sty	$17                     ; 0x17 <__rc7>
    4a80: 85 18        	sta	$18                     ; 0x18 <__rc8>
    4a82: 86 19        	stx	$19                     ; 0x19 <__rc9>
    4a84: b2 14        	lda	($14)                   ; 0x14 <__rc4>
    4a86: aa           	tax
    4a87: b2 14        	lda	($14)                   ; 0x14 <__rc4>
    4a89: 92 16        	sta	($16)                   ; 0x16 <__rc6>
    4a8b: 8a           	txa
    4a8c: f0 1d        	beq	$4aab <strncpy+0x49>
    4a8e: e6 16        	inc	$16                     ; 0x16 <__rc6>
    4a90: d0 02        	bne	$4a94 <strncpy+0x32>
    4a92: e6 17        	inc	$17                     ; 0x17 <__rc7>
    4a94: e6 14        	inc	$14                     ; 0x14 <__rc4>
    4a96: d0 02        	bne	$4a9a <strncpy+0x38>
    4a98: e6 15        	inc	$15                     ; 0x15 <__rc5>
    4a9a: a5 18        	lda	$18                     ; 0x18 <__rc8>
    4a9c: a6 19        	ldx	$19                     ; 0x19 <__rc9>
    4a9e: e8           	inx
    4a9f: d0 01        	bne	$4aa2 <strncpy+0x40>
    4aa1: 1a           	inc
    4aa2: a4 18        	ldy	$18                     ; 0x18 <__rc8>
    4aa4: d0 da        	bne	$4a80 <strncpy+0x1e>
    4aa6: a4 19        	ldy	$19                     ; 0x19 <__rc9>
    4aa8: d0 d6        	bne	$4a80 <strncpy+0x1e>
    4aaa: 60           	rts
    4aab: a5 18        	lda	$18                     ; 0x18 <__rc8>
    4aad: d0 04        	bne	$4ab3 <strncpy+0x51>
    4aaf: a5 19        	lda	$19                     ; 0x19 <__rc9>
    4ab1: f0 f7        	beq	$4aaa <strncpy+0x48>
    4ab3: 38           	sec
    4ab4: a9 00        	lda	#$0
    4ab6: e5 19        	sbc	$19                     ; 0x19 <__rc9>
    4ab8: 85 15        	sta	$15                     ; 0x15 <__rc5>
    4aba: a9 00        	lda	#$0
    4abc: e5 18        	sbc	$18                     ; 0x18 <__rc8>
    4abe: e6 16        	inc	$16                     ; 0x16 <__rc6>
    4ac0: d0 02        	bne	$4ac4 <strncpy+0x62>
    4ac2: e6 17        	inc	$17                     ; 0x17 <__rc7>
    4ac4: a6 12        	ldx	$12                     ; 0x12 <__rc2>
    4ac6: 86 ad        	stx	$ad                     ; 0xad <__zp_data_size+0x73>
    4ac8: a6 13        	ldx	$13                     ; 0x13 <__rc3>
    4aca: 86 ae        	stx	$ae                     ; 0xae <__zp_data_size+0x74>
    4acc: a6 16        	ldx	$16                     ; 0x16 <__rc6>
    4ace: 86 12        	stx	$12                     ; 0x12 <__rc2>
    4ad0: a6 17        	ldx	$17                     ; 0x17 <__rc7>
    4ad2: 86 13        	stx	$13                     ; 0x13 <__rc3>
    4ad4: 85 14        	sta	$14                     ; 0x14 <__rc4>
    4ad6: a6 15        	ldx	$15                     ; 0x15 <__rc5>
    4ad8: a9 00        	lda	#$0
    4ada: 20 07 4a     	jsr	$4a07 <__memset>
    4add: a6 ad        	ldx	$ad                     ; 0xad <__zp_data_size+0x73>
    4adf: 86 12        	stx	$12                     ; 0x12 <__rc2>
    4ae1: a6 ae        	ldx	$ae                     ; 0xae <__zp_data_size+0x74>
    4ae3: 86 13        	stx	$13                     ; 0x13 <__rc3>
    4ae5: 60           	rts

00004ae6 <strlen>:
    4ae6: b2 12        	lda	($12)                   ; 0x12 <__rc2>
    4ae8: f0 2e        	beq	$4b18 <strlen+0x32>
    4aea: 64 15        	stz	$15                     ; 0x15 <__rc5>
    4aec: a0 01        	ldy	#$1
    4aee: a9 00        	lda	#$0
    4af0: 64 14        	stz	$14                     ; 0x14 <__rc4>
    4af2: aa           	tax
    4af3: e6 14        	inc	$14                     ; 0x14 <__rc4>
    4af5: d0 01        	bne	$4af8 <strlen+0x12>
    4af7: e8           	inx
    4af8: 18           	clc
    4af9: 85 17        	sta	$17                     ; 0x17 <__rc7>
    4afb: a5 15        	lda	$15                     ; 0x15 <__rc5>
    4afd: 65 12        	adc	$12                     ; 0x12 <__rc2>
    4aff: 85 16        	sta	$16                     ; 0x16 <__rc6>
    4b01: a5 17        	lda	$17                     ; 0x17 <__rc7>
    4b03: 65 13        	adc	$13                     ; 0x13 <__rc3>
    4b05: 85 17        	sta	$17                     ; 0x17 <__rc7>
    4b07: b1 16        	lda	($16),y                 ; 0x16 <__rc6>
    4b09: 85 16        	sta	$16                     ; 0x16 <__rc6>
    4b0b: a5 14        	lda	$14                     ; 0x14 <__rc4>
    4b0d: 85 15        	sta	$15                     ; 0x15 <__rc5>
    4b0f: 8a           	txa
    4b10: e6 16        	inc	$16                     ; 0x16 <__rc6>
    4b12: c6 16        	dec	$16                     ; 0x16 <__rc6>
    4b14: d0 dd        	bne	$4af3 <strlen+0xd>
    4b16: 80 04        	bra	$4b1c <strlen+0x36>
    4b18: 64 14        	stz	$14                     ; 0x14 <__rc4>
    4b1a: a2 00        	ldx	#$0
    4b1c: a5 14        	lda	$14                     ; 0x14 <__rc4>
    4b1e: 60           	rts

00004b1f <strcmp>:
    4b1f: b2 12        	lda	($12)                   ; 0x12 <__rc2>
    4b21: f0 17        	beq	$4b3a <strcmp+0x1b>
    4b23: a0 01        	ldy	#$1
    4b25: d2 14        	cmp	($14)                   ; 0x14 <__rc4>
    4b27: d0 13        	bne	$4b3c <strcmp+0x1d>
    4b29: e6 14        	inc	$14                     ; 0x14 <__rc4>
    4b2b: d0 02        	bne	$4b2f <strcmp+0x10>
    4b2d: e6 15        	inc	$15                     ; 0x15 <__rc5>
    4b2f: b1 12        	lda	($12),y                 ; 0x12 <__rc2>
    4b31: e6 12        	inc	$12                     ; 0x12 <__rc2>
    4b33: d0 02        	bne	$4b37 <strcmp+0x18>
    4b35: e6 13        	inc	$13                     ; 0x13 <__rc3>
    4b37: aa           	tax
    4b38: d0 eb        	bne	$4b25 <strcmp+0x6>
    4b3a: a9 00        	lda	#$0
    4b3c: 38           	sec
    4b3d: f2 14        	sbc	($14)                   ; 0x14 <__rc4>
    4b3f: a8           	tay
    4b40: a9 00        	lda	#$0
    4b42: e9 00        	sbc	#$0
    4b44: aa           	tax
    4b45: 98           	tya
    4b46: 60           	rts

00004b47 <strrchr>:
    4b47: 85 16        	sta	$16                     ; 0x16 <__rc6>
    4b49: b2 12        	lda	($12)                   ; 0x12 <__rc2>
    4b4b: f0 23        	beq	$4b70 <strrchr+0x29>
    4b4d: a2 00        	ldx	#$0
    4b4f: 86 14        	stx	$14                     ; 0x14 <__rc4>
    4b51: a2 00        	ldx	#$0
    4b53: 86 15        	stx	$15                     ; 0x15 <__rc5>
    4b55: a0 01        	ldy	#$1
    4b57: c5 16        	cmp	$16                     ; 0x16 <__rc6>
    4b59: d0 08        	bne	$4b63 <strrchr+0x1c>
    4b5b: a6 12        	ldx	$12                     ; 0x12 <__rc2>
    4b5d: 86 14        	stx	$14                     ; 0x14 <__rc4>
    4b5f: a6 13        	ldx	$13                     ; 0x13 <__rc3>
    4b61: 86 15        	stx	$15                     ; 0x15 <__rc5>
    4b63: b1 12        	lda	($12),y                 ; 0x12 <__rc2>
    4b65: e6 12        	inc	$12                     ; 0x12 <__rc2>
    4b67: d0 02        	bne	$4b6b <strrchr+0x24>
    4b69: e6 13        	inc	$13                     ; 0x13 <__rc3>
    4b6b: aa           	tax
    4b6c: f0 0a        	beq	$4b78 <strrchr+0x31>
    4b6e: 80 e7        	bra	$4b57 <strrchr+0x10>
    4b70: a2 00        	ldx	#$0
    4b72: 86 14        	stx	$14                     ; 0x14 <__rc4>
    4b74: a2 00        	ldx	#$0
    4b76: 86 15        	stx	$15                     ; 0x15 <__rc5>
    4b78: a6 14        	ldx	$14                     ; 0x14 <__rc4>
    4b7a: 86 12        	stx	$12                     ; 0x12 <__rc2>
    4b7c: a6 15        	ldx	$15                     ; 0x15 <__rc5>
    4b7e: 86 13        	stx	$13                     ; 0x13 <__rc3>
    4b80: 60           	rts

00004b81 <__simple_strtoui>:
    4b81: a9 d0        	lda	#$d0
    4b83: 18           	clc
    4b84: 72 12        	adc	($12)                   ; 0x12 <__rc2>
    4b86: c9 0a        	cmp	#$a
    4b88: 90 03        	bcc	$4b8d <__simple_strtoui+0xc>
    4b8a: 4c de 4b     	jmp	$4bde <__simple_strtoui+0x5d>
    4b8d: b2 12        	lda	($12)                   ; 0x12 <__rc2>
    4b8f: 64 16        	stz	$16                     ; 0x16 <__rc6>
    4b91: a0 01        	ldy	#$1
    4b93: 85 17        	sta	$17                     ; 0x17 <__rc7>
    4b95: 64 18        	stz	$18                     ; 0x18 <__rc8>
    4b97: a2 00        	ldx	#$0
    4b99: 06 18        	asl	$18                     ; 0x18 <__rc8>
    4b9b: 8a           	txa
    4b9c: 2a           	rol
    4b9d: 85 19        	sta	$19                     ; 0x19 <__rc9>
    4b9f: a5 18        	lda	$18                     ; 0x18 <__rc8>
    4ba1: 0a           	asl
    4ba2: a6 19        	ldx	$19                     ; 0x19 <__rc9>
    4ba4: 86 1a        	stx	$1a                     ; 0x1a <__rc10>
    4ba6: 26 1a        	rol	$1a                     ; 0x1a <__rc10>
    4ba8: 0a           	asl
    4ba9: 26 1a        	rol	$1a                     ; 0x1a <__rc10>
    4bab: 18           	clc
    4bac: 65 18        	adc	$18                     ; 0x18 <__rc8>
    4bae: aa           	tax
    4baf: a5 1a        	lda	$1a                     ; 0x1a <__rc10>
    4bb1: 65 19        	adc	$19                     ; 0x19 <__rc9>
    4bb3: 85 18        	sta	$18                     ; 0x18 <__rc8>
    4bb5: 8a           	txa
    4bb6: 18           	clc
    4bb7: 65 17        	adc	$17                     ; 0x17 <__rc7>
    4bb9: 85 17        	sta	$17                     ; 0x17 <__rc7>
    4bbb: a5 18        	lda	$18                     ; 0x18 <__rc8>
    4bbd: 65 16        	adc	$16                     ; 0x16 <__rc6>
    4bbf: aa           	tax
    4bc0: 18           	clc
    4bc1: a5 17        	lda	$17                     ; 0x17 <__rc7>
    4bc3: 69 d0        	adc	#$d0
    4bc5: 85 18        	sta	$18                     ; 0x18 <__rc8>
    4bc7: 8a           	txa
    4bc8: 69 ff        	adc	#$ff
    4bca: aa           	tax
    4bcb: b1 12        	lda	($12),y                 ; 0x12 <__rc2>
    4bcd: 85 17        	sta	$17                     ; 0x17 <__rc7>
    4bcf: 18           	clc
    4bd0: 69 d0        	adc	#$d0
    4bd2: e6 12        	inc	$12                     ; 0x12 <__rc2>
    4bd4: d0 02        	bne	$4bd8 <__simple_strtoui+0x57>
    4bd6: e6 13        	inc	$13                     ; 0x13 <__rc3>
    4bd8: c9 0a        	cmp	#$a
    4bda: 90 bd        	bcc	$4b99 <__simple_strtoui+0x18>
    4bdc: 80 04        	bra	$4be2 <__simple_strtoui+0x61>
    4bde: 64 18        	stz	$18                     ; 0x18 <__rc8>
    4be0: a2 00        	ldx	#$0
    4be2: a5 12        	lda	$12                     ; 0x12 <__rc2>
    4be4: 92 14        	sta	($14)                   ; 0x14 <__rc4>
    4be6: a0 01        	ldy	#$1
    4be8: a5 13        	lda	$13                     ; 0x13 <__rc3>
    4bea: 91 14        	sta	($14),y                 ; 0x14 <__rc4>
    4bec: a5 18        	lda	$18                     ; 0x18 <__rc8>
    4bee: 60           	rts

00004bef <__mulhi3>:
    4bef: a4 13        	ldy	$13                     ; 0x13 <__rc3>
    4bf1: d0 04        	bne	$4bf7 <__mulhi3+0x8>
    4bf3: a4 12        	ldy	$12                     ; 0x12 <__rc2>
    4bf5: f0 25        	beq	$4c1c <__mulhi3+0x2d>
    4bf7: 85 14        	sta	$14                     ; 0x14 <__rc4>
    4bf9: 86 15        	stx	$15                     ; 0x15 <__rc5>
    4bfb: a0 00        	ldy	#$0
    4bfd: 98           	tya
    4bfe: 46 13        	lsr	$13                     ; 0x13 <__rc3>
    4c00: 66 12        	ror	$12                     ; 0x12 <__rc2>
    4c02: 90 09        	bcc	$4c0d <__mulhi3+0x1e>
    4c04: aa           	tax
    4c05: 98           	tya
    4c06: 18           	clc
    4c07: 65 14        	adc	$14                     ; 0x14 <__rc4>
    4c09: a8           	tay
    4c0a: 8a           	txa
    4c0b: 65 15        	adc	$15                     ; 0x15 <__rc5>
    4c0d: 06 14        	asl	$14                     ; 0x14 <__rc4>
    4c0f: 26 15        	rol	$15                     ; 0x15 <__rc5>
    4c11: a6 13        	ldx	$13                     ; 0x13 <__rc3>
    4c13: d0 e9        	bne	$4bfe <__mulhi3+0xf>
    4c15: a6 12        	ldx	$12                     ; 0x12 <__rc2>
    4c17: d0 e5        	bne	$4bfe <__mulhi3+0xf>
    4c19: aa           	tax
    4c1a: 98           	tya
    4c1b: 60           	rts
    4c1c: a0 00        	ldy	#$0
    4c1e: 98           	tya
    4c1f: 80 f8        	bra	$4c19 <__mulhi3+0x2a>

00004c21 <__udivhi3>:
    4c21: 64 14        	stz	$14                     ; 0x14 <__rc4>
    4c23: a4 13        	ldy	$13                     ; 0x13 <__rc3>
    4c25: d0 04        	bne	$4c2b <__udivhi3+0xa>
    4c27: a4 12        	ldy	$12                     ; 0x12 <__rc2>
    4c29: f0 0e        	beq	$4c39 <__udivhi3+0x18>
    4c2b: 85 17        	sta	$17                     ; 0x17 <__rc7>
    4c2d: 8a           	txa
    4c2e: e4 13        	cpx	$13                     ; 0x13 <__rc3>
    4c30: d0 0e        	bne	$4c40 <__udivhi3+0x1f>
    4c32: a5 17        	lda	$17                     ; 0x17 <__rc7>
    4c34: c5 12        	cmp	$12                     ; 0x12 <__rc2>
    4c36: 8a           	txa
    4c37: b0 0b        	bcs	$4c44 <__udivhi3+0x23>
    4c39: a2 00        	ldx	#$0
    4c3b: 86 a9        	stx	$a9                     ; 0xa9 <__zp_data_size+0x6f>
    4c3d: 4c dc 4c     	jmp	$4cdc <__udivhi3+0xbb>
    4c40: c5 13        	cmp	$13                     ; 0x13 <__rc3>
    4c42: 90 f5        	bcc	$4c39 <__udivhi3+0x18>
    4c44: a2 01        	ldx	#$1
    4c46: 86 a9        	stx	$a9                     ; 0xa9 <__zp_data_size+0x6f>
    4c48: a6 13        	ldx	$13                     ; 0x13 <__rc3>
    4c4a: 10 03        	bpl	$4c4f <__udivhi3+0x2e>
    4c4c: 4c dc 4c     	jmp	$4cdc <__udivhi3+0xbb>
    4c4f: a2 00        	ldx	#$0
    4c51: a4 12        	ldy	$12                     ; 0x12 <__rc2>
    4c53: 84 15        	sty	$15                     ; 0x15 <__rc5>
    4c55: a4 13        	ldy	$13                     ; 0x13 <__rc3>
    4c57: 84 16        	sty	$16                     ; 0x16 <__rc6>
    4c59: 06 15        	asl	$15                     ; 0x15 <__rc5>
    4c5b: 26 16        	rol	$16                     ; 0x16 <__rc6>
    4c5d: c5 16        	cmp	$16                     ; 0x16 <__rc6>
    4c5f: d0 08        	bne	$4c69 <__udivhi3+0x48>
    4c61: a4 17        	ldy	$17                     ; 0x17 <__rc7>
    4c63: c4 15        	cpy	$15                     ; 0x15 <__rc5>
    4c65: 90 13        	bcc	$4c7a <__udivhi3+0x59>
    4c67: 80 04        	bra	$4c6d <__udivhi3+0x4c>
    4c69: c5 16        	cmp	$16                     ; 0x16 <__rc6>
    4c6b: 90 0d        	bcc	$4c7a <__udivhi3+0x59>
    4c6d: e8           	inx
    4c6e: a4 15        	ldy	$15                     ; 0x15 <__rc5>
    4c70: 84 12        	sty	$12                     ; 0x12 <__rc2>
    4c72: a4 16        	ldy	$16                     ; 0x16 <__rc6>
    4c74: 84 13        	sty	$13                     ; 0x13 <__rc3>
    4c76: 10 e1        	bpl	$4c59 <__udivhi3+0x38>
    4c78: 80 08        	bra	$4c82 <__udivhi3+0x61>
    4c7a: a4 12        	ldy	$12                     ; 0x12 <__rc2>
    4c7c: 84 15        	sty	$15                     ; 0x15 <__rc5>
    4c7e: a4 13        	ldy	$13                     ; 0x13 <__rc3>
    4c80: 84 16        	sty	$16                     ; 0x16 <__rc6>
    4c82: e0 00        	cpx	#$0
    4c84: d0 03        	bne	$4c89 <__udivhi3+0x68>
    4c86: 4c dc 4c     	jmp	$4cdc <__udivhi3+0xbb>
    4c89: 38           	sec
    4c8a: a8           	tay
    4c8b: a5 17        	lda	$17                     ; 0x17 <__rc7>
    4c8d: e5 15        	sbc	$15                     ; 0x15 <__rc5>
    4c8f: 85 12        	sta	$12                     ; 0x12 <__rc2>
    4c91: 98           	tya
    4c92: e5 16        	sbc	$16                     ; 0x16 <__rc6>
    4c94: a0 01        	ldy	#$1
    4c96: 84 a9        	sty	$a9                     ; 0xa9 <__zp_data_size+0x6f>
    4c98: 64 14        	stz	$14                     ; 0x14 <__rc4>
    4c9a: 46 16        	lsr	$16                     ; 0x16 <__rc6>
    4c9c: 66 15        	ror	$15                     ; 0x15 <__rc5>
    4c9e: a4 a9        	ldy	$a9                     ; 0xa9 <__zp_data_size+0x6f>
    4ca0: 84 13        	sty	$13                     ; 0x13 <__rc3>
    4ca2: 06 13        	asl	$13                     ; 0x13 <__rc3>
    4ca4: a0 01        	ldy	#$1
    4ca6: b0 02        	bcs	$4caa <__udivhi3+0x89>
    4ca8: a0 00        	ldy	#$0
    4caa: 84 17        	sty	$17                     ; 0x17 <__rc7>
    4cac: a4 13        	ldy	$13                     ; 0x13 <__rc3>
    4cae: 84 a9        	sty	$a9                     ; 0xa9 <__zp_data_size+0x6f>
    4cb0: c5 16        	cmp	$16                     ; 0x16 <__rc6>
    4cb2: d0 22        	bne	$4cd6 <__udivhi3+0xb5>
    4cb4: a4 12        	ldy	$12                     ; 0x12 <__rc2>
    4cb6: c4 15        	cpy	$15                     ; 0x15 <__rc5>
    4cb8: 90 11        	bcc	$4ccb <__udivhi3+0xaa>
    4cba: a8           	tay
    4cbb: a5 a9        	lda	$a9                     ; 0xa9 <__zp_data_size+0x6f>
    4cbd: 09 01        	ora	#$1
    4cbf: 85 a9        	sta	$a9                     ; 0xa9 <__zp_data_size+0x6f>
    4cc1: 38           	sec
    4cc2: a5 12        	lda	$12                     ; 0x12 <__rc2>
    4cc4: e5 15        	sbc	$15                     ; 0x15 <__rc5>
    4cc6: 85 12        	sta	$12                     ; 0x12 <__rc2>
    4cc8: 98           	tya
    4cc9: e5 16        	sbc	$16                     ; 0x16 <__rc6>
    4ccb: a4 17        	ldy	$17                     ; 0x17 <__rc7>
    4ccd: c0 01        	cpy	#$1
    4ccf: 26 14        	rol	$14                     ; 0x14 <__rc4>
    4cd1: ca           	dex
    4cd2: d0 c6        	bne	$4c9a <__udivhi3+0x79>
    4cd4: 80 06        	bra	$4cdc <__udivhi3+0xbb>
    4cd6: c5 16        	cmp	$16                     ; 0x16 <__rc6>
    4cd8: b0 e0        	bcs	$4cba <__udivhi3+0x99>
    4cda: 80 ef        	bra	$4ccb <__udivhi3+0xaa>
    4cdc: a6 14        	ldx	$14                     ; 0x14 <__rc4>
    4cde: a5 a9        	lda	$a9                     ; 0xa9 <__zp_data_size+0x6f>
    4ce0: 60           	rts
