
sfx2.elf:	file format elf32-mos

SYMBOL TABLE:
00000000 l    df *ABS*	00000000 zero-bss.c
00000000 l    df *ABS*	00000000 zero-zp-bss.c
00000000 l    df *ABS*	00000000 copy-zp-data.c
00000000 l    df *ABS*	00000000 ld-temp.o
00000385 l     F .text	00000017 openAllCODEC
0000039c l     F .text	0000001e boostVSClock
000003ba l     F .text	0000001e lowVol
000003d8 l     F .text	0000001c highVol
000003f4 l     F .text	00000021 FAR_PEEK
00000060 l     O .zp.bss	00000007 kernelEventData
00000030 l     O .zp.data	00000030 textColors
00000067 l     O .zp.bss	00000001 _col
00000068 l     O .zp.bss	00000001 _row
000022c9 l     O .bss	00000004 _BITMAP_BASE.0
000022cd l     O .bss	00000004 _BITMAP_BASE.1
000022d1 l     O .bss	00000004 _BITMAP_BASE.2
000022c8 l     O .bss	00000001 kernelError
000008bb l     F .text	000001b6 f256main
00000a71 l     F .text	00000094 setupSound
00000b05 l     F .text	000000b3 headerPump
00000bb8 l     F .text	000000ee silencePad
0000129b l     F .text	00000d3a printf
00000ca6 l     F .text	000002c3 playChunk
00000f69 l     F .text	00000046 startSound
0000006b l     O .zp.bss	00000024 sfxChannels
00000faf l     F .text	00000026 howManySounds
0000008f l     O .zp.bss	00000001 data0
00000090 l     O .zp.bss	00000001 data1
00000091 l     O .zp.bss	00000001 data2
00000092 l     O .zp.bss	00000001 data3
00000fd5 l     F .text	000000db mix_n
000010b5 l     F .text	000000d7 _ZN12_GLOBAL__N_13putEcP6Status
00001fd5 l     F .text	00000203 putchar
0000118c l     F .text	0000010f _ZN12_GLOBAL__N_112print_stringEPKcP6Status
00000069 l     O .zp.bss	00000002 __putchar.s
00000415 g     F .text	000004a6 main
00030000 g       .coin	00000000 coin_start
00020000 g       .bong	00000000 bong_start
00010000 g       .camera	00000000 camera_start
00022d4e g       .bong	00000000 bong_end
00031c06 g       .coin	00000000 coin_end
00045a5c g       .tie	00000000 tie_end
00040000 g       .tie	00000000 tie_start
00013a0e g       .camera	00000000 camera_end
00000344 g       .text	00000000 __after_main
00000330 g       .text	00000000 __do_init_stack
0000033e g       .text	00000000 __do_copy_zp_data
0000036e g     F .text	00000017 __copy_zp_data
00000338 g       .text	00000000 __do_zero_bss
00000348 g     F .text	00000013 __zero_bss
0000033b g       .text	00000000 __do_zero_zp_bss
0000035b g     F .text	00000013 __zero_zp_bss
000010b0 g     F .text	00000005 exit
00000347 g       .text	00000000 _fini
00002204  w    F .text	00000020 __memset
00001000  w      *ABS*	00000000 __heap_default_limit
000022d6 g       .noinit	00000000 __heap_start
000021d8  w    F .text	0000002c memcpy
00000010 g       *ABS*	00000000 __rc0
00000012 g       *ABS*	00000000 __rc2
00000014 g       *ABS*	00000000 __rc4
00000016 g       *ABS*	00000000 __rc6
00000018 g       *ABS*	00000000 __rc8
0000001a g       *ABS*	00000000 __rc10
0000001c g       *ABS*	00000000 __rc12
0000001e g       *ABS*	00000000 __rc14
00000020 g       *ABS*	00000000 __rc16
00000022 g       *ABS*	00000000 __rc18
00000024 g       *ABS*	00000000 __rc20
00000026 g       *ABS*	00000000 __rc22
00000028 g       *ABS*	00000000 __rc24
0000002a g       *ABS*	00000000 __rc26
0000002c g       *ABS*	00000000 __rc28
0000002e g       *ABS*	00000000 __rc30
0000002f g       *ABS*	00000000 __rc31
00000300 g       *ABS*	00000000 __f256_start
0000a000 g       *ABS*	00000000 __stack
0000a000 g       *ABS*	00000000 __SLOT_ADDR
0800a000 g       *ABS*	00000000 __block8_lma
00002000 g       *ABS*	00000000 __BLOCK_SIZE
0900a000 g       *ABS*	00000000 __block9_lma
0a00a000 g       *ABS*	00000000 __block10_lma
0b00a000 g       *ABS*	00000000 __block11_lma
0c00a000 g       *ABS*	00000000 __block12_lma
0d00a000 g       *ABS*	00000000 __block13_lma
0e00a000 g       *ABS*	00000000 __block14_lma
0f00a000 g       *ABS*	00000000 __block15_lma
1000a000 g       *ABS*	00000000 __block16_lma
1100a000 g       *ABS*	00000000 __block17_lma
1200a000 g       *ABS*	00000000 __block18_lma
1300a000 g       *ABS*	00000000 __block19_lma
1400a000 g       *ABS*	00000000 __block20_lma
1500a000 g       *ABS*	00000000 __block21_lma
1600a000 g       *ABS*	00000000 __block22_lma
1700a000 g       *ABS*	00000000 __block23_lma
00010000 g       *ABS*	00000000 __camera_lma
00003a0e g       *ABS*	00000000 __camera_size
00020000 g       *ABS*	00000000 __bong_lma
00002d4e g       *ABS*	00000000 __bong_size
00030000 g       *ABS*	00000000 __coin_lma
00001c06 g       *ABS*	00000000 __coin_size
00040000 g       *ABS*	00000000 __tie_lma
00005a5c g       *ABS*	00000000 __tie_size
000022c8 g       .bss	00000000 __bss_start
00013a0e g       .camera	00000000 end_camera
00022d4e g       .bong	00000000 end_bong
00031c06 g       .coin	00000000 end_coin
00045a5c g       .tie	00000000 end_tie
00000330 g       .text	00000000 _start
0000002d g       *ABS*	00000000 __rc29
0000002b g       *ABS*	00000000 __rc27
00000029 g       *ABS*	00000000 __rc25
00000027 g       *ABS*	00000000 __rc23
00000025 g       *ABS*	00000000 __rc21
00000023 g       *ABS*	00000000 __rc19
00000021 g       *ABS*	00000000 __rc17
0000001f g       *ABS*	00000000 __rc15
0000001d g       *ABS*	00000000 __rc13
0000001b g       *ABS*	00000000 __rc11
00000019 g       *ABS*	00000000 __rc9
00000017 g       *ABS*	00000000 __rc7
00000015 g       *ABS*	00000000 __rc5
00000013 g       *ABS*	00000000 __rc3
00000011 g       *ABS*	00000000 __rc1
00000030 g       .zp.data	00000000 __zp_data_start
00000300 g       *ABS*	00000000 __zp_data_load_start
00000030 g       *ABS*	00000000 __zp_data_size
00000060 g       .zp.bss	00000000 __zp_bss_start
00000033 g       *ABS*	00000000 __zp_bss_size
00000330 g       .text	00000000 _init
00002224 g       .text	00000000 __init_array_start
00002224 g       .text	00000000 __init_array_end
00002224 g       .text	00000000 __fini_array_start
00002224 g       .text	00000000 __fini_array_end
000022c8 g       .data	00000000 __data_start
000022c8 g       .data	00000000 __data_end
000022c8 g       *ABS*	00000000 __data_load_start
00000000 g       *ABS*	00000000 __data_size
000022d5 g       .bss	00000000 __bss_end
0000000d g       *ABS*	00000000 __bss_size
000022d5 g       .noinit	00000000 end_block8
000022d5 g       .noinit	00000000 end_block9
000022d5 g       .noinit	00000000 end_block10
000022d5 g       .noinit	00000000 end_block11
000022d5 g       .noinit	00000000 end_block12
000022d5 g       .noinit	00000000 end_block13
000022d5 g       .noinit	00000000 end_block14
000022d5 g       .noinit	00000000 end_block15
000022d5 g       .noinit	00000000 end_block16
000022d5 g       .noinit	00000000 end_block17
000022d5 g       .noinit	00000000 end_block18
000022d5 g       .noinit	00000000 end_block19
000022d5 g       .noinit	00000000 end_block20
000022d5 g       .noinit	00000000 end_block21
000022d5 g       .noinit	00000000 end_block22
000022d5 g       .noinit	00000000 end_block23

Disassembly of section .text:

00000330 <_start>:
     330: a9 00        	lda	#$0
     332: 85 10        	sta	$10                     ; 0x10 <__rc0>
     334: a9 a0        	lda	#$a0
     336: 85 11        	sta	$11                     ; 0x11 <__rc1>

00000338 <__do_zero_bss>:
     338: 20 48 03     	jsr	$348 <__zero_bss>

0000033b <__do_zero_zp_bss>:
     33b: 20 5b 03     	jsr	$35b <__zero_zp_bss>

0000033e <__do_copy_zp_data>:
     33e: 20 6e 03     	jsr	$36e <__copy_zp_data>
     341: 20 15 04     	jsr	$415 <main>

00000344 <__after_main>:
     344: 4c b0 10     	jmp	$10b0 <exit>

00000347 <_fini>:
     347: 60           	rts

00000348 <__zero_bss>:
     348: a2 0d        	ldx	#$d
     34a: a0 00        	ldy	#$0
     34c: a9 c8        	lda	#$c8
     34e: 85 12        	sta	$12                     ; 0x12 <__rc2>
     350: a9 22        	lda	#$22
     352: 85 13        	sta	$13                     ; 0x13 <__rc3>
     354: a9 00        	lda	#$0
     356: 84 14        	sty	$14                     ; 0x14 <__rc4>
     358: 4c 04 22     	jmp	$2204 <__memset>

0000035b <__zero_zp_bss>:
     35b: a2 33        	ldx	#$33
     35d: a0 00        	ldy	#$0
     35f: a9 60        	lda	#$60
     361: 85 12        	sta	$12                     ; 0x12 <__rc2>
     363: a9 00        	lda	#$0
     365: 85 13        	sta	$13                     ; 0x13 <__rc3>
     367: a9 00        	lda	#$0
     369: 84 14        	sty	$14                     ; 0x14 <__rc4>
     36b: 4c 04 22     	jmp	$2204 <__memset>

0000036e <__copy_zp_data>:
     36e: a9 30        	lda	#$30
     370: a2 00        	ldx	#$0
     372: a0 30        	ldy	#$30
     374: 84 12        	sty	$12                     ; 0x12 <__rc2>
     376: a0 00        	ldy	#$0
     378: 84 13        	sty	$13                     ; 0x13 <__rc3>
     37a: a0 00        	ldy	#$0
     37c: 84 14        	sty	$14                     ; 0x14 <__rc4>
     37e: a0 03        	ldy	#$3
     380: 84 15        	sty	$15                     ; 0x15 <__rc5>
     382: 4c d8 21     	jmp	$21d8 <memcpy>

00000385 <openAllCODEC>:
     385: a2 1f        	ldx	#$1f
     387: 8e 20 d6     	stx	$d620                   ; 0xd620 <__heap_start+0xb34a>
     38a: a2 2a        	ldx	#$2a
     38c: 8e 21 d6     	stx	$d621                   ; 0xd621 <__heap_start+0xb34b>
     38f: a2 01        	ldx	#$1
     391: 8e 22 d6     	stx	$d622                   ; 0xd622 <__heap_start+0xb34c>
     394: ad 22 d6     	lda	$d622                   ; 0xd622 <__heap_start+0xb34c>
     397: 29 01        	and	#$1
     399: d0 f9        	bne	$394 <openAllCODEC+0xf>
     39b: 60           	rts

0000039c <boostVSClock>:
     39c: a2 03        	ldx	#$3
     39e: 8e 01 d7     	stx	$d701                   ; 0xd701 <__heap_start+0xb42b>
     3a1: 9c 02 d7     	stz	$d702                   ; 0xd702 <__heap_start+0xb42c>
     3a4: 9c 02 d7     	stz	$d702                   ; 0xd702 <__heap_start+0xb42c>
     3a7: a2 e0        	ldx	#$e0
     3a9: 8e 03 d7     	stx	$d703                   ; 0xd703 <__heap_start+0xb42d>
     3ac: a2 01        	ldx	#$1
     3ae: 8e 00 d7     	stx	$d700                   ; 0xd700 <__heap_start+0xb42a>
     3b1: 9c 00 d7     	stz	$d700                   ; 0xd700 <__heap_start+0xb42a>
     3b4: ae 00 d7     	ldx	$d700                   ; 0xd700 <__heap_start+0xb42a>
     3b7: 30 fb        	bmi	$3b4 <boostVSClock+0x18>
     3b9: 60           	rts

000003ba <lowVol>:
     3ba: a2 0b        	ldx	#$b
     3bc: 8e 01 d7     	stx	$d701                   ; 0xd701 <__heap_start+0xb42b>
     3bf: 9c 02 d7     	stz	$d702                   ; 0xd702 <__heap_start+0xb42c>
     3c2: a2 fe        	ldx	#$fe
     3c4: 8e 02 d7     	stx	$d702                   ; 0xd702 <__heap_start+0xb42c>
     3c7: 8e 03 d7     	stx	$d703                   ; 0xd703 <__heap_start+0xb42d>
     3ca: a2 03        	ldx	#$3
     3cc: 8e 00 d7     	stx	$d700                   ; 0xd700 <__heap_start+0xb42a>
     3cf: 9c 00 d7     	stz	$d700                   ; 0xd700 <__heap_start+0xb42a>
     3d2: ae 00 d7     	ldx	$d700                   ; 0xd700 <__heap_start+0xb42a>
     3d5: 30 fb        	bmi	$3d2 <lowVol+0x18>
     3d7: 60           	rts

000003d8 <highVol>:
     3d8: a2 0b        	ldx	#$b
     3da: 8e 01 d7     	stx	$d701                   ; 0xd701 <__heap_start+0xb42b>
     3dd: 9c 02 d7     	stz	$d702                   ; 0xd702 <__heap_start+0xb42c>
     3e0: 9c 02 d7     	stz	$d702                   ; 0xd702 <__heap_start+0xb42c>
     3e3: 9c 03 d7     	stz	$d703                   ; 0xd703 <__heap_start+0xb42d>
     3e6: a2 03        	ldx	#$3
     3e8: 8e 00 d7     	stx	$d700                   ; 0xd700 <__heap_start+0xb42a>
     3eb: 9c 00 d7     	stz	$d700                   ; 0xd700 <__heap_start+0xb42a>
     3ee: ae 00 d7     	ldx	$d700                   ; 0xd700 <__heap_start+0xb42a>
     3f1: 30 fb        	bmi	$3ee <highVol+0x16>
     3f3: 60           	rts

000003f4 <FAR_PEEK>:
     3f4: 85 14        	sta	$14                     ; 0x14 <__rc4>
     3f6: da           	phx
     3f7: 7a           	ply
     3f8: a5 12        	lda	$12                     ; 0x12 <__rc2>
     3fa: a6 0f        	ldx	$f                      ; 0xf <__bss_size+0x2>
     3fc: 78           	sei
     3fd: 84 12        	sty	$12                     ; 0x12 <__rc2>
     3ff: 06 12        	asl	$12                     ; 0x12 <__rc2>
     401: 2a           	rol
     402: 06 12        	asl	$12                     ; 0x12 <__rc2>
     404: 2a           	rol
     405: 06 12        	asl	$12                     ; 0x12 <__rc2>
     407: 2a           	rol
     408: 85 0f        	sta	$f                      ; 0xf <__bss_size+0x2>
     40a: 98           	tya
     40b: 09 e0        	ora	#$e0
     40d: 85 15        	sta	$15                     ; 0x15 <__rc5>
     40f: b2 14        	lda	($14)                   ; 0x14 <__rc4>
     411: 86 0f        	stx	$f                      ; 0xf <__bss_size+0x2>
     413: 58           	cli
     414: 60           	rts

00000415 <main>:
     415: 18           	clc
     416: a5 10        	lda	$10                     ; 0x10 <__rc0>
     418: 69 f7        	adc	#$f7
     41a: 85 10        	sta	$10                     ; 0x10 <__rc0>
     41c: a5 11        	lda	$11                     ; 0x11 <__rc1>
     41e: 69 ff        	adc	#$ff
     420: 85 11        	sta	$11                     ; 0x11 <__rc1>
     422: a6 24        	ldx	$24                     ; 0x24 <__rc20>
     424: da           	phx
     425: 64 1c        	stz	$1c                     ; 0x1c <__rc12>
     427: a2 00        	ldx	#$0
     429: 86 1a        	stx	$1a                     ; 0x1a <__rc10>
     42b: a2 d0        	ldx	#$d0
     42d: 86 1b        	stx	$1b                     ; 0x1b <__rc11>
     42f: a2 00        	ldx	#$0
     431: 86 16        	stx	$16                     ; 0x16 <__rc6>
     433: a2 d8        	ldx	#$d8
     435: 86 17        	stx	$17                     ; 0x17 <__rc7>
     437: a2 00        	ldx	#$0
     439: 86 18        	stx	$18                     ; 0x18 <__rc8>
     43b: a2 d4        	ldx	#$d4
     43d: 86 19        	stx	$19                     ; 0x19 <__rc9>
     43f: a2 00        	ldx	#$0
     441: 86 14        	stx	$14                     ; 0x14 <__rc4>
     443: a2 dc        	ldx	#$dc
     445: 86 15        	stx	$15                     ; 0x15 <__rc5>
     447: a2 00        	ldx	#$0
     449: 86 12        	stx	$12                     ; 0x12 <__rc2>
     44b: a2 c0        	ldx	#$c0
     44d: 86 13        	stx	$13                     ; 0x13 <__rc3>
     44f: 64 01        	stz	$1                      ; 0x1 <__data_size+0x1>
     451: a2 3f        	ldx	#$3f
     453: 8e 00 d0     	stx	$d000                   ; 0xd000 <__heap_start+0xad2a>
     456: a2 b3        	ldx	#$b3
     458: 86 00        	stx	$0                      ; 0x0 <__data_size>
     45a: 64 08        	stz	$8                      ; 0x8 <__data_size+0x8>
     45c: a2 01        	ldx	#$1
     45e: 86 09        	stx	$9                      ; 0x9 <__data_size+0x9>
     460: e8           	inx
     461: 86 0a        	stx	$a                      ; 0xa <__data_size+0xa>
     463: e8           	inx
     464: 86 0b        	stx	$b                      ; 0xb <__data_size+0xb>
     466: e8           	inx
     467: 86 0c        	stx	$c                      ; 0xc <__data_size+0xc>
     469: e8           	inx
     46a: 86 0d        	stx	$d                      ; 0xd <__bss_size>
     46c: a2 60        	ldx	#$60
     46e: a9 00        	lda	#$0
     470: 86 f0        	stx	$f0                     ; 0xf0 <__zp_bss_size+0xbd>
     472: 85 f1        	sta	$f1                     ; 0xf1 <__zp_bss_size+0xbe>
     474: a6 01        	ldx	$1                      ; 0x1 <__data_size+0x1>
     476: a0 01        	ldy	#$1
     478: 84 01        	sty	$1                      ; 0x1 <__data_size+0x1>
     47a: a5 1c        	lda	$1c                     ; 0x1c <__rc12>
     47c: 92 1a        	sta	($1a)                   ; 0x1a <__rc10>
     47e: 91 1a        	sta	($1a),y                 ; 0x1a <__rc10>
     480: c8           	iny
     481: 91 1a        	sta	($1a),y                 ; 0x1a <__rc10>
     483: c8           	iny
     484: a9 ff        	lda	#$ff
     486: 91 1a        	sta	($1a),y                 ; 0x1a <__rc10>
     488: 86 01        	stx	$1                      ; 0x1 <__data_size+0x1>
     48a: a5 1a        	lda	$1a                     ; 0x1a <__rc10>
     48c: 18           	clc
     48d: 69 04        	adc	#$4
     48f: 85 1a        	sta	$1a                     ; 0x1a <__rc10>
     491: a5 1b        	lda	$1b                     ; 0x1b <__rc11>
     493: 69 00        	adc	#$0
     495: e6 1c        	inc	$1c                     ; 0x1c <__rc12>
     497: 85 1b        	sta	$1b                     ; 0x1b <__rc11>
     499: d0 d9        	bne	$474 <main+0x5f>
     49b: a9 00        	lda	#$0
     49d: a6 01        	ldx	$1                      ; 0x1 <__data_size+0x1>
     49f: a0 01        	ldy	#$1
     4a1: 84 01        	sty	$1                      ; 0x1 <__data_size+0x1>
     4a3: 92 18        	sta	($18)                   ; 0x18 <__rc8>
     4a5: 91 18        	sta	($18),y                 ; 0x18 <__rc8>
     4a7: c8           	iny
     4a8: 91 18        	sta	($18),y                 ; 0x18 <__rc8>
     4aa: c8           	iny
     4ab: 85 1a        	sta	$1a                     ; 0x1a <__rc10>
     4ad: a9 ff        	lda	#$ff
     4af: 91 18        	sta	($18),y                 ; 0x18 <__rc8>
     4b1: 86 01        	stx	$1                      ; 0x1 <__data_size+0x1>
     4b3: a5 18        	lda	$18                     ; 0x18 <__rc8>
     4b5: 18           	clc
     4b6: 69 04        	adc	#$4
     4b8: 85 18        	sta	$18                     ; 0x18 <__rc8>
     4ba: a5 19        	lda	$19                     ; 0x19 <__rc9>
     4bc: 69 00        	adc	#$0
     4be: e6 1a        	inc	$1a                     ; 0x1a <__rc10>
     4c0: 85 19        	sta	$19                     ; 0x19 <__rc9>
     4c2: a5 1a        	lda	$1a                     ; 0x1a <__rc10>
     4c4: d0 d7        	bne	$49d <main+0x88>
     4c6: a9 00        	lda	#$0
     4c8: a6 01        	ldx	$1                      ; 0x1 <__data_size+0x1>
     4ca: a0 01        	ldy	#$1
     4cc: 84 01        	sty	$1                      ; 0x1 <__data_size+0x1>
     4ce: 92 16        	sta	($16)                   ; 0x16 <__rc6>
     4d0: 91 16        	sta	($16),y                 ; 0x16 <__rc6>
     4d2: c8           	iny
     4d3: 91 16        	sta	($16),y                 ; 0x16 <__rc6>
     4d5: c8           	iny
     4d6: 85 18        	sta	$18                     ; 0x18 <__rc8>
     4d8: a9 ff        	lda	#$ff
     4da: 91 16        	sta	($16),y                 ; 0x16 <__rc6>
     4dc: 86 01        	stx	$1                      ; 0x1 <__data_size+0x1>
     4de: a5 16        	lda	$16                     ; 0x16 <__rc6>
     4e0: 18           	clc
     4e1: 69 04        	adc	#$4
     4e3: 85 16        	sta	$16                     ; 0x16 <__rc6>
     4e5: a5 17        	lda	$17                     ; 0x17 <__rc7>
     4e7: 69 00        	adc	#$0
     4e9: e6 18        	inc	$18                     ; 0x18 <__rc8>
     4eb: 85 17        	sta	$17                     ; 0x17 <__rc7>
     4ed: a5 18        	lda	$18                     ; 0x18 <__rc8>
     4ef: d0 d7        	bne	$4c8 <main+0xb3>
     4f1: a9 00        	lda	#$0
     4f3: a6 01        	ldx	$1                      ; 0x1 <__data_size+0x1>
     4f5: a0 01        	ldy	#$1
     4f7: 84 01        	sty	$1                      ; 0x1 <__data_size+0x1>
     4f9: 92 14        	sta	($14)                   ; 0x14 <__rc4>
     4fb: 91 14        	sta	($14),y                 ; 0x14 <__rc4>
     4fd: c8           	iny
     4fe: 91 14        	sta	($14),y                 ; 0x14 <__rc4>
     500: c8           	iny
     501: 85 16        	sta	$16                     ; 0x16 <__rc6>
     503: a9 ff        	lda	#$ff
     505: 91 14        	sta	($14),y                 ; 0x14 <__rc4>
     507: 86 01        	stx	$1                      ; 0x1 <__data_size+0x1>
     509: a5 14        	lda	$14                     ; 0x14 <__rc4>
     50b: 18           	clc
     50c: 69 04        	adc	#$4
     50e: 85 14        	sta	$14                     ; 0x14 <__rc4>
     510: a5 15        	lda	$15                     ; 0x15 <__rc5>
     512: 69 00        	adc	#$0
     514: e6 16        	inc	$16                     ; 0x16 <__rc6>
     516: 85 15        	sta	$15                     ; 0x15 <__rc5>
     518: a5 16        	lda	$16                     ; 0x16 <__rc6>
     51a: d0 d7        	bne	$4f3 <main+0xde>
     51c: ad 02 d0     	lda	$d002                   ; 0xd002 <__heap_start+0xad2c>
     51f: 29 f0        	and	#$f0
     521: 8d 02 d0     	sta	$d002                   ; 0xd002 <__heap_start+0xad2c>
     524: ad 02 d0     	lda	$d002                   ; 0xd002 <__heap_start+0xad2c>
     527: 29 0f        	and	#$f
     529: 09 10        	ora	#$10
     52b: 8d 02 d0     	sta	$d002                   ; 0xd002 <__heap_start+0xad2c>
     52e: a2 02        	ldx	#$2
     530: 8e 03 d0     	stx	$d003                   ; 0xd003 <__heap_start+0xad2d>
     533: ad 01 d0     	lda	$d001                   ; 0xd001 <__heap_start+0xad2b>
     536: 29 f9        	and	#$f9
     538: 09 04        	ora	#$4
     53a: 8d 01 d0     	sta	$d001                   ; 0xd001 <__heap_start+0xad2b>
     53d: 64 14        	stz	$14                     ; 0x14 <__rc4>
     53f: 9c 10 d0     	stz	$d010                   ; 0xd010 <__heap_start+0xad3a>
     542: a2 00        	ldx	#$0
     544: 64 15        	stz	$15                     ; 0x15 <__rc5>
     546: 86 18        	stx	$18                     ; 0x18 <__rc8>
     548: a4 18        	ldy	$18                     ; 0x18 <__rc8>
     54a: b6 30        	ldx	$30,y                   ; 0x30 <textColors>
     54c: 86 19        	stx	$19                     ; 0x19 <__rc9>
     54e: b6 31        	ldx	$31,y                   ; 0x31 <textColors+0x1>
     550: 86 1a        	stx	$1a                     ; 0x1a <__rc10>
     552: b6 32        	ldx	$32,y                   ; 0x32 <textColors+0x2>
     554: 86 1b        	stx	$1b                     ; 0x1b <__rc11>
     556: a6 15        	ldx	$15                     ; 0x15 <__rc5>
     558: 8e 00 de     	stx	$de00                   ; 0xde00 <__heap_start+0xbb2a>
     55b: 86 17        	stx	$17                     ; 0x17 <__rc7>
     55d: 9c 01 de     	stz	$de01                   ; 0xde01 <__heap_start+0xbb2b>
     560: a2 04        	ldx	#$4
     562: 8e 02 de     	stx	$de02                   ; 0xde02 <__heap_start+0xbb2c>
     565: 86 1d        	stx	$1d                     ; 0x1d <__rc13>
     567: 9c 03 de     	stz	$de03                   ; 0xde03 <__heap_start+0xbb2d>
     56a: ad 10 de     	lda	$de10                   ; 0xde10 <__heap_start+0xbb3a>
     56d: ac 11 de     	ldy	$de11                   ; 0xde11 <__heap_start+0xbb3b>
     570: 84 15        	sty	$15                     ; 0x15 <__rc5>
     572: ac 12 de     	ldy	$de12                   ; 0xde12 <__heap_start+0xbb3c>
     575: ac 13 de     	ldy	$de13                   ; 0xde13 <__heap_start+0xbb3d>
     578: a2 00        	ldx	#$0
     57a: 18           	clc
     57b: 65 14        	adc	$14                     ; 0x14 <__rc4>
     57d: a8           	tay
     57e: 86 1f        	stx	$1f                     ; 0x1f <__rc15>
     580: a6 17        	ldx	$17                     ; 0x17 <__rc7>
     582: a9 d8        	lda	#$d8
     584: 65 15        	adc	$15                     ; 0x15 <__rc5>
     586: 84 16        	sty	$16                     ; 0x16 <__rc6>
     588: 85 17        	sta	$17                     ; 0x17 <__rc7>
     58a: a5 1b        	lda	$1b                     ; 0x1b <__rc11>
     58c: 92 16        	sta	($16)                   ; 0x16 <__rc6>
     58e: a0 01        	ldy	#$1
     590: a5 1a        	lda	$1a                     ; 0x1a <__rc10>
     592: 91 16        	sta	($16),y                 ; 0x16 <__rc6>
     594: 84 1c        	sty	$1c                     ; 0x1c <__rc12>
     596: c8           	iny
     597: a5 19        	lda	$19                     ; 0x19 <__rc9>
     599: 91 16        	sta	($16),y                 ; 0x16 <__rc6>
     59b: 84 1e        	sty	$1e                     ; 0x1e <__rc14>
     59d: c8           	iny
     59e: a9 ff        	lda	#$ff
     5a0: 91 16        	sta	($16),y                 ; 0x16 <__rc6>
     5a2: 85 23        	sta	$23                     ; 0x23 <__rc19>
     5a4: 84 22        	sty	$22                     ; 0x22 <__rc18>
     5a6: 8e 00 de     	stx	$de00                   ; 0xde00 <__heap_start+0xbb2a>
     5a9: 9c 01 de     	stz	$de01                   ; 0xde01 <__heap_start+0xbb2b>
     5ac: a4 1d        	ldy	$1d                     ; 0x1d <__rc13>
     5ae: 8c 02 de     	sty	$de02                   ; 0xde02 <__heap_start+0xbb2c>
     5b1: 9c 03 de     	stz	$de03                   ; 0xde03 <__heap_start+0xbb2d>
     5b4: ad 10 de     	lda	$de10                   ; 0xde10 <__heap_start+0xbb3a>
     5b7: 85 15        	sta	$15                     ; 0x15 <__rc5>
     5b9: ad 11 de     	lda	$de11                   ; 0xde11 <__heap_start+0xbb3b>
     5bc: 85 16        	sta	$16                     ; 0x16 <__rc6>
     5be: a9 40        	lda	#$40
     5c0: a4 1f        	ldy	$1f                     ; 0x1f <__rc15>
     5c2: c0 01        	cpy	#$1
     5c4: 65 15        	adc	$15                     ; 0x15 <__rc5>
     5c6: a8           	tay
     5c7: a9 d8        	lda	#$d8
     5c9: 65 16        	adc	$16                     ; 0x16 <__rc6>
     5cb: 85 17        	sta	$17                     ; 0x17 <__rc7>
     5cd: 84 16        	sty	$16                     ; 0x16 <__rc6>
     5cf: ad 12 de     	lda	$de12                   ; 0xde12 <__heap_start+0xbb3c>
     5d2: ad 13 de     	lda	$de13                   ; 0xde13 <__heap_start+0xbb3d>
     5d5: a5 1b        	lda	$1b                     ; 0x1b <__rc11>
     5d7: 92 16        	sta	($16)                   ; 0x16 <__rc6>
     5d9: a5 1a        	lda	$1a                     ; 0x1a <__rc10>
     5db: a4 1c        	ldy	$1c                     ; 0x1c <__rc12>
     5dd: 91 16        	sta	($16),y                 ; 0x16 <__rc6>
     5df: a5 19        	lda	$19                     ; 0x19 <__rc9>
     5e1: a4 1e        	ldy	$1e                     ; 0x1e <__rc14>
     5e3: 91 16        	sta	($16),y                 ; 0x16 <__rc6>
     5e5: a4 22        	ldy	$22                     ; 0x22 <__rc18>
     5e7: a5 23        	lda	$23                     ; 0x23 <__rc19>
     5e9: 91 16        	sta	($16),y                 ; 0x16 <__rc6>
     5eb: e8           	inx
     5ec: 86 15        	stx	$15                     ; 0x15 <__rc5>
     5ee: 18           	clc
     5ef: a5 18        	lda	$18                     ; 0x18 <__rc8>
     5f1: 69 03        	adc	#$3
     5f3: aa           	tax
     5f4: c9 30        	cmp	#$30
     5f6: f0 03        	beq	$5fb <main+0x1e6>
     5f8: 4c 46 05     	jmp	$546 <main+0x131>
     5fb: a6 01        	ldx	$1                      ; 0x1 <__data_size+0x1>
     5fd: 86 18        	stx	$18                     ; 0x18 <__rc8>
     5ff: a2 50        	ldx	#$50
     601: 8e 00 de     	stx	$de00                   ; 0xde00 <__heap_start+0xbb2a>
     604: 9c 01 de     	stz	$de01                   ; 0xde01 <__heap_start+0xbb2b>
     607: a2 1e        	ldx	#$1e
     609: 8e 02 de     	stx	$de02                   ; 0xde02 <__heap_start+0xbb2c>
     60c: 9c 03 de     	stz	$de03                   ; 0xde03 <__heap_start+0xbb2d>
     60f: ae 10 de     	ldx	$de10                   ; 0xde10 <__heap_start+0xbb3a>
     612: ac 11 de     	ldy	$de11                   ; 0xde11 <__heap_start+0xbb3b>
     615: ad 12 de     	lda	$de12                   ; 0xde12 <__heap_start+0xbb3c>
     618: ad 13 de     	lda	$de13                   ; 0xde13 <__heap_start+0xbb3d>
     61b: a9 02        	lda	#$2
     61d: 85 01        	sta	$1                      ; 0x1 <__data_size+0x1>
     61f: e0 01        	cpx	#$1
     621: 98           	tya
     622: e9 00        	sbc	#$0
     624: 50 02        	bvc	$628 <main+0x213>
     626: 49 80        	eor	#$80
     628: c9 00        	cmp	#$0
     62a: 10 03        	bpl	$62f <main+0x21a>
     62c: 4c 86 06     	jmp	$686 <main+0x271>
     62f: a9 20        	lda	#$20
     631: 86 19        	stx	$19                     ; 0x19 <__rc9>
     633: 86 14        	stx	$14                     ; 0x14 <__rc4>
     635: 84 15        	sty	$15                     ; 0x15 <__rc5>
     637: a2 00        	ldx	#$0
     639: 86 16        	stx	$16                     ; 0x16 <__rc6>
     63b: a2 c0        	ldx	#$c0
     63d: 86 17        	stx	$17                     ; 0x17 <__rc7>
     63f: 80 04        	bra	$645 <main+0x230>
     641: a6 15        	ldx	$15                     ; 0x15 <__rc5>
     643: f0 14        	beq	$659 <main+0x244>
     645: 92 16        	sta	($16)                   ; 0x16 <__rc6>
     647: e6 16        	inc	$16                     ; 0x16 <__rc6>
     649: d0 02        	bne	$64d <main+0x238>
     64b: e6 17        	inc	$17                     ; 0x17 <__rc7>
     64d: a2 ff        	ldx	#$ff
     64f: c6 14        	dec	$14                     ; 0x14 <__rc4>
     651: e4 14        	cpx	$14                     ; 0x14 <__rc4>
     653: d0 ec        	bne	$641 <main+0x22c>
     655: c6 15        	dec	$15                     ; 0x15 <__rc5>
     657: 80 e8        	bra	$641 <main+0x22c>
     659: a6 14        	ldx	$14                     ; 0x14 <__rc4>
     65b: d0 e8        	bne	$645 <main+0x230>
     65d: a2 03        	ldx	#$3
     65f: 86 01        	stx	$1                      ; 0x1 <__data_size+0x1>
     661: a6 19        	ldx	$19                     ; 0x19 <__rc9>
     663: 80 03        	bra	$668 <main+0x253>
     665: 98           	tya
     666: f0 19        	beq	$681 <main+0x26c>
     668: a9 f0        	lda	#$f0
     66a: 92 12        	sta	($12)                   ; 0x12 <__rc2>
     66c: e6 12        	inc	$12                     ; 0x12 <__rc2>
     66e: f0 07        	beq	$677 <main+0x262>
     670: ca           	dex
     671: e0 ff        	cpx	#$ff
     673: d0 f0        	bne	$665 <main+0x250>
     675: 80 07        	bra	$67e <main+0x269>
     677: e6 13        	inc	$13                     ; 0x13 <__rc3>
     679: ca           	dex
     67a: e0 ff        	cpx	#$ff
     67c: d0 e7        	bne	$665 <main+0x250>
     67e: 88           	dey
     67f: 80 e4        	bra	$665 <main+0x250>
     681: 8a           	txa
     682: d0 e4        	bne	$668 <main+0x253>
     684: 80 04        	bra	$68a <main+0x275>
     686: a2 03        	ldx	#$3
     688: 86 01        	stx	$1                      ; 0x1 <__data_size+0x1>
     68a: a6 18        	ldx	$18                     ; 0x18 <__rc8>
     68c: 86 01        	stx	$1                      ; 0x1 <__data_size+0x1>
     68e: 64 67        	stz	$67                     ; 0x67 <_col>
     690: 9c 14 d0     	stz	$d014                   ; 0xd014 <__heap_start+0xad3e>
     693: 9c 15 d0     	stz	$d015                   ; 0xd015 <__heap_start+0xad3f>
     696: 64 68        	stz	$68                     ; 0x68 <_row>
     698: 9c 16 d0     	stz	$d016                   ; 0xd016 <__heap_start+0xad40>
     69b: 9c 17 d0     	stz	$d017                   ; 0xd017 <__heap_start+0xad41>
     69e: a2 40        	ldx	#$40
     6a0: 8e 00 de     	stx	$de00                   ; 0xde00 <__heap_start+0xbb2a>
     6a3: a2 01        	ldx	#$1
     6a5: 8e 01 de     	stx	$de01                   ; 0xde01 <__heap_start+0xbb2b>
     6a8: a2 f0        	ldx	#$f0
     6aa: 8e 02 de     	stx	$de02                   ; 0xde02 <__heap_start+0xbb2c>
     6ad: 9c 03 de     	stz	$de03                   ; 0xde03 <__heap_start+0xbb2d>
     6b0: ae 10 de     	ldx	$de10                   ; 0xde10 <__heap_start+0xbb3a>
     6b3: 86 17        	stx	$17                     ; 0x17 <__rc7>
     6b5: ae 11 de     	ldx	$de11                   ; 0xde11 <__heap_start+0xbb3b>
     6b8: 86 12        	stx	$12                     ; 0x12 <__rc2>
     6ba: ae 12 de     	ldx	$de12                   ; 0xde12 <__heap_start+0xbb3c>
     6bd: 86 13        	stx	$13                     ; 0x13 <__rc3>
     6bf: ae 13 de     	ldx	$de13                   ; 0xde13 <__heap_start+0xbb3d>
     6c2: 86 14        	stx	$14                     ; 0x14 <__rc4>
     6c4: a4 12        	ldy	$12                     ; 0x12 <__rc2>
     6c6: 84 15        	sty	$15                     ; 0x15 <__rc5>
     6c8: 06 15        	asl	$15                     ; 0x15 <__rc5>
     6ca: a5 13        	lda	$13                     ; 0x13 <__rc3>
     6cc: 2a           	rol
     6cd: 86 16        	stx	$16                     ; 0x16 <__rc6>
     6cf: 26 16        	rol	$16                     ; 0x16 <__rc6>
     6d1: 06 15        	asl	$15                     ; 0x15 <__rc5>
     6d3: 2a           	rol
     6d4: 26 16        	rol	$16                     ; 0x16 <__rc6>
     6d6: 06 15        	asl	$15                     ; 0x15 <__rc5>
     6d8: 2a           	rol
     6d9: 26 16        	rol	$16                     ; 0x16 <__rc6>
     6db: 85 15        	sta	$15                     ; 0x15 <__rc5>
     6dd: 8d 00 de     	sta	$de00                   ; 0xde00 <__heap_start+0xbb2a>
     6e0: a5 16        	lda	$16                     ; 0x16 <__rc6>
     6e2: 8d 01 de     	sta	$de01                   ; 0xde01 <__heap_start+0xbb2b>
     6e5: 9c 02 de     	stz	$de02                   ; 0xde02 <__heap_start+0xbb2c>
     6e8: a2 20        	ldx	#$20
     6ea: 8e 03 de     	stx	$de03                   ; 0xde03 <__heap_start+0xbb2d>
     6ed: ae 10 de     	ldx	$de10                   ; 0xde10 <__heap_start+0xbb3a>
     6f0: 86 16        	stx	$16                     ; 0x16 <__rc6>
     6f2: ae 11 de     	ldx	$de11                   ; 0xde11 <__heap_start+0xbb3b>
     6f5: 86 18        	stx	$18                     ; 0x18 <__rc8>
     6f7: ac 12 de     	ldy	$de12                   ; 0xde12 <__heap_start+0xbb3c>
     6fa: ae 13 de     	ldx	$de13                   ; 0xde13 <__heap_start+0xbb3d>
     6fd: e4 14        	cpx	$14                     ; 0x14 <__rc4>
     6ff: d0 14        	bne	$715 <main+0x300>
     701: c4 13        	cpy	$13                     ; 0x13 <__rc3>
     703: d0 10        	bne	$715 <main+0x300>
     705: a6 18        	ldx	$18                     ; 0x18 <__rc8>
     707: e4 12        	cpx	$12                     ; 0x12 <__rc2>
     709: d0 0a        	bne	$715 <main+0x300>
     70b: a6 16        	ldx	$16                     ; 0x16 <__rc6>
     70d: e4 17        	cpx	$17                     ; 0x17 <__rc7>
     70f: d0 04        	bne	$715 <main+0x300>
     711: a6 15        	ldx	$15                     ; 0x15 <__rc5>
     713: 80 06        	bra	$71b <main+0x306>
     715: a6 15        	ldx	$15                     ; 0x15 <__rc5>
     717: e8           	inx
     718: d0 01        	bne	$71b <main+0x306>
     71a: 1a           	inc
     71b: 8e 00 de     	stx	$de00                   ; 0xde00 <__heap_start+0xbb2a>
     71e: 8d 01 de     	sta	$de01                   ; 0xde01 <__heap_start+0xbb2b>
     721: 9c 02 de     	stz	$de02                   ; 0xde02 <__heap_start+0xbb2c>
     724: a2 20        	ldx	#$20
     726: 8e 03 de     	stx	$de03                   ; 0xde03 <__heap_start+0xbb2d>
     729: ae 10 de     	ldx	$de10                   ; 0xde10 <__heap_start+0xbb3a>
     72c: 86 12        	stx	$12                     ; 0x12 <__rc2>
     72e: ae 11 de     	ldx	$de11                   ; 0xde11 <__heap_start+0xbb3b>
     731: 86 13        	stx	$13                     ; 0x13 <__rc3>
     733: ae 12 de     	ldx	$de12                   ; 0xde12 <__heap_start+0xbb3c>
     736: 86 14        	stx	$14                     ; 0x14 <__rc4>
     738: ae 13 de     	ldx	$de13                   ; 0xde13 <__heap_start+0xbb3d>
     73b: 86 15        	stx	$15                     ; 0x15 <__rc5>
     73d: 38           	sec
     73e: a9 00        	lda	#$0
     740: e5 12        	sbc	$12                     ; 0x12 <__rc2>
     742: 85 19        	sta	$19                     ; 0x19 <__rc9>
     744: a9 00        	lda	#$0
     746: e5 13        	sbc	$13                     ; 0x13 <__rc3>
     748: aa           	tax
     749: a9 08        	lda	#$8
     74b: e5 14        	sbc	$14                     ; 0x14 <__rc4>
     74d: 85 16        	sta	$16                     ; 0x16 <__rc6>
     74f: a9 00        	lda	#$0
     751: e5 15        	sbc	$15                     ; 0x15 <__rc5>
     753: 8e ca 22     	stx	$22ca                   ; 0x22ca <_BITMAP_BASE.0+0x1>
     756: a4 16        	ldy	$16                     ; 0x16 <__rc6>
     758: 8c cb 22     	sty	$22cb                   ; 0x22cb <_BITMAP_BASE.0+0x2>
     75b: 8d cc 22     	sta	$22cc                   ; 0x22cc <_BITMAP_BASE.0+0x3>
     75e: a8           	tay
     75f: a5 19        	lda	$19                     ; 0x19 <__rc9>
     761: 38           	sec
     762: e5 12        	sbc	$12                     ; 0x12 <__rc2>
     764: 85 18        	sta	$18                     ; 0x18 <__rc8>
     766: 8a           	txa
     767: e5 13        	sbc	$13                     ; 0x13 <__rc3>
     769: 85 1a        	sta	$1a                     ; 0x1a <__rc10>
     76b: a5 16        	lda	$16                     ; 0x16 <__rc6>
     76d: e5 14        	sbc	$14                     ; 0x14 <__rc4>
     76f: 85 16        	sta	$16                     ; 0x16 <__rc6>
     771: 98           	tya
     772: e5 15        	sbc	$15                     ; 0x15 <__rc5>
     774: 85 17        	sta	$17                     ; 0x17 <__rc7>
     776: 38           	sec
     777: a4 18        	ldy	$18                     ; 0x18 <__rc8>
     779: 8c cd 22     	sty	$22cd                   ; 0x22cd <_BITMAP_BASE.1>
     77c: a6 1a        	ldx	$1a                     ; 0x1a <__rc10>
     77e: 8e ce 22     	stx	$22ce                   ; 0x22ce <_BITMAP_BASE.1+0x1>
     781: a4 16        	ldy	$16                     ; 0x16 <__rc6>
     783: 8c cf 22     	sty	$22cf                   ; 0x22cf <_BITMAP_BASE.1+0x2>
     786: 8d d0 22     	sta	$22d0                   ; 0x22d0 <_BITMAP_BASE.1+0x3>
     789: a5 18        	lda	$18                     ; 0x18 <__rc8>
     78b: e5 12        	sbc	$12                     ; 0x12 <__rc2>
     78d: 85 18        	sta	$18                     ; 0x18 <__rc8>
     78f: a5 1a        	lda	$1a                     ; 0x1a <__rc10>
     791: e5 13        	sbc	$13                     ; 0x13 <__rc3>
     793: a8           	tay
     794: a5 16        	lda	$16                     ; 0x16 <__rc6>
     796: e5 14        	sbc	$14                     ; 0x14 <__rc4>
     798: 85 12        	sta	$12                     ; 0x12 <__rc2>
     79a: a5 17        	lda	$17                     ; 0x17 <__rc7>
     79c: e5 15        	sbc	$15                     ; 0x15 <__rc5>
     79e: a6 18        	ldx	$18                     ; 0x18 <__rc8>
     7a0: 8e d1 22     	stx	$22d1                   ; 0x22d1 <_BITMAP_BASE.2>
     7a3: 8c d2 22     	sty	$22d2                   ; 0x22d2 <_BITMAP_BASE.2+0x1>
     7a6: a6 19        	ldx	$19                     ; 0x19 <__rc9>
     7a8: 8e c9 22     	stx	$22c9                   ; 0x22c9 <_BITMAP_BASE.0>
     7ab: a4 12        	ldy	$12                     ; 0x12 <__rc2>
     7ad: 8c d3 22     	sty	$22d3                   ; 0x22d3 <_BITMAP_BASE.2+0x2>
     7b0: 8d d4 22     	sta	$22d4                   ; 0x22d4 <_BITMAP_BASE.2+0x3>
     7b3: 8e 01 d1     	stx	$d101                   ; 0xd101 <__heap_start+0xae2b>
     7b6: ae ca 22     	ldx	$22ca                   ; 0x22ca <_BITMAP_BASE.0+0x1>
     7b9: 8e 02 d1     	stx	$d102                   ; 0xd102 <__heap_start+0xae2c>
     7bc: ae cb 22     	ldx	$22cb                   ; 0x22cb <_BITMAP_BASE.0+0x2>
     7bf: 8e 03 d1     	stx	$d103                   ; 0xd103 <__heap_start+0xae2d>
     7c2: ae cd 22     	ldx	$22cd                   ; 0x22cd <_BITMAP_BASE.1>
     7c5: 8e 09 d1     	stx	$d109                   ; 0xd109 <__heap_start+0xae33>
     7c8: ae ce 22     	ldx	$22ce                   ; 0x22ce <_BITMAP_BASE.1+0x1>
     7cb: 8e 0a d1     	stx	$d10a                   ; 0xd10a <__heap_start+0xae34>
     7ce: ae cf 22     	ldx	$22cf                   ; 0x22cf <_BITMAP_BASE.1+0x2>
     7d1: 8e 0b d1     	stx	$d10b                   ; 0xd10b <__heap_start+0xae35>
     7d4: ae d1 22     	ldx	$22d1                   ; 0x22d1 <_BITMAP_BASE.2>
     7d7: 8e 11 d1     	stx	$d111                   ; 0xd111 <__heap_start+0xae3b>
     7da: ae d2 22     	ldx	$22d2                   ; 0x22d2 <_BITMAP_BASE.2+0x1>
     7dd: 8e 12 d1     	stx	$d112                   ; 0xd112 <__heap_start+0xae3c>
     7e0: ae d3 22     	ldx	$22d3                   ; 0x22d3 <_BITMAP_BASE.2+0x2>
     7e3: 8e 13 d1     	stx	$d113                   ; 0xd113 <__heap_start+0xae3d>
     7e6: 9c 00 d1     	stz	$d100                   ; 0xd100 <__heap_start+0xae2a>
     7e9: 9c 08 d1     	stz	$d108                   ; 0xd108 <__heap_start+0xae32>
     7ec: 9c 10 d1     	stz	$d110                   ; 0xd110 <__heap_start+0xae3a>
     7ef: a2 10        	ldx	#$10
     7f1: 8e 00 d2     	stx	$d200                   ; 0xd200 <__heap_start+0xaf2a>
     7f4: 8e 0c d2     	stx	$d20c                   ; 0xd20c <__heap_start+0xaf36>
     7f7: 8e 18 d2     	stx	$d218                   ; 0xd218 <__heap_start+0xaf42>
     7fa: a0 d9        	ldy	#$d9
     7fc: a2 40        	ldx	#$40
     7fe: 64 12        	stz	$12                     ; 0x12 <__rc2>
     800: 84 13        	sty	$13                     ; 0x13 <__rc3>
     802: a9 00        	lda	#$0
     804: 92 12        	sta	($12)                   ; 0x12 <__rc2>
     806: ca           	dex
     807: 18           	clc
     808: a5 12        	lda	$12                     ; 0x12 <__rc2>
     80a: 69 08        	adc	#$8
     80c: 85 12        	sta	$12                     ; 0x12 <__rc2>
     80e: 98           	tya
     80f: 69 00        	adc	#$0
     811: a8           	tay
     812: 8a           	txa
     813: d0 eb        	bne	$800 <main+0x3eb>
     815: 18           	clc
     816: a5 10        	lda	$10                     ; 0x10 <__rc0>
     818: 69 01        	adc	#$1
     81a: 85 12        	sta	$12                     ; 0x12 <__rc2>
     81c: a5 11        	lda	$11                     ; 0x11 <__rc1>
     81e: 69 00        	adc	#$0
     820: 85 13        	sta	$13                     ; 0x13 <__rc3>
     822: a6 12        	ldx	$12                     ; 0x12 <__rc2>
     824: 86 fb        	stx	$fb                     ; 0xfb <__zp_bss_size+0xc8>
     826: 85 fc        	sta	$fc                     ; 0xfc <__zp_bss_size+0xc9>
     828: a2 08        	ldx	#$8
     82a: 86 fd        	stx	$fd                     ; 0xfd <__zp_bss_size+0xca>
     82c: 18           	clc
     82d: a6 10        	ldx	$10                     ; 0x10 <__rc0>
     82f: 86 14        	stx	$14                     ; 0x14 <__rc4>
     831: a6 11        	ldx	$11                     ; 0x11 <__rc1>
     833: 86 15        	stx	$15                     ; 0x15 <__rc5>
     835: a2 c8        	ldx	#$c8
     837: 86 16        	stx	$16                     ; 0x16 <__rc6>
     839: a2 22        	ldx	#$22
     83b: 86 17        	stx	$17                     ; 0x17 <__rc7>
     83d: a0 06        	ldy	#$6
     83f: 20 dc ff     	jsr	$ffdc <__heap_start+0xdd06>
     842: 92 14        	sta	($14)                   ; 0x14 <__rc4>
     844: a9 00        	lda	#$0
     846: 6a           	ror
     847: 85 16        	sta	$16                     ; 0x16 <__rc6>
     849: b1 12        	lda	($12),y                 ; 0x12 <__rc2>
     84b: 85 14        	sta	$14                     ; 0x14 <__rc4>
     84d: c8           	iny
     84e: b1 12        	lda	($12),y                 ; 0x12 <__rc2>
     850: a2 07        	ldx	#$7
     852: 86 24        	stx	$24                     ; 0x24 <__rc20>
     854: a6 14        	ldx	$14                     ; 0x14 <__rc4>
     856: 8e 00 de     	stx	$de00                   ; 0xde00 <__heap_start+0xbb2a>
     859: 9c 01 de     	stz	$de01                   ; 0xde01 <__heap_start+0xbb2b>
     85c: 8d 02 de     	sta	$de02                   ; 0xde02 <__heap_start+0xbb2c>
     85f: 9c 03 de     	stz	$de03                   ; 0xde03 <__heap_start+0xbb2d>
     862: ae 10 de     	ldx	$de10                   ; 0xde10 <__heap_start+0xbb3a>
     865: ac 11 de     	ldy	$de11                   ; 0xde11 <__heap_start+0xbb3b>
     868: ad 12 de     	lda	$de12                   ; 0xde12 <__heap_start+0xbb3c>
     86b: ad 13 de     	lda	$de13                   ; 0xde13 <__heap_start+0xbb3d>
     86e: 8e a4 d6     	stx	$d6a4                   ; 0xd6a4 <__heap_start+0xb3ce>
     871: 8c a5 d6     	sty	$d6a5                   ; 0xd6a5 <__heap_start+0xb3cf>
     874: a2 03        	ldx	#$3
     876: 8e a6 d6     	stx	$d6a6                   ; 0xd6a6 <__heap_start+0xb3d0>
     879: a5 fa        	lda	$fa                     ; 0xfa <__zp_bss_size+0xc7>
     87b: 4a           	lsr
     87c: a6 f8        	ldx	$f8                     ; 0xf8 <__zp_bss_size+0xc5>
     87e: a4 f9        	ldy	$f9                     ; 0xf9 <__zp_bss_size+0xc6>
     880: 86 12        	stx	$12                     ; 0x12 <__rc2>
     882: 84 13        	sty	$13                     ; 0x13 <__rc3>
     884: a2 00        	ldx	#$0
     886: 20 bb 08     	jsr	$8bb <f256main>
     889: 78           	sei
     88a: a6 24        	ldx	$24                     ; 0x24 <__rc20>
     88c: 86 0f        	stx	$f                      ; 0xf <__bss_size+0x2>
     88e: a2 de        	ldx	#$de
     890: 8e a2 d6     	stx	$d6a2                   ; 0xd6a2 <__heap_start+0xb3cc>
     893: a2 ad        	ldx	#$ad
     895: 8e a3 d6     	stx	$d6a3                   ; 0xd6a3 <__heap_start+0xb3cd>
     898: a2 f0        	ldx	#$f0
     89a: 8e a0 d6     	stx	$d6a0                   ; 0xd6a0 <__heap_start+0xb3ca>
     89d: 9c a0 d6     	stz	$d6a0                   ; 0xd6a0 <__heap_start+0xb3ca>
     8a0: 6c fc ff     	jmp	($fffc)                 ; 0xfffc <__heap_start+0xdd26>
     8a3: a2 00        	ldx	#$0
     8a5: 8a           	txa
     8a6: 85 20        	sta	$20                     ; 0x20 <__rc16>
     8a8: 7a           	ply
     8a9: 84 24        	sty	$24                     ; 0x24 <__rc20>
     8ab: 18           	clc
     8ac: a5 10        	lda	$10                     ; 0x10 <__rc0>
     8ae: 69 09        	adc	#$9
     8b0: 85 10        	sta	$10                     ; 0x10 <__rc0>
     8b2: a5 11        	lda	$11                     ; 0x11 <__rc1>
     8b4: 69 00        	adc	#$0
     8b6: 85 11        	sta	$11                     ; 0x11 <__rc1>
     8b8: a5 20        	lda	$20                     ; 0x20 <__rc16>
     8ba: 60           	rts

000008bb <f256main>:
     8bb: 48           	pha
     8bc: 18           	clc
     8bd: a5 10        	lda	$10                     ; 0x10 <__rc0>
     8bf: 69 f9        	adc	#$f9
     8c1: 85 10        	sta	$10                     ; 0x10 <__rc0>
     8c3: a5 11        	lda	$11                     ; 0x11 <__rc1>
     8c5: 69 ff        	adc	#$ff
     8c7: 85 11        	sta	$11                     ; 0x11 <__rc1>
     8c9: 68           	pla
     8ca: a4 24        	ldy	$24                     ; 0x24 <__rc20>
     8cc: 5a           	phy
     8cd: a4 25        	ldy	$25                     ; 0x25 <__rc21>
     8cf: 5a           	phy
     8d0: a4 26        	ldy	$26                     ; 0x26 <__rc22>
     8d2: 5a           	phy
     8d3: a4 27        	ldy	$27                     ; 0x27 <__rc23>
     8d5: 5a           	phy
     8d6: 86 16        	stx	$16                     ; 0x16 <__rc6>
     8d8: a2 08        	ldx	#$8
     8da: 86 24        	stx	$24                     ; 0x24 <__rc20>
     8dc: a2 00        	ldx	#$0
     8de: 86 25        	stx	$25                     ; 0x25 <__rc21>
     8e0: 18           	clc
     8e1: 48           	pha
     8e2: a5 10        	lda	$10                     ; 0x10 <__rc0>
     8e4: 69 05        	adc	#$5
     8e6: 85 14        	sta	$14                     ; 0x14 <__rc4>
     8e8: a5 11        	lda	$11                     ; 0x11 <__rc1>
     8ea: 69 00        	adc	#$0
     8ec: 85 15        	sta	$15                     ; 0x15 <__rc5>
     8ee: 68           	pla
     8ef: 92 14        	sta	($14)                   ; 0x14 <__rc4>
     8f1: a0 01        	ldy	#$1
     8f3: a5 16        	lda	$16                     ; 0x16 <__rc6>
     8f5: 91 14        	sta	($14),y                 ; 0x14 <__rc4>
     8f7: a5 12        	lda	$12                     ; 0x12 <__rc2>
     8f9: a6 13        	ldx	$13                     ; 0x13 <__rc3>
     8fb: 18           	clc
     8fc: 48           	pha
     8fd: a5 10        	lda	$10                     ; 0x10 <__rc0>
     8ff: 69 03        	adc	#$3
     901: 85 12        	sta	$12                     ; 0x12 <__rc2>
     903: a5 11        	lda	$11                     ; 0x11 <__rc1>
     905: 69 00        	adc	#$0
     907: 85 13        	sta	$13                     ; 0x13 <__rc3>
     909: 68           	pla
     90a: 92 12        	sta	($12)                   ; 0x12 <__rc2>
     90c: 8a           	txa
     90d: 91 12        	sta	($12),y                 ; 0x12 <__rc2>
     90f: 64 01        	stz	$1                      ; 0x1 <__data_size+0x1>
     911: 8c 00 d0     	sty	$d000                   ; 0xd000 <__heap_start+0xad2a>
     914: a2 01        	ldx	#$1
     916: 86 26        	stx	$26                     ; 0x26 <__rc22>
     918: 9c 01 d0     	stz	$d001                   ; 0xd001 <__heap_start+0xad2b>
     91b: 64 01        	stz	$1                      ; 0x1 <__data_size+0x1>
     91d: 9c 0d d0     	stz	$d00d                   ; 0xd00d <__heap_start+0xad37>
     920: 20 85 03     	jsr	$385 <openAllCODEC>
     923: 20 9c 03     	jsr	$39c <boostVSClock>
     926: a2 0e        	ldx	#$e
     928: a0 3a        	ldy	#$3a
     92a: 64 12        	stz	$12                     ; 0x12 <__rc2>
     92c: a5 26        	lda	$26                     ; 0x26 <__rc22>
     92e: 85 13        	sta	$13                     ; 0x13 <__rc3>
     930: 64 14        	stz	$14                     ; 0x14 <__rc4>
     932: 86 15        	stx	$15                     ; 0x15 <__rc5>
     934: 84 16        	sty	$16                     ; 0x16 <__rc6>
     936: a2 00        	ldx	#$0
     938: 8a           	txa
     939: 20 71 0a     	jsr	$a71 <setupSound>
     93c: a9 02        	lda	#$2
     93e: a2 4e        	ldx	#$4e
     940: a0 2d        	ldy	#$2d
     942: 64 12        	stz	$12                     ; 0x12 <__rc2>
     944: 85 13        	sta	$13                     ; 0x13 <__rc3>
     946: 85 27        	sta	$27                     ; 0x27 <__rc23>
     948: 64 14        	stz	$14                     ; 0x14 <__rc4>
     94a: 86 15        	stx	$15                     ; 0x15 <__rc5>
     94c: 84 16        	sty	$16                     ; 0x16 <__rc6>
     94e: a2 00        	ldx	#$0
     950: a5 26        	lda	$26                     ; 0x26 <__rc22>
     952: 20 71 0a     	jsr	$a71 <setupSound>
     955: a9 03        	lda	#$3
     957: a2 06        	ldx	#$6
     959: a0 1c        	ldy	#$1c
     95b: 64 12        	stz	$12                     ; 0x12 <__rc2>
     95d: 85 13        	sta	$13                     ; 0x13 <__rc3>
     95f: 85 26        	sta	$26                     ; 0x26 <__rc22>
     961: 64 14        	stz	$14                     ; 0x14 <__rc4>
     963: 86 15        	stx	$15                     ; 0x15 <__rc5>
     965: 84 16        	sty	$16                     ; 0x16 <__rc6>
     967: a2 00        	ldx	#$0
     969: a5 27        	lda	$27                     ; 0x27 <__rc23>
     96b: 20 71 0a     	jsr	$a71 <setupSound>
     96e: a2 04        	ldx	#$4
     970: a0 5c        	ldy	#$5c
     972: a9 5a        	lda	#$5a
     974: 86 13        	stx	$13                     ; 0x13 <__rc3>
     976: 64 12        	stz	$12                     ; 0x12 <__rc2>
     978: 64 14        	stz	$14                     ; 0x14 <__rc4>
     97a: 84 15        	sty	$15                     ; 0x15 <__rc5>
     97c: 85 16        	sta	$16                     ; 0x16 <__rc6>
     97e: a2 00        	ldx	#$0
     980: a5 26        	lda	$26                     ; 0x26 <__rc22>
     982: 20 71 0a     	jsr	$a71 <setupSound>
     985: 20 05 0b     	jsr	$b05 <headerPump>
     988: 20 ba 03     	jsr	$3ba <lowVol>
     98b: 20 b8 0b     	jsr	$bb8 <silencePad>
     98e: 20 d8 03     	jsr	$3d8 <highVol>
     991: a2 6e        	ldx	#$6e
     993: 86 12        	stx	$12                     ; 0x12 <__rc2>
     995: a2 22        	ldx	#$22
     997: 86 13        	stx	$13                     ; 0x13 <__rc3>
     999: 20 9b 12     	jsr	$129b <printf>
     99c: 20 a6 0c     	jsr	$ca6 <playChunk>
     99f: 64 60        	stz	$60                     ; 0x60 <kernelEventData>
     9a1: 18           	clc
     9a2: a5 10        	lda	$10                     ; 0x10 <__rc0>
     9a4: 69 01        	adc	#$1
     9a6: 85 12        	sta	$12                     ; 0x12 <__rc2>
     9a8: a5 11        	lda	$11                     ; 0x11 <__rc1>
     9aa: 69 00        	adc	#$0
     9ac: 85 13        	sta	$13                     ; 0x13 <__rc3>
     9ae: a2 c8        	ldx	#$c8
     9b0: 86 14        	stx	$14                     ; 0x14 <__rc4>
     9b2: a2 22        	ldx	#$22
     9b4: 86 15        	stx	$15                     ; 0x15 <__rc5>
     9b6: 20 00 ff     	jsr	$ff00 <__heap_start+0xdc2a>
     9b9: 92 12        	sta	($12)                   ; 0x12 <__rc2>
     9bb: a9 00        	lda	#$0
     9bd: 6a           	ror
     9be: 85 14        	sta	$14                     ; 0x14 <__rc4>
     9c0: b2 12        	lda	($12)                   ; 0x12 <__rc2>
     9c2: 18           	clc
     9c3: a6 10        	ldx	$10                     ; 0x10 <__rc0>
     9c5: 86 12        	stx	$12                     ; 0x12 <__rc2>
     9c7: a6 11        	ldx	$11                     ; 0x11 <__rc1>
     9c9: 86 13        	stx	$13                     ; 0x13 <__rc3>
     9cb: 92 12        	sta	($12)                   ; 0x12 <__rc2>
     9cd: b2 12        	lda	($12)                   ; 0x12 <__rc2>
     9cf: 18           	clc
     9d0: 48           	pha
     9d1: a5 10        	lda	$10                     ; 0x10 <__rc0>
     9d3: 69 02        	adc	#$2
     9d5: 85 12        	sta	$12                     ; 0x12 <__rc2>
     9d7: a5 11        	lda	$11                     ; 0x11 <__rc1>
     9d9: 69 00        	adc	#$0
     9db: 85 13        	sta	$13                     ; 0x13 <__rc3>
     9dd: 68           	pla
     9de: 92 12        	sta	($12)                   ; 0x12 <__rc2>
     9e0: a6 60        	ldx	$60                     ; 0x60 <kernelEventData>
     9e2: a0 00        	ldy	#$0
     9e4: c4 25        	cpy	$25                     ; 0x25 <__rc21>
     9e6: f0 02        	beq	$9ea <f256main+0x12f>
     9e8: 80 0d        	bra	$9f7 <f256main+0x13c>
     9ea: e4 24        	cpx	$24                     ; 0x24 <__rc20>
     9ec: f0 02        	beq	$9f0 <f256main+0x135>
     9ee: 80 02        	bra	$9f2 <f256main+0x137>
     9f0: 80 03        	bra	$9f5 <f256main+0x13a>
     9f2: 4c 6e 0a     	jmp	$a6e <f256main+0x1b3>
     9f5: 80 03        	bra	$9fa <f256main+0x13f>
     9f7: 4c 6e 0a     	jmp	$a6e <f256main+0x1b3>
     9fa: 80 00        	bra	$9fc <f256main+0x141>
     9fc: a5 64        	lda	$64                     ; 0x64 <kernelEventData+0x4>
     9fe: 18           	clc
     9ff: 69 cf        	adc	#$cf
     a01: aa           	tax
     a02: a9 00        	lda	#$0
     a04: 69 ff        	adc	#$ff
     a06: c9 00        	cmp	#$0
     a08: a0 01        	ldy	#$1
     a0a: b0 02        	bcs	$a0e <f256main+0x153>
     a0c: a0 00        	ldy	#$0
     a0e: 84 12        	sty	$12                     ; 0x12 <__rc2>
     a10: a8           	tay
     a11: f0 02        	beq	$a15 <f256main+0x15a>
     a13: 80 07        	bra	$a1c <f256main+0x161>
     a15: 8a           	txa
     a16: c9 04        	cmp	#$4
     a18: b0 54        	bcs	$a6e <f256main+0x1b3>
     a1a: 80 07        	bra	$a23 <f256main+0x168>
     a1c: 8a           	txa
     a1d: a6 12        	ldx	$12                     ; 0x12 <__rc2>
     a1f: d0 4d        	bne	$a6e <f256main+0x1b3>
     a21: 80 00        	bra	$a23 <f256main+0x168>
     a23: 0a           	asl
     a24: aa           	tax
     a25: 7c 24 22     	jmp	($2224,x)               ; 0x2224 <__BLOCK_SIZE+0x224>
     a28: a2 6c        	ldx	#$6c
     a2a: 86 12        	stx	$12                     ; 0x12 <__rc2>
     a2c: a2 22        	ldx	#$22
     a2e: 86 13        	stx	$13                     ; 0x13 <__rc3>
     a30: 20 9b 12     	jsr	$129b <printf>
     a33: a9 00        	lda	#$0
     a35: 20 69 0f     	jsr	$f69 <startSound>
     a38: 80 34        	bra	$a6e <f256main+0x1b3>
     a3a: a2 66        	ldx	#$66
     a3c: 86 12        	stx	$12                     ; 0x12 <__rc2>
     a3e: a2 22        	ldx	#$22
     a40: 86 13        	stx	$13                     ; 0x13 <__rc3>
     a42: 20 9b 12     	jsr	$129b <printf>
     a45: a9 01        	lda	#$1
     a47: 20 69 0f     	jsr	$f69 <startSound>
     a4a: 80 22        	bra	$a6e <f256main+0x1b3>
     a4c: a2 68        	ldx	#$68
     a4e: 86 12        	stx	$12                     ; 0x12 <__rc2>
     a50: a2 22        	ldx	#$22
     a52: 86 13        	stx	$13                     ; 0x13 <__rc3>
     a54: 20 9b 12     	jsr	$129b <printf>
     a57: a9 02        	lda	#$2
     a59: 20 69 0f     	jsr	$f69 <startSound>
     a5c: 80 10        	bra	$a6e <f256main+0x1b3>
     a5e: a2 6a        	ldx	#$6a
     a60: 86 12        	stx	$12                     ; 0x12 <__rc2>
     a62: a2 22        	ldx	#$22
     a64: 86 13        	stx	$13                     ; 0x13 <__rc3>
     a66: 20 9b 12     	jsr	$129b <printf>
     a69: a9 03        	lda	#$3
     a6b: 20 69 0f     	jsr	$f69 <startSound>
     a6e: 4c 9c 09     	jmp	$99c <f256main+0xe1>

00000a71 <setupSound>:
     a71: 85 17        	sta	$17                     ; 0x17 <__rc7>
     a73: a4 12        	ldy	$12                     ; 0x12 <__rc2>
     a75: 48           	pha
     a76: a5 16        	lda	$16                     ; 0x16 <__rc6>
     a78: 85 18        	sta	$18                     ; 0x18 <__rc8>
     a7a: 68           	pla
     a7b: 0a           	asl
     a7c: 64 16        	stz	$16                     ; 0x16 <__rc6>
     a7e: 26 16        	rol	$16                     ; 0x16 <__rc6>
     a80: 0a           	asl
     a81: 26 16        	rol	$16                     ; 0x16 <__rc6>
     a83: 0a           	asl
     a84: 26 16        	rol	$16                     ; 0x16 <__rc6>
     a86: 18           	clc
     a87: 65 17        	adc	$17                     ; 0x17 <__rc7>
     a89: 85 12        	sta	$12                     ; 0x12 <__rc2>
     a8b: a5 16        	lda	$16                     ; 0x16 <__rc6>
     a8d: 69 00        	adc	#$0
     a8f: 85 16        	sta	$16                     ; 0x16 <__rc6>
     a91: a9 6b        	lda	#$6b
     a93: 18           	clc
     a94: 65 12        	adc	$12                     ; 0x12 <__rc2>
     a96: 85 19        	sta	$19                     ; 0x19 <__rc9>
     a98: a9 00        	lda	#$0
     a9a: 65 16        	adc	$16                     ; 0x16 <__rc6>
     a9c: 85 1a        	sta	$1a                     ; 0x1a <__rc10>
     a9e: 18           	clc
     a9f: 8a           	txa
     aa0: 69 2c        	adc	#$2c
     aa2: 85 16        	sta	$16                     ; 0x16 <__rc6>
     aa4: 98           	tya
     aa5: 69 00        	adc	#$0
     aa7: 85 17        	sta	$17                     ; 0x17 <__rc7>
     aa9: a5 13        	lda	$13                     ; 0x13 <__rc3>
     aab: 69 00        	adc	#$0
     aad: a6 19        	ldx	$19                     ; 0x19 <__rc9>
     aaf: 86 12        	stx	$12                     ; 0x12 <__rc2>
     ab1: a6 1a        	ldx	$1a                     ; 0x1a <__rc10>
     ab3: 86 13        	stx	$13                     ; 0x13 <__rc3>
     ab5: a0 02        	ldy	#$2
     ab7: 91 12        	sta	($12),y                 ; 0x12 <__rc2>
     ab9: a5 14        	lda	$14                     ; 0x14 <__rc4>
     abb: 69 00        	adc	#$0
     abd: c8           	iny
     abe: 91 12        	sta	($12),y                 ; 0x12 <__rc2>
     ac0: 18           	clc
     ac1: a5 15        	lda	$15                     ; 0x15 <__rc5>
     ac3: 69 d4        	adc	#$d4
     ac5: c8           	iny
     ac6: 91 12        	sta	($12),y                 ; 0x12 <__rc2>
     ac8: a0 01        	ldy	#$1
     aca: a5 17        	lda	$17                     ; 0x17 <__rc7>
     acc: 91 12        	sta	($12),y                 ; 0x12 <__rc2>
     ace: a5 18        	lda	$18                     ; 0x18 <__rc8>
     ad0: 69 ff        	adc	#$ff
     ad2: 85 17        	sta	$17                     ; 0x17 <__rc7>
     ad4: a5 19        	lda	$19                     ; 0x19 <__rc9>
     ad6: 18           	clc
     ad7: 69 04        	adc	#$4
     ad9: 85 14        	sta	$14                     ; 0x14 <__rc4>
     adb: a5 1a        	lda	$1a                     ; 0x1a <__rc10>
     add: 69 00        	adc	#$0
     adf: 85 15        	sta	$15                     ; 0x15 <__rc5>
     ae1: a5 17        	lda	$17                     ; 0x17 <__rc7>
     ae3: 91 14        	sta	($14),y                 ; 0x14 <__rc4>
     ae5: a2 01        	ldx	#$1
     ae7: 86 17        	stx	$17                     ; 0x17 <__rc7>
     ae9: 18           	clc
     aea: a5 19        	lda	$19                     ; 0x19 <__rc9>
     aec: 69 06        	adc	#$6
     aee: 85 14        	sta	$14                     ; 0x14 <__rc4>
     af0: a5 1a        	lda	$1a                     ; 0x1a <__rc10>
     af2: 69 00        	adc	#$0
     af4: 85 15        	sta	$15                     ; 0x15 <__rc5>
     af6: a9 00        	lda	#$0
     af8: a0 06        	ldy	#$6
     afa: 91 12        	sta	($12),y                 ; 0x12 <__rc2>
     afc: a4 17        	ldy	$17                     ; 0x17 <__rc7>
     afe: 91 14        	sta	($14),y                 ; 0x14 <__rc4>
     b00: a5 16        	lda	$16                     ; 0x16 <__rc6>
     b02: 92 12        	sta	($12)                   ; 0x12 <__rc2>
     b04: 60           	rts

00000b05 <headerPump>:
     b05: a2 52        	ldx	#$52
     b07: 8e 07 d7     	stx	$d707                   ; 0xd707 <__heap_start+0xb431>
     b0a: a2 49        	ldx	#$49
     b0c: 8e 07 d7     	stx	$d707                   ; 0xd707 <__heap_start+0xb431>
     b0f: a2 46        	ldx	#$46
     b11: 8e 07 d7     	stx	$d707                   ; 0xd707 <__heap_start+0xb431>
     b14: 8e 07 d7     	stx	$d707                   ; 0xd707 <__heap_start+0xb431>
     b17: a2 06        	ldx	#$6
     b19: 8e 07 d7     	stx	$d707                   ; 0xd707 <__heap_start+0xb431>
     b1c: a2 3a        	ldx	#$3a
     b1e: 8e 07 d7     	stx	$d707                   ; 0xd707 <__heap_start+0xb431>
     b21: 9c 07 d7     	stz	$d707                   ; 0xd707 <__heap_start+0xb431>
     b24: 9c 07 d7     	stz	$d707                   ; 0xd707 <__heap_start+0xb431>
     b27: a2 57        	ldx	#$57
     b29: 8e 07 d7     	stx	$d707                   ; 0xd707 <__heap_start+0xb431>
     b2c: a2 41        	ldx	#$41
     b2e: 8e 07 d7     	stx	$d707                   ; 0xd707 <__heap_start+0xb431>
     b31: a0 56        	ldy	#$56
     b33: 8c 07 d7     	sty	$d707                   ; 0xd707 <__heap_start+0xb431>
     b36: a2 45        	ldx	#$45
     b38: 8e 07 d7     	stx	$d707                   ; 0xd707 <__heap_start+0xb431>
     b3b: a2 66        	ldx	#$66
     b3d: 8e 07 d7     	stx	$d707                   ; 0xd707 <__heap_start+0xb431>
     b40: a2 6d        	ldx	#$6d
     b42: 8e 07 d7     	stx	$d707                   ; 0xd707 <__heap_start+0xb431>
     b45: a2 74        	ldx	#$74
     b47: 8e 07 d7     	stx	$d707                   ; 0xd707 <__heap_start+0xb431>
     b4a: 86 12        	stx	$12                     ; 0x12 <__rc2>
     b4c: a9 20        	lda	#$20
     b4e: 8d 07 d7     	sta	$d707                   ; 0xd707 <__heap_start+0xb431>
     b51: a9 10        	lda	#$10
     b53: 8d 07 d7     	sta	$d707                   ; 0xd707 <__heap_start+0xb431>
     b56: 9c 07 d7     	stz	$d707                   ; 0xd707 <__heap_start+0xb431>
     b59: 9c 07 d7     	stz	$d707                   ; 0xd707 <__heap_start+0xb431>
     b5c: 9c 07 d7     	stz	$d707                   ; 0xd707 <__heap_start+0xb431>
     b5f: a9 01        	lda	#$1
     b61: 8d 07 d7     	sta	$d707                   ; 0xd707 <__heap_start+0xb431>
     b64: 9c 07 d7     	stz	$d707                   ; 0xd707 <__heap_start+0xb431>
     b67: 8d 07 d7     	sta	$d707                   ; 0xd707 <__heap_start+0xb431>
     b6a: 9c 07 d7     	stz	$d707                   ; 0xd707 <__heap_start+0xb431>
     b6d: a2 22        	ldx	#$22
     b6f: 8e 07 d7     	stx	$d707                   ; 0xd707 <__heap_start+0xb431>
     b72: 8c 07 d7     	sty	$d707                   ; 0xd707 <__heap_start+0xb431>
     b75: 9c 07 d7     	stz	$d707                   ; 0xd707 <__heap_start+0xb431>
     b78: 9c 07 d7     	stz	$d707                   ; 0xd707 <__heap_start+0xb431>
     b7b: 8e 07 d7     	stx	$d707                   ; 0xd707 <__heap_start+0xb431>
     b7e: 8c 07 d7     	sty	$d707                   ; 0xd707 <__heap_start+0xb431>
     b81: 9c 07 d7     	stz	$d707                   ; 0xd707 <__heap_start+0xb431>
     b84: 9c 07 d7     	stz	$d707                   ; 0xd707 <__heap_start+0xb431>
     b87: 8d 07 d7     	sta	$d707                   ; 0xd707 <__heap_start+0xb431>
     b8a: 9c 07 d7     	stz	$d707                   ; 0xd707 <__heap_start+0xb431>
     b8d: a2 08        	ldx	#$8
     b8f: 8e 07 d7     	stx	$d707                   ; 0xd707 <__heap_start+0xb431>
     b92: 9c 07 d7     	stz	$d707                   ; 0xd707 <__heap_start+0xb431>
     b95: a2 64        	ldx	#$64
     b97: 8e 07 d7     	stx	$d707                   ; 0xd707 <__heap_start+0xb431>
     b9a: a2 61        	ldx	#$61
     b9c: 8e 07 d7     	stx	$d707                   ; 0xd707 <__heap_start+0xb431>
     b9f: a4 12        	ldy	$12                     ; 0x12 <__rc2>
     ba1: 8c 07 d7     	sty	$d707                   ; 0xd707 <__heap_start+0xb431>
     ba4: 8e 07 d7     	stx	$d707                   ; 0xd707 <__heap_start+0xb431>
     ba7: a2 e2        	ldx	#$e2
     ba9: 8e 07 d7     	stx	$d707                   ; 0xd707 <__heap_start+0xb431>
     bac: a2 39        	ldx	#$39
     bae: 8e 07 d7     	stx	$d707                   ; 0xd707 <__heap_start+0xb431>
     bb1: 9c 07 d7     	stz	$d707                   ; 0xd707 <__heap_start+0xb431>
     bb4: 9c 07 d7     	stz	$d707                   ; 0xd707 <__heap_start+0xb431>
     bb7: 60           	rts

00000bb8 <silencePad>:
     bb8: a2 00        	ldx	#$0
     bba: a0 80        	ldy	#$80
     bbc: 4c 8d 0c     	jmp	$c8d <silencePad+0xd5>
     bbf: c9 07        	cmp	#$7
     bc1: 90 03        	bcc	$bc6 <silencePad+0xe>
     bc3: 4c 8f 0c     	jmp	$c8f <silencePad+0xd7>
     bc6: a6 12        	ldx	$12                     ; 0x12 <__rc2>
     bc8: 8c 07 d7     	sty	$d707                   ; 0xd707 <__heap_start+0xb431>
     bcb: 8c 07 d7     	sty	$d707                   ; 0xd707 <__heap_start+0xb431>
     bce: 8c 07 d7     	sty	$d707                   ; 0xd707 <__heap_start+0xb431>
     bd1: 8c 07 d7     	sty	$d707                   ; 0xd707 <__heap_start+0xb431>
     bd4: 8c 07 d7     	sty	$d707                   ; 0xd707 <__heap_start+0xb431>
     bd7: 8c 07 d7     	sty	$d707                   ; 0xd707 <__heap_start+0xb431>
     bda: 8c 07 d7     	sty	$d707                   ; 0xd707 <__heap_start+0xb431>
     bdd: 8c 07 d7     	sty	$d707                   ; 0xd707 <__heap_start+0xb431>
     be0: 8c 07 d7     	sty	$d707                   ; 0xd707 <__heap_start+0xb431>
     be3: 8c 07 d7     	sty	$d707                   ; 0xd707 <__heap_start+0xb431>
     be6: 8c 07 d7     	sty	$d707                   ; 0xd707 <__heap_start+0xb431>
     be9: 8c 07 d7     	sty	$d707                   ; 0xd707 <__heap_start+0xb431>
     bec: 8c 07 d7     	sty	$d707                   ; 0xd707 <__heap_start+0xb431>
     bef: 8c 07 d7     	sty	$d707                   ; 0xd707 <__heap_start+0xb431>
     bf2: 8c 07 d7     	sty	$d707                   ; 0xd707 <__heap_start+0xb431>
     bf5: 8c 07 d7     	sty	$d707                   ; 0xd707 <__heap_start+0xb431>
     bf8: 8c 07 d7     	sty	$d707                   ; 0xd707 <__heap_start+0xb431>
     bfb: 8c 07 d7     	sty	$d707                   ; 0xd707 <__heap_start+0xb431>
     bfe: 8c 07 d7     	sty	$d707                   ; 0xd707 <__heap_start+0xb431>
     c01: 8c 07 d7     	sty	$d707                   ; 0xd707 <__heap_start+0xb431>
     c04: 8c 07 d7     	sty	$d707                   ; 0xd707 <__heap_start+0xb431>
     c07: 8c 07 d7     	sty	$d707                   ; 0xd707 <__heap_start+0xb431>
     c0a: 8c 07 d7     	sty	$d707                   ; 0xd707 <__heap_start+0xb431>
     c0d: 8c 07 d7     	sty	$d707                   ; 0xd707 <__heap_start+0xb431>
     c10: 8c 07 d7     	sty	$d707                   ; 0xd707 <__heap_start+0xb431>
     c13: 8c 07 d7     	sty	$d707                   ; 0xd707 <__heap_start+0xb431>
     c16: 8c 07 d7     	sty	$d707                   ; 0xd707 <__heap_start+0xb431>
     c19: 8c 07 d7     	sty	$d707                   ; 0xd707 <__heap_start+0xb431>
     c1c: 8c 07 d7     	sty	$d707                   ; 0xd707 <__heap_start+0xb431>
     c1f: 8c 07 d7     	sty	$d707                   ; 0xd707 <__heap_start+0xb431>
     c22: 8c 07 d7     	sty	$d707                   ; 0xd707 <__heap_start+0xb431>
     c25: 8c 07 d7     	sty	$d707                   ; 0xd707 <__heap_start+0xb431>
     c28: 8c 07 d7     	sty	$d707                   ; 0xd707 <__heap_start+0xb431>
     c2b: 8c 07 d7     	sty	$d707                   ; 0xd707 <__heap_start+0xb431>
     c2e: 8c 07 d7     	sty	$d707                   ; 0xd707 <__heap_start+0xb431>
     c31: 8c 07 d7     	sty	$d707                   ; 0xd707 <__heap_start+0xb431>
     c34: 8c 07 d7     	sty	$d707                   ; 0xd707 <__heap_start+0xb431>
     c37: 8c 07 d7     	sty	$d707                   ; 0xd707 <__heap_start+0xb431>
     c3a: 8c 07 d7     	sty	$d707                   ; 0xd707 <__heap_start+0xb431>
     c3d: 8c 07 d7     	sty	$d707                   ; 0xd707 <__heap_start+0xb431>
     c40: 8c 07 d7     	sty	$d707                   ; 0xd707 <__heap_start+0xb431>
     c43: 8c 07 d7     	sty	$d707                   ; 0xd707 <__heap_start+0xb431>
     c46: 8c 07 d7     	sty	$d707                   ; 0xd707 <__heap_start+0xb431>
     c49: 8c 07 d7     	sty	$d707                   ; 0xd707 <__heap_start+0xb431>
     c4c: 8c 07 d7     	sty	$d707                   ; 0xd707 <__heap_start+0xb431>
     c4f: 8c 07 d7     	sty	$d707                   ; 0xd707 <__heap_start+0xb431>
     c52: 8c 07 d7     	sty	$d707                   ; 0xd707 <__heap_start+0xb431>
     c55: 8c 07 d7     	sty	$d707                   ; 0xd707 <__heap_start+0xb431>
     c58: 8c 07 d7     	sty	$d707                   ; 0xd707 <__heap_start+0xb431>
     c5b: 8c 07 d7     	sty	$d707                   ; 0xd707 <__heap_start+0xb431>
     c5e: 8c 07 d7     	sty	$d707                   ; 0xd707 <__heap_start+0xb431>
     c61: 8c 07 d7     	sty	$d707                   ; 0xd707 <__heap_start+0xb431>
     c64: 8c 07 d7     	sty	$d707                   ; 0xd707 <__heap_start+0xb431>
     c67: 8c 07 d7     	sty	$d707                   ; 0xd707 <__heap_start+0xb431>
     c6a: 8c 07 d7     	sty	$d707                   ; 0xd707 <__heap_start+0xb431>
     c6d: 8c 07 d7     	sty	$d707                   ; 0xd707 <__heap_start+0xb431>
     c70: 8c 07 d7     	sty	$d707                   ; 0xd707 <__heap_start+0xb431>
     c73: 8c 07 d7     	sty	$d707                   ; 0xd707 <__heap_start+0xb431>
     c76: 8c 07 d7     	sty	$d707                   ; 0xd707 <__heap_start+0xb431>
     c79: 8c 07 d7     	sty	$d707                   ; 0xd707 <__heap_start+0xb431>
     c7c: 8c 07 d7     	sty	$d707                   ; 0xd707 <__heap_start+0xb431>
     c7f: 8c 07 d7     	sty	$d707                   ; 0xd707 <__heap_start+0xb431>
     c82: 8c 07 d7     	sty	$d707                   ; 0xd707 <__heap_start+0xb431>
     c85: 8c 07 d7     	sty	$d707                   ; 0xd707 <__heap_start+0xb431>
     c88: e8           	inx
     c89: e0 20        	cpx	#$20
     c8b: f0 18        	beq	$ca5 <silencePad+0xed>
     c8d: 86 12        	stx	$12                     ; 0x12 <__rc2>
     c8f: ae 04 d7     	ldx	$d704                   ; 0xd704 <__heap_start+0xb42e>
     c92: ad 05 d7     	lda	$d705                   ; 0xd705 <__heap_start+0xb42f>
     c95: 29 07        	and	#$7
     c97: c9 07        	cmp	#$7
     c99: f0 03        	beq	$c9e <silencePad+0xe6>
     c9b: 4c bf 0b     	jmp	$bbf <silencePad+0x7>
     c9e: e0 c1        	cpx	#$c1
     ca0: b0 ed        	bcs	$c8f <silencePad+0xd7>
     ca2: 4c c6 0b     	jmp	$bc6 <silencePad+0xe>
     ca5: 60           	rts

00000ca6 <playChunk>:
     ca6: 18           	clc
     ca7: a5 10        	lda	$10                     ; 0x10 <__rc0>
     ca9: 69 f9        	adc	#$f9
     cab: 85 10        	sta	$10                     ; 0x10 <__rc0>
     cad: a5 11        	lda	$11                     ; 0x11 <__rc1>
     caf: 69 ff        	adc	#$ff
     cb1: 85 11        	sta	$11                     ; 0x11 <__rc1>
     cb3: 20 af 0f     	jsr	$faf <howManySounds>
     cb6: 18           	clc
     cb7: 48           	pha
     cb8: a5 10        	lda	$10                     ; 0x10 <__rc0>
     cba: 69 05        	adc	#$5
     cbc: 85 12        	sta	$12                     ; 0x12 <__rc2>
     cbe: a5 11        	lda	$11                     ; 0x11 <__rc1>
     cc0: 69 00        	adc	#$0
     cc2: 85 13        	sta	$13                     ; 0x13 <__rc3>
     cc4: 68           	pla
     cc5: 92 12        	sta	($12)                   ; 0x12 <__rc2>
     cc7: a0 01        	ldy	#$1
     cc9: 8a           	txa
     cca: 91 12        	sta	($12),y                 ; 0x12 <__rc2>
     ccc: b2 12        	lda	($12)                   ; 0x12 <__rc2>
     cce: 85 14        	sta	$14                     ; 0x14 <__rc4>
     cd0: b1 12        	lda	($12),y                 ; 0x12 <__rc2>
     cd2: d0 26        	bne	$cfa <playChunk+0x54>
     cd4: 80 00        	bra	$cd6 <playChunk+0x30>
     cd6: a5 14        	lda	$14                     ; 0x14 <__rc4>
     cd8: d0 20        	bne	$cfa <playChunk+0x54>
     cda: 80 00        	bra	$cdc <playChunk+0x36>
     cdc: 18           	clc
     cdd: a5 10        	lda	$10                     ; 0x10 <__rc0>
     cdf: 69 01        	adc	#$1
     ce1: 85 12        	sta	$12                     ; 0x12 <__rc2>
     ce3: a5 11        	lda	$11                     ; 0x11 <__rc1>
     ce5: 69 00        	adc	#$0
     ce7: 85 13        	sta	$13                     ; 0x13 <__rc3>
     ce9: a9 01        	lda	#$1
     ceb: 92 12        	sta	($12)                   ; 0x12 <__rc2>
     ced: a8           	tay
     cee: 3a           	dec
     cef: 91 12        	sta	($12),y                 ; 0x12 <__rc2>
     cf1: c8           	iny
     cf2: 91 12        	sta	($12),y                 ; 0x12 <__rc2>
     cf4: c8           	iny
     cf5: 91 12        	sta	($12),y                 ; 0x12 <__rc2>
     cf7: 4c 5b 0f     	jmp	$f5b <playChunk+0x2b5>
     cfa: ae 04 d7     	ldx	$d704                   ; 0xd704 <__heap_start+0xb42e>
     cfd: 86 12        	stx	$12                     ; 0x12 <__rc2>
     cff: ad 05 d7     	lda	$d705                   ; 0xd705 <__heap_start+0xb42f>
     d02: 29 07        	and	#$7
     d04: 85 13        	sta	$13                     ; 0x13 <__rc3>
     d06: 38           	sec
     d07: a9 00        	lda	#$0
     d09: e5 12        	sbc	$12                     ; 0x12 <__rc2>
     d0b: 85 12        	sta	$12                     ; 0x12 <__rc2>
     d0d: a9 08        	lda	#$8
     d0f: e5 13        	sbc	$13                     ; 0x13 <__rc3>
     d11: c9 00        	cmp	#$0
     d13: a2 01        	ldx	#$1
     d15: b0 02        	bcs	$d19 <playChunk+0x73>
     d17: a2 00        	ldx	#$0
     d19: 86 13        	stx	$13                     ; 0x13 <__rc3>
     d1b: aa           	tax
     d1c: f0 02        	beq	$d20 <playChunk+0x7a>
     d1e: 80 08        	bra	$d28 <playChunk+0x82>
     d20: a6 12        	ldx	$12                     ; 0x12 <__rc2>
     d22: e0 40        	cpx	#$40
     d24: b0 0c        	bcs	$d32 <playChunk+0x8c>
     d26: 80 06        	bra	$d2e <playChunk+0x88>
     d28: a5 13        	lda	$13                     ; 0x13 <__rc3>
     d2a: d0 06        	bne	$d32 <playChunk+0x8c>
     d2c: 80 00        	bra	$d2e <playChunk+0x88>
     d2e: 80 00        	bra	$d30 <playChunk+0x8a>
     d30: 80 c8        	bra	$cfa <playChunk+0x54>
     d32: 18           	clc
     d33: a6 10        	ldx	$10                     ; 0x10 <__rc0>
     d35: 86 12        	stx	$12                     ; 0x12 <__rc2>
     d37: a6 11        	ldx	$11                     ; 0x11 <__rc1>
     d39: 86 13        	stx	$13                     ; 0x13 <__rc3>
     d3b: a9 00        	lda	#$0
     d3d: 92 12        	sta	($12)                   ; 0x12 <__rc2>
     d3f: 18           	clc
     d40: a6 10        	ldx	$10                     ; 0x10 <__rc0>
     d42: 86 12        	stx	$12                     ; 0x12 <__rc2>
     d44: a6 11        	ldx	$11                     ; 0x11 <__rc1>
     d46: 86 13        	stx	$13                     ; 0x13 <__rc3>
     d48: b2 12        	lda	($12)                   ; 0x12 <__rc2>
     d4a: 85 12        	sta	$12                     ; 0x12 <__rc2>
     d4c: a9 00        	lda	#$0
     d4e: a6 12        	ldx	$12                     ; 0x12 <__rc2>
     d50: e0 40        	cpx	#$40
     d52: e9 00        	sbc	#$0
     d54: 70 02        	bvs	$d58 <playChunk+0xb2>
     d56: 80 04        	bra	$d5c <playChunk+0xb6>
     d58: 49 80        	eor	#$80
     d5a: 80 02        	bra	$d5e <playChunk+0xb8>
     d5c: 80 00        	bra	$d5e <playChunk+0xb8>
     d5e: aa           	tax
     d5f: 30 22        	bmi	$d83 <playChunk+0xdd>
     d61: 80 00        	bra	$d63 <playChunk+0xbd>
     d63: 18           	clc
     d64: a5 10        	lda	$10                     ; 0x10 <__rc0>
     d66: 69 01        	adc	#$1
     d68: 85 12        	sta	$12                     ; 0x12 <__rc2>
     d6a: a5 11        	lda	$11                     ; 0x11 <__rc1>
     d6c: 69 00        	adc	#$0
     d6e: 85 13        	sta	$13                     ; 0x13 <__rc3>
     d70: a9 04        	lda	#$4
     d72: 92 12        	sta	($12)                   ; 0x12 <__rc2>
     d74: a0 01        	ldy	#$1
     d76: a9 00        	lda	#$0
     d78: 91 12        	sta	($12),y                 ; 0x12 <__rc2>
     d7a: c8           	iny
     d7b: 91 12        	sta	($12),y                 ; 0x12 <__rc2>
     d7d: c8           	iny
     d7e: 91 12        	sta	($12),y                 ; 0x12 <__rc2>
     d80: 4c 3e 0f     	jmp	$f3e <playChunk+0x298>
     d83: a6 73        	ldx	$73                     ; 0x73 <sfxChannels+0x8>
     d85: d0 03        	bne	$d8a <playChunk+0xe4>
     d87: 4c e8 0d     	jmp	$de8 <playChunk+0x142>
     d8a: a5 6b        	lda	$6b                     ; 0x6b <sfxChannels>
     d8c: a4 6c        	ldy	$6c                     ; 0x6c <sfxChannels+0x1>
     d8e: a6 6d        	ldx	$6d                     ; 0x6d <sfxChannels+0x2>
     d90: 86 15        	stx	$15                     ; 0x15 <__rc5>
     d92: a6 6e        	ldx	$6e                     ; 0x6e <sfxChannels+0x3>
     d94: 86 16        	stx	$16                     ; 0x16 <__rc6>
     d96: a6 71        	ldx	$71                     ; 0x71 <sfxChannels+0x6>
     d98: 86 12        	stx	$12                     ; 0x12 <__rc2>
     d9a: a6 72        	ldx	$72                     ; 0x72 <sfxChannels+0x7>
     d9c: 86 13        	stx	$13                     ; 0x13 <__rc3>
     d9e: e6 71        	inc	$71                     ; 0x71 <sfxChannels+0x6>
     da0: f0 03        	beq	$da5 <playChunk+0xff>
     da2: 4c aa 0d     	jmp	$daa <playChunk+0x104>
     da5: e6 72        	inc	$72                     ; 0x72 <sfxChannels+0x7>
     da7: 4c aa 0d     	jmp	$daa <playChunk+0x104>
     daa: 18           	clc
     dab: 65 12        	adc	$12                     ; 0x12 <__rc2>
     dad: 85 14        	sta	$14                     ; 0x14 <__rc4>
     daf: 98           	tya
     db0: 65 13        	adc	$13                     ; 0x13 <__rc3>
     db2: aa           	tax
     db3: a5 15        	lda	$15                     ; 0x15 <__rc5>
     db5: 69 00        	adc	#$0
     db7: 85 12        	sta	$12                     ; 0x12 <__rc2>
     db9: a5 16        	lda	$16                     ; 0x16 <__rc6>
     dbb: 69 00        	adc	#$0
     dbd: 85 13        	sta	$13                     ; 0x13 <__rc3>
     dbf: a5 14        	lda	$14                     ; 0x14 <__rc4>
     dc1: 20 f4 03     	jsr	$3f4 <FAR_PEEK>
     dc4: 85 8f        	sta	$8f                     ; 0x8f <data0>
     dc6: a6 71        	ldx	$71                     ; 0x71 <sfxChannels+0x6>
     dc8: a4 72        	ldy	$72                     ; 0x72 <sfxChannels+0x7>
     dca: a5 6f        	lda	$6f                     ; 0x6f <sfxChannels+0x4>
     dcc: 85 12        	sta	$12                     ; 0x12 <__rc2>
     dce: c4 70        	cpy	$70                     ; 0x70 <sfxChannels+0x5>
     dd0: f0 02        	beq	$dd4 <playChunk+0x12e>
     dd2: 80 0c        	bra	$de0 <playChunk+0x13a>
     dd4: e4 12        	cpx	$12                     ; 0x12 <__rc2>
     dd6: f0 02        	beq	$dda <playChunk+0x134>
     dd8: 80 02        	bra	$ddc <playChunk+0x136>
     dda: 80 02        	bra	$dde <playChunk+0x138>
     ddc: 80 08        	bra	$de6 <playChunk+0x140>
     dde: 80 02        	bra	$de2 <playChunk+0x13c>
     de0: 80 04        	bra	$de6 <playChunk+0x140>
     de2: 80 00        	bra	$de4 <playChunk+0x13e>
     de4: 64 73        	stz	$73                     ; 0x73 <sfxChannels+0x8>
     de6: 80 04        	bra	$dec <playChunk+0x146>
     de8: a2 80        	ldx	#$80
     dea: 86 8f        	stx	$8f                     ; 0x8f <data0>
     dec: a6 7c        	ldx	$7c                     ; 0x7c <sfxChannels+0x11>
     dee: d0 03        	bne	$df3 <playChunk+0x14d>
     df0: 4c 51 0e     	jmp	$e51 <playChunk+0x1ab>
     df3: a5 74        	lda	$74                     ; 0x74 <sfxChannels+0x9>
     df5: a4 75        	ldy	$75                     ; 0x75 <sfxChannels+0xa>
     df7: a6 76        	ldx	$76                     ; 0x76 <sfxChannels+0xb>
     df9: 86 15        	stx	$15                     ; 0x15 <__rc5>
     dfb: a6 77        	ldx	$77                     ; 0x77 <sfxChannels+0xc>
     dfd: 86 16        	stx	$16                     ; 0x16 <__rc6>
     dff: a6 7a        	ldx	$7a                     ; 0x7a <sfxChannels+0xf>
     e01: 86 12        	stx	$12                     ; 0x12 <__rc2>
     e03: a6 7b        	ldx	$7b                     ; 0x7b <sfxChannels+0x10>
     e05: 86 13        	stx	$13                     ; 0x13 <__rc3>
     e07: e6 7a        	inc	$7a                     ; 0x7a <sfxChannels+0xf>
     e09: f0 03        	beq	$e0e <playChunk+0x168>
     e0b: 4c 13 0e     	jmp	$e13 <playChunk+0x16d>
     e0e: e6 7b        	inc	$7b                     ; 0x7b <sfxChannels+0x10>
     e10: 4c 13 0e     	jmp	$e13 <playChunk+0x16d>
     e13: 18           	clc
     e14: 65 12        	adc	$12                     ; 0x12 <__rc2>
     e16: 85 14        	sta	$14                     ; 0x14 <__rc4>
     e18: 98           	tya
     e19: 65 13        	adc	$13                     ; 0x13 <__rc3>
     e1b: aa           	tax
     e1c: a5 15        	lda	$15                     ; 0x15 <__rc5>
     e1e: 69 00        	adc	#$0
     e20: 85 12        	sta	$12                     ; 0x12 <__rc2>
     e22: a5 16        	lda	$16                     ; 0x16 <__rc6>
     e24: 69 00        	adc	#$0
     e26: 85 13        	sta	$13                     ; 0x13 <__rc3>
     e28: a5 14        	lda	$14                     ; 0x14 <__rc4>
     e2a: 20 f4 03     	jsr	$3f4 <FAR_PEEK>
     e2d: 85 90        	sta	$90                     ; 0x90 <data1>
     e2f: a6 7a        	ldx	$7a                     ; 0x7a <sfxChannels+0xf>
     e31: a4 7b        	ldy	$7b                     ; 0x7b <sfxChannels+0x10>
     e33: a5 78        	lda	$78                     ; 0x78 <sfxChannels+0xd>
     e35: 85 12        	sta	$12                     ; 0x12 <__rc2>
     e37: c4 79        	cpy	$79                     ; 0x79 <sfxChannels+0xe>
     e39: f0 02        	beq	$e3d <playChunk+0x197>
     e3b: 80 0c        	bra	$e49 <playChunk+0x1a3>
     e3d: e4 12        	cpx	$12                     ; 0x12 <__rc2>
     e3f: f0 02        	beq	$e43 <playChunk+0x19d>
     e41: 80 02        	bra	$e45 <playChunk+0x19f>
     e43: 80 02        	bra	$e47 <playChunk+0x1a1>
     e45: 80 08        	bra	$e4f <playChunk+0x1a9>
     e47: 80 02        	bra	$e4b <playChunk+0x1a5>
     e49: 80 04        	bra	$e4f <playChunk+0x1a9>
     e4b: 80 00        	bra	$e4d <playChunk+0x1a7>
     e4d: 64 7c        	stz	$7c                     ; 0x7c <sfxChannels+0x11>
     e4f: 80 04        	bra	$e55 <playChunk+0x1af>
     e51: a2 80        	ldx	#$80
     e53: 86 90        	stx	$90                     ; 0x90 <data1>
     e55: a6 85        	ldx	$85                     ; 0x85 <sfxChannels+0x1a>
     e57: d0 03        	bne	$e5c <playChunk+0x1b6>
     e59: 4c ba 0e     	jmp	$eba <playChunk+0x214>
     e5c: a5 7d        	lda	$7d                     ; 0x7d <sfxChannels+0x12>
     e5e: a4 7e        	ldy	$7e                     ; 0x7e <sfxChannels+0x13>
     e60: a6 7f        	ldx	$7f                     ; 0x7f <sfxChannels+0x14>
     e62: 86 15        	stx	$15                     ; 0x15 <__rc5>
     e64: a6 80        	ldx	$80                     ; 0x80 <sfxChannels+0x15>
     e66: 86 16        	stx	$16                     ; 0x16 <__rc6>
     e68: a6 83        	ldx	$83                     ; 0x83 <sfxChannels+0x18>
     e6a: 86 12        	stx	$12                     ; 0x12 <__rc2>
     e6c: a6 84        	ldx	$84                     ; 0x84 <sfxChannels+0x19>
     e6e: 86 13        	stx	$13                     ; 0x13 <__rc3>
     e70: e6 83        	inc	$83                     ; 0x83 <sfxChannels+0x18>
     e72: f0 03        	beq	$e77 <playChunk+0x1d1>
     e74: 4c 7c 0e     	jmp	$e7c <playChunk+0x1d6>
     e77: e6 84        	inc	$84                     ; 0x84 <sfxChannels+0x19>
     e79: 4c 7c 0e     	jmp	$e7c <playChunk+0x1d6>
     e7c: 18           	clc
     e7d: 65 12        	adc	$12                     ; 0x12 <__rc2>
     e7f: 85 14        	sta	$14                     ; 0x14 <__rc4>
     e81: 98           	tya
     e82: 65 13        	adc	$13                     ; 0x13 <__rc3>
     e84: aa           	tax
     e85: a5 15        	lda	$15                     ; 0x15 <__rc5>
     e87: 69 00        	adc	#$0
     e89: 85 12        	sta	$12                     ; 0x12 <__rc2>
     e8b: a5 16        	lda	$16                     ; 0x16 <__rc6>
     e8d: 69 00        	adc	#$0
     e8f: 85 13        	sta	$13                     ; 0x13 <__rc3>
     e91: a5 14        	lda	$14                     ; 0x14 <__rc4>
     e93: 20 f4 03     	jsr	$3f4 <FAR_PEEK>
     e96: 85 91        	sta	$91                     ; 0x91 <data2>
     e98: a6 83        	ldx	$83                     ; 0x83 <sfxChannels+0x18>
     e9a: a4 84        	ldy	$84                     ; 0x84 <sfxChannels+0x19>
     e9c: a5 81        	lda	$81                     ; 0x81 <sfxChannels+0x16>
     e9e: 85 12        	sta	$12                     ; 0x12 <__rc2>
     ea0: c4 82        	cpy	$82                     ; 0x82 <sfxChannels+0x17>
     ea2: f0 02        	beq	$ea6 <playChunk+0x200>
     ea4: 80 0c        	bra	$eb2 <playChunk+0x20c>
     ea6: e4 12        	cpx	$12                     ; 0x12 <__rc2>
     ea8: f0 02        	beq	$eac <playChunk+0x206>
     eaa: 80 02        	bra	$eae <playChunk+0x208>
     eac: 80 02        	bra	$eb0 <playChunk+0x20a>
     eae: 80 08        	bra	$eb8 <playChunk+0x212>
     eb0: 80 02        	bra	$eb4 <playChunk+0x20e>
     eb2: 80 04        	bra	$eb8 <playChunk+0x212>
     eb4: 80 00        	bra	$eb6 <playChunk+0x210>
     eb6: 64 85        	stz	$85                     ; 0x85 <sfxChannels+0x1a>
     eb8: 80 04        	bra	$ebe <playChunk+0x218>
     eba: a2 80        	ldx	#$80
     ebc: 86 91        	stx	$91                     ; 0x91 <data2>
     ebe: a6 8e        	ldx	$8e                     ; 0x8e <sfxChannels+0x23>
     ec0: d0 03        	bne	$ec5 <playChunk+0x21f>
     ec2: 4c 23 0f     	jmp	$f23 <playChunk+0x27d>
     ec5: a5 86        	lda	$86                     ; 0x86 <sfxChannels+0x1b>
     ec7: a4 87        	ldy	$87                     ; 0x87 <sfxChannels+0x1c>
     ec9: a6 88        	ldx	$88                     ; 0x88 <sfxChannels+0x1d>
     ecb: 86 15        	stx	$15                     ; 0x15 <__rc5>
     ecd: a6 89        	ldx	$89                     ; 0x89 <sfxChannels+0x1e>
     ecf: 86 16        	stx	$16                     ; 0x16 <__rc6>
     ed1: a6 8c        	ldx	$8c                     ; 0x8c <sfxChannels+0x21>
     ed3: 86 12        	stx	$12                     ; 0x12 <__rc2>
     ed5: a6 8d        	ldx	$8d                     ; 0x8d <sfxChannels+0x22>
     ed7: 86 13        	stx	$13                     ; 0x13 <__rc3>
     ed9: e6 8c        	inc	$8c                     ; 0x8c <sfxChannels+0x21>
     edb: f0 03        	beq	$ee0 <playChunk+0x23a>
     edd: 4c e5 0e     	jmp	$ee5 <playChunk+0x23f>
     ee0: e6 8d        	inc	$8d                     ; 0x8d <sfxChannels+0x22>
     ee2: 4c e5 0e     	jmp	$ee5 <playChunk+0x23f>
     ee5: 18           	clc
     ee6: 65 12        	adc	$12                     ; 0x12 <__rc2>
     ee8: 85 14        	sta	$14                     ; 0x14 <__rc4>
     eea: 98           	tya
     eeb: 65 13        	adc	$13                     ; 0x13 <__rc3>
     eed: aa           	tax
     eee: a5 15        	lda	$15                     ; 0x15 <__rc5>
     ef0: 69 00        	adc	#$0
     ef2: 85 12        	sta	$12                     ; 0x12 <__rc2>
     ef4: a5 16        	lda	$16                     ; 0x16 <__rc6>
     ef6: 69 00        	adc	#$0
     ef8: 85 13        	sta	$13                     ; 0x13 <__rc3>
     efa: a5 14        	lda	$14                     ; 0x14 <__rc4>
     efc: 20 f4 03     	jsr	$3f4 <FAR_PEEK>
     eff: 85 92        	sta	$92                     ; 0x92 <data3>
     f01: a6 8c        	ldx	$8c                     ; 0x8c <sfxChannels+0x21>
     f03: a4 8d        	ldy	$8d                     ; 0x8d <sfxChannels+0x22>
     f05: a5 8a        	lda	$8a                     ; 0x8a <sfxChannels+0x1f>
     f07: 85 12        	sta	$12                     ; 0x12 <__rc2>
     f09: c4 8b        	cpy	$8b                     ; 0x8b <sfxChannels+0x20>
     f0b: f0 02        	beq	$f0f <playChunk+0x269>
     f0d: 80 0c        	bra	$f1b <playChunk+0x275>
     f0f: e4 12        	cpx	$12                     ; 0x12 <__rc2>
     f11: f0 02        	beq	$f15 <playChunk+0x26f>
     f13: 80 02        	bra	$f17 <playChunk+0x271>
     f15: 80 02        	bra	$f19 <playChunk+0x273>
     f17: 80 08        	bra	$f21 <playChunk+0x27b>
     f19: 80 02        	bra	$f1d <playChunk+0x277>
     f1b: 80 04        	bra	$f21 <playChunk+0x27b>
     f1d: 80 00        	bra	$f1f <playChunk+0x279>
     f1f: 64 8e        	stz	$8e                     ; 0x8e <sfxChannels+0x23>
     f21: 80 04        	bra	$f27 <playChunk+0x281>
     f23: a2 80        	ldx	#$80
     f25: 86 92        	stx	$92                     ; 0x92 <data3>
     f27: 20 d5 0f     	jsr	$fd5 <mix_n>
     f2a: 8d 07 d7     	sta	$d707                   ; 0xd707 <__heap_start+0xb431>
     f2d: 18           	clc
     f2e: a6 10        	ldx	$10                     ; 0x10 <__rc0>
     f30: 86 12        	stx	$12                     ; 0x12 <__rc2>
     f32: a6 11        	ldx	$11                     ; 0x11 <__rc1>
     f34: 86 13        	stx	$13                     ; 0x13 <__rc3>
     f36: b2 12        	lda	($12)                   ; 0x12 <__rc2>
     f38: 1a           	inc
     f39: 92 12        	sta	($12)                   ; 0x12 <__rc2>
     f3b: 4c 3f 0d     	jmp	$d3f <playChunk+0x99>
     f3e: a9 00        	lda	#$0
     f40: 18           	clc
     f41: 48           	pha
     f42: a5 10        	lda	$10                     ; 0x10 <__rc0>
     f44: 69 01        	adc	#$1
     f46: 85 12        	sta	$12                     ; 0x12 <__rc2>
     f48: a5 11        	lda	$11                     ; 0x11 <__rc1>
     f4a: 69 00        	adc	#$0
     f4c: 85 13        	sta	$13                     ; 0x13 <__rc3>
     f4e: 68           	pla
     f4f: 92 12        	sta	($12)                   ; 0x12 <__rc2>
     f51: a0 01        	ldy	#$1
     f53: 91 12        	sta	($12),y                 ; 0x12 <__rc2>
     f55: c8           	iny
     f56: 91 12        	sta	($12),y                 ; 0x12 <__rc2>
     f58: c8           	iny
     f59: 91 12        	sta	($12),y                 ; 0x12 <__rc2>
     f5b: 18           	clc
     f5c: a5 10        	lda	$10                     ; 0x10 <__rc0>
     f5e: 69 07        	adc	#$7
     f60: 85 10        	sta	$10                     ; 0x10 <__rc0>
     f62: a5 11        	lda	$11                     ; 0x11 <__rc1>
     f64: 69 00        	adc	#$0
     f66: 85 11        	sta	$11                     ; 0x11 <__rc1>
     f68: 60           	rts

00000f69 <startSound>:
     f69: 85 12        	sta	$12                     ; 0x12 <__rc2>
     f6b: 0a           	asl
     f6c: 64 13        	stz	$13                     ; 0x13 <__rc3>
     f6e: 26 13        	rol	$13                     ; 0x13 <__rc3>
     f70: 0a           	asl
     f71: 26 13        	rol	$13                     ; 0x13 <__rc3>
     f73: 0a           	asl
     f74: 26 13        	rol	$13                     ; 0x13 <__rc3>
     f76: a2 00        	ldx	#$0
     f78: 18           	clc
     f79: 65 12        	adc	$12                     ; 0x12 <__rc2>
     f7b: 85 12        	sta	$12                     ; 0x12 <__rc2>
     f7d: a5 13        	lda	$13                     ; 0x13 <__rc3>
     f7f: 69 00        	adc	#$0
     f81: 85 13        	sta	$13                     ; 0x13 <__rc3>
     f83: a9 6b        	lda	#$6b
     f85: 18           	clc
     f86: 65 12        	adc	$12                     ; 0x12 <__rc2>
     f88: a8           	tay
     f89: a9 00        	lda	#$0
     f8b: 65 13        	adc	$13                     ; 0x13 <__rc3>
     f8d: aa           	tax
     f8e: 98           	tya
     f8f: 84 12        	sty	$12                     ; 0x12 <__rc2>
     f91: 86 13        	stx	$13                     ; 0x13 <__rc3>
     f93: a0 06        	ldy	#$6
     f95: 18           	clc
     f96: 69 06        	adc	#$6
     f98: 85 14        	sta	$14                     ; 0x14 <__rc4>
     f9a: 8a           	txa
     f9b: 69 00        	adc	#$0
     f9d: 85 15        	sta	$15                     ; 0x15 <__rc5>
     f9f: a9 00        	lda	#$0
     fa1: 91 12        	sta	($12),y                 ; 0x12 <__rc2>
     fa3: a2 01        	ldx	#$1
     fa5: a0 01        	ldy	#$1
     fa7: 91 14        	sta	($14),y                 ; 0x14 <__rc4>
     fa9: a0 08        	ldy	#$8
     fab: 8a           	txa
     fac: 91 12        	sta	($12),y                 ; 0x12 <__rc2>
     fae: 60           	rts

00000faf <howManySounds>:
     faf: a4 73        	ldy	$73                     ; 0x73 <sfxChannels+0x8>
     fb1: a2 00        	ldx	#$0
     fb3: a9 01        	lda	#$1
     fb5: c0 00        	cpy	#$0
     fb7: f0 01        	beq	$fba <howManySounds+0xb>
     fb9: 60           	rts
     fba: a4 7c        	ldy	$7c                     ; 0x7c <sfxChannels+0x11>
     fbc: d0 fb        	bne	$fb9 <howManySounds+0xa>
     fbe: a4 85        	ldy	$85                     ; 0x85 <sfxChannels+0x1a>
     fc0: d0 f7        	bne	$fb9 <howManySounds+0xa>
     fc2: a6 8e        	ldx	$8e                     ; 0x8e <sfxChannels+0x23>
     fc4: a0 01        	ldy	#$1
     fc6: 8a           	txa
     fc7: f0 02        	beq	$fcb <howManySounds+0x1c>
     fc9: a0 00        	ldy	#$0
     fcb: a2 00        	ldx	#$0
     fcd: 8a           	txa
     fce: c0 00        	cpy	#$0
     fd0: d0 e7        	bne	$fb9 <howManySounds+0xa>
     fd2: a9 01        	lda	#$1
     fd4: 60           	rts

00000fd5 <mix_n>:
     fd5: a6 73        	ldx	$73                     ; 0x73 <sfxChannels+0x8>
     fd7: f0 16        	beq	$fef <mix_n+0x1a>
     fd9: a5 8f        	lda	$8f                     ; 0x8f <data0>
     fdb: 18           	clc
     fdc: 69 80        	adc	#$80
     fde: 85 14        	sta	$14                     ; 0x14 <__rc4>
     fe0: a9 00        	lda	#$0
     fe2: 69 ff        	adc	#$ff
     fe4: a8           	tay
     fe5: a6 7c        	ldx	$7c                     ; 0x7c <sfxChannels+0x11>
     fe7: d0 12        	bne	$ffb <mix_n+0x26>
     fe9: a6 85        	ldx	$85                     ; 0x85 <sfxChannels+0x1a>
     feb: d0 28        	bne	$1015 <mix_n+0x40>
     fed: 80 3c        	bra	$102b <mix_n+0x56>
     fef: a6 7c        	ldx	$7c                     ; 0x7c <sfxChannels+0x11>
     ff1: 64 14        	stz	$14                     ; 0x14 <__rc4>
     ff3: a0 00        	ldy	#$0
     ff5: 8a           	txa
     ff6: d0 03        	bne	$ffb <mix_n+0x26>
     ff8: 4c 9f 10     	jmp	$109f <mix_n+0xca>
     ffb: 18           	clc
     ffc: a5 14        	lda	$14                     ; 0x14 <__rc4>
     ffe: 65 90        	adc	$90                     ; 0x90 <data1>
    1000: 85 12        	sta	$12                     ; 0x12 <__rc2>
    1002: 98           	tya
    1003: 69 00        	adc	#$0
    1005: aa           	tax
    1006: 18           	clc
    1007: a5 12        	lda	$12                     ; 0x12 <__rc2>
    1009: 69 80        	adc	#$80
    100b: 85 14        	sta	$14                     ; 0x14 <__rc4>
    100d: 8a           	txa
    100e: 69 ff        	adc	#$ff
    1010: a8           	tay
    1011: a6 85        	ldx	$85                     ; 0x85 <sfxChannels+0x1a>
    1013: f0 16        	beq	$102b <mix_n+0x56>
    1015: 18           	clc
    1016: a5 14        	lda	$14                     ; 0x14 <__rc4>
    1018: 65 91        	adc	$91                     ; 0x91 <data2>
    101a: 85 12        	sta	$12                     ; 0x12 <__rc2>
    101c: 98           	tya
    101d: 69 00        	adc	#$0
    101f: aa           	tax
    1020: 18           	clc
    1021: a5 12        	lda	$12                     ; 0x12 <__rc2>
    1023: 69 80        	adc	#$80
    1025: 85 14        	sta	$14                     ; 0x14 <__rc4>
    1027: 8a           	txa
    1028: 69 ff        	adc	#$ff
    102a: a8           	tay
    102b: a6 8e        	ldx	$8e                     ; 0x8e <sfxChannels+0x23>
    102d: 5a           	phy
    102e: a4 14        	ldy	$14                     ; 0x14 <__rc4>
    1030: 84 13        	sty	$13                     ; 0x13 <__rc3>
    1032: 7a           	ply
    1033: 85 12        	sta	$12                     ; 0x12 <__rc2>
    1035: e0 00        	cpx	#$0
    1037: f0 15        	beq	$104e <mix_n+0x79>
    1039: 18           	clc
    103a: a5 14        	lda	$14                     ; 0x14 <__rc4>
    103c: 65 92        	adc	$92                     ; 0x92 <data3>
    103e: aa           	tax
    103f: 98           	tya
    1040: 69 00        	adc	#$0
    1042: a8           	tay
    1043: 18           	clc
    1044: 8a           	txa
    1045: 69 80        	adc	#$80
    1047: 85 13        	sta	$13                     ; 0x13 <__rc3>
    1049: 98           	tya
    104a: 69 ff        	adc	#$ff
    104c: 85 12        	sta	$12                     ; 0x12 <__rc2>
    104e: a6 12        	ldx	$12                     ; 0x12 <__rc2>
    1050: 30 1e        	bmi	$1070 <mix_n+0x9b>
    1052: a6 13        	ldx	$13                     ; 0x13 <__rc3>
    1054: 8e 06 de     	stx	$de06                   ; 0xde06 <__heap_start+0xbb30>
    1057: aa           	tax
    1058: 8e 07 de     	stx	$de07                   ; 0xde07 <__heap_start+0xbb31>
    105b: a2 01        	ldx	#$1
    105d: 8e 04 de     	stx	$de04                   ; 0xde04 <__heap_start+0xbb2e>
    1060: 9c 05 de     	stz	$de05                   ; 0xde05 <__heap_start+0xbb2f>
    1063: ae 14 de     	ldx	$de14                   ; 0xde14 <__heap_start+0xbb3e>
    1066: 86 12        	stx	$12                     ; 0x12 <__rc2>
    1068: ae 15 de     	ldx	$de15                   ; 0xde15 <__heap_start+0xbb3f>
    106b: a5 12        	lda	$12                     ; 0x12 <__rc2>
    106d: 49 80        	eor	#$80
    106f: 60           	rts
    1070: 38           	sec
    1071: a9 00        	lda	#$0
    1073: e5 13        	sbc	$13                     ; 0x13 <__rc3>
    1075: 85 13        	sta	$13                     ; 0x13 <__rc3>
    1077: a9 00        	lda	#$0
    1079: e5 12        	sbc	$12                     ; 0x12 <__rc2>
    107b: a6 13        	ldx	$13                     ; 0x13 <__rc3>
    107d: 8e 06 de     	stx	$de06                   ; 0xde06 <__heap_start+0xbb30>
    1080: 8d 07 de     	sta	$de07                   ; 0xde07 <__heap_start+0xbb31>
    1083: a2 01        	ldx	#$1
    1085: 8e 04 de     	stx	$de04                   ; 0xde04 <__heap_start+0xbb2e>
    1088: 9c 05 de     	stz	$de05                   ; 0xde05 <__heap_start+0xbb2f>
    108b: ae 14 de     	ldx	$de14                   ; 0xde14 <__heap_start+0xbb3e>
    108e: 86 12        	stx	$12                     ; 0x12 <__rc2>
    1090: ae 15 de     	ldx	$de15                   ; 0xde15 <__heap_start+0xbb3f>
    1093: 38           	sec
    1094: a9 00        	lda	#$0
    1096: e5 12        	sbc	$12                     ; 0x12 <__rc2>
    1098: 85 12        	sta	$12                     ; 0x12 <__rc2>
    109a: a5 12        	lda	$12                     ; 0x12 <__rc2>
    109c: 49 80        	eor	#$80
    109e: 60           	rts
    109f: a6 85        	ldx	$85                     ; 0x85 <sfxChannels+0x1a>
    10a1: f0 03        	beq	$10a6 <mix_n+0xd1>
    10a3: 4c 15 10     	jmp	$1015 <mix_n+0x40>
    10a6: a6 8e        	ldx	$8e                     ; 0x8e <sfxChannels+0x23>
    10a8: f0 03        	beq	$10ad <mix_n+0xd8>
    10aa: 4c 39 10     	jmp	$1039 <mix_n+0x64>
    10ad: a9 80        	lda	#$80
    10af: 60           	rts

000010b0 <exit>:
    10b0: 20 47 03     	jsr	$347 <_fini>
    10b3: 80 fe        	bra	$10b3 <exit+0x3>

000010b5 <_ZN12_GLOBAL__N_13putEcP6Status>:
    10b5: 85 18        	sta	$18                     ; 0x18 <__rc8>
    10b7: a6 13        	ldx	$13                     ; 0x13 <__rc3>
    10b9: 18           	clc
    10ba: a5 12        	lda	$12                     ; 0x12 <__rc2>
    10bc: 69 05        	adc	#$5
    10be: a8           	tay
    10bf: a5 13        	lda	$13                     ; 0x13 <__rc3>
    10c1: 86 15        	stx	$15                     ; 0x15 <__rc5>
    10c3: 69 00        	adc	#$0
    10c5: 18           	clc
    10c6: 84 16        	sty	$16                     ; 0x16 <__rc6>
    10c8: a0 05        	ldy	#$5
    10ca: 85 17        	sta	$17                     ; 0x17 <__rc7>
    10cc: b1 12        	lda	($12),y                 ; 0x12 <__rc2>
    10ce: aa           	tax
    10cf: a5 12        	lda	$12                     ; 0x12 <__rc2>
    10d1: 69 03        	adc	#$3
    10d3: 85 14        	sta	$14                     ; 0x14 <__rc4>
    10d5: a5 15        	lda	$15                     ; 0x15 <__rc5>
    10d7: 69 00        	adc	#$0
    10d9: 85 15        	sta	$15                     ; 0x15 <__rc5>
    10db: a0 01        	ldy	#$1
    10dd: b1 16        	lda	($16),y                 ; 0x16 <__rc6>
    10df: d1 14        	cmp	($14),y                 ; 0x14 <__rc4>
    10e1: d0 11        	bne	$10f4 <_ZN12_GLOBAL__N_13putEcP6Status+0x3f>
    10e3: a0 03        	ldy	#$3
    10e5: 85 17        	sta	$17                     ; 0x17 <__rc7>
    10e7: b1 12        	lda	($12),y                 ; 0x12 <__rc2>
    10e9: 85 14        	sta	$14                     ; 0x14 <__rc4>
    10eb: 86 16        	stx	$16                     ; 0x16 <__rc6>
    10ed: e4 14        	cpx	$14                     ; 0x14 <__rc4>
    10ef: 90 0e        	bcc	$10ff <_ZN12_GLOBAL__N_13putEcP6Status+0x4a>
    10f1: 4c 60 11     	jmp	$1160 <_ZN12_GLOBAL__N_13putEcP6Status+0xab>
    10f4: 86 16        	stx	$16                     ; 0x16 <__rc6>
    10f6: d1 14        	cmp	($14),y                 ; 0x14 <__rc4>
    10f8: 85 17        	sta	$17                     ; 0x17 <__rc7>
    10fa: 90 03        	bcc	$10ff <_ZN12_GLOBAL__N_13putEcP6Status+0x4a>
    10fc: 4c 60 11     	jmp	$1160 <_ZN12_GLOBAL__N_13putEcP6Status+0xab>
    10ff: a5 12        	lda	$12                     ; 0x12 <__rc2>
    1101: 18           	clc
    1102: 69 0f        	adc	#$f
    1104: 85 14        	sta	$14                     ; 0x14 <__rc4>
    1106: a5 13        	lda	$13                     ; 0x13 <__rc3>
    1108: 69 00        	adc	#$0
    110a: 85 15        	sta	$15                     ; 0x15 <__rc5>
    110c: a0 01        	ldy	#$1
    110e: b1 14        	lda	($14),y                 ; 0x14 <__rc4>
    1110: a2 00        	ldx	#$0
    1112: 86 14        	stx	$14                     ; 0x14 <__rc4>
    1114: a2 00        	ldx	#$0
    1116: 86 15        	stx	$15                     ; 0x15 <__rc5>
    1118: c5 15        	cmp	$15                     ; 0x15 <__rc5>
    111a: d0 2d        	bne	$1149 <_ZN12_GLOBAL__N_13putEcP6Status+0x94>
    111c: a0 0f        	ldy	#$f
    111e: b1 12        	lda	($12),y                 ; 0x12 <__rc2>
    1120: c5 14        	cmp	$14                     ; 0x14 <__rc4>
    1122: d0 25        	bne	$1149 <_ZN12_GLOBAL__N_13putEcP6Status+0x94>
    1124: a5 12        	lda	$12                     ; 0x12 <__rc2>
    1126: 18           	clc
    1127: 69 09        	adc	#$9
    1129: 85 14        	sta	$14                     ; 0x14 <__rc4>
    112b: a5 13        	lda	$13                     ; 0x13 <__rc3>
    112d: 69 00        	adc	#$0
    112f: a0 09        	ldy	#$9
    1131: 85 15        	sta	$15                     ; 0x15 <__rc5>
    1133: 18           	clc
    1134: a5 16        	lda	$16                     ; 0x16 <__rc6>
    1136: 71 12        	adc	($12),y                 ; 0x12 <__rc2>
    1138: aa           	tax
    1139: a0 01        	ldy	#$1
    113b: a5 17        	lda	$17                     ; 0x17 <__rc7>
    113d: 71 14        	adc	($14),y                 ; 0x14 <__rc4>
    113f: 86 14        	stx	$14                     ; 0x14 <__rc4>
    1141: 85 15        	sta	$15                     ; 0x15 <__rc5>
    1143: a5 18        	lda	$18                     ; 0x18 <__rc8>
    1145: 92 14        	sta	($14)                   ; 0x14 <__rc4>
    1147: 80 17        	bra	$1160 <_ZN12_GLOBAL__N_13putEcP6Status+0xab>
    1149: a6 12        	ldx	$12                     ; 0x12 <__rc2>
    114b: 86 ea        	stx	$ea                     ; 0xea <__zp_bss_size+0xb7>
    114d: a6 13        	ldx	$13                     ; 0x13 <__rc3>
    114f: 86 eb        	stx	$eb                     ; 0xeb <__zp_bss_size+0xb8>
    1151: a2 00        	ldx	#$0
    1153: a5 18        	lda	$18                     ; 0x18 <__rc8>
    1155: 20 d5 1f     	jsr	$1fd5 <putchar>
    1158: a6 ea        	ldx	$ea                     ; 0xea <__zp_bss_size+0xb7>
    115a: 86 12        	stx	$12                     ; 0x12 <__rc2>
    115c: a6 eb        	ldx	$eb                     ; 0xeb <__zp_bss_size+0xb8>
    115e: 86 13        	stx	$13                     ; 0x13 <__rc3>
    1160: a0 05        	ldy	#$5
    1162: a5 12        	lda	$12                     ; 0x12 <__rc2>
    1164: 18           	clc
    1165: 69 05        	adc	#$5
    1167: 85 14        	sta	$14                     ; 0x14 <__rc4>
    1169: a5 13        	lda	$13                     ; 0x13 <__rc3>
    116b: 69 00        	adc	#$0
    116d: 85 15        	sta	$15                     ; 0x15 <__rc5>
    116f: b1 12        	lda	($12),y                 ; 0x12 <__rc2>
    1171: aa           	tax
    1172: 84 16        	sty	$16                     ; 0x16 <__rc6>
    1174: a0 01        	ldy	#$1
    1176: b1 14        	lda	($14),y                 ; 0x14 <__rc4>
    1178: 84 17        	sty	$17                     ; 0x17 <__rc7>
    117a: e8           	inx
    117b: d0 01        	bne	$117e <_ZN12_GLOBAL__N_13putEcP6Status+0xc9>
    117d: 1a           	inc
    117e: 85 18        	sta	$18                     ; 0x18 <__rc8>
    1180: 8a           	txa
    1181: a4 16        	ldy	$16                     ; 0x16 <__rc6>
    1183: 91 12        	sta	($12),y                 ; 0x12 <__rc2>
    1185: a4 17        	ldy	$17                     ; 0x17 <__rc7>
    1187: a5 18        	lda	$18                     ; 0x18 <__rc8>
    1189: 91 14        	sta	($14),y                 ; 0x14 <__rc4>
    118b: 60           	rts

0000118c <_ZN12_GLOBAL__N_112print_stringEPKcP6Status>:
    118c: a6 12        	ldx	$12                     ; 0x12 <__rc2>
    118e: 86 e1        	stx	$e1                     ; 0xe1 <__zp_bss_size+0xae>
    1190: a6 13        	ldx	$13                     ; 0x13 <__rc3>
    1192: 86 e2        	stx	$e2                     ; 0xe2 <__zp_bss_size+0xaf>
    1194: a6 14        	ldx	$14                     ; 0x14 <__rc4>
    1196: 86 e3        	stx	$e3                     ; 0xe3 <__zp_bss_size+0xb0>
    1198: a6 15        	ldx	$15                     ; 0x15 <__rc5>
    119a: 86 e4        	stx	$e4                     ; 0xe4 <__zp_bss_size+0xb1>
    119c: a5 e3        	lda	$e3                     ; 0xe3 <__zp_bss_size+0xb0>
    119e: 18           	clc
    119f: 69 0d        	adc	#$d
    11a1: 85 12        	sta	$12                     ; 0x12 <__rc2>
    11a3: a5 e4        	lda	$e4                     ; 0xe4 <__zp_bss_size+0xb1>
    11a5: 69 00        	adc	#$0
    11a7: 85 13        	sta	$13                     ; 0x13 <__rc3>
    11a9: a0 01        	ldy	#$1
    11ab: b1 12        	lda	($12),y                 ; 0x12 <__rc2>
    11ad: 30 14        	bmi	$11c3 <_ZN12_GLOBAL__N_112print_stringEPKcP6Status+0x37>
    11af: a0 0d        	ldy	#$d
    11b1: aa           	tax
    11b2: b1 e3        	lda	($e3),y                 ; 0xe3 <__zp_bss_size+0xb0>
    11b4: 86 e6        	stx	$e6                     ; 0xe6 <__zp_bss_size+0xb3>
    11b6: e0 00        	cpx	#$0
    11b8: d0 0e        	bne	$11c8 <_ZN12_GLOBAL__N_112print_stringEPKcP6Status+0x3c>
    11ba: aa           	tax
    11bb: d0 0b        	bne	$11c8 <_ZN12_GLOBAL__N_112print_stringEPKcP6Status+0x3c>
    11bd: 64 e5        	stz	$e5                     ; 0xe5 <__zp_bss_size+0xb2>
    11bf: 64 e6        	stz	$e6                     ; 0xe6 <__zp_bss_size+0xb3>
    11c1: 80 36        	bra	$11f9 <_ZN12_GLOBAL__N_112print_stringEPKcP6Status+0x6d>
    11c3: a9 ff        	lda	#$ff
    11c5: aa           	tax
    11c6: 86 e6        	stx	$e6                     ; 0xe6 <__zp_bss_size+0xb3>
    11c8: 85 e5        	sta	$e5                     ; 0xe5 <__zp_bss_size+0xb2>
    11ca: 64 12        	stz	$12                     ; 0x12 <__rc2>
    11cc: a4 e1        	ldy	$e1                     ; 0xe1 <__zp_bss_size+0xae>
    11ce: a6 e2        	ldx	$e2                     ; 0xe2 <__zp_bss_size+0xaf>
    11d0: 86 16        	stx	$16                     ; 0x16 <__rc6>
    11d2: 64 13        	stz	$13                     ; 0x13 <__rc3>
    11d4: 98           	tya
    11d5: 18           	clc
    11d6: 65 12        	adc	$12                     ; 0x12 <__rc2>
    11d8: 85 14        	sta	$14                     ; 0x14 <__rc4>
    11da: a5 e2        	lda	$e2                     ; 0xe2 <__zp_bss_size+0xaf>
    11dc: 65 13        	adc	$13                     ; 0x13 <__rc3>
    11de: 85 15        	sta	$15                     ; 0x15 <__rc5>
    11e0: b2 14        	lda	($14)                   ; 0x14 <__rc4>
    11e2: d0 03        	bne	$11e7 <_ZN12_GLOBAL__N_112print_stringEPKcP6Status+0x5b>
    11e4: 4c 90 12     	jmp	$1290 <_ZN12_GLOBAL__N_112print_stringEPKcP6Status+0x104>
    11e7: e6 12        	inc	$12                     ; 0x12 <__rc2>
    11e9: d0 02        	bne	$11ed <_ZN12_GLOBAL__N_112print_stringEPKcP6Status+0x61>
    11eb: e6 13        	inc	$13                     ; 0x13 <__rc3>
    11ed: a6 e6        	ldx	$e6                     ; 0xe6 <__zp_bss_size+0xb3>
    11ef: e4 13        	cpx	$13                     ; 0x13 <__rc3>
    11f1: d0 e1        	bne	$11d4 <_ZN12_GLOBAL__N_112print_stringEPKcP6Status+0x48>
    11f3: a6 e5        	ldx	$e5                     ; 0xe5 <__zp_bss_size+0xb2>
    11f5: e4 12        	cpx	$12                     ; 0x12 <__rc2>
    11f7: d0 db        	bne	$11d4 <_ZN12_GLOBAL__N_112print_stringEPKcP6Status+0x48>
    11f9: a0 01        	ldy	#$1
    11fb: b1 e3        	lda	($e3),y                 ; 0xe3 <__zp_bss_size+0xb0>
    11fd: 29 01        	and	#$1
    11ff: f0 03        	beq	$1204 <_ZN12_GLOBAL__N_112print_stringEPKcP6Status+0x78>
    1201: 4c 62 12     	jmp	$1262 <_ZN12_GLOBAL__N_112print_stringEPKcP6Status+0xd6>
    1204: a5 e3        	lda	$e3                     ; 0xe3 <__zp_bss_size+0xb0>
    1206: 18           	clc
    1207: 69 0b        	adc	#$b
    1209: 85 14        	sta	$14                     ; 0x14 <__rc4>
    120b: a5 e4        	lda	$e4                     ; 0xe4 <__zp_bss_size+0xb1>
    120d: 69 00        	adc	#$0
    120f: 85 15        	sta	$15                     ; 0x15 <__rc5>
    1211: 84 12        	sty	$12                     ; 0x12 <__rc2>
    1213: a0 0b        	ldy	#$b
    1215: b1 e3        	lda	($e3),y                 ; 0xe3 <__zp_bss_size+0xb0>
    1217: 85 13        	sta	$13                     ; 0x13 <__rc3>
    1219: a4 12        	ldy	$12                     ; 0x12 <__rc2>
    121b: b1 14        	lda	($14),y                 ; 0x14 <__rc4>
    121d: 85 12        	sta	$12                     ; 0x12 <__rc2>
    121f: a6 e6        	ldx	$e6                     ; 0xe6 <__zp_bss_size+0xb3>
    1221: e4 12        	cpx	$12                     ; 0x12 <__rc2>
    1223: d0 08        	bne	$122d <_ZN12_GLOBAL__N_112print_stringEPKcP6Status+0xa1>
    1225: a6 e5        	ldx	$e5                     ; 0xe5 <__zp_bss_size+0xb2>
    1227: e4 13        	cpx	$13                     ; 0x13 <__rc3>
    1229: 90 06        	bcc	$1231 <_ZN12_GLOBAL__N_112print_stringEPKcP6Status+0xa5>
    122b: 80 35        	bra	$1262 <_ZN12_GLOBAL__N_112print_stringEPKcP6Status+0xd6>
    122d: e4 12        	cpx	$12                     ; 0x12 <__rc2>
    122f: b0 31        	bcs	$1262 <_ZN12_GLOBAL__N_112print_stringEPKcP6Status+0xd6>
    1231: 38           	sec
    1232: a5 e5        	lda	$e5                     ; 0xe5 <__zp_bss_size+0xb2>
    1234: e5 13        	sbc	$13                     ; 0x13 <__rc3>
    1236: a8           	tay
    1237: a5 e6        	lda	$e6                     ; 0xe6 <__zp_bss_size+0xb3>
    1239: e5 12        	sbc	$12                     ; 0x12 <__rc2>
    123b: 85 e8        	sta	$e8                     ; 0xe8 <__zp_bss_size+0xb5>
    123d: a2 20        	ldx	#$20
    123f: 86 e9        	stx	$e9                     ; 0xe9 <__zp_bss_size+0xb6>
    1241: a6 e3        	ldx	$e3                     ; 0xe3 <__zp_bss_size+0xb0>
    1243: 86 12        	stx	$12                     ; 0x12 <__rc2>
    1245: a6 e4        	ldx	$e4                     ; 0xe4 <__zp_bss_size+0xb1>
    1247: 86 13        	stx	$13                     ; 0x13 <__rc3>
    1249: 84 e7        	sty	$e7                     ; 0xe7 <__zp_bss_size+0xb4>
    124b: a5 e9        	lda	$e9                     ; 0xe9 <__zp_bss_size+0xb6>
    124d: 20 b5 10     	jsr	$10b5 <_ZN12_GLOBAL__N_13putEcP6Status>
    1250: a6 e8        	ldx	$e8                     ; 0xe8 <__zp_bss_size+0xb5>
    1252: e6 e7        	inc	$e7                     ; 0xe7 <__zp_bss_size+0xb4>
    1254: d0 01        	bne	$1257 <_ZN12_GLOBAL__N_112print_stringEPKcP6Status+0xcb>
    1256: e8           	inx
    1257: 86 e8        	stx	$e8                     ; 0xe8 <__zp_bss_size+0xb5>
    1259: a4 e7        	ldy	$e7                     ; 0xe7 <__zp_bss_size+0xb4>
    125b: 8a           	txa
    125c: d0 e3        	bne	$1241 <_ZN12_GLOBAL__N_112print_stringEPKcP6Status+0xb5>
    125e: a5 e7        	lda	$e7                     ; 0xe7 <__zp_bss_size+0xb4>
    1260: d0 df        	bne	$1241 <_ZN12_GLOBAL__N_112print_stringEPKcP6Status+0xb5>
    1262: a5 e6        	lda	$e6                     ; 0xe6 <__zp_bss_size+0xb3>
    1264: d0 04        	bne	$126a <_ZN12_GLOBAL__N_112print_stringEPKcP6Status+0xde>
    1266: a5 e5        	lda	$e5                     ; 0xe5 <__zp_bss_size+0xb2>
    1268: f0 25        	beq	$128f <_ZN12_GLOBAL__N_112print_stringEPKcP6Status+0x103>
    126a: a2 ff        	ldx	#$ff
    126c: c6 e5        	dec	$e5                     ; 0xe5 <__zp_bss_size+0xb2>
    126e: e4 e5        	cpx	$e5                     ; 0xe5 <__zp_bss_size+0xb2>
    1270: d0 02        	bne	$1274 <_ZN12_GLOBAL__N_112print_stringEPKcP6Status+0xe8>
    1272: c6 e6        	dec	$e6                     ; 0xe6 <__zp_bss_size+0xb3>
    1274: b2 e1        	lda	($e1)                   ; 0xe1 <__zp_bss_size+0xae>
    1276: e6 e1        	inc	$e1                     ; 0xe1 <__zp_bss_size+0xae>
    1278: d0 02        	bne	$127c <_ZN12_GLOBAL__N_112print_stringEPKcP6Status+0xf0>
    127a: e6 e2        	inc	$e2                     ; 0xe2 <__zp_bss_size+0xaf>
    127c: a6 e3        	ldx	$e3                     ; 0xe3 <__zp_bss_size+0xb0>
    127e: 86 12        	stx	$12                     ; 0x12 <__rc2>
    1280: a6 e4        	ldx	$e4                     ; 0xe4 <__zp_bss_size+0xb1>
    1282: 86 13        	stx	$13                     ; 0x13 <__rc3>
    1284: 20 b5 10     	jsr	$10b5 <_ZN12_GLOBAL__N_13putEcP6Status>
    1287: a5 e6        	lda	$e6                     ; 0xe6 <__zp_bss_size+0xb3>
    1289: d0 df        	bne	$126a <_ZN12_GLOBAL__N_112print_stringEPKcP6Status+0xde>
    128b: a5 e5        	lda	$e5                     ; 0xe5 <__zp_bss_size+0xb2>
    128d: d0 db        	bne	$126a <_ZN12_GLOBAL__N_112print_stringEPKcP6Status+0xde>
    128f: 60           	rts
    1290: a6 12        	ldx	$12                     ; 0x12 <__rc2>
    1292: 86 e5        	stx	$e5                     ; 0xe5 <__zp_bss_size+0xb2>
    1294: a6 13        	ldx	$13                     ; 0x13 <__rc3>
    1296: 86 e6        	stx	$e6                     ; 0xe6 <__zp_bss_size+0xb3>
    1298: 4c f9 11     	jmp	$11f9 <_ZN12_GLOBAL__N_112print_stringEPKcP6Status+0x6d>

0000129b <printf>:
    129b: a6 12        	ldx	$12                     ; 0x12 <__rc2>
    129d: 86 95        	stx	$95                     ; 0x95 <__zp_bss_size+0x62>
    129f: a6 13        	ldx	$13                     ; 0x13 <__rc3>
    12a1: 86 96        	stx	$96                     ; 0x96 <__zp_bss_size+0x63>
    12a3: 18           	clc
    12a4: a6 10        	ldx	$10                     ; 0x10 <__rc0>
    12a6: a4 11        	ldy	$11                     ; 0x11 <__rc1>
    12a8: 86 d6        	stx	$d6                     ; 0xd6 <__zp_bss_size+0xa3>
    12aa: 84 d7        	sty	$d7                     ; 0xd7 <__zp_bss_size+0xa4>
    12ac: a6 d6        	ldx	$d6                     ; 0xd6 <__zp_bss_size+0xa3>
    12ae: a4 d7        	ldy	$d7                     ; 0xd7 <__zp_bss_size+0xa4>
    12b0: 86 c1        	stx	$c1                     ; 0xc1 <__zp_bss_size+0x8e>
    12b2: 84 c2        	sty	$c2                     ; 0xc2 <__zp_bss_size+0x8f>
    12b4: a2 ff        	ldx	#$ff
    12b6: 86 c6        	stx	$c6                     ; 0xc6 <__zp_bss_size+0x93>
    12b8: 86 c7        	stx	$c7                     ; 0xc7 <__zp_bss_size+0x94>
    12ba: 64 c8        	stz	$c8                     ; 0xc8 <__zp_bss_size+0x95>
    12bc: 64 c9        	stz	$c9                     ; 0xc9 <__zp_bss_size+0x96>
    12be: e8           	inx
    12bf: 86 12        	stx	$12                     ; 0x12 <__rc2>
    12c1: a2 00        	ldx	#$0
    12c3: 86 13        	stx	$13                     ; 0x13 <__rc3>
    12c5: a6 12        	ldx	$12                     ; 0x12 <__rc2>
    12c7: a4 13        	ldy	$13                     ; 0x13 <__rc3>
    12c9: 86 cc        	stx	$cc                     ; 0xcc <__zp_bss_size+0x99>
    12cb: 84 cd        	sty	$cd                     ; 0xcd <__zp_bss_size+0x9a>
    12cd: a2 02        	ldx	#$2
    12cf: 86 d2        	stx	$d2                     ; 0xd2 <__zp_bss_size+0x9f>
    12d1: 64 d3        	stz	$d3                     ; 0xd3 <__zp_bss_size+0xa0>
    12d3: a6 c1        	ldx	$c1                     ; 0xc1 <__zp_bss_size+0x8e>
    12d5: a4 c2        	ldy	$c2                     ; 0xc2 <__zp_bss_size+0x8f>
    12d7: 86 d4        	stx	$d4                     ; 0xd4 <__zp_bss_size+0xa1>
    12d9: 84 d5        	sty	$d5                     ; 0xd5 <__zp_bss_size+0xa2>
    12db: a2 b8        	ldx	#$b8
    12dd: a0 00        	ldy	#$0
    12df: 86 12        	stx	$12                     ; 0x12 <__rc2>
    12e1: 84 13        	sty	$13                     ; 0x13 <__rc3>
    12e3: a0 01        	ldy	#$1
    12e5: a9 9f        	lda	#$9f
    12e7: 18           	clc
    12e8: 69 02        	adc	#$2
    12ea: 85 df        	sta	$df                     ; 0xdf <__zp_bss_size+0xac>
    12ec: a9 00        	lda	#$0
    12ee: 69 00        	adc	#$0
    12f0: 85 e0        	sta	$e0                     ; 0xe0 <__zp_bss_size+0xad>
    12f2: e6 12        	inc	$12                     ; 0x12 <__rc2>
    12f4: d0 02        	bne	$12f8 <printf+0x5d>
    12f6: e6 13        	inc	$13                     ; 0x13 <__rc3>
    12f8: a6 12        	ldx	$12                     ; 0x12 <__rc2>
    12fa: 86 db        	stx	$db                     ; 0xdb <__zp_bss_size+0xa8>
    12fc: a6 13        	ldx	$13                     ; 0x13 <__rc3>
    12fe: 86 dc        	stx	$dc                     ; 0xdc <__zp_bss_size+0xa9>
    1300: a6 95        	ldx	$95                     ; 0x95 <__zp_bss_size+0x62>
    1302: 86 97        	stx	$97                     ; 0x97 <__zp_bss_size+0x64>
    1304: a6 96        	ldx	$96                     ; 0x96 <__zp_bss_size+0x63>
    1306: 86 98        	stx	$98                     ; 0x98 <__zp_bss_size+0x65>
    1308: b2 95        	lda	($95)                   ; 0x95 <__zp_bss_size+0x62>
    130a: c9 25        	cmp	#$25
    130c: f0 26        	beq	$1334 <printf+0x99>
    130e: a2 00        	ldx	#$0
    1310: c9 00        	cmp	#$0
    1312: d0 03        	bne	$1317 <printf+0x7c>
    1314: 4c d4 1f     	jmp	$1fd4 <printf+0xd39>
    1317: 84 95        	sty	$95                     ; 0x95 <__zp_bss_size+0x62>
    1319: 20 d5 1f     	jsr	$1fd5 <putchar>
    131c: a4 95        	ldy	$95                     ; 0x95 <__zp_bss_size+0x62>
    131e: e6 97        	inc	$97                     ; 0x97 <__zp_bss_size+0x64>
    1320: d0 02        	bne	$1324 <printf+0x89>
    1322: e6 98        	inc	$98                     ; 0x98 <__zp_bss_size+0x65>
    1324: e6 c8        	inc	$c8                     ; 0xc8 <__zp_bss_size+0x95>
    1326: d0 02        	bne	$132a <printf+0x8f>
    1328: e6 c9        	inc	$c9                     ; 0xc9 <__zp_bss_size+0x96>
    132a: a6 97        	ldx	$97                     ; 0x97 <__zp_bss_size+0x64>
    132c: 86 95        	stx	$95                     ; 0x95 <__zp_bss_size+0x62>
    132e: a6 98        	ldx	$98                     ; 0x98 <__zp_bss_size+0x65>
    1330: 86 96        	stx	$96                     ; 0x96 <__zp_bss_size+0x63>
    1332: 80 cc        	bra	$1300 <printf+0x65>
    1334: a6 95        	ldx	$95                     ; 0x95 <__zp_bss_size+0x62>
    1336: 86 12        	stx	$12                     ; 0x12 <__rc2>
    1338: a6 96        	ldx	$96                     ; 0x96 <__zp_bss_size+0x63>
    133a: 86 13        	stx	$13                     ; 0x13 <__rc3>
    133c: e6 12        	inc	$12                     ; 0x12 <__rc2>
    133e: d0 02        	bne	$1342 <printf+0xa7>
    1340: e6 13        	inc	$13                     ; 0x13 <__rc3>
    1342: b1 97        	lda	($97),y                 ; 0x97 <__zp_bss_size+0x64>
    1344: c9 25        	cmp	#$25
    1346: d0 18        	bne	$1360 <printf+0xc5>
    1348: a2 01        	ldx	#$1
    134a: 86 13        	stx	$13                     ; 0x13 <__rc3>
    134c: a5 c8        	lda	$c8                     ; 0xc8 <__zp_bss_size+0x95>
    134e: a4 c9        	ldy	$c9                     ; 0xc9 <__zp_bss_size+0x96>
    1350: c4 c7        	cpy	$c7                     ; 0xc7 <__zp_bss_size+0x94>
    1352: f0 03        	beq	$1357 <printf+0xbc>
    1354: 4c 70 14     	jmp	$1470 <printf+0x1d5>
    1357: a6 c6        	ldx	$c6                     ; 0xc6 <__zp_bss_size+0x93>
    1359: 86 12        	stx	$12                     ; 0x12 <__rc2>
    135b: c5 12        	cmp	$12                     ; 0x12 <__rc2>
    135d: 4c 72 14     	jmp	$1472 <printf+0x1d7>
    1360: a2 01        	ldx	#$1
    1362: 86 15        	stx	$15                     ; 0x15 <__rc5>
    1364: 64 c4        	stz	$c4                     ; 0xc4 <__zp_bss_size+0x91>
    1366: 64 c5        	stz	$c5                     ; 0xc5 <__zp_bss_size+0x92>
    1368: 64 c3        	stz	$c3                     ; 0xc3 <__zp_bss_size+0x90>
    136a: 64 ce        	stz	$ce                     ; 0xce <__zp_bss_size+0x9b>
    136c: 64 cf        	stz	$cf                     ; 0xcf <__zp_bss_size+0x9c>
    136e: a2 ff        	ldx	#$ff
    1370: 86 d0        	stx	$d0                     ; 0xd0 <__zp_bss_size+0x9d>
    1372: 86 d1        	stx	$d1                     ; 0xd1 <__zp_bss_size+0x9e>
    1374: 64 93        	stz	$93                     ; 0x93 <__zp_bss_size+0x60>
    1376: 80 33        	bra	$13ab <printf+0x110>
    1378: a2 02        	ldx	#$2
    137a: 80 15        	bra	$1391 <printf+0xf6>
    137c: e0 20        	cpx	#$20
    137e: f0 15        	beq	$1395 <printf+0xfa>
    1380: 86 16        	stx	$16                     ; 0x16 <__rc6>
    1382: e0 23        	cpx	#$23
    1384: f0 03        	beq	$1389 <printf+0xee>
    1386: 4c 08 14     	jmp	$1408 <printf+0x16d>
    1389: a5 93        	lda	$93                     ; 0x93 <__zp_bss_size+0x60>
    138b: a2 04        	ldx	#$4
    138d: 80 02        	bra	$1391 <printf+0xf6>
    138f: a2 10        	ldx	#$10
    1391: 86 14        	stx	$14                     ; 0x14 <__rc4>
    1393: 80 06        	bra	$139b <printf+0x100>
    1395: a2 08        	ldx	#$8
    1397: 86 14        	stx	$14                     ; 0x14 <__rc4>
    1399: a5 93        	lda	$93                     ; 0x93 <__zp_bss_size+0x60>
    139b: 05 14        	ora	$14                     ; 0x14 <__rc4>
    139d: 85 93        	sta	$93                     ; 0x93 <__zp_bss_size+0x60>
    139f: 85 c4        	sta	$c4                     ; 0xc4 <__zp_bss_size+0x91>
    13a1: a2 00        	ldx	#$0
    13a3: 86 c5        	stx	$c5                     ; 0xc5 <__zp_bss_size+0x92>
    13a5: e6 12        	inc	$12                     ; 0x12 <__rc2>
    13a7: d0 02        	bne	$13ab <printf+0x110>
    13a9: e6 13        	inc	$13                     ; 0x13 <__rc3>
    13ab: b2 12        	lda	($12)                   ; 0x12 <__rc2>
    13ad: 18           	clc
    13ae: aa           	tax
    13af: 69 d6        	adc	#$d6
    13b1: c9 07        	cmp	#$7
    13b3: b0 c7        	bcs	$137c <printf+0xe1>
    13b5: 86 16        	stx	$16                     ; 0x16 <__rc6>
    13b7: 0a           	asl
    13b8: aa           	tax
    13b9: a0 01        	ldy	#$1
    13bb: 84 14        	sty	$14                     ; 0x14 <__rc4>
    13bd: a5 93        	lda	$93                     ; 0x93 <__zp_bss_size+0x60>
    13bf: 7c 2c 22     	jmp	($222c,x)               ; 0x222c <__BLOCK_SIZE+0x22c>
    13c2: a5 d4        	lda	$d4                     ; 0xd4 <__zp_bss_size+0xa1>
    13c4: a6 d5        	ldx	$d5                     ; 0xd5 <__zp_bss_size+0xa2>
    13c6: 85 16        	sta	$16                     ; 0x16 <__rc6>
    13c8: 86 17        	stx	$17                     ; 0x17 <__rc7>
    13ca: 18           	clc
    13cb: 69 02        	adc	#$2
    13cd: a8           	tay
    13ce: 8a           	txa
    13cf: 69 00        	adc	#$0
    13d1: 84 d4        	sty	$d4                     ; 0xd4 <__zp_bss_size+0xa1>
    13d3: 85 d5        	sta	$d5                     ; 0xd5 <__zp_bss_size+0xa2>
    13d5: b2 16        	lda	($16)                   ; 0x16 <__rc6>
    13d7: 85 15        	sta	$15                     ; 0x15 <__rc5>
    13d9: a0 01        	ldy	#$1
    13db: b1 16        	lda	($16),y                 ; 0x16 <__rc6>
    13dd: 85 14        	sta	$14                     ; 0x14 <__rc4>
    13df: 10 15        	bpl	$13f6 <printf+0x15b>
    13e1: a5 93        	lda	$93                     ; 0x93 <__zp_bss_size+0x60>
    13e3: 09 01        	ora	#$1
    13e5: 85 93        	sta	$93                     ; 0x93 <__zp_bss_size+0x60>
    13e7: 85 c4        	sta	$c4                     ; 0xc4 <__zp_bss_size+0x91>
    13e9: a2 00        	ldx	#$0
    13eb: 86 c5        	stx	$c5                     ; 0xc5 <__zp_bss_size+0x92>
    13ed: 8a           	txa
    13ee: 38           	sec
    13ef: e5 15        	sbc	$15                     ; 0x15 <__rc5>
    13f1: 85 15        	sta	$15                     ; 0x15 <__rc5>
    13f3: 8a           	txa
    13f4: e5 14        	sbc	$14                     ; 0x14 <__rc4>
    13f6: a6 15        	ldx	$15                     ; 0x15 <__rc5>
    13f8: 86 ce        	stx	$ce                     ; 0xce <__zp_bss_size+0x9b>
    13fa: 85 cf        	sta	$cf                     ; 0xcf <__zp_bss_size+0x9c>
    13fc: e6 12        	inc	$12                     ; 0x12 <__rc2>
    13fe: f0 03        	beq	$1403 <printf+0x168>
    1400: 4c d3 14     	jmp	$14d3 <printf+0x238>
    1403: e6 13        	inc	$13                     ; 0x13 <__rc3>
    1405: 4c d3 14     	jmp	$14d3 <printf+0x238>
    1408: 18           	clc
    1409: a5 16        	lda	$16                     ; 0x16 <__rc6>
    140b: 69 d0        	adc	#$d0
    140d: c9 0a        	cmp	#$a
    140f: 90 03        	bcc	$1414 <printf+0x179>
    1411: 4c c5 14     	jmp	$14c5 <printf+0x22a>
    1414: a6 16        	ldx	$16                     ; 0x16 <__rc6>
    1416: 86 14        	stx	$14                     ; 0x14 <__rc4>
    1418: 64 16        	stz	$16                     ; 0x16 <__rc6>
    141a: 64 15        	stz	$15                     ; 0x15 <__rc5>
    141c: 64 17        	stz	$17                     ; 0x17 <__rc7>
    141e: a0 01        	ldy	#$1
    1420: a2 00        	ldx	#$0
    1422: 06 16        	asl	$16                     ; 0x16 <__rc6>
    1424: 26 17        	rol	$17                     ; 0x17 <__rc7>
    1426: a5 16        	lda	$16                     ; 0x16 <__rc6>
    1428: 0a           	asl
    1429: 85 18        	sta	$18                     ; 0x18 <__rc8>
    142b: a5 17        	lda	$17                     ; 0x17 <__rc7>
    142d: 2a           	rol
    142e: 06 18        	asl	$18                     ; 0x18 <__rc8>
    1430: 2a           	rol
    1431: 85 19        	sta	$19                     ; 0x19 <__rc9>
    1433: a5 18        	lda	$18                     ; 0x18 <__rc8>
    1435: 18           	clc
    1436: 65 16        	adc	$16                     ; 0x16 <__rc6>
    1438: 85 16        	sta	$16                     ; 0x16 <__rc6>
    143a: a5 19        	lda	$19                     ; 0x19 <__rc9>
    143c: 65 17        	adc	$17                     ; 0x17 <__rc7>
    143e: 85 17        	sta	$17                     ; 0x17 <__rc7>
    1440: a5 16        	lda	$16                     ; 0x16 <__rc6>
    1442: 18           	clc
    1443: 65 14        	adc	$14                     ; 0x14 <__rc4>
    1445: 85 14        	sta	$14                     ; 0x14 <__rc4>
    1447: a5 17        	lda	$17                     ; 0x17 <__rc7>
    1449: 65 15        	adc	$15                     ; 0x15 <__rc5>
    144b: 85 15        	sta	$15                     ; 0x15 <__rc5>
    144d: 18           	clc
    144e: a5 14        	lda	$14                     ; 0x14 <__rc4>
    1450: 69 d0        	adc	#$d0
    1452: 85 16        	sta	$16                     ; 0x16 <__rc6>
    1454: a5 15        	lda	$15                     ; 0x15 <__rc5>
    1456: 69 ff        	adc	#$ff
    1458: 85 17        	sta	$17                     ; 0x17 <__rc7>
    145a: b1 12        	lda	($12),y                 ; 0x12 <__rc2>
    145c: 85 14        	sta	$14                     ; 0x14 <__rc4>
    145e: 18           	clc
    145f: 69 d0        	adc	#$d0
    1461: e6 12        	inc	$12                     ; 0x12 <__rc2>
    1463: d0 02        	bne	$1467 <printf+0x1cc>
    1465: e6 13        	inc	$13                     ; 0x13 <__rc3>
    1467: c9 0a        	cmp	#$a
    1469: 64 15        	stz	$15                     ; 0x15 <__rc5>
    146b: 90 b5        	bcc	$1422 <printf+0x187>
    146d: 4c cb 14     	jmp	$14cb <printf+0x230>
    1470: c4 c7        	cpy	$c7                     ; 0xc7 <__zp_bss_size+0x94>
    1472: 84 16        	sty	$16                     ; 0x16 <__rc6>
    1474: a4 13        	ldy	$13                     ; 0x13 <__rc3>
    1476: b0 37        	bcs	$14af <printf+0x214>
    1478: a2 01        	ldx	#$1
    147a: 86 14        	stx	$14                     ; 0x14 <__rc4>
    147c: a6 d3        	ldx	$d3                     ; 0xd3 <__zp_bss_size+0xa0>
    147e: a0 00        	ldy	#$0
    1480: 84 12        	sty	$12                     ; 0x12 <__rc2>
    1482: a0 00        	ldy	#$0
    1484: 84 13        	sty	$13                     ; 0x13 <__rc3>
    1486: e4 13        	cpx	$13                     ; 0x13 <__rc3>
    1488: d0 19        	bne	$14a3 <printf+0x208>
    148a: a6 d2        	ldx	$d2                     ; 0xd2 <__zp_bss_size+0x9f>
    148c: e4 12        	cpx	$12                     ; 0x12 <__rc2>
    148e: d0 13        	bne	$14a3 <printf+0x208>
    1490: a4 14        	ldy	$14                     ; 0x14 <__rc4>
    1492: 18           	clc
    1493: 65 cc        	adc	$cc                     ; 0xcc <__zp_bss_size+0x99>
    1495: 85 12        	sta	$12                     ; 0x12 <__rc2>
    1497: a5 16        	lda	$16                     ; 0x16 <__rc6>
    1499: 65 cd        	adc	$cd                     ; 0xcd <__zp_bss_size+0x9a>
    149b: 85 13        	sta	$13                     ; 0x13 <__rc3>
    149d: a9 25        	lda	#$25
    149f: 92 12        	sta	($12)                   ; 0x12 <__rc2>
    14a1: 80 0c        	bra	$14af <printf+0x214>
    14a3: a2 01        	ldx	#$1
    14a5: 86 95        	stx	$95                     ; 0x95 <__zp_bss_size+0x62>
    14a7: ca           	dex
    14a8: a9 25        	lda	#$25
    14aa: 20 d5 1f     	jsr	$1fd5 <putchar>
    14ad: a4 95        	ldy	$95                     ; 0x95 <__zp_bss_size+0x62>
    14af: e6 c8        	inc	$c8                     ; 0xc8 <__zp_bss_size+0x95>
    14b1: d0 02        	bne	$14b5 <printf+0x21a>
    14b3: e6 c9        	inc	$c9                     ; 0xc9 <__zp_bss_size+0x96>
    14b5: a5 97        	lda	$97                     ; 0x97 <__zp_bss_size+0x64>
    14b7: 18           	clc
    14b8: 69 02        	adc	#$2
    14ba: 85 95        	sta	$95                     ; 0x95 <__zp_bss_size+0x62>
    14bc: a5 98        	lda	$98                     ; 0x98 <__zp_bss_size+0x65>
    14be: 69 00        	adc	#$0
    14c0: 85 96        	sta	$96                     ; 0x96 <__zp_bss_size+0x63>
    14c2: 4c 00 13     	jmp	$1300 <printf+0x65>
    14c5: 64 16        	stz	$16                     ; 0x16 <__rc6>
    14c7: 64 17        	stz	$17                     ; 0x17 <__rc7>
    14c9: a4 15        	ldy	$15                     ; 0x15 <__rc5>
    14cb: a6 16        	ldx	$16                     ; 0x16 <__rc6>
    14cd: 86 ce        	stx	$ce                     ; 0xce <__zp_bss_size+0x9b>
    14cf: a5 17        	lda	$17                     ; 0x17 <__rc7>
    14d1: 85 cf        	sta	$cf                     ; 0xcf <__zp_bss_size+0x9c>
    14d3: 86 1a        	stx	$1a                     ; 0x1a <__rc10>
    14d5: 85 1e        	sta	$1e                     ; 0x1e <__rc14>
    14d7: b2 12        	lda	($12)                   ; 0x12 <__rc2>
    14d9: a2 ff        	ldx	#$ff
    14db: c9 2e        	cmp	#$2e
    14dd: d0 39        	bne	$1518 <printf+0x27d>
    14df: b1 12        	lda	($12),y                 ; 0x12 <__rc2>
    14e1: c9 2a        	cmp	#$2a
    14e3: d0 38        	bne	$151d <printf+0x282>
    14e5: a5 d4        	lda	$d4                     ; 0xd4 <__zp_bss_size+0xa1>
    14e7: a6 d5        	ldx	$d5                     ; 0xd5 <__zp_bss_size+0xa2>
    14e9: 85 14        	sta	$14                     ; 0x14 <__rc4>
    14eb: 86 15        	stx	$15                     ; 0x15 <__rc5>
    14ed: 18           	clc
    14ee: 69 02        	adc	#$2
    14f0: 85 16        	sta	$16                     ; 0x16 <__rc6>
    14f2: 8a           	txa
    14f3: 69 00        	adc	#$0
    14f5: a6 16        	ldx	$16                     ; 0x16 <__rc6>
    14f7: 86 d4        	stx	$d4                     ; 0xd4 <__zp_bss_size+0xa1>
    14f9: 85 d5        	sta	$d5                     ; 0xd5 <__zp_bss_size+0xa2>
    14fb: a5 12        	lda	$12                     ; 0x12 <__rc2>
    14fd: 18           	clc
    14fe: 69 02        	adc	#$2
    1500: 85 12        	sta	$12                     ; 0x12 <__rc2>
    1502: a5 13        	lda	$13                     ; 0x13 <__rc3>
    1504: 69 00        	adc	#$0
    1506: 85 13        	sta	$13                     ; 0x13 <__rc3>
    1508: b2 14        	lda	($14)                   ; 0x14 <__rc4>
    150a: aa           	tax
    150b: b1 14        	lda	($14),y                 ; 0x14 <__rc4>
    150d: 86 18        	stx	$18                     ; 0x18 <__rc8>
    150f: 86 d0        	stx	$d0                     ; 0xd0 <__zp_bss_size+0x9d>
    1511: 85 19        	sta	$19                     ; 0x19 <__rc9>
    1513: 85 d1        	sta	$d1                     ; 0xd1 <__zp_bss_size+0x9e>
    1515: 4c db 15     	jmp	$15db <printf+0x340>
    1518: 86 18        	stx	$18                     ; 0x18 <__rc8>
    151a: 4c eb 15     	jmp	$15eb <printf+0x350>
    151d: 85 17        	sta	$17                     ; 0x17 <__rc7>
    151f: 18           	clc
    1520: 69 d0        	adc	#$d0
    1522: c9 0a        	cmp	#$a
    1524: 90 03        	bcc	$1529 <printf+0x28e>
    1526: 4c cd 15     	jmp	$15cd <printf+0x332>
    1529: 64 16        	stz	$16                     ; 0x16 <__rc6>
    152b: a2 01        	ldx	#$1
    152d: 64 18        	stz	$18                     ; 0x18 <__rc8>
    152f: 64 19        	stz	$19                     ; 0x19 <__rc9>
    1531: 84 1b        	sty	$1b                     ; 0x1b <__rc11>
    1533: 64 1c        	stz	$1c                     ; 0x1c <__rc12>
    1535: 18           	clc
    1536: a0 01        	ldy	#$1
    1538: b0 02        	bcs	$153c <printf+0x2a1>
    153a: a0 00        	ldy	#$0
    153c: 84 1d        	sty	$1d                     ; 0x1d <__rc13>
    153e: a4 1c        	ldy	$1c                     ; 0x1c <__rc12>
    1540: 84 14        	sty	$14                     ; 0x14 <__rc4>
    1542: 86 15        	stx	$15                     ; 0x15 <__rc5>
    1544: 06 18        	asl	$18                     ; 0x18 <__rc8>
    1546: 26 19        	rol	$19                     ; 0x19 <__rc9>
    1548: a5 18        	lda	$18                     ; 0x18 <__rc8>
    154a: 0a           	asl
    154b: a8           	tay
    154c: a5 19        	lda	$19                     ; 0x19 <__rc9>
    154e: 2a           	rol
    154f: 84 1f        	sty	$1f                     ; 0x1f <__rc15>
    1551: 06 1f        	asl	$1f                     ; 0x1f <__rc15>
    1553: 2a           	rol
    1554: 85 22        	sta	$22                     ; 0x22 <__rc18>
    1556: a5 1f        	lda	$1f                     ; 0x1f <__rc15>
    1558: a4 1d        	ldy	$1d                     ; 0x1d <__rc13>
    155a: c0 01        	cpy	#$1
    155c: 65 18        	adc	$18                     ; 0x18 <__rc8>
    155e: 85 18        	sta	$18                     ; 0x18 <__rc8>
    1560: a5 22        	lda	$22                     ; 0x22 <__rc18>
    1562: 65 19        	adc	$19                     ; 0x19 <__rc9>
    1564: 85 19        	sta	$19                     ; 0x19 <__rc9>
    1566: a5 18        	lda	$18                     ; 0x18 <__rc8>
    1568: a4 1d        	ldy	$1d                     ; 0x1d <__rc13>
    156a: c0 01        	cpy	#$1
    156c: 65 17        	adc	$17                     ; 0x17 <__rc7>
    156e: 85 17        	sta	$17                     ; 0x17 <__rc7>
    1570: a5 19        	lda	$19                     ; 0x19 <__rc9>
    1572: 65 16        	adc	$16                     ; 0x16 <__rc6>
    1574: 85 16        	sta	$16                     ; 0x16 <__rc6>
    1576: 18           	clc
    1577: a5 17        	lda	$17                     ; 0x17 <__rc7>
    1579: 69 d0        	adc	#$d0
    157b: 85 18        	sta	$18                     ; 0x18 <__rc8>
    157d: a5 16        	lda	$16                     ; 0x16 <__rc6>
    157f: 69 ff        	adc	#$ff
    1581: 85 19        	sta	$19                     ; 0x19 <__rc9>
    1583: e8           	inx
    1584: d0 02        	bne	$1588 <printf+0x2ed>
    1586: e6 1c        	inc	$1c                     ; 0x1c <__rc12>
    1588: a5 12        	lda	$12                     ; 0x12 <__rc2>
    158a: a4 1d        	ldy	$1d                     ; 0x1d <__rc13>
    158c: c0 01        	cpy	#$1
    158e: 65 15        	adc	$15                     ; 0x15 <__rc5>
    1590: a8           	tay
    1591: a5 13        	lda	$13                     ; 0x13 <__rc3>
    1593: 65 14        	adc	$14                     ; 0x14 <__rc4>
    1595: 84 16        	sty	$16                     ; 0x16 <__rc6>
    1597: 85 17        	sta	$17                     ; 0x17 <__rc7>
    1599: a4 1b        	ldy	$1b                     ; 0x1b <__rc11>
    159b: b1 16        	lda	($16),y                 ; 0x16 <__rc6>
    159d: 85 17        	sta	$17                     ; 0x17 <__rc7>
    159f: 18           	clc
    15a0: 69 d0        	adc	#$d0
    15a2: c9 0a        	cmp	#$a
    15a4: 64 16        	stz	$16                     ; 0x16 <__rc6>
    15a6: b0 03        	bcs	$15ab <printf+0x310>
    15a8: 4c 3e 15     	jmp	$153e <printf+0x2a3>
    15ab: a5 12        	lda	$12                     ; 0x12 <__rc2>
    15ad: a6 1d        	ldx	$1d                     ; 0x1d <__rc13>
    15af: e0 01        	cpx	#$1
    15b1: 65 15        	adc	$15                     ; 0x15 <__rc5>
    15b3: 85 12        	sta	$12                     ; 0x12 <__rc2>
    15b5: a5 13        	lda	$13                     ; 0x13 <__rc3>
    15b7: 65 14        	adc	$14                     ; 0x14 <__rc4>
    15b9: 85 13        	sta	$13                     ; 0x13 <__rc3>
    15bb: e6 12        	inc	$12                     ; 0x12 <__rc2>
    15bd: d0 02        	bne	$15c1 <printf+0x326>
    15bf: e6 13        	inc	$13                     ; 0x13 <__rc3>
    15c1: a6 18        	ldx	$18                     ; 0x18 <__rc8>
    15c3: 86 d0        	stx	$d0                     ; 0xd0 <__zp_bss_size+0x9d>
    15c5: a6 19        	ldx	$19                     ; 0x19 <__rc9>
    15c7: 86 d1        	stx	$d1                     ; 0xd1 <__zp_bss_size+0x9e>
    15c9: a4 1b        	ldy	$1b                     ; 0x1b <__rc11>
    15cb: 80 0e        	bra	$15db <printf+0x340>
    15cd: e6 12        	inc	$12                     ; 0x12 <__rc2>
    15cf: d0 02        	bne	$15d3 <printf+0x338>
    15d1: e6 13        	inc	$13                     ; 0x13 <__rc3>
    15d3: 64 18        	stz	$18                     ; 0x18 <__rc8>
    15d5: 64 d0        	stz	$d0                     ; 0xd0 <__zp_bss_size+0x9d>
    15d7: 64 d1        	stz	$d1                     ; 0xd1 <__zp_bss_size+0x9e>
    15d9: 64 19        	stz	$19                     ; 0x19 <__rc9>
    15db: a5 93        	lda	$93                     ; 0x93 <__zp_bss_size+0x60>
    15dd: 29 ef        	and	#$ef
    15df: 85 93        	sta	$93                     ; 0x93 <__zp_bss_size+0x60>
    15e1: 85 c4        	sta	$c4                     ; 0xc4 <__zp_bss_size+0x91>
    15e3: a2 00        	ldx	#$0
    15e5: 86 c5        	stx	$c5                     ; 0xc5 <__zp_bss_size+0x92>
    15e7: b2 12        	lda	($12)                   ; 0x12 <__rc2>
    15e9: a6 19        	ldx	$19                     ; 0x19 <__rc9>
    15eb: 86 15        	stx	$15                     ; 0x15 <__rc5>
    15ed: a6 12        	ldx	$12                     ; 0x12 <__rc2>
    15ef: 86 95        	stx	$95                     ; 0x95 <__zp_bss_size+0x62>
    15f1: a6 13        	ldx	$13                     ; 0x13 <__rc3>
    15f3: 86 96        	stx	$96                     ; 0x96 <__zp_bss_size+0x63>
    15f5: e6 95        	inc	$95                     ; 0x95 <__zp_bss_size+0x62>
    15f7: d0 02        	bne	$15fb <printf+0x360>
    15f9: e6 96        	inc	$96                     ; 0x96 <__zp_bss_size+0x63>
    15fb: 85 14        	sta	$14                     ; 0x14 <__rc4>
    15fd: 38           	sec
    15fe: e9 6c        	sbc	#$6c
    1600: 50 02        	bvc	$1604 <printf+0x369>
    1602: 49 80        	eor	#$80
    1604: aa           	tax
    1605: 10 21        	bpl	$1628 <printf+0x38d>
    1607: a6 14        	ldx	$14                     ; 0x14 <__rc4>
    1609: e0 4c        	cpx	#$4c
    160b: f0 37        	beq	$1644 <printf+0x3a9>
    160d: e0 68        	cpx	#$68
    160f: d0 03        	bne	$1614 <printf+0x379>
    1611: 4c bf 16     	jmp	$16bf <printf+0x424>
    1614: a4 14        	ldy	$14                     ; 0x14 <__rc4>
    1616: a9 01        	lda	#$1
    1618: a2 08        	ldx	#$8
    161a: c0 6a        	cpy	#$6a
    161c: d0 22        	bne	$1640 <printf+0x3a5>
    161e: a4 95        	ldy	$95                     ; 0x95 <__zp_bss_size+0x62>
    1620: 84 12        	sty	$12                     ; 0x12 <__rc2>
    1622: a4 96        	ldy	$96                     ; 0x96 <__zp_bss_size+0x63>
    1624: 84 13        	sty	$13                     ; 0x13 <__rc3>
    1626: 80 52        	bra	$167a <printf+0x3df>
    1628: a6 14        	ldx	$14                     ; 0x14 <__rc4>
    162a: e0 6c        	cpx	#$6c
    162c: f0 31        	beq	$165f <printf+0x3c4>
    162e: e0 74        	cpx	#$74
    1630: f0 1e        	beq	$1650 <printf+0x3b5>
    1632: a9 01        	lda	#$1
    1634: e0 7a        	cpx	#$7a
    1636: d0 08        	bne	$1640 <printf+0x3a5>
    1638: a6 95        	ldx	$95                     ; 0x95 <__zp_bss_size+0x62>
    163a: 86 12        	stx	$12                     ; 0x12 <__rc2>
    163c: a6 96        	ldx	$96                     ; 0x96 <__zp_bss_size+0x63>
    163e: 86 13        	stx	$13                     ; 0x13 <__rc3>
    1640: a2 02        	ldx	#$2
    1642: 80 17        	bra	$165b <printf+0x3c0>
    1644: a5 93        	lda	$93                     ; 0x93 <__zp_bss_size+0x60>
    1646: 09 40        	ora	#$40
    1648: 85 93        	sta	$93                     ; 0x93 <__zp_bss_size+0x60>
    164a: 85 c4        	sta	$c4                     ; 0xc4 <__zp_bss_size+0x91>
    164c: a2 00        	ldx	#$0
    164e: 86 c5        	stx	$c5                     ; 0xc5 <__zp_bss_size+0x92>
    1650: a6 95        	ldx	$95                     ; 0x95 <__zp_bss_size+0x62>
    1652: 86 12        	stx	$12                     ; 0x12 <__rc2>
    1654: a6 96        	ldx	$96                     ; 0x96 <__zp_bss_size+0x63>
    1656: 86 13        	stx	$13                     ; 0x13 <__rc3>
    1658: a2 02        	ldx	#$2
    165a: 98           	tya
    165b: a0 02        	ldy	#$2
    165d: 80 1d        	bra	$167c <printf+0x3e1>
    165f: b1 12        	lda	($12),y                 ; 0x12 <__rc2>
    1661: a2 04        	ldx	#$4
    1663: c9 6c        	cmp	#$6c
    1665: f0 03        	beq	$166a <printf+0x3cf>
    1667: 4c dc 16     	jmp	$16dc <printf+0x441>
    166a: a5 12        	lda	$12                     ; 0x12 <__rc2>
    166c: 18           	clc
    166d: 69 02        	adc	#$2
    166f: 85 12        	sta	$12                     ; 0x12 <__rc2>
    1671: a5 13        	lda	$13                     ; 0x13 <__rc3>
    1673: 69 00        	adc	#$0
    1675: 85 13        	sta	$13                     ; 0x13 <__rc3>
    1677: a2 08        	ldx	#$8
    1679: 98           	tya
    167a: a0 08        	ldy	#$8
    167c: 84 94        	sty	$94                     ; 0x94 <__zp_bss_size+0x61>
    167e: a8           	tay
    167f: b2 12        	lda	($12)                   ; 0x12 <__rc2>
    1681: 5a           	phy
    1682: a4 12        	ldy	$12                     ; 0x12 <__rc2>
    1684: 84 95        	sty	$95                     ; 0x95 <__zp_bss_size+0x62>
    1686: a4 13        	ldy	$13                     ; 0x13 <__rc3>
    1688: 84 96        	sty	$96                     ; 0x96 <__zp_bss_size+0x63>
    168a: 7a           	ply
    168b: 86 9d        	stx	$9d                     ; 0x9d <__zp_bss_size+0x6a>
    168d: aa           	tax
    168e: 18           	clc
    168f: 69 9d        	adc	#$9d
    1691: c9 16        	cmp	#$16
    1693: b0 4c        	bcs	$16e1 <printf+0x446>
    1695: 0a           	asl
    1696: aa           	tax
    1697: 7c 3a 22     	jmp	($223a,x)               ; 0x223a <__BLOCK_SIZE+0x23a>
    169a: a6 95        	ldx	$95                     ; 0x95 <__zp_bss_size+0x62>
    169c: 86 d9        	stx	$d9                     ; 0xd9 <__zp_bss_size+0xa6>
    169e: a6 96        	ldx	$96                     ; 0x96 <__zp_bss_size+0x63>
    16a0: 86 da        	stx	$da                     ; 0xda <__zp_bss_size+0xa7>
    16a2: a6 15        	ldx	$15                     ; 0x15 <__rc5>
    16a4: 86 dd        	stx	$dd                     ; 0xdd <__zp_bss_size+0xaa>
    16a6: a6 18        	ldx	$18                     ; 0x18 <__rc8>
    16a8: 86 d8        	stx	$d8                     ; 0xd8 <__zp_bss_size+0xa5>
    16aa: a6 1e        	ldx	$1e                     ; 0x1e <__rc14>
    16ac: 86 de        	stx	$de                     ; 0xde <__zp_bss_size+0xab>
    16ae: a6 1a        	ldx	$1a                     ; 0x1a <__rc10>
    16b0: 86 9c        	stx	$9c                     ; 0x9c <__zp_bss_size+0x69>
    16b2: a0 0a        	ldy	#$a
    16b4: a2 0a        	ldx	#$a
    16b6: 86 9e        	stx	$9e                     ; 0x9e <__zp_bss_size+0x6b>
    16b8: 84 c3        	sty	$c3                     ; 0xc3 <__zp_bss_size+0x90>
    16ba: 64 9b        	stz	$9b                     ; 0x9b <__zp_bss_size+0x68>
    16bc: 4c 2e 18     	jmp	$182e <printf+0x593>
    16bf: b1 12        	lda	($12),y                 ; 0x12 <__rc2>
    16c1: a2 02        	ldx	#$2
    16c3: c9 68        	cmp	#$68
    16c5: d0 15        	bne	$16dc <printf+0x441>
    16c7: a5 12        	lda	$12                     ; 0x12 <__rc2>
    16c9: 18           	clc
    16ca: 69 02        	adc	#$2
    16cc: 85 12        	sta	$12                     ; 0x12 <__rc2>
    16ce: a5 13        	lda	$13                     ; 0x13 <__rc3>
    16d0: 69 00        	adc	#$0
    16d2: 85 13        	sta	$13                     ; 0x13 <__rc3>
    16d4: a2 01        	ldx	#$1
    16d6: 86 94        	stx	$94                     ; 0x94 <__zp_bss_size+0x61>
    16d8: e8           	inx
    16d9: 4c 7f 16     	jmp	$167f <printf+0x3e4>
    16dc: 86 94        	stx	$94                     ; 0x94 <__zp_bss_size+0x61>
    16de: 4c 8b 16     	jmp	$168b <printf+0x3f0>
    16e1: e0 58        	cpx	#$58
    16e3: f0 03        	beq	$16e8 <printf+0x44d>
    16e5: 4c 89 1f     	jmp	$1f89 <printf+0xcee>
    16e8: a6 95        	ldx	$95                     ; 0x95 <__zp_bss_size+0x62>
    16ea: 86 d9        	stx	$d9                     ; 0xd9 <__zp_bss_size+0xa6>
    16ec: a6 96        	ldx	$96                     ; 0x96 <__zp_bss_size+0x63>
    16ee: 86 da        	stx	$da                     ; 0xda <__zp_bss_size+0xa7>
    16f0: a6 15        	ldx	$15                     ; 0x15 <__rc5>
    16f2: 86 dd        	stx	$dd                     ; 0xdd <__zp_bss_size+0xaa>
    16f4: a6 18        	ldx	$18                     ; 0x18 <__rc8>
    16f6: 86 d8        	stx	$d8                     ; 0xd8 <__zp_bss_size+0xa5>
    16f8: a6 1e        	ldx	$1e                     ; 0x1e <__rc14>
    16fa: 86 de        	stx	$de                     ; 0xde <__zp_bss_size+0xab>
    16fc: a6 1a        	ldx	$1a                     ; 0x1a <__rc10>
    16fe: 86 9c        	stx	$9c                     ; 0x9c <__zp_bss_size+0x69>
    1700: a2 10        	ldx	#$10
    1702: 86 c3        	stx	$c3                     ; 0xc3 <__zp_bss_size+0x90>
    1704: a9 00        	lda	#$0
    1706: 09 01        	ora	#$1
    1708: a6 93        	ldx	$93                     ; 0x93 <__zp_bss_size+0x60>
    170a: 80 49        	bra	$1755 <printf+0x4ba>
    170c: a6 95        	ldx	$95                     ; 0x95 <__zp_bss_size+0x62>
    170e: 86 d9        	stx	$d9                     ; 0xd9 <__zp_bss_size+0xa6>
    1710: a6 96        	ldx	$96                     ; 0x96 <__zp_bss_size+0x63>
    1712: 86 da        	stx	$da                     ; 0xda <__zp_bss_size+0xa7>
    1714: a6 15        	ldx	$15                     ; 0x15 <__rc5>
    1716: 86 dd        	stx	$dd                     ; 0xdd <__zp_bss_size+0xaa>
    1718: a6 18        	ldx	$18                     ; 0x18 <__rc8>
    171a: 86 d8        	stx	$d8                     ; 0xd8 <__zp_bss_size+0xa5>
    171c: a6 1e        	ldx	$1e                     ; 0x1e <__rc14>
    171e: 86 de        	stx	$de                     ; 0xde <__zp_bss_size+0xab>
    1720: a6 1a        	ldx	$1a                     ; 0x1a <__rc10>
    1722: 86 9c        	stx	$9c                     ; 0x9c <__zp_bss_size+0x69>
    1724: a2 10        	ldx	#$10
    1726: 86 c3        	stx	$c3                     ; 0xc3 <__zp_bss_size+0x90>
    1728: a5 93        	lda	$93                     ; 0x93 <__zp_bss_size+0x60>
    172a: 09 84        	ora	#$84
    172c: 80 20        	bra	$174e <printf+0x4b3>
    172e: a6 95        	ldx	$95                     ; 0x95 <__zp_bss_size+0x62>
    1730: 86 d9        	stx	$d9                     ; 0xd9 <__zp_bss_size+0xa6>
    1732: a6 96        	ldx	$96                     ; 0x96 <__zp_bss_size+0x63>
    1734: 86 da        	stx	$da                     ; 0xda <__zp_bss_size+0xa7>
    1736: a6 15        	ldx	$15                     ; 0x15 <__rc5>
    1738: 86 dd        	stx	$dd                     ; 0xdd <__zp_bss_size+0xaa>
    173a: a6 18        	ldx	$18                     ; 0x18 <__rc8>
    173c: 86 d8        	stx	$d8                     ; 0xd8 <__zp_bss_size+0xa5>
    173e: a6 1e        	ldx	$1e                     ; 0x1e <__rc14>
    1740: 86 de        	stx	$de                     ; 0xde <__zp_bss_size+0xab>
    1742: a6 1a        	ldx	$1a                     ; 0x1a <__rc10>
    1744: 86 9c        	stx	$9c                     ; 0x9c <__zp_bss_size+0x69>
    1746: a2 10        	ldx	#$10
    1748: 86 c3        	stx	$c3                     ; 0xc3 <__zp_bss_size+0x90>
    174a: a5 93        	lda	$93                     ; 0x93 <__zp_bss_size+0x60>
    174c: 09 80        	ora	#$80
    174e: aa           	tax
    174f: a9 00        	lda	#$0
    1751: 09 01        	ora	#$1
    1753: 86 93        	stx	$93                     ; 0x93 <__zp_bss_size+0x60>
    1755: 86 c4        	stx	$c4                     ; 0xc4 <__zp_bss_size+0x91>
    1757: 85 9b        	sta	$9b                     ; 0x9b <__zp_bss_size+0x68>
    1759: 85 c5        	sta	$c5                     ; 0xc5 <__zp_bss_size+0x92>
    175b: a2 10        	ldx	#$10
    175d: 86 9e        	stx	$9e                     ; 0x9e <__zp_bss_size+0x6b>
    175f: 4c 2e 18     	jmp	$182e <printf+0x593>
    1762: a5 d4        	lda	$d4                     ; 0xd4 <__zp_bss_size+0xa1>
    1764: a6 d5        	ldx	$d5                     ; 0xd5 <__zp_bss_size+0xa2>
    1766: 85 12        	sta	$12                     ; 0x12 <__rc2>
    1768: 86 13        	stx	$13                     ; 0x13 <__rc3>
    176a: 18           	clc
    176b: 69 02        	adc	#$2
    176d: 85 14        	sta	$14                     ; 0x14 <__rc4>
    176f: 8a           	txa
    1770: 69 00        	adc	#$0
    1772: a6 14        	ldx	$14                     ; 0x14 <__rc4>
    1774: 86 d4        	stx	$d4                     ; 0xd4 <__zp_bss_size+0xa1>
    1776: 85 d5        	sta	$d5                     ; 0xd5 <__zp_bss_size+0xa2>
    1778: b2 12        	lda	($12)                   ; 0x12 <__rc2>
    177a: aa           	tax
    177b: b1 12        	lda	($12),y                 ; 0x12 <__rc2>
    177d: 86 12        	stx	$12                     ; 0x12 <__rc2>
    177f: 85 13        	sta	$13                     ; 0x13 <__rc3>
    1781: a5 c8        	lda	$c8                     ; 0xc8 <__zp_bss_size+0x95>
    1783: a6 c9        	ldx	$c9                     ; 0xc9 <__zp_bss_size+0x96>
    1785: 92 12        	sta	($12)                   ; 0x12 <__rc2>
    1787: 8a           	txa
    1788: 91 12        	sta	($12),y                 ; 0x12 <__rc2>
    178a: 4c 71 1f     	jmp	$1f71 <printf+0xcd6>
    178d: a5 d4        	lda	$d4                     ; 0xd4 <__zp_bss_size+0xa1>
    178f: a6 d5        	ldx	$d5                     ; 0xd5 <__zp_bss_size+0xa2>
    1791: 85 12        	sta	$12                     ; 0x12 <__rc2>
    1793: 86 13        	stx	$13                     ; 0x13 <__rc3>
    1795: 18           	clc
    1796: 69 02        	adc	#$2
    1798: 85 14        	sta	$14                     ; 0x14 <__rc4>
    179a: 8a           	txa
    179b: 69 00        	adc	#$0
    179d: a6 14        	ldx	$14                     ; 0x14 <__rc4>
    179f: 86 d4        	stx	$d4                     ; 0xd4 <__zp_bss_size+0xa1>
    17a1: 85 d5        	sta	$d5                     ; 0xd5 <__zp_bss_size+0xa2>
    17a3: b2 12        	lda	($12)                   ; 0x12 <__rc2>
    17a5: aa           	tax
    17a6: b1 12        	lda	($12),y                 ; 0x12 <__rc2>
    17a8: 86 12        	stx	$12                     ; 0x12 <__rc2>
    17aa: 85 13        	sta	$13                     ; 0x13 <__rc3>
    17ac: 80 42        	bra	$17f0 <printf+0x555>
    17ae: a6 95        	ldx	$95                     ; 0x95 <__zp_bss_size+0x62>
    17b0: 86 d9        	stx	$d9                     ; 0xd9 <__zp_bss_size+0xa6>
    17b2: a6 96        	ldx	$96                     ; 0x96 <__zp_bss_size+0x63>
    17b4: 86 da        	stx	$da                     ; 0xda <__zp_bss_size+0xa7>
    17b6: a6 15        	ldx	$15                     ; 0x15 <__rc5>
    17b8: 86 dd        	stx	$dd                     ; 0xdd <__zp_bss_size+0xaa>
    17ba: a6 18        	ldx	$18                     ; 0x18 <__rc8>
    17bc: 86 d8        	stx	$d8                     ; 0xd8 <__zp_bss_size+0xa5>
    17be: a6 1e        	ldx	$1e                     ; 0x1e <__rc14>
    17c0: 86 de        	stx	$de                     ; 0xde <__zp_bss_size+0xab>
    17c2: a6 1a        	ldx	$1a                     ; 0x1a <__rc10>
    17c4: 86 9c        	stx	$9c                     ; 0x9c <__zp_bss_size+0x69>
    17c6: a0 08        	ldy	#$8
    17c8: a2 08        	ldx	#$8
    17ca: 80 52        	bra	$181e <printf+0x583>
    17cc: a5 d4        	lda	$d4                     ; 0xd4 <__zp_bss_size+0xa1>
    17ce: a6 d5        	ldx	$d5                     ; 0xd5 <__zp_bss_size+0xa2>
    17d0: 85 12        	sta	$12                     ; 0x12 <__rc2>
    17d2: 86 13        	stx	$13                     ; 0x13 <__rc3>
    17d4: 18           	clc
    17d5: 69 02        	adc	#$2
    17d7: 85 14        	sta	$14                     ; 0x14 <__rc4>
    17d9: 8a           	txa
    17da: 69 00        	adc	#$0
    17dc: a6 14        	ldx	$14                     ; 0x14 <__rc4>
    17de: 86 d4        	stx	$d4                     ; 0xd4 <__zp_bss_size+0xa1>
    17e0: 85 d5        	sta	$d5                     ; 0xd5 <__zp_bss_size+0xa2>
    17e2: b2 12        	lda	($12)                   ; 0x12 <__rc2>
    17e4: 85 b6        	sta	$b6                     ; 0xb6 <__zp_bss_size+0x83>
    17e6: 64 b7        	stz	$b7                     ; 0xb7 <__zp_bss_size+0x84>
    17e8: a2 b6        	ldx	#$b6
    17ea: 86 12        	stx	$12                     ; 0x12 <__rc2>
    17ec: a2 00        	ldx	#$0
    17ee: 86 13        	stx	$13                     ; 0x13 <__rc3>
    17f0: a2 c3        	ldx	#$c3
    17f2: 86 14        	stx	$14                     ; 0x14 <__rc4>
    17f4: a2 00        	ldx	#$0
    17f6: 86 15        	stx	$15                     ; 0x15 <__rc5>
    17f8: 84 99        	sty	$99                     ; 0x99 <__zp_bss_size+0x66>
    17fa: 20 8c 11     	jsr	$118c <_ZN12_GLOBAL__N_112print_stringEPKcP6Status>
    17fd: a4 99        	ldy	$99                     ; 0x99 <__zp_bss_size+0x66>
    17ff: 4c 71 1f     	jmp	$1f71 <printf+0xcd6>
    1802: a6 95        	ldx	$95                     ; 0x95 <__zp_bss_size+0x62>
    1804: 86 d9        	stx	$d9                     ; 0xd9 <__zp_bss_size+0xa6>
    1806: a6 96        	ldx	$96                     ; 0x96 <__zp_bss_size+0x63>
    1808: 86 da        	stx	$da                     ; 0xda <__zp_bss_size+0xa7>
    180a: a6 15        	ldx	$15                     ; 0x15 <__rc5>
    180c: 86 dd        	stx	$dd                     ; 0xdd <__zp_bss_size+0xaa>
    180e: a6 18        	ldx	$18                     ; 0x18 <__rc8>
    1810: 86 d8        	stx	$d8                     ; 0xd8 <__zp_bss_size+0xa5>
    1812: a6 1e        	ldx	$1e                     ; 0x1e <__rc14>
    1814: 86 de        	stx	$de                     ; 0xde <__zp_bss_size+0xab>
    1816: a6 1a        	ldx	$1a                     ; 0x1a <__rc10>
    1818: 86 9c        	stx	$9c                     ; 0x9c <__zp_bss_size+0x69>
    181a: a0 0a        	ldy	#$a
    181c: a2 0a        	ldx	#$a
    181e: 86 9e        	stx	$9e                     ; 0x9e <__zp_bss_size+0x6b>
    1820: 84 c3        	sty	$c3                     ; 0xc3 <__zp_bss_size+0x90>
    1822: a9 00        	lda	#$0
    1824: 09 01        	ora	#$1
    1826: a6 93        	ldx	$93                     ; 0x93 <__zp_bss_size+0x60>
    1828: 86 c4        	stx	$c4                     ; 0xc4 <__zp_bss_size+0x91>
    182a: 85 9b        	sta	$9b                     ; 0x9b <__zp_bss_size+0x68>
    182c: 85 c5        	sta	$c5                     ; 0xc5 <__zp_bss_size+0x92>
    182e: a5 94        	lda	$94                     ; 0x94 <__zp_bss_size+0x61>
    1830: 85 b8        	sta	$b8                     ; 0xb8 <__zp_bss_size+0x85>
    1832: a4 d4        	ldy	$d4                     ; 0xd4 <__zp_bss_size+0xa1>
    1834: a6 d5        	ldx	$d5                     ; 0xd5 <__zp_bss_size+0xa2>
    1836: 86 99        	stx	$99                     ; 0x99 <__zp_bss_size+0x66>
    1838: 84 14        	sty	$14                     ; 0x14 <__rc4>
    183a: 84 95        	sty	$95                     ; 0x95 <__zp_bss_size+0x62>
    183c: 86 15        	stx	$15                     ; 0x15 <__rc5>
    183e: a6 db        	ldx	$db                     ; 0xdb <__zp_bss_size+0xa8>
    1840: 86 12        	stx	$12                     ; 0x12 <__rc2>
    1842: a6 dc        	ldx	$dc                     ; 0xdc <__zp_bss_size+0xa9>
    1844: 86 13        	stx	$13                     ; 0x13 <__rc3>
    1846: a2 00        	ldx	#$0
    1848: 85 9a        	sta	$9a                     ; 0x9a <__zp_bss_size+0x67>
    184a: 20 d8 21     	jsr	$21d8 <memcpy>
    184d: 18           	clc
    184e: a5 95        	lda	$95                     ; 0x95 <__zp_bss_size+0x62>
    1850: 65 9d        	adc	$9d                     ; 0x9d <__zp_bss_size+0x6a>
    1852: aa           	tax
    1853: a5 99        	lda	$99                     ; 0x99 <__zp_bss_size+0x66>
    1855: 69 00        	adc	#$0
    1857: 86 d4        	stx	$d4                     ; 0xd4 <__zp_bss_size+0xa1>
    1859: 85 d5        	sta	$d5                     ; 0xd5 <__zp_bss_size+0xa2>
    185b: a5 9b        	lda	$9b                     ; 0x9b <__zp_bss_size+0x68>
    185d: 29 01        	and	#$1
    185f: a0 00        	ldy	#$0
    1861: aa           	tax
    1862: f0 03        	beq	$1867 <printf+0x5cc>
    1864: 4c b9 18     	jmp	$18b9 <printf+0x61e>
    1867: a6 9a        	ldx	$9a                     ; 0x9a <__zp_bss_size+0x67>
    1869: b5 b8        	lda	$b8,x                   ; 0xb8 <__zp_bss_size+0x85>
    186b: aa           	tax
    186c: a5 9c        	lda	$9c                     ; 0x9c <__zp_bss_size+0x69>
    186e: 85 17        	sta	$17                     ; 0x17 <__rc7>
    1870: a5 de        	lda	$de                     ; 0xde <__zp_bss_size+0xab>
    1872: 85 1a        	sta	$1a                     ; 0x1a <__rc10>
    1874: a5 dd        	lda	$dd                     ; 0xdd <__zp_bss_size+0xaa>
    1876: 85 9a        	sta	$9a                     ; 0x9a <__zp_bss_size+0x67>
    1878: a5 d9        	lda	$d9                     ; 0xd9 <__zp_bss_size+0xa6>
    187a: 85 95        	sta	$95                     ; 0x95 <__zp_bss_size+0x62>
    187c: a5 da        	lda	$da                     ; 0xda <__zp_bss_size+0xa7>
    187e: 85 96        	sta	$96                     ; 0x96 <__zp_bss_size+0x63>
    1880: 8a           	txa
    1881: 10 4a        	bpl	$18cd <printf+0x632>
    1883: a2 00        	ldx	#$0
    1885: 64 12        	stz	$12                     ; 0x12 <__rc2>
    1887: a9 00        	lda	#$0
    1889: 38           	sec
    188a: f5 b9        	sbc	$b9,x                   ; 0xb9 <__zp_bss_size+0x86>
    188c: a0 01        	ldy	#$1
    188e: 84 14        	sty	$14                     ; 0x14 <__rc4>
    1890: 88           	dey
    1891: b0 02        	bcs	$1895 <printf+0x5fa>
    1893: a0 01        	ldy	#$1
    1895: 38           	sec
    1896: e5 12        	sbc	$12                     ; 0x12 <__rc2>
    1898: 85 13        	sta	$13                     ; 0x13 <__rc3>
    189a: 64 12        	stz	$12                     ; 0x12 <__rc2>
    189c: b0 04        	bcs	$18a2 <printf+0x607>
    189e: a5 14        	lda	$14                     ; 0x14 <__rc4>
    18a0: 85 12        	sta	$12                     ; 0x12 <__rc2>
    18a2: 98           	tya
    18a3: 05 12        	ora	$12                     ; 0x12 <__rc2>
    18a5: 85 12        	sta	$12                     ; 0x12 <__rc2>
    18a7: a5 13        	lda	$13                     ; 0x13 <__rc3>
    18a9: 9d b9 00     	sta	$b9,x                   ; 0xb9 <__zp_bss_size+0x86>
    18ac: e8           	inx
    18ad: 86 13        	stx	$13                     ; 0x13 <__rc3>
    18af: a4 94        	ldy	$94                     ; 0x94 <__zp_bss_size+0x61>
    18b1: c4 13        	cpy	$13                     ; 0x13 <__rc3>
    18b3: d0 d2        	bne	$1887 <printf+0x5ec>
    18b5: a0 01        	ldy	#$1
    18b7: 80 14        	bra	$18cd <printf+0x632>
    18b9: a6 9c        	ldx	$9c                     ; 0x9c <__zp_bss_size+0x69>
    18bb: 86 17        	stx	$17                     ; 0x17 <__rc7>
    18bd: a6 de        	ldx	$de                     ; 0xde <__zp_bss_size+0xab>
    18bf: 86 1a        	stx	$1a                     ; 0x1a <__rc10>
    18c1: a6 dd        	ldx	$dd                     ; 0xdd <__zp_bss_size+0xaa>
    18c3: 86 9a        	stx	$9a                     ; 0x9a <__zp_bss_size+0x67>
    18c5: a6 d9        	ldx	$d9                     ; 0xd9 <__zp_bss_size+0xa6>
    18c7: 86 95        	stx	$95                     ; 0x95 <__zp_bss_size+0x62>
    18c9: a6 da        	ldx	$da                     ; 0xda <__zp_bss_size+0xa7>
    18cb: 86 96        	stx	$96                     ; 0x96 <__zp_bss_size+0x63>
    18cd: 84 18        	sty	$18                     ; 0x18 <__rc8>
    18cf: a5 94        	lda	$94                     ; 0x94 <__zp_bss_size+0x61>
    18d1: 0a           	asl
    18d2: 0a           	asl
    18d3: 0a           	asl
    18d4: 85 12        	sta	$12                     ; 0x12 <__rc2>
    18d6: a2 00        	ldx	#$0
    18d8: 8a           	txa
    18d9: 4c 90 19     	jmp	$1990 <printf+0x6f5>
    18dc: a4 13        	ldy	$13                     ; 0x13 <__rc3>
    18de: 99 a1 00     	sta	$a1,y                   ; 0xa1 <__zp_bss_size+0x6e>
    18e1: a4 15        	ldy	$15                     ; 0x15 <__rc5>
    18e3: c4 13        	cpy	$13                     ; 0x13 <__rc3>
    18e5: f0 38        	beq	$191f <printf+0x684>
    18e7: e6 13        	inc	$13                     ; 0x13 <__rc3>
    18e9: a4 13        	ldy	$13                     ; 0x13 <__rc3>
    18eb: b9 a1 00     	lda	$a1,y                   ; 0xa1 <__zp_bss_size+0x6e>
    18ee: 0a           	asl
    18ef: e0 00        	cpx	#$0
    18f1: f0 02        	beq	$18f5 <printf+0x65a>
    18f3: 09 01        	ora	#$1
    18f5: a4 9e        	ldy	$9e                     ; 0x9e <__zp_bss_size+0x6b>
    18f7: 84 14        	sty	$14                     ; 0x14 <__rc4>
    18f9: c5 14        	cmp	$14                     ; 0x14 <__rc4>
    18fb: a2 01        	ldx	#$1
    18fd: b0 02        	bcs	$1901 <printf+0x666>
    18ff: a2 00        	ldx	#$0
    1901: 90 d9        	bcc	$18dc <printf+0x641>
    1903: 84 14        	sty	$14                     ; 0x14 <__rc4>
    1905: 38           	sec
    1906: e5 14        	sbc	$14                     ; 0x14 <__rc4>
    1908: a4 13        	ldy	$13                     ; 0x13 <__rc3>
    190a: 99 a1 00     	sta	$a1,y                   ; 0xa1 <__zp_bss_size+0x6e>
    190d: a4 15        	ldy	$15                     ; 0x15 <__rc5>
    190f: c4 13        	cpy	$13                     ; 0x13 <__rc3>
    1911: d0 d4        	bne	$18e7 <printf+0x64c>
    1913: a4 9d        	ldy	$9d                     ; 0x9d <__zp_bss_size+0x6a>
    1915: a6 9d        	ldx	$9d                     ; 0x9d <__zp_bss_size+0x6a>
    1917: e8           	inx
    1918: a9 01        	lda	#$1
    191a: 99 a1 00     	sta	$a1,y                   ; 0xa1 <__zp_bss_size+0x6e>
    191d: 86 9d        	stx	$9d                     ; 0x9d <__zp_bss_size+0x6a>
    191f: a6 94        	ldx	$94                     ; 0x94 <__zp_bss_size+0x61>
    1921: b5 b8        	lda	$b8,x                   ; 0xb8 <__zp_bss_size+0x85>
    1923: aa           	tax
    1924: 10 41        	bpl	$1967 <printf+0x6cc>
    1926: a5 9d        	lda	$9d                     ; 0x9d <__zp_bss_size+0x6a>
    1928: f0 2f        	beq	$1959 <printf+0x6be>
    192a: a2 00        	ldx	#$0
    192c: a4 9e        	ldy	$9e                     ; 0x9e <__zp_bss_size+0x6b>
    192e: 84 14        	sty	$14                     ; 0x14 <__rc4>
    1930: b5 a1        	lda	$a1,x                   ; 0xa1 <__zp_bss_size+0x6e>
    1932: 1a           	inc
    1933: f6 a1        	inc	$a1,x                   ; 0xa1 <__zp_bss_size+0x6e>
    1935: c5 14        	cmp	$14                     ; 0x14 <__rc4>
    1937: 90 2e        	bcc	$1967 <printf+0x6cc>
    1939: a4 9e        	ldy	$9e                     ; 0x9e <__zp_bss_size+0x6b>
    193b: 84 13        	sty	$13                     ; 0x13 <__rc3>
    193d: 38           	sec
    193e: e5 13        	sbc	$13                     ; 0x13 <__rc3>
    1940: 9d a1 00     	sta	$a1,x                   ; 0xa1 <__zp_bss_size+0x6e>
    1943: e8           	inx
    1944: 86 13        	stx	$13                     ; 0x13 <__rc3>
    1946: a4 9d        	ldy	$9d                     ; 0x9d <__zp_bss_size+0x6a>
    1948: c4 13        	cpy	$13                     ; 0x13 <__rc3>
    194a: d0 e4        	bne	$1930 <printf+0x695>
    194c: 80 0d        	bra	$195b <printf+0x6c0>
    194e: a6 94        	ldx	$94                     ; 0x94 <__zp_bss_size+0x61>
    1950: b5 b8        	lda	$b8,x                   ; 0xb8 <__zp_bss_size+0x85>
    1952: aa           	tax
    1953: 64 9d        	stz	$9d                     ; 0x9d <__zp_bss_size+0x6a>
    1955: 30 04        	bmi	$195b <printf+0x6c0>
    1957: 80 0e        	bra	$1967 <printf+0x6cc>
    1959: 64 9d        	stz	$9d                     ; 0x9d <__zp_bss_size+0x6a>
    195b: a4 9d        	ldy	$9d                     ; 0x9d <__zp_bss_size+0x6a>
    195d: a6 9d        	ldx	$9d                     ; 0x9d <__zp_bss_size+0x6a>
    195f: e8           	inx
    1960: a9 01        	lda	#$1
    1962: 99 a1 00     	sta	$a1,y                   ; 0xa1 <__zp_bss_size+0x6e>
    1965: 86 9d        	stx	$9d                     ; 0x9d <__zp_bss_size+0x6a>
    1967: a2 01        	ldx	#$1
    1969: 86 16        	stx	$16                     ; 0x16 <__rc6>
    196b: 64 13        	stz	$13                     ; 0x13 <__rc3>
    196d: ca           	dex
    196e: a4 94        	ldy	$94                     ; 0x94 <__zp_bss_size+0x61>
    1970: b5 b9        	lda	$b9,x                   ; 0xb9 <__zp_bss_size+0x86>
    1972: 0a           	asl
    1973: 64 14        	stz	$14                     ; 0x14 <__rc4>
    1975: 26 14        	rol	$14                     ; 0x14 <__rc4>
    1977: 05 13        	ora	$13                     ; 0x13 <__rc3>
    1979: 9d b9 00     	sta	$b9,x                   ; 0xb9 <__zp_bss_size+0x86>
    197c: e8           	inx
    197d: 86 15        	stx	$15                     ; 0x15 <__rc5>
    197f: a5 14        	lda	$14                     ; 0x14 <__rc4>
    1981: 85 13        	sta	$13                     ; 0x13 <__rc3>
    1983: c4 15        	cpy	$15                     ; 0x15 <__rc5>
    1985: d0 e9        	bne	$1970 <printf+0x6d5>
    1987: a5 19        	lda	$19                     ; 0x19 <__rc9>
    1989: 1a           	inc
    198a: c5 12        	cmp	$12                     ; 0x12 <__rc2>
    198c: a6 9d        	ldx	$9d                     ; 0x9d <__zp_bss_size+0x6a>
    198e: b0 12        	bcs	$19a2 <printf+0x707>
    1990: 85 19        	sta	$19                     ; 0x19 <__rc9>
    1992: 8a           	txa
    1993: f0 b9        	beq	$194e <printf+0x6b3>
    1995: 8a           	txa
    1996: 86 9d        	stx	$9d                     ; 0x9d <__zp_bss_size+0x6a>
    1998: 3a           	dec
    1999: 85 15        	sta	$15                     ; 0x15 <__rc5>
    199b: a2 00        	ldx	#$0
    199d: 64 13        	stz	$13                     ; 0x13 <__rc3>
    199f: 4c e9 18     	jmp	$18e9 <printf+0x64e>
    19a2: a4 16        	ldy	$16                     ; 0x16 <__rc6>
    19a4: a5 9a        	lda	$9a                     ; 0x9a <__zp_bss_size+0x67>
    19a6: 30 06        	bmi	$19ae <printf+0x713>
    19a8: a5 d8        	lda	$d8                     ; 0xd8 <__zp_bss_size+0xa5>
    19aa: 85 99        	sta	$99                     ; 0x99 <__zp_bss_size+0x66>
    19ac: 80 08        	bra	$19b6 <printf+0x71b>
    19ae: a2 01        	ldx	#$1
    19b0: 64 9a        	stz	$9a                     ; 0x9a <__zp_bss_size+0x67>
    19b2: 86 99        	stx	$99                     ; 0x99 <__zp_bss_size+0x66>
    19b4: a6 9d        	ldx	$9d                     ; 0x9d <__zp_bss_size+0x6a>
    19b6: a5 93        	lda	$93                     ; 0x93 <__zp_bss_size+0x60>
    19b8: 29 04        	and	#$4
    19ba: f0 2f        	beq	$19eb <printf+0x750>
    19bc: a5 9e        	lda	$9e                     ; 0x9e <__zp_bss_size+0x6b>
    19be: c9 10        	cmp	#$10
    19c0: f0 14        	beq	$19d6 <printf+0x73b>
    19c2: c9 08        	cmp	#$8
    19c4: d0 25        	bne	$19eb <printf+0x750>
    19c6: a2 00        	ldx	#$0
    19c8: e4 9a        	cpx	$9a                     ; 0x9a <__zp_bss_size+0x67>
    19ca: f0 03        	beq	$19cf <printf+0x734>
    19cc: 4c 97 1f     	jmp	$1f97 <printf+0xcfc>
    19cf: a6 9d        	ldx	$9d                     ; 0x9d <__zp_bss_size+0x6a>
    19d1: e4 99        	cpx	$99                     ; 0x99 <__zp_bss_size+0x66>
    19d3: 4c 99 1f     	jmp	$1f99 <printf+0xcfe>
    19d6: 8a           	txa
    19d7: f0 12        	beq	$19eb <printf+0x750>
    19d9: a5 93        	lda	$93                     ; 0x93 <__zp_bss_size+0x60>
    19db: a6 99        	ldx	$99                     ; 0x99 <__zp_bss_size+0x66>
    19dd: 29 80        	and	#$80
    19df: d0 03        	bne	$19e4 <printf+0x749>
    19e1: 4c b2 1f     	jmp	$1fb2 <printf+0xd17>
    19e4: 86 d8        	stx	$d8                     ; 0xd8 <__zp_bss_size+0xa5>
    19e6: a2 78        	ldx	#$78
    19e8: 4c b6 1f     	jmp	$1fb6 <printf+0xd1b>
    19eb: a6 93        	ldx	$93                     ; 0x93 <__zp_bss_size+0x60>
    19ed: a9 2d        	lda	#$2d
    19ef: 85 d9        	sta	$d9                     ; 0xd9 <__zp_bss_size+0xa6>
    19f1: a5 18        	lda	$18                     ; 0x18 <__rc8>
    19f3: d0 22        	bne	$1a17 <printf+0x77c>
    19f5: 86 12        	stx	$12                     ; 0x12 <__rc2>
    19f7: 8a           	txa
    19f8: 29 02        	and	#$2
    19fa: a2 2b        	ldx	#$2b
    19fc: 86 d9        	stx	$d9                     ; 0xd9 <__zp_bss_size+0xa6>
    19fe: aa           	tax
    19ff: d0 16        	bne	$1a17 <printf+0x77c>
    1a01: a6 99        	ldx	$99                     ; 0x99 <__zp_bss_size+0x66>
    1a03: 86 d8        	stx	$d8                     ; 0xd8 <__zp_bss_size+0xa5>
    1a05: a5 12        	lda	$12                     ; 0x12 <__rc2>
    1a07: 29 08        	and	#$8
    1a09: f0 03        	beq	$1a0e <printf+0x773>
    1a0b: 4c 90 1f     	jmp	$1f90 <printf+0xcf5>
    1a0e: a2 01        	ldx	#$1
    1a10: 86 9c        	stx	$9c                     ; 0x9c <__zp_bss_size+0x69>
    1a12: 64 16        	stz	$16                     ; 0x16 <__rc6>
    1a14: ca           	dex
    1a15: 80 08        	bra	$1a1f <printf+0x784>
    1a17: a6 99        	ldx	$99                     ; 0x99 <__zp_bss_size+0x66>
    1a19: 86 d8        	stx	$d8                     ; 0xd8 <__zp_bss_size+0xa5>
    1a1b: a2 00        	ldx	#$0
    1a1d: 86 9c        	stx	$9c                     ; 0x9c <__zp_bss_size+0x69>
    1a1f: 86 99        	stx	$99                     ; 0x99 <__zp_bss_size+0x66>
    1a21: a5 9a        	lda	$9a                     ; 0x9a <__zp_bss_size+0x67>
    1a23: d0 08        	bne	$1a2d <printf+0x792>
    1a25: a5 d8        	lda	$d8                     ; 0xd8 <__zp_bss_size+0xa5>
    1a27: c5 9d        	cmp	$9d                     ; 0x9d <__zp_bss_size+0x6a>
    1a29: 85 12        	sta	$12                     ; 0x12 <__rc2>
    1a2b: 80 08        	bra	$1a35 <printf+0x79a>
    1a2d: a6 9a        	ldx	$9a                     ; 0x9a <__zp_bss_size+0x67>
    1a2f: e0 00        	cpx	#$0
    1a31: a6 d8        	ldx	$d8                     ; 0xd8 <__zp_bss_size+0xa5>
    1a33: 86 12        	stx	$12                     ; 0x12 <__rc2>
    1a35: a6 9a        	ldx	$9a                     ; 0x9a <__zp_bss_size+0x67>
    1a37: 86 13        	stx	$13                     ; 0x13 <__rc3>
    1a39: b0 06        	bcs	$1a41 <printf+0x7a6>
    1a3b: a6 9d        	ldx	$9d                     ; 0x9d <__zp_bss_size+0x6a>
    1a3d: 86 12        	stx	$12                     ; 0x12 <__rc2>
    1a3f: 64 13        	stz	$13                     ; 0x13 <__rc3>
    1a41: a5 16        	lda	$16                     ; 0x16 <__rc6>
    1a43: 18           	clc
    1a44: 65 12        	adc	$12                     ; 0x12 <__rc2>
    1a46: aa           	tax
    1a47: 85 14        	sta	$14                     ; 0x14 <__rc4>
    1a49: a5 13        	lda	$13                     ; 0x13 <__rc3>
    1a4b: 69 00        	adc	#$0
    1a4d: 85 15        	sta	$15                     ; 0x15 <__rc5>
    1a4f: c5 1a        	cmp	$1a                     ; 0x1a <__rc10>
    1a51: d0 04        	bne	$1a57 <printf+0x7bc>
    1a53: e4 17        	cpx	$17                     ; 0x17 <__rc7>
    1a55: 80 02        	bra	$1a59 <printf+0x7be>
    1a57: c5 1a        	cmp	$1a                     ; 0x1a <__rc10>
    1a59: 64 9e        	stz	$9e                     ; 0x9e <__zp_bss_size+0x6b>
    1a5b: 64 94        	stz	$94                     ; 0x94 <__zp_bss_size+0x61>
    1a5d: a6 9d        	ldx	$9d                     ; 0x9d <__zp_bss_size+0x6a>
    1a5f: 90 03        	bcc	$1a64 <printf+0x7c9>
    1a61: 4c 1f 1b     	jmp	$1b1f <printf+0x884>
    1a64: a5 93        	lda	$93                     ; 0x93 <__zp_bss_size+0x60>
    1a66: 29 11        	and	#$11
    1a68: f0 10        	beq	$1a7a <printf+0x7df>
    1a6a: a5 17        	lda	$17                     ; 0x17 <__rc7>
    1a6c: 38           	sec
    1a6d: e5 14        	sbc	$14                     ; 0x14 <__rc4>
    1a6f: 85 9e        	sta	$9e                     ; 0x9e <__zp_bss_size+0x6b>
    1a71: a5 1a        	lda	$1a                     ; 0x1a <__rc10>
    1a73: e5 15        	sbc	$15                     ; 0x15 <__rc5>
    1a75: 85 94        	sta	$94                     ; 0x94 <__zp_bss_size+0x61>
    1a77: 4c 1f 1b     	jmp	$1b1f <printf+0x884>
    1a7a: a6 c8        	ldx	$c8                     ; 0xc8 <__zp_bss_size+0x95>
    1a7c: 86 15        	stx	$15                     ; 0x15 <__rc5>
    1a7e: 38           	sec
    1a7f: a5 16        	lda	$16                     ; 0x16 <__rc6>
    1a81: e5 17        	sbc	$17                     ; 0x17 <__rc7>
    1a83: aa           	tax
    1a84: a9 00        	lda	#$0
    1a86: e5 1a        	sbc	$1a                     ; 0x1a <__rc10>
    1a88: 85 14        	sta	$14                     ; 0x14 <__rc4>
    1a8a: 18           	clc
    1a8b: 8a           	txa
    1a8c: 65 12        	adc	$12                     ; 0x12 <__rc2>
    1a8e: 85 93        	sta	$93                     ; 0x93 <__zp_bss_size+0x60>
    1a90: a5 14        	lda	$14                     ; 0x14 <__rc4>
    1a92: 65 13        	adc	$13                     ; 0x13 <__rc3>
    1a94: 85 94        	sta	$94                     ; 0x94 <__zp_bss_size+0x61>
    1a96: a5 c9        	lda	$c9                     ; 0xc9 <__zp_bss_size+0x96>
    1a98: 4c 07 1b     	jmp	$1b07 <printf+0x86c>
    1a9b: c5 c7        	cmp	$c7                     ; 0xc7 <__zp_bss_size+0x94>
    1a9d: a6 94        	ldx	$94                     ; 0x94 <__zp_bss_size+0x61>
    1a9f: 86 12        	stx	$12                     ; 0x12 <__rc2>
    1aa1: b0 3d        	bcs	$1ae0 <printf+0x845>
    1aa3: a2 01        	ldx	#$1
    1aa5: 86 14        	stx	$14                     ; 0x14 <__rc4>
    1aa7: a6 d3        	ldx	$d3                     ; 0xd3 <__zp_bss_size+0xa0>
    1aa9: a0 00        	ldy	#$0
    1aab: 84 12        	sty	$12                     ; 0x12 <__rc2>
    1aad: a0 00        	ldy	#$0
    1aaf: 84 13        	sty	$13                     ; 0x13 <__rc3>
    1ab1: e4 13        	cpx	$13                     ; 0x13 <__rc3>
    1ab3: d0 1b        	bne	$1ad0 <printf+0x835>
    1ab5: a6 d2        	ldx	$d2                     ; 0xd2 <__zp_bss_size+0x9f>
    1ab7: e4 12        	cpx	$12                     ; 0x12 <__rc2>
    1ab9: d0 15        	bne	$1ad0 <printf+0x835>
    1abb: a4 14        	ldy	$14                     ; 0x14 <__rc4>
    1abd: 18           	clc
    1abe: aa           	tax
    1abf: a5 15        	lda	$15                     ; 0x15 <__rc5>
    1ac1: 65 cc        	adc	$cc                     ; 0xcc <__zp_bss_size+0x99>
    1ac3: 85 12        	sta	$12                     ; 0x12 <__rc2>
    1ac5: 8a           	txa
    1ac6: 65 cd        	adc	$cd                     ; 0xcd <__zp_bss_size+0x9a>
    1ac8: 85 13        	sta	$13                     ; 0x13 <__rc3>
    1aca: a9 20        	lda	#$20
    1acc: 92 12        	sta	($12)                   ; 0x12 <__rc2>
    1ace: 80 0c        	bra	$1adc <printf+0x841>
    1ad0: a2 01        	ldx	#$1
    1ad2: 86 9b        	stx	$9b                     ; 0x9b <__zp_bss_size+0x68>
    1ad4: ca           	dex
    1ad5: a9 20        	lda	#$20
    1ad7: 20 d5 1f     	jsr	$1fd5 <putchar>
    1ada: a4 9b        	ldy	$9b                     ; 0x9b <__zp_bss_size+0x68>
    1adc: a6 94        	ldx	$94                     ; 0x94 <__zp_bss_size+0x61>
    1ade: 86 12        	stx	$12                     ; 0x12 <__rc2>
    1ae0: a6 c8        	ldx	$c8                     ; 0xc8 <__zp_bss_size+0x95>
    1ae2: a5 c9        	lda	$c9                     ; 0xc9 <__zp_bss_size+0x96>
    1ae4: e8           	inx
    1ae5: d0 01        	bne	$1ae8 <printf+0x84d>
    1ae7: 1a           	inc
    1ae8: 86 15        	stx	$15                     ; 0x15 <__rc5>
    1aea: 86 c8        	stx	$c8                     ; 0xc8 <__zp_bss_size+0x95>
    1aec: 85 c9        	sta	$c9                     ; 0xc9 <__zp_bss_size+0x96>
    1aee: a6 93        	ldx	$93                     ; 0x93 <__zp_bss_size+0x60>
    1af0: e8           	inx
    1af1: d0 02        	bne	$1af5 <printf+0x85a>
    1af3: e6 12        	inc	$12                     ; 0x12 <__rc2>
    1af5: 86 93        	stx	$93                     ; 0x93 <__zp_bss_size+0x60>
    1af7: 5a           	phy
    1af8: a4 12        	ldy	$12                     ; 0x12 <__rc2>
    1afa: 84 94        	sty	$94                     ; 0x94 <__zp_bss_size+0x61>
    1afc: 7a           	ply
    1afd: e6 12        	inc	$12                     ; 0x12 <__rc2>
    1aff: c6 12        	dec	$12                     ; 0x12 <__rc2>
    1b01: d0 04        	bne	$1b07 <printf+0x86c>
    1b03: e0 00        	cpx	#$0
    1b05: f0 12        	beq	$1b19 <printf+0x87e>
    1b07: c5 c7        	cmp	$c7                     ; 0xc7 <__zp_bss_size+0x94>
    1b09: f0 03        	beq	$1b0e <printf+0x873>
    1b0b: 4c 9b 1a     	jmp	$1a9b <printf+0x800>
    1b0e: a6 c6        	ldx	$c6                     ; 0xc6 <__zp_bss_size+0x93>
    1b10: 86 12        	stx	$12                     ; 0x12 <__rc2>
    1b12: a6 15        	ldx	$15                     ; 0x15 <__rc5>
    1b14: e4 12        	cpx	$12                     ; 0x12 <__rc2>
    1b16: 4c 9d 1a     	jmp	$1a9d <printf+0x802>
    1b19: 64 9e        	stz	$9e                     ; 0x9e <__zp_bss_size+0x6b>
    1b1b: 64 94        	stz	$94                     ; 0x94 <__zp_bss_size+0x61>
    1b1d: a6 9d        	ldx	$9d                     ; 0x9d <__zp_bss_size+0x6a>
    1b1f: a5 9c        	lda	$9c                     ; 0x9c <__zp_bss_size+0x69>
    1b21: f0 03        	beq	$1b26 <printf+0x88b>
    1b23: 4c 87 1b     	jmp	$1b87 <printf+0x8ec>
    1b26: a6 c8        	ldx	$c8                     ; 0xc8 <__zp_bss_size+0x95>
    1b28: a5 c9        	lda	$c9                     ; 0xc9 <__zp_bss_size+0x96>
    1b2a: c5 c7        	cmp	$c7                     ; 0xc7 <__zp_bss_size+0x94>
    1b2c: d0 10        	bne	$1b3e <printf+0x8a3>
    1b2e: 86 13        	stx	$13                     ; 0x13 <__rc3>
    1b30: a6 c6        	ldx	$c6                     ; 0xc6 <__zp_bss_size+0x93>
    1b32: 86 12        	stx	$12                     ; 0x12 <__rc2>
    1b34: a6 13        	ldx	$13                     ; 0x13 <__rc3>
    1b36: 86 15        	stx	$15                     ; 0x15 <__rc5>
    1b38: e4 12        	cpx	$12                     ; 0x12 <__rc2>
    1b3a: 90 08        	bcc	$1b44 <printf+0x8a9>
    1b3c: 80 41        	bra	$1b7f <printf+0x8e4>
    1b3e: 86 15        	stx	$15                     ; 0x15 <__rc5>
    1b40: c5 c7        	cmp	$c7                     ; 0xc7 <__zp_bss_size+0x94>
    1b42: b0 3b        	bcs	$1b7f <printf+0x8e4>
    1b44: a2 01        	ldx	#$1
    1b46: 86 14        	stx	$14                     ; 0x14 <__rc4>
    1b48: a6 d3        	ldx	$d3                     ; 0xd3 <__zp_bss_size+0xa0>
    1b4a: a0 00        	ldy	#$0
    1b4c: 84 12        	sty	$12                     ; 0x12 <__rc2>
    1b4e: a0 00        	ldy	#$0
    1b50: 84 13        	sty	$13                     ; 0x13 <__rc3>
    1b52: e4 13        	cpx	$13                     ; 0x13 <__rc3>
    1b54: d0 1d        	bne	$1b73 <printf+0x8d8>
    1b56: a6 d2        	ldx	$d2                     ; 0xd2 <__zp_bss_size+0x9f>
    1b58: e4 12        	cpx	$12                     ; 0x12 <__rc2>
    1b5a: d0 17        	bne	$1b73 <printf+0x8d8>
    1b5c: a4 14        	ldy	$14                     ; 0x14 <__rc4>
    1b5e: 18           	clc
    1b5f: 85 16        	sta	$16                     ; 0x16 <__rc6>
    1b61: a5 15        	lda	$15                     ; 0x15 <__rc5>
    1b63: 65 cc        	adc	$cc                     ; 0xcc <__zp_bss_size+0x99>
    1b65: 85 12        	sta	$12                     ; 0x12 <__rc2>
    1b67: a5 16        	lda	$16                     ; 0x16 <__rc6>
    1b69: 65 cd        	adc	$cd                     ; 0xcd <__zp_bss_size+0x9a>
    1b6b: 85 13        	sta	$13                     ; 0x13 <__rc3>
    1b6d: a5 d9        	lda	$d9                     ; 0xd9 <__zp_bss_size+0xa6>
    1b6f: 92 12        	sta	($12)                   ; 0x12 <__rc2>
    1b71: 80 0c        	bra	$1b7f <printf+0x8e4>
    1b73: a2 01        	ldx	#$1
    1b75: 86 9b        	stx	$9b                     ; 0x9b <__zp_bss_size+0x68>
    1b77: ca           	dex
    1b78: a5 d9        	lda	$d9                     ; 0xd9 <__zp_bss_size+0xa6>
    1b7a: 20 d5 1f     	jsr	$1fd5 <putchar>
    1b7d: a4 9b        	ldy	$9b                     ; 0x9b <__zp_bss_size+0x68>
    1b7f: e6 c8        	inc	$c8                     ; 0xc8 <__zp_bss_size+0x95>
    1b81: d0 02        	bne	$1b85 <printf+0x8ea>
    1b83: e6 c9        	inc	$c9                     ; 0xc9 <__zp_bss_size+0x96>
    1b85: a6 9d        	ldx	$9d                     ; 0x9d <__zp_bss_size+0x6a>
    1b87: a5 99        	lda	$99                     ; 0x99 <__zp_bss_size+0x66>
    1b89: d0 03        	bne	$1b8e <printf+0x8f3>
    1b8b: 4c ef 1b     	jmp	$1bef <printf+0x954>
    1b8e: a6 c8        	ldx	$c8                     ; 0xc8 <__zp_bss_size+0x95>
    1b90: a5 c9        	lda	$c9                     ; 0xc9 <__zp_bss_size+0x96>
    1b92: c5 c7        	cmp	$c7                     ; 0xc7 <__zp_bss_size+0x94>
    1b94: d0 10        	bne	$1ba6 <printf+0x90b>
    1b96: 86 13        	stx	$13                     ; 0x13 <__rc3>
    1b98: a6 c6        	ldx	$c6                     ; 0xc6 <__zp_bss_size+0x93>
    1b9a: 86 12        	stx	$12                     ; 0x12 <__rc2>
    1b9c: a6 13        	ldx	$13                     ; 0x13 <__rc3>
    1b9e: 86 15        	stx	$15                     ; 0x15 <__rc5>
    1ba0: e4 12        	cpx	$12                     ; 0x12 <__rc2>
    1ba2: 90 08        	bcc	$1bac <printf+0x911>
    1ba4: 80 41        	bra	$1be7 <printf+0x94c>
    1ba6: 86 15        	stx	$15                     ; 0x15 <__rc5>
    1ba8: c5 c7        	cmp	$c7                     ; 0xc7 <__zp_bss_size+0x94>
    1baa: b0 3b        	bcs	$1be7 <printf+0x94c>
    1bac: a2 01        	ldx	#$1
    1bae: 86 14        	stx	$14                     ; 0x14 <__rc4>
    1bb0: a6 d3        	ldx	$d3                     ; 0xd3 <__zp_bss_size+0xa0>
    1bb2: a0 00        	ldy	#$0
    1bb4: 84 12        	sty	$12                     ; 0x12 <__rc2>
    1bb6: a0 00        	ldy	#$0
    1bb8: 84 13        	sty	$13                     ; 0x13 <__rc3>
    1bba: e4 13        	cpx	$13                     ; 0x13 <__rc3>
    1bbc: d0 1d        	bne	$1bdb <printf+0x940>
    1bbe: a6 d2        	ldx	$d2                     ; 0xd2 <__zp_bss_size+0x9f>
    1bc0: e4 12        	cpx	$12                     ; 0x12 <__rc2>
    1bc2: d0 17        	bne	$1bdb <printf+0x940>
    1bc4: a4 14        	ldy	$14                     ; 0x14 <__rc4>
    1bc6: 18           	clc
    1bc7: 85 16        	sta	$16                     ; 0x16 <__rc6>
    1bc9: a5 15        	lda	$15                     ; 0x15 <__rc5>
    1bcb: 65 cc        	adc	$cc                     ; 0xcc <__zp_bss_size+0x99>
    1bcd: 85 12        	sta	$12                     ; 0x12 <__rc2>
    1bcf: a5 16        	lda	$16                     ; 0x16 <__rc6>
    1bd1: 65 cd        	adc	$cd                     ; 0xcd <__zp_bss_size+0x9a>
    1bd3: 85 13        	sta	$13                     ; 0x13 <__rc3>
    1bd5: a5 dd        	lda	$dd                     ; 0xdd <__zp_bss_size+0xaa>
    1bd7: 92 12        	sta	($12)                   ; 0x12 <__rc2>
    1bd9: 80 0c        	bra	$1be7 <printf+0x94c>
    1bdb: a2 01        	ldx	#$1
    1bdd: 86 9b        	stx	$9b                     ; 0x9b <__zp_bss_size+0x68>
    1bdf: ca           	dex
    1be0: a5 dd        	lda	$dd                     ; 0xdd <__zp_bss_size+0xaa>
    1be2: 20 d5 1f     	jsr	$1fd5 <putchar>
    1be5: a4 9b        	ldy	$9b                     ; 0x9b <__zp_bss_size+0x68>
    1be7: e6 c8        	inc	$c8                     ; 0xc8 <__zp_bss_size+0x95>
    1be9: d0 02        	bne	$1bed <printf+0x952>
    1beb: e6 c9        	inc	$c9                     ; 0xc9 <__zp_bss_size+0x96>
    1bed: a6 9d        	ldx	$9d                     ; 0x9d <__zp_bss_size+0x6a>
    1bef: a9 10        	lda	#$10
    1bf1: 25 c4        	and	$c4                     ; 0xc4 <__zp_bss_size+0x91>
    1bf3: d0 07        	bne	$1bfc <printf+0x961>
    1bf5: a5 d8        	lda	$d8                     ; 0xd8 <__zp_bss_size+0xa5>
    1bf7: 85 9c        	sta	$9c                     ; 0x9c <__zp_bss_size+0x69>
    1bf9: 4c ae 1c     	jmp	$1cae <printf+0xa13>
    1bfc: 86 13        	stx	$13                     ; 0x13 <__rc3>
    1bfe: a5 c4        	lda	$c4                     ; 0xc4 <__zp_bss_size+0x91>
    1c00: 29 01        	and	#$1
    1c02: a6 d8        	ldx	$d8                     ; 0xd8 <__zp_bss_size+0xa5>
    1c04: 86 9c        	stx	$9c                     ; 0x9c <__zp_bss_size+0x69>
    1c06: aa           	tax
    1c07: f0 03        	beq	$1c0c <printf+0x971>
    1c09: 4c a4 1c     	jmp	$1ca4 <printf+0xa09>
    1c0c: a5 9e        	lda	$9e                     ; 0x9e <__zp_bss_size+0x6b>
    1c0e: a6 94        	ldx	$94                     ; 0x94 <__zp_bss_size+0x61>
    1c10: 86 12        	stx	$12                     ; 0x12 <__rc2>
    1c12: a6 12        	ldx	$12                     ; 0x12 <__rc2>
    1c14: d0 06        	bne	$1c1c <printf+0x981>
    1c16: aa           	tax
    1c17: d0 03        	bne	$1c1c <printf+0x981>
    1c19: 4c cb 1f     	jmp	$1fcb <printf+0xd30>
    1c1c: a6 c8        	ldx	$c8                     ; 0xc8 <__zp_bss_size+0x95>
    1c1e: 86 15        	stx	$15                     ; 0x15 <__rc5>
    1c20: a5 c9        	lda	$c9                     ; 0xc9 <__zp_bss_size+0x96>
    1c22: 4c 90 1c     	jmp	$1c90 <printf+0x9f5>
    1c25: c5 c7        	cmp	$c7                     ; 0xc7 <__zp_bss_size+0x94>
    1c27: b0 39        	bcs	$1c62 <printf+0x9c7>
    1c29: a2 01        	ldx	#$1
    1c2b: 86 14        	stx	$14                     ; 0x14 <__rc4>
    1c2d: a6 d3        	ldx	$d3                     ; 0xd3 <__zp_bss_size+0xa0>
    1c2f: a0 00        	ldy	#$0
    1c31: 84 12        	sty	$12                     ; 0x12 <__rc2>
    1c33: a0 00        	ldy	#$0
    1c35: 84 13        	sty	$13                     ; 0x13 <__rc3>
    1c37: e4 13        	cpx	$13                     ; 0x13 <__rc3>
    1c39: d0 1b        	bne	$1c56 <printf+0x9bb>
    1c3b: a6 d2        	ldx	$d2                     ; 0xd2 <__zp_bss_size+0x9f>
    1c3d: e4 12        	cpx	$12                     ; 0x12 <__rc2>
    1c3f: d0 15        	bne	$1c56 <printf+0x9bb>
    1c41: a4 14        	ldy	$14                     ; 0x14 <__rc4>
    1c43: 18           	clc
    1c44: aa           	tax
    1c45: a5 15        	lda	$15                     ; 0x15 <__rc5>
    1c47: 65 cc        	adc	$cc                     ; 0xcc <__zp_bss_size+0x99>
    1c49: 85 12        	sta	$12                     ; 0x12 <__rc2>
    1c4b: 8a           	txa
    1c4c: 65 cd        	adc	$cd                     ; 0xcd <__zp_bss_size+0x9a>
    1c4e: 85 13        	sta	$13                     ; 0x13 <__rc3>
    1c50: a9 30        	lda	#$30
    1c52: 92 12        	sta	($12)                   ; 0x12 <__rc2>
    1c54: 80 0c        	bra	$1c62 <printf+0x9c7>
    1c56: a2 01        	ldx	#$1
    1c58: 86 9b        	stx	$9b                     ; 0x9b <__zp_bss_size+0x68>
    1c5a: ca           	dex
    1c5b: a9 30        	lda	#$30
    1c5d: 20 d5 1f     	jsr	$1fd5 <putchar>
    1c60: a4 9b        	ldy	$9b                     ; 0x9b <__zp_bss_size+0x68>
    1c62: a6 c8        	ldx	$c8                     ; 0xc8 <__zp_bss_size+0x95>
    1c64: a5 c9        	lda	$c9                     ; 0xc9 <__zp_bss_size+0x96>
    1c66: e8           	inx
    1c67: d0 01        	bne	$1c6a <printf+0x9cf>
    1c69: 1a           	inc
    1c6a: 86 15        	stx	$15                     ; 0x15 <__rc5>
    1c6c: 86 c8        	stx	$c8                     ; 0xc8 <__zp_bss_size+0x95>
    1c6e: 85 c9        	sta	$c9                     ; 0xc9 <__zp_bss_size+0x96>
    1c70: a6 9e        	ldx	$9e                     ; 0x9e <__zp_bss_size+0x6b>
    1c72: 86 12        	stx	$12                     ; 0x12 <__rc2>
    1c74: a6 94        	ldx	$94                     ; 0x94 <__zp_bss_size+0x61>
    1c76: 86 13        	stx	$13                     ; 0x13 <__rc3>
    1c78: a2 ff        	ldx	#$ff
    1c7a: c6 12        	dec	$12                     ; 0x12 <__rc2>
    1c7c: e4 12        	cpx	$12                     ; 0x12 <__rc2>
    1c7e: d0 02        	bne	$1c82 <printf+0x9e7>
    1c80: c6 13        	dec	$13                     ; 0x13 <__rc3>
    1c82: a6 12        	ldx	$12                     ; 0x12 <__rc2>
    1c84: 86 9e        	stx	$9e                     ; 0x9e <__zp_bss_size+0x6b>
    1c86: a6 13        	ldx	$13                     ; 0x13 <__rc3>
    1c88: 86 94        	stx	$94                     ; 0x94 <__zp_bss_size+0x61>
    1c8a: d0 04        	bne	$1c90 <printf+0x9f5>
    1c8c: a6 12        	ldx	$12                     ; 0x12 <__rc2>
    1c8e: f0 18        	beq	$1ca8 <printf+0xa0d>
    1c90: c5 c7        	cmp	$c7                     ; 0xc7 <__zp_bss_size+0x94>
    1c92: f0 03        	beq	$1c97 <printf+0x9fc>
    1c94: 4c 25 1c     	jmp	$1c25 <printf+0x98a>
    1c97: a6 c6        	ldx	$c6                     ; 0xc6 <__zp_bss_size+0x93>
    1c99: 86 12        	stx	$12                     ; 0x12 <__rc2>
    1c9b: a6 15        	ldx	$15                     ; 0x15 <__rc5>
    1c9d: e4 12        	cpx	$12                     ; 0x12 <__rc2>
    1c9f: b0 c1        	bcs	$1c62 <printf+0x9c7>
    1ca1: 4c 29 1c     	jmp	$1c29 <printf+0x98e>
    1ca4: a6 13        	ldx	$13                     ; 0x13 <__rc3>
    1ca6: 80 06        	bra	$1cae <printf+0xa13>
    1ca8: 64 9e        	stz	$9e                     ; 0x9e <__zp_bss_size+0x6b>
    1caa: 64 94        	stz	$94                     ; 0x94 <__zp_bss_size+0x61>
    1cac: a6 9d        	ldx	$9d                     ; 0x9d <__zp_bss_size+0x6a>
    1cae: a9 00        	lda	#$0
    1cb0: c5 9a        	cmp	$9a                     ; 0x9a <__zp_bss_size+0x67>
    1cb2: d0 07        	bne	$1cbb <printf+0xa20>
    1cb4: e4 9c        	cpx	$9c                     ; 0x9c <__zp_bss_size+0x69>
    1cb6: 90 0a        	bcc	$1cc2 <printf+0xa27>
    1cb8: 4c 45 1d     	jmp	$1d45 <printf+0xaaa>
    1cbb: c5 9a        	cmp	$9a                     ; 0x9a <__zp_bss_size+0x67>
    1cbd: 90 03        	bcc	$1cc2 <printf+0xa27>
    1cbf: 4c 45 1d     	jmp	$1d45 <printf+0xaaa>
    1cc2: a6 c8        	ldx	$c8                     ; 0xc8 <__zp_bss_size+0x95>
    1cc4: 86 15        	stx	$15                     ; 0x15 <__rc5>
    1cc6: a5 c9        	lda	$c9                     ; 0xc9 <__zp_bss_size+0x96>
    1cc8: a2 ff        	ldx	#$ff
    1cca: c6 9c        	dec	$9c                     ; 0x9c <__zp_bss_size+0x69>
    1ccc: e4 9c        	cpx	$9c                     ; 0x9c <__zp_bss_size+0x69>
    1cce: d0 02        	bne	$1cd2 <printf+0xa37>
    1cd0: c6 9a        	dec	$9a                     ; 0x9a <__zp_bss_size+0x67>
    1cd2: c5 c7        	cmp	$c7                     ; 0xc7 <__zp_bss_size+0x94>
    1cd4: d0 0c        	bne	$1ce2 <printf+0xa47>
    1cd6: a6 c6        	ldx	$c6                     ; 0xc6 <__zp_bss_size+0x93>
    1cd8: 86 12        	stx	$12                     ; 0x12 <__rc2>
    1cda: a6 15        	ldx	$15                     ; 0x15 <__rc5>
    1cdc: e4 12        	cpx	$12                     ; 0x12 <__rc2>
    1cde: 90 06        	bcc	$1ce6 <printf+0xa4b>
    1ce0: 80 3d        	bra	$1d1f <printf+0xa84>
    1ce2: c5 c7        	cmp	$c7                     ; 0xc7 <__zp_bss_size+0x94>
    1ce4: b0 39        	bcs	$1d1f <printf+0xa84>
    1ce6: a2 01        	ldx	#$1
    1ce8: 86 14        	stx	$14                     ; 0x14 <__rc4>
    1cea: a6 d3        	ldx	$d3                     ; 0xd3 <__zp_bss_size+0xa0>
    1cec: a0 00        	ldy	#$0
    1cee: 84 12        	sty	$12                     ; 0x12 <__rc2>
    1cf0: a0 00        	ldy	#$0
    1cf2: 84 13        	sty	$13                     ; 0x13 <__rc3>
    1cf4: e4 13        	cpx	$13                     ; 0x13 <__rc3>
    1cf6: d0 1b        	bne	$1d13 <printf+0xa78>
    1cf8: a6 d2        	ldx	$d2                     ; 0xd2 <__zp_bss_size+0x9f>
    1cfa: e4 12        	cpx	$12                     ; 0x12 <__rc2>
    1cfc: d0 15        	bne	$1d13 <printf+0xa78>
    1cfe: a4 14        	ldy	$14                     ; 0x14 <__rc4>
    1d00: 18           	clc
    1d01: aa           	tax
    1d02: a5 15        	lda	$15                     ; 0x15 <__rc5>
    1d04: 65 cc        	adc	$cc                     ; 0xcc <__zp_bss_size+0x99>
    1d06: 85 12        	sta	$12                     ; 0x12 <__rc2>
    1d08: 8a           	txa
    1d09: 65 cd        	adc	$cd                     ; 0xcd <__zp_bss_size+0x9a>
    1d0b: 85 13        	sta	$13                     ; 0x13 <__rc3>
    1d0d: a9 30        	lda	#$30
    1d0f: 92 12        	sta	($12)                   ; 0x12 <__rc2>
    1d11: 80 0c        	bra	$1d1f <printf+0xa84>
    1d13: a2 01        	ldx	#$1
    1d15: 86 9b        	stx	$9b                     ; 0x9b <__zp_bss_size+0x68>
    1d17: ca           	dex
    1d18: a9 30        	lda	#$30
    1d1a: 20 d5 1f     	jsr	$1fd5 <putchar>
    1d1d: a4 9b        	ldy	$9b                     ; 0x9b <__zp_bss_size+0x68>
    1d1f: a6 c8        	ldx	$c8                     ; 0xc8 <__zp_bss_size+0x95>
    1d21: a5 c9        	lda	$c9                     ; 0xc9 <__zp_bss_size+0x96>
    1d23: e8           	inx
    1d24: d0 01        	bne	$1d27 <printf+0xa8c>
    1d26: 1a           	inc
    1d27: 86 15        	stx	$15                     ; 0x15 <__rc5>
    1d29: 86 c8        	stx	$c8                     ; 0xc8 <__zp_bss_size+0x95>
    1d2b: 85 c9        	sta	$c9                     ; 0xc9 <__zp_bss_size+0x96>
    1d2d: a2 00        	ldx	#$0
    1d2f: e4 9a        	cpx	$9a                     ; 0x9a <__zp_bss_size+0x67>
    1d31: d0 09        	bne	$1d3c <printf+0xaa1>
    1d33: a6 9d        	ldx	$9d                     ; 0x9d <__zp_bss_size+0x6a>
    1d35: e4 9c        	cpx	$9c                     ; 0x9c <__zp_bss_size+0x69>
    1d37: b0 0c        	bcs	$1d45 <printf+0xaaa>
    1d39: 4c c8 1c     	jmp	$1cc8 <printf+0xa2d>
    1d3c: e4 9a        	cpx	$9a                     ; 0x9a <__zp_bss_size+0x67>
    1d3e: a6 9d        	ldx	$9d                     ; 0x9d <__zp_bss_size+0x6a>
    1d40: b0 03        	bcs	$1d45 <printf+0xaaa>
    1d42: 4c c8 1c     	jmp	$1cc8 <printf+0xa2d>
    1d45: 8a           	txa
    1d46: d0 03        	bne	$1d4b <printf+0xab0>
    1d48: 4c 7c 1e     	jmp	$1e7c <printf+0xbe1>
    1d4b: ca           	dex
    1d4c: d0 03        	bne	$1d51 <printf+0xab6>
    1d4e: 4c fe 1d     	jmp	$1dfe <printf+0xb63>
    1d51: 86 9b        	stx	$9b                     ; 0x9b <__zp_bss_size+0x68>
    1d53: a6 df        	ldx	$df                     ; 0xdf <__zp_bss_size+0xac>
    1d55: 8a           	txa
    1d56: 18           	clc
    1d57: 65 9b        	adc	$9b                     ; 0x9b <__zp_bss_size+0x68>
    1d59: 85 99        	sta	$99                     ; 0x99 <__zp_bss_size+0x66>
    1d5b: a5 e0        	lda	$e0                     ; 0xe0 <__zp_bss_size+0xad>
    1d5d: 69 00        	adc	#$0
    1d5f: 85 9a        	sta	$9a                     ; 0x9a <__zp_bss_size+0x67>
    1d61: 4c ec 1d     	jmp	$1dec <printf+0xb51>
    1d64: 85 13        	sta	$13                     ; 0x13 <__rc3>
    1d66: a9 80        	lda	#$80
    1d68: 25 c4        	and	$c4                     ; 0xc4 <__zp_bss_size+0x91>
    1d6a: f0 04        	beq	$1d70 <printf+0xad5>
    1d6c: a2 61        	ldx	#$61
    1d6e: 80 02        	bra	$1d72 <printf+0xad7>
    1d70: a2 41        	ldx	#$41
    1d72: 86 12        	stx	$12                     ; 0x12 <__rc2>
    1d74: a2 01        	ldx	#$1
    1d76: 86 14        	stx	$14                     ; 0x14 <__rc4>
    1d78: 18           	clc
    1d79: a5 13        	lda	$13                     ; 0x13 <__rc3>
    1d7b: 65 12        	adc	$12                     ; 0x12 <__rc2>
    1d7d: 18           	clc
    1d7e: 69 f6        	adc	#$f6
    1d80: a4 c8        	ldy	$c8                     ; 0xc8 <__zp_bss_size+0x95>
    1d82: a6 c9        	ldx	$c9                     ; 0xc9 <__zp_bss_size+0x96>
    1d84: e4 c7        	cpx	$c7                     ; 0xc7 <__zp_bss_size+0x94>
    1d86: d0 0c        	bne	$1d94 <printf+0xaf9>
    1d88: 86 16        	stx	$16                     ; 0x16 <__rc6>
    1d8a: a6 c6        	ldx	$c6                     ; 0xc6 <__zp_bss_size+0x93>
    1d8c: 86 12        	stx	$12                     ; 0x12 <__rc2>
    1d8e: 84 15        	sty	$15                     ; 0x15 <__rc5>
    1d90: c4 12        	cpy	$12                     ; 0x12 <__rc2>
    1d92: 80 06        	bra	$1d9a <printf+0xaff>
    1d94: 84 15        	sty	$15                     ; 0x15 <__rc5>
    1d96: 86 16        	stx	$16                     ; 0x16 <__rc6>
    1d98: e4 c7        	cpx	$c7                     ; 0xc7 <__zp_bss_size+0x94>
    1d9a: a4 14        	ldy	$14                     ; 0x14 <__rc4>
    1d9c: b0 38        	bcs	$1dd6 <printf+0xb3b>
    1d9e: 85 14        	sta	$14                     ; 0x14 <__rc4>
    1da0: a9 01        	lda	#$1
    1da2: a6 d3        	ldx	$d3                     ; 0xd3 <__zp_bss_size+0xa0>
    1da4: a0 00        	ldy	#$0
    1da6: 84 12        	sty	$12                     ; 0x12 <__rc2>
    1da8: a0 00        	ldy	#$0
    1daa: 84 13        	sty	$13                     ; 0x13 <__rc3>
    1dac: e4 13        	cpx	$13                     ; 0x13 <__rc3>
    1dae: d0 1a        	bne	$1dca <printf+0xb2f>
    1db0: a6 d2        	ldx	$d2                     ; 0xd2 <__zp_bss_size+0x9f>
    1db2: e4 12        	cpx	$12                     ; 0x12 <__rc2>
    1db4: d0 14        	bne	$1dca <printf+0xb2f>
    1db6: a8           	tay
    1db7: 18           	clc
    1db8: a5 15        	lda	$15                     ; 0x15 <__rc5>
    1dba: 65 cc        	adc	$cc                     ; 0xcc <__zp_bss_size+0x99>
    1dbc: 85 12        	sta	$12                     ; 0x12 <__rc2>
    1dbe: a5 16        	lda	$16                     ; 0x16 <__rc6>
    1dc0: 65 cd        	adc	$cd                     ; 0xcd <__zp_bss_size+0x9a>
    1dc2: 85 13        	sta	$13                     ; 0x13 <__rc3>
    1dc4: a5 14        	lda	$14                     ; 0x14 <__rc4>
    1dc6: 92 12        	sta	($12)                   ; 0x12 <__rc2>
    1dc8: 80 0c        	bra	$1dd6 <printf+0xb3b>
    1dca: a2 01        	ldx	#$1
    1dcc: 86 9c        	stx	$9c                     ; 0x9c <__zp_bss_size+0x69>
    1dce: ca           	dex
    1dcf: a5 14        	lda	$14                     ; 0x14 <__rc4>
    1dd1: 20 d5 1f     	jsr	$1fd5 <putchar>
    1dd4: a4 9c        	ldy	$9c                     ; 0x9c <__zp_bss_size+0x69>
    1dd6: e6 c8        	inc	$c8                     ; 0xc8 <__zp_bss_size+0x95>
    1dd8: d0 02        	bne	$1ddc <printf+0xb41>
    1dda: e6 c9        	inc	$c9                     ; 0xc9 <__zp_bss_size+0x96>
    1ddc: c6 9b        	dec	$9b                     ; 0x9b <__zp_bss_size+0x68>
    1dde: a2 ff        	ldx	#$ff
    1de0: c6 99        	dec	$99                     ; 0x99 <__zp_bss_size+0x66>
    1de2: e4 99        	cpx	$99                     ; 0x99 <__zp_bss_size+0x66>
    1de4: d0 02        	bne	$1de8 <printf+0xb4d>
    1de6: c6 9a        	dec	$9a                     ; 0x9a <__zp_bss_size+0x67>
    1de8: a5 9b        	lda	$9b                     ; 0x9b <__zp_bss_size+0x68>
    1dea: f0 12        	beq	$1dfe <printf+0xb63>
    1dec: b2 99        	lda	($99)                   ; 0x99 <__zp_bss_size+0x66>
    1dee: c9 0a        	cmp	#$a
    1df0: 90 03        	bcc	$1df5 <printf+0xb5a>
    1df2: 4c 64 1d     	jmp	$1d64 <printf+0xac9>
    1df5: a2 01        	ldx	#$1
    1df7: 86 14        	stx	$14                     ; 0x14 <__rc4>
    1df9: 09 30        	ora	#$30
    1dfb: 4c 80 1d     	jmp	$1d80 <printf+0xae5>
    1dfe: a5 a1        	lda	$a1                     ; 0xa1 <__zp_bss_size+0x6e>
    1e00: c9 0a        	cmp	#$a
    1e02: b0 04        	bcs	$1e08 <printf+0xb6d>
    1e04: 09 30        	ora	#$30
    1e06: 80 18        	bra	$1e20 <printf+0xb85>
    1e08: 85 13        	sta	$13                     ; 0x13 <__rc3>
    1e0a: a9 80        	lda	#$80
    1e0c: 25 c4        	and	$c4                     ; 0xc4 <__zp_bss_size+0x91>
    1e0e: f0 04        	beq	$1e14 <printf+0xb79>
    1e10: a2 61        	ldx	#$61
    1e12: 80 02        	bra	$1e16 <printf+0xb7b>
    1e14: a2 41        	ldx	#$41
    1e16: 86 12        	stx	$12                     ; 0x12 <__rc2>
    1e18: 18           	clc
    1e19: a5 13        	lda	$13                     ; 0x13 <__rc3>
    1e1b: 65 12        	adc	$12                     ; 0x12 <__rc2>
    1e1d: 18           	clc
    1e1e: 69 f6        	adc	#$f6
    1e20: a6 c8        	ldx	$c8                     ; 0xc8 <__zp_bss_size+0x95>
    1e22: 86 15        	stx	$15                     ; 0x15 <__rc5>
    1e24: a6 c9        	ldx	$c9                     ; 0xc9 <__zp_bss_size+0x96>
    1e26: e4 c7        	cpx	$c7                     ; 0xc7 <__zp_bss_size+0x94>
    1e28: d0 0e        	bne	$1e38 <printf+0xb9d>
    1e2a: 86 16        	stx	$16                     ; 0x16 <__rc6>
    1e2c: a6 c6        	ldx	$c6                     ; 0xc6 <__zp_bss_size+0x93>
    1e2e: 86 12        	stx	$12                     ; 0x12 <__rc2>
    1e30: a6 15        	ldx	$15                     ; 0x15 <__rc5>
    1e32: e4 12        	cpx	$12                     ; 0x12 <__rc2>
    1e34: 90 08        	bcc	$1e3e <printf+0xba3>
    1e36: 80 3e        	bra	$1e76 <printf+0xbdb>
    1e38: 86 16        	stx	$16                     ; 0x16 <__rc6>
    1e3a: e4 c7        	cpx	$c7                     ; 0xc7 <__zp_bss_size+0x94>
    1e3c: b0 38        	bcs	$1e76 <printf+0xbdb>
    1e3e: 85 14        	sta	$14                     ; 0x14 <__rc4>
    1e40: a9 01        	lda	#$1
    1e42: a6 d3        	ldx	$d3                     ; 0xd3 <__zp_bss_size+0xa0>
    1e44: a0 00        	ldy	#$0
    1e46: 84 12        	sty	$12                     ; 0x12 <__rc2>
    1e48: a0 00        	ldy	#$0
    1e4a: 84 13        	sty	$13                     ; 0x13 <__rc3>
    1e4c: e4 13        	cpx	$13                     ; 0x13 <__rc3>
    1e4e: d0 1a        	bne	$1e6a <printf+0xbcf>
    1e50: a6 d2        	ldx	$d2                     ; 0xd2 <__zp_bss_size+0x9f>
    1e52: e4 12        	cpx	$12                     ; 0x12 <__rc2>
    1e54: d0 14        	bne	$1e6a <printf+0xbcf>
    1e56: a8           	tay
    1e57: 18           	clc
    1e58: a5 15        	lda	$15                     ; 0x15 <__rc5>
    1e5a: 65 cc        	adc	$cc                     ; 0xcc <__zp_bss_size+0x99>
    1e5c: 85 12        	sta	$12                     ; 0x12 <__rc2>
    1e5e: a5 16        	lda	$16                     ; 0x16 <__rc6>
    1e60: 65 cd        	adc	$cd                     ; 0xcd <__zp_bss_size+0x9a>
    1e62: 85 13        	sta	$13                     ; 0x13 <__rc3>
    1e64: a5 14        	lda	$14                     ; 0x14 <__rc4>
    1e66: 92 12        	sta	($12)                   ; 0x12 <__rc2>
    1e68: 80 0c        	bra	$1e76 <printf+0xbdb>
    1e6a: a2 01        	ldx	#$1
    1e6c: 86 99        	stx	$99                     ; 0x99 <__zp_bss_size+0x66>
    1e6e: ca           	dex
    1e6f: a5 14        	lda	$14                     ; 0x14 <__rc4>
    1e71: 20 d5 1f     	jsr	$1fd5 <putchar>
    1e74: a4 99        	ldy	$99                     ; 0x99 <__zp_bss_size+0x66>
    1e76: e6 c8        	inc	$c8                     ; 0xc8 <__zp_bss_size+0x95>
    1e78: d0 02        	bne	$1e7c <printf+0xbe1>
    1e7a: e6 c9        	inc	$c9                     ; 0xc9 <__zp_bss_size+0x96>
    1e7c: a5 c4        	lda	$c4                     ; 0xc4 <__zp_bss_size+0x91>
    1e7e: 29 01        	and	#$1
    1e80: d0 27        	bne	$1ea9 <printf+0xc0e>
    1e82: a6 c8        	ldx	$c8                     ; 0xc8 <__zp_bss_size+0x95>
    1e84: 86 15        	stx	$15                     ; 0x15 <__rc5>
    1e86: a5 c9        	lda	$c9                     ; 0xc9 <__zp_bss_size+0x96>
    1e88: a6 c6        	ldx	$c6                     ; 0xc6 <__zp_bss_size+0x93>
    1e8a: 86 14        	stx	$14                     ; 0x14 <__rc4>
    1e8c: a6 c7        	ldx	$c7                     ; 0xc7 <__zp_bss_size+0x94>
    1e8e: 86 12        	stx	$12                     ; 0x12 <__rc2>
    1e90: 86 13        	stx	$13                     ; 0x13 <__rc3>
    1e92: c5 12        	cmp	$12                     ; 0x12 <__rc2>
    1e94: f0 03        	beq	$1e99 <printf+0xbfe>
    1e96: 4c 49 1f     	jmp	$1f49 <printf+0xcae>
    1e99: a5 14        	lda	$14                     ; 0x14 <__rc4>
    1e9b: 85 12        	sta	$12                     ; 0x12 <__rc2>
    1e9d: a6 15        	ldx	$15                     ; 0x15 <__rc5>
    1e9f: e4 12        	cpx	$12                     ; 0x12 <__rc2>
    1ea1: 90 03        	bcc	$1ea6 <printf+0xc0b>
    1ea3: 4c 51 1f     	jmp	$1f51 <printf+0xcb6>
    1ea6: 4c 71 1f     	jmp	$1f71 <printf+0xcd6>
    1ea9: a6 c8        	ldx	$c8                     ; 0xc8 <__zp_bss_size+0x95>
    1eab: 86 15        	stx	$15                     ; 0x15 <__rc5>
    1ead: a5 c9        	lda	$c9                     ; 0xc9 <__zp_bss_size+0x96>
    1eaf: a6 9e        	ldx	$9e                     ; 0x9e <__zp_bss_size+0x6b>
    1eb1: 5a           	phy
    1eb2: a4 94        	ldy	$94                     ; 0x94 <__zp_bss_size+0x61>
    1eb4: 84 12        	sty	$12                     ; 0x12 <__rc2>
    1eb6: 7a           	ply
    1eb7: e6 12        	inc	$12                     ; 0x12 <__rc2>
    1eb9: c6 12        	dec	$12                     ; 0x12 <__rc2>
    1ebb: f0 03        	beq	$1ec0 <printf+0xc25>
    1ebd: 4c 35 1f     	jmp	$1f35 <printf+0xc9a>
    1ec0: e0 00        	cpx	#$0
    1ec2: f0 c4        	beq	$1e88 <printf+0xbed>
    1ec4: 4c 35 1f     	jmp	$1f35 <printf+0xc9a>
    1ec7: c5 c7        	cmp	$c7                     ; 0xc7 <__zp_bss_size+0x94>
    1ec9: b0 39        	bcs	$1f04 <printf+0xc69>
    1ecb: a2 01        	ldx	#$1
    1ecd: 86 14        	stx	$14                     ; 0x14 <__rc4>
    1ecf: a6 d3        	ldx	$d3                     ; 0xd3 <__zp_bss_size+0xa0>
    1ed1: a0 00        	ldy	#$0
    1ed3: 84 12        	sty	$12                     ; 0x12 <__rc2>
    1ed5: a0 00        	ldy	#$0
    1ed7: 84 13        	sty	$13                     ; 0x13 <__rc3>
    1ed9: e4 13        	cpx	$13                     ; 0x13 <__rc3>
    1edb: d0 1b        	bne	$1ef8 <printf+0xc5d>
    1edd: a6 d2        	ldx	$d2                     ; 0xd2 <__zp_bss_size+0x9f>
    1edf: e4 12        	cpx	$12                     ; 0x12 <__rc2>
    1ee1: d0 15        	bne	$1ef8 <printf+0xc5d>
    1ee3: a4 14        	ldy	$14                     ; 0x14 <__rc4>
    1ee5: 18           	clc
    1ee6: aa           	tax
    1ee7: a5 15        	lda	$15                     ; 0x15 <__rc5>
    1ee9: 65 cc        	adc	$cc                     ; 0xcc <__zp_bss_size+0x99>
    1eeb: 85 12        	sta	$12                     ; 0x12 <__rc2>
    1eed: 8a           	txa
    1eee: 65 cd        	adc	$cd                     ; 0xcd <__zp_bss_size+0x9a>
    1ef0: 85 13        	sta	$13                     ; 0x13 <__rc3>
    1ef2: a9 20        	lda	#$20
    1ef4: 92 12        	sta	($12)                   ; 0x12 <__rc2>
    1ef6: 80 0c        	bra	$1f04 <printf+0xc69>
    1ef8: a2 01        	ldx	#$1
    1efa: 86 99        	stx	$99                     ; 0x99 <__zp_bss_size+0x66>
    1efc: ca           	dex
    1efd: a9 20        	lda	#$20
    1eff: 20 d5 1f     	jsr	$1fd5 <putchar>
    1f02: a4 99        	ldy	$99                     ; 0x99 <__zp_bss_size+0x66>
    1f04: a6 c8        	ldx	$c8                     ; 0xc8 <__zp_bss_size+0x95>
    1f06: a5 c9        	lda	$c9                     ; 0xc9 <__zp_bss_size+0x96>
    1f08: e8           	inx
    1f09: d0 01        	bne	$1f0c <printf+0xc71>
    1f0b: 1a           	inc
    1f0c: 86 15        	stx	$15                     ; 0x15 <__rc5>
    1f0e: 86 c8        	stx	$c8                     ; 0xc8 <__zp_bss_size+0x95>
    1f10: 85 c9        	sta	$c9                     ; 0xc9 <__zp_bss_size+0x96>
    1f12: a6 9e        	ldx	$9e                     ; 0x9e <__zp_bss_size+0x6b>
    1f14: 86 12        	stx	$12                     ; 0x12 <__rc2>
    1f16: a6 94        	ldx	$94                     ; 0x94 <__zp_bss_size+0x61>
    1f18: 86 13        	stx	$13                     ; 0x13 <__rc3>
    1f1a: a2 ff        	ldx	#$ff
    1f1c: c6 12        	dec	$12                     ; 0x12 <__rc2>
    1f1e: e4 12        	cpx	$12                     ; 0x12 <__rc2>
    1f20: d0 02        	bne	$1f24 <printf+0xc89>
    1f22: c6 13        	dec	$13                     ; 0x13 <__rc3>
    1f24: a6 12        	ldx	$12                     ; 0x12 <__rc2>
    1f26: 86 9e        	stx	$9e                     ; 0x9e <__zp_bss_size+0x6b>
    1f28: a6 13        	ldx	$13                     ; 0x13 <__rc3>
    1f2a: 86 94        	stx	$94                     ; 0x94 <__zp_bss_size+0x61>
    1f2c: d0 07        	bne	$1f35 <printf+0xc9a>
    1f2e: a6 12        	ldx	$12                     ; 0x12 <__rc2>
    1f30: d0 03        	bne	$1f35 <printf+0xc9a>
    1f32: 4c 88 1e     	jmp	$1e88 <printf+0xbed>
    1f35: c5 c7        	cmp	$c7                     ; 0xc7 <__zp_bss_size+0x94>
    1f37: f0 03        	beq	$1f3c <printf+0xca1>
    1f39: 4c c7 1e     	jmp	$1ec7 <printf+0xc2c>
    1f3c: a6 c6        	ldx	$c6                     ; 0xc6 <__zp_bss_size+0x93>
    1f3e: 86 12        	stx	$12                     ; 0x12 <__rc2>
    1f40: a6 15        	ldx	$15                     ; 0x15 <__rc5>
    1f42: e4 12        	cpx	$12                     ; 0x12 <__rc2>
    1f44: b0 be        	bcs	$1f04 <printf+0xc69>
    1f46: 4c cb 1e     	jmp	$1ecb <printf+0xc30>
    1f49: 86 12        	stx	$12                     ; 0x12 <__rc2>
    1f4b: c5 12        	cmp	$12                     ; 0x12 <__rc2>
    1f4d: a5 14        	lda	$14                     ; 0x14 <__rc4>
    1f4f: 90 20        	bcc	$1f71 <printf+0xcd6>
    1f51: a6 13        	ldx	$13                     ; 0x13 <__rc3>
    1f53: d0 03        	bne	$1f58 <printf+0xcbd>
    1f55: aa           	tax
    1f56: f0 19        	beq	$1f71 <printf+0xcd6>
    1f58: 18           	clc
    1f59: 65 cc        	adc	$cc                     ; 0xcc <__zp_bss_size+0x99>
    1f5b: 85 12        	sta	$12                     ; 0x12 <__rc2>
    1f5d: a5 13        	lda	$13                     ; 0x13 <__rc3>
    1f5f: 65 cd        	adc	$cd                     ; 0xcd <__zp_bss_size+0x9a>
    1f61: 85 13        	sta	$13                     ; 0x13 <__rc3>
    1f63: a2 ff        	ldx	#$ff
    1f65: c6 12        	dec	$12                     ; 0x12 <__rc2>
    1f67: e4 12        	cpx	$12                     ; 0x12 <__rc2>
    1f69: d0 02        	bne	$1f6d <printf+0xcd2>
    1f6b: c6 13        	dec	$13                     ; 0x13 <__rc3>
    1f6d: a9 00        	lda	#$0
    1f6f: 92 12        	sta	($12)                   ; 0x12 <__rc2>
    1f71: e6 95        	inc	$95                     ; 0x95 <__zp_bss_size+0x62>
    1f73: d0 02        	bne	$1f77 <printf+0xcdc>
    1f75: e6 96        	inc	$96                     ; 0x96 <__zp_bss_size+0x63>
    1f77: a6 96        	ldx	$96                     ; 0x96 <__zp_bss_size+0x63>
    1f79: e4 98        	cpx	$98                     ; 0x98 <__zp_bss_size+0x65>
    1f7b: f0 03        	beq	$1f80 <printf+0xce5>
    1f7d: 4c 00 13     	jmp	$1300 <printf+0x65>
    1f80: a6 95        	ldx	$95                     ; 0x95 <__zp_bss_size+0x62>
    1f82: e4 97        	cpx	$97                     ; 0x97 <__zp_bss_size+0x64>
    1f84: f0 03        	beq	$1f89 <printf+0xcee>
    1f86: 4c 00 13     	jmp	$1300 <printf+0x65>
    1f89: b2 97        	lda	($97)                   ; 0x97 <__zp_bss_size+0x64>
    1f8b: a2 00        	ldx	#$0
    1f8d: 4c 17 13     	jmp	$1317 <printf+0x7c>
    1f90: a2 20        	ldx	#$20
    1f92: 86 d9        	stx	$d9                     ; 0xd9 <__zp_bss_size+0xa6>
    1f94: 4c 1b 1a     	jmp	$1a1b <printf+0x780>
    1f97: e4 9a        	cpx	$9a                     ; 0x9a <__zp_bss_size+0x67>
    1f99: a6 93        	ldx	$93                     ; 0x93 <__zp_bss_size+0x60>
    1f9b: b0 03        	bcs	$1fa0 <printf+0xd05>
    1f9d: 4c ed 19     	jmp	$19ed <printf+0x752>
    1fa0: a5 9d        	lda	$9d                     ; 0x9d <__zp_bss_size+0x6a>
    1fa2: 85 99        	sta	$99                     ; 0x99 <__zp_bss_size+0x66>
    1fa4: 64 9a        	stz	$9a                     ; 0x9a <__zp_bss_size+0x67>
    1fa6: e6 99        	inc	$99                     ; 0x99 <__zp_bss_size+0x66>
    1fa8: f0 03        	beq	$1fad <printf+0xd12>
    1faa: 4c ed 19     	jmp	$19ed <printf+0x752>
    1fad: e6 9a        	inc	$9a                     ; 0x9a <__zp_bss_size+0x67>
    1faf: 4c ed 19     	jmp	$19ed <printf+0x752>
    1fb2: 86 d8        	stx	$d8                     ; 0xd8 <__zp_bss_size+0xa5>
    1fb4: a2 58        	ldx	#$58
    1fb6: 86 dd        	stx	$dd                     ; 0xdd <__zp_bss_size+0xaa>
    1fb8: a2 01        	ldx	#$1
    1fba: 86 99        	stx	$99                     ; 0x99 <__zp_bss_size+0x66>
    1fbc: a2 30        	ldx	#$30
    1fbe: 86 d9        	stx	$d9                     ; 0xd9 <__zp_bss_size+0xa6>
    1fc0: a2 02        	ldx	#$2
    1fc2: 86 16        	stx	$16                     ; 0x16 <__rc6>
    1fc4: a2 00        	ldx	#$0
    1fc6: 86 9c        	stx	$9c                     ; 0x9c <__zp_bss_size+0x69>
    1fc8: 4c 21 1a     	jmp	$1a21 <printf+0x786>
    1fcb: a6 13        	ldx	$13                     ; 0x13 <__rc3>
    1fcd: 64 9e        	stz	$9e                     ; 0x9e <__zp_bss_size+0x6b>
    1fcf: 64 94        	stz	$94                     ; 0x94 <__zp_bss_size+0x61>
    1fd1: 4c ae 1c     	jmp	$1cae <printf+0xa13>
    1fd4: 60           	rts

00001fd5 <putchar>:
    1fd5: 86 12        	stx	$12                     ; 0x12 <__rc2>
    1fd7: 85 ec        	sta	$ec                     ; 0xec <__zp_bss_size+0xb9>
    1fd9: 85 69        	sta	$69                     ; 0x69 <__putchar.s>
    1fdb: a6 01        	ldx	$1                      ; 0x1 <__data_size+0x1>
    1fdd: 86 ed        	stx	$ed                     ; 0xed <__zp_bss_size+0xba>
    1fdf: a6 68        	ldx	$68                     ; 0x68 <_row>
    1fe1: a0 50        	ldy	#$50
    1fe3: 8c 00 de     	sty	$de00                   ; 0xde00 <__heap_start+0xbb2a>
    1fe6: 9c 01 de     	stz	$de01                   ; 0xde01 <__heap_start+0xbb2b>
    1fe9: 8e 02 de     	stx	$de02                   ; 0xde02 <__heap_start+0xbb2c>
    1fec: 9c 03 de     	stz	$de03                   ; 0xde03 <__heap_start+0xbb2d>
    1fef: ae 10 de     	ldx	$de10                   ; 0xde10 <__heap_start+0xbb3a>
    1ff2: 86 13        	stx	$13                     ; 0x13 <__rc3>
    1ff4: ad 11 de     	lda	$de11                   ; 0xde11 <__heap_start+0xbb3b>
    1ff7: ae 12 de     	ldx	$de12                   ; 0xde12 <__heap_start+0xbb3c>
    1ffa: 86 1a        	stx	$1a                     ; 0x1a <__rc10>
    1ffc: ae 13 de     	ldx	$de13                   ; 0xde13 <__heap_start+0xbb3d>
    1fff: 86 1b        	stx	$1b                     ; 0x1b <__rc11>
    2001: 9c 08 de     	stz	$de08                   ; 0xde08 <__heap_start+0xbb32>
    2004: a2 c0        	ldx	#$c0
    2006: 8e 09 de     	stx	$de09                   ; 0xde09 <__heap_start+0xbb33>
    2009: 9c 0a de     	stz	$de0a                   ; 0xde0a <__heap_start+0xbb34>
    200c: 9c 0b de     	stz	$de0b                   ; 0xde0b <__heap_start+0xbb35>
    200f: a6 13        	ldx	$13                     ; 0x13 <__rc3>
    2011: 8e 0c de     	stx	$de0c                   ; 0xde0c <__heap_start+0xbb36>
    2014: 8d 0d de     	sta	$de0d                   ; 0xde0d <__heap_start+0xbb37>
    2017: 64 13        	stz	$13                     ; 0x13 <__rc3>
    2019: a2 00        	ldx	#$0
    201b: 86 14        	stx	$14                     ; 0x14 <__rc4>
    201d: a2 c0        	ldx	#$c0
    201f: 86 15        	stx	$15                     ; 0x15 <__rc5>
    2021: a2 11        	ldx	#$11
    2023: 86 16        	stx	$16                     ; 0x16 <__rc6>
    2025: a2 c9        	ldx	#$c9
    2027: 86 17        	stx	$17                     ; 0x17 <__rc7>
    2029: a2 10        	ldx	#$10
    202b: 86 18        	stx	$18                     ; 0x18 <__rc8>
    202d: a2 c9        	ldx	#$c9
    202f: 86 19        	stx	$19                     ; 0x19 <__rc9>
    2031: a6 1a        	ldx	$1a                     ; 0x1a <__rc10>
    2033: 8e 0e de     	stx	$de0e                   ; 0xde0e <__heap_start+0xbb38>
    2036: a6 1b        	ldx	$1b                     ; 0x1b <__rc11>
    2038: 8e 0f de     	stx	$de0f                   ; 0xde0f <__heap_start+0xbb39>
    203b: ae 18 de     	ldx	$de18                   ; 0xde18 <__heap_start+0xbb42>
    203e: 86 1c        	stx	$1c                     ; 0x1c <__rc12>
    2040: ad 19 de     	lda	$de19                   ; 0xde19 <__heap_start+0xbb43>
    2043: ae 1a de     	ldx	$de1a                   ; 0xde1a <__heap_start+0xbb44>
    2046: ae 1b de     	ldx	$de1b                   ; 0xde1b <__heap_start+0xbb45>
    2049: 85 1d        	sta	$1d                     ; 0x1d <__rc13>
    204b: 64 1a        	stz	$1a                     ; 0x1a <__rc10>
    204d: a2 f0        	ldx	#$f0
    204f: 86 ee        	stx	$ee                     ; 0xee <__zp_bss_size+0xbb>
    2051: a2 20        	ldx	#$20
    2053: 86 ef        	stx	$ef                     ; 0xef <__zp_bss_size+0xbc>
    2055: 80 13        	bra	$206a <putchar+0x95>
    2057: a5 1c        	lda	$1c                     ; 0x1c <__rc12>
    2059: 18           	clc
    205a: 69 50        	adc	#$50
    205c: 85 1c        	sta	$1c                     ; 0x1c <__rc12>
    205e: a5 1d        	lda	$1d                     ; 0x1d <__rc13>
    2060: 69 00        	adc	#$0
    2062: 85 1d        	sta	$1d                     ; 0x1d <__rc13>
    2064: e6 13        	inc	$13                     ; 0x13 <__rc3>
    2066: d0 02        	bne	$206a <putchar+0x95>
    2068: e6 1a        	inc	$1a                     ; 0x1a <__rc10>
    206a: a9 69        	lda	#$69
    206c: 18           	clc
    206d: 65 13        	adc	$13                     ; 0x13 <__rc3>
    206f: 85 1e        	sta	$1e                     ; 0x1e <__rc14>
    2071: a9 00        	lda	#$0
    2073: 65 1a        	adc	$1a                     ; 0x1a <__rc10>
    2075: 85 1f        	sta	$1f                     ; 0x1f <__rc15>
    2077: b2 1e        	lda	($1e)                   ; 0x1e <__rc14>
    2079: c9 0a        	cmp	#$a
    207b: f0 2e        	beq	$20ab <putchar+0xd6>
    207d: c9 0d        	cmp	#$d
    207f: f0 2a        	beq	$20ab <putchar+0xd6>
    2081: aa           	tax
    2082: d0 03        	bne	$2087 <putchar+0xb2>
    2084: 4c bd 21     	jmp	$21bd <putchar+0x1e8>
    2087: a2 03        	ldx	#$3
    2089: 86 01        	stx	$1                      ; 0x1 <__data_size+0x1>
    208b: 84 1b        	sty	$1b                     ; 0x1b <__rc11>
    208d: a4 67        	ldy	$67                     ; 0x67 <_col>
    208f: a9 f0        	lda	#$f0
    2091: aa           	tax
    2092: 86 ee        	stx	$ee                     ; 0xee <__zp_bss_size+0xbb>
    2094: 91 1c        	sta	($1c),y                 ; 0x1c <__rc12>
    2096: a2 02        	ldx	#$2
    2098: 86 01        	stx	$1                      ; 0x1 <__data_size+0x1>
    209a: b2 1e        	lda	($1e)                   ; 0x1e <__rc14>
    209c: a4 67        	ldy	$67                     ; 0x67 <_col>
    209e: 91 1c        	sta	($1c),y                 ; 0x1c <__rc12>
    20a0: a4 1b        	ldy	$1b                     ; 0x1b <__rc11>
    20a2: a6 67        	ldx	$67                     ; 0x67 <_col>
    20a4: e8           	inx
    20a5: e6 67        	inc	$67                     ; 0x67 <_col>
    20a7: e0 50        	cpx	#$50
    20a9: d0 b9        	bne	$2064 <putchar+0x8f>
    20ab: 64 67        	stz	$67                     ; 0x67 <_col>
    20ad: a6 68        	ldx	$68                     ; 0x68 <_row>
    20af: e8           	inx
    20b0: e6 68        	inc	$68                     ; 0x68 <_row>
    20b2: e0 1e        	cpx	#$1e
    20b4: f0 03        	beq	$20b9 <putchar+0xe4>
    20b6: 4c 57 20     	jmp	$2057 <putchar+0x82>
    20b9: a2 03        	ldx	#$3
    20bb: 86 01        	stx	$1                      ; 0x1 <__data_size+0x1>
    20bd: a2 09        	ldx	#$9
    20bf: a9 10        	lda	#$10
    20c1: 5a           	phy
    20c2: a0 00        	ldy	#$0
    20c4: 84 1c        	sty	$1c                     ; 0x1c <__rc12>
    20c6: a0 c0        	ldy	#$c0
    20c8: 84 1d        	sty	$1d                     ; 0x1d <__rc13>
    20ca: 7a           	ply
    20cb: 85 1b        	sta	$1b                     ; 0x1b <__rc11>
    20cd: b1 1c        	lda	($1c),y                 ; 0x1c <__rc12>
    20cf: 92 1c        	sta	($1c)                   ; 0x1c <__rc12>
    20d1: a9 ff        	lda	#$ff
    20d3: c6 1b        	dec	$1b                     ; 0x1b <__rc11>
    20d5: c5 1b        	cmp	$1b                     ; 0x1b <__rc11>
    20d7: d0 01        	bne	$20da <putchar+0x105>
    20d9: ca           	dex
    20da: e6 1c        	inc	$1c                     ; 0x1c <__rc12>
    20dc: d0 02        	bne	$20e0 <putchar+0x10b>
    20de: e6 1d        	inc	$1d                     ; 0x1d <__rc13>
    20e0: 8a           	txa
    20e1: d0 ea        	bne	$20cd <putchar+0xf8>
    20e3: a5 1b        	lda	$1b                     ; 0x1b <__rc11>
    20e5: d0 e6        	bne	$20cd <putchar+0xf8>
    20e7: a2 02        	ldx	#$2
    20e9: 86 01        	stx	$1                      ; 0x1 <__data_size+0x1>
    20eb: a2 09        	ldx	#$9
    20ed: a9 10        	lda	#$10
    20ef: 5a           	phy
    20f0: a0 00        	ldy	#$0
    20f2: 84 1c        	sty	$1c                     ; 0x1c <__rc12>
    20f4: a0 c0        	ldy	#$c0
    20f6: 84 1d        	sty	$1d                     ; 0x1d <__rc13>
    20f8: 7a           	ply
    20f9: 85 1b        	sta	$1b                     ; 0x1b <__rc11>
    20fb: b1 1c        	lda	($1c),y                 ; 0x1c <__rc12>
    20fd: 92 1c        	sta	($1c)                   ; 0x1c <__rc12>
    20ff: a9 ff        	lda	#$ff
    2101: c6 1b        	dec	$1b                     ; 0x1b <__rc11>
    2103: c5 1b        	cmp	$1b                     ; 0x1b <__rc11>
    2105: d0 01        	bne	$2108 <putchar+0x133>
    2107: ca           	dex
    2108: e6 1c        	inc	$1c                     ; 0x1c <__rc12>
    210a: d0 02        	bne	$210e <putchar+0x139>
    210c: e6 1d        	inc	$1d                     ; 0x1d <__rc13>
    210e: 8a           	txa
    210f: d0 ea        	bne	$20fb <putchar+0x126>
    2111: a5 1b        	lda	$1b                     ; 0x1b <__rc11>
    2113: d0 e6        	bne	$20fb <putchar+0x126>
    2115: a2 50        	ldx	#$50
    2117: 86 1b        	stx	$1b                     ; 0x1b <__rc11>
    2119: a2 02        	ldx	#$2
    211b: 86 01        	stx	$1                      ; 0x1 <__data_size+0x1>
    211d: e8           	inx
    211e: 86 01        	stx	$1                      ; 0x1 <__data_size+0x1>
    2120: a2 50        	ldx	#$50
    2122: a0 11        	ldy	#$11
    2124: 84 1c        	sty	$1c                     ; 0x1c <__rc12>
    2126: a0 c9        	ldy	#$c9
    2128: 84 1d        	sty	$1d                     ; 0x1d <__rc13>
    212a: a0 10        	ldy	#$10
    212c: 84 1e        	sty	$1e                     ; 0x1e <__rc14>
    212e: a0 c9        	ldy	#$c9
    2130: 84 1f        	sty	$1f                     ; 0x1f <__rc15>
    2132: a5 ee        	lda	$ee                     ; 0xee <__zp_bss_size+0xbb>
    2134: a4 1e        	ldy	$1e                     ; 0x1e <__rc14>
    2136: 84 22        	sty	$22                     ; 0x22 <__rc18>
    2138: a4 1f        	ldy	$1f                     ; 0x1f <__rc15>
    213a: 84 23        	sty	$23                     ; 0x23 <__rc19>
    213c: a4 1c        	ldy	$1c                     ; 0x1c <__rc12>
    213e: 84 1e        	sty	$1e                     ; 0x1e <__rc14>
    2140: a4 1d        	ldy	$1d                     ; 0x1d <__rc13>
    2142: 84 1f        	sty	$1f                     ; 0x1f <__rc15>
    2144: 92 22        	sta	($22)                   ; 0x22 <__rc18>
    2146: e6 1c        	inc	$1c                     ; 0x1c <__rc12>
    2148: d0 02        	bne	$214c <putchar+0x177>
    214a: e6 1d        	inc	$1d                     ; 0x1d <__rc13>
    214c: ca           	dex
    214d: d0 e5        	bne	$2134 <putchar+0x15f>
    214f: a2 f0        	ldx	#$f0
    2151: 86 ee        	stx	$ee                     ; 0xee <__zp_bss_size+0xbb>
    2153: a2 02        	ldx	#$2
    2155: 86 01        	stx	$1                      ; 0x1 <__data_size+0x1>
    2157: a2 50        	ldx	#$50
    2159: a0 11        	ldy	#$11
    215b: 84 1c        	sty	$1c                     ; 0x1c <__rc12>
    215d: a0 c9        	ldy	#$c9
    215f: 84 1d        	sty	$1d                     ; 0x1d <__rc13>
    2161: a0 10        	ldy	#$10
    2163: 84 1e        	sty	$1e                     ; 0x1e <__rc14>
    2165: a0 c9        	ldy	#$c9
    2167: 84 1f        	sty	$1f                     ; 0x1f <__rc15>
    2169: a5 ef        	lda	$ef                     ; 0xef <__zp_bss_size+0xbc>
    216b: a4 1e        	ldy	$1e                     ; 0x1e <__rc14>
    216d: 84 22        	sty	$22                     ; 0x22 <__rc18>
    216f: a4 1f        	ldy	$1f                     ; 0x1f <__rc15>
    2171: 84 23        	sty	$23                     ; 0x23 <__rc19>
    2173: a4 1c        	ldy	$1c                     ; 0x1c <__rc12>
    2175: 84 1e        	sty	$1e                     ; 0x1e <__rc14>
    2177: a4 1d        	ldy	$1d                     ; 0x1d <__rc13>
    2179: 84 1f        	sty	$1f                     ; 0x1f <__rc15>
    217b: 92 22        	sta	($22)                   ; 0x22 <__rc18>
    217d: e6 1c        	inc	$1c                     ; 0x1c <__rc12>
    217f: d0 02        	bne	$2183 <putchar+0x1ae>
    2181: e6 1d        	inc	$1d                     ; 0x1d <__rc13>
    2183: ca           	dex
    2184: d0 e5        	bne	$216b <putchar+0x196>
    2186: a2 20        	ldx	#$20
    2188: 86 ef        	stx	$ef                     ; 0xef <__zp_bss_size+0xbc>
    218a: c6 68        	dec	$68                     ; 0x68 <_row>
    218c: 9c 08 de     	stz	$de08                   ; 0xde08 <__heap_start+0xbb32>
    218f: a2 c0        	ldx	#$c0
    2191: 8e 09 de     	stx	$de09                   ; 0xde09 <__heap_start+0xbb33>
    2194: 9c 0a de     	stz	$de0a                   ; 0xde0a <__heap_start+0xbb34>
    2197: 9c 0b de     	stz	$de0b                   ; 0xde0b <__heap_start+0xbb35>
    219a: a2 1d        	ldx	#$1d
    219c: 8e 0c de     	stx	$de0c                   ; 0xde0c <__heap_start+0xbb36>
    219f: 9c 0d de     	stz	$de0d                   ; 0xde0d <__heap_start+0xbb37>
    21a2: 9c 0e de     	stz	$de0e                   ; 0xde0e <__heap_start+0xbb38>
    21a5: 9c 0f de     	stz	$de0f                   ; 0xde0f <__heap_start+0xbb39>
    21a8: ae 18 de     	ldx	$de18                   ; 0xde18 <__heap_start+0xbb42>
    21ab: ac 19 de     	ldy	$de19                   ; 0xde19 <__heap_start+0xbb43>
    21ae: ad 1a de     	lda	$de1a                   ; 0xde1a <__heap_start+0xbb44>
    21b1: ad 1b de     	lda	$de1b                   ; 0xde1b <__heap_start+0xbb45>
    21b4: 86 1c        	stx	$1c                     ; 0x1c <__rc12>
    21b6: 84 1d        	sty	$1d                     ; 0x1d <__rc13>
    21b8: a4 1b        	ldy	$1b                     ; 0x1b <__rc11>
    21ba: 4c 64 20     	jmp	$2064 <putchar+0x8f>
    21bd: a6 ed        	ldx	$ed                     ; 0xed <__zp_bss_size+0xba>
    21bf: 86 01        	stx	$1                      ; 0x1 <__data_size+0x1>
    21c1: a6 67        	ldx	$67                     ; 0x67 <_col>
    21c3: a4 68        	ldy	$68                     ; 0x68 <_row>
    21c5: 8e 14 d0     	stx	$d014                   ; 0xd014 <__heap_start+0xad3e>
    21c8: 9c 15 d0     	stz	$d015                   ; 0xd015 <__heap_start+0xad3f>
    21cb: 84 68        	sty	$68                     ; 0x68 <_row>
    21cd: 8c 16 d0     	sty	$d016                   ; 0xd016 <__heap_start+0xad40>
    21d0: 9c 17 d0     	stz	$d017                   ; 0xd017 <__heap_start+0xad41>
    21d3: a6 12        	ldx	$12                     ; 0x12 <__rc2>
    21d5: a5 ec        	lda	$ec                     ; 0xec <__zp_bss_size+0xb9>
    21d7: 60           	rts

000021d8 <memcpy>:
    21d8: a8           	tay
    21d9: 8a           	txa
    21da: d0 03        	bne	$21df <memcpy+0x7>
    21dc: 98           	tya
    21dd: f0 24        	beq	$2203 <memcpy+0x2b>
    21df: a5 12        	lda	$12                     ; 0x12 <__rc2>
    21e1: 85 16        	sta	$16                     ; 0x16 <__rc6>
    21e3: a5 13        	lda	$13                     ; 0x13 <__rc3>
    21e5: 85 17        	sta	$17                     ; 0x17 <__rc7>
    21e7: b2 14        	lda	($14)                   ; 0x14 <__rc4>
    21e9: 92 16        	sta	($16)                   ; 0x16 <__rc6>
    21eb: e6 16        	inc	$16                     ; 0x16 <__rc6>
    21ed: d0 02        	bne	$21f1 <memcpy+0x19>
    21ef: e6 17        	inc	$17                     ; 0x17 <__rc7>
    21f1: e6 14        	inc	$14                     ; 0x14 <__rc4>
    21f3: d0 02        	bne	$21f7 <memcpy+0x1f>
    21f5: e6 15        	inc	$15                     ; 0x15 <__rc5>
    21f7: 88           	dey
    21f8: c0 ff        	cpy	#$ff
    21fa: d0 01        	bne	$21fd <memcpy+0x25>
    21fc: ca           	dex
    21fd: 8a           	txa
    21fe: d0 e7        	bne	$21e7 <memcpy+0xf>
    2200: 98           	tya
    2201: d0 e4        	bne	$21e7 <memcpy+0xf>
    2203: 60           	rts

00002204 <__memset>:
    2204: a4 14        	ldy	$14                     ; 0x14 <__rc4>
    2206: d0 04        	bne	$220c <__memset+0x8>
    2208: e0 00        	cpx	#$0
    220a: f0 17        	beq	$2223 <__memset+0x1f>
    220c: 92 12        	sta	($12)                   ; 0x12 <__rc2>
    220e: e6 12        	inc	$12                     ; 0x12 <__rc2>
    2210: d0 02        	bne	$2214 <__memset+0x10>
    2212: e6 13        	inc	$13                     ; 0x13 <__rc3>
    2214: ca           	dex
    2215: e0 ff        	cpx	#$ff
    2217: d0 02        	bne	$221b <__memset+0x17>
    2219: c6 14        	dec	$14                     ; 0x14 <__rc4>
    221b: a4 14        	ldy	$14                     ; 0x14 <__rc4>
    221d: d0 ed        	bne	$220c <__memset+0x8>
    221f: e0 00        	cpx	#$0
    2221: d0 e9        	bne	$220c <__memset+0x8>
    2223: 60           	rts
