
vgmplayer.elf:	file format elf32-mos

SYMBOL TABLE:
00000000 l    df *ABS*	00000000 zero-bss.c
00000000 l    df *ABS*	00000000 zero-zp-bss.c
00000000 l    df *ABS*	00000000 copy-zp-data.c
00000000 l    df *ABS*	00000000 ld-temp.o
00000359 l     F .text	0000087a readDirectory
00006ca7 l     O .bss	0000300e fpr
00000055 l     O .zp.bss	00000008 _dirStream
00000052 l     O .zp.bss	00000001 kernelError
0000004b l     O .zp.bss	00000007 kernelEventData
000053e5 l     F .text	000000df fileReadDir
00000bd3 l     F .text	00000345 sortFileList
00000f18 l     F .text	00000364 displayFileList
00000053 l     O .zp.bss	00000001 _col
00000054 l     O .zp.bss	00000001 _row
00001ecc l     F .text	00000228 wipeArea
000061dc l     F .text	00000082 printf
00006338 l     F .text	000001e5 putchar
0000127c l     F .text	00000c50 pickFile
00005284 l     F .text	00000011 textGotoXY
000020f4 l     F .text	0000013a opl3_initialize
00000033 l     O .zp.data	00000001 _ccolor
00006c77 l     O .rodata	00000030 textColors
00009cb5 l     O .bss	00000004 _BITMAP_BASE.0
00009cb9 l     O .bss	00000004 _BITMAP_BASE.1
00009cbd l     O .bss	00000004 _BITMAP_BASE.2
00009e3d l     O .bss	00000002 _ZN12_GLOBAL__N_19free_sizeE
00009e3f l     O .bss	00000002 _ZN12_GLOBAL__N_19free_listE
0000625e l     F .text	000000da sprintf
00009dc3 l     O .bss	00000078 name
0000005f l     O .zp.bss	00000001 comeRightTrough
00005295 l     F .text	00000150 fileRead
00000047 l     O .zp.bss	00000004 tooBigWait
000065d9 l     F .text	000000db __udivmodhi4
00006c5f l     O .rodata	00000018 opl3_fnums
00000035 l     O .zp.bss	00000012 polyOPL3Buffer
00000034 l     O .zp.bss	00000001 chipAct.0
00006c07 l     O .rodata	00000058 noteColors
00006569 l     F .text	00000070 __mulsi3
00009e3c l     O .bss	00000001 _ZN12_GLOBAL__N_19last_freeE
00009e3b l     O .bss	00000001 _ZN12_GLOBAL__N_111initializedE
00009cc1 l     O .bss	00000102 fileReadDir.fileDirEntS
000054c9 l     F .text	00000b34 _ZN12_GLOBAL__N_15printEPKcP6Status
00005ffd l     F .text	000000d3 _ZN12_GLOBAL__N_13putEcP6Status
000060d0 l     F .text	0000010c _ZN12_GLOBAL__N_112print_stringEPKcP6Status
0000005d l     O .zp.bss	00000002 __putchar.s
0000222e g     F .text	00003056 main
000203fc g       .pianopal	00000000 pianopal_end
00033000 g       .keys	00000000 keys_end
00020000 g       .pianopal	00000000 pianopal_start
00020400 g       .keys	00000000 keys_start
00000318 g       .text	00000000 __after_main
00000304 g       .text	00000000 __do_init_stack
00000312 g       .text	00000000 __do_copy_zp_data
00000342 g     F .text	00000017 __copy_zp_data
0000030c g       .text	00000000 __do_zero_bss
0000031c g     F .text	00000013 __zero_bss
0000030f g       .text	00000000 __do_zero_zp_bss
0000032f g     F .text	00000013 __zero_zp_bss
000054c4 g     F .text	00000005 exit
0000031b g       .text	00000000 _fini
00006549  w    F .text	00000020 __memset
00001000  w      *ABS*	00000000 __heap_default_limit
00009eba g       .noinit	00000000 __heap_start
0000651d  w    F .text	0000002c memcpy
00000010 g       *ABS*	00000000 __rc0
00000012 g       *ABS*	00000000 __rc2
00000014 g       *ABS*	00000000 __rc4
00000016 g       *ABS*	00000000 __rc6
00000018 g       *ABS*	00000000 __rc8
0000001a g       *ABS*	00000000 __rc10
0000001c g       *ABS*	00000000 __rc12
0000001e g       *ABS*	00000000 __rc14
00000020 g       *ABS*	00000000 __rc16
00000022 g       *ABS*	00000000 __rc18
00000024 g       *ABS*	00000000 __rc20
00000026 g       *ABS*	00000000 __rc22
00000028 g       *ABS*	00000000 __rc24
0000002a g       *ABS*	00000000 __rc26
0000002c g       *ABS*	00000000 __rc28
0000002e g       *ABS*	00000000 __rc30
0000002f g       *ABS*	00000000 __rc31
00000300 g       *ABS*	00000000 __f256_start
0000c000 g       *ABS*	00000000 __stack
0000c000 g       *ABS*	00000000 __SLOT_ADDR
0800c000 g       *ABS*	00000000 __block8_lma
00002000 g       *ABS*	00000000 __BLOCK_SIZE
0900c000 g       *ABS*	00000000 __block9_lma
0a00c000 g       *ABS*	00000000 __block10_lma
0b00c000 g       *ABS*	00000000 __block11_lma
0c00c000 g       *ABS*	00000000 __block12_lma
0d00c000 g       *ABS*	00000000 __block13_lma
0e00c000 g       *ABS*	00000000 __block14_lma
0f00c000 g       *ABS*	00000000 __block15_lma
1000c000 g       *ABS*	00000000 __block16_lma
1100c000 g       *ABS*	00000000 __block17_lma
1200c000 g       *ABS*	00000000 __block18_lma
1300c000 g       *ABS*	00000000 __block19_lma
1400c000 g       *ABS*	00000000 __block20_lma
1500c000 g       *ABS*	00000000 __block21_lma
1600c000 g       *ABS*	00000000 __block22_lma
1700c000 g       *ABS*	00000000 __block23_lma
00020000 g       *ABS*	00000000 __pianopal_lma
000003fc g       *ABS*	00000000 __pianopal_size
00020400 g       *ABS*	00000000 __keys_lma
00012c00 g       *ABS*	00000000 __keys_size
00006ca7 g       .bss	00000000 __bss_start
000203fc g       .pianopal	00000000 end_pianopal
00033000 g       .keys	00000000 end_keys
00000304 g       .text	00000000 _start
0000002d g       *ABS*	00000000 __rc29
0000002b g       *ABS*	00000000 __rc27
00000029 g       *ABS*	00000000 __rc25
00000027 g       *ABS*	00000000 __rc23
00000025 g       *ABS*	00000000 __rc21
00000023 g       *ABS*	00000000 __rc19
00000021 g       *ABS*	00000000 __rc17
0000001f g       *ABS*	00000000 __rc15
0000001d g       *ABS*	00000000 __rc13
0000001b g       *ABS*	00000000 __rc11
00000019 g       *ABS*	00000000 __rc9
00000017 g       *ABS*	00000000 __rc7
00000015 g       *ABS*	00000000 __rc5
00000013 g       *ABS*	00000000 __rc3
00000011 g       *ABS*	00000000 __rc1
00000030 g       .zp.data	00000000 __zp_data_start
00000300 g       *ABS*	00000000 __zp_data_load_start
00000004 g       *ABS*	00000000 __zp_data_size
00000034 g       .zp.bss	00000000 __zp_bss_start
0000002c g       *ABS*	00000000 __zp_bss_size
00000304 g       .text	00000000 _init
000066b4 g       .text	00000000 __init_array_start
000066b4 g       .text	00000000 __init_array_end
000066b4 g       .text	00000000 __fini_array_start
000066b4 g       .text	00000000 __fini_array_end
00006ca7 g       .data	00000000 __data_start
00006ca7 g       .data	00000000 __data_end
00006ca7 g       *ABS*	00000000 __data_load_start
00000000 g       *ABS*	00000000 __data_size
00009e41 g       .bss	00000000 __bss_end
0000319a g       *ABS*	00000000 __bss_size
00009eb9 g       .noinit	00000000 end_block8
00009eb9 g       .noinit	00000000 end_block9
00009eb9 g       .noinit	00000000 end_block10
00009eb9 g       .noinit	00000000 end_block11
00009eb9 g       .noinit	00000000 end_block12
00009eb9 g       .noinit	00000000 end_block13
00009eb9 g       .noinit	00000000 end_block14
00009eb9 g       .noinit	00000000 end_block15
00009eb9 g       .noinit	00000000 end_block16
00009eb9 g       .noinit	00000000 end_block17
00009eb9 g       .noinit	00000000 end_block18
00009eb9 g       .noinit	00000000 end_block19
00009eb9 g       .noinit	00000000 end_block20
00009eb9 g       .noinit	00000000 end_block21
00009eb9 g       .noinit	00000000 end_block22
00009eb9 g       .noinit	00000000 end_block23

Disassembly of section .text:

00000304 <_start>:
     304: a9 00        	lda	#$0
     306: 85 10        	sta	$10                     ; 0x2010 <wipeArea+0x144>
     308: a9 c0        	lda	#$c0
     30a: 85 11        	sta	$11                     ; 0x2011 <wipeArea+0x145>

0000030c <__do_zero_bss>:
     30c: 20 1c 03     	jsr	$31c <__zero_bss>

0000030f <__do_zero_zp_bss>:
     30f: 20 2f 03     	jsr	$32f <__zero_zp_bss>

00000312 <__do_copy_zp_data>:
     312: 20 42 03     	jsr	$342 <__copy_zp_data>
     315: 20 2e 22     	jsr	$222e <main>

00000318 <__after_main>:
     318: 4c c4 54     	jmp	$54c4 <exit>

0000031b <_fini>:
     31b: 60           	rts

0000031c <__zero_bss>:
     31c: a2 9a        	ldx	#$9a
     31e: a0 31        	ldy	#$31
     320: a9 a7        	lda	#$a7
     322: 85 12        	sta	$12                     ; 0x2012 <wipeArea+0x146>
     324: a9 6c        	lda	#$6c
     326: 85 13        	sta	$13                     ; 0x2013 <wipeArea+0x147>
     328: a9 00        	lda	#$0
     32a: 84 14        	sty	$14                     ; 0x2014 <wipeArea+0x148>
     32c: 4c 49 65     	jmp	$6549 <__memset>

0000032f <__zero_zp_bss>:
     32f: a2 2c        	ldx	#$2c
     331: a0 00        	ldy	#$0
     333: a9 34        	lda	#$34
     335: 85 12        	sta	$12                     ; 0x2012 <wipeArea+0x146>
     337: a9 00        	lda	#$0
     339: 85 13        	sta	$13                     ; 0x2013 <wipeArea+0x147>
     33b: a9 00        	lda	#$0
     33d: 84 14        	sty	$14                     ; 0x2014 <wipeArea+0x148>
     33f: 4c 49 65     	jmp	$6549 <__memset>

00000342 <__copy_zp_data>:
     342: a9 04        	lda	#$4
     344: a2 00        	ldx	#$0
     346: a0 30        	ldy	#$30
     348: 84 12        	sty	$12                     ; 0x2012 <wipeArea+0x146>
     34a: a0 00        	ldy	#$0
     34c: 84 13        	sty	$13                     ; 0x2013 <wipeArea+0x147>
     34e: a0 00        	ldy	#$0
     350: 84 14        	sty	$14                     ; 0x2014 <wipeArea+0x148>
     352: a0 03        	ldy	#$3
     354: 84 15        	sty	$15                     ; 0x2015 <wipeArea+0x149>
     356: 4c 1d 65     	jmp	$651d <memcpy>

00000359 <readDirectory>:
     359: ac a9 6c     	ldy	$6ca9                   ; 0x6ca9 <fpr+0x2>
     35c: 64 60        	stz	$60                     ; 0x2060 <wipeArea+0x194>
     35e: a2 a9        	ldx	#$a9
     360: 86 12        	stx	$12                     ; 0x2012 <wipeArea+0x146>
     362: a2 6c        	ldx	#$6c
     364: 86 13        	stx	$13                     ; 0x2013 <wipeArea+0x147>
     366: 98           	tya
     367: d0 03        	bne	$36c <readDirectory+0x13>
     369: 4c c4 03     	jmp	$3c4 <readDirectory+0x6b>
     36c: 84 16        	sty	$16                     ; 0x2016 <wipeArea+0x14a>
     36e: a2 ab        	ldx	#$ab
     370: 86 12        	stx	$12                     ; 0x2012 <wipeArea+0x146>
     372: a2 6c        	ldx	#$6c
     374: 86 13        	stx	$13                     ; 0x2013 <wipeArea+0x147>
     376: 64 14        	stz	$14                     ; 0x2014 <wipeArea+0x148>
     378: 64 15        	stz	$15                     ; 0x2015 <wipeArea+0x149>
     37a: a4 15        	ldy	$15                     ; 0x2015 <wipeArea+0x149>
     37c: a6 14        	ldx	$14                     ; 0x2014 <wipeArea+0x148>
     37e: e8           	inx
     37f: d0 01        	bne	$382 <readDirectory+0x29>
     381: c8           	iny
     382: a9 aa        	lda	#$aa
     384: 18           	clc
     385: 65 14        	adc	$14                     ; 0x2014 <wipeArea+0x148>
     387: 85 14        	sta	$14                     ; 0x2014 <wipeArea+0x148>
     389: a9 6c        	lda	#$6c
     38b: 65 15        	adc	$15                     ; 0x2015 <wipeArea+0x149>
     38d: 85 15        	sta	$15                     ; 0x2015 <wipeArea+0x149>
     38f: b2 14        	lda	($14)                   ; 0x2014 <wipeArea+0x148>
     391: 86 14        	stx	$14                     ; 0x2014 <wipeArea+0x148>
     393: 84 15        	sty	$15                     ; 0x2015 <wipeArea+0x149>
     395: d0 e3        	bne	$37a <readDirectory+0x21>
     397: 98           	tya
     398: d0 06        	bne	$3a0 <readDirectory+0x47>
     39a: e0 02        	cpx	#$2
     39c: b0 06        	bcs	$3a4 <readDirectory+0x4b>
     39e: 80 1c        	bra	$3bc <readDirectory+0x63>
     3a0: c0 00        	cpy	#$0
     3a2: 90 18        	bcc	$3bc <readDirectory+0x63>
     3a4: ae aa 6c     	ldx	$6caa                   ; 0x6caa <fpr+0x3>
     3a7: e0 3a        	cpx	#$3a
     3a9: d0 11        	bne	$3bc <readDirectory+0x63>
     3ab: a5 16        	lda	$16                     ; 0x2016 <wipeArea+0x14a>
     3ad: c9 30        	cmp	#$30
     3af: 90 13        	bcc	$3c4 <readDirectory+0x6b>
     3b1: c9 38        	cmp	#$38
     3b3: b0 0f        	bcs	$3c4 <readDirectory+0x6b>
     3b5: 18           	clc
     3b6: 69 d0        	adc	#$d0
     3b8: 85 60        	sta	$60                     ; 0x2060 <wipeArea+0x194>
     3ba: 80 08        	bra	$3c4 <readDirectory+0x6b>
     3bc: a2 a9        	ldx	#$a9
     3be: 86 12        	stx	$12                     ; 0x2012 <wipeArea+0x146>
     3c0: a2 6c        	ldx	#$6c
     3c2: 86 13        	stx	$13                     ; 0x2013 <wipeArea+0x147>
     3c4: a6 60        	ldx	$60                     ; 0x2060 <wipeArea+0x194>
     3c6: b5 55        	lda	$55,x                   ; 0x2055 <wipeArea+0x189>
     3c8: aa           	tax
     3c9: f0 03        	beq	$3ce <readDirectory+0x75>
     3cb: 4c c1 08     	jmp	$8c1 <readDirectory+0x568>
     3ce: a6 60        	ldx	$60                     ; 0x2060 <wipeArea+0x194>
     3d0: 86 f3        	stx	$f3                     ; 0x20f3 <wipeArea+0x227>
     3d2: a6 12        	ldx	$12                     ; 0x2012 <wipeArea+0x146>
     3d4: a4 13        	ldy	$13                     ; 0x2013 <wipeArea+0x147>
     3d6: 86 fb        	stx	$fb                     ; 0x20fb <opl3_initialize+0x7>
     3d8: 84 fc        	sty	$fc                     ; 0x20fc <opl3_initialize+0x8>
     3da: b2 12        	lda	($12)                   ; 0x2012 <wipeArea+0x146>
     3dc: f0 2b        	beq	$409 <readDirectory+0xb0>
     3de: a2 00        	ldx	#$0
     3e0: a0 01        	ldy	#$1
     3e2: 8a           	txa
     3e3: 64 14        	stz	$14                     ; 0x2014 <wipeArea+0x148>
     3e5: 86 15        	stx	$15                     ; 0x2015 <wipeArea+0x149>
     3e7: e8           	inx
     3e8: d0 02        	bne	$3ec <readDirectory+0x93>
     3ea: e6 14        	inc	$14                     ; 0x2014 <wipeArea+0x148>
     3ec: 18           	clc
     3ed: 85 17        	sta	$17                     ; 0x2017 <wipeArea+0x14b>
     3ef: a5 15        	lda	$15                     ; 0x2015 <wipeArea+0x149>
     3f1: 65 12        	adc	$12                     ; 0x2012 <wipeArea+0x146>
     3f3: 85 16        	sta	$16                     ; 0x2016 <wipeArea+0x14a>
     3f5: a5 17        	lda	$17                     ; 0x2017 <wipeArea+0x14b>
     3f7: 65 13        	adc	$13                     ; 0x2013 <wipeArea+0x147>
     3f9: 85 17        	sta	$17                     ; 0x2017 <wipeArea+0x14b>
     3fb: b1 16        	lda	($16),y                 ; 0x2016 <wipeArea+0x14a>
     3fd: 85 15        	sta	$15                     ; 0x2015 <wipeArea+0x149>
     3ff: a5 14        	lda	$14                     ; 0x2014 <wipeArea+0x148>
     401: e6 15        	inc	$15                     ; 0x2015 <wipeArea+0x149>
     403: c6 15        	dec	$15                     ; 0x2015 <wipeArea+0x149>
     405: d0 de        	bne	$3e5 <readDirectory+0x8c>
     407: 80 02        	bra	$40b <readDirectory+0xb2>
     409: a2 00        	ldx	#$0
     40b: 86 fd        	stx	$fd                     ; 0x20fd <opl3_initialize+0x9>
     40d: a2 63        	ldx	#$63
     40f: a0 00        	ldy	#$0
     411: 86 14        	stx	$14                     ; 0x2014 <wipeArea+0x148>
     413: 84 15        	sty	$15                     ; 0x2015 <wipeArea+0x149>
     415: a2 52        	ldx	#$52
     417: 86 12        	stx	$12                     ; 0x2012 <wipeArea+0x146>
     419: a2 00        	ldx	#$0
     41b: 86 13        	stx	$13                     ; 0x2013 <wipeArea+0x147>
     41d: 20 78 ff     	jsr	$ff78 <__heap_start+0x60be>
     420: 92 14        	sta	($14)                   ; 0x2014 <wipeArea+0x148>
     422: a9 00        	lda	#$0
     424: 6a           	ror
     425: 85 12        	sta	$12                     ; 0x2012 <wipeArea+0x146>
     427: a6 52        	ldx	$52                     ; 0x2052 <wipeArea+0x186>
     429: f0 03        	beq	$42e <readDirectory+0xd5>
     42b: 4c c1 08     	jmp	$8c1 <readDirectory+0x568>
     42e: a9 55        	lda	#$55
     430: 18           	clc
     431: 65 60        	adc	$60                     ; 0x2060 <wipeArea+0x194>
     433: 85 14        	sta	$14                     ; 0x2014 <wipeArea+0x148>
     435: a9 00        	lda	#$0
     437: 69 00        	adc	#$0
     439: 85 15        	sta	$15                     ; 0x2015 <wipeArea+0x149>
     43b: a6 63        	ldx	$63                     ; 0x2063 <wipeArea+0x197>
     43d: 86 18        	stx	$18                     ; 0x2018 <wipeArea+0x14c>
     43f: a2 64        	ldx	#$64
     441: a0 00        	ldy	#$0
     443: 86 16        	stx	$16                     ; 0x2016 <wipeArea+0x14a>
     445: 84 17        	sty	$17                     ; 0x2017 <wipeArea+0x14b>
     447: 64 4b        	stz	$4b                     ; 0x204b <wipeArea+0x17f>
     449: 20 00 ff     	jsr	$ff00 <__heap_start+0x6046>
     44c: 92 16        	sta	($16)                   ; 0x2016 <wipeArea+0x14a>
     44e: a9 00        	lda	#$0
     450: 6a           	ror
     451: 85 12        	sta	$12                     ; 0x2012 <wipeArea+0x146>
     453: a6 4b        	ldx	$4b                     ; 0x204b <wipeArea+0x17f>
     455: e0 48        	cpx	#$48
     457: d0 03        	bne	$45c <readDirectory+0x103>
     459: 4c c1 08     	jmp	$8c1 <readDirectory+0x568>
     45c: e0 3c        	cpx	#$3c
     45e: d0 e7        	bne	$447 <readDirectory+0xee>
     460: a6 60        	ldx	$60                     ; 0x2060 <wipeArea+0x194>
     462: a5 18        	lda	$18                     ; 0x2018 <wipeArea+0x14c>
     464: 9d 55 00     	sta	$55,x                   ; 0x55 <_dirStream>
     467: a6 14        	ldx	$14                     ; 0x2014 <wipeArea+0x148>
     469: 86 12        	stx	$12                     ; 0x2012 <wipeArea+0x146>
     46b: a6 15        	ldx	$15                     ; 0x2015 <wipeArea+0x149>
     46d: 86 13        	stx	$13                     ; 0x2013 <wipeArea+0x147>
     46f: a6 12        	ldx	$12                     ; 0x2012 <wipeArea+0x146>
     471: 86 65        	stx	$65                     ; 0x2065 <wipeArea+0x199>
     473: a6 13        	ldx	$13                     ; 0x2013 <wipeArea+0x147>
     475: 86 66        	stx	$66                     ; 0x2066 <wipeArea+0x19a>
     477: a6 65        	ldx	$65                     ; 0x2065 <wipeArea+0x199>
     479: 86 12        	stx	$12                     ; 0x2012 <wipeArea+0x146>
     47b: a6 66        	ldx	$66                     ; 0x2066 <wipeArea+0x19a>
     47d: 86 13        	stx	$13                     ; 0x2013 <wipeArea+0x147>
     47f: 20 e5 53     	jsr	$53e5 <fileReadDir>
     482: a6 65        	ldx	$65                     ; 0x2065 <wipeArea+0x199>
     484: 86 12        	stx	$12                     ; 0x2012 <wipeArea+0x146>
     486: a6 66        	ldx	$66                     ; 0x2066 <wipeArea+0x19a>
     488: 86 13        	stx	$13                     ; 0x2013 <wipeArea+0x147>
     48a: a2 d5        	ldx	#$d5
     48c: 86 14        	stx	$14                     ; 0x2014 <wipeArea+0x148>
     48e: a2 6d        	ldx	#$6d
     490: 86 15        	stx	$15                     ; 0x2015 <wipeArea+0x149>
     492: a9 00        	lda	#$0
     494: a2 01        	ldx	#$1
     496: a8           	tay
     497: 84 69        	sty	$69                     ; 0x2069 <wipeArea+0x19d>
     499: 85 6b        	sta	$6b                     ; 0x206b <wipeArea+0x19f>
     49b: 86 6a        	stx	$6a                     ; 0x206a <wipeArea+0x19e>
     49d: a6 14        	ldx	$14                     ; 0x2014 <wipeArea+0x148>
     49f: 86 67        	stx	$67                     ; 0x2067 <wipeArea+0x19b>
     4a1: a6 15        	ldx	$15                     ; 0x2015 <wipeArea+0x149>
     4a3: 86 68        	stx	$68                     ; 0x2068 <wipeArea+0x19c>
     4a5: 4c 83 07     	jmp	$783 <readDirectory+0x42a>
     4a8: e6 1a        	inc	$1a                     ; 0x201a <wipeArea+0x14e>
     4aa: a5 1b        	lda	$1b                     ; 0x201b <wipeArea+0x14f>
     4ac: f0 26        	beq	$4d4 <readDirectory+0x17b>
     4ae: a4 1a        	ldy	$1a                     ; 0x201a <wipeArea+0x14e>
     4b0: b1 16        	lda	($16),y                 ; 0x2016 <wipeArea+0x14a>
     4b2: 85 22        	sta	$22                     ; 0x2022 <wipeArea+0x156>
     4b4: b1 16        	lda	($16),y                 ; 0x2016 <wipeArea+0x14a>
     4b6: 85 23        	sta	$23                     ; 0x2023 <wipeArea+0x157>
     4b8: a5 67        	lda	$67                     ; 0x2067 <wipeArea+0x19b>
     4ba: 85 1c        	sta	$1c                     ; 0x201c <wipeArea+0x150>
     4bc: a5 68        	lda	$68                     ; 0x2068 <wipeArea+0x19c>
     4be: 85 1d        	sta	$1d                     ; 0x201d <wipeArea+0x151>
     4c0: a5 23        	lda	$23                     ; 0x2023 <wipeArea+0x157>
     4c2: 91 1c        	sta	($1c),y                 ; 0x201c <wipeArea+0x150>
     4c4: a5 22        	lda	$22                     ; 0x2022 <wipeArea+0x156>
     4c6: d0 03        	bne	$4cb <readDirectory+0x172>
     4c8: 4c 28 0b     	jmp	$b28 <readDirectory+0x7cf>
     4cb: ca           	dex
     4cc: e0 ff        	cpx	#$ff
     4ce: d0 d8        	bne	$4a8 <readDirectory+0x14f>
     4d0: c6 1b        	dec	$1b                     ; 0x201b <wipeArea+0x14f>
     4d2: 80 d4        	bra	$4a8 <readDirectory+0x14f>
     4d4: 8a           	txa
     4d5: d0 d7        	bne	$4ae <readDirectory+0x155>
     4d7: 4c 7a 0b     	jmp	$b7a <readDirectory+0x821>
     4da: 98           	tya
     4db: 18           	clc
     4dc: 65 18        	adc	$18                     ; 0x2018 <wipeArea+0x14c>
     4de: 85 1d        	sta	$1d                     ; 0x201d <wipeArea+0x151>
     4e0: 8a           	txa
     4e1: 65 19        	adc	$19                     ; 0x2019 <wipeArea+0x14d>
     4e3: c8           	iny
     4e4: d0 01        	bne	$4e7 <readDirectory+0x18e>
     4e6: e8           	inx
     4e7: 48           	pha
     4e8: a5 1d        	lda	$1d                     ; 0x201d <wipeArea+0x151>
     4ea: 85 1a        	sta	$1a                     ; 0x201a <wipeArea+0x14e>
     4ec: 68           	pla
     4ed: 84 1d        	sty	$1d                     ; 0x201d <wipeArea+0x151>
     4ef: 85 1b        	sta	$1b                     ; 0x201b <wipeArea+0x14f>
     4f1: a0 02        	ldy	#$2
     4f3: b1 1a        	lda	($1a),y                 ; 0x201a <wipeArea+0x14e>
     4f5: a4 1d        	ldy	$1d                     ; 0x201d <wipeArea+0x151>
     4f7: c9 00        	cmp	#$0
     4f9: d0 df        	bne	$4da <readDirectory+0x181>
     4fb: 4c 52 09     	jmp	$952 <readDirectory+0x5f9>
     4fe: e0 00        	cpx	#$0
     500: b0 03        	bcs	$505 <readDirectory+0x1ac>
     502: 4c 81 05     	jmp	$581 <readDirectory+0x228>
     505: a2 00        	ldx	#$0
     507: 86 18        	stx	$18                     ; 0x2018 <wipeArea+0x14c>
     509: a2 00        	ldx	#$0
     50b: 86 19        	stx	$19                     ; 0x2019 <wipeArea+0x14d>
     50d: a5 1e        	lda	$1e                     ; 0x201e <wipeArea+0x152>
     50f: a6 16        	ldx	$16                     ; 0x2016 <wipeArea+0x14a>
     511: 86 1c        	stx	$1c                     ; 0x201c <wipeArea+0x150>
     513: a6 17        	ldx	$17                     ; 0x2017 <wipeArea+0x14b>
     515: 86 1d        	stx	$1d                     ; 0x201d <wipeArea+0x151>
     517: a2 00        	ldx	#$0
     519: 86 1a        	stx	$1a                     ; 0x201a <wipeArea+0x14e>
     51b: a2 00        	ldx	#$0
     51d: 86 1b        	stx	$1b                     ; 0x201b <wipeArea+0x14f>
     51f: a0 01        	ldy	#$1
     521: 80 0b        	bra	$52e <readDirectory+0x1d5>
     523: b1 1c        	lda	($1c),y                 ; 0x201c <wipeArea+0x150>
     525: e6 1c        	inc	$1c                     ; 0x201c <wipeArea+0x150>
     527: d0 02        	bne	$52b <readDirectory+0x1d2>
     529: e6 1d        	inc	$1d                     ; 0x201d <wipeArea+0x151>
     52b: aa           	tax
     52c: f0 14        	beq	$542 <readDirectory+0x1e9>
     52e: c9 2e        	cmp	#$2e
     530: d0 f1        	bne	$523 <readDirectory+0x1ca>
     532: a6 1c        	ldx	$1c                     ; 0x201c <wipeArea+0x150>
     534: 86 18        	stx	$18                     ; 0x2018 <wipeArea+0x14c>
     536: a6 1d        	ldx	$1d                     ; 0x201d <wipeArea+0x151>
     538: 86 19        	stx	$19                     ; 0x2019 <wipeArea+0x14d>
     53a: b1 1c        	lda	($1c),y                 ; 0x201c <wipeArea+0x150>
     53c: e6 1c        	inc	$1c                     ; 0x201c <wipeArea+0x150>
     53e: d0 eb        	bne	$52b <readDirectory+0x1d2>
     540: 80 e7        	bra	$529 <readDirectory+0x1d0>
     542: a6 19        	ldx	$19                     ; 0x2019 <wipeArea+0x14d>
     544: e4 1b        	cpx	$1b                     ; 0x201b <wipeArea+0x14f>
     546: d0 06        	bne	$54e <readDirectory+0x1f5>
     548: a6 18        	ldx	$18                     ; 0x2018 <wipeArea+0x14c>
     54a: e4 1a        	cpx	$1a                     ; 0x201a <wipeArea+0x14e>
     54c: f0 33        	beq	$581 <readDirectory+0x228>
     54e: a0 01        	ldy	#$1
     550: b1 18        	lda	($18),y                 ; 0x2018 <wipeArea+0x14c>
     552: f0 2d        	beq	$581 <readDirectory+0x228>
     554: 85 1c        	sta	$1c                     ; 0x201c <wipeArea+0x150>
     556: a0 00        	ldy	#$0
     558: a2 00        	ldx	#$0
     55a: 98           	tya
     55b: 18           	clc
     55c: 65 18        	adc	$18                     ; 0x2018 <wipeArea+0x14c>
     55e: 85 1d        	sta	$1d                     ; 0x201d <wipeArea+0x151>
     560: 8a           	txa
     561: 65 19        	adc	$19                     ; 0x2019 <wipeArea+0x14d>
     563: c8           	iny
     564: d0 01        	bne	$567 <readDirectory+0x20e>
     566: e8           	inx
     567: 48           	pha
     568: a5 1d        	lda	$1d                     ; 0x201d <wipeArea+0x151>
     56a: 85 1a        	sta	$1a                     ; 0x201a <wipeArea+0x14e>
     56c: 68           	pla
     56d: 84 1d        	sty	$1d                     ; 0x201d <wipeArea+0x151>
     56f: 85 1b        	sta	$1b                     ; 0x201b <wipeArea+0x14f>
     571: a0 02        	ldy	#$2
     573: b1 1a        	lda	($1a),y                 ; 0x201a <wipeArea+0x14e>
     575: a4 1d        	ldy	$1d                     ; 0x201d <wipeArea+0x151>
     577: c9 00        	cmp	#$0
     579: d0 df        	bne	$55a <readDirectory+0x201>
     57b: 8a           	txa
     57c: d0 03        	bne	$581 <readDirectory+0x228>
     57e: 4c e2 09     	jmp	$9e2 <readDirectory+0x689>
     581: ae ac 9c     	ldx	$9cac                   ; 0x9cac <fpr+0x3005>
     584: d0 03        	bne	$589 <readDirectory+0x230>
     586: 4c 19 06     	jmp	$619 <readDirectory+0x2c0>
     589: a5 1e        	lda	$1e                     ; 0x201e <wipeArea+0x152>
     58b: d0 03        	bne	$590 <readDirectory+0x237>
     58d: 4c 19 06     	jmp	$619 <readDirectory+0x2c0>
     590: 86 1f        	stx	$1f                     ; 0x201f <wipeArea+0x153>
     592: a0 00        	ldy	#$0
     594: a2 00        	ldx	#$0
     596: 86 18        	stx	$18                     ; 0x2018 <wipeArea+0x14c>
     598: 98           	tya
     599: aa           	tax
     59a: a4 18        	ldy	$18                     ; 0x2018 <wipeArea+0x14c>
     59c: e8           	inx
     59d: d0 01        	bne	$5a0 <readDirectory+0x247>
     59f: c8           	iny
     5a0: 18           	clc
     5a1: 65 14        	adc	$14                     ; 0x2014 <wipeArea+0x148>
     5a3: 85 1b        	sta	$1b                     ; 0x201b <wipeArea+0x14f>
     5a5: a5 18        	lda	$18                     ; 0x2018 <wipeArea+0x14c>
     5a7: 65 15        	adc	$15                     ; 0x2015 <wipeArea+0x149>
     5a9: 86 1a        	stx	$1a                     ; 0x201a <wipeArea+0x14e>
     5ab: a6 1b        	ldx	$1b                     ; 0x201b <wipeArea+0x14f>
     5ad: 86 18        	stx	$18                     ; 0x2018 <wipeArea+0x14c>
     5af: 5a           	phy
     5b0: fa           	plx
     5b1: 85 19        	sta	$19                     ; 0x2019 <wipeArea+0x14d>
     5b3: a0 03        	ldy	#$3
     5b5: b1 18        	lda	($18),y                 ; 0x2018 <wipeArea+0x14c>
     5b7: a4 1a        	ldy	$1a                     ; 0x201a <wipeArea+0x14e>
     5b9: c9 00        	cmp	#$0
     5bb: d0 d9        	bne	$596 <readDirectory+0x23d>
     5bd: 8a           	txa
     5be: d0 06        	bne	$5c6 <readDirectory+0x26d>
     5c0: c0 04        	cpy	#$4
     5c2: b0 06        	bcs	$5ca <readDirectory+0x271>
     5c4: 80 53        	bra	$619 <readDirectory+0x2c0>
     5c6: e0 00        	cpx	#$0
     5c8: 90 4f        	bcc	$619 <readDirectory+0x2c0>
     5ca: a2 00        	ldx	#$0
     5cc: 86 18        	stx	$18                     ; 0x2018 <wipeArea+0x14c>
     5ce: a2 00        	ldx	#$0
     5d0: 86 19        	stx	$19                     ; 0x2019 <wipeArea+0x14d>
     5d2: a5 1e        	lda	$1e                     ; 0x201e <wipeArea+0x152>
     5d4: a6 16        	ldx	$16                     ; 0x2016 <wipeArea+0x14a>
     5d6: 86 1c        	stx	$1c                     ; 0x201c <wipeArea+0x150>
     5d8: a6 17        	ldx	$17                     ; 0x2017 <wipeArea+0x14b>
     5da: 86 1d        	stx	$1d                     ; 0x201d <wipeArea+0x151>
     5dc: a2 00        	ldx	#$0
     5de: 86 1a        	stx	$1a                     ; 0x201a <wipeArea+0x14e>
     5e0: a2 00        	ldx	#$0
     5e2: 86 1b        	stx	$1b                     ; 0x201b <wipeArea+0x14f>
     5e4: a0 01        	ldy	#$1
     5e6: 80 0b        	bra	$5f3 <readDirectory+0x29a>
     5e8: b1 1c        	lda	($1c),y                 ; 0x201c <wipeArea+0x150>
     5ea: e6 1c        	inc	$1c                     ; 0x201c <wipeArea+0x150>
     5ec: d0 02        	bne	$5f0 <readDirectory+0x297>
     5ee: e6 1d        	inc	$1d                     ; 0x201d <wipeArea+0x151>
     5f0: aa           	tax
     5f1: f0 14        	beq	$607 <readDirectory+0x2ae>
     5f3: c9 2e        	cmp	#$2e
     5f5: d0 f1        	bne	$5e8 <readDirectory+0x28f>
     5f7: a6 1c        	ldx	$1c                     ; 0x201c <wipeArea+0x150>
     5f9: 86 18        	stx	$18                     ; 0x2018 <wipeArea+0x14c>
     5fb: a6 1d        	ldx	$1d                     ; 0x201d <wipeArea+0x151>
     5fd: 86 19        	stx	$19                     ; 0x2019 <wipeArea+0x14d>
     5ff: b1 1c        	lda	($1c),y                 ; 0x201c <wipeArea+0x150>
     601: e6 1c        	inc	$1c                     ; 0x201c <wipeArea+0x150>
     603: d0 eb        	bne	$5f0 <readDirectory+0x297>
     605: 80 e7        	bra	$5ee <readDirectory+0x295>
     607: a6 19        	ldx	$19                     ; 0x2019 <wipeArea+0x14d>
     609: e4 1b        	cpx	$1b                     ; 0x201b <wipeArea+0x14f>
     60b: d0 03        	bne	$610 <readDirectory+0x2b7>
     60d: 4c 44 08     	jmp	$844 <readDirectory+0x4eb>
     610: a0 01        	ldy	#$1
     612: b1 18        	lda	($18),y                 ; 0x2018 <wipeArea+0x14c>
     614: f0 03        	beq	$619 <readDirectory+0x2c0>
     616: 4c c2 08     	jmp	$8c2 <readDirectory+0x569>
     619: ae af 9c     	ldx	$9caf                   ; 0x9caf <fpr+0x3008>
     61c: d0 03        	bne	$621 <readDirectory+0x2c8>
     61e: 4c e2 06     	jmp	$6e2 <readDirectory+0x389>
     621: a5 1e        	lda	$1e                     ; 0x201e <wipeArea+0x152>
     623: d0 03        	bne	$628 <readDirectory+0x2cf>
     625: 4c 7a 07     	jmp	$77a <readDirectory+0x421>
     628: 86 1f        	stx	$1f                     ; 0x201f <wipeArea+0x153>
     62a: a0 00        	ldy	#$0
     62c: a2 00        	ldx	#$0
     62e: 86 18        	stx	$18                     ; 0x2018 <wipeArea+0x14c>
     630: 98           	tya
     631: a4 18        	ldy	$18                     ; 0x2018 <wipeArea+0x14c>
     633: aa           	tax
     634: e8           	inx
     635: d0 01        	bne	$638 <readDirectory+0x2df>
     637: c8           	iny
     638: 18           	clc
     639: 65 14        	adc	$14                     ; 0x2014 <wipeArea+0x148>
     63b: 85 1b        	sta	$1b                     ; 0x201b <wipeArea+0x14f>
     63d: a5 18        	lda	$18                     ; 0x2018 <wipeArea+0x14c>
     63f: 65 15        	adc	$15                     ; 0x2015 <wipeArea+0x149>
     641: 86 1a        	stx	$1a                     ; 0x201a <wipeArea+0x14e>
     643: a6 1b        	ldx	$1b                     ; 0x201b <wipeArea+0x14f>
     645: 86 18        	stx	$18                     ; 0x2018 <wipeArea+0x14c>
     647: 5a           	phy
     648: fa           	plx
     649: 85 19        	sta	$19                     ; 0x2019 <wipeArea+0x14d>
     64b: a0 03        	ldy	#$3
     64d: b1 18        	lda	($18),y                 ; 0x2018 <wipeArea+0x14c>
     64f: a4 1a        	ldy	$1a                     ; 0x201a <wipeArea+0x14e>
     651: c9 00        	cmp	#$0
     653: d0 d9        	bne	$62e <readDirectory+0x2d5>
     655: 8a           	txa
     656: d0 07        	bne	$65f <readDirectory+0x306>
     658: c0 04        	cpy	#$4
     65a: b0 0a        	bcs	$666 <readDirectory+0x30d>
     65c: 4c e2 06     	jmp	$6e2 <readDirectory+0x389>
     65f: e0 00        	cpx	#$0
     661: b0 03        	bcs	$666 <readDirectory+0x30d>
     663: 4c e2 06     	jmp	$6e2 <readDirectory+0x389>
     666: a2 00        	ldx	#$0
     668: 86 18        	stx	$18                     ; 0x2018 <wipeArea+0x14c>
     66a: a2 00        	ldx	#$0
     66c: 86 19        	stx	$19                     ; 0x2019 <wipeArea+0x14d>
     66e: a5 1e        	lda	$1e                     ; 0x201e <wipeArea+0x152>
     670: a6 16        	ldx	$16                     ; 0x2016 <wipeArea+0x14a>
     672: 86 1c        	stx	$1c                     ; 0x201c <wipeArea+0x150>
     674: a6 17        	ldx	$17                     ; 0x2017 <wipeArea+0x14b>
     676: 86 1d        	stx	$1d                     ; 0x201d <wipeArea+0x151>
     678: a2 00        	ldx	#$0
     67a: 86 1a        	stx	$1a                     ; 0x201a <wipeArea+0x14e>
     67c: a2 00        	ldx	#$0
     67e: 86 1b        	stx	$1b                     ; 0x201b <wipeArea+0x14f>
     680: a0 01        	ldy	#$1
     682: 80 0b        	bra	$68f <readDirectory+0x336>
     684: b1 1c        	lda	($1c),y                 ; 0x201c <wipeArea+0x150>
     686: e6 1c        	inc	$1c                     ; 0x201c <wipeArea+0x150>
     688: d0 02        	bne	$68c <readDirectory+0x333>
     68a: e6 1d        	inc	$1d                     ; 0x201d <wipeArea+0x151>
     68c: aa           	tax
     68d: f0 14        	beq	$6a3 <readDirectory+0x34a>
     68f: c9 2e        	cmp	#$2e
     691: d0 f1        	bne	$684 <readDirectory+0x32b>
     693: a6 1c        	ldx	$1c                     ; 0x201c <wipeArea+0x150>
     695: 86 18        	stx	$18                     ; 0x2018 <wipeArea+0x14c>
     697: a6 1d        	ldx	$1d                     ; 0x201d <wipeArea+0x151>
     699: 86 19        	stx	$19                     ; 0x2019 <wipeArea+0x14d>
     69b: b1 1c        	lda	($1c),y                 ; 0x201c <wipeArea+0x150>
     69d: e6 1c        	inc	$1c                     ; 0x201c <wipeArea+0x150>
     69f: d0 eb        	bne	$68c <readDirectory+0x333>
     6a1: 80 e7        	bra	$68a <readDirectory+0x331>
     6a3: a6 19        	ldx	$19                     ; 0x2019 <wipeArea+0x14d>
     6a5: e4 1b        	cpx	$1b                     ; 0x201b <wipeArea+0x14f>
     6a7: d0 06        	bne	$6af <readDirectory+0x356>
     6a9: a6 18        	ldx	$18                     ; 0x2018 <wipeArea+0x14c>
     6ab: e4 1a        	cpx	$1a                     ; 0x201a <wipeArea+0x14e>
     6ad: f0 33        	beq	$6e2 <readDirectory+0x389>
     6af: a0 01        	ldy	#$1
     6b1: b1 18        	lda	($18),y                 ; 0x2018 <wipeArea+0x14c>
     6b3: f0 2d        	beq	$6e2 <readDirectory+0x389>
     6b5: 85 1c        	sta	$1c                     ; 0x201c <wipeArea+0x150>
     6b7: a0 00        	ldy	#$0
     6b9: a2 00        	ldx	#$0
     6bb: 98           	tya
     6bc: 18           	clc
     6bd: 65 18        	adc	$18                     ; 0x2018 <wipeArea+0x14c>
     6bf: 85 1d        	sta	$1d                     ; 0x201d <wipeArea+0x151>
     6c1: 8a           	txa
     6c2: 65 19        	adc	$19                     ; 0x2019 <wipeArea+0x14d>
     6c4: c8           	iny
     6c5: d0 01        	bne	$6c8 <readDirectory+0x36f>
     6c7: e8           	inx
     6c8: 48           	pha
     6c9: a5 1d        	lda	$1d                     ; 0x201d <wipeArea+0x151>
     6cb: 85 1a        	sta	$1a                     ; 0x201a <wipeArea+0x14e>
     6cd: 68           	pla
     6ce: 84 1d        	sty	$1d                     ; 0x201d <wipeArea+0x151>
     6d0: 85 1b        	sta	$1b                     ; 0x201b <wipeArea+0x14f>
     6d2: a0 02        	ldy	#$2
     6d4: b1 1a        	lda	($1a),y                 ; 0x201a <wipeArea+0x14e>
     6d6: a4 1d        	ldy	$1d                     ; 0x201d <wipeArea+0x151>
     6d8: c9 00        	cmp	#$0
     6da: d0 df        	bne	$6bb <readDirectory+0x362>
     6dc: 8a           	txa
     6dd: d0 03        	bne	$6e2 <readDirectory+0x389>
     6df: 4c 63 0a     	jmp	$a63 <readDirectory+0x70a>
     6e2: ae b2 9c     	ldx	$9cb2                   ; 0x9cb2 <fpr+0x300b>
     6e5: d0 03        	bne	$6ea <readDirectory+0x391>
     6e7: 4c 7a 07     	jmp	$77a <readDirectory+0x421>
     6ea: a5 1e        	lda	$1e                     ; 0x201e <wipeArea+0x152>
     6ec: d0 03        	bne	$6f1 <readDirectory+0x398>
     6ee: 4c 7a 07     	jmp	$77a <readDirectory+0x421>
     6f1: 86 1f        	stx	$1f                     ; 0x201f <wipeArea+0x153>
     6f3: a0 00        	ldy	#$0
     6f5: a2 00        	ldx	#$0
     6f7: 86 18        	stx	$18                     ; 0x2018 <wipeArea+0x14c>
     6f9: 98           	tya
     6fa: a4 18        	ldy	$18                     ; 0x2018 <wipeArea+0x14c>
     6fc: aa           	tax
     6fd: e8           	inx
     6fe: d0 01        	bne	$701 <readDirectory+0x3a8>
     700: c8           	iny
     701: 18           	clc
     702: 65 14        	adc	$14                     ; 0x2014 <wipeArea+0x148>
     704: 85 1b        	sta	$1b                     ; 0x201b <wipeArea+0x14f>
     706: a5 18        	lda	$18                     ; 0x2018 <wipeArea+0x14c>
     708: 65 15        	adc	$15                     ; 0x2015 <wipeArea+0x149>
     70a: 86 1a        	stx	$1a                     ; 0x201a <wipeArea+0x14e>
     70c: a6 1b        	ldx	$1b                     ; 0x201b <wipeArea+0x14f>
     70e: 86 18        	stx	$18                     ; 0x2018 <wipeArea+0x14c>
     710: 5a           	phy
     711: fa           	plx
     712: 85 19        	sta	$19                     ; 0x2019 <wipeArea+0x14d>
     714: a0 03        	ldy	#$3
     716: b1 18        	lda	($18),y                 ; 0x2018 <wipeArea+0x14c>
     718: a4 1a        	ldy	$1a                     ; 0x201a <wipeArea+0x14e>
     71a: c9 00        	cmp	#$0
     71c: d0 d9        	bne	$6f7 <readDirectory+0x39e>
     71e: 8a           	txa
     71f: d0 06        	bne	$727 <readDirectory+0x3ce>
     721: c0 04        	cpy	#$4
     723: b0 06        	bcs	$72b <readDirectory+0x3d2>
     725: 80 53        	bra	$77a <readDirectory+0x421>
     727: e0 00        	cpx	#$0
     729: 90 4f        	bcc	$77a <readDirectory+0x421>
     72b: a2 00        	ldx	#$0
     72d: 86 18        	stx	$18                     ; 0x2018 <wipeArea+0x14c>
     72f: a2 00        	ldx	#$0
     731: 86 19        	stx	$19                     ; 0x2019 <wipeArea+0x14d>
     733: a6 16        	ldx	$16                     ; 0x2016 <wipeArea+0x14a>
     735: 86 1c        	stx	$1c                     ; 0x201c <wipeArea+0x150>
     737: a6 17        	ldx	$17                     ; 0x2017 <wipeArea+0x14b>
     739: 86 1d        	stx	$1d                     ; 0x201d <wipeArea+0x151>
     73b: a2 00        	ldx	#$0
     73d: 86 1a        	stx	$1a                     ; 0x201a <wipeArea+0x14e>
     73f: a2 00        	ldx	#$0
     741: 86 1b        	stx	$1b                     ; 0x201b <wipeArea+0x14f>
     743: a0 01        	ldy	#$1
     745: a5 1e        	lda	$1e                     ; 0x201e <wipeArea+0x152>
     747: 80 0b        	bra	$754 <readDirectory+0x3fb>
     749: b1 1c        	lda	($1c),y                 ; 0x201c <wipeArea+0x150>
     74b: e6 1c        	inc	$1c                     ; 0x201c <wipeArea+0x150>
     74d: d0 02        	bne	$751 <readDirectory+0x3f8>
     74f: e6 1d        	inc	$1d                     ; 0x201d <wipeArea+0x151>
     751: aa           	tax
     752: f0 14        	beq	$768 <readDirectory+0x40f>
     754: c9 2e        	cmp	#$2e
     756: d0 f1        	bne	$749 <readDirectory+0x3f0>
     758: a6 1c        	ldx	$1c                     ; 0x201c <wipeArea+0x150>
     75a: 86 18        	stx	$18                     ; 0x2018 <wipeArea+0x14c>
     75c: a6 1d        	ldx	$1d                     ; 0x201d <wipeArea+0x151>
     75e: 86 19        	stx	$19                     ; 0x2019 <wipeArea+0x14d>
     760: b1 1c        	lda	($1c),y                 ; 0x201c <wipeArea+0x150>
     762: e6 1c        	inc	$1c                     ; 0x201c <wipeArea+0x150>
     764: d0 eb        	bne	$751 <readDirectory+0x3f8>
     766: 80 e7        	bra	$74f <readDirectory+0x3f6>
     768: a6 19        	ldx	$19                     ; 0x2019 <wipeArea+0x14d>
     76a: e4 1b        	cpx	$1b                     ; 0x201b <wipeArea+0x14f>
     76c: d0 03        	bne	$771 <readDirectory+0x418>
     76e: 4c 50 08     	jmp	$850 <readDirectory+0x4f7>
     771: a0 01        	ldy	#$1
     773: b1 18        	lda	($18),y                 ; 0x2018 <wipeArea+0x14c>
     775: f0 03        	beq	$77a <readDirectory+0x421>
     777: 4c d9 09     	jmp	$9d9 <readDirectory+0x680>
     77a: a0 01        	ldy	#$1
     77c: b1 14        	lda	($14),y                 ; 0x2014 <wipeArea+0x148>
     77e: f0 03        	beq	$783 <readDirectory+0x42a>
     780: 4c e1 0a     	jmp	$ae1 <readDirectory+0x788>
     783: 20 e5 53     	jsr	$53e5 <fileReadDir>
     786: a6 12        	ldx	$12                     ; 0x2012 <wipeArea+0x146>
     788: 86 14        	stx	$14                     ; 0x2014 <wipeArea+0x148>
     78a: a6 13        	ldx	$13                     ; 0x2013 <wipeArea+0x147>
     78c: 86 15        	stx	$15                     ; 0x2015 <wipeArea+0x149>
     78e: a6 15        	ldx	$15                     ; 0x2015 <wipeArea+0x149>
     790: a0 00        	ldy	#$0
     792: 84 12        	sty	$12                     ; 0x2012 <wipeArea+0x146>
     794: a0 00        	ldy	#$0
     796: 84 13        	sty	$13                     ; 0x2013 <wipeArea+0x147>
     798: e4 13        	cpx	$13                     ; 0x2013 <wipeArea+0x147>
     79a: d0 09        	bne	$7a5 <readDirectory+0x44c>
     79c: a6 14        	ldx	$14                     ; 0x2014 <wipeArea+0x148>
     79e: e4 12        	cpx	$12                     ; 0x2012 <wipeArea+0x146>
     7a0: d0 03        	bne	$7a5 <readDirectory+0x44c>
     7a2: 4c 5c 08     	jmp	$85c <readDirectory+0x503>
     7a5: a0 02        	ldy	#$2
     7a7: b1 14        	lda	($14),y                 ; 0x2014 <wipeArea+0x148>
     7a9: a6 65        	ldx	$65                     ; 0x2065 <wipeArea+0x199>
     7ab: 86 12        	stx	$12                     ; 0x2012 <wipeArea+0x146>
     7ad: a6 66        	ldx	$66                     ; 0x2066 <wipeArea+0x19a>
     7af: 86 13        	stx	$13                     ; 0x2013 <wipeArea+0x147>
     7b1: 85 1e        	sta	$1e                     ; 0x201e <wipeArea+0x152>
     7b3: c9 2e        	cmp	#$2e
     7b5: d0 10        	bne	$7c7 <readDirectory+0x46e>
     7b7: a0 03        	ldy	#$3
     7b9: b1 14        	lda	($14),y                 ; 0x2014 <wipeArea+0x148>
     7bb: f0 c6        	beq	$783 <readDirectory+0x42a>
     7bd: c9 2e        	cmp	#$2e
     7bf: d0 06        	bne	$7c7 <readDirectory+0x46e>
     7c1: a0 04        	ldy	#$4
     7c3: b1 14        	lda	($14),y                 ; 0x2014 <wipeArea+0x148>
     7c5: f0 bc        	beq	$783 <readDirectory+0x42a>
     7c7: a5 14        	lda	$14                     ; 0x2014 <wipeArea+0x148>
     7c9: 18           	clc
     7ca: 69 02        	adc	#$2
     7cc: 85 16        	sta	$16                     ; 0x2016 <wipeArea+0x14a>
     7ce: a5 15        	lda	$15                     ; 0x2015 <wipeArea+0x149>
     7d0: 69 00        	adc	#$0
     7d2: 85 17        	sta	$17                     ; 0x2017 <wipeArea+0x14b>
     7d4: ae a9 9c     	ldx	$9ca9                   ; 0x9ca9 <fpr+0x3002>
     7d7: d0 03        	bne	$7dc <readDirectory+0x483>
     7d9: 4c 81 05     	jmp	$581 <readDirectory+0x228>
     7dc: a5 1e        	lda	$1e                     ; 0x201e <wipeArea+0x152>
     7de: d0 03        	bne	$7e3 <readDirectory+0x48a>
     7e0: 4c 19 06     	jmp	$619 <readDirectory+0x2c0>
     7e3: 86 1f        	stx	$1f                     ; 0x201f <wipeArea+0x153>
     7e5: a0 00        	ldy	#$0
     7e7: a2 00        	ldx	#$0
     7e9: 86 18        	stx	$18                     ; 0x2018 <wipeArea+0x14c>
     7eb: 98           	tya
     7ec: aa           	tax
     7ed: a4 18        	ldy	$18                     ; 0x2018 <wipeArea+0x14c>
     7ef: e8           	inx
     7f0: d0 01        	bne	$7f3 <readDirectory+0x49a>
     7f2: c8           	iny
     7f3: 18           	clc
     7f4: 65 14        	adc	$14                     ; 0x2014 <wipeArea+0x148>
     7f6: 85 1b        	sta	$1b                     ; 0x201b <wipeArea+0x14f>
     7f8: a5 18        	lda	$18                     ; 0x2018 <wipeArea+0x14c>
     7fa: 65 15        	adc	$15                     ; 0x2015 <wipeArea+0x149>
     7fc: 86 1a        	stx	$1a                     ; 0x201a <wipeArea+0x14e>
     7fe: a6 1b        	ldx	$1b                     ; 0x201b <wipeArea+0x14f>
     800: 86 18        	stx	$18                     ; 0x2018 <wipeArea+0x14c>
     802: 5a           	phy
     803: fa           	plx
     804: 85 19        	sta	$19                     ; 0x2019 <wipeArea+0x14d>
     806: a0 03        	ldy	#$3
     808: b1 18        	lda	($18),y                 ; 0x2018 <wipeArea+0x14c>
     80a: a4 1a        	ldy	$1a                     ; 0x201a <wipeArea+0x14e>
     80c: c9 00        	cmp	#$0
     80e: d0 d9        	bne	$7e9 <readDirectory+0x490>
     810: 8a           	txa
     811: f0 03        	beq	$816 <readDirectory+0x4bd>
     813: 4c fe 04     	jmp	$4fe <readDirectory+0x1a5>
     816: c0 04        	cpy	#$4
     818: 90 03        	bcc	$81d <readDirectory+0x4c4>
     81a: 4c 05 05     	jmp	$505 <readDirectory+0x1ac>
     81d: 4c 81 05     	jmp	$581 <readDirectory+0x228>
     820: 98           	tya
     821: 18           	clc
     822: 65 18        	adc	$18                     ; 0x2018 <wipeArea+0x14c>
     824: 85 1d        	sta	$1d                     ; 0x201d <wipeArea+0x151>
     826: 8a           	txa
     827: 65 19        	adc	$19                     ; 0x2019 <wipeArea+0x14d>
     829: c8           	iny
     82a: d0 01        	bne	$82d <readDirectory+0x4d4>
     82c: e8           	inx
     82d: 48           	pha
     82e: a5 1d        	lda	$1d                     ; 0x201d <wipeArea+0x151>
     830: 85 1a        	sta	$1a                     ; 0x201a <wipeArea+0x14e>
     832: 68           	pla
     833: 84 1d        	sty	$1d                     ; 0x201d <wipeArea+0x151>
     835: 85 1b        	sta	$1b                     ; 0x201b <wipeArea+0x14f>
     837: a0 02        	ldy	#$2
     839: b1 1a        	lda	($1a),y                 ; 0x201a <wipeArea+0x14e>
     83b: a4 1d        	ldy	$1d                     ; 0x201d <wipeArea+0x151>
     83d: c9 00        	cmp	#$0
     83f: d0 df        	bne	$820 <readDirectory+0x4c7>
     841: 4c cb 08     	jmp	$8cb <readDirectory+0x572>
     844: a6 18        	ldx	$18                     ; 0x2018 <wipeArea+0x14c>
     846: e4 1a        	cpx	$1a                     ; 0x201a <wipeArea+0x14e>
     848: f0 03        	beq	$84d <readDirectory+0x4f4>
     84a: 4c 10 06     	jmp	$610 <readDirectory+0x2b7>
     84d: 4c 19 06     	jmp	$619 <readDirectory+0x2c0>
     850: a6 18        	ldx	$18                     ; 0x2018 <wipeArea+0x14c>
     852: e4 1a        	cpx	$1a                     ; 0x201a <wipeArea+0x14e>
     854: f0 03        	beq	$859 <readDirectory+0x500>
     856: 4c 71 07     	jmp	$771 <readDirectory+0x418>
     859: 4c 7a 07     	jmp	$77a <readDirectory+0x421>
     85c: a6 6a        	ldx	$6a                     ; 0x206a <wipeArea+0x19e>
     85e: 8e a1 9c     	stx	$9ca1                   ; 0x9ca1 <fpr+0x2ffa>
     861: a6 69        	ldx	$69                     ; 0x2069 <wipeArea+0x19d>
     863: 8e a2 9c     	stx	$9ca2                   ; 0x9ca2 <fpr+0x2ffb>
     866: a2 5d        	ldx	#$5d
     868: 86 12        	stx	$12                     ; 0x2012 <wipeArea+0x146>
     86a: a2 6d        	ldx	#$6d
     86c: 86 13        	stx	$13                     ; 0x2013 <wipeArea+0x147>
     86e: a2 8f        	ldx	#$8f
     870: 86 14        	stx	$14                     ; 0x2014 <wipeArea+0x148>
     872: a2 6b        	ldx	#$6b
     874: 86 15        	stx	$15                     ; 0x2015 <wipeArea+0x149>
     876: a9 78        	lda	#$78
     878: a2 00        	ldx	#$0
     87a: 20 1d 65     	jsr	$651d <memcpy>
     87d: a2 62        	ldx	#$62
     87f: a0 00        	ldy	#$0
     881: 86 12        	stx	$12                     ; 0x2012 <wipeArea+0x146>
     883: 84 13        	sty	$13                     ; 0x2013 <wipeArea+0x147>
     885: a2 52        	ldx	#$52
     887: 86 14        	stx	$14                     ; 0x2014 <wipeArea+0x148>
     889: a2 00        	ldx	#$0
     88b: 86 15        	stx	$15                     ; 0x2015 <wipeArea+0x149>
     88d: a0 00        	ldy	#$0
     88f: a6 60        	ldx	$60                     ; 0x2060 <wipeArea+0x194>
     891: b5 55        	lda	$55,x                   ; 0x2055 <wipeArea+0x189>
     893: f0 1a        	beq	$8af <readDirectory+0x556>
     895: 85 f3        	sta	$f3                     ; 0x20f3 <wipeArea+0x227>
     897: a2 61        	ldx	#$61
     899: 86 16        	stx	$16                     ; 0x2016 <wipeArea+0x14a>
     89b: 84 17        	sty	$17                     ; 0x2017 <wipeArea+0x14b>
     89d: 20 80 ff     	jsr	$ff80 <__heap_start+0x60c6>
     8a0: 92 16        	sta	($16)                   ; 0x2016 <wipeArea+0x14a>
     8a2: a9 00        	lda	#$0
     8a4: 6a           	ror
     8a5: 85 14        	sta	$14                     ; 0x2014 <wipeArea+0x148>
     8a7: a5 52        	lda	$52                     ; 0x2052 <wipeArea+0x186>
     8a9: d0 04        	bne	$8af <readDirectory+0x556>
     8ab: a6 60        	ldx	$60                     ; 0x2060 <wipeArea+0x194>
     8ad: 74 55        	stz	$55,x                   ; 0x2055 <wipeArea+0x189>
     8af: 64 4b        	stz	$4b                     ; 0x204b <wipeArea+0x17f>
     8b1: 20 00 ff     	jsr	$ff00 <__heap_start+0x6046>
     8b4: 92 12        	sta	($12)                   ; 0x2012 <wipeArea+0x146>
     8b6: a9 00        	lda	#$0
     8b8: 6a           	ror
     8b9: 85 14        	sta	$14                     ; 0x2014 <wipeArea+0x148>
     8bb: a5 4b        	lda	$4b                     ; 0x204b <wipeArea+0x17f>
     8bd: c9 46        	cmp	#$46
     8bf: d0 ce        	bne	$88f <readDirectory+0x536>
     8c1: 60           	rts
     8c2: 85 1c        	sta	$1c                     ; 0x201c <wipeArea+0x150>
     8c4: a0 00        	ldy	#$0
     8c6: a2 00        	ldx	#$0
     8c8: 4c 20 08     	jmp	$820 <readDirectory+0x4c7>
     8cb: 8a           	txa
     8cc: f0 03        	beq	$8d1 <readDirectory+0x578>
     8ce: 4c 19 06     	jmp	$619 <readDirectory+0x2c0>
     8d1: c0 03        	cpy	#$3
     8d3: f0 03        	beq	$8d8 <readDirectory+0x57f>
     8d5: 4c 19 06     	jmp	$619 <readDirectory+0x2c0>
     8d8: a6 1c        	ldx	$1c                     ; 0x201c <wipeArea+0x150>
     8da: e0 41        	cpx	#$41
     8dc: 90 0a        	bcc	$8e8 <readDirectory+0x58f>
     8de: a5 1c        	lda	$1c                     ; 0x201c <wipeArea+0x150>
     8e0: c9 5b        	cmp	#$5b
     8e2: b0 04        	bcs	$8e8 <readDirectory+0x58f>
     8e4: 09 20        	ora	#$20
     8e6: 85 1c        	sta	$1c                     ; 0x201c <wipeArea+0x150>
     8e8: a5 1f        	lda	$1f                     ; 0x201f <wipeArea+0x153>
     8ea: c9 41        	cmp	#$41
     8ec: 90 06        	bcc	$8f4 <readDirectory+0x59b>
     8ee: c9 5b        	cmp	#$5b
     8f0: b0 02        	bcs	$8f4 <readDirectory+0x59b>
     8f2: 09 20        	ora	#$20
     8f4: 85 1a        	sta	$1a                     ; 0x201a <wipeArea+0x14e>
     8f6: a6 1c        	ldx	$1c                     ; 0x201c <wipeArea+0x150>
     8f8: e4 1a        	cpx	$1a                     ; 0x201a <wipeArea+0x14e>
     8fa: f0 03        	beq	$8ff <readDirectory+0x5a6>
     8fc: 4c 19 06     	jmp	$619 <readDirectory+0x2c0>
     8ff: a0 02        	ldy	#$2
     901: b1 18        	lda	($18),y                 ; 0x2018 <wipeArea+0x14c>
     903: c9 41        	cmp	#$41
     905: 90 06        	bcc	$90d <readDirectory+0x5b4>
     907: c9 5b        	cmp	#$5b
     909: b0 02        	bcs	$90d <readDirectory+0x5b4>
     90b: 09 20        	ora	#$20
     90d: 85 1b        	sta	$1b                     ; 0x201b <wipeArea+0x14f>
     90f: ad ad 9c     	lda	$9cad                   ; 0x9cad <fpr+0x3006>
     912: c9 41        	cmp	#$41
     914: 90 06        	bcc	$91c <readDirectory+0x5c3>
     916: c9 5b        	cmp	#$5b
     918: b0 02        	bcs	$91c <readDirectory+0x5c3>
     91a: 09 20        	ora	#$20
     91c: 85 1a        	sta	$1a                     ; 0x201a <wipeArea+0x14e>
     91e: a6 1b        	ldx	$1b                     ; 0x201b <wipeArea+0x14f>
     920: e4 1a        	cpx	$1a                     ; 0x201a <wipeArea+0x14e>
     922: f0 03        	beq	$927 <readDirectory+0x5ce>
     924: 4c 19 06     	jmp	$619 <readDirectory+0x2c0>
     927: a0 03        	ldy	#$3
     929: b1 18        	lda	($18),y                 ; 0x2018 <wipeArea+0x14c>
     92b: c9 41        	cmp	#$41
     92d: 90 06        	bcc	$935 <readDirectory+0x5dc>
     92f: c9 5b        	cmp	#$5b
     931: b0 02        	bcs	$935 <readDirectory+0x5dc>
     933: 09 20        	ora	#$20
     935: 85 19        	sta	$19                     ; 0x2019 <wipeArea+0x14d>
     937: ad ae 9c     	lda	$9cae                   ; 0x9cae <fpr+0x3007>
     93a: c9 41        	cmp	#$41
     93c: 90 06        	bcc	$944 <readDirectory+0x5eb>
     93e: c9 5b        	cmp	#$5b
     940: b0 02        	bcs	$944 <readDirectory+0x5eb>
     942: 09 20        	ora	#$20
     944: 85 18        	sta	$18                     ; 0x2018 <wipeArea+0x14c>
     946: a6 19        	ldx	$19                     ; 0x2019 <wipeArea+0x14d>
     948: e4 18        	cpx	$18                     ; 0x2018 <wipeArea+0x14c>
     94a: f0 03        	beq	$94f <readDirectory+0x5f6>
     94c: 4c 19 06     	jmp	$619 <readDirectory+0x2c0>
     94f: 4c e1 0a     	jmp	$ae1 <readDirectory+0x788>
     952: 8a           	txa
     953: f0 03        	beq	$958 <readDirectory+0x5ff>
     955: 4c 7a 07     	jmp	$77a <readDirectory+0x421>
     958: c0 03        	cpy	#$3
     95a: f0 03        	beq	$95f <readDirectory+0x606>
     95c: 4c 7a 07     	jmp	$77a <readDirectory+0x421>
     95f: a6 1c        	ldx	$1c                     ; 0x201c <wipeArea+0x150>
     961: e0 41        	cpx	#$41
     963: 90 0a        	bcc	$96f <readDirectory+0x616>
     965: a5 1c        	lda	$1c                     ; 0x201c <wipeArea+0x150>
     967: c9 5b        	cmp	#$5b
     969: b0 04        	bcs	$96f <readDirectory+0x616>
     96b: 09 20        	ora	#$20
     96d: 85 1c        	sta	$1c                     ; 0x201c <wipeArea+0x150>
     96f: a5 1f        	lda	$1f                     ; 0x201f <wipeArea+0x153>
     971: c9 41        	cmp	#$41
     973: 90 06        	bcc	$97b <readDirectory+0x622>
     975: c9 5b        	cmp	#$5b
     977: b0 02        	bcs	$97b <readDirectory+0x622>
     979: 09 20        	ora	#$20
     97b: 85 1a        	sta	$1a                     ; 0x201a <wipeArea+0x14e>
     97d: a6 1c        	ldx	$1c                     ; 0x201c <wipeArea+0x150>
     97f: e4 1a        	cpx	$1a                     ; 0x201a <wipeArea+0x14e>
     981: f0 03        	beq	$986 <readDirectory+0x62d>
     983: 4c 7a 07     	jmp	$77a <readDirectory+0x421>
     986: a0 02        	ldy	#$2
     988: b1 18        	lda	($18),y                 ; 0x2018 <wipeArea+0x14c>
     98a: c9 41        	cmp	#$41
     98c: 90 06        	bcc	$994 <readDirectory+0x63b>
     98e: c9 5b        	cmp	#$5b
     990: b0 02        	bcs	$994 <readDirectory+0x63b>
     992: 09 20        	ora	#$20
     994: 85 1b        	sta	$1b                     ; 0x201b <wipeArea+0x14f>
     996: ad b3 9c     	lda	$9cb3                   ; 0x9cb3 <fpr+0x300c>
     999: c9 41        	cmp	#$41
     99b: 90 06        	bcc	$9a3 <readDirectory+0x64a>
     99d: c9 5b        	cmp	#$5b
     99f: b0 02        	bcs	$9a3 <readDirectory+0x64a>
     9a1: 09 20        	ora	#$20
     9a3: 85 1a        	sta	$1a                     ; 0x201a <wipeArea+0x14e>
     9a5: a6 1b        	ldx	$1b                     ; 0x201b <wipeArea+0x14f>
     9a7: e4 1a        	cpx	$1a                     ; 0x201a <wipeArea+0x14e>
     9a9: f0 03        	beq	$9ae <readDirectory+0x655>
     9ab: 4c 7a 07     	jmp	$77a <readDirectory+0x421>
     9ae: a0 03        	ldy	#$3
     9b0: b1 18        	lda	($18),y                 ; 0x2018 <wipeArea+0x14c>
     9b2: c9 41        	cmp	#$41
     9b4: 90 06        	bcc	$9bc <readDirectory+0x663>
     9b6: c9 5b        	cmp	#$5b
     9b8: b0 02        	bcs	$9bc <readDirectory+0x663>
     9ba: 09 20        	ora	#$20
     9bc: 85 19        	sta	$19                     ; 0x2019 <wipeArea+0x14d>
     9be: ad b4 9c     	lda	$9cb4                   ; 0x9cb4 <fpr+0x300d>
     9c1: c9 41        	cmp	#$41
     9c3: 90 06        	bcc	$9cb <readDirectory+0x672>
     9c5: c9 5b        	cmp	#$5b
     9c7: b0 02        	bcs	$9cb <readDirectory+0x672>
     9c9: 09 20        	ora	#$20
     9cb: 85 18        	sta	$18                     ; 0x2018 <wipeArea+0x14c>
     9cd: a6 19        	ldx	$19                     ; 0x2019 <wipeArea+0x14d>
     9cf: e4 18        	cpx	$18                     ; 0x2018 <wipeArea+0x14c>
     9d1: f0 03        	beq	$9d6 <readDirectory+0x67d>
     9d3: 4c 7a 07     	jmp	$77a <readDirectory+0x421>
     9d6: 4c e1 0a     	jmp	$ae1 <readDirectory+0x788>
     9d9: 85 1c        	sta	$1c                     ; 0x201c <wipeArea+0x150>
     9db: a0 00        	ldy	#$0
     9dd: a2 00        	ldx	#$0
     9df: 4c da 04     	jmp	$4da <readDirectory+0x181>
     9e2: c0 03        	cpy	#$3
     9e4: f0 03        	beq	$9e9 <readDirectory+0x690>
     9e6: 4c 81 05     	jmp	$581 <readDirectory+0x228>
     9e9: a6 1c        	ldx	$1c                     ; 0x201c <wipeArea+0x150>
     9eb: e0 41        	cpx	#$41
     9ed: 90 0a        	bcc	$9f9 <readDirectory+0x6a0>
     9ef: a5 1c        	lda	$1c                     ; 0x201c <wipeArea+0x150>
     9f1: c9 5b        	cmp	#$5b
     9f3: b0 04        	bcs	$9f9 <readDirectory+0x6a0>
     9f5: 09 20        	ora	#$20
     9f7: 85 1c        	sta	$1c                     ; 0x201c <wipeArea+0x150>
     9f9: a5 1f        	lda	$1f                     ; 0x201f <wipeArea+0x153>
     9fb: c9 41        	cmp	#$41
     9fd: 90 06        	bcc	$a05 <readDirectory+0x6ac>
     9ff: c9 5b        	cmp	#$5b
     a01: b0 02        	bcs	$a05 <readDirectory+0x6ac>
     a03: 09 20        	ora	#$20
     a05: 85 1a        	sta	$1a                     ; 0x201a <wipeArea+0x14e>
     a07: a6 1c        	ldx	$1c                     ; 0x201c <wipeArea+0x150>
     a09: e4 1a        	cpx	$1a                     ; 0x201a <wipeArea+0x14e>
     a0b: f0 03        	beq	$a10 <readDirectory+0x6b7>
     a0d: 4c 81 05     	jmp	$581 <readDirectory+0x228>
     a10: a0 02        	ldy	#$2
     a12: b1 18        	lda	($18),y                 ; 0x2018 <wipeArea+0x14c>
     a14: c9 41        	cmp	#$41
     a16: 90 06        	bcc	$a1e <readDirectory+0x6c5>
     a18: c9 5b        	cmp	#$5b
     a1a: b0 02        	bcs	$a1e <readDirectory+0x6c5>
     a1c: 09 20        	ora	#$20
     a1e: 85 1b        	sta	$1b                     ; 0x201b <wipeArea+0x14f>
     a20: ad aa 9c     	lda	$9caa                   ; 0x9caa <fpr+0x3003>
     a23: c9 41        	cmp	#$41
     a25: 90 06        	bcc	$a2d <readDirectory+0x6d4>
     a27: c9 5b        	cmp	#$5b
     a29: b0 02        	bcs	$a2d <readDirectory+0x6d4>
     a2b: 09 20        	ora	#$20
     a2d: 85 1a        	sta	$1a                     ; 0x201a <wipeArea+0x14e>
     a2f: a6 1b        	ldx	$1b                     ; 0x201b <wipeArea+0x14f>
     a31: e4 1a        	cpx	$1a                     ; 0x201a <wipeArea+0x14e>
     a33: f0 03        	beq	$a38 <readDirectory+0x6df>
     a35: 4c 81 05     	jmp	$581 <readDirectory+0x228>
     a38: a0 03        	ldy	#$3
     a3a: b1 18        	lda	($18),y                 ; 0x2018 <wipeArea+0x14c>
     a3c: c9 41        	cmp	#$41
     a3e: 90 06        	bcc	$a46 <readDirectory+0x6ed>
     a40: c9 5b        	cmp	#$5b
     a42: b0 02        	bcs	$a46 <readDirectory+0x6ed>
     a44: 09 20        	ora	#$20
     a46: 85 19        	sta	$19                     ; 0x2019 <wipeArea+0x14d>
     a48: ad ab 9c     	lda	$9cab                   ; 0x9cab <fpr+0x3004>
     a4b: c9 41        	cmp	#$41
     a4d: 90 06        	bcc	$a55 <readDirectory+0x6fc>
     a4f: c9 5b        	cmp	#$5b
     a51: b0 02        	bcs	$a55 <readDirectory+0x6fc>
     a53: 09 20        	ora	#$20
     a55: 85 18        	sta	$18                     ; 0x2018 <wipeArea+0x14c>
     a57: a6 19        	ldx	$19                     ; 0x2019 <wipeArea+0x14d>
     a59: e4 18        	cpx	$18                     ; 0x2018 <wipeArea+0x14c>
     a5b: f0 03        	beq	$a60 <readDirectory+0x707>
     a5d: 4c 81 05     	jmp	$581 <readDirectory+0x228>
     a60: 4c e1 0a     	jmp	$ae1 <readDirectory+0x788>
     a63: c0 03        	cpy	#$3
     a65: f0 03        	beq	$a6a <readDirectory+0x711>
     a67: 4c e2 06     	jmp	$6e2 <readDirectory+0x389>
     a6a: a6 1c        	ldx	$1c                     ; 0x201c <wipeArea+0x150>
     a6c: e0 41        	cpx	#$41
     a6e: 90 0a        	bcc	$a7a <readDirectory+0x721>
     a70: a5 1c        	lda	$1c                     ; 0x201c <wipeArea+0x150>
     a72: c9 5b        	cmp	#$5b
     a74: b0 04        	bcs	$a7a <readDirectory+0x721>
     a76: 09 20        	ora	#$20
     a78: 85 1c        	sta	$1c                     ; 0x201c <wipeArea+0x150>
     a7a: a5 1f        	lda	$1f                     ; 0x201f <wipeArea+0x153>
     a7c: c9 41        	cmp	#$41
     a7e: 90 06        	bcc	$a86 <readDirectory+0x72d>
     a80: c9 5b        	cmp	#$5b
     a82: b0 02        	bcs	$a86 <readDirectory+0x72d>
     a84: 09 20        	ora	#$20
     a86: 85 1a        	sta	$1a                     ; 0x201a <wipeArea+0x14e>
     a88: a6 1c        	ldx	$1c                     ; 0x201c <wipeArea+0x150>
     a8a: e4 1a        	cpx	$1a                     ; 0x201a <wipeArea+0x14e>
     a8c: f0 03        	beq	$a91 <readDirectory+0x738>
     a8e: 4c e2 06     	jmp	$6e2 <readDirectory+0x389>
     a91: a0 02        	ldy	#$2
     a93: b1 18        	lda	($18),y                 ; 0x2018 <wipeArea+0x14c>
     a95: c9 41        	cmp	#$41
     a97: 90 06        	bcc	$a9f <readDirectory+0x746>
     a99: c9 5b        	cmp	#$5b
     a9b: b0 02        	bcs	$a9f <readDirectory+0x746>
     a9d: 09 20        	ora	#$20
     a9f: 85 1b        	sta	$1b                     ; 0x201b <wipeArea+0x14f>
     aa1: ad b0 9c     	lda	$9cb0                   ; 0x9cb0 <fpr+0x3009>
     aa4: c9 41        	cmp	#$41
     aa6: 90 06        	bcc	$aae <readDirectory+0x755>
     aa8: c9 5b        	cmp	#$5b
     aaa: b0 02        	bcs	$aae <readDirectory+0x755>
     aac: 09 20        	ora	#$20
     aae: 85 1a        	sta	$1a                     ; 0x201a <wipeArea+0x14e>
     ab0: a6 1b        	ldx	$1b                     ; 0x201b <wipeArea+0x14f>
     ab2: e4 1a        	cpx	$1a                     ; 0x201a <wipeArea+0x14e>
     ab4: f0 03        	beq	$ab9 <readDirectory+0x760>
     ab6: 4c e2 06     	jmp	$6e2 <readDirectory+0x389>
     ab9: a0 03        	ldy	#$3
     abb: b1 18        	lda	($18),y                 ; 0x2018 <wipeArea+0x14c>
     abd: c9 41        	cmp	#$41
     abf: 90 06        	bcc	$ac7 <readDirectory+0x76e>
     ac1: c9 5b        	cmp	#$5b
     ac3: b0 02        	bcs	$ac7 <readDirectory+0x76e>
     ac5: 09 20        	ora	#$20
     ac7: 85 19        	sta	$19                     ; 0x2019 <wipeArea+0x14d>
     ac9: ad b1 9c     	lda	$9cb1                   ; 0x9cb1 <fpr+0x300a>
     acc: c9 41        	cmp	#$41
     ace: 90 06        	bcc	$ad6 <readDirectory+0x77d>
     ad0: c9 5b        	cmp	#$5b
     ad2: b0 02        	bcs	$ad6 <readDirectory+0x77d>
     ad4: 09 20        	ora	#$20
     ad6: 85 18        	sta	$18                     ; 0x2018 <wipeArea+0x14c>
     ad8: a6 19        	ldx	$19                     ; 0x2019 <wipeArea+0x14d>
     ada: e4 18        	cpx	$18                     ; 0x2018 <wipeArea+0x14c>
     adc: f0 03        	beq	$ae1 <readDirectory+0x788>
     ade: 4c e2 06     	jmp	$6e2 <readDirectory+0x389>
     ae1: a5 6a        	lda	$6a                     ; 0x206a <wipeArea+0x19e>
     ae3: 0a           	asl
     ae4: a6 69        	ldx	$69                     ; 0x2069 <wipeArea+0x19d>
     ae6: 86 18        	stx	$18                     ; 0x2018 <wipeArea+0x14c>
     ae8: 26 18        	rol	$18                     ; 0x2018 <wipeArea+0x14c>
     aea: 0a           	asl
     aeb: 26 18        	rol	$18                     ; 0x2018 <wipeArea+0x14c>
     aed: 0a           	asl
     aee: 85 19        	sta	$19                     ; 0x2019 <wipeArea+0x14d>
     af0: 26 18        	rol	$18                     ; 0x2018 <wipeArea+0x14c>
     af2: 0a           	asl
     af3: a6 18        	ldx	$18                     ; 0x2018 <wipeArea+0x14c>
     af5: 86 1a        	stx	$1a                     ; 0x201a <wipeArea+0x14e>
     af7: 26 1a        	rol	$1a                     ; 0x201a <wipeArea+0x14e>
     af9: 0a           	asl
     afa: 26 1a        	rol	$1a                     ; 0x201a <wipeArea+0x14e>
     afc: 0a           	asl
     afd: 26 1a        	rol	$1a                     ; 0x201a <wipeArea+0x14e>
     aff: 0a           	asl
     b00: 26 1a        	rol	$1a                     ; 0x201a <wipeArea+0x14e>
     b02: 38           	sec
     b03: e5 19        	sbc	$19                     ; 0x2019 <wipeArea+0x14d>
     b05: 85 19        	sta	$19                     ; 0x2019 <wipeArea+0x14d>
     b07: a5 1a        	lda	$1a                     ; 0x201a <wipeArea+0x14e>
     b09: e5 18        	sbc	$18                     ; 0x2018 <wipeArea+0x14c>
     b0b: 85 18        	sta	$18                     ; 0x2018 <wipeArea+0x14c>
     b0d: a9 5d        	lda	#$5d
     b0f: 18           	clc
     b10: 65 19        	adc	$19                     ; 0x2019 <wipeArea+0x14d>
     b12: a8           	tay
     b13: a9 6d        	lda	#$6d
     b15: 65 18        	adc	$18                     ; 0x2018 <wipeArea+0x14c>
     b17: a2 77        	ldx	#$77
     b19: 84 1e        	sty	$1e                     ; 0x201e <wipeArea+0x152>
     b1b: 84 18        	sty	$18                     ; 0x2018 <wipeArea+0x14c>
     b1d: 85 1f        	sta	$1f                     ; 0x201f <wipeArea+0x153>
     b1f: 85 19        	sta	$19                     ; 0x2019 <wipeArea+0x14d>
     b21: 64 1a        	stz	$1a                     ; 0x201a <wipeArea+0x14e>
     b23: 64 1b        	stz	$1b                     ; 0x201b <wipeArea+0x14f>
     b25: 4c ae 04     	jmp	$4ae <readDirectory+0x155>
     b28: ca           	dex
     b29: e0 ff        	cpx	#$ff
     b2b: d0 02        	bne	$b2f <readDirectory+0x7d6>
     b2d: c6 1b        	dec	$1b                     ; 0x201b <wipeArea+0x14f>
     b2f: a5 1b        	lda	$1b                     ; 0x201b <wipeArea+0x14f>
     b31: d0 03        	bne	$b36 <readDirectory+0x7dd>
     b33: 8a           	txa
     b34: f0 44        	beq	$b7a <readDirectory+0x821>
     b36: 18           	clc
     b37: a5 1e        	lda	$1e                     ; 0x201e <wipeArea+0x152>
     b39: 65 1a        	adc	$1a                     ; 0x201a <wipeArea+0x14e>
     b3b: 85 12        	sta	$12                     ; 0x2012 <wipeArea+0x146>
     b3d: a5 1f        	lda	$1f                     ; 0x201f <wipeArea+0x153>
     b3f: 69 00        	adc	#$0
     b41: 85 13        	sta	$13                     ; 0x2013 <wipeArea+0x147>
     b43: e6 12        	inc	$12                     ; 0x2012 <wipeArea+0x146>
     b45: d0 02        	bne	$b49 <readDirectory+0x7f0>
     b47: e6 13        	inc	$13                     ; 0x2013 <wipeArea+0x147>
     b49: a4 14        	ldy	$14                     ; 0x2014 <wipeArea+0x148>
     b4b: 84 6c        	sty	$6c                     ; 0x206c <wipeArea+0x1a0>
     b4d: a4 15        	ldy	$15                     ; 0x2015 <wipeArea+0x149>
     b4f: 84 6d        	sty	$6d                     ; 0x206d <wipeArea+0x1a1>
     b51: a4 1b        	ldy	$1b                     ; 0x201b <wipeArea+0x14f>
     b53: 84 14        	sty	$14                     ; 0x2014 <wipeArea+0x148>
     b55: a9 00        	lda	#$0
     b57: a4 18        	ldy	$18                     ; 0x2018 <wipeArea+0x14c>
     b59: 84 6e        	sty	$6e                     ; 0x206e <wipeArea+0x1a2>
     b5b: a4 19        	ldy	$19                     ; 0x2019 <wipeArea+0x14d>
     b5d: 84 6f        	sty	$6f                     ; 0x206f <wipeArea+0x1a3>
     b5f: 20 49 65     	jsr	$6549 <__memset>
     b62: a6 6e        	ldx	$6e                     ; 0x206e <wipeArea+0x1a2>
     b64: 86 18        	stx	$18                     ; 0x2018 <wipeArea+0x14c>
     b66: a6 6f        	ldx	$6f                     ; 0x206f <wipeArea+0x1a3>
     b68: 86 19        	stx	$19                     ; 0x2019 <wipeArea+0x14d>
     b6a: a6 6c        	ldx	$6c                     ; 0x206c <wipeArea+0x1a0>
     b6c: 86 14        	stx	$14                     ; 0x2014 <wipeArea+0x148>
     b6e: a6 6d        	ldx	$6d                     ; 0x206d <wipeArea+0x1a1>
     b70: 86 15        	stx	$15                     ; 0x2015 <wipeArea+0x149>
     b72: a6 65        	ldx	$65                     ; 0x2065 <wipeArea+0x199>
     b74: 86 12        	stx	$12                     ; 0x2012 <wipeArea+0x146>
     b76: a6 66        	ldx	$66                     ; 0x2066 <wipeArea+0x19a>
     b78: 86 13        	stx	$13                     ; 0x2013 <wipeArea+0x147>
     b7a: a9 00        	lda	#$0
     b7c: a0 77        	ldy	#$77
     b7e: 91 18        	sta	($18),y                 ; 0x2018 <wipeArea+0x14c>
     b80: a0 01        	ldy	#$1
     b82: b1 14        	lda	($14),y                 ; 0x2014 <wipeArea+0x148>
     b84: a2 01        	ldx	#$1
     b86: c9 01        	cmp	#$1
     b88: f0 02        	beq	$b8c <readDirectory+0x833>
     b8a: a2 00        	ldx	#$0
     b8c: 98           	tya
     b8d: a4 67        	ldy	$67                     ; 0x2067 <wipeArea+0x19b>
     b8f: 84 14        	sty	$14                     ; 0x2014 <wipeArea+0x148>
     b91: a4 68        	ldy	$68                     ; 0x2068 <wipeArea+0x19c>
     b93: 84 15        	sty	$15                     ; 0x2015 <wipeArea+0x149>
     b95: a4 6b        	ldy	$6b                     ; 0x206b <wipeArea+0x19f>
     b97: e0 00        	cpx	#$0
     b99: d0 02        	bne	$b9d <readDirectory+0x844>
     b9b: a9 00        	lda	#$0
     b9d: 99 3e 9c     	sta	$9c3e,y                 ; 0x9c3e <fpr+0x2f97>
     ba0: a5 14        	lda	$14                     ; 0x2014 <wipeArea+0x148>
     ba2: 18           	clc
     ba3: 69 78        	adc	#$78
     ba5: 85 14        	sta	$14                     ; 0x2014 <wipeArea+0x148>
     ba7: a5 15        	lda	$15                     ; 0x2015 <wipeArea+0x149>
     ba9: 69 00        	adc	#$0
     bab: 85 15        	sta	$15                     ; 0x2015 <wipeArea+0x149>
     bad: a6 6a        	ldx	$6a                     ; 0x206a <wipeArea+0x19e>
     baf: 98           	tya
     bb0: a4 69        	ldy	$69                     ; 0x2069 <wipeArea+0x19d>
     bb2: e8           	inx
     bb3: d0 01        	bne	$bb6 <readDirectory+0x85d>
     bb5: c8           	iny
     bb6: 84 69        	sty	$69                     ; 0x2069 <wipeArea+0x19d>
     bb8: 1a           	inc
     bb9: a4 69        	ldy	$69                     ; 0x2069 <wipeArea+0x19d>
     bbb: f0 03        	beq	$bc0 <readDirectory+0x867>
     bbd: 4c 99 04     	jmp	$499 <readDirectory+0x140>
     bc0: e0 64        	cpx	#$64
     bc2: f0 03        	beq	$bc7 <readDirectory+0x86e>
     bc4: 4c 99 04     	jmp	$499 <readDirectory+0x140>
     bc7: 20 e5 53     	jsr	$53e5 <fileReadDir>
     bca: a2 64        	ldx	#$64
     bcc: a0 00        	ldy	#$0
     bce: 84 69        	sty	$69                     ; 0x2069 <wipeArea+0x19d>
     bd0: 4c 5e 08     	jmp	$85e <readDirectory+0x505>

00000bd3 <sortFileList>:
     bd3: a6 30        	ldx	$30                     ; 0x2030 <wipeArea+0x164>
     bd5: 8e 5d 6d     	stx	$6d5d                   ; 0x6d5d <fpr+0xb6>
     bd8: a6 31        	ldx	$31                     ; 0x2031 <wipeArea+0x165>
     bda: 8e 5e 6d     	stx	$6d5e                   ; 0x6d5e <fpr+0xb7>
     bdd: a6 32        	ldx	$32                     ; 0x2032 <wipeArea+0x166>
     bdf: 8e 5f 6d     	stx	$6d5f                   ; 0x6d5f <fpr+0xb8>
     be2: a2 01        	ldx	#$1
     be4: 8e 3d 9c     	stx	$9c3d                   ; 0x9c3d <fpr+0x2f96>
     be7: ae a1 9c     	ldx	$9ca1                   ; 0x9ca1 <fpr+0x2ffa>
     bea: ad a2 9c     	lda	$9ca2                   ; 0x9ca2 <fpr+0x2ffb>
     bed: 86 64        	stx	$64                     ; 0x2064 <wipeArea+0x198>
     bef: e0 03        	cpx	#$3
     bf1: 85 65        	sta	$65                     ; 0x2065 <wipeArea+0x199>
     bf3: e9 00        	sbc	#$0
     bf5: 50 02        	bvc	$bf9 <sortFileList+0x26>
     bf7: 49 80        	eor	#$80
     bf9: aa           	tax
     bfa: 10 03        	bpl	$bff <sortFileList+0x2c>
     bfc: 4c 17 0f     	jmp	$f17 <sortFileList+0x344>
     bff: a2 41        	ldx	#$41
     c01: a0 9e        	ldy	#$9e
     c03: 86 12        	stx	$12                     ; 0x2012 <wipeArea+0x146>
     c05: 84 13        	sty	$13                     ; 0x2013 <wipeArea+0x147>
     c07: e6 12        	inc	$12                     ; 0x2012 <wipeArea+0x146>
     c09: d0 02        	bne	$c0d <sortFileList+0x3a>
     c0b: e6 13        	inc	$13                     ; 0x2013 <wipeArea+0x147>
     c0d: a6 12        	ldx	$12                     ; 0x2012 <wipeArea+0x146>
     c0f: 86 6c        	stx	$6c                     ; 0x206c <wipeArea+0x1a0>
     c11: a6 13        	ldx	$13                     ; 0x2013 <wipeArea+0x147>
     c13: 86 6d        	stx	$6d                     ; 0x206d <wipeArea+0x1a1>
     c15: a2 01        	ldx	#$1
     c17: 64 14        	stz	$14                     ; 0x2014 <wipeArea+0x148>
     c19: 86 15        	stx	$15                     ; 0x2015 <wipeArea+0x149>
     c1b: 4c e4 0e     	jmp	$ee4 <sortFileList+0x311>
     c1e: a4 66        	ldy	$66                     ; 0x2066 <wipeArea+0x19a>
     c20: c4 23        	cpy	$23                     ; 0x2023 <wipeArea+0x157>
     c22: f0 03        	beq	$c27 <sortFileList+0x54>
     c24: 4c bc 0c     	jmp	$cbc <sortFileList+0xe9>
     c27: 86 12        	stx	$12                     ; 0x2012 <wipeArea+0x146>
     c29: a5 67        	lda	$67                     ; 0x2067 <wipeArea+0x19b>
     c2b: 38           	sec
     c2c: e5 1b        	sbc	$1b                     ; 0x201b <wipeArea+0x14f>
     c2e: 85 23        	sta	$23                     ; 0x2023 <wipeArea+0x157>
     c30: a5 68        	lda	$68                     ; 0x2068 <wipeArea+0x19c>
     c32: e5 1e        	sbc	$1e                     ; 0x201e <wipeArea+0x152>
     c34: 85 60        	sta	$60                     ; 0x2060 <wipeArea+0x194>
     c36: a9 5d        	lda	#$5d
     c38: 18           	clc
     c39: 65 23        	adc	$23                     ; 0x2023 <wipeArea+0x157>
     c3b: 85 62        	sta	$62                     ; 0x2062 <wipeArea+0x196>
     c3d: a9 6d        	lda	#$6d
     c3f: 65 60        	adc	$60                     ; 0x2060 <wipeArea+0x194>
     c41: 85 63        	sta	$63                     ; 0x2063 <wipeArea+0x197>
     c43: a5 6a        	lda	$6a                     ; 0x206a <wipeArea+0x19e>
     c45: 38           	sec
     c46: e5 1f        	sbc	$1f                     ; 0x201f <wipeArea+0x153>
     c48: 85 23        	sta	$23                     ; 0x2023 <wipeArea+0x157>
     c4a: a5 69        	lda	$69                     ; 0x2069 <wipeArea+0x19d>
     c4c: e5 22        	sbc	$22                     ; 0x2022 <wipeArea+0x156>
     c4e: 85 60        	sta	$60                     ; 0x2060 <wipeArea+0x194>
     c50: a9 5d        	lda	#$5d
     c52: 18           	clc
     c53: 65 23        	adc	$23                     ; 0x2023 <wipeArea+0x157>
     c55: aa           	tax
     c56: a9 6d        	lda	#$6d
     c58: 65 60        	adc	$60                     ; 0x2060 <wipeArea+0x194>
     c5a: 86 60        	stx	$60                     ; 0x2060 <wipeArea+0x194>
     c5c: 85 61        	sta	$61                     ; 0x2061 <wipeArea+0x195>
     c5e: b2 62        	lda	($62)                   ; 0x2062 <wipeArea+0x196>
     c60: a0 78        	ldy	#$78
     c62: aa           	tax
     c63: d0 03        	bne	$c68 <sortFileList+0x95>
     c65: 4c c3 0c     	jmp	$cc3 <sortFileList+0xf0>
     c68: 85 6b        	sta	$6b                     ; 0x206b <wipeArea+0x19f>
     c6a: 85 13        	sta	$13                     ; 0x2013 <wipeArea+0x147>
     c6c: b2 60        	lda	($60)                   ; 0x2060 <wipeArea+0x194>
     c6e: d0 03        	bne	$c73 <sortFileList+0xa0>
     c70: 4c cf 0c     	jmp	$ccf <sortFileList+0xfc>
     c73: 85 23        	sta	$23                     ; 0x2023 <wipeArea+0x157>
     c75: a6 13        	ldx	$13                     ; 0x2013 <wipeArea+0x147>
     c77: e0 41        	cpx	#$41
     c79: 90 0a        	bcc	$c85 <sortFileList+0xb2>
     c7b: a5 13        	lda	$13                     ; 0x2013 <wipeArea+0x147>
     c7d: c9 5b        	cmp	#$5b
     c7f: b0 04        	bcs	$c85 <sortFileList+0xb2>
     c81: 09 20        	ora	#$20
     c83: 85 13        	sta	$13                     ; 0x2013 <wipeArea+0x147>
     c85: a5 23        	lda	$23                     ; 0x2023 <wipeArea+0x157>
     c87: c9 41        	cmp	#$41
     c89: 90 06        	bcc	$c91 <sortFileList+0xbe>
     c8b: c9 5b        	cmp	#$5b
     c8d: b0 02        	bcs	$c91 <sortFileList+0xbe>
     c8f: 09 20        	ora	#$20
     c91: 85 62        	sta	$62                     ; 0x2062 <wipeArea+0x196>
     c93: a6 13        	ldx	$13                     ; 0x2013 <wipeArea+0x147>
     c95: 86 23        	stx	$23                     ; 0x2023 <wipeArea+0x157>
     c97: e4 62        	cpx	$62                     ; 0x2062 <wipeArea+0x196>
     c99: d0 4e        	bne	$ce9 <sortFileList+0x116>
     c9b: a5 60        	lda	$60                     ; 0x2060 <wipeArea+0x194>
     c9d: 18           	clc
     c9e: 69 89        	adc	#$89
     ca0: 85 62        	sta	$62                     ; 0x2062 <wipeArea+0x196>
     ca2: a5 61        	lda	$61                     ; 0x2061 <wipeArea+0x195>
     ca4: 69 ff        	adc	#$ff
     ca6: 85 63        	sta	$63                     ; 0x2063 <wipeArea+0x197>
     ca8: e6 60        	inc	$60                     ; 0x2060 <wipeArea+0x194>
     caa: d0 02        	bne	$cae <sortFileList+0xdb>
     cac: e6 61        	inc	$61                     ; 0x2061 <wipeArea+0x195>
     cae: b2 62        	lda	($62)                   ; 0x2062 <wipeArea+0x196>
     cb0: d0 b8        	bne	$c6a <sortFileList+0x97>
     cb2: 64 23        	stz	$23                     ; 0x2023 <wipeArea+0x157>
     cb4: b2 60        	lda	($60)                   ; 0x2060 <wipeArea+0x194>
     cb6: c9 41        	cmp	#$41
     cb8: b0 29        	bcs	$ce3 <sortFileList+0x110>
     cba: 80 2d        	bra	$ce9 <sortFileList+0x116>
     cbc: a4 23        	ldy	$23                     ; 0x2023 <wipeArea+0x157>
     cbe: 84 66        	sty	$66                     ; 0x2066 <wipeArea+0x19a>
     cc0: 4c d4 0d     	jmp	$dd4 <sortFileList+0x201>
     cc3: 85 6b        	sta	$6b                     ; 0x206b <wipeArea+0x19f>
     cc5: 64 23        	stz	$23                     ; 0x2023 <wipeArea+0x157>
     cc7: b2 60        	lda	($60)                   ; 0x2060 <wipeArea+0x194>
     cc9: c9 41        	cmp	#$41
     ccb: b0 16        	bcs	$ce3 <sortFileList+0x110>
     ccd: 80 1a        	bra	$ce9 <sortFileList+0x116>
     ccf: a5 13        	lda	$13                     ; 0x2013 <wipeArea+0x147>
     cd1: c9 41        	cmp	#$41
     cd3: 90 06        	bcc	$cdb <sortFileList+0x108>
     cd5: c9 5b        	cmp	#$5b
     cd7: b0 02        	bcs	$cdb <sortFileList+0x108>
     cd9: 09 20        	ora	#$20
     cdb: 85 23        	sta	$23                     ; 0x2023 <wipeArea+0x157>
     cdd: b2 60        	lda	($60)                   ; 0x2060 <wipeArea+0x194>
     cdf: c9 41        	cmp	#$41
     ce1: 90 06        	bcc	$ce9 <sortFileList+0x116>
     ce3: c9 5b        	cmp	#$5b
     ce5: b0 02        	bcs	$ce9 <sortFileList+0x116>
     ce7: 09 20        	ora	#$20
     ce9: c5 23        	cmp	$23                     ; 0x2023 <wipeArea+0x157>
     ceb: a6 12        	ldx	$12                     ; 0x2012 <wipeArea+0x146>
     ced: 90 03        	bcc	$cf2 <sortFileList+0x11f>
     cef: 4c d4 0d     	jmp	$dd4 <sortFileList+0x201>
     cf2: 38           	sec
     cf3: a5 67        	lda	$67                     ; 0x2067 <wipeArea+0x19b>
     cf5: e5 1b        	sbc	$1b                     ; 0x201b <wipeArea+0x14f>
     cf7: 85 1b        	sta	$1b                     ; 0x201b <wipeArea+0x14f>
     cf9: a5 68        	lda	$68                     ; 0x2068 <wipeArea+0x19c>
     cfb: e5 1e        	sbc	$1e                     ; 0x201e <wipeArea+0x152>
     cfd: 85 1e        	sta	$1e                     ; 0x201e <wipeArea+0x152>
     cff: a9 5d        	lda	#$5d
     d01: 18           	clc
     d02: 65 1b        	adc	$1b                     ; 0x201b <wipeArea+0x14f>
     d04: 85 60        	sta	$60                     ; 0x2060 <wipeArea+0x194>
     d06: a9 6d        	lda	#$6d
     d08: 65 1e        	adc	$1e                     ; 0x201e <wipeArea+0x152>
     d0a: 85 61        	sta	$61                     ; 0x2061 <wipeArea+0x195>
     d0c: a5 6b        	lda	$6b                     ; 0x206b <wipeArea+0x19f>
     d0e: f0 30        	beq	$d40 <sortFileList+0x16d>
     d10: a5 16        	lda	$16                     ; 0x2016 <wipeArea+0x14a>
     d12: 85 62        	sta	$62                     ; 0x2062 <wipeArea+0x196>
     d14: a5 17        	lda	$17                     ; 0x2017 <wipeArea+0x14b>
     d16: 85 63        	sta	$63                     ; 0x2063 <wipeArea+0x197>
     d18: a5 6c        	lda	$6c                     ; 0x206c <wipeArea+0x1a0>
     d1a: 85 64        	sta	$64                     ; 0x2064 <wipeArea+0x198>
     d1c: a5 6d        	lda	$6d                     ; 0x206d <wipeArea+0x1a1>
     d1e: 85 65        	sta	$65                     ; 0x2065 <wipeArea+0x199>
     d20: 80 0c        	bra	$d2e <sortFileList+0x15b>
     d22: e6 65        	inc	$65                     ; 0x2065 <wipeArea+0x199>
     d24: e6 62        	inc	$62                     ; 0x2062 <wipeArea+0x196>
     d26: d0 02        	bne	$d2a <sortFileList+0x157>
     d28: e6 63        	inc	$63                     ; 0x2063 <wipeArea+0x197>
     d2a: a5 12        	lda	$12                     ; 0x2012 <wipeArea+0x146>
     d2c: f0 12        	beq	$d40 <sortFileList+0x16d>
     d2e: b2 62        	lda	($62)                   ; 0x2062 <wipeArea+0x196>
     d30: 85 12        	sta	$12                     ; 0x2012 <wipeArea+0x146>
     d32: b2 62        	lda	($62)                   ; 0x2062 <wipeArea+0x196>
     d34: 92 64        	sta	($64)                   ; 0x2064 <wipeArea+0x198>
     d36: e6 64        	inc	$64                     ; 0x2064 <wipeArea+0x198>
     d38: f0 e8        	beq	$d22 <sortFileList+0x14f>
     d3a: e6 62        	inc	$62                     ; 0x2062 <wipeArea+0x196>
     d3c: f0 ea        	beq	$d28 <sortFileList+0x155>
     d3e: 80 ea        	bra	$d2a <sortFileList+0x157>
     d40: 38           	sec
     d41: a5 6a        	lda	$6a                     ; 0x206a <wipeArea+0x19e>
     d43: e5 1f        	sbc	$1f                     ; 0x201f <wipeArea+0x153>
     d45: 85 1b        	sta	$1b                     ; 0x201b <wipeArea+0x14f>
     d47: a5 69        	lda	$69                     ; 0x2069 <wipeArea+0x19d>
     d49: e5 22        	sbc	$22                     ; 0x2022 <wipeArea+0x156>
     d4b: 85 1e        	sta	$1e                     ; 0x201e <wipeArea+0x152>
     d4d: a9 5d        	lda	#$5d
     d4f: 18           	clc
     d50: 65 1b        	adc	$1b                     ; 0x201b <wipeArea+0x14f>
     d52: 85 12        	sta	$12                     ; 0x2012 <wipeArea+0x146>
     d54: a9 6d        	lda	#$6d
     d56: 65 1e        	adc	$1e                     ; 0x201e <wipeArea+0x152>
     d58: 5a           	phy
     d59: a4 12        	ldy	$12                     ; 0x2012 <wipeArea+0x146>
     d5b: 84 1e        	sty	$1e                     ; 0x201e <wipeArea+0x152>
     d5d: 7a           	ply
     d5e: 85 1f        	sta	$1f                     ; 0x201f <wipeArea+0x153>
     d60: b2 1e        	lda	($1e)                   ; 0x201e <wipeArea+0x152>
     d62: 85 12        	sta	$12                     ; 0x2012 <wipeArea+0x146>
     d64: b2 1e        	lda	($1e)                   ; 0x201e <wipeArea+0x152>
     d66: 92 60        	sta	($60)                   ; 0x2060 <wipeArea+0x194>
     d68: a5 12        	lda	$12                     ; 0x2012 <wipeArea+0x146>
     d6a: f0 1a        	beq	$d86 <sortFileList+0x1b3>
     d6c: a5 16        	lda	$16                     ; 0x2016 <wipeArea+0x14a>
     d6e: 85 22        	sta	$22                     ; 0x2022 <wipeArea+0x156>
     d70: a5 17        	lda	$17                     ; 0x2017 <wipeArea+0x14b>
     d72: 85 23        	sta	$23                     ; 0x2023 <wipeArea+0x157>
     d74: b1 22        	lda	($22),y                 ; 0x2022 <wipeArea+0x156>
     d76: 85 12        	sta	$12                     ; 0x2012 <wipeArea+0x146>
     d78: b1 22        	lda	($22),y                 ; 0x2022 <wipeArea+0x156>
     d7a: 92 22        	sta	($22)                   ; 0x2022 <wipeArea+0x156>
     d7c: e6 22        	inc	$22                     ; 0x2022 <wipeArea+0x156>
     d7e: d0 02        	bne	$d82 <sortFileList+0x1af>
     d80: e6 23        	inc	$23                     ; 0x2023 <wipeArea+0x157>
     d82: a5 12        	lda	$12                     ; 0x2012 <wipeArea+0x146>
     d84: d0 ee        	bne	$d74 <sortFileList+0x1a1>
     d86: a5 6b        	lda	$6b                     ; 0x206b <wipeArea+0x19f>
     d88: 92 1e        	sta	($1e)                   ; 0x201e <wipeArea+0x152>
     d8a: f0 2e        	beq	$dba <sortFileList+0x1e7>
     d8c: a4 6c        	ldy	$6c                     ; 0x206c <wipeArea+0x1a0>
     d8e: 84 1e        	sty	$1e                     ; 0x201e <wipeArea+0x152>
     d90: a4 6d        	ldy	$6d                     ; 0x206d <wipeArea+0x1a1>
     d92: 84 1f        	sty	$1f                     ; 0x201f <wipeArea+0x153>
     d94: a4 18        	ldy	$18                     ; 0x2018 <wipeArea+0x14c>
     d96: 84 22        	sty	$22                     ; 0x2022 <wipeArea+0x156>
     d98: a4 19        	ldy	$19                     ; 0x2019 <wipeArea+0x14d>
     d9a: 84 23        	sty	$23                     ; 0x2023 <wipeArea+0x157>
     d9c: 80 0b        	bra	$da9 <sortFileList+0x1d6>
     d9e: e6 23        	inc	$23                     ; 0x2023 <wipeArea+0x157>
     da0: e6 1e        	inc	$1e                     ; 0x201e <wipeArea+0x152>
     da2: d0 02        	bne	$da6 <sortFileList+0x1d3>
     da4: e6 1f        	inc	$1f                     ; 0x201f <wipeArea+0x153>
     da6: 98           	tya
     da7: f0 11        	beq	$dba <sortFileList+0x1e7>
     da9: b2 1e        	lda	($1e)                   ; 0x201e <wipeArea+0x152>
     dab: a8           	tay
     dac: b2 1e        	lda	($1e)                   ; 0x201e <wipeArea+0x152>
     dae: 92 22        	sta	($22)                   ; 0x2022 <wipeArea+0x156>
     db0: e6 22        	inc	$22                     ; 0x2022 <wipeArea+0x156>
     db2: f0 ea        	beq	$d9e <sortFileList+0x1cb>
     db4: e6 1e        	inc	$1e                     ; 0x201e <wipeArea+0x152>
     db6: f0 ec        	beq	$da4 <sortFileList+0x1d1>
     db8: 80 ec        	bra	$da6 <sortFileList+0x1d3>
     dba: b2 1c        	lda	($1c)                   ; 0x201c <wipeArea+0x150>
     dbc: 85 12        	sta	$12                     ; 0x2012 <wipeArea+0x146>
     dbe: a0 01        	ldy	#$1
     dc0: b1 1c        	lda	($1c),y                 ; 0x201c <wipeArea+0x150>
     dc2: 92 1c        	sta	($1c)                   ; 0x201c <wipeArea+0x150>
     dc4: a5 12        	lda	$12                     ; 0x2012 <wipeArea+0x146>
     dc6: 85 66        	sta	$66                     ; 0x2066 <wipeArea+0x19a>
     dc8: 91 1c        	sta	($1c),y                 ; 0x201c <wipeArea+0x150>
     dca: ac a1 9c     	ldy	$9ca1                   ; 0x9ca1 <fpr+0x2ffa>
     dcd: 84 64        	sty	$64                     ; 0x2064 <wipeArea+0x198>
     dcf: ac a2 9c     	ldy	$9ca2                   ; 0x9ca2 <fpr+0x2ffb>
     dd2: 84 65        	sty	$65                     ; 0x2065 <wipeArea+0x199>
     dd4: a5 64        	lda	$64                     ; 0x2064 <wipeArea+0x198>
     dd6: 38           	sec
     dd7: e5 15        	sbc	$15                     ; 0x2015 <wipeArea+0x149>
     dd9: 85 1b        	sta	$1b                     ; 0x201b <wipeArea+0x14f>
     ddb: a5 65        	lda	$65                     ; 0x2065 <wipeArea+0x199>
     ddd: e5 14        	sbc	$14                     ; 0x2014 <wipeArea+0x148>
     ddf: 85 1c        	sta	$1c                     ; 0x201c <wipeArea+0x150>
     de1: a5 16        	lda	$16                     ; 0x2016 <wipeArea+0x14a>
     de3: 18           	clc
     de4: 69 78        	adc	#$78
     de6: 85 16        	sta	$16                     ; 0x2016 <wipeArea+0x14a>
     de8: a5 17        	lda	$17                     ; 0x2017 <wipeArea+0x14b>
     dea: 69 00        	adc	#$0
     dec: 85 17        	sta	$17                     ; 0x2017 <wipeArea+0x14b>
     dee: a5 18        	lda	$18                     ; 0x2018 <wipeArea+0x14c>
     df0: 18           	clc
     df1: 69 78        	adc	#$78
     df3: 85 18        	sta	$18                     ; 0x2018 <wipeArea+0x14c>
     df5: a5 19        	lda	$19                     ; 0x2019 <wipeArea+0x14d>
     df7: 69 00        	adc	#$0
     df9: 85 19        	sta	$19                     ; 0x2019 <wipeArea+0x14d>
     dfb: e4 1b        	cpx	$1b                     ; 0x201b <wipeArea+0x14f>
     dfd: a5 1a        	lda	$1a                     ; 0x201a <wipeArea+0x14e>
     dff: e5 1c        	sbc	$1c                     ; 0x201c <wipeArea+0x150>
     e01: 50 02        	bvc	$e05 <sortFileList+0x232>
     e03: 49 80        	eor	#$80
     e05: 86 1e        	stx	$1e                     ; 0x201e <wipeArea+0x152>
     e07: a4 1a        	ldy	$1a                     ; 0x201a <wipeArea+0x14e>
     e09: 84 1b        	sty	$1b                     ; 0x201b <wipeArea+0x14f>
     e0b: a8           	tay
     e0c: 30 03        	bmi	$e11 <sortFileList+0x23e>
     e0e: 4c b2 0e     	jmp	$eb2 <sortFileList+0x2df>
     e11: a9 3d        	lda	#$3d
     e13: 18           	clc
     e14: 65 1e        	adc	$1e                     ; 0x201e <wipeArea+0x152>
     e16: 85 1c        	sta	$1c                     ; 0x201c <wipeArea+0x150>
     e18: a9 9c        	lda	#$9c
     e1a: 65 1b        	adc	$1b                     ; 0x201b <wipeArea+0x14f>
     e1c: 85 1d        	sta	$1d                     ; 0x201d <wipeArea+0x151>
     e1e: a4 1b        	ldy	$1b                     ; 0x201b <wipeArea+0x14f>
     e20: 84 1a        	sty	$1a                     ; 0x201a <wipeArea+0x14e>
     e22: e8           	inx
     e23: d0 02        	bne	$e27 <sortFileList+0x254>
     e25: e6 1a        	inc	$1a                     ; 0x201a <wipeArea+0x14e>
     e27: a5 1e        	lda	$1e                     ; 0x201e <wipeArea+0x152>
     e29: 0a           	asl
     e2a: a4 1b        	ldy	$1b                     ; 0x201b <wipeArea+0x14f>
     e2c: 84 1e        	sty	$1e                     ; 0x201e <wipeArea+0x152>
     e2e: 26 1e        	rol	$1e                     ; 0x201e <wipeArea+0x152>
     e30: 0a           	asl
     e31: 26 1e        	rol	$1e                     ; 0x201e <wipeArea+0x152>
     e33: 0a           	asl
     e34: 85 1b        	sta	$1b                     ; 0x201b <wipeArea+0x14f>
     e36: 26 1e        	rol	$1e                     ; 0x201e <wipeArea+0x152>
     e38: 0a           	asl
     e39: a4 1e        	ldy	$1e                     ; 0x201e <wipeArea+0x152>
     e3b: 84 1f        	sty	$1f                     ; 0x201f <wipeArea+0x153>
     e3d: 26 1f        	rol	$1f                     ; 0x201f <wipeArea+0x153>
     e3f: 0a           	asl
     e40: 26 1f        	rol	$1f                     ; 0x201f <wipeArea+0x153>
     e42: 0a           	asl
     e43: 26 1f        	rol	$1f                     ; 0x201f <wipeArea+0x153>
     e45: 0a           	asl
     e46: 85 67        	sta	$67                     ; 0x2067 <wipeArea+0x19b>
     e48: 26 1f        	rol	$1f                     ; 0x201f <wipeArea+0x153>
     e4a: a4 1f        	ldy	$1f                     ; 0x201f <wipeArea+0x153>
     e4c: 84 68        	sty	$68                     ; 0x2068 <wipeArea+0x19c>
     e4e: 8a           	txa
     e4f: 0a           	asl
     e50: a4 1a        	ldy	$1a                     ; 0x201a <wipeArea+0x14e>
     e52: 84 22        	sty	$22                     ; 0x2022 <wipeArea+0x156>
     e54: 26 22        	rol	$22                     ; 0x2022 <wipeArea+0x156>
     e56: 0a           	asl
     e57: 26 22        	rol	$22                     ; 0x2022 <wipeArea+0x156>
     e59: 0a           	asl
     e5a: 85 1f        	sta	$1f                     ; 0x201f <wipeArea+0x153>
     e5c: 26 22        	rol	$22                     ; 0x2022 <wipeArea+0x156>
     e5e: 85 23        	sta	$23                     ; 0x2023 <wipeArea+0x157>
     e60: 06 23        	asl	$23                     ; 0x2023 <wipeArea+0x157>
     e62: a5 22        	lda	$22                     ; 0x2022 <wipeArea+0x156>
     e64: 2a           	rol
     e65: 06 23        	asl	$23                     ; 0x2023 <wipeArea+0x157>
     e67: 2a           	rol
     e68: 06 23        	asl	$23                     ; 0x2023 <wipeArea+0x157>
     e6a: 2a           	rol
     e6b: 06 23        	asl	$23                     ; 0x2023 <wipeArea+0x157>
     e6d: a4 23        	ldy	$23                     ; 0x2023 <wipeArea+0x157>
     e6f: 84 6a        	sty	$6a                     ; 0x206a <wipeArea+0x19e>
     e71: 2a           	rol
     e72: 85 69        	sta	$69                     ; 0x2069 <wipeArea+0x19d>
     e74: a5 66        	lda	$66                     ; 0x2066 <wipeArea+0x19a>
     e76: 29 01        	and	#$1
     e78: 85 13        	sta	$13                     ; 0x2013 <wipeArea+0x147>
     e7a: a0 01        	ldy	#$1
     e7c: b1 1c        	lda	($1c),y                 ; 0x201c <wipeArea+0x150>
     e7e: 85 23        	sta	$23                     ; 0x2023 <wipeArea+0x157>
     e80: a4 13        	ldy	$13                     ; 0x2013 <wipeArea+0x147>
     e82: f0 03        	beq	$e87 <sortFileList+0x2b4>
     e84: 4c 1e 0c     	jmp	$c1e <sortFileList+0x4b>
     e87: 29 01        	and	#$1
     e89: d0 03        	bne	$e8e <sortFileList+0x2bb>
     e8b: 4c 1e 0c     	jmp	$c1e <sortFileList+0x4b>
     e8e: a5 67        	lda	$67                     ; 0x2067 <wipeArea+0x19b>
     e90: 38           	sec
     e91: e5 1b        	sbc	$1b                     ; 0x201b <wipeArea+0x14f>
     e93: 85 23        	sta	$23                     ; 0x2023 <wipeArea+0x157>
     e95: a5 68        	lda	$68                     ; 0x2068 <wipeArea+0x19c>
     e97: e5 1e        	sbc	$1e                     ; 0x201e <wipeArea+0x152>
     e99: 85 60        	sta	$60                     ; 0x2060 <wipeArea+0x194>
     e9b: a9 5d        	lda	#$5d
     e9d: 18           	clc
     e9e: 65 23        	adc	$23                     ; 0x2023 <wipeArea+0x157>
     ea0: a8           	tay
     ea1: a9 6d        	lda	#$6d
     ea3: 65 60        	adc	$60                     ; 0x2060 <wipeArea+0x194>
     ea5: 84 60        	sty	$60                     ; 0x2060 <wipeArea+0x194>
     ea7: 85 61        	sta	$61                     ; 0x2061 <wipeArea+0x195>
     ea9: b2 60        	lda	($60)                   ; 0x2060 <wipeArea+0x194>
     eab: 85 6b        	sta	$6b                     ; 0x206b <wipeArea+0x19f>
     ead: a0 78        	ldy	#$78
     eaf: 4c f2 0c     	jmp	$cf2 <sortFileList+0x11f>
     eb2: a6 15        	ldx	$15                     ; 0x2015 <wipeArea+0x149>
     eb4: e8           	inx
     eb5: d0 02        	bne	$eb9 <sortFileList+0x2e6>
     eb7: e6 14        	inc	$14                     ; 0x2014 <wipeArea+0x148>
     eb9: a4 64        	ldy	$64                     ; 0x2064 <wipeArea+0x198>
     ebb: 84 16        	sty	$16                     ; 0x2016 <wipeArea+0x14a>
     ebd: a4 65        	ldy	$65                     ; 0x2065 <wipeArea+0x199>
     ebf: 84 15        	sty	$15                     ; 0x2015 <wipeArea+0x149>
     ec1: a9 ff        	lda	#$ff
     ec3: c6 16        	dec	$16                     ; 0x2016 <wipeArea+0x14a>
     ec5: c5 16        	cmp	$16                     ; 0x2016 <wipeArea+0x14a>
     ec7: f0 0a        	beq	$ed3 <sortFileList+0x300>
     ec9: e4 16        	cpx	$16                     ; 0x2016 <wipeArea+0x14a>
     ecb: a5 14        	lda	$14                     ; 0x2014 <wipeArea+0x148>
     ecd: e5 15        	sbc	$15                     ; 0x2015 <wipeArea+0x149>
     ecf: 70 0c        	bvs	$edd <sortFileList+0x30a>
     ed1: 80 0c        	bra	$edf <sortFileList+0x30c>
     ed3: c6 15        	dec	$15                     ; 0x2015 <wipeArea+0x149>
     ed5: e4 16        	cpx	$16                     ; 0x2016 <wipeArea+0x14a>
     ed7: a5 14        	lda	$14                     ; 0x2014 <wipeArea+0x148>
     ed9: e5 15        	sbc	$15                     ; 0x2015 <wipeArea+0x149>
     edb: 50 02        	bvc	$edf <sortFileList+0x30c>
     edd: 49 80        	eor	#$80
     edf: 86 15        	stx	$15                     ; 0x2015 <wipeArea+0x149>
     ee1: aa           	tax
     ee2: 10 33        	bpl	$f17 <sortFileList+0x344>
     ee4: a5 64        	lda	$64                     ; 0x2064 <wipeArea+0x198>
     ee6: 38           	sec
     ee7: e5 15        	sbc	$15                     ; 0x2015 <wipeArea+0x149>
     ee9: aa           	tax
     eea: a5 65        	lda	$65                     ; 0x2065 <wipeArea+0x199>
     eec: e5 14        	sbc	$14                     ; 0x2014 <wipeArea+0x148>
     eee: e0 02        	cpx	#$2
     ef0: e9 00        	sbc	#$0
     ef2: 50 02        	bvc	$ef6 <sortFileList+0x323>
     ef4: 49 80        	eor	#$80
     ef6: aa           	tax
     ef7: 30 b9        	bmi	$eb2 <sortFileList+0x2df>
     ef9: ae 3e 9c     	ldx	$9c3e                   ; 0x9c3e <fpr+0x2f97>
     efc: 86 66        	stx	$66                     ; 0x2066 <wipeArea+0x19a>
     efe: a2 d6        	ldx	#$d6
     f00: 86 16        	stx	$16                     ; 0x2016 <wipeArea+0x14a>
     f02: a2 6d        	ldx	#$6d
     f04: 86 17        	stx	$17                     ; 0x2017 <wipeArea+0x14b>
     f06: a2 4e        	ldx	#$4e
     f08: 86 18        	stx	$18                     ; 0x2018 <wipeArea+0x14c>
     f0a: a2 6e        	ldx	#$6e
     f0c: 86 19        	stx	$19                     ; 0x2019 <wipeArea+0x14d>
     f0e: a2 01        	ldx	#$1
     f10: 64 1b        	stz	$1b                     ; 0x201b <wipeArea+0x14f>
     f12: 86 1e        	stx	$1e                     ; 0x201e <wipeArea+0x152>
     f14: 4c 11 0e     	jmp	$e11 <sortFileList+0x23e>
     f17: 60           	rts

00000f18 <displayFileList>:
     f18: 48           	pha
     f19: 18           	clc
     f1a: a5 10        	lda	$10                     ; 0x2010 <wipeArea+0x144>
     f1c: 69 fa        	adc	#$fa
     f1e: 85 10        	sta	$10                     ; 0x2010 <wipeArea+0x144>
     f20: a5 11        	lda	$11                     ; 0x2011 <wipeArea+0x145>
     f22: 69 ff        	adc	#$ff
     f24: 85 11        	sta	$11                     ; 0x2011 <wipeArea+0x145>
     f26: 68           	pla
     f27: 86 66        	stx	$66                     ; 0x2066 <wipeArea+0x19a>
     f29: a4 12        	ldy	$12                     ; 0x2012 <wipeArea+0x146>
     f2b: 84 60        	sty	$60                     ; 0x2060 <wipeArea+0x194>
     f2d: a4 13        	ldy	$13                     ; 0x2013 <wipeArea+0x147>
     f2f: 84 61        	sty	$61                     ; 0x2061 <wipeArea+0x195>
     f31: 85 64        	sta	$64                     ; 0x2064 <wipeArea+0x198>
     f33: 18           	clc
     f34: 85 72        	sta	$72                     ; 0x2072 <wipeArea+0x1a6>
     f36: 69 10        	adc	#$10
     f38: 85 13        	sta	$13                     ; 0x2013 <wipeArea+0x147>
     f3a: 8a           	txa
     f3b: 69 00        	adc	#$0
     f3d: 85 14        	sta	$14                     ; 0x2014 <wipeArea+0x148>
     f3f: a5 60        	lda	$60                     ; 0x2060 <wipeArea+0x194>
     f41: 18           	clc
     f42: 69 fa        	adc	#$fa
     f44: 85 62        	sta	$62                     ; 0x2062 <wipeArea+0x196>
     f46: a5 61        	lda	$61                     ; 0x2061 <wipeArea+0x195>
     f48: 69 2f        	adc	#$2f
     f4a: a4 66        	ldy	$66                     ; 0x2066 <wipeArea+0x19a>
     f4c: e6 64        	inc	$64                     ; 0x2064 <wipeArea+0x198>
     f4e: d0 01        	bne	$f51 <displayFileList+0x39>
     f50: c8           	iny
     f51: 84 67        	sty	$67                     ; 0x2067 <wipeArea+0x19b>
     f53: 85 63        	sta	$63                     ; 0x2063 <wipeArea+0x197>
     f55: a0 01        	ldy	#$1
     f57: b1 62        	lda	($62),y                 ; 0x2062 <wipeArea+0x196>
     f59: 85 12        	sta	$12                     ; 0x2012 <wipeArea+0x146>
     f5b: a5 13        	lda	$13                     ; 0x2013 <wipeArea+0x147>
     f5d: a4 13        	ldy	$13                     ; 0x2013 <wipeArea+0x147>
     f5f: 84 6c        	sty	$6c                     ; 0x206c <wipeArea+0x1a0>
     f61: d2 62        	cmp	($62)                   ; 0x2062 <wipeArea+0x196>
     f63: a5 14        	lda	$14                     ; 0x2014 <wipeArea+0x148>
     f65: a4 14        	ldy	$14                     ; 0x2014 <wipeArea+0x148>
     f67: 84 6d        	sty	$6d                     ; 0x206d <wipeArea+0x1a1>
     f69: e5 12        	sbc	$12                     ; 0x2012 <wipeArea+0x146>
     f6b: 50 02        	bvc	$f6f <displayFileList+0x57>
     f6d: 49 80        	eor	#$80
     f6f: aa           	tax
     f70: 30 08        	bmi	$f7a <displayFileList+0x62>
     f72: b2 62        	lda	($62)                   ; 0x2062 <wipeArea+0x196>
     f74: 85 6c        	sta	$6c                     ; 0x206c <wipeArea+0x1a0>
     f76: a6 12        	ldx	$12                     ; 0x2012 <wipeArea+0x146>
     f78: 86 6d        	stx	$6d                     ; 0x206d <wipeArea+0x1a1>
     f7a: b2 60        	lda	($60)                   ; 0x2060 <wipeArea+0x194>
     f7c: 85 12        	sta	$12                     ; 0x2012 <wipeArea+0x146>
     f7e: a0 01        	ldy	#$1
     f80: b1 60        	lda	($60),y                 ; 0x2060 <wipeArea+0x194>
     f82: a4 12        	ldy	$12                     ; 0x2012 <wipeArea+0x146>
     f84: 84 53        	sty	$53                     ; 0x2053 <wipeArea+0x187>
     f86: 8c 14 d0     	sty	$d014                   ; 0xd014 <__heap_start+0x315a>
     f89: 64 65        	stz	$65                     ; 0x2065 <wipeArea+0x199>
     f8b: 9c 15 d0     	stz	$d015                   ; 0xd015 <__heap_start+0x315b>
     f8e: 85 54        	sta	$54                     ; 0x2054 <wipeArea+0x188>
     f90: 8d 16 d0     	sta	$d016                   ; 0xd016 <__heap_start+0x315c>
     f93: 9c 17 d0     	stz	$d017                   ; 0xd017 <__heap_start+0x315d>
     f96: a6 60        	ldx	$60                     ; 0x2060 <wipeArea+0x194>
     f98: 86 12        	stx	$12                     ; 0x2012 <wipeArea+0x146>
     f9a: a6 61        	ldx	$61                     ; 0x2061 <wipeArea+0x195>
     f9c: 86 13        	stx	$13                     ; 0x2013 <wipeArea+0x147>
     f9e: 20 cc 1e     	jsr	$1ecc <wipeArea>
     fa1: b2 60        	lda	($60)                   ; 0x2060 <wipeArea+0x194>
     fa3: 85 12        	sta	$12                     ; 0x2012 <wipeArea+0x146>
     fa5: a0 01        	ldy	#$1
     fa7: b1 60        	lda	($60),y                 ; 0x2060 <wipeArea+0x194>
     fa9: aa           	tax
     faa: a5 12        	lda	$12                     ; 0x2012 <wipeArea+0x146>
     fac: 85 53        	sta	$53                     ; 0x2053 <wipeArea+0x187>
     fae: 8d 14 d0     	sta	$d014                   ; 0xd014 <__heap_start+0x315a>
     fb1: 9c 15 d0     	stz	$d015                   ; 0xd015 <__heap_start+0x315b>
     fb4: 86 54        	stx	$54                     ; 0x2054 <wipeArea+0x188>
     fb6: 8e 16 d0     	stx	$d016                   ; 0xd016 <__heap_start+0x315c>
     fb9: 9c 17 d0     	stz	$d017                   ; 0xd017 <__heap_start+0x315d>
     fbc: a5 60        	lda	$60                     ; 0x2060 <wipeArea+0x194>
     fbe: 18           	clc
     fbf: 69 fe        	adc	#$fe
     fc1: 85 14        	sta	$14                     ; 0x2014 <wipeArea+0x148>
     fc3: a5 61        	lda	$61                     ; 0x2061 <wipeArea+0x195>
     fc5: 69 2f        	adc	#$2f
     fc7: 85 15        	sta	$15                     ; 0x2015 <wipeArea+0x149>
     fc9: b2 14        	lda	($14)                   ; 0x2014 <wipeArea+0x148>
     fcb: 85 16        	sta	$16                     ; 0x2016 <wipeArea+0x14a>
     fcd: a6 14        	ldx	$14                     ; 0x2014 <wipeArea+0x148>
     fcf: 86 12        	stx	$12                     ; 0x2012 <wipeArea+0x146>
     fd1: a6 15        	ldx	$15                     ; 0x2015 <wipeArea+0x149>
     fd3: 86 13        	stx	$13                     ; 0x2013 <wipeArea+0x147>
     fd5: a6 12        	ldx	$12                     ; 0x2012 <wipeArea+0x146>
     fd7: 86 70        	stx	$70                     ; 0x2070 <wipeArea+0x1a4>
     fd9: a6 13        	ldx	$13                     ; 0x2013 <wipeArea+0x147>
     fdb: 86 71        	stx	$71                     ; 0x2071 <wipeArea+0x1a5>
     fdd: b1 14        	lda	($14),y                 ; 0x2014 <wipeArea+0x148>
     fdf: d0 07        	bne	$fe8 <displayFileList+0xd0>
     fe1: a5 16        	lda	$16                     ; 0x2016 <wipeArea+0x14a>
     fe3: d0 03        	bne	$fe8 <displayFileList+0xd0>
     fe5: 4c 77 12     	jmp	$1277 <displayFileList+0x35f>
     fe8: a0 20        	ldy	#$20
     fea: a5 60        	lda	$60                     ; 0x2060 <wipeArea+0x194>
     fec: 18           	clc
     fed: 69 b6        	adc	#$b6
     fef: 85 14        	sta	$14                     ; 0x2014 <wipeArea+0x148>
     ff1: a5 61        	lda	$61                     ; 0x2061 <wipeArea+0x195>
     ff3: 69 00        	adc	#$0
     ff5: 85 16        	sta	$16                     ; 0x2016 <wipeArea+0x14a>
     ff7: 18           	clc
     ff8: a5 60        	lda	$60                     ; 0x2060 <wipeArea+0x194>
     ffa: 69 96        	adc	#$96
     ffc: aa           	tax
     ffd: a5 61        	lda	$61                     ; 0x2061 <wipeArea+0x195>
     fff: 69 2f        	adc	#$2f
    1001: 86 12        	stx	$12                     ; 0x2012 <wipeArea+0x146>
    1003: 85 13        	sta	$13                     ; 0x2013 <wipeArea+0x147>
    1005: b2 12        	lda	($12)                   ; 0x2012 <wipeArea+0x146>
    1007: 29 01        	and	#$1
    1009: a2 73        	ldx	#$73
    100b: 86 12        	stx	$12                     ; 0x2012 <wipeArea+0x146>
    100d: a2 6a        	ldx	#$6a
    100f: 86 13        	stx	$13                     ; 0x2013 <wipeArea+0x147>
    1011: aa           	tax
    1012: d0 08        	bne	$101c <displayFileList+0x104>
    1014: a2 18        	ldx	#$18
    1016: 86 12        	stx	$12                     ; 0x2012 <wipeArea+0x146>
    1018: a2 6a        	ldx	#$6a
    101a: 86 13        	stx	$13                     ; 0x2013 <wipeArea+0x147>
    101c: a6 10        	ldx	$10                     ; 0x2010 <wipeArea+0x144>
    101e: 98           	tya
    101f: 92 10        	sta	($10)                   ; 0x2010 <wipeArea+0x144>
    1021: a0 01        	ldy	#$1
    1023: a9 00        	lda	#$0
    1025: 91 10        	sta	($10),y                 ; 0x2010 <wipeArea+0x144>
    1027: c8           	iny
    1028: a5 14        	lda	$14                     ; 0x2014 <wipeArea+0x148>
    102a: 91 10        	sta	($10),y                 ; 0x2010 <wipeArea+0x144>
    102c: 8a           	txa
    102d: 18           	clc
    102e: 69 02        	adc	#$2
    1030: 85 14        	sta	$14                     ; 0x2014 <wipeArea+0x148>
    1032: a5 11        	lda	$11                     ; 0x2011 <wipeArea+0x145>
    1034: 69 00        	adc	#$0
    1036: 18           	clc
    1037: 85 15        	sta	$15                     ; 0x2015 <wipeArea+0x149>
    1039: a5 16        	lda	$16                     ; 0x2016 <wipeArea+0x14a>
    103b: 88           	dey
    103c: 91 14        	sta	($14),y                 ; 0x2014 <wipeArea+0x148>
    103e: 8a           	txa
    103f: 69 04        	adc	#$4
    1041: 85 14        	sta	$14                     ; 0x2014 <wipeArea+0x148>
    1043: a5 11        	lda	$11                     ; 0x2011 <wipeArea+0x145>
    1045: 69 00        	adc	#$0
    1047: 85 15        	sta	$15                     ; 0x2015 <wipeArea+0x149>
    1049: a5 12        	lda	$12                     ; 0x2012 <wipeArea+0x146>
    104b: a0 04        	ldy	#$4
    104d: 91 10        	sta	($10),y                 ; 0x2010 <wipeArea+0x144>
    104f: a0 01        	ldy	#$1
    1051: a5 13        	lda	$13                     ; 0x2013 <wipeArea+0x147>
    1053: 91 14        	sta	($14),y                 ; 0x2014 <wipeArea+0x148>
    1055: a2 0a        	ldx	#$a
    1057: 86 12        	stx	$12                     ; 0x2012 <wipeArea+0x146>
    1059: a2 6b        	ldx	#$6b
    105b: 86 13        	stx	$13                     ; 0x2013 <wipeArea+0x147>
    105d: 20 dc 61     	jsr	$61dc <printf>
    1060: a6 6c        	ldx	$6c                     ; 0x206c <wipeArea+0x1a0>
    1062: 86 12        	stx	$12                     ; 0x2012 <wipeArea+0x146>
    1064: a6 64        	ldx	$64                     ; 0x2064 <wipeArea+0x198>
    1066: e4 12        	cpx	$12                     ; 0x2012 <wipeArea+0x146>
    1068: a6 6d        	ldx	$6d                     ; 0x206d <wipeArea+0x1a1>
    106a: 86 12        	stx	$12                     ; 0x2012 <wipeArea+0x146>
    106c: a5 67        	lda	$67                     ; 0x2067 <wipeArea+0x19b>
    106e: e5 12        	sbc	$12                     ; 0x2012 <wipeArea+0x146>
    1070: 50 02        	bvc	$1074 <displayFileList+0x15c>
    1072: 49 80        	eor	#$80
    1074: a6 62        	ldx	$62                     ; 0x2062 <wipeArea+0x196>
    1076: 86 12        	stx	$12                     ; 0x2012 <wipeArea+0x146>
    1078: a6 63        	ldx	$63                     ; 0x2063 <wipeArea+0x197>
    107a: 86 13        	stx	$13                     ; 0x2013 <wipeArea+0x147>
    107c: a6 12        	ldx	$12                     ; 0x2012 <wipeArea+0x146>
    107e: 86 6e        	stx	$6e                     ; 0x206e <wipeArea+0x1a2>
    1080: a6 13        	ldx	$13                     ; 0x2013 <wipeArea+0x147>
    1082: 86 6f        	stx	$6f                     ; 0x206f <wipeArea+0x1a3>
    1084: aa           	tax
    1085: 30 03        	bmi	$108a <displayFileList+0x172>
    1087: 4c bb 11     	jmp	$11bb <displayFileList+0x2a3>
    108a: a6 67        	ldx	$67                     ; 0x2067 <wipeArea+0x19b>
    108c: 86 15        	stx	$15                     ; 0x2015 <wipeArea+0x149>
    108e: a5 60        	lda	$60                     ; 0x2060 <wipeArea+0x194>
    1090: 18           	clc
    1091: 69 fc        	adc	#$fc
    1093: 85 68        	sta	$68                     ; 0x2068 <wipeArea+0x19c>
    1095: a5 61        	lda	$61                     ; 0x2061 <wipeArea+0x195>
    1097: 69 2f        	adc	#$2f
    1099: 85 69        	sta	$69                     ; 0x2069 <wipeArea+0x19d>
    109b: a6 72        	ldx	$72                     ; 0x2072 <wipeArea+0x1a6>
    109d: 86 12        	stx	$12                     ; 0x2012 <wipeArea+0x146>
    109f: a5 60        	lda	$60                     ; 0x2060 <wipeArea+0x194>
    10a1: 18           	clc
    10a2: 65 12        	adc	$12                     ; 0x2012 <wipeArea+0x146>
    10a4: a8           	tay
    10a5: a5 61        	lda	$61                     ; 0x2061 <wipeArea+0x195>
    10a7: 65 66        	adc	$66                     ; 0x2066 <wipeArea+0x19a>
    10a9: 85 13        	sta	$13                     ; 0x2013 <wipeArea+0x147>
    10ab: 18           	clc
    10ac: 98           	tya
    10ad: 69 97        	adc	#$97
    10af: 85 12        	sta	$12                     ; 0x2012 <wipeArea+0x146>
    10b1: a5 13        	lda	$13                     ; 0x2013 <wipeArea+0x147>
    10b3: 69 2f        	adc	#$2f
    10b5: 85 13        	sta	$13                     ; 0x2013 <wipeArea+0x147>
    10b7: 8a           	txa
    10b8: 0a           	asl
    10b9: a6 66        	ldx	$66                     ; 0x2066 <wipeArea+0x19a>
    10bb: 86 14        	stx	$14                     ; 0x2014 <wipeArea+0x148>
    10bd: a6 12        	ldx	$12                     ; 0x2012 <wipeArea+0x146>
    10bf: 86 66        	stx	$66                     ; 0x2066 <wipeArea+0x19a>
    10c1: a6 13        	ldx	$13                     ; 0x2013 <wipeArea+0x147>
    10c3: 86 67        	stx	$67                     ; 0x2067 <wipeArea+0x19b>
    10c5: 26 14        	rol	$14                     ; 0x2014 <wipeArea+0x148>
    10c7: 0a           	asl
    10c8: 26 14        	rol	$14                     ; 0x2014 <wipeArea+0x148>
    10ca: 0a           	asl
    10cb: 85 12        	sta	$12                     ; 0x2012 <wipeArea+0x146>
    10cd: 26 14        	rol	$14                     ; 0x2014 <wipeArea+0x148>
    10cf: 0a           	asl
    10d0: aa           	tax
    10d1: a5 14        	lda	$14                     ; 0x2014 <wipeArea+0x148>
    10d3: 2a           	rol
    10d4: 86 13        	stx	$13                     ; 0x2013 <wipeArea+0x147>
    10d6: 06 13        	asl	$13                     ; 0x2013 <wipeArea+0x147>
    10d8: 2a           	rol
    10d9: 06 13        	asl	$13                     ; 0x2013 <wipeArea+0x147>
    10db: 2a           	rol
    10dc: 06 13        	asl	$13                     ; 0x2013 <wipeArea+0x147>
    10de: 2a           	rol
    10df: aa           	tax
    10e0: 38           	sec
    10e1: a5 13        	lda	$13                     ; 0x2013 <wipeArea+0x147>
    10e3: e5 12        	sbc	$12                     ; 0x2012 <wipeArea+0x146>
    10e5: 85 12        	sta	$12                     ; 0x2012 <wipeArea+0x146>
    10e7: 8a           	txa
    10e8: e5 14        	sbc	$14                     ; 0x2014 <wipeArea+0x148>
    10ea: 85 13        	sta	$13                     ; 0x2013 <wipeArea+0x147>
    10ec: 18           	clc
    10ed: a5 12        	lda	$12                     ; 0x2012 <wipeArea+0x146>
    10ef: 65 60        	adc	$60                     ; 0x2060 <wipeArea+0x194>
    10f1: 85 12        	sta	$12                     ; 0x2012 <wipeArea+0x146>
    10f3: a5 13        	lda	$13                     ; 0x2013 <wipeArea+0x147>
    10f5: 65 61        	adc	$61                     ; 0x2061 <wipeArea+0x195>
    10f7: aa           	tax
    10f8: 18           	clc
    10f9: a5 12        	lda	$12                     ; 0x2012 <wipeArea+0x146>
    10fb: 69 2e        	adc	#$2e
    10fd: 85 6a        	sta	$6a                     ; 0x206a <wipeArea+0x19e>
    10ff: 8a           	txa
    1100: 69 01        	adc	#$1
    1102: 85 6b        	sta	$6b                     ; 0x206b <wipeArea+0x19f>
    1104: a9 01        	lda	#$1
    1106: 85 63        	sta	$63                     ; 0x2063 <wipeArea+0x197>
    1108: 18           	clc
    1109: a0 01        	ldy	#$1
    110b: 71 60        	adc	($60),y                 ; 0x2060 <wipeArea+0x194>
    110d: 85 13        	sta	$13                     ; 0x2013 <wipeArea+0x147>
    110f: b2 60        	lda	($60)                   ; 0x2060 <wipeArea+0x194>
    1111: 85 53        	sta	$53                     ; 0x2053 <wipeArea+0x187>
    1113: 8d 14 d0     	sta	$d014                   ; 0xd014 <__heap_start+0x315a>
    1116: 9c 15 d0     	stz	$d015                   ; 0xd015 <__heap_start+0x315b>
    1119: a6 13        	ldx	$13                     ; 0x2013 <wipeArea+0x147>
    111b: 86 54        	stx	$54                     ; 0x2054 <wipeArea+0x188>
    111d: 8e 16 d0     	stx	$d016                   ; 0xd016 <__heap_start+0x315c>
    1120: 9c 17 d0     	stz	$d017                   ; 0xd017 <__heap_start+0x315d>
    1123: a5 15        	lda	$15                     ; 0x2015 <wipeArea+0x149>
    1125: d1 68        	cmp	($68),y                 ; 0x2068 <wipeArea+0x19c>
    1127: d0 10        	bne	$1139 <displayFileList+0x221>
    1129: 85 62        	sta	$62                     ; 0x2062 <wipeArea+0x196>
    112b: b2 68        	lda	($68)                   ; 0x2068 <wipeArea+0x19c>
    112d: 85 12        	sta	$12                     ; 0x2012 <wipeArea+0x146>
    112f: a6 64        	ldx	$64                     ; 0x2064 <wipeArea+0x198>
    1131: e4 12        	cpx	$12                     ; 0x2012 <wipeArea+0x146>
    1133: d0 06        	bne	$113b <displayFileList+0x223>
    1135: a9 fa        	lda	#$fa
    1137: 80 04        	bra	$113d <displayFileList+0x225>
    1139: 85 62        	sta	$62                     ; 0x2062 <wipeArea+0x196>
    113b: a9 20        	lda	#$20
    113d: a2 00        	ldx	#$0
    113f: 20 38 63     	jsr	$6338 <putchar>
    1142: b2 66        	lda	($66)                   ; 0x2066 <wipeArea+0x19a>
    1144: 29 01        	and	#$1
    1146: a2 73        	ldx	#$73
    1148: 86 12        	stx	$12                     ; 0x2012 <wipeArea+0x146>
    114a: a2 6a        	ldx	#$6a
    114c: 86 13        	stx	$13                     ; 0x2013 <wipeArea+0x147>
    114e: aa           	tax
    114f: d0 08        	bne	$1159 <displayFileList+0x241>
    1151: a2 18        	ldx	#$18
    1153: 86 12        	stx	$12                     ; 0x2012 <wipeArea+0x146>
    1155: a2 6a        	ldx	#$6a
    1157: 86 13        	stx	$13                     ; 0x2013 <wipeArea+0x147>
    1159: a5 10        	lda	$10                     ; 0x2010 <wipeArea+0x144>
    115b: a6 11        	ldx	$11                     ; 0x2011 <wipeArea+0x145>
    115d: 18           	clc
    115e: 69 02        	adc	#$2
    1160: 85 14        	sta	$14                     ; 0x2014 <wipeArea+0x148>
    1162: 8a           	txa
    1163: 69 00        	adc	#$0
    1165: 85 15        	sta	$15                     ; 0x2015 <wipeArea+0x149>
    1167: a5 12        	lda	$12                     ; 0x2012 <wipeArea+0x146>
    1169: a0 02        	ldy	#$2
    116b: 91 10        	sta	($10),y                 ; 0x2010 <wipeArea+0x144>
    116d: a5 13        	lda	$13                     ; 0x2013 <wipeArea+0x147>
    116f: 88           	dey
    1170: 91 14        	sta	($14),y                 ; 0x2014 <wipeArea+0x148>
    1172: a5 6a        	lda	$6a                     ; 0x206a <wipeArea+0x19e>
    1174: 92 10        	sta	($10)                   ; 0x2010 <wipeArea+0x144>
    1176: a5 6b        	lda	$6b                     ; 0x206b <wipeArea+0x19f>
    1178: 91 10        	sta	($10),y                 ; 0x2010 <wipeArea+0x144>
    117a: a2 95        	ldx	#$95
    117c: 86 12        	stx	$12                     ; 0x2012 <wipeArea+0x146>
    117e: a2 6a        	ldx	#$6a
    1180: 86 13        	stx	$13                     ; 0x2013 <wipeArea+0x147>
    1182: 20 dc 61     	jsr	$61dc <printf>
    1185: e6 64        	inc	$64                     ; 0x2064 <wipeArea+0x198>
    1187: d0 02        	bne	$118b <displayFileList+0x273>
    1189: e6 62        	inc	$62                     ; 0x2062 <wipeArea+0x196>
    118b: e6 66        	inc	$66                     ; 0x2066 <wipeArea+0x19a>
    118d: d0 02        	bne	$1191 <displayFileList+0x279>
    118f: e6 67        	inc	$67                     ; 0x2067 <wipeArea+0x19b>
    1191: 18           	clc
    1192: a5 6a        	lda	$6a                     ; 0x206a <wipeArea+0x19e>
    1194: 69 78        	adc	#$78
    1196: 85 6a        	sta	$6a                     ; 0x206a <wipeArea+0x19e>
    1198: a5 6b        	lda	$6b                     ; 0x206b <wipeArea+0x19f>
    119a: 69 00        	adc	#$0
    119c: 85 6b        	sta	$6b                     ; 0x206b <wipeArea+0x19f>
    119e: a5 63        	lda	$63                     ; 0x2063 <wipeArea+0x197>
    11a0: 1a           	inc
    11a1: a6 62        	ldx	$62                     ; 0x2062 <wipeArea+0x196>
    11a3: 86 15        	stx	$15                     ; 0x2015 <wipeArea+0x149>
    11a5: a6 6d        	ldx	$6d                     ; 0x206d <wipeArea+0x1a1>
    11a7: e4 62        	cpx	$62                     ; 0x2062 <wipeArea+0x196>
    11a9: f0 03        	beq	$11ae <displayFileList+0x296>
    11ab: 4c 06 11     	jmp	$1106 <displayFileList+0x1ee>
    11ae: a6 62        	ldx	$62                     ; 0x2062 <wipeArea+0x196>
    11b0: 86 15        	stx	$15                     ; 0x2015 <wipeArea+0x149>
    11b2: a6 6c        	ldx	$6c                     ; 0x206c <wipeArea+0x1a0>
    11b4: e4 64        	cpx	$64                     ; 0x2064 <wipeArea+0x198>
    11b6: f0 03        	beq	$11bb <displayFileList+0x2a3>
    11b8: 4c 06 11     	jmp	$1106 <displayFileList+0x1ee>
    11bb: a5 72        	lda	$72                     ; 0x2072 <wipeArea+0x1a6>
    11bd: 49 ff        	eor	#$ff
    11bf: 85 12        	sta	$12                     ; 0x2012 <wipeArea+0x146>
    11c1: a9 02        	lda	#$2
    11c3: 18           	clc
    11c4: 72 60        	adc	($60)                   ; 0x2060 <wipeArea+0x194>
    11c6: aa           	tax
    11c7: a0 01        	ldy	#$1
    11c9: 18           	clc
    11ca: a5 6c        	lda	$6c                     ; 0x206c <wipeArea+0x1a0>
    11cc: 65 12        	adc	$12                     ; 0x2012 <wipeArea+0x146>
    11ce: 18           	clc
    11cf: 71 60        	adc	($60),y                 ; 0x2060 <wipeArea+0x194>
    11d1: 1a           	inc
    11d2: 86 53        	stx	$53                     ; 0x2053 <wipeArea+0x187>
    11d4: 8e 14 d0     	stx	$d014                   ; 0xd014 <__heap_start+0x315a>
    11d7: 9c 15 d0     	stz	$d015                   ; 0xd015 <__heap_start+0x315b>
    11da: 85 54        	sta	$54                     ; 0x2054 <wipeArea+0x188>
    11dc: 8d 16 d0     	sta	$d016                   ; 0xd016 <__heap_start+0x315c>
    11df: 9c 17 d0     	stz	$d017                   ; 0xd017 <__heap_start+0x315d>
    11e2: a5 60        	lda	$60                     ; 0x2060 <wipeArea+0x194>
    11e4: 18           	clc
    11e5: 69 fc        	adc	#$fc
    11e7: 85 12        	sta	$12                     ; 0x2012 <wipeArea+0x146>
    11e9: a5 61        	lda	$61                     ; 0x2061 <wipeArea+0x195>
    11eb: 69 2f        	adc	#$2f
    11ed: 85 13        	sta	$13                     ; 0x2013 <wipeArea+0x147>
    11ef: b2 12        	lda	($12)                   ; 0x2012 <wipeArea+0x146>
    11f1: aa           	tax
    11f2: b1 12        	lda	($12),y                 ; 0x2012 <wipeArea+0x146>
    11f4: 86 15        	stx	$15                     ; 0x2015 <wipeArea+0x149>
    11f6: e0 0f        	cpx	#$f
    11f8: 85 14        	sta	$14                     ; 0x2014 <wipeArea+0x148>
    11fa: e9 00        	sbc	#$0
    11fc: a6 6e        	ldx	$6e                     ; 0x206e <wipeArea+0x1a2>
    11fe: 86 12        	stx	$12                     ; 0x2012 <wipeArea+0x146>
    1200: a6 6f        	ldx	$6f                     ; 0x206f <wipeArea+0x1a3>
    1202: 86 13        	stx	$13                     ; 0x2013 <wipeArea+0x147>
    1204: 50 02        	bvc	$1208 <displayFileList+0x2f0>
    1206: 49 80        	eor	#$80
    1208: a2 fb        	ldx	#$fb
    120a: 86 6c        	stx	$6c                     ; 0x206c <wipeArea+0x1a0>
    120c: 64 16        	stz	$16                     ; 0x2016 <wipeArea+0x14a>
    120e: aa           	tax
    120f: 10 04        	bpl	$1215 <displayFileList+0x2fd>
    1211: a2 20        	ldx	#$20
    1213: 86 6c        	stx	$6c                     ; 0x206c <wipeArea+0x1a0>
    1215: 18           	clc
    1216: a5 15        	lda	$15                     ; 0x2015 <wipeArea+0x149>
    1218: 69 10        	adc	#$10
    121a: 85 17        	sta	$17                     ; 0x2017 <wipeArea+0x14b>
    121c: a5 14        	lda	$14                     ; 0x2014 <wipeArea+0x148>
    121e: 69 00        	adc	#$0
    1220: 85 18        	sta	$18                     ; 0x2018 <wipeArea+0x14c>
    1222: 38           	sec
    1223: a6 70        	ldx	$70                     ; 0x2070 <wipeArea+0x1a4>
    1225: 86 14        	stx	$14                     ; 0x2014 <wipeArea+0x148>
    1227: a6 71        	ldx	$71                     ; 0x2071 <wipeArea+0x1a5>
    1229: 86 15        	stx	$15                     ; 0x2015 <wipeArea+0x149>
    122b: a5 17        	lda	$17                     ; 0x2017 <wipeArea+0x14b>
    122d: f2 14        	sbc	($14)                   ; 0x2014 <wipeArea+0x148>
    122f: 85 17        	sta	$17                     ; 0x2017 <wipeArea+0x14b>
    1231: a5 18        	lda	$18                     ; 0x2018 <wipeArea+0x14c>
    1233: f1 14        	sbc	($14),y                 ; 0x2014 <wipeArea+0x148>
    1235: aa           	tax
    1236: a5 17        	lda	$17                     ; 0x2017 <wipeArea+0x14b>
    1238: d2 12        	cmp	($12)                   ; 0x2012 <wipeArea+0x146>
    123a: 8a           	txa
    123b: f1 12        	sbc	($12),y                 ; 0x2012 <wipeArea+0x146>
    123d: 50 02        	bvc	$1241 <displayFileList+0x329>
    123f: 49 80        	eor	#$80
    1241: 64 12        	stz	$12                     ; 0x2012 <wipeArea+0x146>
    1243: aa           	tax
    1244: 10 04        	bpl	$124a <displayFileList+0x332>
    1246: a2 f8        	ldx	#$f8
    1248: 80 02        	bra	$124c <displayFileList+0x334>
    124a: a2 20        	ldx	#$20
    124c: a5 6c        	lda	$6c                     ; 0x206c <wipeArea+0x1a0>
    124e: 92 10        	sta	($10)                   ; 0x2010 <wipeArea+0x144>
    1250: a9 00        	lda	#$0
    1252: 91 10        	sta	($10),y                 ; 0x2010 <wipeArea+0x144>
    1254: a0 02        	ldy	#$2
    1256: 8a           	txa
    1257: 91 10        	sta	($10),y                 ; 0x2010 <wipeArea+0x144>
    1259: c8           	iny
    125a: a9 00        	lda	#$0
    125c: 91 10        	sta	($10),y                 ; 0x2010 <wipeArea+0x144>
    125e: a2 11        	ldx	#$11
    1260: 86 12        	stx	$12                     ; 0x2012 <wipeArea+0x146>
    1262: a2 6b        	ldx	#$6b
    1264: 86 13        	stx	$13                     ; 0x2013 <wipeArea+0x147>
    1266: 20 dc 61     	jsr	$61dc <printf>
    1269: 18           	clc
    126a: a5 10        	lda	$10                     ; 0x2010 <wipeArea+0x144>
    126c: 69 06        	adc	#$6
    126e: 85 10        	sta	$10                     ; 0x2010 <wipeArea+0x144>
    1270: a5 11        	lda	$11                     ; 0x2011 <wipeArea+0x145>
    1272: 69 00        	adc	#$0
    1274: 85 11        	sta	$11                     ; 0x2011 <wipeArea+0x145>
    1276: 60           	rts
    1277: a0 fa        	ldy	#$fa
    1279: 4c ea 0f     	jmp	$fea <displayFileList+0xd2>

0000127c <pickFile>:
    127c: 18           	clc
    127d: a5 10        	lda	$10                     ; 0x2010 <wipeArea+0x144>
    127f: 69 f8        	adc	#$f8
    1281: 85 10        	sta	$10                     ; 0x2010 <wipeArea+0x144>
    1283: a5 11        	lda	$11                     ; 0x2011 <wipeArea+0x145>
    1285: 69 ff        	adc	#$ff
    1287: 85 11        	sta	$11                     ; 0x2011 <wipeArea+0x145>
    1289: a6 24        	ldx	$24                     ; 0x2024 <wipeArea+0x158>
    128b: da           	phx
    128c: a6 25        	ldx	$25                     ; 0x2025 <wipeArea+0x159>
    128e: da           	phx
    128f: a6 26        	ldx	$26                     ; 0x2026 <wipeArea+0x15a>
    1291: da           	phx
    1292: a6 27        	ldx	$27                     ; 0x2027 <wipeArea+0x15b>
    1294: da           	phx
    1295: a2 08        	ldx	#$8
    1297: 86 26        	stx	$26                     ; 0x2026 <wipeArea+0x15a>
    1299: a2 00        	ldx	#$0
    129b: 86 27        	stx	$27                     ; 0x2027 <wipeArea+0x15b>
    129d: a9 a7        	lda	#$a7
    129f: 18           	clc
    12a0: 48           	pha
    12a1: a5 10        	lda	$10                     ; 0x2010 <wipeArea+0x144>
    12a3: 69 05        	adc	#$5
    12a5: 85 12        	sta	$12                     ; 0x2012 <wipeArea+0x146>
    12a7: a5 11        	lda	$11                     ; 0x2011 <wipeArea+0x145>
    12a9: 69 00        	adc	#$0
    12ab: 85 13        	sta	$13                     ; 0x2013 <wipeArea+0x147>
    12ad: 68           	pla
    12ae: 92 12        	sta	($12)                   ; 0x2012 <wipeArea+0x146>
    12b0: a0 01        	ldy	#$1
    12b2: a9 6c        	lda	#$6c
    12b4: 91 12        	sta	($12),y                 ; 0x2012 <wipeArea+0x146>
    12b6: 64 4b        	stz	$4b                     ; 0x204b <wipeArea+0x17f>
    12b8: 18           	clc
    12b9: a5 10        	lda	$10                     ; 0x2010 <wipeArea+0x144>
    12bb: 69 03        	adc	#$3
    12bd: 85 12        	sta	$12                     ; 0x2012 <wipeArea+0x146>
    12bf: a5 11        	lda	$11                     ; 0x2011 <wipeArea+0x145>
    12c1: 69 00        	adc	#$0
    12c3: 85 13        	sta	$13                     ; 0x2013 <wipeArea+0x147>
    12c5: a2 52        	ldx	#$52
    12c7: 86 14        	stx	$14                     ; 0x2014 <wipeArea+0x148>
    12c9: a2 00        	ldx	#$0
    12cb: 86 15        	stx	$15                     ; 0x2015 <wipeArea+0x149>
    12cd: 20 00 ff     	jsr	$ff00 <__heap_start+0x6046>
    12d0: 92 12        	sta	($12)                   ; 0x2012 <wipeArea+0x146>
    12d2: a9 00        	lda	#$0
    12d4: 6a           	ror
    12d5: 85 14        	sta	$14                     ; 0x2014 <wipeArea+0x148>
    12d7: b2 12        	lda	($12)                   ; 0x2012 <wipeArea+0x146>
    12d9: 18           	clc
    12da: 48           	pha
    12db: a5 10        	lda	$10                     ; 0x2010 <wipeArea+0x144>
    12dd: 69 02        	adc	#$2
    12df: 85 12        	sta	$12                     ; 0x2012 <wipeArea+0x146>
    12e1: a5 11        	lda	$11                     ; 0x2011 <wipeArea+0x145>
    12e3: 69 00        	adc	#$0
    12e5: 85 13        	sta	$13                     ; 0x2013 <wipeArea+0x147>
    12e7: 68           	pla
    12e8: 92 12        	sta	($12)                   ; 0x2012 <wipeArea+0x146>
    12ea: b2 12        	lda	($12)                   ; 0x2012 <wipeArea+0x146>
    12ec: 18           	clc
    12ed: 48           	pha
    12ee: a5 10        	lda	$10                     ; 0x2010 <wipeArea+0x144>
    12f0: 69 04        	adc	#$4
    12f2: 85 12        	sta	$12                     ; 0x2012 <wipeArea+0x146>
    12f4: a5 11        	lda	$11                     ; 0x2011 <wipeArea+0x145>
    12f6: 69 00        	adc	#$0
    12f8: 85 13        	sta	$13                     ; 0x2013 <wipeArea+0x147>
    12fa: 68           	pla
    12fb: 92 12        	sta	($12)                   ; 0x2012 <wipeArea+0x146>
    12fd: a6 4b        	ldx	$4b                     ; 0x204b <wipeArea+0x17f>
    12ff: a0 00        	ldy	#$0
    1301: c4 27        	cpy	$27                     ; 0x2027 <wipeArea+0x15b>
    1303: f0 02        	beq	$1307 <pickFile+0x8b>
    1305: 80 0d        	bra	$1314 <pickFile+0x98>
    1307: e4 26        	cpx	$26                     ; 0x2026 <wipeArea+0x15a>
    1309: f0 02        	beq	$130d <pickFile+0x91>
    130b: 80 02        	bra	$130f <pickFile+0x93>
    130d: 80 03        	bra	$1312 <pickFile+0x96>
    130f: 4c 9c 1e     	jmp	$1e9c <pickFile+0xc20>
    1312: 80 03        	bra	$1317 <pickFile+0x9b>
    1314: 4c 9c 1e     	jmp	$1e9c <pickFile+0xc20>
    1317: 80 00        	bra	$1319 <pickFile+0x9d>
    1319: a5 4f        	lda	$4f                     ; 0x204f <wipeArea+0x183>
    131b: 18           	clc
    131c: 69 6e        	adc	#$6e
    131e: aa           	tax
    131f: a9 00        	lda	#$0
    1321: 69 ff        	adc	#$ff
    1323: c9 00        	cmp	#$0
    1325: a0 01        	ldy	#$1
    1327: b0 02        	bcs	$132b <pickFile+0xaf>
    1329: a0 00        	ldy	#$0
    132b: 84 12        	sty	$12                     ; 0x2012 <wipeArea+0x146>
    132d: a8           	tay
    132e: f0 02        	beq	$1332 <pickFile+0xb6>
    1330: 80 08        	bra	$133a <pickFile+0xbe>
    1332: 8a           	txa
    1333: c9 28        	cmp	#$28
    1335: 90 0b        	bcc	$1342 <pickFile+0xc6>
    1337: 4c 9c 1e     	jmp	$1e9c <pickFile+0xc20>
    133a: 8a           	txa
    133b: a6 12        	ldx	$12                     ; 0x2012 <wipeArea+0x146>
    133d: f0 03        	beq	$1342 <pickFile+0xc6>
    133f: 4c 9c 1e     	jmp	$1e9c <pickFile+0xc20>
    1342: 0a           	asl
    1343: aa           	tax
    1344: 7c b4 66     	jmp	($66b4,x)               ; 0x66b4 <__bss_size+0x351a>
    1347: 18           	clc
    1348: a5 10        	lda	$10                     ; 0x2010 <wipeArea+0x144>
    134a: 69 07        	adc	#$7
    134c: 85 12        	sta	$12                     ; 0x2012 <wipeArea+0x146>
    134e: a5 11        	lda	$11                     ; 0x2011 <wipeArea+0x145>
    1350: 69 00        	adc	#$0
    1352: 85 13        	sta	$13                     ; 0x2013 <wipeArea+0x147>
    1354: a9 03        	lda	#$3
    1356: 92 12        	sta	($12)                   ; 0x2012 <wipeArea+0x146>
    1358: 4c 9f 1e     	jmp	$1e9f <pickFile+0xc23>
    135b: 18           	clc
    135c: a5 10        	lda	$10                     ; 0x2010 <wipeArea+0x144>
    135e: 69 05        	adc	#$5
    1360: 85 24        	sta	$24                     ; 0x2024 <wipeArea+0x158>
    1362: a5 11        	lda	$11                     ; 0x2011 <wipeArea+0x145>
    1364: 69 00        	adc	#$0
    1366: 85 25        	sta	$25                     ; 0x2025 <wipeArea+0x159>
    1368: b2 24        	lda	($24)                   ; 0x2024 <wipeArea+0x158>
    136a: 85 12        	sta	$12                     ; 0x2012 <wipeArea+0x146>
    136c: a0 01        	ldy	#$1
    136e: b1 24        	lda	($24),y                 ; 0x2024 <wipeArea+0x158>
    1370: aa           	tax
    1371: a0 01        	ldy	#$1
    1373: 18           	clc
    1374: a5 12        	lda	$12                     ; 0x2012 <wipeArea+0x146>
    1376: 69 3e        	adc	#$3e
    1378: 85 12        	sta	$12                     ; 0x2012 <wipeArea+0x146>
    137a: 8a           	txa
    137b: 69 00        	adc	#$0
    137d: 85 13        	sta	$13                     ; 0x2013 <wipeArea+0x147>
    137f: b2 24        	lda	($24)                   ; 0x2024 <wipeArea+0x158>
    1381: 85 15        	sta	$15                     ; 0x2015 <wipeArea+0x149>
    1383: b1 24        	lda	($24),y                 ; 0x2024 <wipeArea+0x158>
    1385: 85 14        	sta	$14                     ; 0x2014 <wipeArea+0x148>
    1387: 18           	clc
    1388: a5 15        	lda	$15                     ; 0x2015 <wipeArea+0x149>
    138a: 69 fc        	adc	#$fc
    138c: aa           	tax
    138d: a5 14        	lda	$14                     ; 0x2014 <wipeArea+0x148>
    138f: 69 2f        	adc	#$2f
    1391: 86 14        	stx	$14                     ; 0x2014 <wipeArea+0x148>
    1393: 85 15        	sta	$15                     ; 0x2015 <wipeArea+0x149>
    1395: b2 14        	lda	($14)                   ; 0x2014 <wipeArea+0x148>
    1397: aa           	tax
    1398: b1 14        	lda	($14),y                 ; 0x2014 <wipeArea+0x148>
    139a: 85 14        	sta	$14                     ; 0x2014 <wipeArea+0x148>
    139c: a0 01        	ldy	#$1
    139e: 8a           	txa
    139f: 0a           	asl
    13a0: 26 14        	rol	$14                     ; 0x2014 <wipeArea+0x148>
    13a2: 0a           	asl
    13a3: 26 14        	rol	$14                     ; 0x2014 <wipeArea+0x148>
    13a5: a6 14        	ldx	$14                     ; 0x2014 <wipeArea+0x148>
    13a7: 86 15        	stx	$15                     ; 0x2015 <wipeArea+0x149>
    13a9: 85 14        	sta	$14                     ; 0x2014 <wipeArea+0x148>
    13ab: 06 14        	asl	$14                     ; 0x2014 <wipeArea+0x148>
    13ad: 26 15        	rol	$15                     ; 0x2015 <wipeArea+0x149>
    13af: a5 14        	lda	$14                     ; 0x2014 <wipeArea+0x148>
    13b1: 0a           	asl
    13b2: aa           	tax
    13b3: a5 15        	lda	$15                     ; 0x2015 <wipeArea+0x149>
    13b5: 2a           	rol
    13b6: 86 16        	stx	$16                     ; 0x2016 <wipeArea+0x14a>
    13b8: 06 16        	asl	$16                     ; 0x2016 <wipeArea+0x14a>
    13ba: 2a           	rol
    13bb: 06 16        	asl	$16                     ; 0x2016 <wipeArea+0x14a>
    13bd: 2a           	rol
    13be: 06 16        	asl	$16                     ; 0x2016 <wipeArea+0x14a>
    13c0: 2a           	rol
    13c1: aa           	tax
    13c2: 38           	sec
    13c3: a5 16        	lda	$16                     ; 0x2016 <wipeArea+0x14a>
    13c5: e5 14        	sbc	$14                     ; 0x2014 <wipeArea+0x148>
    13c7: 85 14        	sta	$14                     ; 0x2014 <wipeArea+0x148>
    13c9: 8a           	txa
    13ca: e5 15        	sbc	$15                     ; 0x2015 <wipeArea+0x149>
    13cc: 85 15        	sta	$15                     ; 0x2015 <wipeArea+0x149>
    13ce: 18           	clc
    13cf: a5 14        	lda	$14                     ; 0x2014 <wipeArea+0x148>
    13d1: 72 24        	adc	($24)                   ; 0x2024 <wipeArea+0x158>
    13d3: 85 14        	sta	$14                     ; 0x2014 <wipeArea+0x148>
    13d5: a5 15        	lda	$15                     ; 0x2015 <wipeArea+0x149>
    13d7: 71 24        	adc	($24),y                 ; 0x2024 <wipeArea+0x158>
    13d9: aa           	tax
    13da: 18           	clc
    13db: a5 14        	lda	$14                     ; 0x2014 <wipeArea+0x148>
    13dd: 69 b6        	adc	#$b6
    13df: 85 14        	sta	$14                     ; 0x2014 <wipeArea+0x148>
    13e1: 8a           	txa
    13e2: 69 00        	adc	#$0
    13e4: 85 15        	sta	$15                     ; 0x2015 <wipeArea+0x149>
    13e6: a9 78        	lda	#$78
    13e8: a2 00        	ldx	#$0
    13ea: 20 1d 65     	jsr	$651d <memcpy>
    13ed: b2 24        	lda	($24)                   ; 0x2024 <wipeArea+0x158>
    13ef: 85 13        	sta	$13                     ; 0x2013 <wipeArea+0x147>
    13f1: a0 01        	ldy	#$1
    13f3: b1 24        	lda	($24),y                 ; 0x2024 <wipeArea+0x158>
    13f5: 85 12        	sta	$12                     ; 0x2012 <wipeArea+0x146>
    13f7: 18           	clc
    13f8: a5 13        	lda	$13                     ; 0x2013 <wipeArea+0x147>
    13fa: 69 fe        	adc	#$fe
    13fc: aa           	tax
    13fd: a5 12        	lda	$12                     ; 0x2012 <wipeArea+0x146>
    13ff: 69 2f        	adc	#$2f
    1401: 86 12        	stx	$12                     ; 0x2012 <wipeArea+0x146>
    1403: 85 13        	sta	$13                     ; 0x2013 <wipeArea+0x147>
    1405: b2 12        	lda	($12)                   ; 0x2012 <wipeArea+0x146>
    1407: 85 14        	sta	$14                     ; 0x2014 <wipeArea+0x148>
    1409: b1 12        	lda	($12),y                 ; 0x2012 <wipeArea+0x146>
    140b: d0 1c        	bne	$1429 <pickFile+0x1ad>
    140d: 80 00        	bra	$140f <pickFile+0x193>
    140f: a5 14        	lda	$14                     ; 0x2014 <wipeArea+0x148>
    1411: d0 16        	bne	$1429 <pickFile+0x1ad>
    1413: 80 00        	bra	$1415 <pickFile+0x199>
    1415: 18           	clc
    1416: a5 10        	lda	$10                     ; 0x2010 <wipeArea+0x144>
    1418: 69 07        	adc	#$7
    141a: 85 12        	sta	$12                     ; 0x2012 <wipeArea+0x146>
    141c: a5 11        	lda	$11                     ; 0x2011 <wipeArea+0x145>
    141e: 69 00        	adc	#$0
    1420: 85 13        	sta	$13                     ; 0x2013 <wipeArea+0x147>
    1422: a9 00        	lda	#$0
    1424: 92 12        	sta	($12)                   ; 0x2012 <wipeArea+0x146>
    1426: 4c 9f 1e     	jmp	$1e9f <pickFile+0xc23>
    1429: 18           	clc
    142a: a5 10        	lda	$10                     ; 0x2010 <wipeArea+0x144>
    142c: 69 05        	adc	#$5
    142e: 85 12        	sta	$12                     ; 0x2012 <wipeArea+0x146>
    1430: a5 11        	lda	$11                     ; 0x2011 <wipeArea+0x145>
    1432: 69 00        	adc	#$0
    1434: 85 13        	sta	$13                     ; 0x2013 <wipeArea+0x147>
    1436: a0 01        	ldy	#$1
    1438: b2 12        	lda	($12)                   ; 0x2012 <wipeArea+0x146>
    143a: 85 15        	sta	$15                     ; 0x2015 <wipeArea+0x149>
    143c: b1 12        	lda	($12),y                 ; 0x2012 <wipeArea+0x146>
    143e: 85 14        	sta	$14                     ; 0x2014 <wipeArea+0x148>
    1440: 18           	clc
    1441: a5 15        	lda	$15                     ; 0x2015 <wipeArea+0x149>
    1443: 69 fc        	adc	#$fc
    1445: aa           	tax
    1446: a5 14        	lda	$14                     ; 0x2014 <wipeArea+0x148>
    1448: 69 2f        	adc	#$2f
    144a: 86 14        	stx	$14                     ; 0x2014 <wipeArea+0x148>
    144c: 85 15        	sta	$15                     ; 0x2015 <wipeArea+0x149>
    144e: b2 14        	lda	($14)                   ; 0x2014 <wipeArea+0x148>
    1450: 85 16        	sta	$16                     ; 0x2016 <wipeArea+0x14a>
    1452: b1 14        	lda	($14),y                 ; 0x2014 <wipeArea+0x148>
    1454: 85 14        	sta	$14                     ; 0x2014 <wipeArea+0x148>
    1456: 18           	clc
    1457: a5 16        	lda	$16                     ; 0x2016 <wipeArea+0x14a>
    1459: 72 12        	adc	($12)                   ; 0x2012 <wipeArea+0x146>
    145b: 85 15        	sta	$15                     ; 0x2015 <wipeArea+0x149>
    145d: a5 14        	lda	$14                     ; 0x2014 <wipeArea+0x148>
    145f: 71 12        	adc	($12),y                 ; 0x2012 <wipeArea+0x146>
    1461: 85 12        	sta	$12                     ; 0x2012 <wipeArea+0x146>
    1463: 18           	clc
    1464: a5 15        	lda	$15                     ; 0x2015 <wipeArea+0x149>
    1466: 69 96        	adc	#$96
    1468: aa           	tax
    1469: a5 12        	lda	$12                     ; 0x2012 <wipeArea+0x146>
    146b: 69 2f        	adc	#$2f
    146d: 85 13        	sta	$13                     ; 0x2013 <wipeArea+0x147>
    146f: 86 12        	stx	$12                     ; 0x2012 <wipeArea+0x146>
    1471: b2 12        	lda	($12)                   ; 0x2012 <wipeArea+0x146>
    1473: 29 01        	and	#$1
    1475: f0 16        	beq	$148d <pickFile+0x211>
    1477: 80 00        	bra	$1479 <pickFile+0x1fd>
    1479: 18           	clc
    147a: a5 10        	lda	$10                     ; 0x2010 <wipeArea+0x144>
    147c: 69 07        	adc	#$7
    147e: 85 12        	sta	$12                     ; 0x2012 <wipeArea+0x146>
    1480: a5 11        	lda	$11                     ; 0x2011 <wipeArea+0x145>
    1482: 69 00        	adc	#$0
    1484: 85 13        	sta	$13                     ; 0x2013 <wipeArea+0x147>
    1486: a9 01        	lda	#$1
    1488: 92 12        	sta	($12)                   ; 0x2012 <wipeArea+0x146>
    148a: 4c 9f 1e     	jmp	$1e9f <pickFile+0xc23>
    148d: 18           	clc
    148e: a5 10        	lda	$10                     ; 0x2010 <wipeArea+0x144>
    1490: 69 07        	adc	#$7
    1492: 85 12        	sta	$12                     ; 0x2012 <wipeArea+0x146>
    1494: a5 11        	lda	$11                     ; 0x2011 <wipeArea+0x145>
    1496: 69 00        	adc	#$0
    1498: 85 13        	sta	$13                     ; 0x2013 <wipeArea+0x147>
    149a: a9 02        	lda	#$2
    149c: 92 12        	sta	($12)                   ; 0x2012 <wipeArea+0x146>
    149e: 4c 9f 1e     	jmp	$1e9f <pickFile+0xc23>
    14a1: 18           	clc
    14a2: a5 10        	lda	$10                     ; 0x2010 <wipeArea+0x144>
    14a4: 69 05        	adc	#$5
    14a6: 85 12        	sta	$12                     ; 0x2012 <wipeArea+0x146>
    14a8: a5 11        	lda	$11                     ; 0x2011 <wipeArea+0x145>
    14aa: 69 00        	adc	#$0
    14ac: 85 13        	sta	$13                     ; 0x2013 <wipeArea+0x147>
    14ae: b2 12        	lda	($12)                   ; 0x2012 <wipeArea+0x146>
    14b0: 85 14        	sta	$14                     ; 0x2014 <wipeArea+0x148>
    14b2: a0 01        	ldy	#$1
    14b4: b1 12        	lda	($12),y                 ; 0x2012 <wipeArea+0x146>
    14b6: aa           	tax
    14b7: 18           	clc
    14b8: a5 14        	lda	$14                     ; 0x2014 <wipeArea+0x148>
    14ba: 69 fc        	adc	#$fc
    14bc: 85 12        	sta	$12                     ; 0x2012 <wipeArea+0x146>
    14be: 8a           	txa
    14bf: 69 2f        	adc	#$2f
    14c1: 85 13        	sta	$13                     ; 0x2013 <wipeArea+0x147>
    14c3: b2 12        	lda	($12)                   ; 0x2012 <wipeArea+0x146>
    14c5: 85 14        	sta	$14                     ; 0x2014 <wipeArea+0x148>
    14c7: b1 12        	lda	($12),y                 ; 0x2012 <wipeArea+0x146>
    14c9: a6 14        	ldx	$14                     ; 0x2014 <wipeArea+0x148>
    14cb: e0 01        	cpx	#$1
    14cd: e9 00        	sbc	#$0
    14cf: 70 02        	bvs	$14d3 <pickFile+0x257>
    14d1: 80 04        	bra	$14d7 <pickFile+0x25b>
    14d3: 49 80        	eor	#$80
    14d5: 80 02        	bra	$14d9 <pickFile+0x25d>
    14d7: 80 00        	bra	$14d9 <pickFile+0x25d>
    14d9: aa           	tax
    14da: 10 03        	bpl	$14df <pickFile+0x263>
    14dc: 4c 91 17     	jmp	$1791 <pickFile+0x515>
    14df: 18           	clc
    14e0: a5 10        	lda	$10                     ; 0x2010 <wipeArea+0x144>
    14e2: 69 05        	adc	#$5
    14e4: 85 12        	sta	$12                     ; 0x2012 <wipeArea+0x146>
    14e6: a5 11        	lda	$11                     ; 0x2011 <wipeArea+0x145>
    14e8: 69 00        	adc	#$0
    14ea: 85 13        	sta	$13                     ; 0x2013 <wipeArea+0x147>
    14ec: b2 12        	lda	($12)                   ; 0x2012 <wipeArea+0x146>
    14ee: 85 14        	sta	$14                     ; 0x2014 <wipeArea+0x148>
    14f0: a0 01        	ldy	#$1
    14f2: b1 12        	lda	($12),y                 ; 0x2012 <wipeArea+0x146>
    14f4: aa           	tax
    14f5: 18           	clc
    14f6: a5 14        	lda	$14                     ; 0x2014 <wipeArea+0x148>
    14f8: 69 fe        	adc	#$fe
    14fa: 85 12        	sta	$12                     ; 0x2012 <wipeArea+0x146>
    14fc: 8a           	txa
    14fd: 69 2f        	adc	#$2f
    14ff: 85 13        	sta	$13                     ; 0x2013 <wipeArea+0x147>
    1501: b2 12        	lda	($12)                   ; 0x2012 <wipeArea+0x146>
    1503: 85 14        	sta	$14                     ; 0x2014 <wipeArea+0x148>
    1505: b1 12        	lda	($12),y                 ; 0x2012 <wipeArea+0x146>
    1507: a6 14        	ldx	$14                     ; 0x2014 <wipeArea+0x148>
    1509: e0 01        	cpx	#$1
    150b: e9 00        	sbc	#$0
    150d: 70 02        	bvs	$1511 <pickFile+0x295>
    150f: 80 04        	bra	$1515 <pickFile+0x299>
    1511: 49 80        	eor	#$80
    1513: 80 02        	bra	$1517 <pickFile+0x29b>
    1515: 80 00        	bra	$1517 <pickFile+0x29b>
    1517: aa           	tax
    1518: 10 03        	bpl	$151d <pickFile+0x2a1>
    151a: 4c 31 16     	jmp	$1631 <pickFile+0x3b5>
    151d: 18           	clc
    151e: a5 10        	lda	$10                     ; 0x2010 <wipeArea+0x144>
    1520: 69 05        	adc	#$5
    1522: 85 24        	sta	$24                     ; 0x2024 <wipeArea+0x158>
    1524: a5 11        	lda	$11                     ; 0x2011 <wipeArea+0x145>
    1526: 69 00        	adc	#$0
    1528: 85 25        	sta	$25                     ; 0x2025 <wipeArea+0x159>
    152a: b2 24        	lda	($24)                   ; 0x2024 <wipeArea+0x158>
    152c: 85 12        	sta	$12                     ; 0x2012 <wipeArea+0x146>
    152e: a0 01        	ldy	#$1
    1530: b1 24        	lda	($24),y                 ; 0x2024 <wipeArea+0x158>
    1532: 85 13        	sta	$13                     ; 0x2013 <wipeArea+0x147>
    1534: b2 12        	lda	($12)                   ; 0x2012 <wipeArea+0x146>
    1536: 85 14        	sta	$14                     ; 0x2014 <wipeArea+0x148>
    1538: b2 24        	lda	($24)                   ; 0x2024 <wipeArea+0x158>
    153a: 85 12        	sta	$12                     ; 0x2012 <wipeArea+0x146>
    153c: b1 24        	lda	($24),y                 ; 0x2024 <wipeArea+0x158>
    153e: 85 13        	sta	$13                     ; 0x2013 <wipeArea+0x147>
    1540: b2 24        	lda	($24)                   ; 0x2024 <wipeArea+0x158>
    1542: 85 16        	sta	$16                     ; 0x2016 <wipeArea+0x14a>
    1544: b1 24        	lda	($24),y                 ; 0x2024 <wipeArea+0x158>
    1546: 85 15        	sta	$15                     ; 0x2015 <wipeArea+0x149>
    1548: 18           	clc
    1549: a5 16        	lda	$16                     ; 0x2016 <wipeArea+0x14a>
    154b: 69 fe        	adc	#$fe
    154d: aa           	tax
    154e: a5 15        	lda	$15                     ; 0x2015 <wipeArea+0x149>
    1550: 69 2f        	adc	#$2f
    1552: 85 15        	sta	$15                     ; 0x2015 <wipeArea+0x149>
    1554: b1 12        	lda	($12),y                 ; 0x2012 <wipeArea+0x146>
    1556: 86 12        	stx	$12                     ; 0x2012 <wipeArea+0x146>
    1558: a6 15        	ldx	$15                     ; 0x2015 <wipeArea+0x149>
    155a: 86 13        	stx	$13                     ; 0x2013 <wipeArea+0x147>
    155c: 18           	clc
    155d: 72 12        	adc	($12)                   ; 0x2012 <wipeArea+0x146>
    155f: aa           	tax
    1560: a5 14        	lda	$14                     ; 0x2014 <wipeArea+0x148>
    1562: 20 84 52     	jsr	$5284 <textGotoXY>
    1565: a9 20        	lda	#$20
    1567: 92 10        	sta	($10)                   ; 0x2010 <wipeArea+0x144>
    1569: a9 00        	lda	#$0
    156b: a0 01        	ldy	#$1
    156d: 91 10        	sta	($10),y                 ; 0x2010 <wipeArea+0x144>
    156f: a2 a5        	ldx	#$a5
    1571: 86 12        	stx	$12                     ; 0x2012 <wipeArea+0x146>
    1573: a2 6a        	ldx	#$6a
    1575: 86 13        	stx	$13                     ; 0x2013 <wipeArea+0x147>
    1577: 20 dc 61     	jsr	$61dc <printf>
    157a: b2 24        	lda	($24)                   ; 0x2024 <wipeArea+0x158>
    157c: 85 13        	sta	$13                     ; 0x2013 <wipeArea+0x147>
    157e: a0 01        	ldy	#$1
    1580: b1 24        	lda	($24),y                 ; 0x2024 <wipeArea+0x158>
    1582: 85 12        	sta	$12                     ; 0x2012 <wipeArea+0x146>
    1584: 18           	clc
    1585: a5 13        	lda	$13                     ; 0x2013 <wipeArea+0x147>
    1587: 69 fc        	adc	#$fc
    1589: aa           	tax
    158a: a5 12        	lda	$12                     ; 0x2012 <wipeArea+0x146>
    158c: 69 2f        	adc	#$2f
    158e: 86 12        	stx	$12                     ; 0x2012 <wipeArea+0x146>
    1590: 85 13        	sta	$13                     ; 0x2013 <wipeArea+0x147>
    1592: b2 12        	lda	($12)                   ; 0x2012 <wipeArea+0x146>
    1594: aa           	tax
    1595: b1 12        	lda	($12),y                 ; 0x2012 <wipeArea+0x146>
    1597: 85 14        	sta	$14                     ; 0x2014 <wipeArea+0x148>
    1599: 8a           	txa
    159a: 3a           	dec
    159b: c9 ff        	cmp	#$ff
    159d: f0 03        	beq	$15a2 <pickFile+0x326>
    159f: 4c a7 15     	jmp	$15a7 <pickFile+0x32b>
    15a2: c6 14        	dec	$14                     ; 0x2014 <wipeArea+0x148>
    15a4: 4c a7 15     	jmp	$15a7 <pickFile+0x32b>
    15a7: 92 12        	sta	($12)                   ; 0x2012 <wipeArea+0x146>
    15a9: a5 14        	lda	$14                     ; 0x2014 <wipeArea+0x148>
    15ab: 91 12        	sta	($12),y                 ; 0x2012 <wipeArea+0x146>
    15ad: b2 24        	lda	($24)                   ; 0x2024 <wipeArea+0x158>
    15af: 85 13        	sta	$13                     ; 0x2013 <wipeArea+0x147>
    15b1: b1 24        	lda	($24),y                 ; 0x2024 <wipeArea+0x158>
    15b3: 85 12        	sta	$12                     ; 0x2012 <wipeArea+0x146>
    15b5: 18           	clc
    15b6: a5 13        	lda	$13                     ; 0x2013 <wipeArea+0x147>
    15b8: 69 fe        	adc	#$fe
    15ba: aa           	tax
    15bb: a5 12        	lda	$12                     ; 0x2012 <wipeArea+0x146>
    15bd: 69 2f        	adc	#$2f
    15bf: 86 12        	stx	$12                     ; 0x2012 <wipeArea+0x146>
    15c1: 85 13        	sta	$13                     ; 0x2013 <wipeArea+0x147>
    15c3: b2 12        	lda	($12)                   ; 0x2012 <wipeArea+0x146>
    15c5: aa           	tax
    15c6: b1 12        	lda	($12),y                 ; 0x2012 <wipeArea+0x146>
    15c8: 85 14        	sta	$14                     ; 0x2014 <wipeArea+0x148>
    15ca: 8a           	txa
    15cb: 3a           	dec
    15cc: c9 ff        	cmp	#$ff
    15ce: f0 03        	beq	$15d3 <pickFile+0x357>
    15d0: 4c d8 15     	jmp	$15d8 <pickFile+0x35c>
    15d3: c6 14        	dec	$14                     ; 0x2014 <wipeArea+0x148>
    15d5: 4c d8 15     	jmp	$15d8 <pickFile+0x35c>
    15d8: 92 12        	sta	($12)                   ; 0x2012 <wipeArea+0x146>
    15da: a5 14        	lda	$14                     ; 0x2014 <wipeArea+0x148>
    15dc: 91 12        	sta	($12),y                 ; 0x2012 <wipeArea+0x146>
    15de: b2 24        	lda	($24)                   ; 0x2024 <wipeArea+0x158>
    15e0: 85 12        	sta	$12                     ; 0x2012 <wipeArea+0x146>
    15e2: b1 24        	lda	($24),y                 ; 0x2024 <wipeArea+0x158>
    15e4: 85 13        	sta	$13                     ; 0x2013 <wipeArea+0x147>
    15e6: b2 24        	lda	($24)                   ; 0x2024 <wipeArea+0x158>
    15e8: 85 14        	sta	$14                     ; 0x2014 <wipeArea+0x148>
    15ea: b1 24        	lda	($24),y                 ; 0x2024 <wipeArea+0x158>
    15ec: 85 15        	sta	$15                     ; 0x2015 <wipeArea+0x149>
    15ee: b2 24        	lda	($24)                   ; 0x2024 <wipeArea+0x158>
    15f0: 85 16        	sta	$16                     ; 0x2016 <wipeArea+0x14a>
    15f2: b1 24        	lda	($24),y                 ; 0x2024 <wipeArea+0x158>
    15f4: 85 18        	sta	$18                     ; 0x2018 <wipeArea+0x14c>
    15f6: a0 01        	ldy	#$1
    15f8: 18           	clc
    15f9: a5 16        	lda	$16                     ; 0x2016 <wipeArea+0x14a>
    15fb: 69 fe        	adc	#$fe
    15fd: 85 17        	sta	$17                     ; 0x2017 <wipeArea+0x14b>
    15ff: a5 18        	lda	$18                     ; 0x2018 <wipeArea+0x14c>
    1601: 69 2f        	adc	#$2f
    1603: aa           	tax
    1604: b2 12        	lda	($12)                   ; 0x2012 <wipeArea+0x146>
    1606: 85 16        	sta	$16                     ; 0x2016 <wipeArea+0x14a>
    1608: a5 17        	lda	$17                     ; 0x2017 <wipeArea+0x14b>
    160a: 85 12        	sta	$12                     ; 0x2012 <wipeArea+0x146>
    160c: b1 14        	lda	($14),y                 ; 0x2014 <wipeArea+0x148>
    160e: 86 13        	stx	$13                     ; 0x2013 <wipeArea+0x147>
    1610: 18           	clc
    1611: 72 12        	adc	($12)                   ; 0x2012 <wipeArea+0x146>
    1613: aa           	tax
    1614: a5 16        	lda	$16                     ; 0x2016 <wipeArea+0x14a>
    1616: 20 84 52     	jsr	$5284 <textGotoXY>
    1619: a9 fa        	lda	#$fa
    161b: 92 10        	sta	($10)                   ; 0x2010 <wipeArea+0x144>
    161d: a9 00        	lda	#$0
    161f: a0 01        	ldy	#$1
    1621: 91 10        	sta	($10),y                 ; 0x2010 <wipeArea+0x144>
    1623: a2 a5        	ldx	#$a5
    1625: 86 12        	stx	$12                     ; 0x2012 <wipeArea+0x146>
    1627: a2 6a        	ldx	#$6a
    1629: 86 13        	stx	$13                     ; 0x2013 <wipeArea+0x147>
    162b: 20 dc 61     	jsr	$61dc <printf>
    162e: 4c 91 17     	jmp	$1791 <pickFile+0x515>
    1631: 18           	clc
    1632: a5 10        	lda	$10                     ; 0x2010 <wipeArea+0x144>
    1634: 69 05        	adc	#$5
    1636: 85 12        	sta	$12                     ; 0x2012 <wipeArea+0x146>
    1638: a5 11        	lda	$11                     ; 0x2011 <wipeArea+0x145>
    163a: 69 00        	adc	#$0
    163c: 85 13        	sta	$13                     ; 0x2013 <wipeArea+0x147>
    163e: b2 12        	lda	($12)                   ; 0x2012 <wipeArea+0x146>
    1640: 85 14        	sta	$14                     ; 0x2014 <wipeArea+0x148>
    1642: a0 01        	ldy	#$1
    1644: b1 12        	lda	($12),y                 ; 0x2012 <wipeArea+0x146>
    1646: aa           	tax
    1647: 18           	clc
    1648: a5 14        	lda	$14                     ; 0x2014 <wipeArea+0x148>
    164a: 69 fe        	adc	#$fe
    164c: 85 12        	sta	$12                     ; 0x2012 <wipeArea+0x146>
    164e: 8a           	txa
    164f: 69 2f        	adc	#$2f
    1651: 85 13        	sta	$13                     ; 0x2013 <wipeArea+0x147>
    1653: b2 12        	lda	($12)                   ; 0x2012 <wipeArea+0x146>
    1655: 85 14        	sta	$14                     ; 0x2014 <wipeArea+0x148>
    1657: b1 12        	lda	($12),y                 ; 0x2012 <wipeArea+0x146>
    1659: f0 03        	beq	$165e <pickFile+0x3e2>
    165b: 4c 91 17     	jmp	$1791 <pickFile+0x515>
    165e: a5 14        	lda	$14                     ; 0x2014 <wipeArea+0x148>
    1660: f0 03        	beq	$1665 <pickFile+0x3e9>
    1662: 4c 91 17     	jmp	$1791 <pickFile+0x515>
    1665: 18           	clc
    1666: a5 10        	lda	$10                     ; 0x2010 <wipeArea+0x144>
    1668: 69 05        	adc	#$5
    166a: 85 24        	sta	$24                     ; 0x2024 <wipeArea+0x158>
    166c: a5 11        	lda	$11                     ; 0x2011 <wipeArea+0x145>
    166e: 69 00        	adc	#$0
    1670: 85 25        	sta	$25                     ; 0x2025 <wipeArea+0x159>
    1672: b2 24        	lda	($24)                   ; 0x2024 <wipeArea+0x158>
    1674: 85 12        	sta	$12                     ; 0x2012 <wipeArea+0x146>
    1676: a0 01        	ldy	#$1
    1678: b1 24        	lda	($24),y                 ; 0x2024 <wipeArea+0x158>
    167a: 85 13        	sta	$13                     ; 0x2013 <wipeArea+0x147>
    167c: b2 12        	lda	($12)                   ; 0x2012 <wipeArea+0x146>
    167e: 85 14        	sta	$14                     ; 0x2014 <wipeArea+0x148>
    1680: b2 24        	lda	($24)                   ; 0x2024 <wipeArea+0x158>
    1682: 85 12        	sta	$12                     ; 0x2012 <wipeArea+0x146>
    1684: b1 24        	lda	($24),y                 ; 0x2024 <wipeArea+0x158>
    1686: 85 13        	sta	$13                     ; 0x2013 <wipeArea+0x147>
    1688: b2 24        	lda	($24)                   ; 0x2024 <wipeArea+0x158>
    168a: 85 16        	sta	$16                     ; 0x2016 <wipeArea+0x14a>
    168c: b1 24        	lda	($24),y                 ; 0x2024 <wipeArea+0x158>
    168e: 85 15        	sta	$15                     ; 0x2015 <wipeArea+0x149>
    1690: 18           	clc
    1691: a5 16        	lda	$16                     ; 0x2016 <wipeArea+0x14a>
    1693: 69 fe        	adc	#$fe
    1695: aa           	tax
    1696: a5 15        	lda	$15                     ; 0x2015 <wipeArea+0x149>
    1698: 69 2f        	adc	#$2f
    169a: 85 15        	sta	$15                     ; 0x2015 <wipeArea+0x149>
    169c: b1 12        	lda	($12),y                 ; 0x2012 <wipeArea+0x146>
    169e: 86 12        	stx	$12                     ; 0x2012 <wipeArea+0x146>
    16a0: a6 15        	ldx	$15                     ; 0x2015 <wipeArea+0x149>
    16a2: 86 13        	stx	$13                     ; 0x2013 <wipeArea+0x147>
    16a4: 18           	clc
    16a5: 72 12        	adc	($12)                   ; 0x2012 <wipeArea+0x146>
    16a7: aa           	tax
    16a8: a5 14        	lda	$14                     ; 0x2014 <wipeArea+0x148>
    16aa: 20 84 52     	jsr	$5284 <textGotoXY>
    16ad: a9 20        	lda	#$20
    16af: 92 10        	sta	($10)                   ; 0x2010 <wipeArea+0x144>
    16b1: a9 00        	lda	#$0
    16b3: a0 01        	ldy	#$1
    16b5: 91 10        	sta	($10),y                 ; 0x2010 <wipeArea+0x144>
    16b7: a2 a5        	ldx	#$a5
    16b9: 86 12        	stx	$12                     ; 0x2012 <wipeArea+0x146>
    16bb: a2 6a        	ldx	#$6a
    16bd: 86 13        	stx	$13                     ; 0x2013 <wipeArea+0x147>
    16bf: 20 dc 61     	jsr	$61dc <printf>
    16c2: b2 24        	lda	($24)                   ; 0x2024 <wipeArea+0x158>
    16c4: 85 13        	sta	$13                     ; 0x2013 <wipeArea+0x147>
    16c6: a0 01        	ldy	#$1
    16c8: b1 24        	lda	($24),y                 ; 0x2024 <wipeArea+0x158>
    16ca: 85 12        	sta	$12                     ; 0x2012 <wipeArea+0x146>
    16cc: 18           	clc
    16cd: a5 13        	lda	$13                     ; 0x2013 <wipeArea+0x147>
    16cf: 69 fe        	adc	#$fe
    16d1: aa           	tax
    16d2: a5 12        	lda	$12                     ; 0x2012 <wipeArea+0x146>
    16d4: 69 2f        	adc	#$2f
    16d6: 86 12        	stx	$12                     ; 0x2012 <wipeArea+0x146>
    16d8: 85 13        	sta	$13                     ; 0x2013 <wipeArea+0x147>
    16da: a9 0f        	lda	#$f
    16dc: 92 12        	sta	($12)                   ; 0x2012 <wipeArea+0x146>
    16de: a9 00        	lda	#$0
    16e0: 91 12        	sta	($12),y                 ; 0x2012 <wipeArea+0x146>
    16e2: b2 24        	lda	($24)                   ; 0x2024 <wipeArea+0x158>
    16e4: 85 13        	sta	$13                     ; 0x2013 <wipeArea+0x147>
    16e6: b1 24        	lda	($24),y                 ; 0x2024 <wipeArea+0x158>
    16e8: 85 12        	sta	$12                     ; 0x2012 <wipeArea+0x146>
    16ea: 18           	clc
    16eb: a5 13        	lda	$13                     ; 0x2013 <wipeArea+0x147>
    16ed: 69 00        	adc	#$0
    16ef: aa           	tax
    16f0: a5 12        	lda	$12                     ; 0x2012 <wipeArea+0x146>
    16f2: 69 30        	adc	#$30
    16f4: 86 12        	stx	$12                     ; 0x2012 <wipeArea+0x146>
    16f6: 85 13        	sta	$13                     ; 0x2013 <wipeArea+0x147>
    16f8: b2 12        	lda	($12)                   ; 0x2012 <wipeArea+0x146>
    16fa: 85 15        	sta	$15                     ; 0x2015 <wipeArea+0x149>
    16fc: b1 12        	lda	($12),y                 ; 0x2012 <wipeArea+0x146>
    16fe: 85 14        	sta	$14                     ; 0x2014 <wipeArea+0x148>
    1700: 18           	clc
    1701: a5 15        	lda	$15                     ; 0x2015 <wipeArea+0x149>
    1703: 69 f1        	adc	#$f1
    1705: 85 15        	sta	$15                     ; 0x2015 <wipeArea+0x149>
    1707: a5 14        	lda	$14                     ; 0x2014 <wipeArea+0x148>
    1709: 69 ff        	adc	#$ff
    170b: aa           	tax
    170c: a5 15        	lda	$15                     ; 0x2015 <wipeArea+0x149>
    170e: 92 12        	sta	($12)                   ; 0x2012 <wipeArea+0x146>
    1710: 8a           	txa
    1711: 91 12        	sta	($12),y                 ; 0x2012 <wipeArea+0x146>
    1713: b2 24        	lda	($24)                   ; 0x2024 <wipeArea+0x158>
    1715: 85 12        	sta	$12                     ; 0x2012 <wipeArea+0x146>
    1717: b1 24        	lda	($24),y                 ; 0x2024 <wipeArea+0x158>
    1719: 85 13        	sta	$13                     ; 0x2013 <wipeArea+0x147>
    171b: b2 24        	lda	($24)                   ; 0x2024 <wipeArea+0x158>
    171d: 85 15        	sta	$15                     ; 0x2015 <wipeArea+0x149>
    171f: b1 24        	lda	($24),y                 ; 0x2024 <wipeArea+0x158>
    1721: 85 14        	sta	$14                     ; 0x2014 <wipeArea+0x148>
    1723: a0 01        	ldy	#$1
    1725: 18           	clc
    1726: a5 15        	lda	$15                     ; 0x2015 <wipeArea+0x149>
    1728: 69 00        	adc	#$0
    172a: aa           	tax
    172b: a5 14        	lda	$14                     ; 0x2014 <wipeArea+0x148>
    172d: 69 30        	adc	#$30
    172f: 86 14        	stx	$14                     ; 0x2014 <wipeArea+0x148>
    1731: 85 15        	sta	$15                     ; 0x2015 <wipeArea+0x149>
    1733: b2 14        	lda	($14)                   ; 0x2014 <wipeArea+0x148>
    1735: 85 16        	sta	$16                     ; 0x2016 <wipeArea+0x14a>
    1737: b1 14        	lda	($14),y                 ; 0x2014 <wipeArea+0x148>
    1739: aa           	tax
    173a: a5 16        	lda	$16                     ; 0x2016 <wipeArea+0x14a>
    173c: 20 18 0f     	jsr	$f18 <displayFileList>
    173f: b2 24        	lda	($24)                   ; 0x2024 <wipeArea+0x158>
    1741: 85 12        	sta	$12                     ; 0x2012 <wipeArea+0x146>
    1743: a0 01        	ldy	#$1
    1745: b1 24        	lda	($24),y                 ; 0x2024 <wipeArea+0x158>
    1747: 85 13        	sta	$13                     ; 0x2013 <wipeArea+0x147>
    1749: b2 24        	lda	($24)                   ; 0x2024 <wipeArea+0x158>
    174b: 85 14        	sta	$14                     ; 0x2014 <wipeArea+0x148>
    174d: b1 24        	lda	($24),y                 ; 0x2024 <wipeArea+0x158>
    174f: 85 15        	sta	$15                     ; 0x2015 <wipeArea+0x149>
    1751: b2 24        	lda	($24)                   ; 0x2024 <wipeArea+0x158>
    1753: 85 16        	sta	$16                     ; 0x2016 <wipeArea+0x14a>
    1755: b1 24        	lda	($24),y                 ; 0x2024 <wipeArea+0x158>
    1757: 85 18        	sta	$18                     ; 0x2018 <wipeArea+0x14c>
    1759: a0 01        	ldy	#$1
    175b: 18           	clc
    175c: a5 16        	lda	$16                     ; 0x2016 <wipeArea+0x14a>
    175e: 69 fe        	adc	#$fe
    1760: 85 17        	sta	$17                     ; 0x2017 <wipeArea+0x14b>
    1762: a5 18        	lda	$18                     ; 0x2018 <wipeArea+0x14c>
    1764: 69 2f        	adc	#$2f
    1766: aa           	tax
    1767: b2 12        	lda	($12)                   ; 0x2012 <wipeArea+0x146>
    1769: 85 16        	sta	$16                     ; 0x2016 <wipeArea+0x14a>
    176b: a5 17        	lda	$17                     ; 0x2017 <wipeArea+0x14b>
    176d: 85 12        	sta	$12                     ; 0x2012 <wipeArea+0x146>
    176f: b1 14        	lda	($14),y                 ; 0x2014 <wipeArea+0x148>
    1771: 86 13        	stx	$13                     ; 0x2013 <wipeArea+0x147>
    1773: 18           	clc
    1774: 72 12        	adc	($12)                   ; 0x2012 <wipeArea+0x146>
    1776: aa           	tax
    1777: a5 16        	lda	$16                     ; 0x2016 <wipeArea+0x14a>
    1779: 20 84 52     	jsr	$5284 <textGotoXY>
    177c: a9 fa        	lda	#$fa
    177e: 92 10        	sta	($10)                   ; 0x2010 <wipeArea+0x144>
    1780: a9 00        	lda	#$0
    1782: a0 01        	ldy	#$1
    1784: 91 10        	sta	($10),y                 ; 0x2010 <wipeArea+0x144>
    1786: a2 a5        	ldx	#$a5
    1788: 86 12        	stx	$12                     ; 0x2012 <wipeArea+0x146>
    178a: a2 6a        	ldx	#$6a
    178c: 86 13        	stx	$13                     ; 0x2013 <wipeArea+0x147>
    178e: 20 dc 61     	jsr	$61dc <printf>
    1791: 4c 9c 1e     	jmp	$1e9c <pickFile+0xc20>
    1794: 18           	clc
    1795: a5 10        	lda	$10                     ; 0x2010 <wipeArea+0x144>
    1797: 69 05        	adc	#$5
    1799: 85 12        	sta	$12                     ; 0x2012 <wipeArea+0x146>
    179b: a5 11        	lda	$11                     ; 0x2011 <wipeArea+0x145>
    179d: 69 00        	adc	#$0
    179f: 85 13        	sta	$13                     ; 0x2013 <wipeArea+0x147>
    17a1: b2 12        	lda	($12)                   ; 0x2012 <wipeArea+0x146>
    17a3: 85 14        	sta	$14                     ; 0x2014 <wipeArea+0x148>
    17a5: a0 01        	ldy	#$1
    17a7: b1 12        	lda	($12),y                 ; 0x2012 <wipeArea+0x146>
    17a9: aa           	tax
    17aa: 18           	clc
    17ab: a5 14        	lda	$14                     ; 0x2014 <wipeArea+0x148>
    17ad: 69 fc        	adc	#$fc
    17af: 85 14        	sta	$14                     ; 0x2014 <wipeArea+0x148>
    17b1: 8a           	txa
    17b2: 69 2f        	adc	#$2f
    17b4: 85 15        	sta	$15                     ; 0x2015 <wipeArea+0x149>
    17b6: b2 14        	lda	($14)                   ; 0x2014 <wipeArea+0x148>
    17b8: 85 16        	sta	$16                     ; 0x2016 <wipeArea+0x14a>
    17ba: b2 12        	lda	($12)                   ; 0x2012 <wipeArea+0x146>
    17bc: 85 17        	sta	$17                     ; 0x2017 <wipeArea+0x14b>
    17be: b1 12        	lda	($12),y                 ; 0x2012 <wipeArea+0x146>
    17c0: 85 12        	sta	$12                     ; 0x2012 <wipeArea+0x146>
    17c2: 18           	clc
    17c3: a5 17        	lda	$17                     ; 0x2017 <wipeArea+0x14b>
    17c5: 69 fa        	adc	#$fa
    17c7: aa           	tax
    17c8: a5 12        	lda	$12                     ; 0x2012 <wipeArea+0x146>
    17ca: 69 2f        	adc	#$2f
    17cc: 85 13        	sta	$13                     ; 0x2013 <wipeArea+0x147>
    17ce: b1 14        	lda	($14),y                 ; 0x2014 <wipeArea+0x148>
    17d0: 85 14        	sta	$14                     ; 0x2014 <wipeArea+0x148>
    17d2: 86 12        	stx	$12                     ; 0x2012 <wipeArea+0x146>
    17d4: b2 12        	lda	($12)                   ; 0x2012 <wipeArea+0x146>
    17d6: aa           	tax
    17d7: b1 12        	lda	($12),y                 ; 0x2012 <wipeArea+0x146>
    17d9: 85 12        	sta	$12                     ; 0x2012 <wipeArea+0x146>
    17db: a5 14        	lda	$14                     ; 0x2014 <wipeArea+0x148>
    17dd: 86 13        	stx	$13                     ; 0x2013 <wipeArea+0x147>
    17df: a2 ff        	ldx	#$ff
    17e1: c6 13        	dec	$13                     ; 0x2013 <wipeArea+0x147>
    17e3: e4 13        	cpx	$13                     ; 0x2013 <wipeArea+0x147>
    17e5: f0 03        	beq	$17ea <pickFile+0x56e>
    17e7: 4c ef 17     	jmp	$17ef <pickFile+0x573>
    17ea: c6 12        	dec	$12                     ; 0x2012 <wipeArea+0x146>
    17ec: 4c ef 17     	jmp	$17ef <pickFile+0x573>
    17ef: a6 16        	ldx	$16                     ; 0x2016 <wipeArea+0x14a>
    17f1: e4 13        	cpx	$13                     ; 0x2013 <wipeArea+0x147>
    17f3: e5 12        	sbc	$12                     ; 0x2012 <wipeArea+0x146>
    17f5: 70 02        	bvs	$17f9 <pickFile+0x57d>
    17f7: 80 04        	bra	$17fd <pickFile+0x581>
    17f9: 49 80        	eor	#$80
    17fb: 80 02        	bra	$17ff <pickFile+0x583>
    17fd: 80 00        	bra	$17ff <pickFile+0x583>
    17ff: aa           	tax
    1800: 30 03        	bmi	$1805 <pickFile+0x589>
    1802: 4c 11 1b     	jmp	$1b11 <pickFile+0x895>
    1805: 18           	clc
    1806: a5 10        	lda	$10                     ; 0x2010 <wipeArea+0x144>
    1808: 69 05        	adc	#$5
    180a: 85 12        	sta	$12                     ; 0x2012 <wipeArea+0x146>
    180c: a5 11        	lda	$11                     ; 0x2011 <wipeArea+0x145>
    180e: 69 00        	adc	#$0
    1810: 85 13        	sta	$13                     ; 0x2013 <wipeArea+0x147>
    1812: b2 12        	lda	($12)                   ; 0x2012 <wipeArea+0x146>
    1814: 85 14        	sta	$14                     ; 0x2014 <wipeArea+0x148>
    1816: a0 01        	ldy	#$1
    1818: b1 12        	lda	($12),y                 ; 0x2012 <wipeArea+0x146>
    181a: aa           	tax
    181b: 18           	clc
    181c: a5 14        	lda	$14                     ; 0x2014 <wipeArea+0x148>
    181e: 69 fe        	adc	#$fe
    1820: 85 12        	sta	$12                     ; 0x2012 <wipeArea+0x146>
    1822: 8a           	txa
    1823: 69 2f        	adc	#$2f
    1825: 85 13        	sta	$13                     ; 0x2013 <wipeArea+0x147>
    1827: b2 12        	lda	($12)                   ; 0x2012 <wipeArea+0x146>
    1829: 85 14        	sta	$14                     ; 0x2014 <wipeArea+0x148>
    182b: b1 12        	lda	($12),y                 ; 0x2012 <wipeArea+0x146>
    182d: a6 14        	ldx	$14                     ; 0x2014 <wipeArea+0x148>
    182f: e0 0f        	cpx	#$f
    1831: e9 00        	sbc	#$0
    1833: 70 02        	bvs	$1837 <pickFile+0x5bb>
    1835: 80 04        	bra	$183b <pickFile+0x5bf>
    1837: 49 80        	eor	#$80
    1839: 80 02        	bra	$183d <pickFile+0x5c1>
    183b: 80 00        	bra	$183d <pickFile+0x5c1>
    183d: aa           	tax
    183e: 30 03        	bmi	$1843 <pickFile+0x5c7>
    1840: 4c 51 19     	jmp	$1951 <pickFile+0x6d5>
    1843: 18           	clc
    1844: a5 10        	lda	$10                     ; 0x2010 <wipeArea+0x144>
    1846: 69 05        	adc	#$5
    1848: 85 24        	sta	$24                     ; 0x2024 <wipeArea+0x158>
    184a: a5 11        	lda	$11                     ; 0x2011 <wipeArea+0x145>
    184c: 69 00        	adc	#$0
    184e: 85 25        	sta	$25                     ; 0x2025 <wipeArea+0x159>
    1850: b2 24        	lda	($24)                   ; 0x2024 <wipeArea+0x158>
    1852: 85 12        	sta	$12                     ; 0x2012 <wipeArea+0x146>
    1854: a0 01        	ldy	#$1
    1856: b1 24        	lda	($24),y                 ; 0x2024 <wipeArea+0x158>
    1858: 85 13        	sta	$13                     ; 0x2013 <wipeArea+0x147>
    185a: b2 12        	lda	($12)                   ; 0x2012 <wipeArea+0x146>
    185c: 85 14        	sta	$14                     ; 0x2014 <wipeArea+0x148>
    185e: b2 24        	lda	($24)                   ; 0x2024 <wipeArea+0x158>
    1860: 85 12        	sta	$12                     ; 0x2012 <wipeArea+0x146>
    1862: b1 24        	lda	($24),y                 ; 0x2024 <wipeArea+0x158>
    1864: 85 13        	sta	$13                     ; 0x2013 <wipeArea+0x147>
    1866: b2 24        	lda	($24)                   ; 0x2024 <wipeArea+0x158>
    1868: 85 16        	sta	$16                     ; 0x2016 <wipeArea+0x14a>
    186a: b1 24        	lda	($24),y                 ; 0x2024 <wipeArea+0x158>
    186c: 85 15        	sta	$15                     ; 0x2015 <wipeArea+0x149>
    186e: 18           	clc
    186f: a5 16        	lda	$16                     ; 0x2016 <wipeArea+0x14a>
    1871: 69 fe        	adc	#$fe
    1873: aa           	tax
    1874: a5 15        	lda	$15                     ; 0x2015 <wipeArea+0x149>
    1876: 69 2f        	adc	#$2f
    1878: 85 15        	sta	$15                     ; 0x2015 <wipeArea+0x149>
    187a: b1 12        	lda	($12),y                 ; 0x2012 <wipeArea+0x146>
    187c: 86 12        	stx	$12                     ; 0x2012 <wipeArea+0x146>
    187e: a6 15        	ldx	$15                     ; 0x2015 <wipeArea+0x149>
    1880: 86 13        	stx	$13                     ; 0x2013 <wipeArea+0x147>
    1882: 18           	clc
    1883: 72 12        	adc	($12)                   ; 0x2012 <wipeArea+0x146>
    1885: aa           	tax
    1886: a5 14        	lda	$14                     ; 0x2014 <wipeArea+0x148>
    1888: 20 84 52     	jsr	$5284 <textGotoXY>
    188b: a9 20        	lda	#$20
    188d: 92 10        	sta	($10)                   ; 0x2010 <wipeArea+0x144>
    188f: a9 00        	lda	#$0
    1891: a0 01        	ldy	#$1
    1893: 91 10        	sta	($10),y                 ; 0x2010 <wipeArea+0x144>
    1895: a2 a5        	ldx	#$a5
    1897: 86 12        	stx	$12                     ; 0x2012 <wipeArea+0x146>
    1899: a2 6a        	ldx	#$6a
    189b: 86 13        	stx	$13                     ; 0x2013 <wipeArea+0x147>
    189d: 20 dc 61     	jsr	$61dc <printf>
    18a0: b2 24        	lda	($24)                   ; 0x2024 <wipeArea+0x158>
    18a2: 85 13        	sta	$13                     ; 0x2013 <wipeArea+0x147>
    18a4: a0 01        	ldy	#$1
    18a6: b1 24        	lda	($24),y                 ; 0x2024 <wipeArea+0x158>
    18a8: 85 12        	sta	$12                     ; 0x2012 <wipeArea+0x146>
    18aa: 18           	clc
    18ab: a5 13        	lda	$13                     ; 0x2013 <wipeArea+0x147>
    18ad: 69 fc        	adc	#$fc
    18af: aa           	tax
    18b0: a5 12        	lda	$12                     ; 0x2012 <wipeArea+0x146>
    18b2: 69 2f        	adc	#$2f
    18b4: 86 12        	stx	$12                     ; 0x2012 <wipeArea+0x146>
    18b6: 85 13        	sta	$13                     ; 0x2013 <wipeArea+0x147>
    18b8: b2 12        	lda	($12)                   ; 0x2012 <wipeArea+0x146>
    18ba: 85 14        	sta	$14                     ; 0x2014 <wipeArea+0x148>
    18bc: b1 12        	lda	($12),y                 ; 0x2012 <wipeArea+0x146>
    18be: aa           	tax
    18bf: a5 14        	lda	$14                     ; 0x2014 <wipeArea+0x148>
    18c1: 1a           	inc
    18c2: f0 03        	beq	$18c7 <pickFile+0x64b>
    18c4: 4c cb 18     	jmp	$18cb <pickFile+0x64f>
    18c7: e8           	inx
    18c8: 4c cb 18     	jmp	$18cb <pickFile+0x64f>
    18cb: 92 12        	sta	($12)                   ; 0x2012 <wipeArea+0x146>
    18cd: 8a           	txa
    18ce: 91 12        	sta	($12),y                 ; 0x2012 <wipeArea+0x146>
    18d0: b2 24        	lda	($24)                   ; 0x2024 <wipeArea+0x158>
    18d2: 85 13        	sta	$13                     ; 0x2013 <wipeArea+0x147>
    18d4: b1 24        	lda	($24),y                 ; 0x2024 <wipeArea+0x158>
    18d6: 85 12        	sta	$12                     ; 0x2012 <wipeArea+0x146>
    18d8: 18           	clc
    18d9: a5 13        	lda	$13                     ; 0x2013 <wipeArea+0x147>
    18db: 69 fe        	adc	#$fe
    18dd: aa           	tax
    18de: a5 12        	lda	$12                     ; 0x2012 <wipeArea+0x146>
    18e0: 69 2f        	adc	#$2f
    18e2: 86 12        	stx	$12                     ; 0x2012 <wipeArea+0x146>
    18e4: 85 13        	sta	$13                     ; 0x2013 <wipeArea+0x147>
    18e6: b2 12        	lda	($12)                   ; 0x2012 <wipeArea+0x146>
    18e8: 85 14        	sta	$14                     ; 0x2014 <wipeArea+0x148>
    18ea: b1 12        	lda	($12),y                 ; 0x2012 <wipeArea+0x146>
    18ec: aa           	tax
    18ed: a5 14        	lda	$14                     ; 0x2014 <wipeArea+0x148>
    18ef: 1a           	inc
    18f0: f0 03        	beq	$18f5 <pickFile+0x679>
    18f2: 4c f9 18     	jmp	$18f9 <pickFile+0x67d>
    18f5: e8           	inx
    18f6: 4c f9 18     	jmp	$18f9 <pickFile+0x67d>
    18f9: 92 12        	sta	($12)                   ; 0x2012 <wipeArea+0x146>
    18fb: 8a           	txa
    18fc: 91 12        	sta	($12),y                 ; 0x2012 <wipeArea+0x146>
    18fe: b2 24        	lda	($24)                   ; 0x2024 <wipeArea+0x158>
    1900: 85 12        	sta	$12                     ; 0x2012 <wipeArea+0x146>
    1902: b1 24        	lda	($24),y                 ; 0x2024 <wipeArea+0x158>
    1904: 85 13        	sta	$13                     ; 0x2013 <wipeArea+0x147>
    1906: b2 24        	lda	($24)                   ; 0x2024 <wipeArea+0x158>
    1908: 85 14        	sta	$14                     ; 0x2014 <wipeArea+0x148>
    190a: b1 24        	lda	($24),y                 ; 0x2024 <wipeArea+0x158>
    190c: 85 15        	sta	$15                     ; 0x2015 <wipeArea+0x149>
    190e: b2 24        	lda	($24)                   ; 0x2024 <wipeArea+0x158>
    1910: 85 16        	sta	$16                     ; 0x2016 <wipeArea+0x14a>
    1912: b1 24        	lda	($24),y                 ; 0x2024 <wipeArea+0x158>
    1914: 85 18        	sta	$18                     ; 0x2018 <wipeArea+0x14c>
    1916: a0 01        	ldy	#$1
    1918: 18           	clc
    1919: a5 16        	lda	$16                     ; 0x2016 <wipeArea+0x14a>
    191b: 69 fe        	adc	#$fe
    191d: 85 17        	sta	$17                     ; 0x2017 <wipeArea+0x14b>
    191f: a5 18        	lda	$18                     ; 0x2018 <wipeArea+0x14c>
    1921: 69 2f        	adc	#$2f
    1923: aa           	tax
    1924: b2 12        	lda	($12)                   ; 0x2012 <wipeArea+0x146>
    1926: 85 16        	sta	$16                     ; 0x2016 <wipeArea+0x14a>
    1928: a5 17        	lda	$17                     ; 0x2017 <wipeArea+0x14b>
    192a: 85 12        	sta	$12                     ; 0x2012 <wipeArea+0x146>
    192c: b1 14        	lda	($14),y                 ; 0x2014 <wipeArea+0x148>
    192e: 86 13        	stx	$13                     ; 0x2013 <wipeArea+0x147>
    1930: 18           	clc
    1931: 72 12        	adc	($12)                   ; 0x2012 <wipeArea+0x146>
    1933: aa           	tax
    1934: a5 16        	lda	$16                     ; 0x2016 <wipeArea+0x14a>
    1936: 20 84 52     	jsr	$5284 <textGotoXY>
    1939: a9 fa        	lda	#$fa
    193b: 92 10        	sta	($10)                   ; 0x2010 <wipeArea+0x144>
    193d: a9 00        	lda	#$0
    193f: a0 01        	ldy	#$1
    1941: 91 10        	sta	($10),y                 ; 0x2010 <wipeArea+0x144>
    1943: a2 a5        	ldx	#$a5
    1945: 86 12        	stx	$12                     ; 0x2012 <wipeArea+0x146>
    1947: a2 6a        	ldx	#$6a
    1949: 86 13        	stx	$13                     ; 0x2013 <wipeArea+0x147>
    194b: 20 dc 61     	jsr	$61dc <printf>
    194e: 4c 11 1b     	jmp	$1b11 <pickFile+0x895>
    1951: 18           	clc
    1952: a5 10        	lda	$10                     ; 0x2010 <wipeArea+0x144>
    1954: 69 05        	adc	#$5
    1956: 85 12        	sta	$12                     ; 0x2012 <wipeArea+0x146>
    1958: a5 11        	lda	$11                     ; 0x2011 <wipeArea+0x145>
    195a: 69 00        	adc	#$0
    195c: 85 13        	sta	$13                     ; 0x2013 <wipeArea+0x147>
    195e: b2 12        	lda	($12)                   ; 0x2012 <wipeArea+0x146>
    1960: 85 14        	sta	$14                     ; 0x2014 <wipeArea+0x148>
    1962: a0 01        	ldy	#$1
    1964: b1 12        	lda	($12),y                 ; 0x2012 <wipeArea+0x146>
    1966: aa           	tax
    1967: 18           	clc
    1968: a5 14        	lda	$14                     ; 0x2014 <wipeArea+0x148>
    196a: 69 fe        	adc	#$fe
    196c: 85 12        	sta	$12                     ; 0x2012 <wipeArea+0x146>
    196e: 8a           	txa
    196f: 69 2f        	adc	#$2f
    1971: 85 13        	sta	$13                     ; 0x2013 <wipeArea+0x147>
    1973: b2 12        	lda	($12)                   ; 0x2012 <wipeArea+0x146>
    1975: 85 14        	sta	$14                     ; 0x2014 <wipeArea+0x148>
    1977: b1 12        	lda	($12),y                 ; 0x2012 <wipeArea+0x146>
    1979: f0 02        	beq	$197d <pickFile+0x701>
    197b: 80 0f        	bra	$198c <pickFile+0x710>
    197d: a6 14        	ldx	$14                     ; 0x2014 <wipeArea+0x148>
    197f: e0 0f        	cpx	#$f
    1981: f0 02        	beq	$1985 <pickFile+0x709>
    1983: 80 02        	bra	$1987 <pickFile+0x70b>
    1985: 80 03        	bra	$198a <pickFile+0x70e>
    1987: 4c 11 1b     	jmp	$1b11 <pickFile+0x895>
    198a: 80 03        	bra	$198f <pickFile+0x713>
    198c: 4c 11 1b     	jmp	$1b11 <pickFile+0x895>
    198f: 80 00        	bra	$1991 <pickFile+0x715>
    1991: 18           	clc
    1992: a5 10        	lda	$10                     ; 0x2010 <wipeArea+0x144>
    1994: 69 05        	adc	#$5
    1996: 85 12        	sta	$12                     ; 0x2012 <wipeArea+0x146>
    1998: a5 11        	lda	$11                     ; 0x2011 <wipeArea+0x145>
    199a: 69 00        	adc	#$0
    199c: 85 13        	sta	$13                     ; 0x2013 <wipeArea+0x147>
    199e: b2 12        	lda	($12)                   ; 0x2012 <wipeArea+0x146>
    19a0: 85 14        	sta	$14                     ; 0x2014 <wipeArea+0x148>
    19a2: a0 01        	ldy	#$1
    19a4: b1 12        	lda	($12),y                 ; 0x2012 <wipeArea+0x146>
    19a6: aa           	tax
    19a7: 18           	clc
    19a8: a5 14        	lda	$14                     ; 0x2014 <wipeArea+0x148>
    19aa: 69 fa        	adc	#$fa
    19ac: 85 14        	sta	$14                     ; 0x2014 <wipeArea+0x148>
    19ae: 8a           	txa
    19af: 69 2f        	adc	#$2f
    19b1: 85 15        	sta	$15                     ; 0x2015 <wipeArea+0x149>
    19b3: b2 12        	lda	($12)                   ; 0x2012 <wipeArea+0x146>
    19b5: 85 16        	sta	$16                     ; 0x2016 <wipeArea+0x14a>
    19b7: b1 12        	lda	($12),y                 ; 0x2012 <wipeArea+0x146>
    19b9: 85 12        	sta	$12                     ; 0x2012 <wipeArea+0x146>
    19bb: 18           	clc
    19bc: a5 16        	lda	$16                     ; 0x2016 <wipeArea+0x14a>
    19be: 69 fc        	adc	#$fc
    19c0: aa           	tax
    19c1: a5 12        	lda	$12                     ; 0x2012 <wipeArea+0x146>
    19c3: 69 2f        	adc	#$2f
    19c5: 86 12        	stx	$12                     ; 0x2012 <wipeArea+0x146>
    19c7: 85 13        	sta	$13                     ; 0x2013 <wipeArea+0x147>
    19c9: b2 12        	lda	($12)                   ; 0x2012 <wipeArea+0x146>
    19cb: 85 16        	sta	$16                     ; 0x2016 <wipeArea+0x14a>
    19cd: b1 12        	lda	($12),y                 ; 0x2012 <wipeArea+0x146>
    19cf: aa           	tax
    19d0: a5 16        	lda	$16                     ; 0x2016 <wipeArea+0x14a>
    19d2: d2 14        	cmp	($14)                   ; 0x2014 <wipeArea+0x148>
    19d4: 8a           	txa
    19d5: f1 14        	sbc	($14),y                 ; 0x2014 <wipeArea+0x148>
    19d7: 70 02        	bvs	$19db <pickFile+0x75f>
    19d9: 80 04        	bra	$19df <pickFile+0x763>
    19db: 49 80        	eor	#$80
    19dd: 80 02        	bra	$19e1 <pickFile+0x765>
    19df: 80 00        	bra	$19e1 <pickFile+0x765>
    19e1: aa           	tax
    19e2: 30 03        	bmi	$19e7 <pickFile+0x76b>
    19e4: 4c 11 1b     	jmp	$1b11 <pickFile+0x895>
    19e7: 18           	clc
    19e8: a5 10        	lda	$10                     ; 0x2010 <wipeArea+0x144>
    19ea: 69 05        	adc	#$5
    19ec: 85 24        	sta	$24                     ; 0x2024 <wipeArea+0x158>
    19ee: a5 11        	lda	$11                     ; 0x2011 <wipeArea+0x145>
    19f0: 69 00        	adc	#$0
    19f2: 85 25        	sta	$25                     ; 0x2025 <wipeArea+0x159>
    19f4: b2 24        	lda	($24)                   ; 0x2024 <wipeArea+0x158>
    19f6: 85 12        	sta	$12                     ; 0x2012 <wipeArea+0x146>
    19f8: a0 01        	ldy	#$1
    19fa: b1 24        	lda	($24),y                 ; 0x2024 <wipeArea+0x158>
    19fc: 85 13        	sta	$13                     ; 0x2013 <wipeArea+0x147>
    19fe: b2 12        	lda	($12)                   ; 0x2012 <wipeArea+0x146>
    1a00: 85 14        	sta	$14                     ; 0x2014 <wipeArea+0x148>
    1a02: b2 24        	lda	($24)                   ; 0x2024 <wipeArea+0x158>
    1a04: 85 12        	sta	$12                     ; 0x2012 <wipeArea+0x146>
    1a06: b1 24        	lda	($24),y                 ; 0x2024 <wipeArea+0x158>
    1a08: 85 13        	sta	$13                     ; 0x2013 <wipeArea+0x147>
    1a0a: b2 24        	lda	($24)                   ; 0x2024 <wipeArea+0x158>
    1a0c: 85 16        	sta	$16                     ; 0x2016 <wipeArea+0x14a>
    1a0e: b1 24        	lda	($24),y                 ; 0x2024 <wipeArea+0x158>
    1a10: 85 15        	sta	$15                     ; 0x2015 <wipeArea+0x149>
    1a12: 18           	clc
    1a13: a5 16        	lda	$16                     ; 0x2016 <wipeArea+0x14a>
    1a15: 69 fe        	adc	#$fe
    1a17: aa           	tax
    1a18: a5 15        	lda	$15                     ; 0x2015 <wipeArea+0x149>
    1a1a: 69 2f        	adc	#$2f
    1a1c: 85 15        	sta	$15                     ; 0x2015 <wipeArea+0x149>
    1a1e: b1 12        	lda	($12),y                 ; 0x2012 <wipeArea+0x146>
    1a20: 86 12        	stx	$12                     ; 0x2012 <wipeArea+0x146>
    1a22: a6 15        	ldx	$15                     ; 0x2015 <wipeArea+0x149>
    1a24: 86 13        	stx	$13                     ; 0x2013 <wipeArea+0x147>
    1a26: 18           	clc
    1a27: 72 12        	adc	($12)                   ; 0x2012 <wipeArea+0x146>
    1a29: aa           	tax
    1a2a: a5 14        	lda	$14                     ; 0x2014 <wipeArea+0x148>
    1a2c: 20 84 52     	jsr	$5284 <textGotoXY>
    1a2f: a9 20        	lda	#$20
    1a31: 92 10        	sta	($10)                   ; 0x2010 <wipeArea+0x144>
    1a33: a9 00        	lda	#$0
    1a35: a0 01        	ldy	#$1
    1a37: 91 10        	sta	($10),y                 ; 0x2010 <wipeArea+0x144>
    1a39: a2 a5        	ldx	#$a5
    1a3b: 86 12        	stx	$12                     ; 0x2012 <wipeArea+0x146>
    1a3d: a2 6a        	ldx	#$6a
    1a3f: 86 13        	stx	$13                     ; 0x2013 <wipeArea+0x147>
    1a41: 20 dc 61     	jsr	$61dc <printf>
    1a44: b2 24        	lda	($24)                   ; 0x2024 <wipeArea+0x158>
    1a46: 85 13        	sta	$13                     ; 0x2013 <wipeArea+0x147>
    1a48: a0 01        	ldy	#$1
    1a4a: b1 24        	lda	($24),y                 ; 0x2024 <wipeArea+0x158>
    1a4c: 85 12        	sta	$12                     ; 0x2012 <wipeArea+0x146>
    1a4e: 18           	clc
    1a4f: a5 13        	lda	$13                     ; 0x2013 <wipeArea+0x147>
    1a51: 69 fe        	adc	#$fe
    1a53: aa           	tax
    1a54: a5 12        	lda	$12                     ; 0x2012 <wipeArea+0x146>
    1a56: 69 2f        	adc	#$2f
    1a58: 86 12        	stx	$12                     ; 0x2012 <wipeArea+0x146>
    1a5a: 85 13        	sta	$13                     ; 0x2013 <wipeArea+0x147>
    1a5c: a9 00        	lda	#$0
    1a5e: 92 12        	sta	($12)                   ; 0x2012 <wipeArea+0x146>
    1a60: 91 12        	sta	($12),y                 ; 0x2012 <wipeArea+0x146>
    1a62: b2 24        	lda	($24)                   ; 0x2024 <wipeArea+0x158>
    1a64: 85 13        	sta	$13                     ; 0x2013 <wipeArea+0x147>
    1a66: b1 24        	lda	($24),y                 ; 0x2024 <wipeArea+0x158>
    1a68: 85 12        	sta	$12                     ; 0x2012 <wipeArea+0x146>
    1a6a: 18           	clc
    1a6b: a5 13        	lda	$13                     ; 0x2013 <wipeArea+0x147>
    1a6d: 69 00        	adc	#$0
    1a6f: aa           	tax
    1a70: a5 12        	lda	$12                     ; 0x2012 <wipeArea+0x146>
    1a72: 69 30        	adc	#$30
    1a74: 86 12        	stx	$12                     ; 0x2012 <wipeArea+0x146>
    1a76: 85 13        	sta	$13                     ; 0x2013 <wipeArea+0x147>
    1a78: b2 12        	lda	($12)                   ; 0x2012 <wipeArea+0x146>
    1a7a: 85 15        	sta	$15                     ; 0x2015 <wipeArea+0x149>
    1a7c: b1 12        	lda	($12),y                 ; 0x2012 <wipeArea+0x146>
    1a7e: 85 14        	sta	$14                     ; 0x2014 <wipeArea+0x148>
    1a80: 18           	clc
    1a81: a5 15        	lda	$15                     ; 0x2015 <wipeArea+0x149>
    1a83: 69 0f        	adc	#$f
    1a85: 85 15        	sta	$15                     ; 0x2015 <wipeArea+0x149>
    1a87: a5 14        	lda	$14                     ; 0x2014 <wipeArea+0x148>
    1a89: 69 00        	adc	#$0
    1a8b: aa           	tax
    1a8c: a5 15        	lda	$15                     ; 0x2015 <wipeArea+0x149>
    1a8e: 92 12        	sta	($12)                   ; 0x2012 <wipeArea+0x146>
    1a90: 8a           	txa
    1a91: 91 12        	sta	($12),y                 ; 0x2012 <wipeArea+0x146>
    1a93: b2 24        	lda	($24)                   ; 0x2024 <wipeArea+0x158>
    1a95: 85 12        	sta	$12                     ; 0x2012 <wipeArea+0x146>
    1a97: b1 24        	lda	($24),y                 ; 0x2024 <wipeArea+0x158>
    1a99: 85 13        	sta	$13                     ; 0x2013 <wipeArea+0x147>
    1a9b: b2 24        	lda	($24)                   ; 0x2024 <wipeArea+0x158>
    1a9d: 85 15        	sta	$15                     ; 0x2015 <wipeArea+0x149>
    1a9f: b1 24        	lda	($24),y                 ; 0x2024 <wipeArea+0x158>
    1aa1: 85 14        	sta	$14                     ; 0x2014 <wipeArea+0x148>
    1aa3: a0 01        	ldy	#$1
    1aa5: 18           	clc
    1aa6: a5 15        	lda	$15                     ; 0x2015 <wipeArea+0x149>
    1aa8: 69 00        	adc	#$0
    1aaa: aa           	tax
    1aab: a5 14        	lda	$14                     ; 0x2014 <wipeArea+0x148>
    1aad: 69 30        	adc	#$30
    1aaf: 86 14        	stx	$14                     ; 0x2014 <wipeArea+0x148>
    1ab1: 85 15        	sta	$15                     ; 0x2015 <wipeArea+0x149>
    1ab3: b2 14        	lda	($14)                   ; 0x2014 <wipeArea+0x148>
    1ab5: 85 16        	sta	$16                     ; 0x2016 <wipeArea+0x14a>
    1ab7: b1 14        	lda	($14),y                 ; 0x2014 <wipeArea+0x148>
    1ab9: aa           	tax
    1aba: a5 16        	lda	$16                     ; 0x2016 <wipeArea+0x14a>
    1abc: 20 18 0f     	jsr	$f18 <displayFileList>
    1abf: b2 24        	lda	($24)                   ; 0x2024 <wipeArea+0x158>
    1ac1: 85 12        	sta	$12                     ; 0x2012 <wipeArea+0x146>
    1ac3: a0 01        	ldy	#$1
    1ac5: b1 24        	lda	($24),y                 ; 0x2024 <wipeArea+0x158>
    1ac7: 85 13        	sta	$13                     ; 0x2013 <wipeArea+0x147>
    1ac9: b2 24        	lda	($24)                   ; 0x2024 <wipeArea+0x158>
    1acb: 85 14        	sta	$14                     ; 0x2014 <wipeArea+0x148>
    1acd: b1 24        	lda	($24),y                 ; 0x2024 <wipeArea+0x158>
    1acf: 85 15        	sta	$15                     ; 0x2015 <wipeArea+0x149>
    1ad1: b2 24        	lda	($24)                   ; 0x2024 <wipeArea+0x158>
    1ad3: 85 16        	sta	$16                     ; 0x2016 <wipeArea+0x14a>
    1ad5: b1 24        	lda	($24),y                 ; 0x2024 <wipeArea+0x158>
    1ad7: 85 18        	sta	$18                     ; 0x2018 <wipeArea+0x14c>
    1ad9: a0 01        	ldy	#$1
    1adb: 18           	clc
    1adc: a5 16        	lda	$16                     ; 0x2016 <wipeArea+0x14a>
    1ade: 69 fe        	adc	#$fe
    1ae0: 85 17        	sta	$17                     ; 0x2017 <wipeArea+0x14b>
    1ae2: a5 18        	lda	$18                     ; 0x2018 <wipeArea+0x14c>
    1ae4: 69 2f        	adc	#$2f
    1ae6: aa           	tax
    1ae7: b2 12        	lda	($12)                   ; 0x2012 <wipeArea+0x146>
    1ae9: 85 16        	sta	$16                     ; 0x2016 <wipeArea+0x14a>
    1aeb: a5 17        	lda	$17                     ; 0x2017 <wipeArea+0x14b>
    1aed: 85 12        	sta	$12                     ; 0x2012 <wipeArea+0x146>
    1aef: b1 14        	lda	($14),y                 ; 0x2014 <wipeArea+0x148>
    1af1: 86 13        	stx	$13                     ; 0x2013 <wipeArea+0x147>
    1af3: 18           	clc
    1af4: 72 12        	adc	($12)                   ; 0x2012 <wipeArea+0x146>
    1af6: aa           	tax
    1af7: a5 16        	lda	$16                     ; 0x2016 <wipeArea+0x14a>
    1af9: 20 84 52     	jsr	$5284 <textGotoXY>
    1afc: a9 fa        	lda	#$fa
    1afe: 92 10        	sta	($10)                   ; 0x2010 <wipeArea+0x144>
    1b00: a9 00        	lda	#$0
    1b02: a0 01        	ldy	#$1
    1b04: 91 10        	sta	($10),y                 ; 0x2010 <wipeArea+0x144>
    1b06: a2 a5        	ldx	#$a5
    1b08: 86 12        	stx	$12                     ; 0x2012 <wipeArea+0x146>
    1b0a: a2 6a        	ldx	#$6a
    1b0c: 86 13        	stx	$13                     ; 0x2013 <wipeArea+0x147>
    1b0e: 20 dc 61     	jsr	$61dc <printf>
    1b11: 4c 9c 1e     	jmp	$1e9c <pickFile+0xc20>
    1b14: 18           	clc
    1b15: a5 10        	lda	$10                     ; 0x2010 <wipeArea+0x144>
    1b17: 69 05        	adc	#$5
    1b19: 85 12        	sta	$12                     ; 0x2012 <wipeArea+0x146>
    1b1b: a5 11        	lda	$11                     ; 0x2011 <wipeArea+0x145>
    1b1d: 69 00        	adc	#$0
    1b1f: 85 13        	sta	$13                     ; 0x2013 <wipeArea+0x147>
    1b21: b2 12        	lda	($12)                   ; 0x2012 <wipeArea+0x146>
    1b23: 85 14        	sta	$14                     ; 0x2014 <wipeArea+0x148>
    1b25: a0 01        	ldy	#$1
    1b27: b1 12        	lda	($12),y                 ; 0x2012 <wipeArea+0x146>
    1b29: aa           	tax
    1b2a: 18           	clc
    1b2b: a5 14        	lda	$14                     ; 0x2014 <wipeArea+0x148>
    1b2d: 69 fc        	adc	#$fc
    1b2f: 85 12        	sta	$12                     ; 0x2012 <wipeArea+0x146>
    1b31: 8a           	txa
    1b32: 69 2f        	adc	#$2f
    1b34: 85 13        	sta	$13                     ; 0x2013 <wipeArea+0x147>
    1b36: b2 12        	lda	($12)                   ; 0x2012 <wipeArea+0x146>
    1b38: 85 14        	sta	$14                     ; 0x2014 <wipeArea+0x148>
    1b3a: b1 12        	lda	($12),y                 ; 0x2012 <wipeArea+0x146>
    1b3c: a6 14        	ldx	$14                     ; 0x2014 <wipeArea+0x148>
    1b3e: e0 0f        	cpx	#$f
    1b40: e9 00        	sbc	#$0
    1b42: 70 02        	bvs	$1b46 <pickFile+0x8ca>
    1b44: 80 04        	bra	$1b4a <pickFile+0x8ce>
    1b46: 49 80        	eor	#$80
    1b48: 80 02        	bra	$1b4c <pickFile+0x8d0>
    1b4a: 80 00        	bra	$1b4c <pickFile+0x8d0>
    1b4c: aa           	tax
    1b4d: 10 03        	bpl	$1b52 <pickFile+0x8d6>
    1b4f: 4c 91 1c     	jmp	$1c91 <pickFile+0xa15>
    1b52: 18           	clc
    1b53: a5 10        	lda	$10                     ; 0x2010 <wipeArea+0x144>
    1b55: 69 05        	adc	#$5
    1b57: 85 24        	sta	$24                     ; 0x2024 <wipeArea+0x158>
    1b59: a5 11        	lda	$11                     ; 0x2011 <wipeArea+0x145>
    1b5b: 69 00        	adc	#$0
    1b5d: 85 25        	sta	$25                     ; 0x2025 <wipeArea+0x159>
    1b5f: b2 24        	lda	($24)                   ; 0x2024 <wipeArea+0x158>
    1b61: 85 12        	sta	$12                     ; 0x2012 <wipeArea+0x146>
    1b63: a0 01        	ldy	#$1
    1b65: b1 24        	lda	($24),y                 ; 0x2024 <wipeArea+0x158>
    1b67: 85 13        	sta	$13                     ; 0x2013 <wipeArea+0x147>
    1b69: b2 12        	lda	($12)                   ; 0x2012 <wipeArea+0x146>
    1b6b: 85 14        	sta	$14                     ; 0x2014 <wipeArea+0x148>
    1b6d: b2 24        	lda	($24)                   ; 0x2024 <wipeArea+0x158>
    1b6f: 85 12        	sta	$12                     ; 0x2012 <wipeArea+0x146>
    1b71: b1 24        	lda	($24),y                 ; 0x2024 <wipeArea+0x158>
    1b73: 85 13        	sta	$13                     ; 0x2013 <wipeArea+0x147>
    1b75: b2 24        	lda	($24)                   ; 0x2024 <wipeArea+0x158>
    1b77: 85 16        	sta	$16                     ; 0x2016 <wipeArea+0x14a>
    1b79: b1 24        	lda	($24),y                 ; 0x2024 <wipeArea+0x158>
    1b7b: 85 15        	sta	$15                     ; 0x2015 <wipeArea+0x149>
    1b7d: 18           	clc
    1b7e: a5 16        	lda	$16                     ; 0x2016 <wipeArea+0x14a>
    1b80: 69 fe        	adc	#$fe
    1b82: aa           	tax
    1b83: a5 15        	lda	$15                     ; 0x2015 <wipeArea+0x149>
    1b85: 69 2f        	adc	#$2f
    1b87: 85 15        	sta	$15                     ; 0x2015 <wipeArea+0x149>
    1b89: b1 12        	lda	($12),y                 ; 0x2012 <wipeArea+0x146>
    1b8b: 86 12        	stx	$12                     ; 0x2012 <wipeArea+0x146>
    1b8d: a6 15        	ldx	$15                     ; 0x2015 <wipeArea+0x149>
    1b8f: 86 13        	stx	$13                     ; 0x2013 <wipeArea+0x147>
    1b91: 18           	clc
    1b92: 72 12        	adc	($12)                   ; 0x2012 <wipeArea+0x146>
    1b94: aa           	tax
    1b95: a5 14        	lda	$14                     ; 0x2014 <wipeArea+0x148>
    1b97: 20 84 52     	jsr	$5284 <textGotoXY>
    1b9a: a9 20        	lda	#$20
    1b9c: 92 10        	sta	($10)                   ; 0x2010 <wipeArea+0x144>
    1b9e: a9 00        	lda	#$0
    1ba0: a0 01        	ldy	#$1
    1ba2: 91 10        	sta	($10),y                 ; 0x2010 <wipeArea+0x144>
    1ba4: a2 a5        	ldx	#$a5
    1ba6: 86 12        	stx	$12                     ; 0x2012 <wipeArea+0x146>
    1ba8: a2 6a        	ldx	#$6a
    1baa: 86 13        	stx	$13                     ; 0x2013 <wipeArea+0x147>
    1bac: 20 dc 61     	jsr	$61dc <printf>
    1baf: b2 24        	lda	($24)                   ; 0x2024 <wipeArea+0x158>
    1bb1: 85 13        	sta	$13                     ; 0x2013 <wipeArea+0x147>
    1bb3: a0 01        	ldy	#$1
    1bb5: b1 24        	lda	($24),y                 ; 0x2024 <wipeArea+0x158>
    1bb7: 85 12        	sta	$12                     ; 0x2012 <wipeArea+0x146>
    1bb9: 18           	clc
    1bba: a5 13        	lda	$13                     ; 0x2013 <wipeArea+0x147>
    1bbc: 69 fc        	adc	#$fc
    1bbe: aa           	tax
    1bbf: a5 12        	lda	$12                     ; 0x2012 <wipeArea+0x146>
    1bc1: 69 2f        	adc	#$2f
    1bc3: 86 12        	stx	$12                     ; 0x2012 <wipeArea+0x146>
    1bc5: 85 13        	sta	$13                     ; 0x2013 <wipeArea+0x147>
    1bc7: b2 12        	lda	($12)                   ; 0x2012 <wipeArea+0x146>
    1bc9: 85 15        	sta	$15                     ; 0x2015 <wipeArea+0x149>
    1bcb: b1 12        	lda	($12),y                 ; 0x2012 <wipeArea+0x146>
    1bcd: 85 14        	sta	$14                     ; 0x2014 <wipeArea+0x148>
    1bcf: 18           	clc
    1bd0: a5 15        	lda	$15                     ; 0x2015 <wipeArea+0x149>
    1bd2: 69 f1        	adc	#$f1
    1bd4: 85 15        	sta	$15                     ; 0x2015 <wipeArea+0x149>
    1bd6: a5 14        	lda	$14                     ; 0x2014 <wipeArea+0x148>
    1bd8: 69 ff        	adc	#$ff
    1bda: aa           	tax
    1bdb: a5 15        	lda	$15                     ; 0x2015 <wipeArea+0x149>
    1bdd: 92 12        	sta	($12)                   ; 0x2012 <wipeArea+0x146>
    1bdf: 8a           	txa
    1be0: 91 12        	sta	($12),y                 ; 0x2012 <wipeArea+0x146>
    1be2: b2 24        	lda	($24)                   ; 0x2024 <wipeArea+0x158>
    1be4: 85 13        	sta	$13                     ; 0x2013 <wipeArea+0x147>
    1be6: b1 24        	lda	($24),y                 ; 0x2024 <wipeArea+0x158>
    1be8: 85 12        	sta	$12                     ; 0x2012 <wipeArea+0x146>
    1bea: 18           	clc
    1beb: a5 13        	lda	$13                     ; 0x2013 <wipeArea+0x147>
    1bed: 69 00        	adc	#$0
    1bef: aa           	tax
    1bf0: a5 12        	lda	$12                     ; 0x2012 <wipeArea+0x146>
    1bf2: 69 30        	adc	#$30
    1bf4: 86 12        	stx	$12                     ; 0x2012 <wipeArea+0x146>
    1bf6: 85 13        	sta	$13                     ; 0x2013 <wipeArea+0x147>
    1bf8: b2 12        	lda	($12)                   ; 0x2012 <wipeArea+0x146>
    1bfa: 85 15        	sta	$15                     ; 0x2015 <wipeArea+0x149>
    1bfc: b1 12        	lda	($12),y                 ; 0x2012 <wipeArea+0x146>
    1bfe: 85 14        	sta	$14                     ; 0x2014 <wipeArea+0x148>
    1c00: 18           	clc
    1c01: a5 15        	lda	$15                     ; 0x2015 <wipeArea+0x149>
    1c03: 69 f1        	adc	#$f1
    1c05: 85 15        	sta	$15                     ; 0x2015 <wipeArea+0x149>
    1c07: a5 14        	lda	$14                     ; 0x2014 <wipeArea+0x148>
    1c09: 69 ff        	adc	#$ff
    1c0b: aa           	tax
    1c0c: a5 15        	lda	$15                     ; 0x2015 <wipeArea+0x149>
    1c0e: 92 12        	sta	($12)                   ; 0x2012 <wipeArea+0x146>
    1c10: 8a           	txa
    1c11: 91 12        	sta	($12),y                 ; 0x2012 <wipeArea+0x146>
    1c13: b2 24        	lda	($24)                   ; 0x2024 <wipeArea+0x158>
    1c15: 85 12        	sta	$12                     ; 0x2012 <wipeArea+0x146>
    1c17: b1 24        	lda	($24),y                 ; 0x2024 <wipeArea+0x158>
    1c19: 85 13        	sta	$13                     ; 0x2013 <wipeArea+0x147>
    1c1b: b2 24        	lda	($24)                   ; 0x2024 <wipeArea+0x158>
    1c1d: 85 15        	sta	$15                     ; 0x2015 <wipeArea+0x149>
    1c1f: b1 24        	lda	($24),y                 ; 0x2024 <wipeArea+0x158>
    1c21: 85 14        	sta	$14                     ; 0x2014 <wipeArea+0x148>
    1c23: a0 01        	ldy	#$1
    1c25: 18           	clc
    1c26: a5 15        	lda	$15                     ; 0x2015 <wipeArea+0x149>
    1c28: 69 00        	adc	#$0
    1c2a: aa           	tax
    1c2b: a5 14        	lda	$14                     ; 0x2014 <wipeArea+0x148>
    1c2d: 69 30        	adc	#$30
    1c2f: 86 14        	stx	$14                     ; 0x2014 <wipeArea+0x148>
    1c31: 85 15        	sta	$15                     ; 0x2015 <wipeArea+0x149>
    1c33: b2 14        	lda	($14)                   ; 0x2014 <wipeArea+0x148>
    1c35: 85 16        	sta	$16                     ; 0x2016 <wipeArea+0x14a>
    1c37: b1 14        	lda	($14),y                 ; 0x2014 <wipeArea+0x148>
    1c39: aa           	tax
    1c3a: a5 16        	lda	$16                     ; 0x2016 <wipeArea+0x14a>
    1c3c: 20 18 0f     	jsr	$f18 <displayFileList>
    1c3f: b2 24        	lda	($24)                   ; 0x2024 <wipeArea+0x158>
    1c41: 85 12        	sta	$12                     ; 0x2012 <wipeArea+0x146>
    1c43: a0 01        	ldy	#$1
    1c45: b1 24        	lda	($24),y                 ; 0x2024 <wipeArea+0x158>
    1c47: 85 13        	sta	$13                     ; 0x2013 <wipeArea+0x147>
    1c49: b2 24        	lda	($24)                   ; 0x2024 <wipeArea+0x158>
    1c4b: 85 14        	sta	$14                     ; 0x2014 <wipeArea+0x148>
    1c4d: b1 24        	lda	($24),y                 ; 0x2024 <wipeArea+0x158>
    1c4f: 85 15        	sta	$15                     ; 0x2015 <wipeArea+0x149>
    1c51: b2 24        	lda	($24)                   ; 0x2024 <wipeArea+0x158>
    1c53: 85 16        	sta	$16                     ; 0x2016 <wipeArea+0x14a>
    1c55: b1 24        	lda	($24),y                 ; 0x2024 <wipeArea+0x158>
    1c57: 85 18        	sta	$18                     ; 0x2018 <wipeArea+0x14c>
    1c59: a0 01        	ldy	#$1
    1c5b: 18           	clc
    1c5c: a5 16        	lda	$16                     ; 0x2016 <wipeArea+0x14a>
    1c5e: 69 fe        	adc	#$fe
    1c60: 85 17        	sta	$17                     ; 0x2017 <wipeArea+0x14b>
    1c62: a5 18        	lda	$18                     ; 0x2018 <wipeArea+0x14c>
    1c64: 69 2f        	adc	#$2f
    1c66: aa           	tax
    1c67: b2 12        	lda	($12)                   ; 0x2012 <wipeArea+0x146>
    1c69: 85 16        	sta	$16                     ; 0x2016 <wipeArea+0x14a>
    1c6b: a5 17        	lda	$17                     ; 0x2017 <wipeArea+0x14b>
    1c6d: 85 12        	sta	$12                     ; 0x2012 <wipeArea+0x146>
    1c6f: b1 14        	lda	($14),y                 ; 0x2014 <wipeArea+0x148>
    1c71: 86 13        	stx	$13                     ; 0x2013 <wipeArea+0x147>
    1c73: 18           	clc
    1c74: 72 12        	adc	($12)                   ; 0x2012 <wipeArea+0x146>
    1c76: aa           	tax
    1c77: a5 16        	lda	$16                     ; 0x2016 <wipeArea+0x14a>
    1c79: 20 84 52     	jsr	$5284 <textGotoXY>
    1c7c: a9 fa        	lda	#$fa
    1c7e: 92 10        	sta	($10)                   ; 0x2010 <wipeArea+0x144>
    1c80: a9 00        	lda	#$0
    1c82: a0 01        	ldy	#$1
    1c84: 91 10        	sta	($10),y                 ; 0x2010 <wipeArea+0x144>
    1c86: a2 a5        	ldx	#$a5
    1c88: 86 12        	stx	$12                     ; 0x2012 <wipeArea+0x146>
    1c8a: a2 6a        	ldx	#$6a
    1c8c: 86 13        	stx	$13                     ; 0x2013 <wipeArea+0x147>
    1c8e: 20 dc 61     	jsr	$61dc <printf>
    1c91: 4c 9c 1e     	jmp	$1e9c <pickFile+0xc20>
    1c94: 18           	clc
    1c95: a5 10        	lda	$10                     ; 0x2010 <wipeArea+0x144>
    1c97: 69 05        	adc	#$5
    1c99: 85 14        	sta	$14                     ; 0x2014 <wipeArea+0x148>
    1c9b: a5 11        	lda	$11                     ; 0x2011 <wipeArea+0x145>
    1c9d: 69 00        	adc	#$0
    1c9f: 85 15        	sta	$15                     ; 0x2015 <wipeArea+0x149>
    1ca1: b2 14        	lda	($14)                   ; 0x2014 <wipeArea+0x148>
    1ca3: 85 12        	sta	$12                     ; 0x2012 <wipeArea+0x146>
    1ca5: a0 01        	ldy	#$1
    1ca7: b1 14        	lda	($14),y                 ; 0x2014 <wipeArea+0x148>
    1ca9: aa           	tax
    1caa: 18           	clc
    1cab: a5 12        	lda	$12                     ; 0x2012 <wipeArea+0x146>
    1cad: 69 fa        	adc	#$fa
    1caf: 85 12        	sta	$12                     ; 0x2012 <wipeArea+0x146>
    1cb1: 8a           	txa
    1cb2: 69 2f        	adc	#$2f
    1cb4: 85 13        	sta	$13                     ; 0x2013 <wipeArea+0x147>
    1cb6: b2 14        	lda	($14)                   ; 0x2014 <wipeArea+0x148>
    1cb8: 85 17        	sta	$17                     ; 0x2017 <wipeArea+0x14b>
    1cba: b1 14        	lda	($14),y                 ; 0x2014 <wipeArea+0x148>
    1cbc: 85 16        	sta	$16                     ; 0x2016 <wipeArea+0x14a>
    1cbe: 18           	clc
    1cbf: a5 17        	lda	$17                     ; 0x2017 <wipeArea+0x14b>
    1cc1: 69 fc        	adc	#$fc
    1cc3: aa           	tax
    1cc4: a5 16        	lda	$16                     ; 0x2016 <wipeArea+0x14a>
    1cc6: 69 2f        	adc	#$2f
    1cc8: 86 16        	stx	$16                     ; 0x2016 <wipeArea+0x14a>
    1cca: 85 17        	sta	$17                     ; 0x2017 <wipeArea+0x14b>
    1ccc: b2 16        	lda	($16)                   ; 0x2016 <wipeArea+0x14a>
    1cce: 85 18        	sta	$18                     ; 0x2018 <wipeArea+0x14c>
    1cd0: b2 14        	lda	($14)                   ; 0x2014 <wipeArea+0x148>
    1cd2: 85 19        	sta	$19                     ; 0x2019 <wipeArea+0x14d>
    1cd4: b1 14        	lda	($14),y                 ; 0x2014 <wipeArea+0x148>
    1cd6: 85 15        	sta	$15                     ; 0x2015 <wipeArea+0x149>
    1cd8: 18           	clc
    1cd9: a5 19        	lda	$19                     ; 0x2019 <wipeArea+0x14d>
    1cdb: 69 fe        	adc	#$fe
    1cdd: 85 14        	sta	$14                     ; 0x2014 <wipeArea+0x148>
    1cdf: a5 15        	lda	$15                     ; 0x2015 <wipeArea+0x149>
    1ce1: 69 2f        	adc	#$2f
    1ce3: 85 15        	sta	$15                     ; 0x2015 <wipeArea+0x149>
    1ce5: b1 16        	lda	($16),y                 ; 0x2016 <wipeArea+0x14a>
    1ce7: 85 17        	sta	$17                     ; 0x2017 <wipeArea+0x14b>
    1ce9: 38           	sec
    1cea: a5 18        	lda	$18                     ; 0x2018 <wipeArea+0x14c>
    1cec: f2 14        	sbc	($14)                   ; 0x2014 <wipeArea+0x148>
    1cee: 85 16        	sta	$16                     ; 0x2016 <wipeArea+0x14a>
    1cf0: a5 17        	lda	$17                     ; 0x2017 <wipeArea+0x14b>
    1cf2: f1 14        	sbc	($14),y                 ; 0x2014 <wipeArea+0x148>
    1cf4: 85 15        	sta	$15                     ; 0x2015 <wipeArea+0x149>
    1cf6: 18           	clc
    1cf7: a5 16        	lda	$16                     ; 0x2016 <wipeArea+0x14a>
    1cf9: 69 10        	adc	#$10
    1cfb: 85 14        	sta	$14                     ; 0x2014 <wipeArea+0x148>
    1cfd: a5 15        	lda	$15                     ; 0x2015 <wipeArea+0x149>
    1cff: 69 00        	adc	#$0
    1d01: aa           	tax
    1d02: a5 14        	lda	$14                     ; 0x2014 <wipeArea+0x148>
    1d04: d2 12        	cmp	($12)                   ; 0x2012 <wipeArea+0x146>
    1d06: 8a           	txa
    1d07: f1 12        	sbc	($12),y                 ; 0x2012 <wipeArea+0x146>
    1d09: 70 02        	bvs	$1d0d <pickFile+0xa91>
    1d0b: 80 04        	bra	$1d11 <pickFile+0xa95>
    1d0d: 49 80        	eor	#$80
    1d0f: 80 02        	bra	$1d13 <pickFile+0xa97>
    1d11: 80 00        	bra	$1d13 <pickFile+0xa97>
    1d13: aa           	tax
    1d14: 30 03        	bmi	$1d19 <pickFile+0xa9d>
    1d16: 4c 9c 1e     	jmp	$1e9c <pickFile+0xc20>
    1d19: 18           	clc
    1d1a: a5 10        	lda	$10                     ; 0x2010 <wipeArea+0x144>
    1d1c: 69 05        	adc	#$5
    1d1e: 85 24        	sta	$24                     ; 0x2024 <wipeArea+0x158>
    1d20: a5 11        	lda	$11                     ; 0x2011 <wipeArea+0x145>
    1d22: 69 00        	adc	#$0
    1d24: 85 25        	sta	$25                     ; 0x2025 <wipeArea+0x159>
    1d26: b2 24        	lda	($24)                   ; 0x2024 <wipeArea+0x158>
    1d28: 85 12        	sta	$12                     ; 0x2012 <wipeArea+0x146>
    1d2a: a0 01        	ldy	#$1
    1d2c: b1 24        	lda	($24),y                 ; 0x2024 <wipeArea+0x158>
    1d2e: 85 13        	sta	$13                     ; 0x2013 <wipeArea+0x147>
    1d30: b2 12        	lda	($12)                   ; 0x2012 <wipeArea+0x146>
    1d32: 85 14        	sta	$14                     ; 0x2014 <wipeArea+0x148>
    1d34: b2 24        	lda	($24)                   ; 0x2024 <wipeArea+0x158>
    1d36: 85 12        	sta	$12                     ; 0x2012 <wipeArea+0x146>
    1d38: b1 24        	lda	($24),y                 ; 0x2024 <wipeArea+0x158>
    1d3a: 85 13        	sta	$13                     ; 0x2013 <wipeArea+0x147>
    1d3c: b2 24        	lda	($24)                   ; 0x2024 <wipeArea+0x158>
    1d3e: 85 16        	sta	$16                     ; 0x2016 <wipeArea+0x14a>
    1d40: b1 24        	lda	($24),y                 ; 0x2024 <wipeArea+0x158>
    1d42: 85 15        	sta	$15                     ; 0x2015 <wipeArea+0x149>
    1d44: 18           	clc
    1d45: a5 16        	lda	$16                     ; 0x2016 <wipeArea+0x14a>
    1d47: 69 fe        	adc	#$fe
    1d49: aa           	tax
    1d4a: a5 15        	lda	$15                     ; 0x2015 <wipeArea+0x149>
    1d4c: 69 2f        	adc	#$2f
    1d4e: 85 15        	sta	$15                     ; 0x2015 <wipeArea+0x149>
    1d50: b1 12        	lda	($12),y                 ; 0x2012 <wipeArea+0x146>
    1d52: 86 12        	stx	$12                     ; 0x2012 <wipeArea+0x146>
    1d54: a6 15        	ldx	$15                     ; 0x2015 <wipeArea+0x149>
    1d56: 86 13        	stx	$13                     ; 0x2013 <wipeArea+0x147>
    1d58: 18           	clc
    1d59: 72 12        	adc	($12)                   ; 0x2012 <wipeArea+0x146>
    1d5b: aa           	tax
    1d5c: a5 14        	lda	$14                     ; 0x2014 <wipeArea+0x148>
    1d5e: 20 84 52     	jsr	$5284 <textGotoXY>
    1d61: a9 20        	lda	#$20
    1d63: 92 10        	sta	($10)                   ; 0x2010 <wipeArea+0x144>
    1d65: a9 00        	lda	#$0
    1d67: a0 01        	ldy	#$1
    1d69: 91 10        	sta	($10),y                 ; 0x2010 <wipeArea+0x144>
    1d6b: a2 a5        	ldx	#$a5
    1d6d: 86 12        	stx	$12                     ; 0x2012 <wipeArea+0x146>
    1d6f: a2 6a        	ldx	#$6a
    1d71: 86 13        	stx	$13                     ; 0x2013 <wipeArea+0x147>
    1d73: 20 dc 61     	jsr	$61dc <printf>
    1d76: b2 24        	lda	($24)                   ; 0x2024 <wipeArea+0x158>
    1d78: 85 13        	sta	$13                     ; 0x2013 <wipeArea+0x147>
    1d7a: a0 01        	ldy	#$1
    1d7c: b1 24        	lda	($24),y                 ; 0x2024 <wipeArea+0x158>
    1d7e: 85 12        	sta	$12                     ; 0x2012 <wipeArea+0x146>
    1d80: 18           	clc
    1d81: a5 13        	lda	$13                     ; 0x2013 <wipeArea+0x147>
    1d83: 69 fe        	adc	#$fe
    1d85: aa           	tax
    1d86: a5 12        	lda	$12                     ; 0x2012 <wipeArea+0x146>
    1d88: 69 2f        	adc	#$2f
    1d8a: 86 12        	stx	$12                     ; 0x2012 <wipeArea+0x146>
    1d8c: 85 13        	sta	$13                     ; 0x2013 <wipeArea+0x147>
    1d8e: 38           	sec
    1d8f: a9 0f        	lda	#$f
    1d91: f2 12        	sbc	($12)                   ; 0x2012 <wipeArea+0x146>
    1d93: aa           	tax
    1d94: a9 00        	lda	#$0
    1d96: f1 12        	sbc	($12),y                 ; 0x2012 <wipeArea+0x146>
    1d98: 85 15        	sta	$15                     ; 0x2015 <wipeArea+0x149>
    1d9a: b2 24        	lda	($24)                   ; 0x2024 <wipeArea+0x158>
    1d9c: 85 13        	sta	$13                     ; 0x2013 <wipeArea+0x147>
    1d9e: b1 24        	lda	($24),y                 ; 0x2024 <wipeArea+0x158>
    1da0: 85 12        	sta	$12                     ; 0x2012 <wipeArea+0x146>
    1da2: 18           	clc
    1da3: a5 13        	lda	$13                     ; 0x2013 <wipeArea+0x147>
    1da5: 69 fc        	adc	#$fc
    1da7: 85 14        	sta	$14                     ; 0x2014 <wipeArea+0x148>
    1da9: a5 12        	lda	$12                     ; 0x2012 <wipeArea+0x146>
    1dab: 69 2f        	adc	#$2f
    1dad: 5a           	phy
    1dae: a4 14        	ldy	$14                     ; 0x2014 <wipeArea+0x148>
    1db0: 84 12        	sty	$12                     ; 0x2012 <wipeArea+0x146>
    1db2: 7a           	ply
    1db3: 85 13        	sta	$13                     ; 0x2013 <wipeArea+0x147>
    1db5: 18           	clc
    1db6: 8a           	txa
    1db7: 72 12        	adc	($12)                   ; 0x2012 <wipeArea+0x146>
    1db9: 85 14        	sta	$14                     ; 0x2014 <wipeArea+0x148>
    1dbb: a5 15        	lda	$15                     ; 0x2015 <wipeArea+0x149>
    1dbd: 71 12        	adc	($12),y                 ; 0x2012 <wipeArea+0x146>
    1dbf: 85 15        	sta	$15                     ; 0x2015 <wipeArea+0x149>
    1dc1: a5 14        	lda	$14                     ; 0x2014 <wipeArea+0x148>
    1dc3: 92 12        	sta	($12)                   ; 0x2012 <wipeArea+0x146>
    1dc5: a5 15        	lda	$15                     ; 0x2015 <wipeArea+0x149>
    1dc7: 91 12        	sta	($12),y                 ; 0x2012 <wipeArea+0x146>
    1dc9: b2 24        	lda	($24)                   ; 0x2024 <wipeArea+0x158>
    1dcb: 85 13        	sta	$13                     ; 0x2013 <wipeArea+0x147>
    1dcd: b1 24        	lda	($24),y                 ; 0x2024 <wipeArea+0x158>
    1dcf: 85 12        	sta	$12                     ; 0x2012 <wipeArea+0x146>
    1dd1: 18           	clc
    1dd2: a5 13        	lda	$13                     ; 0x2013 <wipeArea+0x147>
    1dd4: 69 fe        	adc	#$fe
    1dd6: aa           	tax
    1dd7: a5 12        	lda	$12                     ; 0x2012 <wipeArea+0x146>
    1dd9: 69 2f        	adc	#$2f
    1ddb: 86 12        	stx	$12                     ; 0x2012 <wipeArea+0x146>
    1ddd: 85 13        	sta	$13                     ; 0x2013 <wipeArea+0x147>
    1ddf: a9 00        	lda	#$0
    1de1: 92 12        	sta	($12)                   ; 0x2012 <wipeArea+0x146>
    1de3: 91 12        	sta	($12),y                 ; 0x2012 <wipeArea+0x146>
    1de5: b2 24        	lda	($24)                   ; 0x2024 <wipeArea+0x158>
    1de7: 85 13        	sta	$13                     ; 0x2013 <wipeArea+0x147>
    1de9: b1 24        	lda	($24),y                 ; 0x2024 <wipeArea+0x158>
    1deb: 85 12        	sta	$12                     ; 0x2012 <wipeArea+0x146>
    1ded: 18           	clc
    1dee: a5 13        	lda	$13                     ; 0x2013 <wipeArea+0x147>
    1df0: 69 00        	adc	#$0
    1df2: aa           	tax
    1df3: a5 12        	lda	$12                     ; 0x2012 <wipeArea+0x146>
    1df5: 69 30        	adc	#$30
    1df7: 86 12        	stx	$12                     ; 0x2012 <wipeArea+0x146>
    1df9: 85 13        	sta	$13                     ; 0x2013 <wipeArea+0x147>
    1dfb: b2 12        	lda	($12)                   ; 0x2012 <wipeArea+0x146>
    1dfd: 85 15        	sta	$15                     ; 0x2015 <wipeArea+0x149>
    1dff: b1 12        	lda	($12),y                 ; 0x2012 <wipeArea+0x146>
    1e01: 85 14        	sta	$14                     ; 0x2014 <wipeArea+0x148>
    1e03: 18           	clc
    1e04: a5 15        	lda	$15                     ; 0x2015 <wipeArea+0x149>
    1e06: 69 0f        	adc	#$f
    1e08: 85 15        	sta	$15                     ; 0x2015 <wipeArea+0x149>
    1e0a: a5 14        	lda	$14                     ; 0x2014 <wipeArea+0x148>
    1e0c: 69 00        	adc	#$0
    1e0e: aa           	tax
    1e0f: a5 15        	lda	$15                     ; 0x2015 <wipeArea+0x149>
    1e11: 92 12        	sta	($12)                   ; 0x2012 <wipeArea+0x146>
    1e13: 8a           	txa
    1e14: 91 12        	sta	($12),y                 ; 0x2012 <wipeArea+0x146>
    1e16: b2 24        	lda	($24)                   ; 0x2024 <wipeArea+0x158>
    1e18: 85 12        	sta	$12                     ; 0x2012 <wipeArea+0x146>
    1e1a: b1 24        	lda	($24),y                 ; 0x2024 <wipeArea+0x158>
    1e1c: 85 13        	sta	$13                     ; 0x2013 <wipeArea+0x147>
    1e1e: b2 24        	lda	($24)                   ; 0x2024 <wipeArea+0x158>
    1e20: 85 15        	sta	$15                     ; 0x2015 <wipeArea+0x149>
    1e22: b1 24        	lda	($24),y                 ; 0x2024 <wipeArea+0x158>
    1e24: 85 14        	sta	$14                     ; 0x2014 <wipeArea+0x148>
    1e26: a0 01        	ldy	#$1
    1e28: 18           	clc
    1e29: a5 15        	lda	$15                     ; 0x2015 <wipeArea+0x149>
    1e2b: 69 00        	adc	#$0
    1e2d: aa           	tax
    1e2e: a5 14        	lda	$14                     ; 0x2014 <wipeArea+0x148>
    1e30: 69 30        	adc	#$30
    1e32: 86 14        	stx	$14                     ; 0x2014 <wipeArea+0x148>
    1e34: 85 15        	sta	$15                     ; 0x2015 <wipeArea+0x149>
    1e36: b2 14        	lda	($14)                   ; 0x2014 <wipeArea+0x148>
    1e38: 85 16        	sta	$16                     ; 0x2016 <wipeArea+0x14a>
    1e3a: b1 14        	lda	($14),y                 ; 0x2014 <wipeArea+0x148>
    1e3c: aa           	tax
    1e3d: a5 16        	lda	$16                     ; 0x2016 <wipeArea+0x14a>
    1e3f: 20 18 0f     	jsr	$f18 <displayFileList>
    1e42: b2 24        	lda	($24)                   ; 0x2024 <wipeArea+0x158>
    1e44: 85 12        	sta	$12                     ; 0x2012 <wipeArea+0x146>
    1e46: a0 01        	ldy	#$1
    1e48: b1 24        	lda	($24),y                 ; 0x2024 <wipeArea+0x158>
    1e4a: 85 13        	sta	$13                     ; 0x2013 <wipeArea+0x147>
    1e4c: b2 24        	lda	($24)                   ; 0x2024 <wipeArea+0x158>
    1e4e: 85 14        	sta	$14                     ; 0x2014 <wipeArea+0x148>
    1e50: b1 24        	lda	($24),y                 ; 0x2024 <wipeArea+0x158>
    1e52: 85 15        	sta	$15                     ; 0x2015 <wipeArea+0x149>
    1e54: b2 24        	lda	($24)                   ; 0x2024 <wipeArea+0x158>
    1e56: 85 16        	sta	$16                     ; 0x2016 <wipeArea+0x14a>
    1e58: b1 24        	lda	($24),y                 ; 0x2024 <wipeArea+0x158>
    1e5a: 85 18        	sta	$18                     ; 0x2018 <wipeArea+0x14c>
    1e5c: a0 01        	ldy	#$1
    1e5e: a2 08        	ldx	#$8
    1e60: 86 26        	stx	$26                     ; 0x2026 <wipeArea+0x15a>
    1e62: a2 00        	ldx	#$0
    1e64: 86 27        	stx	$27                     ; 0x2027 <wipeArea+0x15b>
    1e66: 18           	clc
    1e67: a5 16        	lda	$16                     ; 0x2016 <wipeArea+0x14a>
    1e69: 69 fe        	adc	#$fe
    1e6b: 85 17        	sta	$17                     ; 0x2017 <wipeArea+0x14b>
    1e6d: a5 18        	lda	$18                     ; 0x2018 <wipeArea+0x14c>
    1e6f: 69 2f        	adc	#$2f
    1e71: aa           	tax
    1e72: b2 12        	lda	($12)                   ; 0x2012 <wipeArea+0x146>
    1e74: 85 16        	sta	$16                     ; 0x2016 <wipeArea+0x14a>
    1e76: a5 17        	lda	$17                     ; 0x2017 <wipeArea+0x14b>
    1e78: 85 12        	sta	$12                     ; 0x2012 <wipeArea+0x146>
    1e7a: b1 14        	lda	($14),y                 ; 0x2014 <wipeArea+0x148>
    1e7c: 86 13        	stx	$13                     ; 0x2013 <wipeArea+0x147>
    1e7e: 18           	clc
    1e7f: 72 12        	adc	($12)                   ; 0x2012 <wipeArea+0x146>
    1e81: aa           	tax
    1e82: a5 16        	lda	$16                     ; 0x2016 <wipeArea+0x14a>
    1e84: 20 84 52     	jsr	$5284 <textGotoXY>
    1e87: a9 fa        	lda	#$fa
    1e89: 92 10        	sta	($10)                   ; 0x2010 <wipeArea+0x144>
    1e8b: a9 00        	lda	#$0
    1e8d: a0 01        	ldy	#$1
    1e8f: 91 10        	sta	($10),y                 ; 0x2010 <wipeArea+0x144>
    1e91: a2 a5        	ldx	#$a5
    1e93: 86 12        	stx	$12                     ; 0x2012 <wipeArea+0x146>
    1e95: a2 6a        	ldx	#$6a
    1e97: 86 13        	stx	$13                     ; 0x2013 <wipeArea+0x147>
    1e99: 20 dc 61     	jsr	$61dc <printf>
    1e9c: 4c b6 12     	jmp	$12b6 <pickFile+0x3a>
    1e9f: 18           	clc
    1ea0: a5 10        	lda	$10                     ; 0x2010 <wipeArea+0x144>
    1ea2: 69 07        	adc	#$7
    1ea4: 85 12        	sta	$12                     ; 0x2012 <wipeArea+0x146>
    1ea6: a5 11        	lda	$11                     ; 0x2011 <wipeArea+0x145>
    1ea8: 69 00        	adc	#$0
    1eaa: 85 13        	sta	$13                     ; 0x2013 <wipeArea+0x147>
    1eac: b2 12        	lda	($12)                   ; 0x2012 <wipeArea+0x146>
    1eae: 85 20        	sta	$20                     ; 0x2020 <wipeArea+0x154>
    1eb0: fa           	plx
    1eb1: 86 27        	stx	$27                     ; 0x2027 <wipeArea+0x15b>
    1eb3: fa           	plx
    1eb4: 86 26        	stx	$26                     ; 0x2026 <wipeArea+0x15a>
    1eb6: fa           	plx
    1eb7: 86 25        	stx	$25                     ; 0x2025 <wipeArea+0x159>
    1eb9: fa           	plx
    1eba: 86 24        	stx	$24                     ; 0x2024 <wipeArea+0x158>
    1ebc: 18           	clc
    1ebd: a5 10        	lda	$10                     ; 0x2010 <wipeArea+0x144>
    1ebf: 69 08        	adc	#$8
    1ec1: 85 10        	sta	$10                     ; 0x2010 <wipeArea+0x144>
    1ec3: a5 11        	lda	$11                     ; 0x2011 <wipeArea+0x145>
    1ec5: 69 00        	adc	#$0
    1ec7: 85 11        	sta	$11                     ; 0x2011 <wipeArea+0x145>
    1ec9: a5 20        	lda	$20                     ; 0x2020 <wipeArea+0x154>
    1ecb: 60           	rts

00001ecc <wipeArea>:
    1ecc: a6 12        	ldx	$12                     ; 0x2012 <wipeArea+0x146>
    1ece: 86 73        	stx	$73                     ; 0x2073 <wipeArea+0x1a7>
    1ed0: a6 13        	ldx	$13                     ; 0x2013 <wipeArea+0x147>
    1ed2: 86 74        	stx	$74                     ; 0x2074 <wipeArea+0x1a8>
    1ed4: a0 01        	ldy	#$1
    1ed6: b1 12        	lda	($12),y                 ; 0x2012 <wipeArea+0x146>
    1ed8: c9 50        	cmp	#$50
    1eda: b0 11        	bcs	$1eed <wipeArea+0x21>
    1edc: 18           	clc
    1edd: 69 b0        	adc	#$b0
    1edf: a2 00        	ldx	#$0
    1ee1: 85 75        	sta	$75                     ; 0x2075 <wipeArea+0x1a9>
    1ee3: a9 20        	lda	#$20
    1ee5: 20 38 63     	jsr	$6338 <putchar>
    1ee8: a5 75        	lda	$75                     ; 0x2075 <wipeArea+0x1a9>
    1eea: 1a           	inc
    1eeb: d0 f2        	bne	$1edf <wipeArea+0x13>
    1eed: a9 0a        	lda	#$a
    1eef: a2 00        	ldx	#$0
    1ef1: 20 38 63     	jsr	$6338 <putchar>
    1ef4: a0 01        	ldy	#$1
    1ef6: b1 73        	lda	($73),y                 ; 0x2073 <wipeArea+0x1a7>
    1ef8: c9 50        	cmp	#$50
    1efa: b0 11        	bcs	$1f0d <wipeArea+0x41>
    1efc: 18           	clc
    1efd: 69 b0        	adc	#$b0
    1eff: a2 00        	ldx	#$0
    1f01: 85 75        	sta	$75                     ; 0x2075 <wipeArea+0x1a9>
    1f03: a9 20        	lda	#$20
    1f05: 20 38 63     	jsr	$6338 <putchar>
    1f08: a5 75        	lda	$75                     ; 0x2075 <wipeArea+0x1a9>
    1f0a: 1a           	inc
    1f0b: d0 f2        	bne	$1eff <wipeArea+0x33>
    1f0d: a9 0a        	lda	#$a
    1f0f: a2 00        	ldx	#$0
    1f11: 20 38 63     	jsr	$6338 <putchar>
    1f14: a0 01        	ldy	#$1
    1f16: b1 73        	lda	($73),y                 ; 0x2073 <wipeArea+0x1a7>
    1f18: c9 50        	cmp	#$50
    1f1a: b0 11        	bcs	$1f2d <wipeArea+0x61>
    1f1c: 18           	clc
    1f1d: 69 b0        	adc	#$b0
    1f1f: a2 00        	ldx	#$0
    1f21: 85 75        	sta	$75                     ; 0x2075 <wipeArea+0x1a9>
    1f23: a9 20        	lda	#$20
    1f25: 20 38 63     	jsr	$6338 <putchar>
    1f28: a5 75        	lda	$75                     ; 0x2075 <wipeArea+0x1a9>
    1f2a: 1a           	inc
    1f2b: d0 f2        	bne	$1f1f <wipeArea+0x53>
    1f2d: a9 0a        	lda	#$a
    1f2f: a2 00        	ldx	#$0
    1f31: 20 38 63     	jsr	$6338 <putchar>
    1f34: a0 01        	ldy	#$1
    1f36: b1 73        	lda	($73),y                 ; 0x2073 <wipeArea+0x1a7>
    1f38: c9 50        	cmp	#$50
    1f3a: b0 11        	bcs	$1f4d <wipeArea+0x81>
    1f3c: 18           	clc
    1f3d: 69 b0        	adc	#$b0
    1f3f: a2 00        	ldx	#$0
    1f41: 85 75        	sta	$75                     ; 0x2075 <wipeArea+0x1a9>
    1f43: a9 20        	lda	#$20
    1f45: 20 38 63     	jsr	$6338 <putchar>
    1f48: a5 75        	lda	$75                     ; 0x2075 <wipeArea+0x1a9>
    1f4a: 1a           	inc
    1f4b: d0 f2        	bne	$1f3f <wipeArea+0x73>
    1f4d: a9 0a        	lda	#$a
    1f4f: a2 00        	ldx	#$0
    1f51: 20 38 63     	jsr	$6338 <putchar>
    1f54: a0 01        	ldy	#$1
    1f56: b1 73        	lda	($73),y                 ; 0x2073 <wipeArea+0x1a7>
    1f58: c9 50        	cmp	#$50
    1f5a: b0 11        	bcs	$1f6d <wipeArea+0xa1>
    1f5c: 18           	clc
    1f5d: 69 b0        	adc	#$b0
    1f5f: a2 00        	ldx	#$0
    1f61: 85 75        	sta	$75                     ; 0x2075 <wipeArea+0x1a9>
    1f63: a9 20        	lda	#$20
    1f65: 20 38 63     	jsr	$6338 <putchar>
    1f68: a5 75        	lda	$75                     ; 0x2075 <wipeArea+0x1a9>
    1f6a: 1a           	inc
    1f6b: d0 f2        	bne	$1f5f <wipeArea+0x93>
    1f6d: a9 0a        	lda	#$a
    1f6f: a2 00        	ldx	#$0
    1f71: 20 38 63     	jsr	$6338 <putchar>
    1f74: a0 01        	ldy	#$1
    1f76: b1 73        	lda	($73),y                 ; 0x2073 <wipeArea+0x1a7>
    1f78: c9 50        	cmp	#$50
    1f7a: b0 11        	bcs	$1f8d <wipeArea+0xc1>
    1f7c: 18           	clc
    1f7d: 69 b0        	adc	#$b0
    1f7f: a2 00        	ldx	#$0
    1f81: 85 75        	sta	$75                     ; 0x2075 <wipeArea+0x1a9>
    1f83: a9 20        	lda	#$20
    1f85: 20 38 63     	jsr	$6338 <putchar>
    1f88: a5 75        	lda	$75                     ; 0x2075 <wipeArea+0x1a9>
    1f8a: 1a           	inc
    1f8b: d0 f2        	bne	$1f7f <wipeArea+0xb3>
    1f8d: a9 0a        	lda	#$a
    1f8f: a2 00        	ldx	#$0
    1f91: 20 38 63     	jsr	$6338 <putchar>
    1f94: a0 01        	ldy	#$1
    1f96: b1 73        	lda	($73),y                 ; 0x2073 <wipeArea+0x1a7>
    1f98: c9 50        	cmp	#$50
    1f9a: b0 11        	bcs	$1fad <wipeArea+0xe1>
    1f9c: 18           	clc
    1f9d: 69 b0        	adc	#$b0
    1f9f: a2 00        	ldx	#$0
    1fa1: 85 75        	sta	$75                     ; 0x2075 <wipeArea+0x1a9>
    1fa3: a9 20        	lda	#$20
    1fa5: 20 38 63     	jsr	$6338 <putchar>
    1fa8: a5 75        	lda	$75                     ; 0x2075 <wipeArea+0x1a9>
    1faa: 1a           	inc
    1fab: d0 f2        	bne	$1f9f <wipeArea+0xd3>
    1fad: a9 0a        	lda	#$a
    1faf: a2 00        	ldx	#$0
    1fb1: 20 38 63     	jsr	$6338 <putchar>
    1fb4: a0 01        	ldy	#$1
    1fb6: b1 73        	lda	($73),y                 ; 0x2073 <wipeArea+0x1a7>
    1fb8: c9 50        	cmp	#$50
    1fba: b0 11        	bcs	$1fcd <wipeArea+0x101>
    1fbc: 18           	clc
    1fbd: 69 b0        	adc	#$b0
    1fbf: a2 00        	ldx	#$0
    1fc1: 85 75        	sta	$75                     ; 0x2075 <wipeArea+0x1a9>
    1fc3: a9 20        	lda	#$20
    1fc5: 20 38 63     	jsr	$6338 <putchar>
    1fc8: a5 75        	lda	$75                     ; 0x2075 <wipeArea+0x1a9>
    1fca: 1a           	inc
    1fcb: d0 f2        	bne	$1fbf <wipeArea+0xf3>
    1fcd: a9 0a        	lda	#$a
    1fcf: a2 00        	ldx	#$0
    1fd1: 20 38 63     	jsr	$6338 <putchar>
    1fd4: a0 01        	ldy	#$1
    1fd6: b1 73        	lda	($73),y                 ; 0x2073 <wipeArea+0x1a7>
    1fd8: c9 50        	cmp	#$50
    1fda: b0 11        	bcs	$1fed <wipeArea+0x121>
    1fdc: 18           	clc
    1fdd: 69 b0        	adc	#$b0
    1fdf: a2 00        	ldx	#$0
    1fe1: 85 75        	sta	$75                     ; 0x2075 <wipeArea+0x1a9>
    1fe3: a9 20        	lda	#$20
    1fe5: 20 38 63     	jsr	$6338 <putchar>
    1fe8: a5 75        	lda	$75                     ; 0x2075 <wipeArea+0x1a9>
    1fea: 1a           	inc
    1feb: d0 f2        	bne	$1fdf <wipeArea+0x113>
    1fed: a9 0a        	lda	#$a
    1fef: a2 00        	ldx	#$0
    1ff1: 20 38 63     	jsr	$6338 <putchar>
    1ff4: a0 01        	ldy	#$1
    1ff6: b1 73        	lda	($73),y                 ; 0x2073 <wipeArea+0x1a7>
    1ff8: c9 50        	cmp	#$50
    1ffa: b0 11        	bcs	$200d <wipeArea+0x141>
    1ffc: 18           	clc
    1ffd: 69 b0        	adc	#$b0
    1fff: a2 00        	ldx	#$0
    2001: 85 75        	sta	$75                     ; 0x2075 <wipeArea+0x1a9>
    2003: a9 20        	lda	#$20
    2005: 20 38 63     	jsr	$6338 <putchar>
    2008: a5 75        	lda	$75                     ; 0x2075 <wipeArea+0x1a9>
    200a: 1a           	inc
    200b: d0 f2        	bne	$1fff <wipeArea+0x133>
    200d: a9 0a        	lda	#$a
    200f: a2 00        	ldx	#$0
    2011: 20 38 63     	jsr	$6338 <putchar>
    2014: a0 01        	ldy	#$1
    2016: b1 73        	lda	($73),y                 ; 0x2073 <wipeArea+0x1a7>
    2018: c9 50        	cmp	#$50
    201a: b0 11        	bcs	$202d <wipeArea+0x161>
    201c: 18           	clc
    201d: 69 b0        	adc	#$b0
    201f: a2 00        	ldx	#$0
    2021: 85 75        	sta	$75                     ; 0x2075 <wipeArea+0x1a9>
    2023: a9 20        	lda	#$20
    2025: 20 38 63     	jsr	$6338 <putchar>
    2028: a5 75        	lda	$75                     ; 0x2075 <wipeArea+0x1a9>
    202a: 1a           	inc
    202b: d0 f2        	bne	$201f <wipeArea+0x153>
    202d: a9 0a        	lda	#$a
    202f: a2 00        	ldx	#$0
    2031: 20 38 63     	jsr	$6338 <putchar>
    2034: a0 01        	ldy	#$1
    2036: b1 73        	lda	($73),y                 ; 0x2073 <wipeArea+0x1a7>
    2038: c9 50        	cmp	#$50
    203a: b0 11        	bcs	$204d <wipeArea+0x181>
    203c: 18           	clc
    203d: 69 b0        	adc	#$b0
    203f: a2 00        	ldx	#$0
    2041: 85 75        	sta	$75                     ; 0x2075 <wipeArea+0x1a9>
    2043: a9 20        	lda	#$20
    2045: 20 38 63     	jsr	$6338 <putchar>
    2048: a5 75        	lda	$75                     ; 0x2075 <wipeArea+0x1a9>
    204a: 1a           	inc
    204b: d0 f2        	bne	$203f <wipeArea+0x173>
    204d: a9 0a        	lda	#$a
    204f: a2 00        	ldx	#$0
    2051: 20 38 63     	jsr	$6338 <putchar>
    2054: a0 01        	ldy	#$1
    2056: b1 73        	lda	($73),y                 ; 0x2073 <wipeArea+0x1a7>
    2058: c9 50        	cmp	#$50
    205a: b0 11        	bcs	$206d <wipeArea+0x1a1>
    205c: 18           	clc
    205d: 69 b0        	adc	#$b0
    205f: a2 00        	ldx	#$0
    2061: 85 75        	sta	$75                     ; 0x2075 <wipeArea+0x1a9>
    2063: a9 20        	lda	#$20
    2065: 20 38 63     	jsr	$6338 <putchar>
    2068: a5 75        	lda	$75                     ; 0x2075 <wipeArea+0x1a9>
    206a: 1a           	inc
    206b: d0 f2        	bne	$205f <wipeArea+0x193>
    206d: a9 0a        	lda	#$a
    206f: a2 00        	ldx	#$0
    2071: 20 38 63     	jsr	$6338 <putchar>
    2074: a0 01        	ldy	#$1
    2076: b1 73        	lda	($73),y                 ; 0x2073 <wipeArea+0x1a7>
    2078: c9 50        	cmp	#$50
    207a: b0 11        	bcs	$208d <wipeArea+0x1c1>
    207c: 18           	clc
    207d: 69 b0        	adc	#$b0
    207f: a2 00        	ldx	#$0
    2081: 85 75        	sta	$75                     ; 0x2075 <wipeArea+0x1a9>
    2083: a9 20        	lda	#$20
    2085: 20 38 63     	jsr	$6338 <putchar>
    2088: a5 75        	lda	$75                     ; 0x2075 <wipeArea+0x1a9>
    208a: 1a           	inc
    208b: d0 f2        	bne	$207f <wipeArea+0x1b3>
    208d: a9 0a        	lda	#$a
    208f: a2 00        	ldx	#$0
    2091: 20 38 63     	jsr	$6338 <putchar>
    2094: a0 01        	ldy	#$1
    2096: b1 73        	lda	($73),y                 ; 0x2073 <wipeArea+0x1a7>
    2098: c9 50        	cmp	#$50
    209a: b0 11        	bcs	$20ad <wipeArea+0x1e1>
    209c: 18           	clc
    209d: 69 b0        	adc	#$b0
    209f: a2 00        	ldx	#$0
    20a1: 85 75        	sta	$75                     ; 0x2075 <wipeArea+0x1a9>
    20a3: a9 20        	lda	#$20
    20a5: 20 38 63     	jsr	$6338 <putchar>
    20a8: a5 75        	lda	$75                     ; 0x2075 <wipeArea+0x1a9>
    20aa: 1a           	inc
    20ab: d0 f2        	bne	$209f <wipeArea+0x1d3>
    20ad: a9 0a        	lda	#$a
    20af: a2 00        	ldx	#$0
    20b1: 20 38 63     	jsr	$6338 <putchar>
    20b4: a0 01        	ldy	#$1
    20b6: b1 73        	lda	($73),y                 ; 0x2073 <wipeArea+0x1a7>
    20b8: c9 50        	cmp	#$50
    20ba: b0 11        	bcs	$20cd <wipeArea+0x201>
    20bc: 18           	clc
    20bd: 69 b0        	adc	#$b0
    20bf: a2 00        	ldx	#$0
    20c1: 85 75        	sta	$75                     ; 0x2075 <wipeArea+0x1a9>
    20c3: a9 20        	lda	#$20
    20c5: 20 38 63     	jsr	$6338 <putchar>
    20c8: a5 75        	lda	$75                     ; 0x2075 <wipeArea+0x1a9>
    20ca: 1a           	inc
    20cb: d0 f2        	bne	$20bf <wipeArea+0x1f3>
    20cd: a9 0a        	lda	#$a
    20cf: a2 00        	ldx	#$0
    20d1: 20 38 63     	jsr	$6338 <putchar>
    20d4: a0 01        	ldy	#$1
    20d6: b1 73        	lda	($73),y                 ; 0x2073 <wipeArea+0x1a7>
    20d8: c9 50        	cmp	#$50
    20da: b0 11        	bcs	$20ed <wipeArea+0x221>
    20dc: 18           	clc
    20dd: 69 b0        	adc	#$b0
    20df: a2 00        	ldx	#$0
    20e1: 85 73        	sta	$73                     ; 0x2073 <wipeArea+0x1a7>
    20e3: a9 20        	lda	#$20
    20e5: 20 38 63     	jsr	$6338 <putchar>
    20e8: a5 73        	lda	$73                     ; 0x2073 <wipeArea+0x1a7>
    20ea: 1a           	inc
    20eb: d0 f2        	bne	$20df <wipeArea+0x213>
    20ed: a9 0a        	lda	#$a
    20ef: a2 00        	ldx	#$0
    20f1: 4c 38 63     	jmp	$6338 <putchar>

000020f4 <opl3_initialize>:
    20f4: a2 01        	ldx	#$1
    20f6: 8e 80 d5     	stx	$d580                   ; 0xd580 <__heap_start+0x36c6>
    20f9: a0 20        	ldy	#$20
    20fb: 8c 81 d5     	sty	$d581                   ; 0xd581 <__heap_start+0x36c7>
    20fe: a0 02        	ldy	#$2
    2100: 8c 80 d5     	sty	$d580                   ; 0xd580 <__heap_start+0x36c6>
    2103: 9c 81 d5     	stz	$d581                   ; 0xd581 <__heap_start+0x36c7>
    2106: c8           	iny
    2107: 8c 80 d5     	sty	$d580                   ; 0xd580 <__heap_start+0x36c6>
    210a: 9c 81 d5     	stz	$d581                   ; 0xd581 <__heap_start+0x36c7>
    210d: c8           	iny
    210e: 8c 82 d5     	sty	$d582                   ; 0xd582 <__heap_start+0x36c8>
    2111: 9c 81 d5     	stz	$d581                   ; 0xd581 <__heap_start+0x36c7>
    2114: c8           	iny
    2115: 8c 82 d5     	sty	$d582                   ; 0xd582 <__heap_start+0x36c8>
    2118: 8e 81 d5     	stx	$d581                   ; 0xd581 <__heap_start+0x36c7>
    211b: a2 08        	ldx	#$8
    211d: 8e 80 d5     	stx	$d580                   ; 0xd580 <__heap_start+0x36c6>
    2120: 9c 81 d5     	stz	$d581                   ; 0xd581 <__heap_start+0x36c7>
    2123: a2 bd        	ldx	#$bd
    2125: 8e 80 d5     	stx	$d580                   ; 0xd580 <__heap_start+0x36c6>
    2128: 9c 81 d5     	stz	$d581                   ; 0xd581 <__heap_start+0x36c7>
    212b: a2 c0        	ldx	#$c0
    212d: 8e 80 d5     	stx	$d580                   ; 0xd580 <__heap_start+0x36c6>
    2130: a2 30        	ldx	#$30
    2132: 8e 81 d5     	stx	$d581                   ; 0xd581 <__heap_start+0x36c7>
    2135: a0 c1        	ldy	#$c1
    2137: 8c 80 d5     	sty	$d580                   ; 0xd580 <__heap_start+0x36c6>
    213a: 8e 81 d5     	stx	$d581                   ; 0xd581 <__heap_start+0x36c7>
    213d: c8           	iny
    213e: 8c 80 d5     	sty	$d580                   ; 0xd580 <__heap_start+0x36c6>
    2141: 8e 81 d5     	stx	$d581                   ; 0xd581 <__heap_start+0x36c7>
    2144: c8           	iny
    2145: 8c 80 d5     	sty	$d580                   ; 0xd580 <__heap_start+0x36c6>
    2148: 8e 81 d5     	stx	$d581                   ; 0xd581 <__heap_start+0x36c7>
    214b: c8           	iny
    214c: 8c 80 d5     	sty	$d580                   ; 0xd580 <__heap_start+0x36c6>
    214f: 8e 81 d5     	stx	$d581                   ; 0xd581 <__heap_start+0x36c7>
    2152: c8           	iny
    2153: 8c 80 d5     	sty	$d580                   ; 0xd580 <__heap_start+0x36c6>
    2156: 8e 81 d5     	stx	$d581                   ; 0xd581 <__heap_start+0x36c7>
    2159: c8           	iny
    215a: 8c 80 d5     	sty	$d580                   ; 0xd580 <__heap_start+0x36c6>
    215d: 8e 81 d5     	stx	$d581                   ; 0xd581 <__heap_start+0x36c7>
    2160: c8           	iny
    2161: 8c 80 d5     	sty	$d580                   ; 0xd580 <__heap_start+0x36c6>
    2164: 8e 81 d5     	stx	$d581                   ; 0xd581 <__heap_start+0x36c7>
    2167: c8           	iny
    2168: 8c 80 d5     	sty	$d580                   ; 0xd580 <__heap_start+0x36c6>
    216b: 8e 81 d5     	stx	$d581                   ; 0xd581 <__heap_start+0x36c7>
    216e: a9 c0        	lda	#$c0
    2170: 8d 82 d5     	sta	$d582                   ; 0xd582 <__heap_start+0x36c8>
    2173: 8e 81 d5     	stx	$d581                   ; 0xd581 <__heap_start+0x36c7>
    2176: 1a           	inc
    2177: 8d 82 d5     	sta	$d582                   ; 0xd582 <__heap_start+0x36c8>
    217a: 8e 81 d5     	stx	$d581                   ; 0xd581 <__heap_start+0x36c7>
    217d: 1a           	inc
    217e: 8d 82 d5     	sta	$d582                   ; 0xd582 <__heap_start+0x36c8>
    2181: 8e 81 d5     	stx	$d581                   ; 0xd581 <__heap_start+0x36c7>
    2184: 1a           	inc
    2185: 8d 82 d5     	sta	$d582                   ; 0xd582 <__heap_start+0x36c8>
    2188: 8e 81 d5     	stx	$d581                   ; 0xd581 <__heap_start+0x36c7>
    218b: 1a           	inc
    218c: 8d 82 d5     	sta	$d582                   ; 0xd582 <__heap_start+0x36c8>
    218f: 8e 81 d5     	stx	$d581                   ; 0xd581 <__heap_start+0x36c7>
    2192: 1a           	inc
    2193: 8d 82 d5     	sta	$d582                   ; 0xd582 <__heap_start+0x36c8>
    2196: 8e 81 d5     	stx	$d581                   ; 0xd581 <__heap_start+0x36c7>
    2199: 1a           	inc
    219a: 8d 82 d5     	sta	$d582                   ; 0xd582 <__heap_start+0x36c8>
    219d: 8e 81 d5     	stx	$d581                   ; 0xd581 <__heap_start+0x36c7>
    21a0: 1a           	inc
    21a1: 8d 82 d5     	sta	$d582                   ; 0xd582 <__heap_start+0x36c8>
    21a4: 8e 81 d5     	stx	$d581                   ; 0xd581 <__heap_start+0x36c7>
    21a7: 8c 82 d5     	sty	$d582                   ; 0xd582 <__heap_start+0x36c8>
    21aa: 8e 81 d5     	stx	$d581                   ; 0xd581 <__heap_start+0x36c7>
    21ad: a2 b0        	ldx	#$b0
    21af: 8e 80 d5     	stx	$d580                   ; 0xd580 <__heap_start+0x36c6>
    21b2: 9c 81 d5     	stz	$d581                   ; 0xd581 <__heap_start+0x36c7>
    21b5: e8           	inx
    21b6: 8e 80 d5     	stx	$d580                   ; 0xd580 <__heap_start+0x36c6>
    21b9: 9c 81 d5     	stz	$d581                   ; 0xd581 <__heap_start+0x36c7>
    21bc: e8           	inx
    21bd: 8e 80 d5     	stx	$d580                   ; 0xd580 <__heap_start+0x36c6>
    21c0: 9c 81 d5     	stz	$d581                   ; 0xd581 <__heap_start+0x36c7>
    21c3: e8           	inx
    21c4: 8e 80 d5     	stx	$d580                   ; 0xd580 <__heap_start+0x36c6>
    21c7: 9c 81 d5     	stz	$d581                   ; 0xd581 <__heap_start+0x36c7>
    21ca: e8           	inx
    21cb: 8e 80 d5     	stx	$d580                   ; 0xd580 <__heap_start+0x36c6>
    21ce: 9c 81 d5     	stz	$d581                   ; 0xd581 <__heap_start+0x36c7>
    21d1: e8           	inx
    21d2: 8e 80 d5     	stx	$d580                   ; 0xd580 <__heap_start+0x36c6>
    21d5: 9c 81 d5     	stz	$d581                   ; 0xd581 <__heap_start+0x36c7>
    21d8: e8           	inx
    21d9: 8e 80 d5     	stx	$d580                   ; 0xd580 <__heap_start+0x36c6>
    21dc: 9c 81 d5     	stz	$d581                   ; 0xd581 <__heap_start+0x36c7>
    21df: a0 b7        	ldy	#$b7
    21e1: 8c 80 d5     	sty	$d580                   ; 0xd580 <__heap_start+0x36c6>
    21e4: 9c 81 d5     	stz	$d581                   ; 0xd581 <__heap_start+0x36c7>
    21e7: a2 b8        	ldx	#$b8
    21e9: 8e 80 d5     	stx	$d580                   ; 0xd580 <__heap_start+0x36c6>
    21ec: 9c 81 d5     	stz	$d581                   ; 0xd581 <__heap_start+0x36c7>
    21ef: a9 b0        	lda	#$b0
    21f1: 8d 82 d5     	sta	$d582                   ; 0xd582 <__heap_start+0x36c8>
    21f4: 9c 81 d5     	stz	$d581                   ; 0xd581 <__heap_start+0x36c7>
    21f7: 1a           	inc
    21f8: 8d 82 d5     	sta	$d582                   ; 0xd582 <__heap_start+0x36c8>
    21fb: 9c 81 d5     	stz	$d581                   ; 0xd581 <__heap_start+0x36c7>
    21fe: 1a           	inc
    21ff: 8d 82 d5     	sta	$d582                   ; 0xd582 <__heap_start+0x36c8>
    2202: 9c 81 d5     	stz	$d581                   ; 0xd581 <__heap_start+0x36c7>
    2205: 1a           	inc
    2206: 8d 82 d5     	sta	$d582                   ; 0xd582 <__heap_start+0x36c8>
    2209: 9c 81 d5     	stz	$d581                   ; 0xd581 <__heap_start+0x36c7>
    220c: 1a           	inc
    220d: 8d 82 d5     	sta	$d582                   ; 0xd582 <__heap_start+0x36c8>
    2210: 9c 81 d5     	stz	$d581                   ; 0xd581 <__heap_start+0x36c7>
    2213: 1a           	inc
    2214: 8d 82 d5     	sta	$d582                   ; 0xd582 <__heap_start+0x36c8>
    2217: 9c 81 d5     	stz	$d581                   ; 0xd581 <__heap_start+0x36c7>
    221a: 1a           	inc
    221b: 8d 82 d5     	sta	$d582                   ; 0xd582 <__heap_start+0x36c8>
    221e: 9c 81 d5     	stz	$d581                   ; 0xd581 <__heap_start+0x36c7>
    2221: 8c 82 d5     	sty	$d582                   ; 0xd582 <__heap_start+0x36c8>
    2224: 9c 81 d5     	stz	$d581                   ; 0xd581 <__heap_start+0x36c7>
    2227: 8e 82 d5     	stx	$d582                   ; 0xd582 <__heap_start+0x36c8>
    222a: 9c 81 d5     	stz	$d581                   ; 0xd581 <__heap_start+0x36c7>
    222d: 60           	rts

0000222e <main>:
    222e: 18           	clc
    222f: a5 10        	lda	$10                     ; 0x2010 <wipeArea+0x144>
    2231: 69 97        	adc	#$97
    2233: 85 10        	sta	$10                     ; 0x2010 <wipeArea+0x144>
    2235: a5 11        	lda	$11                     ; 0x2011 <wipeArea+0x145>
    2237: 69 ff        	adc	#$ff
    2239: 85 11        	sta	$11                     ; 0x2011 <wipeArea+0x145>
    223b: a6 24        	ldx	$24                     ; 0x2024 <wipeArea+0x158>
    223d: da           	phx
    223e: a6 25        	ldx	$25                     ; 0x2025 <wipeArea+0x159>
    2240: da           	phx
    2241: a6 26        	ldx	$26                     ; 0x2026 <wipeArea+0x15a>
    2243: da           	phx
    2244: a6 27        	ldx	$27                     ; 0x2027 <wipeArea+0x15b>
    2246: da           	phx
    2247: a5 28        	lda	$28                     ; 0x2028 <wipeArea+0x15c>
    2249: a0 0d        	ldy	#$d
    224b: 91 10        	sta	($10),y                 ; 0x2010 <wipeArea+0x144>
    224d: a5 29        	lda	$29                     ; 0x2029 <wipeArea+0x15d>
    224f: 88           	dey
    2250: 91 10        	sta	($10),y                 ; 0x2010 <wipeArea+0x144>
    2252: a5 2a        	lda	$2a                     ; 0x202a <wipeArea+0x15e>
    2254: 88           	dey
    2255: 91 10        	sta	($10),y                 ; 0x2010 <wipeArea+0x144>
    2257: a5 2b        	lda	$2b                     ; 0x202b <wipeArea+0x15f>
    2259: 88           	dey
    225a: 91 10        	sta	($10),y                 ; 0x2010 <wipeArea+0x144>
    225c: a5 2c        	lda	$2c                     ; 0x202c <wipeArea+0x160>
    225e: 88           	dey
    225f: 91 10        	sta	($10),y                 ; 0x2010 <wipeArea+0x144>
    2261: a5 2d        	lda	$2d                     ; 0x202d <wipeArea+0x161>
    2263: 88           	dey
    2264: 91 10        	sta	($10),y                 ; 0x2010 <wipeArea+0x144>
    2266: a5 2e        	lda	$2e                     ; 0x202e <wipeArea+0x162>
    2268: 88           	dey
    2269: 91 10        	sta	($10),y                 ; 0x2010 <wipeArea+0x144>
    226b: a5 2f        	lda	$2f                     ; 0x202f <wipeArea+0x163>
    226d: 88           	dey
    226e: 91 10        	sta	($10),y                 ; 0x2010 <wipeArea+0x144>
    2270: a2 00        	ldx	#$0
    2272: 86 18        	stx	$18                     ; 0x2018 <wipeArea+0x14c>
    2274: a2 d0        	ldx	#$d0
    2276: 86 19        	stx	$19                     ; 0x2019 <wipeArea+0x14d>
    2278: a2 00        	ldx	#$0
    227a: 86 14        	stx	$14                     ; 0x2014 <wipeArea+0x148>
    227c: a2 d8        	ldx	#$d8
    227e: 86 15        	stx	$15                     ; 0x2015 <wipeArea+0x149>
    2280: a2 00        	ldx	#$0
    2282: a0 10        	ldy	#$10
    2284: a9 ba        	lda	#$ba
    2286: 86 12        	stx	$12                     ; 0x2012 <wipeArea+0x146>
    2288: 84 13        	sty	$13                     ; 0x2013 <wipeArea+0x147>
    228a: 18           	clc
    228b: 65 12        	adc	$12                     ; 0x2012 <wipeArea+0x146>
    228d: a0 14        	ldy	#$14
    228f: 91 10        	sta	($10),y                 ; 0x2010 <wipeArea+0x144>
    2291: a9 9e        	lda	#$9e
    2293: 65 13        	adc	$13                     ; 0x2013 <wipeArea+0x147>
    2295: a0 16        	ldy	#$16
    2297: 91 10        	sta	($10),y                 ; 0x2010 <wipeArea+0x144>
    2299: 64 01        	stz	$1                      ; 0x2001 <wipeArea+0x135>
    229b: a2 3f        	ldx	#$3f
    229d: 8e 00 d0     	stx	$d000                   ; 0xd000 <__heap_start+0x3146>
    22a0: a2 b3        	ldx	#$b3
    22a2: 86 00        	stx	$0                      ; 0x2000 <wipeArea+0x134>
    22a4: 64 08        	stz	$8                      ; 0x2008 <wipeArea+0x13c>
    22a6: a2 01        	ldx	#$1
    22a8: 86 09        	stx	$9                      ; 0x2009 <wipeArea+0x13d>
    22aa: e8           	inx
    22ab: 86 0a        	stx	$a                      ; 0x200a <wipeArea+0x13e>
    22ad: e8           	inx
    22ae: 86 0b        	stx	$b                      ; 0x200b <wipeArea+0x13f>
    22b0: e8           	inx
    22b1: 86 0c        	stx	$c                      ; 0x200c <wipeArea+0x140>
    22b3: e8           	inx
    22b4: 86 0d        	stx	$d                      ; 0x200d <wipeArea+0x141>
    22b6: a2 4b        	ldx	#$4b
    22b8: 86 f0        	stx	$f0                     ; 0x20f0 <wipeArea+0x224>
    22ba: a2 00        	ldx	#$0
    22bc: 86 f1        	stx	$f1                     ; 0x20f1 <wipeArea+0x225>
    22be: a2 00        	ldx	#$0
    22c0: 86 1a        	stx	$1a                     ; 0x201a <wipeArea+0x14e>
    22c2: a2 d4        	ldx	#$d4
    22c4: 86 1b        	stx	$1b                     ; 0x201b <wipeArea+0x14f>
    22c6: a2 00        	ldx	#$0
    22c8: 86 16        	stx	$16                     ; 0x2016 <wipeArea+0x14a>
    22ca: a2 dc        	ldx	#$dc
    22cc: 86 17        	stx	$17                     ; 0x2017 <wipeArea+0x14b>
    22ce: a2 00        	ldx	#$0
    22d0: 86 12        	stx	$12                     ; 0x2012 <wipeArea+0x146>
    22d2: a2 c0        	ldx	#$c0
    22d4: 86 13        	stx	$13                     ; 0x2013 <wipeArea+0x147>
    22d6: a9 00        	lda	#$0
    22d8: a6 01        	ldx	$1                      ; 0x2001 <wipeArea+0x135>
    22da: a0 01        	ldy	#$1
    22dc: 84 01        	sty	$1                      ; 0x2001 <wipeArea+0x135>
    22de: 92 18        	sta	($18)                   ; 0x2018 <wipeArea+0x14c>
    22e0: 91 18        	sta	($18),y                 ; 0x2018 <wipeArea+0x14c>
    22e2: c8           	iny
    22e3: 91 18        	sta	($18),y                 ; 0x2018 <wipeArea+0x14c>
    22e5: c8           	iny
    22e6: 85 1c        	sta	$1c                     ; 0x201c <wipeArea+0x150>
    22e8: a9 ff        	lda	#$ff
    22ea: 91 18        	sta	($18),y                 ; 0x2018 <wipeArea+0x14c>
    22ec: 86 01        	stx	$1                      ; 0x2001 <wipeArea+0x135>
    22ee: a5 18        	lda	$18                     ; 0x2018 <wipeArea+0x14c>
    22f0: 18           	clc
    22f1: 69 04        	adc	#$4
    22f3: 85 18        	sta	$18                     ; 0x2018 <wipeArea+0x14c>
    22f5: a5 19        	lda	$19                     ; 0x2019 <wipeArea+0x14d>
    22f7: 69 00        	adc	#$0
    22f9: e6 1c        	inc	$1c                     ; 0x201c <wipeArea+0x150>
    22fb: 85 19        	sta	$19                     ; 0x2019 <wipeArea+0x14d>
    22fd: a5 1c        	lda	$1c                     ; 0x201c <wipeArea+0x150>
    22ff: d0 d7        	bne	$22d8 <main+0xaa>
    2301: a9 00        	lda	#$0
    2303: a6 01        	ldx	$1                      ; 0x2001 <wipeArea+0x135>
    2305: a0 01        	ldy	#$1
    2307: 84 01        	sty	$1                      ; 0x2001 <wipeArea+0x135>
    2309: 92 1a        	sta	($1a)                   ; 0x201a <wipeArea+0x14e>
    230b: 91 1a        	sta	($1a),y                 ; 0x201a <wipeArea+0x14e>
    230d: c8           	iny
    230e: 91 1a        	sta	($1a),y                 ; 0x201a <wipeArea+0x14e>
    2310: c8           	iny
    2311: 85 18        	sta	$18                     ; 0x2018 <wipeArea+0x14c>
    2313: a9 ff        	lda	#$ff
    2315: 91 1a        	sta	($1a),y                 ; 0x201a <wipeArea+0x14e>
    2317: 86 01        	stx	$1                      ; 0x2001 <wipeArea+0x135>
    2319: a5 1a        	lda	$1a                     ; 0x201a <wipeArea+0x14e>
    231b: 18           	clc
    231c: 69 04        	adc	#$4
    231e: 85 1a        	sta	$1a                     ; 0x201a <wipeArea+0x14e>
    2320: a5 1b        	lda	$1b                     ; 0x201b <wipeArea+0x14f>
    2322: 69 00        	adc	#$0
    2324: e6 18        	inc	$18                     ; 0x2018 <wipeArea+0x14c>
    2326: 85 1b        	sta	$1b                     ; 0x201b <wipeArea+0x14f>
    2328: a5 18        	lda	$18                     ; 0x2018 <wipeArea+0x14c>
    232a: d0 d7        	bne	$2303 <main+0xd5>
    232c: a9 00        	lda	#$0
    232e: a6 01        	ldx	$1                      ; 0x2001 <wipeArea+0x135>
    2330: a0 01        	ldy	#$1
    2332: 84 01        	sty	$1                      ; 0x2001 <wipeArea+0x135>
    2334: 92 14        	sta	($14)                   ; 0x2014 <wipeArea+0x148>
    2336: 91 14        	sta	($14),y                 ; 0x2014 <wipeArea+0x148>
    2338: c8           	iny
    2339: 91 14        	sta	($14),y                 ; 0x2014 <wipeArea+0x148>
    233b: c8           	iny
    233c: 85 18        	sta	$18                     ; 0x2018 <wipeArea+0x14c>
    233e: a9 ff        	lda	#$ff
    2340: 91 14        	sta	($14),y                 ; 0x2014 <wipeArea+0x148>
    2342: 86 01        	stx	$1                      ; 0x2001 <wipeArea+0x135>
    2344: a5 14        	lda	$14                     ; 0x2014 <wipeArea+0x148>
    2346: 18           	clc
    2347: 69 04        	adc	#$4
    2349: 85 14        	sta	$14                     ; 0x2014 <wipeArea+0x148>
    234b: a5 15        	lda	$15                     ; 0x2015 <wipeArea+0x149>
    234d: 69 00        	adc	#$0
    234f: e6 18        	inc	$18                     ; 0x2018 <wipeArea+0x14c>
    2351: 85 15        	sta	$15                     ; 0x2015 <wipeArea+0x149>
    2353: a5 18        	lda	$18                     ; 0x2018 <wipeArea+0x14c>
    2355: d0 d7        	bne	$232e <main+0x100>
    2357: a9 00        	lda	#$0
    2359: a6 01        	ldx	$1                      ; 0x2001 <wipeArea+0x135>
    235b: a0 01        	ldy	#$1
    235d: 84 01        	sty	$1                      ; 0x2001 <wipeArea+0x135>
    235f: 92 16        	sta	($16)                   ; 0x2016 <wipeArea+0x14a>
    2361: 91 16        	sta	($16),y                 ; 0x2016 <wipeArea+0x14a>
    2363: c8           	iny
    2364: 91 16        	sta	($16),y                 ; 0x2016 <wipeArea+0x14a>
    2366: c8           	iny
    2367: 85 14        	sta	$14                     ; 0x2014 <wipeArea+0x148>
    2369: a9 ff        	lda	#$ff
    236b: 91 16        	sta	($16),y                 ; 0x2016 <wipeArea+0x14a>
    236d: 86 01        	stx	$1                      ; 0x2001 <wipeArea+0x135>
    236f: a5 16        	lda	$16                     ; 0x2016 <wipeArea+0x14a>
    2371: 18           	clc
    2372: 69 04        	adc	#$4
    2374: 85 16        	sta	$16                     ; 0x2016 <wipeArea+0x14a>
    2376: a5 17        	lda	$17                     ; 0x2017 <wipeArea+0x14b>
    2378: 69 00        	adc	#$0
    237a: e6 14        	inc	$14                     ; 0x2014 <wipeArea+0x148>
    237c: 85 17        	sta	$17                     ; 0x2017 <wipeArea+0x14b>
    237e: a5 14        	lda	$14                     ; 0x2014 <wipeArea+0x148>
    2380: d0 d7        	bne	$2359 <main+0x12b>
    2382: ad 02 d0     	lda	$d002                   ; 0xd002 <__heap_start+0x3148>
    2385: a2 f0        	ldx	#$f0
    2387: 29 f0        	and	#$f0
    2389: 8d 02 d0     	sta	$d002                   ; 0xd002 <__heap_start+0x3148>
    238c: ad 02 d0     	lda	$d002                   ; 0xd002 <__heap_start+0x3148>
    238f: 29 0f        	and	#$f
    2391: 09 10        	ora	#$10
    2393: 8d 02 d0     	sta	$d002                   ; 0xd002 <__heap_start+0x3148>
    2396: a0 02        	ldy	#$2
    2398: 8c 03 d0     	sty	$d003                   ; 0xd003 <__heap_start+0x3149>
    239b: 86 33        	stx	$33                     ; 0x2033 <wipeArea+0x167>
    239d: ad 01 d0     	lda	$d001                   ; 0xd001 <__heap_start+0x3147>
    23a0: 29 f9        	and	#$f9
    23a2: 09 04        	ora	#$4
    23a4: 8d 01 d0     	sta	$d001                   ; 0xd001 <__heap_start+0x3147>
    23a7: 64 14        	stz	$14                     ; 0x2014 <wipeArea+0x148>
    23a9: 9c 10 d0     	stz	$d010                   ; 0xd010 <__heap_start+0x3156>
    23ac: a2 00        	ldx	#$0
    23ae: 64 15        	stz	$15                     ; 0x2015 <wipeArea+0x149>
    23b0: 86 18        	stx	$18                     ; 0x2018 <wipeArea+0x14c>
    23b2: a4 18        	ldy	$18                     ; 0x2018 <wipeArea+0x14c>
    23b4: be 77 6c     	ldx	$6c77,y                 ; 0x6c77 <textColors>
    23b7: 86 19        	stx	$19                     ; 0x2019 <wipeArea+0x14d>
    23b9: be 78 6c     	ldx	$6c78,y                 ; 0x6c78 <textColors+0x1>
    23bc: 86 1a        	stx	$1a                     ; 0x201a <wipeArea+0x14e>
    23be: be 79 6c     	ldx	$6c79,y                 ; 0x6c79 <textColors+0x2>
    23c1: 86 1b        	stx	$1b                     ; 0x201b <wipeArea+0x14f>
    23c3: a6 15        	ldx	$15                     ; 0x2015 <wipeArea+0x149>
    23c5: 8e 00 de     	stx	$de00                   ; 0xde00 <__heap_start+0x3f46>
    23c8: 86 17        	stx	$17                     ; 0x2017 <wipeArea+0x14b>
    23ca: 9c 01 de     	stz	$de01                   ; 0xde01 <__heap_start+0x3f47>
    23cd: a2 04        	ldx	#$4
    23cf: 8e 02 de     	stx	$de02                   ; 0xde02 <__heap_start+0x3f48>
    23d2: 9c 03 de     	stz	$de03                   ; 0xde03 <__heap_start+0x3f49>
    23d5: ad 10 de     	lda	$de10                   ; 0xde10 <__heap_start+0x3f56>
    23d8: ac 11 de     	ldy	$de11                   ; 0xde11 <__heap_start+0x3f57>
    23db: 84 15        	sty	$15                     ; 0x2015 <wipeArea+0x149>
    23dd: ac 12 de     	ldy	$de12                   ; 0xde12 <__heap_start+0x3f58>
    23e0: ac 13 de     	ldy	$de13                   ; 0xde13 <__heap_start+0x3f59>
    23e3: 18           	clc
    23e4: 65 14        	adc	$14                     ; 0x2014 <wipeArea+0x148>
    23e6: 85 16        	sta	$16                     ; 0x2016 <wipeArea+0x14a>
    23e8: a6 17        	ldx	$17                     ; 0x2017 <wipeArea+0x14b>
    23ea: a9 d8        	lda	#$d8
    23ec: 65 15        	adc	$15                     ; 0x2015 <wipeArea+0x149>
    23ee: 85 17        	sta	$17                     ; 0x2017 <wipeArea+0x14b>
    23f0: a5 1b        	lda	$1b                     ; 0x201b <wipeArea+0x14f>
    23f2: 92 16        	sta	($16)                   ; 0x2016 <wipeArea+0x14a>
    23f4: a0 01        	ldy	#$1
    23f6: a5 1a        	lda	$1a                     ; 0x201a <wipeArea+0x14e>
    23f8: 91 16        	sta	($16),y                 ; 0x2016 <wipeArea+0x14a>
    23fa: c8           	iny
    23fb: a5 19        	lda	$19                     ; 0x2019 <wipeArea+0x14d>
    23fd: 91 16        	sta	($16),y                 ; 0x2016 <wipeArea+0x14a>
    23ff: c8           	iny
    2400: a9 ff        	lda	#$ff
    2402: 91 16        	sta	($16),y                 ; 0x2016 <wipeArea+0x14a>
    2404: 8e 00 de     	stx	$de00                   ; 0xde00 <__heap_start+0x3f46>
    2407: 9c 01 de     	stz	$de01                   ; 0xde01 <__heap_start+0x3f47>
    240a: c8           	iny
    240b: 8c 02 de     	sty	$de02                   ; 0xde02 <__heap_start+0x3f48>
    240e: 9c 03 de     	stz	$de03                   ; 0xde03 <__heap_start+0x3f49>
    2411: ad 10 de     	lda	$de10                   ; 0xde10 <__heap_start+0x3f56>
    2414: 85 15        	sta	$15                     ; 0x2015 <wipeArea+0x149>
    2416: ad 11 de     	lda	$de11                   ; 0xde11 <__heap_start+0x3f57>
    2419: 85 16        	sta	$16                     ; 0x2016 <wipeArea+0x14a>
    241b: a9 40        	lda	#$40
    241d: 18           	clc
    241e: 65 15        	adc	$15                     ; 0x2015 <wipeArea+0x149>
    2420: a8           	tay
    2421: a9 d8        	lda	#$d8
    2423: 65 16        	adc	$16                     ; 0x2016 <wipeArea+0x14a>
    2425: 85 17        	sta	$17                     ; 0x2017 <wipeArea+0x14b>
    2427: 84 16        	sty	$16                     ; 0x2016 <wipeArea+0x14a>
    2429: ad 12 de     	lda	$de12                   ; 0xde12 <__heap_start+0x3f58>
    242c: ad 13 de     	lda	$de13                   ; 0xde13 <__heap_start+0x3f59>
    242f: a5 1b        	lda	$1b                     ; 0x201b <wipeArea+0x14f>
    2431: 92 16        	sta	($16)                   ; 0x2016 <wipeArea+0x14a>
    2433: a5 1a        	lda	$1a                     ; 0x201a <wipeArea+0x14e>
    2435: a0 01        	ldy	#$1
    2437: 91 16        	sta	($16),y                 ; 0x2016 <wipeArea+0x14a>
    2439: a5 19        	lda	$19                     ; 0x2019 <wipeArea+0x14d>
    243b: c8           	iny
    243c: 91 16        	sta	($16),y                 ; 0x2016 <wipeArea+0x14a>
    243e: c8           	iny
    243f: a9 ff        	lda	#$ff
    2441: 91 16        	sta	($16),y                 ; 0x2016 <wipeArea+0x14a>
    2443: e8           	inx
    2444: 86 15        	stx	$15                     ; 0x2015 <wipeArea+0x149>
    2446: 18           	clc
    2447: a5 18        	lda	$18                     ; 0x2018 <wipeArea+0x14c>
    2449: 69 03        	adc	#$3
    244b: aa           	tax
    244c: c9 30        	cmp	#$30
    244e: f0 03        	beq	$2453 <main+0x225>
    2450: 4c b0 23     	jmp	$23b0 <main+0x182>
    2453: a6 01        	ldx	$1                      ; 0x2001 <wipeArea+0x135>
    2455: 86 18        	stx	$18                     ; 0x2018 <wipeArea+0x14c>
    2457: a2 50        	ldx	#$50
    2459: 8e 00 de     	stx	$de00                   ; 0xde00 <__heap_start+0x3f46>
    245c: 9c 01 de     	stz	$de01                   ; 0xde01 <__heap_start+0x3f47>
    245f: a2 1e        	ldx	#$1e
    2461: 8e 02 de     	stx	$de02                   ; 0xde02 <__heap_start+0x3f48>
    2464: 9c 03 de     	stz	$de03                   ; 0xde03 <__heap_start+0x3f49>
    2467: ae 10 de     	ldx	$de10                   ; 0xde10 <__heap_start+0x3f56>
    246a: ac 11 de     	ldy	$de11                   ; 0xde11 <__heap_start+0x3f57>
    246d: ad 12 de     	lda	$de12                   ; 0xde12 <__heap_start+0x3f58>
    2470: ad 13 de     	lda	$de13                   ; 0xde13 <__heap_start+0x3f59>
    2473: a9 02        	lda	#$2
    2475: 85 01        	sta	$1                      ; 0x2001 <wipeArea+0x135>
    2477: e0 01        	cpx	#$1
    2479: 98           	tya
    247a: e9 00        	sbc	#$0
    247c: 50 02        	bvc	$2480 <main+0x252>
    247e: 49 80        	eor	#$80
    2480: c9 00        	cmp	#$0
    2482: 10 03        	bpl	$2487 <main+0x259>
    2484: 4c e2 24     	jmp	$24e2 <main+0x2b4>
    2487: a9 20        	lda	#$20
    2489: 86 19        	stx	$19                     ; 0x2019 <wipeArea+0x14d>
    248b: 86 14        	stx	$14                     ; 0x2014 <wipeArea+0x148>
    248d: 84 15        	sty	$15                     ; 0x2015 <wipeArea+0x149>
    248f: a2 00        	ldx	#$0
    2491: 86 16        	stx	$16                     ; 0x2016 <wipeArea+0x14a>
    2493: a2 c0        	ldx	#$c0
    2495: 86 17        	stx	$17                     ; 0x2017 <wipeArea+0x14b>
    2497: 80 04        	bra	$249d <main+0x26f>
    2499: a6 15        	ldx	$15                     ; 0x2015 <wipeArea+0x149>
    249b: f0 14        	beq	$24b1 <main+0x283>
    249d: 92 16        	sta	($16)                   ; 0x2016 <wipeArea+0x14a>
    249f: e6 16        	inc	$16                     ; 0x2016 <wipeArea+0x14a>
    24a1: d0 02        	bne	$24a5 <main+0x277>
    24a3: e6 17        	inc	$17                     ; 0x2017 <wipeArea+0x14b>
    24a5: a2 ff        	ldx	#$ff
    24a7: c6 14        	dec	$14                     ; 0x2014 <wipeArea+0x148>
    24a9: e4 14        	cpx	$14                     ; 0x2014 <wipeArea+0x148>
    24ab: d0 ec        	bne	$2499 <main+0x26b>
    24ad: c6 15        	dec	$15                     ; 0x2015 <wipeArea+0x149>
    24af: 80 e8        	bra	$2499 <main+0x26b>
    24b1: a6 14        	ldx	$14                     ; 0x2014 <wipeArea+0x148>
    24b3: d0 e8        	bne	$249d <main+0x26f>
    24b5: a2 03        	ldx	#$3
    24b7: 86 01        	stx	$1                      ; 0x2001 <wipeArea+0x135>
    24b9: a6 33        	ldx	$33                     ; 0x2033 <wipeArea+0x167>
    24bb: 86 14        	stx	$14                     ; 0x2014 <wipeArea+0x148>
    24bd: a6 19        	ldx	$19                     ; 0x2019 <wipeArea+0x14d>
    24bf: 80 03        	bra	$24c4 <main+0x296>
    24c1: 98           	tya
    24c2: f0 19        	beq	$24dd <main+0x2af>
    24c4: a5 14        	lda	$14                     ; 0x2014 <wipeArea+0x148>
    24c6: 92 12        	sta	($12)                   ; 0x2012 <wipeArea+0x146>
    24c8: e6 12        	inc	$12                     ; 0x2012 <wipeArea+0x146>
    24ca: f0 07        	beq	$24d3 <main+0x2a5>
    24cc: ca           	dex
    24cd: e0 ff        	cpx	#$ff
    24cf: d0 f0        	bne	$24c1 <main+0x293>
    24d1: 80 07        	bra	$24da <main+0x2ac>
    24d3: e6 13        	inc	$13                     ; 0x2013 <wipeArea+0x147>
    24d5: ca           	dex
    24d6: e0 ff        	cpx	#$ff
    24d8: d0 e7        	bne	$24c1 <main+0x293>
    24da: 88           	dey
    24db: 80 e4        	bra	$24c1 <main+0x293>
    24dd: 8a           	txa
    24de: d0 e4        	bne	$24c4 <main+0x296>
    24e0: 80 04        	bra	$24e6 <main+0x2b8>
    24e2: a2 03        	ldx	#$3
    24e4: 86 01        	stx	$1                      ; 0x2001 <wipeArea+0x135>
    24e6: a6 18        	ldx	$18                     ; 0x2018 <wipeArea+0x14c>
    24e8: 86 01        	stx	$1                      ; 0x2001 <wipeArea+0x135>
    24ea: 64 53        	stz	$53                     ; 0x2053 <wipeArea+0x187>
    24ec: 9c 14 d0     	stz	$d014                   ; 0xd014 <__heap_start+0x315a>
    24ef: 9c 15 d0     	stz	$d015                   ; 0xd015 <__heap_start+0x315b>
    24f2: 64 54        	stz	$54                     ; 0x2054 <wipeArea+0x188>
    24f4: 9c 16 d0     	stz	$d016                   ; 0xd016 <__heap_start+0x315c>
    24f7: 9c 17 d0     	stz	$d017                   ; 0xd017 <__heap_start+0x315d>
    24fa: a2 40        	ldx	#$40
    24fc: 8e 00 de     	stx	$de00                   ; 0xde00 <__heap_start+0x3f46>
    24ff: a2 01        	ldx	#$1
    2501: 8e 01 de     	stx	$de01                   ; 0xde01 <__heap_start+0x3f47>
    2504: a2 f0        	ldx	#$f0
    2506: 8e 02 de     	stx	$de02                   ; 0xde02 <__heap_start+0x3f48>
    2509: 9c 03 de     	stz	$de03                   ; 0xde03 <__heap_start+0x3f49>
    250c: ae 10 de     	ldx	$de10                   ; 0xde10 <__heap_start+0x3f56>
    250f: 86 17        	stx	$17                     ; 0x2017 <wipeArea+0x14b>
    2511: ae 11 de     	ldx	$de11                   ; 0xde11 <__heap_start+0x3f57>
    2514: 86 12        	stx	$12                     ; 0x2012 <wipeArea+0x146>
    2516: ae 12 de     	ldx	$de12                   ; 0xde12 <__heap_start+0x3f58>
    2519: 86 13        	stx	$13                     ; 0x2013 <wipeArea+0x147>
    251b: ae 13 de     	ldx	$de13                   ; 0xde13 <__heap_start+0x3f59>
    251e: 86 14        	stx	$14                     ; 0x2014 <wipeArea+0x148>
    2520: a4 12        	ldy	$12                     ; 0x2012 <wipeArea+0x146>
    2522: 84 15        	sty	$15                     ; 0x2015 <wipeArea+0x149>
    2524: 06 15        	asl	$15                     ; 0x2015 <wipeArea+0x149>
    2526: a5 13        	lda	$13                     ; 0x2013 <wipeArea+0x147>
    2528: 2a           	rol
    2529: 86 16        	stx	$16                     ; 0x2016 <wipeArea+0x14a>
    252b: 26 16        	rol	$16                     ; 0x2016 <wipeArea+0x14a>
    252d: 06 15        	asl	$15                     ; 0x2015 <wipeArea+0x149>
    252f: 2a           	rol
    2530: 26 16        	rol	$16                     ; 0x2016 <wipeArea+0x14a>
    2532: 06 15        	asl	$15                     ; 0x2015 <wipeArea+0x149>
    2534: 2a           	rol
    2535: 26 16        	rol	$16                     ; 0x2016 <wipeArea+0x14a>
    2537: 85 15        	sta	$15                     ; 0x2015 <wipeArea+0x149>
    2539: 8d 00 de     	sta	$de00                   ; 0xde00 <__heap_start+0x3f46>
    253c: a5 16        	lda	$16                     ; 0x2016 <wipeArea+0x14a>
    253e: 8d 01 de     	sta	$de01                   ; 0xde01 <__heap_start+0x3f47>
    2541: 9c 02 de     	stz	$de02                   ; 0xde02 <__heap_start+0x3f48>
    2544: a2 20        	ldx	#$20
    2546: 8e 03 de     	stx	$de03                   ; 0xde03 <__heap_start+0x3f49>
    2549: ae 10 de     	ldx	$de10                   ; 0xde10 <__heap_start+0x3f56>
    254c: 86 16        	stx	$16                     ; 0x2016 <wipeArea+0x14a>
    254e: ae 11 de     	ldx	$de11                   ; 0xde11 <__heap_start+0x3f57>
    2551: 86 18        	stx	$18                     ; 0x2018 <wipeArea+0x14c>
    2553: ac 12 de     	ldy	$de12                   ; 0xde12 <__heap_start+0x3f58>
    2556: ae 13 de     	ldx	$de13                   ; 0xde13 <__heap_start+0x3f59>
    2559: e4 14        	cpx	$14                     ; 0x2014 <wipeArea+0x148>
    255b: d0 14        	bne	$2571 <main+0x343>
    255d: c4 13        	cpy	$13                     ; 0x2013 <wipeArea+0x147>
    255f: d0 10        	bne	$2571 <main+0x343>
    2561: a6 18        	ldx	$18                     ; 0x2018 <wipeArea+0x14c>
    2563: e4 12        	cpx	$12                     ; 0x2012 <wipeArea+0x146>
    2565: d0 0a        	bne	$2571 <main+0x343>
    2567: a6 16        	ldx	$16                     ; 0x2016 <wipeArea+0x14a>
    2569: e4 17        	cpx	$17                     ; 0x2017 <wipeArea+0x14b>
    256b: d0 04        	bne	$2571 <main+0x343>
    256d: a6 15        	ldx	$15                     ; 0x2015 <wipeArea+0x149>
    256f: 80 06        	bra	$2577 <main+0x349>
    2571: a6 15        	ldx	$15                     ; 0x2015 <wipeArea+0x149>
    2573: e8           	inx
    2574: d0 01        	bne	$2577 <main+0x349>
    2576: 1a           	inc
    2577: 8e 00 de     	stx	$de00                   ; 0xde00 <__heap_start+0x3f46>
    257a: 8d 01 de     	sta	$de01                   ; 0xde01 <__heap_start+0x3f47>
    257d: 9c 02 de     	stz	$de02                   ; 0xde02 <__heap_start+0x3f48>
    2580: a2 20        	ldx	#$20
    2582: 8e 03 de     	stx	$de03                   ; 0xde03 <__heap_start+0x3f49>
    2585: ae 10 de     	ldx	$de10                   ; 0xde10 <__heap_start+0x3f56>
    2588: 86 12        	stx	$12                     ; 0x2012 <wipeArea+0x146>
    258a: ae 11 de     	ldx	$de11                   ; 0xde11 <__heap_start+0x3f57>
    258d: 86 13        	stx	$13                     ; 0x2013 <wipeArea+0x147>
    258f: ae 12 de     	ldx	$de12                   ; 0xde12 <__heap_start+0x3f58>
    2592: 86 14        	stx	$14                     ; 0x2014 <wipeArea+0x148>
    2594: ae 13 de     	ldx	$de13                   ; 0xde13 <__heap_start+0x3f59>
    2597: 86 15        	stx	$15                     ; 0x2015 <wipeArea+0x149>
    2599: a9 00        	lda	#$0
    259b: 38           	sec
    259c: e5 12        	sbc	$12                     ; 0x2012 <wipeArea+0x146>
    259e: 85 19        	sta	$19                     ; 0x2019 <wipeArea+0x14d>
    25a0: a9 00        	lda	#$0
    25a2: e5 13        	sbc	$13                     ; 0x2013 <wipeArea+0x147>
    25a4: aa           	tax
    25a5: a9 08        	lda	#$8
    25a7: e5 14        	sbc	$14                     ; 0x2014 <wipeArea+0x148>
    25a9: 85 16        	sta	$16                     ; 0x2016 <wipeArea+0x14a>
    25ab: a9 00        	lda	#$0
    25ad: e5 15        	sbc	$15                     ; 0x2015 <wipeArea+0x149>
    25af: 8e b6 9c     	stx	$9cb6                   ; 0x9cb6 <_BITMAP_BASE.0+0x1>
    25b2: a4 16        	ldy	$16                     ; 0x2016 <wipeArea+0x14a>
    25b4: 8c b7 9c     	sty	$9cb7                   ; 0x9cb7 <_BITMAP_BASE.0+0x2>
    25b7: 8d b8 9c     	sta	$9cb8                   ; 0x9cb8 <_BITMAP_BASE.0+0x3>
    25ba: a8           	tay
    25bb: 38           	sec
    25bc: a5 19        	lda	$19                     ; 0x2019 <wipeArea+0x14d>
    25be: e5 12        	sbc	$12                     ; 0x2012 <wipeArea+0x146>
    25c0: 85 18        	sta	$18                     ; 0x2018 <wipeArea+0x14c>
    25c2: 8a           	txa
    25c3: e5 13        	sbc	$13                     ; 0x2013 <wipeArea+0x147>
    25c5: 85 1a        	sta	$1a                     ; 0x201a <wipeArea+0x14e>
    25c7: a5 16        	lda	$16                     ; 0x2016 <wipeArea+0x14a>
    25c9: e5 14        	sbc	$14                     ; 0x2014 <wipeArea+0x148>
    25cb: 85 16        	sta	$16                     ; 0x2016 <wipeArea+0x14a>
    25cd: 98           	tya
    25ce: e5 15        	sbc	$15                     ; 0x2015 <wipeArea+0x149>
    25d0: 85 17        	sta	$17                     ; 0x2017 <wipeArea+0x14b>
    25d2: 38           	sec
    25d3: a4 18        	ldy	$18                     ; 0x2018 <wipeArea+0x14c>
    25d5: 8c b9 9c     	sty	$9cb9                   ; 0x9cb9 <_BITMAP_BASE.1>
    25d8: a6 1a        	ldx	$1a                     ; 0x201a <wipeArea+0x14e>
    25da: 8e ba 9c     	stx	$9cba                   ; 0x9cba <_BITMAP_BASE.1+0x1>
    25dd: a4 16        	ldy	$16                     ; 0x2016 <wipeArea+0x14a>
    25df: 8c bb 9c     	sty	$9cbb                   ; 0x9cbb <_BITMAP_BASE.1+0x2>
    25e2: 8d bc 9c     	sta	$9cbc                   ; 0x9cbc <_BITMAP_BASE.1+0x3>
    25e5: a5 18        	lda	$18                     ; 0x2018 <wipeArea+0x14c>
    25e7: e5 12        	sbc	$12                     ; 0x2012 <wipeArea+0x146>
    25e9: 85 18        	sta	$18                     ; 0x2018 <wipeArea+0x14c>
    25eb: a5 1a        	lda	$1a                     ; 0x201a <wipeArea+0x14e>
    25ed: e5 13        	sbc	$13                     ; 0x2013 <wipeArea+0x147>
    25ef: a8           	tay
    25f0: a5 16        	lda	$16                     ; 0x2016 <wipeArea+0x14a>
    25f2: e5 14        	sbc	$14                     ; 0x2014 <wipeArea+0x148>
    25f4: 85 12        	sta	$12                     ; 0x2012 <wipeArea+0x146>
    25f6: a5 17        	lda	$17                     ; 0x2017 <wipeArea+0x14b>
    25f8: e5 15        	sbc	$15                     ; 0x2015 <wipeArea+0x149>
    25fa: a6 18        	ldx	$18                     ; 0x2018 <wipeArea+0x14c>
    25fc: 8e bd 9c     	stx	$9cbd                   ; 0x9cbd <_BITMAP_BASE.2>
    25ff: 8c be 9c     	sty	$9cbe                   ; 0x9cbe <_BITMAP_BASE.2+0x1>
    2602: a6 19        	ldx	$19                     ; 0x2019 <wipeArea+0x14d>
    2604: 8e b5 9c     	stx	$9cb5                   ; 0x9cb5 <_BITMAP_BASE.0>
    2607: a4 12        	ldy	$12                     ; 0x2012 <wipeArea+0x146>
    2609: 8c bf 9c     	sty	$9cbf                   ; 0x9cbf <_BITMAP_BASE.2+0x2>
    260c: 8d c0 9c     	sta	$9cc0                   ; 0x9cc0 <_BITMAP_BASE.2+0x3>
    260f: 8e 01 d1     	stx	$d101                   ; 0xd101 <__heap_start+0x3247>
    2612: ae b6 9c     	ldx	$9cb6                   ; 0x9cb6 <_BITMAP_BASE.0+0x1>
    2615: 8e 02 d1     	stx	$d102                   ; 0xd102 <__heap_start+0x3248>
    2618: ae b7 9c     	ldx	$9cb7                   ; 0x9cb7 <_BITMAP_BASE.0+0x2>
    261b: 8e 03 d1     	stx	$d103                   ; 0xd103 <__heap_start+0x3249>
    261e: ae b9 9c     	ldx	$9cb9                   ; 0x9cb9 <_BITMAP_BASE.1>
    2621: 8e 09 d1     	stx	$d109                   ; 0xd109 <__heap_start+0x324f>
    2624: ae ba 9c     	ldx	$9cba                   ; 0x9cba <_BITMAP_BASE.1+0x1>
    2627: 8e 0a d1     	stx	$d10a                   ; 0xd10a <__heap_start+0x3250>
    262a: ae bb 9c     	ldx	$9cbb                   ; 0x9cbb <_BITMAP_BASE.1+0x2>
    262d: 8e 0b d1     	stx	$d10b                   ; 0xd10b <__heap_start+0x3251>
    2630: ae bd 9c     	ldx	$9cbd                   ; 0x9cbd <_BITMAP_BASE.2>
    2633: 8e 11 d1     	stx	$d111                   ; 0xd111 <__heap_start+0x3257>
    2636: ae be 9c     	ldx	$9cbe                   ; 0x9cbe <_BITMAP_BASE.2+0x1>
    2639: 8e 12 d1     	stx	$d112                   ; 0xd112 <__heap_start+0x3258>
    263c: ae bf 9c     	ldx	$9cbf                   ; 0x9cbf <_BITMAP_BASE.2+0x2>
    263f: 8e 13 d1     	stx	$d113                   ; 0xd113 <__heap_start+0x3259>
    2642: 9c 00 d1     	stz	$d100                   ; 0xd100 <__heap_start+0x3246>
    2645: 9c 08 d1     	stz	$d108                   ; 0xd108 <__heap_start+0x324e>
    2648: 9c 10 d1     	stz	$d110                   ; 0xd110 <__heap_start+0x3256>
    264b: a2 10        	ldx	#$10
    264d: 8e 00 d2     	stx	$d200                   ; 0xd200 <__heap_start+0x3346>
    2650: 8e 0c d2     	stx	$d20c                   ; 0xd20c <__heap_start+0x3352>
    2653: 8e 18 d2     	stx	$d218                   ; 0xd218 <__heap_start+0x335e>
    2656: a0 d9        	ldy	#$d9
    2658: a2 40        	ldx	#$40
    265a: 64 12        	stz	$12                     ; 0x2012 <wipeArea+0x146>
    265c: 84 13        	sty	$13                     ; 0x2013 <wipeArea+0x147>
    265e: a9 00        	lda	#$0
    2660: 92 12        	sta	($12)                   ; 0x2012 <wipeArea+0x146>
    2662: ca           	dex
    2663: 18           	clc
    2664: a5 12        	lda	$12                     ; 0x2012 <wipeArea+0x146>
    2666: 69 08        	adc	#$8
    2668: 85 12        	sta	$12                     ; 0x2012 <wipeArea+0x146>
    266a: 98           	tya
    266b: 69 00        	adc	#$0
    266d: a8           	tay
    266e: 8a           	txa
    266f: d0 eb        	bne	$265c <main+0x42e>
    2671: 64 55        	stz	$55                     ; 0x2055 <wipeArea+0x189>
    2673: 64 56        	stz	$56                     ; 0x2056 <wipeArea+0x18a>
    2675: 64 57        	stz	$57                     ; 0x2057 <wipeArea+0x18b>
    2677: 64 58        	stz	$58                     ; 0x2058 <wipeArea+0x18c>
    2679: 64 59        	stz	$59                     ; 0x2059 <wipeArea+0x18d>
    267b: 64 5a        	stz	$5a                     ; 0x205a <wipeArea+0x18e>
    267d: 64 5b        	stz	$5b                     ; 0x205b <wipeArea+0x18f>
    267f: 64 5c        	stz	$5c                     ; 0x205c <wipeArea+0x190>
    2681: 18           	clc
    2682: a5 10        	lda	$10                     ; 0x2010 <wipeArea+0x144>
    2684: 69 26        	adc	#$26
    2686: 85 26        	sta	$26                     ; 0x2026 <wipeArea+0x15a>
    2688: a5 11        	lda	$11                     ; 0x2011 <wipeArea+0x145>
    268a: 69 00        	adc	#$0
    268c: 85 27        	sta	$27                     ; 0x2027 <wipeArea+0x15b>
    268e: a6 26        	ldx	$26                     ; 0x2026 <wipeArea+0x15a>
    2690: 86 fb        	stx	$fb                     ; 0x20fb <opl3_initialize+0x7>
    2692: 85 fc        	sta	$fc                     ; 0x20fc <opl3_initialize+0x8>
    2694: a2 08        	ldx	#$8
    2696: 86 fd        	stx	$fd                     ; 0x20fd <opl3_initialize+0x9>
    2698: 18           	clc
    2699: a5 10        	lda	$10                     ; 0x2010 <wipeArea+0x144>
    269b: 69 68        	adc	#$68
    269d: 85 16        	sta	$16                     ; 0x2016 <wipeArea+0x14a>
    269f: a5 11        	lda	$11                     ; 0x2011 <wipeArea+0x145>
    26a1: 69 00        	adc	#$0
    26a3: 85 17        	sta	$17                     ; 0x2017 <wipeArea+0x14b>
    26a5: a2 52        	ldx	#$52
    26a7: 86 12        	stx	$12                     ; 0x2012 <wipeArea+0x146>
    26a9: a2 00        	ldx	#$0
    26ab: 86 13        	stx	$13                     ; 0x2013 <wipeArea+0x147>
    26ad: a0 06        	ldy	#$6
    26af: 5a           	phy
    26b0: a5 16        	lda	$16                     ; 0x2016 <wipeArea+0x14a>
    26b2: a0 19        	ldy	#$19
    26b4: 91 10        	sta	($10),y                 ; 0x2010 <wipeArea+0x144>
    26b6: a5 17        	lda	$17                     ; 0x2017 <wipeArea+0x14b>
    26b8: c8           	iny
    26b9: 91 10        	sta	($10),y                 ; 0x2010 <wipeArea+0x144>
    26bb: 7a           	ply
    26bc: 20 dc ff     	jsr	$ffdc <__heap_start+0x6122>
    26bf: 92 16        	sta	($16)                   ; 0x2016 <wipeArea+0x14a>
    26c1: a9 00        	lda	#$0
    26c3: 6a           	ror
    26c4: 85 12        	sta	$12                     ; 0x2012 <wipeArea+0x146>
    26c6: b1 26        	lda	($26),y                 ; 0x2026 <wipeArea+0x15a>
    26c8: 85 12        	sta	$12                     ; 0x2012 <wipeArea+0x146>
    26ca: a0 07        	ldy	#$7
    26cc: b1 26        	lda	($26),y                 ; 0x2026 <wipeArea+0x15a>
    26ce: a6 12        	ldx	$12                     ; 0x2012 <wipeArea+0x146>
    26d0: 8e 00 de     	stx	$de00                   ; 0xde00 <__heap_start+0x3f46>
    26d3: 9c 01 de     	stz	$de01                   ; 0xde01 <__heap_start+0x3f47>
    26d6: 8d 02 de     	sta	$de02                   ; 0xde02 <__heap_start+0x3f48>
    26d9: 9c 03 de     	stz	$de03                   ; 0xde03 <__heap_start+0x3f49>
    26dc: ae 10 de     	ldx	$de10                   ; 0xde10 <__heap_start+0x3f56>
    26df: ac 11 de     	ldy	$de11                   ; 0xde11 <__heap_start+0x3f57>
    26e2: ad 12 de     	lda	$de12                   ; 0xde12 <__heap_start+0x3f58>
    26e5: ad 13 de     	lda	$de13                   ; 0xde13 <__heap_start+0x3f59>
    26e8: 8e a4 d6     	stx	$d6a4                   ; 0xd6a4 <__heap_start+0x37ea>
    26eb: 8c a5 d6     	sty	$d6a5                   ; 0xd6a5 <__heap_start+0x37eb>
    26ee: a2 03        	ldx	#$3
    26f0: 8e a6 d6     	stx	$d6a6                   ; 0xd6a6 <__heap_start+0x37ec>
    26f3: a0 00        	ldy	#$0
    26f5: 64 01        	stz	$1                      ; 0x2001 <wipeArea+0x135>
    26f7: a2 0f        	ldx	#$f
    26f9: 8e 00 d0     	stx	$d000                   ; 0xd000 <__heap_start+0x3146>
    26fc: a2 04        	ldx	#$4
    26fe: 8e 01 d0     	stx	$d001                   ; 0xd001 <__heap_start+0x3147>
    2701: a2 10        	ldx	#$10
    2703: 8e 02 d0     	stx	$d002                   ; 0xd002 <__heap_start+0x3148>
    2706: 9c 0d d0     	stz	$d00d                   ; 0xd00d <__heap_start+0x3153>
    2709: 9c 0e d0     	stz	$d00e                   ; 0xd00e <__heap_start+0x3154>
    270c: 9c 0f d0     	stz	$d00f                   ; 0xd00f <__heap_start+0x3155>
    270f: a2 01        	ldx	#$1
    2711: 86 01        	stx	$1                      ; 0x2001 <wipeArea+0x135>
    2713: a2 d0        	ldx	#$d0
    2715: 18           	clc
    2716: 84 16        	sty	$16                     ; 0x2016 <wipeArea+0x14a>
    2718: 98           	tya
    2719: 69 00        	adc	#$0
    271b: 85 14        	sta	$14                     ; 0x2014 <wipeArea+0x148>
    271d: 8a           	txa
    271e: 69 10        	adc	#$10
    2720: 85 15        	sta	$15                     ; 0x2015 <wipeArea+0x149>
    2722: 84 12        	sty	$12                     ; 0x2012 <wipeArea+0x146>
    2724: 86 13        	stx	$13                     ; 0x2013 <wipeArea+0x147>
    2726: a4 0f        	ldy	$f                      ; 0x200f <wipeArea+0x143>
    2728: 78           	sei
    2729: a9 10        	lda	#$10
    272b: 85 0f        	sta	$f                      ; 0x200f <wipeArea+0x143>
    272d: b2 14        	lda	($14)                   ; 0x2014 <wipeArea+0x148>
    272f: 84 0f        	sty	$f                      ; 0x200f <wipeArea+0x143>
    2731: 58           	cli
    2732: 92 12        	sta	($12)                   ; 0x2012 <wipeArea+0x146>
    2734: a4 16        	ldy	$16                     ; 0x2016 <wipeArea+0x14a>
    2736: c8           	iny
    2737: f0 06        	beq	$273f <main+0x511>
    2739: e0 d3        	cpx	#$d3
    273b: d0 d8        	bne	$2715 <main+0x4e7>
    273d: 80 05        	bra	$2744 <main+0x516>
    273f: e8           	inx
    2740: e0 d3        	cpx	#$d3
    2742: d0 d1        	bne	$2715 <main+0x4e7>
    2744: c0 ff        	cpy	#$ff
    2746: d0 cd        	bne	$2715 <main+0x4e7>
    2748: 64 01        	stz	$1                      ; 0x2001 <wipeArea+0x135>
    274a: a2 40        	ldx	#$40
    274c: 8e 00 de     	stx	$de00                   ; 0xde00 <__heap_start+0x3f46>
    274f: a2 01        	ldx	#$1
    2751: 8e 01 de     	stx	$de01                   ; 0xde01 <__heap_start+0x3f47>
    2754: a2 f0        	ldx	#$f0
    2756: 8e 02 de     	stx	$de02                   ; 0xde02 <__heap_start+0x3f48>
    2759: 9c 03 de     	stz	$de03                   ; 0xde03 <__heap_start+0x3f49>
    275c: ae 10 de     	ldx	$de10                   ; 0xde10 <__heap_start+0x3f56>
    275f: 86 17        	stx	$17                     ; 0x2017 <wipeArea+0x14b>
    2761: ae 11 de     	ldx	$de11                   ; 0xde11 <__heap_start+0x3f57>
    2764: 86 12        	stx	$12                     ; 0x2012 <wipeArea+0x146>
    2766: ae 12 de     	ldx	$de12                   ; 0xde12 <__heap_start+0x3f58>
    2769: 86 13        	stx	$13                     ; 0x2013 <wipeArea+0x147>
    276b: ae 13 de     	ldx	$de13                   ; 0xde13 <__heap_start+0x3f59>
    276e: 86 14        	stx	$14                     ; 0x2014 <wipeArea+0x148>
    2770: a4 12        	ldy	$12                     ; 0x2012 <wipeArea+0x146>
    2772: 84 15        	sty	$15                     ; 0x2015 <wipeArea+0x149>
    2774: 06 15        	asl	$15                     ; 0x2015 <wipeArea+0x149>
    2776: a5 13        	lda	$13                     ; 0x2013 <wipeArea+0x147>
    2778: 2a           	rol
    2779: 86 16        	stx	$16                     ; 0x2016 <wipeArea+0x14a>
    277b: 26 16        	rol	$16                     ; 0x2016 <wipeArea+0x14a>
    277d: 06 15        	asl	$15                     ; 0x2015 <wipeArea+0x149>
    277f: 2a           	rol
    2780: 26 16        	rol	$16                     ; 0x2016 <wipeArea+0x14a>
    2782: 06 15        	asl	$15                     ; 0x2015 <wipeArea+0x149>
    2784: 2a           	rol
    2785: 26 16        	rol	$16                     ; 0x2016 <wipeArea+0x14a>
    2787: 85 15        	sta	$15                     ; 0x2015 <wipeArea+0x149>
    2789: 8d 00 de     	sta	$de00                   ; 0xde00 <__heap_start+0x3f46>
    278c: a5 16        	lda	$16                     ; 0x2016 <wipeArea+0x14a>
    278e: 8d 01 de     	sta	$de01                   ; 0xde01 <__heap_start+0x3f47>
    2791: 9c 02 de     	stz	$de02                   ; 0xde02 <__heap_start+0x3f48>
    2794: a2 20        	ldx	#$20
    2796: 8e 03 de     	stx	$de03                   ; 0xde03 <__heap_start+0x3f49>
    2799: ae 10 de     	ldx	$de10                   ; 0xde10 <__heap_start+0x3f56>
    279c: 86 16        	stx	$16                     ; 0x2016 <wipeArea+0x14a>
    279e: ae 11 de     	ldx	$de11                   ; 0xde11 <__heap_start+0x3f57>
    27a1: 86 18        	stx	$18                     ; 0x2018 <wipeArea+0x14c>
    27a3: ac 12 de     	ldy	$de12                   ; 0xde12 <__heap_start+0x3f58>
    27a6: ae 13 de     	ldx	$de13                   ; 0xde13 <__heap_start+0x3f59>
    27a9: e4 14        	cpx	$14                     ; 0x2014 <wipeArea+0x148>
    27ab: d0 14        	bne	$27c1 <main+0x593>
    27ad: c4 13        	cpy	$13                     ; 0x2013 <wipeArea+0x147>
    27af: d0 10        	bne	$27c1 <main+0x593>
    27b1: a6 18        	ldx	$18                     ; 0x2018 <wipeArea+0x14c>
    27b3: e4 12        	cpx	$12                     ; 0x2012 <wipeArea+0x146>
    27b5: d0 0a        	bne	$27c1 <main+0x593>
    27b7: a6 16        	ldx	$16                     ; 0x2016 <wipeArea+0x14a>
    27b9: e4 17        	cpx	$17                     ; 0x2017 <wipeArea+0x14b>
    27bb: d0 04        	bne	$27c1 <main+0x593>
    27bd: a6 15        	ldx	$15                     ; 0x2015 <wipeArea+0x149>
    27bf: 80 06        	bra	$27c7 <main+0x599>
    27c1: a6 15        	ldx	$15                     ; 0x2015 <wipeArea+0x149>
    27c3: e8           	inx
    27c4: d0 01        	bne	$27c7 <main+0x599>
    27c6: 1a           	inc
    27c7: 8e 00 de     	stx	$de00                   ; 0xde00 <__heap_start+0x3f46>
    27ca: 8d 01 de     	sta	$de01                   ; 0xde01 <__heap_start+0x3f47>
    27cd: 9c 02 de     	stz	$de02                   ; 0xde02 <__heap_start+0x3f48>
    27d0: a2 20        	ldx	#$20
    27d2: 8e 03 de     	stx	$de03                   ; 0xde03 <__heap_start+0x3f49>
    27d5: ae 10 de     	ldx	$de10                   ; 0xde10 <__heap_start+0x3f56>
    27d8: 86 12        	stx	$12                     ; 0x2012 <wipeArea+0x146>
    27da: ae 11 de     	ldx	$de11                   ; 0xde11 <__heap_start+0x3f57>
    27dd: 86 13        	stx	$13                     ; 0x2013 <wipeArea+0x147>
    27df: ae 12 de     	ldx	$de12                   ; 0xde12 <__heap_start+0x3f58>
    27e2: 86 14        	stx	$14                     ; 0x2014 <wipeArea+0x148>
    27e4: ae 13 de     	ldx	$de13                   ; 0xde13 <__heap_start+0x3f59>
    27e7: 86 15        	stx	$15                     ; 0x2015 <wipeArea+0x149>
    27e9: a9 00        	lda	#$0
    27eb: 38           	sec
    27ec: e5 12        	sbc	$12                     ; 0x2012 <wipeArea+0x146>
    27ee: 85 19        	sta	$19                     ; 0x2019 <wipeArea+0x14d>
    27f0: a9 00        	lda	#$0
    27f2: e5 13        	sbc	$13                     ; 0x2013 <wipeArea+0x147>
    27f4: a8           	tay
    27f5: a9 08        	lda	#$8
    27f7: e5 14        	sbc	$14                     ; 0x2014 <wipeArea+0x148>
    27f9: 85 17        	sta	$17                     ; 0x2017 <wipeArea+0x14b>
    27fb: a9 00        	lda	#$0
    27fd: e5 15        	sbc	$15                     ; 0x2015 <wipeArea+0x149>
    27ff: aa           	tax
    2800: 8c b6 9c     	sty	$9cb6                   ; 0x9cb6 <_BITMAP_BASE.0+0x1>
    2803: a5 17        	lda	$17                     ; 0x2017 <wipeArea+0x14b>
    2805: 8d b7 9c     	sta	$9cb7                   ; 0x9cb7 <_BITMAP_BASE.0+0x2>
    2808: 8e b8 9c     	stx	$9cb8                   ; 0x9cb8 <_BITMAP_BASE.0+0x3>
    280b: 38           	sec
    280c: a5 19        	lda	$19                     ; 0x2019 <wipeArea+0x14d>
    280e: e5 12        	sbc	$12                     ; 0x2012 <wipeArea+0x146>
    2810: 85 18        	sta	$18                     ; 0x2018 <wipeArea+0x14c>
    2812: 98           	tya
    2813: e5 13        	sbc	$13                     ; 0x2013 <wipeArea+0x147>
    2815: 85 16        	sta	$16                     ; 0x2016 <wipeArea+0x14a>
    2817: a5 17        	lda	$17                     ; 0x2017 <wipeArea+0x14b>
    2819: e5 14        	sbc	$14                     ; 0x2014 <wipeArea+0x148>
    281b: 85 17        	sta	$17                     ; 0x2017 <wipeArea+0x14b>
    281d: 8a           	txa
    281e: e5 15        	sbc	$15                     ; 0x2015 <wipeArea+0x149>
    2820: a4 18        	ldy	$18                     ; 0x2018 <wipeArea+0x14c>
    2822: 8c b9 9c     	sty	$9cb9                   ; 0x9cb9 <_BITMAP_BASE.1>
    2825: a4 16        	ldy	$16                     ; 0x2016 <wipeArea+0x14a>
    2827: 8c ba 9c     	sty	$9cba                   ; 0x9cba <_BITMAP_BASE.1+0x1>
    282a: a4 17        	ldy	$17                     ; 0x2017 <wipeArea+0x14b>
    282c: 8c bb 9c     	sty	$9cbb                   ; 0x9cbb <_BITMAP_BASE.1+0x2>
    282f: 8d bc 9c     	sta	$9cbc                   ; 0x9cbc <_BITMAP_BASE.1+0x3>
    2832: a8           	tay
    2833: 38           	sec
    2834: a5 18        	lda	$18                     ; 0x2018 <wipeArea+0x14c>
    2836: e5 12        	sbc	$12                     ; 0x2012 <wipeArea+0x146>
    2838: 85 18        	sta	$18                     ; 0x2018 <wipeArea+0x14c>
    283a: a5 16        	lda	$16                     ; 0x2016 <wipeArea+0x14a>
    283c: e5 13        	sbc	$13                     ; 0x2013 <wipeArea+0x147>
    283e: 85 12        	sta	$12                     ; 0x2012 <wipeArea+0x146>
    2840: a5 17        	lda	$17                     ; 0x2017 <wipeArea+0x14b>
    2842: e5 14        	sbc	$14                     ; 0x2014 <wipeArea+0x148>
    2844: 85 14        	sta	$14                     ; 0x2014 <wipeArea+0x148>
    2846: 98           	tya
    2847: e5 15        	sbc	$15                     ; 0x2015 <wipeArea+0x149>
    2849: a4 18        	ldy	$18                     ; 0x2018 <wipeArea+0x14c>
    284b: 8c bd 9c     	sty	$9cbd                   ; 0x9cbd <_BITMAP_BASE.2>
    284e: a4 12        	ldy	$12                     ; 0x2012 <wipeArea+0x146>
    2850: 8c be 9c     	sty	$9cbe                   ; 0x9cbe <_BITMAP_BASE.2+0x1>
    2853: a6 19        	ldx	$19                     ; 0x2019 <wipeArea+0x14d>
    2855: 8e b5 9c     	stx	$9cb5                   ; 0x9cb5 <_BITMAP_BASE.0>
    2858: a4 14        	ldy	$14                     ; 0x2014 <wipeArea+0x148>
    285a: 8c bf 9c     	sty	$9cbf                   ; 0x9cbf <_BITMAP_BASE.2+0x2>
    285d: 8d c0 9c     	sta	$9cc0                   ; 0x9cc0 <_BITMAP_BASE.2+0x3>
    2860: 8e 01 d1     	stx	$d101                   ; 0xd101 <__heap_start+0x3247>
    2863: ae b6 9c     	ldx	$9cb6                   ; 0x9cb6 <_BITMAP_BASE.0+0x1>
    2866: 8e 02 d1     	stx	$d102                   ; 0xd102 <__heap_start+0x3248>
    2869: ae b7 9c     	ldx	$9cb7                   ; 0x9cb7 <_BITMAP_BASE.0+0x2>
    286c: 8e 03 d1     	stx	$d103                   ; 0xd103 <__heap_start+0x3249>
    286f: ae b9 9c     	ldx	$9cb9                   ; 0x9cb9 <_BITMAP_BASE.1>
    2872: 8e 09 d1     	stx	$d109                   ; 0xd109 <__heap_start+0x324f>
    2875: ae ba 9c     	ldx	$9cba                   ; 0x9cba <_BITMAP_BASE.1+0x1>
    2878: 8e 0a d1     	stx	$d10a                   ; 0xd10a <__heap_start+0x3250>
    287b: ae bb 9c     	ldx	$9cbb                   ; 0x9cbb <_BITMAP_BASE.1+0x2>
    287e: 8e 0b d1     	stx	$d10b                   ; 0xd10b <__heap_start+0x3251>
    2881: ae bd 9c     	ldx	$9cbd                   ; 0x9cbd <_BITMAP_BASE.2>
    2884: 8e 11 d1     	stx	$d111                   ; 0xd111 <__heap_start+0x3257>
    2887: ae be 9c     	ldx	$9cbe                   ; 0x9cbe <_BITMAP_BASE.2+0x1>
    288a: 8e 12 d1     	stx	$d112                   ; 0xd112 <__heap_start+0x3258>
    288d: ae bf 9c     	ldx	$9cbf                   ; 0x9cbf <_BITMAP_BASE.2+0x2>
    2890: 8e 13 d1     	stx	$d113                   ; 0xd113 <__heap_start+0x3259>
    2893: 9c 00 d1     	stz	$d100                   ; 0xd100 <__heap_start+0x3246>
    2896: 9c 08 d1     	stz	$d108                   ; 0xd108 <__heap_start+0x324e>
    2899: 9c 10 d1     	stz	$d110                   ; 0xd110 <__heap_start+0x3256>
    289c: 9c b5 9c     	stz	$9cb5                   ; 0x9cb5 <_BITMAP_BASE.0>
    289f: a2 04        	ldx	#$4
    28a1: 8e b6 9c     	stx	$9cb6                   ; 0x9cb6 <_BITMAP_BASE.0+0x1>
    28a4: a0 02        	ldy	#$2
    28a6: 8c b7 9c     	sty	$9cb7                   ; 0x9cb7 <_BITMAP_BASE.0+0x2>
    28a9: 9c b8 9c     	stz	$9cb8                   ; 0x9cb8 <_BITMAP_BASE.0+0x3>
    28ac: 9c 01 d1     	stz	$d101                   ; 0xd101 <__heap_start+0x3247>
    28af: 8e 02 d1     	stx	$d102                   ; 0xd102 <__heap_start+0x3248>
    28b2: 8c 03 d1     	sty	$d103                   ; 0xd103 <__heap_start+0x3249>
    28b5: a2 01        	ldx	#$1
    28b7: 8e 00 d1     	stx	$d100                   ; 0xd100 <__heap_start+0x3246>
    28ba: a2 a9        	ldx	#$a9
    28bc: 86 12        	stx	$12                     ; 0x2012 <wipeArea+0x146>
    28be: a2 6c        	ldx	#$6c
    28c0: 86 13        	stx	$13                     ; 0x2013 <wipeArea+0x147>
    28c2: a2 17        	ldx	#$17
    28c4: 86 14        	stx	$14                     ; 0x2014 <wipeArea+0x148>
    28c6: a2 6b        	ldx	#$6b
    28c8: 86 15        	stx	$15                     ; 0x2015 <wipeArea+0x149>
    28ca: a9 3c        	lda	#$3c
    28cc: a2 00        	ldx	#$0
    28ce: 20 1d 65     	jsr	$651d <memcpy>
    28d1: a2 bd        	ldx	#$bd
    28d3: 8e 80 d5     	stx	$d580                   ; 0xd580 <__heap_start+0x36c6>
    28d6: 9c 81 d5     	stz	$d581                   ; 0xd581 <__heap_start+0x36c7>
    28d9: a9 20        	lda	#$20
    28db: 8d 80 d5     	sta	$d580                   ; 0xd580 <__heap_start+0x36c6>
    28de: 9c 81 d5     	stz	$d581                   ; 0xd581 <__heap_start+0x36c7>
    28e1: a2 23        	ldx	#$23
    28e3: 8e 80 d5     	stx	$d580                   ; 0xd580 <__heap_start+0x36c6>
    28e6: 9c 81 d5     	stz	$d581                   ; 0xd581 <__heap_start+0x36c7>
    28e9: a2 40        	ldx	#$40
    28eb: 8e 80 d5     	stx	$d580                   ; 0xd580 <__heap_start+0x36c6>
    28ee: 9c 81 d5     	stz	$d581                   ; 0xd581 <__heap_start+0x36c7>
    28f1: a2 43        	ldx	#$43
    28f3: 8e 80 d5     	stx	$d580                   ; 0xd580 <__heap_start+0x36c6>
    28f6: 9c 81 d5     	stz	$d581                   ; 0xd581 <__heap_start+0x36c7>
    28f9: a2 60        	ldx	#$60
    28fb: 8e 80 d5     	stx	$d580                   ; 0xd580 <__heap_start+0x36c6>
    28fe: 9c 81 d5     	stz	$d581                   ; 0xd581 <__heap_start+0x36c7>
    2901: a2 63        	ldx	#$63
    2903: 8e 80 d5     	stx	$d580                   ; 0xd580 <__heap_start+0x36c6>
    2906: 9c 81 d5     	stz	$d581                   ; 0xd581 <__heap_start+0x36c7>
    2909: a2 80        	ldx	#$80
    290b: 8e 80 d5     	stx	$d580                   ; 0xd580 <__heap_start+0x36c6>
    290e: 9c 81 d5     	stz	$d581                   ; 0xd581 <__heap_start+0x36c7>
    2911: a2 83        	ldx	#$83
    2913: 8e 80 d5     	stx	$d580                   ; 0xd580 <__heap_start+0x36c6>
    2916: 9c 81 d5     	stz	$d581                   ; 0xd581 <__heap_start+0x36c7>
    2919: a2 e0        	ldx	#$e0
    291b: 8e 80 d5     	stx	$d580                   ; 0xd580 <__heap_start+0x36c6>
    291e: 9c 81 d5     	stz	$d581                   ; 0xd581 <__heap_start+0x36c7>
    2921: a2 e3        	ldx	#$e3
    2923: 8e 80 d5     	stx	$d580                   ; 0xd580 <__heap_start+0x36c6>
    2926: 9c 81 d5     	stz	$d581                   ; 0xd581 <__heap_start+0x36c7>
    2929: a2 c0        	ldx	#$c0
    292b: 8e 80 d5     	stx	$d580                   ; 0xd580 <__heap_start+0x36c6>
    292e: 9c 81 d5     	stz	$d581                   ; 0xd581 <__heap_start+0x36c7>
    2931: a2 21        	ldx	#$21
    2933: 8e 80 d5     	stx	$d580                   ; 0xd580 <__heap_start+0x36c6>
    2936: 9c 81 d5     	stz	$d581                   ; 0xd581 <__heap_start+0x36c7>
    2939: a2 24        	ldx	#$24
    293b: 8e 80 d5     	stx	$d580                   ; 0xd580 <__heap_start+0x36c6>
    293e: 9c 81 d5     	stz	$d581                   ; 0xd581 <__heap_start+0x36c7>
    2941: a2 41        	ldx	#$41
    2943: 8e 80 d5     	stx	$d580                   ; 0xd580 <__heap_start+0x36c6>
    2946: 9c 81 d5     	stz	$d581                   ; 0xd581 <__heap_start+0x36c7>
    2949: a2 44        	ldx	#$44
    294b: 8e 80 d5     	stx	$d580                   ; 0xd580 <__heap_start+0x36c6>
    294e: 9c 81 d5     	stz	$d581                   ; 0xd581 <__heap_start+0x36c7>
    2951: a2 61        	ldx	#$61
    2953: 8e 80 d5     	stx	$d580                   ; 0xd580 <__heap_start+0x36c6>
    2956: 9c 81 d5     	stz	$d581                   ; 0xd581 <__heap_start+0x36c7>
    2959: a2 64        	ldx	#$64
    295b: 8e 80 d5     	stx	$d580                   ; 0xd580 <__heap_start+0x36c6>
    295e: 9c 81 d5     	stz	$d581                   ; 0xd581 <__heap_start+0x36c7>
    2961: a2 81        	ldx	#$81
    2963: 8e 80 d5     	stx	$d580                   ; 0xd580 <__heap_start+0x36c6>
    2966: 9c 81 d5     	stz	$d581                   ; 0xd581 <__heap_start+0x36c7>
    2969: a2 84        	ldx	#$84
    296b: 8e 80 d5     	stx	$d580                   ; 0xd580 <__heap_start+0x36c6>
    296e: 9c 81 d5     	stz	$d581                   ; 0xd581 <__heap_start+0x36c7>
    2971: a2 e1        	ldx	#$e1
    2973: 8e 80 d5     	stx	$d580                   ; 0xd580 <__heap_start+0x36c6>
    2976: 9c 81 d5     	stz	$d581                   ; 0xd581 <__heap_start+0x36c7>
    2979: a2 e4        	ldx	#$e4
    297b: 8e 80 d5     	stx	$d580                   ; 0xd580 <__heap_start+0x36c6>
    297e: 9c 81 d5     	stz	$d581                   ; 0xd581 <__heap_start+0x36c7>
    2981: a2 c1        	ldx	#$c1
    2983: 8e 80 d5     	stx	$d580                   ; 0xd580 <__heap_start+0x36c6>
    2986: 9c 81 d5     	stz	$d581                   ; 0xd581 <__heap_start+0x36c7>
    2989: a2 22        	ldx	#$22
    298b: 8e 80 d5     	stx	$d580                   ; 0xd580 <__heap_start+0x36c6>
    298e: 9c 81 d5     	stz	$d581                   ; 0xd581 <__heap_start+0x36c7>
    2991: a2 25        	ldx	#$25
    2993: 8e 80 d5     	stx	$d580                   ; 0xd580 <__heap_start+0x36c6>
    2996: 9c 81 d5     	stz	$d581                   ; 0xd581 <__heap_start+0x36c7>
    2999: a2 42        	ldx	#$42
    299b: 8e 80 d5     	stx	$d580                   ; 0xd580 <__heap_start+0x36c6>
    299e: 9c 81 d5     	stz	$d581                   ; 0xd581 <__heap_start+0x36c7>
    29a1: a2 45        	ldx	#$45
    29a3: 8e 80 d5     	stx	$d580                   ; 0xd580 <__heap_start+0x36c6>
    29a6: 9c 81 d5     	stz	$d581                   ; 0xd581 <__heap_start+0x36c7>
    29a9: a2 62        	ldx	#$62
    29ab: 8e 80 d5     	stx	$d580                   ; 0xd580 <__heap_start+0x36c6>
    29ae: 9c 81 d5     	stz	$d581                   ; 0xd581 <__heap_start+0x36c7>
    29b1: a2 65        	ldx	#$65
    29b3: 8e 80 d5     	stx	$d580                   ; 0xd580 <__heap_start+0x36c6>
    29b6: 9c 81 d5     	stz	$d581                   ; 0xd581 <__heap_start+0x36c7>
    29b9: a2 82        	ldx	#$82
    29bb: 8e 80 d5     	stx	$d580                   ; 0xd580 <__heap_start+0x36c6>
    29be: 9c 81 d5     	stz	$d581                   ; 0xd581 <__heap_start+0x36c7>
    29c1: a2 85        	ldx	#$85
    29c3: 8e 80 d5     	stx	$d580                   ; 0xd580 <__heap_start+0x36c6>
    29c6: 9c 81 d5     	stz	$d581                   ; 0xd581 <__heap_start+0x36c7>
    29c9: a2 e2        	ldx	#$e2
    29cb: 8e 80 d5     	stx	$d580                   ; 0xd580 <__heap_start+0x36c6>
    29ce: 9c 81 d5     	stz	$d581                   ; 0xd581 <__heap_start+0x36c7>
    29d1: a2 e5        	ldx	#$e5
    29d3: 8e 80 d5     	stx	$d580                   ; 0xd580 <__heap_start+0x36c6>
    29d6: 9c 81 d5     	stz	$d581                   ; 0xd581 <__heap_start+0x36c7>
    29d9: a2 c2        	ldx	#$c2
    29db: 8e 80 d5     	stx	$d580                   ; 0xd580 <__heap_start+0x36c6>
    29de: 9c 81 d5     	stz	$d581                   ; 0xd581 <__heap_start+0x36c7>
    29e1: a2 28        	ldx	#$28
    29e3: 8e 80 d5     	stx	$d580                   ; 0xd580 <__heap_start+0x36c6>
    29e6: 9c 81 d5     	stz	$d581                   ; 0xd581 <__heap_start+0x36c7>
    29e9: a2 2b        	ldx	#$2b
    29eb: 8e 80 d5     	stx	$d580                   ; 0xd580 <__heap_start+0x36c6>
    29ee: 9c 81 d5     	stz	$d581                   ; 0xd581 <__heap_start+0x36c7>
    29f1: a2 48        	ldx	#$48
    29f3: 8e 80 d5     	stx	$d580                   ; 0xd580 <__heap_start+0x36c6>
    29f6: 9c 81 d5     	stz	$d581                   ; 0xd581 <__heap_start+0x36c7>
    29f9: a2 4b        	ldx	#$4b
    29fb: 8e 80 d5     	stx	$d580                   ; 0xd580 <__heap_start+0x36c6>
    29fe: 9c 81 d5     	stz	$d581                   ; 0xd581 <__heap_start+0x36c7>
    2a01: a2 68        	ldx	#$68
    2a03: 8e 80 d5     	stx	$d580                   ; 0xd580 <__heap_start+0x36c6>
    2a06: 9c 81 d5     	stz	$d581                   ; 0xd581 <__heap_start+0x36c7>
    2a09: a2 6b        	ldx	#$6b
    2a0b: 8e 80 d5     	stx	$d580                   ; 0xd580 <__heap_start+0x36c6>
    2a0e: 9c 81 d5     	stz	$d581                   ; 0xd581 <__heap_start+0x36c7>
    2a11: a2 88        	ldx	#$88
    2a13: 8e 80 d5     	stx	$d580                   ; 0xd580 <__heap_start+0x36c6>
    2a16: 9c 81 d5     	stz	$d581                   ; 0xd581 <__heap_start+0x36c7>
    2a19: a2 8b        	ldx	#$8b
    2a1b: 8e 80 d5     	stx	$d580                   ; 0xd580 <__heap_start+0x36c6>
    2a1e: 9c 81 d5     	stz	$d581                   ; 0xd581 <__heap_start+0x36c7>
    2a21: a2 e8        	ldx	#$e8
    2a23: 8e 80 d5     	stx	$d580                   ; 0xd580 <__heap_start+0x36c6>
    2a26: 9c 81 d5     	stz	$d581                   ; 0xd581 <__heap_start+0x36c7>
    2a29: a2 eb        	ldx	#$eb
    2a2b: 8e 80 d5     	stx	$d580                   ; 0xd580 <__heap_start+0x36c6>
    2a2e: 9c 81 d5     	stz	$d581                   ; 0xd581 <__heap_start+0x36c7>
    2a31: a2 c3        	ldx	#$c3
    2a33: 8e 80 d5     	stx	$d580                   ; 0xd580 <__heap_start+0x36c6>
    2a36: 9c 81 d5     	stz	$d581                   ; 0xd581 <__heap_start+0x36c7>
    2a39: a2 29        	ldx	#$29
    2a3b: 8e 80 d5     	stx	$d580                   ; 0xd580 <__heap_start+0x36c6>
    2a3e: 9c 81 d5     	stz	$d581                   ; 0xd581 <__heap_start+0x36c7>
    2a41: a2 2c        	ldx	#$2c
    2a43: 8e 80 d5     	stx	$d580                   ; 0xd580 <__heap_start+0x36c6>
    2a46: 9c 81 d5     	stz	$d581                   ; 0xd581 <__heap_start+0x36c7>
    2a49: a2 49        	ldx	#$49
    2a4b: 8e 80 d5     	stx	$d580                   ; 0xd580 <__heap_start+0x36c6>
    2a4e: 9c 81 d5     	stz	$d581                   ; 0xd581 <__heap_start+0x36c7>
    2a51: a2 4c        	ldx	#$4c
    2a53: 8e 80 d5     	stx	$d580                   ; 0xd580 <__heap_start+0x36c6>
    2a56: 9c 81 d5     	stz	$d581                   ; 0xd581 <__heap_start+0x36c7>
    2a59: a2 69        	ldx	#$69
    2a5b: 8e 80 d5     	stx	$d580                   ; 0xd580 <__heap_start+0x36c6>
    2a5e: 9c 81 d5     	stz	$d581                   ; 0xd581 <__heap_start+0x36c7>
    2a61: a2 6c        	ldx	#$6c
    2a63: 8e 80 d5     	stx	$d580                   ; 0xd580 <__heap_start+0x36c6>
    2a66: 9c 81 d5     	stz	$d581                   ; 0xd581 <__heap_start+0x36c7>
    2a69: a2 89        	ldx	#$89
    2a6b: 8e 80 d5     	stx	$d580                   ; 0xd580 <__heap_start+0x36c6>
    2a6e: 9c 81 d5     	stz	$d581                   ; 0xd581 <__heap_start+0x36c7>
    2a71: a2 8c        	ldx	#$8c
    2a73: 8e 80 d5     	stx	$d580                   ; 0xd580 <__heap_start+0x36c6>
    2a76: 9c 81 d5     	stz	$d581                   ; 0xd581 <__heap_start+0x36c7>
    2a79: a2 e9        	ldx	#$e9
    2a7b: 8e 80 d5     	stx	$d580                   ; 0xd580 <__heap_start+0x36c6>
    2a7e: 9c 81 d5     	stz	$d581                   ; 0xd581 <__heap_start+0x36c7>
    2a81: a2 ec        	ldx	#$ec
    2a83: 8e 80 d5     	stx	$d580                   ; 0xd580 <__heap_start+0x36c6>
    2a86: 9c 81 d5     	stz	$d581                   ; 0xd581 <__heap_start+0x36c7>
    2a89: a2 c4        	ldx	#$c4
    2a8b: 8e 80 d5     	stx	$d580                   ; 0xd580 <__heap_start+0x36c6>
    2a8e: 9c 81 d5     	stz	$d581                   ; 0xd581 <__heap_start+0x36c7>
    2a91: a2 2a        	ldx	#$2a
    2a93: 8e 80 d5     	stx	$d580                   ; 0xd580 <__heap_start+0x36c6>
    2a96: 9c 81 d5     	stz	$d581                   ; 0xd581 <__heap_start+0x36c7>
    2a99: a2 2d        	ldx	#$2d
    2a9b: 8e 80 d5     	stx	$d580                   ; 0xd580 <__heap_start+0x36c6>
    2a9e: 9c 81 d5     	stz	$d581                   ; 0xd581 <__heap_start+0x36c7>
    2aa1: a2 4a        	ldx	#$4a
    2aa3: 8e 80 d5     	stx	$d580                   ; 0xd580 <__heap_start+0x36c6>
    2aa6: 9c 81 d5     	stz	$d581                   ; 0xd581 <__heap_start+0x36c7>
    2aa9: a2 4d        	ldx	#$4d
    2aab: 8e 80 d5     	stx	$d580                   ; 0xd580 <__heap_start+0x36c6>
    2aae: 9c 81 d5     	stz	$d581                   ; 0xd581 <__heap_start+0x36c7>
    2ab1: a2 6a        	ldx	#$6a
    2ab3: 8e 80 d5     	stx	$d580                   ; 0xd580 <__heap_start+0x36c6>
    2ab6: 9c 81 d5     	stz	$d581                   ; 0xd581 <__heap_start+0x36c7>
    2ab9: a2 6d        	ldx	#$6d
    2abb: 8e 80 d5     	stx	$d580                   ; 0xd580 <__heap_start+0x36c6>
    2abe: 9c 81 d5     	stz	$d581                   ; 0xd581 <__heap_start+0x36c7>
    2ac1: a2 8a        	ldx	#$8a
    2ac3: 8e 80 d5     	stx	$d580                   ; 0xd580 <__heap_start+0x36c6>
    2ac6: 9c 81 d5     	stz	$d581                   ; 0xd581 <__heap_start+0x36c7>
    2ac9: a2 8d        	ldx	#$8d
    2acb: 8e 80 d5     	stx	$d580                   ; 0xd580 <__heap_start+0x36c6>
    2ace: 9c 81 d5     	stz	$d581                   ; 0xd581 <__heap_start+0x36c7>
    2ad1: a2 ea        	ldx	#$ea
    2ad3: 8e 80 d5     	stx	$d580                   ; 0xd580 <__heap_start+0x36c6>
    2ad6: 9c 81 d5     	stz	$d581                   ; 0xd581 <__heap_start+0x36c7>
    2ad9: a2 ed        	ldx	#$ed
    2adb: 8e 80 d5     	stx	$d580                   ; 0xd580 <__heap_start+0x36c6>
    2ade: 9c 81 d5     	stz	$d581                   ; 0xd581 <__heap_start+0x36c7>
    2ae1: a2 c5        	ldx	#$c5
    2ae3: 8e 80 d5     	stx	$d580                   ; 0xd580 <__heap_start+0x36c6>
    2ae6: 9c 81 d5     	stz	$d581                   ; 0xd581 <__heap_start+0x36c7>
    2ae9: a2 30        	ldx	#$30
    2aeb: 8e 80 d5     	stx	$d580                   ; 0xd580 <__heap_start+0x36c6>
    2aee: 9c 81 d5     	stz	$d581                   ; 0xd581 <__heap_start+0x36c7>
    2af1: a2 33        	ldx	#$33
    2af3: 8e 80 d5     	stx	$d580                   ; 0xd580 <__heap_start+0x36c6>
    2af6: 9c 81 d5     	stz	$d581                   ; 0xd581 <__heap_start+0x36c7>
    2af9: a2 50        	ldx	#$50
    2afb: 8e 80 d5     	stx	$d580                   ; 0xd580 <__heap_start+0x36c6>
    2afe: 9c 81 d5     	stz	$d581                   ; 0xd581 <__heap_start+0x36c7>
    2b01: a2 53        	ldx	#$53
    2b03: 8e 80 d5     	stx	$d580                   ; 0xd580 <__heap_start+0x36c6>
    2b06: 9c 81 d5     	stz	$d581                   ; 0xd581 <__heap_start+0x36c7>
    2b09: a2 70        	ldx	#$70
    2b0b: 8e 80 d5     	stx	$d580                   ; 0xd580 <__heap_start+0x36c6>
    2b0e: 9c 81 d5     	stz	$d581                   ; 0xd581 <__heap_start+0x36c7>
    2b11: a2 73        	ldx	#$73
    2b13: 8e 80 d5     	stx	$d580                   ; 0xd580 <__heap_start+0x36c6>
    2b16: 9c 81 d5     	stz	$d581                   ; 0xd581 <__heap_start+0x36c7>
    2b19: a2 90        	ldx	#$90
    2b1b: 8e 80 d5     	stx	$d580                   ; 0xd580 <__heap_start+0x36c6>
    2b1e: 9c 81 d5     	stz	$d581                   ; 0xd581 <__heap_start+0x36c7>
    2b21: a2 93        	ldx	#$93
    2b23: 8e 80 d5     	stx	$d580                   ; 0xd580 <__heap_start+0x36c6>
    2b26: 9c 81 d5     	stz	$d581                   ; 0xd581 <__heap_start+0x36c7>
    2b29: a2 f0        	ldx	#$f0
    2b2b: 8e 80 d5     	stx	$d580                   ; 0xd580 <__heap_start+0x36c6>
    2b2e: 9c 81 d5     	stz	$d581                   ; 0xd581 <__heap_start+0x36c7>
    2b31: a2 f3        	ldx	#$f3
    2b33: 8e 80 d5     	stx	$d580                   ; 0xd580 <__heap_start+0x36c6>
    2b36: 9c 81 d5     	stz	$d581                   ; 0xd581 <__heap_start+0x36c7>
    2b39: a2 c6        	ldx	#$c6
    2b3b: 8e 80 d5     	stx	$d580                   ; 0xd580 <__heap_start+0x36c6>
    2b3e: 9c 81 d5     	stz	$d581                   ; 0xd581 <__heap_start+0x36c7>
    2b41: a2 31        	ldx	#$31
    2b43: 8e 80 d5     	stx	$d580                   ; 0xd580 <__heap_start+0x36c6>
    2b46: 9c 81 d5     	stz	$d581                   ; 0xd581 <__heap_start+0x36c7>
    2b49: a2 34        	ldx	#$34
    2b4b: 8e 80 d5     	stx	$d580                   ; 0xd580 <__heap_start+0x36c6>
    2b4e: 9c 81 d5     	stz	$d581                   ; 0xd581 <__heap_start+0x36c7>
    2b51: a2 51        	ldx	#$51
    2b53: 8e 80 d5     	stx	$d580                   ; 0xd580 <__heap_start+0x36c6>
    2b56: 9c 81 d5     	stz	$d581                   ; 0xd581 <__heap_start+0x36c7>
    2b59: a2 54        	ldx	#$54
    2b5b: 8e 80 d5     	stx	$d580                   ; 0xd580 <__heap_start+0x36c6>
    2b5e: 9c 81 d5     	stz	$d581                   ; 0xd581 <__heap_start+0x36c7>
    2b61: a2 71        	ldx	#$71
    2b63: 8e 80 d5     	stx	$d580                   ; 0xd580 <__heap_start+0x36c6>
    2b66: 9c 81 d5     	stz	$d581                   ; 0xd581 <__heap_start+0x36c7>
    2b69: a2 74        	ldx	#$74
    2b6b: 8e 80 d5     	stx	$d580                   ; 0xd580 <__heap_start+0x36c6>
    2b6e: 9c 81 d5     	stz	$d581                   ; 0xd581 <__heap_start+0x36c7>
    2b71: a2 91        	ldx	#$91
    2b73: 8e 80 d5     	stx	$d580                   ; 0xd580 <__heap_start+0x36c6>
    2b76: 9c 81 d5     	stz	$d581                   ; 0xd581 <__heap_start+0x36c7>
    2b79: a2 94        	ldx	#$94
    2b7b: 8e 80 d5     	stx	$d580                   ; 0xd580 <__heap_start+0x36c6>
    2b7e: 9c 81 d5     	stz	$d581                   ; 0xd581 <__heap_start+0x36c7>
    2b81: a2 f1        	ldx	#$f1
    2b83: 8e 80 d5     	stx	$d580                   ; 0xd580 <__heap_start+0x36c6>
    2b86: 9c 81 d5     	stz	$d581                   ; 0xd581 <__heap_start+0x36c7>
    2b89: a2 f4        	ldx	#$f4
    2b8b: 8e 80 d5     	stx	$d580                   ; 0xd580 <__heap_start+0x36c6>
    2b8e: 9c 81 d5     	stz	$d581                   ; 0xd581 <__heap_start+0x36c7>
    2b91: a2 c7        	ldx	#$c7
    2b93: 8e 80 d5     	stx	$d580                   ; 0xd580 <__heap_start+0x36c6>
    2b96: 9c 81 d5     	stz	$d581                   ; 0xd581 <__heap_start+0x36c7>
    2b99: a2 32        	ldx	#$32
    2b9b: 8e 80 d5     	stx	$d580                   ; 0xd580 <__heap_start+0x36c6>
    2b9e: 9c 81 d5     	stz	$d581                   ; 0xd581 <__heap_start+0x36c7>
    2ba1: a2 35        	ldx	#$35
    2ba3: 8e 80 d5     	stx	$d580                   ; 0xd580 <__heap_start+0x36c6>
    2ba6: 9c 81 d5     	stz	$d581                   ; 0xd581 <__heap_start+0x36c7>
    2ba9: a2 52        	ldx	#$52
    2bab: 8e 80 d5     	stx	$d580                   ; 0xd580 <__heap_start+0x36c6>
    2bae: 9c 81 d5     	stz	$d581                   ; 0xd581 <__heap_start+0x36c7>
    2bb1: a2 55        	ldx	#$55
    2bb3: 8e 80 d5     	stx	$d580                   ; 0xd580 <__heap_start+0x36c6>
    2bb6: 9c 81 d5     	stz	$d581                   ; 0xd581 <__heap_start+0x36c7>
    2bb9: a2 72        	ldx	#$72
    2bbb: 8e 80 d5     	stx	$d580                   ; 0xd580 <__heap_start+0x36c6>
    2bbe: 9c 81 d5     	stz	$d581                   ; 0xd581 <__heap_start+0x36c7>
    2bc1: a2 75        	ldx	#$75
    2bc3: 8e 80 d5     	stx	$d580                   ; 0xd580 <__heap_start+0x36c6>
    2bc6: 9c 81 d5     	stz	$d581                   ; 0xd581 <__heap_start+0x36c7>
    2bc9: a2 92        	ldx	#$92
    2bcb: 8e 80 d5     	stx	$d580                   ; 0xd580 <__heap_start+0x36c6>
    2bce: 9c 81 d5     	stz	$d581                   ; 0xd581 <__heap_start+0x36c7>
    2bd1: a2 95        	ldx	#$95
    2bd3: 8e 80 d5     	stx	$d580                   ; 0xd580 <__heap_start+0x36c6>
    2bd6: 9c 81 d5     	stz	$d581                   ; 0xd581 <__heap_start+0x36c7>
    2bd9: a2 f2        	ldx	#$f2
    2bdb: 8e 80 d5     	stx	$d580                   ; 0xd580 <__heap_start+0x36c6>
    2bde: 9c 81 d5     	stz	$d581                   ; 0xd581 <__heap_start+0x36c7>
    2be1: a0 f5        	ldy	#$f5
    2be3: 8c 80 d5     	sty	$d580                   ; 0xd580 <__heap_start+0x36c6>
    2be6: 9c 81 d5     	stz	$d581                   ; 0xd581 <__heap_start+0x36c7>
    2be9: a2 c8        	ldx	#$c8
    2beb: 8e 80 d5     	stx	$d580                   ; 0xd580 <__heap_start+0x36c6>
    2bee: 9c 81 d5     	stz	$d581                   ; 0xd581 <__heap_start+0x36c7>
    2bf1: 8d 82 d5     	sta	$d582                   ; 0xd582 <__heap_start+0x36c8>
    2bf4: 9c 81 d5     	stz	$d581                   ; 0xd581 <__heap_start+0x36c7>
    2bf7: a9 23        	lda	#$23
    2bf9: 8d 82 d5     	sta	$d582                   ; 0xd582 <__heap_start+0x36c8>
    2bfc: 9c 81 d5     	stz	$d581                   ; 0xd581 <__heap_start+0x36c7>
    2bff: a9 40        	lda	#$40
    2c01: 8d 82 d5     	sta	$d582                   ; 0xd582 <__heap_start+0x36c8>
    2c04: 9c 81 d5     	stz	$d581                   ; 0xd581 <__heap_start+0x36c7>
    2c07: a9 43        	lda	#$43
    2c09: 8d 82 d5     	sta	$d582                   ; 0xd582 <__heap_start+0x36c8>
    2c0c: 9c 81 d5     	stz	$d581                   ; 0xd581 <__heap_start+0x36c7>
    2c0f: a9 60        	lda	#$60
    2c11: 8d 82 d5     	sta	$d582                   ; 0xd582 <__heap_start+0x36c8>
    2c14: 9c 81 d5     	stz	$d581                   ; 0xd581 <__heap_start+0x36c7>
    2c17: a9 63        	lda	#$63
    2c19: 8d 82 d5     	sta	$d582                   ; 0xd582 <__heap_start+0x36c8>
    2c1c: 9c 81 d5     	stz	$d581                   ; 0xd581 <__heap_start+0x36c7>
    2c1f: a9 80        	lda	#$80
    2c21: 8d 82 d5     	sta	$d582                   ; 0xd582 <__heap_start+0x36c8>
    2c24: 9c 81 d5     	stz	$d581                   ; 0xd581 <__heap_start+0x36c7>
    2c27: a9 83        	lda	#$83
    2c29: 8d 82 d5     	sta	$d582                   ; 0xd582 <__heap_start+0x36c8>
    2c2c: 9c 81 d5     	stz	$d581                   ; 0xd581 <__heap_start+0x36c7>
    2c2f: a9 e0        	lda	#$e0
    2c31: 8d 82 d5     	sta	$d582                   ; 0xd582 <__heap_start+0x36c8>
    2c34: 9c 81 d5     	stz	$d581                   ; 0xd581 <__heap_start+0x36c7>
    2c37: a9 e3        	lda	#$e3
    2c39: 8d 82 d5     	sta	$d582                   ; 0xd582 <__heap_start+0x36c8>
    2c3c: 9c 81 d5     	stz	$d581                   ; 0xd581 <__heap_start+0x36c7>
    2c3f: a9 c0        	lda	#$c0
    2c41: 8d 82 d5     	sta	$d582                   ; 0xd582 <__heap_start+0x36c8>
    2c44: 9c 81 d5     	stz	$d581                   ; 0xd581 <__heap_start+0x36c7>
    2c47: a9 21        	lda	#$21
    2c49: 8d 82 d5     	sta	$d582                   ; 0xd582 <__heap_start+0x36c8>
    2c4c: 9c 81 d5     	stz	$d581                   ; 0xd581 <__heap_start+0x36c7>
    2c4f: a9 24        	lda	#$24
    2c51: 8d 82 d5     	sta	$d582                   ; 0xd582 <__heap_start+0x36c8>
    2c54: 9c 81 d5     	stz	$d581                   ; 0xd581 <__heap_start+0x36c7>
    2c57: a9 41        	lda	#$41
    2c59: 8d 82 d5     	sta	$d582                   ; 0xd582 <__heap_start+0x36c8>
    2c5c: 9c 81 d5     	stz	$d581                   ; 0xd581 <__heap_start+0x36c7>
    2c5f: a9 44        	lda	#$44
    2c61: 8d 82 d5     	sta	$d582                   ; 0xd582 <__heap_start+0x36c8>
    2c64: 9c 81 d5     	stz	$d581                   ; 0xd581 <__heap_start+0x36c7>
    2c67: a9 61        	lda	#$61
    2c69: 8d 82 d5     	sta	$d582                   ; 0xd582 <__heap_start+0x36c8>
    2c6c: 9c 81 d5     	stz	$d581                   ; 0xd581 <__heap_start+0x36c7>
    2c6f: a9 64        	lda	#$64
    2c71: 8d 82 d5     	sta	$d582                   ; 0xd582 <__heap_start+0x36c8>
    2c74: 9c 81 d5     	stz	$d581                   ; 0xd581 <__heap_start+0x36c7>
    2c77: a9 81        	lda	#$81
    2c79: 8d 82 d5     	sta	$d582                   ; 0xd582 <__heap_start+0x36c8>
    2c7c: 9c 81 d5     	stz	$d581                   ; 0xd581 <__heap_start+0x36c7>
    2c7f: a9 84        	lda	#$84
    2c81: 8d 82 d5     	sta	$d582                   ; 0xd582 <__heap_start+0x36c8>
    2c84: 9c 81 d5     	stz	$d581                   ; 0xd581 <__heap_start+0x36c7>
    2c87: a9 e1        	lda	#$e1
    2c89: 8d 82 d5     	sta	$d582                   ; 0xd582 <__heap_start+0x36c8>
    2c8c: 9c 81 d5     	stz	$d581                   ; 0xd581 <__heap_start+0x36c7>
    2c8f: a9 e4        	lda	#$e4
    2c91: 8d 82 d5     	sta	$d582                   ; 0xd582 <__heap_start+0x36c8>
    2c94: 9c 81 d5     	stz	$d581                   ; 0xd581 <__heap_start+0x36c7>
    2c97: a9 c1        	lda	#$c1
    2c99: 8d 82 d5     	sta	$d582                   ; 0xd582 <__heap_start+0x36c8>
    2c9c: 9c 81 d5     	stz	$d581                   ; 0xd581 <__heap_start+0x36c7>
    2c9f: a9 22        	lda	#$22
    2ca1: 8d 82 d5     	sta	$d582                   ; 0xd582 <__heap_start+0x36c8>
    2ca4: 9c 81 d5     	stz	$d581                   ; 0xd581 <__heap_start+0x36c7>
    2ca7: a9 25        	lda	#$25
    2ca9: 8d 82 d5     	sta	$d582                   ; 0xd582 <__heap_start+0x36c8>
    2cac: 9c 81 d5     	stz	$d581                   ; 0xd581 <__heap_start+0x36c7>
    2caf: a9 42        	lda	#$42
    2cb1: 8d 82 d5     	sta	$d582                   ; 0xd582 <__heap_start+0x36c8>
    2cb4: 9c 81 d5     	stz	$d581                   ; 0xd581 <__heap_start+0x36c7>
    2cb7: a9 45        	lda	#$45
    2cb9: 8d 82 d5     	sta	$d582                   ; 0xd582 <__heap_start+0x36c8>
    2cbc: 9c 81 d5     	stz	$d581                   ; 0xd581 <__heap_start+0x36c7>
    2cbf: a9 62        	lda	#$62
    2cc1: 8d 82 d5     	sta	$d582                   ; 0xd582 <__heap_start+0x36c8>
    2cc4: 9c 81 d5     	stz	$d581                   ; 0xd581 <__heap_start+0x36c7>
    2cc7: a9 65        	lda	#$65
    2cc9: 8d 82 d5     	sta	$d582                   ; 0xd582 <__heap_start+0x36c8>
    2ccc: 9c 81 d5     	stz	$d581                   ; 0xd581 <__heap_start+0x36c7>
    2ccf: a9 82        	lda	#$82
    2cd1: 8d 82 d5     	sta	$d582                   ; 0xd582 <__heap_start+0x36c8>
    2cd4: 9c 81 d5     	stz	$d581                   ; 0xd581 <__heap_start+0x36c7>
    2cd7: a9 85        	lda	#$85
    2cd9: 8d 82 d5     	sta	$d582                   ; 0xd582 <__heap_start+0x36c8>
    2cdc: 9c 81 d5     	stz	$d581                   ; 0xd581 <__heap_start+0x36c7>
    2cdf: a9 e2        	lda	#$e2
    2ce1: 8d 82 d5     	sta	$d582                   ; 0xd582 <__heap_start+0x36c8>
    2ce4: 9c 81 d5     	stz	$d581                   ; 0xd581 <__heap_start+0x36c7>
    2ce7: a9 e5        	lda	#$e5
    2ce9: 8d 82 d5     	sta	$d582                   ; 0xd582 <__heap_start+0x36c8>
    2cec: 9c 81 d5     	stz	$d581                   ; 0xd581 <__heap_start+0x36c7>
    2cef: a9 c2        	lda	#$c2
    2cf1: 8d 82 d5     	sta	$d582                   ; 0xd582 <__heap_start+0x36c8>
    2cf4: 9c 81 d5     	stz	$d581                   ; 0xd581 <__heap_start+0x36c7>
    2cf7: a9 28        	lda	#$28
    2cf9: 8d 82 d5     	sta	$d582                   ; 0xd582 <__heap_start+0x36c8>
    2cfc: 9c 81 d5     	stz	$d581                   ; 0xd581 <__heap_start+0x36c7>
    2cff: a9 2b        	lda	#$2b
    2d01: 8d 82 d5     	sta	$d582                   ; 0xd582 <__heap_start+0x36c8>
    2d04: 9c 81 d5     	stz	$d581                   ; 0xd581 <__heap_start+0x36c7>
    2d07: a9 48        	lda	#$48
    2d09: 8d 82 d5     	sta	$d582                   ; 0xd582 <__heap_start+0x36c8>
    2d0c: 9c 81 d5     	stz	$d581                   ; 0xd581 <__heap_start+0x36c7>
    2d0f: a9 4b        	lda	#$4b
    2d11: 8d 82 d5     	sta	$d582                   ; 0xd582 <__heap_start+0x36c8>
    2d14: 9c 81 d5     	stz	$d581                   ; 0xd581 <__heap_start+0x36c7>
    2d17: a9 68        	lda	#$68
    2d19: 8d 82 d5     	sta	$d582                   ; 0xd582 <__heap_start+0x36c8>
    2d1c: 9c 81 d5     	stz	$d581                   ; 0xd581 <__heap_start+0x36c7>
    2d1f: a9 6b        	lda	#$6b
    2d21: 8d 82 d5     	sta	$d582                   ; 0xd582 <__heap_start+0x36c8>
    2d24: 9c 81 d5     	stz	$d581                   ; 0xd581 <__heap_start+0x36c7>
    2d27: a9 88        	lda	#$88
    2d29: 8d 82 d5     	sta	$d582                   ; 0xd582 <__heap_start+0x36c8>
    2d2c: 9c 81 d5     	stz	$d581                   ; 0xd581 <__heap_start+0x36c7>
    2d2f: a9 8b        	lda	#$8b
    2d31: 8d 82 d5     	sta	$d582                   ; 0xd582 <__heap_start+0x36c8>
    2d34: 9c 81 d5     	stz	$d581                   ; 0xd581 <__heap_start+0x36c7>
    2d37: a9 e8        	lda	#$e8
    2d39: 8d 82 d5     	sta	$d582                   ; 0xd582 <__heap_start+0x36c8>
    2d3c: 9c 81 d5     	stz	$d581                   ; 0xd581 <__heap_start+0x36c7>
    2d3f: a9 eb        	lda	#$eb
    2d41: 8d 82 d5     	sta	$d582                   ; 0xd582 <__heap_start+0x36c8>
    2d44: 9c 81 d5     	stz	$d581                   ; 0xd581 <__heap_start+0x36c7>
    2d47: a9 c3        	lda	#$c3
    2d49: 8d 82 d5     	sta	$d582                   ; 0xd582 <__heap_start+0x36c8>
    2d4c: 9c 81 d5     	stz	$d581                   ; 0xd581 <__heap_start+0x36c7>
    2d4f: a9 29        	lda	#$29
    2d51: 8d 82 d5     	sta	$d582                   ; 0xd582 <__heap_start+0x36c8>
    2d54: 9c 81 d5     	stz	$d581                   ; 0xd581 <__heap_start+0x36c7>
    2d57: a9 2c        	lda	#$2c
    2d59: 8d 82 d5     	sta	$d582                   ; 0xd582 <__heap_start+0x36c8>
    2d5c: 9c 81 d5     	stz	$d581                   ; 0xd581 <__heap_start+0x36c7>
    2d5f: a9 49        	lda	#$49
    2d61: 8d 82 d5     	sta	$d582                   ; 0xd582 <__heap_start+0x36c8>
    2d64: 9c 81 d5     	stz	$d581                   ; 0xd581 <__heap_start+0x36c7>
    2d67: a9 4c        	lda	#$4c
    2d69: 8d 82 d5     	sta	$d582                   ; 0xd582 <__heap_start+0x36c8>
    2d6c: 9c 81 d5     	stz	$d581                   ; 0xd581 <__heap_start+0x36c7>
    2d6f: a9 69        	lda	#$69
    2d71: 8d 82 d5     	sta	$d582                   ; 0xd582 <__heap_start+0x36c8>
    2d74: 9c 81 d5     	stz	$d581                   ; 0xd581 <__heap_start+0x36c7>
    2d77: a9 6c        	lda	#$6c
    2d79: 8d 82 d5     	sta	$d582                   ; 0xd582 <__heap_start+0x36c8>
    2d7c: 9c 81 d5     	stz	$d581                   ; 0xd581 <__heap_start+0x36c7>
    2d7f: a9 89        	lda	#$89
    2d81: 8d 82 d5     	sta	$d582                   ; 0xd582 <__heap_start+0x36c8>
    2d84: 9c 81 d5     	stz	$d581                   ; 0xd581 <__heap_start+0x36c7>
    2d87: a9 8c        	lda	#$8c
    2d89: 8d 82 d5     	sta	$d582                   ; 0xd582 <__heap_start+0x36c8>
    2d8c: 9c 81 d5     	stz	$d581                   ; 0xd581 <__heap_start+0x36c7>
    2d8f: a9 e9        	lda	#$e9
    2d91: 8d 82 d5     	sta	$d582                   ; 0xd582 <__heap_start+0x36c8>
    2d94: 9c 81 d5     	stz	$d581                   ; 0xd581 <__heap_start+0x36c7>
    2d97: a9 ec        	lda	#$ec
    2d99: 8d 82 d5     	sta	$d582                   ; 0xd582 <__heap_start+0x36c8>
    2d9c: 9c 81 d5     	stz	$d581                   ; 0xd581 <__heap_start+0x36c7>
    2d9f: a9 c4        	lda	#$c4
    2da1: 8d 82 d5     	sta	$d582                   ; 0xd582 <__heap_start+0x36c8>
    2da4: 9c 81 d5     	stz	$d581                   ; 0xd581 <__heap_start+0x36c7>
    2da7: a9 2a        	lda	#$2a
    2da9: 8d 82 d5     	sta	$d582                   ; 0xd582 <__heap_start+0x36c8>
    2dac: 9c 81 d5     	stz	$d581                   ; 0xd581 <__heap_start+0x36c7>
    2daf: a9 2d        	lda	#$2d
    2db1: 8d 82 d5     	sta	$d582                   ; 0xd582 <__heap_start+0x36c8>
    2db4: 9c 81 d5     	stz	$d581                   ; 0xd581 <__heap_start+0x36c7>
    2db7: a9 4a        	lda	#$4a
    2db9: 8d 82 d5     	sta	$d582                   ; 0xd582 <__heap_start+0x36c8>
    2dbc: 9c 81 d5     	stz	$d581                   ; 0xd581 <__heap_start+0x36c7>
    2dbf: a9 4d        	lda	#$4d
    2dc1: 8d 82 d5     	sta	$d582                   ; 0xd582 <__heap_start+0x36c8>
    2dc4: 9c 81 d5     	stz	$d581                   ; 0xd581 <__heap_start+0x36c7>
    2dc7: a9 6a        	lda	#$6a
    2dc9: 8d 82 d5     	sta	$d582                   ; 0xd582 <__heap_start+0x36c8>
    2dcc: 9c 81 d5     	stz	$d581                   ; 0xd581 <__heap_start+0x36c7>
    2dcf: a9 6d        	lda	#$6d
    2dd1: 8d 82 d5     	sta	$d582                   ; 0xd582 <__heap_start+0x36c8>
    2dd4: 9c 81 d5     	stz	$d581                   ; 0xd581 <__heap_start+0x36c7>
    2dd7: a9 8a        	lda	#$8a
    2dd9: 8d 82 d5     	sta	$d582                   ; 0xd582 <__heap_start+0x36c8>
    2ddc: 9c 81 d5     	stz	$d581                   ; 0xd581 <__heap_start+0x36c7>
    2ddf: a9 8d        	lda	#$8d
    2de1: 8d 82 d5     	sta	$d582                   ; 0xd582 <__heap_start+0x36c8>
    2de4: 9c 81 d5     	stz	$d581                   ; 0xd581 <__heap_start+0x36c7>
    2de7: a9 ea        	lda	#$ea
    2de9: 8d 82 d5     	sta	$d582                   ; 0xd582 <__heap_start+0x36c8>
    2dec: 9c 81 d5     	stz	$d581                   ; 0xd581 <__heap_start+0x36c7>
    2def: a9 ed        	lda	#$ed
    2df1: 8d 82 d5     	sta	$d582                   ; 0xd582 <__heap_start+0x36c8>
    2df4: 9c 81 d5     	stz	$d581                   ; 0xd581 <__heap_start+0x36c7>
    2df7: a9 c5        	lda	#$c5
    2df9: 8d 82 d5     	sta	$d582                   ; 0xd582 <__heap_start+0x36c8>
    2dfc: 9c 81 d5     	stz	$d581                   ; 0xd581 <__heap_start+0x36c7>
    2dff: a9 30        	lda	#$30
    2e01: 8d 82 d5     	sta	$d582                   ; 0xd582 <__heap_start+0x36c8>
    2e04: 9c 81 d5     	stz	$d581                   ; 0xd581 <__heap_start+0x36c7>
    2e07: a9 33        	lda	#$33
    2e09: 8d 82 d5     	sta	$d582                   ; 0xd582 <__heap_start+0x36c8>
    2e0c: 9c 81 d5     	stz	$d581                   ; 0xd581 <__heap_start+0x36c7>
    2e0f: a9 50        	lda	#$50
    2e11: 8d 82 d5     	sta	$d582                   ; 0xd582 <__heap_start+0x36c8>
    2e14: 9c 81 d5     	stz	$d581                   ; 0xd581 <__heap_start+0x36c7>
    2e17: a9 53        	lda	#$53
    2e19: 8d 82 d5     	sta	$d582                   ; 0xd582 <__heap_start+0x36c8>
    2e1c: 9c 81 d5     	stz	$d581                   ; 0xd581 <__heap_start+0x36c7>
    2e1f: a9 70        	lda	#$70
    2e21: 8d 82 d5     	sta	$d582                   ; 0xd582 <__heap_start+0x36c8>
    2e24: 9c 81 d5     	stz	$d581                   ; 0xd581 <__heap_start+0x36c7>
    2e27: a9 73        	lda	#$73
    2e29: 8d 82 d5     	sta	$d582                   ; 0xd582 <__heap_start+0x36c8>
    2e2c: 9c 81 d5     	stz	$d581                   ; 0xd581 <__heap_start+0x36c7>
    2e2f: a9 90        	lda	#$90
    2e31: 5a           	phy
    2e32: a0 1d        	ldy	#$1d
    2e34: 91 10        	sta	($10),y                 ; 0x2010 <wipeArea+0x144>
    2e36: 7a           	ply
    2e37: 8d 82 d5     	sta	$d582                   ; 0xd582 <__heap_start+0x36c8>
    2e3a: 9c 81 d5     	stz	$d581                   ; 0xd581 <__heap_start+0x36c7>
    2e3d: a9 93        	lda	#$93
    2e3f: 8d 82 d5     	sta	$d582                   ; 0xd582 <__heap_start+0x36c8>
    2e42: 9c 81 d5     	stz	$d581                   ; 0xd581 <__heap_start+0x36c7>
    2e45: a9 f0        	lda	#$f0
    2e47: 8d 82 d5     	sta	$d582                   ; 0xd582 <__heap_start+0x36c8>
    2e4a: 9c 81 d5     	stz	$d581                   ; 0xd581 <__heap_start+0x36c7>
    2e4d: a9 f3        	lda	#$f3
    2e4f: 8d 82 d5     	sta	$d582                   ; 0xd582 <__heap_start+0x36c8>
    2e52: 9c 81 d5     	stz	$d581                   ; 0xd581 <__heap_start+0x36c7>
    2e55: a9 c6        	lda	#$c6
    2e57: 8d 82 d5     	sta	$d582                   ; 0xd582 <__heap_start+0x36c8>
    2e5a: 9c 81 d5     	stz	$d581                   ; 0xd581 <__heap_start+0x36c7>
    2e5d: a9 31        	lda	#$31
    2e5f: 8d 82 d5     	sta	$d582                   ; 0xd582 <__heap_start+0x36c8>
    2e62: 9c 81 d5     	stz	$d581                   ; 0xd581 <__heap_start+0x36c7>
    2e65: a9 34        	lda	#$34
    2e67: 8d 82 d5     	sta	$d582                   ; 0xd582 <__heap_start+0x36c8>
    2e6a: 9c 81 d5     	stz	$d581                   ; 0xd581 <__heap_start+0x36c7>
    2e6d: a9 51        	lda	#$51
    2e6f: 8d 82 d5     	sta	$d582                   ; 0xd582 <__heap_start+0x36c8>
    2e72: 9c 81 d5     	stz	$d581                   ; 0xd581 <__heap_start+0x36c7>
    2e75: a9 54        	lda	#$54
    2e77: 8d 82 d5     	sta	$d582                   ; 0xd582 <__heap_start+0x36c8>
    2e7a: 9c 81 d5     	stz	$d581                   ; 0xd581 <__heap_start+0x36c7>
    2e7d: a9 71        	lda	#$71
    2e7f: 8d 82 d5     	sta	$d582                   ; 0xd582 <__heap_start+0x36c8>
    2e82: 9c 81 d5     	stz	$d581                   ; 0xd581 <__heap_start+0x36c7>
    2e85: a9 74        	lda	#$74
    2e87: 8d 82 d5     	sta	$d582                   ; 0xd582 <__heap_start+0x36c8>
    2e8a: 9c 81 d5     	stz	$d581                   ; 0xd581 <__heap_start+0x36c7>
    2e8d: a9 91        	lda	#$91
    2e8f: 8d 82 d5     	sta	$d582                   ; 0xd582 <__heap_start+0x36c8>
    2e92: 9c 81 d5     	stz	$d581                   ; 0xd581 <__heap_start+0x36c7>
    2e95: a9 94        	lda	#$94
    2e97: 8d 82 d5     	sta	$d582                   ; 0xd582 <__heap_start+0x36c8>
    2e9a: 9c 81 d5     	stz	$d581                   ; 0xd581 <__heap_start+0x36c7>
    2e9d: a9 f1        	lda	#$f1
    2e9f: 8d 82 d5     	sta	$d582                   ; 0xd582 <__heap_start+0x36c8>
    2ea2: 9c 81 d5     	stz	$d581                   ; 0xd581 <__heap_start+0x36c7>
    2ea5: a9 f4        	lda	#$f4
    2ea7: 8d 82 d5     	sta	$d582                   ; 0xd582 <__heap_start+0x36c8>
    2eaa: 9c 81 d5     	stz	$d581                   ; 0xd581 <__heap_start+0x36c7>
    2ead: a9 c7        	lda	#$c7
    2eaf: 8d 82 d5     	sta	$d582                   ; 0xd582 <__heap_start+0x36c8>
    2eb2: 9c 81 d5     	stz	$d581                   ; 0xd581 <__heap_start+0x36c7>
    2eb5: a9 32        	lda	#$32
    2eb7: 8d 82 d5     	sta	$d582                   ; 0xd582 <__heap_start+0x36c8>
    2eba: 9c 81 d5     	stz	$d581                   ; 0xd581 <__heap_start+0x36c7>
    2ebd: a9 35        	lda	#$35
    2ebf: 8d 82 d5     	sta	$d582                   ; 0xd582 <__heap_start+0x36c8>
    2ec2: 9c 81 d5     	stz	$d581                   ; 0xd581 <__heap_start+0x36c7>
    2ec5: a9 52        	lda	#$52
    2ec7: 8d 82 d5     	sta	$d582                   ; 0xd582 <__heap_start+0x36c8>
    2eca: 9c 81 d5     	stz	$d581                   ; 0xd581 <__heap_start+0x36c7>
    2ecd: a9 55        	lda	#$55
    2ecf: 8d 82 d5     	sta	$d582                   ; 0xd582 <__heap_start+0x36c8>
    2ed2: 9c 81 d5     	stz	$d581                   ; 0xd581 <__heap_start+0x36c7>
    2ed5: a9 72        	lda	#$72
    2ed7: 8d 82 d5     	sta	$d582                   ; 0xd582 <__heap_start+0x36c8>
    2eda: 9c 81 d5     	stz	$d581                   ; 0xd581 <__heap_start+0x36c7>
    2edd: a9 75        	lda	#$75
    2edf: 8d 82 d5     	sta	$d582                   ; 0xd582 <__heap_start+0x36c8>
    2ee2: 9c 81 d5     	stz	$d581                   ; 0xd581 <__heap_start+0x36c7>
    2ee5: a9 92        	lda	#$92
    2ee7: 8d 82 d5     	sta	$d582                   ; 0xd582 <__heap_start+0x36c8>
    2eea: 9c 81 d5     	stz	$d581                   ; 0xd581 <__heap_start+0x36c7>
    2eed: a9 95        	lda	#$95
    2eef: 8d 82 d5     	sta	$d582                   ; 0xd582 <__heap_start+0x36c8>
    2ef2: 9c 81 d5     	stz	$d581                   ; 0xd581 <__heap_start+0x36c7>
    2ef5: a9 f2        	lda	#$f2
    2ef7: 8d 82 d5     	sta	$d582                   ; 0xd582 <__heap_start+0x36c8>
    2efa: 9c 81 d5     	stz	$d581                   ; 0xd581 <__heap_start+0x36c7>
    2efd: 8c 82 d5     	sty	$d582                   ; 0xd582 <__heap_start+0x36c8>
    2f00: 9c 81 d5     	stz	$d581                   ; 0xd581 <__heap_start+0x36c7>
    2f03: 8e 82 d5     	stx	$d582                   ; 0xd582 <__heap_start+0x36c8>
    2f06: a9 00        	lda	#$0
    2f08: 29 fe        	and	#$fe
    2f0a: 85 13        	sta	$13                     ; 0x2013 <wipeArea+0x147>
    2f0c: a2 10        	ldx	#$10
    2f0e: 86 12        	stx	$12                     ; 0x2012 <wipeArea+0x146>
    2f10: a9 ba        	lda	#$ba
    2f12: 48           	pha
    2f13: a5 13        	lda	$13                     ; 0x2013 <wipeArea+0x147>
    2f15: a0 10        	ldy	#$10
    2f17: 91 10        	sta	($10),y                 ; 0x2010 <wipeArea+0x144>
    2f19: 68           	pla
    2f1a: 18           	clc
    2f1b: 65 13        	adc	$13                     ; 0x2013 <wipeArea+0x147>
    2f1d: aa           	tax
    2f1e: a9 9e        	lda	#$9e
    2f20: 65 12        	adc	$12                     ; 0x2012 <wipeArea+0x146>
    2f22: a8           	tay
    2f23: 18           	clc
    2f24: 8a           	txa
    2f25: 69 fe        	adc	#$fe
    2f27: 85 14        	sta	$14                     ; 0x2014 <wipeArea+0x148>
    2f29: 98           	tya
    2f2a: 69 ff        	adc	#$ff
    2f2c: 85 15        	sta	$15                     ; 0x2015 <wipeArea+0x149>
    2f2e: a5 14        	lda	$14                     ; 0x2014 <wipeArea+0x148>
    2f30: a0 0e        	ldy	#$e
    2f32: 91 10        	sta	($10),y                 ; 0x2010 <wipeArea+0x144>
    2f34: a5 15        	lda	$15                     ; 0x2015 <wipeArea+0x149>
    2f36: c8           	iny
    2f37: 91 10        	sta	($10),y                 ; 0x2010 <wipeArea+0x144>
    2f39: 9c 81 d5     	stz	$d581                   ; 0xd581 <__heap_start+0x36c7>
    2f3c: a2 da        	ldx	#$da
    2f3e: 86 2a        	stx	$2a                     ; 0x202a <wipeArea+0x15e>
    2f40: a2 6a        	ldx	#$6a
    2f42: 86 2b        	stx	$2b                     ; 0x202b <wipeArea+0x15f>
    2f44: a2 52        	ldx	#$52
    2f46: 86 28        	stx	$28                     ; 0x2028 <wipeArea+0x15c>
    2f48: a2 00        	ldx	#$0
    2f4a: 86 29        	stx	$29                     ; 0x2029 <wipeArea+0x15d>
    2f4c: a2 a9        	ldx	#$a9
    2f4e: 8a           	txa
    2f4f: a0 17        	ldy	#$17
    2f51: 91 10        	sta	($10),y                 ; 0x2010 <wipeArea+0x144>
    2f53: a2 6c        	ldx	#$6c
    2f55: 8a           	txa
    2f56: c8           	iny
    2f57: 91 10        	sta	($10),y                 ; 0x2010 <wipeArea+0x144>
    2f59: 64 2e        	stz	$2e                     ; 0x202e <wipeArea+0x162>
    2f5b: 64 2d        	stz	$2d                     ; 0x202d <wipeArea+0x161>
    2f5d: 64 12        	stz	$12                     ; 0x2012 <wipeArea+0x146>
    2f5f: a9 00        	lda	#$0
    2f61: a0 20        	ldy	#$20
    2f63: 91 10        	sta	($10),y                 ; 0x2010 <wipeArea+0x144>
    2f65: 64 25        	stz	$25                     ; 0x2025 <wipeArea+0x159>
    2f67: c8           	iny
    2f68: 91 10        	sta	($10),y                 ; 0x2010 <wipeArea+0x144>
    2f6a: 20 f4 20     	jsr	$20f4 <opl3_initialize>
    2f6d: ad 01 d0     	lda	$d001                   ; 0xd001 <__heap_start+0x3147>
    2f70: 09 10        	ora	#$10
    2f72: 8d 01 d0     	sta	$d001                   ; 0xd001 <__heap_start+0x3147>
    2f75: a2 d1        	ldx	#$d1
    2f77: 86 33        	stx	$33                     ; 0x2033 <wipeArea+0x167>
    2f79: 64 53        	stz	$53                     ; 0x2053 <wipeArea+0x187>
    2f7b: 9c 14 d0     	stz	$d014                   ; 0xd014 <__heap_start+0x315a>
    2f7e: 9c 15 d0     	stz	$d015                   ; 0xd015 <__heap_start+0x315b>
    2f81: 64 54        	stz	$54                     ; 0x2054 <wipeArea+0x188>
    2f83: 9c 16 d0     	stz	$d016                   ; 0xd016 <__heap_start+0x315c>
    2f86: 9c 17 d0     	stz	$d017                   ; 0xd017 <__heap_start+0x315d>
    2f89: a6 2a        	ldx	$2a                     ; 0x202a <wipeArea+0x15e>
    2f8b: 86 12        	stx	$12                     ; 0x2012 <wipeArea+0x146>
    2f8d: a6 2b        	ldx	$2b                     ; 0x202b <wipeArea+0x15f>
    2f8f: 86 13        	stx	$13                     ; 0x2013 <wipeArea+0x147>
    2f91: 20 dc 61     	jsr	$61dc <printf>
    2f94: 64 53        	stz	$53                     ; 0x2053 <wipeArea+0x187>
    2f96: 9c 14 d0     	stz	$d014                   ; 0xd014 <__heap_start+0x315a>
    2f99: 9c 15 d0     	stz	$d015                   ; 0xd015 <__heap_start+0x315b>
    2f9c: a2 01        	ldx	#$1
    2f9e: 86 54        	stx	$54                     ; 0x2054 <wipeArea+0x188>
    2fa0: 8e 16 d0     	stx	$d016                   ; 0xd016 <__heap_start+0x315c>
    2fa3: 9c 17 d0     	stz	$d017                   ; 0xd017 <__heap_start+0x315d>
    2fa6: a2 ec        	ldx	#$ec
    2fa8: 86 12        	stx	$12                     ; 0x2012 <wipeArea+0x146>
    2faa: a2 69        	ldx	#$69
    2fac: 86 13        	stx	$13                     ; 0x2013 <wipeArea+0x147>
    2fae: 20 dc 61     	jsr	$61dc <printf>
    2fb1: ae a9 6c     	ldx	$6ca9                   ; 0x6ca9 <fpr+0x2>
    2fb4: 64 16        	stz	$16                     ; 0x2016 <wipeArea+0x14a>
    2fb6: a0 00        	ldy	#$0
    2fb8: a9 a9        	lda	#$a9
    2fba: 85 12        	sta	$12                     ; 0x2012 <wipeArea+0x146>
    2fbc: a9 6c        	lda	#$6c
    2fbe: 85 13        	sta	$13                     ; 0x2013 <wipeArea+0x147>
    2fc0: 5a           	phy
    2fc1: a0 17        	ldy	#$17
    2fc3: b1 10        	lda	($10),y                 ; 0x2010 <wipeArea+0x144>
    2fc5: 7a           	ply
    2fc6: 85 2a        	sta	$2a                     ; 0x202a <wipeArea+0x15e>
    2fc8: 8a           	txa
    2fc9: d0 03        	bne	$2fce <main+0xda0>
    2fcb: 4c 6f 30     	jmp	$306f <main+0xe41>
    2fce: 86 14        	stx	$14                     ; 0x2014 <wipeArea+0x148>
    2fd0: 64 12        	stz	$12                     ; 0x2012 <wipeArea+0x146>
    2fd2: 64 13        	stz	$13                     ; 0x2013 <wipeArea+0x147>
    2fd4: a4 13        	ldy	$13                     ; 0x2013 <wipeArea+0x147>
    2fd6: a6 12        	ldx	$12                     ; 0x2012 <wipeArea+0x146>
    2fd8: e8           	inx
    2fd9: d0 01        	bne	$2fdc <main+0xdae>
    2fdb: c8           	iny
    2fdc: a9 aa        	lda	#$aa
    2fde: 18           	clc
    2fdf: 65 12        	adc	$12                     ; 0x2012 <wipeArea+0x146>
    2fe1: 85 12        	sta	$12                     ; 0x2012 <wipeArea+0x146>
    2fe3: a9 6c        	lda	#$6c
    2fe5: 65 13        	adc	$13                     ; 0x2013 <wipeArea+0x147>
    2fe7: 85 13        	sta	$13                     ; 0x2013 <wipeArea+0x147>
    2fe9: b2 12        	lda	($12)                   ; 0x2012 <wipeArea+0x146>
    2feb: 86 12        	stx	$12                     ; 0x2012 <wipeArea+0x146>
    2fed: 84 13        	sty	$13                     ; 0x2013 <wipeArea+0x147>
    2fef: d0 e3        	bne	$2fd4 <main+0xda6>
    2ff1: 98           	tya
    2ff2: d0 51        	bne	$3045 <main+0xe17>
    2ff4: e0 02        	cpx	#$2
    2ff6: 80 4f        	bra	$3047 <main+0xe19>
    2ff8: e6 12        	inc	$12                     ; 0x2012 <wipeArea+0x146>
    2ffa: a5 14        	lda	$14                     ; 0x2014 <wipeArea+0x148>
    2ffc: f0 14        	beq	$3012 <main+0xde4>
    2ffe: a4 12        	ldy	$12                     ; 0x2012 <wipeArea+0x146>
    3000: b9 a9 6c     	lda	$6ca9,y                 ; 0x6ca9 <fpr+0x2>
    3003: a8           	tay
    3004: d0 03        	bne	$3009 <main+0xddb>
    3006: 4c 5e 4b     	jmp	$4b5e <main+0x2930>
    3009: ca           	dex
    300a: e0 ff        	cpx	#$ff
    300c: d0 ea        	bne	$2ff8 <main+0xdca>
    300e: c6 14        	dec	$14                     ; 0x2014 <wipeArea+0x148>
    3010: 80 e6        	bra	$2ff8 <main+0xdca>
    3012: 8a           	txa
    3013: d0 e9        	bne	$2ffe <main+0xdd0>
    3015: a6 24        	ldx	$24                     ; 0x2024 <wipeArea+0x158>
    3017: b5 55        	lda	$55,x                   ; 0x2055 <wipeArea+0x189>
    3019: aa           	tax
    301a: f0 14        	beq	$3030 <main+0xe02>
    301c: 86 f3        	stx	$f3                     ; 0x20f3 <wipeArea+0x227>
    301e: 20 80 ff     	jsr	$ff80 <__heap_start+0x60c6>
    3021: 92 26        	sta	($26)                   ; 0x2026 <wipeArea+0x15a>
    3023: a9 00        	lda	#$0
    3025: 6a           	ror
    3026: 85 28        	sta	$28                     ; 0x2028 <wipeArea+0x15c>
    3028: a6 52        	ldx	$52                     ; 0x2052 <wipeArea+0x186>
    302a: d0 04        	bne	$3030 <main+0xe02>
    302c: a6 24        	ldx	$24                     ; 0x2024 <wipeArea+0x158>
    302e: 74 55        	stz	$55,x                   ; 0x2055 <wipeArea+0x189>
    3030: 64 4b        	stz	$4b                     ; 0x204b <wipeArea+0x17f>
    3032: 20 00 ff     	jsr	$ff00 <__heap_start+0x6046>
    3035: 92 26        	sta	($26)                   ; 0x2026 <wipeArea+0x15a>
    3037: a9 00        	lda	#$0
    3039: 6a           	ror
    303a: 85 28        	sta	$28                     ; 0x2028 <wipeArea+0x15c>
    303c: a6 4b        	ldx	$4b                     ; 0x204b <wipeArea+0x17f>
    303e: e0 46        	cpx	#$46
    3040: d0 d3        	bne	$3015 <main+0xde7>
    3042: 4c 3d 32     	jmp	$323d <main+0x100f>
    3045: c0 00        	cpy	#$0
    3047: a0 00        	ldy	#$0
    3049: a2 a9        	ldx	#$a9
    304b: 86 12        	stx	$12                     ; 0x2012 <wipeArea+0x146>
    304d: a2 6c        	ldx	#$6c
    304f: 86 13        	stx	$13                     ; 0x2013 <wipeArea+0x147>
    3051: a5 14        	lda	$14                     ; 0x2014 <wipeArea+0x148>
    3053: 90 1a        	bcc	$306f <main+0xe41>
    3055: ae aa 6c     	ldx	$6caa                   ; 0x6caa <fpr+0x3>
    3058: a0 00        	ldy	#$0
    305a: e0 3a        	cpx	#$3a
    305c: d0 11        	bne	$306f <main+0xe41>
    305e: c9 30        	cmp	#$30
    3060: a0 00        	ldy	#$0
    3062: a2 ab        	ldx	#$ab
    3064: 86 12        	stx	$12                     ; 0x2012 <wipeArea+0x146>
    3066: a2 6c        	ldx	#$6c
    3068: 86 13        	stx	$13                     ; 0x2013 <wipeArea+0x147>
    306a: 90 03        	bcc	$306f <main+0xe41>
    306c: 4c 29 4b     	jmp	$4b29 <main+0x28fb>
    306f: b6 55        	ldx	$55,y                   ; 0x2055 <wipeArea+0x189>
    3071: f0 03        	beq	$3076 <main+0xe48>
    3073: 4c 26 32     	jmp	$3226 <main+0xff8>
    3076: 84 24        	sty	$24                     ; 0x2024 <wipeArea+0x158>
    3078: a6 24        	ldx	$24                     ; 0x2024 <wipeArea+0x158>
    307a: 86 f3        	stx	$f3                     ; 0x20f3 <wipeArea+0x227>
    307c: a6 12        	ldx	$12                     ; 0x2012 <wipeArea+0x146>
    307e: a4 13        	ldy	$13                     ; 0x2013 <wipeArea+0x147>
    3080: 86 fb        	stx	$fb                     ; 0x20fb <opl3_initialize+0x7>
    3082: 84 fc        	sty	$fc                     ; 0x20fc <opl3_initialize+0x8>
    3084: b2 12        	lda	($12)                   ; 0x2012 <wipeArea+0x146>
    3086: d0 03        	bne	$308b <main+0xe5d>
    3088: 4c 11 32     	jmp	$3211 <main+0xfe3>
    308b: a2 00        	ldx	#$0
    308d: 8a           	txa
    308e: 64 16        	stz	$16                     ; 0x2016 <wipeArea+0x14a>
    3090: a0 01        	ldy	#$1
    3092: 86 14        	stx	$14                     ; 0x2014 <wipeArea+0x148>
    3094: e8           	inx
    3095: d0 02        	bne	$3099 <main+0xe6b>
    3097: e6 16        	inc	$16                     ; 0x2016 <wipeArea+0x14a>
    3099: 18           	clc
    309a: 85 15        	sta	$15                     ; 0x2015 <wipeArea+0x149>
    309c: a5 14        	lda	$14                     ; 0x2014 <wipeArea+0x148>
    309e: 65 12        	adc	$12                     ; 0x2012 <wipeArea+0x146>
    30a0: 85 14        	sta	$14                     ; 0x2014 <wipeArea+0x148>
    30a2: a5 15        	lda	$15                     ; 0x2015 <wipeArea+0x149>
    30a4: 65 13        	adc	$13                     ; 0x2013 <wipeArea+0x147>
    30a6: 85 15        	sta	$15                     ; 0x2015 <wipeArea+0x149>
    30a8: b1 14        	lda	($14),y                 ; 0x2014 <wipeArea+0x148>
    30aa: 85 14        	sta	$14                     ; 0x2014 <wipeArea+0x148>
    30ac: a5 16        	lda	$16                     ; 0x2016 <wipeArea+0x14a>
    30ae: e6 14        	inc	$14                     ; 0x2014 <wipeArea+0x148>
    30b0: c6 14        	dec	$14                     ; 0x2014 <wipeArea+0x148>
    30b2: d0 de        	bne	$3092 <main+0xe64>
    30b4: 86 fd        	stx	$fd                     ; 0x20fd <opl3_initialize+0x9>
    30b6: 20 78 ff     	jsr	$ff78 <__heap_start+0x60be>
    30b9: 92 26        	sta	($26)                   ; 0x2026 <wipeArea+0x15a>
    30bb: a9 00        	lda	#$0
    30bd: 6a           	ror
    30be: 85 28        	sta	$28                     ; 0x2028 <wipeArea+0x15c>
    30c0: a6 52        	ldx	$52                     ; 0x2052 <wipeArea+0x186>
    30c2: f0 03        	beq	$30c7 <main+0xe99>
    30c4: 4c 26 32     	jmp	$3226 <main+0xff8>
    30c7: 4c 9c 39     	jmp	$399c <main+0x176e>
    30ca: 18           	clc
    30cb: a5 1d        	lda	$1d                     ; 0x201d <wipeArea+0x151>
    30cd: 65 15        	adc	$15                     ; 0x2015 <wipeArea+0x149>
    30cf: 85 15        	sta	$15                     ; 0x2015 <wipeArea+0x149>
    30d1: a5 1c        	lda	$1c                     ; 0x201c <wipeArea+0x150>
    30d3: 65 14        	adc	$14                     ; 0x2014 <wipeArea+0x148>
    30d5: 18           	clc
    30d6: a0 01        	ldy	#$1
    30d8: aa           	tax
    30d9: a9 01        	lda	#$1
    30db: 32 12        	and	($12)                   ; 0x2012 <wipeArea+0x146>
    30dd: 5a           	phy
    30de: a4 15        	ldy	$15                     ; 0x2015 <wipeArea+0x149>
    30e0: 84 16        	sty	$16                     ; 0x2016 <wipeArea+0x14a>
    30e2: 7a           	ply
    30e3: 05 15        	ora	$15                     ; 0x2015 <wipeArea+0x149>
    30e5: 92 12        	sta	($12)                   ; 0x2012 <wipeArea+0x146>
    30e7: a5 12        	lda	$12                     ; 0x2012 <wipeArea+0x146>
    30e9: 65 15        	adc	$15                     ; 0x2015 <wipeArea+0x149>
    30eb: 85 17        	sta	$17                     ; 0x2017 <wipeArea+0x14b>
    30ed: 8a           	txa
    30ee: 65 13        	adc	$13                     ; 0x2013 <wipeArea+0x147>
    30f0: 85 15        	sta	$15                     ; 0x2015 <wipeArea+0x149>
    30f2: 18           	clc
    30f3: a5 17        	lda	$17                     ; 0x2017 <wipeArea+0x14b>
    30f5: 69 fe        	adc	#$fe
    30f7: 85 14        	sta	$14                     ; 0x2014 <wipeArea+0x148>
    30f9: a5 15        	lda	$15                     ; 0x2015 <wipeArea+0x149>
    30fb: 69 ff        	adc	#$ff
    30fd: 85 15        	sta	$15                     ; 0x2015 <wipeArea+0x149>
    30ff: 8a           	txa
    3100: 91 12        	sta	($12),y                 ; 0x2012 <wipeArea+0x146>
    3102: a5 16        	lda	$16                     ; 0x2016 <wipeArea+0x14a>
    3104: 92 14        	sta	($14)                   ; 0x2014 <wipeArea+0x148>
    3106: 8a           	txa
    3107: 91 14        	sta	($14),y                 ; 0x2014 <wipeArea+0x148>
    3109: b1 12        	lda	($12),y                 ; 0x2012 <wipeArea+0x146>
    310b: 85 14        	sta	$14                     ; 0x2014 <wipeArea+0x148>
    310d: a9 fe        	lda	#$fe
    310f: 32 12        	and	($12)                   ; 0x2012 <wipeArea+0x146>
    3111: 18           	clc
    3112: 6d 3d 9e     	adc	$9e3d                   ; 0x9e3d <_ZN12_GLOBAL__N_19free_sizeE>
    3115: aa           	tax
    3116: a5 14        	lda	$14                     ; 0x2014 <wipeArea+0x148>
    3118: 6d 3e 9e     	adc	$9e3e                   ; 0x9e3e <_ZN12_GLOBAL__N_19free_sizeE+0x1>
    311b: 85 14        	sta	$14                     ; 0x2014 <wipeArea+0x148>
    311d: 18           	clc
    311e: 8a           	txa
    311f: 69 fe        	adc	#$fe
    3121: 85 15        	sta	$15                     ; 0x2015 <wipeArea+0x149>
    3123: a5 14        	lda	$14                     ; 0x2014 <wipeArea+0x148>
    3125: 69 ff        	adc	#$ff
    3127: a6 15        	ldx	$15                     ; 0x2015 <wipeArea+0x149>
    3129: 8e 3d 9e     	stx	$9e3d                   ; 0x9e3d <_ZN12_GLOBAL__N_19free_sizeE>
    312c: 8d 3e 9e     	sta	$9e3e                   ; 0x9e3e <_ZN12_GLOBAL__N_19free_sizeE+0x1>
    312f: ae 3f 9e     	ldx	$9e3f                   ; 0x9e3f <_ZN12_GLOBAL__N_19free_listE>
    3132: 86 16        	stx	$16                     ; 0x2016 <wipeArea+0x14a>
    3134: ac 40 9e     	ldy	$9e40                   ; 0x9e40 <_ZN12_GLOBAL__N_19free_listE+0x1>
    3137: a9 00        	lda	#$0
    3139: 85 14        	sta	$14                     ; 0x2014 <wipeArea+0x148>
    313b: a9 00        	lda	#$0
    313d: 85 15        	sta	$15                     ; 0x2015 <wipeArea+0x149>
    313f: c4 15        	cpy	$15                     ; 0x2015 <wipeArea+0x149>
    3141: d0 07        	bne	$314a <main+0xf1c>
    3143: e4 14        	cpx	$14                     ; 0x2014 <wipeArea+0x148>
    3145: d0 03        	bne	$314a <main+0xf1c>
    3147: 4c 84 4b     	jmp	$4b84 <main+0x2956>
    314a: a6 12        	ldx	$12                     ; 0x2012 <wipeArea+0x146>
    314c: a5 13        	lda	$13                     ; 0x2013 <wipeArea+0x147>
    314e: 85 1a        	sta	$1a                     ; 0x201a <wipeArea+0x14e>
    3150: a5 12        	lda	$12                     ; 0x2012 <wipeArea+0x146>
    3152: 18           	clc
    3153: 69 02        	adc	#$2
    3155: 85 14        	sta	$14                     ; 0x2014 <wipeArea+0x148>
    3157: a5 13        	lda	$13                     ; 0x2013 <wipeArea+0x147>
    3159: 69 00        	adc	#$0
    315b: 85 15        	sta	$15                     ; 0x2015 <wipeArea+0x149>
    315d: 84 18        	sty	$18                     ; 0x2018 <wipeArea+0x14c>
    315f: a5 16        	lda	$16                     ; 0x2016 <wipeArea+0x14a>
    3161: 84 17        	sty	$17                     ; 0x2017 <wipeArea+0x14b>
    3163: a0 02        	ldy	#$2
    3165: 91 12        	sta	($12),y                 ; 0x2012 <wipeArea+0x146>
    3167: 85 19        	sta	$19                     ; 0x2019 <wipeArea+0x14d>
    3169: 88           	dey
    316a: a5 18        	lda	$18                     ; 0x2018 <wipeArea+0x14c>
    316c: 91 14        	sta	($14),y                 ; 0x2014 <wipeArea+0x148>
    316e: 18           	clc
    316f: a5 19        	lda	$19                     ; 0x2019 <wipeArea+0x14d>
    3171: 69 04        	adc	#$4
    3173: a8           	tay
    3174: a5 18        	lda	$18                     ; 0x2018 <wipeArea+0x14c>
    3176: 69 00        	adc	#$0
    3178: 85 19        	sta	$19                     ; 0x2019 <wipeArea+0x14d>
    317a: 84 18        	sty	$18                     ; 0x2018 <wipeArea+0x14c>
    317c: a0 04        	ldy	#$4
    317e: b1 16        	lda	($16),y                 ; 0x2016 <wipeArea+0x14a>
    3180: 85 1b        	sta	$1b                     ; 0x201b <wipeArea+0x14f>
    3182: a5 12        	lda	$12                     ; 0x2012 <wipeArea+0x146>
    3184: 18           	clc
    3185: 69 04        	adc	#$4
    3187: 85 1e        	sta	$1e                     ; 0x201e <wipeArea+0x152>
    3189: a5 13        	lda	$13                     ; 0x2013 <wipeArea+0x147>
    318b: 69 00        	adc	#$0
    318d: 85 1d        	sta	$1d                     ; 0x201d <wipeArea+0x151>
    318f: a0 01        	ldy	#$1
    3191: b1 18        	lda	($18),y                 ; 0x2018 <wipeArea+0x14c>
    3193: a4 1b        	ldy	$1b                     ; 0x201b <wipeArea+0x14f>
    3195: 84 16        	sty	$16                     ; 0x2016 <wipeArea+0x14a>
    3197: 85 17        	sta	$17                     ; 0x2017 <wipeArea+0x14b>
    3199: 85 1c        	sta	$1c                     ; 0x201c <wipeArea+0x150>
    319b: a4 1e        	ldy	$1e                     ; 0x201e <wipeArea+0x152>
    319d: 84 18        	sty	$18                     ; 0x2018 <wipeArea+0x14c>
    319f: a4 1d        	ldy	$1d                     ; 0x201d <wipeArea+0x151>
    31a1: 84 19        	sty	$19                     ; 0x2019 <wipeArea+0x14d>
    31a3: a0 04        	ldy	#$4
    31a5: a5 1b        	lda	$1b                     ; 0x201b <wipeArea+0x14f>
    31a7: 91 12        	sta	($12),y                 ; 0x2012 <wipeArea+0x146>
    31a9: a5 1c        	lda	$1c                     ; 0x201c <wipeArea+0x150>
    31ab: a0 01        	ldy	#$1
    31ad: 91 18        	sta	($18),y                 ; 0x2018 <wipeArea+0x14c>
    31af: 18           	clc
    31b0: a5 1b        	lda	$1b                     ; 0x201b <wipeArea+0x14f>
    31b2: 69 02        	adc	#$2
    31b4: 85 18        	sta	$18                     ; 0x2018 <wipeArea+0x14c>
    31b6: a5 1c        	lda	$1c                     ; 0x201c <wipeArea+0x150>
    31b8: 69 00        	adc	#$0
    31ba: 85 19        	sta	$19                     ; 0x2019 <wipeArea+0x14d>
    31bc: a5 12        	lda	$12                     ; 0x2012 <wipeArea+0x146>
    31be: c8           	iny
    31bf: 91 16        	sta	($16),y                 ; 0x2016 <wipeArea+0x14a>
    31c1: a5 13        	lda	$13                     ; 0x2013 <wipeArea+0x147>
    31c3: 88           	dey
    31c4: 91 18        	sta	($18),y                 ; 0x2018 <wipeArea+0x14c>
    31c6: c8           	iny
    31c7: b1 12        	lda	($12),y                 ; 0x2012 <wipeArea+0x146>
    31c9: 85 12        	sta	$12                     ; 0x2012 <wipeArea+0x146>
    31cb: 88           	dey
    31cc: b1 14        	lda	($14),y                 ; 0x2014 <wipeArea+0x148>
    31ce: a8           	tay
    31cf: a5 12        	lda	$12                     ; 0x2012 <wipeArea+0x146>
    31d1: 84 13        	sty	$13                     ; 0x2013 <wipeArea+0x147>
    31d3: 18           	clc
    31d4: 69 04        	adc	#$4
    31d6: 85 14        	sta	$14                     ; 0x2014 <wipeArea+0x148>
    31d8: 98           	tya
    31d9: 69 00        	adc	#$0
    31db: 85 15        	sta	$15                     ; 0x2015 <wipeArea+0x149>
    31dd: 8a           	txa
    31de: a0 04        	ldy	#$4
    31e0: 91 12        	sta	($12),y                 ; 0x2012 <wipeArea+0x146>
    31e2: a0 01        	ldy	#$1
    31e4: a5 1a        	lda	$1a                     ; 0x201a <wipeArea+0x14e>
    31e6: 91 14        	sta	($14),y                 ; 0x2014 <wipeArea+0x148>
    31e8: 64 4b        	stz	$4b                     ; 0x204b <wipeArea+0x17f>
    31ea: a6 2f        	ldx	$2f                     ; 0x202f <wipeArea+0x163>
    31ec: 86 12        	stx	$12                     ; 0x2012 <wipeArea+0x146>
    31ee: a6 2c        	ldx	$2c                     ; 0x202c <wipeArea+0x160>
    31f0: 86 13        	stx	$13                     ; 0x2013 <wipeArea+0x147>
    31f2: 20 00 ff     	jsr	$ff00 <__heap_start+0x6046>
    31f5: 92 12        	sta	($12)                   ; 0x2012 <wipeArea+0x146>
    31f7: a9 00        	lda	#$0
    31f9: 6a           	ror
    31fa: 85 28        	sta	$28                     ; 0x2028 <wipeArea+0x15c>
    31fc: a6 4b        	ldx	$4b                     ; 0x204b <wipeArea+0x17f>
    31fe: e0 32        	cpx	#$32
    3200: f0 04        	beq	$3206 <main+0xfd8>
    3202: e0 38        	cpx	#$38
    3204: d0 e2        	bne	$31e8 <main+0xfba>
    3206: a2 da        	ldx	#$da
    3208: 86 2a        	stx	$2a                     ; 0x202a <wipeArea+0x15e>
    320a: a2 6a        	ldx	#$6a
    320c: 86 2b        	stx	$2b                     ; 0x202b <wipeArea+0x15f>
    320e: 4c 6a 2f     	jmp	$2f6a <main+0xd3c>
    3211: a2 00        	ldx	#$0
    3213: 86 fd        	stx	$fd                     ; 0x20fd <opl3_initialize+0x9>
    3215: 20 78 ff     	jsr	$ff78 <__heap_start+0x60be>
    3218: 92 26        	sta	($26)                   ; 0x2026 <wipeArea+0x15a>
    321a: a9 00        	lda	#$0
    321c: 6a           	ror
    321d: 85 28        	sta	$28                     ; 0x2028 <wipeArea+0x15c>
    321f: a6 52        	ldx	$52                     ; 0x2052 <wipeArea+0x186>
    3221: d0 03        	bne	$3226 <main+0xff8>
    3223: 4c 9c 39     	jmp	$399c <main+0x176e>
    3226: a2 a9        	ldx	#$a9
    3228: 86 12        	stx	$12                     ; 0x2012 <wipeArea+0x146>
    322a: a2 6c        	ldx	#$6c
    322c: 86 13        	stx	$13                     ; 0x2013 <wipeArea+0x147>
    322e: a2 53        	ldx	#$53
    3230: 86 14        	stx	$14                     ; 0x2014 <wipeArea+0x148>
    3232: a2 6b        	ldx	#$6b
    3234: 86 15        	stx	$15                     ; 0x2015 <wipeArea+0x149>
    3236: a2 00        	ldx	#$0
    3238: a9 3c        	lda	#$3c
    323a: 20 1d 65     	jsr	$651d <memcpy>
    323d: a2 e5        	ldx	#$e5
    323f: 86 12        	stx	$12                     ; 0x2012 <wipeArea+0x146>
    3241: a2 6c        	ldx	#$6c
    3243: 86 13        	stx	$13                     ; 0x2013 <wipeArea+0x147>
    3245: 64 14        	stz	$14                     ; 0x2014 <wipeArea+0x148>
    3247: a2 78        	ldx	#$78
    3249: a9 00        	lda	#$0
    324b: 20 49 65     	jsr	$6549 <__memset>
    324e: a2 d5        	ldx	#$d5
    3250: 86 12        	stx	$12                     ; 0x2012 <wipeArea+0x146>
    3252: a2 6d        	ldx	#$6d
    3254: 86 13        	stx	$13                     ; 0x2013 <wipeArea+0x147>
    3256: a2 2e        	ldx	#$2e
    3258: 86 14        	stx	$14                     ; 0x2014 <wipeArea+0x148>
    325a: a2 68        	ldx	#$68
    325c: a9 00        	lda	#$0
    325e: 20 49 65     	jsr	$6549 <__memset>
    3261: 9c a7 6c     	stz	$6ca7                   ; 0x6ca7 <fpr>
    3264: a2 3e        	ldx	#$3e
    3266: 86 12        	stx	$12                     ; 0x2012 <wipeArea+0x146>
    3268: a2 9c        	ldx	#$9c
    326a: 86 13        	stx	$13                     ; 0x2013 <wipeArea+0x147>
    326c: 64 14        	stz	$14                     ; 0x2014 <wipeArea+0x148>
    326e: a2 6b        	ldx	#$6b
    3270: a9 00        	lda	#$0
    3272: 20 49 65     	jsr	$6549 <__memset>
    3275: a2 03        	ldx	#$3
    3277: 8e a8 6c     	stx	$6ca8                   ; 0x6ca8 <fpr+0x1>
    327a: ae 06 6b     	ldx	$6b06                   ; 0x6b06 <__bss_size+0x396c>
    327d: 8e a9 9c     	stx	$9ca9                   ; 0x9ca9 <fpr+0x3002>
    3280: ae 07 6b     	ldx	$6b07                   ; 0x6b07 <__bss_size+0x396d>
    3283: 8e aa 9c     	stx	$9caa                   ; 0x9caa <fpr+0x3003>
    3286: ae 08 6b     	ldx	$6b08                   ; 0x6b08 <__bss_size+0x396e>
    3289: 8e ab 9c     	stx	$9cab                   ; 0x9cab <fpr+0x3004>
    328c: a2 ac        	ldx	#$ac
    328e: 86 12        	stx	$12                     ; 0x2012 <wipeArea+0x146>
    3290: a2 9c        	ldx	#$9c
    3292: 86 13        	stx	$13                     ; 0x2013 <wipeArea+0x147>
    3294: 64 14        	stz	$14                     ; 0x2014 <wipeArea+0x148>
    3296: a2 09        	ldx	#$9
    3298: a9 00        	lda	#$0
    329a: 20 49 65     	jsr	$6549 <__memset>
    329d: 20 59 03     	jsr	$359 <readDirectory>
    32a0: 20 d3 0b     	jsr	$bd3 <sortFileList>
    32a3: a2 a0        	ldx	#$a0
    32a5: 86 33        	stx	$33                     ; 0x2033 <wipeArea+0x167>
    32a7: 4c 11 34     	jmp	$3411 <main+0x11e3>
    32aa: ad a9 6c     	lda	$6ca9                   ; 0x6ca9 <fpr+0x2>
    32ad: d0 03        	bne	$32b2 <main+0x1084>
    32af: 4c e7 33     	jmp	$33e7 <main+0x11b9>
    32b2: c9 2f        	cmp	#$2f
    32b4: d0 0c        	bne	$32c2 <main+0x1094>
    32b6: ae aa 6c     	ldx	$6caa                   ; 0x6caa <fpr+0x3>
    32b9: a9 2f        	lda	#$2f
    32bb: e0 00        	cpx	#$0
    32bd: d0 03        	bne	$32c2 <main+0x1094>
    32bf: 4c e7 33     	jmp	$33e7 <main+0x11b9>
    32c2: a2 a9        	ldx	#$a9
    32c4: 86 14        	stx	$14                     ; 0x2014 <wipeArea+0x148>
    32c6: a2 6c        	ldx	#$6c
    32c8: 86 15        	stx	$15                     ; 0x2015 <wipeArea+0x149>
    32ca: a2 00        	ldx	#$0
    32cc: 86 12        	stx	$12                     ; 0x2012 <wipeArea+0x146>
    32ce: a2 00        	ldx	#$0
    32d0: 86 13        	stx	$13                     ; 0x2013 <wipeArea+0x147>
    32d2: a0 01        	ldy	#$1
    32d4: a2 00        	ldx	#$0
    32d6: 86 16        	stx	$16                     ; 0x2016 <wipeArea+0x14a>
    32d8: a2 00        	ldx	#$0
    32da: 86 17        	stx	$17                     ; 0x2017 <wipeArea+0x14b>
    32dc: 80 0e        	bra	$32ec <main+0x10be>
    32de: b1 14        	lda	($14),y                 ; 0x2014 <wipeArea+0x148>
    32e0: e6 14        	inc	$14                     ; 0x2014 <wipeArea+0x148>
    32e2: d0 02        	bne	$32e6 <main+0x10b8>
    32e4: e6 15        	inc	$15                     ; 0x2015 <wipeArea+0x149>
    32e6: aa           	tax
    32e7: d0 03        	bne	$32ec <main+0x10be>
    32e9: 4c ba 33     	jmp	$33ba <main+0x118c>
    32ec: c9 2f        	cmp	#$2f
    32ee: d0 ee        	bne	$32de <main+0x10b0>
    32f0: a6 14        	ldx	$14                     ; 0x2014 <wipeArea+0x148>
    32f2: 86 12        	stx	$12                     ; 0x2012 <wipeArea+0x146>
    32f4: a6 15        	ldx	$15                     ; 0x2015 <wipeArea+0x149>
    32f6: 86 13        	stx	$13                     ; 0x2013 <wipeArea+0x147>
    32f8: b1 14        	lda	($14),y                 ; 0x2014 <wipeArea+0x148>
    32fa: e6 14        	inc	$14                     ; 0x2014 <wipeArea+0x148>
    32fc: d0 e8        	bne	$32e6 <main+0x10b8>
    32fe: 80 e4        	bra	$32e4 <main+0x10b6>
    3300: a6 10        	ldx	$10                     ; 0x2010 <wipeArea+0x144>
    3302: a4 11        	ldy	$11                     ; 0x2011 <wipeArea+0x145>
    3304: 18           	clc
    3305: 8a           	txa
    3306: 69 02        	adc	#$2
    3308: 85 12        	sta	$12                     ; 0x2012 <wipeArea+0x146>
    330a: 98           	tya
    330b: 69 00        	adc	#$0
    330d: 85 13        	sta	$13                     ; 0x2013 <wipeArea+0x147>
    330f: 18           	clc
    3310: 8a           	txa
    3311: 69 04        	adc	#$4
    3313: 85 14        	sta	$14                     ; 0x2014 <wipeArea+0x148>
    3315: 98           	tya
    3316: 69 00        	adc	#$0
    3318: aa           	tax
    3319: a9 a9        	lda	#$a9
    331b: 92 10        	sta	($10)                   ; 0x2010 <wipeArea+0x144>
    331d: a0 01        	ldy	#$1
    331f: a9 6c        	lda	#$6c
    3321: 91 10        	sta	($10),y                 ; 0x2010 <wipeArea+0x144>
    3323: c8           	iny
    3324: a9 73        	lda	#$73
    3326: 91 10        	sta	($10),y                 ; 0x2010 <wipeArea+0x144>
    3328: a9 6a        	lda	#$6a
    332a: 88           	dey
    332b: 91 12        	sta	($12),y                 ; 0x2012 <wipeArea+0x146>
    332d: a4 14        	ldy	$14                     ; 0x2014 <wipeArea+0x148>
    332f: 84 12        	sty	$12                     ; 0x2012 <wipeArea+0x146>
    3331: 86 13        	stx	$13                     ; 0x2013 <wipeArea+0x147>
    3333: a0 04        	ldy	#$4
    3335: a9 e5        	lda	#$e5
    3337: 91 10        	sta	($10),y                 ; 0x2010 <wipeArea+0x144>
    3339: a9 6c        	lda	#$6c
    333b: a0 01        	ldy	#$1
    333d: 91 12        	sta	($12),y                 ; 0x2012 <wipeArea+0x146>
    333f: a6 26        	ldx	$26                     ; 0x2026 <wipeArea+0x15a>
    3341: 86 12        	stx	$12                     ; 0x2012 <wipeArea+0x146>
    3343: a6 27        	ldx	$27                     ; 0x2027 <wipeArea+0x15b>
    3345: 86 13        	stx	$13                     ; 0x2013 <wipeArea+0x147>
    3347: 20 5e 62     	jsr	$625e <sprintf>
    334a: a2 d5        	ldx	#$d5
    334c: 86 12        	stx	$12                     ; 0x2012 <wipeArea+0x146>
    334e: a2 6d        	ldx	#$6d
    3350: 86 13        	stx	$13                     ; 0x2013 <wipeArea+0x147>
    3352: 64 24        	stz	$24                     ; 0x2024 <wipeArea+0x158>
    3354: a2 2e        	ldx	#$2e
    3356: 86 14        	stx	$14                     ; 0x2014 <wipeArea+0x148>
    3358: a2 68        	ldx	#$68
    335a: a9 00        	lda	#$0
    335c: 20 49 65     	jsr	$6549 <__memset>
    335f: a2 3e        	ldx	#$3e
    3361: 86 12        	stx	$12                     ; 0x2012 <wipeArea+0x146>
    3363: a2 9c        	ldx	#$9c
    3365: 86 13        	stx	$13                     ; 0x2013 <wipeArea+0x147>
    3367: 64 14        	stz	$14                     ; 0x2014 <wipeArea+0x148>
    3369: a2 6b        	ldx	#$6b
    336b: a9 00        	lda	#$0
    336d: 20 49 65     	jsr	$6549 <__memset>
    3370: a2 3c        	ldx	#$3c
    3372: 64 14        	stz	$14                     ; 0x2014 <wipeArea+0x148>
    3374: 80 06        	bra	$337c <main+0x114e>
    3376: e6 24        	inc	$24                     ; 0x2024 <wipeArea+0x158>
    3378: a5 14        	lda	$14                     ; 0x2014 <wipeArea+0x148>
    337a: f0 18        	beq	$3394 <main+0x1166>
    337c: a4 24        	ldy	$24                     ; 0x2024 <wipeArea+0x158>
    337e: b1 26        	lda	($26),y                 ; 0x2026 <wipeArea+0x15a>
    3380: 85 12        	sta	$12                     ; 0x2012 <wipeArea+0x146>
    3382: b1 26        	lda	($26),y                 ; 0x2026 <wipeArea+0x15a>
    3384: 99 a9 6c     	sta	$6ca9,y                 ; 0x6ca9 <fpr+0x2>
    3387: a5 12        	lda	$12                     ; 0x2012 <wipeArea+0x146>
    3389: f0 0f        	beq	$339a <main+0x116c>
    338b: ca           	dex
    338c: e0 ff        	cpx	#$ff
    338e: d0 e6        	bne	$3376 <main+0x1148>
    3390: c6 14        	dec	$14                     ; 0x2014 <wipeArea+0x148>
    3392: 80 e2        	bra	$3376 <main+0x1148>
    3394: 8a           	txa
    3395: d0 e5        	bne	$337c <main+0x114e>
    3397: 4c 0b 34     	jmp	$340b <main+0x11dd>
    339a: ca           	dex
    339b: e0 ff        	cpx	#$ff
    339d: d0 02        	bne	$33a1 <main+0x1173>
    339f: c6 14        	dec	$14                     ; 0x2014 <wipeArea+0x148>
    33a1: a5 14        	lda	$14                     ; 0x2014 <wipeArea+0x148>
    33a3: d0 06        	bne	$33ab <main+0x117d>
    33a5: 8a           	txa
    33a6: d0 03        	bne	$33ab <main+0x117d>
    33a8: 4c 0b 34     	jmp	$340b <main+0x11dd>
    33ab: a9 aa        	lda	#$aa
    33ad: 18           	clc
    33ae: 65 24        	adc	$24                     ; 0x2024 <wipeArea+0x158>
    33b0: 85 12        	sta	$12                     ; 0x2012 <wipeArea+0x146>
    33b2: a9 6c        	lda	#$6c
    33b4: 69 00        	adc	#$0
    33b6: 85 13        	sta	$13                     ; 0x2013 <wipeArea+0x147>
    33b8: 80 4c        	bra	$3406 <main+0x11d8>
    33ba: a6 13        	ldx	$13                     ; 0x2013 <wipeArea+0x147>
    33bc: e4 17        	cpx	$17                     ; 0x2017 <wipeArea+0x14b>
    33be: d0 0a        	bne	$33ca <main+0x119c>
    33c0: a6 12        	ldx	$12                     ; 0x2012 <wipeArea+0x146>
    33c2: a9 00        	lda	#$0
    33c4: e4 16        	cpx	$16                     ; 0x2016 <wipeArea+0x14a>
    33c6: d0 04        	bne	$33cc <main+0x119e>
    33c8: 80 16        	bra	$33e0 <main+0x11b2>
    33ca: a9 00        	lda	#$0
    33cc: a6 13        	ldx	$13                     ; 0x2013 <wipeArea+0x147>
    33ce: 48           	pha
    33cf: a0 18        	ldy	#$18
    33d1: b1 10        	lda	($10),y                 ; 0x2010 <wipeArea+0x144>
    33d3: 85 14        	sta	$14                     ; 0x2014 <wipeArea+0x148>
    33d5: 68           	pla
    33d6: e4 14        	cpx	$14                     ; 0x2014 <wipeArea+0x148>
    33d8: d0 0b        	bne	$33e5 <main+0x11b7>
    33da: a6 12        	ldx	$12                     ; 0x2012 <wipeArea+0x146>
    33dc: e4 2a        	cpx	$2a                     ; 0x202a <wipeArea+0x15e>
    33de: d0 05        	bne	$33e5 <main+0x11b7>
    33e0: 9c a9 6c     	stz	$6ca9                   ; 0x6ca9 <fpr+0x2>
    33e3: 80 02        	bra	$33e7 <main+0x11b9>
    33e5: 92 12        	sta	($12)                   ; 0x2012 <wipeArea+0x146>
    33e7: a2 d5        	ldx	#$d5
    33e9: 86 12        	stx	$12                     ; 0x2012 <wipeArea+0x146>
    33eb: a2 6d        	ldx	#$6d
    33ed: 86 13        	stx	$13                     ; 0x2013 <wipeArea+0x147>
    33ef: a2 2e        	ldx	#$2e
    33f1: 86 14        	stx	$14                     ; 0x2014 <wipeArea+0x148>
    33f3: a2 68        	ldx	#$68
    33f5: a9 00        	lda	#$0
    33f7: 20 49 65     	jsr	$6549 <__memset>
    33fa: a2 3e        	ldx	#$3e
    33fc: 86 12        	stx	$12                     ; 0x2012 <wipeArea+0x146>
    33fe: a2 9c        	ldx	#$9c
    3400: 86 13        	stx	$13                     ; 0x2013 <wipeArea+0x147>
    3402: 64 14        	stz	$14                     ; 0x2014 <wipeArea+0x148>
    3404: a2 6b        	ldx	#$6b
    3406: a9 00        	lda	#$0
    3408: 20 49 65     	jsr	$6549 <__memset>
    340b: 20 59 03     	jsr	$359 <readDirectory>
    340e: 20 d3 0b     	jsr	$bd3 <sortFileList>
    3411: ad a7 9c     	lda	$9ca7                   ; 0x9ca7 <fpr+0x3000>
    3414: ae a8 9c     	ldx	$9ca8                   ; 0x9ca8 <fpr+0x3001>
    3417: a0 a7        	ldy	#$a7
    3419: 84 12        	sty	$12                     ; 0x2012 <wipeArea+0x146>
    341b: a0 6c        	ldy	#$6c
    341d: 84 13        	sty	$13                     ; 0x2013 <wipeArea+0x147>
    341f: 20 18 0f     	jsr	$f18 <displayFileList>
    3422: 20 7c 12     	jsr	$127c <pickFile>
    3425: c9 04        	cmp	#$4
    3427: b0 f9        	bcs	$3422 <main+0x11f4>
    3429: 0a           	asl
    342a: aa           	tax
    342b: 7c 04 67     	jmp	($6704,x)               ; 0x6704 <__bss_size+0x356a>
    342e: ae a7 6c     	ldx	$6ca7                   ; 0x6ca7 <fpr>
    3431: ac a8 6c     	ldy	$6ca8                   ; 0x6ca8 <fpr+0x1>
    3434: 86 53        	stx	$53                     ; 0x2053 <wipeArea+0x187>
    3436: 8e 14 d0     	stx	$d014                   ; 0xd014 <__heap_start+0x315a>
    3439: 9c 15 d0     	stz	$d015                   ; 0xd015 <__heap_start+0x315b>
    343c: 84 54        	sty	$54                     ; 0x2054 <wipeArea+0x188>
    343e: 8c 16 d0     	sty	$d016                   ; 0xd016 <__heap_start+0x315c>
    3441: 9c 17 d0     	stz	$d017                   ; 0xd017 <__heap_start+0x315d>
    3444: a2 a7        	ldx	#$a7
    3446: 86 12        	stx	$12                     ; 0x2012 <wipeArea+0x146>
    3448: a2 6c        	ldx	#$6c
    344a: 86 13        	stx	$13                     ; 0x2013 <wipeArea+0x147>
    344c: 20 cc 1e     	jsr	$1ecc <wipeArea>
    344f: a6 10        	ldx	$10                     ; 0x2010 <wipeArea+0x144>
    3451: a4 11        	ldy	$11                     ; 0x2011 <wipeArea+0x145>
    3453: 18           	clc
    3454: 8a           	txa
    3455: 69 02        	adc	#$2
    3457: 85 12        	sta	$12                     ; 0x2012 <wipeArea+0x146>
    3459: 98           	tya
    345a: 69 00        	adc	#$0
    345c: 85 13        	sta	$13                     ; 0x2013 <wipeArea+0x147>
    345e: 18           	clc
    345f: 8a           	txa
    3460: 69 04        	adc	#$4
    3462: 85 14        	sta	$14                     ; 0x2014 <wipeArea+0x148>
    3464: 98           	tya
    3465: 69 00        	adc	#$0
    3467: aa           	tax
    3468: a9 a9        	lda	#$a9
    346a: 92 10        	sta	($10)                   ; 0x2010 <wipeArea+0x144>
    346c: a0 01        	ldy	#$1
    346e: a9 6c        	lda	#$6c
    3470: 91 10        	sta	($10),y                 ; 0x2010 <wipeArea+0x144>
    3472: c8           	iny
    3473: a9 73        	lda	#$73
    3475: 91 10        	sta	($10),y                 ; 0x2010 <wipeArea+0x144>
    3477: a9 6a        	lda	#$6a
    3479: 88           	dey
    347a: 91 12        	sta	($12),y                 ; 0x2012 <wipeArea+0x146>
    347c: a4 14        	ldy	$14                     ; 0x2014 <wipeArea+0x148>
    347e: 84 12        	sty	$12                     ; 0x2012 <wipeArea+0x146>
    3480: 86 13        	stx	$13                     ; 0x2013 <wipeArea+0x147>
    3482: a0 04        	ldy	#$4
    3484: a9 e5        	lda	#$e5
    3486: 91 10        	sta	($10),y                 ; 0x2010 <wipeArea+0x144>
    3488: a9 6c        	lda	#$6c
    348a: a0 01        	ldy	#$1
    348c: 91 12        	sta	($12),y                 ; 0x2012 <wipeArea+0x146>
    348e: a2 c3        	ldx	#$c3
    3490: 86 12        	stx	$12                     ; 0x2012 <wipeArea+0x146>
    3492: a2 9d        	ldx	#$9d
    3494: 86 13        	stx	$13                     ; 0x2013 <wipeArea+0x147>
    3496: 20 5e 62     	jsr	$625e <sprintf>
    3499: ae c3 9d     	ldx	$9dc3                   ; 0x9dc3 <name>
    349c: 64 14        	stz	$14                     ; 0x2014 <wipeArea+0x148>
    349e: a0 00        	ldy	#$0
    34a0: a9 c3        	lda	#$c3
    34a2: 85 12        	sta	$12                     ; 0x2012 <wipeArea+0x146>
    34a4: a9 9d        	lda	#$9d
    34a6: 85 13        	sta	$13                     ; 0x2013 <wipeArea+0x147>
    34a8: 8a           	txa
    34a9: f0 46        	beq	$34f1 <main+0x12c3>
    34ab: 86 15        	stx	$15                     ; 0x2015 <wipeArea+0x149>
    34ad: 64 12        	stz	$12                     ; 0x2012 <wipeArea+0x146>
    34af: 64 13        	stz	$13                     ; 0x2013 <wipeArea+0x147>
    34b1: a4 13        	ldy	$13                     ; 0x2013 <wipeArea+0x147>
    34b3: a6 12        	ldx	$12                     ; 0x2012 <wipeArea+0x146>
    34b5: e8           	inx
    34b6: d0 01        	bne	$34b9 <main+0x128b>
    34b8: c8           	iny
    34b9: a9 c4        	lda	#$c4
    34bb: 18           	clc
    34bc: 65 12        	adc	$12                     ; 0x2012 <wipeArea+0x146>
    34be: 85 12        	sta	$12                     ; 0x2012 <wipeArea+0x146>
    34c0: a9 9d        	lda	#$9d
    34c2: 65 13        	adc	$13                     ; 0x2013 <wipeArea+0x147>
    34c4: 85 13        	sta	$13                     ; 0x2013 <wipeArea+0x147>
    34c6: b2 12        	lda	($12)                   ; 0x2012 <wipeArea+0x146>
    34c8: 86 12        	stx	$12                     ; 0x2012 <wipeArea+0x146>
    34ca: 84 13        	sty	$13                     ; 0x2013 <wipeArea+0x147>
    34cc: d0 e3        	bne	$34b1 <main+0x1283>
    34ce: 98           	tya
    34cf: d0 04        	bne	$34d5 <main+0x12a7>
    34d1: e0 02        	cpx	#$2
    34d3: 80 02        	bra	$34d7 <main+0x12a9>
    34d5: c0 00        	cpy	#$0
    34d7: a0 00        	ldy	#$0
    34d9: a2 c3        	ldx	#$c3
    34db: 86 12        	stx	$12                     ; 0x2012 <wipeArea+0x146>
    34dd: a2 9d        	ldx	#$9d
    34df: 86 13        	stx	$13                     ; 0x2013 <wipeArea+0x147>
    34e1: a5 15        	lda	$15                     ; 0x2015 <wipeArea+0x149>
    34e3: 90 0c        	bcc	$34f1 <main+0x12c3>
    34e5: ae c4 9d     	ldx	$9dc4                   ; 0x9dc4 <name+0x1>
    34e8: a0 00        	ldy	#$0
    34ea: e0 3a        	cpx	#$3a
    34ec: d0 03        	bne	$34f1 <main+0x12c3>
    34ee: 4c 08 4b     	jmp	$4b08 <main+0x28da>
    34f1: 84 18        	sty	$18                     ; 0x2018 <wipeArea+0x14c>
    34f3: a2 bf        	ldx	#$bf
    34f5: 86 14        	stx	$14                     ; 0x2014 <wipeArea+0x148>
    34f7: a2 6a        	ldx	#$6a
    34f9: 86 15        	stx	$15                     ; 0x2015 <wipeArea+0x149>
    34fb: a2 00        	ldx	#$0
    34fd: 80 0a        	bra	$3509 <main+0x12db>
    34ff: a0 02        	ldy	#$2
    3501: e6 14        	inc	$14                     ; 0x2014 <wipeArea+0x148>
    3503: d0 02        	bne	$3507 <main+0x12d9>
    3505: e6 15        	inc	$15                     ; 0x2015 <wipeArea+0x149>
    3507: 5a           	phy
    3508: fa           	plx
    3509: b2 14        	lda	($14)                   ; 0x2014 <wipeArea+0x148>
    350b: c9 61        	cmp	#$61
    350d: f0 f0        	beq	$34ff <main+0x12d1>
    350f: a0 01        	ldy	#$1
    3511: c9 77        	cmp	#$77
    3513: f0 05        	beq	$351a <main+0x12ec>
    3515: a8           	tay
    3516: f0 08        	beq	$3520 <main+0x12f2>
    3518: da           	phx
    3519: 7a           	ply
    351a: e6 14        	inc	$14                     ; 0x2014 <wipeArea+0x148>
    351c: f0 e7        	beq	$3505 <main+0x12d7>
    351e: 80 e7        	bra	$3507 <main+0x12d9>
    3520: a4 12        	ldy	$12                     ; 0x2012 <wipeArea+0x146>
    3522: a5 13        	lda	$13                     ; 0x2013 <wipeArea+0x147>
    3524: 84 fb        	sty	$fb                     ; 0x20fb <opl3_initialize+0x7>
    3526: 85 fc        	sta	$fc                     ; 0x20fc <opl3_initialize+0x8>
    3528: b2 12        	lda	($12)                   ; 0x2012 <wipeArea+0x146>
    352a: f0 33        	beq	$355f <main+0x1331>
    352c: 64 15        	stz	$15                     ; 0x2015 <wipeArea+0x149>
    352e: a9 00        	lda	#$0
    3530: 64 14        	stz	$14                     ; 0x2014 <wipeArea+0x148>
    3532: a0 01        	ldy	#$1
    3534: 5a           	phy
    3535: a4 15        	ldy	$15                     ; 0x2015 <wipeArea+0x149>
    3537: 84 16        	sty	$16                     ; 0x2016 <wipeArea+0x14a>
    3539: 7a           	ply
    353a: e6 15        	inc	$15                     ; 0x2015 <wipeArea+0x149>
    353c: d0 02        	bne	$3540 <main+0x1312>
    353e: e6 14        	inc	$14                     ; 0x2014 <wipeArea+0x148>
    3540: 18           	clc
    3541: 85 17        	sta	$17                     ; 0x2017 <wipeArea+0x14b>
    3543: a5 16        	lda	$16                     ; 0x2016 <wipeArea+0x14a>
    3545: 65 12        	adc	$12                     ; 0x2012 <wipeArea+0x146>
    3547: 85 16        	sta	$16                     ; 0x2016 <wipeArea+0x14a>
    3549: a5 17        	lda	$17                     ; 0x2017 <wipeArea+0x14b>
    354b: 65 13        	adc	$13                     ; 0x2013 <wipeArea+0x147>
    354d: 85 17        	sta	$17                     ; 0x2017 <wipeArea+0x14b>
    354f: b1 16        	lda	($16),y                 ; 0x2016 <wipeArea+0x14a>
    3551: 85 16        	sta	$16                     ; 0x2016 <wipeArea+0x14a>
    3553: a5 14        	lda	$14                     ; 0x2014 <wipeArea+0x148>
    3555: e6 16        	inc	$16                     ; 0x2016 <wipeArea+0x14a>
    3557: c6 16        	dec	$16                     ; 0x2016 <wipeArea+0x14a>
    3559: d0 d9        	bne	$3534 <main+0x1306>
    355b: a4 15        	ldy	$15                     ; 0x2015 <wipeArea+0x149>
    355d: 80 02        	bra	$3561 <main+0x1333>
    355f: a0 00        	ldy	#$0
    3561: 84 fd        	sty	$fd                     ; 0x20fd <opl3_initialize+0x9>
    3563: a4 18        	ldy	$18                     ; 0x2018 <wipeArea+0x14c>
    3565: 84 f3        	sty	$f3                     ; 0x20f3 <wipeArea+0x227>
    3567: 86 f5        	stx	$f5                     ; 0x20f5 <opl3_initialize+0x1>
    3569: 20 5c ff     	jsr	$ff5c <__heap_start+0x60a2>
    356c: 92 26        	sta	($26)                   ; 0x2026 <wipeArea+0x15a>
    356e: a9 00        	lda	#$0
    3570: 6a           	ror
    3571: 85 28        	sta	$28                     ; 0x2028 <wipeArea+0x15c>
    3573: a6 52        	ldx	$52                     ; 0x2052 <wipeArea+0x186>
    3575: a0 00        	ldy	#$0
    3577: 84 12        	sty	$12                     ; 0x2012 <wipeArea+0x146>
    3579: a0 00        	ldy	#$0
    357b: 84 13        	sty	$13                     ; 0x2013 <wipeArea+0x147>
    357d: a5 12        	lda	$12                     ; 0x2012 <wipeArea+0x146>
    357f: a0 1b        	ldy	#$1b
    3581: 91 10        	sta	($10),y                 ; 0x2010 <wipeArea+0x144>
    3583: a5 13        	lda	$13                     ; 0x2013 <wipeArea+0x147>
    3585: c8           	iny
    3586: 91 10        	sta	($10),y                 ; 0x2010 <wipeArea+0x144>
    3588: a0 19        	ldy	#$19
    358a: b1 10        	lda	($10),y                 ; 0x2010 <wipeArea+0x144>
    358c: 85 14        	sta	$14                     ; 0x2014 <wipeArea+0x148>
    358e: c8           	iny
    358f: b1 10        	lda	($10),y                 ; 0x2010 <wipeArea+0x144>
    3591: 85 15        	sta	$15                     ; 0x2015 <wipeArea+0x149>
    3593: 8a           	txa
    3594: d0 03        	bne	$3599 <main+0x136b>
    3596: 4c 75 39     	jmp	$3975 <main+0x1747>
    3599: a0 00        	ldy	#$0
    359b: 64 12        	stz	$12                     ; 0x2012 <wipeArea+0x146>
    359d: 5a           	phy
    359e: 98           	tya
    359f: a0 15        	ldy	#$15
    35a1: 91 10        	sta	($10),y                 ; 0x2010 <wipeArea+0x144>
    35a3: a0 19        	ldy	#$19
    35a5: 91 10        	sta	($10),y                 ; 0x2010 <wipeArea+0x144>
    35a7: a0 12        	ldy	#$12
    35a9: 91 10        	sta	($10),y                 ; 0x2010 <wipeArea+0x144>
    35ab: 88           	dey
    35ac: 91 10        	sta	($10),y                 ; 0x2010 <wipeArea+0x144>
    35ae: a0 1e        	ldy	#$1e
    35b0: 91 10        	sta	($10),y                 ; 0x2010 <wipeArea+0x144>
    35b2: 7a           	ply
    35b3: 64 12        	stz	$12                     ; 0x2012 <wipeArea+0x146>
    35b5: 64 13        	stz	$13                     ; 0x2013 <wipeArea+0x147>
    35b7: 84 24        	sty	$24                     ; 0x2024 <wipeArea+0x158>
    35b9: a0 1b        	ldy	#$1b
    35bb: b1 10        	lda	($10),y                 ; 0x2010 <wipeArea+0x144>
    35bd: 85 16        	sta	$16                     ; 0x2016 <wipeArea+0x14a>
    35bf: c8           	iny
    35c0: b1 10        	lda	($10),y                 ; 0x2010 <wipeArea+0x144>
    35c2: 85 17        	sta	$17                     ; 0x2017 <wipeArea+0x14b>
    35c4: b2 16        	lda	($16)                   ; 0x2016 <wipeArea+0x14a>
    35c6: 85 16        	sta	$16                     ; 0x2016 <wipeArea+0x14a>
    35c8: 18           	clc
    35c9: a5 10        	lda	$10                     ; 0x2010 <wipeArea+0x144>
    35cb: 69 26        	adc	#$26
    35cd: aa           	tax
    35ce: a5 11        	lda	$11                     ; 0x2011 <wipeArea+0x145>
    35d0: 69 00        	adc	#$0
    35d2: a8           	tay
    35d3: 86 2f        	stx	$2f                     ; 0x202f <wipeArea+0x163>
    35d5: 8a           	txa
    35d6: 18           	clc
    35d7: 65 12        	adc	$12                     ; 0x2012 <wipeArea+0x146>
    35d9: 85 18        	sta	$18                     ; 0x2018 <wipeArea+0x14c>
    35db: 84 2c        	sty	$2c                     ; 0x202c <wipeArea+0x160>
    35dd: 98           	tya
    35de: 65 13        	adc	$13                     ; 0x2013 <wipeArea+0x147>
    35e0: a6 16        	ldx	$16                     ; 0x2016 <wipeArea+0x14a>
    35e2: d0 03        	bne	$35e7 <main+0x13b9>
    35e4: 4c 4d 36     	jmp	$364d <main+0x141f>
    35e7: a6 16        	ldx	$16                     ; 0x2016 <wipeArea+0x14a>
    35e9: 85 17        	sta	$17                     ; 0x2017 <wipeArea+0x14b>
    35eb: 38           	sec
    35ec: a9 10        	lda	#$10
    35ee: e5 12        	sbc	$12                     ; 0x2012 <wipeArea+0x146>
    35f0: 86 f3        	stx	$f3                     ; 0x20f3 <wipeArea+0x227>
    35f2: 85 f4        	sta	$f4                     ; 0x20f4 <opl3_initialize>
    35f4: 20 60 ff     	jsr	$ff60 <__heap_start+0x60a6>
    35f7: 92 14        	sta	($14)                   ; 0x2014 <wipeArea+0x148>
    35f9: a9 00        	lda	#$0
    35fb: 6a           	ror
    35fc: 85 28        	sta	$28                     ; 0x2028 <wipeArea+0x15c>
    35fe: a6 52        	ldx	$52                     ; 0x2052 <wipeArea+0x186>
    3600: a4 24        	ldy	$24                     ; 0x2024 <wipeArea+0x158>
    3602: 8a           	txa
    3603: f0 03        	beq	$3608 <main+0x13da>
    3605: 4c b3 36     	jmp	$36b3 <main+0x1485>
    3608: a6 18        	ldx	$18                     ; 0x2018 <wipeArea+0x14c>
    360a: 86 16        	stx	$16                     ; 0x2016 <wipeArea+0x14a>
    360c: 64 4b        	stz	$4b                     ; 0x204b <wipeArea+0x17f>
    360e: 20 00 ff     	jsr	$ff00 <__heap_start+0x6046>
    3611: 92 14        	sta	($14)                   ; 0x2014 <wipeArea+0x148>
    3613: a9 00        	lda	#$0
    3615: 6a           	ror
    3616: 85 28        	sta	$28                     ; 0x2028 <wipeArea+0x15c>
    3618: a6 4b        	ldx	$4b                     ; 0x204b <wipeArea+0x17f>
    361a: e0 38        	cpx	#$38
    361c: d0 03        	bne	$3621 <main+0x13f3>
    361e: 4c b3 36     	jmp	$36b3 <main+0x1485>
    3621: e0 30        	cpx	#$30
    3623: d0 03        	bne	$3628 <main+0x13fa>
    3625: 4c b3 36     	jmp	$36b3 <main+0x1485>
    3628: e0 2c        	cpx	#$2c
    362a: d0 e0        	bne	$360c <main+0x13de>
    362c: a6 18        	ldx	$18                     ; 0x2018 <wipeArea+0x14c>
    362e: 86 fb        	stx	$fb                     ; 0x20fb <opl3_initialize+0x7>
    3630: a6 17        	ldx	$17                     ; 0x2017 <wipeArea+0x14b>
    3632: 86 fc        	stx	$fc                     ; 0x20fc <opl3_initialize+0x8>
    3634: a6 51        	ldx	$51                     ; 0x2051 <wipeArea+0x185>
    3636: 86 fd        	stx	$fd                     ; 0x20fd <opl3_initialize+0x9>
    3638: 20 04 ff     	jsr	$ff04 <__heap_start+0x604a>
    363b: 92 14        	sta	($14)                   ; 0x2014 <wipeArea+0x148>
    363d: a9 00        	lda	#$0
    363f: 6a           	ror
    3640: 85 28        	sta	$28                     ; 0x2028 <wipeArea+0x15c>
    3642: a5 51        	lda	$51                     ; 0x2051 <wipeArea+0x185>
    3644: d0 03        	bne	$3649 <main+0x141b>
    3646: 4c fe 37     	jmp	$37fe <main+0x15d0>
    3649: a2 00        	ldx	#$0
    364b: 80 48        	bra	$3695 <main+0x1467>
    364d: a6 14        	ldx	$14                     ; 0x2014 <wipeArea+0x148>
    364f: 86 16        	stx	$16                     ; 0x2016 <wipeArea+0x14a>
    3651: a6 15        	ldx	$15                     ; 0x2015 <wipeArea+0x149>
    3653: 86 17        	stx	$17                     ; 0x2017 <wipeArea+0x14b>
    3655: a6 18        	ldx	$18                     ; 0x2018 <wipeArea+0x14c>
    3657: 86 14        	stx	$14                     ; 0x2014 <wipeArea+0x148>
    3659: 85 15        	sta	$15                     ; 0x2015 <wipeArea+0x149>
    365b: a4 24        	ldy	$24                     ; 0x2024 <wipeArea+0x158>
    365d: 80 0a        	bra	$3669 <main+0x143b>
    365f: 20 0c ff     	jsr	$ff0c <__heap_start+0x6052>
    3662: 92 16        	sta	($16)                   ; 0x2016 <wipeArea+0x14a>
    3664: a9 00        	lda	#$0
    3666: 6a           	ror
    3667: 85 28        	sta	$28                     ; 0x2028 <wipeArea+0x15c>
    3669: 64 4b        	stz	$4b                     ; 0x204b <wipeArea+0x17f>
    366b: 20 00 ff     	jsr	$ff00 <__heap_start+0x6046>
    366e: 92 16        	sta	($16)                   ; 0x2016 <wipeArea+0x14a>
    3670: a9 00        	lda	#$0
    3672: 6a           	ror
    3673: 85 28        	sta	$28                     ; 0x2028 <wipeArea+0x15c>
    3675: a6 52        	ldx	$52                     ; 0x2052 <wipeArea+0x186>
    3677: d0 e6        	bne	$365f <main+0x1431>
    3679: a6 4b        	ldx	$4b                     ; 0x204b <wipeArea+0x17f>
    367b: e0 08        	cpx	#$8
    367d: d0 ea        	bne	$3669 <main+0x143b>
    367f: a6 51        	ldx	$51                     ; 0x2051 <wipeArea+0x185>
    3681: d0 e6        	bne	$3669 <main+0x143b>
    3683: a5 50        	lda	$50                     ; 0x2050 <wipeArea+0x184>
    3685: 92 14        	sta	($14)                   ; 0x2014 <wipeArea+0x148>
    3687: a9 01        	lda	#$1
    3689: a2 00        	ldx	#$0
    368b: 5a           	phy
    368c: a4 16        	ldy	$16                     ; 0x2016 <wipeArea+0x14a>
    368e: 84 14        	sty	$14                     ; 0x2014 <wipeArea+0x148>
    3690: a4 17        	ldy	$17                     ; 0x2017 <wipeArea+0x14b>
    3692: 84 15        	sty	$15                     ; 0x2015 <wipeArea+0x149>
    3694: 7a           	ply
    3695: 18           	clc
    3696: 65 12        	adc	$12                     ; 0x2012 <wipeArea+0x146>
    3698: 85 12        	sta	$12                     ; 0x2012 <wipeArea+0x146>
    369a: 8a           	txa
    369b: 65 13        	adc	$13                     ; 0x2013 <wipeArea+0x147>
    369d: d0 0b        	bne	$36aa <main+0x147c>
    369f: a6 12        	ldx	$12                     ; 0x2012 <wipeArea+0x146>
    36a1: e0 10        	cpx	#$10
    36a3: 85 13        	sta	$13                     ; 0x2013 <wipeArea+0x147>
    36a5: b0 0c        	bcs	$36b3 <main+0x1485>
    36a7: 4c b7 35     	jmp	$35b7 <main+0x1389>
    36aa: c9 00        	cmp	#$0
    36ac: 85 13        	sta	$13                     ; 0x2013 <wipeArea+0x147>
    36ae: b0 03        	bcs	$36b3 <main+0x1485>
    36b0: 4c b7 35     	jmp	$35b7 <main+0x1389>
    36b3: c0 05        	cpy	#$5
    36b5: d0 03        	bne	$36ba <main+0x148c>
    36b7: 4c 25 37     	jmp	$3725 <main+0x14f7>
    36ba: c0 03        	cpy	#$3
    36bc: d0 03        	bne	$36c1 <main+0x1493>
    36be: 4c 0f 37     	jmp	$370f <main+0x14e1>
    36c1: 98           	tya
    36c2: f0 03        	beq	$36c7 <main+0x1499>
    36c4: 4c 4b 38     	jmp	$384b <main+0x161d>
    36c7: a6 14        	ldx	$14                     ; 0x2014 <wipeArea+0x148>
    36c9: 86 16        	stx	$16                     ; 0x2016 <wipeArea+0x14a>
    36cb: a6 15        	ldx	$15                     ; 0x2015 <wipeArea+0x149>
    36cd: 86 17        	stx	$17                     ; 0x2017 <wipeArea+0x14b>
    36cf: 18           	clc
    36d0: a5 10        	lda	$10                     ; 0x2010 <wipeArea+0x144>
    36d2: 69 26        	adc	#$26
    36d4: 48           	pha
    36d5: a5 11        	lda	$11                     ; 0x2011 <wipeArea+0x145>
    36d7: 69 00        	adc	#$0
    36d9: aa           	tax
    36da: 68           	pla
    36db: 85 12        	sta	$12                     ; 0x2012 <wipeArea+0x146>
    36dd: 86 13        	stx	$13                     ; 0x2013 <wipeArea+0x147>
    36df: 18           	clc
    36e0: 69 08        	adc	#$8
    36e2: 85 14        	sta	$14                     ; 0x2014 <wipeArea+0x148>
    36e4: 8a           	txa
    36e5: 69 00        	adc	#$0
    36e7: 85 15        	sta	$15                     ; 0x2015 <wipeArea+0x149>
    36e9: a0 08        	ldy	#$8
    36eb: b1 12        	lda	($12),y                 ; 0x2012 <wipeArea+0x146>
    36ed: aa           	tax
    36ee: a0 01        	ldy	#$1
    36f0: b1 14        	lda	($14),y                 ; 0x2014 <wipeArea+0x148>
    36f2: a8           	tay
    36f3: 18           	clc
    36f4: 8a           	txa
    36f5: 5a           	phy
    36f6: a0 12        	ldy	#$12
    36f8: 91 10        	sta	($10),y                 ; 0x2010 <wipeArea+0x144>
    36fa: 7a           	ply
    36fb: 69 00        	adc	#$0
    36fd: aa           	tax
    36fe: 98           	tya
    36ff: a0 11        	ldy	#$11
    3701: 91 10        	sta	($10),y                 ; 0x2010 <wipeArea+0x144>
    3703: 69 ff        	adc	#$ff
    3705: f0 03        	beq	$370a <main+0x14dc>
    3707: 4c ca 37     	jmp	$37ca <main+0x159c>
    370a: e0 81        	cpx	#$81
    370c: 4c cc 37     	jmp	$37cc <main+0x159e>
    370f: a6 2f        	ldx	$2f                     ; 0x202f <wipeArea+0x163>
    3711: 86 12        	stx	$12                     ; 0x2012 <wipeArea+0x146>
    3713: a6 2c        	ldx	$2c                     ; 0x202c <wipeArea+0x160>
    3715: 86 13        	stx	$13                     ; 0x2013 <wipeArea+0x147>
    3717: 18           	clc
    3718: a9 34        	lda	#$34
    371a: a0 04        	ldy	#$4
    371c: 71 12        	adc	($12),y                 ; 0x2012 <wipeArea+0x146>
    371e: a0 15        	ldy	#$15
    3720: 91 10        	sta	($10),y                 ; 0x2010 <wipeArea+0x144>
    3722: 4c 49 38     	jmp	$3849 <main+0x161b>
    3725: a6 2f        	ldx	$2f                     ; 0x202f <wipeArea+0x163>
    3727: 86 12        	stx	$12                     ; 0x2012 <wipeArea+0x146>
    3729: a6 2c        	ldx	$2c                     ; 0x202c <wipeArea+0x160>
    372b: 86 13        	stx	$13                     ; 0x2013 <wipeArea+0x147>
    372d: b2 12        	lda	($12)                   ; 0x2012 <wipeArea+0x146>
    372f: d0 09        	bne	$373a <main+0x150c>
    3731: a0 01        	ldy	#$1
    3733: b1 12        	lda	($12),y                 ; 0x2012 <wipeArea+0x146>
    3735: d0 03        	bne	$373a <main+0x150c>
    3737: 4c 21 4e     	jmp	$4e21 <main+0x2bf3>
    373a: a2 05        	ldx	#$5
    373c: 8e 82 d5     	stx	$d582                   ; 0xd582 <__heap_start+0x36c8>
    373f: 9c 81 d5     	stz	$d581                   ; 0xd581 <__heap_start+0x36c7>
    3742: a6 2f        	ldx	$2f                     ; 0x202f <wipeArea+0x163>
    3744: 86 12        	stx	$12                     ; 0x2012 <wipeArea+0x146>
    3746: a6 2c        	ldx	$2c                     ; 0x202c <wipeArea+0x160>
    3748: 86 13        	stx	$13                     ; 0x2013 <wipeArea+0x147>
    374a: a0 0c        	ldy	#$c
    374c: b1 12        	lda	($12),y                 ; 0x2012 <wipeArea+0x146>
    374e: d0 09        	bne	$3759 <main+0x152b>
    3750: a0 0d        	ldy	#$d
    3752: b1 12        	lda	($12),y                 ; 0x2012 <wipeArea+0x146>
    3754: d0 03        	bne	$3759 <main+0x152b>
    3756: 4c 3e 4e     	jmp	$4e3e <main+0x2c10>
    3759: a2 05        	ldx	#$5
    375b: 8e 82 d5     	stx	$d582                   ; 0xd582 <__heap_start+0x36c8>
    375e: a0 01        	ldy	#$1
    3760: a2 01        	ldx	#$1
    3762: 8a           	txa
    3763: 5a           	phy
    3764: a0 19        	ldy	#$19
    3766: 91 10        	sta	($10),y                 ; 0x2010 <wipeArea+0x144>
    3768: 7a           	ply
    3769: 8c 81 d5     	sty	$d581                   ; 0xd581 <__heap_start+0x36c7>
    376c: a6 14        	ldx	$14                     ; 0x2014 <wipeArea+0x148>
    376e: 86 2a        	stx	$2a                     ; 0x202a <wipeArea+0x15e>
    3770: a6 15        	ldx	$15                     ; 0x2015 <wipeArea+0x149>
    3772: 86 2b        	stx	$2b                     ; 0x202b <wipeArea+0x15f>
    3774: 64 53        	stz	$53                     ; 0x2053 <wipeArea+0x187>
    3776: 9c 14 d0     	stz	$d014                   ; 0xd014 <__heap_start+0x315a>
    3779: 9c 15 d0     	stz	$d015                   ; 0xd015 <__heap_start+0x315b>
    377c: a2 02        	ldx	#$2
    377e: 86 54        	stx	$54                     ; 0x2054 <wipeArea+0x188>
    3780: 8e 16 d0     	stx	$d016                   ; 0xd016 <__heap_start+0x315c>
    3783: 9c 17 d0     	stz	$d017                   ; 0xd017 <__heap_start+0x315d>
    3786: a2 70        	ldx	#$70
    3788: 86 33        	stx	$33                     ; 0x2033 <wipeArea+0x167>
    378a: a0 19        	ldy	#$19
    378c: b1 10        	lda	($10),y                 ; 0x2010 <wipeArea+0x144>
    378e: d0 03        	bne	$3793 <main+0x1565>
    3790: 4c 05 38     	jmp	$3805 <main+0x15d7>
    3793: a5 10        	lda	$10                     ; 0x2010 <wipeArea+0x144>
    3795: 18           	clc
    3796: 69 02        	adc	#$2
    3798: aa           	tax
    3799: a5 11        	lda	$11                     ; 0x2011 <wipeArea+0x145>
    379b: 69 00        	adc	#$0
    379d: 85 14        	sta	$14                     ; 0x2014 <wipeArea+0x148>
    379f: a0 12        	ldy	#$12
    37a1: b1 10        	lda	($10),y                 ; 0x2010 <wipeArea+0x144>
    37a3: 92 10        	sta	($10)                   ; 0x2010 <wipeArea+0x144>
    37a5: 88           	dey
    37a6: b1 10        	lda	($10),y                 ; 0x2010 <wipeArea+0x144>
    37a8: a0 01        	ldy	#$1
    37aa: 91 10        	sta	($10),y                 ; 0x2010 <wipeArea+0x144>
    37ac: 86 12        	stx	$12                     ; 0x2012 <wipeArea+0x146>
    37ae: a6 14        	ldx	$14                     ; 0x2014 <wipeArea+0x148>
    37b0: 86 13        	stx	$13                     ; 0x2013 <wipeArea+0x147>
    37b2: a9 89        	lda	#$89
    37b4: c8           	iny
    37b5: 91 10        	sta	($10),y                 ; 0x2010 <wipeArea+0x144>
    37b7: a9 6a        	lda	#$6a
    37b9: 88           	dey
    37ba: 91 12        	sta	($12),y                 ; 0x2012 <wipeArea+0x146>
    37bc: a2 75        	ldx	#$75
    37be: 86 12        	stx	$12                     ; 0x2012 <wipeArea+0x146>
    37c0: a2 6a        	ldx	#$6a
    37c2: 86 13        	stx	$13                     ; 0x2013 <wipeArea+0x147>
    37c4: 20 dc 61     	jsr	$61dc <printf>
    37c7: 4c 41 38     	jmp	$3841 <main+0x1613>
    37ca: c9 00        	cmp	#$0
    37cc: a4 16        	ldy	$16                     ; 0x2016 <wipeArea+0x14a>
    37ce: 84 14        	sty	$14                     ; 0x2014 <wipeArea+0x148>
    37d0: a4 17        	ldy	$17                     ; 0x2017 <wipeArea+0x14b>
    37d2: 84 15        	sty	$15                     ; 0x2015 <wipeArea+0x149>
    37d4: a4 24        	ldy	$24                     ; 0x2024 <wipeArea+0x158>
    37d6: 90 0c        	bcc	$37e4 <main+0x15b6>
    37d8: a2 04        	ldx	#$4
    37da: 8a           	txa
    37db: 5a           	phy
    37dc: a0 1e        	ldy	#$1e
    37de: 91 10        	sta	($10),y                 ; 0x2010 <wipeArea+0x144>
    37e0: 7a           	ply
    37e1: 4c 4b 38     	jmp	$384b <main+0x161d>
    37e4: bc 0c 67     	ldy	$670c,x                 ; 0x670c <__bss_size+0x3572>
    37e7: bd 8d 67     	lda	$678d,x                 ; 0x678d <__bss_size+0x35f3>
    37ea: aa           	tax
    37eb: 84 12        	sty	$12                     ; 0x2012 <wipeArea+0x146>
    37ed: a4 24        	ldy	$24                     ; 0x2024 <wipeArea+0x158>
    37ef: 86 13        	stx	$13                     ; 0x2013 <wipeArea+0x147>
    37f1: 64 16        	stz	$16                     ; 0x2016 <wipeArea+0x14a>
    37f3: a9 00        	lda	#$0
    37f5: 5a           	phy
    37f6: a0 1e        	ldy	#$1e
    37f8: 91 10        	sta	($10),y                 ; 0x2010 <wipeArea+0x144>
    37fa: 7a           	ply
    37fb: 6c 12 00     	jmp	($12)                   ; 0x12 <__rc2>
    37fe: a9 00        	lda	#$0
    3800: a2 01        	ldx	#$1
    3802: 4c 95 36     	jmp	$3695 <main+0x1467>
    3805: a5 10        	lda	$10                     ; 0x2010 <wipeArea+0x144>
    3807: 18           	clc
    3808: 69 02        	adc	#$2
    380a: aa           	tax
    380b: a5 11        	lda	$11                     ; 0x2011 <wipeArea+0x145>
    380d: 69 00        	adc	#$0
    380f: 85 14        	sta	$14                     ; 0x2014 <wipeArea+0x148>
    3811: a0 12        	ldy	#$12
    3813: b1 10        	lda	($10),y                 ; 0x2010 <wipeArea+0x144>
    3815: 92 10        	sta	($10)                   ; 0x2010 <wipeArea+0x144>
    3817: 88           	dey
    3818: b1 10        	lda	($10),y                 ; 0x2010 <wipeArea+0x144>
    381a: a0 01        	ldy	#$1
    381c: 91 10        	sta	($10),y                 ; 0x2010 <wipeArea+0x144>
    381e: 86 12        	stx	$12                     ; 0x2012 <wipeArea+0x146>
    3820: a6 14        	ldx	$14                     ; 0x2014 <wipeArea+0x148>
    3822: 86 13        	stx	$13                     ; 0x2013 <wipeArea+0x147>
    3824: a9 84        	lda	#$84
    3826: c8           	iny
    3827: 91 10        	sta	($10),y                 ; 0x2010 <wipeArea+0x144>
    3829: a9 6a        	lda	#$6a
    382b: 88           	dey
    382c: 91 12        	sta	($12),y                 ; 0x2012 <wipeArea+0x146>
    382e: a2 75        	ldx	#$75
    3830: 86 12        	stx	$12                     ; 0x2012 <wipeArea+0x146>
    3832: a2 6a        	ldx	#$6a
    3834: 86 13        	stx	$13                     ; 0x2013 <wipeArea+0x147>
    3836: 20 dc 61     	jsr	$61dc <printf>
    3839: 64 12        	stz	$12                     ; 0x2012 <wipeArea+0x146>
    383b: a9 00        	lda	#$0
    383d: a0 19        	ldy	#$19
    383f: 91 10        	sta	($10),y                 ; 0x2010 <wipeArea+0x144>
    3841: a6 2a        	ldx	$2a                     ; 0x202a <wipeArea+0x15e>
    3843: 86 14        	stx	$14                     ; 0x2014 <wipeArea+0x148>
    3845: a6 2b        	ldx	$2b                     ; 0x202b <wipeArea+0x15f>
    3847: 86 15        	stx	$15                     ; 0x2015 <wipeArea+0x149>
    3849: a4 24        	ldy	$24                     ; 0x2024 <wipeArea+0x158>
    384b: 5a           	phy
    384c: a0 1e        	ldy	#$1e
    384e: b1 10        	lda	($10),y                 ; 0x2010 <wipeArea+0x144>
    3850: 7a           	ply
    3851: 18           	clc
    3852: 69 08        	adc	#$8
    3854: 85 13        	sta	$13                     ; 0x2013 <wipeArea+0x147>
    3856: a9 00        	lda	#$0
    3858: 69 00        	adc	#$0
    385a: c8           	iny
    385b: 85 12        	sta	$12                     ; 0x2012 <wipeArea+0x146>
    385d: a2 00        	ldx	#$0
    385f: e4 12        	cpx	$12                     ; 0x2012 <wipeArea+0x146>
    3861: d0 07        	bne	$386a <main+0x163c>
    3863: c4 13        	cpy	$13                     ; 0x2013 <wipeArea+0x147>
    3865: b0 0a        	bcs	$3871 <main+0x1643>
    3867: 4c b3 35     	jmp	$35b3 <main+0x1385>
    386a: e4 12        	cpx	$12                     ; 0x2012 <wipeArea+0x146>
    386c: b0 03        	bcs	$3871 <main+0x1643>
    386e: 4c b3 35     	jmp	$35b3 <main+0x1385>
    3871: a5 14        	lda	$14                     ; 0x2014 <wipeArea+0x148>
    3873: a0 19        	ldy	#$19
    3875: 91 10        	sta	($10),y                 ; 0x2010 <wipeArea+0x144>
    3877: a5 15        	lda	$15                     ; 0x2015 <wipeArea+0x149>
    3879: c8           	iny
    387a: 91 10        	sta	($10),y                 ; 0x2010 <wipeArea+0x144>
    387c: a5 26        	lda	$26                     ; 0x2026 <wipeArea+0x15a>
    387e: a0 12        	ldy	#$12
    3880: 91 10        	sta	($10),y                 ; 0x2010 <wipeArea+0x144>
    3882: a5 27        	lda	$27                     ; 0x2027 <wipeArea+0x15b>
    3884: c8           	iny
    3885: 91 10        	sta	($10),y                 ; 0x2010 <wipeArea+0x144>
    3887: a0 1b        	ldy	#$1b
    3889: b1 10        	lda	($10),y                 ; 0x2010 <wipeArea+0x144>
    388b: 85 12        	sta	$12                     ; 0x2012 <wipeArea+0x146>
    388d: c8           	iny
    388e: b1 10        	lda	($10),y                 ; 0x2010 <wipeArea+0x144>
    3890: 85 13        	sta	$13                     ; 0x2013 <wipeArea+0x147>
    3892: b2 12        	lda	($12)                   ; 0x2012 <wipeArea+0x146>
    3894: 85 f3        	sta	$f3                     ; 0x20f3 <wipeArea+0x227>
    3896: a0 15        	ldy	#$15
    3898: b1 10        	lda	($10),y                 ; 0x2010 <wipeArea+0x144>
    389a: 85 f4        	sta	$f4                     ; 0x20f4 <opl3_initialize>
    389c: 64 f5        	stz	$f5                     ; 0x20f5 <opl3_initialize+0x1>
    389e: 64 f6        	stz	$f6                     ; 0x20f6 <opl3_initialize+0x2>
    38a0: 64 f7        	stz	$f7                     ; 0x20f7 <opl3_initialize+0x3>
    38a2: a6 2f        	ldx	$2f                     ; 0x202f <wipeArea+0x163>
    38a4: 86 12        	stx	$12                     ; 0x2012 <wipeArea+0x146>
    38a6: a6 2c        	ldx	$2c                     ; 0x202c <wipeArea+0x160>
    38a8: 86 13        	stx	$13                     ; 0x2013 <wipeArea+0x147>
    38aa: 20 74 ff     	jsr	$ff74 <__heap_start+0x60ba>
    38ad: 92 12        	sta	($12)                   ; 0x2012 <wipeArea+0x146>
    38af: a9 00        	lda	#$0
    38b1: 6a           	ror
    38b2: 85 28        	sta	$28                     ; 0x2028 <wipeArea+0x15c>
    38b4: 64 53        	stz	$53                     ; 0x2053 <wipeArea+0x187>
    38b6: 9c 14 d0     	stz	$d014                   ; 0xd014 <__heap_start+0x315a>
    38b9: 9c 15 d0     	stz	$d015                   ; 0xd015 <__heap_start+0x315b>
    38bc: a2 03        	ldx	#$3
    38be: 86 54        	stx	$54                     ; 0x2054 <wipeArea+0x188>
    38c0: 8e 16 d0     	stx	$d016                   ; 0xd016 <__heap_start+0x315c>
    38c3: 9c 17 d0     	stz	$d017                   ; 0xd017 <__heap_start+0x315d>
    38c6: a2 1a        	ldx	#$1a
    38c8: 86 12        	stx	$12                     ; 0x2012 <wipeArea+0x146>
    38ca: a2 6a        	ldx	#$6a
    38cc: 86 13        	stx	$13                     ; 0x2013 <wipeArea+0x147>
    38ce: 20 dc 61     	jsr	$61dc <printf>
    38d1: 64 53        	stz	$53                     ; 0x2053 <wipeArea+0x187>
    38d3: 9c 14 d0     	stz	$d014                   ; 0xd014 <__heap_start+0x315a>
    38d6: 9c 15 d0     	stz	$d015                   ; 0xd015 <__heap_start+0x315b>
    38d9: a2 03        	ldx	#$3
    38db: 86 54        	stx	$54                     ; 0x2054 <wipeArea+0x188>
    38dd: 8e 16 d0     	stx	$d016                   ; 0xd016 <__heap_start+0x315c>
    38e0: 9c 17 d0     	stz	$d017                   ; 0xd017 <__heap_start+0x315d>
    38e3: a2 70        	ldx	#$70
    38e5: 86 33        	stx	$33                     ; 0x2033 <wipeArea+0x167>
    38e7: a9 c3        	lda	#$c3
    38e9: 92 10        	sta	($10)                   ; 0x2010 <wipeArea+0x144>
    38eb: a0 01        	ldy	#$1
    38ed: a9 9d        	lda	#$9d
    38ef: 91 10        	sta	($10),y                 ; 0x2010 <wipeArea+0x144>
    38f1: a2 c1        	ldx	#$c1
    38f3: 86 12        	stx	$12                     ; 0x2012 <wipeArea+0x146>
    38f5: a2 6a        	ldx	#$6a
    38f7: 86 13        	stx	$13                     ; 0x2013 <wipeArea+0x147>
    38f9: 20 dc 61     	jsr	$61dc <printf>
    38fc: 64 53        	stz	$53                     ; 0x2053 <wipeArea+0x187>
    38fe: 9c 14 d0     	stz	$d014                   ; 0xd014 <__heap_start+0x315a>
    3901: 9c 15 d0     	stz	$d015                   ; 0xd015 <__heap_start+0x315b>
    3904: a2 1c        	ldx	#$1c
    3906: 86 54        	stx	$54                     ; 0x2054 <wipeArea+0x188>
    3908: 8e 16 d0     	stx	$d016                   ; 0xd016 <__heap_start+0x315c>
    390b: 9c 17 d0     	stz	$d017                   ; 0xd017 <__heap_start+0x315d>
    390e: a2 76        	ldx	#$76
    3910: 86 33        	stx	$33                     ; 0x2033 <wipeArea+0x167>
    3912: a2 cd        	ldx	#$cd
    3914: 86 12        	stx	$12                     ; 0x2012 <wipeArea+0x146>
    3916: a2 6a        	ldx	#$6a
    3918: 86 13        	stx	$13                     ; 0x2013 <wipeArea+0x147>
    391a: 20 dc 61     	jsr	$61dc <printf>
    391d: a2 f0        	ldx	#$f0
    391f: 86 33        	stx	$33                     ; 0x2033 <wipeArea+0x167>
    3921: a2 9e        	ldx	#$9e
    3923: 86 12        	stx	$12                     ; 0x2012 <wipeArea+0x146>
    3925: a2 6a        	ldx	#$6a
    3927: 86 13        	stx	$13                     ; 0x2013 <wipeArea+0x147>
    3929: 20 dc 61     	jsr	$61dc <printf>
    392c: a2 76        	ldx	#$76
    392e: 86 33        	stx	$33                     ; 0x2033 <wipeArea+0x167>
    3930: a2 a8        	ldx	#$a8
    3932: 86 12        	stx	$12                     ; 0x2012 <wipeArea+0x146>
    3934: a2 6a        	ldx	#$6a
    3936: 86 13        	stx	$13                     ; 0x2013 <wipeArea+0x147>
    3938: 20 dc 61     	jsr	$61dc <printf>
    393b: a2 f0        	ldx	#$f0
    393d: 86 33        	stx	$33                     ; 0x2033 <wipeArea+0x167>
    393f: a2 8e        	ldx	#$8e
    3941: 86 12        	stx	$12                     ; 0x2012 <wipeArea+0x146>
    3943: a2 6a        	ldx	#$6a
    3945: 86 13        	stx	$13                     ; 0x2013 <wipeArea+0x147>
    3947: 20 dc 61     	jsr	$61dc <printf>
    394a: a2 76        	ldx	#$76
    394c: 86 33        	stx	$33                     ; 0x2033 <wipeArea+0x167>
    394e: a2 6b        	ldx	#$6b
    3950: 86 12        	stx	$12                     ; 0x2012 <wipeArea+0x146>
    3952: a2 6a        	ldx	#$6a
    3954: 86 13        	stx	$13                     ; 0x2013 <wipeArea+0x147>
    3956: 20 dc 61     	jsr	$61dc <printf>
    3959: a2 f0        	ldx	#$f0
    395b: 86 33        	stx	$33                     ; 0x2033 <wipeArea+0x167>
    395d: a2 ad        	ldx	#$ad
    395f: 86 12        	stx	$12                     ; 0x2012 <wipeArea+0x146>
    3961: a2 6a        	ldx	#$6a
    3963: 86 13        	stx	$13                     ; 0x2013 <wipeArea+0x147>
    3965: 20 dc 61     	jsr	$61dc <printf>
    3968: a2 01        	ldx	#$1
    396a: 86 5f        	stx	$5f                     ; 0x205f <wipeArea+0x193>
    396c: a2 01        	ldx	#$1
    396e: 64 18        	stz	$18                     ; 0x2018 <wipeArea+0x14c>
    3970: a4 25        	ldy	$25                     ; 0x2025 <wipeArea+0x159>
    3972: 4c 45 3a     	jmp	$3a45 <main+0x1817>
    3975: b2 26        	lda	($26)                   ; 0x2026 <wipeArea+0x15a>
    3977: 85 1a        	sta	$1a                     ; 0x201a <wipeArea+0x14e>
    3979: 64 4b        	stz	$4b                     ; 0x204b <wipeArea+0x17f>
    397b: 20 00 ff     	jsr	$ff00 <__heap_start+0x6046>
    397e: 92 26        	sta	($26)                   ; 0x2026 <wipeArea+0x15a>
    3980: a9 00        	lda	#$0
    3982: 6a           	ror
    3983: 85 28        	sta	$28                     ; 0x2028 <wipeArea+0x15c>
    3985: a6 4b        	ldx	$4b                     ; 0x204b <wipeArea+0x17f>
    3987: e0 28        	cpx	#$28
    3989: d0 03        	bne	$398e <main+0x1760>
    398b: 4c 99 35     	jmp	$3599 <main+0x136b>
    398e: e0 38        	cpx	#$38
    3990: d0 03        	bne	$3995 <main+0x1767>
    3992: 4c 99 35     	jmp	$3599 <main+0x136b>
    3995: e0 2a        	cpx	#$2a
    3997: d0 e0        	bne	$3979 <main+0x174b>
    3999: 4c 73 4c     	jmp	$4c73 <main+0x2a45>
    399c: b2 26        	lda	($26)                   ; 0x2026 <wipeArea+0x15a>
    399e: 85 12        	sta	$12                     ; 0x2012 <wipeArea+0x146>
    39a0: 64 4b        	stz	$4b                     ; 0x204b <wipeArea+0x17f>
    39a2: 20 00 ff     	jsr	$ff00 <__heap_start+0x6046>
    39a5: 92 26        	sta	($26)                   ; 0x2026 <wipeArea+0x15a>
    39a7: a9 00        	lda	#$0
    39a9: 6a           	ror
    39aa: 85 28        	sta	$28                     ; 0x2028 <wipeArea+0x15c>
    39ac: a6 4b        	ldx	$4b                     ; 0x204b <wipeArea+0x17f>
    39ae: e0 48        	cpx	#$48
    39b0: d0 03        	bne	$39b5 <main+0x1787>
    39b2: 4c 26 32     	jmp	$3226 <main+0xff8>
    39b5: e0 3c        	cpx	#$3c
    39b7: d0 e7        	bne	$39a0 <main+0x1772>
    39b9: 4c 4e 4b     	jmp	$4b4e <main+0x2920>
    39bc: 18           	clc
    39bd: a5 1d        	lda	$1d                     ; 0x201d <wipeArea+0x151>
    39bf: 65 15        	adc	$15                     ; 0x2015 <wipeArea+0x149>
    39c1: 85 15        	sta	$15                     ; 0x2015 <wipeArea+0x149>
    39c3: a5 1c        	lda	$1c                     ; 0x201c <wipeArea+0x150>
    39c5: 65 14        	adc	$14                     ; 0x2014 <wipeArea+0x148>
    39c7: 85 14        	sta	$14                     ; 0x2014 <wipeArea+0x148>
    39c9: 4c 0b 45     	jmp	$450b <main+0x22dd>
    39cc: a2 02        	ldx	#$2
    39ce: 8e 50 d6     	stx	$d650                   ; 0xd650 <__heap_start+0x3796>
    39d1: a0 66        	ldy	#$66
    39d3: 8c 55 d6     	sty	$d655                   ; 0xd655 <__heap_start+0x379b>
    39d6: 8c 56 d6     	sty	$d656                   ; 0xd656 <__heap_start+0x379c>
    39d9: a0 06        	ldy	#$6
    39db: 80 11        	bra	$39ee <main+0x17c0>
    39dd: a2 02        	ldx	#$2
    39df: 8e 50 d6     	stx	$d650                   ; 0xd650 <__heap_start+0x3796>
    39e2: a0 15        	ldy	#$15
    39e4: 8c 55 d6     	sty	$d655                   ; 0xd655 <__heap_start+0x379b>
    39e7: a0 ae        	ldy	#$ae
    39e9: 8c 56 d6     	sty	$d656                   ; 0xd656 <__heap_start+0x379c>
    39ec: a0 07        	ldy	#$7
    39ee: 8c 57 d6     	sty	$d657                   ; 0xd657 <__heap_start+0x379d>
    39f1: 9c 54 d6     	stz	$d654                   ; 0xd654 <__heap_start+0x379a>
    39f4: 8e 50 d6     	stx	$d650                   ; 0xd650 <__heap_start+0x3796>
    39f7: a2 89        	ldx	#$89
    39f9: 8e 50 d6     	stx	$d650                   ; 0xd650 <__heap_start+0x3796>
    39fc: 4c 5f 3c     	jmp	$3c5f <main+0x1a31>
    39ff: a6 2f        	ldx	$2f                     ; 0x202f <wipeArea+0x163>
    3a01: 86 26        	stx	$26                     ; 0x2026 <wipeArea+0x15a>
    3a03: a6 2c        	ldx	$2c                     ; 0x202c <wipeArea+0x160>
    3a05: 86 27        	stx	$27                     ; 0x2027 <wipeArea+0x15b>
    3a07: a4 26        	ldy	$26                     ; 0x2026 <wipeArea+0x15a>
    3a09: 84 12        	sty	$12                     ; 0x2012 <wipeArea+0x146>
    3a0b: 86 13        	stx	$13                     ; 0x2013 <wipeArea+0x147>
    3a0d: a0 1b        	ldy	#$1b
    3a0f: b1 10        	lda	($10),y                 ; 0x2010 <wipeArea+0x144>
    3a11: 85 14        	sta	$14                     ; 0x2014 <wipeArea+0x148>
    3a13: c8           	iny
    3a14: b1 10        	lda	($10),y                 ; 0x2010 <wipeArea+0x144>
    3a16: 85 15        	sta	$15                     ; 0x2015 <wipeArea+0x149>
    3a18: a2 00        	ldx	#$0
    3a1a: a9 02        	lda	#$2
    3a1c: 20 95 52     	jsr	$5295 <fileRead>
    3a1f: 64 18        	stz	$18                     ; 0x2018 <wipeArea+0x14c>
    3a21: b2 26        	lda	($26)                   ; 0x2026 <wipeArea+0x15a>
    3a23: 85 13        	sta	$13                     ; 0x2013 <wipeArea+0x147>
    3a25: a0 01        	ldy	#$1
    3a27: b1 26        	lda	($26),y                 ; 0x2026 <wipeArea+0x15a>
    3a29: a6 13        	ldx	$13                     ; 0x2013 <wipeArea+0x147>
    3a2b: 8e 82 d5     	stx	$d582                   ; 0xd582 <__heap_start+0x36c8>
    3a2e: 8d 81 d5     	sta	$d581                   ; 0xd581 <__heap_start+0x36c7>
    3a31: 84 5f        	sty	$5f                     ; 0x205f <wipeArea+0x193>
    3a33: 4c 5f 3c     	jmp	$3c5f <main+0x1a31>
    3a36: a6 2d        	ldx	$2d                     ; 0x202d <wipeArea+0x161>
    3a38: 86 14        	stx	$14                     ; 0x2014 <wipeArea+0x148>
    3a3a: a4 25        	ldy	$25                     ; 0x2025 <wipeArea+0x159>
    3a3c: a5 5f        	lda	$5f                     ; 0x205f <wipeArea+0x193>
    3a3e: 29 01        	and	#$1
    3a40: aa           	tax
    3a41: a5 14        	lda	$14                     ; 0x2014 <wipeArea+0x148>
    3a43: 85 2d        	sta	$2d                     ; 0x202d <wipeArea+0x161>
    3a45: 84 25        	sty	$25                     ; 0x2025 <wipeArea+0x159>
    3a47: 18           	clc
    3a48: a5 10        	lda	$10                     ; 0x2010 <wipeArea+0x144>
    3a4a: 69 67        	adc	#$67
    3a4c: 85 26        	sta	$26                     ; 0x2026 <wipeArea+0x15a>
    3a4e: a5 11        	lda	$11                     ; 0x2011 <wipeArea+0x145>
    3a50: 69 00        	adc	#$0
    3a52: 85 27        	sta	$27                     ; 0x2027 <wipeArea+0x15b>
    3a54: a9 00        	lda	#$0
    3a56: 92 26        	sta	($26)                   ; 0x2026 <wipeArea+0x15a>
    3a58: 18           	clc
    3a59: 48           	pha
    3a5a: a5 10        	lda	$10                     ; 0x2010 <wipeArea+0x144>
    3a5c: 69 66        	adc	#$66
    3a5e: 85 12        	sta	$12                     ; 0x2012 <wipeArea+0x146>
    3a60: a5 11        	lda	$11                     ; 0x2011 <wipeArea+0x145>
    3a62: 69 00        	adc	#$0
    3a64: 85 13        	sta	$13                     ; 0x2013 <wipeArea+0x147>
    3a66: 68           	pla
    3a67: 92 12        	sta	($12)                   ; 0x2012 <wipeArea+0x146>
    3a69: ad 60 d6     	lda	$d660                   ; 0xd660 <__heap_start+0x37a6>
    3a6c: 29 10        	and	#$10
    3a6e: d0 06        	bne	$3a76 <main+0x1848>
    3a70: 8a           	txa
    3a71: d0 0b        	bne	$3a7e <main+0x1850>
    3a73: 4c 5f 3c     	jmp	$3c5f <main+0x1a31>
    3a76: 8a           	txa
    3a77: d0 05        	bne	$3a7e <main+0x1850>
    3a79: a2 10        	ldx	#$10
    3a7b: 8e 60 d6     	stx	$d660                   ; 0xd660 <__heap_start+0x37a6>
    3a7e: a6 47        	ldx	$47                     ; 0x2047 <wipeArea+0x17b>
    3a80: 86 19        	stx	$19                     ; 0x2019 <wipeArea+0x14d>
    3a82: a5 48        	lda	$48                     ; 0x2048 <wipeArea+0x17c>
    3a84: a4 49        	ldy	$49                     ; 0x2049 <wipeArea+0x17d>
    3a86: a6 4a        	ldx	$4a                     ; 0x204a <wipeArea+0x17e>
    3a88: d0 0e        	bne	$3a98 <main+0x186a>
    3a8a: c0 00        	cpy	#$0
    3a8c: d0 0a        	bne	$3a98 <main+0x186a>
    3a8e: c9 00        	cmp	#$0
    3a90: d0 06        	bne	$3a98 <main+0x186a>
    3a92: e6 19        	inc	$19                     ; 0x2019 <wipeArea+0x14d>
    3a94: c6 19        	dec	$19                     ; 0x2019 <wipeArea+0x14d>
    3a96: f0 0b        	beq	$3aa3 <main+0x1875>
    3a98: 85 15        	sta	$15                     ; 0x2015 <wipeArea+0x149>
    3a9a: a5 5f        	lda	$5f                     ; 0x205f <wipeArea+0x193>
    3a9c: 29 01        	and	#$1
    3a9e: d0 03        	bne	$3aa3 <main+0x1875>
    3aa0: 4c d2 3b     	jmp	$3bd2 <main+0x19a4>
    3aa3: 64 5f        	stz	$5f                     ; 0x205f <wipeArea+0x193>
    3aa5: a0 1b        	ldy	#$1b
    3aa7: b1 10        	lda	($10),y                 ; 0x2010 <wipeArea+0x144>
    3aa9: 85 14        	sta	$14                     ; 0x2014 <wipeArea+0x148>
    3aab: c8           	iny
    3aac: b1 10        	lda	($10),y                 ; 0x2010 <wipeArea+0x144>
    3aae: 85 15        	sta	$15                     ; 0x2015 <wipeArea+0x149>
    3ab0: b2 14        	lda	($14)                   ; 0x2014 <wipeArea+0x148>
    3ab2: d0 03        	bne	$3ab7 <main+0x1889>
    3ab4: 4c 3e 3b     	jmp	$3b3e <main+0x1910>
    3ab7: 85 f3        	sta	$f3                     ; 0x20f3 <wipeArea+0x227>
    3ab9: a2 01        	ldx	#$1
    3abb: 86 f4        	stx	$f4                     ; 0x20f4 <opl3_initialize>
    3abd: a6 2f        	ldx	$2f                     ; 0x202f <wipeArea+0x163>
    3abf: 86 14        	stx	$14                     ; 0x2014 <wipeArea+0x148>
    3ac1: a6 2c        	ldx	$2c                     ; 0x202c <wipeArea+0x160>
    3ac3: 86 15        	stx	$15                     ; 0x2015 <wipeArea+0x149>
    3ac5: 20 60 ff     	jsr	$ff60 <__heap_start+0x60a6>
    3ac8: 92 14        	sta	($14)                   ; 0x2014 <wipeArea+0x148>
    3aca: a9 00        	lda	#$0
    3acc: 6a           	ror
    3acd: 85 28        	sta	$28                     ; 0x2028 <wipeArea+0x15c>
    3acf: a6 52        	ldx	$52                     ; 0x2052 <wipeArea+0x186>
    3ad1: f0 03        	beq	$3ad6 <main+0x18a8>
    3ad3: 4c 5f 3c     	jmp	$3c5f <main+0x1a31>
    3ad6: 64 4b        	stz	$4b                     ; 0x204b <wipeArea+0x17f>
    3ad8: a6 2f        	ldx	$2f                     ; 0x202f <wipeArea+0x163>
    3ada: 86 14        	stx	$14                     ; 0x2014 <wipeArea+0x148>
    3adc: a6 2c        	ldx	$2c                     ; 0x202c <wipeArea+0x160>
    3ade: 86 15        	stx	$15                     ; 0x2015 <wipeArea+0x149>
    3ae0: 20 00 ff     	jsr	$ff00 <__heap_start+0x6046>
    3ae3: 92 14        	sta	($14)                   ; 0x2014 <wipeArea+0x148>
    3ae5: a9 00        	lda	#$0
    3ae7: 6a           	ror
    3ae8: 85 28        	sta	$28                     ; 0x2028 <wipeArea+0x15c>
    3aea: a6 4b        	ldx	$4b                     ; 0x204b <wipeArea+0x17f>
    3aec: e0 38        	cpx	#$38
    3aee: d0 03        	bne	$3af3 <main+0x18c5>
    3af0: 4c 5f 3c     	jmp	$3c5f <main+0x1a31>
    3af3: e0 30        	cpx	#$30
    3af5: d0 03        	bne	$3afa <main+0x18cc>
    3af7: 4c 5f 3c     	jmp	$3c5f <main+0x1a31>
    3afa: e0 2c        	cpx	#$2c
    3afc: d0 d8        	bne	$3ad6 <main+0x18a8>
    3afe: 18           	clc
    3aff: a5 10        	lda	$10                     ; 0x2010 <wipeArea+0x144>
    3b01: 69 68        	adc	#$68
    3b03: aa           	tax
    3b04: a5 11        	lda	$11                     ; 0x2011 <wipeArea+0x145>
    3b06: 69 00        	adc	#$0
    3b08: a8           	tay
    3b09: 86 fb        	stx	$fb                     ; 0x20fb <opl3_initialize+0x7>
    3b0b: 85 fc        	sta	$fc                     ; 0x20fc <opl3_initialize+0x8>
    3b0d: a5 51        	lda	$51                     ; 0x2051 <wipeArea+0x185>
    3b0f: 85 fd        	sta	$fd                     ; 0x20fd <opl3_initialize+0x9>
    3b11: a5 2f        	lda	$2f                     ; 0x202f <wipeArea+0x163>
    3b13: 85 14        	sta	$14                     ; 0x2014 <wipeArea+0x148>
    3b15: a5 2c        	lda	$2c                     ; 0x202c <wipeArea+0x160>
    3b17: 85 15        	sta	$15                     ; 0x2015 <wipeArea+0x149>
    3b19: 20 04 ff     	jsr	$ff04 <__heap_start+0x604a>
    3b1c: 92 14        	sta	($14)                   ; 0x2014 <wipeArea+0x148>
    3b1e: a9 00        	lda	#$0
    3b20: 6a           	ror
    3b21: 85 28        	sta	$28                     ; 0x2028 <wipeArea+0x15c>
    3b23: a5 51        	lda	$51                     ; 0x2051 <wipeArea+0x185>
    3b25: c9 01        	cmp	#$1
    3b27: f0 03        	beq	$3b2c <main+0x18fe>
    3b29: 4c 5f 3c     	jmp	$3c5f <main+0x1a31>
    3b2c: 86 14        	stx	$14                     ; 0x2014 <wipeArea+0x148>
    3b2e: 84 15        	sty	$15                     ; 0x2015 <wipeArea+0x149>
    3b30: b2 14        	lda	($14)                   ; 0x2014 <wipeArea+0x148>
    3b32: 80 40        	bra	$3b74 <main+0x1946>
    3b34: 20 0c ff     	jsr	$ff0c <__heap_start+0x6052>
    3b37: 92 14        	sta	($14)                   ; 0x2014 <wipeArea+0x148>
    3b39: a9 00        	lda	#$0
    3b3b: 6a           	ror
    3b3c: 85 28        	sta	$28                     ; 0x2028 <wipeArea+0x15c>
    3b3e: 64 4b        	stz	$4b                     ; 0x204b <wipeArea+0x17f>
    3b40: a6 2f        	ldx	$2f                     ; 0x202f <wipeArea+0x163>
    3b42: 86 14        	stx	$14                     ; 0x2014 <wipeArea+0x148>
    3b44: a6 2c        	ldx	$2c                     ; 0x202c <wipeArea+0x160>
    3b46: 86 15        	stx	$15                     ; 0x2015 <wipeArea+0x149>
    3b48: 20 00 ff     	jsr	$ff00 <__heap_start+0x6046>
    3b4b: 92 14        	sta	($14)                   ; 0x2014 <wipeArea+0x148>
    3b4d: a9 00        	lda	#$0
    3b4f: 6a           	ror
    3b50: 85 28        	sta	$28                     ; 0x2028 <wipeArea+0x15c>
    3b52: a6 52        	ldx	$52                     ; 0x2052 <wipeArea+0x186>
    3b54: d0 de        	bne	$3b34 <main+0x1906>
    3b56: a6 4b        	ldx	$4b                     ; 0x204b <wipeArea+0x17f>
    3b58: e0 08        	cpx	#$8
    3b5a: d0 e2        	bne	$3b3e <main+0x1910>
    3b5c: a6 51        	ldx	$51                     ; 0x2051 <wipeArea+0x185>
    3b5e: d0 de        	bne	$3b3e <main+0x1910>
    3b60: a6 50        	ldx	$50                     ; 0x2050 <wipeArea+0x184>
    3b62: a5 50        	lda	$50                     ; 0x2050 <wipeArea+0x184>
    3b64: 48           	pha
    3b65: a0 19        	ldy	#$19
    3b67: b1 10        	lda	($10),y                 ; 0x2010 <wipeArea+0x144>
    3b69: 85 14        	sta	$14                     ; 0x2014 <wipeArea+0x148>
    3b6b: c8           	iny
    3b6c: b1 10        	lda	($10),y                 ; 0x2010 <wipeArea+0x144>
    3b6e: 85 15        	sta	$15                     ; 0x2015 <wipeArea+0x149>
    3b70: 68           	pla
    3b71: 92 14        	sta	($14)                   ; 0x2014 <wipeArea+0x148>
    3b73: 8a           	txa
    3b74: 18           	clc
    3b75: 69 60        	adc	#$60
    3b77: c9 c7        	cmp	#$c7
    3b79: b0 50        	bcs	$3bcb <main+0x199d>
    3b7b: aa           	tax
    3b7c: bc 0e 68     	ldy	$680e,x                 ; 0x680e <__bss_size+0x3674>
    3b7f: bd d5 68     	lda	$68d5,x                 ; 0x68d5 <__bss_size+0x373b>
    3b82: aa           	tax
    3b83: 84 14        	sty	$14                     ; 0x2014 <wipeArea+0x148>
    3b85: 86 15        	stx	$15                     ; 0x2015 <wipeArea+0x149>
    3b87: 6c 14 00     	jmp	($14)                   ; 0x14 <__rc4>
    3b8a: a6 2f        	ldx	$2f                     ; 0x202f <wipeArea+0x163>
    3b8c: 86 26        	stx	$26                     ; 0x2026 <wipeArea+0x15a>
    3b8e: a6 2c        	ldx	$2c                     ; 0x202c <wipeArea+0x160>
    3b90: 86 27        	stx	$27                     ; 0x2027 <wipeArea+0x15b>
    3b92: a4 26        	ldy	$26                     ; 0x2026 <wipeArea+0x15a>
    3b94: 84 12        	sty	$12                     ; 0x2012 <wipeArea+0x146>
    3b96: 86 13        	stx	$13                     ; 0x2013 <wipeArea+0x147>
    3b98: a0 1b        	ldy	#$1b
    3b9a: b1 10        	lda	($10),y                 ; 0x2010 <wipeArea+0x144>
    3b9c: 85 2a        	sta	$2a                     ; 0x202a <wipeArea+0x15e>
    3b9e: c8           	iny
    3b9f: b1 10        	lda	($10),y                 ; 0x2010 <wipeArea+0x144>
    3ba1: 85 2b        	sta	$2b                     ; 0x202b <wipeArea+0x15f>
    3ba3: a6 2a        	ldx	$2a                     ; 0x202a <wipeArea+0x15e>
    3ba5: 86 14        	stx	$14                     ; 0x2014 <wipeArea+0x148>
    3ba7: a6 2b        	ldx	$2b                     ; 0x202b <wipeArea+0x15f>
    3ba9: 86 15        	stx	$15                     ; 0x2015 <wipeArea+0x149>
    3bab: a2 00        	ldx	#$0
    3bad: a9 01        	lda	#$1
    3baf: 20 95 52     	jsr	$5295 <fileRead>
    3bb2: a6 26        	ldx	$26                     ; 0x2026 <wipeArea+0x15a>
    3bb4: 86 12        	stx	$12                     ; 0x2012 <wipeArea+0x146>
    3bb6: a6 27        	ldx	$27                     ; 0x2027 <wipeArea+0x15b>
    3bb8: 86 13        	stx	$13                     ; 0x2013 <wipeArea+0x147>
    3bba: a6 2a        	ldx	$2a                     ; 0x202a <wipeArea+0x15e>
    3bbc: 86 14        	stx	$14                     ; 0x2014 <wipeArea+0x148>
    3bbe: a6 2b        	ldx	$2b                     ; 0x202b <wipeArea+0x15f>
    3bc0: 86 15        	stx	$15                     ; 0x2015 <wipeArea+0x149>
    3bc2: a2 00        	ldx	#$0
    3bc4: a9 01        	lda	#$1
    3bc6: 20 95 52     	jsr	$5295 <fileRead>
    3bc9: 64 18        	stz	$18                     ; 0x2018 <wipeArea+0x14c>
    3bcb: a2 01        	ldx	#$1
    3bcd: 86 5f        	stx	$5f                     ; 0x205f <wipeArea+0x193>
    3bcf: 4c 5f 3c     	jmp	$3c5f <main+0x1a31>
    3bd2: 84 16        	sty	$16                     ; 0x2016 <wipeArea+0x14a>
    3bd4: a9 02        	lda	#$2
    3bd6: 8d 50 d6     	sta	$d650                   ; 0xd650 <__heap_start+0x3796>
    3bd9: e0 01        	cpx	#$1
    3bdb: d0 13        	bne	$3bf0 <main+0x19c2>
    3bdd: a5 16        	lda	$16                     ; 0x2016 <wipeArea+0x14a>
    3bdf: d0 37        	bne	$3c18 <main+0x19ea>
    3be1: a5 15        	lda	$15                     ; 0x2015 <wipeArea+0x149>
    3be3: f0 03        	beq	$3be8 <main+0x19ba>
    3be5: 4c c7 42     	jmp	$42c7 <main+0x2099>
    3be8: a6 19        	ldx	$19                     ; 0x2019 <wipeArea+0x14d>
    3bea: e0 00        	cpx	#$0
    3bec: 90 06        	bcc	$3bf4 <main+0x19c6>
    3bee: 80 2c        	bra	$3c1c <main+0x19ee>
    3bf0: e0 01        	cpx	#$1
    3bf2: b0 28        	bcs	$3c1c <main+0x19ee>
    3bf4: a6 19        	ldx	$19                     ; 0x2019 <wipeArea+0x14d>
    3bf6: 8e 55 d6     	stx	$d655                   ; 0xd655 <__heap_start+0x379b>
    3bf9: a6 15        	ldx	$15                     ; 0x2015 <wipeArea+0x149>
    3bfb: 8e 56 d6     	stx	$d656                   ; 0xd656 <__heap_start+0x379c>
    3bfe: 8c 57 d6     	sty	$d657                   ; 0xd657 <__heap_start+0x379d>
    3c01: 9c 54 d6     	stz	$d654                   ; 0xd654 <__heap_start+0x379a>
    3c04: a2 02        	ldx	#$2
    3c06: 8e 50 d6     	stx	$d650                   ; 0xd650 <__heap_start+0x3796>
    3c09: a2 89        	ldx	#$89
    3c0b: 8e 50 d6     	stx	$d650                   ; 0xd650 <__heap_start+0x3796>
    3c0e: 64 47        	stz	$47                     ; 0x2047 <wipeArea+0x17b>
    3c10: 64 48        	stz	$48                     ; 0x2048 <wipeArea+0x17c>
    3c12: 64 49        	stz	$49                     ; 0x2049 <wipeArea+0x17d>
    3c14: 64 4a        	stz	$4a                     ; 0x204a <wipeArea+0x17e>
    3c16: 80 47        	bra	$3c5f <main+0x1a31>
    3c18: c0 00        	cpy	#$0
    3c1a: 90 d8        	bcc	$3bf4 <main+0x19c6>
    3c1c: a2 ff        	ldx	#$ff
    3c1e: 8e 55 d6     	stx	$d655                   ; 0xd655 <__heap_start+0x379b>
    3c21: 8e 56 d6     	stx	$d656                   ; 0xd656 <__heap_start+0x379c>
    3c24: 8e 57 d6     	stx	$d657                   ; 0xd657 <__heap_start+0x379d>
    3c27: 9c 54 d6     	stz	$d654                   ; 0xd654 <__heap_start+0x379a>
    3c2a: a2 02        	ldx	#$2
    3c2c: 8e 50 d6     	stx	$d650                   ; 0xd650 <__heap_start+0x3796>
    3c2f: a2 89        	ldx	#$89
    3c31: 8e 50 d6     	stx	$d650                   ; 0xd650 <__heap_start+0x3796>
    3c34: a5 47        	lda	$47                     ; 0x2047 <wipeArea+0x17b>
    3c36: a6 48        	ldx	$48                     ; 0x2048 <wipeArea+0x17c>
    3c38: 86 12        	stx	$12                     ; 0x2012 <wipeArea+0x146>
    3c3a: a4 49        	ldy	$49                     ; 0x2049 <wipeArea+0x17d>
    3c3c: a6 4a        	ldx	$4a                     ; 0x204a <wipeArea+0x17e>
    3c3e: 86 13        	stx	$13                     ; 0x2013 <wipeArea+0x147>
    3c40: 18           	clc
    3c41: 69 01        	adc	#$1
    3c43: aa           	tax
    3c44: a5 12        	lda	$12                     ; 0x2012 <wipeArea+0x146>
    3c46: 69 00        	adc	#$0
    3c48: 85 12        	sta	$12                     ; 0x2012 <wipeArea+0x146>
    3c4a: 98           	tya
    3c4b: 69 00        	adc	#$0
    3c4d: 85 14        	sta	$14                     ; 0x2014 <wipeArea+0x148>
    3c4f: a5 13        	lda	$13                     ; 0x2013 <wipeArea+0x147>
    3c51: 69 ff        	adc	#$ff
    3c53: 86 47        	stx	$47                     ; 0x2047 <wipeArea+0x17b>
    3c55: a6 12        	ldx	$12                     ; 0x2012 <wipeArea+0x146>
    3c57: 86 48        	stx	$48                     ; 0x2048 <wipeArea+0x17c>
    3c59: a6 14        	ldx	$14                     ; 0x2014 <wipeArea+0x148>
    3c5b: 86 49        	stx	$49                     ; 0x2049 <wipeArea+0x17d>
    3c5d: 85 4a        	sta	$4a                     ; 0x204a <wipeArea+0x17e>
    3c5f: 64 4b        	stz	$4b                     ; 0x204b <wipeArea+0x17f>
    3c61: a6 2f        	ldx	$2f                     ; 0x202f <wipeArea+0x163>
    3c63: 86 12        	stx	$12                     ; 0x2012 <wipeArea+0x146>
    3c65: a6 2c        	ldx	$2c                     ; 0x202c <wipeArea+0x160>
    3c67: 86 13        	stx	$13                     ; 0x2013 <wipeArea+0x147>
    3c69: 20 00 ff     	jsr	$ff00 <__heap_start+0x6046>
    3c6c: 92 12        	sta	($12)                   ; 0x2012 <wipeArea+0x146>
    3c6e: a9 00        	lda	#$0
    3c70: 6a           	ror
    3c71: 85 28        	sta	$28                     ; 0x2028 <wipeArea+0x15c>
    3c73: a6 4b        	ldx	$4b                     ; 0x204b <wipeArea+0x17f>
    3c75: e0 08        	cpx	#$8
    3c77: f0 03        	beq	$3c7c <main+0x1a4e>
    3c79: 4c 36 3a     	jmp	$3a36 <main+0x1808>
    3c7c: a6 4f        	ldx	$4f                     ; 0x204f <wipeArea+0x183>
    3c7e: e0 20        	cpx	#$20
    3c80: f0 17        	beq	$3c99 <main+0x1a6b>
    3c82: e0 92        	cpx	#$92
    3c84: d0 03        	bne	$3c89 <main+0x1a5b>
    3c86: 4c c2 46     	jmp	$46c2 <main+0x2494>
    3c89: e0 83        	cpx	#$83
    3c8b: d0 03        	bne	$3c90 <main+0x1a62>
    3c8d: 4c 27 44     	jmp	$4427 <main+0x21f9>
    3c90: a5 2d        	lda	$2d                     ; 0x202d <wipeArea+0x161>
    3c92: a4 25        	ldy	$25                     ; 0x2025 <wipeArea+0x159>
    3c94: 85 14        	sta	$14                     ; 0x2014 <wipeArea+0x148>
    3c96: 4c 3c 3a     	jmp	$3a3c <main+0x180e>
    3c99: a2 b0        	ldx	#$b0
    3c9b: 8e 80 d5     	stx	$d580                   ; 0xd580 <__heap_start+0x36c6>
    3c9e: 9c 81 d5     	stz	$d581                   ; 0xd581 <__heap_start+0x36c7>
    3ca1: a0 b1        	ldy	#$b1
    3ca3: 8c 80 d5     	sty	$d580                   ; 0xd580 <__heap_start+0x36c6>
    3ca6: 9c 81 d5     	stz	$d581                   ; 0xd581 <__heap_start+0x36c7>
    3ca9: a9 b2        	lda	#$b2
    3cab: 8d 80 d5     	sta	$d580                   ; 0xd580 <__heap_start+0x36c6>
    3cae: 9c 81 d5     	stz	$d581                   ; 0xd581 <__heap_start+0x36c7>
    3cb1: a2 b3        	ldx	#$b3
    3cb3: 8e 80 d5     	stx	$d580                   ; 0xd580 <__heap_start+0x36c6>
    3cb6: 9c 81 d5     	stz	$d581                   ; 0xd581 <__heap_start+0x36c7>
    3cb9: e8           	inx
    3cba: 8e 80 d5     	stx	$d580                   ; 0xd580 <__heap_start+0x36c6>
    3cbd: 9c 81 d5     	stz	$d581                   ; 0xd581 <__heap_start+0x36c7>
    3cc0: e8           	inx
    3cc1: 8e 80 d5     	stx	$d580                   ; 0xd580 <__heap_start+0x36c6>
    3cc4: 9c 81 d5     	stz	$d581                   ; 0xd581 <__heap_start+0x36c7>
    3cc7: e8           	inx
    3cc8: 8e 80 d5     	stx	$d580                   ; 0xd580 <__heap_start+0x36c6>
    3ccb: 9c 81 d5     	stz	$d581                   ; 0xd581 <__heap_start+0x36c7>
    3cce: e8           	inx
    3ccf: 8e 80 d5     	stx	$d580                   ; 0xd580 <__heap_start+0x36c6>
    3cd2: 9c 81 d5     	stz	$d581                   ; 0xd581 <__heap_start+0x36c7>
    3cd5: e8           	inx
    3cd6: 8e 80 d5     	stx	$d580                   ; 0xd580 <__heap_start+0x36c6>
    3cd9: 9c 81 d5     	stz	$d581                   ; 0xd581 <__heap_start+0x36c7>
    3cdc: a2 b0        	ldx	#$b0
    3cde: 8e 82 d5     	stx	$d582                   ; 0xd582 <__heap_start+0x36c8>
    3ce1: 9c 81 d5     	stz	$d581                   ; 0xd581 <__heap_start+0x36c7>
    3ce4: 8c 82 d5     	sty	$d582                   ; 0xd582 <__heap_start+0x36c8>
    3ce7: a4 25        	ldy	$25                     ; 0x2025 <wipeArea+0x159>
    3ce9: a6 2d        	ldx	$2d                     ; 0x202d <wipeArea+0x161>
    3ceb: 86 14        	stx	$14                     ; 0x2014 <wipeArea+0x148>
    3ced: 9c 81 d5     	stz	$d581                   ; 0xd581 <__heap_start+0x36c7>
    3cf0: 8d 82 d5     	sta	$d582                   ; 0xd582 <__heap_start+0x36c8>
    3cf3: 9c 81 d5     	stz	$d581                   ; 0xd581 <__heap_start+0x36c7>
    3cf6: 1a           	inc
    3cf7: 8d 82 d5     	sta	$d582                   ; 0xd582 <__heap_start+0x36c8>
    3cfa: 9c 81 d5     	stz	$d581                   ; 0xd581 <__heap_start+0x36c7>
    3cfd: 1a           	inc
    3cfe: 8d 82 d5     	sta	$d582                   ; 0xd582 <__heap_start+0x36c8>
    3d01: 9c 81 d5     	stz	$d581                   ; 0xd581 <__heap_start+0x36c7>
    3d04: 1a           	inc
    3d05: 8d 82 d5     	sta	$d582                   ; 0xd582 <__heap_start+0x36c8>
    3d08: 9c 81 d5     	stz	$d581                   ; 0xd581 <__heap_start+0x36c7>
    3d0b: 1a           	inc
    3d0c: 8d 82 d5     	sta	$d582                   ; 0xd582 <__heap_start+0x36c8>
    3d0f: 9c 81 d5     	stz	$d581                   ; 0xd581 <__heap_start+0x36c7>
    3d12: 1a           	inc
    3d13: 8d 82 d5     	sta	$d582                   ; 0xd582 <__heap_start+0x36c8>
    3d16: 9c 81 d5     	stz	$d581                   ; 0xd581 <__heap_start+0x36c7>
    3d19: a2 b8        	ldx	#$b8
    3d1b: 8e 82 d5     	stx	$d582                   ; 0xd582 <__heap_start+0x36c8>
    3d1e: 9c 81 d5     	stz	$d581                   ; 0xd581 <__heap_start+0x36c7>
    3d21: ad a0 dd     	lda	$dda0                   ; 0xdda0 <__heap_start+0x3ee6>
    3d24: 29 02        	and	#$2
    3d26: f0 03        	beq	$3d2b <main+0x1afd>
    3d28: 4c f2 41     	jmp	$41f2 <main+0x1fc4>
    3d2b: ae a2 dd     	ldx	$dda2                   ; 0xdda2 <__heap_start+0x3ee8>
    3d2e: ad a3 dd     	lda	$dda3                   ; 0xdda3 <__heap_start+0x3ee9>
    3d31: 29 0f        	and	#$f
    3d33: d0 07        	bne	$3d3c <main+0x1b0e>
    3d35: e0 00        	cpx	#$0
    3d37: d0 03        	bne	$3d3c <main+0x1b0e>
    3d39: 4c f2 41     	jmp	$41f2 <main+0x1fc4>
    3d3c: 85 28        	sta	$28                     ; 0x2028 <wipeArea+0x15c>
    3d3e: 86 2d        	stx	$2d                     ; 0x202d <wipeArea+0x161>
    3d40: a6 14        	ldx	$14                     ; 0x2014 <wipeArea+0x148>
    3d42: 98           	tya
    3d43: 4c 32 3f     	jmp	$3f32 <main+0x1d04>
    3d46: a4 14        	ldy	$14                     ; 0x2014 <wipeArea+0x148>
    3d48: c0 00        	cpy	#$0
    3d4a: b0 03        	bcs	$3d4f <main+0x1b21>
    3d4c: 4c b5 41     	jmp	$41b5 <main+0x1f87>
    3d4f: a0 01        	ldy	#$1
    3d51: a6 01        	ldx	$1                      ; 0x2001 <wipeArea+0x135>
    3d53: 86 16        	stx	$16                     ; 0x2016 <wipeArea+0x14a>
    3d55: 84 01        	sty	$1                      ; 0x2001 <wipeArea+0x135>
    3d57: 64 12        	stz	$12                     ; 0x2012 <wipeArea+0x146>
    3d59: a2 ff        	ldx	#$ff
    3d5b: 64 17        	stz	$17                     ; 0x2017 <wipeArea+0x14b>
    3d5d: 80 0e        	bra	$3d6d <main+0x1b3f>
    3d5f: a2 00        	ldx	#$0
    3d61: 0a           	asl
    3d62: 8a           	txa
    3d63: 2a           	rol
    3d64: a6 01        	ldx	$1                      ; 0x2001 <wipeArea+0x135>
    3d66: 86 16        	stx	$16                     ; 0x2016 <wipeArea+0x14a>
    3d68: 84 01        	sty	$1                      ; 0x2001 <wipeArea+0x135>
    3d6a: aa           	tax
    3d6b: 85 17        	sta	$17                     ; 0x2017 <wipeArea+0x14b>
    3d6d: a5 15        	lda	$15                     ; 0x2015 <wipeArea+0x149>
    3d6f: 0a           	asl
    3d70: 26 12        	rol	$12                     ; 0x2012 <wipeArea+0x146>
    3d72: 0a           	asl
    3d73: 85 13        	sta	$13                     ; 0x2013 <wipeArea+0x147>
    3d75: 26 12        	rol	$12                     ; 0x2012 <wipeArea+0x146>
    3d77: a9 00        	lda	#$0
    3d79: 18           	clc
    3d7a: 65 13        	adc	$13                     ; 0x2013 <wipeArea+0x147>
    3d7c: 85 13        	sta	$13                     ; 0x2013 <wipeArea+0x147>
    3d7e: a9 d0        	lda	#$d0
    3d80: 65 12        	adc	$12                     ; 0x2012 <wipeArea+0x146>
    3d82: 5a           	phy
    3d83: a4 13        	ldy	$13                     ; 0x2013 <wipeArea+0x147>
    3d85: 84 12        	sty	$12                     ; 0x2012 <wipeArea+0x146>
    3d87: 7a           	ply
    3d88: 85 13        	sta	$13                     ; 0x2013 <wipeArea+0x147>
    3d8a: 8a           	txa
    3d8b: 92 12        	sta	($12)                   ; 0x2012 <wipeArea+0x146>
    3d8d: a5 17        	lda	$17                     ; 0x2017 <wipeArea+0x14b>
    3d8f: 91 12        	sta	($12),y                 ; 0x2012 <wipeArea+0x146>
    3d91: a0 02        	ldy	#$2
    3d93: 8a           	txa
    3d94: 91 12        	sta	($12),y                 ; 0x2012 <wipeArea+0x146>
    3d96: c8           	iny
    3d97: a9 ff        	lda	#$ff
    3d99: 91 12        	sta	($12),y                 ; 0x2012 <wipeArea+0x146>
    3d9b: a6 16        	ldx	$16                     ; 0x2016 <wipeArea+0x14a>
    3d9d: 86 01        	stx	$1                      ; 0x2001 <wipeArea+0x135>
    3d9f: a5 25        	lda	$25                     ; 0x2025 <wipeArea+0x159>
    3da1: 85 2e        	sta	$2e                     ; 0x202e <wipeArea+0x162>
    3da3: a2 00        	ldx	#$0
    3da5: 48           	pha
    3da6: 8a           	txa
    3da7: a0 20        	ldy	#$20
    3da9: 91 10        	sta	($10),y                 ; 0x2010 <wipeArea+0x144>
    3dab: 68           	pla
    3dac: a0 01        	ldy	#$1
    3dae: 4c f3 3e     	jmp	$3ef3 <main+0x1cc5>
    3db1: a2 01        	ldx	#$1
    3db3: 84 21        	sty	$21                     ; 0x2021 <wipeArea+0x155>
    3db5: 8a           	txa
    3db6: a0 20        	ldy	#$20
    3db8: 91 10        	sta	($10),y                 ; 0x2010 <wipeArea+0x144>
    3dba: a5 25        	lda	$25                     ; 0x2025 <wipeArea+0x159>
    3dbc: a0 1d        	ldy	#$1d
    3dbe: 91 10        	sta	($10),y                 ; 0x2010 <wipeArea+0x144>
    3dc0: 64 12        	stz	$12                     ; 0x2012 <wipeArea+0x146>
    3dc2: 48           	pha
    3dc3: a9 00        	lda	#$0
    3dc5: a0 21        	ldy	#$21
    3dc7: 91 10        	sta	($10),y                 ; 0x2010 <wipeArea+0x144>
    3dc9: a4 21        	ldy	$21                     ; 0x2021 <wipeArea+0x155>
    3dcb: 68           	pla
    3dcc: 4c f3 3e     	jmp	$3ef3 <main+0x1cc5>
    3dcf: a5 25        	lda	$25                     ; 0x2025 <wipeArea+0x159>
    3dd1: 30 36        	bmi	$3e09 <main+0x1bdb>
    3dd3: a0 1d        	ldy	#$1d
    3dd5: b1 10        	lda	($10),y                 ; 0x2010 <wipeArea+0x144>
    3dd7: 29 f0        	and	#$f0
    3dd9: c9 80        	cmp	#$80
    3ddb: f0 04        	beq	$3de1 <main+0x1bb3>
    3ddd: c9 90        	cmp	#$90
    3ddf: d0 31        	bne	$3e12 <main+0x1be4>
    3de1: a6 25        	ldx	$25                     ; 0x2025 <wipeArea+0x159>
    3de3: 86 2e        	stx	$2e                     ; 0x202e <wipeArea+0x162>
    3de5: a5 25        	lda	$25                     ; 0x2025 <wipeArea+0x159>
    3de7: 29 7f        	and	#$7f
    3de9: a2 00        	ldx	#$0
    3deb: 48           	pha
    3dec: 8a           	txa
    3ded: a0 20        	ldy	#$20
    3def: 91 10        	sta	($10),y                 ; 0x2010 <wipeArea+0x144>
    3df1: a0 01        	ldy	#$1
    3df3: e8           	inx
    3df4: 8a           	txa
    3df5: 5a           	phy
    3df6: a0 21        	ldy	#$21
    3df8: 91 10        	sta	($10),y                 ; 0x2010 <wipeArea+0x144>
    3dfa: 7a           	ply
    3dfb: 80 ce        	bra	$3dcb <main+0x1b9d>
    3dfd: a2 01        	ldx	#$1
    3dff: 80 2a        	bra	$3e2b <main+0x1bfd>
    3e01: a2 02        	ldx	#$2
    3e03: 80 26        	bra	$3e2b <main+0x1bfd>
    3e05: a2 03        	ldx	#$3
    3e07: 80 22        	bra	$3e2b <main+0x1bfd>
    3e09: a4 14        	ldy	$14                     ; 0x2014 <wipeArea+0x148>
    3e0b: 4c f1 3e     	jmp	$3ef1 <main+0x1cc3>
    3e0e: a2 04        	ldx	#$4
    3e10: 80 19        	bra	$3e2b <main+0x1bfd>
    3e12: a5 14        	lda	$14                     ; 0x2014 <wipeArea+0x148>
    3e14: 09 01        	ora	#$1
    3e16: a6 25        	ldx	$25                     ; 0x2025 <wipeArea+0x159>
    3e18: 86 2e        	stx	$2e                     ; 0x202e <wipeArea+0x162>
    3e1a: 4c 3b 3f     	jmp	$3f3b <main+0x1d0d>
    3e1d: a2 05        	ldx	#$5
    3e1f: 80 0a        	bra	$3e2b <main+0x1bfd>
    3e21: a2 06        	ldx	#$6
    3e23: 80 06        	bra	$3e2b <main+0x1bfd>
    3e25: a2 07        	ldx	#$7
    3e27: 80 02        	bra	$3e2b <main+0x1bfd>
    3e29: a2 08        	ldx	#$8
    3e2b: 48           	pha
    3e2c: 8a           	txa
    3e2d: a0 1e        	ldy	#$1e
    3e2f: 91 10        	sta	($10),y                 ; 0x2010 <wipeArea+0x144>
    3e31: 68           	pla
    3e32: 64 2a        	stz	$2a                     ; 0x202a <wipeArea+0x15e>
    3e34: 64 24        	stz	$24                     ; 0x2024 <wipeArea+0x158>
    3e36: 18           	clc
    3e37: 69 05        	adc	#$5
    3e39: a8           	tay
    3e3a: a9 00        	lda	#$0
    3e3c: 69 00        	adc	#$0
    3e3e: 18           	clc
    3e3f: 48           	pha
    3e40: a5 10        	lda	$10                     ; 0x2010 <wipeArea+0x144>
    3e42: 69 22        	adc	#$22
    3e44: 85 26        	sta	$26                     ; 0x2026 <wipeArea+0x15a>
    3e46: a5 11        	lda	$11                     ; 0x2011 <wipeArea+0x145>
    3e48: 69 00        	adc	#$0
    3e4a: 85 27        	sta	$27                     ; 0x2027 <wipeArea+0x15b>
    3e4c: 68           	pla
    3e4d: a6 26        	ldx	$26                     ; 0x2026 <wipeArea+0x15a>
    3e4f: 86 14        	stx	$14                     ; 0x2014 <wipeArea+0x148>
    3e51: a6 27        	ldx	$27                     ; 0x2027 <wipeArea+0x15b>
    3e53: 86 15        	stx	$15                     ; 0x2015 <wipeArea+0x149>
    3e55: a2 0c        	ldx	#$c
    3e57: 86 12        	stx	$12                     ; 0x2012 <wipeArea+0x146>
    3e59: 64 13        	stz	$13                     ; 0x2013 <wipeArea+0x147>
    3e5b: aa           	tax
    3e5c: 98           	tya
    3e5d: 20 d9 65     	jsr	$65d9 <__udivmodhi4>
    3e60: aa           	tax
    3e61: b2 26        	lda	($26)                   ; 0x2026 <wipeArea+0x15a>
    3e63: 85 12        	sta	$12                     ; 0x2012 <wipeArea+0x146>
    3e65: a0 01        	ldy	#$1
    3e67: b1 26        	lda	($26),y                 ; 0x2026 <wipeArea+0x15a>
    3e69: 06 12        	asl	$12                     ; 0x2012 <wipeArea+0x146>
    3e6b: 2a           	rol
    3e6c: 85 13        	sta	$13                     ; 0x2013 <wipeArea+0x147>
    3e6e: a9 5f        	lda	#$5f
    3e70: 18           	clc
    3e71: 65 12        	adc	$12                     ; 0x2012 <wipeArea+0x146>
    3e73: 85 12        	sta	$12                     ; 0x2012 <wipeArea+0x146>
    3e75: a9 6c        	lda	#$6c
    3e77: 65 13        	adc	$13                     ; 0x2013 <wipeArea+0x147>
    3e79: 85 13        	sta	$13                     ; 0x2013 <wipeArea+0x147>
    3e7b: 18           	clc
    3e7c: 8a           	txa
    3e7d: 69 3e        	adc	#$3e
    3e7f: 85 19        	sta	$19                     ; 0x2019 <wipeArea+0x14d>
    3e81: 5a           	phy
    3e82: a0 1e        	ldy	#$1e
    3e84: b1 10        	lda	($10),y                 ; 0x2010 <wipeArea+0x144>
    3e86: 7a           	ply
    3e87: 85 14        	sta	$14                     ; 0x2014 <wipeArea+0x148>
    3e89: 38           	sec
    3e8a: e5 24        	sbc	$24                     ; 0x2024 <wipeArea+0x158>
    3e8c: 85 16        	sta	$16                     ; 0x2016 <wipeArea+0x14a>
    3e8e: 64 18        	stz	$18                     ; 0x2018 <wipeArea+0x14c>
    3e90: a9 00        	lda	#$0
    3e92: e5 18        	sbc	$18                     ; 0x2018 <wipeArea+0x14c>
    3e94: 05 2a        	ora	$2a                     ; 0x202a <wipeArea+0x15e>
    3e96: aa           	tax
    3e97: a5 16        	lda	$16                     ; 0x2016 <wipeArea+0x14a>
    3e99: 09 a0        	ora	#$a0
    3e9b: 85 17        	sta	$17                     ; 0x2017 <wipeArea+0x14b>
    3e9d: 8a           	txa
    3e9e: a6 14        	ldx	$14                     ; 0x2014 <wipeArea+0x148>
    3ea0: c9 01        	cmp	#$1
    3ea2: d0 06        	bne	$3eaa <main+0x1c7c>
    3ea4: a5 16        	lda	$16                     ; 0x2016 <wipeArea+0x14a>
    3ea6: c9 00        	cmp	#$0
    3ea8: 80 02        	bra	$3eac <main+0x1c7e>
    3eaa: c9 01        	cmp	#$1
    3eac: a9 80        	lda	#$80
    3eae: 85 14        	sta	$14                     ; 0x2014 <wipeArea+0x148>
    3eb0: a9 d5        	lda	#$d5
    3eb2: 85 15        	sta	$15                     ; 0x2015 <wipeArea+0x149>
    3eb4: 90 08        	bcc	$3ebe <main+0x1c90>
    3eb6: a9 82        	lda	#$82
    3eb8: 85 14        	sta	$14                     ; 0x2014 <wipeArea+0x148>
    3eba: a9 d5        	lda	#$d5
    3ebc: 85 15        	sta	$15                     ; 0x2015 <wipeArea+0x149>
    3ebe: b2 12        	lda	($12)                   ; 0x2012 <wipeArea+0x146>
    3ec0: 85 1a        	sta	$1a                     ; 0x201a <wipeArea+0x14e>
    3ec2: b1 12        	lda	($12),y                 ; 0x2012 <wipeArea+0x146>
    3ec4: a8           	tay
    3ec5: a5 17        	lda	$17                     ; 0x2017 <wipeArea+0x14b>
    3ec7: 92 14        	sta	($14)                   ; 0x2014 <wipeArea+0x148>
    3ec9: a5 1a        	lda	$1a                     ; 0x201a <wipeArea+0x14e>
    3ecb: 8d 81 d5     	sta	$d581                   ; 0xd581 <__heap_start+0x36c7>
    3ece: 98           	tya
    3ecf: 29 03        	and	#$3
    3ed1: 85 12        	sta	$12                     ; 0x2012 <wipeArea+0x146>
    3ed3: 06 19        	asl	$19                     ; 0x2019 <wipeArea+0x14d>
    3ed5: a5 16        	lda	$16                     ; 0x2016 <wipeArea+0x14a>
    3ed7: 09 b0        	ora	#$b0
    3ed9: 92 14        	sta	($14)                   ; 0x2014 <wipeArea+0x148>
    3edb: a5 19        	lda	$19                     ; 0x2019 <wipeArea+0x14d>
    3edd: 0a           	asl
    3ede: 05 12        	ora	$12                     ; 0x2012 <wipeArea+0x146>
    3ee0: 09 20        	ora	#$20
    3ee2: 8d 81 d5     	sta	$d581                   ; 0xd581 <__heap_start+0x36c7>
    3ee5: a5 2e        	lda	$2e                     ; 0x202e <wipeArea+0x162>
    3ee7: 9d 35 00     	sta	$35,x                   ; 0x35 <polyOPL3Buffer>
    3eea: a6 34        	ldx	$34                     ; 0x2034 <wipeArea+0x168>
    3eec: e8           	inx
    3eed: 86 34        	stx	$34                     ; 0x2034 <wipeArea+0x168>
    3eef: a0 00        	ldy	#$0
    3ef1: a5 25        	lda	$25                     ; 0x2025 <wipeArea+0x159>
    3ef3: a6 28        	ldx	$28                     ; 0x2028 <wipeArea+0x15c>
    3ef5: 86 12        	stx	$12                     ; 0x2012 <wipeArea+0x146>
    3ef7: a2 ff        	ldx	#$ff
    3ef9: c6 2d        	dec	$2d                     ; 0x202d <wipeArea+0x161>
    3efb: e4 2d        	cpx	$2d                     ; 0x202d <wipeArea+0x161>
    3efd: d0 20        	bne	$3f1f <main+0x1cf1>
    3eff: c6 12        	dec	$12                     ; 0x2012 <wipeArea+0x146>
    3f01: 80 1c        	bra	$3f1f <main+0x1cf1>
    3f03: a2 09        	ldx	#$9
    3f05: 80 06        	bra	$3f0d <main+0x1cdf>
    3f07: a2 0a        	ldx	#$a
    3f09: 80 02        	bra	$3f0d <main+0x1cdf>
    3f0b: a2 0b        	ldx	#$b
    3f0d: 48           	pha
    3f0e: 8a           	txa
    3f0f: a0 1e        	ldy	#$1e
    3f11: 91 10        	sta	($10),y                 ; 0x2010 <wipeArea+0x144>
    3f13: 68           	pla
    3f14: a2 01        	ldx	#$1
    3f16: 86 2a        	stx	$2a                     ; 0x202a <wipeArea+0x15e>
    3f18: a2 09        	ldx	#$9
    3f1a: 86 24        	stx	$24                     ; 0x2024 <wipeArea+0x158>
    3f1c: 4c 36 3e     	jmp	$3e36 <main+0x1c08>
    3f1f: aa           	tax
    3f20: 85 14        	sta	$14                     ; 0x2014 <wipeArea+0x148>
    3f22: 98           	tya
    3f23: 5a           	phy
    3f24: a4 12        	ldy	$12                     ; 0x2012 <wipeArea+0x146>
    3f26: 84 28        	sty	$28                     ; 0x2028 <wipeArea+0x15c>
    3f28: 7a           	ply
    3f29: e6 12        	inc	$12                     ; 0x2012 <wipeArea+0x146>
    3f2b: c6 12        	dec	$12                     ; 0x2012 <wipeArea+0x146>
    3f2d: d0 03        	bne	$3f32 <main+0x1d04>
    3f2f: 4c e9 41     	jmp	$41e9 <main+0x1fbb>
    3f32: ac a1 dd     	ldy	$dda1                   ; 0xdda1 <__heap_start+0x3ee7>
    3f35: 84 25        	sty	$25                     ; 0x2025 <wipeArea+0x159>
    3f37: c0 fe        	cpy	#$fe
    3f39: d0 03        	bne	$3f3e <main+0x1d10>
    3f3b: a8           	tay
    3f3c: 80 b3        	bra	$3ef1 <main+0x1cc3>
    3f3e: a8           	tay
    3f3f: f0 27        	beq	$3f68 <main+0x1d3a>
    3f41: 48           	pha
    3f42: a0 21        	ldy	#$21
    3f44: b1 10        	lda	($10),y                 ; 0x2010 <wipeArea+0x144>
    3f46: a8           	tay
    3f47: 68           	pla
    3f48: c0 01        	cpy	#$1
    3f4a: f0 03        	beq	$3f4f <main+0x1d21>
    3f4c: 4c a7 3f     	jmp	$3fa7 <main+0x1d79>
    3f4f: a8           	tay
    3f50: f0 03        	beq	$3f55 <main+0x1d27>
    3f52: 4c 1b 40     	jmp	$401b <main+0x1ded>
    3f55: a0 20        	ldy	#$20
    3f57: b1 10        	lda	($10),y                 ; 0x2010 <wipeArea+0x144>
    3f59: a8           	tay
    3f5a: f0 03        	beq	$3f5f <main+0x1d31>
    3f5c: 4c d5 41     	jmp	$41d5 <main+0x1fa7>
    3f5f: e0 00        	cpx	#$0
    3f61: a5 2e        	lda	$2e                     ; 0x202e <wipeArea+0x162>
    3f63: b0 4b        	bcs	$3fb0 <main+0x1d82>
    3f65: 4c 24 40     	jmp	$4024 <main+0x1df6>
    3f68: 48           	pha
    3f69: a0 20        	ldy	#$20
    3f6b: b1 10        	lda	($10),y                 ; 0x2010 <wipeArea+0x144>
    3f6d: 85 12        	sta	$12                     ; 0x2012 <wipeArea+0x146>
    3f6f: 68           	pla
    3f70: a4 12        	ldy	$12                     ; 0x2012 <wipeArea+0x146>
    3f72: d0 03        	bne	$3f77 <main+0x1d49>
    3f74: 4c 84 41     	jmp	$4184 <main+0x1f56>
    3f77: 85 14        	sta	$14                     ; 0x2014 <wipeArea+0x148>
    3f79: a5 25        	lda	$25                     ; 0x2025 <wipeArea+0x159>
    3f7b: 18           	clc
    3f7c: 69 ec        	adc	#$ec
    3f7e: 85 15        	sta	$15                     ; 0x2015 <wipeArea+0x149>
    3f80: a0 21        	ldy	#$21
    3f82: b1 10        	lda	($10),y                 ; 0x2010 <wipeArea+0x144>
    3f84: a8           	tay
    3f85: c9 01        	cmp	#$1
    3f87: f0 03        	beq	$3f8c <main+0x1d5e>
    3f89: 4c ae 41     	jmp	$41ae <main+0x1f80>
    3f8c: a5 14        	lda	$14                     ; 0x2014 <wipeArea+0x148>
    3f8e: f0 03        	beq	$3f93 <main+0x1d65>
    3f90: 4c 46 3d     	jmp	$3d46 <main+0x1b18>
    3f93: a0 20        	ldy	#$20
    3f95: b1 10        	lda	($10),y                 ; 0x2010 <wipeArea+0x144>
    3f97: a8           	tay
    3f98: f0 03        	beq	$3f9d <main+0x1d6f>
    3f9a: 4c 48 3d     	jmp	$3d48 <main+0x1b1a>
    3f9d: e0 00        	cpx	#$0
    3f9f: 90 03        	bcc	$3fa4 <main+0x1d76>
    3fa1: 4c 4f 3d     	jmp	$3d4f <main+0x1b21>
    3fa4: 4c b5 41     	jmp	$41b5 <main+0x1f87>
    3fa7: c0 01        	cpy	#$1
    3fa9: a5 2e        	lda	$2e                     ; 0x202e <wipeArea+0x162>
    3fab: b0 03        	bcs	$3fb0 <main+0x1d82>
    3fad: 4c 24 40     	jmp	$4024 <main+0x1df6>
    3fb0: aa           	tax
    3fb1: d0 03        	bne	$3fb6 <main+0x1d88>
    3fb3: 4c ef 3e     	jmp	$3eef <main+0x1cc1>
    3fb6: a6 35        	ldx	$35                     ; 0x2035 <wipeArea+0x169>
    3fb8: d0 03        	bne	$3fbd <main+0x1d8f>
    3fba: 4c e1 41     	jmp	$41e1 <main+0x1fb3>
    3fbd: a6 36        	ldx	$36                     ; 0x2036 <wipeArea+0x16a>
    3fbf: d0 03        	bne	$3fc4 <main+0x1d96>
    3fc1: 4c fd 3d     	jmp	$3dfd <main+0x1bcf>
    3fc4: a6 37        	ldx	$37                     ; 0x2037 <wipeArea+0x16b>
    3fc6: d0 03        	bne	$3fcb <main+0x1d9d>
    3fc8: 4c 01 3e     	jmp	$3e01 <main+0x1bd3>
    3fcb: a6 38        	ldx	$38                     ; 0x2038 <wipeArea+0x16c>
    3fcd: d0 03        	bne	$3fd2 <main+0x1da4>
    3fcf: 4c 05 3e     	jmp	$3e05 <main+0x1bd7>
    3fd2: a6 39        	ldx	$39                     ; 0x2039 <wipeArea+0x16d>
    3fd4: d0 03        	bne	$3fd9 <main+0x1dab>
    3fd6: 4c 0e 3e     	jmp	$3e0e <main+0x1be0>
    3fd9: a6 3a        	ldx	$3a                     ; 0x203a <wipeArea+0x16e>
    3fdb: d0 03        	bne	$3fe0 <main+0x1db2>
    3fdd: 4c 1d 3e     	jmp	$3e1d <main+0x1bef>
    3fe0: a6 3b        	ldx	$3b                     ; 0x203b <wipeArea+0x16f>
    3fe2: d0 03        	bne	$3fe7 <main+0x1db9>
    3fe4: 4c 21 3e     	jmp	$3e21 <main+0x1bf3>
    3fe7: a6 3c        	ldx	$3c                     ; 0x203c <wipeArea+0x170>
    3fe9: d0 03        	bne	$3fee <main+0x1dc0>
    3feb: 4c 25 3e     	jmp	$3e25 <main+0x1bf7>
    3fee: a6 3d        	ldx	$3d                     ; 0x203d <wipeArea+0x171>
    3ff0: d0 03        	bne	$3ff5 <main+0x1dc7>
    3ff2: 4c 29 3e     	jmp	$3e29 <main+0x1bfb>
    3ff5: a6 3e        	ldx	$3e                     ; 0x203e <wipeArea+0x172>
    3ff7: d0 03        	bne	$3ffc <main+0x1dce>
    3ff9: 4c 03 3f     	jmp	$3f03 <main+0x1cd5>
    3ffc: a6 3f        	ldx	$3f                     ; 0x203f <wipeArea+0x173>
    3ffe: d0 03        	bne	$4003 <main+0x1dd5>
    4000: 4c 07 3f     	jmp	$3f07 <main+0x1cd9>
    4003: a6 40        	ldx	$40                     ; 0x2040 <wipeArea+0x174>
    4005: d0 03        	bne	$400a <main+0x1ddc>
    4007: 4c 0b 3f     	jmp	$3f0b <main+0x1cdd>
    400a: a6 41        	ldx	$41                     ; 0x2041 <wipeArea+0x175>
    400c: d0 03        	bne	$4011 <main+0x1de3>
    400e: 4c ae 42     	jmp	$42ae <main+0x2080>
    4011: a6 42        	ldx	$42                     ; 0x2042 <wipeArea+0x176>
    4013: f0 03        	beq	$4018 <main+0x1dea>
    4015: 4c 96 42     	jmp	$4296 <main+0x2068>
    4018: 4c b3 42     	jmp	$42b3 <main+0x2085>
    401b: c9 00        	cmp	#$0
    401d: a5 2e        	lda	$2e                     ; 0x202e <wipeArea+0x162>
    401f: 90 03        	bcc	$4024 <main+0x1df6>
    4021: 4c b0 3f     	jmp	$3fb0 <main+0x1d82>
    4024: a6 35        	ldx	$35                     ; 0x2035 <wipeArea+0x169>
    4026: 64 2a        	stz	$2a                     ; 0x202a <wipeArea+0x15e>
    4028: 85 12        	sta	$12                     ; 0x2012 <wipeArea+0x146>
    402a: 64 2b        	stz	$2b                     ; 0x202b <wipeArea+0x15f>
    402c: 64 24        	stz	$24                     ; 0x2024 <wipeArea+0x158>
    402e: e4 12        	cpx	$12                     ; 0x2012 <wipeArea+0x146>
    4030: d0 03        	bne	$4035 <main+0x1e07>
    4032: 4c b2 40     	jmp	$40b2 <main+0x1e84>
    4035: a6 36        	ldx	$36                     ; 0x2036 <wipeArea+0x16a>
    4037: a0 01        	ldy	#$1
    4039: 85 12        	sta	$12                     ; 0x2012 <wipeArea+0x146>
    403b: 84 2a        	sty	$2a                     ; 0x202a <wipeArea+0x15e>
    403d: e4 12        	cpx	$12                     ; 0x2012 <wipeArea+0x146>
    403f: d0 03        	bne	$4044 <main+0x1e16>
    4041: 4c b2 40     	jmp	$40b2 <main+0x1e84>
    4044: a6 37        	ldx	$37                     ; 0x2037 <wipeArea+0x16b>
    4046: a0 02        	ldy	#$2
    4048: 85 12        	sta	$12                     ; 0x2012 <wipeArea+0x146>
    404a: 84 2a        	sty	$2a                     ; 0x202a <wipeArea+0x15e>
    404c: e4 12        	cpx	$12                     ; 0x2012 <wipeArea+0x146>
    404e: d0 03        	bne	$4053 <main+0x1e25>
    4050: 4c b2 40     	jmp	$40b2 <main+0x1e84>
    4053: a6 38        	ldx	$38                     ; 0x2038 <wipeArea+0x16c>
    4055: a0 03        	ldy	#$3
    4057: 85 12        	sta	$12                     ; 0x2012 <wipeArea+0x146>
    4059: 84 2a        	sty	$2a                     ; 0x202a <wipeArea+0x15e>
    405b: e4 12        	cpx	$12                     ; 0x2012 <wipeArea+0x146>
    405d: f0 53        	beq	$40b2 <main+0x1e84>
    405f: a6 39        	ldx	$39                     ; 0x2039 <wipeArea+0x16d>
    4061: a0 04        	ldy	#$4
    4063: 85 12        	sta	$12                     ; 0x2012 <wipeArea+0x146>
    4065: 84 2a        	sty	$2a                     ; 0x202a <wipeArea+0x15e>
    4067: e4 12        	cpx	$12                     ; 0x2012 <wipeArea+0x146>
    4069: f0 47        	beq	$40b2 <main+0x1e84>
    406b: a6 3a        	ldx	$3a                     ; 0x203a <wipeArea+0x16e>
    406d: a0 05        	ldy	#$5
    406f: 85 12        	sta	$12                     ; 0x2012 <wipeArea+0x146>
    4071: 84 2a        	sty	$2a                     ; 0x202a <wipeArea+0x15e>
    4073: e4 12        	cpx	$12                     ; 0x2012 <wipeArea+0x146>
    4075: f0 3b        	beq	$40b2 <main+0x1e84>
    4077: a6 3b        	ldx	$3b                     ; 0x203b <wipeArea+0x16f>
    4079: a0 06        	ldy	#$6
    407b: 85 12        	sta	$12                     ; 0x2012 <wipeArea+0x146>
    407d: 84 2a        	sty	$2a                     ; 0x202a <wipeArea+0x15e>
    407f: e4 12        	cpx	$12                     ; 0x2012 <wipeArea+0x146>
    4081: f0 2f        	beq	$40b2 <main+0x1e84>
    4083: a6 3c        	ldx	$3c                     ; 0x203c <wipeArea+0x170>
    4085: a0 07        	ldy	#$7
    4087: 85 12        	sta	$12                     ; 0x2012 <wipeArea+0x146>
    4089: 84 2a        	sty	$2a                     ; 0x202a <wipeArea+0x15e>
    408b: e4 12        	cpx	$12                     ; 0x2012 <wipeArea+0x146>
    408d: f0 23        	beq	$40b2 <main+0x1e84>
    408f: a6 3d        	ldx	$3d                     ; 0x203d <wipeArea+0x171>
    4091: a0 08        	ldy	#$8
    4093: 85 12        	sta	$12                     ; 0x2012 <wipeArea+0x146>
    4095: 84 2a        	sty	$2a                     ; 0x202a <wipeArea+0x15e>
    4097: e4 12        	cpx	$12                     ; 0x2012 <wipeArea+0x146>
    4099: f0 17        	beq	$40b2 <main+0x1e84>
    409b: a6 3e        	ldx	$3e                     ; 0x203e <wipeArea+0x172>
    409d: a0 09        	ldy	#$9
    409f: 85 12        	sta	$12                     ; 0x2012 <wipeArea+0x146>
    40a1: 84 2a        	sty	$2a                     ; 0x202a <wipeArea+0x15e>
    40a3: a0 01        	ldy	#$1
    40a5: 84 2b        	sty	$2b                     ; 0x202b <wipeArea+0x15f>
    40a7: a0 09        	ldy	#$9
    40a9: 84 24        	sty	$24                     ; 0x2024 <wipeArea+0x158>
    40ab: e4 12        	cpx	$12                     ; 0x2012 <wipeArea+0x146>
    40ad: f0 03        	beq	$40b2 <main+0x1e84>
    40af: 4c 23 42     	jmp	$4223 <main+0x1ff5>
    40b2: 18           	clc
    40b3: 69 05        	adc	#$5
    40b5: a8           	tay
    40b6: a9 00        	lda	#$0
    40b8: 69 00        	adc	#$0
    40ba: 18           	clc
    40bb: 48           	pha
    40bc: a5 10        	lda	$10                     ; 0x2010 <wipeArea+0x144>
    40be: 69 24        	adc	#$24
    40c0: 85 26        	sta	$26                     ; 0x2026 <wipeArea+0x15a>
    40c2: a5 11        	lda	$11                     ; 0x2011 <wipeArea+0x145>
    40c4: 69 00        	adc	#$0
    40c6: 85 27        	sta	$27                     ; 0x2027 <wipeArea+0x15b>
    40c8: 68           	pla
    40c9: a6 26        	ldx	$26                     ; 0x2026 <wipeArea+0x15a>
    40cb: 86 14        	stx	$14                     ; 0x2014 <wipeArea+0x148>
    40cd: a6 27        	ldx	$27                     ; 0x2027 <wipeArea+0x15b>
    40cf: 86 15        	stx	$15                     ; 0x2015 <wipeArea+0x149>
    40d1: a2 0c        	ldx	#$c
    40d3: 86 12        	stx	$12                     ; 0x2012 <wipeArea+0x146>
    40d5: 64 13        	stz	$13                     ; 0x2013 <wipeArea+0x147>
    40d7: aa           	tax
    40d8: 98           	tya
    40d9: 20 d9 65     	jsr	$65d9 <__udivmodhi4>
    40dc: 85 15        	sta	$15                     ; 0x2015 <wipeArea+0x149>
    40de: b2 26        	lda	($26)                   ; 0x2026 <wipeArea+0x15a>
    40e0: 85 12        	sta	$12                     ; 0x2012 <wipeArea+0x146>
    40e2: a0 01        	ldy	#$1
    40e4: b1 26        	lda	($26),y                 ; 0x2026 <wipeArea+0x15a>
    40e6: 06 12        	asl	$12                     ; 0x2012 <wipeArea+0x146>
    40e8: 2a           	rol
    40e9: 85 13        	sta	$13                     ; 0x2013 <wipeArea+0x147>
    40eb: a9 5f        	lda	#$5f
    40ed: 18           	clc
    40ee: 65 12        	adc	$12                     ; 0x2012 <wipeArea+0x146>
    40f0: 85 12        	sta	$12                     ; 0x2012 <wipeArea+0x146>
    40f2: a9 6c        	lda	#$6c
    40f4: 65 13        	adc	$13                     ; 0x2013 <wipeArea+0x147>
    40f6: 85 13        	sta	$13                     ; 0x2013 <wipeArea+0x147>
    40f8: b2 12        	lda	($12)                   ; 0x2012 <wipeArea+0x146>
    40fa: 85 14        	sta	$14                     ; 0x2014 <wipeArea+0x148>
    40fc: b1 12        	lda	($12),y                 ; 0x2012 <wipeArea+0x146>
    40fe: aa           	tax
    40ff: 18           	clc
    4100: a5 15        	lda	$15                     ; 0x2015 <wipeArea+0x149>
    4102: 69 3e        	adc	#$3e
    4104: 85 15        	sta	$15                     ; 0x2015 <wipeArea+0x149>
    4106: a5 2a        	lda	$2a                     ; 0x202a <wipeArea+0x15e>
    4108: 38           	sec
    4109: e5 24        	sbc	$24                     ; 0x2024 <wipeArea+0x158>
    410b: a8           	tay
    410c: 64 18        	stz	$18                     ; 0x2018 <wipeArea+0x14c>
    410e: a9 00        	lda	#$0
    4110: e5 18        	sbc	$18                     ; 0x2018 <wipeArea+0x14c>
    4112: 05 2b        	ora	$2b                     ; 0x202b <wipeArea+0x15f>
    4114: 85 12        	sta	$12                     ; 0x2012 <wipeArea+0x146>
    4116: 98           	tya
    4117: 09 a0        	ora	#$a0
    4119: 85 17        	sta	$17                     ; 0x2017 <wipeArea+0x14b>
    411b: a5 12        	lda	$12                     ; 0x2012 <wipeArea+0x146>
    411d: c9 01        	cmp	#$1
    411f: d0 06        	bne	$4127 <main+0x1ef9>
    4121: 84 16        	sty	$16                     ; 0x2016 <wipeArea+0x14a>
    4123: c0 00        	cpy	#$0
    4125: 80 04        	bra	$412b <main+0x1efd>
    4127: 84 16        	sty	$16                     ; 0x2016 <wipeArea+0x14a>
    4129: c9 01        	cmp	#$1
    412b: a0 80        	ldy	#$80
    412d: 84 12        	sty	$12                     ; 0x2012 <wipeArea+0x146>
    412f: a0 d5        	ldy	#$d5
    4131: 84 13        	sty	$13                     ; 0x2013 <wipeArea+0x147>
    4133: 90 08        	bcc	$413d <main+0x1f0f>
    4135: a0 82        	ldy	#$82
    4137: 84 12        	sty	$12                     ; 0x2012 <wipeArea+0x146>
    4139: a0 d5        	ldy	#$d5
    413b: 84 13        	sty	$13                     ; 0x2013 <wipeArea+0x147>
    413d: a5 17        	lda	$17                     ; 0x2017 <wipeArea+0x14b>
    413f: 92 12        	sta	($12)                   ; 0x2012 <wipeArea+0x146>
    4141: a4 14        	ldy	$14                     ; 0x2014 <wipeArea+0x148>
    4143: 8c 81 d5     	sty	$d581                   ; 0xd581 <__heap_start+0x36c7>
    4146: 8a           	txa
    4147: 29 03        	and	#$3
    4149: 85 14        	sta	$14                     ; 0x2014 <wipeArea+0x148>
    414b: a5 15        	lda	$15                     ; 0x2015 <wipeArea+0x149>
    414d: 0a           	asl
    414e: 0a           	asl
    414f: 05 14        	ora	$14                     ; 0x2014 <wipeArea+0x148>
    4151: aa           	tax
    4152: a5 16        	lda	$16                     ; 0x2016 <wipeArea+0x14a>
    4154: 09 b0        	ora	#$b0
    4156: 92 12        	sta	($12)                   ; 0x2012 <wipeArea+0x146>
    4158: 8e 81 d5     	stx	$d581                   ; 0xd581 <__heap_start+0x36c7>
    415b: a5 2a        	lda	$2a                     ; 0x202a <wipeArea+0x15e>
    415d: 10 06        	bpl	$4165 <main+0x1f37>
    415f: a2 ff        	ldx	#$ff
    4161: 86 12        	stx	$12                     ; 0x2012 <wipeArea+0x146>
    4163: 80 02        	bra	$4167 <main+0x1f39>
    4165: 64 12        	stz	$12                     ; 0x2012 <wipeArea+0x146>
    4167: a9 35        	lda	#$35
    4169: 18           	clc
    416a: 65 2a        	adc	$2a                     ; 0x202a <wipeArea+0x15e>
    416c: aa           	tax
    416d: a9 00        	lda	#$0
    416f: 65 12        	adc	$12                     ; 0x2012 <wipeArea+0x146>
    4171: 86 12        	stx	$12                     ; 0x2012 <wipeArea+0x146>
    4173: 85 13        	sta	$13                     ; 0x2013 <wipeArea+0x147>
    4175: a9 00        	lda	#$0
    4177: 92 12        	sta	($12)                   ; 0x2012 <wipeArea+0x146>
    4179: a6 34        	ldx	$34                     ; 0x2034 <wipeArea+0x168>
    417b: d0 03        	bne	$4180 <main+0x1f52>
    417d: 4c ef 3e     	jmp	$3eef <main+0x1cc1>
    4180: ca           	dex
    4181: 4c ed 3e     	jmp	$3eed <main+0x1cbf>
    4184: 85 14        	sta	$14                     ; 0x2014 <wipeArea+0x148>
    4186: a0 00        	ldy	#$0
    4188: a5 25        	lda	$25                     ; 0x2025 <wipeArea+0x159>
    418a: 29 f0        	and	#$f0
    418c: c9 80        	cmp	#$80
    418e: d0 03        	bne	$4193 <main+0x1f65>
    4190: 4c b1 3d     	jmp	$3db1 <main+0x1b83>
    4193: c9 90        	cmp	#$90
    4195: f0 03        	beq	$419a <main+0x1f6c>
    4197: 4c cf 3d     	jmp	$3dcf <main+0x1ba1>
    419a: a2 01        	ldx	#$1
    419c: 84 21        	sty	$21                     ; 0x2021 <wipeArea+0x155>
    419e: 8a           	txa
    419f: a0 20        	ldy	#$20
    41a1: 91 10        	sta	($10),y                 ; 0x2010 <wipeArea+0x144>
    41a3: a5 25        	lda	$25                     ; 0x2025 <wipeArea+0x159>
    41a5: a0 1d        	ldy	#$1d
    41a7: 91 10        	sta	($10),y                 ; 0x2010 <wipeArea+0x144>
    41a9: 48           	pha
    41aa: 8a           	txa
    41ab: 4c c5 3d     	jmp	$3dc5 <main+0x1b97>
    41ae: c0 01        	cpy	#$1
    41b0: 90 03        	bcc	$41b5 <main+0x1f87>
    41b2: 4c 4f 3d     	jmp	$3d4f <main+0x1b21>
    41b5: a6 15        	ldx	$15                     ; 0x2015 <wipeArea+0x149>
    41b7: 64 12        	stz	$12                     ; 0x2012 <wipeArea+0x146>
    41b9: bd 06 6c     	lda	$6c06,x                 ; 0x6c06 <__bss_size+0x3a6c>
    41bc: aa           	tax
    41bd: a9 00        	lda	#$0
    41bf: a0 01        	ldy	#$1
    41c1: e0 00        	cpx	#$0
    41c3: f0 02        	beq	$41c7 <main+0x1f99>
    41c5: a9 01        	lda	#$1
    41c7: 4a           	lsr
    41c8: a9 00        	lda	#$0
    41ca: 6a           	ror
    41cb: 30 03        	bmi	$41d0 <main+0x1fa2>
    41cd: 4c 5f 3d     	jmp	$3d5f <main+0x1b31>
    41d0: a2 ff        	ldx	#$ff
    41d2: 4c 61 3d     	jmp	$3d61 <main+0x1b33>
    41d5: c0 00        	cpy	#$0
    41d7: a5 2e        	lda	$2e                     ; 0x202e <wipeArea+0x162>
    41d9: 90 03        	bcc	$41de <main+0x1fb0>
    41db: 4c b0 3f     	jmp	$3fb0 <main+0x1d82>
    41de: 4c 24 40     	jmp	$4024 <main+0x1df6>
    41e1: 64 12        	stz	$12                     ; 0x2012 <wipeArea+0x146>
    41e3: 48           	pha
    41e4: a9 00        	lda	#$0
    41e6: 4c 2d 3e     	jmp	$3e2d <main+0x1bff>
    41e9: e6 2d        	inc	$2d                     ; 0x202d <wipeArea+0x161>
    41eb: c6 2d        	dec	$2d                     ; 0x202d <wipeArea+0x161>
    41ed: f0 03        	beq	$41f2 <main+0x1fc4>
    41ef: 4c 32 3f     	jmp	$3f32 <main+0x1d04>
    41f2: 64 4b        	stz	$4b                     ; 0x204b <wipeArea+0x17f>
    41f4: a6 2f        	ldx	$2f                     ; 0x202f <wipeArea+0x163>
    41f6: 86 12        	stx	$12                     ; 0x2012 <wipeArea+0x146>
    41f8: a6 2c        	ldx	$2c                     ; 0x202c <wipeArea+0x160>
    41fa: 86 13        	stx	$13                     ; 0x2013 <wipeArea+0x147>
    41fc: a2 52        	ldx	#$52
    41fe: 86 28        	stx	$28                     ; 0x2028 <wipeArea+0x15c>
    4200: a2 00        	ldx	#$0
    4202: 86 29        	stx	$29                     ; 0x2029 <wipeArea+0x15d>
    4204: 20 00 ff     	jsr	$ff00 <__heap_start+0x6046>
    4207: 92 12        	sta	($12)                   ; 0x2012 <wipeArea+0x146>
    4209: a9 00        	lda	#$0
    420b: 6a           	ror
    420c: 85 28        	sta	$28                     ; 0x2028 <wipeArea+0x15c>
    420e: a6 4b        	ldx	$4b                     ; 0x204b <wipeArea+0x17f>
    4210: e0 08        	cpx	#$8
    4212: f0 03        	beq	$4217 <main+0x1fe9>
    4214: 4c 21 3d     	jmp	$3d21 <main+0x1af3>
    4217: a6 4f        	ldx	$4f                     ; 0x204f <wipeArea+0x183>
    4219: e0 20        	cpx	#$20
    421b: f0 03        	beq	$4220 <main+0x1ff2>
    421d: 4c 21 3d     	jmp	$3d21 <main+0x1af3>
    4220: 4c 3c 3a     	jmp	$3a3c <main+0x180e>
    4223: a6 3f        	ldx	$3f                     ; 0x203f <wipeArea+0x173>
    4225: a0 0a        	ldy	#$a
    4227: 85 12        	sta	$12                     ; 0x2012 <wipeArea+0x146>
    4229: 84 2a        	sty	$2a                     ; 0x202a <wipeArea+0x15e>
    422b: a0 01        	ldy	#$1
    422d: 84 2b        	sty	$2b                     ; 0x202b <wipeArea+0x15f>
    422f: a0 09        	ldy	#$9
    4231: 84 24        	sty	$24                     ; 0x2024 <wipeArea+0x158>
    4233: e4 12        	cpx	$12                     ; 0x2012 <wipeArea+0x146>
    4235: d0 03        	bne	$423a <main+0x200c>
    4237: 4c b2 40     	jmp	$40b2 <main+0x1e84>
    423a: a6 40        	ldx	$40                     ; 0x2040 <wipeArea+0x174>
    423c: a0 0b        	ldy	#$b
    423e: 85 12        	sta	$12                     ; 0x2012 <wipeArea+0x146>
    4240: 84 2a        	sty	$2a                     ; 0x202a <wipeArea+0x15e>
    4242: a0 01        	ldy	#$1
    4244: 84 2b        	sty	$2b                     ; 0x202b <wipeArea+0x15f>
    4246: a0 09        	ldy	#$9
    4248: 84 24        	sty	$24                     ; 0x2024 <wipeArea+0x158>
    424a: e4 12        	cpx	$12                     ; 0x2012 <wipeArea+0x146>
    424c: d0 03        	bne	$4251 <main+0x2023>
    424e: 4c b2 40     	jmp	$40b2 <main+0x1e84>
    4251: a6 41        	ldx	$41                     ; 0x2041 <wipeArea+0x175>
    4253: a0 0c        	ldy	#$c
    4255: 85 12        	sta	$12                     ; 0x2012 <wipeArea+0x146>
    4257: 84 2a        	sty	$2a                     ; 0x202a <wipeArea+0x15e>
    4259: a0 01        	ldy	#$1
    425b: 84 2b        	sty	$2b                     ; 0x202b <wipeArea+0x15f>
    425d: a0 09        	ldy	#$9
    425f: 84 24        	sty	$24                     ; 0x2024 <wipeArea+0x158>
    4261: e4 12        	cpx	$12                     ; 0x2012 <wipeArea+0x146>
    4263: d0 03        	bne	$4268 <main+0x203a>
    4265: 4c b2 40     	jmp	$40b2 <main+0x1e84>
    4268: a6 42        	ldx	$42                     ; 0x2042 <wipeArea+0x176>
    426a: a0 0d        	ldy	#$d
    426c: 85 12        	sta	$12                     ; 0x2012 <wipeArea+0x146>
    426e: 84 2a        	sty	$2a                     ; 0x202a <wipeArea+0x15e>
    4270: a0 01        	ldy	#$1
    4272: 84 2b        	sty	$2b                     ; 0x202b <wipeArea+0x15f>
    4274: a0 09        	ldy	#$9
    4276: 84 24        	sty	$24                     ; 0x2024 <wipeArea+0x158>
    4278: e4 12        	cpx	$12                     ; 0x2012 <wipeArea+0x146>
    427a: d0 03        	bne	$427f <main+0x2051>
    427c: 4c b2 40     	jmp	$40b2 <main+0x1e84>
    427f: a6 43        	ldx	$43                     ; 0x2043 <wipeArea+0x177>
    4281: a0 0e        	ldy	#$e
    4283: 85 12        	sta	$12                     ; 0x2012 <wipeArea+0x146>
    4285: 84 2a        	sty	$2a                     ; 0x202a <wipeArea+0x15e>
    4287: a0 01        	ldy	#$1
    4289: 84 2b        	sty	$2b                     ; 0x202b <wipeArea+0x15f>
    428b: a0 09        	ldy	#$9
    428d: 84 24        	sty	$24                     ; 0x2024 <wipeArea+0x158>
    428f: e4 12        	cpx	$12                     ; 0x2012 <wipeArea+0x146>
    4291: d0 40        	bne	$42d3 <main+0x20a5>
    4293: 4c b2 40     	jmp	$40b2 <main+0x1e84>
    4296: a6 43        	ldx	$43                     ; 0x2043 <wipeArea+0x177>
    4298: f0 1e        	beq	$42b8 <main+0x208a>
    429a: a6 44        	ldx	$44                     ; 0x2044 <wipeArea+0x178>
    429c: f0 1f        	beq	$42bd <main+0x208f>
    429e: a6 45        	ldx	$45                     ; 0x2045 <wipeArea+0x179>
    42a0: f0 20        	beq	$42c2 <main+0x2094>
    42a2: a6 46        	ldx	$46                     ; 0x2046 <wipeArea+0x17a>
    42a4: f0 03        	beq	$42a9 <main+0x207b>
    42a6: 4c ea 3e     	jmp	$3eea <main+0x1cbc>
    42a9: a2 11        	ldx	#$11
    42ab: 4c 0d 3f     	jmp	$3f0d <main+0x1cdf>
    42ae: a2 0c        	ldx	#$c
    42b0: 4c 0d 3f     	jmp	$3f0d <main+0x1cdf>
    42b3: a2 0d        	ldx	#$d
    42b5: 4c 0d 3f     	jmp	$3f0d <main+0x1cdf>
    42b8: a2 0e        	ldx	#$e
    42ba: 4c 0d 3f     	jmp	$3f0d <main+0x1cdf>
    42bd: a2 0f        	ldx	#$f
    42bf: 4c 0d 3f     	jmp	$3f0d <main+0x1cdf>
    42c2: a2 10        	ldx	#$10
    42c4: 4c 0d 3f     	jmp	$3f0d <main+0x1cdf>
    42c7: a6 15        	ldx	$15                     ; 0x2015 <wipeArea+0x149>
    42c9: e0 00        	cpx	#$0
    42cb: b0 03        	bcs	$42d0 <main+0x20a2>
    42cd: 4c f4 3b     	jmp	$3bf4 <main+0x19c6>
    42d0: 4c 1c 3c     	jmp	$3c1c <main+0x19ee>
    42d3: a6 44        	ldx	$44                     ; 0x2044 <wipeArea+0x178>
    42d5: a0 0f        	ldy	#$f
    42d7: 85 12        	sta	$12                     ; 0x2012 <wipeArea+0x146>
    42d9: 84 2a        	sty	$2a                     ; 0x202a <wipeArea+0x15e>
    42db: a0 01        	ldy	#$1
    42dd: 84 2b        	sty	$2b                     ; 0x202b <wipeArea+0x15f>
    42df: a0 09        	ldy	#$9
    42e1: 84 24        	sty	$24                     ; 0x2024 <wipeArea+0x158>
    42e3: e4 12        	cpx	$12                     ; 0x2012 <wipeArea+0x146>
    42e5: d0 03        	bne	$42ea <main+0x20bc>
    42e7: 4c b2 40     	jmp	$40b2 <main+0x1e84>
    42ea: a6 45        	ldx	$45                     ; 0x2045 <wipeArea+0x179>
    42ec: a0 10        	ldy	#$10
    42ee: 85 12        	sta	$12                     ; 0x2012 <wipeArea+0x146>
    42f0: 84 2a        	sty	$2a                     ; 0x202a <wipeArea+0x15e>
    42f2: a0 01        	ldy	#$1
    42f4: 84 2b        	sty	$2b                     ; 0x202b <wipeArea+0x15f>
    42f6: a0 09        	ldy	#$9
    42f8: 84 24        	sty	$24                     ; 0x2024 <wipeArea+0x158>
    42fa: e4 12        	cpx	$12                     ; 0x2012 <wipeArea+0x146>
    42fc: d0 03        	bne	$4301 <main+0x20d3>
    42fe: 4c b2 40     	jmp	$40b2 <main+0x1e84>
    4301: a6 46        	ldx	$46                     ; 0x2046 <wipeArea+0x17a>
    4303: a0 11        	ldy	#$11
    4305: 85 12        	sta	$12                     ; 0x2012 <wipeArea+0x146>
    4307: 84 2a        	sty	$2a                     ; 0x202a <wipeArea+0x15e>
    4309: a0 01        	ldy	#$1
    430b: 84 2b        	sty	$2b                     ; 0x202b <wipeArea+0x15f>
    430d: a0 09        	ldy	#$9
    430f: 84 24        	sty	$24                     ; 0x2024 <wipeArea+0x158>
    4311: e4 12        	cpx	$12                     ; 0x2012 <wipeArea+0x146>
    4313: d0 03        	bne	$4318 <main+0x20ea>
    4315: 4c b2 40     	jmp	$40b2 <main+0x1e84>
    4318: a2 ff        	ldx	#$ff
    431a: 86 2a        	stx	$2a                     ; 0x202a <wipeArea+0x15e>
    431c: a2 01        	ldx	#$1
    431e: 86 2b        	stx	$2b                     ; 0x202b <wipeArea+0x15f>
    4320: a2 09        	ldx	#$9
    4322: 86 24        	stx	$24                     ; 0x2024 <wipeArea+0x158>
    4324: 4c b2 40     	jmp	$40b2 <main+0x1e84>
    4327: a6 2f        	ldx	$2f                     ; 0x202f <wipeArea+0x163>
    4329: 86 26        	stx	$26                     ; 0x2026 <wipeArea+0x15a>
    432b: a6 2c        	ldx	$2c                     ; 0x202c <wipeArea+0x160>
    432d: 86 27        	stx	$27                     ; 0x2027 <wipeArea+0x15b>
    432f: a4 26        	ldy	$26                     ; 0x2026 <wipeArea+0x15a>
    4331: 84 12        	sty	$12                     ; 0x2012 <wipeArea+0x146>
    4333: 86 13        	stx	$13                     ; 0x2013 <wipeArea+0x147>
    4335: a0 1b        	ldy	#$1b
    4337: b1 10        	lda	($10),y                 ; 0x2010 <wipeArea+0x144>
    4339: 85 2a        	sta	$2a                     ; 0x202a <wipeArea+0x15e>
    433b: c8           	iny
    433c: b1 10        	lda	($10),y                 ; 0x2010 <wipeArea+0x144>
    433e: 85 2b        	sta	$2b                     ; 0x202b <wipeArea+0x15f>
    4340: a6 2a        	ldx	$2a                     ; 0x202a <wipeArea+0x15e>
    4342: 86 14        	stx	$14                     ; 0x2014 <wipeArea+0x148>
    4344: 85 15        	sta	$15                     ; 0x2015 <wipeArea+0x149>
    4346: a2 00        	ldx	#$0
    4348: a9 01        	lda	#$1
    434a: 20 95 52     	jsr	$5295 <fileRead>
    434d: a6 26        	ldx	$26                     ; 0x2026 <wipeArea+0x15a>
    434f: 86 12        	stx	$12                     ; 0x2012 <wipeArea+0x146>
    4351: a6 27        	ldx	$27                     ; 0x2027 <wipeArea+0x15b>
    4353: 86 13        	stx	$13                     ; 0x2013 <wipeArea+0x147>
    4355: 4c a3 3b     	jmp	$3ba3 <main+0x1975>
    4358: a6 2f        	ldx	$2f                     ; 0x202f <wipeArea+0x163>
    435a: 86 12        	stx	$12                     ; 0x2012 <wipeArea+0x146>
    435c: a6 2c        	ldx	$2c                     ; 0x202c <wipeArea+0x160>
    435e: 86 13        	stx	$13                     ; 0x2013 <wipeArea+0x147>
    4360: a0 1b        	ldy	#$1b
    4362: b1 10        	lda	($10),y                 ; 0x2010 <wipeArea+0x144>
    4364: 85 14        	sta	$14                     ; 0x2014 <wipeArea+0x148>
    4366: c8           	iny
    4367: b1 10        	lda	($10),y                 ; 0x2010 <wipeArea+0x144>
    4369: 85 15        	sta	$15                     ; 0x2015 <wipeArea+0x149>
    436b: 4c c2 3b     	jmp	$3bc2 <main+0x1994>
    436e: a6 2f        	ldx	$2f                     ; 0x202f <wipeArea+0x163>
    4370: 86 26        	stx	$26                     ; 0x2026 <wipeArea+0x15a>
    4372: a6 2c        	ldx	$2c                     ; 0x202c <wipeArea+0x160>
    4374: 86 27        	stx	$27                     ; 0x2027 <wipeArea+0x15b>
    4376: a4 26        	ldy	$26                     ; 0x2026 <wipeArea+0x15a>
    4378: 84 12        	sty	$12                     ; 0x2012 <wipeArea+0x146>
    437a: 86 13        	stx	$13                     ; 0x2013 <wipeArea+0x147>
    437c: a0 1b        	ldy	#$1b
    437e: b1 10        	lda	($10),y                 ; 0x2010 <wipeArea+0x144>
    4380: 85 14        	sta	$14                     ; 0x2014 <wipeArea+0x148>
    4382: c8           	iny
    4383: b1 10        	lda	($10),y                 ; 0x2010 <wipeArea+0x144>
    4385: 85 15        	sta	$15                     ; 0x2015 <wipeArea+0x149>
    4387: a2 00        	ldx	#$0
    4389: a9 02        	lda	#$2
    438b: 20 95 52     	jsr	$5295 <fileRead>
    438e: 64 18        	stz	$18                     ; 0x2018 <wipeArea+0x14c>
    4390: b2 26        	lda	($26)                   ; 0x2026 <wipeArea+0x15a>
    4392: 85 13        	sta	$13                     ; 0x2013 <wipeArea+0x147>
    4394: a0 01        	ldy	#$1
    4396: b1 26        	lda	($26),y                 ; 0x2026 <wipeArea+0x15a>
    4398: a6 13        	ldx	$13                     ; 0x2013 <wipeArea+0x147>
    439a: 8e 80 d5     	stx	$d580                   ; 0xd580 <__heap_start+0x36c6>
    439d: 4c 2e 3a     	jmp	$3a2e <main+0x1800>
    43a0: a5 12        	lda	$12                     ; 0x2012 <wipeArea+0x146>
    43a2: a0 1e        	ldy	#$1e
    43a4: 91 10        	sta	($10),y                 ; 0x2010 <wipeArea+0x144>
    43a6: a5 13        	lda	$13                     ; 0x2013 <wipeArea+0x147>
    43a8: c8           	iny
    43a9: 91 10        	sta	($10),y                 ; 0x2010 <wipeArea+0x144>
    43ab: a0 1b        	ldy	#$1b
    43ad: b1 10        	lda	($10),y                 ; 0x2010 <wipeArea+0x144>
    43af: 85 2a        	sta	$2a                     ; 0x202a <wipeArea+0x15e>
    43b1: c8           	iny
    43b2: b1 10        	lda	($10),y                 ; 0x2010 <wipeArea+0x144>
    43b4: 85 2b        	sta	$2b                     ; 0x202b <wipeArea+0x15f>
    43b6: a6 2a        	ldx	$2a                     ; 0x202a <wipeArea+0x15e>
    43b8: 86 14        	stx	$14                     ; 0x2014 <wipeArea+0x148>
    43ba: 85 15        	sta	$15                     ; 0x2015 <wipeArea+0x149>
    43bc: a2 00        	ldx	#$0
    43be: a9 01        	lda	#$1
    43c0: 20 95 52     	jsr	$5295 <fileRead>
    43c3: a6 26        	ldx	$26                     ; 0x2026 <wipeArea+0x15a>
    43c5: 86 12        	stx	$12                     ; 0x2012 <wipeArea+0x146>
    43c7: a6 27        	ldx	$27                     ; 0x2027 <wipeArea+0x15b>
    43c9: 86 13        	stx	$13                     ; 0x2013 <wipeArea+0x147>
    43cb: a6 2a        	ldx	$2a                     ; 0x202a <wipeArea+0x15e>
    43cd: 86 14        	stx	$14                     ; 0x2014 <wipeArea+0x148>
    43cf: a6 2b        	ldx	$2b                     ; 0x202b <wipeArea+0x15f>
    43d1: 86 15        	stx	$15                     ; 0x2015 <wipeArea+0x149>
    43d3: a2 00        	ldx	#$0
    43d5: a9 01        	lda	#$1
    43d7: 20 95 52     	jsr	$5295 <fileRead>
    43da: b2 26        	lda	($26)                   ; 0x2026 <wipeArea+0x15a>
    43dc: 85 26        	sta	$26                     ; 0x2026 <wipeArea+0x15a>
    43de: a0 1e        	ldy	#$1e
    43e0: b1 10        	lda	($10),y                 ; 0x2010 <wipeArea+0x144>
    43e2: 85 12        	sta	$12                     ; 0x2012 <wipeArea+0x146>
    43e4: c8           	iny
    43e5: b1 10        	lda	($10),y                 ; 0x2010 <wipeArea+0x144>
    43e7: 85 13        	sta	$13                     ; 0x2013 <wipeArea+0x147>
    43e9: b2 12        	lda	($12)                   ; 0x2012 <wipeArea+0x146>
    43eb: 64 12        	stz	$12                     ; 0x2012 <wipeArea+0x146>
    43ed: 64 13        	stz	$13                     ; 0x2013 <wipeArea+0x147>
    43ef: a2 3a        	ldx	#$3a
    43f1: 86 14        	stx	$14                     ; 0x2014 <wipeArea+0x148>
    43f3: a2 02        	ldx	#$2
    43f5: 86 15        	stx	$15                     ; 0x2015 <wipeArea+0x149>
    43f7: 64 16        	stz	$16                     ; 0x2016 <wipeArea+0x14a>
    43f9: 64 17        	stz	$17                     ; 0x2017 <wipeArea+0x14b>
    43fb: a6 26        	ldx	$26                     ; 0x2026 <wipeArea+0x15a>
    43fd: 85 24        	sta	$24                     ; 0x2024 <wipeArea+0x158>
    43ff: 20 69 65     	jsr	$6569 <__mulsi3>
    4402: a8           	tay
    4403: 8a           	txa
    4404: a6 12        	ldx	$12                     ; 0x2012 <wipeArea+0x146>
    4406: 84 15        	sty	$15                     ; 0x2015 <wipeArea+0x149>
    4408: 84 47        	sty	$47                     ; 0x2047 <wipeArea+0x17b>
    440a: 85 14        	sta	$14                     ; 0x2014 <wipeArea+0x148>
    440c: 85 48        	sta	$48                     ; 0x2048 <wipeArea+0x17c>
    440e: a5 12        	lda	$12                     ; 0x2012 <wipeArea+0x146>
    4410: 86 49        	stx	$49                     ; 0x2049 <wipeArea+0x17d>
    4412: a6 13        	ldx	$13                     ; 0x2013 <wipeArea+0x147>
    4414: 86 4a        	stx	$4a                     ; 0x204a <wipeArea+0x17e>
    4416: a0 02        	ldy	#$2
    4418: 8c 50 d6     	sty	$d650                   ; 0xd650 <__heap_start+0x3796>
    441b: a4 26        	ldy	$26                     ; 0x2026 <wipeArea+0x15a>
    441d: c0 72        	cpy	#$72
    441f: f0 03        	beq	$4424 <main+0x21f6>
    4421: 4c 09 4e     	jmp	$4e09 <main+0x2bdb>
    4424: 4c dc 4d     	jmp	$4ddc <main+0x2bae>
    4427: 64 53        	stz	$53                     ; 0x2053 <wipeArea+0x187>
    4429: 9c 14 d0     	stz	$d014                   ; 0xd014 <__heap_start+0x315a>
    442c: 9c 15 d0     	stz	$d015                   ; 0xd015 <__heap_start+0x315b>
    442f: 64 54        	stz	$54                     ; 0x2054 <wipeArea+0x188>
    4431: 9c 16 d0     	stz	$d016                   ; 0xd016 <__heap_start+0x315c>
    4434: 9c 17 d0     	stz	$d017                   ; 0xd017 <__heap_start+0x315d>
    4437: a2 1a        	ldx	#$1a
    4439: 86 12        	stx	$12                     ; 0x2012 <wipeArea+0x146>
    443b: a2 6a        	ldx	#$6a
    443d: 86 13        	stx	$13                     ; 0x2013 <wipeArea+0x147>
    443f: a5 12        	lda	$12                     ; 0x2012 <wipeArea+0x146>
    4441: a0 1e        	ldy	#$1e
    4443: 91 10        	sta	($10),y                 ; 0x2010 <wipeArea+0x144>
    4445: a5 13        	lda	$13                     ; 0x2013 <wipeArea+0x147>
    4447: c8           	iny
    4448: 91 10        	sta	($10),y                 ; 0x2010 <wipeArea+0x144>
    444a: 88           	dey
    444b: b1 10        	lda	($10),y                 ; 0x2010 <wipeArea+0x144>
    444d: 85 12        	sta	$12                     ; 0x2012 <wipeArea+0x146>
    444f: c8           	iny
    4450: b1 10        	lda	($10),y                 ; 0x2010 <wipeArea+0x144>
    4452: 85 13        	sta	$13                     ; 0x2013 <wipeArea+0x147>
    4454: 20 dc 61     	jsr	$61dc <printf>
    4457: 64 53        	stz	$53                     ; 0x2053 <wipeArea+0x187>
    4459: 9c 14 d0     	stz	$d014                   ; 0xd014 <__heap_start+0x315a>
    445c: 9c 15 d0     	stz	$d015                   ; 0xd015 <__heap_start+0x315b>
    445f: a2 01        	ldx	#$1
    4461: 86 54        	stx	$54                     ; 0x2054 <wipeArea+0x188>
    4463: 8e 16 d0     	stx	$d016                   ; 0xd016 <__heap_start+0x315c>
    4466: 9c 17 d0     	stz	$d017                   ; 0xd017 <__heap_start+0x315d>
    4469: a0 1e        	ldy	#$1e
    446b: b1 10        	lda	($10),y                 ; 0x2010 <wipeArea+0x144>
    446d: 85 12        	sta	$12                     ; 0x2012 <wipeArea+0x146>
    446f: c8           	iny
    4470: b1 10        	lda	($10),y                 ; 0x2010 <wipeArea+0x144>
    4472: 85 13        	sta	$13                     ; 0x2013 <wipeArea+0x147>
    4474: 20 dc 61     	jsr	$61dc <printf>
    4477: a0 1b        	ldy	#$1b
    4479: b1 10        	lda	($10),y                 ; 0x2010 <wipeArea+0x144>
    447b: 85 16        	sta	$16                     ; 0x2016 <wipeArea+0x14a>
    447d: c8           	iny
    447e: b1 10        	lda	($10),y                 ; 0x2010 <wipeArea+0x144>
    4480: 85 17        	sta	$17                     ; 0x2017 <wipeArea+0x14b>
    4482: b2 16        	lda	($16)                   ; 0x2016 <wipeArea+0x14a>
    4484: 85 f3        	sta	$f3                     ; 0x20f3 <wipeArea+0x227>
    4486: a6 2f        	ldx	$2f                     ; 0x202f <wipeArea+0x163>
    4488: 86 14        	stx	$14                     ; 0x2014 <wipeArea+0x148>
    448a: a6 2c        	ldx	$2c                     ; 0x202c <wipeArea+0x160>
    448c: 86 15        	stx	$15                     ; 0x2015 <wipeArea+0x149>
    448e: a5 16        	lda	$16                     ; 0x2016 <wipeArea+0x14a>
    4490: 18           	clc
    4491: 69 fe        	adc	#$fe
    4493: 85 16        	sta	$16                     ; 0x2016 <wipeArea+0x14a>
    4495: a5 17        	lda	$17                     ; 0x2017 <wipeArea+0x14b>
    4497: 69 ff        	adc	#$ff
    4499: a6 16        	ldx	$16                     ; 0x2016 <wipeArea+0x14a>
    449b: 86 12        	stx	$12                     ; 0x2012 <wipeArea+0x146>
    449d: 85 13        	sta	$13                     ; 0x2013 <wipeArea+0x147>
    449f: aa           	tax
    44a0: 20 68 ff     	jsr	$ff68 <__heap_start+0x60ae>
    44a3: 92 14        	sta	($14)                   ; 0x2014 <wipeArea+0x148>
    44a5: a9 00        	lda	#$0
    44a7: 6a           	ror
    44a8: 85 28        	sta	$28                     ; 0x2028 <wipeArea+0x15c>
    44aa: a0 01        	ldy	#$1
    44ac: b1 12        	lda	($12),y                 ; 0x2012 <wipeArea+0x146>
    44ae: 85 14        	sta	$14                     ; 0x2014 <wipeArea+0x148>
    44b0: a9 fe        	lda	#$fe
    44b2: 32 12        	and	($12)                   ; 0x2012 <wipeArea+0x146>
    44b4: 85 15        	sta	$15                     ; 0x2015 <wipeArea+0x149>
    44b6: a4 16        	ldy	$16                     ; 0x2016 <wipeArea+0x14a>
    44b8: 84 1b        	sty	$1b                     ; 0x201b <wipeArea+0x14f>
    44ba: a5 16        	lda	$16                     ; 0x2016 <wipeArea+0x14a>
    44bc: 18           	clc
    44bd: 65 15        	adc	$15                     ; 0x2015 <wipeArea+0x149>
    44bf: a8           	tay
    44c0: 86 1a        	stx	$1a                     ; 0x201a <wipeArea+0x14e>
    44c2: 8a           	txa
    44c3: 65 14        	adc	$14                     ; 0x2014 <wipeArea+0x148>
    44c5: 48           	pha
    44c6: 5a           	phy
    44c7: a0 16        	ldy	#$16
    44c9: b1 10        	lda	($10),y                 ; 0x2010 <wipeArea+0x144>
    44cb: 7a           	ply
    44cc: 85 16        	sta	$16                     ; 0x2016 <wipeArea+0x14a>
    44ce: 68           	pla
    44cf: c5 16        	cmp	$16                     ; 0x2016 <wipeArea+0x14a>
    44d1: d0 1c        	bne	$44ef <main+0x22c1>
    44d3: 48           	pha
    44d4: 5a           	phy
    44d5: a0 14        	ldy	#$14
    44d7: b1 10        	lda	($10),y                 ; 0x2010 <wipeArea+0x144>
    44d9: 85 16        	sta	$16                     ; 0x2016 <wipeArea+0x14a>
    44db: a0 12        	ldy	#$12
    44dd: b1 10        	lda	($10),y                 ; 0x2010 <wipeArea+0x144>
    44df: 85 26        	sta	$26                     ; 0x2026 <wipeArea+0x15a>
    44e1: c8           	iny
    44e2: b1 10        	lda	($10),y                 ; 0x2010 <wipeArea+0x144>
    44e4: 7a           	ply
    44e5: 85 27        	sta	$27                     ; 0x2027 <wipeArea+0x15b>
    44e7: 68           	pla
    44e8: c4 16        	cpy	$16                     ; 0x2016 <wipeArea+0x14a>
    44ea: d0 12        	bne	$44fe <main+0x22d0>
    44ec: 4c bc 4b     	jmp	$4bbc <main+0x298e>
    44ef: 48           	pha
    44f0: 5a           	phy
    44f1: a0 12        	ldy	#$12
    44f3: b1 10        	lda	($10),y                 ; 0x2010 <wipeArea+0x144>
    44f5: 85 26        	sta	$26                     ; 0x2026 <wipeArea+0x15a>
    44f7: c8           	iny
    44f8: b1 10        	lda	($10),y                 ; 0x2010 <wipeArea+0x144>
    44fa: 7a           	ply
    44fb: 85 27        	sta	$27                     ; 0x2027 <wipeArea+0x15b>
    44fd: 68           	pla
    44fe: 84 16        	sty	$16                     ; 0x2016 <wipeArea+0x14a>
    4500: 85 17        	sta	$17                     ; 0x2017 <wipeArea+0x14b>
    4502: b2 12        	lda	($12)                   ; 0x2012 <wipeArea+0x146>
    4504: 29 01        	and	#$1
    4506: f0 03        	beq	$450b <main+0x22dd>
    4508: 4c 9b 45     	jmp	$459b <main+0x236d>
    450b: a6 17        	ldx	$17                     ; 0x2017 <wipeArea+0x14b>
    450d: a0 00        	ldy	#$0
    450f: 84 18        	sty	$18                     ; 0x2018 <wipeArea+0x14c>
    4511: a0 00        	ldy	#$0
    4513: 84 19        	sty	$19                     ; 0x2019 <wipeArea+0x14d>
    4515: e4 19        	cpx	$19                     ; 0x2019 <wipeArea+0x14d>
    4517: d0 09        	bne	$4522 <main+0x22f4>
    4519: a6 16        	ldx	$16                     ; 0x2016 <wipeArea+0x14a>
    451b: e4 18        	cpx	$18                     ; 0x2018 <wipeArea+0x14c>
    451d: d0 03        	bne	$4522 <main+0x22f4>
    451f: 4c c7 4b     	jmp	$4bc7 <main+0x2999>
    4522: a0 01        	ldy	#$1
    4524: b1 16        	lda	($16),y                 ; 0x2016 <wipeArea+0x14a>
    4526: a8           	tay
    4527: a9 fe        	lda	#$fe
    4529: 32 16        	and	($16)                   ; 0x2016 <wipeArea+0x14a>
    452b: 85 1d        	sta	$1d                     ; 0x201d <wipeArea+0x151>
    452d: 18           	clc
    452e: 65 16        	adc	$16                     ; 0x2016 <wipeArea+0x14a>
    4530: aa           	tax
    4531: 98           	tya
    4532: 84 1c        	sty	$1c                     ; 0x201c <wipeArea+0x150>
    4534: 65 17        	adc	$17                     ; 0x2017 <wipeArea+0x14b>
    4536: 48           	pha
    4537: a0 16        	ldy	#$16
    4539: b1 10        	lda	($10),y                 ; 0x2010 <wipeArea+0x144>
    453b: 85 18        	sta	$18                     ; 0x2018 <wipeArea+0x14c>
    453d: 68           	pla
    453e: c5 18        	cmp	$18                     ; 0x2018 <wipeArea+0x14c>
    4540: d0 03        	bne	$4545 <main+0x2317>
    4542: 4c 6f 48     	jmp	$486f <main+0x2641>
    4545: 86 18        	stx	$18                     ; 0x2018 <wipeArea+0x14c>
    4547: 85 19        	sta	$19                     ; 0x2019 <wipeArea+0x14d>
    4549: a9 01        	lda	#$1
    454b: 32 18        	and	($18)                   ; 0x2018 <wipeArea+0x14c>
    454d: 64 18        	stz	$18                     ; 0x2018 <wipeArea+0x14c>
    454f: a6 18        	ldx	$18                     ; 0x2018 <wipeArea+0x14c>
    4551: d0 03        	bne	$4556 <main+0x2328>
    4553: 4c 39 4b     	jmp	$4b39 <main+0x290b>
    4556: ad 3d 9e     	lda	$9e3d                   ; 0x9e3d <_ZN12_GLOBAL__N_19free_sizeE>
    4559: ae 3e 9e     	ldx	$9e3e                   ; 0x9e3e <_ZN12_GLOBAL__N_19free_sizeE+0x1>
    455c: 86 19        	stx	$19                     ; 0x2019 <wipeArea+0x14d>
    455e: 38           	sec
    455f: e5 1d        	sbc	$1d                     ; 0x201d <wipeArea+0x151>
    4561: aa           	tax
    4562: a5 19        	lda	$19                     ; 0x2019 <wipeArea+0x14d>
    4564: e5 1c        	sbc	$1c                     ; 0x201c <wipeArea+0x150>
    4566: 85 18        	sta	$18                     ; 0x2018 <wipeArea+0x14c>
    4568: 18           	clc
    4569: 8a           	txa
    456a: 69 02        	adc	#$2
    456c: 85 19        	sta	$19                     ; 0x2019 <wipeArea+0x14d>
    456e: a5 18        	lda	$18                     ; 0x2018 <wipeArea+0x14c>
    4570: 69 00        	adc	#$0
    4572: a6 19        	ldx	$19                     ; 0x2019 <wipeArea+0x14d>
    4574: 8e 3d 9e     	stx	$9e3d                   ; 0x9e3d <_ZN12_GLOBAL__N_19free_sizeE>
    4577: 8d 3e 9e     	sta	$9e3e                   ; 0x9e3e <_ZN12_GLOBAL__N_19free_sizeE+0x1>
    457a: a5 16        	lda	$16                     ; 0x2016 <wipeArea+0x14a>
    457c: 18           	clc
    457d: 69 02        	adc	#$2
    457f: 85 18        	sta	$18                     ; 0x2018 <wipeArea+0x14c>
    4581: a5 17        	lda	$17                     ; 0x2017 <wipeArea+0x14b>
    4583: 69 00        	adc	#$0
    4585: 85 19        	sta	$19                     ; 0x2019 <wipeArea+0x14d>
    4587: a0 02        	ldy	#$2
    4589: b1 16        	lda	($16),y                 ; 0x2016 <wipeArea+0x14a>
    458b: aa           	tax
    458c: 88           	dey
    458d: b1 18        	lda	($18),y                 ; 0x2018 <wipeArea+0x14c>
    458f: 85 1f        	sta	$1f                     ; 0x201f <wipeArea+0x153>
    4591: c5 17        	cmp	$17                     ; 0x2017 <wipeArea+0x14b>
    4593: f0 03        	beq	$4598 <main+0x236a>
    4595: 4c 7a 4a     	jmp	$4a7a <main+0x284c>
    4598: 4c 6b 4a     	jmp	$4a6b <main+0x283d>
    459b: a0 1b        	ldy	#$1b
    459d: b1 10        	lda	($10),y                 ; 0x2010 <wipeArea+0x144>
    459f: 85 18        	sta	$18                     ; 0x2018 <wipeArea+0x14c>
    45a1: c8           	iny
    45a2: b1 10        	lda	($10),y                 ; 0x2010 <wipeArea+0x144>
    45a4: 85 19        	sta	$19                     ; 0x2019 <wipeArea+0x14d>
    45a6: a5 18        	lda	$18                     ; 0x2018 <wipeArea+0x14c>
    45a8: 18           	clc
    45a9: 69 fc        	adc	#$fc
    45ab: 85 12        	sta	$12                     ; 0x2012 <wipeArea+0x146>
    45ad: a5 19        	lda	$19                     ; 0x2019 <wipeArea+0x14d>
    45af: 69 ff        	adc	#$ff
    45b1: 85 13        	sta	$13                     ; 0x2013 <wipeArea+0x147>
    45b3: a9 00        	lda	#$0
    45b5: 38           	sec
    45b6: f2 12        	sbc	($12)                   ; 0x2012 <wipeArea+0x146>
    45b8: 85 18        	sta	$18                     ; 0x2018 <wipeArea+0x14c>
    45ba: a9 00        	lda	#$0
    45bc: a0 01        	ldy	#$1
    45be: f1 12        	sbc	($12),y                 ; 0x2012 <wipeArea+0x146>
    45c0: 85 13        	sta	$13                     ; 0x2013 <wipeArea+0x147>
    45c2: 18           	clc
    45c3: a5 1b        	lda	$1b                     ; 0x201b <wipeArea+0x14f>
    45c5: 65 18        	adc	$18                     ; 0x2018 <wipeArea+0x14c>
    45c7: 85 12        	sta	$12                     ; 0x2012 <wipeArea+0x146>
    45c9: 85 19        	sta	$19                     ; 0x2019 <wipeArea+0x14d>
    45cb: a5 1a        	lda	$1a                     ; 0x201a <wipeArea+0x14e>
    45cd: 65 13        	adc	$13                     ; 0x2013 <wipeArea+0x147>
    45cf: 85 13        	sta	$13                     ; 0x2013 <wipeArea+0x147>
    45d1: 85 1e        	sta	$1e                     ; 0x201e <wipeArea+0x152>
    45d3: b1 12        	lda	($12),y                 ; 0x2012 <wipeArea+0x146>
    45d5: 85 1b        	sta	$1b                     ; 0x201b <wipeArea+0x14f>
    45d7: a9 fe        	lda	#$fe
    45d9: 32 12        	and	($12)                   ; 0x2012 <wipeArea+0x146>
    45db: ac 3d 9e     	ldy	$9e3d                   ; 0x9e3d <_ZN12_GLOBAL__N_19free_sizeE>
    45de: ae 3e 9e     	ldx	$9e3e                   ; 0x9e3e <_ZN12_GLOBAL__N_19free_sizeE+0x1>
    45e1: 86 1a        	stx	$1a                     ; 0x201a <wipeArea+0x14e>
    45e3: 85 1d        	sta	$1d                     ; 0x201d <wipeArea+0x151>
    45e5: 85 18        	sta	$18                     ; 0x2018 <wipeArea+0x14c>
    45e7: 38           	sec
    45e8: 98           	tya
    45e9: e5 18        	sbc	$18                     ; 0x2018 <wipeArea+0x14c>
    45eb: a8           	tay
    45ec: a6 1b        	ldx	$1b                     ; 0x201b <wipeArea+0x14f>
    45ee: 86 1c        	stx	$1c                     ; 0x201c <wipeArea+0x150>
    45f0: 86 18        	stx	$18                     ; 0x2018 <wipeArea+0x14c>
    45f2: a5 1a        	lda	$1a                     ; 0x201a <wipeArea+0x14e>
    45f4: e5 18        	sbc	$18                     ; 0x2018 <wipeArea+0x14c>
    45f6: 85 18        	sta	$18                     ; 0x2018 <wipeArea+0x14c>
    45f8: 18           	clc
    45f9: 98           	tya
    45fa: 69 02        	adc	#$2
    45fc: a8           	tay
    45fd: a5 18        	lda	$18                     ; 0x2018 <wipeArea+0x14c>
    45ff: 69 00        	adc	#$0
    4601: 8c 3d 9e     	sty	$9e3d                   ; 0x9e3d <_ZN12_GLOBAL__N_19free_sizeE>
    4604: 8d 3e 9e     	sta	$9e3e                   ; 0x9e3e <_ZN12_GLOBAL__N_19free_sizeE+0x1>
    4607: a6 19        	ldx	$19                     ; 0x2019 <wipeArea+0x14d>
    4609: 86 1b        	stx	$1b                     ; 0x201b <wipeArea+0x14f>
    460b: a5 19        	lda	$19                     ; 0x2019 <wipeArea+0x14d>
    460d: 18           	clc
    460e: 69 02        	adc	#$2
    4610: 85 18        	sta	$18                     ; 0x2018 <wipeArea+0x14c>
    4612: a6 1e        	ldx	$1e                     ; 0x201e <wipeArea+0x152>
    4614: 86 1a        	stx	$1a                     ; 0x201a <wipeArea+0x14e>
    4616: a5 1e        	lda	$1e                     ; 0x201e <wipeArea+0x152>
    4618: 69 00        	adc	#$0
    461a: 85 19        	sta	$19                     ; 0x2019 <wipeArea+0x14d>
    461c: a0 02        	ldy	#$2
    461e: b1 12        	lda	($12),y                 ; 0x2012 <wipeArea+0x146>
    4620: aa           	tax
    4621: 88           	dey
    4622: b1 18        	lda	($18),y                 ; 0x2018 <wipeArea+0x14c>
    4624: 85 1f        	sta	$1f                     ; 0x201f <wipeArea+0x153>
    4626: c5 13        	cmp	$13                     ; 0x2013 <wipeArea+0x147>
    4628: d0 03        	bne	$462d <main+0x23ff>
    462a: 4c d2 4b     	jmp	$4bd2 <main+0x29a4>
    462d: 4c e1 4b     	jmp	$4be1 <main+0x29b3>
    4630: c9 00        	cmp	#$0
    4632: 8a           	txa
    4633: b0 28        	bcs	$465d <main+0x242f>
    4635: a5 12        	lda	$12                     ; 0x2012 <wipeArea+0x146>
    4637: 18           	clc
    4638: 69 02        	adc	#$2
    463a: 85 16        	sta	$16                     ; 0x2016 <wipeArea+0x14a>
    463c: a5 13        	lda	$13                     ; 0x2013 <wipeArea+0x147>
    463e: 69 00        	adc	#$0
    4640: 85 17        	sta	$17                     ; 0x2017 <wipeArea+0x14b>
    4642: a0 02        	ldy	#$2
    4644: b1 12        	lda	($12),y                 ; 0x2012 <wipeArea+0x146>
    4646: 85 12        	sta	$12                     ; 0x2012 <wipeArea+0x146>
    4648: 88           	dey
    4649: b1 16        	lda	($16),y                 ; 0x2016 <wipeArea+0x14a>
    464b: 85 13        	sta	$13                     ; 0x2013 <wipeArea+0x147>
    464d: b2 12        	lda	($12)                   ; 0x2012 <wipeArea+0x146>
    464f: aa           	tax
    4650: a0 01        	ldy	#$1
    4652: b1 12        	lda	($12),y                 ; 0x2012 <wipeArea+0x146>
    4654: 85 16        	sta	$16                     ; 0x2016 <wipeArea+0x14a>
    4656: d0 d8        	bne	$4630 <main+0x2402>
    4658: 8a           	txa
    4659: e0 08        	cpx	#$8
    465b: 90 d8        	bcc	$4635 <main+0x2407>
    465d: 29 fe        	and	#$fe
    465f: 85 17        	sta	$17                     ; 0x2017 <wipeArea+0x14b>
    4661: ad 3d 9e     	lda	$9e3d                   ; 0x9e3d <_ZN12_GLOBAL__N_19free_sizeE>
    4664: ae 3e 9e     	ldx	$9e3e                   ; 0x9e3e <_ZN12_GLOBAL__N_19free_sizeE+0x1>
    4667: 86 18        	stx	$18                     ; 0x2018 <wipeArea+0x14c>
    4669: 38           	sec
    466a: e5 17        	sbc	$17                     ; 0x2017 <wipeArea+0x14b>
    466c: aa           	tax
    466d: a5 18        	lda	$18                     ; 0x2018 <wipeArea+0x14c>
    466f: e5 16        	sbc	$16                     ; 0x2016 <wipeArea+0x14a>
    4671: 85 16        	sta	$16                     ; 0x2016 <wipeArea+0x14a>
    4673: 18           	clc
    4674: 8a           	txa
    4675: 69 02        	adc	#$2
    4677: 85 17        	sta	$17                     ; 0x2017 <wipeArea+0x14b>
    4679: a5 16        	lda	$16                     ; 0x2016 <wipeArea+0x14a>
    467b: 69 00        	adc	#$0
    467d: a6 17        	ldx	$17                     ; 0x2017 <wipeArea+0x14b>
    467f: 8e 3d 9e     	stx	$9e3d                   ; 0x9e3d <_ZN12_GLOBAL__N_19free_sizeE>
    4682: 8d 3e 9e     	sta	$9e3e                   ; 0x9e3e <_ZN12_GLOBAL__N_19free_sizeE+0x1>
    4685: a5 12        	lda	$12                     ; 0x2012 <wipeArea+0x146>
    4687: 18           	clc
    4688: 69 02        	adc	#$2
    468a: 85 18        	sta	$18                     ; 0x2018 <wipeArea+0x14c>
    468c: a5 13        	lda	$13                     ; 0x2013 <wipeArea+0x147>
    468e: 69 00        	adc	#$0
    4690: 85 19        	sta	$19                     ; 0x2019 <wipeArea+0x14d>
    4692: a0 02        	ldy	#$2
    4694: b1 12        	lda	($12),y                 ; 0x2012 <wipeArea+0x146>
    4696: aa           	tax
    4697: 88           	dey
    4698: 5a           	phy
    4699: a5 18        	lda	$18                     ; 0x2018 <wipeArea+0x14c>
    469b: a0 1b        	ldy	#$1b
    469d: 91 10        	sta	($10),y                 ; 0x2010 <wipeArea+0x144>
    469f: a5 19        	lda	$19                     ; 0x2019 <wipeArea+0x14d>
    46a1: c8           	iny
    46a2: 91 10        	sta	($10),y                 ; 0x2010 <wipeArea+0x144>
    46a4: 7a           	ply
    46a5: b1 18        	lda	($18),y                 ; 0x2018 <wipeArea+0x14c>
    46a7: 85 1c        	sta	$1c                     ; 0x201c <wipeArea+0x150>
    46a9: c5 13        	cmp	$13                     ; 0x2013 <wipeArea+0x147>
    46ab: f0 03        	beq	$46b0 <main+0x2482>
    46ad: 4c 27 4d     	jmp	$4d27 <main+0x2af9>
    46b0: e4 12        	cpx	$12                     ; 0x2012 <wipeArea+0x146>
    46b2: f0 03        	beq	$46b7 <main+0x2489>
    46b4: 4c 27 4d     	jmp	$4d27 <main+0x2af9>
    46b7: a2 00        	ldx	#$0
    46b9: 86 16        	stx	$16                     ; 0x2016 <wipeArea+0x14a>
    46bb: a2 00        	ldx	#$0
    46bd: 86 17        	stx	$17                     ; 0x2017 <wipeArea+0x14b>
    46bf: 4c a0 4d     	jmp	$4da0 <main+0x2b72>
    46c2: a2 b0        	ldx	#$b0
    46c4: 8e 80 d5     	stx	$d580                   ; 0xd580 <__heap_start+0x36c6>
    46c7: 9c 81 d5     	stz	$d581                   ; 0xd581 <__heap_start+0x36c7>
    46ca: e8           	inx
    46cb: 8e 80 d5     	stx	$d580                   ; 0xd580 <__heap_start+0x36c6>
    46ce: 9c 81 d5     	stz	$d581                   ; 0xd581 <__heap_start+0x36c7>
    46d1: e8           	inx
    46d2: 8e 80 d5     	stx	$d580                   ; 0xd580 <__heap_start+0x36c6>
    46d5: 9c 81 d5     	stz	$d581                   ; 0xd581 <__heap_start+0x36c7>
    46d8: e8           	inx
    46d9: 8e 80 d5     	stx	$d580                   ; 0xd580 <__heap_start+0x36c6>
    46dc: 9c 81 d5     	stz	$d581                   ; 0xd581 <__heap_start+0x36c7>
    46df: e8           	inx
    46e0: 8e 80 d5     	stx	$d580                   ; 0xd580 <__heap_start+0x36c6>
    46e3: 9c 81 d5     	stz	$d581                   ; 0xd581 <__heap_start+0x36c7>
    46e6: e8           	inx
    46e7: 8e 80 d5     	stx	$d580                   ; 0xd580 <__heap_start+0x36c6>
    46ea: 9c 81 d5     	stz	$d581                   ; 0xd581 <__heap_start+0x36c7>
    46ed: e8           	inx
    46ee: 8e 80 d5     	stx	$d580                   ; 0xd580 <__heap_start+0x36c6>
    46f1: 9c 81 d5     	stz	$d581                   ; 0xd581 <__heap_start+0x36c7>
    46f4: a0 b7        	ldy	#$b7
    46f6: 8c 80 d5     	sty	$d580                   ; 0xd580 <__heap_start+0x36c6>
    46f9: 9c 81 d5     	stz	$d581                   ; 0xd581 <__heap_start+0x36c7>
    46fc: a2 b8        	ldx	#$b8
    46fe: 8e 80 d5     	stx	$d580                   ; 0xd580 <__heap_start+0x36c6>
    4701: 9c 81 d5     	stz	$d581                   ; 0xd581 <__heap_start+0x36c7>
    4704: a9 b0        	lda	#$b0
    4706: 8d 82 d5     	sta	$d582                   ; 0xd582 <__heap_start+0x36c8>
    4709: 9c 81 d5     	stz	$d581                   ; 0xd581 <__heap_start+0x36c7>
    470c: 1a           	inc
    470d: 8d 82 d5     	sta	$d582                   ; 0xd582 <__heap_start+0x36c8>
    4710: 9c 81 d5     	stz	$d581                   ; 0xd581 <__heap_start+0x36c7>
    4713: 1a           	inc
    4714: 8d 82 d5     	sta	$d582                   ; 0xd582 <__heap_start+0x36c8>
    4717: 9c 81 d5     	stz	$d581                   ; 0xd581 <__heap_start+0x36c7>
    471a: 1a           	inc
    471b: 8d 82 d5     	sta	$d582                   ; 0xd582 <__heap_start+0x36c8>
    471e: 9c 81 d5     	stz	$d581                   ; 0xd581 <__heap_start+0x36c7>
    4721: 1a           	inc
    4722: 8d 82 d5     	sta	$d582                   ; 0xd582 <__heap_start+0x36c8>
    4725: 9c 81 d5     	stz	$d581                   ; 0xd581 <__heap_start+0x36c7>
    4728: 1a           	inc
    4729: 8d 82 d5     	sta	$d582                   ; 0xd582 <__heap_start+0x36c8>
    472c: 9c 81 d5     	stz	$d581                   ; 0xd581 <__heap_start+0x36c7>
    472f: 1a           	inc
    4730: 8d 82 d5     	sta	$d582                   ; 0xd582 <__heap_start+0x36c8>
    4733: 9c 81 d5     	stz	$d581                   ; 0xd581 <__heap_start+0x36c7>
    4736: 8c 82 d5     	sty	$d582                   ; 0xd582 <__heap_start+0x36c8>
    4739: 9c 81 d5     	stz	$d581                   ; 0xd581 <__heap_start+0x36c7>
    473c: 8e 82 d5     	stx	$d582                   ; 0xd582 <__heap_start+0x36c8>
    473f: 9c 81 d5     	stz	$d581                   ; 0xd581 <__heap_start+0x36c7>
    4742: a0 1b        	ldy	#$1b
    4744: b1 10        	lda	($10),y                 ; 0x2010 <wipeArea+0x144>
    4746: 85 18        	sta	$18                     ; 0x2018 <wipeArea+0x14c>
    4748: c8           	iny
    4749: b1 10        	lda	($10),y                 ; 0x2010 <wipeArea+0x144>
    474b: 85 19        	sta	$19                     ; 0x2019 <wipeArea+0x14d>
    474d: b2 18        	lda	($18)                   ; 0x2018 <wipeArea+0x14c>
    474f: 85 f3        	sta	$f3                     ; 0x20f3 <wipeArea+0x227>
    4751: a6 2f        	ldx	$2f                     ; 0x202f <wipeArea+0x163>
    4753: 86 14        	stx	$14                     ; 0x2014 <wipeArea+0x148>
    4755: a6 2c        	ldx	$2c                     ; 0x202c <wipeArea+0x160>
    4757: 86 15        	stx	$15                     ; 0x2015 <wipeArea+0x149>
    4759: a2 52        	ldx	#$52
    475b: 86 16        	stx	$16                     ; 0x2016 <wipeArea+0x14a>
    475d: a2 00        	ldx	#$0
    475f: 86 17        	stx	$17                     ; 0x2017 <wipeArea+0x14b>
    4761: a5 18        	lda	$18                     ; 0x2018 <wipeArea+0x14c>
    4763: 18           	clc
    4764: 69 fe        	adc	#$fe
    4766: 85 18        	sta	$18                     ; 0x2018 <wipeArea+0x14c>
    4768: a5 19        	lda	$19                     ; 0x2019 <wipeArea+0x14d>
    476a: 69 ff        	adc	#$ff
    476c: a6 18        	ldx	$18                     ; 0x2018 <wipeArea+0x14c>
    476e: 86 12        	stx	$12                     ; 0x2012 <wipeArea+0x146>
    4770: aa           	tax
    4771: 85 13        	sta	$13                     ; 0x2013 <wipeArea+0x147>
    4773: 20 68 ff     	jsr	$ff68 <__heap_start+0x60ae>
    4776: 92 14        	sta	($14)                   ; 0x2014 <wipeArea+0x148>
    4778: a9 00        	lda	#$0
    477a: 6a           	ror
    477b: 85 16        	sta	$16                     ; 0x2016 <wipeArea+0x14a>
    477d: b2 12        	lda	($12)                   ; 0x2012 <wipeArea+0x146>
    477f: 85 1c        	sta	$1c                     ; 0x201c <wipeArea+0x150>
    4781: a0 01        	ldy	#$1
    4783: b1 12        	lda	($12),y                 ; 0x2012 <wipeArea+0x146>
    4785: 85 14        	sta	$14                     ; 0x2014 <wipeArea+0x148>
    4787: a9 fe        	lda	#$fe
    4789: 32 12        	and	($12)                   ; 0x2012 <wipeArea+0x146>
    478b: 85 15        	sta	$15                     ; 0x2015 <wipeArea+0x149>
    478d: a4 18        	ldy	$18                     ; 0x2018 <wipeArea+0x14c>
    478f: 84 1b        	sty	$1b                     ; 0x201b <wipeArea+0x14f>
    4791: a5 18        	lda	$18                     ; 0x2018 <wipeArea+0x14c>
    4793: 18           	clc
    4794: 65 15        	adc	$15                     ; 0x2015 <wipeArea+0x149>
    4796: a8           	tay
    4797: 8a           	txa
    4798: 86 1a        	stx	$1a                     ; 0x201a <wipeArea+0x14e>
    479a: 65 14        	adc	$14                     ; 0x2014 <wipeArea+0x148>
    479c: 48           	pha
    479d: 5a           	phy
    479e: a0 16        	ldy	#$16
    47a0: b1 10        	lda	($10),y                 ; 0x2010 <wipeArea+0x144>
    47a2: 7a           	ply
    47a3: 85 16        	sta	$16                     ; 0x2016 <wipeArea+0x14a>
    47a5: 68           	pla
    47a6: c5 16        	cmp	$16                     ; 0x2016 <wipeArea+0x14a>
    47a8: d0 1f        	bne	$47c9 <main+0x259b>
    47aa: 48           	pha
    47ab: 5a           	phy
    47ac: a0 14        	ldy	#$14
    47ae: b1 10        	lda	($10),y                 ; 0x2010 <wipeArea+0x144>
    47b0: 7a           	ply
    47b1: 85 16        	sta	$16                     ; 0x2016 <wipeArea+0x14a>
    47b3: 68           	pla
    47b4: c4 16        	cpy	$16                     ; 0x2016 <wipeArea+0x14a>
    47b6: d0 11        	bne	$47c9 <main+0x259b>
    47b8: a2 00        	ldx	#$0
    47ba: 86 16        	stx	$16                     ; 0x2016 <wipeArea+0x14a>
    47bc: a2 00        	ldx	#$0
    47be: 86 17        	stx	$17                     ; 0x2017 <wipeArea+0x14b>
    47c0: a5 1c        	lda	$1c                     ; 0x201c <wipeArea+0x150>
    47c2: 29 01        	and	#$1
    47c4: d0 10        	bne	$47d6 <main+0x25a8>
    47c6: 4c 22 49     	jmp	$4922 <main+0x26f4>
    47c9: 84 16        	sty	$16                     ; 0x2016 <wipeArea+0x14a>
    47cb: 85 17        	sta	$17                     ; 0x2017 <wipeArea+0x14b>
    47cd: a5 1c        	lda	$1c                     ; 0x201c <wipeArea+0x150>
    47cf: 29 01        	and	#$1
    47d1: d0 03        	bne	$47d6 <main+0x25a8>
    47d3: 4c 22 49     	jmp	$4922 <main+0x26f4>
    47d6: a0 1b        	ldy	#$1b
    47d8: b1 10        	lda	($10),y                 ; 0x2010 <wipeArea+0x144>
    47da: 85 18        	sta	$18                     ; 0x2018 <wipeArea+0x14c>
    47dc: c8           	iny
    47dd: b1 10        	lda	($10),y                 ; 0x2010 <wipeArea+0x144>
    47df: 85 19        	sta	$19                     ; 0x2019 <wipeArea+0x14d>
    47e1: a5 18        	lda	$18                     ; 0x2018 <wipeArea+0x14c>
    47e3: 18           	clc
    47e4: 69 fc        	adc	#$fc
    47e6: 85 12        	sta	$12                     ; 0x2012 <wipeArea+0x146>
    47e8: a5 19        	lda	$19                     ; 0x2019 <wipeArea+0x14d>
    47ea: 69 ff        	adc	#$ff
    47ec: 85 13        	sta	$13                     ; 0x2013 <wipeArea+0x147>
    47ee: a0 01        	ldy	#$1
    47f0: 38           	sec
    47f1: a9 00        	lda	#$0
    47f3: f2 12        	sbc	($12)                   ; 0x2012 <wipeArea+0x146>
    47f5: 85 18        	sta	$18                     ; 0x2018 <wipeArea+0x14c>
    47f7: a9 00        	lda	#$0
    47f9: f1 12        	sbc	($12),y                 ; 0x2012 <wipeArea+0x146>
    47fb: 85 13        	sta	$13                     ; 0x2013 <wipeArea+0x147>
    47fd: a5 1b        	lda	$1b                     ; 0x201b <wipeArea+0x14f>
    47ff: 18           	clc
    4800: 65 18        	adc	$18                     ; 0x2018 <wipeArea+0x14c>
    4802: 85 12        	sta	$12                     ; 0x2012 <wipeArea+0x146>
    4804: 85 19        	sta	$19                     ; 0x2019 <wipeArea+0x14d>
    4806: a5 1a        	lda	$1a                     ; 0x201a <wipeArea+0x14e>
    4808: 65 13        	adc	$13                     ; 0x2013 <wipeArea+0x147>
    480a: 85 13        	sta	$13                     ; 0x2013 <wipeArea+0x147>
    480c: aa           	tax
    480d: b1 12        	lda	($12),y                 ; 0x2012 <wipeArea+0x146>
    480f: 85 1b        	sta	$1b                     ; 0x201b <wipeArea+0x14f>
    4811: a9 fe        	lda	#$fe
    4813: 32 12        	and	($12)                   ; 0x2012 <wipeArea+0x146>
    4815: ac 3d 9e     	ldy	$9e3d                   ; 0x9e3d <_ZN12_GLOBAL__N_19free_sizeE>
    4818: 85 1d        	sta	$1d                     ; 0x201d <wipeArea+0x151>
    481a: 85 18        	sta	$18                     ; 0x2018 <wipeArea+0x14c>
    481c: 38           	sec
    481d: 98           	tya
    481e: e5 18        	sbc	$18                     ; 0x2018 <wipeArea+0x14c>
    4820: 85 1a        	sta	$1a                     ; 0x201a <wipeArea+0x14e>
    4822: a4 1b        	ldy	$1b                     ; 0x201b <wipeArea+0x14f>
    4824: 84 1c        	sty	$1c                     ; 0x201c <wipeArea+0x150>
    4826: 84 18        	sty	$18                     ; 0x2018 <wipeArea+0x14c>
    4828: ad 3e 9e     	lda	$9e3e                   ; 0x9e3e <_ZN12_GLOBAL__N_19free_sizeE+0x1>
    482b: e5 18        	sbc	$18                     ; 0x2018 <wipeArea+0x14c>
    482d: a8           	tay
    482e: 18           	clc
    482f: a5 1a        	lda	$1a                     ; 0x201a <wipeArea+0x14e>
    4831: 69 02        	adc	#$2
    4833: 85 18        	sta	$18                     ; 0x2018 <wipeArea+0x14c>
    4835: 98           	tya
    4836: 69 00        	adc	#$0
    4838: a4 18        	ldy	$18                     ; 0x2018 <wipeArea+0x14c>
    483a: 8c 3d 9e     	sty	$9e3d                   ; 0x9e3d <_ZN12_GLOBAL__N_19free_sizeE>
    483d: 8d 3e 9e     	sta	$9e3e                   ; 0x9e3e <_ZN12_GLOBAL__N_19free_sizeE+0x1>
    4840: a4 19        	ldy	$19                     ; 0x2019 <wipeArea+0x14d>
    4842: 84 1b        	sty	$1b                     ; 0x201b <wipeArea+0x14f>
    4844: a5 19        	lda	$19                     ; 0x2019 <wipeArea+0x14d>
    4846: 18           	clc
    4847: 69 02        	adc	#$2
    4849: 85 18        	sta	$18                     ; 0x2018 <wipeArea+0x14c>
    484b: 86 1a        	stx	$1a                     ; 0x201a <wipeArea+0x14e>
    484d: 8a           	txa
    484e: 69 00        	adc	#$0
    4850: a0 02        	ldy	#$2
    4852: 85 19        	sta	$19                     ; 0x2019 <wipeArea+0x14d>
    4854: b1 12        	lda	($12),y                 ; 0x2012 <wipeArea+0x146>
    4856: aa           	tax
    4857: 88           	dey
    4858: b1 18        	lda	($18),y                 ; 0x2018 <wipeArea+0x14c>
    485a: 85 1f        	sta	$1f                     ; 0x201f <wipeArea+0x153>
    485c: c5 13        	cmp	$13                     ; 0x2013 <wipeArea+0x147>
    485e: d0 28        	bne	$4888 <main+0x265a>
    4860: e4 12        	cpx	$12                     ; 0x2012 <wipeArea+0x146>
    4862: d0 24        	bne	$4888 <main+0x265a>
    4864: a2 00        	ldx	#$0
    4866: 86 18        	stx	$18                     ; 0x2018 <wipeArea+0x14c>
    4868: a2 00        	ldx	#$0
    486a: 86 19        	stx	$19                     ; 0x2019 <wipeArea+0x14d>
    486c: 4c 0b 49     	jmp	$490b <main+0x26dd>
    486f: 48           	pha
    4870: a0 14        	ldy	#$14
    4872: b1 10        	lda	($10),y                 ; 0x2010 <wipeArea+0x144>
    4874: 85 18        	sta	$18                     ; 0x2018 <wipeArea+0x14c>
    4876: 68           	pla
    4877: e4 18        	cpx	$18                     ; 0x2018 <wipeArea+0x14c>
    4879: f0 03        	beq	$487e <main+0x2650>
    487b: 4c 45 45     	jmp	$4545 <main+0x2317>
    487e: 64 18        	stz	$18                     ; 0x2018 <wipeArea+0x14c>
    4880: a9 01        	lda	#$1
    4882: 2d 3c 9e     	and	$9e3c                   ; 0x9e3c <_ZN12_GLOBAL__N_19last_freeE>
    4885: 4c 4f 45     	jmp	$454f <main+0x2321>
    4888: 86 1e        	stx	$1e                     ; 0x201e <wipeArea+0x152>
    488a: a5 1b        	lda	$1b                     ; 0x201b <wipeArea+0x14f>
    488c: a6 1b        	ldx	$1b                     ; 0x201b <wipeArea+0x14f>
    488e: 86 22        	stx	$22                     ; 0x2022 <wipeArea+0x156>
    4890: 18           	clc
    4891: 69 04        	adc	#$4
    4893: 85 18        	sta	$18                     ; 0x2018 <wipeArea+0x14c>
    4895: a6 1a        	ldx	$1a                     ; 0x201a <wipeArea+0x14e>
    4897: 86 23        	stx	$23                     ; 0x2023 <wipeArea+0x157>
    4899: a5 1a        	lda	$1a                     ; 0x201a <wipeArea+0x14e>
    489b: 69 00        	adc	#$0
    489d: a0 04        	ldy	#$4
    489f: 85 19        	sta	$19                     ; 0x2019 <wipeArea+0x14d>
    48a1: b1 12        	lda	($12),y                 ; 0x2012 <wipeArea+0x146>
    48a3: 85 24        	sta	$24                     ; 0x2024 <wipeArea+0x158>
    48a5: 18           	clc
    48a6: 69 02        	adc	#$2
    48a8: 85 1a        	sta	$1a                     ; 0x201a <wipeArea+0x14e>
    48aa: a0 01        	ldy	#$1
    48ac: b1 18        	lda	($18),y                 ; 0x2018 <wipeArea+0x14c>
    48ae: aa           	tax
    48af: 69 00        	adc	#$0
    48b1: a4 1a        	ldy	$1a                     ; 0x201a <wipeArea+0x14e>
    48b3: 84 18        	sty	$18                     ; 0x2018 <wipeArea+0x14c>
    48b5: 85 19        	sta	$19                     ; 0x2019 <wipeArea+0x14d>
    48b7: a4 24        	ldy	$24                     ; 0x2024 <wipeArea+0x158>
    48b9: 84 1a        	sty	$1a                     ; 0x201a <wipeArea+0x14e>
    48bb: 86 1b        	stx	$1b                     ; 0x201b <wipeArea+0x14f>
    48bd: a0 02        	ldy	#$2
    48bf: a5 1e        	lda	$1e                     ; 0x201e <wipeArea+0x152>
    48c1: 91 1a        	sta	($1a),y                 ; 0x201a <wipeArea+0x14e>
    48c3: a5 1f        	lda	$1f                     ; 0x201f <wipeArea+0x153>
    48c5: 88           	dey
    48c6: 91 18        	sta	($18),y                 ; 0x2018 <wipeArea+0x14c>
    48c8: 18           	clc
    48c9: a5 22        	lda	$22                     ; 0x2022 <wipeArea+0x156>
    48cb: 69 02        	adc	#$2
    48cd: 85 18        	sta	$18                     ; 0x2018 <wipeArea+0x14c>
    48cf: a5 23        	lda	$23                     ; 0x2023 <wipeArea+0x157>
    48d1: 69 00        	adc	#$0
    48d3: 85 19        	sta	$19                     ; 0x2019 <wipeArea+0x14d>
    48d5: c8           	iny
    48d6: b1 12        	lda	($12),y                 ; 0x2012 <wipeArea+0x146>
    48d8: 85 1a        	sta	$1a                     ; 0x201a <wipeArea+0x14e>
    48da: 88           	dey
    48db: b1 18        	lda	($18),y                 ; 0x2018 <wipeArea+0x14c>
    48dd: a4 1a        	ldy	$1a                     ; 0x201a <wipeArea+0x14e>
    48df: 84 18        	sty	$18                     ; 0x2018 <wipeArea+0x14c>
    48e1: 85 19        	sta	$19                     ; 0x2019 <wipeArea+0x14d>
    48e3: 85 1b        	sta	$1b                     ; 0x201b <wipeArea+0x14f>
    48e5: a0 04        	ldy	#$4
    48e7: a5 24        	lda	$24                     ; 0x2024 <wipeArea+0x158>
    48e9: 91 18        	sta	($18),y                 ; 0x2018 <wipeArea+0x14c>
    48eb: 18           	clc
    48ec: a5 1a        	lda	$1a                     ; 0x201a <wipeArea+0x14e>
    48ee: 69 04        	adc	#$4
    48f0: 85 1a        	sta	$1a                     ; 0x201a <wipeArea+0x14e>
    48f2: a5 1b        	lda	$1b                     ; 0x201b <wipeArea+0x14f>
    48f4: 69 00        	adc	#$0
    48f6: 85 1b        	sta	$1b                     ; 0x201b <wipeArea+0x14f>
    48f8: 8a           	txa
    48f9: a0 01        	ldy	#$1
    48fb: 91 1a        	sta	($1a),y                 ; 0x201a <wipeArea+0x14e>
    48fd: ae 40 9e     	ldx	$9e40                   ; 0x9e40 <_ZN12_GLOBAL__N_19free_listE+0x1>
    4900: e4 13        	cpx	$13                     ; 0x2013 <wipeArea+0x147>
    4902: d0 11        	bne	$4915 <main+0x26e7>
    4904: ae 3f 9e     	ldx	$9e3f                   ; 0x9e3f <_ZN12_GLOBAL__N_19free_listE>
    4907: e4 12        	cpx	$12                     ; 0x2012 <wipeArea+0x146>
    4909: d0 0a        	bne	$4915 <main+0x26e7>
    490b: a6 18        	ldx	$18                     ; 0x2018 <wipeArea+0x14c>
    490d: a4 19        	ldy	$19                     ; 0x2019 <wipeArea+0x14d>
    490f: 8e 3f 9e     	stx	$9e3f                   ; 0x9e3f <_ZN12_GLOBAL__N_19free_listE>
    4912: 8c 40 9e     	sty	$9e40                   ; 0x9e40 <_ZN12_GLOBAL__N_19free_listE+0x1>
    4915: 18           	clc
    4916: a5 1d        	lda	$1d                     ; 0x201d <wipeArea+0x151>
    4918: 65 15        	adc	$15                     ; 0x2015 <wipeArea+0x149>
    491a: 85 15        	sta	$15                     ; 0x2015 <wipeArea+0x149>
    491c: a5 1c        	lda	$1c                     ; 0x201c <wipeArea+0x150>
    491e: 65 14        	adc	$14                     ; 0x2014 <wipeArea+0x148>
    4920: 85 14        	sta	$14                     ; 0x2014 <wipeArea+0x148>
    4922: a2 00        	ldx	#$0
    4924: 86 18        	stx	$18                     ; 0x2018 <wipeArea+0x14c>
    4926: a2 00        	ldx	#$0
    4928: 86 19        	stx	$19                     ; 0x2019 <wipeArea+0x14d>
    492a: a6 17        	ldx	$17                     ; 0x2017 <wipeArea+0x14b>
    492c: e4 19        	cpx	$19                     ; 0x2019 <wipeArea+0x14d>
    492e: d0 0e        	bne	$493e <main+0x2710>
    4930: a6 16        	ldx	$16                     ; 0x2016 <wipeArea+0x14a>
    4932: e4 18        	cpx	$18                     ; 0x2018 <wipeArea+0x14c>
    4934: d0 08        	bne	$493e <main+0x2710>
    4936: a2 01        	ldx	#$1
    4938: 8e 3c 9e     	stx	$9e3c                   ; 0x9e3c <_ZN12_GLOBAL__N_19last_freeE>
    493b: 4c 44 4f     	jmp	$4f44 <main+0x2d16>
    493e: a0 01        	ldy	#$1
    4940: b1 16        	lda	($16),y                 ; 0x2016 <wipeArea+0x14a>
    4942: a8           	tay
    4943: a9 fe        	lda	#$fe
    4945: 32 16        	and	($16)                   ; 0x2016 <wipeArea+0x14a>
    4947: 18           	clc
    4948: 85 1d        	sta	$1d                     ; 0x201d <wipeArea+0x151>
    494a: 65 16        	adc	$16                     ; 0x2016 <wipeArea+0x14a>
    494c: aa           	tax
    494d: 98           	tya
    494e: 84 1c        	sty	$1c                     ; 0x201c <wipeArea+0x150>
    4950: 65 17        	adc	$17                     ; 0x2017 <wipeArea+0x14b>
    4952: 48           	pha
    4953: a0 16        	ldy	#$16
    4955: b1 10        	lda	($10),y                 ; 0x2010 <wipeArea+0x144>
    4957: 85 18        	sta	$18                     ; 0x2018 <wipeArea+0x14c>
    4959: 68           	pla
    495a: c5 18        	cmp	$18                     ; 0x2018 <wipeArea+0x14c>
    495c: d0 19        	bne	$4977 <main+0x2749>
    495e: 48           	pha
    495f: a0 14        	ldy	#$14
    4961: b1 10        	lda	($10),y                 ; 0x2010 <wipeArea+0x144>
    4963: 85 18        	sta	$18                     ; 0x2018 <wipeArea+0x14c>
    4965: 68           	pla
    4966: e4 18        	cpx	$18                     ; 0x2018 <wipeArea+0x14c>
    4968: d0 0d        	bne	$4977 <main+0x2749>
    496a: a9 01        	lda	#$1
    496c: 64 18        	stz	$18                     ; 0x2018 <wipeArea+0x14c>
    496e: 2d 3c 9e     	and	$9e3c                   ; 0x9e3c <_ZN12_GLOBAL__N_19last_freeE>
    4971: a6 18        	ldx	$18                     ; 0x2018 <wipeArea+0x14c>
    4973: d0 16        	bne	$498b <main+0x275d>
    4975: 80 0e        	bra	$4985 <main+0x2757>
    4977: 86 18        	stx	$18                     ; 0x2018 <wipeArea+0x14c>
    4979: 85 19        	sta	$19                     ; 0x2019 <wipeArea+0x14d>
    497b: a9 01        	lda	#$1
    497d: 32 18        	and	($18)                   ; 0x2018 <wipeArea+0x14c>
    497f: 64 18        	stz	$18                     ; 0x2018 <wipeArea+0x14c>
    4981: a6 18        	ldx	$18                     ; 0x2018 <wipeArea+0x14c>
    4983: d0 06        	bne	$498b <main+0x275d>
    4985: aa           	tax
    4986: d0 03        	bne	$498b <main+0x275d>
    4988: 4c 38 4f     	jmp	$4f38 <main+0x2d0a>
    498b: ad 3d 9e     	lda	$9e3d                   ; 0x9e3d <_ZN12_GLOBAL__N_19free_sizeE>
    498e: ae 3e 9e     	ldx	$9e3e                   ; 0x9e3e <_ZN12_GLOBAL__N_19free_sizeE+0x1>
    4991: 86 19        	stx	$19                     ; 0x2019 <wipeArea+0x14d>
    4993: 38           	sec
    4994: e5 1d        	sbc	$1d                     ; 0x201d <wipeArea+0x151>
    4996: aa           	tax
    4997: a5 19        	lda	$19                     ; 0x2019 <wipeArea+0x14d>
    4999: e5 1c        	sbc	$1c                     ; 0x201c <wipeArea+0x150>
    499b: 85 18        	sta	$18                     ; 0x2018 <wipeArea+0x14c>
    499d: 18           	clc
    499e: 8a           	txa
    499f: 69 02        	adc	#$2
    49a1: 85 19        	sta	$19                     ; 0x2019 <wipeArea+0x14d>
    49a3: a5 18        	lda	$18                     ; 0x2018 <wipeArea+0x14c>
    49a5: 69 00        	adc	#$0
    49a7: a6 19        	ldx	$19                     ; 0x2019 <wipeArea+0x14d>
    49a9: 8e 3d 9e     	stx	$9e3d                   ; 0x9e3d <_ZN12_GLOBAL__N_19free_sizeE>
    49ac: 8d 3e 9e     	sta	$9e3e                   ; 0x9e3e <_ZN12_GLOBAL__N_19free_sizeE+0x1>
    49af: a5 16        	lda	$16                     ; 0x2016 <wipeArea+0x14a>
    49b1: 18           	clc
    49b2: 69 02        	adc	#$2
    49b4: 85 18        	sta	$18                     ; 0x2018 <wipeArea+0x14c>
    49b6: a5 17        	lda	$17                     ; 0x2017 <wipeArea+0x14b>
    49b8: 69 00        	adc	#$0
    49ba: a0 02        	ldy	#$2
    49bc: 85 19        	sta	$19                     ; 0x2019 <wipeArea+0x14d>
    49be: b1 16        	lda	($16),y                 ; 0x2016 <wipeArea+0x14a>
    49c0: aa           	tax
    49c1: 88           	dey
    49c2: b1 18        	lda	($18),y                 ; 0x2018 <wipeArea+0x14c>
    49c4: 85 1f        	sta	$1f                     ; 0x201f <wipeArea+0x153>
    49c6: c5 17        	cmp	$17                     ; 0x2017 <wipeArea+0x14b>
    49c8: d0 0f        	bne	$49d9 <main+0x27ab>
    49ca: e4 16        	cpx	$16                     ; 0x2016 <wipeArea+0x14a>
    49cc: d0 0b        	bne	$49d9 <main+0x27ab>
    49ce: a2 00        	ldx	#$0
    49d0: 86 18        	stx	$18                     ; 0x2018 <wipeArea+0x14c>
    49d2: a2 00        	ldx	#$0
    49d4: 86 19        	stx	$19                     ; 0x2019 <wipeArea+0x14d>
    49d6: 4c 52 4a     	jmp	$4a52 <main+0x2824>
    49d9: 18           	clc
    49da: a5 16        	lda	$16                     ; 0x2016 <wipeArea+0x14a>
    49dc: 69 04        	adc	#$4
    49de: 85 18        	sta	$18                     ; 0x2018 <wipeArea+0x14c>
    49e0: a5 17        	lda	$17                     ; 0x2017 <wipeArea+0x14b>
    49e2: 69 00        	adc	#$0
    49e4: a0 04        	ldy	#$4
    49e6: 85 19        	sta	$19                     ; 0x2019 <wipeArea+0x14d>
    49e8: b1 16        	lda	($16),y                 ; 0x2016 <wipeArea+0x14a>
    49ea: 85 24        	sta	$24                     ; 0x2024 <wipeArea+0x158>
    49ec: 18           	clc
    49ed: 69 02        	adc	#$2
    49ef: 85 1a        	sta	$1a                     ; 0x201a <wipeArea+0x14e>
    49f1: a0 01        	ldy	#$1
    49f3: b1 18        	lda	($18),y                 ; 0x2018 <wipeArea+0x14c>
    49f5: 85 23        	sta	$23                     ; 0x2023 <wipeArea+0x157>
    49f7: 69 00        	adc	#$0
    49f9: a4 1a        	ldy	$1a                     ; 0x201a <wipeArea+0x14e>
    49fb: 84 18        	sty	$18                     ; 0x2018 <wipeArea+0x14c>
    49fd: 85 19        	sta	$19                     ; 0x2019 <wipeArea+0x14d>
    49ff: a4 24        	ldy	$24                     ; 0x2024 <wipeArea+0x158>
    4a01: 84 1a        	sty	$1a                     ; 0x201a <wipeArea+0x14e>
    4a03: a4 23        	ldy	$23                     ; 0x2023 <wipeArea+0x157>
    4a05: 84 1b        	sty	$1b                     ; 0x201b <wipeArea+0x14f>
    4a07: a0 02        	ldy	#$2
    4a09: 8a           	txa
    4a0a: 91 1a        	sta	($1a),y                 ; 0x201a <wipeArea+0x14e>
    4a0c: a5 1f        	lda	$1f                     ; 0x201f <wipeArea+0x153>
    4a0e: 88           	dey
    4a0f: 91 18        	sta	($18),y                 ; 0x2018 <wipeArea+0x14c>
    4a11: 18           	clc
    4a12: a5 16        	lda	$16                     ; 0x2016 <wipeArea+0x14a>
    4a14: 69 02        	adc	#$2
    4a16: 85 18        	sta	$18                     ; 0x2018 <wipeArea+0x14c>
    4a18: a5 17        	lda	$17                     ; 0x2017 <wipeArea+0x14b>
    4a1a: 69 00        	adc	#$0
    4a1c: 85 19        	sta	$19                     ; 0x2019 <wipeArea+0x14d>
    4a1e: c8           	iny
    4a1f: b1 16        	lda	($16),y                 ; 0x2016 <wipeArea+0x14a>
    4a21: aa           	tax
    4a22: 88           	dey
    4a23: b1 18        	lda	($18),y                 ; 0x2018 <wipeArea+0x14c>
    4a25: 86 18        	stx	$18                     ; 0x2018 <wipeArea+0x14c>
    4a27: 85 19        	sta	$19                     ; 0x2019 <wipeArea+0x14d>
    4a29: 85 1a        	sta	$1a                     ; 0x201a <wipeArea+0x14e>
    4a2b: a0 04        	ldy	#$4
    4a2d: a5 24        	lda	$24                     ; 0x2024 <wipeArea+0x158>
    4a2f: 91 18        	sta	($18),y                 ; 0x2018 <wipeArea+0x14c>
    4a31: 18           	clc
    4a32: 8a           	txa
    4a33: 69 04        	adc	#$4
    4a35: aa           	tax
    4a36: a5 1a        	lda	$1a                     ; 0x201a <wipeArea+0x14e>
    4a38: 69 00        	adc	#$0
    4a3a: 86 1a        	stx	$1a                     ; 0x201a <wipeArea+0x14e>
    4a3c: 85 1b        	sta	$1b                     ; 0x201b <wipeArea+0x14f>
    4a3e: a5 23        	lda	$23                     ; 0x2023 <wipeArea+0x157>
    4a40: a0 01        	ldy	#$1
    4a42: 91 1a        	sta	($1a),y                 ; 0x201a <wipeArea+0x14e>
    4a44: ae 40 9e     	ldx	$9e40                   ; 0x9e40 <_ZN12_GLOBAL__N_19free_listE+0x1>
    4a47: e4 17        	cpx	$17                     ; 0x2017 <wipeArea+0x14b>
    4a49: d0 11        	bne	$4a5c <main+0x282e>
    4a4b: ae 3f 9e     	ldx	$9e3f                   ; 0x9e3f <_ZN12_GLOBAL__N_19free_listE>
    4a4e: e4 16        	cpx	$16                     ; 0x2016 <wipeArea+0x14a>
    4a50: d0 0a        	bne	$4a5c <main+0x282e>
    4a52: a6 18        	ldx	$18                     ; 0x2018 <wipeArea+0x14c>
    4a54: a4 19        	ldy	$19                     ; 0x2019 <wipeArea+0x14d>
    4a56: 8e 3f 9e     	stx	$9e3f                   ; 0x9e3f <_ZN12_GLOBAL__N_19free_listE>
    4a59: 8c 40 9e     	sty	$9e40                   ; 0x9e40 <_ZN12_GLOBAL__N_19free_listE+0x1>
    4a5c: 18           	clc
    4a5d: a5 1d        	lda	$1d                     ; 0x201d <wipeArea+0x151>
    4a5f: 65 15        	adc	$15                     ; 0x2015 <wipeArea+0x149>
    4a61: 85 15        	sta	$15                     ; 0x2015 <wipeArea+0x149>
    4a63: a5 1c        	lda	$1c                     ; 0x201c <wipeArea+0x150>
    4a65: 65 14        	adc	$14                     ; 0x2014 <wipeArea+0x148>
    4a67: aa           	tax
    4a68: 4c 46 4f     	jmp	$4f46 <main+0x2d18>
    4a6b: e4 16        	cpx	$16                     ; 0x2016 <wipeArea+0x14a>
    4a6d: d0 0b        	bne	$4a7a <main+0x284c>
    4a6f: a2 00        	ldx	#$0
    4a71: 86 18        	stx	$18                     ; 0x2018 <wipeArea+0x14c>
    4a73: a2 00        	ldx	#$0
    4a75: 86 19        	stx	$19                     ; 0x2019 <wipeArea+0x14d>
    4a77: 4c fb 4a     	jmp	$4afb <main+0x28cd>
    4a7a: 86 1e        	stx	$1e                     ; 0x201e <wipeArea+0x152>
    4a7c: a6 16        	ldx	$16                     ; 0x2016 <wipeArea+0x14a>
    4a7e: 18           	clc
    4a7f: a5 16        	lda	$16                     ; 0x2016 <wipeArea+0x14a>
    4a81: 86 24        	stx	$24                     ; 0x2024 <wipeArea+0x158>
    4a83: 69 04        	adc	#$4
    4a85: 85 18        	sta	$18                     ; 0x2018 <wipeArea+0x14c>
    4a87: a5 17        	lda	$17                     ; 0x2017 <wipeArea+0x14b>
    4a89: 69 00        	adc	#$0
    4a8b: 85 19        	sta	$19                     ; 0x2019 <wipeArea+0x14d>
    4a8d: a0 04        	ldy	#$4
    4a8f: b1 16        	lda	($16),y                 ; 0x2016 <wipeArea+0x14a>
    4a91: aa           	tax
    4a92: 18           	clc
    4a93: 69 02        	adc	#$2
    4a95: 85 1a        	sta	$1a                     ; 0x201a <wipeArea+0x14e>
    4a97: a0 01        	ldy	#$1
    4a99: b1 18        	lda	($18),y                 ; 0x2018 <wipeArea+0x14c>
    4a9b: 85 23        	sta	$23                     ; 0x2023 <wipeArea+0x157>
    4a9d: 69 00        	adc	#$0
    4a9f: a4 1a        	ldy	$1a                     ; 0x201a <wipeArea+0x14e>
    4aa1: 84 18        	sty	$18                     ; 0x2018 <wipeArea+0x14c>
    4aa3: 85 19        	sta	$19                     ; 0x2019 <wipeArea+0x14d>
    4aa5: 86 1a        	stx	$1a                     ; 0x201a <wipeArea+0x14e>
    4aa7: a4 23        	ldy	$23                     ; 0x2023 <wipeArea+0x157>
    4aa9: 84 1b        	sty	$1b                     ; 0x201b <wipeArea+0x14f>
    4aab: a0 02        	ldy	#$2
    4aad: a5 1e        	lda	$1e                     ; 0x201e <wipeArea+0x152>
    4aaf: 91 1a        	sta	($1a),y                 ; 0x201a <wipeArea+0x14e>
    4ab1: a5 1f        	lda	$1f                     ; 0x201f <wipeArea+0x153>
    4ab3: 88           	dey
    4ab4: 91 18        	sta	($18),y                 ; 0x2018 <wipeArea+0x14c>
    4ab6: 18           	clc
    4ab7: a5 24        	lda	$24                     ; 0x2024 <wipeArea+0x158>
    4ab9: 69 02        	adc	#$2
    4abb: 85 18        	sta	$18                     ; 0x2018 <wipeArea+0x14c>
    4abd: a5 17        	lda	$17                     ; 0x2017 <wipeArea+0x14b>
    4abf: 69 00        	adc	#$0
    4ac1: 85 19        	sta	$19                     ; 0x2019 <wipeArea+0x14d>
    4ac3: c8           	iny
    4ac4: b1 16        	lda	($16),y                 ; 0x2016 <wipeArea+0x14a>
    4ac6: 85 1a        	sta	$1a                     ; 0x201a <wipeArea+0x14e>
    4ac8: 88           	dey
    4ac9: b1 18        	lda	($18),y                 ; 0x2018 <wipeArea+0x14c>
    4acb: a8           	tay
    4acc: a5 1a        	lda	$1a                     ; 0x201a <wipeArea+0x14e>
    4ace: 85 18        	sta	$18                     ; 0x2018 <wipeArea+0x14c>
    4ad0: 84 19        	sty	$19                     ; 0x2019 <wipeArea+0x14d>
    4ad2: 18           	clc
    4ad3: 69 04        	adc	#$4
    4ad5: 85 1a        	sta	$1a                     ; 0x201a <wipeArea+0x14e>
    4ad7: 98           	tya
    4ad8: 69 00        	adc	#$0
    4ada: 85 1b        	sta	$1b                     ; 0x201b <wipeArea+0x14f>
    4adc: a0 04        	ldy	#$4
    4ade: 8a           	txa
    4adf: 91 18        	sta	($18),y                 ; 0x2018 <wipeArea+0x14c>
    4ae1: a5 23        	lda	$23                     ; 0x2023 <wipeArea+0x157>
    4ae3: a0 01        	ldy	#$1
    4ae5: 91 1a        	sta	($1a),y                 ; 0x201a <wipeArea+0x14e>
    4ae7: ae 40 9e     	ldx	$9e40                   ; 0x9e40 <_ZN12_GLOBAL__N_19free_listE+0x1>
    4aea: e4 17        	cpx	$17                     ; 0x2017 <wipeArea+0x14b>
    4aec: f0 03        	beq	$4af1 <main+0x28c3>
    4aee: 4c ca 30     	jmp	$30ca <main+0xe9c>
    4af1: ae 3f 9e     	ldx	$9e3f                   ; 0x9e3f <_ZN12_GLOBAL__N_19free_listE>
    4af4: e4 16        	cpx	$16                     ; 0x2016 <wipeArea+0x14a>
    4af6: f0 03        	beq	$4afb <main+0x28cd>
    4af8: 4c ca 30     	jmp	$30ca <main+0xe9c>
    4afb: a6 18        	ldx	$18                     ; 0x2018 <wipeArea+0x14c>
    4afd: a4 19        	ldy	$19                     ; 0x2019 <wipeArea+0x14d>
    4aff: 8e 3f 9e     	stx	$9e3f                   ; 0x9e3f <_ZN12_GLOBAL__N_19free_listE>
    4b02: 8c 40 9e     	sty	$9e40                   ; 0x9e40 <_ZN12_GLOBAL__N_19free_listE+0x1>
    4b05: 4c ca 30     	jmp	$30ca <main+0xe9c>
    4b08: c9 30        	cmp	#$30
    4b0a: a0 00        	ldy	#$0
    4b0c: a2 c5        	ldx	#$c5
    4b0e: 86 12        	stx	$12                     ; 0x2012 <wipeArea+0x146>
    4b10: a2 9d        	ldx	#$9d
    4b12: 86 13        	stx	$13                     ; 0x2013 <wipeArea+0x147>
    4b14: b0 03        	bcs	$4b19 <main+0x28eb>
    4b16: 4c f1 34     	jmp	$34f1 <main+0x12c3>
    4b19: c9 38        	cmp	#$38
    4b1b: a0 00        	ldy	#$0
    4b1d: 90 03        	bcc	$4b22 <main+0x28f4>
    4b1f: 4c f1 34     	jmp	$34f1 <main+0x12c3>
    4b22: 18           	clc
    4b23: 69 d0        	adc	#$d0
    4b25: a8           	tay
    4b26: 4c f1 34     	jmp	$34f1 <main+0x12c3>
    4b29: c9 38        	cmp	#$38
    4b2b: a0 00        	ldy	#$0
    4b2d: 90 03        	bcc	$4b32 <main+0x2904>
    4b2f: 4c 6f 30     	jmp	$306f <main+0xe41>
    4b32: 18           	clc
    4b33: 69 d0        	adc	#$d0
    4b35: a8           	tay
    4b36: 4c 6f 30     	jmp	$306f <main+0xe41>
    4b39: aa           	tax
    4b3a: f0 03        	beq	$4b3f <main+0x2911>
    4b3c: 4c 56 45     	jmp	$4556 <main+0x2328>
    4b3f: b2 16        	lda	($16)                   ; 0x2016 <wipeArea+0x14a>
    4b41: 09 01        	ora	#$1
    4b43: 92 16        	sta	($16)                   ; 0x2016 <wipeArea+0x14a>
    4b45: a0 01        	ldy	#$1
    4b47: a5 1c        	lda	$1c                     ; 0x201c <wipeArea+0x150>
    4b49: 91 16        	sta	($16),y                 ; 0x2016 <wipeArea+0x14a>
    4b4b: 4c cc 4b     	jmp	$4bcc <main+0x299e>
    4b4e: a6 24        	ldx	$24                     ; 0x2024 <wipeArea+0x158>
    4b50: a5 12        	lda	$12                     ; 0x2012 <wipeArea+0x146>
    4b52: 9d 55 00     	sta	$55,x                   ; 0x55 <_dirStream>
    4b55: a2 3c        	ldx	#$3c
    4b57: 64 12        	stz	$12                     ; 0x2012 <wipeArea+0x146>
    4b59: 64 14        	stz	$14                     ; 0x2014 <wipeArea+0x148>
    4b5b: 4c fe 2f     	jmp	$2ffe <main+0xdd0>
    4b5e: ca           	dex
    4b5f: e0 ff        	cpx	#$ff
    4b61: d0 02        	bne	$4b65 <main+0x2937>
    4b63: c6 14        	dec	$14                     ; 0x2014 <wipeArea+0x148>
    4b65: a5 14        	lda	$14                     ; 0x2014 <wipeArea+0x148>
    4b67: d0 06        	bne	$4b6f <main+0x2941>
    4b69: 8a           	txa
    4b6a: d0 03        	bne	$4b6f <main+0x2941>
    4b6c: 4c 15 30     	jmp	$3015 <main+0xde7>
    4b6f: a9 aa        	lda	#$aa
    4b71: 18           	clc
    4b72: 65 12        	adc	$12                     ; 0x2012 <wipeArea+0x146>
    4b74: 85 12        	sta	$12                     ; 0x2012 <wipeArea+0x146>
    4b76: a9 6c        	lda	#$6c
    4b78: 69 00        	adc	#$0
    4b7a: 85 13        	sta	$13                     ; 0x2013 <wipeArea+0x147>
    4b7c: a9 00        	lda	#$0
    4b7e: 20 49 65     	jsr	$6549 <__memset>
    4b81: 4c 15 30     	jmp	$3015 <main+0xde7>
    4b84: 18           	clc
    4b85: a5 12        	lda	$12                     ; 0x2012 <wipeArea+0x146>
    4b87: 69 04        	adc	#$4
    4b89: 85 14        	sta	$14                     ; 0x2014 <wipeArea+0x148>
    4b8b: a5 13        	lda	$13                     ; 0x2013 <wipeArea+0x147>
    4b8d: 69 00        	adc	#$0
    4b8f: 85 15        	sta	$15                     ; 0x2015 <wipeArea+0x149>
    4b91: 18           	clc
    4b92: a5 12        	lda	$12                     ; 0x2012 <wipeArea+0x146>
    4b94: 69 02        	adc	#$2
    4b96: 85 16        	sta	$16                     ; 0x2016 <wipeArea+0x14a>
    4b98: a5 13        	lda	$13                     ; 0x2013 <wipeArea+0x147>
    4b9a: 69 00        	adc	#$0
    4b9c: 85 17        	sta	$17                     ; 0x2017 <wipeArea+0x14b>
    4b9e: a0 04        	ldy	#$4
    4ba0: a5 12        	lda	$12                     ; 0x2012 <wipeArea+0x146>
    4ba2: 91 12        	sta	($12),y                 ; 0x2012 <wipeArea+0x146>
    4ba4: a0 02        	ldy	#$2
    4ba6: 91 12        	sta	($12),y                 ; 0x2012 <wipeArea+0x146>
    4ba8: 88           	dey
    4ba9: a5 13        	lda	$13                     ; 0x2013 <wipeArea+0x147>
    4bab: 91 14        	sta	($14),y                 ; 0x2014 <wipeArea+0x148>
    4bad: 91 16        	sta	($16),y                 ; 0x2016 <wipeArea+0x14a>
    4baf: a6 12        	ldx	$12                     ; 0x2012 <wipeArea+0x146>
    4bb1: 8e 3f 9e     	stx	$9e3f                   ; 0x9e3f <_ZN12_GLOBAL__N_19free_listE>
    4bb4: a6 13        	ldx	$13                     ; 0x2013 <wipeArea+0x147>
    4bb6: 8e 40 9e     	stx	$9e40                   ; 0x9e40 <_ZN12_GLOBAL__N_19free_listE+0x1>
    4bb9: 4c e8 31     	jmp	$31e8 <main+0xfba>
    4bbc: a2 00        	ldx	#$0
    4bbe: 86 16        	stx	$16                     ; 0x2016 <wipeArea+0x14a>
    4bc0: a2 00        	ldx	#$0
    4bc2: 86 17        	stx	$17                     ; 0x2017 <wipeArea+0x14b>
    4bc4: 4c 02 45     	jmp	$4502 <main+0x22d4>
    4bc7: a0 01        	ldy	#$1
    4bc9: 8c 3c 9e     	sty	$9e3c                   ; 0x9e3c <_ZN12_GLOBAL__N_19last_freeE>
    4bcc: a6 14        	ldx	$14                     ; 0x2014 <wipeArea+0x148>
    4bce: 18           	clc
    4bcf: 4c d9 30     	jmp	$30d9 <main+0xeab>
    4bd2: e4 12        	cpx	$12                     ; 0x2012 <wipeArea+0x146>
    4bd4: d0 0b        	bne	$4be1 <main+0x29b3>
    4bd6: a2 00        	ldx	#$0
    4bd8: 86 18        	stx	$18                     ; 0x2018 <wipeArea+0x14c>
    4bda: a2 00        	ldx	#$0
    4bdc: 86 19        	stx	$19                     ; 0x2019 <wipeArea+0x14d>
    4bde: 4c 66 4c     	jmp	$4c66 <main+0x2a38>
    4be1: 86 1e        	stx	$1e                     ; 0x201e <wipeArea+0x152>
    4be3: a5 1b        	lda	$1b                     ; 0x201b <wipeArea+0x14f>
    4be5: a6 1b        	ldx	$1b                     ; 0x201b <wipeArea+0x14f>
    4be7: 86 22        	stx	$22                     ; 0x2022 <wipeArea+0x156>
    4be9: 18           	clc
    4bea: 69 04        	adc	#$4
    4bec: 85 18        	sta	$18                     ; 0x2018 <wipeArea+0x14c>
    4bee: a6 1a        	ldx	$1a                     ; 0x201a <wipeArea+0x14e>
    4bf0: 86 24        	stx	$24                     ; 0x2024 <wipeArea+0x158>
    4bf2: a5 1a        	lda	$1a                     ; 0x201a <wipeArea+0x14e>
    4bf4: 69 00        	adc	#$0
    4bf6: 85 19        	sta	$19                     ; 0x2019 <wipeArea+0x14d>
    4bf8: a0 04        	ldy	#$4
    4bfa: b1 12        	lda	($12),y                 ; 0x2012 <wipeArea+0x146>
    4bfc: aa           	tax
    4bfd: 18           	clc
    4bfe: 69 02        	adc	#$2
    4c00: 85 1a        	sta	$1a                     ; 0x201a <wipeArea+0x14e>
    4c02: a0 01        	ldy	#$1
    4c04: b1 18        	lda	($18),y                 ; 0x2018 <wipeArea+0x14c>
    4c06: 85 23        	sta	$23                     ; 0x2023 <wipeArea+0x157>
    4c08: 69 00        	adc	#$0
    4c0a: a4 1a        	ldy	$1a                     ; 0x201a <wipeArea+0x14e>
    4c0c: 84 18        	sty	$18                     ; 0x2018 <wipeArea+0x14c>
    4c0e: 85 19        	sta	$19                     ; 0x2019 <wipeArea+0x14d>
    4c10: 86 1a        	stx	$1a                     ; 0x201a <wipeArea+0x14e>
    4c12: a4 23        	ldy	$23                     ; 0x2023 <wipeArea+0x157>
    4c14: 84 1b        	sty	$1b                     ; 0x201b <wipeArea+0x14f>
    4c16: a0 02        	ldy	#$2
    4c18: a5 1e        	lda	$1e                     ; 0x201e <wipeArea+0x152>
    4c1a: 91 1a        	sta	($1a),y                 ; 0x201a <wipeArea+0x14e>
    4c1c: a5 1f        	lda	$1f                     ; 0x201f <wipeArea+0x153>
    4c1e: 88           	dey
    4c1f: 91 18        	sta	($18),y                 ; 0x2018 <wipeArea+0x14c>
    4c21: 18           	clc
    4c22: a5 22        	lda	$22                     ; 0x2022 <wipeArea+0x156>
    4c24: 69 02        	adc	#$2
    4c26: 85 18        	sta	$18                     ; 0x2018 <wipeArea+0x14c>
    4c28: a5 24        	lda	$24                     ; 0x2024 <wipeArea+0x158>
    4c2a: 69 00        	adc	#$0
    4c2c: 85 19        	sta	$19                     ; 0x2019 <wipeArea+0x14d>
    4c2e: c8           	iny
    4c2f: b1 12        	lda	($12),y                 ; 0x2012 <wipeArea+0x146>
    4c31: 85 1a        	sta	$1a                     ; 0x201a <wipeArea+0x14e>
    4c33: 88           	dey
    4c34: b1 18        	lda	($18),y                 ; 0x2018 <wipeArea+0x14c>
    4c36: a8           	tay
    4c37: a5 1a        	lda	$1a                     ; 0x201a <wipeArea+0x14e>
    4c39: 85 18        	sta	$18                     ; 0x2018 <wipeArea+0x14c>
    4c3b: 84 19        	sty	$19                     ; 0x2019 <wipeArea+0x14d>
    4c3d: 18           	clc
    4c3e: 69 04        	adc	#$4
    4c40: 85 1a        	sta	$1a                     ; 0x201a <wipeArea+0x14e>
    4c42: 98           	tya
    4c43: 69 00        	adc	#$0
    4c45: 85 1b        	sta	$1b                     ; 0x201b <wipeArea+0x14f>
    4c47: a0 04        	ldy	#$4
    4c49: 8a           	txa
    4c4a: 91 18        	sta	($18),y                 ; 0x2018 <wipeArea+0x14c>
    4c4c: a5 23        	lda	$23                     ; 0x2023 <wipeArea+0x157>
    4c4e: a0 01        	ldy	#$1
    4c50: 91 1a        	sta	($1a),y                 ; 0x201a <wipeArea+0x14e>
    4c52: ae 40 9e     	ldx	$9e40                   ; 0x9e40 <_ZN12_GLOBAL__N_19free_listE+0x1>
    4c55: e4 13        	cpx	$13                     ; 0x2013 <wipeArea+0x147>
    4c57: f0 03        	beq	$4c5c <main+0x2a2e>
    4c59: 4c bc 39     	jmp	$39bc <main+0x178e>
    4c5c: ae 3f 9e     	ldx	$9e3f                   ; 0x9e3f <_ZN12_GLOBAL__N_19free_listE>
    4c5f: e4 12        	cpx	$12                     ; 0x2012 <wipeArea+0x146>
    4c61: f0 03        	beq	$4c66 <main+0x2a38>
    4c63: 4c bc 39     	jmp	$39bc <main+0x178e>
    4c66: a6 18        	ldx	$18                     ; 0x2018 <wipeArea+0x14c>
    4c68: a4 19        	ldy	$19                     ; 0x2019 <wipeArea+0x14d>
    4c6a: 8e 3f 9e     	stx	$9e3f                   ; 0x9e3f <_ZN12_GLOBAL__N_19free_listE>
    4c6d: 8c 40 9e     	sty	$9e40                   ; 0x9e40 <_ZN12_GLOBAL__N_19free_listE+0x1>
    4c70: 4c bc 39     	jmp	$39bc <main+0x178e>
    4c73: ad 3b 9e     	lda	$9e3b                   ; 0x9e3b <_ZN12_GLOBAL__N_111initializedE>
    4c76: 29 01        	and	#$1
    4c78: ae 3f 9e     	ldx	$9e3f                   ; 0x9e3f <_ZN12_GLOBAL__N_19free_listE>
    4c7b: ac 40 9e     	ldy	$9e40                   ; 0x9e40 <_ZN12_GLOBAL__N_19free_listE+0x1>
    4c7e: 86 14        	stx	$14                     ; 0x2014 <wipeArea+0x148>
    4c80: 84 15        	sty	$15                     ; 0x2015 <wipeArea+0x149>
    4c82: c9 00        	cmp	#$0
    4c84: f0 03        	beq	$4c89 <main+0x2a5b>
    4c86: 4c 83 51     	jmp	$5183 <main+0x2f55>
    4c89: 86 19        	stx	$19                     ; 0x2019 <wipeArea+0x14d>
    4c8b: 84 1b        	sty	$1b                     ; 0x201b <wipeArea+0x14f>
    4c8d: a9 01        	lda	#$1
    4c8f: 2d ba 9e     	and	$9eba                   ; 0x9eba <__heap_start>
    4c92: 48           	pha
    4c93: a0 10        	ldy	#$10
    4c95: b1 10        	lda	($10),y                 ; 0x2010 <wipeArea+0x144>
    4c97: 85 12        	sta	$12                     ; 0x2012 <wipeArea+0x146>
    4c99: 68           	pla
    4c9a: 05 12        	ora	$12                     ; 0x2012 <wipeArea+0x146>
    4c9c: 8d ba 9e     	sta	$9eba                   ; 0x9eba <__heap_start>
    4c9f: a2 10        	ldx	#$10
    4ca1: 8e bb 9e     	stx	$9ebb                   ; 0x9ebb <__heap_start+0x1>
    4ca4: a9 00        	lda	#$0
    4ca6: 48           	pha
    4ca7: a0 0e        	ldy	#$e
    4ca9: b1 10        	lda	($10),y                 ; 0x2010 <wipeArea+0x144>
    4cab: 85 16        	sta	$16                     ; 0x2016 <wipeArea+0x14a>
    4cad: c8           	iny
    4cae: b1 10        	lda	($10),y                 ; 0x2010 <wipeArea+0x144>
    4cb0: 85 17        	sta	$17                     ; 0x2017 <wipeArea+0x14b>
    4cb2: 68           	pla
    4cb3: 92 16        	sta	($16)                   ; 0x2016 <wipeArea+0x14a>
    4cb5: a0 01        	ldy	#$1
    4cb7: a9 10        	lda	#$10
    4cb9: 91 16        	sta	($16),y                 ; 0x2016 <wipeArea+0x14a>
    4cbb: ae bb 9e     	ldx	$9ebb                   ; 0x9ebb <__heap_start+0x1>
    4cbe: a9 fe        	lda	#$fe
    4cc0: 2d ba 9e     	and	$9eba                   ; 0x9eba <__heap_start>
    4cc3: ac 3e 9e     	ldy	$9e3e                   ; 0x9e3e <_ZN12_GLOBAL__N_19free_sizeE+0x1>
    4cc6: 84 12        	sty	$12                     ; 0x2012 <wipeArea+0x146>
    4cc8: 85 18        	sta	$18                     ; 0x2018 <wipeArea+0x14c>
    4cca: 18           	clc
    4ccb: 6d 3d 9e     	adc	$9e3d                   ; 0x9e3d <_ZN12_GLOBAL__N_19free_sizeE>
    4cce: a8           	tay
    4ccf: a5 12        	lda	$12                     ; 0x2012 <wipeArea+0x146>
    4cd1: 6d bb 9e     	adc	$9ebb                   ; 0x9ebb <__heap_start+0x1>
    4cd4: 85 12        	sta	$12                     ; 0x2012 <wipeArea+0x146>
    4cd6: 18           	clc
    4cd7: 98           	tya
    4cd8: 69 fe        	adc	#$fe
    4cda: 85 13        	sta	$13                     ; 0x2013 <wipeArea+0x147>
    4cdc: a5 12        	lda	$12                     ; 0x2012 <wipeArea+0x146>
    4cde: 69 ff        	adc	#$ff
    4ce0: a4 13        	ldy	$13                     ; 0x2013 <wipeArea+0x147>
    4ce2: 8c 3d 9e     	sty	$9e3d                   ; 0x9e3d <_ZN12_GLOBAL__N_19free_sizeE>
    4ce5: 8d 3e 9e     	sta	$9e3e                   ; 0x9e3e <_ZN12_GLOBAL__N_19free_sizeE+0x1>
    4ce8: a0 00        	ldy	#$0
    4cea: 84 12        	sty	$12                     ; 0x2012 <wipeArea+0x146>
    4cec: a0 00        	ldy	#$0
    4cee: 84 13        	sty	$13                     ; 0x2013 <wipeArea+0x147>
    4cf0: a4 1b        	ldy	$1b                     ; 0x201b <wipeArea+0x14f>
    4cf2: 84 16        	sty	$16                     ; 0x2016 <wipeArea+0x14a>
    4cf4: c4 13        	cpy	$13                     ; 0x2013 <wipeArea+0x147>
    4cf6: f0 03        	beq	$4cfb <main+0x2acd>
    4cf8: 4c 14 51     	jmp	$5114 <main+0x2ee6>
    4cfb: a4 19        	ldy	$19                     ; 0x2019 <wipeArea+0x14d>
    4cfd: c4 12        	cpy	$12                     ; 0x2012 <wipeArea+0x146>
    4cff: f0 03        	beq	$4d04 <main+0x2ad6>
    4d01: 4c 14 51     	jmp	$5114 <main+0x2ee6>
    4d04: a0 ba        	ldy	#$ba
    4d06: 84 14        	sty	$14                     ; 0x2014 <wipeArea+0x148>
    4d08: a0 9e        	ldy	#$9e
    4d0a: 84 15        	sty	$15                     ; 0x2015 <wipeArea+0x149>
    4d0c: a0 ba        	ldy	#$ba
    4d0e: 8c be 9e     	sty	$9ebe                   ; 0x9ebe <__heap_start+0x4>
    4d11: a9 9e        	lda	#$9e
    4d13: 8d bf 9e     	sta	$9ebf                   ; 0x9ebf <__heap_start+0x5>
    4d16: 8c bc 9e     	sty	$9ebc                   ; 0x9ebc <__heap_start+0x2>
    4d19: 8d bd 9e     	sta	$9ebd                   ; 0x9ebd <__heap_start+0x3>
    4d1c: 8c 3f 9e     	sty	$9e3f                   ; 0x9e3f <_ZN12_GLOBAL__N_19free_listE>
    4d1f: 8d 40 9e     	sta	$9e40                   ; 0x9e40 <_ZN12_GLOBAL__N_19free_listE+0x1>
    4d22: a0 01        	ldy	#$1
    4d24: 4c 75 51     	jmp	$5175 <main+0x2f47>
    4d27: 86 1b        	stx	$1b                     ; 0x201b <wipeArea+0x14f>
    4d29: a6 12        	ldx	$12                     ; 0x2012 <wipeArea+0x146>
    4d2b: 18           	clc
    4d2c: a5 12        	lda	$12                     ; 0x2012 <wipeArea+0x146>
    4d2e: 86 1f        	stx	$1f                     ; 0x201f <wipeArea+0x153>
    4d30: 69 04        	adc	#$4
    4d32: 85 16        	sta	$16                     ; 0x2016 <wipeArea+0x14a>
    4d34: a5 13        	lda	$13                     ; 0x2013 <wipeArea+0x147>
    4d36: 69 00        	adc	#$0
    4d38: 85 17        	sta	$17                     ; 0x2017 <wipeArea+0x14b>
    4d3a: a0 04        	ldy	#$4
    4d3c: b1 12        	lda	($12),y                 ; 0x2012 <wipeArea+0x146>
    4d3e: aa           	tax
    4d3f: 18           	clc
    4d40: 69 02        	adc	#$2
    4d42: 85 18        	sta	$18                     ; 0x2018 <wipeArea+0x14c>
    4d44: a0 01        	ldy	#$1
    4d46: b1 16        	lda	($16),y                 ; 0x2016 <wipeArea+0x14a>
    4d48: 85 1e        	sta	$1e                     ; 0x201e <wipeArea+0x152>
    4d4a: 69 00        	adc	#$0
    4d4c: a4 18        	ldy	$18                     ; 0x2018 <wipeArea+0x14c>
    4d4e: 84 16        	sty	$16                     ; 0x2016 <wipeArea+0x14a>
    4d50: 85 17        	sta	$17                     ; 0x2017 <wipeArea+0x14b>
    4d52: 86 18        	stx	$18                     ; 0x2018 <wipeArea+0x14c>
    4d54: a4 1e        	ldy	$1e                     ; 0x201e <wipeArea+0x152>
    4d56: 84 19        	sty	$19                     ; 0x2019 <wipeArea+0x14d>
    4d58: a0 02        	ldy	#$2
    4d5a: a5 1b        	lda	$1b                     ; 0x201b <wipeArea+0x14f>
    4d5c: 91 18        	sta	($18),y                 ; 0x2018 <wipeArea+0x14c>
    4d5e: 88           	dey
    4d5f: a5 1c        	lda	$1c                     ; 0x201c <wipeArea+0x150>
    4d61: 91 16        	sta	($16),y                 ; 0x2016 <wipeArea+0x14a>
    4d63: 18           	clc
    4d64: a5 1f        	lda	$1f                     ; 0x201f <wipeArea+0x153>
    4d66: 69 02        	adc	#$2
    4d68: 85 16        	sta	$16                     ; 0x2016 <wipeArea+0x14a>
    4d6a: a5 13        	lda	$13                     ; 0x2013 <wipeArea+0x147>
    4d6c: 69 00        	adc	#$0
    4d6e: 85 17        	sta	$17                     ; 0x2017 <wipeArea+0x14b>
    4d70: c8           	iny
    4d71: b1 12        	lda	($12),y                 ; 0x2012 <wipeArea+0x146>
    4d73: 85 18        	sta	$18                     ; 0x2018 <wipeArea+0x14c>
    4d75: 88           	dey
    4d76: b1 16        	lda	($16),y                 ; 0x2016 <wipeArea+0x14a>
    4d78: a8           	tay
    4d79: a5 18        	lda	$18                     ; 0x2018 <wipeArea+0x14c>
    4d7b: 85 16        	sta	$16                     ; 0x2016 <wipeArea+0x14a>
    4d7d: 84 17        	sty	$17                     ; 0x2017 <wipeArea+0x14b>
    4d7f: 18           	clc
    4d80: 69 04        	adc	#$4
    4d82: 85 18        	sta	$18                     ; 0x2018 <wipeArea+0x14c>
    4d84: 98           	tya
    4d85: 69 00        	adc	#$0
    4d87: 85 19        	sta	$19                     ; 0x2019 <wipeArea+0x14d>
    4d89: a0 04        	ldy	#$4
    4d8b: 8a           	txa
    4d8c: 91 16        	sta	($16),y                 ; 0x2016 <wipeArea+0x14a>
    4d8e: a0 01        	ldy	#$1
    4d90: a5 1e        	lda	$1e                     ; 0x201e <wipeArea+0x152>
    4d92: 91 18        	sta	($18),y                 ; 0x2018 <wipeArea+0x14c>
    4d94: a6 15        	ldx	$15                     ; 0x2015 <wipeArea+0x149>
    4d96: e4 13        	cpx	$13                     ; 0x2013 <wipeArea+0x147>
    4d98: d0 1a        	bne	$4db4 <main+0x2b86>
    4d9a: a6 14        	ldx	$14                     ; 0x2014 <wipeArea+0x148>
    4d9c: e4 12        	cpx	$12                     ; 0x2012 <wipeArea+0x146>
    4d9e: d0 14        	bne	$4db4 <main+0x2b86>
    4da0: a6 16        	ldx	$16                     ; 0x2016 <wipeArea+0x14a>
    4da2: a4 17        	ldy	$17                     ; 0x2017 <wipeArea+0x14b>
    4da4: 8e 3f 9e     	stx	$9e3f                   ; 0x9e3f <_ZN12_GLOBAL__N_19free_listE>
    4da7: 8c 40 9e     	sty	$9e40                   ; 0x9e40 <_ZN12_GLOBAL__N_19free_listE+0x1>
    4daa: a6 16        	ldx	$16                     ; 0x2016 <wipeArea+0x14a>
    4dac: 86 14        	stx	$14                     ; 0x2014 <wipeArea+0x148>
    4dae: a6 17        	ldx	$17                     ; 0x2017 <wipeArea+0x14b>
    4db0: 86 15        	stx	$15                     ; 0x2015 <wipeArea+0x149>
    4db2: a0 01        	ldy	#$1
    4db4: b1 12        	lda	($12),y                 ; 0x2012 <wipeArea+0x146>
    4db6: 85 16        	sta	$16                     ; 0x2016 <wipeArea+0x14a>
    4db8: a9 fe        	lda	#$fe
    4dba: 32 12        	and	($12)                   ; 0x2012 <wipeArea+0x146>
    4dbc: 18           	clc
    4dbd: aa           	tax
    4dbe: 69 f8        	adc	#$f8
    4dc0: a8           	tay
    4dc1: a5 16        	lda	$16                     ; 0x2016 <wipeArea+0x14a>
    4dc3: 85 17        	sta	$17                     ; 0x2017 <wipeArea+0x14b>
    4dc5: 69 ff        	adc	#$ff
    4dc7: f0 03        	beq	$4dcc <main+0x2b9e>
    4dc9: 4c 5b 4e     	jmp	$4e5b <main+0x2c2d>
    4dcc: 85 18        	sta	$18                     ; 0x2018 <wipeArea+0x14c>
    4dce: 84 16        	sty	$16                     ; 0x2016 <wipeArea+0x14a>
    4dd0: c0 08        	cpy	#$8
    4dd2: a0 02        	ldy	#$2
    4dd4: 90 03        	bcc	$4dd9 <main+0x2bab>
    4dd6: 4c 68 4e     	jmp	$4e68 <main+0x2c3a>
    4dd9: 4c 35 52     	jmp	$5235 <main+0x3007>
    4ddc: a4 24        	ldy	$24                     ; 0x2024 <wipeArea+0x158>
    4dde: c0 fa        	cpy	#$fa
    4de0: b0 2b        	bcs	$4e0d <main+0x2bdf>
    4de2: a6 15        	ldx	$15                     ; 0x2015 <wipeArea+0x149>
    4de4: 8e 55 d6     	stx	$d655                   ; 0xd655 <__heap_start+0x379b>
    4de7: a6 14        	ldx	$14                     ; 0x2014 <wipeArea+0x148>
    4de9: 8e 56 d6     	stx	$d656                   ; 0xd656 <__heap_start+0x379c>
    4dec: 8d 57 d6     	sta	$d657                   ; 0xd657 <__heap_start+0x379d>
    4def: 9c 54 d6     	stz	$d654                   ; 0xd654 <__heap_start+0x379a>
    4df2: a2 02        	ldx	#$2
    4df4: 8e 50 d6     	stx	$d650                   ; 0xd650 <__heap_start+0x3796>
    4df7: a2 89        	ldx	#$89
    4df9: 8e 50 d6     	stx	$d650                   ; 0xd650 <__heap_start+0x3796>
    4dfc: 64 47        	stz	$47                     ; 0x2047 <wipeArea+0x17b>
    4dfe: 64 48        	stz	$48                     ; 0x2048 <wipeArea+0x17c>
    4e00: 64 49        	stz	$49                     ; 0x2049 <wipeArea+0x17d>
    4e02: 64 4a        	stz	$4a                     ; 0x204a <wipeArea+0x17e>
    4e04: 64 18        	stz	$18                     ; 0x2018 <wipeArea+0x14c>
    4e06: 4c 5f 3c     	jmp	$3c5f <main+0x1a31>
    4e09: c0 72        	cpy	#$72
    4e0b: 90 d5        	bcc	$4de2 <main+0x2bb4>
    4e0d: 64 18        	stz	$18                     ; 0x2018 <wipeArea+0x14c>
    4e0f: 4c 1c 3c     	jmp	$3c1c <main+0x19ee>
    4e12: a2 0c        	ldx	#$c
    4e14: 4c da 37     	jmp	$37da <main+0x15ac>
    4e17: a2 0e        	ldx	#$e
    4e19: 4c da 37     	jmp	$37da <main+0x15ac>
    4e1c: a2 1c        	ldx	#$1c
    4e1e: 4c da 37     	jmp	$37da <main+0x15ac>
    4e21: a6 2f        	ldx	$2f                     ; 0x202f <wipeArea+0x163>
    4e23: 86 12        	stx	$12                     ; 0x2012 <wipeArea+0x146>
    4e25: a6 2c        	ldx	$2c                     ; 0x202c <wipeArea+0x160>
    4e27: 86 13        	stx	$13                     ; 0x2013 <wipeArea+0x147>
    4e29: a0 02        	ldy	#$2
    4e2b: b1 12        	lda	($12),y                 ; 0x2012 <wipeArea+0x146>
    4e2d: f0 03        	beq	$4e32 <main+0x2c04>
    4e2f: 4c 3a 37     	jmp	$373a <main+0x150c>
    4e32: a0 03        	ldy	#$3
    4e34: b1 12        	lda	($12),y                 ; 0x2012 <wipeArea+0x146>
    4e36: f0 03        	beq	$4e3b <main+0x2c0d>
    4e38: 4c 3a 37     	jmp	$373a <main+0x150c>
    4e3b: 4c 42 37     	jmp	$3742 <main+0x1514>
    4e3e: a6 2f        	ldx	$2f                     ; 0x202f <wipeArea+0x163>
    4e40: 86 12        	stx	$12                     ; 0x2012 <wipeArea+0x146>
    4e42: a6 2c        	ldx	$2c                     ; 0x202c <wipeArea+0x160>
    4e44: 86 13        	stx	$13                     ; 0x2013 <wipeArea+0x147>
    4e46: a0 0e        	ldy	#$e
    4e48: b1 12        	lda	($12),y                 ; 0x2012 <wipeArea+0x146>
    4e4a: f0 03        	beq	$4e4f <main+0x2c21>
    4e4c: 4c 59 37     	jmp	$3759 <main+0x152b>
    4e4f: a0 0f        	ldy	#$f
    4e51: b1 12        	lda	($12),y                 ; 0x2012 <wipeArea+0x146>
    4e53: f0 03        	beq	$4e58 <main+0x2c2a>
    4e55: 4c 59 37     	jmp	$3759 <main+0x152b>
    4e58: 4c 6c 37     	jmp	$376c <main+0x153e>
    4e5b: 84 16        	sty	$16                     ; 0x2016 <wipeArea+0x14a>
    4e5d: 85 18        	sta	$18                     ; 0x2018 <wipeArea+0x14c>
    4e5f: c9 00        	cmp	#$0
    4e61: a0 02        	ldy	#$2
    4e63: b0 03        	bcs	$4e68 <main+0x2c3a>
    4e65: 4c 35 52     	jmp	$5235 <main+0x3007>
    4e68: a5 12        	lda	$12                     ; 0x2012 <wipeArea+0x146>
    4e6a: 18           	clc
    4e6b: 69 08        	adc	#$8
    4e6d: 85 19        	sta	$19                     ; 0x2019 <wipeArea+0x14d>
    4e6f: a5 13        	lda	$13                     ; 0x2013 <wipeArea+0x147>
    4e71: 69 00        	adc	#$0
    4e73: 85 1d        	sta	$1d                     ; 0x201d <wipeArea+0x151>
    4e75: a9 01        	lda	#$1
    4e77: a0 08        	ldy	#$8
    4e79: 31 12        	and	($12),y                 ; 0x2012 <wipeArea+0x146>
    4e7b: 5a           	phy
    4e7c: a4 16        	ldy	$16                     ; 0x2016 <wipeArea+0x14a>
    4e7e: 84 1e        	sty	$1e                     ; 0x201e <wipeArea+0x152>
    4e80: 7a           	ply
    4e81: 05 16        	ora	$16                     ; 0x2016 <wipeArea+0x14a>
    4e83: 91 12        	sta	($12),y                 ; 0x2012 <wipeArea+0x146>
    4e85: 18           	clc
    4e86: 8a           	txa
    4e87: 65 12        	adc	$12                     ; 0x2012 <wipeArea+0x146>
    4e89: aa           	tax
    4e8a: a5 17        	lda	$17                     ; 0x2017 <wipeArea+0x14b>
    4e8c: 65 13        	adc	$13                     ; 0x2013 <wipeArea+0x147>
    4e8e: a8           	tay
    4e8f: 18           	clc
    4e90: 8a           	txa
    4e91: 69 fe        	adc	#$fe
    4e93: aa           	tax
    4e94: 98           	tya
    4e95: 69 ff        	adc	#$ff
    4e97: 85 1f        	sta	$1f                     ; 0x201f <wipeArea+0x153>
    4e99: a4 19        	ldy	$19                     ; 0x2019 <wipeArea+0x14d>
    4e9b: 84 1c        	sty	$1c                     ; 0x201c <wipeArea+0x150>
    4e9d: a4 19        	ldy	$19                     ; 0x2019 <wipeArea+0x14d>
    4e9f: 84 16        	sty	$16                     ; 0x2016 <wipeArea+0x14a>
    4ea1: a4 1d        	ldy	$1d                     ; 0x201d <wipeArea+0x151>
    4ea3: 84 1b        	sty	$1b                     ; 0x201b <wipeArea+0x14f>
    4ea5: a4 1d        	ldy	$1d                     ; 0x201d <wipeArea+0x151>
    4ea7: 84 17        	sty	$17                     ; 0x2017 <wipeArea+0x14b>
    4ea9: a0 01        	ldy	#$1
    4eab: a5 18        	lda	$18                     ; 0x2018 <wipeArea+0x14c>
    4ead: 85 1d        	sta	$1d                     ; 0x201d <wipeArea+0x151>
    4eaf: a5 18        	lda	$18                     ; 0x2018 <wipeArea+0x14c>
    4eb1: 91 16        	sta	($16),y                 ; 0x2016 <wipeArea+0x14a>
    4eb3: 86 18        	stx	$18                     ; 0x2018 <wipeArea+0x14c>
    4eb5: a6 1f        	ldx	$1f                     ; 0x201f <wipeArea+0x153>
    4eb7: 86 19        	stx	$19                     ; 0x2019 <wipeArea+0x14d>
    4eb9: a5 1e        	lda	$1e                     ; 0x201e <wipeArea+0x152>
    4ebb: 92 18        	sta	($18)                   ; 0x2018 <wipeArea+0x14c>
    4ebd: a5 1d        	lda	$1d                     ; 0x201d <wipeArea+0x151>
    4ebf: 91 18        	sta	($18),y                 ; 0x2018 <wipeArea+0x14c>
    4ec1: b1 16        	lda	($16),y                 ; 0x2016 <wipeArea+0x14a>
    4ec3: 85 16        	sta	$16                     ; 0x2016 <wipeArea+0x14a>
    4ec5: a9 fe        	lda	#$fe
    4ec7: a0 08        	ldy	#$8
    4ec9: 31 12        	and	($12),y                 ; 0x2012 <wipeArea+0x146>
    4ecb: 18           	clc
    4ecc: 6d 3d 9e     	adc	$9e3d                   ; 0x9e3d <_ZN12_GLOBAL__N_19free_sizeE>
    4ecf: aa           	tax
    4ed0: a5 16        	lda	$16                     ; 0x2016 <wipeArea+0x14a>
    4ed2: 6d 3e 9e     	adc	$9e3e                   ; 0x9e3e <_ZN12_GLOBAL__N_19free_sizeE+0x1>
    4ed5: 85 16        	sta	$16                     ; 0x2016 <wipeArea+0x14a>
    4ed7: 18           	clc
    4ed8: 8a           	txa
    4ed9: 69 fe        	adc	#$fe
    4edb: 85 17        	sta	$17                     ; 0x2017 <wipeArea+0x14b>
    4edd: a5 16        	lda	$16                     ; 0x2016 <wipeArea+0x14a>
    4edf: 69 ff        	adc	#$ff
    4ee1: a6 17        	ldx	$17                     ; 0x2017 <wipeArea+0x14b>
    4ee3: 8e 3d 9e     	stx	$9e3d                   ; 0x9e3d <_ZN12_GLOBAL__N_19free_sizeE>
    4ee6: 8d 3e 9e     	sta	$9e3e                   ; 0x9e3e <_ZN12_GLOBAL__N_19free_sizeE+0x1>
    4ee9: a6 15        	ldx	$15                     ; 0x2015 <wipeArea+0x149>
    4eeb: a0 00        	ldy	#$0
    4eed: 84 16        	sty	$16                     ; 0x2016 <wipeArea+0x14a>
    4eef: a0 00        	ldy	#$0
    4ef1: 84 17        	sty	$17                     ; 0x2017 <wipeArea+0x14b>
    4ef3: e4 17        	cpx	$17                     ; 0x2017 <wipeArea+0x14b>
    4ef5: f0 03        	beq	$4efa <main+0x2ccc>
    4ef7: 4c 8e 51     	jmp	$518e <main+0x2f60>
    4efa: a6 14        	ldx	$14                     ; 0x2014 <wipeArea+0x148>
    4efc: e4 16        	cpx	$16                     ; 0x2016 <wipeArea+0x14a>
    4efe: f0 03        	beq	$4f03 <main+0x2cd5>
    4f00: 4c 8e 51     	jmp	$518e <main+0x2f60>
    4f03: 18           	clc
    4f04: a5 12        	lda	$12                     ; 0x2012 <wipeArea+0x146>
    4f06: 69 0c        	adc	#$c
    4f08: 85 14        	sta	$14                     ; 0x2014 <wipeArea+0x148>
    4f0a: a5 13        	lda	$13                     ; 0x2013 <wipeArea+0x147>
    4f0c: 69 00        	adc	#$0
    4f0e: 85 15        	sta	$15                     ; 0x2015 <wipeArea+0x149>
    4f10: 18           	clc
    4f11: a5 12        	lda	$12                     ; 0x2012 <wipeArea+0x146>
    4f13: 69 0a        	adc	#$a
    4f15: 85 16        	sta	$16                     ; 0x2016 <wipeArea+0x14a>
    4f17: a5 13        	lda	$13                     ; 0x2013 <wipeArea+0x147>
    4f19: 69 00        	adc	#$0
    4f1b: 85 17        	sta	$17                     ; 0x2017 <wipeArea+0x14b>
    4f1d: a0 0c        	ldy	#$c
    4f1f: a5 1c        	lda	$1c                     ; 0x201c <wipeArea+0x150>
    4f21: 91 12        	sta	($12),y                 ; 0x2012 <wipeArea+0x146>
    4f23: a0 0a        	ldy	#$a
    4f25: 91 12        	sta	($12),y                 ; 0x2012 <wipeArea+0x146>
    4f27: 8d 3f 9e     	sta	$9e3f                   ; 0x9e3f <_ZN12_GLOBAL__N_19free_listE>
    4f2a: a5 1b        	lda	$1b                     ; 0x201b <wipeArea+0x14f>
    4f2c: a0 01        	ldy	#$1
    4f2e: 91 14        	sta	($14),y                 ; 0x2014 <wipeArea+0x148>
    4f30: 91 16        	sta	($16),y                 ; 0x2016 <wipeArea+0x14a>
    4f32: 8d 40 9e     	sta	$9e40                   ; 0x9e40 <_ZN12_GLOBAL__N_19free_listE+0x1>
    4f35: 4c 23 52     	jmp	$5223 <main+0x2ff5>
    4f38: b2 16        	lda	($16)                   ; 0x2016 <wipeArea+0x14a>
    4f3a: 09 01        	ora	#$1
    4f3c: 92 16        	sta	($16)                   ; 0x2016 <wipeArea+0x14a>
    4f3e: a0 01        	ldy	#$1
    4f40: a5 1c        	lda	$1c                     ; 0x201c <wipeArea+0x150>
    4f42: 91 16        	sta	($16),y                 ; 0x2016 <wipeArea+0x14a>
    4f44: a6 14        	ldx	$14                     ; 0x2014 <wipeArea+0x148>
    4f46: a9 01        	lda	#$1
    4f48: 32 12        	and	($12)                   ; 0x2012 <wipeArea+0x146>
    4f4a: a4 15        	ldy	$15                     ; 0x2015 <wipeArea+0x149>
    4f4c: 84 16        	sty	$16                     ; 0x2016 <wipeArea+0x14a>
    4f4e: 05 15        	ora	$15                     ; 0x2015 <wipeArea+0x149>
    4f50: 92 12        	sta	($12)                   ; 0x2012 <wipeArea+0x146>
    4f52: a5 12        	lda	$12                     ; 0x2012 <wipeArea+0x146>
    4f54: 18           	clc
    4f55: 65 15        	adc	$15                     ; 0x2015 <wipeArea+0x149>
    4f57: a8           	tay
    4f58: 8a           	txa
    4f59: 65 13        	adc	$13                     ; 0x2013 <wipeArea+0x147>
    4f5b: 85 15        	sta	$15                     ; 0x2015 <wipeArea+0x149>
    4f5d: 18           	clc
    4f5e: 98           	tya
    4f5f: 69 fe        	adc	#$fe
    4f61: 85 14        	sta	$14                     ; 0x2014 <wipeArea+0x148>
    4f63: a5 15        	lda	$15                     ; 0x2015 <wipeArea+0x149>
    4f65: 69 ff        	adc	#$ff
    4f67: 85 15        	sta	$15                     ; 0x2015 <wipeArea+0x149>
    4f69: a0 01        	ldy	#$1
    4f6b: 8a           	txa
    4f6c: 91 12        	sta	($12),y                 ; 0x2012 <wipeArea+0x146>
    4f6e: a5 16        	lda	$16                     ; 0x2016 <wipeArea+0x14a>
    4f70: 92 14        	sta	($14)                   ; 0x2014 <wipeArea+0x148>
    4f72: 8a           	txa
    4f73: 91 14        	sta	($14),y                 ; 0x2014 <wipeArea+0x148>
    4f75: b1 12        	lda	($12),y                 ; 0x2012 <wipeArea+0x146>
    4f77: 85 14        	sta	$14                     ; 0x2014 <wipeArea+0x148>
    4f79: a9 fe        	lda	#$fe
    4f7b: 32 12        	and	($12)                   ; 0x2012 <wipeArea+0x146>
    4f7d: 18           	clc
    4f7e: 6d 3d 9e     	adc	$9e3d                   ; 0x9e3d <_ZN12_GLOBAL__N_19free_sizeE>
    4f81: aa           	tax
    4f82: a5 14        	lda	$14                     ; 0x2014 <wipeArea+0x148>
    4f84: 6d 3e 9e     	adc	$9e3e                   ; 0x9e3e <_ZN12_GLOBAL__N_19free_sizeE+0x1>
    4f87: 85 14        	sta	$14                     ; 0x2014 <wipeArea+0x148>
    4f89: 18           	clc
    4f8a: 8a           	txa
    4f8b: 69 fe        	adc	#$fe
    4f8d: 85 15        	sta	$15                     ; 0x2015 <wipeArea+0x149>
    4f8f: a5 14        	lda	$14                     ; 0x2014 <wipeArea+0x148>
    4f91: 69 ff        	adc	#$ff
    4f93: a6 15        	ldx	$15                     ; 0x2015 <wipeArea+0x149>
    4f95: 8e 3d 9e     	stx	$9e3d                   ; 0x9e3d <_ZN12_GLOBAL__N_19free_sizeE>
    4f98: 8d 3e 9e     	sta	$9e3e                   ; 0x9e3e <_ZN12_GLOBAL__N_19free_sizeE+0x1>
    4f9b: ae 3f 9e     	ldx	$9e3f                   ; 0x9e3f <_ZN12_GLOBAL__N_19free_listE>
    4f9e: 86 16        	stx	$16                     ; 0x2016 <wipeArea+0x14a>
    4fa0: ac 40 9e     	ldy	$9e40                   ; 0x9e40 <_ZN12_GLOBAL__N_19free_listE+0x1>
    4fa3: a2 00        	ldx	#$0
    4fa5: 86 14        	stx	$14                     ; 0x2014 <wipeArea+0x148>
    4fa7: a2 00        	ldx	#$0
    4fa9: 86 15        	stx	$15                     ; 0x2015 <wipeArea+0x149>
    4fab: c4 15        	cpy	$15                     ; 0x2015 <wipeArea+0x149>
    4fad: d0 40        	bne	$4fef <main+0x2dc1>
    4faf: a6 16        	ldx	$16                     ; 0x2016 <wipeArea+0x14a>
    4fb1: e4 14        	cpx	$14                     ; 0x2014 <wipeArea+0x148>
    4fb3: d0 3a        	bne	$4fef <main+0x2dc1>
    4fb5: a0 04        	ldy	#$4
    4fb7: 18           	clc
    4fb8: a5 12        	lda	$12                     ; 0x2012 <wipeArea+0x146>
    4fba: 69 04        	adc	#$4
    4fbc: 85 14        	sta	$14                     ; 0x2014 <wipeArea+0x148>
    4fbe: a5 13        	lda	$13                     ; 0x2013 <wipeArea+0x147>
    4fc0: 69 00        	adc	#$0
    4fc2: 18           	clc
    4fc3: 85 15        	sta	$15                     ; 0x2015 <wipeArea+0x149>
    4fc5: a5 12        	lda	$12                     ; 0x2012 <wipeArea+0x146>
    4fc7: 91 12        	sta	($12),y                 ; 0x2012 <wipeArea+0x146>
    4fc9: a0 02        	ldy	#$2
    4fcb: 85 17        	sta	$17                     ; 0x2017 <wipeArea+0x14b>
    4fcd: 69 02        	adc	#$2
    4fcf: 85 16        	sta	$16                     ; 0x2016 <wipeArea+0x14a>
    4fd1: a5 17        	lda	$17                     ; 0x2017 <wipeArea+0x14b>
    4fd3: 91 12        	sta	($12),y                 ; 0x2012 <wipeArea+0x146>
    4fd5: a5 13        	lda	$13                     ; 0x2013 <wipeArea+0x147>
    4fd7: 69 00        	adc	#$0
    4fd9: 85 17        	sta	$17                     ; 0x2017 <wipeArea+0x14b>
    4fdb: 88           	dey
    4fdc: a5 13        	lda	$13                     ; 0x2013 <wipeArea+0x147>
    4fde: 91 14        	sta	($14),y                 ; 0x2014 <wipeArea+0x148>
    4fe0: 91 16        	sta	($16),y                 ; 0x2016 <wipeArea+0x14a>
    4fe2: a6 12        	ldx	$12                     ; 0x2012 <wipeArea+0x146>
    4fe4: 8e 3f 9e     	stx	$9e3f                   ; 0x9e3f <_ZN12_GLOBAL__N_19free_listE>
    4fe7: a6 13        	ldx	$13                     ; 0x2013 <wipeArea+0x147>
    4fe9: 8e 40 9e     	stx	$9e40                   ; 0x9e40 <_ZN12_GLOBAL__N_19free_listE+0x1>
    4fec: 4c 87 50     	jmp	$5087 <main+0x2e59>
    4fef: a6 12        	ldx	$12                     ; 0x2012 <wipeArea+0x146>
    4ff1: a5 12        	lda	$12                     ; 0x2012 <wipeArea+0x146>
    4ff3: 86 1c        	stx	$1c                     ; 0x201c <wipeArea+0x150>
    4ff5: 18           	clc
    4ff6: 69 02        	adc	#$2
    4ff8: 85 14        	sta	$14                     ; 0x2014 <wipeArea+0x148>
    4ffa: a6 13        	ldx	$13                     ; 0x2013 <wipeArea+0x147>
    4ffc: 84 18        	sty	$18                     ; 0x2018 <wipeArea+0x14c>
    4ffe: a5 13        	lda	$13                     ; 0x2013 <wipeArea+0x147>
    5000: 69 00        	adc	#$0
    5002: 85 15        	sta	$15                     ; 0x2015 <wipeArea+0x149>
    5004: a5 16        	lda	$16                     ; 0x2016 <wipeArea+0x14a>
    5006: 84 17        	sty	$17                     ; 0x2017 <wipeArea+0x14b>
    5008: a0 02        	ldy	#$2
    500a: 91 12        	sta	($12),y                 ; 0x2012 <wipeArea+0x146>
    500c: 85 19        	sta	$19                     ; 0x2019 <wipeArea+0x14d>
    500e: 88           	dey
    500f: a5 18        	lda	$18                     ; 0x2018 <wipeArea+0x14c>
    5011: 91 14        	sta	($14),y                 ; 0x2014 <wipeArea+0x148>
    5013: 18           	clc
    5014: a5 19        	lda	$19                     ; 0x2019 <wipeArea+0x14d>
    5016: 69 04        	adc	#$4
    5018: a8           	tay
    5019: a5 18        	lda	$18                     ; 0x2018 <wipeArea+0x14c>
    501b: 69 00        	adc	#$0
    501d: 84 18        	sty	$18                     ; 0x2018 <wipeArea+0x14c>
    501f: 85 19        	sta	$19                     ; 0x2019 <wipeArea+0x14d>
    5021: a5 1c        	lda	$1c                     ; 0x201c <wipeArea+0x150>
    5023: 18           	clc
    5024: 69 04        	adc	#$4
    5026: 85 1a        	sta	$1a                     ; 0x201a <wipeArea+0x14e>
    5028: a5 13        	lda	$13                     ; 0x2013 <wipeArea+0x147>
    502a: 69 00        	adc	#$0
    502c: 85 1b        	sta	$1b                     ; 0x201b <wipeArea+0x14f>
    502e: a0 04        	ldy	#$4
    5030: b1 16        	lda	($16),y                 ; 0x2016 <wipeArea+0x14a>
    5032: 85 16        	sta	$16                     ; 0x2016 <wipeArea+0x14a>
    5034: 85 1d        	sta	$1d                     ; 0x201d <wipeArea+0x151>
    5036: a0 01        	ldy	#$1
    5038: b1 18        	lda	($18),y                 ; 0x2018 <wipeArea+0x14c>
    503a: 85 17        	sta	$17                     ; 0x2017 <wipeArea+0x14b>
    503c: 85 19        	sta	$19                     ; 0x2019 <wipeArea+0x14d>
    503e: a0 04        	ldy	#$4
    5040: a5 1d        	lda	$1d                     ; 0x201d <wipeArea+0x151>
    5042: 91 12        	sta	($12),y                 ; 0x2012 <wipeArea+0x146>
    5044: a5 19        	lda	$19                     ; 0x2019 <wipeArea+0x14d>
    5046: a0 01        	ldy	#$1
    5048: 91 1a        	sta	($1a),y                 ; 0x201a <wipeArea+0x14e>
    504a: 18           	clc
    504b: a5 1d        	lda	$1d                     ; 0x201d <wipeArea+0x151>
    504d: 69 02        	adc	#$2
    504f: 85 18        	sta	$18                     ; 0x2018 <wipeArea+0x14c>
    5051: a5 19        	lda	$19                     ; 0x2019 <wipeArea+0x14d>
    5053: 69 00        	adc	#$0
    5055: 85 19        	sta	$19                     ; 0x2019 <wipeArea+0x14d>
    5057: a5 1c        	lda	$1c                     ; 0x201c <wipeArea+0x150>
    5059: c8           	iny
    505a: 91 16        	sta	($16),y                 ; 0x2016 <wipeArea+0x14a>
    505c: a5 13        	lda	$13                     ; 0x2013 <wipeArea+0x147>
    505e: 88           	dey
    505f: 91 18        	sta	($18),y                 ; 0x2018 <wipeArea+0x14c>
    5061: c8           	iny
    5062: b1 12        	lda	($12),y                 ; 0x2012 <wipeArea+0x146>
    5064: 85 12        	sta	$12                     ; 0x2012 <wipeArea+0x146>
    5066: 85 16        	sta	$16                     ; 0x2016 <wipeArea+0x14a>
    5068: 88           	dey
    5069: b1 14        	lda	($14),y                 ; 0x2014 <wipeArea+0x148>
    506b: 85 13        	sta	$13                     ; 0x2013 <wipeArea+0x147>
    506d: 85 14        	sta	$14                     ; 0x2014 <wipeArea+0x148>
    506f: a5 1c        	lda	$1c                     ; 0x201c <wipeArea+0x150>
    5071: a0 04        	ldy	#$4
    5073: 91 12        	sta	($12),y                 ; 0x2012 <wipeArea+0x146>
    5075: 18           	clc
    5076: a5 16        	lda	$16                     ; 0x2016 <wipeArea+0x14a>
    5078: 69 04        	adc	#$4
    507a: 85 12        	sta	$12                     ; 0x2012 <wipeArea+0x146>
    507c: a5 14        	lda	$14                     ; 0x2014 <wipeArea+0x148>
    507e: 69 00        	adc	#$0
    5080: 85 13        	sta	$13                     ; 0x2013 <wipeArea+0x147>
    5082: 8a           	txa
    5083: a0 01        	ldy	#$1
    5085: 91 12        	sta	($12),y                 ; 0x2012 <wipeArea+0x146>
    5087: a6 2f        	ldx	$2f                     ; 0x202f <wipeArea+0x163>
    5089: 86 12        	stx	$12                     ; 0x2012 <wipeArea+0x146>
    508b: a6 2c        	ldx	$2c                     ; 0x202c <wipeArea+0x160>
    508d: 86 13        	stx	$13                     ; 0x2013 <wipeArea+0x147>
    508f: a2 52        	ldx	#$52
    5091: 86 14        	stx	$14                     ; 0x2014 <wipeArea+0x148>
    5093: a2 00        	ldx	#$0
    5095: 86 15        	stx	$15                     ; 0x2015 <wipeArea+0x149>
    5097: 64 4b        	stz	$4b                     ; 0x204b <wipeArea+0x17f>
    5099: 20 00 ff     	jsr	$ff00 <__heap_start+0x6046>
    509c: 92 12        	sta	($12)                   ; 0x2012 <wipeArea+0x146>
    509e: a9 00        	lda	#$0
    50a0: 6a           	ror
    50a1: 85 14        	sta	$14                     ; 0x2014 <wipeArea+0x148>
    50a3: a6 4b        	ldx	$4b                     ; 0x204b <wipeArea+0x17f>
    50a5: e0 32        	cpx	#$32
    50a7: f0 04        	beq	$50ad <main+0x2e7f>
    50a9: e0 38        	cpx	#$38
    50ab: d0 ea        	bne	$5097 <main+0x2e69>
    50ad: 20 f4 20     	jsr	$20f4 <opl3_initialize>
    50b0: 78           	sei
    50b1: a2 07        	ldx	#$7
    50b3: 86 0f        	stx	$f                      ; 0x200f <wipeArea+0x143>
    50b5: a2 de        	ldx	#$de
    50b7: 8e a2 d6     	stx	$d6a2                   ; 0xd6a2 <__heap_start+0x37e8>
    50ba: a2 ad        	ldx	#$ad
    50bc: 8e a3 d6     	stx	$d6a3                   ; 0xd6a3 <__heap_start+0x37e9>
    50bf: a2 f0        	ldx	#$f0
    50c1: 8e a0 d6     	stx	$d6a0                   ; 0xd6a0 <__heap_start+0x37e6>
    50c4: 9c a0 d6     	stz	$d6a0                   ; 0xd6a0 <__heap_start+0x37e6>
    50c7: 6c fc ff     	jmp	($fffc)                 ; 0xfffc <__heap_start+0x6142>
    50ca: a2 00        	ldx	#$0
    50cc: 8a           	txa
    50cd: 85 20        	sta	$20                     ; 0x2020 <wipeArea+0x154>
    50cf: a0 06        	ldy	#$6
    50d1: b1 10        	lda	($10),y                 ; 0x2010 <wipeArea+0x144>
    50d3: 85 2f        	sta	$2f                     ; 0x202f <wipeArea+0x163>
    50d5: c8           	iny
    50d6: b1 10        	lda	($10),y                 ; 0x2010 <wipeArea+0x144>
    50d8: 85 2e        	sta	$2e                     ; 0x202e <wipeArea+0x162>
    50da: c8           	iny
    50db: b1 10        	lda	($10),y                 ; 0x2010 <wipeArea+0x144>
    50dd: 85 2d        	sta	$2d                     ; 0x202d <wipeArea+0x161>
    50df: c8           	iny
    50e0: b1 10        	lda	($10),y                 ; 0x2010 <wipeArea+0x144>
    50e2: 85 2c        	sta	$2c                     ; 0x202c <wipeArea+0x160>
    50e4: c8           	iny
    50e5: b1 10        	lda	($10),y                 ; 0x2010 <wipeArea+0x144>
    50e7: 85 2b        	sta	$2b                     ; 0x202b <wipeArea+0x15f>
    50e9: c8           	iny
    50ea: b1 10        	lda	($10),y                 ; 0x2010 <wipeArea+0x144>
    50ec: 85 2a        	sta	$2a                     ; 0x202a <wipeArea+0x15e>
    50ee: c8           	iny
    50ef: b1 10        	lda	($10),y                 ; 0x2010 <wipeArea+0x144>
    50f1: 85 29        	sta	$29                     ; 0x2029 <wipeArea+0x15d>
    50f3: c8           	iny
    50f4: b1 10        	lda	($10),y                 ; 0x2010 <wipeArea+0x144>
    50f6: 85 28        	sta	$28                     ; 0x2028 <wipeArea+0x15c>
    50f8: 7a           	ply
    50f9: 84 27        	sty	$27                     ; 0x2027 <wipeArea+0x15b>
    50fb: 7a           	ply
    50fc: 84 26        	sty	$26                     ; 0x2026 <wipeArea+0x15a>
    50fe: 7a           	ply
    50ff: 84 25        	sty	$25                     ; 0x2025 <wipeArea+0x159>
    5101: 7a           	ply
    5102: 84 24        	sty	$24                     ; 0x2024 <wipeArea+0x158>
    5104: 18           	clc
    5105: a5 10        	lda	$10                     ; 0x2010 <wipeArea+0x144>
    5107: 69 69        	adc	#$69
    5109: 85 10        	sta	$10                     ; 0x2010 <wipeArea+0x144>
    510b: a5 11        	lda	$11                     ; 0x2011 <wipeArea+0x145>
    510d: 69 00        	adc	#$0
    510f: 85 11        	sta	$11                     ; 0x2011 <wipeArea+0x145>
    5111: a5 20        	lda	$20                     ; 0x2020 <wipeArea+0x154>
    5113: 60           	rts
    5114: a5 19        	lda	$19                     ; 0x2019 <wipeArea+0x14d>
    5116: 8d bc 9e     	sta	$9ebc                   ; 0x9ebc <__heap_start+0x2>
    5119: a4 16        	ldy	$16                     ; 0x2016 <wipeArea+0x14a>
    511b: 8c bd 9e     	sty	$9ebd                   ; 0x9ebd <__heap_start+0x3>
    511e: 18           	clc
    511f: 69 04        	adc	#$4
    5121: 85 12        	sta	$12                     ; 0x2012 <wipeArea+0x146>
    5123: a5 16        	lda	$16                     ; 0x2016 <wipeArea+0x14a>
    5125: 69 00        	adc	#$0
    5127: 85 13        	sta	$13                     ; 0x2013 <wipeArea+0x147>
    5129: a0 04        	ldy	#$4
    512b: b1 14        	lda	($14),y                 ; 0x2014 <wipeArea+0x148>
    512d: 85 16        	sta	$16                     ; 0x2016 <wipeArea+0x14a>
    512f: a0 01        	ldy	#$1
    5131: b1 12        	lda	($12),y                 ; 0x2012 <wipeArea+0x146>
    5133: a8           	tay
    5134: a5 16        	lda	$16                     ; 0x2016 <wipeArea+0x14a>
    5136: 85 12        	sta	$12                     ; 0x2012 <wipeArea+0x146>
    5138: 84 13        	sty	$13                     ; 0x2013 <wipeArea+0x147>
    513a: 8d be 9e     	sta	$9ebe                   ; 0x9ebe <__heap_start+0x4>
    513d: 8c bf 9e     	sty	$9ebf                   ; 0x9ebf <__heap_start+0x5>
    5140: 18           	clc
    5141: 69 02        	adc	#$2
    5143: 85 16        	sta	$16                     ; 0x2016 <wipeArea+0x14a>
    5145: 98           	tya
    5146: 69 00        	adc	#$0
    5148: 85 17        	sta	$17                     ; 0x2017 <wipeArea+0x14b>
    514a: a9 ba        	lda	#$ba
    514c: a0 02        	ldy	#$2
    514e: 91 12        	sta	($12),y                 ; 0x2012 <wipeArea+0x146>
    5150: a9 9e        	lda	#$9e
    5152: 88           	dey
    5153: 91 16        	sta	($16),y                 ; 0x2016 <wipeArea+0x14a>
    5155: ad bc 9e     	lda	$9ebc                   ; 0x9ebc <__heap_start+0x2>
    5158: ac bd 9e     	ldy	$9ebd                   ; 0x9ebd <__heap_start+0x3>
    515b: 85 12        	sta	$12                     ; 0x2012 <wipeArea+0x146>
    515d: 84 13        	sty	$13                     ; 0x2013 <wipeArea+0x147>
    515f: 18           	clc
    5160: 69 04        	adc	#$4
    5162: 85 16        	sta	$16                     ; 0x2016 <wipeArea+0x14a>
    5164: 98           	tya
    5165: 69 00        	adc	#$0
    5167: 85 17        	sta	$17                     ; 0x2017 <wipeArea+0x14b>
    5169: a0 04        	ldy	#$4
    516b: a9 ba        	lda	#$ba
    516d: 91 12        	sta	($12),y                 ; 0x2012 <wipeArea+0x146>
    516f: a0 01        	ldy	#$1
    5171: a9 9e        	lda	#$9e
    5173: 91 16        	sta	($16),y                 ; 0x2016 <wipeArea+0x14a>
    5175: a5 18        	lda	$18                     ; 0x2018 <wipeArea+0x14c>
    5177: 8d ba 9e     	sta	$9eba                   ; 0x9eba <__heap_start>
    517a: 8e bb 9e     	stx	$9ebb                   ; 0x9ebb <__heap_start+0x1>
    517d: 8c 3c 9e     	sty	$9e3c                   ; 0x9e3c <_ZN12_GLOBAL__N_19last_freeE>
    5180: 8c 3b 9e     	sty	$9e3b                   ; 0x9e3b <_ZN12_GLOBAL__N_111initializedE>
    5183: a6 14        	ldx	$14                     ; 0x2014 <wipeArea+0x148>
    5185: 86 12        	stx	$12                     ; 0x2012 <wipeArea+0x146>
    5187: a6 15        	ldx	$15                     ; 0x2015 <wipeArea+0x149>
    5189: 86 13        	stx	$13                     ; 0x2013 <wipeArea+0x147>
    518b: 4c 4d 46     	jmp	$464d <main+0x241f>
    518e: 18           	clc
    518f: a5 12        	lda	$12                     ; 0x2012 <wipeArea+0x146>
    5191: 69 0a        	adc	#$a
    5193: 85 16        	sta	$16                     ; 0x2016 <wipeArea+0x14a>
    5195: a5 13        	lda	$13                     ; 0x2013 <wipeArea+0x147>
    5197: 69 00        	adc	#$0
    5199: 85 17        	sta	$17                     ; 0x2017 <wipeArea+0x14b>
    519b: a5 14        	lda	$14                     ; 0x2014 <wipeArea+0x148>
    519d: a0 0a        	ldy	#$a
    519f: 91 12        	sta	($12),y                 ; 0x2012 <wipeArea+0x146>
    51a1: 85 19        	sta	$19                     ; 0x2019 <wipeArea+0x14d>
    51a3: a0 01        	ldy	#$1
    51a5: a5 15        	lda	$15                     ; 0x2015 <wipeArea+0x149>
    51a7: 91 16        	sta	($16),y                 ; 0x2016 <wipeArea+0x14a>
    51a9: 18           	clc
    51aa: a5 19        	lda	$19                     ; 0x2019 <wipeArea+0x14d>
    51ac: 69 04        	adc	#$4
    51ae: a8           	tay
    51af: a5 15        	lda	$15                     ; 0x2015 <wipeArea+0x149>
    51b1: 69 00        	adc	#$0
    51b3: 85 19        	sta	$19                     ; 0x2019 <wipeArea+0x14d>
    51b5: 84 18        	sty	$18                     ; 0x2018 <wipeArea+0x14c>
    51b7: a0 04        	ldy	#$4
    51b9: b1 14        	lda	($14),y                 ; 0x2014 <wipeArea+0x148>
    51bb: 85 1f        	sta	$1f                     ; 0x201f <wipeArea+0x153>
    51bd: 18           	clc
    51be: a5 12        	lda	$12                     ; 0x2012 <wipeArea+0x146>
    51c0: 69 0c        	adc	#$c
    51c2: 85 1e        	sta	$1e                     ; 0x201e <wipeArea+0x152>
    51c4: a5 13        	lda	$13                     ; 0x2013 <wipeArea+0x147>
    51c6: 69 00        	adc	#$0
    51c8: aa           	tax
    51c9: a0 01        	ldy	#$1
    51cb: b1 18        	lda	($18),y                 ; 0x2018 <wipeArea+0x14c>
    51cd: a4 1f        	ldy	$1f                     ; 0x201f <wipeArea+0x153>
    51cf: 84 14        	sty	$14                     ; 0x2014 <wipeArea+0x148>
    51d1: 85 15        	sta	$15                     ; 0x2015 <wipeArea+0x149>
    51d3: 85 1d        	sta	$1d                     ; 0x201d <wipeArea+0x151>
    51d5: a4 1e        	ldy	$1e                     ; 0x201e <wipeArea+0x152>
    51d7: 84 18        	sty	$18                     ; 0x2018 <wipeArea+0x14c>
    51d9: 86 19        	stx	$19                     ; 0x2019 <wipeArea+0x14d>
    51db: a0 0c        	ldy	#$c
    51dd: a5 1f        	lda	$1f                     ; 0x201f <wipeArea+0x153>
    51df: 91 12        	sta	($12),y                 ; 0x2012 <wipeArea+0x146>
    51e1: a0 01        	ldy	#$1
    51e3: a5 1d        	lda	$1d                     ; 0x201d <wipeArea+0x151>
    51e5: 91 18        	sta	($18),y                 ; 0x2018 <wipeArea+0x14c>
    51e7: 18           	clc
    51e8: a5 1f        	lda	$1f                     ; 0x201f <wipeArea+0x153>
    51ea: 69 02        	adc	#$2
    51ec: 85 18        	sta	$18                     ; 0x2018 <wipeArea+0x14c>
    51ee: a5 1d        	lda	$1d                     ; 0x201d <wipeArea+0x151>
    51f0: 69 00        	adc	#$0
    51f2: 85 19        	sta	$19                     ; 0x2019 <wipeArea+0x14d>
    51f4: c8           	iny
    51f5: a5 1c        	lda	$1c                     ; 0x201c <wipeArea+0x150>
    51f7: 91 14        	sta	($14),y                 ; 0x2014 <wipeArea+0x148>
    51f9: a5 1b        	lda	$1b                     ; 0x201b <wipeArea+0x14f>
    51fb: 88           	dey
    51fc: 91 18        	sta	($18),y                 ; 0x2018 <wipeArea+0x14c>
    51fe: a0 0a        	ldy	#$a
    5200: b1 12        	lda	($12),y                 ; 0x2012 <wipeArea+0x146>
    5202: 85 14        	sta	$14                     ; 0x2014 <wipeArea+0x148>
    5204: a0 01        	ldy	#$1
    5206: b1 16        	lda	($16),y                 ; 0x2016 <wipeArea+0x14a>
    5208: a8           	tay
    5209: a5 14        	lda	$14                     ; 0x2014 <wipeArea+0x148>
    520b: 84 15        	sty	$15                     ; 0x2015 <wipeArea+0x149>
    520d: 18           	clc
    520e: 69 04        	adc	#$4
    5210: 85 16        	sta	$16                     ; 0x2016 <wipeArea+0x14a>
    5212: 98           	tya
    5213: 69 00        	adc	#$0
    5215: 85 17        	sta	$17                     ; 0x2017 <wipeArea+0x14b>
    5217: a0 04        	ldy	#$4
    5219: a5 1c        	lda	$1c                     ; 0x201c <wipeArea+0x150>
    521b: 91 14        	sta	($14),y                 ; 0x2014 <wipeArea+0x148>
    521d: a0 01        	ldy	#$1
    521f: a5 1b        	lda	$1b                     ; 0x201b <wipeArea+0x14f>
    5221: 91 16        	sta	($16),y                 ; 0x2016 <wipeArea+0x14a>
    5223: a9 01        	lda	#$1
    5225: 32 12        	and	($12)                   ; 0x2012 <wipeArea+0x146>
    5227: 09 08        	ora	#$8
    5229: 92 12        	sta	($12)                   ; 0x2012 <wipeArea+0x146>
    522b: a2 08        	ldx	#$8
    522d: a9 00        	lda	#$0
    522f: 64 17        	stz	$17                     ; 0x2017 <wipeArea+0x14b>
    5231: 91 12        	sta	($12),y                 ; 0x2012 <wipeArea+0x146>
    5233: a0 02        	ldy	#$2
    5235: 18           	clc
    5236: 8a           	txa
    5237: 65 12        	adc	$12                     ; 0x2012 <wipeArea+0x146>
    5239: aa           	tax
    523a: a5 17        	lda	$17                     ; 0x2017 <wipeArea+0x14b>
    523c: 65 13        	adc	$13                     ; 0x2013 <wipeArea+0x147>
    523e: 48           	pha
    523f: 5a           	phy
    5240: a0 16        	ldy	#$16
    5242: b1 10        	lda	($10),y                 ; 0x2010 <wipeArea+0x144>
    5244: 7a           	ply
    5245: 85 14        	sta	$14                     ; 0x2014 <wipeArea+0x148>
    5247: 68           	pla
    5248: 85 15        	sta	$15                     ; 0x2015 <wipeArea+0x149>
    524a: c5 14        	cmp	$14                     ; 0x2014 <wipeArea+0x148>
    524c: d0 11        	bne	$525f <main+0x3031>
    524e: 5a           	phy
    524f: a0 14        	ldy	#$14
    5251: b1 10        	lda	($10),y                 ; 0x2010 <wipeArea+0x144>
    5253: 7a           	ply
    5254: 85 14        	sta	$14                     ; 0x2014 <wipeArea+0x148>
    5256: e4 14        	cpx	$14                     ; 0x2014 <wipeArea+0x148>
    5258: d0 05        	bne	$525f <main+0x3031>
    525a: 9c 3c 9e     	stz	$9e3c                   ; 0x9e3c <_ZN12_GLOBAL__N_19last_freeE>
    525d: 80 13        	bra	$5272 <main+0x3044>
    525f: 86 14        	stx	$14                     ; 0x2014 <wipeArea+0x148>
    5261: a0 01        	ldy	#$1
    5263: b1 14        	lda	($14),y                 ; 0x2014 <wipeArea+0x148>
    5265: 85 16        	sta	$16                     ; 0x2016 <wipeArea+0x14a>
    5267: a9 fe        	lda	#$fe
    5269: 32 14        	and	($14)                   ; 0x2014 <wipeArea+0x148>
    526b: 92 14        	sta	($14)                   ; 0x2014 <wipeArea+0x148>
    526d: a5 16        	lda	$16                     ; 0x2016 <wipeArea+0x14a>
    526f: 91 14        	sta	($14),y                 ; 0x2014 <wipeArea+0x148>
    5271: c8           	iny
    5272: a5 1a        	lda	$1a                     ; 0x201a <wipeArea+0x14e>
    5274: 91 12        	sta	($12),y                 ; 0x2012 <wipeArea+0x146>
    5276: a0 19        	ldy	#$19
    5278: b1 10        	lda	($10),y                 ; 0x2010 <wipeArea+0x144>
    527a: 85 14        	sta	$14                     ; 0x2014 <wipeArea+0x148>
    527c: c8           	iny
    527d: b1 10        	lda	($10),y                 ; 0x2010 <wipeArea+0x144>
    527f: 85 15        	sta	$15                     ; 0x2015 <wipeArea+0x149>
    5281: 4c 99 35     	jmp	$3599 <main+0x136b>

00005284 <textGotoXY>:
    5284: 85 53        	sta	$53                     ; 0x2053 <wipeArea+0x187>
    5286: 8d 14 d0     	sta	$d014                   ; 0xd014 <__heap_start+0x315a>
    5289: 9c 15 d0     	stz	$d015                   ; 0xd015 <__heap_start+0x315b>
    528c: 86 54        	stx	$54                     ; 0x2054 <wipeArea+0x188>
    528e: 8e 16 d0     	stx	$d016                   ; 0xd016 <__heap_start+0x315c>
    5291: 9c 17 d0     	stz	$d017                   ; 0xd017 <__heap_start+0x315d>
    5294: 60           	rts

00005295 <fileRead>:
    5295: 85 16        	sta	$16                     ; 0x2016 <wipeArea+0x14a>
    5297: 86 17        	stx	$17                     ; 0x2017 <wipeArea+0x14b>
    5299: 64 18        	stz	$18                     ; 0x2018 <wipeArea+0x14c>
    529b: a6 12        	ldx	$12                     ; 0x2012 <wipeArea+0x146>
    529d: 86 1a        	stx	$1a                     ; 0x201a <wipeArea+0x14e>
    529f: a6 13        	ldx	$13                     ; 0x2013 <wipeArea+0x147>
    52a1: 86 1b        	stx	$1b                     ; 0x201b <wipeArea+0x14f>
    52a3: a2 60        	ldx	#$60
    52a5: a0 00        	ldy	#$0
    52a7: a9 52        	lda	#$52
    52a9: 85 12        	sta	$12                     ; 0x2012 <wipeArea+0x146>
    52ab: a9 00        	lda	#$0
    52ad: 85 13        	sta	$13                     ; 0x2013 <wipeArea+0x147>
    52af: 64 19        	stz	$19                     ; 0x2019 <wipeArea+0x14d>
    52b1: b2 14        	lda	($14)                   ; 0x2014 <wipeArea+0x148>
    52b3: 85 1d        	sta	$1d                     ; 0x201d <wipeArea+0x151>
    52b5: a5 1a        	lda	$1a                     ; 0x201a <wipeArea+0x14e>
    52b7: 85 1e        	sta	$1e                     ; 0x201e <wipeArea+0x152>
    52b9: a5 1a        	lda	$1a                     ; 0x201a <wipeArea+0x14e>
    52bb: 18           	clc
    52bc: 65 18        	adc	$18                     ; 0x2018 <wipeArea+0x14c>
    52be: 85 1c        	sta	$1c                     ; 0x201c <wipeArea+0x150>
    52c0: a5 1b        	lda	$1b                     ; 0x201b <wipeArea+0x14f>
    52c2: 85 1f        	sta	$1f                     ; 0x201f <wipeArea+0x153>
    52c4: a5 1b        	lda	$1b                     ; 0x201b <wipeArea+0x14f>
    52c6: 65 19        	adc	$19                     ; 0x2019 <wipeArea+0x14d>
    52c8: e6 1d        	inc	$1d                     ; 0x201d <wipeArea+0x151>
    52ca: c6 1d        	dec	$1d                     ; 0x201d <wipeArea+0x151>
    52cc: d0 03        	bne	$52d1 <fileRead+0x3c>
    52ce: 4c 4e 53     	jmp	$534e <fileRead+0xb9>
    52d1: 5a           	phy
    52d2: a4 1d        	ldy	$1d                     ; 0x201d <wipeArea+0x151>
    52d4: 84 1a        	sty	$1a                     ; 0x201a <wipeArea+0x14e>
    52d6: 7a           	ply
    52d7: 85 1d        	sta	$1d                     ; 0x201d <wipeArea+0x151>
    52d9: a5 16        	lda	$16                     ; 0x2016 <wipeArea+0x14a>
    52db: 38           	sec
    52dc: e5 18        	sbc	$18                     ; 0x2018 <wipeArea+0x14c>
    52de: 85 1b        	sta	$1b                     ; 0x201b <wipeArea+0x14f>
    52e0: a5 1a        	lda	$1a                     ; 0x201a <wipeArea+0x14e>
    52e2: 85 f3        	sta	$f3                     ; 0x20f3 <wipeArea+0x227>
    52e4: a5 1b        	lda	$1b                     ; 0x201b <wipeArea+0x14f>
    52e6: 85 f4        	sta	$f4                     ; 0x20f4 <opl3_initialize>
    52e8: a9 62        	lda	#$62
    52ea: 85 1a        	sta	$1a                     ; 0x201a <wipeArea+0x14e>
    52ec: a9 00        	lda	#$0
    52ee: 85 1b        	sta	$1b                     ; 0x201b <wipeArea+0x14f>
    52f0: 20 60 ff     	jsr	$ff60 <__heap_start+0x60a6>
    52f3: 92 1a        	sta	($1a)                   ; 0x201a <wipeArea+0x14e>
    52f5: a9 00        	lda	#$0
    52f7: 6a           	ror
    52f8: 85 12        	sta	$12                     ; 0x2012 <wipeArea+0x146>
    52fa: a5 52        	lda	$52                     ; 0x2052 <wipeArea+0x186>
    52fc: f0 03        	beq	$5301 <fileRead+0x6c>
    52fe: 4c ca 53     	jmp	$53ca <fileRead+0x135>
    5301: 64 4b        	stz	$4b                     ; 0x204b <wipeArea+0x17f>
    5303: a9 63        	lda	#$63
    5305: 85 1a        	sta	$1a                     ; 0x201a <wipeArea+0x14e>
    5307: a9 00        	lda	#$0
    5309: 85 1b        	sta	$1b                     ; 0x201b <wipeArea+0x14f>
    530b: 20 00 ff     	jsr	$ff00 <__heap_start+0x6046>
    530e: 92 1a        	sta	($1a)                   ; 0x201a <wipeArea+0x14e>
    5310: a9 00        	lda	#$0
    5312: 6a           	ror
    5313: 85 12        	sta	$12                     ; 0x2012 <wipeArea+0x146>
    5315: a5 4b        	lda	$4b                     ; 0x204b <wipeArea+0x17f>
    5317: c9 38        	cmp	#$38
    5319: d0 03        	bne	$531e <fileRead+0x89>
    531b: 4c ca 53     	jmp	$53ca <fileRead+0x135>
    531e: c9 30        	cmp	#$30
    5320: d0 03        	bne	$5325 <fileRead+0x90>
    5322: 4c d3 53     	jmp	$53d3 <fileRead+0x13e>
    5325: c9 2c        	cmp	#$2c
    5327: d0 d8        	bne	$5301 <fileRead+0x6c>
    5329: a5 1c        	lda	$1c                     ; 0x201c <wipeArea+0x150>
    532b: 85 fb        	sta	$fb                     ; 0x20fb <opl3_initialize+0x7>
    532d: a5 1d        	lda	$1d                     ; 0x201d <wipeArea+0x151>
    532f: 85 fc        	sta	$fc                     ; 0x20fc <opl3_initialize+0x8>
    5331: a5 51        	lda	$51                     ; 0x2051 <wipeArea+0x185>
    5333: 85 fd        	sta	$fd                     ; 0x20fd <opl3_initialize+0x9>
    5335: a9 64        	lda	#$64
    5337: 85 1a        	sta	$1a                     ; 0x201a <wipeArea+0x14e>
    5339: a9 00        	lda	#$0
    533b: 85 1b        	sta	$1b                     ; 0x201b <wipeArea+0x14f>
    533d: 20 04 ff     	jsr	$ff04 <__heap_start+0x604a>
    5340: 92 1a        	sta	($1a)                   ; 0x201a <wipeArea+0x14e>
    5342: a9 00        	lda	#$0
    5344: 6a           	ror
    5345: 85 12        	sta	$12                     ; 0x2012 <wipeArea+0x146>
    5347: a5 51        	lda	$51                     ; 0x2051 <wipeArea+0x185>
    5349: d0 43        	bne	$538e <fileRead+0xf9>
    534b: 4c dd 53     	jmp	$53dd <fileRead+0x148>
    534e: 5a           	phy
    534f: a4 1c        	ldy	$1c                     ; 0x201c <wipeArea+0x150>
    5351: 84 1a        	sty	$1a                     ; 0x201a <wipeArea+0x14e>
    5353: 7a           	ply
    5354: 85 1b        	sta	$1b                     ; 0x201b <wipeArea+0x14f>
    5356: 80 12        	bra	$536a <fileRead+0xd5>
    5358: a9 61        	lda	#$61
    535a: 85 1c        	sta	$1c                     ; 0x201c <wipeArea+0x150>
    535c: a9 00        	lda	#$0
    535e: 85 1d        	sta	$1d                     ; 0x201d <wipeArea+0x151>
    5360: 20 0c ff     	jsr	$ff0c <__heap_start+0x6052>
    5363: 92 1c        	sta	($1c)                   ; 0x201c <wipeArea+0x150>
    5365: a9 00        	lda	#$0
    5367: 6a           	ror
    5368: 85 12        	sta	$12                     ; 0x2012 <wipeArea+0x146>
    536a: 64 4b        	stz	$4b                     ; 0x204b <wipeArea+0x17f>
    536c: 86 1c        	stx	$1c                     ; 0x201c <wipeArea+0x150>
    536e: 84 1d        	sty	$1d                     ; 0x201d <wipeArea+0x151>
    5370: 20 00 ff     	jsr	$ff00 <__heap_start+0x6046>
    5373: 92 1c        	sta	($1c)                   ; 0x201c <wipeArea+0x150>
    5375: a9 00        	lda	#$0
    5377: 6a           	ror
    5378: 85 12        	sta	$12                     ; 0x2012 <wipeArea+0x146>
    537a: a5 52        	lda	$52                     ; 0x2052 <wipeArea+0x186>
    537c: d0 da        	bne	$5358 <fileRead+0xc3>
    537e: a5 4b        	lda	$4b                     ; 0x204b <wipeArea+0x17f>
    5380: c9 08        	cmp	#$8
    5382: d0 e6        	bne	$536a <fileRead+0xd5>
    5384: a5 51        	lda	$51                     ; 0x2051 <wipeArea+0x185>
    5386: d0 e2        	bne	$536a <fileRead+0xd5>
    5388: a5 50        	lda	$50                     ; 0x2050 <wipeArea+0x184>
    538a: 92 1a        	sta	($1a)                   ; 0x201a <wipeArea+0x14e>
    538c: a9 01        	lda	#$1
    538e: 85 65        	sta	$65                     ; 0x2065 <wipeArea+0x199>
    5390: a9 00        	lda	#$0
    5392: 85 66        	sta	$66                     ; 0x2066 <wipeArea+0x19a>
    5394: 18           	clc
    5395: a5 65        	lda	$65                     ; 0x2065 <wipeArea+0x199>
    5397: 65 18        	adc	$18                     ; 0x2018 <wipeArea+0x14c>
    5399: 85 65        	sta	$65                     ; 0x2065 <wipeArea+0x199>
    539b: a5 66        	lda	$66                     ; 0x2066 <wipeArea+0x19a>
    539d: 65 19        	adc	$19                     ; 0x2019 <wipeArea+0x14d>
    539f: c5 17        	cmp	$17                     ; 0x2017 <wipeArea+0x14b>
    53a1: d0 0a        	bne	$53ad <fileRead+0x118>
    53a3: 85 19        	sta	$19                     ; 0x2019 <wipeArea+0x14d>
    53a5: a5 65        	lda	$65                     ; 0x2065 <wipeArea+0x199>
    53a7: 85 18        	sta	$18                     ; 0x2018 <wipeArea+0x14c>
    53a9: c5 16        	cmp	$16                     ; 0x2016 <wipeArea+0x14a>
    53ab: 80 08        	bra	$53b5 <fileRead+0x120>
    53ad: c5 17        	cmp	$17                     ; 0x2017 <wipeArea+0x14b>
    53af: 85 19        	sta	$19                     ; 0x2019 <wipeArea+0x14d>
    53b1: a5 65        	lda	$65                     ; 0x2065 <wipeArea+0x199>
    53b3: 85 18        	sta	$18                     ; 0x2018 <wipeArea+0x14c>
    53b5: a5 19        	lda	$19                     ; 0x2019 <wipeArea+0x14d>
    53b7: 5a           	phy
    53b8: a4 1e        	ldy	$1e                     ; 0x201e <wipeArea+0x152>
    53ba: 84 1a        	sty	$1a                     ; 0x201a <wipeArea+0x14e>
    53bc: a4 1f        	ldy	$1f                     ; 0x201f <wipeArea+0x153>
    53be: 84 1b        	sty	$1b                     ; 0x201b <wipeArea+0x14f>
    53c0: 7a           	ply
    53c1: b0 03        	bcs	$53c6 <fileRead+0x131>
    53c3: 4c b1 52     	jmp	$52b1 <fileRead+0x1c>
    53c6: aa           	tax
    53c7: a5 65        	lda	$65                     ; 0x2065 <wipeArea+0x199>
    53c9: 60           	rts
    53ca: a9 ff        	lda	#$ff
    53cc: aa           	tax
    53cd: 86 65        	stx	$65                     ; 0x2065 <wipeArea+0x199>
    53cf: aa           	tax
    53d0: a5 65        	lda	$65                     ; 0x2065 <wipeArea+0x199>
    53d2: 60           	rts
    53d3: a6 18        	ldx	$18                     ; 0x2018 <wipeArea+0x14c>
    53d5: 86 65        	stx	$65                     ; 0x2065 <wipeArea+0x199>
    53d7: a5 19        	lda	$19                     ; 0x2019 <wipeArea+0x14d>
    53d9: aa           	tax
    53da: a5 65        	lda	$65                     ; 0x2065 <wipeArea+0x199>
    53dc: 60           	rts
    53dd: a9 00        	lda	#$0
    53df: 85 65        	sta	$65                     ; 0x2065 <wipeArea+0x199>
    53e1: 1a           	inc
    53e2: 4c 92 53     	jmp	$5392 <fileRead+0xfd>

000053e5 <fileReadDir>:
    53e5: b2 12        	lda	($12)                   ; 0x2012 <wipeArea+0x146>
    53e7: 85 f3        	sta	$f3                     ; 0x20f3 <wipeArea+0x227>
    53e9: a2 70        	ldx	#$70
    53eb: a0 00        	ldy	#$0
    53ed: 86 14        	stx	$14                     ; 0x2014 <wipeArea+0x148>
    53ef: 84 15        	sty	$15                     ; 0x2015 <wipeArea+0x149>
    53f1: a2 52        	ldx	#$52
    53f3: 86 16        	stx	$16                     ; 0x2016 <wipeArea+0x14a>
    53f5: a2 00        	ldx	#$0
    53f7: 86 17        	stx	$17                     ; 0x2017 <wipeArea+0x14b>
    53f9: 20 7c ff     	jsr	$ff7c <__heap_start+0x60c2>
    53fc: 92 14        	sta	($14)                   ; 0x2014 <wipeArea+0x148>
    53fe: a9 00        	lda	#$0
    5400: 6a           	ror
    5401: 85 16        	sta	$16                     ; 0x2016 <wipeArea+0x14a>
    5403: a6 52        	ldx	$52                     ; 0x2052 <wipeArea+0x186>
    5405: a0 00        	ldy	#$0
    5407: 84 14        	sty	$14                     ; 0x2014 <wipeArea+0x148>
    5409: a0 00        	ldy	#$0
    540b: 84 15        	sty	$15                     ; 0x2015 <wipeArea+0x149>
    540d: 8a           	txa
    540e: f0 09        	beq	$5419 <fileReadDir+0x34>
    5410: a6 14        	ldx	$14                     ; 0x2014 <wipeArea+0x148>
    5412: 86 12        	stx	$12                     ; 0x2012 <wipeArea+0x146>
    5414: a6 15        	ldx	$15                     ; 0x2015 <wipeArea+0x149>
    5416: 86 13        	stx	$13                     ; 0x2013 <wipeArea+0x147>
    5418: 60           	rts
    5419: a2 71        	ldx	#$71
    541b: a0 00        	ldy	#$0
    541d: 86 18        	stx	$18                     ; 0x2018 <wipeArea+0x14c>
    541f: 84 19        	sty	$19                     ; 0x2019 <wipeArea+0x14d>
    5421: a0 00        	ldy	#$0
    5423: 80 18        	bra	$543d <fileReadDir+0x58>
    5425: b2 12        	lda	($12)                   ; 0x2012 <wipeArea+0x146>
    5427: 85 f3        	sta	$f3                     ; 0x20f3 <wipeArea+0x227>
    5429: a2 73        	ldx	#$73
    542b: 86 1a        	stx	$1a                     ; 0x201a <wipeArea+0x14e>
    542d: 84 1b        	sty	$1b                     ; 0x201b <wipeArea+0x14f>
    542f: 20 7c ff     	jsr	$ff7c <__heap_start+0x60c2>
    5432: 92 1a        	sta	($1a)                   ; 0x201a <wipeArea+0x14e>
    5434: a9 00        	lda	#$0
    5436: 6a           	ror
    5437: 85 16        	sta	$16                     ; 0x2016 <wipeArea+0x14a>
    5439: a6 52        	ldx	$52                     ; 0x2052 <wipeArea+0x186>
    543b: d0 d3        	bne	$5410 <fileReadDir+0x2b>
    543d: 64 4b        	stz	$4b                     ; 0x204b <wipeArea+0x17f>
    543f: 20 00 ff     	jsr	$ff00 <__heap_start+0x6046>
    5442: 92 18        	sta	($18)                   ; 0x2018 <wipeArea+0x14c>
    5444: a9 00        	lda	#$0
    5446: 6a           	ror
    5447: 85 16        	sta	$16                     ; 0x2016 <wipeArea+0x14a>
    5449: a9 c2        	lda	#$c2
    544b: 18           	clc
    544c: 65 4b        	adc	$4b                     ; 0x204b <wipeArea+0x17f>
    544e: c9 0b        	cmp	#$b
    5450: b0 eb        	bcs	$543d <fileReadDir+0x58>
    5452: 0a           	asl
    5453: aa           	tax
    5454: 7c 9c 69     	jmp	($699c,x)               ; 0x699c <__bss_size+0x3802>
    5457: 9c c1 9c     	stz	$9cc1                   ; 0x9cc1 <fileReadDir.fileDirEntS>
    545a: a2 02        	ldx	#$2
    545c: 80 2d        	bra	$548b <fileReadDir+0xa6>
    545e: a2 c1        	ldx	#$c1
    5460: a0 9c        	ldy	#$9c
    5462: 86 fb        	stx	$fb                     ; 0x20fb <opl3_initialize+0x7>
    5464: 84 fc        	sty	$fc                     ; 0x20fc <opl3_initialize+0x8>
    5466: a2 01        	ldx	#$1
    5468: 86 fd        	stx	$fd                     ; 0x20fd <opl3_initialize+0x9>
    546a: a0 72        	ldy	#$72
    546c: a9 00        	lda	#$0
    546e: 84 12        	sty	$12                     ; 0x2012 <wipeArea+0x146>
    5470: 85 13        	sta	$13                     ; 0x2013 <wipeArea+0x147>
    5472: a0 52        	ldy	#$52
    5474: 84 14        	sty	$14                     ; 0x2014 <wipeArea+0x148>
    5476: a0 00        	ldy	#$0
    5478: 84 15        	sty	$15                     ; 0x2015 <wipeArea+0x149>
    547a: 20 08 ff     	jsr	$ff08 <__heap_start+0x604e>
    547d: 92 12        	sta	($12)                   ; 0x2012 <wipeArea+0x146>
    547f: a9 00        	lda	#$0
    5481: 6a           	ror
    5482: 85 14        	sta	$14                     ; 0x2014 <wipeArea+0x148>
    5484: ac c1 9c     	ldy	$9cc1                   ; 0x9cc1 <fileReadDir.fileDirEntS>
    5487: f0 02        	beq	$548b <fileReadDir+0xa6>
    5489: a2 00        	ldx	#$0
    548b: 8e c2 9c     	stx	$9cc2                   ; 0x9cc2 <fileReadDir.fileDirEntS+0x1>
    548e: a6 50        	ldx	$50                     ; 0x2050 <wipeArea+0x184>
    5490: f0 24        	beq	$54b6 <fileReadDir+0xd1>
    5492: a0 c3        	ldy	#$c3
    5494: a9 9c        	lda	#$9c
    5496: 84 fb        	sty	$fb                     ; 0x20fb <opl3_initialize+0x7>
    5498: 85 fc        	sta	$fc                     ; 0x20fc <opl3_initialize+0x8>
    549a: 86 fd        	stx	$fd                     ; 0x20fd <opl3_initialize+0x9>
    549c: a0 74        	ldy	#$74
    549e: a9 00        	lda	#$0
    54a0: 84 12        	sty	$12                     ; 0x2012 <wipeArea+0x146>
    54a2: 85 13        	sta	$13                     ; 0x2013 <wipeArea+0x147>
    54a4: a0 52        	ldy	#$52
    54a6: 84 14        	sty	$14                     ; 0x2014 <wipeArea+0x148>
    54a8: a0 00        	ldy	#$0
    54aa: 84 15        	sty	$15                     ; 0x2015 <wipeArea+0x149>
    54ac: 20 04 ff     	jsr	$ff04 <__heap_start+0x604a>
    54af: 92 12        	sta	($12)                   ; 0x2012 <wipeArea+0x146>
    54b1: a9 00        	lda	#$0
    54b3: 6a           	ror
    54b4: 85 14        	sta	$14                     ; 0x2014 <wipeArea+0x148>
    54b6: 9e c3 9c     	stz	$9cc3,x                 ; 0x9cc3 <fileReadDir.fileDirEntS+0x2>
    54b9: a2 c1        	ldx	#$c1
    54bb: 86 14        	stx	$14                     ; 0x2014 <wipeArea+0x148>
    54bd: a2 9c        	ldx	#$9c
    54bf: 86 15        	stx	$15                     ; 0x2015 <wipeArea+0x149>
    54c1: 4c 10 54     	jmp	$5410 <fileReadDir+0x2b>

000054c4 <exit>:
    54c4: 20 1b 03     	jsr	$31b <_fini>
    54c7: 80 fe        	bra	$54c7 <exit+0x3>

000054c9 <_ZN12_GLOBAL__N_15printEPKcP6Status>:
    54c9: a6 14        	ldx	$14                     ; 0x2014 <wipeArea+0x148>
    54cb: 86 8c        	stx	$8c                     ; 0x208c <wipeArea+0x1c0>
    54cd: a6 15        	ldx	$15                     ; 0x2015 <wipeArea+0x149>
    54cf: 86 8d        	stx	$8d                     ; 0x208d <wipeArea+0x1c1>
    54d1: a6 12        	ldx	$12                     ; 0x2012 <wipeArea+0x146>
    54d3: 86 14        	stx	$14                     ; 0x2014 <wipeArea+0x148>
    54d5: a6 13        	ldx	$13                     ; 0x2013 <wipeArea+0x147>
    54d7: 86 15        	stx	$15                     ; 0x2015 <wipeArea+0x149>
    54d9: e6 14        	inc	$14                     ; 0x2014 <wipeArea+0x148>
    54db: d0 02        	bne	$54df <_ZN12_GLOBAL__N_15printEPKcP6Status+0x16>
    54dd: e6 15        	inc	$15                     ; 0x2015 <wipeArea+0x149>
    54df: a0 01        	ldy	#$1
    54e1: b1 12        	lda	($12),y                 ; 0x2012 <wipeArea+0x146>
    54e3: c9 25        	cmp	#$25
    54e5: d0 23        	bne	$550a <_ZN12_GLOBAL__N_15printEPKcP6Status+0x41>
    54e7: a9 25        	lda	#$25
    54e9: a6 12        	ldx	$12                     ; 0x2012 <wipeArea+0x146>
    54eb: 86 8e        	stx	$8e                     ; 0x208e <wipeArea+0x1c2>
    54ed: a6 13        	ldx	$13                     ; 0x2013 <wipeArea+0x147>
    54ef: 86 8f        	stx	$8f                     ; 0x208f <wipeArea+0x1c3>
    54f1: a6 8c        	ldx	$8c                     ; 0x208c <wipeArea+0x1c0>
    54f3: 86 12        	stx	$12                     ; 0x2012 <wipeArea+0x146>
    54f5: a6 8d        	ldx	$8d                     ; 0x208d <wipeArea+0x1c1>
    54f7: 86 13        	stx	$13                     ; 0x2013 <wipeArea+0x147>
    54f9: 20 fd 5f     	jsr	$5ffd <_ZN12_GLOBAL__N_13putEcP6Status>
    54fc: a5 8e        	lda	$8e                     ; 0x208e <wipeArea+0x1c2>
    54fe: 18           	clc
    54ff: 69 02        	adc	#$2
    5501: 85 12        	sta	$12                     ; 0x2012 <wipeArea+0x146>
    5503: a5 8f        	lda	$8f                     ; 0x208f <wipeArea+0x1c3>
    5505: 69 00        	adc	#$0
    5507: 85 13        	sta	$13                     ; 0x2013 <wipeArea+0x147>
    5509: 60           	rts
    550a: 18           	clc
    550b: a5 8c        	lda	$8c                     ; 0x208c <wipeArea+0x1c0>
    550d: 69 0b        	adc	#$b
    550f: 85 18        	sta	$18                     ; 0x2018 <wipeArea+0x14c>
    5511: a5 8d        	lda	$8d                     ; 0x208d <wipeArea+0x1c1>
    5513: 69 00        	adc	#$0
    5515: 85 19        	sta	$19                     ; 0x2019 <wipeArea+0x14d>
    5517: a2 10        	ldx	#$10
    5519: 86 b5        	stx	$b5                     ; 0x20b5 <wipeArea+0x1e9>
    551b: a9 00        	lda	#$0
    551d: a0 0b        	ldy	#$b
    551f: 91 8c        	sta	($8c),y                 ; 0x208c <wipeArea+0x1c0>
    5521: 18           	clc
    5522: a5 8c        	lda	$8c                     ; 0x208c <wipeArea+0x1c0>
    5524: 69 0d        	adc	#$d
    5526: aa           	tax
    5527: a5 8d        	lda	$8d                     ; 0x208d <wipeArea+0x1c1>
    5529: 69 00        	adc	#$0
    552b: 86 16        	stx	$16                     ; 0x2016 <wipeArea+0x14a>
    552d: a0 0d        	ldy	#$d
    552f: 85 17        	sta	$17                     ; 0x2017 <wipeArea+0x14b>
    5531: a9 ff        	lda	#$ff
    5533: 91 8c        	sta	($8c),y                 ; 0x208c <wipeArea+0x1c0>
    5535: a0 01        	ldy	#$1
    5537: 91 16        	sta	($16),y                 ; 0x2016 <wipeArea+0x14a>
    5539: a2 00        	ldx	#$0
    553b: 86 b8        	stx	$b8                     ; 0x20b8 <wipeArea+0x1ec>
    553d: a6 8c        	ldx	$8c                     ; 0x208c <wipeArea+0x1c0>
    553f: 86 16        	stx	$16                     ; 0x2016 <wipeArea+0x14a>
    5541: a6 8d        	ldx	$8d                     ; 0x208d <wipeArea+0x1c1>
    5543: 86 17        	stx	$17                     ; 0x2017 <wipeArea+0x14b>
    5545: e6 16        	inc	$16                     ; 0x2016 <wipeArea+0x14a>
    5547: d0 02        	bne	$554b <_ZN12_GLOBAL__N_15printEPKcP6Status+0x82>
    5549: e6 17        	inc	$17                     ; 0x2017 <wipeArea+0x14b>
    554b: a9 00        	lda	#$0
    554d: 91 8c        	sta	($8c),y                 ; 0x208c <wipeArea+0x1c0>
    554f: 91 16        	sta	($16),y                 ; 0x2016 <wipeArea+0x14a>
    5551: 92 8c        	sta	($8c)                   ; 0x208c <wipeArea+0x1c0>
    5553: 91 18        	sta	($18),y                 ; 0x2018 <wipeArea+0x14c>
    5555: 64 92        	stz	$92                     ; 0x2092 <wipeArea+0x1c6>
    5557: 80 33        	bra	$558c <_ZN12_GLOBAL__N_15printEPKcP6Status+0xc3>
    5559: a2 02        	ldx	#$2
    555b: 80 15        	bra	$5572 <_ZN12_GLOBAL__N_15printEPKcP6Status+0xa9>
    555d: e0 20        	cpx	#$20
    555f: f0 15        	beq	$5576 <_ZN12_GLOBAL__N_15printEPKcP6Status+0xad>
    5561: 86 19        	stx	$19                     ; 0x2019 <wipeArea+0x14d>
    5563: e0 23        	cpx	#$23
    5565: f0 03        	beq	$556a <_ZN12_GLOBAL__N_15printEPKcP6Status+0xa1>
    5567: 4c d9 55     	jmp	$55d9 <_ZN12_GLOBAL__N_15printEPKcP6Status+0x110>
    556a: a5 92        	lda	$92                     ; 0x2092 <wipeArea+0x1c6>
    556c: a2 04        	ldx	#$4
    556e: 80 02        	bra	$5572 <_ZN12_GLOBAL__N_15printEPKcP6Status+0xa9>
    5570: a2 10        	ldx	#$10
    5572: 86 18        	stx	$18                     ; 0x2018 <wipeArea+0x14c>
    5574: 80 06        	bra	$557c <_ZN12_GLOBAL__N_15printEPKcP6Status+0xb3>
    5576: a2 08        	ldx	#$8
    5578: 86 18        	stx	$18                     ; 0x2018 <wipeArea+0x14c>
    557a: a5 92        	lda	$92                     ; 0x2092 <wipeArea+0x1c6>
    557c: 05 18        	ora	$18                     ; 0x2018 <wipeArea+0x14c>
    557e: 85 92        	sta	$92                     ; 0x2092 <wipeArea+0x1c6>
    5580: 91 8c        	sta	($8c),y                 ; 0x208c <wipeArea+0x1c0>
    5582: a9 00        	lda	#$0
    5584: 91 16        	sta	($16),y                 ; 0x2016 <wipeArea+0x14a>
    5586: e6 14        	inc	$14                     ; 0x2014 <wipeArea+0x148>
    5588: d0 02        	bne	$558c <_ZN12_GLOBAL__N_15printEPKcP6Status+0xc3>
    558a: e6 15        	inc	$15                     ; 0x2015 <wipeArea+0x149>
    558c: b2 14        	lda	($14)                   ; 0x2014 <wipeArea+0x148>
    558e: aa           	tax
    558f: 18           	clc
    5590: 69 d6        	adc	#$d6
    5592: c9 07        	cmp	#$7
    5594: b0 c7        	bcs	$555d <_ZN12_GLOBAL__N_15printEPKcP6Status+0x94>
    5596: 86 19        	stx	$19                     ; 0x2019 <wipeArea+0x14d>
    5598: 0a           	asl
    5599: aa           	tax
    559a: a9 01        	lda	#$1
    559c: 85 18        	sta	$18                     ; 0x2018 <wipeArea+0x14c>
    559e: a5 92        	lda	$92                     ; 0x2092 <wipeArea+0x1c6>
    55a0: 7c b2 69     	jmp	($69b2,x)               ; 0x69b2 <__bss_size+0x3818>
    55a3: a0 11        	ldy	#$11
    55a5: a5 8c        	lda	$8c                     ; 0x208c <wipeArea+0x1c0>
    55a7: 18           	clc
    55a8: 69 11        	adc	#$11
    55aa: 85 16        	sta	$16                     ; 0x2016 <wipeArea+0x14a>
    55ac: a5 8d        	lda	$8d                     ; 0x208d <wipeArea+0x1c1>
    55ae: 69 00        	adc	#$0
    55b0: 85 17        	sta	$17                     ; 0x2017 <wipeArea+0x14b>
    55b2: b1 8c        	lda	($8c),y                 ; 0x208c <wipeArea+0x1c0>
    55b4: 85 18        	sta	$18                     ; 0x2018 <wipeArea+0x14c>
    55b6: 18           	clc
    55b7: 69 02        	adc	#$2
    55b9: 91 8c        	sta	($8c),y                 ; 0x208c <wipeArea+0x1c0>
    55bb: a0 01        	ldy	#$1
    55bd: b1 16        	lda	($16),y                 ; 0x2016 <wipeArea+0x14a>
    55bf: 85 19        	sta	$19                     ; 0x2019 <wipeArea+0x14d>
    55c1: 69 00        	adc	#$0
    55c3: 91 16        	sta	($16),y                 ; 0x2016 <wipeArea+0x14a>
    55c5: b2 18        	lda	($18)                   ; 0x2018 <wipeArea+0x14c>
    55c7: 85 17        	sta	$17                     ; 0x2017 <wipeArea+0x14b>
    55c9: b1 18        	lda	($18),y                 ; 0x2018 <wipeArea+0x14c>
    55cb: 85 16        	sta	$16                     ; 0x2016 <wipeArea+0x14a>
    55cd: 10 03        	bpl	$55d2 <_ZN12_GLOBAL__N_15printEPKcP6Status+0x109>
    55cf: 4c 60 56     	jmp	$5660 <_ZN12_GLOBAL__N_15printEPKcP6Status+0x197>
    55d2: a6 17        	ldx	$17                     ; 0x2017 <wipeArea+0x14b>
    55d4: 85 1a        	sta	$1a                     ; 0x201a <wipeArea+0x14e>
    55d6: 4c 8a 56     	jmp	$568a <_ZN12_GLOBAL__N_15printEPKcP6Status+0x1c1>
    55d9: 18           	clc
    55da: a5 19        	lda	$19                     ; 0x2019 <wipeArea+0x14d>
    55dc: 69 d0        	adc	#$d0
    55de: c9 0a        	cmp	#$a
    55e0: 90 03        	bcc	$55e5 <_ZN12_GLOBAL__N_15printEPKcP6Status+0x11c>
    55e2: 4c 3b 56     	jmp	$563b <_ZN12_GLOBAL__N_15printEPKcP6Status+0x172>
    55e5: a6 19        	ldx	$19                     ; 0x2019 <wipeArea+0x14d>
    55e7: 86 16        	stx	$16                     ; 0x2016 <wipeArea+0x14a>
    55e9: 64 18        	stz	$18                     ; 0x2018 <wipeArea+0x14c>
    55eb: a0 01        	ldy	#$1
    55ed: 64 17        	stz	$17                     ; 0x2017 <wipeArea+0x14b>
    55ef: 64 19        	stz	$19                     ; 0x2019 <wipeArea+0x14d>
    55f1: 06 18        	asl	$18                     ; 0x2018 <wipeArea+0x14c>
    55f3: 26 19        	rol	$19                     ; 0x2019 <wipeArea+0x14d>
    55f5: a5 18        	lda	$18                     ; 0x2018 <wipeArea+0x14c>
    55f7: 0a           	asl
    55f8: aa           	tax
    55f9: a5 19        	lda	$19                     ; 0x2019 <wipeArea+0x14d>
    55fb: 2a           	rol
    55fc: 86 1a        	stx	$1a                     ; 0x201a <wipeArea+0x14e>
    55fe: 06 1a        	asl	$1a                     ; 0x201a <wipeArea+0x14e>
    5600: 2a           	rol
    5601: aa           	tax
    5602: a5 1a        	lda	$1a                     ; 0x201a <wipeArea+0x14e>
    5604: 18           	clc
    5605: 65 18        	adc	$18                     ; 0x2018 <wipeArea+0x14c>
    5607: 85 18        	sta	$18                     ; 0x2018 <wipeArea+0x14c>
    5609: 8a           	txa
    560a: 65 19        	adc	$19                     ; 0x2019 <wipeArea+0x14d>
    560c: 85 19        	sta	$19                     ; 0x2019 <wipeArea+0x14d>
    560e: a5 18        	lda	$18                     ; 0x2018 <wipeArea+0x14c>
    5610: 18           	clc
    5611: 65 16        	adc	$16                     ; 0x2016 <wipeArea+0x14a>
    5613: 85 16        	sta	$16                     ; 0x2016 <wipeArea+0x14a>
    5615: a5 19        	lda	$19                     ; 0x2019 <wipeArea+0x14d>
    5617: 65 17        	adc	$17                     ; 0x2017 <wipeArea+0x14b>
    5619: aa           	tax
    561a: 18           	clc
    561b: a5 16        	lda	$16                     ; 0x2016 <wipeArea+0x14a>
    561d: 69 d0        	adc	#$d0
    561f: 85 18        	sta	$18                     ; 0x2018 <wipeArea+0x14c>
    5621: 8a           	txa
    5622: 69 ff        	adc	#$ff
    5624: 85 19        	sta	$19                     ; 0x2019 <wipeArea+0x14d>
    5626: b1 14        	lda	($14),y                 ; 0x2014 <wipeArea+0x148>
    5628: 85 16        	sta	$16                     ; 0x2016 <wipeArea+0x14a>
    562a: 18           	clc
    562b: 69 d0        	adc	#$d0
    562d: e6 14        	inc	$14                     ; 0x2014 <wipeArea+0x148>
    562f: d0 02        	bne	$5633 <_ZN12_GLOBAL__N_15printEPKcP6Status+0x16a>
    5631: e6 15        	inc	$15                     ; 0x2015 <wipeArea+0x149>
    5633: c9 0a        	cmp	#$a
    5635: 64 17        	stz	$17                     ; 0x2017 <wipeArea+0x14b>
    5637: 90 b8        	bcc	$55f1 <_ZN12_GLOBAL__N_15printEPKcP6Status+0x128>
    5639: 80 04        	bra	$563f <_ZN12_GLOBAL__N_15printEPKcP6Status+0x176>
    563b: 64 18        	stz	$18                     ; 0x2018 <wipeArea+0x14c>
    563d: 64 19        	stz	$19                     ; 0x2019 <wipeArea+0x14d>
    563f: a5 8c        	lda	$8c                     ; 0x208c <wipeArea+0x1c0>
    5641: 18           	clc
    5642: 69 0b        	adc	#$b
    5644: 85 16        	sta	$16                     ; 0x2016 <wipeArea+0x14a>
    5646: a5 8d        	lda	$8d                     ; 0x208d <wipeArea+0x1c1>
    5648: 69 00        	adc	#$0
    564a: 85 17        	sta	$17                     ; 0x2017 <wipeArea+0x14b>
    564c: a0 0b        	ldy	#$b
    564e: a5 18        	lda	$18                     ; 0x2018 <wipeArea+0x14c>
    5650: 91 8c        	sta	($8c),y                 ; 0x208c <wipeArea+0x1c0>
    5652: a6 18        	ldx	$18                     ; 0x2018 <wipeArea+0x14c>
    5654: a0 01        	ldy	#$1
    5656: a5 19        	lda	$19                     ; 0x2019 <wipeArea+0x14d>
    5658: 91 16        	sta	($16),y                 ; 0x2016 <wipeArea+0x14a>
    565a: 86 16        	stx	$16                     ; 0x2016 <wipeArea+0x14a>
    565c: 85 17        	sta	$17                     ; 0x2017 <wipeArea+0x14b>
    565e: 80 4c        	bra	$56ac <_ZN12_GLOBAL__N_15printEPKcP6Status+0x1e3>
    5660: a5 92        	lda	$92                     ; 0x2092 <wipeArea+0x1c6>
    5662: 09 01        	ora	#$1
    5664: 85 1b        	sta	$1b                     ; 0x201b <wipeArea+0x14f>
    5666: a6 8c        	ldx	$8c                     ; 0x208c <wipeArea+0x1c0>
    5668: 86 18        	stx	$18                     ; 0x2018 <wipeArea+0x14c>
    566a: a6 8d        	ldx	$8d                     ; 0x208d <wipeArea+0x1c1>
    566c: 86 19        	stx	$19                     ; 0x2019 <wipeArea+0x14d>
    566e: 38           	sec
    566f: a9 00        	lda	#$0
    5671: e5 17        	sbc	$17                     ; 0x2017 <wipeArea+0x14b>
    5673: aa           	tax
    5674: a9 00        	lda	#$0
    5676: e5 16        	sbc	$16                     ; 0x2016 <wipeArea+0x14a>
    5678: 85 1a        	sta	$1a                     ; 0x201a <wipeArea+0x14e>
    567a: e6 18        	inc	$18                     ; 0x2018 <wipeArea+0x14c>
    567c: d0 02        	bne	$5680 <_ZN12_GLOBAL__N_15printEPKcP6Status+0x1b7>
    567e: e6 19        	inc	$19                     ; 0x2019 <wipeArea+0x14d>
    5680: a5 1b        	lda	$1b                     ; 0x201b <wipeArea+0x14f>
    5682: 85 92        	sta	$92                     ; 0x2092 <wipeArea+0x1c6>
    5684: 91 8c        	sta	($8c),y                 ; 0x208c <wipeArea+0x1c0>
    5686: a9 00        	lda	#$0
    5688: 91 18        	sta	($18),y                 ; 0x2018 <wipeArea+0x14c>
    568a: a5 8c        	lda	$8c                     ; 0x208c <wipeArea+0x1c0>
    568c: 18           	clc
    568d: 69 0b        	adc	#$b
    568f: 85 16        	sta	$16                     ; 0x2016 <wipeArea+0x14a>
    5691: a5 8d        	lda	$8d                     ; 0x208d <wipeArea+0x1c1>
    5693: 69 00        	adc	#$0
    5695: 85 17        	sta	$17                     ; 0x2017 <wipeArea+0x14b>
    5697: a0 0b        	ldy	#$b
    5699: 8a           	txa
    569a: 91 8c        	sta	($8c),y                 ; 0x208c <wipeArea+0x1c0>
    569c: a5 1a        	lda	$1a                     ; 0x201a <wipeArea+0x14e>
    569e: a0 01        	ldy	#$1
    56a0: 91 16        	sta	($16),y                 ; 0x2016 <wipeArea+0x14a>
    56a2: 86 16        	stx	$16                     ; 0x2016 <wipeArea+0x14a>
    56a4: 85 17        	sta	$17                     ; 0x2017 <wipeArea+0x14b>
    56a6: e6 14        	inc	$14                     ; 0x2014 <wipeArea+0x148>
    56a8: d0 02        	bne	$56ac <_ZN12_GLOBAL__N_15printEPKcP6Status+0x1e3>
    56aa: e6 15        	inc	$15                     ; 0x2015 <wipeArea+0x149>
    56ac: b2 14        	lda	($14)                   ; 0x2014 <wipeArea+0x148>
    56ae: a2 ff        	ldx	#$ff
    56b0: c9 2e        	cmp	#$2e
    56b2: f0 03        	beq	$56b7 <_ZN12_GLOBAL__N_15printEPKcP6Status+0x1ee>
    56b4: 4c 36 57     	jmp	$5736 <_ZN12_GLOBAL__N_15printEPKcP6Status+0x26d>
    56b7: a6 14        	ldx	$14                     ; 0x2014 <wipeArea+0x148>
    56b9: 86 18        	stx	$18                     ; 0x2018 <wipeArea+0x14c>
    56bb: a6 15        	ldx	$15                     ; 0x2015 <wipeArea+0x149>
    56bd: 86 19        	stx	$19                     ; 0x2019 <wipeArea+0x14d>
    56bf: e6 18        	inc	$18                     ; 0x2018 <wipeArea+0x14c>
    56c1: d0 02        	bne	$56c5 <_ZN12_GLOBAL__N_15printEPKcP6Status+0x1fc>
    56c3: e6 19        	inc	$19                     ; 0x2019 <wipeArea+0x14d>
    56c5: b1 14        	lda	($14),y                 ; 0x2014 <wipeArea+0x148>
    56c7: c9 2a        	cmp	#$2a
    56c9: f0 03        	beq	$56ce <_ZN12_GLOBAL__N_15printEPKcP6Status+0x205>
    56cb: 4c 3d 57     	jmp	$573d <_ZN12_GLOBAL__N_15printEPKcP6Status+0x274>
    56ce: a0 11        	ldy	#$11
    56d0: b1 8c        	lda	($8c),y                 ; 0x208c <wipeArea+0x1c0>
    56d2: 85 18        	sta	$18                     ; 0x2018 <wipeArea+0x14c>
    56d4: 18           	clc
    56d5: 69 02        	adc	#$2
    56d7: a2 01        	ldx	#$1
    56d9: b0 02        	bcs	$56dd <_ZN12_GLOBAL__N_15printEPKcP6Status+0x214>
    56db: a2 00        	ldx	#$0
    56dd: 86 1d        	stx	$1d                     ; 0x201d <wipeArea+0x151>
    56df: 91 8c        	sta	($8c),y                 ; 0x208c <wipeArea+0x1c0>
    56e1: 18           	clc
    56e2: a5 8c        	lda	$8c                     ; 0x208c <wipeArea+0x1c0>
    56e4: 69 11        	adc	#$11
    56e6: 85 1a        	sta	$1a                     ; 0x201a <wipeArea+0x14e>
    56e8: a5 8d        	lda	$8d                     ; 0x208d <wipeArea+0x1c1>
    56ea: 69 00        	adc	#$0
    56ec: 85 1b        	sta	$1b                     ; 0x201b <wipeArea+0x14f>
    56ee: a0 01        	ldy	#$1
    56f0: b1 1a        	lda	($1a),y                 ; 0x201a <wipeArea+0x14e>
    56f2: 85 19        	sta	$19                     ; 0x2019 <wipeArea+0x14d>
    56f4: a6 1d        	ldx	$1d                     ; 0x201d <wipeArea+0x151>
    56f6: e0 01        	cpx	#$1
    56f8: 69 00        	adc	#$0
    56fa: 91 1a        	sta	($1a),y                 ; 0x201a <wipeArea+0x14e>
    56fc: b2 18        	lda	($18)                   ; 0x2018 <wipeArea+0x14c>
    56fe: 85 1b        	sta	$1b                     ; 0x201b <wipeArea+0x14f>
    5700: 18           	clc
    5701: a5 8c        	lda	$8c                     ; 0x208c <wipeArea+0x1c0>
    5703: 69 0d        	adc	#$d
    5705: 85 1a        	sta	$1a                     ; 0x201a <wipeArea+0x14e>
    5707: a5 8d        	lda	$8d                     ; 0x208d <wipeArea+0x1c1>
    5709: 69 00        	adc	#$0
    570b: aa           	tax
    570c: b1 18        	lda	($18),y                 ; 0x2018 <wipeArea+0x14c>
    570e: 85 1c        	sta	$1c                     ; 0x201c <wipeArea+0x150>
    5710: a4 1a        	ldy	$1a                     ; 0x201a <wipeArea+0x14e>
    5712: 84 18        	sty	$18                     ; 0x2018 <wipeArea+0x14c>
    5714: 86 19        	stx	$19                     ; 0x2019 <wipeArea+0x14d>
    5716: a5 1b        	lda	$1b                     ; 0x201b <wipeArea+0x14f>
    5718: 85 1a        	sta	$1a                     ; 0x201a <wipeArea+0x14e>
    571a: a0 0d        	ldy	#$d
    571c: 91 8c        	sta	($8c),y                 ; 0x208c <wipeArea+0x1c0>
    571e: a5 1c        	lda	$1c                     ; 0x201c <wipeArea+0x150>
    5720: 85 1e        	sta	$1e                     ; 0x201e <wipeArea+0x152>
    5722: a0 01        	ldy	#$1
    5724: 91 18        	sta	($18),y                 ; 0x2018 <wipeArea+0x14c>
    5726: a5 14        	lda	$14                     ; 0x2014 <wipeArea+0x148>
    5728: 18           	clc
    5729: 69 02        	adc	#$2
    572b: 85 18        	sta	$18                     ; 0x2018 <wipeArea+0x14c>
    572d: a5 15        	lda	$15                     ; 0x2015 <wipeArea+0x149>
    572f: 69 00        	adc	#$0
    5731: 85 19        	sta	$19                     ; 0x2019 <wipeArea+0x14d>
    5733: 4c 03 58     	jmp	$5803 <_ZN12_GLOBAL__N_15printEPKcP6Status+0x33a>
    5736: 86 1a        	stx	$1a                     ; 0x201a <wipeArea+0x14e>
    5738: 86 1b        	stx	$1b                     ; 0x201b <wipeArea+0x14f>
    573a: 4c 2b 58     	jmp	$582b <_ZN12_GLOBAL__N_15printEPKcP6Status+0x362>
    573d: 18           	clc
    573e: 85 1c        	sta	$1c                     ; 0x201c <wipeArea+0x150>
    5740: 69 d0        	adc	#$d0
    5742: c9 0a        	cmp	#$a
    5744: 90 03        	bcc	$5749 <_ZN12_GLOBAL__N_15printEPKcP6Status+0x280>
    5746: 4c e8 57     	jmp	$57e8 <_ZN12_GLOBAL__N_15printEPKcP6Status+0x31f>
    5749: 64 1b        	stz	$1b                     ; 0x201b <wipeArea+0x14f>
    574b: 64 1f        	stz	$1f                     ; 0x201f <wipeArea+0x153>
    574d: 64 1e        	stz	$1e                     ; 0x201e <wipeArea+0x152>
    574f: a2 01        	ldx	#$1
    5751: 64 1a        	stz	$1a                     ; 0x201a <wipeArea+0x14e>
    5753: 5a           	phy
    5754: a4 1a        	ldy	$1a                     ; 0x201a <wipeArea+0x14e>
    5756: 84 18        	sty	$18                     ; 0x2018 <wipeArea+0x14c>
    5758: 86 19        	stx	$19                     ; 0x2019 <wipeArea+0x14d>
    575a: a5 1f        	lda	$1f                     ; 0x201f <wipeArea+0x153>
    575c: 0a           	asl
    575d: 85 1d        	sta	$1d                     ; 0x201d <wipeArea+0x151>
    575f: 26 1e        	rol	$1e                     ; 0x201e <wipeArea+0x152>
    5761: 0a           	asl
    5762: a4 1e        	ldy	$1e                     ; 0x201e <wipeArea+0x152>
    5764: 84 1f        	sty	$1f                     ; 0x201f <wipeArea+0x153>
    5766: 7a           	ply
    5767: 26 1f        	rol	$1f                     ; 0x201f <wipeArea+0x153>
    5769: 0a           	asl
    576a: 26 1f        	rol	$1f                     ; 0x201f <wipeArea+0x153>
    576c: 18           	clc
    576d: 65 1d        	adc	$1d                     ; 0x201d <wipeArea+0x151>
    576f: 85 22        	sta	$22                     ; 0x2022 <wipeArea+0x156>
    5771: a5 1f        	lda	$1f                     ; 0x201f <wipeArea+0x153>
    5773: 65 1e        	adc	$1e                     ; 0x201e <wipeArea+0x152>
    5775: 85 1d        	sta	$1d                     ; 0x201d <wipeArea+0x151>
    5777: 18           	clc
    5778: a5 22        	lda	$22                     ; 0x2022 <wipeArea+0x156>
    577a: 65 1c        	adc	$1c                     ; 0x201c <wipeArea+0x150>
    577c: 85 1c        	sta	$1c                     ; 0x201c <wipeArea+0x150>
    577e: a5 1d        	lda	$1d                     ; 0x201d <wipeArea+0x151>
    5780: 65 1b        	adc	$1b                     ; 0x201b <wipeArea+0x14f>
    5782: 85 1b        	sta	$1b                     ; 0x201b <wipeArea+0x14f>
    5784: 18           	clc
    5785: a5 1c        	lda	$1c                     ; 0x201c <wipeArea+0x150>
    5787: 69 d0        	adc	#$d0
    5789: 85 1c        	sta	$1c                     ; 0x201c <wipeArea+0x150>
    578b: a5 1b        	lda	$1b                     ; 0x201b <wipeArea+0x14f>
    578d: 69 ff        	adc	#$ff
    578f: 85 1e        	sta	$1e                     ; 0x201e <wipeArea+0x152>
    5791: a5 1c        	lda	$1c                     ; 0x201c <wipeArea+0x150>
    5793: 85 1f        	sta	$1f                     ; 0x201f <wipeArea+0x153>
    5795: e8           	inx
    5796: d0 02        	bne	$579a <_ZN12_GLOBAL__N_15printEPKcP6Status+0x2d1>
    5798: e6 1a        	inc	$1a                     ; 0x201a <wipeArea+0x14e>
    579a: a5 14        	lda	$14                     ; 0x2014 <wipeArea+0x148>
    579c: 18           	clc
    579d: 65 19        	adc	$19                     ; 0x2019 <wipeArea+0x14d>
    579f: 85 1c        	sta	$1c                     ; 0x201c <wipeArea+0x150>
    57a1: a5 15        	lda	$15                     ; 0x2015 <wipeArea+0x149>
    57a3: 65 18        	adc	$18                     ; 0x2018 <wipeArea+0x14c>
    57a5: 85 1d        	sta	$1d                     ; 0x201d <wipeArea+0x151>
    57a7: b1 1c        	lda	($1c),y                 ; 0x201c <wipeArea+0x150>
    57a9: 85 1c        	sta	$1c                     ; 0x201c <wipeArea+0x150>
    57ab: 18           	clc
    57ac: 69 d0        	adc	#$d0
    57ae: c9 0a        	cmp	#$a
    57b0: 64 1b        	stz	$1b                     ; 0x201b <wipeArea+0x14f>
    57b2: b0 03        	bcs	$57b7 <_ZN12_GLOBAL__N_15printEPKcP6Status+0x2ee>
    57b4: 4c 53 57     	jmp	$5753 <_ZN12_GLOBAL__N_15printEPKcP6Status+0x28a>
    57b7: a5 14        	lda	$14                     ; 0x2014 <wipeArea+0x148>
    57b9: 18           	clc
    57ba: 65 19        	adc	$19                     ; 0x2019 <wipeArea+0x14d>
    57bc: aa           	tax
    57bd: a5 15        	lda	$15                     ; 0x2015 <wipeArea+0x149>
    57bf: 65 18        	adc	$18                     ; 0x2018 <wipeArea+0x14c>
    57c1: 86 18        	stx	$18                     ; 0x2018 <wipeArea+0x14c>
    57c3: 85 19        	sta	$19                     ; 0x2019 <wipeArea+0x14d>
    57c5: a5 8c        	lda	$8c                     ; 0x208c <wipeArea+0x1c0>
    57c7: 18           	clc
    57c8: 69 0d        	adc	#$d
    57ca: 85 14        	sta	$14                     ; 0x2014 <wipeArea+0x148>
    57cc: a5 8d        	lda	$8d                     ; 0x208d <wipeArea+0x1c1>
    57ce: 69 00        	adc	#$0
    57d0: a0 0d        	ldy	#$d
    57d2: 85 15        	sta	$15                     ; 0x2015 <wipeArea+0x149>
    57d4: a5 1f        	lda	$1f                     ; 0x201f <wipeArea+0x153>
    57d6: 85 1a        	sta	$1a                     ; 0x201a <wipeArea+0x14e>
    57d8: 91 8c        	sta	($8c),y                 ; 0x208c <wipeArea+0x1c0>
    57da: a0 01        	ldy	#$1
    57dc: a5 1e        	lda	$1e                     ; 0x201e <wipeArea+0x152>
    57de: 91 14        	sta	($14),y                 ; 0x2014 <wipeArea+0x148>
    57e0: e6 18        	inc	$18                     ; 0x2018 <wipeArea+0x14c>
    57e2: d0 1f        	bne	$5803 <_ZN12_GLOBAL__N_15printEPKcP6Status+0x33a>
    57e4: e6 19        	inc	$19                     ; 0x2019 <wipeArea+0x14d>
    57e6: 80 1b        	bra	$5803 <_ZN12_GLOBAL__N_15printEPKcP6Status+0x33a>
    57e8: a0 0d        	ldy	#$d
    57ea: a5 8c        	lda	$8c                     ; 0x208c <wipeArea+0x1c0>
    57ec: 18           	clc
    57ed: 69 0d        	adc	#$d
    57ef: 85 14        	sta	$14                     ; 0x2014 <wipeArea+0x148>
    57f1: a5 8d        	lda	$8d                     ; 0x208d <wipeArea+0x1c1>
    57f3: 69 00        	adc	#$0
    57f5: 85 15        	sta	$15                     ; 0x2015 <wipeArea+0x149>
    57f7: a9 00        	lda	#$0
    57f9: 91 8c        	sta	($8c),y                 ; 0x208c <wipeArea+0x1c0>
    57fb: a0 01        	ldy	#$1
    57fd: 64 1a        	stz	$1a                     ; 0x201a <wipeArea+0x14e>
    57ff: 91 14        	sta	($14),y                 ; 0x2014 <wipeArea+0x148>
    5801: 64 1e        	stz	$1e                     ; 0x201e <wipeArea+0x152>
    5803: a5 92        	lda	$92                     ; 0x2092 <wipeArea+0x1c6>
    5805: 29 ef        	and	#$ef
    5807: a6 8c        	ldx	$8c                     ; 0x208c <wipeArea+0x1c0>
    5809: 86 14        	stx	$14                     ; 0x2014 <wipeArea+0x148>
    580b: a6 8d        	ldx	$8d                     ; 0x208d <wipeArea+0x1c1>
    580d: 86 15        	stx	$15                     ; 0x2015 <wipeArea+0x149>
    580f: e6 14        	inc	$14                     ; 0x2014 <wipeArea+0x148>
    5811: d0 02        	bne	$5815 <_ZN12_GLOBAL__N_15printEPKcP6Status+0x34c>
    5813: e6 15        	inc	$15                     ; 0x2015 <wipeArea+0x149>
    5815: 85 92        	sta	$92                     ; 0x2092 <wipeArea+0x1c6>
    5817: 91 8c        	sta	($8c),y                 ; 0x208c <wipeArea+0x1c0>
    5819: a9 00        	lda	#$0
    581b: 91 14        	sta	($14),y                 ; 0x2014 <wipeArea+0x148>
    581d: b2 18        	lda	($18)                   ; 0x2018 <wipeArea+0x14c>
    581f: a6 1e        	ldx	$1e                     ; 0x201e <wipeArea+0x152>
    5821: 86 1b        	stx	$1b                     ; 0x201b <wipeArea+0x14f>
    5823: a6 18        	ldx	$18                     ; 0x2018 <wipeArea+0x14c>
    5825: 86 14        	stx	$14                     ; 0x2014 <wipeArea+0x148>
    5827: a6 19        	ldx	$19                     ; 0x2019 <wipeArea+0x14d>
    5829: 86 15        	stx	$15                     ; 0x2015 <wipeArea+0x149>
    582b: a6 14        	ldx	$14                     ; 0x2014 <wipeArea+0x148>
    582d: 86 18        	stx	$18                     ; 0x2018 <wipeArea+0x14c>
    582f: a6 15        	ldx	$15                     ; 0x2015 <wipeArea+0x149>
    5831: 86 19        	stx	$19                     ; 0x2019 <wipeArea+0x14d>
    5833: e6 18        	inc	$18                     ; 0x2018 <wipeArea+0x14c>
    5835: d0 02        	bne	$5839 <_ZN12_GLOBAL__N_15printEPKcP6Status+0x370>
    5837: e6 19        	inc	$19                     ; 0x2019 <wipeArea+0x14d>
    5839: 38           	sec
    583a: aa           	tax
    583b: e9 6c        	sbc	#$6c
    583d: 50 02        	bvc	$5841 <_ZN12_GLOBAL__N_15printEPKcP6Status+0x378>
    583f: 49 80        	eor	#$80
    5841: c9 00        	cmp	#$0
    5843: 10 20        	bpl	$5865 <_ZN12_GLOBAL__N_15printEPKcP6Status+0x39c>
    5845: e0 4c        	cpx	#$4c
    5847: f0 3a        	beq	$5883 <_ZN12_GLOBAL__N_15printEPKcP6Status+0x3ba>
    5849: 8a           	txa
    584a: e0 68        	cpx	#$68
    584c: d0 03        	bne	$5851 <_ZN12_GLOBAL__N_15printEPKcP6Status+0x388>
    584e: 4c 15 59     	jmp	$5915 <_ZN12_GLOBAL__N_15printEPKcP6Status+0x44c>
    5851: a0 08        	ldy	#$8
    5853: a2 02        	ldx	#$2
    5855: c9 6a        	cmp	#$6a
    5857: d0 26        	bne	$587f <_ZN12_GLOBAL__N_15printEPKcP6Status+0x3b6>
    5859: a6 18        	ldx	$18                     ; 0x2018 <wipeArea+0x14c>
    585b: 86 14        	stx	$14                     ; 0x2014 <wipeArea+0x148>
    585d: a6 19        	ldx	$19                     ; 0x2019 <wipeArea+0x14d>
    585f: 86 15        	stx	$15                     ; 0x2015 <wipeArea+0x149>
    5861: a2 08        	ldx	#$8
    5863: 80 44        	bra	$58a9 <_ZN12_GLOBAL__N_15printEPKcP6Status+0x3e0>
    5865: e0 6c        	cpx	#$6c
    5867: d0 03        	bne	$586c <_ZN12_GLOBAL__N_15printEPKcP6Status+0x3a3>
    5869: 4c f9 58     	jmp	$58f9 <_ZN12_GLOBAL__N_15printEPKcP6Status+0x430>
    586c: 8a           	txa
    586d: e0 74        	cpx	#$74
    586f: f0 2c        	beq	$589d <_ZN12_GLOBAL__N_15printEPKcP6Status+0x3d4>
    5871: a2 02        	ldx	#$2
    5873: c9 7a        	cmp	#$7a
    5875: d0 08        	bne	$587f <_ZN12_GLOBAL__N_15printEPKcP6Status+0x3b6>
    5877: a4 18        	ldy	$18                     ; 0x2018 <wipeArea+0x14c>
    5879: 84 14        	sty	$14                     ; 0x2014 <wipeArea+0x148>
    587b: a4 19        	ldy	$19                     ; 0x2019 <wipeArea+0x14d>
    587d: 84 15        	sty	$15                     ; 0x2015 <wipeArea+0x149>
    587f: a0 02        	ldy	#$2
    5881: 80 26        	bra	$58a9 <_ZN12_GLOBAL__N_15printEPKcP6Status+0x3e0>
    5883: a5 92        	lda	$92                     ; 0x2092 <wipeArea+0x1c6>
    5885: 09 40        	ora	#$40
    5887: a6 8c        	ldx	$8c                     ; 0x208c <wipeArea+0x1c0>
    5889: 86 14        	stx	$14                     ; 0x2014 <wipeArea+0x148>
    588b: a6 8d        	ldx	$8d                     ; 0x208d <wipeArea+0x1c1>
    588d: 86 15        	stx	$15                     ; 0x2015 <wipeArea+0x149>
    588f: e6 14        	inc	$14                     ; 0x2014 <wipeArea+0x148>
    5891: d0 02        	bne	$5895 <_ZN12_GLOBAL__N_15printEPKcP6Status+0x3cc>
    5893: e6 15        	inc	$15                     ; 0x2015 <wipeArea+0x149>
    5895: 85 92        	sta	$92                     ; 0x2092 <wipeArea+0x1c6>
    5897: 91 8c        	sta	($8c),y                 ; 0x208c <wipeArea+0x1c0>
    5899: a9 00        	lda	#$0
    589b: 91 14        	sta	($14),y                 ; 0x2014 <wipeArea+0x148>
    589d: a6 18        	ldx	$18                     ; 0x2018 <wipeArea+0x14c>
    589f: 86 14        	stx	$14                     ; 0x2014 <wipeArea+0x148>
    58a1: a6 19        	ldx	$19                     ; 0x2019 <wipeArea+0x14d>
    58a3: 86 15        	stx	$15                     ; 0x2015 <wipeArea+0x149>
    58a5: a0 02        	ldy	#$2
    58a7: a2 02        	ldx	#$2
    58a9: b2 14        	lda	($14)                   ; 0x2014 <wipeArea+0x148>
    58ab: 5a           	phy
    58ac: a4 14        	ldy	$14                     ; 0x2014 <wipeArea+0x148>
    58ae: 84 18        	sty	$18                     ; 0x2018 <wipeArea+0x14c>
    58b0: a4 15        	ldy	$15                     ; 0x2015 <wipeArea+0x149>
    58b2: 84 19        	sty	$19                     ; 0x2019 <wipeArea+0x14d>
    58b4: 7a           	ply
    58b5: 86 8e        	stx	$8e                     ; 0x208e <wipeArea+0x1c2>
    58b7: 5a           	phy
    58b8: fa           	plx
    58b9: 18           	clc
    58ba: a8           	tay
    58bb: 69 9d        	adc	#$9d
    58bd: c9 16        	cmp	#$16
    58bf: 86 93        	stx	$93                     ; 0x2093 <wipeArea+0x1c7>
    58c1: 90 03        	bcc	$58c6 <_ZN12_GLOBAL__N_15printEPKcP6Status+0x3fd>
    58c3: 4c 32 59     	jmp	$5932 <_ZN12_GLOBAL__N_15printEPKcP6Status+0x469>
    58c6: 0a           	asl
    58c7: aa           	tax
    58c8: 7c c0 69     	jmp	($69c0,x)               ; 0x69c0 <__bss_size+0x3826>
    58cb: a5 1b        	lda	$1b                     ; 0x201b <wipeArea+0x14f>
    58cd: 85 ba        	sta	$ba                     ; 0x20ba <wipeArea+0x1ee>
    58cf: a4 1a        	ldy	$1a                     ; 0x201a <wipeArea+0x14e>
    58d1: 84 bb        	sty	$bb                     ; 0x20bb <wipeArea+0x1ef>
    58d3: a6 16        	ldx	$16                     ; 0x2016 <wipeArea+0x14a>
    58d5: 86 bd        	stx	$bd                     ; 0x20bd <wipeArea+0x1f1>
    58d7: a6 17        	ldx	$17                     ; 0x2017 <wipeArea+0x14b>
    58d9: 86 bc        	stx	$bc                     ; 0x20bc <wipeArea+0x1f0>
    58db: a6 18        	ldx	$18                     ; 0x2018 <wipeArea+0x14c>
    58dd: 86 12        	stx	$12                     ; 0x2012 <wipeArea+0x146>
    58df: a6 19        	ldx	$19                     ; 0x2019 <wipeArea+0x14d>
    58e1: 86 13        	stx	$13                     ; 0x2013 <wipeArea+0x147>
    58e3: a6 12        	ldx	$12                     ; 0x2012 <wipeArea+0x146>
    58e5: 86 b6        	stx	$b6                     ; 0x20b6 <wipeArea+0x1ea>
    58e7: a6 13        	ldx	$13                     ; 0x2013 <wipeArea+0x147>
    58e9: 86 b7        	stx	$b7                     ; 0x20b7 <wipeArea+0x1eb>
    58eb: a9 0a        	lda	#$a
    58ed: aa           	tax
    58ee: 86 b5        	stx	$b5                     ; 0x20b5 <wipeArea+0x1e9>
    58f0: 92 8c        	sta	($8c)                   ; 0x208c <wipeArea+0x1c0>
    58f2: a2 00        	ldx	#$0
    58f4: 86 be        	stx	$be                     ; 0x20be <wipeArea+0x1f2>
    58f6: 4c 56 5b     	jmp	$5b56 <_ZN12_GLOBAL__N_15printEPKcP6Status+0x68d>
    58f9: b1 14        	lda	($14),y                 ; 0x2014 <wipeArea+0x148>
    58fb: a2 04        	ldx	#$4
    58fd: c9 6c        	cmp	#$6c
    58ff: d0 2c        	bne	$592d <_ZN12_GLOBAL__N_15printEPKcP6Status+0x464>
    5901: a5 14        	lda	$14                     ; 0x2014 <wipeArea+0x148>
    5903: 18           	clc
    5904: 69 02        	adc	#$2
    5906: 85 14        	sta	$14                     ; 0x2014 <wipeArea+0x148>
    5908: a5 15        	lda	$15                     ; 0x2015 <wipeArea+0x149>
    590a: 69 00        	adc	#$0
    590c: 85 15        	sta	$15                     ; 0x2015 <wipeArea+0x149>
    590e: a2 08        	ldx	#$8
    5910: a0 08        	ldy	#$8
    5912: 4c a9 58     	jmp	$58a9 <_ZN12_GLOBAL__N_15printEPKcP6Status+0x3e0>
    5915: b1 14        	lda	($14),y                 ; 0x2014 <wipeArea+0x148>
    5917: a2 02        	ldx	#$2
    5919: c9 68        	cmp	#$68
    591b: d0 10        	bne	$592d <_ZN12_GLOBAL__N_15printEPKcP6Status+0x464>
    591d: a5 14        	lda	$14                     ; 0x2014 <wipeArea+0x148>
    591f: 18           	clc
    5920: 69 02        	adc	#$2
    5922: 85 14        	sta	$14                     ; 0x2014 <wipeArea+0x148>
    5924: a5 15        	lda	$15                     ; 0x2015 <wipeArea+0x149>
    5926: 69 00        	adc	#$0
    5928: 85 15        	sta	$15                     ; 0x2015 <wipeArea+0x149>
    592a: 4c a9 58     	jmp	$58a9 <_ZN12_GLOBAL__N_15printEPKcP6Status+0x3e0>
    592d: 86 8e        	stx	$8e                     ; 0x208e <wipeArea+0x1c2>
    592f: 4c b9 58     	jmp	$58b9 <_ZN12_GLOBAL__N_15printEPKcP6Status+0x3f0>
    5932: c0 58        	cpy	#$58
    5934: f0 03        	beq	$5939 <_ZN12_GLOBAL__N_15printEPKcP6Status+0x470>
    5936: 4c fc 5f     	jmp	$5ffc <_ZN12_GLOBAL__N_15printEPKcP6Status+0xb33>
    5939: a5 1b        	lda	$1b                     ; 0x201b <wipeArea+0x14f>
    593b: 85 ba        	sta	$ba                     ; 0x20ba <wipeArea+0x1ee>
    593d: a4 1a        	ldy	$1a                     ; 0x201a <wipeArea+0x14e>
    593f: 84 bb        	sty	$bb                     ; 0x20bb <wipeArea+0x1ef>
    5941: a6 16        	ldx	$16                     ; 0x2016 <wipeArea+0x14a>
    5943: 86 bd        	stx	$bd                     ; 0x20bd <wipeArea+0x1f1>
    5945: a6 17        	ldx	$17                     ; 0x2017 <wipeArea+0x14b>
    5947: 86 bc        	stx	$bc                     ; 0x20bc <wipeArea+0x1f0>
    5949: a6 18        	ldx	$18                     ; 0x2018 <wipeArea+0x14c>
    594b: 86 12        	stx	$12                     ; 0x2012 <wipeArea+0x146>
    594d: a6 19        	ldx	$19                     ; 0x2019 <wipeArea+0x14d>
    594f: 86 13        	stx	$13                     ; 0x2013 <wipeArea+0x147>
    5951: a6 12        	ldx	$12                     ; 0x2012 <wipeArea+0x146>
    5953: 86 b6        	stx	$b6                     ; 0x20b6 <wipeArea+0x1ea>
    5955: a6 13        	ldx	$13                     ; 0x2013 <wipeArea+0x147>
    5957: 86 b7        	stx	$b7                     ; 0x20b7 <wipeArea+0x1eb>
    5959: a9 10        	lda	#$10
    595b: 4c 36 5b     	jmp	$5b36 <_ZN12_GLOBAL__N_15printEPKcP6Status+0x66d>
    595e: a5 1b        	lda	$1b                     ; 0x201b <wipeArea+0x14f>
    5960: 85 ba        	sta	$ba                     ; 0x20ba <wipeArea+0x1ee>
    5962: a4 1a        	ldy	$1a                     ; 0x201a <wipeArea+0x14e>
    5964: 84 bb        	sty	$bb                     ; 0x20bb <wipeArea+0x1ef>
    5966: a6 16        	ldx	$16                     ; 0x2016 <wipeArea+0x14a>
    5968: 86 bd        	stx	$bd                     ; 0x20bd <wipeArea+0x1f1>
    596a: a6 17        	ldx	$17                     ; 0x2017 <wipeArea+0x14b>
    596c: 86 bc        	stx	$bc                     ; 0x20bc <wipeArea+0x1f0>
    596e: a6 18        	ldx	$18                     ; 0x2018 <wipeArea+0x14c>
    5970: 86 12        	stx	$12                     ; 0x2012 <wipeArea+0x146>
    5972: a6 19        	ldx	$19                     ; 0x2019 <wipeArea+0x14d>
    5974: 86 13        	stx	$13                     ; 0x2013 <wipeArea+0x147>
    5976: a6 12        	ldx	$12                     ; 0x2012 <wipeArea+0x146>
    5978: 86 b6        	stx	$b6                     ; 0x20b6 <wipeArea+0x1ea>
    597a: a6 13        	ldx	$13                     ; 0x2013 <wipeArea+0x147>
    597c: 86 b7        	stx	$b7                     ; 0x20b7 <wipeArea+0x1eb>
    597e: a9 10        	lda	#$10
    5980: 92 8c        	sta	($8c)                   ; 0x208c <wipeArea+0x1c0>
    5982: a5 92        	lda	$92                     ; 0x2092 <wipeArea+0x1c6>
    5984: 09 84        	ora	#$84
    5986: aa           	tax
    5987: a9 00        	lda	#$0
    5989: 09 01        	ora	#$1
    598b: 85 14        	sta	$14                     ; 0x2014 <wipeArea+0x148>
    598d: a4 8c        	ldy	$8c                     ; 0x208c <wipeArea+0x1c0>
    598f: 84 12        	sty	$12                     ; 0x2012 <wipeArea+0x146>
    5991: a4 8d        	ldy	$8d                     ; 0x208d <wipeArea+0x1c1>
    5993: 84 13        	sty	$13                     ; 0x2013 <wipeArea+0x147>
    5995: e6 12        	inc	$12                     ; 0x2012 <wipeArea+0x146>
    5997: d0 02        	bne	$599b <_ZN12_GLOBAL__N_15printEPKcP6Status+0x4d2>
    5999: e6 13        	inc	$13                     ; 0x2013 <wipeArea+0x147>
    599b: a0 01        	ldy	#$1
    599d: 86 92        	stx	$92                     ; 0x2092 <wipeArea+0x1c6>
    599f: 8a           	txa
    59a0: 91 8c        	sta	($8c),y                 ; 0x208c <wipeArea+0x1c0>
    59a2: a5 14        	lda	$14                     ; 0x2014 <wipeArea+0x148>
    59a4: a6 14        	ldx	$14                     ; 0x2014 <wipeArea+0x148>
    59a6: 4c 52 5b     	jmp	$5b52 <_ZN12_GLOBAL__N_15printEPKcP6Status+0x689>
    59a9: a5 1b        	lda	$1b                     ; 0x201b <wipeArea+0x14f>
    59ab: 85 ba        	sta	$ba                     ; 0x20ba <wipeArea+0x1ee>
    59ad: a4 1a        	ldy	$1a                     ; 0x201a <wipeArea+0x14e>
    59af: 84 bb        	sty	$bb                     ; 0x20bb <wipeArea+0x1ef>
    59b1: a6 16        	ldx	$16                     ; 0x2016 <wipeArea+0x14a>
    59b3: 86 bd        	stx	$bd                     ; 0x20bd <wipeArea+0x1f1>
    59b5: a6 17        	ldx	$17                     ; 0x2017 <wipeArea+0x14b>
    59b7: 86 bc        	stx	$bc                     ; 0x20bc <wipeArea+0x1f0>
    59b9: a6 18        	ldx	$18                     ; 0x2018 <wipeArea+0x14c>
    59bb: 86 12        	stx	$12                     ; 0x2012 <wipeArea+0x146>
    59bd: a6 19        	ldx	$19                     ; 0x2019 <wipeArea+0x14d>
    59bf: 86 13        	stx	$13                     ; 0x2013 <wipeArea+0x147>
    59c1: a6 12        	ldx	$12                     ; 0x2012 <wipeArea+0x146>
    59c3: 86 b6        	stx	$b6                     ; 0x20b6 <wipeArea+0x1ea>
    59c5: a6 13        	ldx	$13                     ; 0x2013 <wipeArea+0x147>
    59c7: 86 b7        	stx	$b7                     ; 0x20b7 <wipeArea+0x1eb>
    59c9: a9 10        	lda	#$10
    59cb: 92 8c        	sta	($8c)                   ; 0x208c <wipeArea+0x1c0>
    59cd: a5 92        	lda	$92                     ; 0x2092 <wipeArea+0x1c6>
    59cf: 09 80        	ora	#$80
    59d1: 85 14        	sta	$14                     ; 0x2014 <wipeArea+0x148>
    59d3: a9 00        	lda	#$0
    59d5: 09 01        	ora	#$1
    59d7: aa           	tax
    59d8: a4 8c        	ldy	$8c                     ; 0x208c <wipeArea+0x1c0>
    59da: 84 12        	sty	$12                     ; 0x2012 <wipeArea+0x146>
    59dc: a4 8d        	ldy	$8d                     ; 0x208d <wipeArea+0x1c1>
    59de: 84 13        	sty	$13                     ; 0x2013 <wipeArea+0x147>
    59e0: e6 12        	inc	$12                     ; 0x2012 <wipeArea+0x146>
    59e2: d0 02        	bne	$59e6 <_ZN12_GLOBAL__N_15printEPKcP6Status+0x51d>
    59e4: e6 13        	inc	$13                     ; 0x2013 <wipeArea+0x147>
    59e6: a0 01        	ldy	#$1
    59e8: a5 14        	lda	$14                     ; 0x2014 <wipeArea+0x148>
    59ea: 85 92        	sta	$92                     ; 0x2092 <wipeArea+0x1c6>
    59ec: 4c 4f 5b     	jmp	$5b4f <_ZN12_GLOBAL__N_15printEPKcP6Status+0x686>
    59ef: a4 8c        	ldy	$8c                     ; 0x208c <wipeArea+0x1c0>
    59f1: a5 8c        	lda	$8c                     ; 0x208c <wipeArea+0x1c0>
    59f3: 84 16        	sty	$16                     ; 0x2016 <wipeArea+0x14a>
    59f5: 18           	clc
    59f6: 69 11        	adc	#$11
    59f8: 85 12        	sta	$12                     ; 0x2012 <wipeArea+0x146>
    59fa: a5 8d        	lda	$8d                     ; 0x208d <wipeArea+0x1c1>
    59fc: 69 00        	adc	#$0
    59fe: 85 13        	sta	$13                     ; 0x2013 <wipeArea+0x147>
    5a00: a0 11        	ldy	#$11
    5a02: b1 8c        	lda	($8c),y                 ; 0x208c <wipeArea+0x1c0>
    5a04: 85 14        	sta	$14                     ; 0x2014 <wipeArea+0x148>
    5a06: 18           	clc
    5a07: 69 02        	adc	#$2
    5a09: 91 8c        	sta	($8c),y                 ; 0x208c <wipeArea+0x1c0>
    5a0b: a0 01        	ldy	#$1
    5a0d: b1 12        	lda	($12),y                 ; 0x2012 <wipeArea+0x146>
    5a0f: 85 15        	sta	$15                     ; 0x2015 <wipeArea+0x149>
    5a11: 69 00        	adc	#$0
    5a13: 18           	clc
    5a14: 91 12        	sta	($12),y                 ; 0x2012 <wipeArea+0x146>
    5a16: b2 14        	lda	($14)                   ; 0x2014 <wipeArea+0x148>
    5a18: 85 12        	sta	$12                     ; 0x2012 <wipeArea+0x146>
    5a1a: b1 14        	lda	($14),y                 ; 0x2014 <wipeArea+0x148>
    5a1c: 85 13        	sta	$13                     ; 0x2013 <wipeArea+0x147>
    5a1e: a5 16        	lda	$16                     ; 0x2016 <wipeArea+0x14a>
    5a20: 69 05        	adc	#$5
    5a22: 85 14        	sta	$14                     ; 0x2014 <wipeArea+0x148>
    5a24: a5 8d        	lda	$8d                     ; 0x208d <wipeArea+0x1c1>
    5a26: 69 00        	adc	#$0
    5a28: 85 15        	sta	$15                     ; 0x2015 <wipeArea+0x149>
    5a2a: a0 05        	ldy	#$5
    5a2c: b1 8c        	lda	($8c),y                 ; 0x208c <wipeArea+0x1c0>
    5a2e: 85 16        	sta	$16                     ; 0x2016 <wipeArea+0x14a>
    5a30: a0 01        	ldy	#$1
    5a32: b1 14        	lda	($14),y                 ; 0x2014 <wipeArea+0x148>
    5a34: 85 14        	sta	$14                     ; 0x2014 <wipeArea+0x148>
    5a36: a5 16        	lda	$16                     ; 0x2016 <wipeArea+0x14a>
    5a38: 92 12        	sta	($12)                   ; 0x2012 <wipeArea+0x146>
    5a3a: a5 14        	lda	$14                     ; 0x2014 <wipeArea+0x148>
    5a3c: 91 12        	sta	($12),y                 ; 0x2012 <wipeArea+0x146>
    5a3e: e6 18        	inc	$18                     ; 0x2018 <wipeArea+0x14c>
    5a40: d0 02        	bne	$5a44 <_ZN12_GLOBAL__N_15printEPKcP6Status+0x57b>
    5a42: e6 19        	inc	$19                     ; 0x2019 <wipeArea+0x14d>
    5a44: a6 18        	ldx	$18                     ; 0x2018 <wipeArea+0x14c>
    5a46: 86 12        	stx	$12                     ; 0x2012 <wipeArea+0x146>
    5a48: a6 19        	ldx	$19                     ; 0x2019 <wipeArea+0x14d>
    5a4a: 4c 0e 5b     	jmp	$5b0e <_ZN12_GLOBAL__N_15printEPKcP6Status+0x645>
    5a4d: a0 11        	ldy	#$11
    5a4f: a5 8c        	lda	$8c                     ; 0x208c <wipeArea+0x1c0>
    5a51: 18           	clc
    5a52: 69 11        	adc	#$11
    5a54: 85 12        	sta	$12                     ; 0x2012 <wipeArea+0x146>
    5a56: a5 8d        	lda	$8d                     ; 0x208d <wipeArea+0x1c1>
    5a58: 69 00        	adc	#$0
    5a5a: 85 13        	sta	$13                     ; 0x2013 <wipeArea+0x147>
    5a5c: b1 8c        	lda	($8c),y                 ; 0x208c <wipeArea+0x1c0>
    5a5e: aa           	tax
    5a5f: a0 01        	ldy	#$1
    5a61: b1 12        	lda	($12),y                 ; 0x2012 <wipeArea+0x146>
    5a63: 86 14        	stx	$14                     ; 0x2014 <wipeArea+0x148>
    5a65: 85 15        	sta	$15                     ; 0x2015 <wipeArea+0x149>
    5a67: a8           	tay
    5a68: 18           	clc
    5a69: 8a           	txa
    5a6a: 69 02        	adc	#$2
    5a6c: 85 16        	sta	$16                     ; 0x2016 <wipeArea+0x14a>
    5a6e: 98           	tya
    5a6f: 69 00        	adc	#$0
    5a71: 85 17        	sta	$17                     ; 0x2017 <wipeArea+0x14b>
    5a73: a5 16        	lda	$16                     ; 0x2016 <wipeArea+0x14a>
    5a75: a0 11        	ldy	#$11
    5a77: 91 8c        	sta	($8c),y                 ; 0x208c <wipeArea+0x1c0>
    5a79: a0 01        	ldy	#$1
    5a7b: a5 17        	lda	$17                     ; 0x2017 <wipeArea+0x14b>
    5a7d: 91 12        	sta	($12),y                 ; 0x2012 <wipeArea+0x146>
    5a7f: b2 14        	lda	($14)                   ; 0x2014 <wipeArea+0x148>
    5a81: 85 12        	sta	$12                     ; 0x2012 <wipeArea+0x146>
    5a83: b1 14        	lda	($14),y                 ; 0x2014 <wipeArea+0x148>
    5a85: 85 13        	sta	$13                     ; 0x2013 <wipeArea+0x147>
    5a87: 4c ef 5a     	jmp	$5aef <_ZN12_GLOBAL__N_15printEPKcP6Status+0x626>
    5a8a: a5 1b        	lda	$1b                     ; 0x201b <wipeArea+0x14f>
    5a8c: 85 ba        	sta	$ba                     ; 0x20ba <wipeArea+0x1ee>
    5a8e: a4 1a        	ldy	$1a                     ; 0x201a <wipeArea+0x14e>
    5a90: 84 bb        	sty	$bb                     ; 0x20bb <wipeArea+0x1ef>
    5a92: a6 16        	ldx	$16                     ; 0x2016 <wipeArea+0x14a>
    5a94: 86 bd        	stx	$bd                     ; 0x20bd <wipeArea+0x1f1>
    5a96: a6 17        	ldx	$17                     ; 0x2017 <wipeArea+0x14b>
    5a98: 86 bc        	stx	$bc                     ; 0x20bc <wipeArea+0x1f0>
    5a9a: a6 18        	ldx	$18                     ; 0x2018 <wipeArea+0x14c>
    5a9c: 86 12        	stx	$12                     ; 0x2012 <wipeArea+0x146>
    5a9e: a6 19        	ldx	$19                     ; 0x2019 <wipeArea+0x14d>
    5aa0: 86 13        	stx	$13                     ; 0x2013 <wipeArea+0x147>
    5aa2: a6 12        	ldx	$12                     ; 0x2012 <wipeArea+0x146>
    5aa4: 86 b6        	stx	$b6                     ; 0x20b6 <wipeArea+0x1ea>
    5aa6: a6 13        	ldx	$13                     ; 0x2013 <wipeArea+0x147>
    5aa8: 86 b7        	stx	$b7                     ; 0x20b7 <wipeArea+0x1eb>
    5aaa: a9 08        	lda	#$8
    5aac: 4c 33 5b     	jmp	$5b33 <_ZN12_GLOBAL__N_15printEPKcP6Status+0x66a>
    5aaf: a0 11        	ldy	#$11
    5ab1: a5 8c        	lda	$8c                     ; 0x208c <wipeArea+0x1c0>
    5ab3: 18           	clc
    5ab4: 69 11        	adc	#$11
    5ab6: 85 12        	sta	$12                     ; 0x2012 <wipeArea+0x146>
    5ab8: a5 8d        	lda	$8d                     ; 0x208d <wipeArea+0x1c1>
    5aba: 69 00        	adc	#$0
    5abc: 85 13        	sta	$13                     ; 0x2013 <wipeArea+0x147>
    5abe: b1 8c        	lda	($8c),y                 ; 0x208c <wipeArea+0x1c0>
    5ac0: aa           	tax
    5ac1: a0 01        	ldy	#$1
    5ac3: b1 12        	lda	($12),y                 ; 0x2012 <wipeArea+0x146>
    5ac5: 86 14        	stx	$14                     ; 0x2014 <wipeArea+0x148>
    5ac7: 85 15        	sta	$15                     ; 0x2015 <wipeArea+0x149>
    5ac9: a8           	tay
    5aca: 18           	clc
    5acb: 8a           	txa
    5acc: 69 02        	adc	#$2
    5ace: 85 16        	sta	$16                     ; 0x2016 <wipeArea+0x14a>
    5ad0: 98           	tya
    5ad1: 69 00        	adc	#$0
    5ad3: 85 17        	sta	$17                     ; 0x2017 <wipeArea+0x14b>
    5ad5: a5 16        	lda	$16                     ; 0x2016 <wipeArea+0x14a>
    5ad7: a0 11        	ldy	#$11
    5ad9: 91 8c        	sta	($8c),y                 ; 0x208c <wipeArea+0x1c0>
    5adb: a0 01        	ldy	#$1
    5add: a5 17        	lda	$17                     ; 0x2017 <wipeArea+0x14b>
    5adf: 91 12        	sta	($12),y                 ; 0x2012 <wipeArea+0x146>
    5ae1: b2 14        	lda	($14)                   ; 0x2014 <wipeArea+0x148>
    5ae3: 85 95        	sta	$95                     ; 0x2095 <wipeArea+0x1c9>
    5ae5: 64 96        	stz	$96                     ; 0x2096 <wipeArea+0x1ca>
    5ae7: a2 95        	ldx	#$95
    5ae9: a0 00        	ldy	#$0
    5aeb: 86 12        	stx	$12                     ; 0x2012 <wipeArea+0x146>
    5aed: 84 13        	sty	$13                     ; 0x2013 <wipeArea+0x147>
    5aef: a6 18        	ldx	$18                     ; 0x2018 <wipeArea+0x14c>
    5af1: 86 8e        	stx	$8e                     ; 0x208e <wipeArea+0x1c2>
    5af3: a6 19        	ldx	$19                     ; 0x2019 <wipeArea+0x14d>
    5af5: 86 8f        	stx	$8f                     ; 0x208f <wipeArea+0x1c3>
    5af7: a6 8c        	ldx	$8c                     ; 0x208c <wipeArea+0x1c0>
    5af9: 86 14        	stx	$14                     ; 0x2014 <wipeArea+0x148>
    5afb: a6 8d        	ldx	$8d                     ; 0x208d <wipeArea+0x1c1>
    5afd: 86 15        	stx	$15                     ; 0x2015 <wipeArea+0x149>
    5aff: 20 d0 60     	jsr	$60d0 <_ZN12_GLOBAL__N_112print_stringEPKcP6Status>
    5b02: e6 8e        	inc	$8e                     ; 0x208e <wipeArea+0x1c2>
    5b04: d0 02        	bne	$5b08 <_ZN12_GLOBAL__N_15printEPKcP6Status+0x63f>
    5b06: e6 8f        	inc	$8f                     ; 0x208f <wipeArea+0x1c3>
    5b08: a6 8e        	ldx	$8e                     ; 0x208e <wipeArea+0x1c2>
    5b0a: 86 12        	stx	$12                     ; 0x2012 <wipeArea+0x146>
    5b0c: a6 8f        	ldx	$8f                     ; 0x208f <wipeArea+0x1c3>
    5b0e: 86 13        	stx	$13                     ; 0x2013 <wipeArea+0x147>
    5b10: 60           	rts
    5b11: a5 1b        	lda	$1b                     ; 0x201b <wipeArea+0x14f>
    5b13: 85 ba        	sta	$ba                     ; 0x20ba <wipeArea+0x1ee>
    5b15: a4 1a        	ldy	$1a                     ; 0x201a <wipeArea+0x14e>
    5b17: 84 bb        	sty	$bb                     ; 0x20bb <wipeArea+0x1ef>
    5b19: a6 16        	ldx	$16                     ; 0x2016 <wipeArea+0x14a>
    5b1b: 86 bd        	stx	$bd                     ; 0x20bd <wipeArea+0x1f1>
    5b1d: a6 17        	ldx	$17                     ; 0x2017 <wipeArea+0x14b>
    5b1f: 86 bc        	stx	$bc                     ; 0x20bc <wipeArea+0x1f0>
    5b21: a6 18        	ldx	$18                     ; 0x2018 <wipeArea+0x14c>
    5b23: 86 12        	stx	$12                     ; 0x2012 <wipeArea+0x146>
    5b25: a6 19        	ldx	$19                     ; 0x2019 <wipeArea+0x14d>
    5b27: 86 13        	stx	$13                     ; 0x2013 <wipeArea+0x147>
    5b29: a6 12        	ldx	$12                     ; 0x2012 <wipeArea+0x146>
    5b2b: 86 b6        	stx	$b6                     ; 0x20b6 <wipeArea+0x1ea>
    5b2d: a6 13        	ldx	$13                     ; 0x2013 <wipeArea+0x147>
    5b2f: 86 b7        	stx	$b7                     ; 0x20b7 <wipeArea+0x1eb>
    5b31: a9 0a        	lda	#$a
    5b33: aa           	tax
    5b34: 86 b5        	stx	$b5                     ; 0x20b5 <wipeArea+0x1e9>
    5b36: 92 8c        	sta	($8c)                   ; 0x208c <wipeArea+0x1c0>
    5b38: a9 00        	lda	#$0
    5b3a: 09 01        	ora	#$1
    5b3c: aa           	tax
    5b3d: a4 8c        	ldy	$8c                     ; 0x208c <wipeArea+0x1c0>
    5b3f: 84 12        	sty	$12                     ; 0x2012 <wipeArea+0x146>
    5b41: a4 8d        	ldy	$8d                     ; 0x208d <wipeArea+0x1c1>
    5b43: 84 13        	sty	$13                     ; 0x2013 <wipeArea+0x147>
    5b45: e6 12        	inc	$12                     ; 0x2012 <wipeArea+0x146>
    5b47: d0 02        	bne	$5b4b <_ZN12_GLOBAL__N_15printEPKcP6Status+0x682>
    5b49: e6 13        	inc	$13                     ; 0x2013 <wipeArea+0x147>
    5b4b: a0 01        	ldy	#$1
    5b4d: a5 92        	lda	$92                     ; 0x2092 <wipeArea+0x1c6>
    5b4f: 91 8c        	sta	($8c),y                 ; 0x208c <wipeArea+0x1c0>
    5b51: 8a           	txa
    5b52: 86 be        	stx	$be                     ; 0x20be <wipeArea+0x1f2>
    5b54: 91 12        	sta	($12),y                 ; 0x2012 <wipeArea+0x146>
    5b56: a2 ac        	ldx	#$ac
    5b58: a0 00        	ldy	#$0
    5b5a: 86 12        	stx	$12                     ; 0x2012 <wipeArea+0x146>
    5b5c: 84 13        	sty	$13                     ; 0x2013 <wipeArea+0x147>
    5b5e: e6 12        	inc	$12                     ; 0x2012 <wipeArea+0x146>
    5b60: d0 02        	bne	$5b64 <_ZN12_GLOBAL__N_15printEPKcP6Status+0x69b>
    5b62: e6 13        	inc	$13                     ; 0x2013 <wipeArea+0x147>
    5b64: a0 11        	ldy	#$11
    5b66: a2 00        	ldx	#$0
    5b68: a5 8c        	lda	$8c                     ; 0x208c <wipeArea+0x1c0>
    5b6a: 18           	clc
    5b6b: 69 11        	adc	#$11
    5b6d: 85 90        	sta	$90                     ; 0x2090 <wipeArea+0x1c4>
    5b6f: a5 8d        	lda	$8d                     ; 0x208d <wipeArea+0x1c1>
    5b71: 69 00        	adc	#$0
    5b73: 85 91        	sta	$91                     ; 0x2091 <wipeArea+0x1c5>
    5b75: b1 8c        	lda	($8c),y                 ; 0x208c <wipeArea+0x1c0>
    5b77: 85 8f        	sta	$8f                     ; 0x208f <wipeArea+0x1c3>
    5b79: a0 01        	ldy	#$1
    5b7b: b1 90        	lda	($90),y                 ; 0x2090 <wipeArea+0x1c4>
    5b7d: 85 bf        	sta	$bf                     ; 0x20bf <wipeArea+0x1f3>
    5b7f: a4 8f        	ldy	$8f                     ; 0x208f <wipeArea+0x1c3>
    5b81: 84 14        	sty	$14                     ; 0x2014 <wipeArea+0x148>
    5b83: 85 15        	sta	$15                     ; 0x2015 <wipeArea+0x149>
    5b85: 64 94        	stz	$94                     ; 0x2094 <wipeArea+0x1c8>
    5b87: a5 93        	lda	$93                     ; 0x2093 <wipeArea+0x1c7>
    5b89: a4 93        	ldy	$93                     ; 0x2093 <wipeArea+0x1c7>
    5b8b: 84 c0        	sty	$c0                     ; 0x20c0 <wipeArea+0x1f4>
    5b8d: 20 1d 65     	jsr	$651d <memcpy>
    5b90: a2 00        	ldx	#$0
    5b92: 86 b9        	stx	$b9                     ; 0x20b9 <wipeArea+0x1ed>
    5b94: 18           	clc
    5b95: a5 8f        	lda	$8f                     ; 0x208f <wipeArea+0x1c3>
    5b97: 65 8e        	adc	$8e                     ; 0x208e <wipeArea+0x1c2>
    5b99: 85 13        	sta	$13                     ; 0x2013 <wipeArea+0x147>
    5b9b: a5 bf        	lda	$bf                     ; 0x20bf <wipeArea+0x1f3>
    5b9d: 69 00        	adc	#$0
    5b9f: 85 12        	sta	$12                     ; 0x2012 <wipeArea+0x146>
    5ba1: a0 11        	ldy	#$11
    5ba3: a5 13        	lda	$13                     ; 0x2013 <wipeArea+0x147>
    5ba5: 91 8c        	sta	($8c),y                 ; 0x208c <wipeArea+0x1c0>
    5ba7: a0 01        	ldy	#$1
    5ba9: a5 12        	lda	$12                     ; 0x2012 <wipeArea+0x146>
    5bab: 91 90        	sta	($90),y                 ; 0x2090 <wipeArea+0x1c4>
    5bad: a5 be        	lda	$be                     ; 0x20be <wipeArea+0x1f2>
    5baf: 29 01        	and	#$1
    5bb1: d0 4c        	bne	$5bff <_ZN12_GLOBAL__N_15printEPKcP6Status+0x736>
    5bb3: a6 c0        	ldx	$c0                     ; 0x20c0 <wipeArea+0x1f4>
    5bb5: b4 ac        	ldy	$ac,x                   ; 0x20ac <wipeArea+0x1e0>
    5bb7: a6 bc        	ldx	$bc                     ; 0x20bc <wipeArea+0x1f0>
    5bb9: 86 12        	stx	$12                     ; 0x2012 <wipeArea+0x146>
    5bbb: a6 bd        	ldx	$bd                     ; 0x20bd <wipeArea+0x1f1>
    5bbd: 86 13        	stx	$13                     ; 0x2013 <wipeArea+0x147>
    5bbf: a6 bb        	ldx	$bb                     ; 0x20bb <wipeArea+0x1ef>
    5bc1: 86 8e        	stx	$8e                     ; 0x208e <wipeArea+0x1c2>
    5bc3: a6 ba        	ldx	$ba                     ; 0x20ba <wipeArea+0x1ee>
    5bc5: 86 8f        	stx	$8f                     ; 0x208f <wipeArea+0x1c3>
    5bc7: 98           	tya
    5bc8: 10 45        	bpl	$5c0f <_ZN12_GLOBAL__N_15printEPKcP6Status+0x746>
    5bca: a2 00        	ldx	#$0
    5bcc: 64 14        	stz	$14                     ; 0x2014 <wipeArea+0x148>
    5bce: 38           	sec
    5bcf: a9 00        	lda	#$0
    5bd1: f5 ad        	sbc	$ad,x                   ; 0x20ad <wipeArea+0x1e1>
    5bd3: a0 00        	ldy	#$0
    5bd5: b0 02        	bcs	$5bd9 <_ZN12_GLOBAL__N_15printEPKcP6Status+0x710>
    5bd7: a0 01        	ldy	#$1
    5bd9: 38           	sec
    5bda: e5 14        	sbc	$14                     ; 0x2014 <wipeArea+0x148>
    5bdc: 85 15        	sta	$15                     ; 0x2015 <wipeArea+0x149>
    5bde: 64 14        	stz	$14                     ; 0x2014 <wipeArea+0x148>
    5be0: b0 04        	bcs	$5be6 <_ZN12_GLOBAL__N_15printEPKcP6Status+0x71d>
    5be2: a9 01        	lda	#$1
    5be4: 85 14        	sta	$14                     ; 0x2014 <wipeArea+0x148>
    5be6: 98           	tya
    5be7: 05 14        	ora	$14                     ; 0x2014 <wipeArea+0x148>
    5be9: 85 14        	sta	$14                     ; 0x2014 <wipeArea+0x148>
    5beb: a5 15        	lda	$15                     ; 0x2015 <wipeArea+0x149>
    5bed: 9d ad 00     	sta	$ad,x                   ; 0xad <__rc31+0x7e>
    5bf0: e8           	inx
    5bf1: 86 15        	stx	$15                     ; 0x2015 <wipeArea+0x149>
    5bf3: a4 93        	ldy	$93                     ; 0x2093 <wipeArea+0x1c7>
    5bf5: c4 15        	cpy	$15                     ; 0x2015 <wipeArea+0x149>
    5bf7: d0 d5        	bne	$5bce <_ZN12_GLOBAL__N_15printEPKcP6Status+0x705>
    5bf9: a2 01        	ldx	#$1
    5bfb: 86 b9        	stx	$b9                     ; 0x20b9 <wipeArea+0x1ed>
    5bfd: 80 10        	bra	$5c0f <_ZN12_GLOBAL__N_15printEPKcP6Status+0x746>
    5bff: a6 bc        	ldx	$bc                     ; 0x20bc <wipeArea+0x1f0>
    5c01: 86 12        	stx	$12                     ; 0x2012 <wipeArea+0x146>
    5c03: a6 bd        	ldx	$bd                     ; 0x20bd <wipeArea+0x1f1>
    5c05: 86 13        	stx	$13                     ; 0x2013 <wipeArea+0x147>
    5c07: a6 bb        	ldx	$bb                     ; 0x20bb <wipeArea+0x1ef>
    5c09: 86 8e        	stx	$8e                     ; 0x208e <wipeArea+0x1c2>
    5c0b: a6 ba        	ldx	$ba                     ; 0x20ba <wipeArea+0x1ee>
    5c0d: 86 8f        	stx	$8f                     ; 0x208f <wipeArea+0x1c3>
    5c0f: a5 93        	lda	$93                     ; 0x2093 <wipeArea+0x1c7>
    5c11: 0a           	asl
    5c12: 0a           	asl
    5c13: 0a           	asl
    5c14: 85 14        	sta	$14                     ; 0x2014 <wipeArea+0x148>
    5c16: 64 91        	stz	$91                     ; 0x2091 <wipeArea+0x1c5>
    5c18: a5 91        	lda	$91                     ; 0x2091 <wipeArea+0x1c5>
    5c1a: f0 50        	beq	$5c6c <_ZN12_GLOBAL__N_15printEPKcP6Status+0x7a3>
    5c1c: a6 91        	ldx	$91                     ; 0x2091 <wipeArea+0x1c5>
    5c1e: ca           	dex
    5c1f: 86 17        	stx	$17                     ; 0x2017 <wipeArea+0x14b>
    5c21: a2 00        	ldx	#$0
    5c23: 64 15        	stz	$15                     ; 0x2015 <wipeArea+0x149>
    5c25: 80 0d        	bra	$5c34 <_ZN12_GLOBAL__N_15printEPKcP6Status+0x76b>
    5c27: a4 15        	ldy	$15                     ; 0x2015 <wipeArea+0x149>
    5c29: 99 97 00     	sta	$97,y                   ; 0x97 <__rc31+0x68>
    5c2c: a4 17        	ldy	$17                     ; 0x2017 <wipeArea+0x14b>
    5c2e: c4 15        	cpy	$15                     ; 0x2015 <wipeArea+0x149>
    5c30: f0 46        	beq	$5c78 <_ZN12_GLOBAL__N_15printEPKcP6Status+0x7af>
    5c32: e6 15        	inc	$15                     ; 0x2015 <wipeArea+0x149>
    5c34: a4 15        	ldy	$15                     ; 0x2015 <wipeArea+0x149>
    5c36: b9 97 00     	lda	$97,y                   ; 0x97 <__rc31+0x68>
    5c39: 0a           	asl
    5c3a: e0 00        	cpx	#$0
    5c3c: f0 02        	beq	$5c40 <_ZN12_GLOBAL__N_15printEPKcP6Status+0x777>
    5c3e: 09 01        	ora	#$1
    5c40: a4 b5        	ldy	$b5                     ; 0x20b5 <wipeArea+0x1e9>
    5c42: 84 16        	sty	$16                     ; 0x2016 <wipeArea+0x14a>
    5c44: c5 16        	cmp	$16                     ; 0x2016 <wipeArea+0x14a>
    5c46: a2 01        	ldx	#$1
    5c48: b0 02        	bcs	$5c4c <_ZN12_GLOBAL__N_15printEPKcP6Status+0x783>
    5c4a: a2 00        	ldx	#$0
    5c4c: 90 d9        	bcc	$5c27 <_ZN12_GLOBAL__N_15printEPKcP6Status+0x75e>
    5c4e: 84 16        	sty	$16                     ; 0x2016 <wipeArea+0x14a>
    5c50: 38           	sec
    5c51: e5 16        	sbc	$16                     ; 0x2016 <wipeArea+0x14a>
    5c53: a4 15        	ldy	$15                     ; 0x2015 <wipeArea+0x149>
    5c55: 99 97 00     	sta	$97,y                   ; 0x97 <__rc31+0x68>
    5c58: a4 17        	ldy	$17                     ; 0x2017 <wipeArea+0x14b>
    5c5a: c4 15        	cpy	$15                     ; 0x2015 <wipeArea+0x149>
    5c5c: d0 d4        	bne	$5c32 <_ZN12_GLOBAL__N_15printEPKcP6Status+0x769>
    5c5e: a4 91        	ldy	$91                     ; 0x2091 <wipeArea+0x1c5>
    5c60: a6 91        	ldx	$91                     ; 0x2091 <wipeArea+0x1c5>
    5c62: e8           	inx
    5c63: a9 01        	lda	#$1
    5c65: 99 97 00     	sta	$97,y                   ; 0x97 <__rc31+0x68>
    5c68: da           	phx
    5c69: 7a           	ply
    5c6a: 80 0e        	bra	$5c7a <_ZN12_GLOBAL__N_15printEPKcP6Status+0x7b1>
    5c6c: a6 93        	ldx	$93                     ; 0x2093 <wipeArea+0x1c7>
    5c6e: b5 ac        	lda	$ac,x                   ; 0x20ac <wipeArea+0x1e0>
    5c70: aa           	tax
    5c71: a0 00        	ldy	#$0
    5c73: 8a           	txa
    5c74: 30 36        	bmi	$5cac <_ZN12_GLOBAL__N_15printEPKcP6Status+0x7e3>
    5c76: 80 3e        	bra	$5cb6 <_ZN12_GLOBAL__N_15printEPKcP6Status+0x7ed>
    5c78: a4 91        	ldy	$91                     ; 0x2091 <wipeArea+0x1c5>
    5c7a: a6 93        	ldx	$93                     ; 0x2093 <wipeArea+0x1c7>
    5c7c: b5 ac        	lda	$ac,x                   ; 0x20ac <wipeArea+0x1e0>
    5c7e: aa           	tax
    5c7f: 10 35        	bpl	$5cb6 <_ZN12_GLOBAL__N_15printEPKcP6Status+0x7ed>
    5c81: 98           	tya
    5c82: f0 26        	beq	$5caa <_ZN12_GLOBAL__N_15printEPKcP6Status+0x7e1>
    5c84: 84 16        	sty	$16                     ; 0x2016 <wipeArea+0x14a>
    5c86: a2 00        	ldx	#$0
    5c88: a4 b5        	ldy	$b5                     ; 0x20b5 <wipeArea+0x1e9>
    5c8a: b5 97        	lda	$97,x                   ; 0x2097 <wipeArea+0x1cb>
    5c8c: 1a           	inc
    5c8d: f6 97        	inc	$97,x                   ; 0x2097 <wipeArea+0x1cb>
    5c8f: 84 15        	sty	$15                     ; 0x2015 <wipeArea+0x149>
    5c91: c5 15        	cmp	$15                     ; 0x2015 <wipeArea+0x149>
    5c93: 90 4a        	bcc	$5cdf <_ZN12_GLOBAL__N_15printEPKcP6Status+0x816>
    5c95: 84 15        	sty	$15                     ; 0x2015 <wipeArea+0x149>
    5c97: 38           	sec
    5c98: e5 15        	sbc	$15                     ; 0x2015 <wipeArea+0x149>
    5c9a: 9d 97 00     	sta	$97,x                   ; 0x97 <__rc31+0x68>
    5c9d: e8           	inx
    5c9e: 86 15        	stx	$15                     ; 0x2015 <wipeArea+0x149>
    5ca0: a5 16        	lda	$16                     ; 0x2016 <wipeArea+0x14a>
    5ca2: c5 15        	cmp	$15                     ; 0x2015 <wipeArea+0x149>
    5ca4: d0 e4        	bne	$5c8a <_ZN12_GLOBAL__N_15printEPKcP6Status+0x7c1>
    5ca6: a4 16        	ldy	$16                     ; 0x2016 <wipeArea+0x14a>
    5ca8: 80 02        	bra	$5cac <_ZN12_GLOBAL__N_15printEPKcP6Status+0x7e3>
    5caa: a0 00        	ldy	#$0
    5cac: 5a           	phy
    5cad: fa           	plx
    5cae: e8           	inx
    5caf: a9 01        	lda	#$1
    5cb1: 99 97 00     	sta	$97,y                   ; 0x97 <__rc31+0x68>
    5cb4: da           	phx
    5cb5: 7a           	ply
    5cb6: 84 91        	sty	$91                     ; 0x2091 <wipeArea+0x1c5>
    5cb8: a2 01        	ldx	#$1
    5cba: 64 15        	stz	$15                     ; 0x2015 <wipeArea+0x149>
    5cbc: a4 93        	ldy	$93                     ; 0x2093 <wipeArea+0x1c7>
    5cbe: b5 ac        	lda	$ac,x                   ; 0x20ac <wipeArea+0x1e0>
    5cc0: 0a           	asl
    5cc1: 64 16        	stz	$16                     ; 0x2016 <wipeArea+0x14a>
    5cc3: 26 16        	rol	$16                     ; 0x2016 <wipeArea+0x14a>
    5cc5: 05 15        	ora	$15                     ; 0x2015 <wipeArea+0x149>
    5cc7: 9d ac 00     	sta	$ac,x                   ; 0xac <__rc31+0x7d>
    5cca: e8           	inx
    5ccb: 88           	dey
    5ccc: a5 16        	lda	$16                     ; 0x2016 <wipeArea+0x14a>
    5cce: 85 15        	sta	$15                     ; 0x2015 <wipeArea+0x149>
    5cd0: 98           	tya
    5cd1: d0 eb        	bne	$5cbe <_ZN12_GLOBAL__N_15printEPKcP6Status+0x7f5>
    5cd3: a6 94        	ldx	$94                     ; 0x2094 <wipeArea+0x1c8>
    5cd5: e8           	inx
    5cd6: 86 94        	stx	$94                     ; 0x2094 <wipeArea+0x1c8>
    5cd8: e4 14        	cpx	$14                     ; 0x2014 <wipeArea+0x148>
    5cda: b0 07        	bcs	$5ce3 <_ZN12_GLOBAL__N_15printEPKcP6Status+0x81a>
    5cdc: 4c 18 5c     	jmp	$5c18 <_ZN12_GLOBAL__N_15printEPKcP6Status+0x74f>
    5cdf: a4 16        	ldy	$16                     ; 0x2016 <wipeArea+0x14a>
    5ce1: 80 d3        	bra	$5cb6 <_ZN12_GLOBAL__N_15printEPKcP6Status+0x7ed>
    5ce3: a5 92        	lda	$92                     ; 0x2092 <wipeArea+0x1c6>
    5ce5: a6 8f        	ldx	$8f                     ; 0x208f <wipeArea+0x1c3>
    5ce7: 10 06        	bpl	$5cef <_ZN12_GLOBAL__N_15printEPKcP6Status+0x826>
    5ce9: a2 01        	ldx	#$1
    5ceb: 64 8f        	stz	$8f                     ; 0x208f <wipeArea+0x1c3>
    5ced: 86 8e        	stx	$8e                     ; 0x208e <wipeArea+0x1c2>
    5cef: 29 04        	and	#$4
    5cf1: f0 2c        	beq	$5d1f <_ZN12_GLOBAL__N_15printEPKcP6Status+0x856>
    5cf3: a6 b5        	ldx	$b5                     ; 0x20b5 <wipeArea+0x1e9>
    5cf5: e0 10        	cpx	#$10
    5cf7: f0 14        	beq	$5d0d <_ZN12_GLOBAL__N_15printEPKcP6Status+0x844>
    5cf9: e0 08        	cpx	#$8
    5cfb: d0 22        	bne	$5d1f <_ZN12_GLOBAL__N_15printEPKcP6Status+0x856>
    5cfd: a2 00        	ldx	#$0
    5cff: e4 8f        	cpx	$8f                     ; 0x208f <wipeArea+0x1c3>
    5d01: f0 03        	beq	$5d06 <_ZN12_GLOBAL__N_15printEPKcP6Status+0x83d>
    5d03: 4c 46 5e     	jmp	$5e46 <_ZN12_GLOBAL__N_15printEPKcP6Status+0x97d>
    5d06: a5 91        	lda	$91                     ; 0x2091 <wipeArea+0x1c5>
    5d08: c5 8e        	cmp	$8e                     ; 0x208e <wipeArea+0x1c2>
    5d0a: 4c 48 5e     	jmp	$5e48 <_ZN12_GLOBAL__N_15printEPKcP6Status+0x97f>
    5d0d: a5 91        	lda	$91                     ; 0x2091 <wipeArea+0x1c5>
    5d0f: f0 0e        	beq	$5d1f <_ZN12_GLOBAL__N_15printEPKcP6Status+0x856>
    5d11: a5 92        	lda	$92                     ; 0x2092 <wipeArea+0x1c6>
    5d13: 29 80        	and	#$80
    5d15: d0 03        	bne	$5d1a <_ZN12_GLOBAL__N_15printEPKcP6Status+0x851>
    5d17: 4c 5d 5e     	jmp	$5e5d <_ZN12_GLOBAL__N_15printEPKcP6Status+0x994>
    5d1a: a2 78        	ldx	#$78
    5d1c: 4c 5f 5e     	jmp	$5e5f <_ZN12_GLOBAL__N_15printEPKcP6Status+0x996>
    5d1f: a5 92        	lda	$92                     ; 0x2092 <wipeArea+0x1c6>
    5d21: a2 2d        	ldx	#$2d
    5d23: 86 b5        	stx	$b5                     ; 0x20b5 <wipeArea+0x1e9>
    5d25: a6 b9        	ldx	$b9                     ; 0x20b9 <wipeArea+0x1ed>
    5d27: d0 1b        	bne	$5d44 <_ZN12_GLOBAL__N_15printEPKcP6Status+0x87b>
    5d29: aa           	tax
    5d2a: 29 02        	and	#$2
    5d2c: a0 2b        	ldy	#$2b
    5d2e: 84 b5        	sty	$b5                     ; 0x20b5 <wipeArea+0x1e9>
    5d30: a8           	tay
    5d31: d0 11        	bne	$5d44 <_ZN12_GLOBAL__N_15printEPKcP6Status+0x87b>
    5d33: 8a           	txa
    5d34: 29 08        	and	#$8
    5d36: d0 08        	bne	$5d40 <_ZN12_GLOBAL__N_15printEPKcP6Status+0x877>
    5d38: a2 01        	ldx	#$1
    5d3a: 86 b9        	stx	$b9                     ; 0x20b9 <wipeArea+0x1ed>
    5d3c: a9 00        	lda	#$0
    5d3e: 80 0a        	bra	$5d4a <_ZN12_GLOBAL__N_15printEPKcP6Status+0x881>
    5d40: a2 20        	ldx	#$20
    5d42: 86 b5        	stx	$b5                     ; 0x20b5 <wipeArea+0x1e9>
    5d44: a2 00        	ldx	#$0
    5d46: 86 b9        	stx	$b9                     ; 0x20b9 <wipeArea+0x1ed>
    5d48: a9 01        	lda	#$1
    5d4a: a4 91        	ldy	$91                     ; 0x2091 <wipeArea+0x1c5>
    5d4c: a6 8f        	ldx	$8f                     ; 0x208f <wipeArea+0x1c3>
    5d4e: d0 08        	bne	$5d58 <_ZN12_GLOBAL__N_15printEPKcP6Status+0x88f>
    5d50: a6 8e        	ldx	$8e                     ; 0x208e <wipeArea+0x1c2>
    5d52: 84 14        	sty	$14                     ; 0x2014 <wipeArea+0x148>
    5d54: e4 14        	cpx	$14                     ; 0x2014 <wipeArea+0x148>
    5d56: 80 04        	bra	$5d5c <_ZN12_GLOBAL__N_15printEPKcP6Status+0x893>
    5d58: a6 8f        	ldx	$8f                     ; 0x208f <wipeArea+0x1c3>
    5d5a: e0 00        	cpx	#$0
    5d5c: a6 8e        	ldx	$8e                     ; 0x208e <wipeArea+0x1c2>
    5d5e: 86 14        	stx	$14                     ; 0x2014 <wipeArea+0x148>
    5d60: a6 8f        	ldx	$8f                     ; 0x208f <wipeArea+0x1c3>
    5d62: 86 15        	stx	$15                     ; 0x2015 <wipeArea+0x149>
    5d64: b0 04        	bcs	$5d6a <_ZN12_GLOBAL__N_15printEPKcP6Status+0x8a1>
    5d66: 84 14        	sty	$14                     ; 0x2014 <wipeArea+0x148>
    5d68: 64 15        	stz	$15                     ; 0x2015 <wipeArea+0x149>
    5d6a: 18           	clc
    5d6b: aa           	tax
    5d6c: 65 14        	adc	$14                     ; 0x2014 <wipeArea+0x148>
    5d6e: a8           	tay
    5d6f: 85 16        	sta	$16                     ; 0x2016 <wipeArea+0x14a>
    5d71: a5 15        	lda	$15                     ; 0x2015 <wipeArea+0x149>
    5d73: 69 00        	adc	#$0
    5d75: 85 17        	sta	$17                     ; 0x2017 <wipeArea+0x14b>
    5d77: c5 12        	cmp	$12                     ; 0x2012 <wipeArea+0x146>
    5d79: d0 04        	bne	$5d7f <_ZN12_GLOBAL__N_15printEPKcP6Status+0x8b6>
    5d7b: c4 13        	cpy	$13                     ; 0x2013 <wipeArea+0x147>
    5d7d: 80 02        	bra	$5d81 <_ZN12_GLOBAL__N_15printEPKcP6Status+0x8b8>
    5d7f: c5 12        	cmp	$12                     ; 0x2012 <wipeArea+0x146>
    5d81: 64 90        	stz	$90                     ; 0x2090 <wipeArea+0x1c4>
    5d83: 90 04        	bcc	$5d89 <_ZN12_GLOBAL__N_15printEPKcP6Status+0x8c0>
    5d85: 64 92        	stz	$92                     ; 0x2092 <wipeArea+0x1c6>
    5d87: 80 4d        	bra	$5dd6 <_ZN12_GLOBAL__N_15printEPKcP6Status+0x90d>
    5d89: a5 92        	lda	$92                     ; 0x2092 <wipeArea+0x1c6>
    5d8b: 29 11        	and	#$11
    5d8d: f0 0f        	beq	$5d9e <_ZN12_GLOBAL__N_15printEPKcP6Status+0x8d5>
    5d8f: a5 13        	lda	$13                     ; 0x2013 <wipeArea+0x147>
    5d91: 38           	sec
    5d92: e5 16        	sbc	$16                     ; 0x2016 <wipeArea+0x14a>
    5d94: 85 90        	sta	$90                     ; 0x2090 <wipeArea+0x1c4>
    5d96: a5 12        	lda	$12                     ; 0x2012 <wipeArea+0x146>
    5d98: e5 17        	sbc	$17                     ; 0x2017 <wipeArea+0x14b>
    5d9a: 85 92        	sta	$92                     ; 0x2092 <wipeArea+0x1c6>
    5d9c: 80 38        	bra	$5dd6 <_ZN12_GLOBAL__N_15printEPKcP6Status+0x90d>
    5d9e: 8a           	txa
    5d9f: 38           	sec
    5da0: e5 13        	sbc	$13                     ; 0x2013 <wipeArea+0x147>
    5da2: aa           	tax
    5da3: a9 00        	lda	#$0
    5da5: e5 12        	sbc	$12                     ; 0x2012 <wipeArea+0x146>
    5da7: 85 12        	sta	$12                     ; 0x2012 <wipeArea+0x146>
    5da9: 18           	clc
    5daa: 8a           	txa
    5dab: 65 14        	adc	$14                     ; 0x2014 <wipeArea+0x148>
    5dad: 85 90        	sta	$90                     ; 0x2090 <wipeArea+0x1c4>
    5daf: a5 12        	lda	$12                     ; 0x2012 <wipeArea+0x146>
    5db1: 65 15        	adc	$15                     ; 0x2015 <wipeArea+0x149>
    5db3: 85 92        	sta	$92                     ; 0x2092 <wipeArea+0x1c6>
    5db5: a6 8c        	ldx	$8c                     ; 0x208c <wipeArea+0x1c0>
    5db7: 86 12        	stx	$12                     ; 0x2012 <wipeArea+0x146>
    5db9: a6 8d        	ldx	$8d                     ; 0x208d <wipeArea+0x1c1>
    5dbb: 86 13        	stx	$13                     ; 0x2013 <wipeArea+0x147>
    5dbd: a9 20        	lda	#$20
    5dbf: 20 fd 5f     	jsr	$5ffd <_ZN12_GLOBAL__N_13putEcP6Status>
    5dc2: a6 92        	ldx	$92                     ; 0x2092 <wipeArea+0x1c6>
    5dc4: e6 90        	inc	$90                     ; 0x2090 <wipeArea+0x1c4>
    5dc6: d0 01        	bne	$5dc9 <_ZN12_GLOBAL__N_15printEPKcP6Status+0x900>
    5dc8: e8           	inx
    5dc9: 86 92        	stx	$92                     ; 0x2092 <wipeArea+0x1c6>
    5dcb: 8a           	txa
    5dcc: d0 e7        	bne	$5db5 <_ZN12_GLOBAL__N_15printEPKcP6Status+0x8ec>
    5dce: a5 90        	lda	$90                     ; 0x2090 <wipeArea+0x1c4>
    5dd0: d0 e3        	bne	$5db5 <_ZN12_GLOBAL__N_15printEPKcP6Status+0x8ec>
    5dd2: 64 92        	stz	$92                     ; 0x2092 <wipeArea+0x1c6>
    5dd4: 64 90        	stz	$90                     ; 0x2090 <wipeArea+0x1c4>
    5dd6: a6 b9        	ldx	$b9                     ; 0x20b9 <wipeArea+0x1ed>
    5dd8: d0 0d        	bne	$5de7 <_ZN12_GLOBAL__N_15printEPKcP6Status+0x91e>
    5dda: a6 8c        	ldx	$8c                     ; 0x208c <wipeArea+0x1c0>
    5ddc: 86 12        	stx	$12                     ; 0x2012 <wipeArea+0x146>
    5dde: a6 8d        	ldx	$8d                     ; 0x208d <wipeArea+0x1c1>
    5de0: 86 13        	stx	$13                     ; 0x2013 <wipeArea+0x147>
    5de2: a5 b5        	lda	$b5                     ; 0x20b5 <wipeArea+0x1e9>
    5de4: 20 fd 5f     	jsr	$5ffd <_ZN12_GLOBAL__N_13putEcP6Status>
    5de7: a6 b8        	ldx	$b8                     ; 0x20b8 <wipeArea+0x1ec>
    5de9: f0 0d        	beq	$5df8 <_ZN12_GLOBAL__N_15printEPKcP6Status+0x92f>
    5deb: a6 8c        	ldx	$8c                     ; 0x208c <wipeArea+0x1c0>
    5ded: 86 12        	stx	$12                     ; 0x2012 <wipeArea+0x146>
    5def: a6 8d        	ldx	$8d                     ; 0x208d <wipeArea+0x1c1>
    5df1: 86 13        	stx	$13                     ; 0x2013 <wipeArea+0x147>
    5df3: a5 ba        	lda	$ba                     ; 0x20ba <wipeArea+0x1ee>
    5df5: 20 fd 5f     	jsr	$5ffd <_ZN12_GLOBAL__N_13putEcP6Status>
    5df8: a0 01        	ldy	#$1
    5dfa: b1 8c        	lda	($8c),y                 ; 0x208c <wipeArea+0x1c0>
    5dfc: aa           	tax
    5dfd: 29 10        	and	#$10
    5dff: f0 36        	beq	$5e37 <_ZN12_GLOBAL__N_15printEPKcP6Status+0x96e>
    5e01: 8a           	txa
    5e02: 29 01        	and	#$1
    5e04: a6 91        	ldx	$91                     ; 0x2091 <wipeArea+0x1c5>
    5e06: a8           	tay
    5e07: d0 30        	bne	$5e39 <_ZN12_GLOBAL__N_15printEPKcP6Status+0x970>
    5e09: a5 92        	lda	$92                     ; 0x2092 <wipeArea+0x1c6>
    5e0b: d0 07        	bne	$5e14 <_ZN12_GLOBAL__N_15printEPKcP6Status+0x94b>
    5e0d: a5 90        	lda	$90                     ; 0x2090 <wipeArea+0x1c4>
    5e0f: d0 03        	bne	$5e14 <_ZN12_GLOBAL__N_15printEPKcP6Status+0x94b>
    5e11: 4c 74 5e     	jmp	$5e74 <_ZN12_GLOBAL__N_15printEPKcP6Status+0x9ab>
    5e14: a6 8c        	ldx	$8c                     ; 0x208c <wipeArea+0x1c0>
    5e16: 86 12        	stx	$12                     ; 0x2012 <wipeArea+0x146>
    5e18: a6 8d        	ldx	$8d                     ; 0x208d <wipeArea+0x1c1>
    5e1a: 86 13        	stx	$13                     ; 0x2013 <wipeArea+0x147>
    5e1c: a9 30        	lda	#$30
    5e1e: 20 fd 5f     	jsr	$5ffd <_ZN12_GLOBAL__N_13putEcP6Status>
    5e21: a2 ff        	ldx	#$ff
    5e23: c6 90        	dec	$90                     ; 0x2090 <wipeArea+0x1c4>
    5e25: e4 90        	cpx	$90                     ; 0x2090 <wipeArea+0x1c4>
    5e27: d0 02        	bne	$5e2b <_ZN12_GLOBAL__N_15printEPKcP6Status+0x962>
    5e29: c6 92        	dec	$92                     ; 0x2092 <wipeArea+0x1c6>
    5e2b: a5 92        	lda	$92                     ; 0x2092 <wipeArea+0x1c6>
    5e2d: d0 e5        	bne	$5e14 <_ZN12_GLOBAL__N_15printEPKcP6Status+0x94b>
    5e2f: a5 90        	lda	$90                     ; 0x2090 <wipeArea+0x1c4>
    5e31: d0 e1        	bne	$5e14 <_ZN12_GLOBAL__N_15printEPKcP6Status+0x94b>
    5e33: 64 90        	stz	$90                     ; 0x2090 <wipeArea+0x1c4>
    5e35: 64 92        	stz	$92                     ; 0x2092 <wipeArea+0x1c6>
    5e37: a6 91        	ldx	$91                     ; 0x2091 <wipeArea+0x1c5>
    5e39: a0 00        	ldy	#$0
    5e3b: c4 8f        	cpy	$8f                     ; 0x208f <wipeArea+0x1c3>
    5e3d: f0 3d        	beq	$5e7c <_ZN12_GLOBAL__N_15printEPKcP6Status+0x9b3>
    5e3f: c4 8f        	cpy	$8f                     ; 0x208f <wipeArea+0x1c3>
    5e41: 90 3d        	bcc	$5e80 <_ZN12_GLOBAL__N_15printEPKcP6Status+0x9b7>
    5e43: 4c a3 5e     	jmp	$5ea3 <_ZN12_GLOBAL__N_15printEPKcP6Status+0x9da>
    5e46: e4 8f        	cpx	$8f                     ; 0x208f <wipeArea+0x1c3>
    5e48: a5 92        	lda	$92                     ; 0x2092 <wipeArea+0x1c6>
    5e4a: b0 03        	bcs	$5e4f <_ZN12_GLOBAL__N_15printEPKcP6Status+0x986>
    5e4c: 4c 21 5d     	jmp	$5d21 <_ZN12_GLOBAL__N_15printEPKcP6Status+0x858>
    5e4f: a4 91        	ldy	$91                     ; 0x2091 <wipeArea+0x1c5>
    5e51: 84 8e        	sty	$8e                     ; 0x208e <wipeArea+0x1c2>
    5e53: e6 8e        	inc	$8e                     ; 0x208e <wipeArea+0x1c2>
    5e55: d0 01        	bne	$5e58 <_ZN12_GLOBAL__N_15printEPKcP6Status+0x98f>
    5e57: e8           	inx
    5e58: 86 8f        	stx	$8f                     ; 0x208f <wipeArea+0x1c3>
    5e5a: 4c 21 5d     	jmp	$5d21 <_ZN12_GLOBAL__N_15printEPKcP6Status+0x858>
    5e5d: a2 58        	ldx	#$58
    5e5f: 86 ba        	stx	$ba                     ; 0x20ba <wipeArea+0x1ee>
    5e61: a4 91        	ldy	$91                     ; 0x2091 <wipeArea+0x1c5>
    5e63: a2 01        	ldx	#$1
    5e65: 86 b8        	stx	$b8                     ; 0x20b8 <wipeArea+0x1ec>
    5e67: a2 30        	ldx	#$30
    5e69: 86 b5        	stx	$b5                     ; 0x20b5 <wipeArea+0x1e9>
    5e6b: a9 02        	lda	#$2
    5e6d: a2 00        	ldx	#$0
    5e6f: 86 b9        	stx	$b9                     ; 0x20b9 <wipeArea+0x1ed>
    5e71: 4c 4c 5d     	jmp	$5d4c <_ZN12_GLOBAL__N_15printEPKcP6Status+0x883>
    5e74: 64 90        	stz	$90                     ; 0x2090 <wipeArea+0x1c4>
    5e76: 64 92        	stz	$92                     ; 0x2092 <wipeArea+0x1c6>
    5e78: 80 bf        	bra	$5e39 <_ZN12_GLOBAL__N_15printEPKcP6Status+0x970>
    5e7a: a6 91        	ldx	$91                     ; 0x2091 <wipeArea+0x1c5>
    5e7c: e4 8e        	cpx	$8e                     ; 0x208e <wipeArea+0x1c2>
    5e7e: b0 23        	bcs	$5ea3 <_ZN12_GLOBAL__N_15printEPKcP6Status+0x9da>
    5e80: a2 ff        	ldx	#$ff
    5e82: c6 8e        	dec	$8e                     ; 0x208e <wipeArea+0x1c2>
    5e84: e4 8e        	cpx	$8e                     ; 0x208e <wipeArea+0x1c2>
    5e86: d0 02        	bne	$5e8a <_ZN12_GLOBAL__N_15printEPKcP6Status+0x9c1>
    5e88: c6 8f        	dec	$8f                     ; 0x208f <wipeArea+0x1c3>
    5e8a: a6 8c        	ldx	$8c                     ; 0x208c <wipeArea+0x1c0>
    5e8c: 86 12        	stx	$12                     ; 0x2012 <wipeArea+0x146>
    5e8e: a6 8d        	ldx	$8d                     ; 0x208d <wipeArea+0x1c1>
    5e90: 86 13        	stx	$13                     ; 0x2013 <wipeArea+0x147>
    5e92: a9 30        	lda	#$30
    5e94: 20 fd 5f     	jsr	$5ffd <_ZN12_GLOBAL__N_13putEcP6Status>
    5e97: a2 00        	ldx	#$0
    5e99: e4 8f        	cpx	$8f                     ; 0x208f <wipeArea+0x1c3>
    5e9b: f0 dd        	beq	$5e7a <_ZN12_GLOBAL__N_15printEPKcP6Status+0x9b1>
    5e9d: e4 8f        	cpx	$8f                     ; 0x208f <wipeArea+0x1c3>
    5e9f: a6 91        	ldx	$91                     ; 0x2091 <wipeArea+0x1c5>
    5ea1: 90 dd        	bcc	$5e80 <_ZN12_GLOBAL__N_15printEPKcP6Status+0x9b7>
    5ea3: a4 90        	ldy	$90                     ; 0x2090 <wipeArea+0x1c4>
    5ea5: 84 91        	sty	$91                     ; 0x2091 <wipeArea+0x1c5>
    5ea7: 8a           	txa
    5ea8: d0 03        	bne	$5ead <_ZN12_GLOBAL__N_15printEPKcP6Status+0x9e4>
    5eaa: 4c 3d 5f     	jmp	$5f3d <_ZN12_GLOBAL__N_15printEPKcP6Status+0xa74>
    5ead: ca           	dex
    5eae: d0 03        	bne	$5eb3 <_ZN12_GLOBAL__N_15printEPKcP6Status+0x9ea>
    5eb0: 4c 0e 5f     	jmp	$5f0e <_ZN12_GLOBAL__N_15printEPKcP6Status+0xa45>
    5eb3: 86 90        	stx	$90                     ; 0x2090 <wipeArea+0x1c4>
    5eb5: a9 95        	lda	#$95
    5eb7: 18           	clc
    5eb8: 65 90        	adc	$90                     ; 0x2090 <wipeArea+0x1c4>
    5eba: aa           	tax
    5ebb: a9 00        	lda	#$0
    5ebd: 69 00        	adc	#$0
    5ebf: 85 12        	sta	$12                     ; 0x2012 <wipeArea+0x146>
    5ec1: 18           	clc
    5ec2: 8a           	txa
    5ec3: 69 02        	adc	#$2
    5ec5: 85 8e        	sta	$8e                     ; 0x208e <wipeArea+0x1c2>
    5ec7: a5 12        	lda	$12                     ; 0x2012 <wipeArea+0x146>
    5ec9: 69 00        	adc	#$0
    5ecb: 85 8f        	sta	$8f                     ; 0x208f <wipeArea+0x1c3>
    5ecd: 80 35        	bra	$5f04 <_ZN12_GLOBAL__N_15printEPKcP6Status+0xa3b>
    5ecf: 85 13        	sta	$13                     ; 0x2013 <wipeArea+0x147>
    5ed1: a9 80        	lda	#$80
    5ed3: a0 01        	ldy	#$1
    5ed5: 31 8c        	and	($8c),y                 ; 0x208c <wipeArea+0x1c0>
    5ed7: f0 04        	beq	$5edd <_ZN12_GLOBAL__N_15printEPKcP6Status+0xa14>
    5ed9: a2 61        	ldx	#$61
    5edb: 80 02        	bra	$5edf <_ZN12_GLOBAL__N_15printEPKcP6Status+0xa16>
    5edd: a2 41        	ldx	#$41
    5edf: 86 12        	stx	$12                     ; 0x2012 <wipeArea+0x146>
    5ee1: 18           	clc
    5ee2: a5 13        	lda	$13                     ; 0x2013 <wipeArea+0x147>
    5ee4: 65 12        	adc	$12                     ; 0x2012 <wipeArea+0x146>
    5ee6: 18           	clc
    5ee7: 69 f6        	adc	#$f6
    5ee9: a6 8c        	ldx	$8c                     ; 0x208c <wipeArea+0x1c0>
    5eeb: 86 12        	stx	$12                     ; 0x2012 <wipeArea+0x146>
    5eed: a6 8d        	ldx	$8d                     ; 0x208d <wipeArea+0x1c1>
    5eef: 86 13        	stx	$13                     ; 0x2013 <wipeArea+0x147>
    5ef1: 20 fd 5f     	jsr	$5ffd <_ZN12_GLOBAL__N_13putEcP6Status>
    5ef4: c6 90        	dec	$90                     ; 0x2090 <wipeArea+0x1c4>
    5ef6: a2 ff        	ldx	#$ff
    5ef8: c6 8e        	dec	$8e                     ; 0x208e <wipeArea+0x1c2>
    5efa: e4 8e        	cpx	$8e                     ; 0x208e <wipeArea+0x1c2>
    5efc: d0 02        	bne	$5f00 <_ZN12_GLOBAL__N_15printEPKcP6Status+0xa37>
    5efe: c6 8f        	dec	$8f                     ; 0x208f <wipeArea+0x1c3>
    5f00: a5 90        	lda	$90                     ; 0x2090 <wipeArea+0x1c4>
    5f02: f0 0a        	beq	$5f0e <_ZN12_GLOBAL__N_15printEPKcP6Status+0xa45>
    5f04: b2 8e        	lda	($8e)                   ; 0x208e <wipeArea+0x1c2>
    5f06: c9 0a        	cmp	#$a
    5f08: b0 c5        	bcs	$5ecf <_ZN12_GLOBAL__N_15printEPKcP6Status+0xa06>
    5f0a: 09 30        	ora	#$30
    5f0c: 80 db        	bra	$5ee9 <_ZN12_GLOBAL__N_15printEPKcP6Status+0xa20>
    5f0e: a5 97        	lda	$97                     ; 0x2097 <wipeArea+0x1cb>
    5f10: c9 0a        	cmp	#$a
    5f12: b0 04        	bcs	$5f18 <_ZN12_GLOBAL__N_15printEPKcP6Status+0xa4f>
    5f14: 09 30        	ora	#$30
    5f16: 80 1a        	bra	$5f32 <_ZN12_GLOBAL__N_15printEPKcP6Status+0xa69>
    5f18: 85 13        	sta	$13                     ; 0x2013 <wipeArea+0x147>
    5f1a: a0 01        	ldy	#$1
    5f1c: a9 80        	lda	#$80
    5f1e: 31 8c        	and	($8c),y                 ; 0x208c <wipeArea+0x1c0>
    5f20: f0 04        	beq	$5f26 <_ZN12_GLOBAL__N_15printEPKcP6Status+0xa5d>
    5f22: a2 61        	ldx	#$61
    5f24: 80 02        	bra	$5f28 <_ZN12_GLOBAL__N_15printEPKcP6Status+0xa5f>
    5f26: a2 41        	ldx	#$41
    5f28: 86 12        	stx	$12                     ; 0x2012 <wipeArea+0x146>
    5f2a: a5 13        	lda	$13                     ; 0x2013 <wipeArea+0x147>
    5f2c: 18           	clc
    5f2d: 65 12        	adc	$12                     ; 0x2012 <wipeArea+0x146>
    5f2f: 18           	clc
    5f30: 69 f6        	adc	#$f6
    5f32: a6 8c        	ldx	$8c                     ; 0x208c <wipeArea+0x1c0>
    5f34: 86 12        	stx	$12                     ; 0x2012 <wipeArea+0x146>
    5f36: a6 8d        	ldx	$8d                     ; 0x208d <wipeArea+0x1c1>
    5f38: 86 13        	stx	$13                     ; 0x2013 <wipeArea+0x147>
    5f3a: 20 fd 5f     	jsr	$5ffd <_ZN12_GLOBAL__N_13putEcP6Status>
    5f3d: a0 01        	ldy	#$1
    5f3f: 98           	tya
    5f40: 31 8c        	and	($8c),y                 ; 0x208c <wipeArea+0x1c0>
    5f42: f0 21        	beq	$5f65 <_ZN12_GLOBAL__N_15printEPKcP6Status+0xa9c>
    5f44: a5 92        	lda	$92                     ; 0x2092 <wipeArea+0x1c6>
    5f46: f0 19        	beq	$5f61 <_ZN12_GLOBAL__N_15printEPKcP6Status+0xa98>
    5f48: a6 8c        	ldx	$8c                     ; 0x208c <wipeArea+0x1c0>
    5f4a: 86 12        	stx	$12                     ; 0x2012 <wipeArea+0x146>
    5f4c: a6 8d        	ldx	$8d                     ; 0x208d <wipeArea+0x1c1>
    5f4e: 86 13        	stx	$13                     ; 0x2013 <wipeArea+0x147>
    5f50: a9 20        	lda	#$20
    5f52: 20 fd 5f     	jsr	$5ffd <_ZN12_GLOBAL__N_13putEcP6Status>
    5f55: a2 ff        	ldx	#$ff
    5f57: c6 91        	dec	$91                     ; 0x2091 <wipeArea+0x1c5>
    5f59: e4 91        	cpx	$91                     ; 0x2091 <wipeArea+0x1c5>
    5f5b: d0 e7        	bne	$5f44 <_ZN12_GLOBAL__N_15printEPKcP6Status+0xa7b>
    5f5d: c6 92        	dec	$92                     ; 0x2092 <wipeArea+0x1c6>
    5f5f: 80 e3        	bra	$5f44 <_ZN12_GLOBAL__N_15printEPKcP6Status+0xa7b>
    5f61: a5 91        	lda	$91                     ; 0x2091 <wipeArea+0x1c5>
    5f63: d0 e3        	bne	$5f48 <_ZN12_GLOBAL__N_15printEPKcP6Status+0xa7f>
    5f65: a4 8c        	ldy	$8c                     ; 0x208c <wipeArea+0x1c0>
    5f67: a5 8c        	lda	$8c                     ; 0x208c <wipeArea+0x1c0>
    5f69: 84 14        	sty	$14                     ; 0x2014 <wipeArea+0x148>
    5f6b: 18           	clc
    5f6c: 69 05        	adc	#$5
    5f6e: 85 12        	sta	$12                     ; 0x2012 <wipeArea+0x146>
    5f70: a5 8d        	lda	$8d                     ; 0x208d <wipeArea+0x1c1>
    5f72: 69 00        	adc	#$0
    5f74: 18           	clc
    5f75: 85 13        	sta	$13                     ; 0x2013 <wipeArea+0x147>
    5f77: a0 01        	ldy	#$1
    5f79: a5 14        	lda	$14                     ; 0x2014 <wipeArea+0x148>
    5f7b: 69 03        	adc	#$3
    5f7d: 85 14        	sta	$14                     ; 0x2014 <wipeArea+0x148>
    5f7f: a5 8d        	lda	$8d                     ; 0x208d <wipeArea+0x1c1>
    5f81: 69 00        	adc	#$0
    5f83: aa           	tax
    5f84: b1 12        	lda	($12),y                 ; 0x2012 <wipeArea+0x146>
    5f86: 85 15        	sta	$15                     ; 0x2015 <wipeArea+0x149>
    5f88: a4 14        	ldy	$14                     ; 0x2014 <wipeArea+0x148>
    5f8a: 84 12        	sty	$12                     ; 0x2012 <wipeArea+0x146>
    5f8c: 86 13        	stx	$13                     ; 0x2013 <wipeArea+0x147>
    5f8e: a0 03        	ldy	#$3
    5f90: b1 8c        	lda	($8c),y                 ; 0x208c <wipeArea+0x1c0>
    5f92: 85 16        	sta	$16                     ; 0x2016 <wipeArea+0x14a>
    5f94: a0 01        	ldy	#$1
    5f96: b1 12        	lda	($12),y                 ; 0x2012 <wipeArea+0x146>
    5f98: 85 17        	sta	$17                     ; 0x2017 <wipeArea+0x14b>
    5f9a: 85 12        	sta	$12                     ; 0x2012 <wipeArea+0x146>
    5f9c: a4 15        	ldy	$15                     ; 0x2015 <wipeArea+0x149>
    5f9e: c4 12        	cpy	$12                     ; 0x2012 <wipeArea+0x146>
    5fa0: d0 0c        	bne	$5fae <_ZN12_GLOBAL__N_15printEPKcP6Status+0xae5>
    5fa2: a6 16        	ldx	$16                     ; 0x2016 <wipeArea+0x14a>
    5fa4: a0 05        	ldy	#$5
    5fa6: b1 8c        	lda	($8c),y                 ; 0x208c <wipeArea+0x1c0>
    5fa8: 86 12        	stx	$12                     ; 0x2012 <wipeArea+0x146>
    5faa: c5 12        	cmp	$12                     ; 0x2012 <wipeArea+0x146>
    5fac: 80 08        	bra	$5fb6 <_ZN12_GLOBAL__N_15printEPKcP6Status+0xaed>
    5fae: 84 13        	sty	$13                     ; 0x2013 <wipeArea+0x147>
    5fb0: 85 12        	sta	$12                     ; 0x2012 <wipeArea+0x146>
    5fb2: a6 13        	ldx	$13                     ; 0x2013 <wipeArea+0x147>
    5fb4: e4 12        	cpx	$12                     ; 0x2012 <wipeArea+0x146>
    5fb6: a6 b6        	ldx	$b6                     ; 0x20b6 <wipeArea+0x1ea>
    5fb8: 86 12        	stx	$12                     ; 0x2012 <wipeArea+0x146>
    5fba: a6 b7        	ldx	$b7                     ; 0x20b7 <wipeArea+0x1eb>
    5fbc: 86 13        	stx	$13                     ; 0x2013 <wipeArea+0x147>
    5fbe: 90 36        	bcc	$5ff6 <_ZN12_GLOBAL__N_15printEPKcP6Status+0xb2d>
    5fc0: a6 16        	ldx	$16                     ; 0x2016 <wipeArea+0x14a>
    5fc2: a5 17        	lda	$17                     ; 0x2017 <wipeArea+0x14b>
    5fc4: d0 03        	bne	$5fc9 <_ZN12_GLOBAL__N_15printEPKcP6Status+0xb00>
    5fc6: 8a           	txa
    5fc7: f0 2d        	beq	$5ff6 <_ZN12_GLOBAL__N_15printEPKcP6Status+0xb2d>
    5fc9: a5 8c        	lda	$8c                     ; 0x208c <wipeArea+0x1c0>
    5fcb: 18           	clc
    5fcc: 69 09        	adc	#$9
    5fce: 85 14        	sta	$14                     ; 0x2014 <wipeArea+0x148>
    5fd0: a5 8d        	lda	$8d                     ; 0x208d <wipeArea+0x1c1>
    5fd2: 69 00        	adc	#$0
    5fd4: a0 09        	ldy	#$9
    5fd6: 85 15        	sta	$15                     ; 0x2015 <wipeArea+0x149>
    5fd8: 18           	clc
    5fd9: a5 16        	lda	$16                     ; 0x2016 <wipeArea+0x14a>
    5fdb: 71 8c        	adc	($8c),y                 ; 0x208c <wipeArea+0x1c0>
    5fdd: aa           	tax
    5fde: a0 01        	ldy	#$1
    5fe0: a5 17        	lda	$17                     ; 0x2017 <wipeArea+0x14b>
    5fe2: 71 14        	adc	($14),y                 ; 0x2014 <wipeArea+0x148>
    5fe4: 86 14        	stx	$14                     ; 0x2014 <wipeArea+0x148>
    5fe6: 85 15        	sta	$15                     ; 0x2015 <wipeArea+0x149>
    5fe8: a2 ff        	ldx	#$ff
    5fea: c6 14        	dec	$14                     ; 0x2014 <wipeArea+0x148>
    5fec: e4 14        	cpx	$14                     ; 0x2014 <wipeArea+0x148>
    5fee: d0 02        	bne	$5ff2 <_ZN12_GLOBAL__N_15printEPKcP6Status+0xb29>
    5ff0: c6 15        	dec	$15                     ; 0x2015 <wipeArea+0x149>
    5ff2: a9 00        	lda	#$0
    5ff4: 92 14        	sta	($14)                   ; 0x2014 <wipeArea+0x148>
    5ff6: e6 12        	inc	$12                     ; 0x2012 <wipeArea+0x146>
    5ff8: d0 02        	bne	$5ffc <_ZN12_GLOBAL__N_15printEPKcP6Status+0xb33>
    5ffa: e6 13        	inc	$13                     ; 0x2013 <wipeArea+0x147>
    5ffc: 60           	rts

00005ffd <_ZN12_GLOBAL__N_13putEcP6Status>:
    5ffd: 85 18        	sta	$18                     ; 0x2018 <wipeArea+0x14c>
    5fff: a6 13        	ldx	$13                     ; 0x2013 <wipeArea+0x147>
    6001: 18           	clc
    6002: a5 12        	lda	$12                     ; 0x2012 <wipeArea+0x146>
    6004: 69 05        	adc	#$5
    6006: a8           	tay
    6007: a5 13        	lda	$13                     ; 0x2013 <wipeArea+0x147>
    6009: 86 15        	stx	$15                     ; 0x2015 <wipeArea+0x149>
    600b: 69 00        	adc	#$0
    600d: 18           	clc
    600e: 84 16        	sty	$16                     ; 0x2016 <wipeArea+0x14a>
    6010: a0 05        	ldy	#$5
    6012: 85 17        	sta	$17                     ; 0x2017 <wipeArea+0x14b>
    6014: b1 12        	lda	($12),y                 ; 0x2012 <wipeArea+0x146>
    6016: aa           	tax
    6017: a5 12        	lda	$12                     ; 0x2012 <wipeArea+0x146>
    6019: 69 03        	adc	#$3
    601b: 85 14        	sta	$14                     ; 0x2014 <wipeArea+0x148>
    601d: a5 15        	lda	$15                     ; 0x2015 <wipeArea+0x149>
    601f: 69 00        	adc	#$0
    6021: 85 15        	sta	$15                     ; 0x2015 <wipeArea+0x149>
    6023: a0 01        	ldy	#$1
    6025: b1 16        	lda	($16),y                 ; 0x2016 <wipeArea+0x14a>
    6027: d1 14        	cmp	($14),y                 ; 0x2014 <wipeArea+0x148>
    6029: d0 11        	bne	$603c <_ZN12_GLOBAL__N_13putEcP6Status+0x3f>
    602b: a0 03        	ldy	#$3
    602d: 85 17        	sta	$17                     ; 0x2017 <wipeArea+0x14b>
    602f: b1 12        	lda	($12),y                 ; 0x2012 <wipeArea+0x146>
    6031: 85 14        	sta	$14                     ; 0x2014 <wipeArea+0x148>
    6033: 86 16        	stx	$16                     ; 0x2016 <wipeArea+0x14a>
    6035: e4 14        	cpx	$14                     ; 0x2014 <wipeArea+0x148>
    6037: 90 0e        	bcc	$6047 <_ZN12_GLOBAL__N_13putEcP6Status+0x4a>
    6039: 4c a8 60     	jmp	$60a8 <_ZN12_GLOBAL__N_13putEcP6Status+0xab>
    603c: 86 16        	stx	$16                     ; 0x2016 <wipeArea+0x14a>
    603e: d1 14        	cmp	($14),y                 ; 0x2014 <wipeArea+0x148>
    6040: 85 17        	sta	$17                     ; 0x2017 <wipeArea+0x14b>
    6042: 90 03        	bcc	$6047 <_ZN12_GLOBAL__N_13putEcP6Status+0x4a>
    6044: 4c a8 60     	jmp	$60a8 <_ZN12_GLOBAL__N_13putEcP6Status+0xab>
    6047: a5 12        	lda	$12                     ; 0x2012 <wipeArea+0x146>
    6049: 18           	clc
    604a: 69 0f        	adc	#$f
    604c: 85 14        	sta	$14                     ; 0x2014 <wipeArea+0x148>
    604e: a5 13        	lda	$13                     ; 0x2013 <wipeArea+0x147>
    6050: 69 00        	adc	#$0
    6052: 85 15        	sta	$15                     ; 0x2015 <wipeArea+0x149>
    6054: a0 01        	ldy	#$1
    6056: b1 14        	lda	($14),y                 ; 0x2014 <wipeArea+0x148>
    6058: a2 00        	ldx	#$0
    605a: 86 14        	stx	$14                     ; 0x2014 <wipeArea+0x148>
    605c: a2 00        	ldx	#$0
    605e: 86 15        	stx	$15                     ; 0x2015 <wipeArea+0x149>
    6060: c5 15        	cmp	$15                     ; 0x2015 <wipeArea+0x149>
    6062: d0 2d        	bne	$6091 <_ZN12_GLOBAL__N_13putEcP6Status+0x94>
    6064: a0 0f        	ldy	#$f
    6066: b1 12        	lda	($12),y                 ; 0x2012 <wipeArea+0x146>
    6068: c5 14        	cmp	$14                     ; 0x2014 <wipeArea+0x148>
    606a: d0 25        	bne	$6091 <_ZN12_GLOBAL__N_13putEcP6Status+0x94>
    606c: a5 12        	lda	$12                     ; 0x2012 <wipeArea+0x146>
    606e: 18           	clc
    606f: 69 09        	adc	#$9
    6071: 85 14        	sta	$14                     ; 0x2014 <wipeArea+0x148>
    6073: a5 13        	lda	$13                     ; 0x2013 <wipeArea+0x147>
    6075: 69 00        	adc	#$0
    6077: a0 09        	ldy	#$9
    6079: 85 15        	sta	$15                     ; 0x2015 <wipeArea+0x149>
    607b: 18           	clc
    607c: a5 16        	lda	$16                     ; 0x2016 <wipeArea+0x14a>
    607e: 71 12        	adc	($12),y                 ; 0x2012 <wipeArea+0x146>
    6080: aa           	tax
    6081: a0 01        	ldy	#$1
    6083: a5 17        	lda	$17                     ; 0x2017 <wipeArea+0x14b>
    6085: 71 14        	adc	($14),y                 ; 0x2014 <wipeArea+0x148>
    6087: 86 14        	stx	$14                     ; 0x2014 <wipeArea+0x148>
    6089: 85 15        	sta	$15                     ; 0x2015 <wipeArea+0x149>
    608b: a5 18        	lda	$18                     ; 0x2018 <wipeArea+0x14c>
    608d: 92 14        	sta	($14)                   ; 0x2014 <wipeArea+0x148>
    608f: 80 17        	bra	$60a8 <_ZN12_GLOBAL__N_13putEcP6Status+0xab>
    6091: a6 12        	ldx	$12                     ; 0x2012 <wipeArea+0x146>
    6093: 86 c9        	stx	$c9                     ; 0x20c9 <wipeArea+0x1fd>
    6095: a6 13        	ldx	$13                     ; 0x2013 <wipeArea+0x147>
    6097: 86 ca        	stx	$ca                     ; 0x20ca <wipeArea+0x1fe>
    6099: a2 00        	ldx	#$0
    609b: a5 18        	lda	$18                     ; 0x2018 <wipeArea+0x14c>
    609d: 20 38 63     	jsr	$6338 <putchar>
    60a0: a6 c9        	ldx	$c9                     ; 0x20c9 <wipeArea+0x1fd>
    60a2: 86 12        	stx	$12                     ; 0x2012 <wipeArea+0x146>
    60a4: a6 ca        	ldx	$ca                     ; 0x20ca <wipeArea+0x1fe>
    60a6: 86 13        	stx	$13                     ; 0x2013 <wipeArea+0x147>
    60a8: a0 05        	ldy	#$5
    60aa: a5 12        	lda	$12                     ; 0x2012 <wipeArea+0x146>
    60ac: 18           	clc
    60ad: 69 05        	adc	#$5
    60af: 85 14        	sta	$14                     ; 0x2014 <wipeArea+0x148>
    60b1: a5 13        	lda	$13                     ; 0x2013 <wipeArea+0x147>
    60b3: 69 00        	adc	#$0
    60b5: 85 15        	sta	$15                     ; 0x2015 <wipeArea+0x149>
    60b7: b1 12        	lda	($12),y                 ; 0x2012 <wipeArea+0x146>
    60b9: aa           	tax
    60ba: a0 01        	ldy	#$1
    60bc: b1 14        	lda	($14),y                 ; 0x2014 <wipeArea+0x148>
    60be: e8           	inx
    60bf: d0 01        	bne	$60c2 <_ZN12_GLOBAL__N_13putEcP6Status+0xc5>
    60c1: 1a           	inc
    60c2: 85 16        	sta	$16                     ; 0x2016 <wipeArea+0x14a>
    60c4: 8a           	txa
    60c5: a0 05        	ldy	#$5
    60c7: 91 12        	sta	($12),y                 ; 0x2012 <wipeArea+0x146>
    60c9: a0 01        	ldy	#$1
    60cb: a5 16        	lda	$16                     ; 0x2016 <wipeArea+0x14a>
    60cd: 91 14        	sta	($14),y                 ; 0x2014 <wipeArea+0x148>
    60cf: 60           	rts

000060d0 <_ZN12_GLOBAL__N_112print_stringEPKcP6Status>:
    60d0: a6 12        	ldx	$12                     ; 0x2012 <wipeArea+0x146>
    60d2: 86 c1        	stx	$c1                     ; 0x20c1 <wipeArea+0x1f5>
    60d4: a6 13        	ldx	$13                     ; 0x2013 <wipeArea+0x147>
    60d6: 86 c2        	stx	$c2                     ; 0x20c2 <wipeArea+0x1f6>
    60d8: a6 14        	ldx	$14                     ; 0x2014 <wipeArea+0x148>
    60da: 86 c3        	stx	$c3                     ; 0x20c3 <wipeArea+0x1f7>
    60dc: a6 15        	ldx	$15                     ; 0x2015 <wipeArea+0x149>
    60de: 86 c4        	stx	$c4                     ; 0x20c4 <wipeArea+0x1f8>
    60e0: a5 c3        	lda	$c3                     ; 0x20c3 <wipeArea+0x1f7>
    60e2: 18           	clc
    60e3: 69 0d        	adc	#$d
    60e5: 85 12        	sta	$12                     ; 0x2012 <wipeArea+0x146>
    60e7: a5 c4        	lda	$c4                     ; 0x20c4 <wipeArea+0x1f8>
    60e9: 69 00        	adc	#$0
    60eb: 85 13        	sta	$13                     ; 0x2013 <wipeArea+0x147>
    60ed: a0 01        	ldy	#$1
    60ef: b1 12        	lda	($12),y                 ; 0x2012 <wipeArea+0x146>
    60f1: 30 16        	bmi	$6109 <_ZN12_GLOBAL__N_112print_stringEPKcP6Status+0x39>
    60f3: a0 0d        	ldy	#$d
    60f5: 85 12        	sta	$12                     ; 0x2012 <wipeArea+0x146>
    60f7: b1 c3        	lda	($c3),y                 ; 0x20c3 <wipeArea+0x1f7>
    60f9: a6 12        	ldx	$12                     ; 0x2012 <wipeArea+0x146>
    60fb: 86 c8        	stx	$c8                     ; 0x20c8 <wipeArea+0x1fc>
    60fd: d0 0f        	bne	$610e <_ZN12_GLOBAL__N_112print_stringEPKcP6Status+0x3e>
    60ff: aa           	tax
    6100: d0 0c        	bne	$610e <_ZN12_GLOBAL__N_112print_stringEPKcP6Status+0x3e>
    6102: 64 c5        	stz	$c5                     ; 0x20c5 <wipeArea+0x1f9>
    6104: a2 00        	ldx	#$0
    6106: 4c d7 61     	jmp	$61d7 <_ZN12_GLOBAL__N_112print_stringEPKcP6Status+0x107>
    6109: a9 ff        	lda	#$ff
    610b: aa           	tax
    610c: 86 c8        	stx	$c8                     ; 0x20c8 <wipeArea+0x1fc>
    610e: 85 c5        	sta	$c5                     ; 0x20c5 <wipeArea+0x1f9>
    6110: 64 12        	stz	$12                     ; 0x2012 <wipeArea+0x146>
    6112: a4 c1        	ldy	$c1                     ; 0x20c1 <wipeArea+0x1f5>
    6114: a6 c2        	ldx	$c2                     ; 0x20c2 <wipeArea+0x1f6>
    6116: 86 16        	stx	$16                     ; 0x2016 <wipeArea+0x14a>
    6118: 64 13        	stz	$13                     ; 0x2013 <wipeArea+0x147>
    611a: 98           	tya
    611b: 18           	clc
    611c: 65 12        	adc	$12                     ; 0x2012 <wipeArea+0x146>
    611e: 85 14        	sta	$14                     ; 0x2014 <wipeArea+0x148>
    6120: a5 c2        	lda	$c2                     ; 0x20c2 <wipeArea+0x1f6>
    6122: 65 13        	adc	$13                     ; 0x2013 <wipeArea+0x147>
    6124: 85 15        	sta	$15                     ; 0x2015 <wipeArea+0x149>
    6126: b2 14        	lda	($14)                   ; 0x2014 <wipeArea+0x148>
    6128: d0 03        	bne	$612d <_ZN12_GLOBAL__N_112print_stringEPKcP6Status+0x5d>
    612a: 4c d1 61     	jmp	$61d1 <_ZN12_GLOBAL__N_112print_stringEPKcP6Status+0x101>
    612d: e6 12        	inc	$12                     ; 0x2012 <wipeArea+0x146>
    612f: d0 02        	bne	$6133 <_ZN12_GLOBAL__N_112print_stringEPKcP6Status+0x63>
    6131: e6 13        	inc	$13                     ; 0x2013 <wipeArea+0x147>
    6133: a6 c8        	ldx	$c8                     ; 0x20c8 <wipeArea+0x1fc>
    6135: e4 13        	cpx	$13                     ; 0x2013 <wipeArea+0x147>
    6137: d0 e1        	bne	$611a <_ZN12_GLOBAL__N_112print_stringEPKcP6Status+0x4a>
    6139: a6 c5        	ldx	$c5                     ; 0x20c5 <wipeArea+0x1f9>
    613b: e4 12        	cpx	$12                     ; 0x2012 <wipeArea+0x146>
    613d: d0 db        	bne	$611a <_ZN12_GLOBAL__N_112print_stringEPKcP6Status+0x4a>
    613f: a0 01        	ldy	#$1
    6141: b1 c3        	lda	($c3),y                 ; 0x20c3 <wipeArea+0x1f7>
    6143: 29 01        	and	#$1
    6145: f0 03        	beq	$614a <_ZN12_GLOBAL__N_112print_stringEPKcP6Status+0x7a>
    6147: 4c a2 61     	jmp	$61a2 <_ZN12_GLOBAL__N_112print_stringEPKcP6Status+0xd2>
    614a: a5 c3        	lda	$c3                     ; 0x20c3 <wipeArea+0x1f7>
    614c: 18           	clc
    614d: 69 0b        	adc	#$b
    614f: 85 14        	sta	$14                     ; 0x2014 <wipeArea+0x148>
    6151: a5 c4        	lda	$c4                     ; 0x20c4 <wipeArea+0x1f8>
    6153: 69 00        	adc	#$0
    6155: 85 15        	sta	$15                     ; 0x2015 <wipeArea+0x149>
    6157: a0 0b        	ldy	#$b
    6159: b1 c3        	lda	($c3),y                 ; 0x20c3 <wipeArea+0x1f7>
    615b: 85 13        	sta	$13                     ; 0x2013 <wipeArea+0x147>
    615d: a0 01        	ldy	#$1
    615f: b1 14        	lda	($14),y                 ; 0x2014 <wipeArea+0x148>
    6161: 85 12        	sta	$12                     ; 0x2012 <wipeArea+0x146>
    6163: a6 c8        	ldx	$c8                     ; 0x20c8 <wipeArea+0x1fc>
    6165: e4 12        	cpx	$12                     ; 0x2012 <wipeArea+0x146>
    6167: d0 08        	bne	$6171 <_ZN12_GLOBAL__N_112print_stringEPKcP6Status+0xa1>
    6169: a6 c5        	ldx	$c5                     ; 0x20c5 <wipeArea+0x1f9>
    616b: e4 13        	cpx	$13                     ; 0x2013 <wipeArea+0x147>
    616d: 90 06        	bcc	$6175 <_ZN12_GLOBAL__N_112print_stringEPKcP6Status+0xa5>
    616f: 80 31        	bra	$61a2 <_ZN12_GLOBAL__N_112print_stringEPKcP6Status+0xd2>
    6171: e4 12        	cpx	$12                     ; 0x2012 <wipeArea+0x146>
    6173: b0 2d        	bcs	$61a2 <_ZN12_GLOBAL__N_112print_stringEPKcP6Status+0xd2>
    6175: 38           	sec
    6176: a5 c5        	lda	$c5                     ; 0x20c5 <wipeArea+0x1f9>
    6178: e5 13        	sbc	$13                     ; 0x2013 <wipeArea+0x147>
    617a: a8           	tay
    617b: a5 c8        	lda	$c8                     ; 0x20c8 <wipeArea+0x1fc>
    617d: e5 12        	sbc	$12                     ; 0x2012 <wipeArea+0x146>
    617f: 85 c7        	sta	$c7                     ; 0x20c7 <wipeArea+0x1fb>
    6181: a6 c3        	ldx	$c3                     ; 0x20c3 <wipeArea+0x1f7>
    6183: 86 12        	stx	$12                     ; 0x2012 <wipeArea+0x146>
    6185: a6 c4        	ldx	$c4                     ; 0x20c4 <wipeArea+0x1f8>
    6187: 86 13        	stx	$13                     ; 0x2013 <wipeArea+0x147>
    6189: 84 c6        	sty	$c6                     ; 0x20c6 <wipeArea+0x1fa>
    618b: a9 20        	lda	#$20
    618d: 20 fd 5f     	jsr	$5ffd <_ZN12_GLOBAL__N_13putEcP6Status>
    6190: a6 c7        	ldx	$c7                     ; 0x20c7 <wipeArea+0x1fb>
    6192: e6 c6        	inc	$c6                     ; 0x20c6 <wipeArea+0x1fa>
    6194: d0 01        	bne	$6197 <_ZN12_GLOBAL__N_112print_stringEPKcP6Status+0xc7>
    6196: e8           	inx
    6197: 86 c7        	stx	$c7                     ; 0x20c7 <wipeArea+0x1fb>
    6199: a4 c6        	ldy	$c6                     ; 0x20c6 <wipeArea+0x1fa>
    619b: 8a           	txa
    619c: d0 e3        	bne	$6181 <_ZN12_GLOBAL__N_112print_stringEPKcP6Status+0xb1>
    619e: a5 c6        	lda	$c6                     ; 0x20c6 <wipeArea+0x1fa>
    61a0: d0 df        	bne	$6181 <_ZN12_GLOBAL__N_112print_stringEPKcP6Status+0xb1>
    61a2: a4 c8        	ldy	$c8                     ; 0x20c8 <wipeArea+0x1fc>
    61a4: d0 04        	bne	$61aa <_ZN12_GLOBAL__N_112print_stringEPKcP6Status+0xda>
    61a6: a5 c5        	lda	$c5                     ; 0x20c5 <wipeArea+0x1f9>
    61a8: f0 26        	beq	$61d0 <_ZN12_GLOBAL__N_112print_stringEPKcP6Status+0x100>
    61aa: a2 ff        	ldx	#$ff
    61ac: c6 c5        	dec	$c5                     ; 0x20c5 <wipeArea+0x1f9>
    61ae: e4 c5        	cpx	$c5                     ; 0x20c5 <wipeArea+0x1f9>
    61b0: d0 01        	bne	$61b3 <_ZN12_GLOBAL__N_112print_stringEPKcP6Status+0xe3>
    61b2: 88           	dey
    61b3: 84 c6        	sty	$c6                     ; 0x20c6 <wipeArea+0x1fa>
    61b5: b2 c1        	lda	($c1)                   ; 0x20c1 <wipeArea+0x1f5>
    61b7: e6 c1        	inc	$c1                     ; 0x20c1 <wipeArea+0x1f5>
    61b9: d0 02        	bne	$61bd <_ZN12_GLOBAL__N_112print_stringEPKcP6Status+0xed>
    61bb: e6 c2        	inc	$c2                     ; 0x20c2 <wipeArea+0x1f6>
    61bd: a6 c3        	ldx	$c3                     ; 0x20c3 <wipeArea+0x1f7>
    61bf: 86 12        	stx	$12                     ; 0x2012 <wipeArea+0x146>
    61c1: a6 c4        	ldx	$c4                     ; 0x20c4 <wipeArea+0x1f8>
    61c3: 86 13        	stx	$13                     ; 0x2013 <wipeArea+0x147>
    61c5: 20 fd 5f     	jsr	$5ffd <_ZN12_GLOBAL__N_13putEcP6Status>
    61c8: a4 c6        	ldy	$c6                     ; 0x20c6 <wipeArea+0x1fa>
    61ca: d0 de        	bne	$61aa <_ZN12_GLOBAL__N_112print_stringEPKcP6Status+0xda>
    61cc: a5 c5        	lda	$c5                     ; 0x20c5 <wipeArea+0x1f9>
    61ce: d0 da        	bne	$61aa <_ZN12_GLOBAL__N_112print_stringEPKcP6Status+0xda>
    61d0: 60           	rts
    61d1: a6 12        	ldx	$12                     ; 0x2012 <wipeArea+0x146>
    61d3: 86 c5        	stx	$c5                     ; 0x20c5 <wipeArea+0x1f9>
    61d5: a6 13        	ldx	$13                     ; 0x2013 <wipeArea+0x147>
    61d7: 86 c8        	stx	$c8                     ; 0x20c8 <wipeArea+0x1fc>
    61d9: 4c 3f 61     	jmp	$613f <_ZN12_GLOBAL__N_112print_stringEPKcP6Status+0x6f>

000061dc <printf>:
    61dc: 18           	clc
    61dd: a6 10        	ldx	$10                     ; 0x2010 <wipeArea+0x144>
    61df: a4 11        	ldy	$11                     ; 0x2011 <wipeArea+0x145>
    61e1: 86 8a        	stx	$8a                     ; 0x208a <wipeArea+0x1be>
    61e3: 84 8b        	sty	$8b                     ; 0x208b <wipeArea+0x1bf>
    61e5: a6 8a        	ldx	$8a                     ; 0x208a <wipeArea+0x1be>
    61e7: a4 8b        	ldy	$8b                     ; 0x208b <wipeArea+0x1bf>
    61e9: 86 75        	stx	$75                     ; 0x2075 <wipeArea+0x1a9>
    61eb: 84 76        	sty	$76                     ; 0x2076 <wipeArea+0x1aa>
    61ed: a2 ff        	ldx	#$ff
    61ef: 86 7a        	stx	$7a                     ; 0x207a <wipeArea+0x1ae>
    61f1: 86 7b        	stx	$7b                     ; 0x207b <wipeArea+0x1af>
    61f3: 64 7c        	stz	$7c                     ; 0x207c <wipeArea+0x1b0>
    61f5: 64 7d        	stz	$7d                     ; 0x207d <wipeArea+0x1b1>
    61f7: e8           	inx
    61f8: 86 14        	stx	$14                     ; 0x2014 <wipeArea+0x148>
    61fa: a2 00        	ldx	#$0
    61fc: 86 15        	stx	$15                     ; 0x2015 <wipeArea+0x149>
    61fe: a6 14        	ldx	$14                     ; 0x2014 <wipeArea+0x148>
    6200: a4 15        	ldy	$15                     ; 0x2015 <wipeArea+0x149>
    6202: 86 80        	stx	$80                     ; 0x2080 <wipeArea+0x1b4>
    6204: 84 81        	sty	$81                     ; 0x2081 <wipeArea+0x1b5>
    6206: a2 02        	ldx	#$2
    6208: 86 86        	stx	$86                     ; 0x2086 <wipeArea+0x1ba>
    620a: 64 87        	stz	$87                     ; 0x2087 <wipeArea+0x1bb>
    620c: a6 75        	ldx	$75                     ; 0x2075 <wipeArea+0x1a9>
    620e: a4 76        	ldy	$76                     ; 0x2076 <wipeArea+0x1aa>
    6210: 86 88        	stx	$88                     ; 0x2088 <wipeArea+0x1bc>
    6212: 84 89        	sty	$89                     ; 0x2089 <wipeArea+0x1bd>
    6214: a6 12        	ldx	$12                     ; 0x2012 <wipeArea+0x146>
    6216: 86 73        	stx	$73                     ; 0x2073 <wipeArea+0x1a7>
    6218: a6 13        	ldx	$13                     ; 0x2013 <wipeArea+0x147>
    621a: 86 74        	stx	$74                     ; 0x2074 <wipeArea+0x1a8>
    621c: b2 12        	lda	($12)                   ; 0x2012 <wipeArea+0x146>
    621e: a2 00        	ldx	#$0
    6220: c9 25        	cmp	#$25
    6222: f0 1c        	beq	$6240 <printf+0x64>
    6224: a8           	tay
    6225: f0 36        	beq	$625d <printf+0x81>
    6227: 20 38 63     	jsr	$6338 <putchar>
    622a: e6 73        	inc	$73                     ; 0x2073 <wipeArea+0x1a7>
    622c: d0 02        	bne	$6230 <printf+0x54>
    622e: e6 74        	inc	$74                     ; 0x2074 <wipeArea+0x1a8>
    6230: e6 7c        	inc	$7c                     ; 0x207c <wipeArea+0x1b0>
    6232: d0 02        	bne	$6236 <printf+0x5a>
    6234: e6 7d        	inc	$7d                     ; 0x207d <wipeArea+0x1b1>
    6236: a6 73        	ldx	$73                     ; 0x2073 <wipeArea+0x1a7>
    6238: 86 12        	stx	$12                     ; 0x2012 <wipeArea+0x146>
    623a: a6 74        	ldx	$74                     ; 0x2074 <wipeArea+0x1a8>
    623c: 86 13        	stx	$13                     ; 0x2013 <wipeArea+0x147>
    623e: 80 d4        	bra	$6214 <printf+0x38>
    6240: a2 77        	ldx	#$77
    6242: 86 14        	stx	$14                     ; 0x2014 <wipeArea+0x148>
    6244: a2 00        	ldx	#$0
    6246: 86 15        	stx	$15                     ; 0x2015 <wipeArea+0x149>
    6248: 20 c9 54     	jsr	$54c9 <_ZN12_GLOBAL__N_15printEPKcP6Status>
    624b: a6 13        	ldx	$13                     ; 0x2013 <wipeArea+0x147>
    624d: e4 74        	cpx	$74                     ; 0x2074 <wipeArea+0x1a8>
    624f: d0 c3        	bne	$6214 <printf+0x38>
    6251: a6 12        	ldx	$12                     ; 0x2012 <wipeArea+0x146>
    6253: e4 73        	cpx	$73                     ; 0x2073 <wipeArea+0x1a7>
    6255: d0 bd        	bne	$6214 <printf+0x38>
    6257: b2 73        	lda	($73)                   ; 0x2073 <wipeArea+0x1a7>
    6259: a2 00        	ldx	#$0
    625b: 80 ca        	bra	$6227 <printf+0x4b>
    625d: 60           	rts

0000625e <sprintf>:
    625e: a6 12        	ldx	$12                     ; 0x2012 <wipeArea+0x146>
    6260: 86 60        	stx	$60                     ; 0x2060 <wipeArea+0x194>
    6262: a6 13        	ldx	$13                     ; 0x2013 <wipeArea+0x147>
    6264: 86 61        	stx	$61                     ; 0x2061 <wipeArea+0x195>
    6266: 18           	clc
    6267: a6 10        	ldx	$10                     ; 0x2010 <wipeArea+0x144>
    6269: a4 11        	ldy	$11                     ; 0x2011 <wipeArea+0x145>
    626b: 86 79        	stx	$79                     ; 0x2079 <wipeArea+0x1ad>
    626d: 84 7a        	sty	$7a                     ; 0x207a <wipeArea+0x1ae>
    626f: a6 79        	ldx	$79                     ; 0x2079 <wipeArea+0x1ad>
    6271: a4 7a        	ldy	$7a                     ; 0x207a <wipeArea+0x1ae>
    6273: 86 64        	stx	$64                     ; 0x2064 <wipeArea+0x198>
    6275: 84 65        	sty	$65                     ; 0x2065 <wipeArea+0x199>
    6277: a2 ff        	ldx	#$ff
    6279: 86 69        	stx	$69                     ; 0x2069 <wipeArea+0x19d>
    627b: 86 6a        	stx	$6a                     ; 0x206a <wipeArea+0x19e>
    627d: 64 6b        	stz	$6b                     ; 0x206b <wipeArea+0x19f>
    627f: 64 6c        	stz	$6c                     ; 0x206c <wipeArea+0x1a0>
    6281: a6 60        	ldx	$60                     ; 0x2060 <wipeArea+0x194>
    6283: a4 61        	ldy	$61                     ; 0x2061 <wipeArea+0x195>
    6285: 86 6f        	stx	$6f                     ; 0x206f <wipeArea+0x1a3>
    6287: 84 70        	sty	$70                     ; 0x2070 <wipeArea+0x1a4>
    6289: a2 00        	ldx	#$0
    628b: 86 12        	stx	$12                     ; 0x2012 <wipeArea+0x146>
    628d: a2 00        	ldx	#$0
    628f: 86 13        	stx	$13                     ; 0x2013 <wipeArea+0x147>
    6291: a6 12        	ldx	$12                     ; 0x2012 <wipeArea+0x146>
    6293: a4 13        	ldy	$13                     ; 0x2013 <wipeArea+0x147>
    6295: 86 75        	stx	$75                     ; 0x2075 <wipeArea+0x1a9>
    6297: 84 76        	sty	$76                     ; 0x2076 <wipeArea+0x1aa>
    6299: a6 64        	ldx	$64                     ; 0x2064 <wipeArea+0x198>
    629b: a4 65        	ldy	$65                     ; 0x2065 <wipeArea+0x199>
    629d: 86 77        	stx	$77                     ; 0x2077 <wipeArea+0x1ab>
    629f: 84 78        	sty	$78                     ; 0x2078 <wipeArea+0x1ac>
    62a1: a2 d3        	ldx	#$d3
    62a3: 86 12        	stx	$12                     ; 0x2012 <wipeArea+0x146>
    62a5: a2 6a        	ldx	#$6a
    62a7: 86 13        	stx	$13                     ; 0x2013 <wipeArea+0x147>
    62a9: 80 17        	bra	$62c2 <sprintf+0x64>
    62ab: a2 66        	ldx	#$66
    62ad: 86 14        	stx	$14                     ; 0x2014 <wipeArea+0x148>
    62af: a2 00        	ldx	#$0
    62b1: 86 15        	stx	$15                     ; 0x2015 <wipeArea+0x149>
    62b3: 20 c9 54     	jsr	$54c9 <_ZN12_GLOBAL__N_15printEPKcP6Status>
    62b6: a6 13        	ldx	$13                     ; 0x2013 <wipeArea+0x147>
    62b8: e4 63        	cpx	$63                     ; 0x2063 <wipeArea+0x197>
    62ba: d0 06        	bne	$62c2 <sprintf+0x64>
    62bc: a6 12        	ldx	$12                     ; 0x2012 <wipeArea+0x146>
    62be: e4 62        	cpx	$62                     ; 0x2062 <wipeArea+0x196>
    62c0: f0 11        	beq	$62d3 <sprintf+0x75>
    62c2: a6 12        	ldx	$12                     ; 0x2012 <wipeArea+0x146>
    62c4: 86 62        	stx	$62                     ; 0x2062 <wipeArea+0x196>
    62c6: a6 13        	ldx	$13                     ; 0x2013 <wipeArea+0x147>
    62c8: 86 63        	stx	$63                     ; 0x2063 <wipeArea+0x197>
    62ca: b2 12        	lda	($12)                   ; 0x2012 <wipeArea+0x146>
    62cc: c9 25        	cmp	#$25
    62ce: f0 db        	beq	$62ab <sprintf+0x4d>
    62d0: aa           	tax
    62d1: f0 43        	beq	$6316 <sprintf+0xb8>
    62d3: a6 6b        	ldx	$6b                     ; 0x206b <wipeArea+0x19f>
    62d5: 86 12        	stx	$12                     ; 0x2012 <wipeArea+0x146>
    62d7: a4 6c        	ldy	$6c                     ; 0x206c <wipeArea+0x1a0>
    62d9: 84 13        	sty	$13                     ; 0x2013 <wipeArea+0x147>
    62db: c0 ff        	cpy	#$ff
    62dd: d0 04        	bne	$62e3 <sprintf+0x85>
    62df: e0 ff        	cpx	#$ff
    62e1: f0 15        	beq	$62f8 <sprintf+0x9a>
    62e3: b2 62        	lda	($62)                   ; 0x2062 <wipeArea+0x196>
    62e5: 85 16        	sta	$16                     ; 0x2016 <wipeArea+0x14a>
    62e7: a5 60        	lda	$60                     ; 0x2060 <wipeArea+0x194>
    62e9: 18           	clc
    62ea: 65 12        	adc	$12                     ; 0x2012 <wipeArea+0x146>
    62ec: 85 14        	sta	$14                     ; 0x2014 <wipeArea+0x148>
    62ee: a5 61        	lda	$61                     ; 0x2061 <wipeArea+0x195>
    62f0: 65 13        	adc	$13                     ; 0x2013 <wipeArea+0x147>
    62f2: 85 15        	sta	$15                     ; 0x2015 <wipeArea+0x149>
    62f4: a5 16        	lda	$16                     ; 0x2016 <wipeArea+0x14a>
    62f6: 92 14        	sta	($14)                   ; 0x2014 <wipeArea+0x148>
    62f8: e6 12        	inc	$12                     ; 0x2012 <wipeArea+0x146>
    62fa: d0 02        	bne	$62fe <sprintf+0xa0>
    62fc: e6 13        	inc	$13                     ; 0x2013 <wipeArea+0x147>
    62fe: a6 12        	ldx	$12                     ; 0x2012 <wipeArea+0x146>
    6300: a4 13        	ldy	$13                     ; 0x2013 <wipeArea+0x147>
    6302: 86 6b        	stx	$6b                     ; 0x206b <wipeArea+0x19f>
    6304: 84 6c        	sty	$6c                     ; 0x206c <wipeArea+0x1a0>
    6306: e6 62        	inc	$62                     ; 0x2062 <wipeArea+0x196>
    6308: d0 02        	bne	$630c <sprintf+0xae>
    630a: e6 63        	inc	$63                     ; 0x2063 <wipeArea+0x197>
    630c: a6 62        	ldx	$62                     ; 0x2062 <wipeArea+0x196>
    630e: 86 12        	stx	$12                     ; 0x2012 <wipeArea+0x146>
    6310: a6 63        	ldx	$63                     ; 0x2063 <wipeArea+0x197>
    6312: 86 13        	stx	$13                     ; 0x2013 <wipeArea+0x147>
    6314: 80 ac        	bra	$62c2 <sprintf+0x64>
    6316: a6 6b        	ldx	$6b                     ; 0x206b <wipeArea+0x19f>
    6318: 86 12        	stx	$12                     ; 0x2012 <wipeArea+0x146>
    631a: a4 6c        	ldy	$6c                     ; 0x206c <wipeArea+0x1a0>
    631c: 84 13        	sty	$13                     ; 0x2013 <wipeArea+0x147>
    631e: c0 ff        	cpy	#$ff
    6320: d0 04        	bne	$6326 <sprintf+0xc8>
    6322: e0 ff        	cpx	#$ff
    6324: f0 11        	beq	$6337 <sprintf+0xd9>
    6326: a5 60        	lda	$60                     ; 0x2060 <wipeArea+0x194>
    6328: 18           	clc
    6329: 65 12        	adc	$12                     ; 0x2012 <wipeArea+0x146>
    632b: 85 12        	sta	$12                     ; 0x2012 <wipeArea+0x146>
    632d: a5 61        	lda	$61                     ; 0x2061 <wipeArea+0x195>
    632f: 65 13        	adc	$13                     ; 0x2013 <wipeArea+0x147>
    6331: 85 13        	sta	$13                     ; 0x2013 <wipeArea+0x147>
    6333: a9 00        	lda	#$0
    6335: 92 12        	sta	($12)                   ; 0x2012 <wipeArea+0x146>
    6337: 60           	rts

00006338 <putchar>:
    6338: 86 12        	stx	$12                     ; 0x2012 <wipeArea+0x146>
    633a: 85 1b        	sta	$1b                     ; 0x201b <wipeArea+0x14f>
    633c: 85 5d        	sta	$5d                     ; 0x205d <wipeArea+0x191>
    633e: a6 01        	ldx	$1                      ; 0x2001 <wipeArea+0x135>
    6340: 86 cb        	stx	$cb                     ; 0x20cb <wipeArea+0x1ff>
    6342: a6 54        	ldx	$54                     ; 0x2054 <wipeArea+0x188>
    6344: a0 50        	ldy	#$50
    6346: 8c 00 de     	sty	$de00                   ; 0xde00 <__heap_start+0x3f46>
    6349: 9c 01 de     	stz	$de01                   ; 0xde01 <__heap_start+0x3f47>
    634c: 8e 02 de     	stx	$de02                   ; 0xde02 <__heap_start+0x3f48>
    634f: 9c 03 de     	stz	$de03                   ; 0xde03 <__heap_start+0x3f49>
    6352: ae 10 de     	ldx	$de10                   ; 0xde10 <__heap_start+0x3f56>
    6355: ad 11 de     	lda	$de11                   ; 0xde11 <__heap_start+0x3f57>
    6358: ac 12 de     	ldy	$de12                   ; 0xde12 <__heap_start+0x3f58>
    635b: 84 1a        	sty	$1a                     ; 0x201a <wipeArea+0x14e>
    635d: ac 13 de     	ldy	$de13                   ; 0xde13 <__heap_start+0x3f59>
    6360: 84 1c        	sty	$1c                     ; 0x201c <wipeArea+0x150>
    6362: 9c 08 de     	stz	$de08                   ; 0xde08 <__heap_start+0x3f4e>
    6365: a0 c0        	ldy	#$c0
    6367: 8c 09 de     	sty	$de09                   ; 0xde09 <__heap_start+0x3f4f>
    636a: 9c 0a de     	stz	$de0a                   ; 0xde0a <__heap_start+0x3f50>
    636d: 9c 0b de     	stz	$de0b                   ; 0xde0b <__heap_start+0x3f51>
    6370: 8e 0c de     	stx	$de0c                   ; 0xde0c <__heap_start+0x3f52>
    6373: 8d 0d de     	sta	$de0d                   ; 0xde0d <__heap_start+0x3f53>
    6376: 64 13        	stz	$13                     ; 0x2013 <wipeArea+0x147>
    6378: a2 00        	ldx	#$0
    637a: 86 14        	stx	$14                     ; 0x2014 <wipeArea+0x148>
    637c: a2 c0        	ldx	#$c0
    637e: 86 15        	stx	$15                     ; 0x2015 <wipeArea+0x149>
    6380: a2 11        	ldx	#$11
    6382: 86 16        	stx	$16                     ; 0x2016 <wipeArea+0x14a>
    6384: a2 c9        	ldx	#$c9
    6386: 86 17        	stx	$17                     ; 0x2017 <wipeArea+0x14b>
    6388: a2 10        	ldx	#$10
    638a: 86 18        	stx	$18                     ; 0x2018 <wipeArea+0x14c>
    638c: a2 c9        	ldx	#$c9
    638e: 86 19        	stx	$19                     ; 0x2019 <wipeArea+0x14d>
    6390: a6 1a        	ldx	$1a                     ; 0x201a <wipeArea+0x14e>
    6392: 8e 0e de     	stx	$de0e                   ; 0xde0e <__heap_start+0x3f54>
    6395: a6 1c        	ldx	$1c                     ; 0x201c <wipeArea+0x150>
    6397: 8e 0f de     	stx	$de0f                   ; 0xde0f <__heap_start+0x3f55>
    639a: ac 18 de     	ldy	$de18                   ; 0xde18 <__heap_start+0x3f5e>
    639d: ad 19 de     	lda	$de19                   ; 0xde19 <__heap_start+0x3f5f>
    63a0: ae 1a de     	ldx	$de1a                   ; 0xde1a <__heap_start+0x3f60>
    63a3: ae 1b de     	ldx	$de1b                   ; 0xde1b <__heap_start+0x3f61>
    63a6: 84 1c        	sty	$1c                     ; 0x201c <wipeArea+0x150>
    63a8: 85 1d        	sta	$1d                     ; 0x201d <wipeArea+0x151>
    63aa: 64 1a        	stz	$1a                     ; 0x201a <wipeArea+0x14e>
    63ac: 80 13        	bra	$63c1 <putchar+0x89>
    63ae: a5 1c        	lda	$1c                     ; 0x201c <wipeArea+0x150>
    63b0: 18           	clc
    63b1: 69 50        	adc	#$50
    63b3: 85 1c        	sta	$1c                     ; 0x201c <wipeArea+0x150>
    63b5: a5 1d        	lda	$1d                     ; 0x201d <wipeArea+0x151>
    63b7: 69 00        	adc	#$0
    63b9: 85 1d        	sta	$1d                     ; 0x201d <wipeArea+0x151>
    63bb: e6 13        	inc	$13                     ; 0x2013 <wipeArea+0x147>
    63bd: d0 02        	bne	$63c1 <putchar+0x89>
    63bf: e6 1a        	inc	$1a                     ; 0x201a <wipeArea+0x14e>
    63c1: a9 5d        	lda	#$5d
    63c3: 18           	clc
    63c4: 65 13        	adc	$13                     ; 0x2013 <wipeArea+0x147>
    63c6: 85 1e        	sta	$1e                     ; 0x201e <wipeArea+0x152>
    63c8: a9 00        	lda	#$0
    63ca: 65 1a        	adc	$1a                     ; 0x201a <wipeArea+0x14e>
    63cc: 85 1f        	sta	$1f                     ; 0x201f <wipeArea+0x153>
    63ce: b2 1e        	lda	($1e)                   ; 0x201e <wipeArea+0x152>
    63d0: c9 0a        	cmp	#$a
    63d2: f0 26        	beq	$63fa <putchar+0xc2>
    63d4: c9 0d        	cmp	#$d
    63d6: f0 22        	beq	$63fa <putchar+0xc2>
    63d8: aa           	tax
    63d9: d0 03        	bne	$63de <putchar+0xa6>
    63db: 4c 02 65     	jmp	$6502 <putchar+0x1ca>
    63de: a2 03        	ldx	#$3
    63e0: 86 01        	stx	$1                      ; 0x2001 <wipeArea+0x135>
    63e2: a5 33        	lda	$33                     ; 0x2033 <wipeArea+0x167>
    63e4: a4 53        	ldy	$53                     ; 0x2053 <wipeArea+0x187>
    63e6: 91 1c        	sta	($1c),y                 ; 0x201c <wipeArea+0x150>
    63e8: ca           	dex
    63e9: 86 01        	stx	$1                      ; 0x2001 <wipeArea+0x135>
    63eb: b2 1e        	lda	($1e)                   ; 0x201e <wipeArea+0x152>
    63ed: a4 53        	ldy	$53                     ; 0x2053 <wipeArea+0x187>
    63ef: 91 1c        	sta	($1c),y                 ; 0x201c <wipeArea+0x150>
    63f1: a6 53        	ldx	$53                     ; 0x2053 <wipeArea+0x187>
    63f3: e8           	inx
    63f4: e6 53        	inc	$53                     ; 0x2053 <wipeArea+0x187>
    63f6: e0 50        	cpx	#$50
    63f8: d0 c1        	bne	$63bb <putchar+0x83>
    63fa: 64 53        	stz	$53                     ; 0x2053 <wipeArea+0x187>
    63fc: a6 54        	ldx	$54                     ; 0x2054 <wipeArea+0x188>
    63fe: e8           	inx
    63ff: e6 54        	inc	$54                     ; 0x2054 <wipeArea+0x188>
    6401: e0 1e        	cpx	#$1e
    6403: f0 03        	beq	$6408 <putchar+0xd0>
    6405: 4c ae 63     	jmp	$63ae <putchar+0x76>
    6408: a2 03        	ldx	#$3
    640a: 86 01        	stx	$1                      ; 0x2001 <wipeArea+0x135>
    640c: a2 09        	ldx	#$9
    640e: a9 10        	lda	#$10
    6410: a0 00        	ldy	#$0
    6412: 84 1c        	sty	$1c                     ; 0x201c <wipeArea+0x150>
    6414: a0 c0        	ldy	#$c0
    6416: 84 1d        	sty	$1d                     ; 0x201d <wipeArea+0x151>
    6418: a0 50        	ldy	#$50
    641a: 85 1e        	sta	$1e                     ; 0x201e <wipeArea+0x152>
    641c: b1 1c        	lda	($1c),y                 ; 0x201c <wipeArea+0x150>
    641e: 92 1c        	sta	($1c)                   ; 0x201c <wipeArea+0x150>
    6420: a9 ff        	lda	#$ff
    6422: c6 1e        	dec	$1e                     ; 0x201e <wipeArea+0x152>
    6424: c5 1e        	cmp	$1e                     ; 0x201e <wipeArea+0x152>
    6426: d0 01        	bne	$6429 <putchar+0xf1>
    6428: ca           	dex
    6429: e6 1c        	inc	$1c                     ; 0x201c <wipeArea+0x150>
    642b: d0 02        	bne	$642f <putchar+0xf7>
    642d: e6 1d        	inc	$1d                     ; 0x201d <wipeArea+0x151>
    642f: 8a           	txa
    6430: d0 ea        	bne	$641c <putchar+0xe4>
    6432: a5 1e        	lda	$1e                     ; 0x201e <wipeArea+0x152>
    6434: d0 e6        	bne	$641c <putchar+0xe4>
    6436: a2 02        	ldx	#$2
    6438: 86 01        	stx	$1                      ; 0x2001 <wipeArea+0x135>
    643a: a2 09        	ldx	#$9
    643c: a9 10        	lda	#$10
    643e: 5a           	phy
    643f: a0 00        	ldy	#$0
    6441: 84 1c        	sty	$1c                     ; 0x201c <wipeArea+0x150>
    6443: a0 c0        	ldy	#$c0
    6445: 84 1d        	sty	$1d                     ; 0x201d <wipeArea+0x151>
    6447: 7a           	ply
    6448: 85 1e        	sta	$1e                     ; 0x201e <wipeArea+0x152>
    644a: b1 1c        	lda	($1c),y                 ; 0x201c <wipeArea+0x150>
    644c: 92 1c        	sta	($1c)                   ; 0x201c <wipeArea+0x150>
    644e: a9 ff        	lda	#$ff
    6450: c6 1e        	dec	$1e                     ; 0x201e <wipeArea+0x152>
    6452: c5 1e        	cmp	$1e                     ; 0x201e <wipeArea+0x152>
    6454: d0 01        	bne	$6457 <putchar+0x11f>
    6456: ca           	dex
    6457: e6 1c        	inc	$1c                     ; 0x201c <wipeArea+0x150>
    6459: d0 02        	bne	$645d <putchar+0x125>
    645b: e6 1d        	inc	$1d                     ; 0x201d <wipeArea+0x151>
    645d: 8a           	txa
    645e: d0 ea        	bne	$644a <putchar+0x112>
    6460: a5 1e        	lda	$1e                     ; 0x201e <wipeArea+0x152>
    6462: d0 e6        	bne	$644a <putchar+0x112>
    6464: a2 02        	ldx	#$2
    6466: 86 01        	stx	$1                      ; 0x2001 <wipeArea+0x135>
    6468: e8           	inx
    6469: 86 01        	stx	$1                      ; 0x2001 <wipeArea+0x135>
    646b: a5 33        	lda	$33                     ; 0x2033 <wipeArea+0x167>
    646d: a2 50        	ldx	#$50
    646f: a0 11        	ldy	#$11
    6471: 84 1c        	sty	$1c                     ; 0x201c <wipeArea+0x150>
    6473: a0 c9        	ldy	#$c9
    6475: 84 1d        	sty	$1d                     ; 0x201d <wipeArea+0x151>
    6477: a0 10        	ldy	#$10
    6479: 84 1e        	sty	$1e                     ; 0x201e <wipeArea+0x152>
    647b: a0 c9        	ldy	#$c9
    647d: 84 1f        	sty	$1f                     ; 0x201f <wipeArea+0x153>
    647f: a4 1c        	ldy	$1c                     ; 0x201c <wipeArea+0x150>
    6481: 84 22        	sty	$22                     ; 0x2022 <wipeArea+0x156>
    6483: a4 1d        	ldy	$1d                     ; 0x201d <wipeArea+0x151>
    6485: 84 23        	sty	$23                     ; 0x2023 <wipeArea+0x157>
    6487: 92 1e        	sta	($1e)                   ; 0x201e <wipeArea+0x152>
    6489: e6 1c        	inc	$1c                     ; 0x201c <wipeArea+0x150>
    648b: d0 02        	bne	$648f <putchar+0x157>
    648d: e6 1d        	inc	$1d                     ; 0x201d <wipeArea+0x151>
    648f: ca           	dex
    6490: a4 22        	ldy	$22                     ; 0x2022 <wipeArea+0x156>
    6492: 84 1e        	sty	$1e                     ; 0x201e <wipeArea+0x152>
    6494: a4 23        	ldy	$23                     ; 0x2023 <wipeArea+0x157>
    6496: 84 1f        	sty	$1f                     ; 0x201f <wipeArea+0x153>
    6498: e0 00        	cpx	#$0
    649a: d0 e3        	bne	$647f <putchar+0x147>
    649c: a2 02        	ldx	#$2
    649e: 86 01        	stx	$1                      ; 0x2001 <wipeArea+0x135>
    64a0: a2 50        	ldx	#$50
    64a2: a0 11        	ldy	#$11
    64a4: 84 1c        	sty	$1c                     ; 0x201c <wipeArea+0x150>
    64a6: a0 c9        	ldy	#$c9
    64a8: 84 1d        	sty	$1d                     ; 0x201d <wipeArea+0x151>
    64aa: a0 10        	ldy	#$10
    64ac: 84 1e        	sty	$1e                     ; 0x201e <wipeArea+0x152>
    64ae: a0 c9        	ldy	#$c9
    64b0: 84 1f        	sty	$1f                     ; 0x201f <wipeArea+0x153>
    64b2: a9 20        	lda	#$20
    64b4: a4 1c        	ldy	$1c                     ; 0x201c <wipeArea+0x150>
    64b6: 84 22        	sty	$22                     ; 0x2022 <wipeArea+0x156>
    64b8: a4 1d        	ldy	$1d                     ; 0x201d <wipeArea+0x151>
    64ba: 84 23        	sty	$23                     ; 0x2023 <wipeArea+0x157>
    64bc: 92 1e        	sta	($1e)                   ; 0x201e <wipeArea+0x152>
    64be: e6 1c        	inc	$1c                     ; 0x201c <wipeArea+0x150>
    64c0: d0 02        	bne	$64c4 <putchar+0x18c>
    64c2: e6 1d        	inc	$1d                     ; 0x201d <wipeArea+0x151>
    64c4: ca           	dex
    64c5: a4 22        	ldy	$22                     ; 0x2022 <wipeArea+0x156>
    64c7: 84 1e        	sty	$1e                     ; 0x201e <wipeArea+0x152>
    64c9: a4 23        	ldy	$23                     ; 0x2023 <wipeArea+0x157>
    64cb: 84 1f        	sty	$1f                     ; 0x201f <wipeArea+0x153>
    64cd: e0 00        	cpx	#$0
    64cf: d0 e3        	bne	$64b4 <putchar+0x17c>
    64d1: c6 54        	dec	$54                     ; 0x2054 <wipeArea+0x188>
    64d3: 9c 08 de     	stz	$de08                   ; 0xde08 <__heap_start+0x3f4e>
    64d6: a2 c0        	ldx	#$c0
    64d8: 8e 09 de     	stx	$de09                   ; 0xde09 <__heap_start+0x3f4f>
    64db: 9c 0a de     	stz	$de0a                   ; 0xde0a <__heap_start+0x3f50>
    64de: 9c 0b de     	stz	$de0b                   ; 0xde0b <__heap_start+0x3f51>
    64e1: a2 1d        	ldx	#$1d
    64e3: 8e 0c de     	stx	$de0c                   ; 0xde0c <__heap_start+0x3f52>
    64e6: 9c 0d de     	stz	$de0d                   ; 0xde0d <__heap_start+0x3f53>
    64e9: 9c 0e de     	stz	$de0e                   ; 0xde0e <__heap_start+0x3f54>
    64ec: 9c 0f de     	stz	$de0f                   ; 0xde0f <__heap_start+0x3f55>
    64ef: ae 18 de     	ldx	$de18                   ; 0xde18 <__heap_start+0x3f5e>
    64f2: ac 19 de     	ldy	$de19                   ; 0xde19 <__heap_start+0x3f5f>
    64f5: ad 1a de     	lda	$de1a                   ; 0xde1a <__heap_start+0x3f60>
    64f8: ad 1b de     	lda	$de1b                   ; 0xde1b <__heap_start+0x3f61>
    64fb: 86 1c        	stx	$1c                     ; 0x201c <wipeArea+0x150>
    64fd: 84 1d        	sty	$1d                     ; 0x201d <wipeArea+0x151>
    64ff: 4c bb 63     	jmp	$63bb <putchar+0x83>
    6502: a6 cb        	ldx	$cb                     ; 0x20cb <wipeArea+0x1ff>
    6504: 86 01        	stx	$1                      ; 0x2001 <wipeArea+0x135>
    6506: a6 53        	ldx	$53                     ; 0x2053 <wipeArea+0x187>
    6508: a4 54        	ldy	$54                     ; 0x2054 <wipeArea+0x188>
    650a: 8e 14 d0     	stx	$d014                   ; 0xd014 <__heap_start+0x315a>
    650d: 9c 15 d0     	stz	$d015                   ; 0xd015 <__heap_start+0x315b>
    6510: 84 54        	sty	$54                     ; 0x2054 <wipeArea+0x188>
    6512: 8c 16 d0     	sty	$d016                   ; 0xd016 <__heap_start+0x315c>
    6515: 9c 17 d0     	stz	$d017                   ; 0xd017 <__heap_start+0x315d>
    6518: a6 12        	ldx	$12                     ; 0x2012 <wipeArea+0x146>
    651a: a5 1b        	lda	$1b                     ; 0x201b <wipeArea+0x14f>
    651c: 60           	rts

0000651d <memcpy>:
    651d: a8           	tay
    651e: 8a           	txa
    651f: d0 03        	bne	$6524 <memcpy+0x7>
    6521: 98           	tya
    6522: f0 24        	beq	$6548 <memcpy+0x2b>
    6524: a5 12        	lda	$12                     ; 0x2012 <wipeArea+0x146>
    6526: 85 16        	sta	$16                     ; 0x2016 <wipeArea+0x14a>
    6528: a5 13        	lda	$13                     ; 0x2013 <wipeArea+0x147>
    652a: 85 17        	sta	$17                     ; 0x2017 <wipeArea+0x14b>
    652c: b2 14        	lda	($14)                   ; 0x2014 <wipeArea+0x148>
    652e: 92 16        	sta	($16)                   ; 0x2016 <wipeArea+0x14a>
    6530: e6 16        	inc	$16                     ; 0x2016 <wipeArea+0x14a>
    6532: d0 02        	bne	$6536 <memcpy+0x19>
    6534: e6 17        	inc	$17                     ; 0x2017 <wipeArea+0x14b>
    6536: e6 14        	inc	$14                     ; 0x2014 <wipeArea+0x148>
    6538: d0 02        	bne	$653c <memcpy+0x1f>
    653a: e6 15        	inc	$15                     ; 0x2015 <wipeArea+0x149>
    653c: 88           	dey
    653d: c0 ff        	cpy	#$ff
    653f: d0 01        	bne	$6542 <memcpy+0x25>
    6541: ca           	dex
    6542: 8a           	txa
    6543: d0 e7        	bne	$652c <memcpy+0xf>
    6545: 98           	tya
    6546: d0 e4        	bne	$652c <memcpy+0xf>
    6548: 60           	rts

00006549 <__memset>:
    6549: a4 14        	ldy	$14                     ; 0x2014 <wipeArea+0x148>
    654b: d0 04        	bne	$6551 <__memset+0x8>
    654d: e0 00        	cpx	#$0
    654f: f0 17        	beq	$6568 <__memset+0x1f>
    6551: 92 12        	sta	($12)                   ; 0x2012 <wipeArea+0x146>
    6553: e6 12        	inc	$12                     ; 0x2012 <wipeArea+0x146>
    6555: d0 02        	bne	$6559 <__memset+0x10>
    6557: e6 13        	inc	$13                     ; 0x2013 <wipeArea+0x147>
    6559: ca           	dex
    655a: e0 ff        	cpx	#$ff
    655c: d0 02        	bne	$6560 <__memset+0x17>
    655e: c6 14        	dec	$14                     ; 0x2014 <wipeArea+0x148>
    6560: a4 14        	ldy	$14                     ; 0x2014 <wipeArea+0x148>
    6562: d0 ed        	bne	$6551 <__memset+0x8>
    6564: e0 00        	cpx	#$0
    6566: d0 e9        	bne	$6551 <__memset+0x8>
    6568: 60           	rts

00006569 <__mulsi3>:
    6569: a4 17        	ldy	$17                     ; 0x2017 <wipeArea+0x14b>
    656b: d0 0f        	bne	$657c <__mulsi3+0x13>
    656d: a4 16        	ldy	$16                     ; 0x2016 <wipeArea+0x14a>
    656f: d0 0b        	bne	$657c <__mulsi3+0x13>
    6571: a4 15        	ldy	$15                     ; 0x2015 <wipeArea+0x149>
    6573: d0 07        	bne	$657c <__mulsi3+0x13>
    6575: a4 14        	ldy	$14                     ; 0x2014 <wipeArea+0x148>
    6577: d0 03        	bne	$657c <__mulsi3+0x13>
    6579: 4c d0 65     	jmp	$65d0 <__mulsi3+0x67>
    657c: 85 18        	sta	$18                     ; 0x2018 <wipeArea+0x14c>
    657e: 86 19        	stx	$19                     ; 0x2019 <wipeArea+0x14d>
    6580: a0 00        	ldy	#$0
    6582: a2 00        	ldx	#$0
    6584: 64 1a        	stz	$1a                     ; 0x201a <wipeArea+0x14e>
    6586: 98           	tya
    6587: 46 17        	lsr	$17                     ; 0x2017 <wipeArea+0x14b>
    6589: 66 16        	ror	$16                     ; 0x2016 <wipeArea+0x14a>
    658b: 66 15        	ror	$15                     ; 0x2015 <wipeArea+0x149>
    658d: 66 14        	ror	$14                     ; 0x2014 <wipeArea+0x148>
    658f: 90 15        	bcc	$65a6 <__mulsi3+0x3d>
    6591: 85 1b        	sta	$1b                     ; 0x201b <wipeArea+0x14f>
    6593: 98           	tya
    6594: 18           	clc
    6595: 65 18        	adc	$18                     ; 0x2018 <wipeArea+0x14c>
    6597: a8           	tay
    6598: 8a           	txa
    6599: 65 19        	adc	$19                     ; 0x2019 <wipeArea+0x14d>
    659b: aa           	tax
    659c: a5 1a        	lda	$1a                     ; 0x201a <wipeArea+0x14e>
    659e: 65 12        	adc	$12                     ; 0x2012 <wipeArea+0x146>
    65a0: 85 1a        	sta	$1a                     ; 0x201a <wipeArea+0x14e>
    65a2: a5 1b        	lda	$1b                     ; 0x201b <wipeArea+0x14f>
    65a4: 65 13        	adc	$13                     ; 0x2013 <wipeArea+0x147>
    65a6: 06 18        	asl	$18                     ; 0x2018 <wipeArea+0x14c>
    65a8: 26 19        	rol	$19                     ; 0x2019 <wipeArea+0x14d>
    65aa: 26 12        	rol	$12                     ; 0x2012 <wipeArea+0x146>
    65ac: 26 13        	rol	$13                     ; 0x2013 <wipeArea+0x147>
    65ae: e6 17        	inc	$17                     ; 0x2017 <wipeArea+0x14b>
    65b0: c6 17        	dec	$17                     ; 0x2017 <wipeArea+0x14b>
    65b2: d0 d3        	bne	$6587 <__mulsi3+0x1e>
    65b4: e6 16        	inc	$16                     ; 0x2016 <wipeArea+0x14a>
    65b6: c6 16        	dec	$16                     ; 0x2016 <wipeArea+0x14a>
    65b8: d0 cd        	bne	$6587 <__mulsi3+0x1e>
    65ba: e6 15        	inc	$15                     ; 0x2015 <wipeArea+0x149>
    65bc: c6 15        	dec	$15                     ; 0x2015 <wipeArea+0x149>
    65be: d0 c7        	bne	$6587 <__mulsi3+0x1e>
    65c0: e6 14        	inc	$14                     ; 0x2014 <wipeArea+0x148>
    65c2: c6 14        	dec	$14                     ; 0x2014 <wipeArea+0x148>
    65c4: d0 c1        	bne	$6587 <__mulsi3+0x1e>
    65c6: 5a           	phy
    65c7: a4 1a        	ldy	$1a                     ; 0x201a <wipeArea+0x14e>
    65c9: 84 12        	sty	$12                     ; 0x2012 <wipeArea+0x146>
    65cb: 7a           	ply
    65cc: 85 13        	sta	$13                     ; 0x2013 <wipeArea+0x147>
    65ce: 98           	tya
    65cf: 60           	rts
    65d0: a0 00        	ldy	#$0
    65d2: a2 00        	ldx	#$0
    65d4: 64 1a        	stz	$1a                     ; 0x201a <wipeArea+0x14e>
    65d6: 98           	tya
    65d7: 80 ed        	bra	$65c6 <__mulsi3+0x5d>

000065d9 <__udivmodhi4>:
    65d9: 86 1a        	stx	$1a                     ; 0x201a <wipeArea+0x14e>
    65db: 64 16        	stz	$16                     ; 0x2016 <wipeArea+0x14a>
    65dd: a4 13        	ldy	$13                     ; 0x2013 <wipeArea+0x147>
    65df: d0 04        	bne	$65e5 <__udivmodhi4+0xc>
    65e1: a4 12        	ldy	$12                     ; 0x2012 <wipeArea+0x146>
    65e3: f0 08        	beq	$65ed <__udivmodhi4+0x14>
    65e5: e4 13        	cpx	$13                     ; 0x2013 <wipeArea+0x147>
    65e7: d0 0d        	bne	$65f6 <__udivmodhi4+0x1d>
    65e9: c5 12        	cmp	$12                     ; 0x2012 <wipeArea+0x146>
    65eb: b0 0d        	bcs	$65fa <__udivmodhi4+0x21>
    65ed: a6 1a        	ldx	$1a                     ; 0x201a <wipeArea+0x14e>
    65ef: 86 12        	stx	$12                     ; 0x2012 <wipeArea+0x146>
    65f1: a2 00        	ldx	#$0
    65f3: 4c 9e 66     	jmp	$669e <__udivmodhi4+0xc5>
    65f6: e4 13        	cpx	$13                     ; 0x2013 <wipeArea+0x147>
    65f8: 90 f3        	bcc	$65ed <__udivmodhi4+0x14>
    65fa: a6 13        	ldx	$13                     ; 0x2013 <wipeArea+0x147>
    65fc: 10 03        	bpl	$6601 <__udivmodhi4+0x28>
    65fe: 4c 91 66     	jmp	$6691 <__udivmodhi4+0xb8>
    6601: a2 00        	ldx	#$0
    6603: a4 12        	ldy	$12                     ; 0x2012 <wipeArea+0x146>
    6605: 84 17        	sty	$17                     ; 0x2017 <wipeArea+0x14b>
    6607: a4 13        	ldy	$13                     ; 0x2013 <wipeArea+0x147>
    6609: 84 18        	sty	$18                     ; 0x2018 <wipeArea+0x14c>
    660b: 06 17        	asl	$17                     ; 0x2017 <wipeArea+0x14b>
    660d: 26 18        	rol	$18                     ; 0x2018 <wipeArea+0x14c>
    660f: a4 1a        	ldy	$1a                     ; 0x201a <wipeArea+0x14e>
    6611: c4 18        	cpy	$18                     ; 0x2018 <wipeArea+0x14c>
    6613: d0 06        	bne	$661b <__udivmodhi4+0x42>
    6615: c5 17        	cmp	$17                     ; 0x2017 <wipeArea+0x14b>
    6617: b0 08        	bcs	$6621 <__udivmodhi4+0x48>
    6619: 80 13        	bra	$662e <__udivmodhi4+0x55>
    661b: a4 1a        	ldy	$1a                     ; 0x201a <wipeArea+0x14e>
    661d: c4 18        	cpy	$18                     ; 0x2018 <wipeArea+0x14c>
    661f: 90 0d        	bcc	$662e <__udivmodhi4+0x55>
    6621: e8           	inx
    6622: a4 17        	ldy	$17                     ; 0x2017 <wipeArea+0x14b>
    6624: 84 12        	sty	$12                     ; 0x2012 <wipeArea+0x146>
    6626: a4 18        	ldy	$18                     ; 0x2018 <wipeArea+0x14c>
    6628: 84 13        	sty	$13                     ; 0x2013 <wipeArea+0x147>
    662a: 10 df        	bpl	$660b <__udivmodhi4+0x32>
    662c: 80 08        	bra	$6636 <__udivmodhi4+0x5d>
    662e: a4 12        	ldy	$12                     ; 0x2012 <wipeArea+0x146>
    6630: 84 17        	sty	$17                     ; 0x2017 <wipeArea+0x14b>
    6632: a4 13        	ldy	$13                     ; 0x2013 <wipeArea+0x147>
    6634: 84 18        	sty	$18                     ; 0x2018 <wipeArea+0x14c>
    6636: 38           	sec
    6637: e5 17        	sbc	$17                     ; 0x2017 <wipeArea+0x14b>
    6639: a8           	tay
    663a: a5 1a        	lda	$1a                     ; 0x201a <wipeArea+0x14e>
    663c: e5 18        	sbc	$18                     ; 0x2018 <wipeArea+0x14c>
    663e: 85 12        	sta	$12                     ; 0x2012 <wipeArea+0x146>
    6640: 8a           	txa
    6641: d0 03        	bne	$6646 <__udivmodhi4+0x6d>
    6643: 4c ad 66     	jmp	$66ad <__udivmodhi4+0xd4>
    6646: a9 01        	lda	#$1
    6648: 85 60        	sta	$60                     ; 0x2060 <wipeArea+0x194>
    664a: 64 16        	stz	$16                     ; 0x2016 <wipeArea+0x14a>
    664c: 98           	tya
    664d: 46 18        	lsr	$18                     ; 0x2018 <wipeArea+0x14c>
    664f: 66 17        	ror	$17                     ; 0x2017 <wipeArea+0x14b>
    6651: a4 60        	ldy	$60                     ; 0x2060 <wipeArea+0x194>
    6653: 84 13        	sty	$13                     ; 0x2013 <wipeArea+0x147>
    6655: 06 13        	asl	$13                     ; 0x2013 <wipeArea+0x147>
    6657: a0 01        	ldy	#$1
    6659: b0 02        	bcs	$665d <__udivmodhi4+0x84>
    665b: a0 00        	ldy	#$0
    665d: 84 19        	sty	$19                     ; 0x2019 <wipeArea+0x14d>
    665f: a4 13        	ldy	$13                     ; 0x2013 <wipeArea+0x147>
    6661: 84 60        	sty	$60                     ; 0x2060 <wipeArea+0x194>
    6663: a4 12        	ldy	$12                     ; 0x2012 <wipeArea+0x146>
    6665: c4 18        	cpy	$18                     ; 0x2018 <wipeArea+0x14c>
    6667: d0 22        	bne	$668b <__udivmodhi4+0xb2>
    6669: c5 17        	cmp	$17                     ; 0x2017 <wipeArea+0x14b>
    666b: 90 13        	bcc	$6680 <__udivmodhi4+0xa7>
    666d: a8           	tay
    666e: a5 60        	lda	$60                     ; 0x2060 <wipeArea+0x194>
    6670: 09 01        	ora	#$1
    6672: 85 60        	sta	$60                     ; 0x2060 <wipeArea+0x194>
    6674: 38           	sec
    6675: 98           	tya
    6676: e5 17        	sbc	$17                     ; 0x2017 <wipeArea+0x14b>
    6678: a8           	tay
    6679: a5 12        	lda	$12                     ; 0x2012 <wipeArea+0x146>
    667b: e5 18        	sbc	$18                     ; 0x2018 <wipeArea+0x14c>
    667d: 85 12        	sta	$12                     ; 0x2012 <wipeArea+0x146>
    667f: 98           	tya
    6680: a4 19        	ldy	$19                     ; 0x2019 <wipeArea+0x14d>
    6682: c0 01        	cpy	#$1
    6684: 26 16        	rol	$16                     ; 0x2016 <wipeArea+0x14a>
    6686: ca           	dex
    6687: d0 c4        	bne	$664d <__udivmodhi4+0x74>
    6689: 80 15        	bra	$66a0 <__udivmodhi4+0xc7>
    668b: c4 18        	cpy	$18                     ; 0x2018 <wipeArea+0x14c>
    668d: b0 de        	bcs	$666d <__udivmodhi4+0x94>
    668f: 80 ef        	bra	$6680 <__udivmodhi4+0xa7>
    6691: 38           	sec
    6692: e5 12        	sbc	$12                     ; 0x2012 <wipeArea+0x146>
    6694: aa           	tax
    6695: a5 1a        	lda	$1a                     ; 0x201a <wipeArea+0x14e>
    6697: e5 13        	sbc	$13                     ; 0x2013 <wipeArea+0x147>
    6699: 85 12        	sta	$12                     ; 0x2012 <wipeArea+0x146>
    669b: 8a           	txa
    669c: a2 01        	ldx	#$1
    669e: 86 60        	stx	$60                     ; 0x2060 <wipeArea+0x194>
    66a0: 92 14        	sta	($14)                   ; 0x2014 <wipeArea+0x148>
    66a2: a0 01        	ldy	#$1
    66a4: a5 12        	lda	$12                     ; 0x2012 <wipeArea+0x146>
    66a6: 91 14        	sta	($14),y                 ; 0x2014 <wipeArea+0x148>
    66a8: a6 16        	ldx	$16                     ; 0x2016 <wipeArea+0x14a>
    66aa: a5 60        	lda	$60                     ; 0x2060 <wipeArea+0x194>
    66ac: 60           	rts
    66ad: a2 01        	ldx	#$1
    66af: 86 60        	stx	$60                     ; 0x2060 <wipeArea+0x194>
    66b1: 98           	tya
    66b2: 80 ec        	bra	$66a0 <__udivmodhi4+0xc7>
