
vgmplayer.elf:	file format elf32-mos

SYMBOL TABLE:
00000000 l    df *ABS*	00000000 zero-bss.c
00000000 l    df *ABS*	00000000 zero-zp-bss.c
00000000 l    df *ABS*	00000000 copy-zp-data.c
00000000 l    df *ABS*	00000000 ld-temp.o
00000576 l     F .text	000003e9 readDirectory
00003864 l     F .text	00000112 fileOpenDir
00003abf l     F .text	000000df fileReadDir
000056e9 l     O .bss	0000300e fpr
00000052 l     O .zp.bss	00000001 kernelError
0000004b l     O .zp.bss	00000007 kernelEventData
0000095f l     F .text	00000319 sortFileList
00000c78 l     F .text	0000038d displayFileList
00000053 l     O .zp.bss	00000001 _col
00000054 l     O .zp.bss	00000001 _row
00004a12 l     F .text	000001e5 putchar
000048b6 l     F .text	00000082 printf
00001005 l     F .text	00000c50 pickFile
00003853 l     F .text	00000011 textGotoXY
00001c55 l     F .text	0000013a opl3_initialize
00000033 l     O .zp.data	00000001 _ccolor
000056b9 l     O .rodata	00000030 textColors
000086f7 l     O .bss	00000004 _BITMAP_BASE.0
00000055 l     O .zp.bss	00000008 _dirStream
00004938 l     F .text	000000da sprintf
000087fd l     O .bss	00000078 name
00003976 l     F .text	00000149 fileRead
0000005f l     O .zp.bss	00000001 comeRightTrough
0000501a l     F .text	000000db __udivmodhi4
000056a1 l     O .rodata	00000018 opl3_fnums
00000035 l     O .zp.bss	00000012 polyOPL3Buffer
00000034 l     O .zp.bss	00000001 chipAct.0
00005649 l     O .rodata	00000058 noteColors
00004faa l     F .text	00000070 __mulsi3
00000047 l     O .zp.bss	00000004 tooBigWait
00004dcc l     F .text	00000192 free
00004bf7 l     F .text	000001d5 malloc
000086fb l     O .bss	00000102 fileReadDir.fileDirEntS
00003ba3 l     F .text	00000b34 _ZN12_GLOBAL__N_15printEPKcP6Status
000046d7 l     F .text	000000d3 _ZN12_GLOBAL__N_13putEcP6Status
000047aa l     F .text	0000010c _ZN12_GLOBAL__N_112print_stringEPKcP6Status
0000005d l     O .zp.bss	00000002 __putchar.s
00008875 l     O .bss	00000001 _ZN12_GLOBAL__N_111initializedE
0000031c l     F .text	0000013d _ZN12_GLOBAL__N_19FreeChunk6insertEPvj
00008876 l     O .bss	00000001 _ZN12_GLOBAL__N_19last_freeE
00008879 l     O .bss	00000002 _ZN12_GLOBAL__N_19free_listE
0000045a l     F .text	000000df _ZN12_GLOBAL__N_19FreeChunk6removeEv
00008877 l     O .bss	00000002 _ZN12_GLOBAL__N_19free_sizeE
00001d8f g     F .text	00001ac4 main
000203fc g       .pianopal	00000000 pianopal_end
00033000 g       .keys	00000000 keys_end
00020000 g       .pianopal	00000000 pianopal_start
00020400 g       .keys	00000000 keys_start
00000318 g       .text	00000000 __after_main
00000304 g       .text	00000000 __do_init_stack
00000312 g       .text	00000000 __do_copy_zp_data
0000055f g     F .text	00000017 __copy_zp_data
0000030c g       .text	00000000 __do_zero_bss
00000539 g     F .text	00000013 __zero_bss
0000030f g       .text	00000000 __do_zero_zp_bss
0000054c g     F .text	00000013 __zero_zp_bss
00003b9e g     F .text	00000005 exit
0000031b g       .text	00000000 _fini
000050f5 g       .rodata	00000000 __set_v
00004f8a  w    F .text	00000020 __memset
00001000  w      *ABS*	00000000 __heap_default_limit
000088f4 g       .noinit	00000000 __heap_start
00004f5e  w    F .text	0000002c memcpy
00000010 g       *ABS*	00000000 __rc0
00000012 g       *ABS*	00000000 __rc2
00000014 g       *ABS*	00000000 __rc4
00000016 g       *ABS*	00000000 __rc6
00000018 g       *ABS*	00000000 __rc8
0000001a g       *ABS*	00000000 __rc10
0000001c g       *ABS*	00000000 __rc12
0000001e g       *ABS*	00000000 __rc14
00000020 g       *ABS*	00000000 __rc16
00000022 g       *ABS*	00000000 __rc18
00000024 g       *ABS*	00000000 __rc20
00000026 g       *ABS*	00000000 __rc22
00000028 g       *ABS*	00000000 __rc24
0000002a g       *ABS*	00000000 __rc26
0000002c g       *ABS*	00000000 __rc28
0000002e g       *ABS*	00000000 __rc30
0000002f g       *ABS*	00000000 __rc31
00000300 g       *ABS*	00000000 __f256_start
0000c000 g       *ABS*	00000000 __stack
0000c000 g       *ABS*	00000000 __SLOT_ADDR
0800c000 g       *ABS*	00000000 __block8_lma
00002000 g       *ABS*	00000000 __BLOCK_SIZE
0900c000 g       *ABS*	00000000 __block9_lma
0a00c000 g       *ABS*	00000000 __block10_lma
0b00c000 g       *ABS*	00000000 __block11_lma
0c00c000 g       *ABS*	00000000 __block12_lma
0d00c000 g       *ABS*	00000000 __block13_lma
0e00c000 g       *ABS*	00000000 __block14_lma
0f00c000 g       *ABS*	00000000 __block15_lma
1000c000 g       *ABS*	00000000 __block16_lma
1100c000 g       *ABS*	00000000 __block17_lma
1200c000 g       *ABS*	00000000 __block18_lma
1300c000 g       *ABS*	00000000 __block19_lma
1400c000 g       *ABS*	00000000 __block20_lma
1500c000 g       *ABS*	00000000 __block21_lma
1600c000 g       *ABS*	00000000 __block22_lma
1700c000 g       *ABS*	00000000 __block23_lma
00020000 g       *ABS*	00000000 __pianopal_lma
000003fc g       *ABS*	00000000 __pianopal_size
00020400 g       *ABS*	00000000 __keys_lma
00012c00 g       *ABS*	00000000 __keys_size
000056e9 g       .bss	00000000 __bss_start
000203fc g       .pianopal	00000000 end_pianopal
00033000 g       .keys	00000000 end_keys
00000304 g       .text	00000000 _start
0000002d g       *ABS*	00000000 __rc29
0000002b g       *ABS*	00000000 __rc27
00000029 g       *ABS*	00000000 __rc25
00000027 g       *ABS*	00000000 __rc23
00000025 g       *ABS*	00000000 __rc21
00000023 g       *ABS*	00000000 __rc19
00000021 g       *ABS*	00000000 __rc17
0000001f g       *ABS*	00000000 __rc15
0000001d g       *ABS*	00000000 __rc13
0000001b g       *ABS*	00000000 __rc11
00000019 g       *ABS*	00000000 __rc9
00000017 g       *ABS*	00000000 __rc7
00000015 g       *ABS*	00000000 __rc5
00000013 g       *ABS*	00000000 __rc3
00000011 g       *ABS*	00000000 __rc1
00000030 g       .zp.data	00000000 __zp_data_start
00000300 g       *ABS*	00000000 __zp_data_load_start
00000004 g       *ABS*	00000000 __zp_data_size
00000034 g       .zp.bss	00000000 __zp_bss_start
0000002c g       *ABS*	00000000 __zp_bss_size
00000304 g       .text	00000000 _init
000050f5 g       .text	00000000 __init_array_start
000050f5 g       .text	00000000 __init_array_end
000050f5 g       .text	00000000 __fini_array_start
000050f5 g       .text	00000000 __fini_array_end
000056e9 g       .data	00000000 __data_start
000056e9 g       .data	00000000 __data_end
000056e9 g       *ABS*	00000000 __data_load_start
00000000 g       *ABS*	00000000 __data_size
0000887b g       .bss	00000000 __bss_end
00003192 g       *ABS*	00000000 __bss_size
000088f3 g       .noinit	00000000 end_block8
000088f3 g       .noinit	00000000 end_block9
000088f3 g       .noinit	00000000 end_block10
000088f3 g       .noinit	00000000 end_block11
000088f3 g       .noinit	00000000 end_block12
000088f3 g       .noinit	00000000 end_block13
000088f3 g       .noinit	00000000 end_block14
000088f3 g       .noinit	00000000 end_block15
000088f3 g       .noinit	00000000 end_block16
000088f3 g       .noinit	00000000 end_block17
000088f3 g       .noinit	00000000 end_block18
000088f3 g       .noinit	00000000 end_block19
000088f3 g       .noinit	00000000 end_block20
000088f3 g       .noinit	00000000 end_block21
000088f3 g       .noinit	00000000 end_block22
000088f3 g       .noinit	00000000 end_block23

Disassembly of section .text:

00000304 <_start>:
     304: a9 00        	lda	#$0
     306: 85 10        	sta	$10                     ; 0x2010 <main+0x281>
     308: a9 c0        	lda	#$c0
     30a: 85 11        	sta	$11                     ; 0x2011 <main+0x282>

0000030c <__do_zero_bss>:
     30c: 20 39 05     	jsr	$539 <__zero_bss>

0000030f <__do_zero_zp_bss>:
     30f: 20 4c 05     	jsr	$54c <__zero_zp_bss>

00000312 <__do_copy_zp_data>:
     312: 20 5f 05     	jsr	$55f <__copy_zp_data>
     315: 20 8f 1d     	jsr	$1d8f <main>

00000318 <__after_main>:
     318: 4c 9e 3b     	jmp	$3b9e <exit>

0000031b <_fini>:
     31b: 60           	rts

0000031c <_ZN12_GLOBAL__N_19FreeChunk6insertEPvj>:
     31c: 85 16        	sta	$16                     ; 0x2016 <main+0x287>
     31e: 29 fe        	and	#$fe
     320: 85 14        	sta	$14                     ; 0x2014 <main+0x285>
     322: a0 01        	ldy	#$1
     324: 98           	tya
     325: 32 12        	and	($12)                   ; 0x2012 <main+0x283>
     327: 05 14        	ora	$14                     ; 0x2014 <main+0x285>
     329: 92 12        	sta	($12)                   ; 0x2012 <main+0x283>
     32b: a5 12        	lda	$12                     ; 0x2012 <main+0x283>
     32d: 18           	clc
     32e: 65 14        	adc	$14                     ; 0x2014 <main+0x285>
     330: 85 15        	sta	$15                     ; 0x2015 <main+0x286>
     332: 8a           	txa
     333: 65 13        	adc	$13                     ; 0x2013 <main+0x284>
     335: 85 14        	sta	$14                     ; 0x2014 <main+0x285>
     337: 18           	clc
     338: a5 15        	lda	$15                     ; 0x2015 <main+0x286>
     33a: 69 fe        	adc	#$fe
     33c: 85 17        	sta	$17                     ; 0x2017 <main+0x288>
     33e: a5 14        	lda	$14                     ; 0x2014 <main+0x285>
     340: 69 ff        	adc	#$ff
     342: 85 15        	sta	$15                     ; 0x2015 <main+0x286>
     344: a5 17        	lda	$17                     ; 0x2017 <main+0x288>
     346: 85 14        	sta	$14                     ; 0x2014 <main+0x285>
     348: 8a           	txa
     349: 91 12        	sta	($12),y                 ; 0x2012 <main+0x283>
     34b: a5 16        	lda	$16                     ; 0x2016 <main+0x287>
     34d: 92 14        	sta	($14)                   ; 0x2014 <main+0x285>
     34f: 8a           	txa
     350: 91 14        	sta	($14),y                 ; 0x2014 <main+0x285>
     352: b1 12        	lda	($12),y                 ; 0x2012 <main+0x283>
     354: 85 14        	sta	$14                     ; 0x2014 <main+0x285>
     356: a9 fe        	lda	#$fe
     358: 32 12        	and	($12)                   ; 0x2012 <main+0x283>
     35a: 18           	clc
     35b: 6d 77 88     	adc	$8877                   ; 0x8877 <_ZN12_GLOBAL__N_19free_sizeE>
     35e: aa           	tax
     35f: a5 14        	lda	$14                     ; 0x2014 <main+0x285>
     361: 6d 78 88     	adc	$8878                   ; 0x8878 <_ZN12_GLOBAL__N_19free_sizeE+0x1>
     364: a8           	tay
     365: 18           	clc
     366: 8a           	txa
     367: 69 fe        	adc	#$fe
     369: aa           	tax
     36a: 98           	tya
     36b: 69 ff        	adc	#$ff
     36d: 8e 77 88     	stx	$8877                   ; 0x8877 <_ZN12_GLOBAL__N_19free_sizeE>
     370: 8d 78 88     	sta	$8878                   ; 0x8878 <_ZN12_GLOBAL__N_19free_sizeE+0x1>
     373: ae 79 88     	ldx	$8879                   ; 0x8879 <_ZN12_GLOBAL__N_19free_listE>
     376: 86 16        	stx	$16                     ; 0x2016 <main+0x287>
     378: ac 7a 88     	ldy	$887a                   ; 0x887a <_ZN12_GLOBAL__N_19free_listE+0x1>
     37b: a2 00        	ldx	#$0
     37d: 86 14        	stx	$14                     ; 0x2014 <main+0x285>
     37f: a2 00        	ldx	#$0
     381: 86 15        	stx	$15                     ; 0x2015 <main+0x286>
     383: c4 15        	cpy	$15                     ; 0x2015 <main+0x286>
     385: d0 3e        	bne	$3c5 <_ZN12_GLOBAL__N_19FreeChunk6insertEPvj+0xa9>
     387: a6 16        	ldx	$16                     ; 0x2016 <main+0x287>
     389: e4 14        	cpx	$14                     ; 0x2014 <main+0x285>
     38b: d0 38        	bne	$3c5 <_ZN12_GLOBAL__N_19FreeChunk6insertEPvj+0xa9>
     38d: a0 04        	ldy	#$4
     38f: a5 12        	lda	$12                     ; 0x2012 <main+0x283>
     391: 18           	clc
     392: 69 04        	adc	#$4
     394: 85 14        	sta	$14                     ; 0x2014 <main+0x285>
     396: a5 13        	lda	$13                     ; 0x2013 <main+0x284>
     398: 69 00        	adc	#$0
     39a: 18           	clc
     39b: 85 15        	sta	$15                     ; 0x2015 <main+0x286>
     39d: a5 12        	lda	$12                     ; 0x2012 <main+0x283>
     39f: 91 12        	sta	($12),y                 ; 0x2012 <main+0x283>
     3a1: a0 02        	ldy	#$2
     3a3: 85 17        	sta	$17                     ; 0x2017 <main+0x288>
     3a5: 69 02        	adc	#$2
     3a7: 85 16        	sta	$16                     ; 0x2016 <main+0x287>
     3a9: a5 17        	lda	$17                     ; 0x2017 <main+0x288>
     3ab: 91 12        	sta	($12),y                 ; 0x2012 <main+0x283>
     3ad: a5 13        	lda	$13                     ; 0x2013 <main+0x284>
     3af: 69 00        	adc	#$0
     3b1: 85 17        	sta	$17                     ; 0x2017 <main+0x288>
     3b3: 88           	dey
     3b4: a5 13        	lda	$13                     ; 0x2013 <main+0x284>
     3b6: 91 14        	sta	($14),y                 ; 0x2014 <main+0x285>
     3b8: 91 16        	sta	($16),y                 ; 0x2016 <main+0x287>
     3ba: a6 12        	ldx	$12                     ; 0x2012 <main+0x283>
     3bc: 8e 79 88     	stx	$8879                   ; 0x8879 <_ZN12_GLOBAL__N_19free_listE>
     3bf: a6 13        	ldx	$13                     ; 0x2013 <main+0x284>
     3c1: 8e 7a 88     	stx	$887a                   ; 0x887a <_ZN12_GLOBAL__N_19free_listE+0x1>
     3c4: 60           	rts
     3c5: a6 12        	ldx	$12                     ; 0x2012 <main+0x283>
     3c7: a5 12        	lda	$12                     ; 0x2012 <main+0x283>
     3c9: 18           	clc
     3ca: 69 02        	adc	#$2
     3cc: 85 14        	sta	$14                     ; 0x2014 <main+0x285>
     3ce: 84 18        	sty	$18                     ; 0x2018 <main+0x289>
     3d0: a5 13        	lda	$13                     ; 0x2013 <main+0x284>
     3d2: 69 00        	adc	#$0
     3d4: 85 15        	sta	$15                     ; 0x2015 <main+0x286>
     3d6: a5 16        	lda	$16                     ; 0x2016 <main+0x287>
     3d8: 84 17        	sty	$17                     ; 0x2017 <main+0x288>
     3da: a0 02        	ldy	#$2
     3dc: 91 12        	sta	($12),y                 ; 0x2012 <main+0x283>
     3de: 85 19        	sta	$19                     ; 0x2019 <main+0x28a>
     3e0: 88           	dey
     3e1: a5 18        	lda	$18                     ; 0x2018 <main+0x289>
     3e3: 91 14        	sta	($14),y                 ; 0x2014 <main+0x285>
     3e5: 18           	clc
     3e6: a5 19        	lda	$19                     ; 0x2019 <main+0x28a>
     3e8: 69 04        	adc	#$4
     3ea: a8           	tay
     3eb: a5 18        	lda	$18                     ; 0x2018 <main+0x289>
     3ed: 69 00        	adc	#$0
     3ef: 85 19        	sta	$19                     ; 0x2019 <main+0x28a>
     3f1: 84 18        	sty	$18                     ; 0x2018 <main+0x289>
     3f3: 8a           	txa
     3f4: 18           	clc
     3f5: 69 04        	adc	#$4
     3f7: 85 1a        	sta	$1a                     ; 0x201a <main+0x28b>
     3f9: a5 13        	lda	$13                     ; 0x2013 <main+0x284>
     3fb: 69 00        	adc	#$0
     3fd: 85 1b        	sta	$1b                     ; 0x201b <main+0x28c>
     3ff: a0 04        	ldy	#$4
     401: b1 16        	lda	($16),y                 ; 0x2016 <main+0x287>
     403: 85 16        	sta	$16                     ; 0x2016 <main+0x287>
     405: 85 1d        	sta	$1d                     ; 0x201d <main+0x28e>
     407: a0 01        	ldy	#$1
     409: b1 18        	lda	($18),y                 ; 0x2018 <main+0x289>
     40b: 85 17        	sta	$17                     ; 0x2017 <main+0x288>
     40d: 85 19        	sta	$19                     ; 0x2019 <main+0x28a>
     40f: a0 04        	ldy	#$4
     411: a5 1d        	lda	$1d                     ; 0x201d <main+0x28e>
     413: 91 12        	sta	($12),y                 ; 0x2012 <main+0x283>
     415: a5 19        	lda	$19                     ; 0x2019 <main+0x28a>
     417: a0 01        	ldy	#$1
     419: 91 1a        	sta	($1a),y                 ; 0x201a <main+0x28b>
     41b: 18           	clc
     41c: a5 1d        	lda	$1d                     ; 0x201d <main+0x28e>
     41e: 69 02        	adc	#$2
     420: 85 18        	sta	$18                     ; 0x2018 <main+0x289>
     422: a5 19        	lda	$19                     ; 0x2019 <main+0x28a>
     424: 69 00        	adc	#$0
     426: 85 19        	sta	$19                     ; 0x2019 <main+0x28a>
     428: 8a           	txa
     429: c8           	iny
     42a: 91 16        	sta	($16),y                 ; 0x2016 <main+0x287>
     42c: a5 13        	lda	$13                     ; 0x2013 <main+0x284>
     42e: 88           	dey
     42f: 91 18        	sta	($18),y                 ; 0x2018 <main+0x289>
     431: c8           	iny
     432: b1 12        	lda	($12),y                 ; 0x2012 <main+0x283>
     434: 85 16        	sta	$16                     ; 0x2016 <main+0x287>
     436: 85 18        	sta	$18                     ; 0x2018 <main+0x289>
     438: 88           	dey
     439: b1 14        	lda	($14),y                 ; 0x2014 <main+0x285>
     43b: 85 17        	sta	$17                     ; 0x2017 <main+0x288>
     43d: 85 14        	sta	$14                     ; 0x2014 <main+0x285>
     43f: 8a           	txa
     440: a0 04        	ldy	#$4
     442: 91 16        	sta	($16),y                 ; 0x2016 <main+0x287>
     444: 18           	clc
     445: a5 18        	lda	$18                     ; 0x2018 <main+0x289>
     447: 69 04        	adc	#$4
     449: a8           	tay
     44a: a5 14        	lda	$14                     ; 0x2014 <main+0x285>
     44c: 69 00        	adc	#$0
     44e: 84 14        	sty	$14                     ; 0x2014 <main+0x285>
     450: 85 15        	sta	$15                     ; 0x2015 <main+0x286>
     452: a5 13        	lda	$13                     ; 0x2013 <main+0x284>
     454: a0 01        	ldy	#$1
     456: 91 14        	sta	($14),y                 ; 0x2014 <main+0x285>
     458: 60           	rts
     459: 00           	brk

0000045a <_ZN12_GLOBAL__N_19FreeChunk6removeEv>:
     45a: a0 01        	ldy	#$1
     45c: a9 fe        	lda	#$fe
     45e: 32 12        	and	($12)                   ; 0x2012 <main+0x283>
     460: 85 14        	sta	$14                     ; 0x2014 <main+0x285>
     462: ad 77 88     	lda	$8877                   ; 0x8877 <_ZN12_GLOBAL__N_19free_sizeE>
     465: ae 78 88     	ldx	$8878                   ; 0x8878 <_ZN12_GLOBAL__N_19free_sizeE+0x1>
     468: 86 15        	stx	$15                     ; 0x2015 <main+0x286>
     46a: 38           	sec
     46b: e5 14        	sbc	$14                     ; 0x2014 <main+0x285>
     46d: aa           	tax
     46e: a5 15        	lda	$15                     ; 0x2015 <main+0x286>
     470: f1 12        	sbc	($12),y                 ; 0x2012 <main+0x283>
     472: 85 14        	sta	$14                     ; 0x2014 <main+0x285>
     474: 18           	clc
     475: 8a           	txa
     476: 69 02        	adc	#$2
     478: 85 15        	sta	$15                     ; 0x2015 <main+0x286>
     47a: a5 14        	lda	$14                     ; 0x2014 <main+0x285>
     47c: 69 00        	adc	#$0
     47e: a6 15        	ldx	$15                     ; 0x2015 <main+0x286>
     480: 8e 77 88     	stx	$8877                   ; 0x8877 <_ZN12_GLOBAL__N_19free_sizeE>
     483: 8d 78 88     	sta	$8878                   ; 0x8878 <_ZN12_GLOBAL__N_19free_sizeE+0x1>
     486: a5 12        	lda	$12                     ; 0x2012 <main+0x283>
     488: 18           	clc
     489: 69 02        	adc	#$2
     48b: 85 14        	sta	$14                     ; 0x2014 <main+0x285>
     48d: a5 13        	lda	$13                     ; 0x2013 <main+0x284>
     48f: 69 00        	adc	#$0
     491: c8           	iny
     492: 85 15        	sta	$15                     ; 0x2015 <main+0x286>
     494: b1 12        	lda	($12),y                 ; 0x2012 <main+0x283>
     496: aa           	tax
     497: 88           	dey
     498: b1 14        	lda	($14),y                 ; 0x2014 <main+0x285>
     49a: 85 19        	sta	$19                     ; 0x2019 <main+0x28a>
     49c: c5 13        	cmp	$13                     ; 0x2013 <main+0x284>
     49e: d0 0f        	bne	$4af <_ZN12_GLOBAL__N_19FreeChunk6removeEv+0x55>
     4a0: e4 12        	cpx	$12                     ; 0x2012 <main+0x283>
     4a2: d0 0b        	bne	$4af <_ZN12_GLOBAL__N_19FreeChunk6removeEv+0x55>
     4a4: a2 00        	ldx	#$0
     4a6: 86 14        	stx	$14                     ; 0x2014 <main+0x285>
     4a8: a2 00        	ldx	#$0
     4aa: 86 15        	stx	$15                     ; 0x2015 <main+0x286>
     4ac: 4c 2e 05     	jmp	$52e <_ZN12_GLOBAL__N_19FreeChunk6removeEv+0xd4>
     4af: 86 18        	stx	$18                     ; 0x2018 <main+0x289>
     4b1: a6 12        	ldx	$12                     ; 0x2012 <main+0x283>
     4b3: a5 12        	lda	$12                     ; 0x2012 <main+0x283>
     4b5: 86 1b        	stx	$1b                     ; 0x201b <main+0x28c>
     4b7: 18           	clc
     4b8: 69 04        	adc	#$4
     4ba: 85 14        	sta	$14                     ; 0x2014 <main+0x285>
     4bc: a5 13        	lda	$13                     ; 0x2013 <main+0x284>
     4be: 69 00        	adc	#$0
     4c0: a0 04        	ldy	#$4
     4c2: 85 15        	sta	$15                     ; 0x2015 <main+0x286>
     4c4: b1 12        	lda	($12),y                 ; 0x2012 <main+0x283>
     4c6: 85 1c        	sta	$1c                     ; 0x201c <main+0x28d>
     4c8: 18           	clc
     4c9: 69 02        	adc	#$2
     4cb: 85 16        	sta	$16                     ; 0x2016 <main+0x287>
     4cd: a0 01        	ldy	#$1
     4cf: b1 14        	lda	($14),y                 ; 0x2014 <main+0x285>
     4d1: aa           	tax
     4d2: 69 00        	adc	#$0
     4d4: a4 16        	ldy	$16                     ; 0x2016 <main+0x287>
     4d6: 84 14        	sty	$14                     ; 0x2014 <main+0x285>
     4d8: 85 15        	sta	$15                     ; 0x2015 <main+0x286>
     4da: a4 1c        	ldy	$1c                     ; 0x201c <main+0x28d>
     4dc: 84 16        	sty	$16                     ; 0x2016 <main+0x287>
     4de: 86 17        	stx	$17                     ; 0x2017 <main+0x288>
     4e0: a0 02        	ldy	#$2
     4e2: a5 18        	lda	$18                     ; 0x2018 <main+0x289>
     4e4: 91 16        	sta	($16),y                 ; 0x2016 <main+0x287>
     4e6: a5 19        	lda	$19                     ; 0x2019 <main+0x28a>
     4e8: 88           	dey
     4e9: 91 14        	sta	($14),y                 ; 0x2014 <main+0x285>
     4eb: 18           	clc
     4ec: a5 1b        	lda	$1b                     ; 0x201b <main+0x28c>
     4ee: 69 02        	adc	#$2
     4f0: 85 14        	sta	$14                     ; 0x2014 <main+0x285>
     4f2: a5 13        	lda	$13                     ; 0x2013 <main+0x284>
     4f4: 69 00        	adc	#$0
     4f6: 85 15        	sta	$15                     ; 0x2015 <main+0x286>
     4f8: c8           	iny
     4f9: b1 12        	lda	($12),y                 ; 0x2012 <main+0x283>
     4fb: 85 16        	sta	$16                     ; 0x2016 <main+0x287>
     4fd: 88           	dey
     4fe: b1 14        	lda	($14),y                 ; 0x2014 <main+0x285>
     500: a4 16        	ldy	$16                     ; 0x2016 <main+0x287>
     502: 84 14        	sty	$14                     ; 0x2014 <main+0x285>
     504: 85 15        	sta	$15                     ; 0x2015 <main+0x286>
     506: 85 17        	sta	$17                     ; 0x2017 <main+0x288>
     508: a0 04        	ldy	#$4
     50a: a5 1c        	lda	$1c                     ; 0x201c <main+0x28d>
     50c: 91 14        	sta	($14),y                 ; 0x2014 <main+0x285>
     50e: 18           	clc
     50f: a5 16        	lda	$16                     ; 0x2016 <main+0x287>
     511: 69 04        	adc	#$4
     513: 85 16        	sta	$16                     ; 0x2016 <main+0x287>
     515: a5 17        	lda	$17                     ; 0x2017 <main+0x288>
     517: 69 00        	adc	#$0
     519: 85 17        	sta	$17                     ; 0x2017 <main+0x288>
     51b: 8a           	txa
     51c: a0 01        	ldy	#$1
     51e: 91 16        	sta	($16),y                 ; 0x2016 <main+0x287>
     520: ae 7a 88     	ldx	$887a                   ; 0x887a <_ZN12_GLOBAL__N_19free_listE+0x1>
     523: e4 13        	cpx	$13                     ; 0x2013 <main+0x284>
     525: d0 11        	bne	$538 <_ZN12_GLOBAL__N_19FreeChunk6removeEv+0xde>
     527: ae 79 88     	ldx	$8879                   ; 0x8879 <_ZN12_GLOBAL__N_19free_listE>
     52a: e4 12        	cpx	$12                     ; 0x2012 <main+0x283>
     52c: d0 0a        	bne	$538 <_ZN12_GLOBAL__N_19FreeChunk6removeEv+0xde>
     52e: a6 14        	ldx	$14                     ; 0x2014 <main+0x285>
     530: a4 15        	ldy	$15                     ; 0x2015 <main+0x286>
     532: 8e 79 88     	stx	$8879                   ; 0x8879 <_ZN12_GLOBAL__N_19free_listE>
     535: 8c 7a 88     	sty	$887a                   ; 0x887a <_ZN12_GLOBAL__N_19free_listE+0x1>
     538: 60           	rts

00000539 <__zero_bss>:
     539: a2 92        	ldx	#$92
     53b: a0 31        	ldy	#$31
     53d: a9 e9        	lda	#$e9
     53f: 85 12        	sta	$12                     ; 0x2012 <main+0x283>
     541: a9 56        	lda	#$56
     543: 85 13        	sta	$13                     ; 0x2013 <main+0x284>
     545: a9 00        	lda	#$0
     547: 84 14        	sty	$14                     ; 0x2014 <main+0x285>
     549: 4c 8a 4f     	jmp	$4f8a <__memset>

0000054c <__zero_zp_bss>:
     54c: a2 2c        	ldx	#$2c
     54e: a0 00        	ldy	#$0
     550: a9 34        	lda	#$34
     552: 85 12        	sta	$12                     ; 0x2012 <main+0x283>
     554: a9 00        	lda	#$0
     556: 85 13        	sta	$13                     ; 0x2013 <main+0x284>
     558: a9 00        	lda	#$0
     55a: 84 14        	sty	$14                     ; 0x2014 <main+0x285>
     55c: 4c 8a 4f     	jmp	$4f8a <__memset>

0000055f <__copy_zp_data>:
     55f: a9 04        	lda	#$4
     561: a2 00        	ldx	#$0
     563: a0 30        	ldy	#$30
     565: 84 12        	sty	$12                     ; 0x2012 <main+0x283>
     567: a0 00        	ldy	#$0
     569: 84 13        	sty	$13                     ; 0x2013 <main+0x284>
     56b: a0 00        	ldy	#$0
     56d: 84 14        	sty	$14                     ; 0x2014 <main+0x285>
     56f: a0 03        	ldy	#$3
     571: 84 15        	sty	$15                     ; 0x2015 <main+0x286>
     573: 4c 5e 4f     	jmp	$4f5e <memcpy>

00000576 <readDirectory>:
     576: 20 64 38     	jsr	$3864 <fileOpenDir>
     579: a6 12        	ldx	$12                     ; 0x2012 <main+0x283>
     57b: 86 60        	stx	$60                     ; 0x2060 <main+0x2d1>
     57d: a6 13        	ldx	$13                     ; 0x2013 <main+0x284>
     57f: 86 61        	stx	$61                     ; 0x2061 <main+0x2d2>
     581: a2 00        	ldx	#$0
     583: 86 12        	stx	$12                     ; 0x2012 <main+0x283>
     585: a2 00        	ldx	#$0
     587: 86 13        	stx	$13                     ; 0x2013 <main+0x284>
     589: a6 61        	ldx	$61                     ; 0x2061 <main+0x2d2>
     58b: e4 13        	cpx	$13                     ; 0x2013 <main+0x284>
     58d: d0 09        	bne	$598 <readDirectory+0x22>
     58f: a6 60        	ldx	$60                     ; 0x2060 <main+0x2d1>
     591: e4 12        	cpx	$12                     ; 0x2012 <main+0x283>
     593: d0 03        	bne	$598 <readDirectory+0x22>
     595: 4c 54 09     	jmp	$954 <readDirectory+0x3de>
     598: a6 60        	ldx	$60                     ; 0x2060 <main+0x2d1>
     59a: 86 12        	stx	$12                     ; 0x2012 <main+0x283>
     59c: a6 61        	ldx	$61                     ; 0x2061 <main+0x2d2>
     59e: 86 13        	stx	$13                     ; 0x2013 <main+0x284>
     5a0: 20 bf 3a     	jsr	$3abf <fileReadDir>
     5a3: a2 17        	ldx	#$17
     5a5: 86 64        	stx	$64                     ; 0x2064 <main+0x2d5>
     5a7: a2 58        	ldx	#$58
     5a9: 86 65        	stx	$65                     ; 0x2065 <main+0x2d6>
     5ab: a0 00        	ldy	#$0
     5ad: a2 00        	ldx	#$0
     5af: 86 62        	stx	$62                     ; 0x2062 <main+0x2d3>
     5b1: a2 00        	ldx	#$0
     5b3: 86 63        	stx	$63                     ; 0x2063 <main+0x2d4>
     5b5: e8           	inx
     5b6: 86 6c        	stx	$6c                     ; 0x206c <main+0x2dd>
     5b8: 64 66        	stz	$66                     ; 0x2066 <main+0x2d7>
     5ba: 84 67        	sty	$67                     ; 0x2067 <main+0x2d8>
     5bc: a5 66        	lda	$66                     ; 0x2066 <main+0x2d7>
     5be: d0 0a        	bne	$5ca <readDirectory+0x54>
     5c0: a6 6c        	ldx	$6c                     ; 0x206c <main+0x2dd>
     5c2: e0 64        	cpx	#$64
     5c4: 90 0a        	bcc	$5d0 <readDirectory+0x5a>
     5c6: a2 00        	ldx	#$0
     5c8: 80 08        	bra	$5d2 <readDirectory+0x5c>
     5ca: a6 66        	ldx	$66                     ; 0x2066 <main+0x2d7>
     5cc: e0 00        	cpx	#$0
     5ce: b0 f6        	bcs	$5c6 <readDirectory+0x50>
     5d0: a2 01        	ldx	#$1
     5d2: 86 6a        	stx	$6a                     ; 0x206a <main+0x2db>
     5d4: a6 60        	ldx	$60                     ; 0x2060 <main+0x2d1>
     5d6: 86 12        	stx	$12                     ; 0x2012 <main+0x283>
     5d8: a6 61        	ldx	$61                     ; 0x2061 <main+0x2d2>
     5da: 86 13        	stx	$13                     ; 0x2013 <main+0x284>
     5dc: 20 bf 3a     	jsr	$3abf <fileReadDir>
     5df: a6 13        	ldx	$13                     ; 0x2013 <main+0x284>
     5e1: e4 63        	cpx	$63                     ; 0x2063 <main+0x2d4>
     5e3: d0 0e        	bne	$5f3 <readDirectory+0x7d>
     5e5: a6 12        	ldx	$12                     ; 0x2012 <main+0x283>
     5e7: a0 02        	ldy	#$2
     5e9: a5 6a        	lda	$6a                     ; 0x206a <main+0x2db>
     5eb: e4 62        	cpx	$62                     ; 0x2062 <main+0x2d3>
     5ed: d0 08        	bne	$5f7 <readDirectory+0x81>
     5ef: a9 00        	lda	#$0
     5f1: 80 04        	bra	$5f7 <readDirectory+0x81>
     5f3: a0 02        	ldy	#$2
     5f5: a5 6a        	lda	$6a                     ; 0x206a <main+0x2db>
     5f7: aa           	tax
     5f8: d0 03        	bne	$5fd <readDirectory+0x87>
     5fa: 4c f1 08     	jmp	$8f1 <readDirectory+0x37b>
     5fd: b1 12        	lda	($12),y                 ; 0x2012 <main+0x283>
     5ff: a0 03        	ldy	#$3
     601: 85 1e        	sta	$1e                     ; 0x201e <main+0x28f>
     603: c9 2e        	cmp	#$2e
     605: d0 11        	bne	$618 <readDirectory+0xa2>
     607: b1 12        	lda	($12),y                 ; 0x2012 <main+0x283>
     609: f0 b1        	beq	$5bc <readDirectory+0x46>
     60b: c9 2e        	cmp	#$2e
     60d: d0 09        	bne	$618 <readDirectory+0xa2>
     60f: a0 04        	ldy	#$4
     611: b1 12        	lda	($12),y                 ; 0x2012 <main+0x283>
     613: d0 03        	bne	$618 <readDirectory+0xa2>
     615: 4c bc 05     	jmp	$5bc <readDirectory+0x46>
     618: a5 12        	lda	$12                     ; 0x2012 <main+0x283>
     61a: 18           	clc
     61b: 69 02        	adc	#$2
     61d: 85 1c        	sta	$1c                     ; 0x201c <main+0x28d>
     61f: a5 13        	lda	$13                     ; 0x2013 <main+0x284>
     621: 69 00        	adc	#$0
     623: 85 1d        	sta	$1d                     ; 0x201d <main+0x28e>
     625: a9 00        	lda	#$0
     627: a6 1e        	ldx	$1e                     ; 0x201e <main+0x28f>
     629: 86 18        	stx	$18                     ; 0x2018 <main+0x289>
     62b: aa           	tax
     62c: 64 19        	stz	$19                     ; 0x2019 <main+0x28a>
     62e: 86 22        	stx	$22                     ; 0x2022 <main+0x293>
     630: aa           	tax
     631: 48           	pha
     632: bd eb 86     	lda	$86eb,x                 ; 0x86eb <fpr+0x3002>
     635: aa           	tax
     636: 68           	pla
     637: e0 00        	cpx	#$0
     639: f0 3d        	beq	$678 <readDirectory+0x102>
     63b: a4 18        	ldy	$18                     ; 0x2018 <main+0x289>
     63d: f0 3e        	beq	$67d <readDirectory+0x107>
     63f: 86 23        	stx	$23                     ; 0x2023 <main+0x294>
     641: 85 1f        	sta	$1f                     ; 0x201f <main+0x290>
     643: a0 00        	ldy	#$0
     645: a2 00        	ldx	#$0
     647: 86 14        	stx	$14                     ; 0x2014 <main+0x285>
     649: 98           	tya
     64a: c8           	iny
     64b: d0 01        	bne	$64e <readDirectory+0xd8>
     64d: e8           	inx
     64e: 18           	clc
     64f: 65 12        	adc	$12                     ; 0x2012 <main+0x283>
     651: 85 17        	sta	$17                     ; 0x2017 <main+0x288>
     653: a5 14        	lda	$14                     ; 0x2014 <main+0x285>
     655: 65 13        	adc	$13                     ; 0x2013 <main+0x284>
     657: 84 16        	sty	$16                     ; 0x2016 <main+0x287>
     659: a4 17        	ldy	$17                     ; 0x2017 <main+0x288>
     65b: 84 14        	sty	$14                     ; 0x2014 <main+0x285>
     65d: 85 15        	sta	$15                     ; 0x2015 <main+0x286>
     65f: a0 03        	ldy	#$3
     661: b1 14        	lda	($14),y                 ; 0x2014 <main+0x285>
     663: a4 16        	ldy	$16                     ; 0x2016 <main+0x287>
     665: c9 00        	cmp	#$0
     667: d0 de        	bne	$647 <readDirectory+0xd1>
     669: 2c f5 50     	bit	$50f5                   ; 0x50f5 <__set_v>
     66c: a5 1e        	lda	$1e                     ; 0x201e <main+0x28f>
     66e: f0 01        	beq	$671 <readDirectory+0xfb>
     670: b8           	clv
     671: 8a           	txa
     672: d0 10        	bne	$684 <readDirectory+0x10e>
     674: c0 04        	cpy	#$4
     676: 80 0e        	bra	$686 <readDirectory+0x110>
     678: 85 15        	sta	$15                     ; 0x2015 <main+0x286>
     67a: 4c 2b 07     	jmp	$72b <readDirectory+0x1b5>
     67d: 85 15        	sta	$15                     ; 0x2015 <main+0x286>
     67f: 64 18        	stz	$18                     ; 0x2018 <main+0x289>
     681: 4c 2b 07     	jmp	$72b <readDirectory+0x1b5>
     684: e0 00        	cpx	#$0
     686: a2 01        	ldx	#$1
     688: a9 00        	lda	#$0
     68a: b0 02        	bcs	$68e <readDirectory+0x118>
     68c: a9 01        	lda	#$1
     68e: 86 16        	stx	$16                     ; 0x2016 <main+0x287>
     690: 70 02        	bvs	$694 <readDirectory+0x11e>
     692: 64 16        	stz	$16                     ; 0x2016 <main+0x287>
     694: aa           	tax
     695: 29 01        	and	#$1
     697: d0 02        	bne	$69b <readDirectory+0x125>
     699: 64 18        	stz	$18                     ; 0x2018 <main+0x289>
     69b: 8a           	txa
     69c: 05 16        	ora	$16                     ; 0x2016 <main+0x287>
     69e: 29 01        	and	#$1
     6a0: a6 1f        	ldx	$1f                     ; 0x201f <main+0x290>
     6a2: 86 15        	stx	$15                     ; 0x2015 <main+0x286>
     6a4: aa           	tax
     6a5: f0 03        	beq	$6aa <readDirectory+0x134>
     6a7: 4c 2b 07     	jmp	$72b <readDirectory+0x1b5>
     6aa: a2 00        	ldx	#$0
     6ac: 86 16        	stx	$16                     ; 0x2016 <main+0x287>
     6ae: a2 00        	ldx	#$0
     6b0: 86 17        	stx	$17                     ; 0x2017 <main+0x288>
     6b2: a5 1e        	lda	$1e                     ; 0x201e <main+0x28f>
     6b4: a6 1c        	ldx	$1c                     ; 0x201c <main+0x28d>
     6b6: 86 1a        	stx	$1a                     ; 0x201a <main+0x28b>
     6b8: a6 1d        	ldx	$1d                     ; 0x201d <main+0x28e>
     6ba: 86 1b        	stx	$1b                     ; 0x201b <main+0x28c>
     6bc: a0 01        	ldy	#$1
     6be: c9 2e        	cmp	#$2e
     6c0: d0 08        	bne	$6ca <readDirectory+0x154>
     6c2: a6 1a        	ldx	$1a                     ; 0x201a <main+0x28b>
     6c4: 86 16        	stx	$16                     ; 0x2016 <main+0x287>
     6c6: a6 1b        	ldx	$1b                     ; 0x201b <main+0x28c>
     6c8: 86 17        	stx	$17                     ; 0x2017 <main+0x288>
     6ca: b1 1a        	lda	($1a),y                 ; 0x201a <main+0x28b>
     6cc: e6 1a        	inc	$1a                     ; 0x201a <main+0x28b>
     6ce: d0 02        	bne	$6d2 <readDirectory+0x15c>
     6d0: e6 1b        	inc	$1b                     ; 0x201b <main+0x28c>
     6d2: aa           	tax
     6d3: d0 e9        	bne	$6be <readDirectory+0x148>
     6d5: a6 17        	ldx	$17                     ; 0x2017 <main+0x288>
     6d7: e4 63        	cpx	$63                     ; 0x2063 <main+0x2d4>
     6d9: d0 10        	bne	$6eb <readDirectory+0x175>
     6db: a6 16        	ldx	$16                     ; 0x2016 <main+0x287>
     6dd: a4 1e        	ldy	$1e                     ; 0x201e <main+0x28f>
     6df: 84 18        	sty	$18                     ; 0x2018 <main+0x289>
     6e1: a4 1f        	ldy	$1f                     ; 0x201f <main+0x290>
     6e3: 84 15        	sty	$15                     ; 0x2015 <main+0x286>
     6e5: e4 62        	cpx	$62                     ; 0x2062 <main+0x2d3>
     6e7: d0 06        	bne	$6ef <readDirectory+0x179>
     6e9: 80 40        	bra	$72b <readDirectory+0x1b5>
     6eb: a6 1f        	ldx	$1f                     ; 0x201f <main+0x290>
     6ed: 86 15        	stx	$15                     ; 0x2015 <main+0x286>
     6ef: a0 01        	ldy	#$1
     6f1: b1 16        	lda	($16),y                 ; 0x2016 <main+0x287>
     6f3: a6 1e        	ldx	$1e                     ; 0x201e <main+0x28f>
     6f5: 86 18        	stx	$18                     ; 0x2018 <main+0x289>
     6f7: aa           	tax
     6f8: f0 31        	beq	$72b <readDirectory+0x1b5>
     6fa: 85 1b        	sta	$1b                     ; 0x201b <main+0x28c>
     6fc: a2 00        	ldx	#$0
     6fe: 64 1a        	stz	$1a                     ; 0x201a <main+0x28b>
     700: a0 02        	ldy	#$2
     702: 8a           	txa
     703: 18           	clc
     704: 65 16        	adc	$16                     ; 0x2016 <main+0x287>
     706: 85 14        	sta	$14                     ; 0x2014 <main+0x285>
     708: a5 1a        	lda	$1a                     ; 0x201a <main+0x28b>
     70a: 65 17        	adc	$17                     ; 0x2017 <main+0x288>
     70c: e8           	inx
     70d: d0 02        	bne	$711 <readDirectory+0x19b>
     70f: e6 1a        	inc	$1a                     ; 0x201a <main+0x28b>
     711: 85 15        	sta	$15                     ; 0x2015 <main+0x286>
     713: b1 14        	lda	($14),y                 ; 0x2014 <main+0x285>
     715: d0 eb        	bne	$702 <readDirectory+0x18c>
     717: a4 1e        	ldy	$1e                     ; 0x201e <main+0x28f>
     719: 84 18        	sty	$18                     ; 0x2018 <main+0x289>
     71b: a4 1f        	ldy	$1f                     ; 0x201f <main+0x290>
     71d: 84 15        	sty	$15                     ; 0x2015 <main+0x286>
     71f: a5 1a        	lda	$1a                     ; 0x201a <main+0x28b>
     721: d0 08        	bne	$72b <readDirectory+0x1b5>
     723: a4 1e        	ldy	$1e                     ; 0x201e <main+0x28f>
     725: 84 18        	sty	$18                     ; 0x2018 <main+0x289>
     727: e0 03        	cpx	#$3
     729: f0 26        	beq	$751 <readDirectory+0x1db>
     72b: a6 22        	ldx	$22                     ; 0x2022 <main+0x293>
     72d: e8           	inx
     72e: d0 02        	bne	$732 <readDirectory+0x1bc>
     730: e6 19        	inc	$19                     ; 0x2019 <main+0x28a>
     732: 18           	clc
     733: a5 15        	lda	$15                     ; 0x2015 <main+0x286>
     735: 69 03        	adc	#$3
     737: a4 19        	ldy	$19                     ; 0x2019 <main+0x28a>
     739: f0 03        	beq	$73e <readDirectory+0x1c8>
     73b: 4c 2e 06     	jmp	$62e <readDirectory+0xb8>
     73e: e0 04        	cpx	#$4
     740: f0 03        	beq	$745 <readDirectory+0x1cf>
     742: 4c 2e 06     	jmp	$62e <readDirectory+0xb8>
     745: a0 01        	ldy	#$1
     747: b1 12        	lda	($12),y                 ; 0x2012 <main+0x283>
     749: d0 03        	bne	$74e <readDirectory+0x1d8>
     74b: 4c bc 05     	jmp	$5bc <readDirectory+0x46>
     74e: 4c e8 07     	jmp	$7e8 <readDirectory+0x272>
     751: a5 1b        	lda	$1b                     ; 0x201b <main+0x28c>
     753: c9 41        	cmp	#$41
     755: 90 08        	bcc	$75f <readDirectory+0x1e9>
     757: c9 5b        	cmp	#$5b
     759: b0 04        	bcs	$75f <readDirectory+0x1e9>
     75b: 09 20        	ora	#$20
     75d: 85 1b        	sta	$1b                     ; 0x201b <main+0x28c>
     75f: a5 23        	lda	$23                     ; 0x2023 <main+0x294>
     761: c9 41        	cmp	#$41
     763: 90 06        	bcc	$76b <readDirectory+0x1f5>
     765: c9 5b        	cmp	#$5b
     767: b0 02        	bcs	$76b <readDirectory+0x1f5>
     769: 09 20        	ora	#$20
     76b: 85 1a        	sta	$1a                     ; 0x201a <main+0x28b>
     76d: a6 1e        	ldx	$1e                     ; 0x201e <main+0x28f>
     76f: 86 18        	stx	$18                     ; 0x2018 <main+0x289>
     771: a6 1b        	ldx	$1b                     ; 0x201b <main+0x28c>
     773: e4 1a        	cpx	$1a                     ; 0x201a <main+0x28b>
     775: d0 b4        	bne	$72b <readDirectory+0x1b5>
     777: a0 02        	ldy	#$2
     779: b1 16        	lda	($16),y                 ; 0x2016 <main+0x287>
     77b: c9 41        	cmp	#$41
     77d: 90 2c        	bcc	$7ab <readDirectory+0x235>
     77f: c9 5b        	cmp	#$5b
     781: a6 1f        	ldx	$1f                     ; 0x201f <main+0x290>
     783: b0 03        	bcs	$788 <readDirectory+0x212>
     785: 4c d6 08     	jmp	$8d6 <readDirectory+0x360>
     788: 85 14        	sta	$14                     ; 0x2014 <main+0x285>
     78a: a0 03        	ldy	#$3
     78c: 80 23        	bra	$7b1 <readDirectory+0x23b>
     78e: bd ed 86     	lda	$86ed,x                 ; 0x86ed <fpr+0x3004>
     791: c9 41        	cmp	#$41
     793: 90 03        	bcc	$798 <readDirectory+0x222>
     795: 4c db 08     	jmp	$8db <readDirectory+0x365>
     798: 85 16        	sta	$16                     ; 0x2016 <main+0x287>
     79a: a6 1e        	ldx	$1e                     ; 0x201e <main+0x28f>
     79c: 86 18        	stx	$18                     ; 0x2018 <main+0x289>
     79e: a6 1f        	ldx	$1f                     ; 0x201f <main+0x290>
     7a0: 86 15        	stx	$15                     ; 0x2015 <main+0x286>
     7a2: a6 14        	ldx	$14                     ; 0x2014 <main+0x285>
     7a4: e4 16        	cpx	$16                     ; 0x2016 <main+0x287>
     7a6: f0 40        	beq	$7e8 <readDirectory+0x272>
     7a8: 4c 2b 07     	jmp	$72b <readDirectory+0x1b5>
     7ab: 85 14        	sta	$14                     ; 0x2014 <main+0x285>
     7ad: a0 03        	ldy	#$3
     7af: a6 1f        	ldx	$1f                     ; 0x201f <main+0x290>
     7b1: bd ec 86     	lda	$86ec,x                 ; 0x86ec <fpr+0x3003>
     7b4: c9 41        	cmp	#$41
     7b6: 90 07        	bcc	$7bf <readDirectory+0x249>
     7b8: c9 5b        	cmp	#$5b
     7ba: b0 03        	bcs	$7bf <readDirectory+0x249>
     7bc: 4c e5 08     	jmp	$8e5 <readDirectory+0x36f>
     7bf: 85 1a        	sta	$1a                     ; 0x201a <main+0x28b>
     7c1: a6 1e        	ldx	$1e                     ; 0x201e <main+0x28f>
     7c3: 86 18        	stx	$18                     ; 0x2018 <main+0x289>
     7c5: a6 1f        	ldx	$1f                     ; 0x201f <main+0x290>
     7c7: 86 15        	stx	$15                     ; 0x2015 <main+0x286>
     7c9: a6 14        	ldx	$14                     ; 0x2014 <main+0x285>
     7cb: e4 1a        	cpx	$1a                     ; 0x201a <main+0x28b>
     7cd: f0 03        	beq	$7d2 <readDirectory+0x25c>
     7cf: 4c 2b 07     	jmp	$72b <readDirectory+0x1b5>
     7d2: b1 16        	lda	($16),y                 ; 0x2016 <main+0x287>
     7d4: c9 41        	cmp	#$41
     7d6: b0 03        	bcs	$7db <readDirectory+0x265>
     7d8: 4c ea 08     	jmp	$8ea <readDirectory+0x374>
     7db: c9 5b        	cmp	#$5b
     7dd: a6 1f        	ldx	$1f                     ; 0x201f <main+0x290>
     7df: b0 03        	bcs	$7e4 <readDirectory+0x26e>
     7e1: 4c 55 09     	jmp	$955 <readDirectory+0x3df>
     7e4: 85 14        	sta	$14                     ; 0x2014 <main+0x285>
     7e6: 80 a6        	bra	$78e <readDirectory+0x218>
     7e8: a5 6c        	lda	$6c                     ; 0x206c <main+0x2dd>
     7ea: 0a           	asl
     7eb: a6 66        	ldx	$66                     ; 0x2066 <main+0x2d7>
     7ed: 86 14        	stx	$14                     ; 0x2014 <main+0x285>
     7ef: 26 14        	rol	$14                     ; 0x2014 <main+0x285>
     7f1: 0a           	asl
     7f2: 26 14        	rol	$14                     ; 0x2014 <main+0x285>
     7f4: 0a           	asl
     7f5: 85 15        	sta	$15                     ; 0x2015 <main+0x286>
     7f7: 26 14        	rol	$14                     ; 0x2014 <main+0x285>
     7f9: 0a           	asl
     7fa: a6 14        	ldx	$14                     ; 0x2014 <main+0x285>
     7fc: 86 16        	stx	$16                     ; 0x2016 <main+0x287>
     7fe: 26 16        	rol	$16                     ; 0x2016 <main+0x287>
     800: 0a           	asl
     801: 26 16        	rol	$16                     ; 0x2016 <main+0x287>
     803: 0a           	asl
     804: 26 16        	rol	$16                     ; 0x2016 <main+0x287>
     806: 0a           	asl
     807: 26 16        	rol	$16                     ; 0x2016 <main+0x287>
     809: 38           	sec
     80a: e5 15        	sbc	$15                     ; 0x2015 <main+0x286>
     80c: 85 15        	sta	$15                     ; 0x2015 <main+0x286>
     80e: a5 16        	lda	$16                     ; 0x2016 <main+0x287>
     810: e5 14        	sbc	$14                     ; 0x2014 <main+0x285>
     812: 85 14        	sta	$14                     ; 0x2014 <main+0x285>
     814: a9 9f        	lda	#$9f
     816: 18           	clc
     817: 65 15        	adc	$15                     ; 0x2015 <main+0x286>
     819: a8           	tay
     81a: a9 57        	lda	#$57
     81c: 65 14        	adc	$14                     ; 0x2014 <main+0x285>
     81e: a2 77        	ldx	#$77
     820: 84 15        	sty	$15                     ; 0x2015 <main+0x286>
     822: 84 16        	sty	$16                     ; 0x2016 <main+0x287>
     824: 85 19        	sta	$19                     ; 0x2019 <main+0x28a>
     826: 85 17        	sta	$17                     ; 0x2017 <main+0x288>
     828: 64 18        	stz	$18                     ; 0x2018 <main+0x289>
     82a: 64 14        	stz	$14                     ; 0x2014 <main+0x285>
     82c: 80 06        	bra	$834 <readDirectory+0x2be>
     82e: e6 18        	inc	$18                     ; 0x2018 <main+0x289>
     830: a5 14        	lda	$14                     ; 0x2014 <main+0x285>
     832: f0 17        	beq	$84b <readDirectory+0x2d5>
     834: a4 18        	ldy	$18                     ; 0x2018 <main+0x289>
     836: b1 1c        	lda	($1c),y                 ; 0x201c <main+0x28d>
     838: 85 1a        	sta	$1a                     ; 0x201a <main+0x28b>
     83a: b1 1c        	lda	($1c),y                 ; 0x201c <main+0x28d>
     83c: 91 64        	sta	($64),y                 ; 0x2064 <main+0x2d5>
     83e: a5 1a        	lda	$1a                     ; 0x201a <main+0x28b>
     840: f0 0e        	beq	$850 <readDirectory+0x2da>
     842: ca           	dex
     843: e0 ff        	cpx	#$ff
     845: d0 e7        	bne	$82e <readDirectory+0x2b8>
     847: c6 14        	dec	$14                     ; 0x2014 <main+0x285>
     849: 80 e3        	bra	$82e <readDirectory+0x2b8>
     84b: 8a           	txa
     84c: d0 e6        	bne	$834 <readDirectory+0x2be>
     84e: 80 4e        	bra	$89e <readDirectory+0x328>
     850: ca           	dex
     851: e0 ff        	cpx	#$ff
     853: d0 02        	bne	$857 <readDirectory+0x2e1>
     855: c6 14        	dec	$14                     ; 0x2014 <main+0x285>
     857: a5 14        	lda	$14                     ; 0x2014 <main+0x285>
     859: d0 03        	bne	$85e <readDirectory+0x2e8>
     85b: 8a           	txa
     85c: f0 40        	beq	$89e <readDirectory+0x328>
     85e: 18           	clc
     85f: a5 15        	lda	$15                     ; 0x2015 <main+0x286>
     861: 65 18        	adc	$18                     ; 0x2018 <main+0x289>
     863: 85 18        	sta	$18                     ; 0x2018 <main+0x289>
     865: a5 19        	lda	$19                     ; 0x2019 <main+0x28a>
     867: 69 00        	adc	#$0
     869: 85 19        	sta	$19                     ; 0x2019 <main+0x28a>
     86b: e6 18        	inc	$18                     ; 0x2018 <main+0x289>
     86d: d0 02        	bne	$871 <readDirectory+0x2fb>
     86f: e6 19        	inc	$19                     ; 0x2019 <main+0x28a>
     871: a4 12        	ldy	$12                     ; 0x2012 <main+0x283>
     873: 84 6a        	sty	$6a                     ; 0x206a <main+0x2db>
     875: a4 13        	ldy	$13                     ; 0x2013 <main+0x284>
     877: 84 6b        	sty	$6b                     ; 0x206b <main+0x2dc>
     879: a4 18        	ldy	$18                     ; 0x2018 <main+0x289>
     87b: 84 12        	sty	$12                     ; 0x2012 <main+0x283>
     87d: a4 19        	ldy	$19                     ; 0x2019 <main+0x28a>
     87f: 84 13        	sty	$13                     ; 0x2013 <main+0x284>
     881: a9 00        	lda	#$0
     883: a4 16        	ldy	$16                     ; 0x2016 <main+0x287>
     885: 84 6d        	sty	$6d                     ; 0x206d <main+0x2de>
     887: a4 17        	ldy	$17                     ; 0x2017 <main+0x288>
     889: 84 6e        	sty	$6e                     ; 0x206e <main+0x2df>
     88b: 20 8a 4f     	jsr	$4f8a <__memset>
     88e: a6 6d        	ldx	$6d                     ; 0x206d <main+0x2de>
     890: 86 16        	stx	$16                     ; 0x2016 <main+0x287>
     892: a6 6e        	ldx	$6e                     ; 0x206e <main+0x2df>
     894: 86 17        	stx	$17                     ; 0x2017 <main+0x288>
     896: a6 6a        	ldx	$6a                     ; 0x206a <main+0x2db>
     898: 86 12        	stx	$12                     ; 0x2012 <main+0x283>
     89a: a6 6b        	ldx	$6b                     ; 0x206b <main+0x2dc>
     89c: 86 13        	stx	$13                     ; 0x2013 <main+0x284>
     89e: a9 00        	lda	#$0
     8a0: a0 77        	ldy	#$77
     8a2: 91 16        	sta	($16),y                 ; 0x2016 <main+0x287>
     8a4: a0 01        	ldy	#$1
     8a6: b1 12        	lda	($12),y                 ; 0x2012 <main+0x283>
     8a8: a2 01        	ldx	#$1
     8aa: c9 01        	cmp	#$1
     8ac: f0 02        	beq	$8b0 <readDirectory+0x33a>
     8ae: a2 00        	ldx	#$0
     8b0: 98           	tya
     8b1: a4 67        	ldy	$67                     ; 0x2067 <main+0x2d8>
     8b3: e0 00        	cpx	#$0
     8b5: d0 02        	bne	$8b9 <readDirectory+0x343>
     8b7: a9 00        	lda	#$0
     8b9: 99 80 86     	sta	$8680,y                 ; 0x8680 <fpr+0x2f97>
     8bc: a5 64        	lda	$64                     ; 0x2064 <main+0x2d5>
     8be: 18           	clc
     8bf: 69 78        	adc	#$78
     8c1: 85 64        	sta	$64                     ; 0x2064 <main+0x2d5>
     8c3: a5 65        	lda	$65                     ; 0x2065 <main+0x2d6>
     8c5: 69 00        	adc	#$0
     8c7: 85 65        	sta	$65                     ; 0x2065 <main+0x2d6>
     8c9: a6 6c        	ldx	$6c                     ; 0x206c <main+0x2dd>
     8cb: e8           	inx
     8cc: d0 02        	bne	$8d0 <readDirectory+0x35a>
     8ce: e6 66        	inc	$66                     ; 0x2066 <main+0x2d7>
     8d0: 86 6c        	stx	$6c                     ; 0x206c <main+0x2dd>
     8d2: c8           	iny
     8d3: 4c ba 05     	jmp	$5ba <readDirectory+0x44>
     8d6: 09 20        	ora	#$20
     8d8: 4c 88 07     	jmp	$788 <readDirectory+0x212>
     8db: c9 5b        	cmp	#$5b
     8dd: b0 03        	bcs	$8e2 <readDirectory+0x36c>
     8df: 4c 5a 09     	jmp	$95a <readDirectory+0x3e4>
     8e2: 4c 98 07     	jmp	$798 <readDirectory+0x222>
     8e5: 09 20        	ora	#$20
     8e7: 4c bf 07     	jmp	$7bf <readDirectory+0x249>
     8ea: 85 14        	sta	$14                     ; 0x2014 <main+0x285>
     8ec: a6 1f        	ldx	$1f                     ; 0x201f <main+0x290>
     8ee: 4c 8e 07     	jmp	$78e <readDirectory+0x218>
     8f1: a6 6c        	ldx	$6c                     ; 0x206c <main+0x2dd>
     8f3: 8e e3 86     	stx	$86e3                   ; 0x86e3 <fpr+0x2ffa>
     8f6: a6 66        	ldx	$66                     ; 0x2066 <main+0x2d7>
     8f8: 8e e4 86     	stx	$86e4                   ; 0x86e4 <fpr+0x2ffb>
     8fb: a2 9f        	ldx	#$9f
     8fd: 86 12        	stx	$12                     ; 0x2012 <main+0x283>
     8ff: a2 57        	ldx	#$57
     901: 86 13        	stx	$13                     ; 0x2013 <main+0x284>
     903: a2 d1        	ldx	#$d1
     905: 86 14        	stx	$14                     ; 0x2014 <main+0x285>
     907: a2 55        	ldx	#$55
     909: 86 15        	stx	$15                     ; 0x2015 <main+0x286>
     90b: a9 78        	lda	#$78
     90d: a2 00        	ldx	#$0
     90f: 20 5e 4f     	jsr	$4f5e <memcpy>
     912: a2 69        	ldx	#$69
     914: a0 00        	ldy	#$0
     916: 86 12        	stx	$12                     ; 0x2012 <main+0x283>
     918: 84 13        	sty	$13                     ; 0x2013 <main+0x284>
     91a: a2 52        	ldx	#$52
     91c: 86 14        	stx	$14                     ; 0x2014 <main+0x285>
     91e: a2 00        	ldx	#$0
     920: 86 15        	stx	$15                     ; 0x2015 <main+0x286>
     922: a2 68        	ldx	#$68
     924: a0 00        	ldy	#$0
     926: b2 60        	lda	($60)                   ; 0x2060 <main+0x2d1>
     928: f0 18        	beq	$942 <readDirectory+0x3cc>
     92a: 85 f3        	sta	$f3                     ; 0x20f3 <main+0x364>
     92c: 86 16        	stx	$16                     ; 0x2016 <main+0x287>
     92e: 84 17        	sty	$17                     ; 0x2017 <main+0x288>
     930: 20 80 ff     	jsr	$ff80 <__heap_start+0x768c>
     933: 92 16        	sta	($16)                   ; 0x2016 <main+0x287>
     935: a9 00        	lda	#$0
     937: 6a           	ror
     938: 85 14        	sta	$14                     ; 0x2014 <main+0x285>
     93a: a5 52        	lda	$52                     ; 0x2052 <main+0x2c3>
     93c: d0 04        	bne	$942 <readDirectory+0x3cc>
     93e: a9 00        	lda	#$0
     940: 92 60        	sta	($60)                   ; 0x2060 <main+0x2d1>
     942: 64 4b        	stz	$4b                     ; 0x204b <main+0x2bc>
     944: 20 00 ff     	jsr	$ff00 <__heap_start+0x760c>
     947: 92 12        	sta	($12)                   ; 0x2012 <main+0x283>
     949: a9 00        	lda	#$0
     94b: 6a           	ror
     94c: 85 14        	sta	$14                     ; 0x2014 <main+0x285>
     94e: a5 4b        	lda	$4b                     ; 0x204b <main+0x2bc>
     950: c9 46        	cmp	#$46
     952: d0 d2        	bne	$926 <readDirectory+0x3b0>
     954: 60           	rts
     955: 09 20        	ora	#$20
     957: 4c e4 07     	jmp	$7e4 <readDirectory+0x26e>
     95a: 09 20        	ora	#$20
     95c: 4c 98 07     	jmp	$798 <readDirectory+0x222>

0000095f <sortFileList>:
     95f: a6 30        	ldx	$30                     ; 0x2030 <main+0x2a1>
     961: 8e 9f 57     	stx	$579f                   ; 0x579f <fpr+0xb6>
     964: a6 31        	ldx	$31                     ; 0x2031 <main+0x2a2>
     966: 8e a0 57     	stx	$57a0                   ; 0x57a0 <fpr+0xb7>
     969: a6 32        	ldx	$32                     ; 0x2032 <main+0x2a3>
     96b: 8e a1 57     	stx	$57a1                   ; 0x57a1 <fpr+0xb8>
     96e: a2 01        	ldx	#$1
     970: 8e 7f 86     	stx	$867f                   ; 0x867f <fpr+0x2f96>
     973: ae e3 86     	ldx	$86e3                   ; 0x86e3 <fpr+0x2ffa>
     976: ad e4 86     	lda	$86e4                   ; 0x86e4 <fpr+0x2ffb>
     979: 86 64        	stx	$64                     ; 0x2064 <main+0x2d5>
     97b: e0 03        	cpx	#$3
     97d: 85 65        	sta	$65                     ; 0x2065 <main+0x2d6>
     97f: e9 00        	sbc	#$0
     981: 50 02        	bvc	$985 <sortFileList+0x26>
     983: 49 80        	eor	#$80
     985: aa           	tax
     986: 10 03        	bpl	$98b <sortFileList+0x2c>
     988: 4c 77 0c     	jmp	$c77 <sortFileList+0x318>
     98b: a2 7b        	ldx	#$7b
     98d: a0 88        	ldy	#$88
     98f: 86 12        	stx	$12                     ; 0x2012 <main+0x283>
     991: 84 13        	sty	$13                     ; 0x2013 <main+0x284>
     993: e6 12        	inc	$12                     ; 0x2012 <main+0x283>
     995: d0 02        	bne	$999 <sortFileList+0x3a>
     997: e6 13        	inc	$13                     ; 0x2013 <main+0x284>
     999: a6 12        	ldx	$12                     ; 0x2012 <main+0x283>
     99b: 86 6c        	stx	$6c                     ; 0x206c <main+0x2dd>
     99d: a6 13        	ldx	$13                     ; 0x2013 <main+0x284>
     99f: 86 6d        	stx	$6d                     ; 0x206d <main+0x2de>
     9a1: a2 01        	ldx	#$1
     9a3: 64 14        	stz	$14                     ; 0x2014 <main+0x285>
     9a5: 86 15        	stx	$15                     ; 0x2015 <main+0x286>
     9a7: 4c 44 0c     	jmp	$c44 <sortFileList+0x2e5>
     9aa: a4 66        	ldy	$66                     ; 0x2066 <main+0x2d7>
     9ac: c4 23        	cpy	$23                     ; 0x2023 <main+0x294>
     9ae: f0 03        	beq	$9b3 <sortFileList+0x54>
     9b0: 4c 3c 0a     	jmp	$a3c <sortFileList+0xdd>
     9b3: 86 12        	stx	$12                     ; 0x2012 <main+0x283>
     9b5: a5 67        	lda	$67                     ; 0x2067 <main+0x2d8>
     9b7: 38           	sec
     9b8: e5 1b        	sbc	$1b                     ; 0x201b <main+0x28c>
     9ba: 85 23        	sta	$23                     ; 0x2023 <main+0x294>
     9bc: a5 68        	lda	$68                     ; 0x2068 <main+0x2d9>
     9be: e5 1e        	sbc	$1e                     ; 0x201e <main+0x28f>
     9c0: 85 60        	sta	$60                     ; 0x2060 <main+0x2d1>
     9c2: a9 9f        	lda	#$9f
     9c4: 18           	clc
     9c5: 65 23        	adc	$23                     ; 0x2023 <main+0x294>
     9c7: 85 62        	sta	$62                     ; 0x2062 <main+0x2d3>
     9c9: a9 57        	lda	#$57
     9cb: 65 60        	adc	$60                     ; 0x2060 <main+0x2d1>
     9cd: 85 63        	sta	$63                     ; 0x2063 <main+0x2d4>
     9cf: a5 6a        	lda	$6a                     ; 0x206a <main+0x2db>
     9d1: 38           	sec
     9d2: e5 1f        	sbc	$1f                     ; 0x201f <main+0x290>
     9d4: 85 23        	sta	$23                     ; 0x2023 <main+0x294>
     9d6: a5 69        	lda	$69                     ; 0x2069 <main+0x2da>
     9d8: e5 22        	sbc	$22                     ; 0x2022 <main+0x293>
     9da: 85 60        	sta	$60                     ; 0x2060 <main+0x2d1>
     9dc: a9 9f        	lda	#$9f
     9de: 18           	clc
     9df: 65 23        	adc	$23                     ; 0x2023 <main+0x294>
     9e1: aa           	tax
     9e2: a9 57        	lda	#$57
     9e4: 65 60        	adc	$60                     ; 0x2060 <main+0x2d1>
     9e6: 86 60        	stx	$60                     ; 0x2060 <main+0x2d1>
     9e8: 85 61        	sta	$61                     ; 0x2061 <main+0x2d2>
     9ea: b2 62        	lda	($62)                   ; 0x2062 <main+0x2d3>
     9ec: a0 78        	ldy	#$78
     9ee: aa           	tax
     9ef: f0 52        	beq	$a43 <sortFileList+0xe4>
     9f1: 85 6b        	sta	$6b                     ; 0x206b <main+0x2dc>
     9f3: 85 13        	sta	$13                     ; 0x2013 <main+0x284>
     9f5: b2 60        	lda	($60)                   ; 0x2060 <main+0x2d1>
     9f7: f0 50        	beq	$a49 <sortFileList+0xea>
     9f9: 85 23        	sta	$23                     ; 0x2023 <main+0x294>
     9fb: a6 13        	ldx	$13                     ; 0x2013 <main+0x284>
     9fd: e0 41        	cpx	#$41
     9ff: 90 0a        	bcc	$a0b <sortFileList+0xac>
     a01: a5 13        	lda	$13                     ; 0x2013 <main+0x284>
     a03: c9 5b        	cmp	#$5b
     a05: b0 04        	bcs	$a0b <sortFileList+0xac>
     a07: 09 20        	ora	#$20
     a09: 85 13        	sta	$13                     ; 0x2013 <main+0x284>
     a0b: a5 23        	lda	$23                     ; 0x2023 <main+0x294>
     a0d: c9 41        	cmp	#$41
     a0f: 90 06        	bcc	$a17 <sortFileList+0xb8>
     a11: c9 5b        	cmp	#$5b
     a13: b0 02        	bcs	$a17 <sortFileList+0xb8>
     a15: 09 20        	ora	#$20
     a17: 85 62        	sta	$62                     ; 0x2062 <main+0x2d3>
     a19: a6 13        	ldx	$13                     ; 0x2013 <main+0x284>
     a1b: 86 23        	stx	$23                     ; 0x2023 <main+0x294>
     a1d: e4 62        	cpx	$62                     ; 0x2062 <main+0x2d3>
     a1f: d0 42        	bne	$a63 <sortFileList+0x104>
     a21: a5 60        	lda	$60                     ; 0x2060 <main+0x2d1>
     a23: 18           	clc
     a24: 69 89        	adc	#$89
     a26: 85 62        	sta	$62                     ; 0x2062 <main+0x2d3>
     a28: a5 61        	lda	$61                     ; 0x2061 <main+0x2d2>
     a2a: 69 ff        	adc	#$ff
     a2c: 85 63        	sta	$63                     ; 0x2063 <main+0x2d4>
     a2e: e6 60        	inc	$60                     ; 0x2060 <main+0x2d1>
     a30: d0 02        	bne	$a34 <sortFileList+0xd5>
     a32: e6 61        	inc	$61                     ; 0x2061 <main+0x2d2>
     a34: b2 62        	lda	($62)                   ; 0x2062 <main+0x2d3>
     a36: d0 bb        	bne	$9f3 <sortFileList+0x94>
     a38: 64 23        	stz	$23                     ; 0x2023 <main+0x294>
     a3a: 80 1b        	bra	$a57 <sortFileList+0xf8>
     a3c: a4 23        	ldy	$23                     ; 0x2023 <main+0x294>
     a3e: 84 66        	sty	$66                     ; 0x2066 <main+0x2d7>
     a40: 4c 3e 0b     	jmp	$b3e <sortFileList+0x1df>
     a43: 85 6b        	sta	$6b                     ; 0x206b <main+0x2dc>
     a45: 64 23        	stz	$23                     ; 0x2023 <main+0x294>
     a47: 80 0e        	bra	$a57 <sortFileList+0xf8>
     a49: a5 13        	lda	$13                     ; 0x2013 <main+0x284>
     a4b: c9 41        	cmp	#$41
     a4d: 90 06        	bcc	$a55 <sortFileList+0xf6>
     a4f: c9 5b        	cmp	#$5b
     a51: b0 02        	bcs	$a55 <sortFileList+0xf6>
     a53: 09 20        	ora	#$20
     a55: 85 23        	sta	$23                     ; 0x2023 <main+0x294>
     a57: b2 60        	lda	($60)                   ; 0x2060 <main+0x2d1>
     a59: c9 41        	cmp	#$41
     a5b: 90 06        	bcc	$a63 <sortFileList+0x104>
     a5d: c9 5b        	cmp	#$5b
     a5f: b0 02        	bcs	$a63 <sortFileList+0x104>
     a61: 09 20        	ora	#$20
     a63: c5 23        	cmp	$23                     ; 0x2023 <main+0x294>
     a65: a6 12        	ldx	$12                     ; 0x2012 <main+0x283>
     a67: 90 03        	bcc	$a6c <sortFileList+0x10d>
     a69: 4c 3e 0b     	jmp	$b3e <sortFileList+0x1df>
     a6c: 38           	sec
     a6d: a5 67        	lda	$67                     ; 0x2067 <main+0x2d8>
     a6f: e5 1b        	sbc	$1b                     ; 0x201b <main+0x28c>
     a71: 85 1b        	sta	$1b                     ; 0x201b <main+0x28c>
     a73: a5 68        	lda	$68                     ; 0x2068 <main+0x2d9>
     a75: e5 1e        	sbc	$1e                     ; 0x201e <main+0x28f>
     a77: 85 1e        	sta	$1e                     ; 0x201e <main+0x28f>
     a79: a9 9f        	lda	#$9f
     a7b: 18           	clc
     a7c: 65 1b        	adc	$1b                     ; 0x201b <main+0x28c>
     a7e: 85 60        	sta	$60                     ; 0x2060 <main+0x2d1>
     a80: a9 57        	lda	#$57
     a82: 65 1e        	adc	$1e                     ; 0x201e <main+0x28f>
     a84: 85 61        	sta	$61                     ; 0x2061 <main+0x2d2>
     a86: a5 6b        	lda	$6b                     ; 0x206b <main+0x2dc>
     a88: f0 28        	beq	$ab2 <sortFileList+0x153>
     a8a: a5 16        	lda	$16                     ; 0x2016 <main+0x287>
     a8c: 85 62        	sta	$62                     ; 0x2062 <main+0x2d3>
     a8e: a5 17        	lda	$17                     ; 0x2017 <main+0x288>
     a90: 85 63        	sta	$63                     ; 0x2063 <main+0x2d4>
     a92: a5 6c        	lda	$6c                     ; 0x206c <main+0x2dd>
     a94: 85 64        	sta	$64                     ; 0x2064 <main+0x2d5>
     a96: a5 6d        	lda	$6d                     ; 0x206d <main+0x2de>
     a98: 85 65        	sta	$65                     ; 0x2065 <main+0x2d6>
     a9a: b2 62        	lda	($62)                   ; 0x2062 <main+0x2d3>
     a9c: 85 12        	sta	$12                     ; 0x2012 <main+0x283>
     a9e: b2 62        	lda	($62)                   ; 0x2062 <main+0x2d3>
     aa0: 92 64        	sta	($64)                   ; 0x2064 <main+0x2d5>
     aa2: e6 64        	inc	$64                     ; 0x2064 <main+0x2d5>
     aa4: d0 02        	bne	$aa8 <sortFileList+0x149>
     aa6: e6 65        	inc	$65                     ; 0x2065 <main+0x2d6>
     aa8: e6 62        	inc	$62                     ; 0x2062 <main+0x2d3>
     aaa: d0 02        	bne	$aae <sortFileList+0x14f>
     aac: e6 63        	inc	$63                     ; 0x2063 <main+0x2d4>
     aae: a5 12        	lda	$12                     ; 0x2012 <main+0x283>
     ab0: d0 e8        	bne	$a9a <sortFileList+0x13b>
     ab2: 38           	sec
     ab3: a5 6a        	lda	$6a                     ; 0x206a <main+0x2db>
     ab5: e5 1f        	sbc	$1f                     ; 0x201f <main+0x290>
     ab7: 85 1b        	sta	$1b                     ; 0x201b <main+0x28c>
     ab9: a5 69        	lda	$69                     ; 0x2069 <main+0x2da>
     abb: e5 22        	sbc	$22                     ; 0x2022 <main+0x293>
     abd: 85 1e        	sta	$1e                     ; 0x201e <main+0x28f>
     abf: a9 9f        	lda	#$9f
     ac1: 18           	clc
     ac2: 65 1b        	adc	$1b                     ; 0x201b <main+0x28c>
     ac4: 85 12        	sta	$12                     ; 0x2012 <main+0x283>
     ac6: a9 57        	lda	#$57
     ac8: 65 1e        	adc	$1e                     ; 0x201e <main+0x28f>
     aca: 5a           	phy
     acb: a4 12        	ldy	$12                     ; 0x2012 <main+0x283>
     acd: 84 1e        	sty	$1e                     ; 0x201e <main+0x28f>
     acf: 7a           	ply
     ad0: 85 1f        	sta	$1f                     ; 0x201f <main+0x290>
     ad2: b2 1e        	lda	($1e)                   ; 0x201e <main+0x28f>
     ad4: 85 12        	sta	$12                     ; 0x2012 <main+0x283>
     ad6: b2 1e        	lda	($1e)                   ; 0x201e <main+0x28f>
     ad8: 92 60        	sta	($60)                   ; 0x2060 <main+0x2d1>
     ada: a5 12        	lda	$12                     ; 0x2012 <main+0x283>
     adc: f0 1a        	beq	$af8 <sortFileList+0x199>
     ade: a5 16        	lda	$16                     ; 0x2016 <main+0x287>
     ae0: 85 22        	sta	$22                     ; 0x2022 <main+0x293>
     ae2: a5 17        	lda	$17                     ; 0x2017 <main+0x288>
     ae4: 85 23        	sta	$23                     ; 0x2023 <main+0x294>
     ae6: b1 22        	lda	($22),y                 ; 0x2022 <main+0x293>
     ae8: 85 12        	sta	$12                     ; 0x2012 <main+0x283>
     aea: b1 22        	lda	($22),y                 ; 0x2022 <main+0x293>
     aec: 92 22        	sta	($22)                   ; 0x2022 <main+0x293>
     aee: e6 22        	inc	$22                     ; 0x2022 <main+0x293>
     af0: d0 02        	bne	$af4 <sortFileList+0x195>
     af2: e6 23        	inc	$23                     ; 0x2023 <main+0x294>
     af4: a5 12        	lda	$12                     ; 0x2012 <main+0x283>
     af6: d0 ee        	bne	$ae6 <sortFileList+0x187>
     af8: a5 6b        	lda	$6b                     ; 0x206b <main+0x2dc>
     afa: 92 1e        	sta	($1e)                   ; 0x201e <main+0x28f>
     afc: f0 26        	beq	$b24 <sortFileList+0x1c5>
     afe: a4 6c        	ldy	$6c                     ; 0x206c <main+0x2dd>
     b00: 84 1e        	sty	$1e                     ; 0x201e <main+0x28f>
     b02: a4 6d        	ldy	$6d                     ; 0x206d <main+0x2de>
     b04: 84 1f        	sty	$1f                     ; 0x201f <main+0x290>
     b06: a4 18        	ldy	$18                     ; 0x2018 <main+0x289>
     b08: 84 22        	sty	$22                     ; 0x2022 <main+0x293>
     b0a: a4 19        	ldy	$19                     ; 0x2019 <main+0x28a>
     b0c: 84 23        	sty	$23                     ; 0x2023 <main+0x294>
     b0e: b2 1e        	lda	($1e)                   ; 0x201e <main+0x28f>
     b10: a8           	tay
     b11: b2 1e        	lda	($1e)                   ; 0x201e <main+0x28f>
     b13: 92 22        	sta	($22)                   ; 0x2022 <main+0x293>
     b15: e6 22        	inc	$22                     ; 0x2022 <main+0x293>
     b17: d0 02        	bne	$b1b <sortFileList+0x1bc>
     b19: e6 23        	inc	$23                     ; 0x2023 <main+0x294>
     b1b: e6 1e        	inc	$1e                     ; 0x201e <main+0x28f>
     b1d: d0 02        	bne	$b21 <sortFileList+0x1c2>
     b1f: e6 1f        	inc	$1f                     ; 0x201f <main+0x290>
     b21: 98           	tya
     b22: d0 ea        	bne	$b0e <sortFileList+0x1af>
     b24: b2 1c        	lda	($1c)                   ; 0x201c <main+0x28d>
     b26: 85 12        	sta	$12                     ; 0x2012 <main+0x283>
     b28: a0 01        	ldy	#$1
     b2a: b1 1c        	lda	($1c),y                 ; 0x201c <main+0x28d>
     b2c: 92 1c        	sta	($1c)                   ; 0x201c <main+0x28d>
     b2e: a5 12        	lda	$12                     ; 0x2012 <main+0x283>
     b30: 85 66        	sta	$66                     ; 0x2066 <main+0x2d7>
     b32: 91 1c        	sta	($1c),y                 ; 0x201c <main+0x28d>
     b34: ac e3 86     	ldy	$86e3                   ; 0x86e3 <fpr+0x2ffa>
     b37: 84 64        	sty	$64                     ; 0x2064 <main+0x2d5>
     b39: ac e4 86     	ldy	$86e4                   ; 0x86e4 <fpr+0x2ffb>
     b3c: 84 65        	sty	$65                     ; 0x2065 <main+0x2d6>
     b3e: a5 64        	lda	$64                     ; 0x2064 <main+0x2d5>
     b40: 38           	sec
     b41: e5 15        	sbc	$15                     ; 0x2015 <main+0x286>
     b43: 85 1b        	sta	$1b                     ; 0x201b <main+0x28c>
     b45: a5 65        	lda	$65                     ; 0x2065 <main+0x2d6>
     b47: e5 14        	sbc	$14                     ; 0x2014 <main+0x285>
     b49: 85 1c        	sta	$1c                     ; 0x201c <main+0x28d>
     b4b: a5 16        	lda	$16                     ; 0x2016 <main+0x287>
     b4d: 18           	clc
     b4e: 69 78        	adc	#$78
     b50: 85 16        	sta	$16                     ; 0x2016 <main+0x287>
     b52: a5 17        	lda	$17                     ; 0x2017 <main+0x288>
     b54: 69 00        	adc	#$0
     b56: 85 17        	sta	$17                     ; 0x2017 <main+0x288>
     b58: a5 18        	lda	$18                     ; 0x2018 <main+0x289>
     b5a: 18           	clc
     b5b: 69 78        	adc	#$78
     b5d: 85 18        	sta	$18                     ; 0x2018 <main+0x289>
     b5f: a5 19        	lda	$19                     ; 0x2019 <main+0x28a>
     b61: 69 00        	adc	#$0
     b63: 85 19        	sta	$19                     ; 0x2019 <main+0x28a>
     b65: e4 1b        	cpx	$1b                     ; 0x201b <main+0x28c>
     b67: a5 1a        	lda	$1a                     ; 0x201a <main+0x28b>
     b69: e5 1c        	sbc	$1c                     ; 0x201c <main+0x28d>
     b6b: 50 02        	bvc	$b6f <sortFileList+0x210>
     b6d: 49 80        	eor	#$80
     b6f: 86 1e        	stx	$1e                     ; 0x201e <main+0x28f>
     b71: a4 1a        	ldy	$1a                     ; 0x201a <main+0x28b>
     b73: 84 1b        	sty	$1b                     ; 0x201b <main+0x28c>
     b75: a8           	tay
     b76: 30 03        	bmi	$b7b <sortFileList+0x21c>
     b78: 4c 1c 0c     	jmp	$c1c <sortFileList+0x2bd>
     b7b: a9 7f        	lda	#$7f
     b7d: 18           	clc
     b7e: 65 1e        	adc	$1e                     ; 0x201e <main+0x28f>
     b80: 85 1c        	sta	$1c                     ; 0x201c <main+0x28d>
     b82: a9 86        	lda	#$86
     b84: 65 1b        	adc	$1b                     ; 0x201b <main+0x28c>
     b86: 85 1d        	sta	$1d                     ; 0x201d <main+0x28e>
     b88: a4 1b        	ldy	$1b                     ; 0x201b <main+0x28c>
     b8a: 84 1a        	sty	$1a                     ; 0x201a <main+0x28b>
     b8c: e8           	inx
     b8d: d0 02        	bne	$b91 <sortFileList+0x232>
     b8f: e6 1a        	inc	$1a                     ; 0x201a <main+0x28b>
     b91: a5 1e        	lda	$1e                     ; 0x201e <main+0x28f>
     b93: 0a           	asl
     b94: a4 1b        	ldy	$1b                     ; 0x201b <main+0x28c>
     b96: 84 1e        	sty	$1e                     ; 0x201e <main+0x28f>
     b98: 26 1e        	rol	$1e                     ; 0x201e <main+0x28f>
     b9a: 0a           	asl
     b9b: 26 1e        	rol	$1e                     ; 0x201e <main+0x28f>
     b9d: 0a           	asl
     b9e: 85 1b        	sta	$1b                     ; 0x201b <main+0x28c>
     ba0: 26 1e        	rol	$1e                     ; 0x201e <main+0x28f>
     ba2: 0a           	asl
     ba3: a4 1e        	ldy	$1e                     ; 0x201e <main+0x28f>
     ba5: 84 1f        	sty	$1f                     ; 0x201f <main+0x290>
     ba7: 26 1f        	rol	$1f                     ; 0x201f <main+0x290>
     ba9: 0a           	asl
     baa: 26 1f        	rol	$1f                     ; 0x201f <main+0x290>
     bac: 0a           	asl
     bad: 26 1f        	rol	$1f                     ; 0x201f <main+0x290>
     baf: 0a           	asl
     bb0: 85 67        	sta	$67                     ; 0x2067 <main+0x2d8>
     bb2: 26 1f        	rol	$1f                     ; 0x201f <main+0x290>
     bb4: a4 1f        	ldy	$1f                     ; 0x201f <main+0x290>
     bb6: 84 68        	sty	$68                     ; 0x2068 <main+0x2d9>
     bb8: 8a           	txa
     bb9: 0a           	asl
     bba: a4 1a        	ldy	$1a                     ; 0x201a <main+0x28b>
     bbc: 84 22        	sty	$22                     ; 0x2022 <main+0x293>
     bbe: 26 22        	rol	$22                     ; 0x2022 <main+0x293>
     bc0: 0a           	asl
     bc1: 26 22        	rol	$22                     ; 0x2022 <main+0x293>
     bc3: 0a           	asl
     bc4: 85 1f        	sta	$1f                     ; 0x201f <main+0x290>
     bc6: 26 22        	rol	$22                     ; 0x2022 <main+0x293>
     bc8: 85 23        	sta	$23                     ; 0x2023 <main+0x294>
     bca: 06 23        	asl	$23                     ; 0x2023 <main+0x294>
     bcc: a5 22        	lda	$22                     ; 0x2022 <main+0x293>
     bce: 2a           	rol
     bcf: 06 23        	asl	$23                     ; 0x2023 <main+0x294>
     bd1: 2a           	rol
     bd2: 06 23        	asl	$23                     ; 0x2023 <main+0x294>
     bd4: 2a           	rol
     bd5: 06 23        	asl	$23                     ; 0x2023 <main+0x294>
     bd7: a4 23        	ldy	$23                     ; 0x2023 <main+0x294>
     bd9: 84 6a        	sty	$6a                     ; 0x206a <main+0x2db>
     bdb: 2a           	rol
     bdc: 85 69        	sta	$69                     ; 0x2069 <main+0x2da>
     bde: a5 66        	lda	$66                     ; 0x2066 <main+0x2d7>
     be0: 29 01        	and	#$1
     be2: 85 13        	sta	$13                     ; 0x2013 <main+0x284>
     be4: a0 01        	ldy	#$1
     be6: b1 1c        	lda	($1c),y                 ; 0x201c <main+0x28d>
     be8: 85 23        	sta	$23                     ; 0x2023 <main+0x294>
     bea: a4 13        	ldy	$13                     ; 0x2013 <main+0x284>
     bec: f0 03        	beq	$bf1 <sortFileList+0x292>
     bee: 4c aa 09     	jmp	$9aa <sortFileList+0x4b>
     bf1: 29 01        	and	#$1
     bf3: d0 03        	bne	$bf8 <sortFileList+0x299>
     bf5: 4c aa 09     	jmp	$9aa <sortFileList+0x4b>
     bf8: a5 67        	lda	$67                     ; 0x2067 <main+0x2d8>
     bfa: 38           	sec
     bfb: e5 1b        	sbc	$1b                     ; 0x201b <main+0x28c>
     bfd: 85 23        	sta	$23                     ; 0x2023 <main+0x294>
     bff: a5 68        	lda	$68                     ; 0x2068 <main+0x2d9>
     c01: e5 1e        	sbc	$1e                     ; 0x201e <main+0x28f>
     c03: 85 60        	sta	$60                     ; 0x2060 <main+0x2d1>
     c05: a9 9f        	lda	#$9f
     c07: 18           	clc
     c08: 65 23        	adc	$23                     ; 0x2023 <main+0x294>
     c0a: a8           	tay
     c0b: a9 57        	lda	#$57
     c0d: 65 60        	adc	$60                     ; 0x2060 <main+0x2d1>
     c0f: 84 60        	sty	$60                     ; 0x2060 <main+0x2d1>
     c11: 85 61        	sta	$61                     ; 0x2061 <main+0x2d2>
     c13: b2 60        	lda	($60)                   ; 0x2060 <main+0x2d1>
     c15: 85 6b        	sta	$6b                     ; 0x206b <main+0x2dc>
     c17: a0 78        	ldy	#$78
     c19: 4c 6c 0a     	jmp	$a6c <sortFileList+0x10d>
     c1c: a6 15        	ldx	$15                     ; 0x2015 <main+0x286>
     c1e: e8           	inx
     c1f: d0 02        	bne	$c23 <sortFileList+0x2c4>
     c21: e6 14        	inc	$14                     ; 0x2014 <main+0x285>
     c23: a4 64        	ldy	$64                     ; 0x2064 <main+0x2d5>
     c25: 84 16        	sty	$16                     ; 0x2016 <main+0x287>
     c27: a4 65        	ldy	$65                     ; 0x2065 <main+0x2d6>
     c29: 84 15        	sty	$15                     ; 0x2015 <main+0x286>
     c2b: a9 ff        	lda	#$ff
     c2d: c6 16        	dec	$16                     ; 0x2016 <main+0x287>
     c2f: c5 16        	cmp	$16                     ; 0x2016 <main+0x287>
     c31: d0 02        	bne	$c35 <sortFileList+0x2d6>
     c33: c6 15        	dec	$15                     ; 0x2015 <main+0x286>
     c35: e4 16        	cpx	$16                     ; 0x2016 <main+0x287>
     c37: a5 14        	lda	$14                     ; 0x2014 <main+0x285>
     c39: e5 15        	sbc	$15                     ; 0x2015 <main+0x286>
     c3b: 50 02        	bvc	$c3f <sortFileList+0x2e0>
     c3d: 49 80        	eor	#$80
     c3f: 86 15        	stx	$15                     ; 0x2015 <main+0x286>
     c41: aa           	tax
     c42: 10 33        	bpl	$c77 <sortFileList+0x318>
     c44: a5 64        	lda	$64                     ; 0x2064 <main+0x2d5>
     c46: 38           	sec
     c47: e5 15        	sbc	$15                     ; 0x2015 <main+0x286>
     c49: aa           	tax
     c4a: a5 65        	lda	$65                     ; 0x2065 <main+0x2d6>
     c4c: e5 14        	sbc	$14                     ; 0x2014 <main+0x285>
     c4e: e0 02        	cpx	#$2
     c50: e9 00        	sbc	#$0
     c52: 50 02        	bvc	$c56 <sortFileList+0x2f7>
     c54: 49 80        	eor	#$80
     c56: aa           	tax
     c57: 30 c3        	bmi	$c1c <sortFileList+0x2bd>
     c59: ae 80 86     	ldx	$8680                   ; 0x8680 <fpr+0x2f97>
     c5c: 86 66        	stx	$66                     ; 0x2066 <main+0x2d7>
     c5e: a2 18        	ldx	#$18
     c60: 86 16        	stx	$16                     ; 0x2016 <main+0x287>
     c62: a2 58        	ldx	#$58
     c64: 86 17        	stx	$17                     ; 0x2017 <main+0x288>
     c66: a2 90        	ldx	#$90
     c68: 86 18        	stx	$18                     ; 0x2018 <main+0x289>
     c6a: a2 58        	ldx	#$58
     c6c: 86 19        	stx	$19                     ; 0x2019 <main+0x28a>
     c6e: a2 01        	ldx	#$1
     c70: 64 1b        	stz	$1b                     ; 0x201b <main+0x28c>
     c72: 86 1e        	stx	$1e                     ; 0x201e <main+0x28f>
     c74: 4c 7b 0b     	jmp	$b7b <sortFileList+0x21c>
     c77: 60           	rts

00000c78 <displayFileList>:
     c78: 48           	pha
     c79: 18           	clc
     c7a: a5 10        	lda	$10                     ; 0x2010 <main+0x281>
     c7c: 69 fa        	adc	#$fa
     c7e: 85 10        	sta	$10                     ; 0x2010 <main+0x281>
     c80: a5 11        	lda	$11                     ; 0x2011 <main+0x282>
     c82: 69 ff        	adc	#$ff
     c84: 85 11        	sta	$11                     ; 0x2011 <main+0x282>
     c86: 68           	pla
     c87: 85 64        	sta	$64                     ; 0x2064 <main+0x2d5>
     c89: 86 66        	stx	$66                     ; 0x2066 <main+0x2d7>
     c8b: a4 12        	ldy	$12                     ; 0x2012 <main+0x283>
     c8d: 84 60        	sty	$60                     ; 0x2060 <main+0x2d1>
     c8f: a4 13        	ldy	$13                     ; 0x2013 <main+0x284>
     c91: 84 61        	sty	$61                     ; 0x2061 <main+0x2d2>
     c93: 18           	clc
     c94: 69 10        	adc	#$10
     c96: 85 13        	sta	$13                     ; 0x2013 <main+0x284>
     c98: 8a           	txa
     c99: 69 00        	adc	#$0
     c9b: 85 15        	sta	$15                     ; 0x2015 <main+0x286>
     c9d: a5 60        	lda	$60                     ; 0x2060 <main+0x2d1>
     c9f: 18           	clc
     ca0: 69 fa        	adc	#$fa
     ca2: 85 62        	sta	$62                     ; 0x2062 <main+0x2d3>
     ca4: a5 61        	lda	$61                     ; 0x2061 <main+0x2d2>
     ca6: 69 2f        	adc	#$2f
     ca8: a4 66        	ldy	$66                     ; 0x2066 <main+0x2d7>
     caa: a6 64        	ldx	$64                     ; 0x2064 <main+0x2d5>
     cac: 86 72        	stx	$72                     ; 0x2072 <main+0x2e3>
     cae: e6 64        	inc	$64                     ; 0x2064 <main+0x2d5>
     cb0: d0 01        	bne	$cb3 <displayFileList+0x3b>
     cb2: c8           	iny
     cb3: 84 67        	sty	$67                     ; 0x2067 <main+0x2d8>
     cb5: 85 63        	sta	$63                     ; 0x2063 <main+0x2d4>
     cb7: a0 01        	ldy	#$1
     cb9: b1 62        	lda	($62),y                 ; 0x2062 <main+0x2d3>
     cbb: 85 12        	sta	$12                     ; 0x2012 <main+0x283>
     cbd: a5 13        	lda	$13                     ; 0x2013 <main+0x284>
     cbf: a4 13        	ldy	$13                     ; 0x2013 <main+0x284>
     cc1: 84 6c        	sty	$6c                     ; 0x206c <main+0x2dd>
     cc3: d2 62        	cmp	($62)                   ; 0x2062 <main+0x2d3>
     cc5: a5 15        	lda	$15                     ; 0x2015 <main+0x286>
     cc7: a4 15        	ldy	$15                     ; 0x2015 <main+0x286>
     cc9: 84 6d        	sty	$6d                     ; 0x206d <main+0x2de>
     ccb: e5 12        	sbc	$12                     ; 0x2012 <main+0x283>
     ccd: 50 02        	bvc	$cd1 <displayFileList+0x59>
     ccf: 49 80        	eor	#$80
     cd1: aa           	tax
     cd2: 30 08        	bmi	$cdc <displayFileList+0x64>
     cd4: b2 62        	lda	($62)                   ; 0x2062 <main+0x2d3>
     cd6: 85 6c        	sta	$6c                     ; 0x206c <main+0x2dd>
     cd8: a6 12        	ldx	$12                     ; 0x2012 <main+0x283>
     cda: 86 6d        	stx	$6d                     ; 0x206d <main+0x2de>
     cdc: b2 60        	lda	($60)                   ; 0x2060 <main+0x2d1>
     cde: 85 12        	sta	$12                     ; 0x2012 <main+0x283>
     ce0: a0 01        	ldy	#$1
     ce2: b1 60        	lda	($60),y                 ; 0x2060 <main+0x2d1>
     ce4: a4 12        	ldy	$12                     ; 0x2012 <main+0x283>
     ce6: 84 53        	sty	$53                     ; 0x2053 <main+0x2c4>
     ce8: 8c 14 d0     	sty	$d014                   ; 0xd014 <__heap_start+0x4720>
     ceb: 9c 15 d0     	stz	$d015                   ; 0xd015 <__heap_start+0x4721>
     cee: 85 54        	sta	$54                     ; 0x2054 <main+0x2c5>
     cf0: 8d 16 d0     	sta	$d016                   ; 0xd016 <__heap_start+0x4722>
     cf3: 9c 17 d0     	stz	$d017                   ; 0xd017 <__heap_start+0x4723>
     cf6: a2 00        	ldx	#$0
     cf8: 86 65        	stx	$65                     ; 0x2065 <main+0x2d6>
     cfa: a0 01        	ldy	#$1
     cfc: b1 60        	lda	($60),y                 ; 0x2060 <main+0x2d1>
     cfe: c9 50        	cmp	#$50
     d00: a2 00        	ldx	#$0
     d02: b0 13        	bcs	$d17 <displayFileList+0x9f>
     d04: 18           	clc
     d05: 69 b0        	adc	#$b0
     d07: a2 00        	ldx	#$0
     d09: 85 68        	sta	$68                     ; 0x2068 <main+0x2d9>
     d0b: a9 20        	lda	#$20
     d0d: 20 12 4a     	jsr	$4a12 <putchar>
     d10: a5 68        	lda	$68                     ; 0x2068 <main+0x2d9>
     d12: a2 00        	ldx	#$0
     d14: 1a           	inc
     d15: d0 f0        	bne	$d07 <displayFileList+0x8f>
     d17: a9 0a        	lda	#$a
     d19: 20 12 4a     	jsr	$4a12 <putchar>
     d1c: a6 65        	ldx	$65                     ; 0x2065 <main+0x2d6>
     d1e: e8           	inx
     d1f: e0 11        	cpx	#$11
     d21: d0 d5        	bne	$cf8 <displayFileList+0x80>
     d23: b2 60        	lda	($60)                   ; 0x2060 <main+0x2d1>
     d25: 85 12        	sta	$12                     ; 0x2012 <main+0x283>
     d27: a0 01        	ldy	#$1
     d29: b1 60        	lda	($60),y                 ; 0x2060 <main+0x2d1>
     d2b: aa           	tax
     d2c: a5 12        	lda	$12                     ; 0x2012 <main+0x283>
     d2e: 85 53        	sta	$53                     ; 0x2053 <main+0x2c4>
     d30: 8d 14 d0     	sta	$d014                   ; 0xd014 <__heap_start+0x4720>
     d33: 9c 15 d0     	stz	$d015                   ; 0xd015 <__heap_start+0x4721>
     d36: 86 54        	stx	$54                     ; 0x2054 <main+0x2c5>
     d38: 8e 16 d0     	stx	$d016                   ; 0xd016 <__heap_start+0x4722>
     d3b: a5 60        	lda	$60                     ; 0x2060 <main+0x2d1>
     d3d: 18           	clc
     d3e: 69 fe        	adc	#$fe
     d40: 85 14        	sta	$14                     ; 0x2014 <main+0x285>
     d42: a5 61        	lda	$61                     ; 0x2061 <main+0x2d2>
     d44: 69 2f        	adc	#$2f
     d46: 64 16        	stz	$16                     ; 0x2016 <main+0x287>
     d48: 9c 17 d0     	stz	$d017                   ; 0xd017 <__heap_start+0x4723>
     d4b: 85 15        	sta	$15                     ; 0x2015 <main+0x286>
     d4d: b2 14        	lda	($14)                   ; 0x2014 <main+0x285>
     d4f: 85 17        	sta	$17                     ; 0x2017 <main+0x288>
     d51: a6 14        	ldx	$14                     ; 0x2014 <main+0x285>
     d53: 86 12        	stx	$12                     ; 0x2012 <main+0x283>
     d55: a6 15        	ldx	$15                     ; 0x2015 <main+0x286>
     d57: 86 13        	stx	$13                     ; 0x2013 <main+0x284>
     d59: a6 12        	ldx	$12                     ; 0x2012 <main+0x283>
     d5b: 86 70        	stx	$70                     ; 0x2070 <main+0x2e1>
     d5d: a6 13        	ldx	$13                     ; 0x2013 <main+0x284>
     d5f: 86 71        	stx	$71                     ; 0x2071 <main+0x2e2>
     d61: b1 14        	lda	($14),y                 ; 0x2014 <main+0x285>
     d63: d0 07        	bne	$d6c <displayFileList+0xf4>
     d65: a5 17        	lda	$17                     ; 0x2017 <main+0x288>
     d67: d0 03        	bne	$d6c <displayFileList+0xf4>
     d69: 4c 00 10     	jmp	$1000 <displayFileList+0x388>
     d6c: a0 20        	ldy	#$20
     d6e: a5 60        	lda	$60                     ; 0x2060 <main+0x2d1>
     d70: 18           	clc
     d71: 69 b6        	adc	#$b6
     d73: 85 14        	sta	$14                     ; 0x2014 <main+0x285>
     d75: a5 61        	lda	$61                     ; 0x2061 <main+0x2d2>
     d77: 69 00        	adc	#$0
     d79: 85 17        	sta	$17                     ; 0x2017 <main+0x288>
     d7b: 18           	clc
     d7c: a5 60        	lda	$60                     ; 0x2060 <main+0x2d1>
     d7e: 69 96        	adc	#$96
     d80: aa           	tax
     d81: a5 61        	lda	$61                     ; 0x2061 <main+0x2d2>
     d83: 69 2f        	adc	#$2f
     d85: 86 12        	stx	$12                     ; 0x2012 <main+0x283>
     d87: 85 13        	sta	$13                     ; 0x2013 <main+0x284>
     d89: b2 12        	lda	($12)                   ; 0x2012 <main+0x283>
     d8b: 29 01        	and	#$1
     d8d: a2 b5        	ldx	#$b5
     d8f: 86 12        	stx	$12                     ; 0x2012 <main+0x283>
     d91: a2 54        	ldx	#$54
     d93: 86 13        	stx	$13                     ; 0x2013 <main+0x284>
     d95: aa           	tax
     d96: d0 08        	bne	$da0 <displayFileList+0x128>
     d98: a2 5a        	ldx	#$5a
     d9a: 86 12        	stx	$12                     ; 0x2012 <main+0x283>
     d9c: a2 54        	ldx	#$54
     d9e: 86 13        	stx	$13                     ; 0x2013 <main+0x284>
     da0: a6 10        	ldx	$10                     ; 0x2010 <main+0x281>
     da2: 98           	tya
     da3: 92 10        	sta	($10)                   ; 0x2010 <main+0x281>
     da5: a0 01        	ldy	#$1
     da7: a9 00        	lda	#$0
     da9: 91 10        	sta	($10),y                 ; 0x2010 <main+0x281>
     dab: c8           	iny
     dac: a5 14        	lda	$14                     ; 0x2014 <main+0x285>
     dae: 91 10        	sta	($10),y                 ; 0x2010 <main+0x281>
     db0: 8a           	txa
     db1: 18           	clc
     db2: 69 02        	adc	#$2
     db4: 85 14        	sta	$14                     ; 0x2014 <main+0x285>
     db6: a5 11        	lda	$11                     ; 0x2011 <main+0x282>
     db8: 69 00        	adc	#$0
     dba: 18           	clc
     dbb: 85 15        	sta	$15                     ; 0x2015 <main+0x286>
     dbd: a5 17        	lda	$17                     ; 0x2017 <main+0x288>
     dbf: 88           	dey
     dc0: 91 14        	sta	($14),y                 ; 0x2014 <main+0x285>
     dc2: 8a           	txa
     dc3: 69 04        	adc	#$4
     dc5: 85 14        	sta	$14                     ; 0x2014 <main+0x285>
     dc7: a5 11        	lda	$11                     ; 0x2011 <main+0x282>
     dc9: 69 00        	adc	#$0
     dcb: 85 15        	sta	$15                     ; 0x2015 <main+0x286>
     dcd: a5 12        	lda	$12                     ; 0x2012 <main+0x283>
     dcf: a0 04        	ldy	#$4
     dd1: 91 10        	sta	($10),y                 ; 0x2010 <main+0x281>
     dd3: a0 01        	ldy	#$1
     dd5: a5 13        	lda	$13                     ; 0x2013 <main+0x284>
     dd7: 91 14        	sta	($14),y                 ; 0x2014 <main+0x285>
     dd9: a2 4c        	ldx	#$4c
     ddb: 86 12        	stx	$12                     ; 0x2012 <main+0x283>
     ddd: a2 55        	ldx	#$55
     ddf: 86 13        	stx	$13                     ; 0x2013 <main+0x284>
     de1: 20 b6 48     	jsr	$48b6 <printf>
     de4: a6 6c        	ldx	$6c                     ; 0x206c <main+0x2dd>
     de6: 86 12        	stx	$12                     ; 0x2012 <main+0x283>
     de8: a6 64        	ldx	$64                     ; 0x2064 <main+0x2d5>
     dea: e4 12        	cpx	$12                     ; 0x2012 <main+0x283>
     dec: a6 6d        	ldx	$6d                     ; 0x206d <main+0x2de>
     dee: 86 12        	stx	$12                     ; 0x2012 <main+0x283>
     df0: a5 67        	lda	$67                     ; 0x2067 <main+0x2d8>
     df2: e5 12        	sbc	$12                     ; 0x2012 <main+0x283>
     df4: 50 02        	bvc	$df8 <displayFileList+0x180>
     df6: 49 80        	eor	#$80
     df8: a6 62        	ldx	$62                     ; 0x2062 <main+0x2d3>
     dfa: 86 12        	stx	$12                     ; 0x2012 <main+0x283>
     dfc: a6 63        	ldx	$63                     ; 0x2063 <main+0x2d4>
     dfe: 86 13        	stx	$13                     ; 0x2013 <main+0x284>
     e00: a6 12        	ldx	$12                     ; 0x2012 <main+0x283>
     e02: 86 6e        	stx	$6e                     ; 0x206e <main+0x2df>
     e04: a6 13        	ldx	$13                     ; 0x2013 <main+0x284>
     e06: 86 6f        	stx	$6f                     ; 0x206f <main+0x2e0>
     e08: aa           	tax
     e09: 30 03        	bmi	$e0e <displayFileList+0x196>
     e0b: 4c 3f 0f     	jmp	$f3f <displayFileList+0x2c7>
     e0e: a6 67        	ldx	$67                     ; 0x2067 <main+0x2d8>
     e10: 86 15        	stx	$15                     ; 0x2015 <main+0x286>
     e12: 18           	clc
     e13: a5 60        	lda	$60                     ; 0x2060 <main+0x2d1>
     e15: 69 fc        	adc	#$fc
     e17: 85 68        	sta	$68                     ; 0x2068 <main+0x2d9>
     e19: a5 61        	lda	$61                     ; 0x2061 <main+0x2d2>
     e1b: 69 2f        	adc	#$2f
     e1d: 85 69        	sta	$69                     ; 0x2069 <main+0x2da>
     e1f: a6 72        	ldx	$72                     ; 0x2072 <main+0x2e3>
     e21: 86 12        	stx	$12                     ; 0x2012 <main+0x283>
     e23: a5 60        	lda	$60                     ; 0x2060 <main+0x2d1>
     e25: 18           	clc
     e26: 65 12        	adc	$12                     ; 0x2012 <main+0x283>
     e28: a8           	tay
     e29: a5 61        	lda	$61                     ; 0x2061 <main+0x2d2>
     e2b: 65 66        	adc	$66                     ; 0x2066 <main+0x2d7>
     e2d: 85 13        	sta	$13                     ; 0x2013 <main+0x284>
     e2f: 18           	clc
     e30: 98           	tya
     e31: 69 97        	adc	#$97
     e33: 85 12        	sta	$12                     ; 0x2012 <main+0x283>
     e35: a5 13        	lda	$13                     ; 0x2013 <main+0x284>
     e37: 69 2f        	adc	#$2f
     e39: 85 13        	sta	$13                     ; 0x2013 <main+0x284>
     e3b: 8a           	txa
     e3c: 0a           	asl
     e3d: a6 66        	ldx	$66                     ; 0x2066 <main+0x2d7>
     e3f: 86 14        	stx	$14                     ; 0x2014 <main+0x285>
     e41: a6 12        	ldx	$12                     ; 0x2012 <main+0x283>
     e43: 86 66        	stx	$66                     ; 0x2066 <main+0x2d7>
     e45: a6 13        	ldx	$13                     ; 0x2013 <main+0x284>
     e47: 86 67        	stx	$67                     ; 0x2067 <main+0x2d8>
     e49: 26 14        	rol	$14                     ; 0x2014 <main+0x285>
     e4b: 0a           	asl
     e4c: 26 14        	rol	$14                     ; 0x2014 <main+0x285>
     e4e: 0a           	asl
     e4f: 85 12        	sta	$12                     ; 0x2012 <main+0x283>
     e51: 26 14        	rol	$14                     ; 0x2014 <main+0x285>
     e53: 0a           	asl
     e54: aa           	tax
     e55: a5 14        	lda	$14                     ; 0x2014 <main+0x285>
     e57: 2a           	rol
     e58: 86 13        	stx	$13                     ; 0x2013 <main+0x284>
     e5a: 06 13        	asl	$13                     ; 0x2013 <main+0x284>
     e5c: 2a           	rol
     e5d: 06 13        	asl	$13                     ; 0x2013 <main+0x284>
     e5f: 2a           	rol
     e60: 06 13        	asl	$13                     ; 0x2013 <main+0x284>
     e62: 2a           	rol
     e63: aa           	tax
     e64: 38           	sec
     e65: a5 13        	lda	$13                     ; 0x2013 <main+0x284>
     e67: e5 12        	sbc	$12                     ; 0x2012 <main+0x283>
     e69: 85 12        	sta	$12                     ; 0x2012 <main+0x283>
     e6b: 8a           	txa
     e6c: e5 14        	sbc	$14                     ; 0x2014 <main+0x285>
     e6e: 85 13        	sta	$13                     ; 0x2013 <main+0x284>
     e70: 18           	clc
     e71: a5 12        	lda	$12                     ; 0x2012 <main+0x283>
     e73: 65 60        	adc	$60                     ; 0x2060 <main+0x2d1>
     e75: 85 12        	sta	$12                     ; 0x2012 <main+0x283>
     e77: a5 13        	lda	$13                     ; 0x2013 <main+0x284>
     e79: 65 61        	adc	$61                     ; 0x2061 <main+0x2d2>
     e7b: aa           	tax
     e7c: 18           	clc
     e7d: a5 12        	lda	$12                     ; 0x2012 <main+0x283>
     e7f: 69 2e        	adc	#$2e
     e81: 85 6a        	sta	$6a                     ; 0x206a <main+0x2db>
     e83: 8a           	txa
     e84: 69 01        	adc	#$1
     e86: 85 6b        	sta	$6b                     ; 0x206b <main+0x2dc>
     e88: a9 01        	lda	#$1
     e8a: 18           	clc
     e8b: 85 63        	sta	$63                     ; 0x2063 <main+0x2d4>
     e8d: a0 01        	ldy	#$1
     e8f: 71 60        	adc	($60),y                 ; 0x2060 <main+0x2d1>
     e91: 85 13        	sta	$13                     ; 0x2013 <main+0x284>
     e93: b2 60        	lda	($60)                   ; 0x2060 <main+0x2d1>
     e95: 85 53        	sta	$53                     ; 0x2053 <main+0x2c4>
     e97: 8d 14 d0     	sta	$d014                   ; 0xd014 <__heap_start+0x4720>
     e9a: 9c 15 d0     	stz	$d015                   ; 0xd015 <__heap_start+0x4721>
     e9d: a6 13        	ldx	$13                     ; 0x2013 <main+0x284>
     e9f: 86 54        	stx	$54                     ; 0x2054 <main+0x2c5>
     ea1: 8e 16 d0     	stx	$d016                   ; 0xd016 <__heap_start+0x4722>
     ea4: 9c 17 d0     	stz	$d017                   ; 0xd017 <__heap_start+0x4723>
     ea7: a5 15        	lda	$15                     ; 0x2015 <main+0x286>
     ea9: d1 68        	cmp	($68),y                 ; 0x2068 <main+0x2d9>
     eab: d0 10        	bne	$ebd <displayFileList+0x245>
     ead: 85 62        	sta	$62                     ; 0x2062 <main+0x2d3>
     eaf: b2 68        	lda	($68)                   ; 0x2068 <main+0x2d9>
     eb1: 85 12        	sta	$12                     ; 0x2012 <main+0x283>
     eb3: a6 64        	ldx	$64                     ; 0x2064 <main+0x2d5>
     eb5: e4 12        	cpx	$12                     ; 0x2012 <main+0x283>
     eb7: d0 06        	bne	$ebf <displayFileList+0x247>
     eb9: a9 fa        	lda	#$fa
     ebb: 80 04        	bra	$ec1 <displayFileList+0x249>
     ebd: 85 62        	sta	$62                     ; 0x2062 <main+0x2d3>
     ebf: a9 20        	lda	#$20
     ec1: a2 00        	ldx	#$0
     ec3: 20 12 4a     	jsr	$4a12 <putchar>
     ec6: b2 66        	lda	($66)                   ; 0x2066 <main+0x2d7>
     ec8: 29 01        	and	#$1
     eca: a2 b5        	ldx	#$b5
     ecc: 86 12        	stx	$12                     ; 0x2012 <main+0x283>
     ece: a2 54        	ldx	#$54
     ed0: 86 13        	stx	$13                     ; 0x2013 <main+0x284>
     ed2: aa           	tax
     ed3: d0 08        	bne	$edd <displayFileList+0x265>
     ed5: a2 5a        	ldx	#$5a
     ed7: 86 12        	stx	$12                     ; 0x2012 <main+0x283>
     ed9: a2 54        	ldx	#$54
     edb: 86 13        	stx	$13                     ; 0x2013 <main+0x284>
     edd: a5 10        	lda	$10                     ; 0x2010 <main+0x281>
     edf: a6 11        	ldx	$11                     ; 0x2011 <main+0x282>
     ee1: 18           	clc
     ee2: 69 02        	adc	#$2
     ee4: 85 14        	sta	$14                     ; 0x2014 <main+0x285>
     ee6: 8a           	txa
     ee7: 69 00        	adc	#$0
     ee9: 85 15        	sta	$15                     ; 0x2015 <main+0x286>
     eeb: a5 12        	lda	$12                     ; 0x2012 <main+0x283>
     eed: a0 02        	ldy	#$2
     eef: 91 10        	sta	($10),y                 ; 0x2010 <main+0x281>
     ef1: a5 13        	lda	$13                     ; 0x2013 <main+0x284>
     ef3: 88           	dey
     ef4: 91 14        	sta	($14),y                 ; 0x2014 <main+0x285>
     ef6: a5 6a        	lda	$6a                     ; 0x206a <main+0x2db>
     ef8: 92 10        	sta	($10)                   ; 0x2010 <main+0x281>
     efa: a5 6b        	lda	$6b                     ; 0x206b <main+0x2dc>
     efc: 91 10        	sta	($10),y                 ; 0x2010 <main+0x281>
     efe: a2 d7        	ldx	#$d7
     f00: 86 12        	stx	$12                     ; 0x2012 <main+0x283>
     f02: a2 54        	ldx	#$54
     f04: 86 13        	stx	$13                     ; 0x2013 <main+0x284>
     f06: 20 b6 48     	jsr	$48b6 <printf>
     f09: e6 64        	inc	$64                     ; 0x2064 <main+0x2d5>
     f0b: d0 02        	bne	$f0f <displayFileList+0x297>
     f0d: e6 62        	inc	$62                     ; 0x2062 <main+0x2d3>
     f0f: e6 66        	inc	$66                     ; 0x2066 <main+0x2d7>
     f11: d0 02        	bne	$f15 <displayFileList+0x29d>
     f13: e6 67        	inc	$67                     ; 0x2067 <main+0x2d8>
     f15: 18           	clc
     f16: a5 6a        	lda	$6a                     ; 0x206a <main+0x2db>
     f18: 69 78        	adc	#$78
     f1a: 85 6a        	sta	$6a                     ; 0x206a <main+0x2db>
     f1c: a5 6b        	lda	$6b                     ; 0x206b <main+0x2dc>
     f1e: 69 00        	adc	#$0
     f20: 85 6b        	sta	$6b                     ; 0x206b <main+0x2dc>
     f22: a5 63        	lda	$63                     ; 0x2063 <main+0x2d4>
     f24: 1a           	inc
     f25: a6 62        	ldx	$62                     ; 0x2062 <main+0x2d3>
     f27: 86 15        	stx	$15                     ; 0x2015 <main+0x286>
     f29: a6 6d        	ldx	$6d                     ; 0x206d <main+0x2de>
     f2b: e4 62        	cpx	$62                     ; 0x2062 <main+0x2d3>
     f2d: f0 03        	beq	$f32 <displayFileList+0x2ba>
     f2f: 4c 8a 0e     	jmp	$e8a <displayFileList+0x212>
     f32: a6 62        	ldx	$62                     ; 0x2062 <main+0x2d3>
     f34: 86 15        	stx	$15                     ; 0x2015 <main+0x286>
     f36: a6 6c        	ldx	$6c                     ; 0x206c <main+0x2dd>
     f38: e4 64        	cpx	$64                     ; 0x2064 <main+0x2d5>
     f3a: f0 03        	beq	$f3f <displayFileList+0x2c7>
     f3c: 4c 8a 0e     	jmp	$e8a <displayFileList+0x212>
     f3f: a5 72        	lda	$72                     ; 0x2072 <main+0x2e3>
     f41: 49 ff        	eor	#$ff
     f43: 85 12        	sta	$12                     ; 0x2012 <main+0x283>
     f45: a9 02        	lda	#$2
     f47: 18           	clc
     f48: 72 60        	adc	($60)                   ; 0x2060 <main+0x2d1>
     f4a: aa           	tax
     f4b: a0 01        	ldy	#$1
     f4d: 18           	clc
     f4e: a5 6c        	lda	$6c                     ; 0x206c <main+0x2dd>
     f50: 65 12        	adc	$12                     ; 0x2012 <main+0x283>
     f52: 18           	clc
     f53: 71 60        	adc	($60),y                 ; 0x2060 <main+0x2d1>
     f55: 1a           	inc
     f56: 86 53        	stx	$53                     ; 0x2053 <main+0x2c4>
     f58: 8e 14 d0     	stx	$d014                   ; 0xd014 <__heap_start+0x4720>
     f5b: 9c 15 d0     	stz	$d015                   ; 0xd015 <__heap_start+0x4721>
     f5e: 85 54        	sta	$54                     ; 0x2054 <main+0x2c5>
     f60: 8d 16 d0     	sta	$d016                   ; 0xd016 <__heap_start+0x4722>
     f63: 9c 17 d0     	stz	$d017                   ; 0xd017 <__heap_start+0x4723>
     f66: a5 60        	lda	$60                     ; 0x2060 <main+0x2d1>
     f68: 18           	clc
     f69: 69 fc        	adc	#$fc
     f6b: 85 12        	sta	$12                     ; 0x2012 <main+0x283>
     f6d: a5 61        	lda	$61                     ; 0x2061 <main+0x2d2>
     f6f: 69 2f        	adc	#$2f
     f71: 85 13        	sta	$13                     ; 0x2013 <main+0x284>
     f73: b2 12        	lda	($12)                   ; 0x2012 <main+0x283>
     f75: 85 14        	sta	$14                     ; 0x2014 <main+0x285>
     f77: b1 12        	lda	($12),y                 ; 0x2012 <main+0x283>
     f79: a4 14        	ldy	$14                     ; 0x2014 <main+0x285>
     f7b: 84 15        	sty	$15                     ; 0x2015 <main+0x286>
     f7d: c0 0f        	cpy	#$f
     f7f: 85 14        	sta	$14                     ; 0x2014 <main+0x285>
     f81: e9 00        	sbc	#$0
     f83: a6 6e        	ldx	$6e                     ; 0x206e <main+0x2df>
     f85: 86 12        	stx	$12                     ; 0x2012 <main+0x283>
     f87: a6 6f        	ldx	$6f                     ; 0x206f <main+0x2e0>
     f89: 86 13        	stx	$13                     ; 0x2013 <main+0x284>
     f8b: 50 02        	bvc	$f8f <displayFileList+0x317>
     f8d: 49 80        	eor	#$80
     f8f: a2 fb        	ldx	#$fb
     f91: 86 6c        	stx	$6c                     ; 0x206c <main+0x2dd>
     f93: 64 16        	stz	$16                     ; 0x2016 <main+0x287>
     f95: aa           	tax
     f96: 10 04        	bpl	$f9c <displayFileList+0x324>
     f98: a2 20        	ldx	#$20
     f9a: 86 6c        	stx	$6c                     ; 0x206c <main+0x2dd>
     f9c: a0 01        	ldy	#$1
     f9e: 18           	clc
     f9f: a5 15        	lda	$15                     ; 0x2015 <main+0x286>
     fa1: 69 10        	adc	#$10
     fa3: 85 17        	sta	$17                     ; 0x2017 <main+0x288>
     fa5: a5 14        	lda	$14                     ; 0x2014 <main+0x285>
     fa7: 69 00        	adc	#$0
     fa9: 85 18        	sta	$18                     ; 0x2018 <main+0x289>
     fab: 38           	sec
     fac: a6 70        	ldx	$70                     ; 0x2070 <main+0x2e1>
     fae: 86 14        	stx	$14                     ; 0x2014 <main+0x285>
     fb0: a6 71        	ldx	$71                     ; 0x2071 <main+0x2e2>
     fb2: 86 15        	stx	$15                     ; 0x2015 <main+0x286>
     fb4: a5 17        	lda	$17                     ; 0x2017 <main+0x288>
     fb6: f2 14        	sbc	($14)                   ; 0x2014 <main+0x285>
     fb8: 85 17        	sta	$17                     ; 0x2017 <main+0x288>
     fba: a5 18        	lda	$18                     ; 0x2018 <main+0x289>
     fbc: f1 14        	sbc	($14),y                 ; 0x2014 <main+0x285>
     fbe: aa           	tax
     fbf: a5 17        	lda	$17                     ; 0x2017 <main+0x288>
     fc1: d2 12        	cmp	($12)                   ; 0x2012 <main+0x283>
     fc3: 8a           	txa
     fc4: f1 12        	sbc	($12),y                 ; 0x2012 <main+0x283>
     fc6: 50 02        	bvc	$fca <displayFileList+0x352>
     fc8: 49 80        	eor	#$80
     fca: 64 12        	stz	$12                     ; 0x2012 <main+0x283>
     fcc: aa           	tax
     fcd: 10 04        	bpl	$fd3 <displayFileList+0x35b>
     fcf: a2 f8        	ldx	#$f8
     fd1: 80 02        	bra	$fd5 <displayFileList+0x35d>
     fd3: a2 20        	ldx	#$20
     fd5: a5 6c        	lda	$6c                     ; 0x206c <main+0x2dd>
     fd7: 92 10        	sta	($10)                   ; 0x2010 <main+0x281>
     fd9: a9 00        	lda	#$0
     fdb: 91 10        	sta	($10),y                 ; 0x2010 <main+0x281>
     fdd: a0 02        	ldy	#$2
     fdf: 8a           	txa
     fe0: 91 10        	sta	($10),y                 ; 0x2010 <main+0x281>
     fe2: c8           	iny
     fe3: a9 00        	lda	#$0
     fe5: 91 10        	sta	($10),y                 ; 0x2010 <main+0x281>
     fe7: a2 53        	ldx	#$53
     fe9: 86 12        	stx	$12                     ; 0x2012 <main+0x283>
     feb: a2 55        	ldx	#$55
     fed: 86 13        	stx	$13                     ; 0x2013 <main+0x284>
     fef: 20 b6 48     	jsr	$48b6 <printf>
     ff2: 18           	clc
     ff3: a5 10        	lda	$10                     ; 0x2010 <main+0x281>
     ff5: 69 06        	adc	#$6
     ff7: 85 10        	sta	$10                     ; 0x2010 <main+0x281>
     ff9: a5 11        	lda	$11                     ; 0x2011 <main+0x282>
     ffb: 69 00        	adc	#$0
     ffd: 85 11        	sta	$11                     ; 0x2011 <main+0x282>
     fff: 60           	rts
    1000: a0 fa        	ldy	#$fa
    1002: 4c 6e 0d     	jmp	$d6e <displayFileList+0xf6>

00001005 <pickFile>:
    1005: 18           	clc
    1006: a5 10        	lda	$10                     ; 0x2010 <main+0x281>
    1008: 69 f8        	adc	#$f8
    100a: 85 10        	sta	$10                     ; 0x2010 <main+0x281>
    100c: a5 11        	lda	$11                     ; 0x2011 <main+0x282>
    100e: 69 ff        	adc	#$ff
    1010: 85 11        	sta	$11                     ; 0x2011 <main+0x282>
    1012: a6 24        	ldx	$24                     ; 0x2024 <main+0x295>
    1014: da           	phx
    1015: a6 25        	ldx	$25                     ; 0x2025 <main+0x296>
    1017: da           	phx
    1018: a6 26        	ldx	$26                     ; 0x2026 <main+0x297>
    101a: da           	phx
    101b: a6 27        	ldx	$27                     ; 0x2027 <main+0x298>
    101d: da           	phx
    101e: a2 08        	ldx	#$8
    1020: 86 26        	stx	$26                     ; 0x2026 <main+0x297>
    1022: a2 00        	ldx	#$0
    1024: 86 27        	stx	$27                     ; 0x2027 <main+0x298>
    1026: a9 e9        	lda	#$e9
    1028: 18           	clc
    1029: 48           	pha
    102a: a5 10        	lda	$10                     ; 0x2010 <main+0x281>
    102c: 69 05        	adc	#$5
    102e: 85 12        	sta	$12                     ; 0x2012 <main+0x283>
    1030: a5 11        	lda	$11                     ; 0x2011 <main+0x282>
    1032: 69 00        	adc	#$0
    1034: 85 13        	sta	$13                     ; 0x2013 <main+0x284>
    1036: 68           	pla
    1037: 92 12        	sta	($12)                   ; 0x2012 <main+0x283>
    1039: a0 01        	ldy	#$1
    103b: a9 56        	lda	#$56
    103d: 91 12        	sta	($12),y                 ; 0x2012 <main+0x283>
    103f: 64 4b        	stz	$4b                     ; 0x204b <main+0x2bc>
    1041: 18           	clc
    1042: a5 10        	lda	$10                     ; 0x2010 <main+0x281>
    1044: 69 03        	adc	#$3
    1046: 85 12        	sta	$12                     ; 0x2012 <main+0x283>
    1048: a5 11        	lda	$11                     ; 0x2011 <main+0x282>
    104a: 69 00        	adc	#$0
    104c: 85 13        	sta	$13                     ; 0x2013 <main+0x284>
    104e: a2 52        	ldx	#$52
    1050: 86 14        	stx	$14                     ; 0x2014 <main+0x285>
    1052: a2 00        	ldx	#$0
    1054: 86 15        	stx	$15                     ; 0x2015 <main+0x286>
    1056: 20 00 ff     	jsr	$ff00 <__heap_start+0x760c>
    1059: 92 12        	sta	($12)                   ; 0x2012 <main+0x283>
    105b: a9 00        	lda	#$0
    105d: 6a           	ror
    105e: 85 14        	sta	$14                     ; 0x2014 <main+0x285>
    1060: b2 12        	lda	($12)                   ; 0x2012 <main+0x283>
    1062: 18           	clc
    1063: 48           	pha
    1064: a5 10        	lda	$10                     ; 0x2010 <main+0x281>
    1066: 69 02        	adc	#$2
    1068: 85 12        	sta	$12                     ; 0x2012 <main+0x283>
    106a: a5 11        	lda	$11                     ; 0x2011 <main+0x282>
    106c: 69 00        	adc	#$0
    106e: 85 13        	sta	$13                     ; 0x2013 <main+0x284>
    1070: 68           	pla
    1071: 92 12        	sta	($12)                   ; 0x2012 <main+0x283>
    1073: b2 12        	lda	($12)                   ; 0x2012 <main+0x283>
    1075: 18           	clc
    1076: 48           	pha
    1077: a5 10        	lda	$10                     ; 0x2010 <main+0x281>
    1079: 69 04        	adc	#$4
    107b: 85 12        	sta	$12                     ; 0x2012 <main+0x283>
    107d: a5 11        	lda	$11                     ; 0x2011 <main+0x282>
    107f: 69 00        	adc	#$0
    1081: 85 13        	sta	$13                     ; 0x2013 <main+0x284>
    1083: 68           	pla
    1084: 92 12        	sta	($12)                   ; 0x2012 <main+0x283>
    1086: a6 4b        	ldx	$4b                     ; 0x204b <main+0x2bc>
    1088: a0 00        	ldy	#$0
    108a: c4 27        	cpy	$27                     ; 0x2027 <main+0x298>
    108c: f0 02        	beq	$1090 <pickFile+0x8b>
    108e: 80 0d        	bra	$109d <pickFile+0x98>
    1090: e4 26        	cpx	$26                     ; 0x2026 <main+0x297>
    1092: f0 02        	beq	$1096 <pickFile+0x91>
    1094: 80 02        	bra	$1098 <pickFile+0x93>
    1096: 80 03        	bra	$109b <pickFile+0x96>
    1098: 4c 25 1c     	jmp	$1c25 <pickFile+0xc20>
    109b: 80 03        	bra	$10a0 <pickFile+0x9b>
    109d: 4c 25 1c     	jmp	$1c25 <pickFile+0xc20>
    10a0: 80 00        	bra	$10a2 <pickFile+0x9d>
    10a2: a5 4f        	lda	$4f                     ; 0x204f <main+0x2c0>
    10a4: 18           	clc
    10a5: 69 6e        	adc	#$6e
    10a7: aa           	tax
    10a8: a9 00        	lda	#$0
    10aa: 69 ff        	adc	#$ff
    10ac: c9 00        	cmp	#$0
    10ae: a0 01        	ldy	#$1
    10b0: b0 02        	bcs	$10b4 <pickFile+0xaf>
    10b2: a0 00        	ldy	#$0
    10b4: 84 12        	sty	$12                     ; 0x2012 <main+0x283>
    10b6: a8           	tay
    10b7: f0 02        	beq	$10bb <pickFile+0xb6>
    10b9: 80 08        	bra	$10c3 <pickFile+0xbe>
    10bb: 8a           	txa
    10bc: c9 28        	cmp	#$28
    10be: 90 0b        	bcc	$10cb <pickFile+0xc6>
    10c0: 4c 25 1c     	jmp	$1c25 <pickFile+0xc20>
    10c3: 8a           	txa
    10c4: a6 12        	ldx	$12                     ; 0x2012 <main+0x283>
    10c6: f0 03        	beq	$10cb <pickFile+0xc6>
    10c8: 4c 25 1c     	jmp	$1c25 <pickFile+0xc20>
    10cb: 0a           	asl
    10cc: aa           	tax
    10cd: 7c f6 50     	jmp	($50f6,x)               ; 0x50f6 <__set_v+0x1>
    10d0: 18           	clc
    10d1: a5 10        	lda	$10                     ; 0x2010 <main+0x281>
    10d3: 69 07        	adc	#$7
    10d5: 85 12        	sta	$12                     ; 0x2012 <main+0x283>
    10d7: a5 11        	lda	$11                     ; 0x2011 <main+0x282>
    10d9: 69 00        	adc	#$0
    10db: 85 13        	sta	$13                     ; 0x2013 <main+0x284>
    10dd: a9 03        	lda	#$3
    10df: 92 12        	sta	($12)                   ; 0x2012 <main+0x283>
    10e1: 4c 28 1c     	jmp	$1c28 <pickFile+0xc23>
    10e4: 18           	clc
    10e5: a5 10        	lda	$10                     ; 0x2010 <main+0x281>
    10e7: 69 05        	adc	#$5
    10e9: 85 24        	sta	$24                     ; 0x2024 <main+0x295>
    10eb: a5 11        	lda	$11                     ; 0x2011 <main+0x282>
    10ed: 69 00        	adc	#$0
    10ef: 85 25        	sta	$25                     ; 0x2025 <main+0x296>
    10f1: b2 24        	lda	($24)                   ; 0x2024 <main+0x295>
    10f3: 85 12        	sta	$12                     ; 0x2012 <main+0x283>
    10f5: a0 01        	ldy	#$1
    10f7: b1 24        	lda	($24),y                 ; 0x2024 <main+0x295>
    10f9: aa           	tax
    10fa: a0 01        	ldy	#$1
    10fc: 18           	clc
    10fd: a5 12        	lda	$12                     ; 0x2012 <main+0x283>
    10ff: 69 3e        	adc	#$3e
    1101: 85 12        	sta	$12                     ; 0x2012 <main+0x283>
    1103: 8a           	txa
    1104: 69 00        	adc	#$0
    1106: 85 13        	sta	$13                     ; 0x2013 <main+0x284>
    1108: b2 24        	lda	($24)                   ; 0x2024 <main+0x295>
    110a: 85 15        	sta	$15                     ; 0x2015 <main+0x286>
    110c: b1 24        	lda	($24),y                 ; 0x2024 <main+0x295>
    110e: 85 14        	sta	$14                     ; 0x2014 <main+0x285>
    1110: 18           	clc
    1111: a5 15        	lda	$15                     ; 0x2015 <main+0x286>
    1113: 69 fc        	adc	#$fc
    1115: aa           	tax
    1116: a5 14        	lda	$14                     ; 0x2014 <main+0x285>
    1118: 69 2f        	adc	#$2f
    111a: 86 14        	stx	$14                     ; 0x2014 <main+0x285>
    111c: 85 15        	sta	$15                     ; 0x2015 <main+0x286>
    111e: b2 14        	lda	($14)                   ; 0x2014 <main+0x285>
    1120: aa           	tax
    1121: b1 14        	lda	($14),y                 ; 0x2014 <main+0x285>
    1123: 85 14        	sta	$14                     ; 0x2014 <main+0x285>
    1125: a0 01        	ldy	#$1
    1127: 8a           	txa
    1128: 0a           	asl
    1129: 26 14        	rol	$14                     ; 0x2014 <main+0x285>
    112b: 0a           	asl
    112c: 26 14        	rol	$14                     ; 0x2014 <main+0x285>
    112e: a6 14        	ldx	$14                     ; 0x2014 <main+0x285>
    1130: 86 15        	stx	$15                     ; 0x2015 <main+0x286>
    1132: 85 14        	sta	$14                     ; 0x2014 <main+0x285>
    1134: 06 14        	asl	$14                     ; 0x2014 <main+0x285>
    1136: 26 15        	rol	$15                     ; 0x2015 <main+0x286>
    1138: a5 14        	lda	$14                     ; 0x2014 <main+0x285>
    113a: 0a           	asl
    113b: aa           	tax
    113c: a5 15        	lda	$15                     ; 0x2015 <main+0x286>
    113e: 2a           	rol
    113f: 86 16        	stx	$16                     ; 0x2016 <main+0x287>
    1141: 06 16        	asl	$16                     ; 0x2016 <main+0x287>
    1143: 2a           	rol
    1144: 06 16        	asl	$16                     ; 0x2016 <main+0x287>
    1146: 2a           	rol
    1147: 06 16        	asl	$16                     ; 0x2016 <main+0x287>
    1149: 2a           	rol
    114a: aa           	tax
    114b: 38           	sec
    114c: a5 16        	lda	$16                     ; 0x2016 <main+0x287>
    114e: e5 14        	sbc	$14                     ; 0x2014 <main+0x285>
    1150: 85 14        	sta	$14                     ; 0x2014 <main+0x285>
    1152: 8a           	txa
    1153: e5 15        	sbc	$15                     ; 0x2015 <main+0x286>
    1155: 85 15        	sta	$15                     ; 0x2015 <main+0x286>
    1157: 18           	clc
    1158: a5 14        	lda	$14                     ; 0x2014 <main+0x285>
    115a: 72 24        	adc	($24)                   ; 0x2024 <main+0x295>
    115c: 85 14        	sta	$14                     ; 0x2014 <main+0x285>
    115e: a5 15        	lda	$15                     ; 0x2015 <main+0x286>
    1160: 71 24        	adc	($24),y                 ; 0x2024 <main+0x295>
    1162: aa           	tax
    1163: 18           	clc
    1164: a5 14        	lda	$14                     ; 0x2014 <main+0x285>
    1166: 69 b6        	adc	#$b6
    1168: 85 14        	sta	$14                     ; 0x2014 <main+0x285>
    116a: 8a           	txa
    116b: 69 00        	adc	#$0
    116d: 85 15        	sta	$15                     ; 0x2015 <main+0x286>
    116f: a9 78        	lda	#$78
    1171: a2 00        	ldx	#$0
    1173: 20 5e 4f     	jsr	$4f5e <memcpy>
    1176: b2 24        	lda	($24)                   ; 0x2024 <main+0x295>
    1178: 85 13        	sta	$13                     ; 0x2013 <main+0x284>
    117a: a0 01        	ldy	#$1
    117c: b1 24        	lda	($24),y                 ; 0x2024 <main+0x295>
    117e: 85 12        	sta	$12                     ; 0x2012 <main+0x283>
    1180: 18           	clc
    1181: a5 13        	lda	$13                     ; 0x2013 <main+0x284>
    1183: 69 fe        	adc	#$fe
    1185: aa           	tax
    1186: a5 12        	lda	$12                     ; 0x2012 <main+0x283>
    1188: 69 2f        	adc	#$2f
    118a: 86 12        	stx	$12                     ; 0x2012 <main+0x283>
    118c: 85 13        	sta	$13                     ; 0x2013 <main+0x284>
    118e: b2 12        	lda	($12)                   ; 0x2012 <main+0x283>
    1190: 85 14        	sta	$14                     ; 0x2014 <main+0x285>
    1192: b1 12        	lda	($12),y                 ; 0x2012 <main+0x283>
    1194: d0 1c        	bne	$11b2 <pickFile+0x1ad>
    1196: 80 00        	bra	$1198 <pickFile+0x193>
    1198: a5 14        	lda	$14                     ; 0x2014 <main+0x285>
    119a: d0 16        	bne	$11b2 <pickFile+0x1ad>
    119c: 80 00        	bra	$119e <pickFile+0x199>
    119e: 18           	clc
    119f: a5 10        	lda	$10                     ; 0x2010 <main+0x281>
    11a1: 69 07        	adc	#$7
    11a3: 85 12        	sta	$12                     ; 0x2012 <main+0x283>
    11a5: a5 11        	lda	$11                     ; 0x2011 <main+0x282>
    11a7: 69 00        	adc	#$0
    11a9: 85 13        	sta	$13                     ; 0x2013 <main+0x284>
    11ab: a9 00        	lda	#$0
    11ad: 92 12        	sta	($12)                   ; 0x2012 <main+0x283>
    11af: 4c 28 1c     	jmp	$1c28 <pickFile+0xc23>
    11b2: 18           	clc
    11b3: a5 10        	lda	$10                     ; 0x2010 <main+0x281>
    11b5: 69 05        	adc	#$5
    11b7: 85 12        	sta	$12                     ; 0x2012 <main+0x283>
    11b9: a5 11        	lda	$11                     ; 0x2011 <main+0x282>
    11bb: 69 00        	adc	#$0
    11bd: 85 13        	sta	$13                     ; 0x2013 <main+0x284>
    11bf: a0 01        	ldy	#$1
    11c1: b2 12        	lda	($12)                   ; 0x2012 <main+0x283>
    11c3: 85 15        	sta	$15                     ; 0x2015 <main+0x286>
    11c5: b1 12        	lda	($12),y                 ; 0x2012 <main+0x283>
    11c7: 85 14        	sta	$14                     ; 0x2014 <main+0x285>
    11c9: 18           	clc
    11ca: a5 15        	lda	$15                     ; 0x2015 <main+0x286>
    11cc: 69 fc        	adc	#$fc
    11ce: aa           	tax
    11cf: a5 14        	lda	$14                     ; 0x2014 <main+0x285>
    11d1: 69 2f        	adc	#$2f
    11d3: 86 14        	stx	$14                     ; 0x2014 <main+0x285>
    11d5: 85 15        	sta	$15                     ; 0x2015 <main+0x286>
    11d7: b2 14        	lda	($14)                   ; 0x2014 <main+0x285>
    11d9: 85 16        	sta	$16                     ; 0x2016 <main+0x287>
    11db: b1 14        	lda	($14),y                 ; 0x2014 <main+0x285>
    11dd: 85 14        	sta	$14                     ; 0x2014 <main+0x285>
    11df: 18           	clc
    11e0: a5 16        	lda	$16                     ; 0x2016 <main+0x287>
    11e2: 72 12        	adc	($12)                   ; 0x2012 <main+0x283>
    11e4: 85 15        	sta	$15                     ; 0x2015 <main+0x286>
    11e6: a5 14        	lda	$14                     ; 0x2014 <main+0x285>
    11e8: 71 12        	adc	($12),y                 ; 0x2012 <main+0x283>
    11ea: 85 12        	sta	$12                     ; 0x2012 <main+0x283>
    11ec: 18           	clc
    11ed: a5 15        	lda	$15                     ; 0x2015 <main+0x286>
    11ef: 69 96        	adc	#$96
    11f1: aa           	tax
    11f2: a5 12        	lda	$12                     ; 0x2012 <main+0x283>
    11f4: 69 2f        	adc	#$2f
    11f6: 85 13        	sta	$13                     ; 0x2013 <main+0x284>
    11f8: 86 12        	stx	$12                     ; 0x2012 <main+0x283>
    11fa: b2 12        	lda	($12)                   ; 0x2012 <main+0x283>
    11fc: 29 01        	and	#$1
    11fe: f0 16        	beq	$1216 <pickFile+0x211>
    1200: 80 00        	bra	$1202 <pickFile+0x1fd>
    1202: 18           	clc
    1203: a5 10        	lda	$10                     ; 0x2010 <main+0x281>
    1205: 69 07        	adc	#$7
    1207: 85 12        	sta	$12                     ; 0x2012 <main+0x283>
    1209: a5 11        	lda	$11                     ; 0x2011 <main+0x282>
    120b: 69 00        	adc	#$0
    120d: 85 13        	sta	$13                     ; 0x2013 <main+0x284>
    120f: a9 01        	lda	#$1
    1211: 92 12        	sta	($12)                   ; 0x2012 <main+0x283>
    1213: 4c 28 1c     	jmp	$1c28 <pickFile+0xc23>
    1216: 18           	clc
    1217: a5 10        	lda	$10                     ; 0x2010 <main+0x281>
    1219: 69 07        	adc	#$7
    121b: 85 12        	sta	$12                     ; 0x2012 <main+0x283>
    121d: a5 11        	lda	$11                     ; 0x2011 <main+0x282>
    121f: 69 00        	adc	#$0
    1221: 85 13        	sta	$13                     ; 0x2013 <main+0x284>
    1223: a9 02        	lda	#$2
    1225: 92 12        	sta	($12)                   ; 0x2012 <main+0x283>
    1227: 4c 28 1c     	jmp	$1c28 <pickFile+0xc23>
    122a: 18           	clc
    122b: a5 10        	lda	$10                     ; 0x2010 <main+0x281>
    122d: 69 05        	adc	#$5
    122f: 85 12        	sta	$12                     ; 0x2012 <main+0x283>
    1231: a5 11        	lda	$11                     ; 0x2011 <main+0x282>
    1233: 69 00        	adc	#$0
    1235: 85 13        	sta	$13                     ; 0x2013 <main+0x284>
    1237: b2 12        	lda	($12)                   ; 0x2012 <main+0x283>
    1239: 85 14        	sta	$14                     ; 0x2014 <main+0x285>
    123b: a0 01        	ldy	#$1
    123d: b1 12        	lda	($12),y                 ; 0x2012 <main+0x283>
    123f: aa           	tax
    1240: 18           	clc
    1241: a5 14        	lda	$14                     ; 0x2014 <main+0x285>
    1243: 69 fc        	adc	#$fc
    1245: 85 12        	sta	$12                     ; 0x2012 <main+0x283>
    1247: 8a           	txa
    1248: 69 2f        	adc	#$2f
    124a: 85 13        	sta	$13                     ; 0x2013 <main+0x284>
    124c: b2 12        	lda	($12)                   ; 0x2012 <main+0x283>
    124e: 85 14        	sta	$14                     ; 0x2014 <main+0x285>
    1250: b1 12        	lda	($12),y                 ; 0x2012 <main+0x283>
    1252: a6 14        	ldx	$14                     ; 0x2014 <main+0x285>
    1254: e0 01        	cpx	#$1
    1256: e9 00        	sbc	#$0
    1258: 70 02        	bvs	$125c <pickFile+0x257>
    125a: 80 04        	bra	$1260 <pickFile+0x25b>
    125c: 49 80        	eor	#$80
    125e: 80 02        	bra	$1262 <pickFile+0x25d>
    1260: 80 00        	bra	$1262 <pickFile+0x25d>
    1262: aa           	tax
    1263: 10 03        	bpl	$1268 <pickFile+0x263>
    1265: 4c 1a 15     	jmp	$151a <pickFile+0x515>
    1268: 18           	clc
    1269: a5 10        	lda	$10                     ; 0x2010 <main+0x281>
    126b: 69 05        	adc	#$5
    126d: 85 12        	sta	$12                     ; 0x2012 <main+0x283>
    126f: a5 11        	lda	$11                     ; 0x2011 <main+0x282>
    1271: 69 00        	adc	#$0
    1273: 85 13        	sta	$13                     ; 0x2013 <main+0x284>
    1275: b2 12        	lda	($12)                   ; 0x2012 <main+0x283>
    1277: 85 14        	sta	$14                     ; 0x2014 <main+0x285>
    1279: a0 01        	ldy	#$1
    127b: b1 12        	lda	($12),y                 ; 0x2012 <main+0x283>
    127d: aa           	tax
    127e: 18           	clc
    127f: a5 14        	lda	$14                     ; 0x2014 <main+0x285>
    1281: 69 fe        	adc	#$fe
    1283: 85 12        	sta	$12                     ; 0x2012 <main+0x283>
    1285: 8a           	txa
    1286: 69 2f        	adc	#$2f
    1288: 85 13        	sta	$13                     ; 0x2013 <main+0x284>
    128a: b2 12        	lda	($12)                   ; 0x2012 <main+0x283>
    128c: 85 14        	sta	$14                     ; 0x2014 <main+0x285>
    128e: b1 12        	lda	($12),y                 ; 0x2012 <main+0x283>
    1290: a6 14        	ldx	$14                     ; 0x2014 <main+0x285>
    1292: e0 01        	cpx	#$1
    1294: e9 00        	sbc	#$0
    1296: 70 02        	bvs	$129a <pickFile+0x295>
    1298: 80 04        	bra	$129e <pickFile+0x299>
    129a: 49 80        	eor	#$80
    129c: 80 02        	bra	$12a0 <pickFile+0x29b>
    129e: 80 00        	bra	$12a0 <pickFile+0x29b>
    12a0: aa           	tax
    12a1: 10 03        	bpl	$12a6 <pickFile+0x2a1>
    12a3: 4c ba 13     	jmp	$13ba <pickFile+0x3b5>
    12a6: 18           	clc
    12a7: a5 10        	lda	$10                     ; 0x2010 <main+0x281>
    12a9: 69 05        	adc	#$5
    12ab: 85 24        	sta	$24                     ; 0x2024 <main+0x295>
    12ad: a5 11        	lda	$11                     ; 0x2011 <main+0x282>
    12af: 69 00        	adc	#$0
    12b1: 85 25        	sta	$25                     ; 0x2025 <main+0x296>
    12b3: b2 24        	lda	($24)                   ; 0x2024 <main+0x295>
    12b5: 85 12        	sta	$12                     ; 0x2012 <main+0x283>
    12b7: a0 01        	ldy	#$1
    12b9: b1 24        	lda	($24),y                 ; 0x2024 <main+0x295>
    12bb: 85 13        	sta	$13                     ; 0x2013 <main+0x284>
    12bd: b2 12        	lda	($12)                   ; 0x2012 <main+0x283>
    12bf: 85 14        	sta	$14                     ; 0x2014 <main+0x285>
    12c1: b2 24        	lda	($24)                   ; 0x2024 <main+0x295>
    12c3: 85 12        	sta	$12                     ; 0x2012 <main+0x283>
    12c5: b1 24        	lda	($24),y                 ; 0x2024 <main+0x295>
    12c7: 85 13        	sta	$13                     ; 0x2013 <main+0x284>
    12c9: b2 24        	lda	($24)                   ; 0x2024 <main+0x295>
    12cb: 85 16        	sta	$16                     ; 0x2016 <main+0x287>
    12cd: b1 24        	lda	($24),y                 ; 0x2024 <main+0x295>
    12cf: 85 15        	sta	$15                     ; 0x2015 <main+0x286>
    12d1: 18           	clc
    12d2: a5 16        	lda	$16                     ; 0x2016 <main+0x287>
    12d4: 69 fe        	adc	#$fe
    12d6: aa           	tax
    12d7: a5 15        	lda	$15                     ; 0x2015 <main+0x286>
    12d9: 69 2f        	adc	#$2f
    12db: 85 15        	sta	$15                     ; 0x2015 <main+0x286>
    12dd: b1 12        	lda	($12),y                 ; 0x2012 <main+0x283>
    12df: 86 12        	stx	$12                     ; 0x2012 <main+0x283>
    12e1: a6 15        	ldx	$15                     ; 0x2015 <main+0x286>
    12e3: 86 13        	stx	$13                     ; 0x2013 <main+0x284>
    12e5: 18           	clc
    12e6: 72 12        	adc	($12)                   ; 0x2012 <main+0x283>
    12e8: aa           	tax
    12e9: a5 14        	lda	$14                     ; 0x2014 <main+0x285>
    12eb: 20 53 38     	jsr	$3853 <textGotoXY>
    12ee: a9 20        	lda	#$20
    12f0: 92 10        	sta	($10)                   ; 0x2010 <main+0x281>
    12f2: a9 00        	lda	#$0
    12f4: a0 01        	ldy	#$1
    12f6: 91 10        	sta	($10),y                 ; 0x2010 <main+0x281>
    12f8: a2 e7        	ldx	#$e7
    12fa: 86 12        	stx	$12                     ; 0x2012 <main+0x283>
    12fc: a2 54        	ldx	#$54
    12fe: 86 13        	stx	$13                     ; 0x2013 <main+0x284>
    1300: 20 b6 48     	jsr	$48b6 <printf>
    1303: b2 24        	lda	($24)                   ; 0x2024 <main+0x295>
    1305: 85 13        	sta	$13                     ; 0x2013 <main+0x284>
    1307: a0 01        	ldy	#$1
    1309: b1 24        	lda	($24),y                 ; 0x2024 <main+0x295>
    130b: 85 12        	sta	$12                     ; 0x2012 <main+0x283>
    130d: 18           	clc
    130e: a5 13        	lda	$13                     ; 0x2013 <main+0x284>
    1310: 69 fc        	adc	#$fc
    1312: aa           	tax
    1313: a5 12        	lda	$12                     ; 0x2012 <main+0x283>
    1315: 69 2f        	adc	#$2f
    1317: 86 12        	stx	$12                     ; 0x2012 <main+0x283>
    1319: 85 13        	sta	$13                     ; 0x2013 <main+0x284>
    131b: b2 12        	lda	($12)                   ; 0x2012 <main+0x283>
    131d: aa           	tax
    131e: b1 12        	lda	($12),y                 ; 0x2012 <main+0x283>
    1320: 85 14        	sta	$14                     ; 0x2014 <main+0x285>
    1322: 8a           	txa
    1323: 3a           	dec
    1324: c9 ff        	cmp	#$ff
    1326: f0 03        	beq	$132b <pickFile+0x326>
    1328: 4c 30 13     	jmp	$1330 <pickFile+0x32b>
    132b: c6 14        	dec	$14                     ; 0x2014 <main+0x285>
    132d: 4c 30 13     	jmp	$1330 <pickFile+0x32b>
    1330: 92 12        	sta	($12)                   ; 0x2012 <main+0x283>
    1332: a5 14        	lda	$14                     ; 0x2014 <main+0x285>
    1334: 91 12        	sta	($12),y                 ; 0x2012 <main+0x283>
    1336: b2 24        	lda	($24)                   ; 0x2024 <main+0x295>
    1338: 85 13        	sta	$13                     ; 0x2013 <main+0x284>
    133a: b1 24        	lda	($24),y                 ; 0x2024 <main+0x295>
    133c: 85 12        	sta	$12                     ; 0x2012 <main+0x283>
    133e: 18           	clc
    133f: a5 13        	lda	$13                     ; 0x2013 <main+0x284>
    1341: 69 fe        	adc	#$fe
    1343: aa           	tax
    1344: a5 12        	lda	$12                     ; 0x2012 <main+0x283>
    1346: 69 2f        	adc	#$2f
    1348: 86 12        	stx	$12                     ; 0x2012 <main+0x283>
    134a: 85 13        	sta	$13                     ; 0x2013 <main+0x284>
    134c: b2 12        	lda	($12)                   ; 0x2012 <main+0x283>
    134e: aa           	tax
    134f: b1 12        	lda	($12),y                 ; 0x2012 <main+0x283>
    1351: 85 14        	sta	$14                     ; 0x2014 <main+0x285>
    1353: 8a           	txa
    1354: 3a           	dec
    1355: c9 ff        	cmp	#$ff
    1357: f0 03        	beq	$135c <pickFile+0x357>
    1359: 4c 61 13     	jmp	$1361 <pickFile+0x35c>
    135c: c6 14        	dec	$14                     ; 0x2014 <main+0x285>
    135e: 4c 61 13     	jmp	$1361 <pickFile+0x35c>
    1361: 92 12        	sta	($12)                   ; 0x2012 <main+0x283>
    1363: a5 14        	lda	$14                     ; 0x2014 <main+0x285>
    1365: 91 12        	sta	($12),y                 ; 0x2012 <main+0x283>
    1367: b2 24        	lda	($24)                   ; 0x2024 <main+0x295>
    1369: 85 12        	sta	$12                     ; 0x2012 <main+0x283>
    136b: b1 24        	lda	($24),y                 ; 0x2024 <main+0x295>
    136d: 85 13        	sta	$13                     ; 0x2013 <main+0x284>
    136f: b2 24        	lda	($24)                   ; 0x2024 <main+0x295>
    1371: 85 14        	sta	$14                     ; 0x2014 <main+0x285>
    1373: b1 24        	lda	($24),y                 ; 0x2024 <main+0x295>
    1375: 85 15        	sta	$15                     ; 0x2015 <main+0x286>
    1377: b2 24        	lda	($24)                   ; 0x2024 <main+0x295>
    1379: 85 16        	sta	$16                     ; 0x2016 <main+0x287>
    137b: b1 24        	lda	($24),y                 ; 0x2024 <main+0x295>
    137d: 85 18        	sta	$18                     ; 0x2018 <main+0x289>
    137f: a0 01        	ldy	#$1
    1381: 18           	clc
    1382: a5 16        	lda	$16                     ; 0x2016 <main+0x287>
    1384: 69 fe        	adc	#$fe
    1386: 85 17        	sta	$17                     ; 0x2017 <main+0x288>
    1388: a5 18        	lda	$18                     ; 0x2018 <main+0x289>
    138a: 69 2f        	adc	#$2f
    138c: aa           	tax
    138d: b2 12        	lda	($12)                   ; 0x2012 <main+0x283>
    138f: 85 16        	sta	$16                     ; 0x2016 <main+0x287>
    1391: a5 17        	lda	$17                     ; 0x2017 <main+0x288>
    1393: 85 12        	sta	$12                     ; 0x2012 <main+0x283>
    1395: b1 14        	lda	($14),y                 ; 0x2014 <main+0x285>
    1397: 86 13        	stx	$13                     ; 0x2013 <main+0x284>
    1399: 18           	clc
    139a: 72 12        	adc	($12)                   ; 0x2012 <main+0x283>
    139c: aa           	tax
    139d: a5 16        	lda	$16                     ; 0x2016 <main+0x287>
    139f: 20 53 38     	jsr	$3853 <textGotoXY>
    13a2: a9 fa        	lda	#$fa
    13a4: 92 10        	sta	($10)                   ; 0x2010 <main+0x281>
    13a6: a9 00        	lda	#$0
    13a8: a0 01        	ldy	#$1
    13aa: 91 10        	sta	($10),y                 ; 0x2010 <main+0x281>
    13ac: a2 e7        	ldx	#$e7
    13ae: 86 12        	stx	$12                     ; 0x2012 <main+0x283>
    13b0: a2 54        	ldx	#$54
    13b2: 86 13        	stx	$13                     ; 0x2013 <main+0x284>
    13b4: 20 b6 48     	jsr	$48b6 <printf>
    13b7: 4c 1a 15     	jmp	$151a <pickFile+0x515>
    13ba: 18           	clc
    13bb: a5 10        	lda	$10                     ; 0x2010 <main+0x281>
    13bd: 69 05        	adc	#$5
    13bf: 85 12        	sta	$12                     ; 0x2012 <main+0x283>
    13c1: a5 11        	lda	$11                     ; 0x2011 <main+0x282>
    13c3: 69 00        	adc	#$0
    13c5: 85 13        	sta	$13                     ; 0x2013 <main+0x284>
    13c7: b2 12        	lda	($12)                   ; 0x2012 <main+0x283>
    13c9: 85 14        	sta	$14                     ; 0x2014 <main+0x285>
    13cb: a0 01        	ldy	#$1
    13cd: b1 12        	lda	($12),y                 ; 0x2012 <main+0x283>
    13cf: aa           	tax
    13d0: 18           	clc
    13d1: a5 14        	lda	$14                     ; 0x2014 <main+0x285>
    13d3: 69 fe        	adc	#$fe
    13d5: 85 12        	sta	$12                     ; 0x2012 <main+0x283>
    13d7: 8a           	txa
    13d8: 69 2f        	adc	#$2f
    13da: 85 13        	sta	$13                     ; 0x2013 <main+0x284>
    13dc: b2 12        	lda	($12)                   ; 0x2012 <main+0x283>
    13de: 85 14        	sta	$14                     ; 0x2014 <main+0x285>
    13e0: b1 12        	lda	($12),y                 ; 0x2012 <main+0x283>
    13e2: f0 03        	beq	$13e7 <pickFile+0x3e2>
    13e4: 4c 1a 15     	jmp	$151a <pickFile+0x515>
    13e7: a5 14        	lda	$14                     ; 0x2014 <main+0x285>
    13e9: f0 03        	beq	$13ee <pickFile+0x3e9>
    13eb: 4c 1a 15     	jmp	$151a <pickFile+0x515>
    13ee: 18           	clc
    13ef: a5 10        	lda	$10                     ; 0x2010 <main+0x281>
    13f1: 69 05        	adc	#$5
    13f3: 85 24        	sta	$24                     ; 0x2024 <main+0x295>
    13f5: a5 11        	lda	$11                     ; 0x2011 <main+0x282>
    13f7: 69 00        	adc	#$0
    13f9: 85 25        	sta	$25                     ; 0x2025 <main+0x296>
    13fb: b2 24        	lda	($24)                   ; 0x2024 <main+0x295>
    13fd: 85 12        	sta	$12                     ; 0x2012 <main+0x283>
    13ff: a0 01        	ldy	#$1
    1401: b1 24        	lda	($24),y                 ; 0x2024 <main+0x295>
    1403: 85 13        	sta	$13                     ; 0x2013 <main+0x284>
    1405: b2 12        	lda	($12)                   ; 0x2012 <main+0x283>
    1407: 85 14        	sta	$14                     ; 0x2014 <main+0x285>
    1409: b2 24        	lda	($24)                   ; 0x2024 <main+0x295>
    140b: 85 12        	sta	$12                     ; 0x2012 <main+0x283>
    140d: b1 24        	lda	($24),y                 ; 0x2024 <main+0x295>
    140f: 85 13        	sta	$13                     ; 0x2013 <main+0x284>
    1411: b2 24        	lda	($24)                   ; 0x2024 <main+0x295>
    1413: 85 16        	sta	$16                     ; 0x2016 <main+0x287>
    1415: b1 24        	lda	($24),y                 ; 0x2024 <main+0x295>
    1417: 85 15        	sta	$15                     ; 0x2015 <main+0x286>
    1419: 18           	clc
    141a: a5 16        	lda	$16                     ; 0x2016 <main+0x287>
    141c: 69 fe        	adc	#$fe
    141e: aa           	tax
    141f: a5 15        	lda	$15                     ; 0x2015 <main+0x286>
    1421: 69 2f        	adc	#$2f
    1423: 85 15        	sta	$15                     ; 0x2015 <main+0x286>
    1425: b1 12        	lda	($12),y                 ; 0x2012 <main+0x283>
    1427: 86 12        	stx	$12                     ; 0x2012 <main+0x283>
    1429: a6 15        	ldx	$15                     ; 0x2015 <main+0x286>
    142b: 86 13        	stx	$13                     ; 0x2013 <main+0x284>
    142d: 18           	clc
    142e: 72 12        	adc	($12)                   ; 0x2012 <main+0x283>
    1430: aa           	tax
    1431: a5 14        	lda	$14                     ; 0x2014 <main+0x285>
    1433: 20 53 38     	jsr	$3853 <textGotoXY>
    1436: a9 20        	lda	#$20
    1438: 92 10        	sta	($10)                   ; 0x2010 <main+0x281>
    143a: a9 00        	lda	#$0
    143c: a0 01        	ldy	#$1
    143e: 91 10        	sta	($10),y                 ; 0x2010 <main+0x281>
    1440: a2 e7        	ldx	#$e7
    1442: 86 12        	stx	$12                     ; 0x2012 <main+0x283>
    1444: a2 54        	ldx	#$54
    1446: 86 13        	stx	$13                     ; 0x2013 <main+0x284>
    1448: 20 b6 48     	jsr	$48b6 <printf>
    144b: b2 24        	lda	($24)                   ; 0x2024 <main+0x295>
    144d: 85 13        	sta	$13                     ; 0x2013 <main+0x284>
    144f: a0 01        	ldy	#$1
    1451: b1 24        	lda	($24),y                 ; 0x2024 <main+0x295>
    1453: 85 12        	sta	$12                     ; 0x2012 <main+0x283>
    1455: 18           	clc
    1456: a5 13        	lda	$13                     ; 0x2013 <main+0x284>
    1458: 69 fe        	adc	#$fe
    145a: aa           	tax
    145b: a5 12        	lda	$12                     ; 0x2012 <main+0x283>
    145d: 69 2f        	adc	#$2f
    145f: 86 12        	stx	$12                     ; 0x2012 <main+0x283>
    1461: 85 13        	sta	$13                     ; 0x2013 <main+0x284>
    1463: a9 0f        	lda	#$f
    1465: 92 12        	sta	($12)                   ; 0x2012 <main+0x283>
    1467: a9 00        	lda	#$0
    1469: 91 12        	sta	($12),y                 ; 0x2012 <main+0x283>
    146b: b2 24        	lda	($24)                   ; 0x2024 <main+0x295>
    146d: 85 13        	sta	$13                     ; 0x2013 <main+0x284>
    146f: b1 24        	lda	($24),y                 ; 0x2024 <main+0x295>
    1471: 85 12        	sta	$12                     ; 0x2012 <main+0x283>
    1473: 18           	clc
    1474: a5 13        	lda	$13                     ; 0x2013 <main+0x284>
    1476: 69 00        	adc	#$0
    1478: aa           	tax
    1479: a5 12        	lda	$12                     ; 0x2012 <main+0x283>
    147b: 69 30        	adc	#$30
    147d: 86 12        	stx	$12                     ; 0x2012 <main+0x283>
    147f: 85 13        	sta	$13                     ; 0x2013 <main+0x284>
    1481: b2 12        	lda	($12)                   ; 0x2012 <main+0x283>
    1483: 85 15        	sta	$15                     ; 0x2015 <main+0x286>
    1485: b1 12        	lda	($12),y                 ; 0x2012 <main+0x283>
    1487: 85 14        	sta	$14                     ; 0x2014 <main+0x285>
    1489: 18           	clc
    148a: a5 15        	lda	$15                     ; 0x2015 <main+0x286>
    148c: 69 f1        	adc	#$f1
    148e: 85 15        	sta	$15                     ; 0x2015 <main+0x286>
    1490: a5 14        	lda	$14                     ; 0x2014 <main+0x285>
    1492: 69 ff        	adc	#$ff
    1494: aa           	tax
    1495: a5 15        	lda	$15                     ; 0x2015 <main+0x286>
    1497: 92 12        	sta	($12)                   ; 0x2012 <main+0x283>
    1499: 8a           	txa
    149a: 91 12        	sta	($12),y                 ; 0x2012 <main+0x283>
    149c: b2 24        	lda	($24)                   ; 0x2024 <main+0x295>
    149e: 85 12        	sta	$12                     ; 0x2012 <main+0x283>
    14a0: b1 24        	lda	($24),y                 ; 0x2024 <main+0x295>
    14a2: 85 13        	sta	$13                     ; 0x2013 <main+0x284>
    14a4: b2 24        	lda	($24)                   ; 0x2024 <main+0x295>
    14a6: 85 15        	sta	$15                     ; 0x2015 <main+0x286>
    14a8: b1 24        	lda	($24),y                 ; 0x2024 <main+0x295>
    14aa: 85 14        	sta	$14                     ; 0x2014 <main+0x285>
    14ac: a0 01        	ldy	#$1
    14ae: 18           	clc
    14af: a5 15        	lda	$15                     ; 0x2015 <main+0x286>
    14b1: 69 00        	adc	#$0
    14b3: aa           	tax
    14b4: a5 14        	lda	$14                     ; 0x2014 <main+0x285>
    14b6: 69 30        	adc	#$30
    14b8: 86 14        	stx	$14                     ; 0x2014 <main+0x285>
    14ba: 85 15        	sta	$15                     ; 0x2015 <main+0x286>
    14bc: b2 14        	lda	($14)                   ; 0x2014 <main+0x285>
    14be: 85 16        	sta	$16                     ; 0x2016 <main+0x287>
    14c0: b1 14        	lda	($14),y                 ; 0x2014 <main+0x285>
    14c2: aa           	tax
    14c3: a5 16        	lda	$16                     ; 0x2016 <main+0x287>
    14c5: 20 78 0c     	jsr	$c78 <displayFileList>
    14c8: b2 24        	lda	($24)                   ; 0x2024 <main+0x295>
    14ca: 85 12        	sta	$12                     ; 0x2012 <main+0x283>
    14cc: a0 01        	ldy	#$1
    14ce: b1 24        	lda	($24),y                 ; 0x2024 <main+0x295>
    14d0: 85 13        	sta	$13                     ; 0x2013 <main+0x284>
    14d2: b2 24        	lda	($24)                   ; 0x2024 <main+0x295>
    14d4: 85 14        	sta	$14                     ; 0x2014 <main+0x285>
    14d6: b1 24        	lda	($24),y                 ; 0x2024 <main+0x295>
    14d8: 85 15        	sta	$15                     ; 0x2015 <main+0x286>
    14da: b2 24        	lda	($24)                   ; 0x2024 <main+0x295>
    14dc: 85 16        	sta	$16                     ; 0x2016 <main+0x287>
    14de: b1 24        	lda	($24),y                 ; 0x2024 <main+0x295>
    14e0: 85 18        	sta	$18                     ; 0x2018 <main+0x289>
    14e2: a0 01        	ldy	#$1
    14e4: 18           	clc
    14e5: a5 16        	lda	$16                     ; 0x2016 <main+0x287>
    14e7: 69 fe        	adc	#$fe
    14e9: 85 17        	sta	$17                     ; 0x2017 <main+0x288>
    14eb: a5 18        	lda	$18                     ; 0x2018 <main+0x289>
    14ed: 69 2f        	adc	#$2f
    14ef: aa           	tax
    14f0: b2 12        	lda	($12)                   ; 0x2012 <main+0x283>
    14f2: 85 16        	sta	$16                     ; 0x2016 <main+0x287>
    14f4: a5 17        	lda	$17                     ; 0x2017 <main+0x288>
    14f6: 85 12        	sta	$12                     ; 0x2012 <main+0x283>
    14f8: b1 14        	lda	($14),y                 ; 0x2014 <main+0x285>
    14fa: 86 13        	stx	$13                     ; 0x2013 <main+0x284>
    14fc: 18           	clc
    14fd: 72 12        	adc	($12)                   ; 0x2012 <main+0x283>
    14ff: aa           	tax
    1500: a5 16        	lda	$16                     ; 0x2016 <main+0x287>
    1502: 20 53 38     	jsr	$3853 <textGotoXY>
    1505: a9 fa        	lda	#$fa
    1507: 92 10        	sta	($10)                   ; 0x2010 <main+0x281>
    1509: a9 00        	lda	#$0
    150b: a0 01        	ldy	#$1
    150d: 91 10        	sta	($10),y                 ; 0x2010 <main+0x281>
    150f: a2 e7        	ldx	#$e7
    1511: 86 12        	stx	$12                     ; 0x2012 <main+0x283>
    1513: a2 54        	ldx	#$54
    1515: 86 13        	stx	$13                     ; 0x2013 <main+0x284>
    1517: 20 b6 48     	jsr	$48b6 <printf>
    151a: 4c 25 1c     	jmp	$1c25 <pickFile+0xc20>
    151d: 18           	clc
    151e: a5 10        	lda	$10                     ; 0x2010 <main+0x281>
    1520: 69 05        	adc	#$5
    1522: 85 12        	sta	$12                     ; 0x2012 <main+0x283>
    1524: a5 11        	lda	$11                     ; 0x2011 <main+0x282>
    1526: 69 00        	adc	#$0
    1528: 85 13        	sta	$13                     ; 0x2013 <main+0x284>
    152a: b2 12        	lda	($12)                   ; 0x2012 <main+0x283>
    152c: 85 14        	sta	$14                     ; 0x2014 <main+0x285>
    152e: a0 01        	ldy	#$1
    1530: b1 12        	lda	($12),y                 ; 0x2012 <main+0x283>
    1532: aa           	tax
    1533: 18           	clc
    1534: a5 14        	lda	$14                     ; 0x2014 <main+0x285>
    1536: 69 fc        	adc	#$fc
    1538: 85 14        	sta	$14                     ; 0x2014 <main+0x285>
    153a: 8a           	txa
    153b: 69 2f        	adc	#$2f
    153d: 85 15        	sta	$15                     ; 0x2015 <main+0x286>
    153f: b2 14        	lda	($14)                   ; 0x2014 <main+0x285>
    1541: 85 16        	sta	$16                     ; 0x2016 <main+0x287>
    1543: b2 12        	lda	($12)                   ; 0x2012 <main+0x283>
    1545: 85 17        	sta	$17                     ; 0x2017 <main+0x288>
    1547: b1 12        	lda	($12),y                 ; 0x2012 <main+0x283>
    1549: 85 12        	sta	$12                     ; 0x2012 <main+0x283>
    154b: 18           	clc
    154c: a5 17        	lda	$17                     ; 0x2017 <main+0x288>
    154e: 69 fa        	adc	#$fa
    1550: aa           	tax
    1551: a5 12        	lda	$12                     ; 0x2012 <main+0x283>
    1553: 69 2f        	adc	#$2f
    1555: 85 13        	sta	$13                     ; 0x2013 <main+0x284>
    1557: b1 14        	lda	($14),y                 ; 0x2014 <main+0x285>
    1559: 85 14        	sta	$14                     ; 0x2014 <main+0x285>
    155b: 86 12        	stx	$12                     ; 0x2012 <main+0x283>
    155d: b2 12        	lda	($12)                   ; 0x2012 <main+0x283>
    155f: aa           	tax
    1560: b1 12        	lda	($12),y                 ; 0x2012 <main+0x283>
    1562: 85 12        	sta	$12                     ; 0x2012 <main+0x283>
    1564: a5 14        	lda	$14                     ; 0x2014 <main+0x285>
    1566: 86 13        	stx	$13                     ; 0x2013 <main+0x284>
    1568: a2 ff        	ldx	#$ff
    156a: c6 13        	dec	$13                     ; 0x2013 <main+0x284>
    156c: e4 13        	cpx	$13                     ; 0x2013 <main+0x284>
    156e: f0 03        	beq	$1573 <pickFile+0x56e>
    1570: 4c 78 15     	jmp	$1578 <pickFile+0x573>
    1573: c6 12        	dec	$12                     ; 0x2012 <main+0x283>
    1575: 4c 78 15     	jmp	$1578 <pickFile+0x573>
    1578: a6 16        	ldx	$16                     ; 0x2016 <main+0x287>
    157a: e4 13        	cpx	$13                     ; 0x2013 <main+0x284>
    157c: e5 12        	sbc	$12                     ; 0x2012 <main+0x283>
    157e: 70 02        	bvs	$1582 <pickFile+0x57d>
    1580: 80 04        	bra	$1586 <pickFile+0x581>
    1582: 49 80        	eor	#$80
    1584: 80 02        	bra	$1588 <pickFile+0x583>
    1586: 80 00        	bra	$1588 <pickFile+0x583>
    1588: aa           	tax
    1589: 30 03        	bmi	$158e <pickFile+0x589>
    158b: 4c 9a 18     	jmp	$189a <pickFile+0x895>
    158e: 18           	clc
    158f: a5 10        	lda	$10                     ; 0x2010 <main+0x281>
    1591: 69 05        	adc	#$5
    1593: 85 12        	sta	$12                     ; 0x2012 <main+0x283>
    1595: a5 11        	lda	$11                     ; 0x2011 <main+0x282>
    1597: 69 00        	adc	#$0
    1599: 85 13        	sta	$13                     ; 0x2013 <main+0x284>
    159b: b2 12        	lda	($12)                   ; 0x2012 <main+0x283>
    159d: 85 14        	sta	$14                     ; 0x2014 <main+0x285>
    159f: a0 01        	ldy	#$1
    15a1: b1 12        	lda	($12),y                 ; 0x2012 <main+0x283>
    15a3: aa           	tax
    15a4: 18           	clc
    15a5: a5 14        	lda	$14                     ; 0x2014 <main+0x285>
    15a7: 69 fe        	adc	#$fe
    15a9: 85 12        	sta	$12                     ; 0x2012 <main+0x283>
    15ab: 8a           	txa
    15ac: 69 2f        	adc	#$2f
    15ae: 85 13        	sta	$13                     ; 0x2013 <main+0x284>
    15b0: b2 12        	lda	($12)                   ; 0x2012 <main+0x283>
    15b2: 85 14        	sta	$14                     ; 0x2014 <main+0x285>
    15b4: b1 12        	lda	($12),y                 ; 0x2012 <main+0x283>
    15b6: a6 14        	ldx	$14                     ; 0x2014 <main+0x285>
    15b8: e0 0f        	cpx	#$f
    15ba: e9 00        	sbc	#$0
    15bc: 70 02        	bvs	$15c0 <pickFile+0x5bb>
    15be: 80 04        	bra	$15c4 <pickFile+0x5bf>
    15c0: 49 80        	eor	#$80
    15c2: 80 02        	bra	$15c6 <pickFile+0x5c1>
    15c4: 80 00        	bra	$15c6 <pickFile+0x5c1>
    15c6: aa           	tax
    15c7: 30 03        	bmi	$15cc <pickFile+0x5c7>
    15c9: 4c da 16     	jmp	$16da <pickFile+0x6d5>
    15cc: 18           	clc
    15cd: a5 10        	lda	$10                     ; 0x2010 <main+0x281>
    15cf: 69 05        	adc	#$5
    15d1: 85 24        	sta	$24                     ; 0x2024 <main+0x295>
    15d3: a5 11        	lda	$11                     ; 0x2011 <main+0x282>
    15d5: 69 00        	adc	#$0
    15d7: 85 25        	sta	$25                     ; 0x2025 <main+0x296>
    15d9: b2 24        	lda	($24)                   ; 0x2024 <main+0x295>
    15db: 85 12        	sta	$12                     ; 0x2012 <main+0x283>
    15dd: a0 01        	ldy	#$1
    15df: b1 24        	lda	($24),y                 ; 0x2024 <main+0x295>
    15e1: 85 13        	sta	$13                     ; 0x2013 <main+0x284>
    15e3: b2 12        	lda	($12)                   ; 0x2012 <main+0x283>
    15e5: 85 14        	sta	$14                     ; 0x2014 <main+0x285>
    15e7: b2 24        	lda	($24)                   ; 0x2024 <main+0x295>
    15e9: 85 12        	sta	$12                     ; 0x2012 <main+0x283>
    15eb: b1 24        	lda	($24),y                 ; 0x2024 <main+0x295>
    15ed: 85 13        	sta	$13                     ; 0x2013 <main+0x284>
    15ef: b2 24        	lda	($24)                   ; 0x2024 <main+0x295>
    15f1: 85 16        	sta	$16                     ; 0x2016 <main+0x287>
    15f3: b1 24        	lda	($24),y                 ; 0x2024 <main+0x295>
    15f5: 85 15        	sta	$15                     ; 0x2015 <main+0x286>
    15f7: 18           	clc
    15f8: a5 16        	lda	$16                     ; 0x2016 <main+0x287>
    15fa: 69 fe        	adc	#$fe
    15fc: aa           	tax
    15fd: a5 15        	lda	$15                     ; 0x2015 <main+0x286>
    15ff: 69 2f        	adc	#$2f
    1601: 85 15        	sta	$15                     ; 0x2015 <main+0x286>
    1603: b1 12        	lda	($12),y                 ; 0x2012 <main+0x283>
    1605: 86 12        	stx	$12                     ; 0x2012 <main+0x283>
    1607: a6 15        	ldx	$15                     ; 0x2015 <main+0x286>
    1609: 86 13        	stx	$13                     ; 0x2013 <main+0x284>
    160b: 18           	clc
    160c: 72 12        	adc	($12)                   ; 0x2012 <main+0x283>
    160e: aa           	tax
    160f: a5 14        	lda	$14                     ; 0x2014 <main+0x285>
    1611: 20 53 38     	jsr	$3853 <textGotoXY>
    1614: a9 20        	lda	#$20
    1616: 92 10        	sta	($10)                   ; 0x2010 <main+0x281>
    1618: a9 00        	lda	#$0
    161a: a0 01        	ldy	#$1
    161c: 91 10        	sta	($10),y                 ; 0x2010 <main+0x281>
    161e: a2 e7        	ldx	#$e7
    1620: 86 12        	stx	$12                     ; 0x2012 <main+0x283>
    1622: a2 54        	ldx	#$54
    1624: 86 13        	stx	$13                     ; 0x2013 <main+0x284>
    1626: 20 b6 48     	jsr	$48b6 <printf>
    1629: b2 24        	lda	($24)                   ; 0x2024 <main+0x295>
    162b: 85 13        	sta	$13                     ; 0x2013 <main+0x284>
    162d: a0 01        	ldy	#$1
    162f: b1 24        	lda	($24),y                 ; 0x2024 <main+0x295>
    1631: 85 12        	sta	$12                     ; 0x2012 <main+0x283>
    1633: 18           	clc
    1634: a5 13        	lda	$13                     ; 0x2013 <main+0x284>
    1636: 69 fc        	adc	#$fc
    1638: aa           	tax
    1639: a5 12        	lda	$12                     ; 0x2012 <main+0x283>
    163b: 69 2f        	adc	#$2f
    163d: 86 12        	stx	$12                     ; 0x2012 <main+0x283>
    163f: 85 13        	sta	$13                     ; 0x2013 <main+0x284>
    1641: b2 12        	lda	($12)                   ; 0x2012 <main+0x283>
    1643: 85 14        	sta	$14                     ; 0x2014 <main+0x285>
    1645: b1 12        	lda	($12),y                 ; 0x2012 <main+0x283>
    1647: aa           	tax
    1648: a5 14        	lda	$14                     ; 0x2014 <main+0x285>
    164a: 1a           	inc
    164b: f0 03        	beq	$1650 <pickFile+0x64b>
    164d: 4c 54 16     	jmp	$1654 <pickFile+0x64f>
    1650: e8           	inx
    1651: 4c 54 16     	jmp	$1654 <pickFile+0x64f>
    1654: 92 12        	sta	($12)                   ; 0x2012 <main+0x283>
    1656: 8a           	txa
    1657: 91 12        	sta	($12),y                 ; 0x2012 <main+0x283>
    1659: b2 24        	lda	($24)                   ; 0x2024 <main+0x295>
    165b: 85 13        	sta	$13                     ; 0x2013 <main+0x284>
    165d: b1 24        	lda	($24),y                 ; 0x2024 <main+0x295>
    165f: 85 12        	sta	$12                     ; 0x2012 <main+0x283>
    1661: 18           	clc
    1662: a5 13        	lda	$13                     ; 0x2013 <main+0x284>
    1664: 69 fe        	adc	#$fe
    1666: aa           	tax
    1667: a5 12        	lda	$12                     ; 0x2012 <main+0x283>
    1669: 69 2f        	adc	#$2f
    166b: 86 12        	stx	$12                     ; 0x2012 <main+0x283>
    166d: 85 13        	sta	$13                     ; 0x2013 <main+0x284>
    166f: b2 12        	lda	($12)                   ; 0x2012 <main+0x283>
    1671: 85 14        	sta	$14                     ; 0x2014 <main+0x285>
    1673: b1 12        	lda	($12),y                 ; 0x2012 <main+0x283>
    1675: aa           	tax
    1676: a5 14        	lda	$14                     ; 0x2014 <main+0x285>
    1678: 1a           	inc
    1679: f0 03        	beq	$167e <pickFile+0x679>
    167b: 4c 82 16     	jmp	$1682 <pickFile+0x67d>
    167e: e8           	inx
    167f: 4c 82 16     	jmp	$1682 <pickFile+0x67d>
    1682: 92 12        	sta	($12)                   ; 0x2012 <main+0x283>
    1684: 8a           	txa
    1685: 91 12        	sta	($12),y                 ; 0x2012 <main+0x283>
    1687: b2 24        	lda	($24)                   ; 0x2024 <main+0x295>
    1689: 85 12        	sta	$12                     ; 0x2012 <main+0x283>
    168b: b1 24        	lda	($24),y                 ; 0x2024 <main+0x295>
    168d: 85 13        	sta	$13                     ; 0x2013 <main+0x284>
    168f: b2 24        	lda	($24)                   ; 0x2024 <main+0x295>
    1691: 85 14        	sta	$14                     ; 0x2014 <main+0x285>
    1693: b1 24        	lda	($24),y                 ; 0x2024 <main+0x295>
    1695: 85 15        	sta	$15                     ; 0x2015 <main+0x286>
    1697: b2 24        	lda	($24)                   ; 0x2024 <main+0x295>
    1699: 85 16        	sta	$16                     ; 0x2016 <main+0x287>
    169b: b1 24        	lda	($24),y                 ; 0x2024 <main+0x295>
    169d: 85 18        	sta	$18                     ; 0x2018 <main+0x289>
    169f: a0 01        	ldy	#$1
    16a1: 18           	clc
    16a2: a5 16        	lda	$16                     ; 0x2016 <main+0x287>
    16a4: 69 fe        	adc	#$fe
    16a6: 85 17        	sta	$17                     ; 0x2017 <main+0x288>
    16a8: a5 18        	lda	$18                     ; 0x2018 <main+0x289>
    16aa: 69 2f        	adc	#$2f
    16ac: aa           	tax
    16ad: b2 12        	lda	($12)                   ; 0x2012 <main+0x283>
    16af: 85 16        	sta	$16                     ; 0x2016 <main+0x287>
    16b1: a5 17        	lda	$17                     ; 0x2017 <main+0x288>
    16b3: 85 12        	sta	$12                     ; 0x2012 <main+0x283>
    16b5: b1 14        	lda	($14),y                 ; 0x2014 <main+0x285>
    16b7: 86 13        	stx	$13                     ; 0x2013 <main+0x284>
    16b9: 18           	clc
    16ba: 72 12        	adc	($12)                   ; 0x2012 <main+0x283>
    16bc: aa           	tax
    16bd: a5 16        	lda	$16                     ; 0x2016 <main+0x287>
    16bf: 20 53 38     	jsr	$3853 <textGotoXY>
    16c2: a9 fa        	lda	#$fa
    16c4: 92 10        	sta	($10)                   ; 0x2010 <main+0x281>
    16c6: a9 00        	lda	#$0
    16c8: a0 01        	ldy	#$1
    16ca: 91 10        	sta	($10),y                 ; 0x2010 <main+0x281>
    16cc: a2 e7        	ldx	#$e7
    16ce: 86 12        	stx	$12                     ; 0x2012 <main+0x283>
    16d0: a2 54        	ldx	#$54
    16d2: 86 13        	stx	$13                     ; 0x2013 <main+0x284>
    16d4: 20 b6 48     	jsr	$48b6 <printf>
    16d7: 4c 9a 18     	jmp	$189a <pickFile+0x895>
    16da: 18           	clc
    16db: a5 10        	lda	$10                     ; 0x2010 <main+0x281>
    16dd: 69 05        	adc	#$5
    16df: 85 12        	sta	$12                     ; 0x2012 <main+0x283>
    16e1: a5 11        	lda	$11                     ; 0x2011 <main+0x282>
    16e3: 69 00        	adc	#$0
    16e5: 85 13        	sta	$13                     ; 0x2013 <main+0x284>
    16e7: b2 12        	lda	($12)                   ; 0x2012 <main+0x283>
    16e9: 85 14        	sta	$14                     ; 0x2014 <main+0x285>
    16eb: a0 01        	ldy	#$1
    16ed: b1 12        	lda	($12),y                 ; 0x2012 <main+0x283>
    16ef: aa           	tax
    16f0: 18           	clc
    16f1: a5 14        	lda	$14                     ; 0x2014 <main+0x285>
    16f3: 69 fe        	adc	#$fe
    16f5: 85 12        	sta	$12                     ; 0x2012 <main+0x283>
    16f7: 8a           	txa
    16f8: 69 2f        	adc	#$2f
    16fa: 85 13        	sta	$13                     ; 0x2013 <main+0x284>
    16fc: b2 12        	lda	($12)                   ; 0x2012 <main+0x283>
    16fe: 85 14        	sta	$14                     ; 0x2014 <main+0x285>
    1700: b1 12        	lda	($12),y                 ; 0x2012 <main+0x283>
    1702: f0 02        	beq	$1706 <pickFile+0x701>
    1704: 80 0f        	bra	$1715 <pickFile+0x710>
    1706: a6 14        	ldx	$14                     ; 0x2014 <main+0x285>
    1708: e0 0f        	cpx	#$f
    170a: f0 02        	beq	$170e <pickFile+0x709>
    170c: 80 02        	bra	$1710 <pickFile+0x70b>
    170e: 80 03        	bra	$1713 <pickFile+0x70e>
    1710: 4c 9a 18     	jmp	$189a <pickFile+0x895>
    1713: 80 03        	bra	$1718 <pickFile+0x713>
    1715: 4c 9a 18     	jmp	$189a <pickFile+0x895>
    1718: 80 00        	bra	$171a <pickFile+0x715>
    171a: 18           	clc
    171b: a5 10        	lda	$10                     ; 0x2010 <main+0x281>
    171d: 69 05        	adc	#$5
    171f: 85 12        	sta	$12                     ; 0x2012 <main+0x283>
    1721: a5 11        	lda	$11                     ; 0x2011 <main+0x282>
    1723: 69 00        	adc	#$0
    1725: 85 13        	sta	$13                     ; 0x2013 <main+0x284>
    1727: b2 12        	lda	($12)                   ; 0x2012 <main+0x283>
    1729: 85 14        	sta	$14                     ; 0x2014 <main+0x285>
    172b: a0 01        	ldy	#$1
    172d: b1 12        	lda	($12),y                 ; 0x2012 <main+0x283>
    172f: aa           	tax
    1730: 18           	clc
    1731: a5 14        	lda	$14                     ; 0x2014 <main+0x285>
    1733: 69 fa        	adc	#$fa
    1735: 85 14        	sta	$14                     ; 0x2014 <main+0x285>
    1737: 8a           	txa
    1738: 69 2f        	adc	#$2f
    173a: 85 15        	sta	$15                     ; 0x2015 <main+0x286>
    173c: b2 12        	lda	($12)                   ; 0x2012 <main+0x283>
    173e: 85 16        	sta	$16                     ; 0x2016 <main+0x287>
    1740: b1 12        	lda	($12),y                 ; 0x2012 <main+0x283>
    1742: 85 12        	sta	$12                     ; 0x2012 <main+0x283>
    1744: 18           	clc
    1745: a5 16        	lda	$16                     ; 0x2016 <main+0x287>
    1747: 69 fc        	adc	#$fc
    1749: aa           	tax
    174a: a5 12        	lda	$12                     ; 0x2012 <main+0x283>
    174c: 69 2f        	adc	#$2f
    174e: 86 12        	stx	$12                     ; 0x2012 <main+0x283>
    1750: 85 13        	sta	$13                     ; 0x2013 <main+0x284>
    1752: b2 12        	lda	($12)                   ; 0x2012 <main+0x283>
    1754: 85 16        	sta	$16                     ; 0x2016 <main+0x287>
    1756: b1 12        	lda	($12),y                 ; 0x2012 <main+0x283>
    1758: aa           	tax
    1759: a5 16        	lda	$16                     ; 0x2016 <main+0x287>
    175b: d2 14        	cmp	($14)                   ; 0x2014 <main+0x285>
    175d: 8a           	txa
    175e: f1 14        	sbc	($14),y                 ; 0x2014 <main+0x285>
    1760: 70 02        	bvs	$1764 <pickFile+0x75f>
    1762: 80 04        	bra	$1768 <pickFile+0x763>
    1764: 49 80        	eor	#$80
    1766: 80 02        	bra	$176a <pickFile+0x765>
    1768: 80 00        	bra	$176a <pickFile+0x765>
    176a: aa           	tax
    176b: 30 03        	bmi	$1770 <pickFile+0x76b>
    176d: 4c 9a 18     	jmp	$189a <pickFile+0x895>
    1770: 18           	clc
    1771: a5 10        	lda	$10                     ; 0x2010 <main+0x281>
    1773: 69 05        	adc	#$5
    1775: 85 24        	sta	$24                     ; 0x2024 <main+0x295>
    1777: a5 11        	lda	$11                     ; 0x2011 <main+0x282>
    1779: 69 00        	adc	#$0
    177b: 85 25        	sta	$25                     ; 0x2025 <main+0x296>
    177d: b2 24        	lda	($24)                   ; 0x2024 <main+0x295>
    177f: 85 12        	sta	$12                     ; 0x2012 <main+0x283>
    1781: a0 01        	ldy	#$1
    1783: b1 24        	lda	($24),y                 ; 0x2024 <main+0x295>
    1785: 85 13        	sta	$13                     ; 0x2013 <main+0x284>
    1787: b2 12        	lda	($12)                   ; 0x2012 <main+0x283>
    1789: 85 14        	sta	$14                     ; 0x2014 <main+0x285>
    178b: b2 24        	lda	($24)                   ; 0x2024 <main+0x295>
    178d: 85 12        	sta	$12                     ; 0x2012 <main+0x283>
    178f: b1 24        	lda	($24),y                 ; 0x2024 <main+0x295>
    1791: 85 13        	sta	$13                     ; 0x2013 <main+0x284>
    1793: b2 24        	lda	($24)                   ; 0x2024 <main+0x295>
    1795: 85 16        	sta	$16                     ; 0x2016 <main+0x287>
    1797: b1 24        	lda	($24),y                 ; 0x2024 <main+0x295>
    1799: 85 15        	sta	$15                     ; 0x2015 <main+0x286>
    179b: 18           	clc
    179c: a5 16        	lda	$16                     ; 0x2016 <main+0x287>
    179e: 69 fe        	adc	#$fe
    17a0: aa           	tax
    17a1: a5 15        	lda	$15                     ; 0x2015 <main+0x286>
    17a3: 69 2f        	adc	#$2f
    17a5: 85 15        	sta	$15                     ; 0x2015 <main+0x286>
    17a7: b1 12        	lda	($12),y                 ; 0x2012 <main+0x283>
    17a9: 86 12        	stx	$12                     ; 0x2012 <main+0x283>
    17ab: a6 15        	ldx	$15                     ; 0x2015 <main+0x286>
    17ad: 86 13        	stx	$13                     ; 0x2013 <main+0x284>
    17af: 18           	clc
    17b0: 72 12        	adc	($12)                   ; 0x2012 <main+0x283>
    17b2: aa           	tax
    17b3: a5 14        	lda	$14                     ; 0x2014 <main+0x285>
    17b5: 20 53 38     	jsr	$3853 <textGotoXY>
    17b8: a9 20        	lda	#$20
    17ba: 92 10        	sta	($10)                   ; 0x2010 <main+0x281>
    17bc: a9 00        	lda	#$0
    17be: a0 01        	ldy	#$1
    17c0: 91 10        	sta	($10),y                 ; 0x2010 <main+0x281>
    17c2: a2 e7        	ldx	#$e7
    17c4: 86 12        	stx	$12                     ; 0x2012 <main+0x283>
    17c6: a2 54        	ldx	#$54
    17c8: 86 13        	stx	$13                     ; 0x2013 <main+0x284>
    17ca: 20 b6 48     	jsr	$48b6 <printf>
    17cd: b2 24        	lda	($24)                   ; 0x2024 <main+0x295>
    17cf: 85 13        	sta	$13                     ; 0x2013 <main+0x284>
    17d1: a0 01        	ldy	#$1
    17d3: b1 24        	lda	($24),y                 ; 0x2024 <main+0x295>
    17d5: 85 12        	sta	$12                     ; 0x2012 <main+0x283>
    17d7: 18           	clc
    17d8: a5 13        	lda	$13                     ; 0x2013 <main+0x284>
    17da: 69 fe        	adc	#$fe
    17dc: aa           	tax
    17dd: a5 12        	lda	$12                     ; 0x2012 <main+0x283>
    17df: 69 2f        	adc	#$2f
    17e1: 86 12        	stx	$12                     ; 0x2012 <main+0x283>
    17e3: 85 13        	sta	$13                     ; 0x2013 <main+0x284>
    17e5: a9 00        	lda	#$0
    17e7: 92 12        	sta	($12)                   ; 0x2012 <main+0x283>
    17e9: 91 12        	sta	($12),y                 ; 0x2012 <main+0x283>
    17eb: b2 24        	lda	($24)                   ; 0x2024 <main+0x295>
    17ed: 85 13        	sta	$13                     ; 0x2013 <main+0x284>
    17ef: b1 24        	lda	($24),y                 ; 0x2024 <main+0x295>
    17f1: 85 12        	sta	$12                     ; 0x2012 <main+0x283>
    17f3: 18           	clc
    17f4: a5 13        	lda	$13                     ; 0x2013 <main+0x284>
    17f6: 69 00        	adc	#$0
    17f8: aa           	tax
    17f9: a5 12        	lda	$12                     ; 0x2012 <main+0x283>
    17fb: 69 30        	adc	#$30
    17fd: 86 12        	stx	$12                     ; 0x2012 <main+0x283>
    17ff: 85 13        	sta	$13                     ; 0x2013 <main+0x284>
    1801: b2 12        	lda	($12)                   ; 0x2012 <main+0x283>
    1803: 85 15        	sta	$15                     ; 0x2015 <main+0x286>
    1805: b1 12        	lda	($12),y                 ; 0x2012 <main+0x283>
    1807: 85 14        	sta	$14                     ; 0x2014 <main+0x285>
    1809: 18           	clc
    180a: a5 15        	lda	$15                     ; 0x2015 <main+0x286>
    180c: 69 0f        	adc	#$f
    180e: 85 15        	sta	$15                     ; 0x2015 <main+0x286>
    1810: a5 14        	lda	$14                     ; 0x2014 <main+0x285>
    1812: 69 00        	adc	#$0
    1814: aa           	tax
    1815: a5 15        	lda	$15                     ; 0x2015 <main+0x286>
    1817: 92 12        	sta	($12)                   ; 0x2012 <main+0x283>
    1819: 8a           	txa
    181a: 91 12        	sta	($12),y                 ; 0x2012 <main+0x283>
    181c: b2 24        	lda	($24)                   ; 0x2024 <main+0x295>
    181e: 85 12        	sta	$12                     ; 0x2012 <main+0x283>
    1820: b1 24        	lda	($24),y                 ; 0x2024 <main+0x295>
    1822: 85 13        	sta	$13                     ; 0x2013 <main+0x284>
    1824: b2 24        	lda	($24)                   ; 0x2024 <main+0x295>
    1826: 85 15        	sta	$15                     ; 0x2015 <main+0x286>
    1828: b1 24        	lda	($24),y                 ; 0x2024 <main+0x295>
    182a: 85 14        	sta	$14                     ; 0x2014 <main+0x285>
    182c: a0 01        	ldy	#$1
    182e: 18           	clc
    182f: a5 15        	lda	$15                     ; 0x2015 <main+0x286>
    1831: 69 00        	adc	#$0
    1833: aa           	tax
    1834: a5 14        	lda	$14                     ; 0x2014 <main+0x285>
    1836: 69 30        	adc	#$30
    1838: 86 14        	stx	$14                     ; 0x2014 <main+0x285>
    183a: 85 15        	sta	$15                     ; 0x2015 <main+0x286>
    183c: b2 14        	lda	($14)                   ; 0x2014 <main+0x285>
    183e: 85 16        	sta	$16                     ; 0x2016 <main+0x287>
    1840: b1 14        	lda	($14),y                 ; 0x2014 <main+0x285>
    1842: aa           	tax
    1843: a5 16        	lda	$16                     ; 0x2016 <main+0x287>
    1845: 20 78 0c     	jsr	$c78 <displayFileList>
    1848: b2 24        	lda	($24)                   ; 0x2024 <main+0x295>
    184a: 85 12        	sta	$12                     ; 0x2012 <main+0x283>
    184c: a0 01        	ldy	#$1
    184e: b1 24        	lda	($24),y                 ; 0x2024 <main+0x295>
    1850: 85 13        	sta	$13                     ; 0x2013 <main+0x284>
    1852: b2 24        	lda	($24)                   ; 0x2024 <main+0x295>
    1854: 85 14        	sta	$14                     ; 0x2014 <main+0x285>
    1856: b1 24        	lda	($24),y                 ; 0x2024 <main+0x295>
    1858: 85 15        	sta	$15                     ; 0x2015 <main+0x286>
    185a: b2 24        	lda	($24)                   ; 0x2024 <main+0x295>
    185c: 85 16        	sta	$16                     ; 0x2016 <main+0x287>
    185e: b1 24        	lda	($24),y                 ; 0x2024 <main+0x295>
    1860: 85 18        	sta	$18                     ; 0x2018 <main+0x289>
    1862: a0 01        	ldy	#$1
    1864: 18           	clc
    1865: a5 16        	lda	$16                     ; 0x2016 <main+0x287>
    1867: 69 fe        	adc	#$fe
    1869: 85 17        	sta	$17                     ; 0x2017 <main+0x288>
    186b: a5 18        	lda	$18                     ; 0x2018 <main+0x289>
    186d: 69 2f        	adc	#$2f
    186f: aa           	tax
    1870: b2 12        	lda	($12)                   ; 0x2012 <main+0x283>
    1872: 85 16        	sta	$16                     ; 0x2016 <main+0x287>
    1874: a5 17        	lda	$17                     ; 0x2017 <main+0x288>
    1876: 85 12        	sta	$12                     ; 0x2012 <main+0x283>
    1878: b1 14        	lda	($14),y                 ; 0x2014 <main+0x285>
    187a: 86 13        	stx	$13                     ; 0x2013 <main+0x284>
    187c: 18           	clc
    187d: 72 12        	adc	($12)                   ; 0x2012 <main+0x283>
    187f: aa           	tax
    1880: a5 16        	lda	$16                     ; 0x2016 <main+0x287>
    1882: 20 53 38     	jsr	$3853 <textGotoXY>
    1885: a9 fa        	lda	#$fa
    1887: 92 10        	sta	($10)                   ; 0x2010 <main+0x281>
    1889: a9 00        	lda	#$0
    188b: a0 01        	ldy	#$1
    188d: 91 10        	sta	($10),y                 ; 0x2010 <main+0x281>
    188f: a2 e7        	ldx	#$e7
    1891: 86 12        	stx	$12                     ; 0x2012 <main+0x283>
    1893: a2 54        	ldx	#$54
    1895: 86 13        	stx	$13                     ; 0x2013 <main+0x284>
    1897: 20 b6 48     	jsr	$48b6 <printf>
    189a: 4c 25 1c     	jmp	$1c25 <pickFile+0xc20>
    189d: 18           	clc
    189e: a5 10        	lda	$10                     ; 0x2010 <main+0x281>
    18a0: 69 05        	adc	#$5
    18a2: 85 12        	sta	$12                     ; 0x2012 <main+0x283>
    18a4: a5 11        	lda	$11                     ; 0x2011 <main+0x282>
    18a6: 69 00        	adc	#$0
    18a8: 85 13        	sta	$13                     ; 0x2013 <main+0x284>
    18aa: b2 12        	lda	($12)                   ; 0x2012 <main+0x283>
    18ac: 85 14        	sta	$14                     ; 0x2014 <main+0x285>
    18ae: a0 01        	ldy	#$1
    18b0: b1 12        	lda	($12),y                 ; 0x2012 <main+0x283>
    18b2: aa           	tax
    18b3: 18           	clc
    18b4: a5 14        	lda	$14                     ; 0x2014 <main+0x285>
    18b6: 69 fc        	adc	#$fc
    18b8: 85 12        	sta	$12                     ; 0x2012 <main+0x283>
    18ba: 8a           	txa
    18bb: 69 2f        	adc	#$2f
    18bd: 85 13        	sta	$13                     ; 0x2013 <main+0x284>
    18bf: b2 12        	lda	($12)                   ; 0x2012 <main+0x283>
    18c1: 85 14        	sta	$14                     ; 0x2014 <main+0x285>
    18c3: b1 12        	lda	($12),y                 ; 0x2012 <main+0x283>
    18c5: a6 14        	ldx	$14                     ; 0x2014 <main+0x285>
    18c7: e0 0f        	cpx	#$f
    18c9: e9 00        	sbc	#$0
    18cb: 70 02        	bvs	$18cf <pickFile+0x8ca>
    18cd: 80 04        	bra	$18d3 <pickFile+0x8ce>
    18cf: 49 80        	eor	#$80
    18d1: 80 02        	bra	$18d5 <pickFile+0x8d0>
    18d3: 80 00        	bra	$18d5 <pickFile+0x8d0>
    18d5: aa           	tax
    18d6: 10 03        	bpl	$18db <pickFile+0x8d6>
    18d8: 4c 1a 1a     	jmp	$1a1a <pickFile+0xa15>
    18db: 18           	clc
    18dc: a5 10        	lda	$10                     ; 0x2010 <main+0x281>
    18de: 69 05        	adc	#$5
    18e0: 85 24        	sta	$24                     ; 0x2024 <main+0x295>
    18e2: a5 11        	lda	$11                     ; 0x2011 <main+0x282>
    18e4: 69 00        	adc	#$0
    18e6: 85 25        	sta	$25                     ; 0x2025 <main+0x296>
    18e8: b2 24        	lda	($24)                   ; 0x2024 <main+0x295>
    18ea: 85 12        	sta	$12                     ; 0x2012 <main+0x283>
    18ec: a0 01        	ldy	#$1
    18ee: b1 24        	lda	($24),y                 ; 0x2024 <main+0x295>
    18f0: 85 13        	sta	$13                     ; 0x2013 <main+0x284>
    18f2: b2 12        	lda	($12)                   ; 0x2012 <main+0x283>
    18f4: 85 14        	sta	$14                     ; 0x2014 <main+0x285>
    18f6: b2 24        	lda	($24)                   ; 0x2024 <main+0x295>
    18f8: 85 12        	sta	$12                     ; 0x2012 <main+0x283>
    18fa: b1 24        	lda	($24),y                 ; 0x2024 <main+0x295>
    18fc: 85 13        	sta	$13                     ; 0x2013 <main+0x284>
    18fe: b2 24        	lda	($24)                   ; 0x2024 <main+0x295>
    1900: 85 16        	sta	$16                     ; 0x2016 <main+0x287>
    1902: b1 24        	lda	($24),y                 ; 0x2024 <main+0x295>
    1904: 85 15        	sta	$15                     ; 0x2015 <main+0x286>
    1906: 18           	clc
    1907: a5 16        	lda	$16                     ; 0x2016 <main+0x287>
    1909: 69 fe        	adc	#$fe
    190b: aa           	tax
    190c: a5 15        	lda	$15                     ; 0x2015 <main+0x286>
    190e: 69 2f        	adc	#$2f
    1910: 85 15        	sta	$15                     ; 0x2015 <main+0x286>
    1912: b1 12        	lda	($12),y                 ; 0x2012 <main+0x283>
    1914: 86 12        	stx	$12                     ; 0x2012 <main+0x283>
    1916: a6 15        	ldx	$15                     ; 0x2015 <main+0x286>
    1918: 86 13        	stx	$13                     ; 0x2013 <main+0x284>
    191a: 18           	clc
    191b: 72 12        	adc	($12)                   ; 0x2012 <main+0x283>
    191d: aa           	tax
    191e: a5 14        	lda	$14                     ; 0x2014 <main+0x285>
    1920: 20 53 38     	jsr	$3853 <textGotoXY>
    1923: a9 20        	lda	#$20
    1925: 92 10        	sta	($10)                   ; 0x2010 <main+0x281>
    1927: a9 00        	lda	#$0
    1929: a0 01        	ldy	#$1
    192b: 91 10        	sta	($10),y                 ; 0x2010 <main+0x281>
    192d: a2 e7        	ldx	#$e7
    192f: 86 12        	stx	$12                     ; 0x2012 <main+0x283>
    1931: a2 54        	ldx	#$54
    1933: 86 13        	stx	$13                     ; 0x2013 <main+0x284>
    1935: 20 b6 48     	jsr	$48b6 <printf>
    1938: b2 24        	lda	($24)                   ; 0x2024 <main+0x295>
    193a: 85 13        	sta	$13                     ; 0x2013 <main+0x284>
    193c: a0 01        	ldy	#$1
    193e: b1 24        	lda	($24),y                 ; 0x2024 <main+0x295>
    1940: 85 12        	sta	$12                     ; 0x2012 <main+0x283>
    1942: 18           	clc
    1943: a5 13        	lda	$13                     ; 0x2013 <main+0x284>
    1945: 69 fc        	adc	#$fc
    1947: aa           	tax
    1948: a5 12        	lda	$12                     ; 0x2012 <main+0x283>
    194a: 69 2f        	adc	#$2f
    194c: 86 12        	stx	$12                     ; 0x2012 <main+0x283>
    194e: 85 13        	sta	$13                     ; 0x2013 <main+0x284>
    1950: b2 12        	lda	($12)                   ; 0x2012 <main+0x283>
    1952: 85 15        	sta	$15                     ; 0x2015 <main+0x286>
    1954: b1 12        	lda	($12),y                 ; 0x2012 <main+0x283>
    1956: 85 14        	sta	$14                     ; 0x2014 <main+0x285>
    1958: 18           	clc
    1959: a5 15        	lda	$15                     ; 0x2015 <main+0x286>
    195b: 69 f1        	adc	#$f1
    195d: 85 15        	sta	$15                     ; 0x2015 <main+0x286>
    195f: a5 14        	lda	$14                     ; 0x2014 <main+0x285>
    1961: 69 ff        	adc	#$ff
    1963: aa           	tax
    1964: a5 15        	lda	$15                     ; 0x2015 <main+0x286>
    1966: 92 12        	sta	($12)                   ; 0x2012 <main+0x283>
    1968: 8a           	txa
    1969: 91 12        	sta	($12),y                 ; 0x2012 <main+0x283>
    196b: b2 24        	lda	($24)                   ; 0x2024 <main+0x295>
    196d: 85 13        	sta	$13                     ; 0x2013 <main+0x284>
    196f: b1 24        	lda	($24),y                 ; 0x2024 <main+0x295>
    1971: 85 12        	sta	$12                     ; 0x2012 <main+0x283>
    1973: 18           	clc
    1974: a5 13        	lda	$13                     ; 0x2013 <main+0x284>
    1976: 69 00        	adc	#$0
    1978: aa           	tax
    1979: a5 12        	lda	$12                     ; 0x2012 <main+0x283>
    197b: 69 30        	adc	#$30
    197d: 86 12        	stx	$12                     ; 0x2012 <main+0x283>
    197f: 85 13        	sta	$13                     ; 0x2013 <main+0x284>
    1981: b2 12        	lda	($12)                   ; 0x2012 <main+0x283>
    1983: 85 15        	sta	$15                     ; 0x2015 <main+0x286>
    1985: b1 12        	lda	($12),y                 ; 0x2012 <main+0x283>
    1987: 85 14        	sta	$14                     ; 0x2014 <main+0x285>
    1989: 18           	clc
    198a: a5 15        	lda	$15                     ; 0x2015 <main+0x286>
    198c: 69 f1        	adc	#$f1
    198e: 85 15        	sta	$15                     ; 0x2015 <main+0x286>
    1990: a5 14        	lda	$14                     ; 0x2014 <main+0x285>
    1992: 69 ff        	adc	#$ff
    1994: aa           	tax
    1995: a5 15        	lda	$15                     ; 0x2015 <main+0x286>
    1997: 92 12        	sta	($12)                   ; 0x2012 <main+0x283>
    1999: 8a           	txa
    199a: 91 12        	sta	($12),y                 ; 0x2012 <main+0x283>
    199c: b2 24        	lda	($24)                   ; 0x2024 <main+0x295>
    199e: 85 12        	sta	$12                     ; 0x2012 <main+0x283>
    19a0: b1 24        	lda	($24),y                 ; 0x2024 <main+0x295>
    19a2: 85 13        	sta	$13                     ; 0x2013 <main+0x284>
    19a4: b2 24        	lda	($24)                   ; 0x2024 <main+0x295>
    19a6: 85 15        	sta	$15                     ; 0x2015 <main+0x286>
    19a8: b1 24        	lda	($24),y                 ; 0x2024 <main+0x295>
    19aa: 85 14        	sta	$14                     ; 0x2014 <main+0x285>
    19ac: a0 01        	ldy	#$1
    19ae: 18           	clc
    19af: a5 15        	lda	$15                     ; 0x2015 <main+0x286>
    19b1: 69 00        	adc	#$0
    19b3: aa           	tax
    19b4: a5 14        	lda	$14                     ; 0x2014 <main+0x285>
    19b6: 69 30        	adc	#$30
    19b8: 86 14        	stx	$14                     ; 0x2014 <main+0x285>
    19ba: 85 15        	sta	$15                     ; 0x2015 <main+0x286>
    19bc: b2 14        	lda	($14)                   ; 0x2014 <main+0x285>
    19be: 85 16        	sta	$16                     ; 0x2016 <main+0x287>
    19c0: b1 14        	lda	($14),y                 ; 0x2014 <main+0x285>
    19c2: aa           	tax
    19c3: a5 16        	lda	$16                     ; 0x2016 <main+0x287>
    19c5: 20 78 0c     	jsr	$c78 <displayFileList>
    19c8: b2 24        	lda	($24)                   ; 0x2024 <main+0x295>
    19ca: 85 12        	sta	$12                     ; 0x2012 <main+0x283>
    19cc: a0 01        	ldy	#$1
    19ce: b1 24        	lda	($24),y                 ; 0x2024 <main+0x295>
    19d0: 85 13        	sta	$13                     ; 0x2013 <main+0x284>
    19d2: b2 24        	lda	($24)                   ; 0x2024 <main+0x295>
    19d4: 85 14        	sta	$14                     ; 0x2014 <main+0x285>
    19d6: b1 24        	lda	($24),y                 ; 0x2024 <main+0x295>
    19d8: 85 15        	sta	$15                     ; 0x2015 <main+0x286>
    19da: b2 24        	lda	($24)                   ; 0x2024 <main+0x295>
    19dc: 85 16        	sta	$16                     ; 0x2016 <main+0x287>
    19de: b1 24        	lda	($24),y                 ; 0x2024 <main+0x295>
    19e0: 85 18        	sta	$18                     ; 0x2018 <main+0x289>
    19e2: a0 01        	ldy	#$1
    19e4: 18           	clc
    19e5: a5 16        	lda	$16                     ; 0x2016 <main+0x287>
    19e7: 69 fe        	adc	#$fe
    19e9: 85 17        	sta	$17                     ; 0x2017 <main+0x288>
    19eb: a5 18        	lda	$18                     ; 0x2018 <main+0x289>
    19ed: 69 2f        	adc	#$2f
    19ef: aa           	tax
    19f0: b2 12        	lda	($12)                   ; 0x2012 <main+0x283>
    19f2: 85 16        	sta	$16                     ; 0x2016 <main+0x287>
    19f4: a5 17        	lda	$17                     ; 0x2017 <main+0x288>
    19f6: 85 12        	sta	$12                     ; 0x2012 <main+0x283>
    19f8: b1 14        	lda	($14),y                 ; 0x2014 <main+0x285>
    19fa: 86 13        	stx	$13                     ; 0x2013 <main+0x284>
    19fc: 18           	clc
    19fd: 72 12        	adc	($12)                   ; 0x2012 <main+0x283>
    19ff: aa           	tax
    1a00: a5 16        	lda	$16                     ; 0x2016 <main+0x287>
    1a02: 20 53 38     	jsr	$3853 <textGotoXY>
    1a05: a9 fa        	lda	#$fa
    1a07: 92 10        	sta	($10)                   ; 0x2010 <main+0x281>
    1a09: a9 00        	lda	#$0
    1a0b: a0 01        	ldy	#$1
    1a0d: 91 10        	sta	($10),y                 ; 0x2010 <main+0x281>
    1a0f: a2 e7        	ldx	#$e7
    1a11: 86 12        	stx	$12                     ; 0x2012 <main+0x283>
    1a13: a2 54        	ldx	#$54
    1a15: 86 13        	stx	$13                     ; 0x2013 <main+0x284>
    1a17: 20 b6 48     	jsr	$48b6 <printf>
    1a1a: 4c 25 1c     	jmp	$1c25 <pickFile+0xc20>
    1a1d: 18           	clc
    1a1e: a5 10        	lda	$10                     ; 0x2010 <main+0x281>
    1a20: 69 05        	adc	#$5
    1a22: 85 14        	sta	$14                     ; 0x2014 <main+0x285>
    1a24: a5 11        	lda	$11                     ; 0x2011 <main+0x282>
    1a26: 69 00        	adc	#$0
    1a28: 85 15        	sta	$15                     ; 0x2015 <main+0x286>
    1a2a: b2 14        	lda	($14)                   ; 0x2014 <main+0x285>
    1a2c: 85 12        	sta	$12                     ; 0x2012 <main+0x283>
    1a2e: a0 01        	ldy	#$1
    1a30: b1 14        	lda	($14),y                 ; 0x2014 <main+0x285>
    1a32: aa           	tax
    1a33: 18           	clc
    1a34: a5 12        	lda	$12                     ; 0x2012 <main+0x283>
    1a36: 69 fa        	adc	#$fa
    1a38: 85 12        	sta	$12                     ; 0x2012 <main+0x283>
    1a3a: 8a           	txa
    1a3b: 69 2f        	adc	#$2f
    1a3d: 85 13        	sta	$13                     ; 0x2013 <main+0x284>
    1a3f: b2 14        	lda	($14)                   ; 0x2014 <main+0x285>
    1a41: 85 17        	sta	$17                     ; 0x2017 <main+0x288>
    1a43: b1 14        	lda	($14),y                 ; 0x2014 <main+0x285>
    1a45: 85 16        	sta	$16                     ; 0x2016 <main+0x287>
    1a47: 18           	clc
    1a48: a5 17        	lda	$17                     ; 0x2017 <main+0x288>
    1a4a: 69 fc        	adc	#$fc
    1a4c: aa           	tax
    1a4d: a5 16        	lda	$16                     ; 0x2016 <main+0x287>
    1a4f: 69 2f        	adc	#$2f
    1a51: 86 16        	stx	$16                     ; 0x2016 <main+0x287>
    1a53: 85 17        	sta	$17                     ; 0x2017 <main+0x288>
    1a55: b2 16        	lda	($16)                   ; 0x2016 <main+0x287>
    1a57: 85 18        	sta	$18                     ; 0x2018 <main+0x289>
    1a59: b2 14        	lda	($14)                   ; 0x2014 <main+0x285>
    1a5b: 85 19        	sta	$19                     ; 0x2019 <main+0x28a>
    1a5d: b1 14        	lda	($14),y                 ; 0x2014 <main+0x285>
    1a5f: 85 15        	sta	$15                     ; 0x2015 <main+0x286>
    1a61: 18           	clc
    1a62: a5 19        	lda	$19                     ; 0x2019 <main+0x28a>
    1a64: 69 fe        	adc	#$fe
    1a66: 85 14        	sta	$14                     ; 0x2014 <main+0x285>
    1a68: a5 15        	lda	$15                     ; 0x2015 <main+0x286>
    1a6a: 69 2f        	adc	#$2f
    1a6c: 85 15        	sta	$15                     ; 0x2015 <main+0x286>
    1a6e: b1 16        	lda	($16),y                 ; 0x2016 <main+0x287>
    1a70: 85 17        	sta	$17                     ; 0x2017 <main+0x288>
    1a72: 38           	sec
    1a73: a5 18        	lda	$18                     ; 0x2018 <main+0x289>
    1a75: f2 14        	sbc	($14)                   ; 0x2014 <main+0x285>
    1a77: 85 16        	sta	$16                     ; 0x2016 <main+0x287>
    1a79: a5 17        	lda	$17                     ; 0x2017 <main+0x288>
    1a7b: f1 14        	sbc	($14),y                 ; 0x2014 <main+0x285>
    1a7d: 85 15        	sta	$15                     ; 0x2015 <main+0x286>
    1a7f: 18           	clc
    1a80: a5 16        	lda	$16                     ; 0x2016 <main+0x287>
    1a82: 69 10        	adc	#$10
    1a84: 85 14        	sta	$14                     ; 0x2014 <main+0x285>
    1a86: a5 15        	lda	$15                     ; 0x2015 <main+0x286>
    1a88: 69 00        	adc	#$0
    1a8a: aa           	tax
    1a8b: a5 14        	lda	$14                     ; 0x2014 <main+0x285>
    1a8d: d2 12        	cmp	($12)                   ; 0x2012 <main+0x283>
    1a8f: 8a           	txa
    1a90: f1 12        	sbc	($12),y                 ; 0x2012 <main+0x283>
    1a92: 70 02        	bvs	$1a96 <pickFile+0xa91>
    1a94: 80 04        	bra	$1a9a <pickFile+0xa95>
    1a96: 49 80        	eor	#$80
    1a98: 80 02        	bra	$1a9c <pickFile+0xa97>
    1a9a: 80 00        	bra	$1a9c <pickFile+0xa97>
    1a9c: aa           	tax
    1a9d: 30 03        	bmi	$1aa2 <pickFile+0xa9d>
    1a9f: 4c 25 1c     	jmp	$1c25 <pickFile+0xc20>
    1aa2: 18           	clc
    1aa3: a5 10        	lda	$10                     ; 0x2010 <main+0x281>
    1aa5: 69 05        	adc	#$5
    1aa7: 85 24        	sta	$24                     ; 0x2024 <main+0x295>
    1aa9: a5 11        	lda	$11                     ; 0x2011 <main+0x282>
    1aab: 69 00        	adc	#$0
    1aad: 85 25        	sta	$25                     ; 0x2025 <main+0x296>
    1aaf: b2 24        	lda	($24)                   ; 0x2024 <main+0x295>
    1ab1: 85 12        	sta	$12                     ; 0x2012 <main+0x283>
    1ab3: a0 01        	ldy	#$1
    1ab5: b1 24        	lda	($24),y                 ; 0x2024 <main+0x295>
    1ab7: 85 13        	sta	$13                     ; 0x2013 <main+0x284>
    1ab9: b2 12        	lda	($12)                   ; 0x2012 <main+0x283>
    1abb: 85 14        	sta	$14                     ; 0x2014 <main+0x285>
    1abd: b2 24        	lda	($24)                   ; 0x2024 <main+0x295>
    1abf: 85 12        	sta	$12                     ; 0x2012 <main+0x283>
    1ac1: b1 24        	lda	($24),y                 ; 0x2024 <main+0x295>
    1ac3: 85 13        	sta	$13                     ; 0x2013 <main+0x284>
    1ac5: b2 24        	lda	($24)                   ; 0x2024 <main+0x295>
    1ac7: 85 16        	sta	$16                     ; 0x2016 <main+0x287>
    1ac9: b1 24        	lda	($24),y                 ; 0x2024 <main+0x295>
    1acb: 85 15        	sta	$15                     ; 0x2015 <main+0x286>
    1acd: 18           	clc
    1ace: a5 16        	lda	$16                     ; 0x2016 <main+0x287>
    1ad0: 69 fe        	adc	#$fe
    1ad2: aa           	tax
    1ad3: a5 15        	lda	$15                     ; 0x2015 <main+0x286>
    1ad5: 69 2f        	adc	#$2f
    1ad7: 85 15        	sta	$15                     ; 0x2015 <main+0x286>
    1ad9: b1 12        	lda	($12),y                 ; 0x2012 <main+0x283>
    1adb: 86 12        	stx	$12                     ; 0x2012 <main+0x283>
    1add: a6 15        	ldx	$15                     ; 0x2015 <main+0x286>
    1adf: 86 13        	stx	$13                     ; 0x2013 <main+0x284>
    1ae1: 18           	clc
    1ae2: 72 12        	adc	($12)                   ; 0x2012 <main+0x283>
    1ae4: aa           	tax
    1ae5: a5 14        	lda	$14                     ; 0x2014 <main+0x285>
    1ae7: 20 53 38     	jsr	$3853 <textGotoXY>
    1aea: a9 20        	lda	#$20
    1aec: 92 10        	sta	($10)                   ; 0x2010 <main+0x281>
    1aee: a9 00        	lda	#$0
    1af0: a0 01        	ldy	#$1
    1af2: 91 10        	sta	($10),y                 ; 0x2010 <main+0x281>
    1af4: a2 e7        	ldx	#$e7
    1af6: 86 12        	stx	$12                     ; 0x2012 <main+0x283>
    1af8: a2 54        	ldx	#$54
    1afa: 86 13        	stx	$13                     ; 0x2013 <main+0x284>
    1afc: 20 b6 48     	jsr	$48b6 <printf>
    1aff: b2 24        	lda	($24)                   ; 0x2024 <main+0x295>
    1b01: 85 13        	sta	$13                     ; 0x2013 <main+0x284>
    1b03: a0 01        	ldy	#$1
    1b05: b1 24        	lda	($24),y                 ; 0x2024 <main+0x295>
    1b07: 85 12        	sta	$12                     ; 0x2012 <main+0x283>
    1b09: 18           	clc
    1b0a: a5 13        	lda	$13                     ; 0x2013 <main+0x284>
    1b0c: 69 fe        	adc	#$fe
    1b0e: aa           	tax
    1b0f: a5 12        	lda	$12                     ; 0x2012 <main+0x283>
    1b11: 69 2f        	adc	#$2f
    1b13: 86 12        	stx	$12                     ; 0x2012 <main+0x283>
    1b15: 85 13        	sta	$13                     ; 0x2013 <main+0x284>
    1b17: 38           	sec
    1b18: a9 0f        	lda	#$f
    1b1a: f2 12        	sbc	($12)                   ; 0x2012 <main+0x283>
    1b1c: aa           	tax
    1b1d: a9 00        	lda	#$0
    1b1f: f1 12        	sbc	($12),y                 ; 0x2012 <main+0x283>
    1b21: 85 15        	sta	$15                     ; 0x2015 <main+0x286>
    1b23: b2 24        	lda	($24)                   ; 0x2024 <main+0x295>
    1b25: 85 13        	sta	$13                     ; 0x2013 <main+0x284>
    1b27: b1 24        	lda	($24),y                 ; 0x2024 <main+0x295>
    1b29: 85 12        	sta	$12                     ; 0x2012 <main+0x283>
    1b2b: 18           	clc
    1b2c: a5 13        	lda	$13                     ; 0x2013 <main+0x284>
    1b2e: 69 fc        	adc	#$fc
    1b30: 85 14        	sta	$14                     ; 0x2014 <main+0x285>
    1b32: a5 12        	lda	$12                     ; 0x2012 <main+0x283>
    1b34: 69 2f        	adc	#$2f
    1b36: 5a           	phy
    1b37: a4 14        	ldy	$14                     ; 0x2014 <main+0x285>
    1b39: 84 12        	sty	$12                     ; 0x2012 <main+0x283>
    1b3b: 7a           	ply
    1b3c: 85 13        	sta	$13                     ; 0x2013 <main+0x284>
    1b3e: 18           	clc
    1b3f: 8a           	txa
    1b40: 72 12        	adc	($12)                   ; 0x2012 <main+0x283>
    1b42: 85 14        	sta	$14                     ; 0x2014 <main+0x285>
    1b44: a5 15        	lda	$15                     ; 0x2015 <main+0x286>
    1b46: 71 12        	adc	($12),y                 ; 0x2012 <main+0x283>
    1b48: 85 15        	sta	$15                     ; 0x2015 <main+0x286>
    1b4a: a5 14        	lda	$14                     ; 0x2014 <main+0x285>
    1b4c: 92 12        	sta	($12)                   ; 0x2012 <main+0x283>
    1b4e: a5 15        	lda	$15                     ; 0x2015 <main+0x286>
    1b50: 91 12        	sta	($12),y                 ; 0x2012 <main+0x283>
    1b52: b2 24        	lda	($24)                   ; 0x2024 <main+0x295>
    1b54: 85 13        	sta	$13                     ; 0x2013 <main+0x284>
    1b56: b1 24        	lda	($24),y                 ; 0x2024 <main+0x295>
    1b58: 85 12        	sta	$12                     ; 0x2012 <main+0x283>
    1b5a: 18           	clc
    1b5b: a5 13        	lda	$13                     ; 0x2013 <main+0x284>
    1b5d: 69 fe        	adc	#$fe
    1b5f: aa           	tax
    1b60: a5 12        	lda	$12                     ; 0x2012 <main+0x283>
    1b62: 69 2f        	adc	#$2f
    1b64: 86 12        	stx	$12                     ; 0x2012 <main+0x283>
    1b66: 85 13        	sta	$13                     ; 0x2013 <main+0x284>
    1b68: a9 00        	lda	#$0
    1b6a: 92 12        	sta	($12)                   ; 0x2012 <main+0x283>
    1b6c: 91 12        	sta	($12),y                 ; 0x2012 <main+0x283>
    1b6e: b2 24        	lda	($24)                   ; 0x2024 <main+0x295>
    1b70: 85 13        	sta	$13                     ; 0x2013 <main+0x284>
    1b72: b1 24        	lda	($24),y                 ; 0x2024 <main+0x295>
    1b74: 85 12        	sta	$12                     ; 0x2012 <main+0x283>
    1b76: 18           	clc
    1b77: a5 13        	lda	$13                     ; 0x2013 <main+0x284>
    1b79: 69 00        	adc	#$0
    1b7b: aa           	tax
    1b7c: a5 12        	lda	$12                     ; 0x2012 <main+0x283>
    1b7e: 69 30        	adc	#$30
    1b80: 86 12        	stx	$12                     ; 0x2012 <main+0x283>
    1b82: 85 13        	sta	$13                     ; 0x2013 <main+0x284>
    1b84: b2 12        	lda	($12)                   ; 0x2012 <main+0x283>
    1b86: 85 15        	sta	$15                     ; 0x2015 <main+0x286>
    1b88: b1 12        	lda	($12),y                 ; 0x2012 <main+0x283>
    1b8a: 85 14        	sta	$14                     ; 0x2014 <main+0x285>
    1b8c: 18           	clc
    1b8d: a5 15        	lda	$15                     ; 0x2015 <main+0x286>
    1b8f: 69 0f        	adc	#$f
    1b91: 85 15        	sta	$15                     ; 0x2015 <main+0x286>
    1b93: a5 14        	lda	$14                     ; 0x2014 <main+0x285>
    1b95: 69 00        	adc	#$0
    1b97: aa           	tax
    1b98: a5 15        	lda	$15                     ; 0x2015 <main+0x286>
    1b9a: 92 12        	sta	($12)                   ; 0x2012 <main+0x283>
    1b9c: 8a           	txa
    1b9d: 91 12        	sta	($12),y                 ; 0x2012 <main+0x283>
    1b9f: b2 24        	lda	($24)                   ; 0x2024 <main+0x295>
    1ba1: 85 12        	sta	$12                     ; 0x2012 <main+0x283>
    1ba3: b1 24        	lda	($24),y                 ; 0x2024 <main+0x295>
    1ba5: 85 13        	sta	$13                     ; 0x2013 <main+0x284>
    1ba7: b2 24        	lda	($24)                   ; 0x2024 <main+0x295>
    1ba9: 85 15        	sta	$15                     ; 0x2015 <main+0x286>
    1bab: b1 24        	lda	($24),y                 ; 0x2024 <main+0x295>
    1bad: 85 14        	sta	$14                     ; 0x2014 <main+0x285>
    1baf: a0 01        	ldy	#$1
    1bb1: 18           	clc
    1bb2: a5 15        	lda	$15                     ; 0x2015 <main+0x286>
    1bb4: 69 00        	adc	#$0
    1bb6: aa           	tax
    1bb7: a5 14        	lda	$14                     ; 0x2014 <main+0x285>
    1bb9: 69 30        	adc	#$30
    1bbb: 86 14        	stx	$14                     ; 0x2014 <main+0x285>
    1bbd: 85 15        	sta	$15                     ; 0x2015 <main+0x286>
    1bbf: b2 14        	lda	($14)                   ; 0x2014 <main+0x285>
    1bc1: 85 16        	sta	$16                     ; 0x2016 <main+0x287>
    1bc3: b1 14        	lda	($14),y                 ; 0x2014 <main+0x285>
    1bc5: aa           	tax
    1bc6: a5 16        	lda	$16                     ; 0x2016 <main+0x287>
    1bc8: 20 78 0c     	jsr	$c78 <displayFileList>
    1bcb: b2 24        	lda	($24)                   ; 0x2024 <main+0x295>
    1bcd: 85 12        	sta	$12                     ; 0x2012 <main+0x283>
    1bcf: a0 01        	ldy	#$1
    1bd1: b1 24        	lda	($24),y                 ; 0x2024 <main+0x295>
    1bd3: 85 13        	sta	$13                     ; 0x2013 <main+0x284>
    1bd5: b2 24        	lda	($24)                   ; 0x2024 <main+0x295>
    1bd7: 85 14        	sta	$14                     ; 0x2014 <main+0x285>
    1bd9: b1 24        	lda	($24),y                 ; 0x2024 <main+0x295>
    1bdb: 85 15        	sta	$15                     ; 0x2015 <main+0x286>
    1bdd: b2 24        	lda	($24)                   ; 0x2024 <main+0x295>
    1bdf: 85 16        	sta	$16                     ; 0x2016 <main+0x287>
    1be1: b1 24        	lda	($24),y                 ; 0x2024 <main+0x295>
    1be3: 85 18        	sta	$18                     ; 0x2018 <main+0x289>
    1be5: a0 01        	ldy	#$1
    1be7: a2 08        	ldx	#$8
    1be9: 86 26        	stx	$26                     ; 0x2026 <main+0x297>
    1beb: a2 00        	ldx	#$0
    1bed: 86 27        	stx	$27                     ; 0x2027 <main+0x298>
    1bef: 18           	clc
    1bf0: a5 16        	lda	$16                     ; 0x2016 <main+0x287>
    1bf2: 69 fe        	adc	#$fe
    1bf4: 85 17        	sta	$17                     ; 0x2017 <main+0x288>
    1bf6: a5 18        	lda	$18                     ; 0x2018 <main+0x289>
    1bf8: 69 2f        	adc	#$2f
    1bfa: aa           	tax
    1bfb: b2 12        	lda	($12)                   ; 0x2012 <main+0x283>
    1bfd: 85 16        	sta	$16                     ; 0x2016 <main+0x287>
    1bff: a5 17        	lda	$17                     ; 0x2017 <main+0x288>
    1c01: 85 12        	sta	$12                     ; 0x2012 <main+0x283>
    1c03: b1 14        	lda	($14),y                 ; 0x2014 <main+0x285>
    1c05: 86 13        	stx	$13                     ; 0x2013 <main+0x284>
    1c07: 18           	clc
    1c08: 72 12        	adc	($12)                   ; 0x2012 <main+0x283>
    1c0a: aa           	tax
    1c0b: a5 16        	lda	$16                     ; 0x2016 <main+0x287>
    1c0d: 20 53 38     	jsr	$3853 <textGotoXY>
    1c10: a9 fa        	lda	#$fa
    1c12: 92 10        	sta	($10)                   ; 0x2010 <main+0x281>
    1c14: a9 00        	lda	#$0
    1c16: a0 01        	ldy	#$1
    1c18: 91 10        	sta	($10),y                 ; 0x2010 <main+0x281>
    1c1a: a2 e7        	ldx	#$e7
    1c1c: 86 12        	stx	$12                     ; 0x2012 <main+0x283>
    1c1e: a2 54        	ldx	#$54
    1c20: 86 13        	stx	$13                     ; 0x2013 <main+0x284>
    1c22: 20 b6 48     	jsr	$48b6 <printf>
    1c25: 4c 3f 10     	jmp	$103f <pickFile+0x3a>
    1c28: 18           	clc
    1c29: a5 10        	lda	$10                     ; 0x2010 <main+0x281>
    1c2b: 69 07        	adc	#$7
    1c2d: 85 12        	sta	$12                     ; 0x2012 <main+0x283>
    1c2f: a5 11        	lda	$11                     ; 0x2011 <main+0x282>
    1c31: 69 00        	adc	#$0
    1c33: 85 13        	sta	$13                     ; 0x2013 <main+0x284>
    1c35: b2 12        	lda	($12)                   ; 0x2012 <main+0x283>
    1c37: 85 20        	sta	$20                     ; 0x2020 <main+0x291>
    1c39: fa           	plx
    1c3a: 86 27        	stx	$27                     ; 0x2027 <main+0x298>
    1c3c: fa           	plx
    1c3d: 86 26        	stx	$26                     ; 0x2026 <main+0x297>
    1c3f: fa           	plx
    1c40: 86 25        	stx	$25                     ; 0x2025 <main+0x296>
    1c42: fa           	plx
    1c43: 86 24        	stx	$24                     ; 0x2024 <main+0x295>
    1c45: 18           	clc
    1c46: a5 10        	lda	$10                     ; 0x2010 <main+0x281>
    1c48: 69 08        	adc	#$8
    1c4a: 85 10        	sta	$10                     ; 0x2010 <main+0x281>
    1c4c: a5 11        	lda	$11                     ; 0x2011 <main+0x282>
    1c4e: 69 00        	adc	#$0
    1c50: 85 11        	sta	$11                     ; 0x2011 <main+0x282>
    1c52: a5 20        	lda	$20                     ; 0x2020 <main+0x291>
    1c54: 60           	rts

00001c55 <opl3_initialize>:
    1c55: a2 01        	ldx	#$1
    1c57: 8e 80 d5     	stx	$d580                   ; 0xd580 <__heap_start+0x4c8c>
    1c5a: a0 20        	ldy	#$20
    1c5c: 8c 81 d5     	sty	$d581                   ; 0xd581 <__heap_start+0x4c8d>
    1c5f: a0 02        	ldy	#$2
    1c61: 8c 80 d5     	sty	$d580                   ; 0xd580 <__heap_start+0x4c8c>
    1c64: 9c 81 d5     	stz	$d581                   ; 0xd581 <__heap_start+0x4c8d>
    1c67: c8           	iny
    1c68: 8c 80 d5     	sty	$d580                   ; 0xd580 <__heap_start+0x4c8c>
    1c6b: 9c 81 d5     	stz	$d581                   ; 0xd581 <__heap_start+0x4c8d>
    1c6e: c8           	iny
    1c6f: 8c 82 d5     	sty	$d582                   ; 0xd582 <__heap_start+0x4c8e>
    1c72: 9c 81 d5     	stz	$d581                   ; 0xd581 <__heap_start+0x4c8d>
    1c75: c8           	iny
    1c76: 8c 82 d5     	sty	$d582                   ; 0xd582 <__heap_start+0x4c8e>
    1c79: 8e 81 d5     	stx	$d581                   ; 0xd581 <__heap_start+0x4c8d>
    1c7c: a2 08        	ldx	#$8
    1c7e: 8e 80 d5     	stx	$d580                   ; 0xd580 <__heap_start+0x4c8c>
    1c81: 9c 81 d5     	stz	$d581                   ; 0xd581 <__heap_start+0x4c8d>
    1c84: a2 bd        	ldx	#$bd
    1c86: 8e 80 d5     	stx	$d580                   ; 0xd580 <__heap_start+0x4c8c>
    1c89: 9c 81 d5     	stz	$d581                   ; 0xd581 <__heap_start+0x4c8d>
    1c8c: a2 c0        	ldx	#$c0
    1c8e: 8e 80 d5     	stx	$d580                   ; 0xd580 <__heap_start+0x4c8c>
    1c91: a2 30        	ldx	#$30
    1c93: 8e 81 d5     	stx	$d581                   ; 0xd581 <__heap_start+0x4c8d>
    1c96: a0 c1        	ldy	#$c1
    1c98: 8c 80 d5     	sty	$d580                   ; 0xd580 <__heap_start+0x4c8c>
    1c9b: 8e 81 d5     	stx	$d581                   ; 0xd581 <__heap_start+0x4c8d>
    1c9e: c8           	iny
    1c9f: 8c 80 d5     	sty	$d580                   ; 0xd580 <__heap_start+0x4c8c>
    1ca2: 8e 81 d5     	stx	$d581                   ; 0xd581 <__heap_start+0x4c8d>
    1ca5: c8           	iny
    1ca6: 8c 80 d5     	sty	$d580                   ; 0xd580 <__heap_start+0x4c8c>
    1ca9: 8e 81 d5     	stx	$d581                   ; 0xd581 <__heap_start+0x4c8d>
    1cac: c8           	iny
    1cad: 8c 80 d5     	sty	$d580                   ; 0xd580 <__heap_start+0x4c8c>
    1cb0: 8e 81 d5     	stx	$d581                   ; 0xd581 <__heap_start+0x4c8d>
    1cb3: c8           	iny
    1cb4: 8c 80 d5     	sty	$d580                   ; 0xd580 <__heap_start+0x4c8c>
    1cb7: 8e 81 d5     	stx	$d581                   ; 0xd581 <__heap_start+0x4c8d>
    1cba: c8           	iny
    1cbb: 8c 80 d5     	sty	$d580                   ; 0xd580 <__heap_start+0x4c8c>
    1cbe: 8e 81 d5     	stx	$d581                   ; 0xd581 <__heap_start+0x4c8d>
    1cc1: c8           	iny
    1cc2: 8c 80 d5     	sty	$d580                   ; 0xd580 <__heap_start+0x4c8c>
    1cc5: 8e 81 d5     	stx	$d581                   ; 0xd581 <__heap_start+0x4c8d>
    1cc8: c8           	iny
    1cc9: 8c 80 d5     	sty	$d580                   ; 0xd580 <__heap_start+0x4c8c>
    1ccc: 8e 81 d5     	stx	$d581                   ; 0xd581 <__heap_start+0x4c8d>
    1ccf: a9 c0        	lda	#$c0
    1cd1: 8d 82 d5     	sta	$d582                   ; 0xd582 <__heap_start+0x4c8e>
    1cd4: 8e 81 d5     	stx	$d581                   ; 0xd581 <__heap_start+0x4c8d>
    1cd7: 1a           	inc
    1cd8: 8d 82 d5     	sta	$d582                   ; 0xd582 <__heap_start+0x4c8e>
    1cdb: 8e 81 d5     	stx	$d581                   ; 0xd581 <__heap_start+0x4c8d>
    1cde: 1a           	inc
    1cdf: 8d 82 d5     	sta	$d582                   ; 0xd582 <__heap_start+0x4c8e>
    1ce2: 8e 81 d5     	stx	$d581                   ; 0xd581 <__heap_start+0x4c8d>
    1ce5: 1a           	inc
    1ce6: 8d 82 d5     	sta	$d582                   ; 0xd582 <__heap_start+0x4c8e>
    1ce9: 8e 81 d5     	stx	$d581                   ; 0xd581 <__heap_start+0x4c8d>
    1cec: 1a           	inc
    1ced: 8d 82 d5     	sta	$d582                   ; 0xd582 <__heap_start+0x4c8e>
    1cf0: 8e 81 d5     	stx	$d581                   ; 0xd581 <__heap_start+0x4c8d>
    1cf3: 1a           	inc
    1cf4: 8d 82 d5     	sta	$d582                   ; 0xd582 <__heap_start+0x4c8e>
    1cf7: 8e 81 d5     	stx	$d581                   ; 0xd581 <__heap_start+0x4c8d>
    1cfa: 1a           	inc
    1cfb: 8d 82 d5     	sta	$d582                   ; 0xd582 <__heap_start+0x4c8e>
    1cfe: 8e 81 d5     	stx	$d581                   ; 0xd581 <__heap_start+0x4c8d>
    1d01: 1a           	inc
    1d02: 8d 82 d5     	sta	$d582                   ; 0xd582 <__heap_start+0x4c8e>
    1d05: 8e 81 d5     	stx	$d581                   ; 0xd581 <__heap_start+0x4c8d>
    1d08: 8c 82 d5     	sty	$d582                   ; 0xd582 <__heap_start+0x4c8e>
    1d0b: 8e 81 d5     	stx	$d581                   ; 0xd581 <__heap_start+0x4c8d>
    1d0e: a2 b0        	ldx	#$b0
    1d10: 8e 80 d5     	stx	$d580                   ; 0xd580 <__heap_start+0x4c8c>
    1d13: 9c 81 d5     	stz	$d581                   ; 0xd581 <__heap_start+0x4c8d>
    1d16: e8           	inx
    1d17: 8e 80 d5     	stx	$d580                   ; 0xd580 <__heap_start+0x4c8c>
    1d1a: 9c 81 d5     	stz	$d581                   ; 0xd581 <__heap_start+0x4c8d>
    1d1d: e8           	inx
    1d1e: 8e 80 d5     	stx	$d580                   ; 0xd580 <__heap_start+0x4c8c>
    1d21: 9c 81 d5     	stz	$d581                   ; 0xd581 <__heap_start+0x4c8d>
    1d24: e8           	inx
    1d25: 8e 80 d5     	stx	$d580                   ; 0xd580 <__heap_start+0x4c8c>
    1d28: 9c 81 d5     	stz	$d581                   ; 0xd581 <__heap_start+0x4c8d>
    1d2b: e8           	inx
    1d2c: 8e 80 d5     	stx	$d580                   ; 0xd580 <__heap_start+0x4c8c>
    1d2f: 9c 81 d5     	stz	$d581                   ; 0xd581 <__heap_start+0x4c8d>
    1d32: e8           	inx
    1d33: 8e 80 d5     	stx	$d580                   ; 0xd580 <__heap_start+0x4c8c>
    1d36: 9c 81 d5     	stz	$d581                   ; 0xd581 <__heap_start+0x4c8d>
    1d39: e8           	inx
    1d3a: 8e 80 d5     	stx	$d580                   ; 0xd580 <__heap_start+0x4c8c>
    1d3d: 9c 81 d5     	stz	$d581                   ; 0xd581 <__heap_start+0x4c8d>
    1d40: a0 b7        	ldy	#$b7
    1d42: 8c 80 d5     	sty	$d580                   ; 0xd580 <__heap_start+0x4c8c>
    1d45: 9c 81 d5     	stz	$d581                   ; 0xd581 <__heap_start+0x4c8d>
    1d48: a2 b8        	ldx	#$b8
    1d4a: 8e 80 d5     	stx	$d580                   ; 0xd580 <__heap_start+0x4c8c>
    1d4d: 9c 81 d5     	stz	$d581                   ; 0xd581 <__heap_start+0x4c8d>
    1d50: a9 b0        	lda	#$b0
    1d52: 8d 82 d5     	sta	$d582                   ; 0xd582 <__heap_start+0x4c8e>
    1d55: 9c 81 d5     	stz	$d581                   ; 0xd581 <__heap_start+0x4c8d>
    1d58: 1a           	inc
    1d59: 8d 82 d5     	sta	$d582                   ; 0xd582 <__heap_start+0x4c8e>
    1d5c: 9c 81 d5     	stz	$d581                   ; 0xd581 <__heap_start+0x4c8d>
    1d5f: 1a           	inc
    1d60: 8d 82 d5     	sta	$d582                   ; 0xd582 <__heap_start+0x4c8e>
    1d63: 9c 81 d5     	stz	$d581                   ; 0xd581 <__heap_start+0x4c8d>
    1d66: 1a           	inc
    1d67: 8d 82 d5     	sta	$d582                   ; 0xd582 <__heap_start+0x4c8e>
    1d6a: 9c 81 d5     	stz	$d581                   ; 0xd581 <__heap_start+0x4c8d>
    1d6d: 1a           	inc
    1d6e: 8d 82 d5     	sta	$d582                   ; 0xd582 <__heap_start+0x4c8e>
    1d71: 9c 81 d5     	stz	$d581                   ; 0xd581 <__heap_start+0x4c8d>
    1d74: 1a           	inc
    1d75: 8d 82 d5     	sta	$d582                   ; 0xd582 <__heap_start+0x4c8e>
    1d78: 9c 81 d5     	stz	$d581                   ; 0xd581 <__heap_start+0x4c8d>
    1d7b: 1a           	inc
    1d7c: 8d 82 d5     	sta	$d582                   ; 0xd582 <__heap_start+0x4c8e>
    1d7f: 9c 81 d5     	stz	$d581                   ; 0xd581 <__heap_start+0x4c8d>
    1d82: 8c 82 d5     	sty	$d582                   ; 0xd582 <__heap_start+0x4c8e>
    1d85: 9c 81 d5     	stz	$d581                   ; 0xd581 <__heap_start+0x4c8d>
    1d88: 8e 82 d5     	stx	$d582                   ; 0xd582 <__heap_start+0x4c8e>
    1d8b: 9c 81 d5     	stz	$d581                   ; 0xd581 <__heap_start+0x4c8d>
    1d8e: 60           	rts

00001d8f <main>:
    1d8f: 18           	clc
    1d90: a5 10        	lda	$10                     ; 0x2010 <main+0x281>
    1d92: 69 9e        	adc	#$9e
    1d94: 85 10        	sta	$10                     ; 0x2010 <main+0x281>
    1d96: a5 11        	lda	$11                     ; 0x2011 <main+0x282>
    1d98: 69 ff        	adc	#$ff
    1d9a: 85 11        	sta	$11                     ; 0x2011 <main+0x282>
    1d9c: a6 24        	ldx	$24                     ; 0x2024 <main+0x295>
    1d9e: da           	phx
    1d9f: a6 25        	ldx	$25                     ; 0x2025 <main+0x296>
    1da1: da           	phx
    1da2: a6 26        	ldx	$26                     ; 0x2026 <main+0x297>
    1da4: da           	phx
    1da5: a6 27        	ldx	$27                     ; 0x2027 <main+0x298>
    1da7: da           	phx
    1da8: a5 28        	lda	$28                     ; 0x2028 <main+0x299>
    1daa: a0 0d        	ldy	#$d
    1dac: 91 10        	sta	($10),y                 ; 0x2010 <main+0x281>
    1dae: a5 29        	lda	$29                     ; 0x2029 <main+0x29a>
    1db0: 88           	dey
    1db1: 91 10        	sta	($10),y                 ; 0x2010 <main+0x281>
    1db3: a5 2a        	lda	$2a                     ; 0x202a <main+0x29b>
    1db5: 88           	dey
    1db6: 91 10        	sta	($10),y                 ; 0x2010 <main+0x281>
    1db8: a5 2b        	lda	$2b                     ; 0x202b <main+0x29c>
    1dba: 88           	dey
    1dbb: 91 10        	sta	($10),y                 ; 0x2010 <main+0x281>
    1dbd: a5 2c        	lda	$2c                     ; 0x202c <main+0x29d>
    1dbf: 88           	dey
    1dc0: 91 10        	sta	($10),y                 ; 0x2010 <main+0x281>
    1dc2: a5 2d        	lda	$2d                     ; 0x202d <main+0x29e>
    1dc4: 88           	dey
    1dc5: 91 10        	sta	($10),y                 ; 0x2010 <main+0x281>
    1dc7: a5 2e        	lda	$2e                     ; 0x202e <main+0x29f>
    1dc9: 88           	dey
    1dca: 91 10        	sta	($10),y                 ; 0x2010 <main+0x281>
    1dcc: a5 2f        	lda	$2f                     ; 0x202f <main+0x2a0>
    1dce: 88           	dey
    1dcf: 91 10        	sta	($10),y                 ; 0x2010 <main+0x281>
    1dd1: 64 2e        	stz	$2e                     ; 0x202e <main+0x29f>
    1dd3: a2 00        	ldx	#$0
    1dd5: 86 1a        	stx	$1a                     ; 0x201a <main+0x28b>
    1dd7: a2 d0        	ldx	#$d0
    1dd9: 86 1b        	stx	$1b                     ; 0x201b <main+0x28c>
    1ddb: a2 00        	ldx	#$0
    1ddd: 86 16        	stx	$16                     ; 0x2016 <main+0x287>
    1ddf: a2 d8        	ldx	#$d8
    1de1: 86 17        	stx	$17                     ; 0x2017 <main+0x288>
    1de3: a2 00        	ldx	#$0
    1de5: 86 18        	stx	$18                     ; 0x2018 <main+0x289>
    1de7: a2 d4        	ldx	#$d4
    1de9: 86 19        	stx	$19                     ; 0x2019 <main+0x28a>
    1deb: a2 00        	ldx	#$0
    1ded: 86 14        	stx	$14                     ; 0x2014 <main+0x285>
    1def: a2 dc        	ldx	#$dc
    1df1: 86 15        	stx	$15                     ; 0x2015 <main+0x286>
    1df3: a2 00        	ldx	#$0
    1df5: 86 12        	stx	$12                     ; 0x2012 <main+0x283>
    1df7: a2 c0        	ldx	#$c0
    1df9: 86 13        	stx	$13                     ; 0x2013 <main+0x284>
    1dfb: 64 01        	stz	$1                      ; 0x2001 <main+0x272>
    1dfd: a2 3f        	ldx	#$3f
    1dff: 8e 00 d0     	stx	$d000                   ; 0xd000 <__heap_start+0x470c>
    1e02: a2 b3        	ldx	#$b3
    1e04: 86 00        	stx	$0                      ; 0x2000 <main+0x271>
    1e06: 64 08        	stz	$8                      ; 0x2008 <main+0x279>
    1e08: a2 01        	ldx	#$1
    1e0a: 86 09        	stx	$9                      ; 0x2009 <main+0x27a>
    1e0c: e8           	inx
    1e0d: 86 0a        	stx	$a                      ; 0x200a <main+0x27b>
    1e0f: e8           	inx
    1e10: 86 0b        	stx	$b                      ; 0x200b <main+0x27c>
    1e12: e8           	inx
    1e13: 86 0c        	stx	$c                      ; 0x200c <main+0x27d>
    1e15: e8           	inx
    1e16: 86 0d        	stx	$d                      ; 0x200d <main+0x27e>
    1e18: a2 4b        	ldx	#$4b
    1e1a: a9 00        	lda	#$0
    1e1c: 86 f0        	stx	$f0                     ; 0x20f0 <main+0x361>
    1e1e: 85 f1        	sta	$f1                     ; 0x20f1 <main+0x362>
    1e20: a9 00        	lda	#$0
    1e22: a6 01        	ldx	$1                      ; 0x2001 <main+0x272>
    1e24: a0 01        	ldy	#$1
    1e26: 84 01        	sty	$1                      ; 0x2001 <main+0x272>
    1e28: 92 1a        	sta	($1a)                   ; 0x201a <main+0x28b>
    1e2a: 91 1a        	sta	($1a),y                 ; 0x201a <main+0x28b>
    1e2c: c8           	iny
    1e2d: 91 1a        	sta	($1a),y                 ; 0x201a <main+0x28b>
    1e2f: c8           	iny
    1e30: 85 1c        	sta	$1c                     ; 0x201c <main+0x28d>
    1e32: a9 ff        	lda	#$ff
    1e34: 91 1a        	sta	($1a),y                 ; 0x201a <main+0x28b>
    1e36: 86 01        	stx	$1                      ; 0x2001 <main+0x272>
    1e38: a5 1a        	lda	$1a                     ; 0x201a <main+0x28b>
    1e3a: 18           	clc
    1e3b: 69 04        	adc	#$4
    1e3d: 85 1a        	sta	$1a                     ; 0x201a <main+0x28b>
    1e3f: a5 1b        	lda	$1b                     ; 0x201b <main+0x28c>
    1e41: 69 00        	adc	#$0
    1e43: e6 1c        	inc	$1c                     ; 0x201c <main+0x28d>
    1e45: 85 1b        	sta	$1b                     ; 0x201b <main+0x28c>
    1e47: a5 1c        	lda	$1c                     ; 0x201c <main+0x28d>
    1e49: d0 d7        	bne	$1e22 <main+0x93>
    1e4b: a9 00        	lda	#$0
    1e4d: a6 01        	ldx	$1                      ; 0x2001 <main+0x272>
    1e4f: a0 01        	ldy	#$1
    1e51: 84 01        	sty	$1                      ; 0x2001 <main+0x272>
    1e53: 92 18        	sta	($18)                   ; 0x2018 <main+0x289>
    1e55: 91 18        	sta	($18),y                 ; 0x2018 <main+0x289>
    1e57: c8           	iny
    1e58: 91 18        	sta	($18),y                 ; 0x2018 <main+0x289>
    1e5a: c8           	iny
    1e5b: 85 1a        	sta	$1a                     ; 0x201a <main+0x28b>
    1e5d: a9 ff        	lda	#$ff
    1e5f: 91 18        	sta	($18),y                 ; 0x2018 <main+0x289>
    1e61: 86 01        	stx	$1                      ; 0x2001 <main+0x272>
    1e63: a5 18        	lda	$18                     ; 0x2018 <main+0x289>
    1e65: 18           	clc
    1e66: 69 04        	adc	#$4
    1e68: 85 18        	sta	$18                     ; 0x2018 <main+0x289>
    1e6a: a5 19        	lda	$19                     ; 0x2019 <main+0x28a>
    1e6c: 69 00        	adc	#$0
    1e6e: e6 1a        	inc	$1a                     ; 0x201a <main+0x28b>
    1e70: 85 19        	sta	$19                     ; 0x2019 <main+0x28a>
    1e72: a5 1a        	lda	$1a                     ; 0x201a <main+0x28b>
    1e74: d0 d7        	bne	$1e4d <main+0xbe>
    1e76: a9 00        	lda	#$0
    1e78: a6 01        	ldx	$1                      ; 0x2001 <main+0x272>
    1e7a: a0 01        	ldy	#$1
    1e7c: 84 01        	sty	$1                      ; 0x2001 <main+0x272>
    1e7e: 92 16        	sta	($16)                   ; 0x2016 <main+0x287>
    1e80: 91 16        	sta	($16),y                 ; 0x2016 <main+0x287>
    1e82: c8           	iny
    1e83: 91 16        	sta	($16),y                 ; 0x2016 <main+0x287>
    1e85: c8           	iny
    1e86: 85 18        	sta	$18                     ; 0x2018 <main+0x289>
    1e88: a9 ff        	lda	#$ff
    1e8a: 91 16        	sta	($16),y                 ; 0x2016 <main+0x287>
    1e8c: 86 01        	stx	$1                      ; 0x2001 <main+0x272>
    1e8e: a5 16        	lda	$16                     ; 0x2016 <main+0x287>
    1e90: 18           	clc
    1e91: 69 04        	adc	#$4
    1e93: 85 16        	sta	$16                     ; 0x2016 <main+0x287>
    1e95: a5 17        	lda	$17                     ; 0x2017 <main+0x288>
    1e97: 69 00        	adc	#$0
    1e99: e6 18        	inc	$18                     ; 0x2018 <main+0x289>
    1e9b: 85 17        	sta	$17                     ; 0x2017 <main+0x288>
    1e9d: a5 18        	lda	$18                     ; 0x2018 <main+0x289>
    1e9f: d0 d7        	bne	$1e78 <main+0xe9>
    1ea1: a9 00        	lda	#$0
    1ea3: a6 01        	ldx	$1                      ; 0x2001 <main+0x272>
    1ea5: a0 01        	ldy	#$1
    1ea7: 84 01        	sty	$1                      ; 0x2001 <main+0x272>
    1ea9: 92 14        	sta	($14)                   ; 0x2014 <main+0x285>
    1eab: 91 14        	sta	($14),y                 ; 0x2014 <main+0x285>
    1ead: c8           	iny
    1eae: 91 14        	sta	($14),y                 ; 0x2014 <main+0x285>
    1eb0: c8           	iny
    1eb1: 85 16        	sta	$16                     ; 0x2016 <main+0x287>
    1eb3: a9 ff        	lda	#$ff
    1eb5: 91 14        	sta	($14),y                 ; 0x2014 <main+0x285>
    1eb7: 86 01        	stx	$1                      ; 0x2001 <main+0x272>
    1eb9: a5 14        	lda	$14                     ; 0x2014 <main+0x285>
    1ebb: 18           	clc
    1ebc: 69 04        	adc	#$4
    1ebe: 85 14        	sta	$14                     ; 0x2014 <main+0x285>
    1ec0: a5 15        	lda	$15                     ; 0x2015 <main+0x286>
    1ec2: 69 00        	adc	#$0
    1ec4: e6 16        	inc	$16                     ; 0x2016 <main+0x287>
    1ec6: 85 15        	sta	$15                     ; 0x2015 <main+0x286>
    1ec8: a5 16        	lda	$16                     ; 0x2016 <main+0x287>
    1eca: d0 d7        	bne	$1ea3 <main+0x114>
    1ecc: ad 02 d0     	lda	$d002                   ; 0xd002 <__heap_start+0x470e>
    1ecf: a2 f0        	ldx	#$f0
    1ed1: 29 f0        	and	#$f0
    1ed3: 8d 02 d0     	sta	$d002                   ; 0xd002 <__heap_start+0x470e>
    1ed6: ad 02 d0     	lda	$d002                   ; 0xd002 <__heap_start+0x470e>
    1ed9: 29 0f        	and	#$f
    1edb: 09 10        	ora	#$10
    1edd: 8d 02 d0     	sta	$d002                   ; 0xd002 <__heap_start+0x470e>
    1ee0: a0 02        	ldy	#$2
    1ee2: 8c 03 d0     	sty	$d003                   ; 0xd003 <__heap_start+0x470f>
    1ee5: 86 33        	stx	$33                     ; 0x2033 <main+0x2a4>
    1ee7: ad 01 d0     	lda	$d001                   ; 0xd001 <__heap_start+0x470d>
    1eea: 29 f9        	and	#$f9
    1eec: 09 04        	ora	#$4
    1eee: 8d 01 d0     	sta	$d001                   ; 0xd001 <__heap_start+0x470d>
    1ef1: 64 14        	stz	$14                     ; 0x2014 <main+0x285>
    1ef3: 9c 10 d0     	stz	$d010                   ; 0xd010 <__heap_start+0x471c>
    1ef6: a2 00        	ldx	#$0
    1ef8: 64 15        	stz	$15                     ; 0x2015 <main+0x286>
    1efa: 86 18        	stx	$18                     ; 0x2018 <main+0x289>
    1efc: a4 18        	ldy	$18                     ; 0x2018 <main+0x289>
    1efe: be b9 56     	ldx	$56b9,y                 ; 0x56b9 <textColors>
    1f01: 86 19        	stx	$19                     ; 0x2019 <main+0x28a>
    1f03: be ba 56     	ldx	$56ba,y                 ; 0x56ba <textColors+0x1>
    1f06: 86 1a        	stx	$1a                     ; 0x201a <main+0x28b>
    1f08: be bb 56     	ldx	$56bb,y                 ; 0x56bb <textColors+0x2>
    1f0b: 86 1b        	stx	$1b                     ; 0x201b <main+0x28c>
    1f0d: a6 15        	ldx	$15                     ; 0x2015 <main+0x286>
    1f0f: 8e 00 de     	stx	$de00                   ; 0xde00 <__heap_start+0x550c>
    1f12: 86 17        	stx	$17                     ; 0x2017 <main+0x288>
    1f14: 9c 01 de     	stz	$de01                   ; 0xde01 <__heap_start+0x550d>
    1f17: a2 04        	ldx	#$4
    1f19: 8e 02 de     	stx	$de02                   ; 0xde02 <__heap_start+0x550e>
    1f1c: 9c 03 de     	stz	$de03                   ; 0xde03 <__heap_start+0x550f>
    1f1f: ad 10 de     	lda	$de10                   ; 0xde10 <__heap_start+0x551c>
    1f22: ac 11 de     	ldy	$de11                   ; 0xde11 <__heap_start+0x551d>
    1f25: 84 15        	sty	$15                     ; 0x2015 <main+0x286>
    1f27: ac 12 de     	ldy	$de12                   ; 0xde12 <__heap_start+0x551e>
    1f2a: ac 13 de     	ldy	$de13                   ; 0xde13 <__heap_start+0x551f>
    1f2d: 18           	clc
    1f2e: 65 14        	adc	$14                     ; 0x2014 <main+0x285>
    1f30: 85 16        	sta	$16                     ; 0x2016 <main+0x287>
    1f32: a6 17        	ldx	$17                     ; 0x2017 <main+0x288>
    1f34: a9 d8        	lda	#$d8
    1f36: 65 15        	adc	$15                     ; 0x2015 <main+0x286>
    1f38: 85 17        	sta	$17                     ; 0x2017 <main+0x288>
    1f3a: a5 1b        	lda	$1b                     ; 0x201b <main+0x28c>
    1f3c: 92 16        	sta	($16)                   ; 0x2016 <main+0x287>
    1f3e: a0 01        	ldy	#$1
    1f40: a5 1a        	lda	$1a                     ; 0x201a <main+0x28b>
    1f42: 91 16        	sta	($16),y                 ; 0x2016 <main+0x287>
    1f44: c8           	iny
    1f45: a5 19        	lda	$19                     ; 0x2019 <main+0x28a>
    1f47: 91 16        	sta	($16),y                 ; 0x2016 <main+0x287>
    1f49: c8           	iny
    1f4a: a9 ff        	lda	#$ff
    1f4c: 91 16        	sta	($16),y                 ; 0x2016 <main+0x287>
    1f4e: 8e 00 de     	stx	$de00                   ; 0xde00 <__heap_start+0x550c>
    1f51: 9c 01 de     	stz	$de01                   ; 0xde01 <__heap_start+0x550d>
    1f54: c8           	iny
    1f55: 8c 02 de     	sty	$de02                   ; 0xde02 <__heap_start+0x550e>
    1f58: 9c 03 de     	stz	$de03                   ; 0xde03 <__heap_start+0x550f>
    1f5b: ad 10 de     	lda	$de10                   ; 0xde10 <__heap_start+0x551c>
    1f5e: 85 15        	sta	$15                     ; 0x2015 <main+0x286>
    1f60: ad 11 de     	lda	$de11                   ; 0xde11 <__heap_start+0x551d>
    1f63: 85 16        	sta	$16                     ; 0x2016 <main+0x287>
    1f65: a9 40        	lda	#$40
    1f67: 18           	clc
    1f68: 65 15        	adc	$15                     ; 0x2015 <main+0x286>
    1f6a: a8           	tay
    1f6b: a9 d8        	lda	#$d8
    1f6d: 65 16        	adc	$16                     ; 0x2016 <main+0x287>
    1f6f: 85 17        	sta	$17                     ; 0x2017 <main+0x288>
    1f71: 84 16        	sty	$16                     ; 0x2016 <main+0x287>
    1f73: ad 12 de     	lda	$de12                   ; 0xde12 <__heap_start+0x551e>
    1f76: ad 13 de     	lda	$de13                   ; 0xde13 <__heap_start+0x551f>
    1f79: a5 1b        	lda	$1b                     ; 0x201b <main+0x28c>
    1f7b: 92 16        	sta	($16)                   ; 0x2016 <main+0x287>
    1f7d: a5 1a        	lda	$1a                     ; 0x201a <main+0x28b>
    1f7f: a0 01        	ldy	#$1
    1f81: 91 16        	sta	($16),y                 ; 0x2016 <main+0x287>
    1f83: a5 19        	lda	$19                     ; 0x2019 <main+0x28a>
    1f85: c8           	iny
    1f86: 91 16        	sta	($16),y                 ; 0x2016 <main+0x287>
    1f88: c8           	iny
    1f89: a9 ff        	lda	#$ff
    1f8b: 91 16        	sta	($16),y                 ; 0x2016 <main+0x287>
    1f8d: e8           	inx
    1f8e: 86 15        	stx	$15                     ; 0x2015 <main+0x286>
    1f90: 18           	clc
    1f91: a5 18        	lda	$18                     ; 0x2018 <main+0x289>
    1f93: 69 03        	adc	#$3
    1f95: aa           	tax
    1f96: c9 30        	cmp	#$30
    1f98: f0 03        	beq	$1f9d <main+0x20e>
    1f9a: 4c fa 1e     	jmp	$1efa <main+0x16b>
    1f9d: a6 01        	ldx	$1                      ; 0x2001 <main+0x272>
    1f9f: 86 18        	stx	$18                     ; 0x2018 <main+0x289>
    1fa1: a2 50        	ldx	#$50
    1fa3: 8e 00 de     	stx	$de00                   ; 0xde00 <__heap_start+0x550c>
    1fa6: 9c 01 de     	stz	$de01                   ; 0xde01 <__heap_start+0x550d>
    1fa9: a2 1e        	ldx	#$1e
    1fab: 8e 02 de     	stx	$de02                   ; 0xde02 <__heap_start+0x550e>
    1fae: 9c 03 de     	stz	$de03                   ; 0xde03 <__heap_start+0x550f>
    1fb1: ae 10 de     	ldx	$de10                   ; 0xde10 <__heap_start+0x551c>
    1fb4: ac 11 de     	ldy	$de11                   ; 0xde11 <__heap_start+0x551d>
    1fb7: ad 12 de     	lda	$de12                   ; 0xde12 <__heap_start+0x551e>
    1fba: ad 13 de     	lda	$de13                   ; 0xde13 <__heap_start+0x551f>
    1fbd: a9 02        	lda	#$2
    1fbf: 85 01        	sta	$1                      ; 0x2001 <main+0x272>
    1fc1: e0 01        	cpx	#$1
    1fc3: 98           	tya
    1fc4: e9 00        	sbc	#$0
    1fc6: 50 02        	bvc	$1fca <main+0x23b>
    1fc8: 49 80        	eor	#$80
    1fca: c9 00        	cmp	#$0
    1fcc: 10 03        	bpl	$1fd1 <main+0x242>
    1fce: 4c 25 20     	jmp	$2025 <main+0x296>
    1fd1: a9 20        	lda	#$20
    1fd3: 86 19        	stx	$19                     ; 0x2019 <main+0x28a>
    1fd5: 86 14        	stx	$14                     ; 0x2014 <main+0x285>
    1fd7: 84 15        	sty	$15                     ; 0x2015 <main+0x286>
    1fd9: a2 00        	ldx	#$0
    1fdb: 86 16        	stx	$16                     ; 0x2016 <main+0x287>
    1fdd: a2 c0        	ldx	#$c0
    1fdf: 86 17        	stx	$17                     ; 0x2017 <main+0x288>
    1fe1: 80 04        	bra	$1fe7 <main+0x258>
    1fe3: a6 15        	ldx	$15                     ; 0x2015 <main+0x286>
    1fe5: f0 14        	beq	$1ffb <main+0x26c>
    1fe7: 92 16        	sta	($16)                   ; 0x2016 <main+0x287>
    1fe9: e6 16        	inc	$16                     ; 0x2016 <main+0x287>
    1feb: d0 02        	bne	$1fef <main+0x260>
    1fed: e6 17        	inc	$17                     ; 0x2017 <main+0x288>
    1fef: a2 ff        	ldx	#$ff
    1ff1: c6 14        	dec	$14                     ; 0x2014 <main+0x285>
    1ff3: e4 14        	cpx	$14                     ; 0x2014 <main+0x285>
    1ff5: d0 ec        	bne	$1fe3 <main+0x254>
    1ff7: c6 15        	dec	$15                     ; 0x2015 <main+0x286>
    1ff9: 80 e8        	bra	$1fe3 <main+0x254>
    1ffb: a6 14        	ldx	$14                     ; 0x2014 <main+0x285>
    1ffd: d0 e8        	bne	$1fe7 <main+0x258>
    1fff: a2 03        	ldx	#$3
    2001: 86 01        	stx	$1                      ; 0x2001 <main+0x272>
    2003: a6 33        	ldx	$33                     ; 0x2033 <main+0x2a4>
    2005: 86 14        	stx	$14                     ; 0x2014 <main+0x285>
    2007: a6 19        	ldx	$19                     ; 0x2019 <main+0x28a>
    2009: 80 03        	bra	$200e <main+0x27f>
    200b: 98           	tya
    200c: f0 12        	beq	$2020 <main+0x291>
    200e: a5 14        	lda	$14                     ; 0x2014 <main+0x285>
    2010: 92 12        	sta	($12)                   ; 0x2012 <main+0x283>
    2012: e6 12        	inc	$12                     ; 0x2012 <main+0x283>
    2014: d0 02        	bne	$2018 <main+0x289>
    2016: e6 13        	inc	$13                     ; 0x2013 <main+0x284>
    2018: ca           	dex
    2019: e0 ff        	cpx	#$ff
    201b: d0 ee        	bne	$200b <main+0x27c>
    201d: 88           	dey
    201e: 80 eb        	bra	$200b <main+0x27c>
    2020: 8a           	txa
    2021: d0 eb        	bne	$200e <main+0x27f>
    2023: 80 04        	bra	$2029 <main+0x29a>
    2025: a2 03        	ldx	#$3
    2027: 86 01        	stx	$1                      ; 0x2001 <main+0x272>
    2029: a6 18        	ldx	$18                     ; 0x2018 <main+0x289>
    202b: 86 01        	stx	$1                      ; 0x2001 <main+0x272>
    202d: 64 53        	stz	$53                     ; 0x2053 <main+0x2c4>
    202f: 9c 14 d0     	stz	$d014                   ; 0xd014 <__heap_start+0x4720>
    2032: 9c 15 d0     	stz	$d015                   ; 0xd015 <__heap_start+0x4721>
    2035: 64 54        	stz	$54                     ; 0x2054 <main+0x2c5>
    2037: 9c 16 d0     	stz	$d016                   ; 0xd016 <__heap_start+0x4722>
    203a: 9c 17 d0     	stz	$d017                   ; 0xd017 <__heap_start+0x4723>
    203d: a2 40        	ldx	#$40
    203f: 8e 00 de     	stx	$de00                   ; 0xde00 <__heap_start+0x550c>
    2042: a2 01        	ldx	#$1
    2044: 8e 01 de     	stx	$de01                   ; 0xde01 <__heap_start+0x550d>
    2047: a2 f0        	ldx	#$f0
    2049: 8e 02 de     	stx	$de02                   ; 0xde02 <__heap_start+0x550e>
    204c: 9c 03 de     	stz	$de03                   ; 0xde03 <__heap_start+0x550f>
    204f: ae 10 de     	ldx	$de10                   ; 0xde10 <__heap_start+0x551c>
    2052: 86 17        	stx	$17                     ; 0x2017 <main+0x288>
    2054: ae 11 de     	ldx	$de11                   ; 0xde11 <__heap_start+0x551d>
    2057: 86 12        	stx	$12                     ; 0x2012 <main+0x283>
    2059: ae 12 de     	ldx	$de12                   ; 0xde12 <__heap_start+0x551e>
    205c: 86 13        	stx	$13                     ; 0x2013 <main+0x284>
    205e: ae 13 de     	ldx	$de13                   ; 0xde13 <__heap_start+0x551f>
    2061: 86 14        	stx	$14                     ; 0x2014 <main+0x285>
    2063: a4 12        	ldy	$12                     ; 0x2012 <main+0x283>
    2065: 84 15        	sty	$15                     ; 0x2015 <main+0x286>
    2067: 06 15        	asl	$15                     ; 0x2015 <main+0x286>
    2069: a5 13        	lda	$13                     ; 0x2013 <main+0x284>
    206b: 2a           	rol
    206c: 86 16        	stx	$16                     ; 0x2016 <main+0x287>
    206e: 26 16        	rol	$16                     ; 0x2016 <main+0x287>
    2070: 06 15        	asl	$15                     ; 0x2015 <main+0x286>
    2072: 2a           	rol
    2073: 26 16        	rol	$16                     ; 0x2016 <main+0x287>
    2075: 06 15        	asl	$15                     ; 0x2015 <main+0x286>
    2077: 2a           	rol
    2078: 26 16        	rol	$16                     ; 0x2016 <main+0x287>
    207a: 85 15        	sta	$15                     ; 0x2015 <main+0x286>
    207c: 8d 00 de     	sta	$de00                   ; 0xde00 <__heap_start+0x550c>
    207f: a5 16        	lda	$16                     ; 0x2016 <main+0x287>
    2081: 8d 01 de     	sta	$de01                   ; 0xde01 <__heap_start+0x550d>
    2084: 9c 02 de     	stz	$de02                   ; 0xde02 <__heap_start+0x550e>
    2087: a2 20        	ldx	#$20
    2089: 8e 03 de     	stx	$de03                   ; 0xde03 <__heap_start+0x550f>
    208c: ae 10 de     	ldx	$de10                   ; 0xde10 <__heap_start+0x551c>
    208f: 86 16        	stx	$16                     ; 0x2016 <main+0x287>
    2091: ae 11 de     	ldx	$de11                   ; 0xde11 <__heap_start+0x551d>
    2094: 86 18        	stx	$18                     ; 0x2018 <main+0x289>
    2096: ac 12 de     	ldy	$de12                   ; 0xde12 <__heap_start+0x551e>
    2099: ae 13 de     	ldx	$de13                   ; 0xde13 <__heap_start+0x551f>
    209c: e4 14        	cpx	$14                     ; 0x2014 <main+0x285>
    209e: d0 14        	bne	$20b4 <main+0x325>
    20a0: c4 13        	cpy	$13                     ; 0x2013 <main+0x284>
    20a2: d0 10        	bne	$20b4 <main+0x325>
    20a4: a6 18        	ldx	$18                     ; 0x2018 <main+0x289>
    20a6: e4 12        	cpx	$12                     ; 0x2012 <main+0x283>
    20a8: d0 0a        	bne	$20b4 <main+0x325>
    20aa: a6 16        	ldx	$16                     ; 0x2016 <main+0x287>
    20ac: e4 17        	cpx	$17                     ; 0x2017 <main+0x288>
    20ae: d0 04        	bne	$20b4 <main+0x325>
    20b0: a6 15        	ldx	$15                     ; 0x2015 <main+0x286>
    20b2: 80 06        	bra	$20ba <main+0x32b>
    20b4: a6 15        	ldx	$15                     ; 0x2015 <main+0x286>
    20b6: e8           	inx
    20b7: d0 01        	bne	$20ba <main+0x32b>
    20b9: 1a           	inc
    20ba: 8e 00 de     	stx	$de00                   ; 0xde00 <__heap_start+0x550c>
    20bd: 8d 01 de     	sta	$de01                   ; 0xde01 <__heap_start+0x550d>
    20c0: 9c 02 de     	stz	$de02                   ; 0xde02 <__heap_start+0x550e>
    20c3: a2 20        	ldx	#$20
    20c5: 8e 03 de     	stx	$de03                   ; 0xde03 <__heap_start+0x550f>
    20c8: ae 10 de     	ldx	$de10                   ; 0xde10 <__heap_start+0x551c>
    20cb: 86 12        	stx	$12                     ; 0x2012 <main+0x283>
    20cd: ae 11 de     	ldx	$de11                   ; 0xde11 <__heap_start+0x551d>
    20d0: 86 13        	stx	$13                     ; 0x2013 <main+0x284>
    20d2: ae 12 de     	ldx	$de12                   ; 0xde12 <__heap_start+0x551e>
    20d5: 86 14        	stx	$14                     ; 0x2014 <main+0x285>
    20d7: ae 13 de     	ldx	$de13                   ; 0xde13 <__heap_start+0x551f>
    20da: 86 15        	stx	$15                     ; 0x2015 <main+0x286>
    20dc: a9 00        	lda	#$0
    20de: 38           	sec
    20df: e5 12        	sbc	$12                     ; 0x2012 <main+0x283>
    20e1: 85 16        	sta	$16                     ; 0x2016 <main+0x287>
    20e3: a9 00        	lda	#$0
    20e5: e5 13        	sbc	$13                     ; 0x2013 <main+0x284>
    20e7: 85 17        	sta	$17                     ; 0x2017 <main+0x288>
    20e9: a9 08        	lda	#$8
    20eb: e5 14        	sbc	$14                     ; 0x2014 <main+0x285>
    20ed: aa           	tax
    20ee: a9 00        	lda	#$0
    20f0: e5 15        	sbc	$15                     ; 0x2015 <main+0x286>
    20f2: a8           	tay
    20f3: a5 17        	lda	$17                     ; 0x2017 <main+0x288>
    20f5: 8d f8 86     	sta	$86f8                   ; 0x86f8 <_BITMAP_BASE.0+0x1>
    20f8: 8e f9 86     	stx	$86f9                   ; 0x86f9 <_BITMAP_BASE.0+0x2>
    20fb: 8c fa 86     	sty	$86fa                   ; 0x86fa <_BITMAP_BASE.0+0x3>
    20fe: a5 16        	lda	$16                     ; 0x2016 <main+0x287>
    2100: 38           	sec
    2101: e5 12        	sbc	$12                     ; 0x2012 <main+0x283>
    2103: a8           	tay
    2104: a5 17        	lda	$17                     ; 0x2017 <main+0x288>
    2106: e5 13        	sbc	$13                     ; 0x2013 <main+0x284>
    2108: 85 15        	sta	$15                     ; 0x2015 <main+0x286>
    210a: 8a           	txa
    210b: e5 14        	sbc	$14                     ; 0x2014 <main+0x285>
    210d: aa           	tax
    210e: 98           	tya
    210f: 38           	sec
    2110: e5 12        	sbc	$12                     ; 0x2012 <main+0x283>
    2112: 85 12        	sta	$12                     ; 0x2012 <main+0x283>
    2114: a5 15        	lda	$15                     ; 0x2015 <main+0x286>
    2116: e5 13        	sbc	$13                     ; 0x2013 <main+0x284>
    2118: 85 13        	sta	$13                     ; 0x2013 <main+0x284>
    211a: 8a           	txa
    211b: 86 17        	stx	$17                     ; 0x2017 <main+0x288>
    211d: e5 14        	sbc	$14                     ; 0x2014 <main+0x285>
    211f: a6 16        	ldx	$16                     ; 0x2016 <main+0x287>
    2121: 8e f7 86     	stx	$86f7                   ; 0x86f7 <_BITMAP_BASE.0>
    2124: 8e 01 d1     	stx	$d101                   ; 0xd101 <__heap_start+0x480d>
    2127: ae f8 86     	ldx	$86f8                   ; 0x86f8 <_BITMAP_BASE.0+0x1>
    212a: 8e 02 d1     	stx	$d102                   ; 0xd102 <__heap_start+0x480e>
    212d: ae f9 86     	ldx	$86f9                   ; 0x86f9 <_BITMAP_BASE.0+0x2>
    2130: 8e 03 d1     	stx	$d103                   ; 0xd103 <__heap_start+0x480f>
    2133: 8c 09 d1     	sty	$d109                   ; 0xd109 <__heap_start+0x4815>
    2136: a6 15        	ldx	$15                     ; 0x2015 <main+0x286>
    2138: 8e 0a d1     	stx	$d10a                   ; 0xd10a <__heap_start+0x4816>
    213b: a6 17        	ldx	$17                     ; 0x2017 <main+0x288>
    213d: 8e 0b d1     	stx	$d10b                   ; 0xd10b <__heap_start+0x4817>
    2140: a6 12        	ldx	$12                     ; 0x2012 <main+0x283>
    2142: 8e 11 d1     	stx	$d111                   ; 0xd111 <__heap_start+0x481d>
    2145: a6 13        	ldx	$13                     ; 0x2013 <main+0x284>
    2147: 8e 12 d1     	stx	$d112                   ; 0xd112 <__heap_start+0x481e>
    214a: 8d 13 d1     	sta	$d113                   ; 0xd113 <__heap_start+0x481f>
    214d: 9c 00 d1     	stz	$d100                   ; 0xd100 <__heap_start+0x480c>
    2150: 9c 08 d1     	stz	$d108                   ; 0xd108 <__heap_start+0x4814>
    2153: 9c 10 d1     	stz	$d110                   ; 0xd110 <__heap_start+0x481c>
    2156: a2 10        	ldx	#$10
    2158: 8e 00 d2     	stx	$d200                   ; 0xd200 <__heap_start+0x490c>
    215b: 8e 0c d2     	stx	$d20c                   ; 0xd20c <__heap_start+0x4918>
    215e: 8e 18 d2     	stx	$d218                   ; 0xd218 <__heap_start+0x4924>
    2161: a0 d9        	ldy	#$d9
    2163: a2 40        	ldx	#$40
    2165: 64 12        	stz	$12                     ; 0x2012 <main+0x283>
    2167: 84 13        	sty	$13                     ; 0x2013 <main+0x284>
    2169: a9 00        	lda	#$0
    216b: 92 12        	sta	($12)                   ; 0x2012 <main+0x283>
    216d: ca           	dex
    216e: 18           	clc
    216f: a5 12        	lda	$12                     ; 0x2012 <main+0x283>
    2171: 69 08        	adc	#$8
    2173: 85 12        	sta	$12                     ; 0x2012 <main+0x283>
    2175: 98           	tya
    2176: 69 00        	adc	#$0
    2178: a8           	tay
    2179: 8a           	txa
    217a: d0 eb        	bne	$2167 <main+0x3d8>
    217c: 64 55        	stz	$55                     ; 0x2055 <main+0x2c6>
    217e: 64 56        	stz	$56                     ; 0x2056 <main+0x2c7>
    2180: 64 57        	stz	$57                     ; 0x2057 <main+0x2c8>
    2182: 64 58        	stz	$58                     ; 0x2058 <main+0x2c9>
    2184: 64 59        	stz	$59                     ; 0x2059 <main+0x2ca>
    2186: 64 5a        	stz	$5a                     ; 0x205a <main+0x2cb>
    2188: 64 5b        	stz	$5b                     ; 0x205b <main+0x2cc>
    218a: 64 5c        	stz	$5c                     ; 0x205c <main+0x2cd>
    218c: 18           	clc
    218d: a5 10        	lda	$10                     ; 0x2010 <main+0x281>
    218f: 69 1f        	adc	#$1f
    2191: 85 24        	sta	$24                     ; 0x2024 <main+0x295>
    2193: a5 11        	lda	$11                     ; 0x2011 <main+0x282>
    2195: 69 00        	adc	#$0
    2197: 85 25        	sta	$25                     ; 0x2025 <main+0x296>
    2199: a6 24        	ldx	$24                     ; 0x2024 <main+0x295>
    219b: 86 fb        	stx	$fb                     ; 0x20fb <main+0x36c>
    219d: 85 fc        	sta	$fc                     ; 0x20fc <main+0x36d>
    219f: a2 08        	ldx	#$8
    21a1: 86 fd        	stx	$fd                     ; 0x20fd <main+0x36e>
    21a3: 18           	clc
    21a4: a5 10        	lda	$10                     ; 0x2010 <main+0x281>
    21a6: 69 61        	adc	#$61
    21a8: 85 16        	sta	$16                     ; 0x2016 <main+0x287>
    21aa: a5 11        	lda	$11                     ; 0x2011 <main+0x282>
    21ac: 69 00        	adc	#$0
    21ae: 85 17        	sta	$17                     ; 0x2017 <main+0x288>
    21b0: a2 52        	ldx	#$52
    21b2: 86 12        	stx	$12                     ; 0x2012 <main+0x283>
    21b4: a2 00        	ldx	#$0
    21b6: 86 13        	stx	$13                     ; 0x2013 <main+0x284>
    21b8: a0 06        	ldy	#$6
    21ba: 5a           	phy
    21bb: a5 16        	lda	$16                     ; 0x2016 <main+0x287>
    21bd: a0 12        	ldy	#$12
    21bf: 91 10        	sta	($10),y                 ; 0x2010 <main+0x281>
    21c1: a5 17        	lda	$17                     ; 0x2017 <main+0x288>
    21c3: c8           	iny
    21c4: 91 10        	sta	($10),y                 ; 0x2010 <main+0x281>
    21c6: 7a           	ply
    21c7: 20 dc ff     	jsr	$ffdc <__heap_start+0x76e8>
    21ca: 92 16        	sta	($16)                   ; 0x2016 <main+0x287>
    21cc: a9 00        	lda	#$0
    21ce: 6a           	ror
    21cf: 85 12        	sta	$12                     ; 0x2012 <main+0x283>
    21d1: b1 24        	lda	($24),y                 ; 0x2024 <main+0x295>
    21d3: 85 12        	sta	$12                     ; 0x2012 <main+0x283>
    21d5: a0 07        	ldy	#$7
    21d7: b1 24        	lda	($24),y                 ; 0x2024 <main+0x295>
    21d9: a6 12        	ldx	$12                     ; 0x2012 <main+0x283>
    21db: 8e 00 de     	stx	$de00                   ; 0xde00 <__heap_start+0x550c>
    21de: 9c 01 de     	stz	$de01                   ; 0xde01 <__heap_start+0x550d>
    21e1: 8d 02 de     	sta	$de02                   ; 0xde02 <__heap_start+0x550e>
    21e4: 9c 03 de     	stz	$de03                   ; 0xde03 <__heap_start+0x550f>
    21e7: ae 10 de     	ldx	$de10                   ; 0xde10 <__heap_start+0x551c>
    21ea: ac 11 de     	ldy	$de11                   ; 0xde11 <__heap_start+0x551d>
    21ed: ad 12 de     	lda	$de12                   ; 0xde12 <__heap_start+0x551e>
    21f0: ad 13 de     	lda	$de13                   ; 0xde13 <__heap_start+0x551f>
    21f3: 8e a4 d6     	stx	$d6a4                   ; 0xd6a4 <__heap_start+0x4db0>
    21f6: 8c a5 d6     	sty	$d6a5                   ; 0xd6a5 <__heap_start+0x4db1>
    21f9: a2 03        	ldx	#$3
    21fb: 8e a6 d6     	stx	$d6a6                   ; 0xd6a6 <__heap_start+0x4db2>
    21fe: a0 00        	ldy	#$0
    2200: 64 01        	stz	$1                      ; 0x2001 <main+0x272>
    2202: a2 0f        	ldx	#$f
    2204: 8e 00 d0     	stx	$d000                   ; 0xd000 <__heap_start+0x470c>
    2207: a2 04        	ldx	#$4
    2209: 8e 01 d0     	stx	$d001                   ; 0xd001 <__heap_start+0x470d>
    220c: a2 10        	ldx	#$10
    220e: 8e 02 d0     	stx	$d002                   ; 0xd002 <__heap_start+0x470e>
    2211: 9c 0d d0     	stz	$d00d                   ; 0xd00d <__heap_start+0x4719>
    2214: 9c 0e d0     	stz	$d00e                   ; 0xd00e <__heap_start+0x471a>
    2217: 9c 0f d0     	stz	$d00f                   ; 0xd00f <__heap_start+0x471b>
    221a: a2 01        	ldx	#$1
    221c: 86 01        	stx	$1                      ; 0x2001 <main+0x272>
    221e: a2 d0        	ldx	#$d0
    2220: 18           	clc
    2221: 84 16        	sty	$16                     ; 0x2016 <main+0x287>
    2223: 98           	tya
    2224: 69 00        	adc	#$0
    2226: 85 14        	sta	$14                     ; 0x2014 <main+0x285>
    2228: 8a           	txa
    2229: 69 10        	adc	#$10
    222b: 85 15        	sta	$15                     ; 0x2015 <main+0x286>
    222d: 84 12        	sty	$12                     ; 0x2012 <main+0x283>
    222f: 86 13        	stx	$13                     ; 0x2013 <main+0x284>
    2231: a4 0f        	ldy	$f                      ; 0x200f <main+0x280>
    2233: 78           	sei
    2234: a9 10        	lda	#$10
    2236: 85 0f        	sta	$f                      ; 0x200f <main+0x280>
    2238: b2 14        	lda	($14)                   ; 0x2014 <main+0x285>
    223a: 84 0f        	sty	$f                      ; 0x200f <main+0x280>
    223c: 58           	cli
    223d: 92 12        	sta	($12)                   ; 0x2012 <main+0x283>
    223f: a4 16        	ldy	$16                     ; 0x2016 <main+0x287>
    2241: c8           	iny
    2242: f0 06        	beq	$224a <main+0x4bb>
    2244: e0 d3        	cpx	#$d3
    2246: d0 d8        	bne	$2220 <main+0x491>
    2248: 80 05        	bra	$224f <main+0x4c0>
    224a: e8           	inx
    224b: e0 d3        	cpx	#$d3
    224d: d0 d1        	bne	$2220 <main+0x491>
    224f: c0 ff        	cpy	#$ff
    2251: d0 cd        	bne	$2220 <main+0x491>
    2253: 64 01        	stz	$1                      ; 0x2001 <main+0x272>
    2255: a2 40        	ldx	#$40
    2257: 8e 00 de     	stx	$de00                   ; 0xde00 <__heap_start+0x550c>
    225a: a2 01        	ldx	#$1
    225c: 8e 01 de     	stx	$de01                   ; 0xde01 <__heap_start+0x550d>
    225f: a2 f0        	ldx	#$f0
    2261: 8e 02 de     	stx	$de02                   ; 0xde02 <__heap_start+0x550e>
    2264: 9c 03 de     	stz	$de03                   ; 0xde03 <__heap_start+0x550f>
    2267: ae 10 de     	ldx	$de10                   ; 0xde10 <__heap_start+0x551c>
    226a: 86 17        	stx	$17                     ; 0x2017 <main+0x288>
    226c: ae 11 de     	ldx	$de11                   ; 0xde11 <__heap_start+0x551d>
    226f: 86 12        	stx	$12                     ; 0x2012 <main+0x283>
    2271: ae 12 de     	ldx	$de12                   ; 0xde12 <__heap_start+0x551e>
    2274: 86 13        	stx	$13                     ; 0x2013 <main+0x284>
    2276: ae 13 de     	ldx	$de13                   ; 0xde13 <__heap_start+0x551f>
    2279: 86 14        	stx	$14                     ; 0x2014 <main+0x285>
    227b: a4 12        	ldy	$12                     ; 0x2012 <main+0x283>
    227d: 84 15        	sty	$15                     ; 0x2015 <main+0x286>
    227f: 06 15        	asl	$15                     ; 0x2015 <main+0x286>
    2281: a5 13        	lda	$13                     ; 0x2013 <main+0x284>
    2283: 2a           	rol
    2284: 86 16        	stx	$16                     ; 0x2016 <main+0x287>
    2286: 26 16        	rol	$16                     ; 0x2016 <main+0x287>
    2288: 06 15        	asl	$15                     ; 0x2015 <main+0x286>
    228a: 2a           	rol
    228b: 26 16        	rol	$16                     ; 0x2016 <main+0x287>
    228d: 06 15        	asl	$15                     ; 0x2015 <main+0x286>
    228f: 2a           	rol
    2290: 26 16        	rol	$16                     ; 0x2016 <main+0x287>
    2292: 85 15        	sta	$15                     ; 0x2015 <main+0x286>
    2294: 8d 00 de     	sta	$de00                   ; 0xde00 <__heap_start+0x550c>
    2297: a5 16        	lda	$16                     ; 0x2016 <main+0x287>
    2299: 8d 01 de     	sta	$de01                   ; 0xde01 <__heap_start+0x550d>
    229c: 9c 02 de     	stz	$de02                   ; 0xde02 <__heap_start+0x550e>
    229f: a2 20        	ldx	#$20
    22a1: 8e 03 de     	stx	$de03                   ; 0xde03 <__heap_start+0x550f>
    22a4: ae 10 de     	ldx	$de10                   ; 0xde10 <__heap_start+0x551c>
    22a7: 86 16        	stx	$16                     ; 0x2016 <main+0x287>
    22a9: ae 11 de     	ldx	$de11                   ; 0xde11 <__heap_start+0x551d>
    22ac: 86 18        	stx	$18                     ; 0x2018 <main+0x289>
    22ae: ac 12 de     	ldy	$de12                   ; 0xde12 <__heap_start+0x551e>
    22b1: ae 13 de     	ldx	$de13                   ; 0xde13 <__heap_start+0x551f>
    22b4: e4 14        	cpx	$14                     ; 0x2014 <main+0x285>
    22b6: d0 14        	bne	$22cc <main+0x53d>
    22b8: c4 13        	cpy	$13                     ; 0x2013 <main+0x284>
    22ba: d0 10        	bne	$22cc <main+0x53d>
    22bc: a6 18        	ldx	$18                     ; 0x2018 <main+0x289>
    22be: e4 12        	cpx	$12                     ; 0x2012 <main+0x283>
    22c0: d0 0a        	bne	$22cc <main+0x53d>
    22c2: a6 16        	ldx	$16                     ; 0x2016 <main+0x287>
    22c4: e4 17        	cpx	$17                     ; 0x2017 <main+0x288>
    22c6: d0 04        	bne	$22cc <main+0x53d>
    22c8: a6 15        	ldx	$15                     ; 0x2015 <main+0x286>
    22ca: 80 06        	bra	$22d2 <main+0x543>
    22cc: a6 15        	ldx	$15                     ; 0x2015 <main+0x286>
    22ce: e8           	inx
    22cf: d0 01        	bne	$22d2 <main+0x543>
    22d1: 1a           	inc
    22d2: 8e 00 de     	stx	$de00                   ; 0xde00 <__heap_start+0x550c>
    22d5: 8d 01 de     	sta	$de01                   ; 0xde01 <__heap_start+0x550d>
    22d8: 9c 02 de     	stz	$de02                   ; 0xde02 <__heap_start+0x550e>
    22db: a2 20        	ldx	#$20
    22dd: 8e 03 de     	stx	$de03                   ; 0xde03 <__heap_start+0x550f>
    22e0: ae 10 de     	ldx	$de10                   ; 0xde10 <__heap_start+0x551c>
    22e3: 86 12        	stx	$12                     ; 0x2012 <main+0x283>
    22e5: ae 11 de     	ldx	$de11                   ; 0xde11 <__heap_start+0x551d>
    22e8: 86 13        	stx	$13                     ; 0x2013 <main+0x284>
    22ea: ae 12 de     	ldx	$de12                   ; 0xde12 <__heap_start+0x551e>
    22ed: 86 14        	stx	$14                     ; 0x2014 <main+0x285>
    22ef: ae 13 de     	ldx	$de13                   ; 0xde13 <__heap_start+0x551f>
    22f2: 86 15        	stx	$15                     ; 0x2015 <main+0x286>
    22f4: a9 00        	lda	#$0
    22f6: 38           	sec
    22f7: e5 12        	sbc	$12                     ; 0x2012 <main+0x283>
    22f9: 85 16        	sta	$16                     ; 0x2016 <main+0x287>
    22fb: a9 00        	lda	#$0
    22fd: e5 13        	sbc	$13                     ; 0x2013 <main+0x284>
    22ff: 85 17        	sta	$17                     ; 0x2017 <main+0x288>
    2301: a9 08        	lda	#$8
    2303: e5 14        	sbc	$14                     ; 0x2014 <main+0x285>
    2305: aa           	tax
    2306: a9 00        	lda	#$0
    2308: e5 15        	sbc	$15                     ; 0x2015 <main+0x286>
    230a: a8           	tay
    230b: a5 17        	lda	$17                     ; 0x2017 <main+0x288>
    230d: 8d f8 86     	sta	$86f8                   ; 0x86f8 <_BITMAP_BASE.0+0x1>
    2310: 8e f9 86     	stx	$86f9                   ; 0x86f9 <_BITMAP_BASE.0+0x2>
    2313: 8c fa 86     	sty	$86fa                   ; 0x86fa <_BITMAP_BASE.0+0x3>
    2316: a5 16        	lda	$16                     ; 0x2016 <main+0x287>
    2318: 38           	sec
    2319: e5 12        	sbc	$12                     ; 0x2012 <main+0x283>
    231b: a8           	tay
    231c: a5 17        	lda	$17                     ; 0x2017 <main+0x288>
    231e: e5 13        	sbc	$13                     ; 0x2013 <main+0x284>
    2320: 85 15        	sta	$15                     ; 0x2015 <main+0x286>
    2322: 8a           	txa
    2323: e5 14        	sbc	$14                     ; 0x2014 <main+0x285>
    2325: aa           	tax
    2326: 98           	tya
    2327: 38           	sec
    2328: e5 12        	sbc	$12                     ; 0x2012 <main+0x283>
    232a: 85 12        	sta	$12                     ; 0x2012 <main+0x283>
    232c: a5 15        	lda	$15                     ; 0x2015 <main+0x286>
    232e: e5 13        	sbc	$13                     ; 0x2013 <main+0x284>
    2330: 85 13        	sta	$13                     ; 0x2013 <main+0x284>
    2332: 8a           	txa
    2333: 86 17        	stx	$17                     ; 0x2017 <main+0x288>
    2335: e5 14        	sbc	$14                     ; 0x2014 <main+0x285>
    2337: a6 16        	ldx	$16                     ; 0x2016 <main+0x287>
    2339: 8e f7 86     	stx	$86f7                   ; 0x86f7 <_BITMAP_BASE.0>
    233c: 8e 01 d1     	stx	$d101                   ; 0xd101 <__heap_start+0x480d>
    233f: ae f8 86     	ldx	$86f8                   ; 0x86f8 <_BITMAP_BASE.0+0x1>
    2342: 8e 02 d1     	stx	$d102                   ; 0xd102 <__heap_start+0x480e>
    2345: ae f9 86     	ldx	$86f9                   ; 0x86f9 <_BITMAP_BASE.0+0x2>
    2348: 8e 03 d1     	stx	$d103                   ; 0xd103 <__heap_start+0x480f>
    234b: 8c 09 d1     	sty	$d109                   ; 0xd109 <__heap_start+0x4815>
    234e: a6 15        	ldx	$15                     ; 0x2015 <main+0x286>
    2350: 8e 0a d1     	stx	$d10a                   ; 0xd10a <__heap_start+0x4816>
    2353: a6 17        	ldx	$17                     ; 0x2017 <main+0x288>
    2355: 8e 0b d1     	stx	$d10b                   ; 0xd10b <__heap_start+0x4817>
    2358: a6 12        	ldx	$12                     ; 0x2012 <main+0x283>
    235a: 8e 11 d1     	stx	$d111                   ; 0xd111 <__heap_start+0x481d>
    235d: a6 13        	ldx	$13                     ; 0x2013 <main+0x284>
    235f: 8e 12 d1     	stx	$d112                   ; 0xd112 <__heap_start+0x481e>
    2362: 8d 13 d1     	sta	$d113                   ; 0xd113 <__heap_start+0x481f>
    2365: 9c 00 d1     	stz	$d100                   ; 0xd100 <__heap_start+0x480c>
    2368: 9c 08 d1     	stz	$d108                   ; 0xd108 <__heap_start+0x4814>
    236b: 9c 10 d1     	stz	$d110                   ; 0xd110 <__heap_start+0x481c>
    236e: 9c f7 86     	stz	$86f7                   ; 0x86f7 <_BITMAP_BASE.0>
    2371: a2 04        	ldx	#$4
    2373: 8e f8 86     	stx	$86f8                   ; 0x86f8 <_BITMAP_BASE.0+0x1>
    2376: a0 02        	ldy	#$2
    2378: 8c f9 86     	sty	$86f9                   ; 0x86f9 <_BITMAP_BASE.0+0x2>
    237b: 9c fa 86     	stz	$86fa                   ; 0x86fa <_BITMAP_BASE.0+0x3>
    237e: 9c 01 d1     	stz	$d101                   ; 0xd101 <__heap_start+0x480d>
    2381: 8e 02 d1     	stx	$d102                   ; 0xd102 <__heap_start+0x480e>
    2384: 8c 03 d1     	sty	$d103                   ; 0xd103 <__heap_start+0x480f>
    2387: a2 01        	ldx	#$1
    2389: 8e 00 d1     	stx	$d100                   ; 0xd100 <__heap_start+0x480c>
    238c: a2 eb        	ldx	#$eb
    238e: 86 12        	stx	$12                     ; 0x2012 <main+0x283>
    2390: a2 56        	ldx	#$56
    2392: 86 13        	stx	$13                     ; 0x2013 <main+0x284>
    2394: a2 59        	ldx	#$59
    2396: 86 14        	stx	$14                     ; 0x2014 <main+0x285>
    2398: a2 55        	ldx	#$55
    239a: 86 15        	stx	$15                     ; 0x2015 <main+0x286>
    239c: a9 3c        	lda	#$3c
    239e: a2 00        	ldx	#$0
    23a0: 20 5e 4f     	jsr	$4f5e <memcpy>
    23a3: a2 bd        	ldx	#$bd
    23a5: 8e 80 d5     	stx	$d580                   ; 0xd580 <__heap_start+0x4c8c>
    23a8: a2 00        	ldx	#$0
    23aa: 9c 81 d5     	stz	$d581                   ; 0xd581 <__heap_start+0x4c8d>
    23ad: 4c 26 24     	jmp	$2426 <main+0x697>
    23b0: 18           	clc
    23b1: 8a           	txa
    23b2: 69 0a        	adc	#$a
    23b4: a8           	tay
    23b5: 09 20        	ora	#$20
    23b7: 8d 80 d5     	sta	$d580                   ; 0xd580 <__heap_start+0x4c8c>
    23ba: 9c 81 d5     	stz	$d581                   ; 0xd581 <__heap_start+0x4c8d>
    23bd: 98           	tya
    23be: 18           	clc
    23bf: 69 03        	adc	#$3
    23c1: 85 12        	sta	$12                     ; 0x2012 <main+0x283>
    23c3: 09 20        	ora	#$20
    23c5: 8d 80 d5     	sta	$d580                   ; 0xd580 <__heap_start+0x4c8c>
    23c8: 9c 81 d5     	stz	$d581                   ; 0xd581 <__heap_start+0x4c8d>
    23cb: 98           	tya
    23cc: 09 40        	ora	#$40
    23ce: 8d 80 d5     	sta	$d580                   ; 0xd580 <__heap_start+0x4c8c>
    23d1: 9c 81 d5     	stz	$d581                   ; 0xd581 <__heap_start+0x4c8d>
    23d4: a5 12        	lda	$12                     ; 0x2012 <main+0x283>
    23d6: 09 40        	ora	#$40
    23d8: 8d 80 d5     	sta	$d580                   ; 0xd580 <__heap_start+0x4c8c>
    23db: 9c 81 d5     	stz	$d581                   ; 0xd581 <__heap_start+0x4c8d>
    23de: 98           	tya
    23df: 09 60        	ora	#$60
    23e1: 8d 80 d5     	sta	$d580                   ; 0xd580 <__heap_start+0x4c8c>
    23e4: 9c 81 d5     	stz	$d581                   ; 0xd581 <__heap_start+0x4c8d>
    23e7: a5 12        	lda	$12                     ; 0x2012 <main+0x283>
    23e9: 09 60        	ora	#$60
    23eb: 8d 80 d5     	sta	$d580                   ; 0xd580 <__heap_start+0x4c8c>
    23ee: 9c 81 d5     	stz	$d581                   ; 0xd581 <__heap_start+0x4c8d>
    23f1: 98           	tya
    23f2: 09 80        	ora	#$80
    23f4: 8d 80 d5     	sta	$d580                   ; 0xd580 <__heap_start+0x4c8c>
    23f7: 9c 81 d5     	stz	$d581                   ; 0xd581 <__heap_start+0x4c8d>
    23fa: a5 12        	lda	$12                     ; 0x2012 <main+0x283>
    23fc: 09 80        	ora	#$80
    23fe: 8d 80 d5     	sta	$d580                   ; 0xd580 <__heap_start+0x4c8c>
    2401: 9c 81 d5     	stz	$d581                   ; 0xd581 <__heap_start+0x4c8d>
    2404: 98           	tya
    2405: 09 e0        	ora	#$e0
    2407: 8d 80 d5     	sta	$d580                   ; 0xd580 <__heap_start+0x4c8c>
    240a: 9c 81 d5     	stz	$d581                   ; 0xd581 <__heap_start+0x4c8d>
    240d: a5 12        	lda	$12                     ; 0x2012 <main+0x283>
    240f: 09 e0        	ora	#$e0
    2411: 8d 80 d5     	sta	$d580                   ; 0xd580 <__heap_start+0x4c8c>
    2414: 9c 81 d5     	stz	$d581                   ; 0xd581 <__heap_start+0x4c8d>
    2417: 18           	clc
    2418: 8a           	txa
    2419: 69 c0        	adc	#$c0
    241b: 8d 80 d5     	sta	$d580                   ; 0xd580 <__heap_start+0x4c8c>
    241e: 9c 81 d5     	stz	$d581                   ; 0xd581 <__heap_start+0x4c8d>
    2421: e8           	inx
    2422: e0 09        	cpx	#$9
    2424: f0 16        	beq	$243c <main+0x6ad>
    2426: e0 03        	cpx	#$3
    2428: 8a           	txa
    2429: b0 03        	bcs	$242e <main+0x69f>
    242b: 4c b4 23     	jmp	$23b4 <main+0x625>
    242e: e0 06        	cpx	#$6
    2430: 90 03        	bcc	$2435 <main+0x6a6>
    2432: 4c b0 23     	jmp	$23b0 <main+0x621>
    2435: 18           	clc
    2436: 8a           	txa
    2437: 69 05        	adc	#$5
    2439: 4c b4 23     	jmp	$23b4 <main+0x625>
    243c: a2 00        	ldx	#$0
    243e: 4c b6 24     	jmp	$24b6 <main+0x727>
    2441: 18           	clc
    2442: 69 0a        	adc	#$a
    2444: a8           	tay
    2445: 09 20        	ora	#$20
    2447: 8d 82 d5     	sta	$d582                   ; 0xd582 <__heap_start+0x4c8e>
    244a: 9c 81 d5     	stz	$d581                   ; 0xd581 <__heap_start+0x4c8d>
    244d: 18           	clc
    244e: 98           	tya
    244f: 69 03        	adc	#$3
    2451: 85 12        	sta	$12                     ; 0x2012 <main+0x283>
    2453: 09 20        	ora	#$20
    2455: 8d 82 d5     	sta	$d582                   ; 0xd582 <__heap_start+0x4c8e>
    2458: 9c 81 d5     	stz	$d581                   ; 0xd581 <__heap_start+0x4c8d>
    245b: 98           	tya
    245c: 09 40        	ora	#$40
    245e: 8d 82 d5     	sta	$d582                   ; 0xd582 <__heap_start+0x4c8e>
    2461: 9c 81 d5     	stz	$d581                   ; 0xd581 <__heap_start+0x4c8d>
    2464: a5 12        	lda	$12                     ; 0x2012 <main+0x283>
    2466: 09 40        	ora	#$40
    2468: 8d 82 d5     	sta	$d582                   ; 0xd582 <__heap_start+0x4c8e>
    246b: 9c 81 d5     	stz	$d581                   ; 0xd581 <__heap_start+0x4c8d>
    246e: 98           	tya
    246f: 09 60        	ora	#$60
    2471: 8d 82 d5     	sta	$d582                   ; 0xd582 <__heap_start+0x4c8e>
    2474: 9c 81 d5     	stz	$d581                   ; 0xd581 <__heap_start+0x4c8d>
    2477: a5 12        	lda	$12                     ; 0x2012 <main+0x283>
    2479: 09 60        	ora	#$60
    247b: 8d 82 d5     	sta	$d582                   ; 0xd582 <__heap_start+0x4c8e>
    247e: 9c 81 d5     	stz	$d581                   ; 0xd581 <__heap_start+0x4c8d>
    2481: 98           	tya
    2482: 09 80        	ora	#$80
    2484: 8d 82 d5     	sta	$d582                   ; 0xd582 <__heap_start+0x4c8e>
    2487: 9c 81 d5     	stz	$d581                   ; 0xd581 <__heap_start+0x4c8d>
    248a: a5 12        	lda	$12                     ; 0x2012 <main+0x283>
    248c: 09 80        	ora	#$80
    248e: 8d 82 d5     	sta	$d582                   ; 0xd582 <__heap_start+0x4c8e>
    2491: 9c 81 d5     	stz	$d581                   ; 0xd581 <__heap_start+0x4c8d>
    2494: 98           	tya
    2495: 09 e0        	ora	#$e0
    2497: 8d 82 d5     	sta	$d582                   ; 0xd582 <__heap_start+0x4c8e>
    249a: 9c 81 d5     	stz	$d581                   ; 0xd581 <__heap_start+0x4c8d>
    249d: a5 12        	lda	$12                     ; 0x2012 <main+0x283>
    249f: 09 e0        	ora	#$e0
    24a1: 8d 82 d5     	sta	$d582                   ; 0xd582 <__heap_start+0x4c8e>
    24a4: 9c 81 d5     	stz	$d581                   ; 0xd581 <__heap_start+0x4c8d>
    24a7: 8a           	txa
    24a8: 18           	clc
    24a9: 69 c0        	adc	#$c0
    24ab: 8d 82 d5     	sta	$d582                   ; 0xd582 <__heap_start+0x4c8e>
    24ae: 9c 81 d5     	stz	$d581                   ; 0xd581 <__heap_start+0x4c8d>
    24b1: e8           	inx
    24b2: e0 09        	cpx	#$9
    24b4: f0 16        	beq	$24cc <main+0x73d>
    24b6: e0 03        	cpx	#$3
    24b8: 8a           	txa
    24b9: b0 03        	bcs	$24be <main+0x72f>
    24bb: 4c 44 24     	jmp	$2444 <main+0x6b5>
    24be: 8a           	txa
    24bf: e0 06        	cpx	#$6
    24c1: 90 03        	bcc	$24c6 <main+0x737>
    24c3: 4c 41 24     	jmp	$2441 <main+0x6b2>
    24c6: 18           	clc
    24c7: 69 05        	adc	#$5
    24c9: 4c 44 24     	jmp	$2444 <main+0x6b5>
    24cc: a2 90        	ldx	#$90
    24ce: 8a           	txa
    24cf: a0 16        	ldy	#$16
    24d1: 91 10        	sta	($10),y                 ; 0x2010 <main+0x281>
    24d3: a2 1c        	ldx	#$1c
    24d5: 86 28        	stx	$28                     ; 0x2028 <main+0x299>
    24d7: a2 55        	ldx	#$55
    24d9: 86 29        	stx	$29                     ; 0x2029 <main+0x29a>
    24db: a2 2e        	ldx	#$2e
    24dd: 86 2a        	stx	$2a                     ; 0x202a <main+0x29b>
    24df: a2 54        	ldx	#$54
    24e1: 86 2b        	stx	$2b                     ; 0x202b <main+0x29c>
    24e3: a2 00        	ldx	#$0
    24e5: 86 2c        	stx	$2c                     ; 0x202c <main+0x29d>
    24e7: a2 00        	ldx	#$0
    24e9: 86 2d        	stx	$2d                     ; 0x202d <main+0x29e>
    24eb: a2 eb        	ldx	#$eb
    24ed: a0 56        	ldy	#$56
    24ef: 8a           	txa
    24f0: 5a           	phy
    24f1: a0 11        	ldy	#$11
    24f3: 91 10        	sta	($10),y                 ; 0x2010 <main+0x281>
    24f5: 7a           	ply
    24f6: 98           	tya
    24f7: a0 10        	ldy	#$10
    24f9: 91 10        	sta	($10),y                 ; 0x2010 <main+0x281>
    24fb: 64 26        	stz	$26                     ; 0x2026 <main+0x297>
    24fd: 64 2f        	stz	$2f                     ; 0x202f <main+0x2a0>
    24ff: 64 12        	stz	$12                     ; 0x2012 <main+0x283>
    2501: a9 00        	lda	#$0
    2503: a0 19        	ldy	#$19
    2505: 91 10        	sta	($10),y                 ; 0x2010 <main+0x281>
    2507: 64 27        	stz	$27                     ; 0x2027 <main+0x298>
    2509: c8           	iny
    250a: 91 10        	sta	($10),y                 ; 0x2010 <main+0x281>
    250c: 20 55 1c     	jsr	$1c55 <opl3_initialize>
    250f: ad 01 d0     	lda	$d001                   ; 0xd001 <__heap_start+0x470d>
    2512: 09 10        	ora	#$10
    2514: 8d 01 d0     	sta	$d001                   ; 0xd001 <__heap_start+0x470d>
    2517: a2 d1        	ldx	#$d1
    2519: 86 33        	stx	$33                     ; 0x2033 <main+0x2a4>
    251b: 64 53        	stz	$53                     ; 0x2053 <main+0x2c4>
    251d: 9c 14 d0     	stz	$d014                   ; 0xd014 <__heap_start+0x4720>
    2520: 9c 15 d0     	stz	$d015                   ; 0xd015 <__heap_start+0x4721>
    2523: 64 54        	stz	$54                     ; 0x2054 <main+0x2c5>
    2525: 9c 16 d0     	stz	$d016                   ; 0xd016 <__heap_start+0x4722>
    2528: 9c 17 d0     	stz	$d017                   ; 0xd017 <__heap_start+0x4723>
    252b: a6 28        	ldx	$28                     ; 0x2028 <main+0x299>
    252d: 86 12        	stx	$12                     ; 0x2012 <main+0x283>
    252f: a6 29        	ldx	$29                     ; 0x2029 <main+0x29a>
    2531: 86 13        	stx	$13                     ; 0x2013 <main+0x284>
    2533: 20 b6 48     	jsr	$48b6 <printf>
    2536: 64 53        	stz	$53                     ; 0x2053 <main+0x2c4>
    2538: 9c 14 d0     	stz	$d014                   ; 0xd014 <__heap_start+0x4720>
    253b: 9c 15 d0     	stz	$d015                   ; 0xd015 <__heap_start+0x4721>
    253e: a2 01        	ldx	#$1
    2540: 86 54        	stx	$54                     ; 0x2054 <main+0x2c5>
    2542: 8e 16 d0     	stx	$d016                   ; 0xd016 <__heap_start+0x4722>
    2545: 9c 17 d0     	stz	$d017                   ; 0xd017 <__heap_start+0x4723>
    2548: a6 2a        	ldx	$2a                     ; 0x202a <main+0x29b>
    254a: 86 12        	stx	$12                     ; 0x2012 <main+0x283>
    254c: a6 2b        	ldx	$2b                     ; 0x202b <main+0x29c>
    254e: 86 13        	stx	$13                     ; 0x2013 <main+0x284>
    2550: 20 b6 48     	jsr	$48b6 <printf>
    2553: 20 64 38     	jsr	$3864 <fileOpenDir>
    2556: a6 13        	ldx	$13                     ; 0x2013 <main+0x284>
    2558: e4 2d        	cpx	$2d                     ; 0x202d <main+0x29e>
    255a: d0 2b        	bne	$2587 <main+0x7f8>
    255c: a6 12        	ldx	$12                     ; 0x2012 <main+0x283>
    255e: a0 11        	ldy	#$11
    2560: b1 10        	lda	($10),y                 ; 0x2010 <main+0x281>
    2562: 85 2a        	sta	$2a                     ; 0x202a <main+0x29b>
    2564: 88           	dey
    2565: b1 10        	lda	($10),y                 ; 0x2010 <main+0x281>
    2567: 85 2b        	sta	$2b                     ; 0x202b <main+0x29c>
    2569: e4 2c        	cpx	$2c                     ; 0x202c <main+0x29d>
    256b: d0 25        	bne	$2592 <main+0x803>
    256d: a2 eb        	ldx	#$eb
    256f: 86 12        	stx	$12                     ; 0x2012 <main+0x283>
    2571: a2 56        	ldx	#$56
    2573: 86 13        	stx	$13                     ; 0x2013 <main+0x284>
    2575: a2 95        	ldx	#$95
    2577: 86 14        	stx	$14                     ; 0x2014 <main+0x285>
    2579: a2 55        	ldx	#$55
    257b: 86 15        	stx	$15                     ; 0x2015 <main+0x286>
    257d: a2 00        	ldx	#$0
    257f: a9 3c        	lda	#$3c
    2581: 20 5e 4f     	jsr	$4f5e <memcpy>
    2584: 4c 26 26     	jmp	$2626 <main+0x897>
    2587: a0 11        	ldy	#$11
    2589: b1 10        	lda	($10),y                 ; 0x2010 <main+0x281>
    258b: 85 2a        	sta	$2a                     ; 0x202a <main+0x29b>
    258d: 88           	dey
    258e: b1 10        	lda	($10),y                 ; 0x2010 <main+0x281>
    2590: 85 2b        	sta	$2b                     ; 0x202b <main+0x29c>
    2592: a2 3c        	ldx	#$3c
    2594: 64 15        	stz	$15                     ; 0x2015 <main+0x286>
    2596: 64 14        	stz	$14                     ; 0x2014 <main+0x285>
    2598: 80 06        	bra	$25a0 <main+0x811>
    259a: e6 15        	inc	$15                     ; 0x2015 <main+0x286>
    259c: a5 14        	lda	$14                     ; 0x2014 <main+0x285>
    259e: f0 11        	beq	$25b1 <main+0x822>
    25a0: a4 15        	ldy	$15                     ; 0x2015 <main+0x286>
    25a2: b9 eb 56     	lda	$56eb,y                 ; 0x56eb <fpr+0x2>
    25a5: a8           	tay
    25a6: f0 0e        	beq	$25b6 <main+0x827>
    25a8: ca           	dex
    25a9: e0 ff        	cpx	#$ff
    25ab: d0 ed        	bne	$259a <main+0x80b>
    25ad: c6 14        	dec	$14                     ; 0x2014 <main+0x285>
    25af: 80 e9        	bra	$259a <main+0x80b>
    25b1: 8a           	txa
    25b2: d0 ec        	bne	$25a0 <main+0x811>
    25b4: 80 36        	bra	$25ec <main+0x85d>
    25b6: ca           	dex
    25b7: e0 ff        	cpx	#$ff
    25b9: d0 02        	bne	$25bd <main+0x82e>
    25bb: c6 14        	dec	$14                     ; 0x2014 <main+0x285>
    25bd: a5 14        	lda	$14                     ; 0x2014 <main+0x285>
    25bf: d0 03        	bne	$25c4 <main+0x835>
    25c1: 8a           	txa
    25c2: f0 28        	beq	$25ec <main+0x85d>
    25c4: a9 ec        	lda	#$ec
    25c6: 18           	clc
    25c7: 65 15        	adc	$15                     ; 0x2015 <main+0x286>
    25c9: 85 16        	sta	$16                     ; 0x2016 <main+0x287>
    25cb: a9 56        	lda	#$56
    25cd: 69 00        	adc	#$0
    25cf: 85 17        	sta	$17                     ; 0x2017 <main+0x288>
    25d1: a4 12        	ldy	$12                     ; 0x2012 <main+0x283>
    25d3: 84 28        	sty	$28                     ; 0x2028 <main+0x299>
    25d5: a4 13        	ldy	$13                     ; 0x2013 <main+0x284>
    25d7: 84 29        	sty	$29                     ; 0x2029 <main+0x29a>
    25d9: a4 16        	ldy	$16                     ; 0x2016 <main+0x287>
    25db: 84 12        	sty	$12                     ; 0x2012 <main+0x283>
    25dd: 85 13        	sta	$13                     ; 0x2013 <main+0x284>
    25df: a9 00        	lda	#$0
    25e1: 20 8a 4f     	jsr	$4f8a <__memset>
    25e4: a6 28        	ldx	$28                     ; 0x2028 <main+0x299>
    25e6: 86 12        	stx	$12                     ; 0x2012 <main+0x283>
    25e8: a6 29        	ldx	$29                     ; 0x2029 <main+0x29a>
    25ea: 86 13        	stx	$13                     ; 0x2013 <main+0x284>
    25ec: b2 12        	lda	($12)                   ; 0x2012 <main+0x283>
    25ee: f0 1c        	beq	$260c <main+0x87d>
    25f0: 85 f3        	sta	$f3                     ; 0x20f3 <main+0x364>
    25f2: a2 52        	ldx	#$52
    25f4: 86 14        	stx	$14                     ; 0x2014 <main+0x285>
    25f6: a2 00        	ldx	#$0
    25f8: 86 15        	stx	$15                     ; 0x2015 <main+0x286>
    25fa: 20 80 ff     	jsr	$ff80 <__heap_start+0x768c>
    25fd: 92 24        	sta	($24)                   ; 0x2024 <main+0x295>
    25ff: a9 00        	lda	#$0
    2601: 6a           	ror
    2602: 85 14        	sta	$14                     ; 0x2014 <main+0x285>
    2604: a6 52        	ldx	$52                     ; 0x2052 <main+0x2c3>
    2606: d0 04        	bne	$260c <main+0x87d>
    2608: a9 00        	lda	#$0
    260a: 92 12        	sta	($12)                   ; 0x2012 <main+0x283>
    260c: 64 4b        	stz	$4b                     ; 0x204b <main+0x2bc>
    260e: a2 52        	ldx	#$52
    2610: 86 14        	stx	$14                     ; 0x2014 <main+0x285>
    2612: a2 00        	ldx	#$0
    2614: 86 15        	stx	$15                     ; 0x2015 <main+0x286>
    2616: 20 00 ff     	jsr	$ff00 <__heap_start+0x760c>
    2619: 92 24        	sta	($24)                   ; 0x2024 <main+0x295>
    261b: a9 00        	lda	#$0
    261d: 6a           	ror
    261e: 85 14        	sta	$14                     ; 0x2014 <main+0x285>
    2620: a6 4b        	ldx	$4b                     ; 0x204b <main+0x2bc>
    2622: e0 46        	cpx	#$46
    2624: d0 c6        	bne	$25ec <main+0x85d>
    2626: a2 27        	ldx	#$27
    2628: 86 12        	stx	$12                     ; 0x2012 <main+0x283>
    262a: a2 57        	ldx	#$57
    262c: 86 13        	stx	$13                     ; 0x2013 <main+0x284>
    262e: 64 14        	stz	$14                     ; 0x2014 <main+0x285>
    2630: a2 78        	ldx	#$78
    2632: a9 00        	lda	#$0
    2634: 20 8a 4f     	jsr	$4f8a <__memset>
    2637: a2 17        	ldx	#$17
    2639: 86 12        	stx	$12                     ; 0x2012 <main+0x283>
    263b: a2 58        	ldx	#$58
    263d: 86 13        	stx	$13                     ; 0x2013 <main+0x284>
    263f: a2 2e        	ldx	#$2e
    2641: 86 14        	stx	$14                     ; 0x2014 <main+0x285>
    2643: a2 68        	ldx	#$68
    2645: a9 00        	lda	#$0
    2647: 20 8a 4f     	jsr	$4f8a <__memset>
    264a: 9c e9 56     	stz	$56e9                   ; 0x56e9 <fpr>
    264d: a2 80        	ldx	#$80
    264f: 86 12        	stx	$12                     ; 0x2012 <main+0x283>
    2651: a2 86        	ldx	#$86
    2653: 86 13        	stx	$13                     ; 0x2013 <main+0x284>
    2655: 64 14        	stz	$14                     ; 0x2014 <main+0x285>
    2657: a2 6b        	ldx	#$6b
    2659: a9 00        	lda	#$0
    265b: 20 8a 4f     	jsr	$4f8a <__memset>
    265e: a2 03        	ldx	#$3
    2660: 8e ea 56     	stx	$56ea                   ; 0x56ea <fpr+0x1>
    2663: ae 48 55     	ldx	$5548                   ; 0x5548 <__set_v+0x453>
    2666: 8e eb 86     	stx	$86eb                   ; 0x86eb <fpr+0x3002>
    2669: ae 49 55     	ldx	$5549                   ; 0x5549 <__set_v+0x454>
    266c: 8e ec 86     	stx	$86ec                   ; 0x86ec <fpr+0x3003>
    266f: ae 4a 55     	ldx	$554a                   ; 0x554a <__set_v+0x455>
    2672: 8e ed 86     	stx	$86ed                   ; 0x86ed <fpr+0x3004>
    2675: a2 ee        	ldx	#$ee
    2677: 86 12        	stx	$12                     ; 0x2012 <main+0x283>
    2679: a2 86        	ldx	#$86
    267b: 86 13        	stx	$13                     ; 0x2013 <main+0x284>
    267d: 64 14        	stz	$14                     ; 0x2014 <main+0x285>
    267f: a2 09        	ldx	#$9
    2681: a9 00        	lda	#$0
    2683: 20 8a 4f     	jsr	$4f8a <__memset>
    2686: 20 76 05     	jsr	$576 <readDirectory>
    2689: 20 5f 09     	jsr	$95f <sortFileList>
    268c: a2 a0        	ldx	#$a0
    268e: 86 33        	stx	$33                     ; 0x2033 <main+0x2a4>
    2690: 4c e1 27     	jmp	$27e1 <main+0xa52>
    2693: ad eb 56     	lda	$56eb                   ; 0x56eb <fpr+0x2>
    2696: d0 03        	bne	$269b <main+0x90c>
    2698: 4c b7 27     	jmp	$27b7 <main+0xa28>
    269b: c9 2f        	cmp	#$2f
    269d: d0 0c        	bne	$26ab <main+0x91c>
    269f: ae ec 56     	ldx	$56ec                   ; 0x56ec <fpr+0x3>
    26a2: a9 2f        	lda	#$2f
    26a4: e0 00        	cpx	#$0
    26a6: d0 03        	bne	$26ab <main+0x91c>
    26a8: 4c b7 27     	jmp	$27b7 <main+0xa28>
    26ab: a2 eb        	ldx	#$eb
    26ad: 86 14        	stx	$14                     ; 0x2014 <main+0x285>
    26af: a2 56        	ldx	#$56
    26b1: 86 15        	stx	$15                     ; 0x2015 <main+0x286>
    26b3: a2 00        	ldx	#$0
    26b5: 86 12        	stx	$12                     ; 0x2012 <main+0x283>
    26b7: a2 00        	ldx	#$0
    26b9: 86 13        	stx	$13                     ; 0x2013 <main+0x284>
    26bb: a0 01        	ldy	#$1
    26bd: c9 2f        	cmp	#$2f
    26bf: d0 08        	bne	$26c9 <main+0x93a>
    26c1: a6 14        	ldx	$14                     ; 0x2014 <main+0x285>
    26c3: 86 12        	stx	$12                     ; 0x2012 <main+0x283>
    26c5: a6 15        	ldx	$15                     ; 0x2015 <main+0x286>
    26c7: 86 13        	stx	$13                     ; 0x2013 <main+0x284>
    26c9: b1 14        	lda	($14),y                 ; 0x2014 <main+0x285>
    26cb: e6 14        	inc	$14                     ; 0x2014 <main+0x285>
    26cd: d0 02        	bne	$26d1 <main+0x942>
    26cf: e6 15        	inc	$15                     ; 0x2015 <main+0x286>
    26d1: aa           	tax
    26d2: d0 e9        	bne	$26bd <main+0x92e>
    26d4: a6 13        	ldx	$13                     ; 0x2013 <main+0x284>
    26d6: e4 2d        	cpx	$2d                     ; 0x202d <main+0x29e>
    26d8: f0 03        	beq	$26dd <main+0x94e>
    26da: 4c a2 27     	jmp	$27a2 <main+0xa13>
    26dd: a6 12        	ldx	$12                     ; 0x2012 <main+0x283>
    26df: a9 00        	lda	#$0
    26e1: e4 2c        	cpx	$2c                     ; 0x202c <main+0x29d>
    26e3: f0 03        	beq	$26e8 <main+0x959>
    26e5: 4c a4 27     	jmp	$27a4 <main+0xa15>
    26e8: 4c b0 27     	jmp	$27b0 <main+0xa21>
    26eb: a6 10        	ldx	$10                     ; 0x2010 <main+0x281>
    26ed: a4 11        	ldy	$11                     ; 0x2011 <main+0x282>
    26ef: 8a           	txa
    26f0: 18           	clc
    26f1: 69 02        	adc	#$2
    26f3: 85 12        	sta	$12                     ; 0x2012 <main+0x283>
    26f5: 98           	tya
    26f6: 69 00        	adc	#$0
    26f8: 85 13        	sta	$13                     ; 0x2013 <main+0x284>
    26fa: 18           	clc
    26fb: 8a           	txa
    26fc: 69 04        	adc	#$4
    26fe: 85 14        	sta	$14                     ; 0x2014 <main+0x285>
    2700: 98           	tya
    2701: 69 00        	adc	#$0
    2703: aa           	tax
    2704: a9 eb        	lda	#$eb
    2706: 92 10        	sta	($10)                   ; 0x2010 <main+0x281>
    2708: a0 01        	ldy	#$1
    270a: a9 56        	lda	#$56
    270c: 91 10        	sta	($10),y                 ; 0x2010 <main+0x281>
    270e: c8           	iny
    270f: a9 b5        	lda	#$b5
    2711: 91 10        	sta	($10),y                 ; 0x2010 <main+0x281>
    2713: a9 54        	lda	#$54
    2715: 88           	dey
    2716: 91 12        	sta	($12),y                 ; 0x2012 <main+0x283>
    2718: a4 14        	ldy	$14                     ; 0x2014 <main+0x285>
    271a: 84 12        	sty	$12                     ; 0x2012 <main+0x283>
    271c: 86 13        	stx	$13                     ; 0x2013 <main+0x284>
    271e: a9 27        	lda	#$27
    2720: a0 04        	ldy	#$4
    2722: 91 10        	sta	($10),y                 ; 0x2010 <main+0x281>
    2724: a9 57        	lda	#$57
    2726: a0 01        	ldy	#$1
    2728: 91 12        	sta	($12),y                 ; 0x2012 <main+0x283>
    272a: a6 24        	ldx	$24                     ; 0x2024 <main+0x295>
    272c: 86 12        	stx	$12                     ; 0x2012 <main+0x283>
    272e: a6 25        	ldx	$25                     ; 0x2025 <main+0x296>
    2730: 86 13        	stx	$13                     ; 0x2013 <main+0x284>
    2732: 20 38 49     	jsr	$4938 <sprintf>
    2735: a2 17        	ldx	#$17
    2737: 86 12        	stx	$12                     ; 0x2012 <main+0x283>
    2739: a2 58        	ldx	#$58
    273b: 86 13        	stx	$13                     ; 0x2013 <main+0x284>
    273d: 64 28        	stz	$28                     ; 0x2028 <main+0x299>
    273f: a2 2e        	ldx	#$2e
    2741: 86 14        	stx	$14                     ; 0x2014 <main+0x285>
    2743: a2 68        	ldx	#$68
    2745: a9 00        	lda	#$0
    2747: 20 8a 4f     	jsr	$4f8a <__memset>
    274a: a2 80        	ldx	#$80
    274c: 86 12        	stx	$12                     ; 0x2012 <main+0x283>
    274e: a2 86        	ldx	#$86
    2750: 86 13        	stx	$13                     ; 0x2013 <main+0x284>
    2752: 64 14        	stz	$14                     ; 0x2014 <main+0x285>
    2754: a2 6b        	ldx	#$6b
    2756: a9 00        	lda	#$0
    2758: 20 8a 4f     	jsr	$4f8a <__memset>
    275b: a2 3c        	ldx	#$3c
    275d: 64 14        	stz	$14                     ; 0x2014 <main+0x285>
    275f: 80 06        	bra	$2767 <main+0x9d8>
    2761: e6 28        	inc	$28                     ; 0x2028 <main+0x299>
    2763: a5 14        	lda	$14                     ; 0x2014 <main+0x285>
    2765: f0 18        	beq	$277f <main+0x9f0>
    2767: a4 28        	ldy	$28                     ; 0x2028 <main+0x299>
    2769: b1 24        	lda	($24),y                 ; 0x2024 <main+0x295>
    276b: 85 12        	sta	$12                     ; 0x2012 <main+0x283>
    276d: b1 24        	lda	($24),y                 ; 0x2024 <main+0x295>
    276f: 99 eb 56     	sta	$56eb,y                 ; 0x56eb <fpr+0x2>
    2772: a5 12        	lda	$12                     ; 0x2012 <main+0x283>
    2774: f0 0f        	beq	$2785 <main+0x9f6>
    2776: ca           	dex
    2777: e0 ff        	cpx	#$ff
    2779: d0 e6        	bne	$2761 <main+0x9d2>
    277b: c6 14        	dec	$14                     ; 0x2014 <main+0x285>
    277d: 80 e2        	bra	$2761 <main+0x9d2>
    277f: 8a           	txa
    2780: d0 e5        	bne	$2767 <main+0x9d8>
    2782: 4c db 27     	jmp	$27db <main+0xa4c>
    2785: ca           	dex
    2786: e0 ff        	cpx	#$ff
    2788: d0 02        	bne	$278c <main+0x9fd>
    278a: c6 14        	dec	$14                     ; 0x2014 <main+0x285>
    278c: a5 14        	lda	$14                     ; 0x2014 <main+0x285>
    278e: d0 03        	bne	$2793 <main+0xa04>
    2790: 8a           	txa
    2791: f0 48        	beq	$27db <main+0xa4c>
    2793: a9 ec        	lda	#$ec
    2795: 18           	clc
    2796: 65 28        	adc	$28                     ; 0x2028 <main+0x299>
    2798: 85 12        	sta	$12                     ; 0x2012 <main+0x283>
    279a: a9 56        	lda	#$56
    279c: 69 00        	adc	#$0
    279e: 85 13        	sta	$13                     ; 0x2013 <main+0x284>
    27a0: 80 34        	bra	$27d6 <main+0xa47>
    27a2: a9 00        	lda	#$0
    27a4: a6 13        	ldx	$13                     ; 0x2013 <main+0x284>
    27a6: e4 2b        	cpx	$2b                     ; 0x202b <main+0x29c>
    27a8: d0 0b        	bne	$27b5 <main+0xa26>
    27aa: a6 12        	ldx	$12                     ; 0x2012 <main+0x283>
    27ac: e4 2a        	cpx	$2a                     ; 0x202a <main+0x29b>
    27ae: d0 05        	bne	$27b5 <main+0xa26>
    27b0: 9c eb 56     	stz	$56eb                   ; 0x56eb <fpr+0x2>
    27b3: 80 02        	bra	$27b7 <main+0xa28>
    27b5: 92 12        	sta	($12)                   ; 0x2012 <main+0x283>
    27b7: a2 17        	ldx	#$17
    27b9: 86 12        	stx	$12                     ; 0x2012 <main+0x283>
    27bb: a2 58        	ldx	#$58
    27bd: 86 13        	stx	$13                     ; 0x2013 <main+0x284>
    27bf: a2 2e        	ldx	#$2e
    27c1: 86 14        	stx	$14                     ; 0x2014 <main+0x285>
    27c3: a2 68        	ldx	#$68
    27c5: a9 00        	lda	#$0
    27c7: 20 8a 4f     	jsr	$4f8a <__memset>
    27ca: a2 80        	ldx	#$80
    27cc: 86 12        	stx	$12                     ; 0x2012 <main+0x283>
    27ce: a2 86        	ldx	#$86
    27d0: 86 13        	stx	$13                     ; 0x2013 <main+0x284>
    27d2: 64 14        	stz	$14                     ; 0x2014 <main+0x285>
    27d4: a2 6b        	ldx	#$6b
    27d6: a9 00        	lda	#$0
    27d8: 20 8a 4f     	jsr	$4f8a <__memset>
    27db: 20 76 05     	jsr	$576 <readDirectory>
    27de: 20 5f 09     	jsr	$95f <sortFileList>
    27e1: ad e9 86     	lda	$86e9                   ; 0x86e9 <fpr+0x3000>
    27e4: ae ea 86     	ldx	$86ea                   ; 0x86ea <fpr+0x3001>
    27e7: a0 e9        	ldy	#$e9
    27e9: 84 12        	sty	$12                     ; 0x2012 <main+0x283>
    27eb: a0 56        	ldy	#$56
    27ed: 84 13        	sty	$13                     ; 0x2013 <main+0x284>
    27ef: 20 78 0c     	jsr	$c78 <displayFileList>
    27f2: 20 05 10     	jsr	$1005 <pickFile>
    27f5: c9 04        	cmp	#$4
    27f7: b0 f9        	bcs	$27f2 <main+0xa63>
    27f9: 0a           	asl
    27fa: aa           	tax
    27fb: 7c 46 51     	jmp	($5146,x)               ; 0x5146 <__set_v+0x51>
    27fe: ae e9 56     	ldx	$56e9                   ; 0x56e9 <fpr>
    2801: ac ea 56     	ldy	$56ea                   ; 0x56ea <fpr+0x1>
    2804: 86 53        	stx	$53                     ; 0x2053 <main+0x2c4>
    2806: 8e 14 d0     	stx	$d014                   ; 0xd014 <__heap_start+0x4720>
    2809: a2 00        	ldx	#$0
    280b: 9c 15 d0     	stz	$d015                   ; 0xd015 <__heap_start+0x4721>
    280e: 84 54        	sty	$54                     ; 0x2054 <main+0x2c5>
    2810: 8c 16 d0     	sty	$d016                   ; 0xd016 <__heap_start+0x4722>
    2813: 9c 17 d0     	stz	$d017                   ; 0xd017 <__heap_start+0x4723>
    2816: 86 28        	stx	$28                     ; 0x2028 <main+0x299>
    2818: ad ea 56     	lda	$56ea                   ; 0x56ea <fpr+0x1>
    281b: c9 50        	cmp	#$50
    281d: a2 00        	ldx	#$0
    281f: b0 11        	bcs	$2832 <main+0xaa3>
    2821: 18           	clc
    2822: 69 b0        	adc	#$b0
    2824: 85 29        	sta	$29                     ; 0x2029 <main+0x29a>
    2826: a9 20        	lda	#$20
    2828: 20 12 4a     	jsr	$4a12 <putchar>
    282b: a5 29        	lda	$29                     ; 0x2029 <main+0x29a>
    282d: a2 00        	ldx	#$0
    282f: 1a           	inc
    2830: d0 f2        	bne	$2824 <main+0xa95>
    2832: a9 0a        	lda	#$a
    2834: 20 12 4a     	jsr	$4a12 <putchar>
    2837: a6 28        	ldx	$28                     ; 0x2028 <main+0x299>
    2839: e8           	inx
    283a: e0 11        	cpx	#$11
    283c: d0 d8        	bne	$2816 <main+0xa87>
    283e: a6 10        	ldx	$10                     ; 0x2010 <main+0x281>
    2840: a4 11        	ldy	$11                     ; 0x2011 <main+0x282>
    2842: 8a           	txa
    2843: 18           	clc
    2844: 69 02        	adc	#$2
    2846: 85 12        	sta	$12                     ; 0x2012 <main+0x283>
    2848: 98           	tya
    2849: 69 00        	adc	#$0
    284b: 85 13        	sta	$13                     ; 0x2013 <main+0x284>
    284d: 18           	clc
    284e: 8a           	txa
    284f: 69 04        	adc	#$4
    2851: 85 14        	sta	$14                     ; 0x2014 <main+0x285>
    2853: 98           	tya
    2854: 69 00        	adc	#$0
    2856: aa           	tax
    2857: a9 eb        	lda	#$eb
    2859: 92 10        	sta	($10)                   ; 0x2010 <main+0x281>
    285b: a0 01        	ldy	#$1
    285d: a9 56        	lda	#$56
    285f: 91 10        	sta	($10),y                 ; 0x2010 <main+0x281>
    2861: c8           	iny
    2862: a9 b5        	lda	#$b5
    2864: 91 10        	sta	($10),y                 ; 0x2010 <main+0x281>
    2866: a9 54        	lda	#$54
    2868: 88           	dey
    2869: 91 12        	sta	($12),y                 ; 0x2012 <main+0x283>
    286b: a4 14        	ldy	$14                     ; 0x2014 <main+0x285>
    286d: 84 12        	sty	$12                     ; 0x2012 <main+0x283>
    286f: 86 13        	stx	$13                     ; 0x2013 <main+0x284>
    2871: a9 27        	lda	#$27
    2873: a0 04        	ldy	#$4
    2875: 91 10        	sta	($10),y                 ; 0x2010 <main+0x281>
    2877: a9 57        	lda	#$57
    2879: a0 01        	ldy	#$1
    287b: 91 12        	sta	($12),y                 ; 0x2012 <main+0x283>
    287d: a2 fd        	ldx	#$fd
    287f: 86 12        	stx	$12                     ; 0x2012 <main+0x283>
    2881: a2 87        	ldx	#$87
    2883: 86 13        	stx	$13                     ; 0x2013 <main+0x284>
    2885: 20 38 49     	jsr	$4938 <sprintf>
    2888: ae fd 87     	ldx	$87fd                   ; 0x87fd <name>
    288b: a0 00        	ldy	#$0
    288d: a9 fd        	lda	#$fd
    288f: 85 12        	sta	$12                     ; 0x2012 <main+0x283>
    2891: a9 87        	lda	#$87
    2893: 85 13        	sta	$13                     ; 0x2013 <main+0x284>
    2895: 8a           	txa
    2896: f0 46        	beq	$28de <main+0xb4f>
    2898: 86 14        	stx	$14                     ; 0x2014 <main+0x285>
    289a: 64 12        	stz	$12                     ; 0x2012 <main+0x283>
    289c: 64 13        	stz	$13                     ; 0x2013 <main+0x284>
    289e: a6 12        	ldx	$12                     ; 0x2012 <main+0x283>
    28a0: a4 13        	ldy	$13                     ; 0x2013 <main+0x284>
    28a2: e8           	inx
    28a3: d0 01        	bne	$28a6 <main+0xb17>
    28a5: c8           	iny
    28a6: a9 fe        	lda	#$fe
    28a8: 18           	clc
    28a9: 65 12        	adc	$12                     ; 0x2012 <main+0x283>
    28ab: 85 12        	sta	$12                     ; 0x2012 <main+0x283>
    28ad: a9 87        	lda	#$87
    28af: 65 13        	adc	$13                     ; 0x2013 <main+0x284>
    28b1: 85 13        	sta	$13                     ; 0x2013 <main+0x284>
    28b3: b2 12        	lda	($12)                   ; 0x2012 <main+0x283>
    28b5: 86 12        	stx	$12                     ; 0x2012 <main+0x283>
    28b7: 84 13        	sty	$13                     ; 0x2013 <main+0x284>
    28b9: d0 e3        	bne	$289e <main+0xb0f>
    28bb: 98           	tya
    28bc: d0 04        	bne	$28c2 <main+0xb33>
    28be: e0 02        	cpx	#$2
    28c0: 80 02        	bra	$28c4 <main+0xb35>
    28c2: c0 00        	cpy	#$0
    28c4: a0 00        	ldy	#$0
    28c6: a2 fd        	ldx	#$fd
    28c8: 86 12        	stx	$12                     ; 0x2012 <main+0x283>
    28ca: a2 87        	ldx	#$87
    28cc: 86 13        	stx	$13                     ; 0x2013 <main+0x284>
    28ce: a5 14        	lda	$14                     ; 0x2014 <main+0x285>
    28d0: 90 0c        	bcc	$28de <main+0xb4f>
    28d2: ae fe 87     	ldx	$87fe                   ; 0x87fe <name+0x1>
    28d5: a0 00        	ldy	#$0
    28d7: e0 3a        	cpx	#$3a
    28d9: d0 03        	bne	$28de <main+0xb4f>
    28db: 4c d9 37     	jmp	$37d9 <main+0x1a4a>
    28de: 84 18        	sty	$18                     ; 0x2018 <main+0x289>
    28e0: a2 01        	ldx	#$1
    28e2: 86 14        	stx	$14                     ; 0x2014 <main+0x285>
    28e4: a2 55        	ldx	#$55
    28e6: 86 15        	stx	$15                     ; 0x2015 <main+0x286>
    28e8: a2 00        	ldx	#$0
    28ea: 80 0a        	bra	$28f6 <main+0xb67>
    28ec: a0 02        	ldy	#$2
    28ee: e6 14        	inc	$14                     ; 0x2014 <main+0x285>
    28f0: d0 02        	bne	$28f4 <main+0xb65>
    28f2: e6 15        	inc	$15                     ; 0x2015 <main+0x286>
    28f4: 5a           	phy
    28f5: fa           	plx
    28f6: b2 14        	lda	($14)                   ; 0x2014 <main+0x285>
    28f8: c9 61        	cmp	#$61
    28fa: f0 f0        	beq	$28ec <main+0xb5d>
    28fc: a0 01        	ldy	#$1
    28fe: c9 77        	cmp	#$77
    2900: f0 05        	beq	$2907 <main+0xb78>
    2902: a8           	tay
    2903: f0 08        	beq	$290d <main+0xb7e>
    2905: da           	phx
    2906: 7a           	ply
    2907: e6 14        	inc	$14                     ; 0x2014 <main+0x285>
    2909: d0 e9        	bne	$28f4 <main+0xb65>
    290b: 80 e5        	bra	$28f2 <main+0xb63>
    290d: a4 12        	ldy	$12                     ; 0x2012 <main+0x283>
    290f: a5 13        	lda	$13                     ; 0x2013 <main+0x284>
    2911: 84 fb        	sty	$fb                     ; 0x20fb <main+0x36c>
    2913: 85 fc        	sta	$fc                     ; 0x20fc <main+0x36d>
    2915: b2 12        	lda	($12)                   ; 0x2012 <main+0x283>
    2917: f0 33        	beq	$294c <main+0xbbd>
    2919: 64 15        	stz	$15                     ; 0x2015 <main+0x286>
    291b: a9 00        	lda	#$0
    291d: 64 14        	stz	$14                     ; 0x2014 <main+0x285>
    291f: a0 01        	ldy	#$1
    2921: 5a           	phy
    2922: a4 15        	ldy	$15                     ; 0x2015 <main+0x286>
    2924: 84 16        	sty	$16                     ; 0x2016 <main+0x287>
    2926: 7a           	ply
    2927: e6 15        	inc	$15                     ; 0x2015 <main+0x286>
    2929: d0 02        	bne	$292d <main+0xb9e>
    292b: e6 14        	inc	$14                     ; 0x2014 <main+0x285>
    292d: 18           	clc
    292e: 85 17        	sta	$17                     ; 0x2017 <main+0x288>
    2930: a5 16        	lda	$16                     ; 0x2016 <main+0x287>
    2932: 65 12        	adc	$12                     ; 0x2012 <main+0x283>
    2934: 85 16        	sta	$16                     ; 0x2016 <main+0x287>
    2936: a5 17        	lda	$17                     ; 0x2017 <main+0x288>
    2938: 65 13        	adc	$13                     ; 0x2013 <main+0x284>
    293a: 85 17        	sta	$17                     ; 0x2017 <main+0x288>
    293c: b1 16        	lda	($16),y                 ; 0x2016 <main+0x287>
    293e: 85 16        	sta	$16                     ; 0x2016 <main+0x287>
    2940: a5 14        	lda	$14                     ; 0x2014 <main+0x285>
    2942: e6 16        	inc	$16                     ; 0x2016 <main+0x287>
    2944: c6 16        	dec	$16                     ; 0x2016 <main+0x287>
    2946: d0 d9        	bne	$2921 <main+0xb92>
    2948: a4 15        	ldy	$15                     ; 0x2015 <main+0x286>
    294a: 80 02        	bra	$294e <main+0xbbf>
    294c: a0 00        	ldy	#$0
    294e: 84 fd        	sty	$fd                     ; 0x20fd <main+0x36e>
    2950: a4 18        	ldy	$18                     ; 0x2018 <main+0x289>
    2952: 84 f3        	sty	$f3                     ; 0x20f3 <main+0x364>
    2954: 86 f5        	stx	$f5                     ; 0x20f5 <main+0x366>
    2956: a2 52        	ldx	#$52
    2958: 86 12        	stx	$12                     ; 0x2012 <main+0x283>
    295a: a2 00        	ldx	#$0
    295c: 86 13        	stx	$13                     ; 0x2013 <main+0x284>
    295e: 20 5c ff     	jsr	$ff5c <__heap_start+0x7668>
    2961: 92 24        	sta	($24)                   ; 0x2024 <main+0x295>
    2963: a9 00        	lda	#$0
    2965: 6a           	ror
    2966: 85 12        	sta	$12                     ; 0x2012 <main+0x283>
    2968: a6 52        	ldx	$52                     ; 0x2052 <main+0x2c3>
    296a: a0 00        	ldy	#$0
    296c: 84 12        	sty	$12                     ; 0x2012 <main+0x283>
    296e: a0 00        	ldy	#$0
    2970: 84 13        	sty	$13                     ; 0x2013 <main+0x284>
    2972: a5 12        	lda	$12                     ; 0x2012 <main+0x283>
    2974: a0 14        	ldy	#$14
    2976: 91 10        	sta	($10),y                 ; 0x2010 <main+0x281>
    2978: a5 13        	lda	$13                     ; 0x2013 <main+0x284>
    297a: c8           	iny
    297b: 91 10        	sta	($10),y                 ; 0x2010 <main+0x281>
    297d: 8a           	txa
    297e: d0 03        	bne	$2983 <main+0xbf4>
    2980: 4c 73 36     	jmp	$3673 <main+0x18e4>
    2983: a2 40        	ldx	#$40
    2985: 8a           	txa
    2986: a0 0f        	ldy	#$f
    2988: 91 10        	sta	($10),y                 ; 0x2010 <main+0x281>
    298a: a0 00        	ldy	#$0
    298c: 64 12        	stz	$12                     ; 0x2012 <main+0x283>
    298e: 5a           	phy
    298f: 98           	tya
    2990: a0 0e        	ldy	#$e
    2992: 91 10        	sta	($10),y                 ; 0x2010 <main+0x281>
    2994: 64 29        	stz	$29                     ; 0x2029 <main+0x29a>
    2996: 64 2a        	stz	$2a                     ; 0x202a <main+0x29b>
    2998: a0 17        	ldy	#$17
    299a: 91 10        	sta	($10),y                 ; 0x2010 <main+0x281>
    299c: 7a           	ply
    299d: aa           	tax
    299e: a5 24        	lda	$24                     ; 0x2024 <main+0x295>
    29a0: 85 12        	sta	$12                     ; 0x2012 <main+0x283>
    29a2: a5 25        	lda	$25                     ; 0x2025 <main+0x296>
    29a4: 85 13        	sta	$13                     ; 0x2013 <main+0x284>
    29a6: 5a           	phy
    29a7: a0 14        	ldy	#$14
    29a9: b1 10        	lda	($10),y                 ; 0x2010 <main+0x281>
    29ab: 85 14        	sta	$14                     ; 0x2014 <main+0x285>
    29ad: c8           	iny
    29ae: b1 10        	lda	($10),y                 ; 0x2010 <main+0x281>
    29b0: 7a           	ply
    29b1: 85 15        	sta	$15                     ; 0x2015 <main+0x286>
    29b3: a9 10        	lda	#$10
    29b5: 84 28        	sty	$28                     ; 0x2028 <main+0x299>
    29b7: 20 76 39     	jsr	$3976 <fileRead>
    29ba: a4 28        	ldy	$28                     ; 0x2028 <main+0x299>
    29bc: c0 05        	cpy	#$5
    29be: d0 03        	bne	$29c3 <main+0xc34>
    29c0: 4c 1d 2a     	jmp	$2a1d <main+0xc8e>
    29c3: c0 03        	cpy	#$3
    29c5: f0 47        	beq	$2a0e <main+0xc7f>
    29c7: 98           	tya
    29c8: f0 03        	beq	$29cd <main+0xc3e>
    29ca: 4c 06 2b     	jmp	$2b06 <main+0xd77>
    29cd: 18           	clc
    29ce: a5 10        	lda	$10                     ; 0x2010 <main+0x281>
    29d0: 69 1f        	adc	#$1f
    29d2: 48           	pha
    29d3: a5 11        	lda	$11                     ; 0x2011 <main+0x282>
    29d5: 69 00        	adc	#$0
    29d7: aa           	tax
    29d8: 68           	pla
    29d9: 85 12        	sta	$12                     ; 0x2012 <main+0x283>
    29db: 86 13        	stx	$13                     ; 0x2013 <main+0x284>
    29dd: 18           	clc
    29de: 69 08        	adc	#$8
    29e0: 85 14        	sta	$14                     ; 0x2014 <main+0x285>
    29e2: 8a           	txa
    29e3: 69 00        	adc	#$0
    29e5: 85 15        	sta	$15                     ; 0x2015 <main+0x286>
    29e7: a0 08        	ldy	#$8
    29e9: b1 12        	lda	($12),y                 ; 0x2012 <main+0x283>
    29eb: aa           	tax
    29ec: a0 01        	ldy	#$1
    29ee: b1 14        	lda	($14),y                 ; 0x2014 <main+0x285>
    29f0: a8           	tay
    29f1: 18           	clc
    29f2: 8a           	txa
    29f3: 86 29        	stx	$29                     ; 0x2029 <main+0x29a>
    29f5: 69 00        	adc	#$0
    29f7: aa           	tax
    29f8: 98           	tya
    29f9: 84 2a        	sty	$2a                     ; 0x202a <main+0x29b>
    29fb: 69 ff        	adc	#$ff
    29fd: f0 03        	beq	$2a02 <main+0xc73>
    29ff: 4c a4 2a     	jmp	$2aa4 <main+0xd15>
    2a02: e0 81        	cpx	#$81
    2a04: a4 28        	ldy	$28                     ; 0x2028 <main+0x299>
    2a06: 90 03        	bcc	$2a0b <main+0xc7c>
    2a08: 4c aa 2a     	jmp	$2aaa <main+0xd1b>
    2a0b: 4c b5 2a     	jmp	$2ab5 <main+0xd26>
    2a0e: a9 34        	lda	#$34
    2a10: 18           	clc
    2a11: a0 04        	ldy	#$4
    2a13: 71 24        	adc	($24),y                 ; 0x2024 <main+0x295>
    2a15: a4 28        	ldy	$28                     ; 0x2028 <main+0x299>
    2a17: 5a           	phy
    2a18: a0 0f        	ldy	#$f
    2a1a: 4c b0 2a     	jmp	$2ab0 <main+0xd21>
    2a1d: b2 24        	lda	($24)                   ; 0x2024 <main+0x295>
    2a1f: a0 01        	ldy	#$1
    2a21: aa           	tax
    2a22: d0 07        	bne	$2a2b <main+0xc9c>
    2a24: b1 24        	lda	($24),y                 ; 0x2024 <main+0x295>
    2a26: d0 03        	bne	$2a2b <main+0xc9c>
    2a28: 4c 29 38     	jmp	$3829 <main+0x1a9a>
    2a2b: a2 05        	ldx	#$5
    2a2d: 8e 82 d5     	stx	$d582                   ; 0xd582 <__heap_start+0x4c8e>
    2a30: 9c 81 d5     	stz	$d581                   ; 0xd581 <__heap_start+0x4c8d>
    2a33: a0 0c        	ldy	#$c
    2a35: b1 24        	lda	($24),y                 ; 0x2024 <main+0x295>
    2a37: d0 09        	bne	$2a42 <main+0xcb3>
    2a39: a0 0d        	ldy	#$d
    2a3b: b1 24        	lda	($24),y                 ; 0x2024 <main+0x295>
    2a3d: d0 03        	bne	$2a42 <main+0xcb3>
    2a3f: 4c 3e 38     	jmp	$383e <main+0x1aaf>
    2a42: a2 05        	ldx	#$5
    2a44: 8e 82 d5     	stx	$d582                   ; 0xd582 <__heap_start+0x4c8e>
    2a47: a0 01        	ldy	#$1
    2a49: a2 01        	ldx	#$1
    2a4b: 8a           	txa
    2a4c: 5a           	phy
    2a4d: a0 0e        	ldy	#$e
    2a4f: 91 10        	sta	($10),y                 ; 0x2010 <main+0x281>
    2a51: 7a           	ply
    2a52: 8c 81 d5     	sty	$d581                   ; 0xd581 <__heap_start+0x4c8d>
    2a55: 64 53        	stz	$53                     ; 0x2053 <main+0x2c4>
    2a57: 9c 14 d0     	stz	$d014                   ; 0xd014 <__heap_start+0x4720>
    2a5a: 9c 15 d0     	stz	$d015                   ; 0xd015 <__heap_start+0x4721>
    2a5d: a2 02        	ldx	#$2
    2a5f: 86 54        	stx	$54                     ; 0x2054 <main+0x2c5>
    2a61: 8e 16 d0     	stx	$d016                   ; 0xd016 <__heap_start+0x4722>
    2a64: 9c 17 d0     	stz	$d017                   ; 0xd017 <__heap_start+0x4723>
    2a67: a2 70        	ldx	#$70
    2a69: 86 33        	stx	$33                     ; 0x2033 <main+0x2a4>
    2a6b: a0 0e        	ldy	#$e
    2a6d: b1 10        	lda	($10),y                 ; 0x2010 <main+0x281>
    2a6f: d0 03        	bne	$2a74 <main+0xce5>
    2a71: 4c cf 2a     	jmp	$2acf <main+0xd40>
    2a74: a5 10        	lda	$10                     ; 0x2010 <main+0x281>
    2a76: a6 11        	ldx	$11                     ; 0x2011 <main+0x282>
    2a78: 18           	clc
    2a79: 69 02        	adc	#$2
    2a7b: 85 12        	sta	$12                     ; 0x2012 <main+0x283>
    2a7d: 8a           	txa
    2a7e: 69 00        	adc	#$0
    2a80: 85 13        	sta	$13                     ; 0x2013 <main+0x284>
    2a82: a5 29        	lda	$29                     ; 0x2029 <main+0x29a>
    2a84: 92 10        	sta	($10)                   ; 0x2010 <main+0x281>
    2a86: a5 2a        	lda	$2a                     ; 0x202a <main+0x29b>
    2a88: a0 01        	ldy	#$1
    2a8a: 91 10        	sta	($10),y                 ; 0x2010 <main+0x281>
    2a8c: a9 cb        	lda	#$cb
    2a8e: c8           	iny
    2a8f: 91 10        	sta	($10),y                 ; 0x2010 <main+0x281>
    2a91: a9 54        	lda	#$54
    2a93: 88           	dey
    2a94: 91 12        	sta	($12),y                 ; 0x2012 <main+0x283>
    2a96: a2 b7        	ldx	#$b7
    2a98: 86 12        	stx	$12                     ; 0x2012 <main+0x283>
    2a9a: a2 54        	ldx	#$54
    2a9c: 86 13        	stx	$13                     ; 0x2013 <main+0x284>
    2a9e: 20 b6 48     	jsr	$48b6 <printf>
    2aa1: 4c 04 2b     	jmp	$2b04 <main+0xd75>
    2aa4: c9 00        	cmp	#$0
    2aa6: a4 28        	ldy	$28                     ; 0x2028 <main+0x299>
    2aa8: 90 0b        	bcc	$2ab5 <main+0xd26>
    2aaa: a2 04        	ldx	#$4
    2aac: 8a           	txa
    2aad: 5a           	phy
    2aae: a0 17        	ldy	#$17
    2ab0: 91 10        	sta	($10),y                 ; 0x2010 <main+0x281>
    2ab2: 7a           	ply
    2ab3: 80 51        	bra	$2b06 <main+0xd77>
    2ab5: bc 4e 51     	ldy	$514e,x                 ; 0x514e <__set_v+0x59>
    2ab8: bd cf 51     	lda	$51cf,x                 ; 0x51cf <__set_v+0xda>
    2abb: aa           	tax
    2abc: 84 12        	sty	$12                     ; 0x2012 <main+0x283>
    2abe: a4 28        	ldy	$28                     ; 0x2028 <main+0x299>
    2ac0: 86 13        	stx	$13                     ; 0x2013 <main+0x284>
    2ac2: 64 14        	stz	$14                     ; 0x2014 <main+0x285>
    2ac4: a9 00        	lda	#$0
    2ac6: 5a           	phy
    2ac7: a0 17        	ldy	#$17
    2ac9: 91 10        	sta	($10),y                 ; 0x2010 <main+0x281>
    2acb: 7a           	ply
    2acc: 6c 12 00     	jmp	($12)                   ; 0x12 <__rc2>
    2acf: a5 10        	lda	$10                     ; 0x2010 <main+0x281>
    2ad1: a6 11        	ldx	$11                     ; 0x2011 <main+0x282>
    2ad3: 18           	clc
    2ad4: 69 02        	adc	#$2
    2ad6: 85 12        	sta	$12                     ; 0x2012 <main+0x283>
    2ad8: 8a           	txa
    2ad9: 69 00        	adc	#$0
    2adb: 85 13        	sta	$13                     ; 0x2013 <main+0x284>
    2add: a5 29        	lda	$29                     ; 0x2029 <main+0x29a>
    2adf: 92 10        	sta	($10)                   ; 0x2010 <main+0x281>
    2ae1: a5 2a        	lda	$2a                     ; 0x202a <main+0x29b>
    2ae3: a0 01        	ldy	#$1
    2ae5: 91 10        	sta	($10),y                 ; 0x2010 <main+0x281>
    2ae7: a9 c6        	lda	#$c6
    2ae9: c8           	iny
    2aea: 91 10        	sta	($10),y                 ; 0x2010 <main+0x281>
    2aec: a9 54        	lda	#$54
    2aee: 88           	dey
    2aef: 91 12        	sta	($12),y                 ; 0x2012 <main+0x283>
    2af1: a2 b7        	ldx	#$b7
    2af3: 86 12        	stx	$12                     ; 0x2012 <main+0x283>
    2af5: a2 54        	ldx	#$54
    2af7: 86 13        	stx	$13                     ; 0x2013 <main+0x284>
    2af9: 20 b6 48     	jsr	$48b6 <printf>
    2afc: 64 12        	stz	$12                     ; 0x2012 <main+0x283>
    2afe: a9 00        	lda	#$0
    2b00: a0 0e        	ldy	#$e
    2b02: 91 10        	sta	($10),y                 ; 0x2010 <main+0x281>
    2b04: a4 28        	ldy	$28                     ; 0x2028 <main+0x299>
    2b06: 5a           	phy
    2b07: a0 17        	ldy	#$17
    2b09: b1 10        	lda	($10),y                 ; 0x2010 <main+0x281>
    2b0b: 7a           	ply
    2b0c: 18           	clc
    2b0d: 69 08        	adc	#$8
    2b0f: 85 13        	sta	$13                     ; 0x2013 <main+0x284>
    2b11: a9 00        	lda	#$0
    2b13: 69 00        	adc	#$0
    2b15: c8           	iny
    2b16: 85 12        	sta	$12                     ; 0x2012 <main+0x283>
    2b18: a2 00        	ldx	#$0
    2b1a: e4 12        	cpx	$12                     ; 0x2012 <main+0x283>
    2b1c: d0 07        	bne	$2b25 <main+0xd96>
    2b1e: c4 13        	cpy	$13                     ; 0x2013 <main+0x284>
    2b20: b0 0a        	bcs	$2b2c <main+0xd9d>
    2b22: 4c 9e 29     	jmp	$299e <main+0xc0f>
    2b25: e4 12        	cpx	$12                     ; 0x2012 <main+0x283>
    2b27: b0 03        	bcs	$2b2c <main+0xd9d>
    2b29: 4c 9e 29     	jmp	$299e <main+0xc0f>
    2b2c: a0 14        	ldy	#$14
    2b2e: b1 10        	lda	($10),y                 ; 0x2010 <main+0x281>
    2b30: 85 12        	sta	$12                     ; 0x2012 <main+0x283>
    2b32: c8           	iny
    2b33: b1 10        	lda	($10),y                 ; 0x2010 <main+0x281>
    2b35: 85 13        	sta	$13                     ; 0x2013 <main+0x284>
    2b37: b2 12        	lda	($12)                   ; 0x2012 <main+0x283>
    2b39: 85 f3        	sta	$f3                     ; 0x20f3 <main+0x364>
    2b3b: a0 0f        	ldy	#$f
    2b3d: b1 10        	lda	($10),y                 ; 0x2010 <main+0x281>
    2b3f: 85 f4        	sta	$f4                     ; 0x20f4 <main+0x365>
    2b41: 64 f5        	stz	$f5                     ; 0x20f5 <main+0x366>
    2b43: 64 f6        	stz	$f6                     ; 0x20f6 <main+0x367>
    2b45: 64 f7        	stz	$f7                     ; 0x20f7 <main+0x368>
    2b47: a2 52        	ldx	#$52
    2b49: 86 12        	stx	$12                     ; 0x2012 <main+0x283>
    2b4b: a2 00        	ldx	#$0
    2b4d: 86 13        	stx	$13                     ; 0x2013 <main+0x284>
    2b4f: 20 74 ff     	jsr	$ff74 <__heap_start+0x7680>
    2b52: 92 24        	sta	($24)                   ; 0x2024 <main+0x295>
    2b54: a9 00        	lda	#$0
    2b56: 6a           	ror
    2b57: 85 12        	sta	$12                     ; 0x2012 <main+0x283>
    2b59: 64 53        	stz	$53                     ; 0x2053 <main+0x2c4>
    2b5b: 9c 14 d0     	stz	$d014                   ; 0xd014 <__heap_start+0x4720>
    2b5e: 9c 15 d0     	stz	$d015                   ; 0xd015 <__heap_start+0x4721>
    2b61: a2 03        	ldx	#$3
    2b63: 86 54        	stx	$54                     ; 0x2054 <main+0x2c5>
    2b65: 8e 16 d0     	stx	$d016                   ; 0xd016 <__heap_start+0x4722>
    2b68: 9c 17 d0     	stz	$d017                   ; 0xd017 <__heap_start+0x4723>
    2b6b: a2 5c        	ldx	#$5c
    2b6d: 86 12        	stx	$12                     ; 0x2012 <main+0x283>
    2b6f: a2 54        	ldx	#$54
    2b71: 86 13        	stx	$13                     ; 0x2013 <main+0x284>
    2b73: 20 b6 48     	jsr	$48b6 <printf>
    2b76: 64 53        	stz	$53                     ; 0x2053 <main+0x2c4>
    2b78: 9c 14 d0     	stz	$d014                   ; 0xd014 <__heap_start+0x4720>
    2b7b: 9c 15 d0     	stz	$d015                   ; 0xd015 <__heap_start+0x4721>
    2b7e: a2 03        	ldx	#$3
    2b80: 86 54        	stx	$54                     ; 0x2054 <main+0x2c5>
    2b82: 8e 16 d0     	stx	$d016                   ; 0xd016 <__heap_start+0x4722>
    2b85: 9c 17 d0     	stz	$d017                   ; 0xd017 <__heap_start+0x4723>
    2b88: a2 70        	ldx	#$70
    2b8a: 86 33        	stx	$33                     ; 0x2033 <main+0x2a4>
    2b8c: a9 fd        	lda	#$fd
    2b8e: 92 10        	sta	($10)                   ; 0x2010 <main+0x281>
    2b90: a0 01        	ldy	#$1
    2b92: a9 87        	lda	#$87
    2b94: 91 10        	sta	($10),y                 ; 0x2010 <main+0x281>
    2b96: a2 03        	ldx	#$3
    2b98: 86 12        	stx	$12                     ; 0x2012 <main+0x283>
    2b9a: a2 55        	ldx	#$55
    2b9c: 86 13        	stx	$13                     ; 0x2013 <main+0x284>
    2b9e: 20 b6 48     	jsr	$48b6 <printf>
    2ba1: 64 53        	stz	$53                     ; 0x2053 <main+0x2c4>
    2ba3: 9c 14 d0     	stz	$d014                   ; 0xd014 <__heap_start+0x4720>
    2ba6: 9c 15 d0     	stz	$d015                   ; 0xd015 <__heap_start+0x4721>
    2ba9: a2 1c        	ldx	#$1c
    2bab: 86 54        	stx	$54                     ; 0x2054 <main+0x2c5>
    2bad: 8e 16 d0     	stx	$d016                   ; 0xd016 <__heap_start+0x4722>
    2bb0: 9c 17 d0     	stz	$d017                   ; 0xd017 <__heap_start+0x4723>
    2bb3: a2 76        	ldx	#$76
    2bb5: 86 33        	stx	$33                     ; 0x2033 <main+0x2a4>
    2bb7: a2 0f        	ldx	#$f
    2bb9: 86 12        	stx	$12                     ; 0x2012 <main+0x283>
    2bbb: a2 55        	ldx	#$55
    2bbd: 86 13        	stx	$13                     ; 0x2013 <main+0x284>
    2bbf: 20 b6 48     	jsr	$48b6 <printf>
    2bc2: a2 f0        	ldx	#$f0
    2bc4: 86 33        	stx	$33                     ; 0x2033 <main+0x2a4>
    2bc6: a2 e0        	ldx	#$e0
    2bc8: 86 12        	stx	$12                     ; 0x2012 <main+0x283>
    2bca: a2 54        	ldx	#$54
    2bcc: 86 13        	stx	$13                     ; 0x2013 <main+0x284>
    2bce: 20 b6 48     	jsr	$48b6 <printf>
    2bd1: a2 76        	ldx	#$76
    2bd3: 86 33        	stx	$33                     ; 0x2033 <main+0x2a4>
    2bd5: a2 ea        	ldx	#$ea
    2bd7: 86 12        	stx	$12                     ; 0x2012 <main+0x283>
    2bd9: a2 54        	ldx	#$54
    2bdb: 86 13        	stx	$13                     ; 0x2013 <main+0x284>
    2bdd: 20 b6 48     	jsr	$48b6 <printf>
    2be0: a2 f0        	ldx	#$f0
    2be2: 86 33        	stx	$33                     ; 0x2033 <main+0x2a4>
    2be4: a2 d0        	ldx	#$d0
    2be6: 86 12        	stx	$12                     ; 0x2012 <main+0x283>
    2be8: a2 54        	ldx	#$54
    2bea: 86 13        	stx	$13                     ; 0x2013 <main+0x284>
    2bec: 20 b6 48     	jsr	$48b6 <printf>
    2bef: a2 76        	ldx	#$76
    2bf1: 86 33        	stx	$33                     ; 0x2033 <main+0x2a4>
    2bf3: a2 ad        	ldx	#$ad
    2bf5: 86 12        	stx	$12                     ; 0x2012 <main+0x283>
    2bf7: a2 54        	ldx	#$54
    2bf9: 86 13        	stx	$13                     ; 0x2013 <main+0x284>
    2bfb: 20 b6 48     	jsr	$48b6 <printf>
    2bfe: a2 f0        	ldx	#$f0
    2c00: 86 33        	stx	$33                     ; 0x2033 <main+0x2a4>
    2c02: a2 ef        	ldx	#$ef
    2c04: 86 12        	stx	$12                     ; 0x2012 <main+0x283>
    2c06: a2 54        	ldx	#$54
    2c08: 86 13        	stx	$13                     ; 0x2013 <main+0x284>
    2c0a: 20 b6 48     	jsr	$48b6 <printf>
    2c0d: a2 01        	ldx	#$1
    2c0f: 86 5f        	stx	$5f                     ; 0x205f <main+0x2d0>
    2c11: a2 01        	ldx	#$1
    2c13: a4 2f        	ldy	$2f                     ; 0x202f <main+0x2a0>
    2c15: 84 16        	sty	$16                     ; 0x2016 <main+0x287>
    2c17: a4 27        	ldy	$27                     ; 0x2027 <main+0x298>
    2c19: 4c ec 33     	jmp	$33ec <main+0x165d>
    2c1c: a2 b0        	ldx	#$b0
    2c1e: 8e 80 d5     	stx	$d580                   ; 0xd580 <__heap_start+0x4c8c>
    2c21: 9c 81 d5     	stz	$d581                   ; 0xd581 <__heap_start+0x4c8d>
    2c24: a0 b1        	ldy	#$b1
    2c26: 8c 80 d5     	sty	$d580                   ; 0xd580 <__heap_start+0x4c8c>
    2c29: 9c 81 d5     	stz	$d581                   ; 0xd581 <__heap_start+0x4c8d>
    2c2c: a9 b2        	lda	#$b2
    2c2e: 8d 80 d5     	sta	$d580                   ; 0xd580 <__heap_start+0x4c8c>
    2c31: 9c 81 d5     	stz	$d581                   ; 0xd581 <__heap_start+0x4c8d>
    2c34: a2 b3        	ldx	#$b3
    2c36: 8e 80 d5     	stx	$d580                   ; 0xd580 <__heap_start+0x4c8c>
    2c39: 9c 81 d5     	stz	$d581                   ; 0xd581 <__heap_start+0x4c8d>
    2c3c: e8           	inx
    2c3d: 8e 80 d5     	stx	$d580                   ; 0xd580 <__heap_start+0x4c8c>
    2c40: 9c 81 d5     	stz	$d581                   ; 0xd581 <__heap_start+0x4c8d>
    2c43: e8           	inx
    2c44: 8e 80 d5     	stx	$d580                   ; 0xd580 <__heap_start+0x4c8c>
    2c47: 9c 81 d5     	stz	$d581                   ; 0xd581 <__heap_start+0x4c8d>
    2c4a: e8           	inx
    2c4b: 8e 80 d5     	stx	$d580                   ; 0xd580 <__heap_start+0x4c8c>
    2c4e: 9c 81 d5     	stz	$d581                   ; 0xd581 <__heap_start+0x4c8d>
    2c51: e8           	inx
    2c52: 8e 80 d5     	stx	$d580                   ; 0xd580 <__heap_start+0x4c8c>
    2c55: 9c 81 d5     	stz	$d581                   ; 0xd581 <__heap_start+0x4c8d>
    2c58: e8           	inx
    2c59: 8e 80 d5     	stx	$d580                   ; 0xd580 <__heap_start+0x4c8c>
    2c5c: 9c 81 d5     	stz	$d581                   ; 0xd581 <__heap_start+0x4c8d>
    2c5f: a2 b0        	ldx	#$b0
    2c61: 8e 82 d5     	stx	$d582                   ; 0xd582 <__heap_start+0x4c8e>
    2c64: 9c 81 d5     	stz	$d581                   ; 0xd581 <__heap_start+0x4c8d>
    2c67: 8c 82 d5     	sty	$d582                   ; 0xd582 <__heap_start+0x4c8e>
    2c6a: 9c 81 d5     	stz	$d581                   ; 0xd581 <__heap_start+0x4c8d>
    2c6d: 8d 82 d5     	sta	$d582                   ; 0xd582 <__heap_start+0x4c8e>
    2c70: 9c 81 d5     	stz	$d581                   ; 0xd581 <__heap_start+0x4c8d>
    2c73: a0 b3        	ldy	#$b3
    2c75: 8c 82 d5     	sty	$d582                   ; 0xd582 <__heap_start+0x4c8e>
    2c78: 9c 81 d5     	stz	$d581                   ; 0xd581 <__heap_start+0x4c8d>
    2c7b: a2 b4        	ldx	#$b4
    2c7d: 8e 82 d5     	stx	$d582                   ; 0xd582 <__heap_start+0x4c8e>
    2c80: 9c 81 d5     	stz	$d581                   ; 0xd581 <__heap_start+0x4c8d>
    2c83: e8           	inx
    2c84: 8e 82 d5     	stx	$d582                   ; 0xd582 <__heap_start+0x4c8e>
    2c87: 9c 81 d5     	stz	$d581                   ; 0xd581 <__heap_start+0x4c8d>
    2c8a: e8           	inx
    2c8b: 8e 82 d5     	stx	$d582                   ; 0xd582 <__heap_start+0x4c8e>
    2c8e: 9c 81 d5     	stz	$d581                   ; 0xd581 <__heap_start+0x4c8d>
    2c91: e8           	inx
    2c92: 8e 82 d5     	stx	$d582                   ; 0xd582 <__heap_start+0x4c8e>
    2c95: 9c 81 d5     	stz	$d581                   ; 0xd581 <__heap_start+0x4c8d>
    2c98: e8           	inx
    2c99: 8e 82 d5     	stx	$d582                   ; 0xd582 <__heap_start+0x4c8e>
    2c9c: 9c 81 d5     	stz	$d581                   ; 0xd581 <__heap_start+0x4c8d>
    2c9f: a6 2f        	ldx	$2f                     ; 0x202f <main+0x2a0>
    2ca1: 86 16        	stx	$16                     ; 0x2016 <main+0x287>
    2ca3: a4 27        	ldy	$27                     ; 0x2027 <main+0x298>
    2ca5: ad a0 dd     	lda	$dda0                   ; 0xdda0 <__heap_start+0x54ac>
    2ca8: 29 02        	and	#$2
    2caa: f0 03        	beq	$2caf <main+0xf20>
    2cac: 4c 72 31     	jmp	$3172 <main+0x13e3>
    2caf: ae a2 dd     	ldx	$dda2                   ; 0xdda2 <__heap_start+0x54ae>
    2cb2: ad a3 dd     	lda	$dda3                   ; 0xdda3 <__heap_start+0x54af>
    2cb5: 29 0f        	and	#$f
    2cb7: d0 07        	bne	$2cc0 <main+0xf31>
    2cb9: e0 00        	cpx	#$0
    2cbb: d0 03        	bne	$2cc0 <main+0xf31>
    2cbd: 4c 72 31     	jmp	$3172 <main+0x13e3>
    2cc0: 85 27        	sta	$27                     ; 0x2027 <main+0x298>
    2cc2: 86 2c        	stx	$2c                     ; 0x202c <main+0x29d>
    2cc4: a6 16        	ldx	$16                     ; 0x2016 <main+0x287>
    2cc6: 98           	tya
    2cc7: 4c b6 2e     	jmp	$2eb6 <main+0x1127>
    2cca: a4 14        	ldy	$14                     ; 0x2014 <main+0x285>
    2ccc: c0 00        	cpy	#$0
    2cce: b0 03        	bcs	$2cd3 <main+0xf44>
    2cd0: 4c 37 31     	jmp	$3137 <main+0x13a8>
    2cd3: a6 01        	ldx	$1                      ; 0x2001 <main+0x272>
    2cd5: 86 16        	stx	$16                     ; 0x2016 <main+0x287>
    2cd7: a0 01        	ldy	#$1
    2cd9: 84 01        	sty	$1                      ; 0x2001 <main+0x272>
    2cdb: 64 12        	stz	$12                     ; 0x2012 <main+0x283>
    2cdd: a2 ff        	ldx	#$ff
    2cdf: 64 17        	stz	$17                     ; 0x2017 <main+0x288>
    2ce1: 80 10        	bra	$2cf3 <main+0xf64>
    2ce3: a2 00        	ldx	#$0
    2ce5: 0a           	asl
    2ce6: 8a           	txa
    2ce7: 2a           	rol
    2ce8: a6 01        	ldx	$1                      ; 0x2001 <main+0x272>
    2cea: 86 16        	stx	$16                     ; 0x2016 <main+0x287>
    2cec: a0 01        	ldy	#$1
    2cee: 84 01        	sty	$1                      ; 0x2001 <main+0x272>
    2cf0: aa           	tax
    2cf1: 85 17        	sta	$17                     ; 0x2017 <main+0x288>
    2cf3: a5 15        	lda	$15                     ; 0x2015 <main+0x286>
    2cf5: 0a           	asl
    2cf6: 26 12        	rol	$12                     ; 0x2012 <main+0x283>
    2cf8: 0a           	asl
    2cf9: 85 13        	sta	$13                     ; 0x2013 <main+0x284>
    2cfb: 26 12        	rol	$12                     ; 0x2012 <main+0x283>
    2cfd: a9 00        	lda	#$0
    2cff: 18           	clc
    2d00: 65 13        	adc	$13                     ; 0x2013 <main+0x284>
    2d02: 85 13        	sta	$13                     ; 0x2013 <main+0x284>
    2d04: a9 d0        	lda	#$d0
    2d06: 65 12        	adc	$12                     ; 0x2012 <main+0x283>
    2d08: 5a           	phy
    2d09: a4 13        	ldy	$13                     ; 0x2013 <main+0x284>
    2d0b: 84 12        	sty	$12                     ; 0x2012 <main+0x283>
    2d0d: 7a           	ply
    2d0e: 85 13        	sta	$13                     ; 0x2013 <main+0x284>
    2d10: 8a           	txa
    2d11: 92 12        	sta	($12)                   ; 0x2012 <main+0x283>
    2d13: a5 17        	lda	$17                     ; 0x2017 <main+0x288>
    2d15: 91 12        	sta	($12),y                 ; 0x2012 <main+0x283>
    2d17: a0 02        	ldy	#$2
    2d19: 8a           	txa
    2d1a: 91 12        	sta	($12),y                 ; 0x2012 <main+0x283>
    2d1c: c8           	iny
    2d1d: a9 ff        	lda	#$ff
    2d1f: 91 12        	sta	($12),y                 ; 0x2012 <main+0x283>
    2d21: a6 16        	ldx	$16                     ; 0x2016 <main+0x287>
    2d23: 86 01        	stx	$1                      ; 0x2001 <main+0x272>
    2d25: a5 29        	lda	$29                     ; 0x2029 <main+0x29a>
    2d27: 85 26        	sta	$26                     ; 0x2026 <main+0x297>
    2d29: a2 00        	ldx	#$0
    2d2b: 48           	pha
    2d2c: 8a           	txa
    2d2d: a0 19        	ldy	#$19
    2d2f: 91 10        	sta	($10),y                 ; 0x2010 <main+0x281>
    2d31: 68           	pla
    2d32: a0 01        	ldy	#$1
    2d34: 4c 77 2e     	jmp	$2e77 <main+0x10e8>
    2d37: a2 01        	ldx	#$1
    2d39: 84 21        	sty	$21                     ; 0x2021 <main+0x292>
    2d3b: 8a           	txa
    2d3c: a0 19        	ldy	#$19
    2d3e: 91 10        	sta	($10),y                 ; 0x2010 <main+0x281>
    2d40: a5 29        	lda	$29                     ; 0x2029 <main+0x29a>
    2d42: a0 16        	ldy	#$16
    2d44: 91 10        	sta	($10),y                 ; 0x2010 <main+0x281>
    2d46: 64 12        	stz	$12                     ; 0x2012 <main+0x283>
    2d48: 48           	pha
    2d49: a9 00        	lda	#$0
    2d4b: a0 1a        	ldy	#$1a
    2d4d: 91 10        	sta	($10),y                 ; 0x2010 <main+0x281>
    2d4f: a4 21        	ldy	$21                     ; 0x2021 <main+0x292>
    2d51: 68           	pla
    2d52: 4c 77 2e     	jmp	$2e77 <main+0x10e8>
    2d55: a5 29        	lda	$29                     ; 0x2029 <main+0x29a>
    2d57: 30 36        	bmi	$2d8f <main+0x1000>
    2d59: a0 16        	ldy	#$16
    2d5b: b1 10        	lda	($10),y                 ; 0x2010 <main+0x281>
    2d5d: 29 f0        	and	#$f0
    2d5f: c9 80        	cmp	#$80
    2d61: f0 04        	beq	$2d67 <main+0xfd8>
    2d63: c9 90        	cmp	#$90
    2d65: d0 31        	bne	$2d98 <main+0x1009>
    2d67: a6 29        	ldx	$29                     ; 0x2029 <main+0x29a>
    2d69: 86 26        	stx	$26                     ; 0x2026 <main+0x297>
    2d6b: a5 29        	lda	$29                     ; 0x2029 <main+0x29a>
    2d6d: 29 7f        	and	#$7f
    2d6f: a2 00        	ldx	#$0
    2d71: 48           	pha
    2d72: 8a           	txa
    2d73: a0 19        	ldy	#$19
    2d75: 91 10        	sta	($10),y                 ; 0x2010 <main+0x281>
    2d77: a0 01        	ldy	#$1
    2d79: e8           	inx
    2d7a: 8a           	txa
    2d7b: 5a           	phy
    2d7c: a0 1a        	ldy	#$1a
    2d7e: 91 10        	sta	($10),y                 ; 0x2010 <main+0x281>
    2d80: 7a           	ply
    2d81: 80 ce        	bra	$2d51 <main+0xfc2>
    2d83: a2 01        	ldx	#$1
    2d85: 80 2a        	bra	$2db1 <main+0x1022>
    2d87: a2 02        	ldx	#$2
    2d89: 80 26        	bra	$2db1 <main+0x1022>
    2d8b: a2 03        	ldx	#$3
    2d8d: 80 22        	bra	$2db1 <main+0x1022>
    2d8f: a4 14        	ldy	$14                     ; 0x2014 <main+0x285>
    2d91: 4c 75 2e     	jmp	$2e75 <main+0x10e6>
    2d94: a2 04        	ldx	#$4
    2d96: 80 19        	bra	$2db1 <main+0x1022>
    2d98: a5 14        	lda	$14                     ; 0x2014 <main+0x285>
    2d9a: 09 01        	ora	#$1
    2d9c: a6 29        	ldx	$29                     ; 0x2029 <main+0x29a>
    2d9e: 86 26        	stx	$26                     ; 0x2026 <main+0x297>
    2da0: 4c bf 2e     	jmp	$2ebf <main+0x1130>
    2da3: a2 05        	ldx	#$5
    2da5: 80 0a        	bra	$2db1 <main+0x1022>
    2da7: a2 06        	ldx	#$6
    2da9: 80 06        	bra	$2db1 <main+0x1022>
    2dab: a2 07        	ldx	#$7
    2dad: 80 02        	bra	$2db1 <main+0x1022>
    2daf: a2 08        	ldx	#$8
    2db1: 48           	pha
    2db2: 8a           	txa
    2db3: a0 17        	ldy	#$17
    2db5: 91 10        	sta	($10),y                 ; 0x2010 <main+0x281>
    2db7: 68           	pla
    2db8: 64 2d        	stz	$2d                     ; 0x202d <main+0x29e>
    2dba: 64 28        	stz	$28                     ; 0x2028 <main+0x299>
    2dbc: 18           	clc
    2dbd: 69 05        	adc	#$5
    2dbf: a8           	tay
    2dc0: a9 00        	lda	#$0
    2dc2: 69 00        	adc	#$0
    2dc4: 18           	clc
    2dc5: 48           	pha
    2dc6: a5 10        	lda	$10                     ; 0x2010 <main+0x281>
    2dc8: 69 1b        	adc	#$1b
    2dca: 85 2a        	sta	$2a                     ; 0x202a <main+0x29b>
    2dcc: a5 11        	lda	$11                     ; 0x2011 <main+0x282>
    2dce: 69 00        	adc	#$0
    2dd0: 85 2b        	sta	$2b                     ; 0x202b <main+0x29c>
    2dd2: 68           	pla
    2dd3: a6 2a        	ldx	$2a                     ; 0x202a <main+0x29b>
    2dd5: 86 14        	stx	$14                     ; 0x2014 <main+0x285>
    2dd7: a6 2b        	ldx	$2b                     ; 0x202b <main+0x29c>
    2dd9: 86 15        	stx	$15                     ; 0x2015 <main+0x286>
    2ddb: a2 0c        	ldx	#$c
    2ddd: 86 12        	stx	$12                     ; 0x2012 <main+0x283>
    2ddf: 64 13        	stz	$13                     ; 0x2013 <main+0x284>
    2de1: aa           	tax
    2de2: 98           	tya
    2de3: 20 1a 50     	jsr	$501a <__udivmodhi4>
    2de6: aa           	tax
    2de7: b2 2a        	lda	($2a)                   ; 0x202a <main+0x29b>
    2de9: 85 12        	sta	$12                     ; 0x2012 <main+0x283>
    2deb: a0 01        	ldy	#$1
    2ded: b1 2a        	lda	($2a),y                 ; 0x202a <main+0x29b>
    2def: 06 12        	asl	$12                     ; 0x2012 <main+0x283>
    2df1: 2a           	rol
    2df2: 85 13        	sta	$13                     ; 0x2013 <main+0x284>
    2df4: a9 a1        	lda	#$a1
    2df6: 18           	clc
    2df7: 65 12        	adc	$12                     ; 0x2012 <main+0x283>
    2df9: 85 12        	sta	$12                     ; 0x2012 <main+0x283>
    2dfb: a9 56        	lda	#$56
    2dfd: 65 13        	adc	$13                     ; 0x2013 <main+0x284>
    2dff: 85 13        	sta	$13                     ; 0x2013 <main+0x284>
    2e01: 18           	clc
    2e02: 8a           	txa
    2e03: 69 3e        	adc	#$3e
    2e05: 85 18        	sta	$18                     ; 0x2018 <main+0x289>
    2e07: a0 17        	ldy	#$17
    2e09: b1 10        	lda	($10),y                 ; 0x2010 <main+0x281>
    2e0b: 85 14        	sta	$14                     ; 0x2014 <main+0x285>
    2e0d: 38           	sec
    2e0e: e5 28        	sbc	$28                     ; 0x2028 <main+0x299>
    2e10: a8           	tay
    2e11: a9 00        	lda	#$0
    2e13: e5 2e        	sbc	$2e                     ; 0x202e <main+0x29f>
    2e15: 05 2d        	ora	$2d                     ; 0x202d <main+0x29e>
    2e17: aa           	tax
    2e18: 98           	tya
    2e19: 09 a0        	ora	#$a0
    2e1b: 85 17        	sta	$17                     ; 0x2017 <main+0x288>
    2e1d: 8a           	txa
    2e1e: a6 14        	ldx	$14                     ; 0x2014 <main+0x285>
    2e20: c9 01        	cmp	#$1
    2e22: d0 06        	bne	$2e2a <main+0x109b>
    2e24: 84 16        	sty	$16                     ; 0x2016 <main+0x287>
    2e26: c0 00        	cpy	#$0
    2e28: 80 04        	bra	$2e2e <main+0x109f>
    2e2a: 84 16        	sty	$16                     ; 0x2016 <main+0x287>
    2e2c: c9 01        	cmp	#$1
    2e2e: a0 80        	ldy	#$80
    2e30: 84 14        	sty	$14                     ; 0x2014 <main+0x285>
    2e32: a0 d5        	ldy	#$d5
    2e34: 84 15        	sty	$15                     ; 0x2015 <main+0x286>
    2e36: 90 08        	bcc	$2e40 <main+0x10b1>
    2e38: a0 82        	ldy	#$82
    2e3a: 84 14        	sty	$14                     ; 0x2014 <main+0x285>
    2e3c: a0 d5        	ldy	#$d5
    2e3e: 84 15        	sty	$15                     ; 0x2015 <main+0x286>
    2e40: b2 12        	lda	($12)                   ; 0x2012 <main+0x283>
    2e42: 85 19        	sta	$19                     ; 0x2019 <main+0x28a>
    2e44: a0 01        	ldy	#$1
    2e46: b1 12        	lda	($12),y                 ; 0x2012 <main+0x283>
    2e48: a8           	tay
    2e49: a5 17        	lda	$17                     ; 0x2017 <main+0x288>
    2e4b: 92 14        	sta	($14)                   ; 0x2014 <main+0x285>
    2e4d: a5 19        	lda	$19                     ; 0x2019 <main+0x28a>
    2e4f: 8d 81 d5     	sta	$d581                   ; 0xd581 <__heap_start+0x4c8d>
    2e52: 98           	tya
    2e53: 29 03        	and	#$3
    2e55: 85 12        	sta	$12                     ; 0x2012 <main+0x283>
    2e57: 06 18        	asl	$18                     ; 0x2018 <main+0x289>
    2e59: a5 16        	lda	$16                     ; 0x2016 <main+0x287>
    2e5b: 09 b0        	ora	#$b0
    2e5d: 92 14        	sta	($14)                   ; 0x2014 <main+0x285>
    2e5f: a5 18        	lda	$18                     ; 0x2018 <main+0x289>
    2e61: 0a           	asl
    2e62: 05 12        	ora	$12                     ; 0x2012 <main+0x283>
    2e64: 09 20        	ora	#$20
    2e66: 8d 81 d5     	sta	$d581                   ; 0xd581 <__heap_start+0x4c8d>
    2e69: a5 26        	lda	$26                     ; 0x2026 <main+0x297>
    2e6b: 9d 35 00     	sta	$35,x                   ; 0x35 <polyOPL3Buffer>
    2e6e: a6 34        	ldx	$34                     ; 0x2034 <main+0x2a5>
    2e70: e8           	inx
    2e71: 86 34        	stx	$34                     ; 0x2034 <main+0x2a5>
    2e73: a0 00        	ldy	#$0
    2e75: a5 29        	lda	$29                     ; 0x2029 <main+0x29a>
    2e77: a6 27        	ldx	$27                     ; 0x2027 <main+0x298>
    2e79: 86 12        	stx	$12                     ; 0x2012 <main+0x283>
    2e7b: a2 ff        	ldx	#$ff
    2e7d: c6 2c        	dec	$2c                     ; 0x202c <main+0x29d>
    2e7f: e4 2c        	cpx	$2c                     ; 0x202c <main+0x29d>
    2e81: d0 20        	bne	$2ea3 <main+0x1114>
    2e83: c6 12        	dec	$12                     ; 0x2012 <main+0x283>
    2e85: 80 1c        	bra	$2ea3 <main+0x1114>
    2e87: a2 09        	ldx	#$9
    2e89: 80 06        	bra	$2e91 <main+0x1102>
    2e8b: a2 0a        	ldx	#$a
    2e8d: 80 02        	bra	$2e91 <main+0x1102>
    2e8f: a2 0b        	ldx	#$b
    2e91: 48           	pha
    2e92: 8a           	txa
    2e93: a0 17        	ldy	#$17
    2e95: 91 10        	sta	($10),y                 ; 0x2010 <main+0x281>
    2e97: 68           	pla
    2e98: a2 01        	ldx	#$1
    2e9a: 86 2d        	stx	$2d                     ; 0x202d <main+0x29e>
    2e9c: a2 09        	ldx	#$9
    2e9e: 86 28        	stx	$28                     ; 0x2028 <main+0x299>
    2ea0: 4c bc 2d     	jmp	$2dbc <main+0x102d>
    2ea3: aa           	tax
    2ea4: 85 16        	sta	$16                     ; 0x2016 <main+0x287>
    2ea6: 98           	tya
    2ea7: 5a           	phy
    2ea8: a4 12        	ldy	$12                     ; 0x2012 <main+0x283>
    2eaa: 84 27        	sty	$27                     ; 0x2027 <main+0x298>
    2eac: 7a           	ply
    2ead: e6 12        	inc	$12                     ; 0x2012 <main+0x283>
    2eaf: c6 12        	dec	$12                     ; 0x2012 <main+0x283>
    2eb1: d0 03        	bne	$2eb6 <main+0x1127>
    2eb3: 4c 69 31     	jmp	$3169 <main+0x13da>
    2eb6: ac a1 dd     	ldy	$dda1                   ; 0xdda1 <__heap_start+0x54ad>
    2eb9: 84 29        	sty	$29                     ; 0x2029 <main+0x29a>
    2ebb: c0 fe        	cpy	#$fe
    2ebd: d0 03        	bne	$2ec2 <main+0x1133>
    2ebf: a8           	tay
    2ec0: 80 b3        	bra	$2e75 <main+0x10e6>
    2ec2: a8           	tay
    2ec3: f0 27        	beq	$2eec <main+0x115d>
    2ec5: 48           	pha
    2ec6: a0 1a        	ldy	#$1a
    2ec8: b1 10        	lda	($10),y                 ; 0x2010 <main+0x281>
    2eca: a8           	tay
    2ecb: 68           	pla
    2ecc: c0 01        	cpy	#$1
    2ece: f0 03        	beq	$2ed3 <main+0x1144>
    2ed0: 4c 2b 2f     	jmp	$2f2b <main+0x119c>
    2ed3: a8           	tay
    2ed4: f0 03        	beq	$2ed9 <main+0x114a>
    2ed6: 4c 9f 2f     	jmp	$2f9f <main+0x1210>
    2ed9: a0 19        	ldy	#$19
    2edb: b1 10        	lda	($10),y                 ; 0x2010 <main+0x281>
    2edd: a8           	tay
    2ede: f0 03        	beq	$2ee3 <main+0x1154>
    2ee0: 4c 55 31     	jmp	$3155 <main+0x13c6>
    2ee3: e0 00        	cpx	#$0
    2ee5: a5 26        	lda	$26                     ; 0x2026 <main+0x297>
    2ee7: b0 4b        	bcs	$2f34 <main+0x11a5>
    2ee9: 4c a8 2f     	jmp	$2fa8 <main+0x1219>
    2eec: 48           	pha
    2eed: a0 19        	ldy	#$19
    2eef: b1 10        	lda	($10),y                 ; 0x2010 <main+0x281>
    2ef1: 85 12        	sta	$12                     ; 0x2012 <main+0x283>
    2ef3: 68           	pla
    2ef4: a4 12        	ldy	$12                     ; 0x2012 <main+0x283>
    2ef6: d0 03        	bne	$2efb <main+0x116c>
    2ef8: 4c 06 31     	jmp	$3106 <main+0x1377>
    2efb: 85 14        	sta	$14                     ; 0x2014 <main+0x285>
    2efd: 18           	clc
    2efe: a5 29        	lda	$29                     ; 0x2029 <main+0x29a>
    2f00: 69 ec        	adc	#$ec
    2f02: 85 15        	sta	$15                     ; 0x2015 <main+0x286>
    2f04: a0 1a        	ldy	#$1a
    2f06: b1 10        	lda	($10),y                 ; 0x2010 <main+0x281>
    2f08: a8           	tay
    2f09: c9 01        	cmp	#$1
    2f0b: f0 03        	beq	$2f10 <main+0x1181>
    2f0d: 4c 30 31     	jmp	$3130 <main+0x13a1>
    2f10: a5 14        	lda	$14                     ; 0x2014 <main+0x285>
    2f12: f0 03        	beq	$2f17 <main+0x1188>
    2f14: 4c ca 2c     	jmp	$2cca <main+0xf3b>
    2f17: a0 19        	ldy	#$19
    2f19: b1 10        	lda	($10),y                 ; 0x2010 <main+0x281>
    2f1b: a8           	tay
    2f1c: f0 03        	beq	$2f21 <main+0x1192>
    2f1e: 4c cc 2c     	jmp	$2ccc <main+0xf3d>
    2f21: e0 00        	cpx	#$0
    2f23: 90 03        	bcc	$2f28 <main+0x1199>
    2f25: 4c d3 2c     	jmp	$2cd3 <main+0xf44>
    2f28: 4c 37 31     	jmp	$3137 <main+0x13a8>
    2f2b: c0 01        	cpy	#$1
    2f2d: a5 26        	lda	$26                     ; 0x2026 <main+0x297>
    2f2f: b0 03        	bcs	$2f34 <main+0x11a5>
    2f31: 4c a8 2f     	jmp	$2fa8 <main+0x1219>
    2f34: aa           	tax
    2f35: d0 03        	bne	$2f3a <main+0x11ab>
    2f37: 4c 73 2e     	jmp	$2e73 <main+0x10e4>
    2f3a: a6 35        	ldx	$35                     ; 0x2035 <main+0x2a6>
    2f3c: d0 03        	bne	$2f41 <main+0x11b2>
    2f3e: 4c 61 31     	jmp	$3161 <main+0x13d2>
    2f41: a6 36        	ldx	$36                     ; 0x2036 <main+0x2a7>
    2f43: d0 03        	bne	$2f48 <main+0x11b9>
    2f45: 4c 83 2d     	jmp	$2d83 <main+0xff4>
    2f48: a6 37        	ldx	$37                     ; 0x2037 <main+0x2a8>
    2f4a: d0 03        	bne	$2f4f <main+0x11c0>
    2f4c: 4c 87 2d     	jmp	$2d87 <main+0xff8>
    2f4f: a6 38        	ldx	$38                     ; 0x2038 <main+0x2a9>
    2f51: d0 03        	bne	$2f56 <main+0x11c7>
    2f53: 4c 8b 2d     	jmp	$2d8b <main+0xffc>
    2f56: a6 39        	ldx	$39                     ; 0x2039 <main+0x2aa>
    2f58: d0 03        	bne	$2f5d <main+0x11ce>
    2f5a: 4c 94 2d     	jmp	$2d94 <main+0x1005>
    2f5d: a6 3a        	ldx	$3a                     ; 0x203a <main+0x2ab>
    2f5f: d0 03        	bne	$2f64 <main+0x11d5>
    2f61: 4c a3 2d     	jmp	$2da3 <main+0x1014>
    2f64: a6 3b        	ldx	$3b                     ; 0x203b <main+0x2ac>
    2f66: d0 03        	bne	$2f6b <main+0x11dc>
    2f68: 4c a7 2d     	jmp	$2da7 <main+0x1018>
    2f6b: a6 3c        	ldx	$3c                     ; 0x203c <main+0x2ad>
    2f6d: d0 03        	bne	$2f72 <main+0x11e3>
    2f6f: 4c ab 2d     	jmp	$2dab <main+0x101c>
    2f72: a6 3d        	ldx	$3d                     ; 0x203d <main+0x2ae>
    2f74: d0 03        	bne	$2f79 <main+0x11ea>
    2f76: 4c af 2d     	jmp	$2daf <main+0x1020>
    2f79: a6 3e        	ldx	$3e                     ; 0x203e <main+0x2af>
    2f7b: d0 03        	bne	$2f80 <main+0x11f1>
    2f7d: 4c 87 2e     	jmp	$2e87 <main+0x10f8>
    2f80: a6 3f        	ldx	$3f                     ; 0x203f <main+0x2b0>
    2f82: d0 03        	bne	$2f87 <main+0x11f8>
    2f84: 4c 8b 2e     	jmp	$2e8b <main+0x10fc>
    2f87: a6 40        	ldx	$40                     ; 0x2040 <main+0x2b1>
    2f89: d0 03        	bne	$2f8e <main+0x11ff>
    2f8b: 4c 8f 2e     	jmp	$2e8f <main+0x1100>
    2f8e: a6 41        	ldx	$41                     ; 0x2041 <main+0x2b2>
    2f90: d0 03        	bne	$2f95 <main+0x1206>
    2f92: 4c 26 32     	jmp	$3226 <main+0x1497>
    2f95: a6 42        	ldx	$42                     ; 0x2042 <main+0x2b3>
    2f97: f0 03        	beq	$2f9c <main+0x120d>
    2f99: 4c 0e 32     	jmp	$320e <main+0x147f>
    2f9c: 4c 2b 32     	jmp	$322b <main+0x149c>
    2f9f: c9 00        	cmp	#$0
    2fa1: a5 26        	lda	$26                     ; 0x2026 <main+0x297>
    2fa3: 90 03        	bcc	$2fa8 <main+0x1219>
    2fa5: 4c 34 2f     	jmp	$2f34 <main+0x11a5>
    2fa8: a6 35        	ldx	$35                     ; 0x2035 <main+0x2a6>
    2faa: 64 2d        	stz	$2d                     ; 0x202d <main+0x29e>
    2fac: 85 12        	sta	$12                     ; 0x2012 <main+0x283>
    2fae: 64 2f        	stz	$2f                     ; 0x202f <main+0x2a0>
    2fb0: 64 28        	stz	$28                     ; 0x2028 <main+0x299>
    2fb2: e4 12        	cpx	$12                     ; 0x2012 <main+0x283>
    2fb4: d0 03        	bne	$2fb9 <main+0x122a>
    2fb6: 4c 36 30     	jmp	$3036 <main+0x12a7>
    2fb9: a6 36        	ldx	$36                     ; 0x2036 <main+0x2a7>
    2fbb: a0 01        	ldy	#$1
    2fbd: 85 12        	sta	$12                     ; 0x2012 <main+0x283>
    2fbf: 84 2d        	sty	$2d                     ; 0x202d <main+0x29e>
    2fc1: e4 12        	cpx	$12                     ; 0x2012 <main+0x283>
    2fc3: d0 03        	bne	$2fc8 <main+0x1239>
    2fc5: 4c 36 30     	jmp	$3036 <main+0x12a7>
    2fc8: a6 37        	ldx	$37                     ; 0x2037 <main+0x2a8>
    2fca: a0 02        	ldy	#$2
    2fcc: 85 12        	sta	$12                     ; 0x2012 <main+0x283>
    2fce: 84 2d        	sty	$2d                     ; 0x202d <main+0x29e>
    2fd0: e4 12        	cpx	$12                     ; 0x2012 <main+0x283>
    2fd2: d0 03        	bne	$2fd7 <main+0x1248>
    2fd4: 4c 36 30     	jmp	$3036 <main+0x12a7>
    2fd7: a6 38        	ldx	$38                     ; 0x2038 <main+0x2a9>
    2fd9: a0 03        	ldy	#$3
    2fdb: 85 12        	sta	$12                     ; 0x2012 <main+0x283>
    2fdd: 84 2d        	sty	$2d                     ; 0x202d <main+0x29e>
    2fdf: e4 12        	cpx	$12                     ; 0x2012 <main+0x283>
    2fe1: f0 53        	beq	$3036 <main+0x12a7>
    2fe3: a6 39        	ldx	$39                     ; 0x2039 <main+0x2aa>
    2fe5: a0 04        	ldy	#$4
    2fe7: 85 12        	sta	$12                     ; 0x2012 <main+0x283>
    2fe9: 84 2d        	sty	$2d                     ; 0x202d <main+0x29e>
    2feb: e4 12        	cpx	$12                     ; 0x2012 <main+0x283>
    2fed: f0 47        	beq	$3036 <main+0x12a7>
    2fef: a6 3a        	ldx	$3a                     ; 0x203a <main+0x2ab>
    2ff1: a0 05        	ldy	#$5
    2ff3: 85 12        	sta	$12                     ; 0x2012 <main+0x283>
    2ff5: 84 2d        	sty	$2d                     ; 0x202d <main+0x29e>
    2ff7: e4 12        	cpx	$12                     ; 0x2012 <main+0x283>
    2ff9: f0 3b        	beq	$3036 <main+0x12a7>
    2ffb: a6 3b        	ldx	$3b                     ; 0x203b <main+0x2ac>
    2ffd: a0 06        	ldy	#$6
    2fff: 85 12        	sta	$12                     ; 0x2012 <main+0x283>
    3001: 84 2d        	sty	$2d                     ; 0x202d <main+0x29e>
    3003: e4 12        	cpx	$12                     ; 0x2012 <main+0x283>
    3005: f0 2f        	beq	$3036 <main+0x12a7>
    3007: a6 3c        	ldx	$3c                     ; 0x203c <main+0x2ad>
    3009: a0 07        	ldy	#$7
    300b: 85 12        	sta	$12                     ; 0x2012 <main+0x283>
    300d: 84 2d        	sty	$2d                     ; 0x202d <main+0x29e>
    300f: e4 12        	cpx	$12                     ; 0x2012 <main+0x283>
    3011: f0 23        	beq	$3036 <main+0x12a7>
    3013: a6 3d        	ldx	$3d                     ; 0x203d <main+0x2ae>
    3015: a0 08        	ldy	#$8
    3017: 85 12        	sta	$12                     ; 0x2012 <main+0x283>
    3019: 84 2d        	sty	$2d                     ; 0x202d <main+0x29e>
    301b: e4 12        	cpx	$12                     ; 0x2012 <main+0x283>
    301d: f0 17        	beq	$3036 <main+0x12a7>
    301f: a6 3e        	ldx	$3e                     ; 0x203e <main+0x2af>
    3021: a0 09        	ldy	#$9
    3023: 85 12        	sta	$12                     ; 0x2012 <main+0x283>
    3025: 84 2d        	sty	$2d                     ; 0x202d <main+0x29e>
    3027: a0 01        	ldy	#$1
    3029: 84 2f        	sty	$2f                     ; 0x202f <main+0x2a0>
    302b: a0 09        	ldy	#$9
    302d: 84 28        	sty	$28                     ; 0x2028 <main+0x299>
    302f: e4 12        	cpx	$12                     ; 0x2012 <main+0x283>
    3031: f0 03        	beq	$3036 <main+0x12a7>
    3033: 4c 9b 31     	jmp	$319b <main+0x140c>
    3036: 18           	clc
    3037: 69 05        	adc	#$5
    3039: a8           	tay
    303a: a9 00        	lda	#$0
    303c: 69 00        	adc	#$0
    303e: 18           	clc
    303f: 48           	pha
    3040: a5 10        	lda	$10                     ; 0x2010 <main+0x281>
    3042: 69 1d        	adc	#$1d
    3044: 85 2a        	sta	$2a                     ; 0x202a <main+0x29b>
    3046: a5 11        	lda	$11                     ; 0x2011 <main+0x282>
    3048: 69 00        	adc	#$0
    304a: 85 2b        	sta	$2b                     ; 0x202b <main+0x29c>
    304c: 68           	pla
    304d: a6 2a        	ldx	$2a                     ; 0x202a <main+0x29b>
    304f: 86 14        	stx	$14                     ; 0x2014 <main+0x285>
    3051: a6 2b        	ldx	$2b                     ; 0x202b <main+0x29c>
    3053: 86 15        	stx	$15                     ; 0x2015 <main+0x286>
    3055: a2 0c        	ldx	#$c
    3057: 86 12        	stx	$12                     ; 0x2012 <main+0x283>
    3059: 64 13        	stz	$13                     ; 0x2013 <main+0x284>
    305b: aa           	tax
    305c: 98           	tya
    305d: 20 1a 50     	jsr	$501a <__udivmodhi4>
    3060: 85 15        	sta	$15                     ; 0x2015 <main+0x286>
    3062: b2 2a        	lda	($2a)                   ; 0x202a <main+0x29b>
    3064: 85 12        	sta	$12                     ; 0x2012 <main+0x283>
    3066: a0 01        	ldy	#$1
    3068: b1 2a        	lda	($2a),y                 ; 0x202a <main+0x29b>
    306a: 06 12        	asl	$12                     ; 0x2012 <main+0x283>
    306c: 2a           	rol
    306d: 85 13        	sta	$13                     ; 0x2013 <main+0x284>
    306f: a9 a1        	lda	#$a1
    3071: 18           	clc
    3072: 65 12        	adc	$12                     ; 0x2012 <main+0x283>
    3074: 85 12        	sta	$12                     ; 0x2012 <main+0x283>
    3076: a9 56        	lda	#$56
    3078: 65 13        	adc	$13                     ; 0x2013 <main+0x284>
    307a: 85 13        	sta	$13                     ; 0x2013 <main+0x284>
    307c: b2 12        	lda	($12)                   ; 0x2012 <main+0x283>
    307e: 85 14        	sta	$14                     ; 0x2014 <main+0x285>
    3080: b1 12        	lda	($12),y                 ; 0x2012 <main+0x283>
    3082: aa           	tax
    3083: 18           	clc
    3084: a5 15        	lda	$15                     ; 0x2015 <main+0x286>
    3086: 69 3e        	adc	#$3e
    3088: 85 15        	sta	$15                     ; 0x2015 <main+0x286>
    308a: a5 2d        	lda	$2d                     ; 0x202d <main+0x29e>
    308c: 38           	sec
    308d: e5 28        	sbc	$28                     ; 0x2028 <main+0x299>
    308f: a8           	tay
    3090: a9 00        	lda	#$0
    3092: e5 2e        	sbc	$2e                     ; 0x202e <main+0x29f>
    3094: 05 2f        	ora	$2f                     ; 0x202f <main+0x2a0>
    3096: 85 12        	sta	$12                     ; 0x2012 <main+0x283>
    3098: 98           	tya
    3099: 09 a0        	ora	#$a0
    309b: 85 17        	sta	$17                     ; 0x2017 <main+0x288>
    309d: a5 12        	lda	$12                     ; 0x2012 <main+0x283>
    309f: c9 01        	cmp	#$1
    30a1: d0 06        	bne	$30a9 <main+0x131a>
    30a3: 84 16        	sty	$16                     ; 0x2016 <main+0x287>
    30a5: c0 00        	cpy	#$0
    30a7: 80 04        	bra	$30ad <main+0x131e>
    30a9: 84 16        	sty	$16                     ; 0x2016 <main+0x287>
    30ab: c9 01        	cmp	#$1
    30ad: a0 80        	ldy	#$80
    30af: 84 12        	sty	$12                     ; 0x2012 <main+0x283>
    30b1: a0 d5        	ldy	#$d5
    30b3: 84 13        	sty	$13                     ; 0x2013 <main+0x284>
    30b5: 90 08        	bcc	$30bf <main+0x1330>
    30b7: a0 82        	ldy	#$82
    30b9: 84 12        	sty	$12                     ; 0x2012 <main+0x283>
    30bb: a0 d5        	ldy	#$d5
    30bd: 84 13        	sty	$13                     ; 0x2013 <main+0x284>
    30bf: a5 17        	lda	$17                     ; 0x2017 <main+0x288>
    30c1: 92 12        	sta	($12)                   ; 0x2012 <main+0x283>
    30c3: a4 14        	ldy	$14                     ; 0x2014 <main+0x285>
    30c5: 8c 81 d5     	sty	$d581                   ; 0xd581 <__heap_start+0x4c8d>
    30c8: 8a           	txa
    30c9: 29 03        	and	#$3
    30cb: 85 14        	sta	$14                     ; 0x2014 <main+0x285>
    30cd: a5 15        	lda	$15                     ; 0x2015 <main+0x286>
    30cf: 0a           	asl
    30d0: 0a           	asl
    30d1: 05 14        	ora	$14                     ; 0x2014 <main+0x285>
    30d3: aa           	tax
    30d4: a5 16        	lda	$16                     ; 0x2016 <main+0x287>
    30d6: 09 b0        	ora	#$b0
    30d8: 92 12        	sta	($12)                   ; 0x2012 <main+0x283>
    30da: 8e 81 d5     	stx	$d581                   ; 0xd581 <__heap_start+0x4c8d>
    30dd: a5 2d        	lda	$2d                     ; 0x202d <main+0x29e>
    30df: 10 06        	bpl	$30e7 <main+0x1358>
    30e1: a2 ff        	ldx	#$ff
    30e3: 86 12        	stx	$12                     ; 0x2012 <main+0x283>
    30e5: 80 02        	bra	$30e9 <main+0x135a>
    30e7: 64 12        	stz	$12                     ; 0x2012 <main+0x283>
    30e9: a9 35        	lda	#$35
    30eb: 18           	clc
    30ec: 65 2d        	adc	$2d                     ; 0x202d <main+0x29e>
    30ee: aa           	tax
    30ef: a9 00        	lda	#$0
    30f1: 65 12        	adc	$12                     ; 0x2012 <main+0x283>
    30f3: 86 12        	stx	$12                     ; 0x2012 <main+0x283>
    30f5: 85 13        	sta	$13                     ; 0x2013 <main+0x284>
    30f7: a9 00        	lda	#$0
    30f9: 92 12        	sta	($12)                   ; 0x2012 <main+0x283>
    30fb: a6 34        	ldx	$34                     ; 0x2034 <main+0x2a5>
    30fd: d0 03        	bne	$3102 <main+0x1373>
    30ff: 4c 73 2e     	jmp	$2e73 <main+0x10e4>
    3102: ca           	dex
    3103: 4c 71 2e     	jmp	$2e71 <main+0x10e2>
    3106: 85 14        	sta	$14                     ; 0x2014 <main+0x285>
    3108: a0 00        	ldy	#$0
    310a: a5 29        	lda	$29                     ; 0x2029 <main+0x29a>
    310c: 29 f0        	and	#$f0
    310e: c9 80        	cmp	#$80
    3110: d0 03        	bne	$3115 <main+0x1386>
    3112: 4c 37 2d     	jmp	$2d37 <main+0xfa8>
    3115: c9 90        	cmp	#$90
    3117: f0 03        	beq	$311c <main+0x138d>
    3119: 4c 55 2d     	jmp	$2d55 <main+0xfc6>
    311c: a2 01        	ldx	#$1
    311e: 84 21        	sty	$21                     ; 0x2021 <main+0x292>
    3120: 8a           	txa
    3121: a0 19        	ldy	#$19
    3123: 91 10        	sta	($10),y                 ; 0x2010 <main+0x281>
    3125: a5 29        	lda	$29                     ; 0x2029 <main+0x29a>
    3127: a0 16        	ldy	#$16
    3129: 91 10        	sta	($10),y                 ; 0x2010 <main+0x281>
    312b: 48           	pha
    312c: 8a           	txa
    312d: 4c 4b 2d     	jmp	$2d4b <main+0xfbc>
    3130: c0 01        	cpy	#$1
    3132: 90 03        	bcc	$3137 <main+0x13a8>
    3134: 4c d3 2c     	jmp	$2cd3 <main+0xf44>
    3137: a6 15        	ldx	$15                     ; 0x2015 <main+0x286>
    3139: 64 12        	stz	$12                     ; 0x2012 <main+0x283>
    313b: bd 48 56     	lda	$5648,x                 ; 0x5648 <__set_v+0x553>
    313e: aa           	tax
    313f: a9 00        	lda	#$0
    3141: e0 00        	cpx	#$0
    3143: f0 02        	beq	$3147 <main+0x13b8>
    3145: a9 01        	lda	#$1
    3147: 4a           	lsr
    3148: a9 00        	lda	#$0
    314a: 6a           	ror
    314b: 30 03        	bmi	$3150 <main+0x13c1>
    314d: 4c e3 2c     	jmp	$2ce3 <main+0xf54>
    3150: a2 ff        	ldx	#$ff
    3152: 4c e5 2c     	jmp	$2ce5 <main+0xf56>
    3155: c0 00        	cpy	#$0
    3157: a5 26        	lda	$26                     ; 0x2026 <main+0x297>
    3159: 90 03        	bcc	$315e <main+0x13cf>
    315b: 4c 34 2f     	jmp	$2f34 <main+0x11a5>
    315e: 4c a8 2f     	jmp	$2fa8 <main+0x1219>
    3161: 64 12        	stz	$12                     ; 0x2012 <main+0x283>
    3163: 48           	pha
    3164: a9 00        	lda	#$0
    3166: 4c b3 2d     	jmp	$2db3 <main+0x1024>
    3169: e6 2c        	inc	$2c                     ; 0x202c <main+0x29d>
    316b: c6 2c        	dec	$2c                     ; 0x202c <main+0x29d>
    316d: f0 03        	beq	$3172 <main+0x13e3>
    316f: 4c b6 2e     	jmp	$2eb6 <main+0x1127>
    3172: 64 4b        	stz	$4b                     ; 0x204b <main+0x2bc>
    3174: a2 52        	ldx	#$52
    3176: 86 12        	stx	$12                     ; 0x2012 <main+0x283>
    3178: a2 00        	ldx	#$0
    317a: 86 13        	stx	$13                     ; 0x2013 <main+0x284>
    317c: 20 00 ff     	jsr	$ff00 <__heap_start+0x760c>
    317f: 92 24        	sta	($24)                   ; 0x2024 <main+0x295>
    3181: a9 00        	lda	#$0
    3183: 6a           	ror
    3184: 85 12        	sta	$12                     ; 0x2012 <main+0x283>
    3186: a6 4b        	ldx	$4b                     ; 0x204b <main+0x2bc>
    3188: e0 08        	cpx	#$8
    318a: f0 03        	beq	$318f <main+0x1400>
    318c: 4c a5 2c     	jmp	$2ca5 <main+0xf16>
    318f: a6 4f        	ldx	$4f                     ; 0x204f <main+0x2c0>
    3191: e0 20        	cpx	#$20
    3193: f0 03        	beq	$3198 <main+0x1409>
    3195: 4c a5 2c     	jmp	$2ca5 <main+0xf16>
    3198: 4c e7 33     	jmp	$33e7 <main+0x1658>
    319b: a6 3f        	ldx	$3f                     ; 0x203f <main+0x2b0>
    319d: a0 0a        	ldy	#$a
    319f: 85 12        	sta	$12                     ; 0x2012 <main+0x283>
    31a1: 84 2d        	sty	$2d                     ; 0x202d <main+0x29e>
    31a3: a0 01        	ldy	#$1
    31a5: 84 2f        	sty	$2f                     ; 0x202f <main+0x2a0>
    31a7: a0 09        	ldy	#$9
    31a9: 84 28        	sty	$28                     ; 0x2028 <main+0x299>
    31ab: e4 12        	cpx	$12                     ; 0x2012 <main+0x283>
    31ad: d0 03        	bne	$31b2 <main+0x1423>
    31af: 4c 36 30     	jmp	$3036 <main+0x12a7>
    31b2: a6 40        	ldx	$40                     ; 0x2040 <main+0x2b1>
    31b4: a0 0b        	ldy	#$b
    31b6: 85 12        	sta	$12                     ; 0x2012 <main+0x283>
    31b8: 84 2d        	sty	$2d                     ; 0x202d <main+0x29e>
    31ba: a0 01        	ldy	#$1
    31bc: 84 2f        	sty	$2f                     ; 0x202f <main+0x2a0>
    31be: a0 09        	ldy	#$9
    31c0: 84 28        	sty	$28                     ; 0x2028 <main+0x299>
    31c2: e4 12        	cpx	$12                     ; 0x2012 <main+0x283>
    31c4: d0 03        	bne	$31c9 <main+0x143a>
    31c6: 4c 36 30     	jmp	$3036 <main+0x12a7>
    31c9: a6 41        	ldx	$41                     ; 0x2041 <main+0x2b2>
    31cb: a0 0c        	ldy	#$c
    31cd: 85 12        	sta	$12                     ; 0x2012 <main+0x283>
    31cf: 84 2d        	sty	$2d                     ; 0x202d <main+0x29e>
    31d1: a0 01        	ldy	#$1
    31d3: 84 2f        	sty	$2f                     ; 0x202f <main+0x2a0>
    31d5: a0 09        	ldy	#$9
    31d7: 84 28        	sty	$28                     ; 0x2028 <main+0x299>
    31d9: e4 12        	cpx	$12                     ; 0x2012 <main+0x283>
    31db: d0 03        	bne	$31e0 <main+0x1451>
    31dd: 4c 36 30     	jmp	$3036 <main+0x12a7>
    31e0: a6 42        	ldx	$42                     ; 0x2042 <main+0x2b3>
    31e2: a0 0d        	ldy	#$d
    31e4: 85 12        	sta	$12                     ; 0x2012 <main+0x283>
    31e6: 84 2d        	sty	$2d                     ; 0x202d <main+0x29e>
    31e8: a0 01        	ldy	#$1
    31ea: 84 2f        	sty	$2f                     ; 0x202f <main+0x2a0>
    31ec: a0 09        	ldy	#$9
    31ee: 84 28        	sty	$28                     ; 0x2028 <main+0x299>
    31f0: e4 12        	cpx	$12                     ; 0x2012 <main+0x283>
    31f2: d0 03        	bne	$31f7 <main+0x1468>
    31f4: 4c 36 30     	jmp	$3036 <main+0x12a7>
    31f7: a6 43        	ldx	$43                     ; 0x2043 <main+0x2b4>
    31f9: a0 0e        	ldy	#$e
    31fb: 85 12        	sta	$12                     ; 0x2012 <main+0x283>
    31fd: 84 2d        	sty	$2d                     ; 0x202d <main+0x29e>
    31ff: a0 01        	ldy	#$1
    3201: 84 2f        	sty	$2f                     ; 0x202f <main+0x2a0>
    3203: a0 09        	ldy	#$9
    3205: 84 28        	sty	$28                     ; 0x2028 <main+0x299>
    3207: e4 12        	cpx	$12                     ; 0x2012 <main+0x283>
    3209: d0 40        	bne	$324b <main+0x14bc>
    320b: 4c 36 30     	jmp	$3036 <main+0x12a7>
    320e: a6 43        	ldx	$43                     ; 0x2043 <main+0x2b4>
    3210: f0 1e        	beq	$3230 <main+0x14a1>
    3212: a6 44        	ldx	$44                     ; 0x2044 <main+0x2b5>
    3214: f0 1f        	beq	$3235 <main+0x14a6>
    3216: a6 45        	ldx	$45                     ; 0x2045 <main+0x2b6>
    3218: f0 20        	beq	$323a <main+0x14ab>
    321a: a6 46        	ldx	$46                     ; 0x2046 <main+0x2b7>
    321c: f0 03        	beq	$3221 <main+0x1492>
    321e: 4c 6e 2e     	jmp	$2e6e <main+0x10df>
    3221: a2 11        	ldx	#$11
    3223: 4c 91 2e     	jmp	$2e91 <main+0x1102>
    3226: a2 0c        	ldx	#$c
    3228: 4c 91 2e     	jmp	$2e91 <main+0x1102>
    322b: a2 0d        	ldx	#$d
    322d: 4c 91 2e     	jmp	$2e91 <main+0x1102>
    3230: a2 0e        	ldx	#$e
    3232: 4c 91 2e     	jmp	$2e91 <main+0x1102>
    3235: a2 0f        	ldx	#$f
    3237: 4c 91 2e     	jmp	$2e91 <main+0x1102>
    323a: a2 10        	ldx	#$10
    323c: 4c 91 2e     	jmp	$2e91 <main+0x1102>
    323f: a6 13        	ldx	$13                     ; 0x2013 <main+0x284>
    3241: e0 00        	cpx	#$0
    3243: b0 03        	bcs	$3248 <main+0x14b9>
    3245: 4c 13 35     	jmp	$3513 <main+0x1784>
    3248: 4c 3b 35     	jmp	$353b <main+0x17ac>
    324b: a6 44        	ldx	$44                     ; 0x2044 <main+0x2b5>
    324d: a0 0f        	ldy	#$f
    324f: 85 12        	sta	$12                     ; 0x2012 <main+0x283>
    3251: 84 2d        	sty	$2d                     ; 0x202d <main+0x29e>
    3253: a0 01        	ldy	#$1
    3255: 84 2f        	sty	$2f                     ; 0x202f <main+0x2a0>
    3257: a0 09        	ldy	#$9
    3259: 84 28        	sty	$28                     ; 0x2028 <main+0x299>
    325b: e4 12        	cpx	$12                     ; 0x2012 <main+0x283>
    325d: d0 03        	bne	$3262 <main+0x14d3>
    325f: 4c 36 30     	jmp	$3036 <main+0x12a7>
    3262: a6 45        	ldx	$45                     ; 0x2045 <main+0x2b6>
    3264: a0 10        	ldy	#$10
    3266: 85 12        	sta	$12                     ; 0x2012 <main+0x283>
    3268: 84 2d        	sty	$2d                     ; 0x202d <main+0x29e>
    326a: a0 01        	ldy	#$1
    326c: 84 2f        	sty	$2f                     ; 0x202f <main+0x2a0>
    326e: a0 09        	ldy	#$9
    3270: 84 28        	sty	$28                     ; 0x2028 <main+0x299>
    3272: e4 12        	cpx	$12                     ; 0x2012 <main+0x283>
    3274: d0 03        	bne	$3279 <main+0x14ea>
    3276: 4c 36 30     	jmp	$3036 <main+0x12a7>
    3279: a6 46        	ldx	$46                     ; 0x2046 <main+0x2b7>
    327b: a0 11        	ldy	#$11
    327d: 85 12        	sta	$12                     ; 0x2012 <main+0x283>
    327f: 84 2d        	sty	$2d                     ; 0x202d <main+0x29e>
    3281: a0 01        	ldy	#$1
    3283: 84 2f        	sty	$2f                     ; 0x202f <main+0x2a0>
    3285: a0 09        	ldy	#$9
    3287: 84 28        	sty	$28                     ; 0x2028 <main+0x299>
    3289: e4 12        	cpx	$12                     ; 0x2012 <main+0x283>
    328b: d0 03        	bne	$3290 <main+0x1501>
    328d: 4c 36 30     	jmp	$3036 <main+0x12a7>
    3290: a2 ff        	ldx	#$ff
    3292: 86 2d        	stx	$2d                     ; 0x202d <main+0x29e>
    3294: a2 01        	ldx	#$1
    3296: 86 2f        	stx	$2f                     ; 0x202f <main+0x2a0>
    3298: a2 09        	ldx	#$9
    329a: 86 28        	stx	$28                     ; 0x2028 <main+0x299>
    329c: 4c 36 30     	jmp	$3036 <main+0x12a7>
    329f: a6 24        	ldx	$24                     ; 0x2024 <main+0x295>
    32a1: 86 12        	stx	$12                     ; 0x2012 <main+0x283>
    32a3: a6 25        	ldx	$25                     ; 0x2025 <main+0x296>
    32a5: 86 13        	stx	$13                     ; 0x2013 <main+0x284>
    32a7: a0 14        	ldy	#$14
    32a9: b1 10        	lda	($10),y                 ; 0x2010 <main+0x281>
    32ab: 85 28        	sta	$28                     ; 0x2028 <main+0x299>
    32ad: c8           	iny
    32ae: b1 10        	lda	($10),y                 ; 0x2010 <main+0x281>
    32b0: 85 29        	sta	$29                     ; 0x2029 <main+0x29a>
    32b2: a6 28        	ldx	$28                     ; 0x2028 <main+0x299>
    32b4: 86 14        	stx	$14                     ; 0x2014 <main+0x285>
    32b6: 85 15        	sta	$15                     ; 0x2015 <main+0x286>
    32b8: a2 00        	ldx	#$0
    32ba: a9 01        	lda	#$1
    32bc: 20 76 39     	jsr	$3976 <fileRead>
    32bf: a6 24        	ldx	$24                     ; 0x2024 <main+0x295>
    32c1: 86 12        	stx	$12                     ; 0x2012 <main+0x283>
    32c3: a6 25        	ldx	$25                     ; 0x2025 <main+0x296>
    32c5: 86 13        	stx	$13                     ; 0x2013 <main+0x284>
    32c7: 4c bf 34     	jmp	$34bf <main+0x1730>
    32ca: a6 24        	ldx	$24                     ; 0x2024 <main+0x295>
    32cc: 86 12        	stx	$12                     ; 0x2012 <main+0x283>
    32ce: a6 25        	ldx	$25                     ; 0x2025 <main+0x296>
    32d0: 86 13        	stx	$13                     ; 0x2013 <main+0x284>
    32d2: a0 14        	ldy	#$14
    32d4: b1 10        	lda	($10),y                 ; 0x2010 <main+0x281>
    32d6: 85 14        	sta	$14                     ; 0x2014 <main+0x285>
    32d8: c8           	iny
    32d9: b1 10        	lda	($10),y                 ; 0x2010 <main+0x281>
    32db: 85 15        	sta	$15                     ; 0x2015 <main+0x286>
    32dd: 4c de 34     	jmp	$34de <main+0x174f>
    32e0: a6 24        	ldx	$24                     ; 0x2024 <main+0x295>
    32e2: 86 12        	stx	$12                     ; 0x2012 <main+0x283>
    32e4: a6 25        	ldx	$25                     ; 0x2025 <main+0x296>
    32e6: 86 13        	stx	$13                     ; 0x2013 <main+0x284>
    32e8: 48           	pha
    32e9: a0 14        	ldy	#$14
    32eb: b1 10        	lda	($10),y                 ; 0x2010 <main+0x281>
    32ed: 85 14        	sta	$14                     ; 0x2014 <main+0x285>
    32ef: c8           	iny
    32f0: b1 10        	lda	($10),y                 ; 0x2010 <main+0x281>
    32f2: 85 15        	sta	$15                     ; 0x2015 <main+0x286>
    32f4: 68           	pla
    32f5: a2 00        	ldx	#$0
    32f7: 20 76 39     	jsr	$3976 <fileRead>
    32fa: b2 24        	lda	($24)                   ; 0x2024 <main+0x295>
    32fc: 85 13        	sta	$13                     ; 0x2013 <main+0x284>
    32fe: a0 01        	ldy	#$1
    3300: b1 24        	lda	($24),y                 ; 0x2024 <main+0x295>
    3302: a6 13        	ldx	$13                     ; 0x2013 <main+0x284>
    3304: 8e 80 d5     	stx	$d580                   ; 0xd580 <__heap_start+0x4c8c>
    3307: 4c d9 33     	jmp	$33d9 <main+0x164a>
    330a: a6 2c        	ldx	$2c                     ; 0x202c <main+0x29d>
    330c: 86 12        	stx	$12                     ; 0x2012 <main+0x283>
    330e: a6 2d        	ldx	$2d                     ; 0x202d <main+0x29e>
    3310: 86 13        	stx	$13                     ; 0x2013 <main+0x284>
    3312: a0 14        	ldy	#$14
    3314: b1 10        	lda	($10),y                 ; 0x2010 <main+0x281>
    3316: 85 28        	sta	$28                     ; 0x2028 <main+0x299>
    3318: c8           	iny
    3319: b1 10        	lda	($10),y                 ; 0x2010 <main+0x281>
    331b: 85 29        	sta	$29                     ; 0x2029 <main+0x29a>
    331d: a6 28        	ldx	$28                     ; 0x2028 <main+0x299>
    331f: 86 14        	stx	$14                     ; 0x2014 <main+0x285>
    3321: 85 15        	sta	$15                     ; 0x2015 <main+0x286>
    3323: a2 00        	ldx	#$0
    3325: a9 01        	lda	#$1
    3327: 20 76 39     	jsr	$3976 <fileRead>
    332a: a6 2a        	ldx	$2a                     ; 0x202a <main+0x29b>
    332c: 86 12        	stx	$12                     ; 0x2012 <main+0x283>
    332e: a6 2b        	ldx	$2b                     ; 0x202b <main+0x29c>
    3330: 86 13        	stx	$13                     ; 0x2013 <main+0x284>
    3332: a6 28        	ldx	$28                     ; 0x2028 <main+0x299>
    3334: 86 14        	stx	$14                     ; 0x2014 <main+0x285>
    3336: a6 29        	ldx	$29                     ; 0x2029 <main+0x29a>
    3338: 86 15        	stx	$15                     ; 0x2015 <main+0x286>
    333a: a2 00        	ldx	#$0
    333c: a9 01        	lda	#$1
    333e: 20 76 39     	jsr	$3976 <fileRead>
    3341: b2 2a        	lda	($2a)                   ; 0x202a <main+0x29b>
    3343: 85 29        	sta	$29                     ; 0x2029 <main+0x29a>
    3345: b2 2c        	lda	($2c)                   ; 0x202c <main+0x29d>
    3347: 64 12        	stz	$12                     ; 0x2012 <main+0x283>
    3349: 64 13        	stz	$13                     ; 0x2013 <main+0x284>
    334b: a2 3a        	ldx	#$3a
    334d: 86 14        	stx	$14                     ; 0x2014 <main+0x285>
    334f: a2 02        	ldx	#$2
    3351: 86 15        	stx	$15                     ; 0x2015 <main+0x286>
    3353: 64 16        	stz	$16                     ; 0x2016 <main+0x287>
    3355: 64 17        	stz	$17                     ; 0x2017 <main+0x288>
    3357: a6 29        	ldx	$29                     ; 0x2029 <main+0x29a>
    3359: 85 28        	sta	$28                     ; 0x2028 <main+0x299>
    335b: 20 aa 4f     	jsr	$4faa <__mulsi3>
    335e: a8           	tay
    335f: 8a           	txa
    3360: a6 12        	ldx	$12                     ; 0x2012 <main+0x283>
    3362: 84 15        	sty	$15                     ; 0x2015 <main+0x286>
    3364: 84 47        	sty	$47                     ; 0x2047 <main+0x2b8>
    3366: 85 14        	sta	$14                     ; 0x2014 <main+0x285>
    3368: 85 48        	sta	$48                     ; 0x2048 <main+0x2b9>
    336a: a5 12        	lda	$12                     ; 0x2012 <main+0x283>
    336c: 86 49        	stx	$49                     ; 0x2049 <main+0x2ba>
    336e: a6 13        	ldx	$13                     ; 0x2013 <main+0x284>
    3370: 86 4a        	stx	$4a                     ; 0x204a <main+0x2bb>
    3372: a0 02        	ldy	#$2
    3374: 8c 50 d6     	sty	$d650                   ; 0xd650 <__heap_start+0x4d5c>
    3377: a4 29        	ldy	$29                     ; 0x2029 <main+0x29a>
    3379: c0 72        	cpy	#$72
    337b: f0 03        	beq	$3380 <main+0x15f1>
    337d: 4c 03 38     	jmp	$3803 <main+0x1a74>
    3380: 4c fa 37     	jmp	$37fa <main+0x1a6b>
    3383: 8d 50 d6     	sta	$d650                   ; 0xd650 <__heap_start+0x4d5c>
    3386: a2 66        	ldx	#$66
    3388: 8e 55 d6     	stx	$d655                   ; 0xd655 <__heap_start+0x4d61>
    338b: 8e 56 d6     	stx	$d656                   ; 0xd656 <__heap_start+0x4d62>
    338e: a2 06        	ldx	#$6
    3390: 80 0f        	bra	$33a1 <main+0x1612>
    3392: 8d 50 d6     	sta	$d650                   ; 0xd650 <__heap_start+0x4d5c>
    3395: a2 15        	ldx	#$15
    3397: 8e 55 d6     	stx	$d655                   ; 0xd655 <__heap_start+0x4d61>
    339a: a2 ae        	ldx	#$ae
    339c: 8e 56 d6     	stx	$d656                   ; 0xd656 <__heap_start+0x4d62>
    339f: a2 07        	ldx	#$7
    33a1: 8e 57 d6     	stx	$d657                   ; 0xd657 <__heap_start+0x4d63>
    33a4: 9c 54 d6     	stz	$d654                   ; 0xd654 <__heap_start+0x4d60>
    33a7: 8d 50 d6     	sta	$d650                   ; 0xd650 <__heap_start+0x4d5c>
    33aa: a2 89        	ldx	#$89
    33ac: 8e 50 d6     	stx	$d650                   ; 0xd650 <__heap_start+0x4d5c>
    33af: 4c 84 35     	jmp	$3584 <main+0x17f5>
    33b2: a6 24        	ldx	$24                     ; 0x2024 <main+0x295>
    33b4: 86 12        	stx	$12                     ; 0x2012 <main+0x283>
    33b6: a6 25        	ldx	$25                     ; 0x2025 <main+0x296>
    33b8: 86 13        	stx	$13                     ; 0x2013 <main+0x284>
    33ba: 48           	pha
    33bb: a0 14        	ldy	#$14
    33bd: b1 10        	lda	($10),y                 ; 0x2010 <main+0x281>
    33bf: 85 14        	sta	$14                     ; 0x2014 <main+0x285>
    33c1: c8           	iny
    33c2: b1 10        	lda	($10),y                 ; 0x2010 <main+0x281>
    33c4: 85 15        	sta	$15                     ; 0x2015 <main+0x286>
    33c6: 68           	pla
    33c7: a2 00        	ldx	#$0
    33c9: 20 76 39     	jsr	$3976 <fileRead>
    33cc: b2 24        	lda	($24)                   ; 0x2024 <main+0x295>
    33ce: 85 13        	sta	$13                     ; 0x2013 <main+0x284>
    33d0: a0 01        	ldy	#$1
    33d2: b1 24        	lda	($24),y                 ; 0x2024 <main+0x295>
    33d4: a6 13        	ldx	$13                     ; 0x2013 <main+0x284>
    33d6: 8e 82 d5     	stx	$d582                   ; 0xd582 <__heap_start+0x4c8e>
    33d9: 8d 81 d5     	sta	$d581                   ; 0xd581 <__heap_start+0x4c8d>
    33dc: 84 5f        	sty	$5f                     ; 0x205f <main+0x2d0>
    33de: a4 27        	ldy	$27                     ; 0x2027 <main+0x298>
    33e0: a6 2f        	ldx	$2f                     ; 0x202f <main+0x2a0>
    33e2: 86 16        	stx	$16                     ; 0x2016 <main+0x287>
    33e4: 4c 84 35     	jmp	$3584 <main+0x17f5>
    33e7: a5 5f        	lda	$5f                     ; 0x205f <main+0x2d0>
    33e9: 29 01        	and	#$1
    33eb: aa           	tax
    33ec: 18           	clc
    33ed: a5 10        	lda	$10                     ; 0x2010 <main+0x281>
    33ef: 69 60        	adc	#$60
    33f1: 85 2a        	sta	$2a                     ; 0x202a <main+0x29b>
    33f3: a5 11        	lda	$11                     ; 0x2011 <main+0x282>
    33f5: 69 00        	adc	#$0
    33f7: 85 2b        	sta	$2b                     ; 0x202b <main+0x29c>
    33f9: a9 00        	lda	#$0
    33fb: 92 2a        	sta	($2a)                   ; 0x202a <main+0x29b>
    33fd: 18           	clc
    33fe: 48           	pha
    33ff: a5 10        	lda	$10                     ; 0x2010 <main+0x281>
    3401: 69 5f        	adc	#$5f
    3403: 85 2c        	sta	$2c                     ; 0x202c <main+0x29d>
    3405: a5 11        	lda	$11                     ; 0x2011 <main+0x282>
    3407: 69 00        	adc	#$0
    3409: 85 2d        	sta	$2d                     ; 0x202d <main+0x29e>
    340b: 68           	pla
    340c: 92 2c        	sta	($2c)                   ; 0x202c <main+0x29d>
    340e: ad 60 d6     	lda	$d660                   ; 0xd660 <__heap_start+0x4d6c>
    3411: 29 10        	and	#$10
    3413: 5a           	phy
    3414: a4 16        	ldy	$16                     ; 0x2016 <main+0x287>
    3416: 84 2f        	sty	$2f                     ; 0x202f <main+0x2a0>
    3418: 7a           	ply
    3419: 84 27        	sty	$27                     ; 0x2027 <main+0x298>
    341b: c9 00        	cmp	#$0
    341d: d0 06        	bne	$3425 <main+0x1696>
    341f: 8a           	txa
    3420: d0 0b        	bne	$342d <main+0x169e>
    3422: 4c 84 35     	jmp	$3584 <main+0x17f5>
    3425: 8a           	txa
    3426: d0 05        	bne	$342d <main+0x169e>
    3428: a2 10        	ldx	#$10
    342a: 8e 60 d6     	stx	$d660                   ; 0xd660 <__heap_start+0x4d6c>
    342d: a6 47        	ldx	$47                     ; 0x2047 <main+0x2b8>
    342f: 86 16        	stx	$16                     ; 0x2016 <main+0x287>
    3431: a4 48        	ldy	$48                     ; 0x2048 <main+0x2b9>
    3433: a5 49        	lda	$49                     ; 0x2049 <main+0x2ba>
    3435: a6 4a        	ldx	$4a                     ; 0x204a <main+0x2bb>
    3437: d0 0e        	bne	$3447 <main+0x16b8>
    3439: c9 00        	cmp	#$0
    343b: d0 0a        	bne	$3447 <main+0x16b8>
    343d: c0 00        	cpy	#$0
    343f: d0 06        	bne	$3447 <main+0x16b8>
    3441: e6 16        	inc	$16                     ; 0x2016 <main+0x287>
    3443: c6 16        	dec	$16                     ; 0x2016 <main+0x287>
    3445: f0 0b        	beq	$3452 <main+0x16c3>
    3447: 85 14        	sta	$14                     ; 0x2014 <main+0x285>
    3449: a5 5f        	lda	$5f                     ; 0x205f <main+0x2d0>
    344b: 29 01        	and	#$1
    344d: d0 03        	bne	$3452 <main+0x16c3>
    344f: 4c f2 34     	jmp	$34f2 <main+0x1763>
    3452: 64 5f        	stz	$5f                     ; 0x205f <main+0x2d0>
    3454: a0 12        	ldy	#$12
    3456: b1 10        	lda	($10),y                 ; 0x2010 <main+0x281>
    3458: 85 12        	sta	$12                     ; 0x2012 <main+0x283>
    345a: c8           	iny
    345b: b1 10        	lda	($10),y                 ; 0x2010 <main+0x281>
    345d: 85 13        	sta	$13                     ; 0x2013 <main+0x284>
    345f: c8           	iny
    3460: b1 10        	lda	($10),y                 ; 0x2010 <main+0x281>
    3462: 85 14        	sta	$14                     ; 0x2014 <main+0x285>
    3464: c8           	iny
    3465: b1 10        	lda	($10),y                 ; 0x2010 <main+0x281>
    3467: 85 15        	sta	$15                     ; 0x2015 <main+0x286>
    3469: a2 00        	ldx	#$0
    346b: a9 01        	lda	#$1
    346d: 20 76 39     	jsr	$3976 <fileRead>
    3470: a6 2f        	ldx	$2f                     ; 0x202f <main+0x2a0>
    3472: 86 16        	stx	$16                     ; 0x2016 <main+0x287>
    3474: a4 27        	ldy	$27                     ; 0x2027 <main+0x298>
    3476: c9 01        	cmp	#$1
    3478: f0 03        	beq	$347d <main+0x16ee>
    347a: 4c 84 35     	jmp	$3584 <main+0x17f5>
    347d: a9 60        	lda	#$60
    347f: 18           	clc
    3480: 48           	pha
    3481: 5a           	phy
    3482: a0 12        	ldy	#$12
    3484: b1 10        	lda	($10),y                 ; 0x2010 <main+0x281>
    3486: 85 12        	sta	$12                     ; 0x2012 <main+0x283>
    3488: c8           	iny
    3489: b1 10        	lda	($10),y                 ; 0x2010 <main+0x281>
    348b: 7a           	ply
    348c: 85 13        	sta	$13                     ; 0x2013 <main+0x284>
    348e: 68           	pla
    348f: 72 12        	adc	($12)                   ; 0x2012 <main+0x283>
    3491: c9 c7        	cmp	#$c7
    3493: b0 56        	bcs	$34eb <main+0x175c>
    3495: aa           	tax
    3496: bc 50 52     	ldy	$5250,x                 ; 0x5250 <__set_v+0x15b>
    3499: bd 17 53     	lda	$5317,x                 ; 0x5317 <__set_v+0x222>
    349c: aa           	tax
    349d: 84 12        	sty	$12                     ; 0x2012 <main+0x283>
    349f: a4 27        	ldy	$27                     ; 0x2027 <main+0x298>
    34a1: a5 2f        	lda	$2f                     ; 0x202f <main+0x2a0>
    34a3: 85 16        	sta	$16                     ; 0x2016 <main+0x287>
    34a5: a9 02        	lda	#$2
    34a7: 86 13        	stx	$13                     ; 0x2013 <main+0x284>
    34a9: 6c 12 00     	jmp	($12)                   ; 0x12 <__rc2>
    34ac: a6 24        	ldx	$24                     ; 0x2024 <main+0x295>
    34ae: 86 12        	stx	$12                     ; 0x2012 <main+0x283>
    34b0: a6 25        	ldx	$25                     ; 0x2025 <main+0x296>
    34b2: 86 13        	stx	$13                     ; 0x2013 <main+0x284>
    34b4: a0 14        	ldy	#$14
    34b6: b1 10        	lda	($10),y                 ; 0x2010 <main+0x281>
    34b8: 85 28        	sta	$28                     ; 0x2028 <main+0x299>
    34ba: c8           	iny
    34bb: b1 10        	lda	($10),y                 ; 0x2010 <main+0x281>
    34bd: 85 29        	sta	$29                     ; 0x2029 <main+0x29a>
    34bf: a6 28        	ldx	$28                     ; 0x2028 <main+0x299>
    34c1: 86 14        	stx	$14                     ; 0x2014 <main+0x285>
    34c3: a6 29        	ldx	$29                     ; 0x2029 <main+0x29a>
    34c5: 86 15        	stx	$15                     ; 0x2015 <main+0x286>
    34c7: a2 00        	ldx	#$0
    34c9: a9 01        	lda	#$1
    34cb: 20 76 39     	jsr	$3976 <fileRead>
    34ce: a6 24        	ldx	$24                     ; 0x2024 <main+0x295>
    34d0: 86 12        	stx	$12                     ; 0x2012 <main+0x283>
    34d2: a6 25        	ldx	$25                     ; 0x2025 <main+0x296>
    34d4: 86 13        	stx	$13                     ; 0x2013 <main+0x284>
    34d6: a6 28        	ldx	$28                     ; 0x2028 <main+0x299>
    34d8: 86 14        	stx	$14                     ; 0x2014 <main+0x285>
    34da: a6 29        	ldx	$29                     ; 0x2029 <main+0x29a>
    34dc: 86 15        	stx	$15                     ; 0x2015 <main+0x286>
    34de: a2 00        	ldx	#$0
    34e0: a9 01        	lda	#$1
    34e2: 20 76 39     	jsr	$3976 <fileRead>
    34e5: a4 27        	ldy	$27                     ; 0x2027 <main+0x298>
    34e7: a6 2f        	ldx	$2f                     ; 0x202f <main+0x2a0>
    34e9: 86 16        	stx	$16                     ; 0x2016 <main+0x287>
    34eb: a2 01        	ldx	#$1
    34ed: 86 5f        	stx	$5f                     ; 0x205f <main+0x2d0>
    34ef: 4c 84 35     	jmp	$3584 <main+0x17f5>
    34f2: 84 13        	sty	$13                     ; 0x2013 <main+0x284>
    34f4: a9 02        	lda	#$2
    34f6: 8d 50 d6     	sta	$d650                   ; 0xd650 <__heap_start+0x4d5c>
    34f9: e0 01        	cpx	#$1
    34fb: d0 10        	bne	$350d <main+0x177e>
    34fd: a4 14        	ldy	$14                     ; 0x2014 <main+0x285>
    34ff: d0 36        	bne	$3537 <main+0x17a8>
    3501: a5 13        	lda	$13                     ; 0x2013 <main+0x284>
    3503: f0 03        	beq	$3508 <main+0x1779>
    3505: 4c 3f 32     	jmp	$323f <main+0x14b0>
    3508: a6 16        	ldx	$16                     ; 0x2016 <main+0x287>
    350a: 4c 41 32     	jmp	$3241 <main+0x14b2>
    350d: e0 01        	cpx	#$1
    350f: a4 14        	ldy	$14                     ; 0x2014 <main+0x285>
    3511: b0 28        	bcs	$353b <main+0x17ac>
    3513: a6 16        	ldx	$16                     ; 0x2016 <main+0x287>
    3515: 8e 55 d6     	stx	$d655                   ; 0xd655 <__heap_start+0x4d61>
    3518: a6 13        	ldx	$13                     ; 0x2013 <main+0x284>
    351a: 8e 56 d6     	stx	$d656                   ; 0xd656 <__heap_start+0x4d62>
    351d: 8c 57 d6     	sty	$d657                   ; 0xd657 <__heap_start+0x4d63>
    3520: 9c 54 d6     	stz	$d654                   ; 0xd654 <__heap_start+0x4d60>
    3523: a2 02        	ldx	#$2
    3525: 8e 50 d6     	stx	$d650                   ; 0xd650 <__heap_start+0x4d5c>
    3528: a2 89        	ldx	#$89
    352a: 8e 50 d6     	stx	$d650                   ; 0xd650 <__heap_start+0x4d5c>
    352d: 64 47        	stz	$47                     ; 0x2047 <main+0x2b8>
    352f: 64 48        	stz	$48                     ; 0x2048 <main+0x2b9>
    3531: 64 49        	stz	$49                     ; 0x2049 <main+0x2ba>
    3533: 64 4a        	stz	$4a                     ; 0x204a <main+0x2bb>
    3535: 80 47        	bra	$357e <main+0x17ef>
    3537: c0 00        	cpy	#$0
    3539: 90 d8        	bcc	$3513 <main+0x1784>
    353b: a2 ff        	ldx	#$ff
    353d: 8e 55 d6     	stx	$d655                   ; 0xd655 <__heap_start+0x4d61>
    3540: 8e 56 d6     	stx	$d656                   ; 0xd656 <__heap_start+0x4d62>
    3543: 8e 57 d6     	stx	$d657                   ; 0xd657 <__heap_start+0x4d63>
    3546: 9c 54 d6     	stz	$d654                   ; 0xd654 <__heap_start+0x4d60>
    3549: a2 02        	ldx	#$2
    354b: 8e 50 d6     	stx	$d650                   ; 0xd650 <__heap_start+0x4d5c>
    354e: a2 89        	ldx	#$89
    3550: 8e 50 d6     	stx	$d650                   ; 0xd650 <__heap_start+0x4d5c>
    3553: a5 47        	lda	$47                     ; 0x2047 <main+0x2b8>
    3555: a6 48        	ldx	$48                     ; 0x2048 <main+0x2b9>
    3557: 86 12        	stx	$12                     ; 0x2012 <main+0x283>
    3559: a4 49        	ldy	$49                     ; 0x2049 <main+0x2ba>
    355b: a6 4a        	ldx	$4a                     ; 0x204a <main+0x2bb>
    355d: 86 13        	stx	$13                     ; 0x2013 <main+0x284>
    355f: 18           	clc
    3560: 69 01        	adc	#$1
    3562: aa           	tax
    3563: a5 12        	lda	$12                     ; 0x2012 <main+0x283>
    3565: 69 00        	adc	#$0
    3567: 85 12        	sta	$12                     ; 0x2012 <main+0x283>
    3569: 98           	tya
    356a: 69 00        	adc	#$0
    356c: 85 14        	sta	$14                     ; 0x2014 <main+0x285>
    356e: a5 13        	lda	$13                     ; 0x2013 <main+0x284>
    3570: 69 ff        	adc	#$ff
    3572: 86 47        	stx	$47                     ; 0x2047 <main+0x2b8>
    3574: a6 12        	ldx	$12                     ; 0x2012 <main+0x283>
    3576: 86 48        	stx	$48                     ; 0x2048 <main+0x2b9>
    3578: a6 14        	ldx	$14                     ; 0x2014 <main+0x285>
    357a: 86 49        	stx	$49                     ; 0x2049 <main+0x2ba>
    357c: 85 4a        	sta	$4a                     ; 0x204a <main+0x2bb>
    357e: a6 2f        	ldx	$2f                     ; 0x202f <main+0x2a0>
    3580: 86 16        	stx	$16                     ; 0x2016 <main+0x287>
    3582: a4 27        	ldy	$27                     ; 0x2027 <main+0x298>
    3584: 64 4b        	stz	$4b                     ; 0x204b <main+0x2bc>
    3586: a2 52        	ldx	#$52
    3588: 86 12        	stx	$12                     ; 0x2012 <main+0x283>
    358a: a2 00        	ldx	#$0
    358c: 86 13        	stx	$13                     ; 0x2013 <main+0x284>
    358e: 20 00 ff     	jsr	$ff00 <__heap_start+0x760c>
    3591: 92 24        	sta	($24)                   ; 0x2024 <main+0x295>
    3593: a9 00        	lda	#$0
    3595: 6a           	ror
    3596: 85 12        	sta	$12                     ; 0x2012 <main+0x283>
    3598: a6 4b        	ldx	$4b                     ; 0x204b <main+0x2bc>
    359a: e0 08        	cpx	#$8
    359c: f0 03        	beq	$35a1 <main+0x1812>
    359e: 4c e7 33     	jmp	$33e7 <main+0x1658>
    35a1: a6 4f        	ldx	$4f                     ; 0x204f <main+0x2c0>
    35a3: e0 20        	cpx	#$20
    35a5: d0 03        	bne	$35aa <main+0x181b>
    35a7: 4c 1c 2c     	jmp	$2c1c <main+0xe8d>
    35aa: e0 83        	cpx	#$83
    35ac: f0 10        	beq	$35be <main+0x182f>
    35ae: a4 2f        	ldy	$2f                     ; 0x202f <main+0x2a0>
    35b0: 84 16        	sty	$16                     ; 0x2016 <main+0x287>
    35b2: a4 27        	ldy	$27                     ; 0x2027 <main+0x298>
    35b4: e0 92        	cpx	#$92
    35b6: f0 03        	beq	$35bb <main+0x182c>
    35b8: 4c e7 33     	jmp	$33e7 <main+0x1658>
    35bb: 4c b8 36     	jmp	$36b8 <main+0x1929>
    35be: 64 53        	stz	$53                     ; 0x2053 <main+0x2c4>
    35c0: 9c 14 d0     	stz	$d014                   ; 0xd014 <__heap_start+0x4720>
    35c3: 9c 15 d0     	stz	$d015                   ; 0xd015 <__heap_start+0x4721>
    35c6: 64 54        	stz	$54                     ; 0x2054 <main+0x2c5>
    35c8: 9c 16 d0     	stz	$d016                   ; 0xd016 <__heap_start+0x4722>
    35cb: 9c 17 d0     	stz	$d017                   ; 0xd017 <__heap_start+0x4723>
    35ce: a2 5c        	ldx	#$5c
    35d0: 86 12        	stx	$12                     ; 0x2012 <main+0x283>
    35d2: a2 54        	ldx	#$54
    35d4: 86 13        	stx	$13                     ; 0x2013 <main+0x284>
    35d6: a5 12        	lda	$12                     ; 0x2012 <main+0x283>
    35d8: a0 17        	ldy	#$17
    35da: 91 10        	sta	($10),y                 ; 0x2010 <main+0x281>
    35dc: a5 13        	lda	$13                     ; 0x2013 <main+0x284>
    35de: c8           	iny
    35df: 91 10        	sta	($10),y                 ; 0x2010 <main+0x281>
    35e1: 88           	dey
    35e2: b1 10        	lda	($10),y                 ; 0x2010 <main+0x281>
    35e4: 85 12        	sta	$12                     ; 0x2012 <main+0x283>
    35e6: c8           	iny
    35e7: b1 10        	lda	($10),y                 ; 0x2010 <main+0x281>
    35e9: 85 13        	sta	$13                     ; 0x2013 <main+0x284>
    35eb: 20 b6 48     	jsr	$48b6 <printf>
    35ee: 64 53        	stz	$53                     ; 0x2053 <main+0x2c4>
    35f0: 9c 14 d0     	stz	$d014                   ; 0xd014 <__heap_start+0x4720>
    35f3: 9c 15 d0     	stz	$d015                   ; 0xd015 <__heap_start+0x4721>
    35f6: a2 01        	ldx	#$1
    35f8: 86 54        	stx	$54                     ; 0x2054 <main+0x2c5>
    35fa: 8e 16 d0     	stx	$d016                   ; 0xd016 <__heap_start+0x4722>
    35fd: 9c 17 d0     	stz	$d017                   ; 0xd017 <__heap_start+0x4723>
    3600: a0 17        	ldy	#$17
    3602: b1 10        	lda	($10),y                 ; 0x2010 <main+0x281>
    3604: 85 12        	sta	$12                     ; 0x2012 <main+0x283>
    3606: c8           	iny
    3607: b1 10        	lda	($10),y                 ; 0x2010 <main+0x281>
    3609: 85 13        	sta	$13                     ; 0x2013 <main+0x284>
    360b: 20 b6 48     	jsr	$48b6 <printf>
    360e: a0 14        	ldy	#$14
    3610: b1 10        	lda	($10),y                 ; 0x2010 <main+0x281>
    3612: 85 14        	sta	$14                     ; 0x2014 <main+0x285>
    3614: c8           	iny
    3615: b1 10        	lda	($10),y                 ; 0x2010 <main+0x281>
    3617: 85 15        	sta	$15                     ; 0x2015 <main+0x286>
    3619: b2 14        	lda	($14)                   ; 0x2014 <main+0x285>
    361b: 85 f3        	sta	$f3                     ; 0x20f3 <main+0x364>
    361d: a2 52        	ldx	#$52
    361f: 86 12        	stx	$12                     ; 0x2012 <main+0x283>
    3621: a2 00        	ldx	#$0
    3623: 86 13        	stx	$13                     ; 0x2013 <main+0x284>
    3625: 20 68 ff     	jsr	$ff68 <__heap_start+0x7674>
    3628: 92 24        	sta	($24)                   ; 0x2024 <main+0x295>
    362a: a9 00        	lda	#$0
    362c: 6a           	ror
    362d: 85 12        	sta	$12                     ; 0x2012 <main+0x283>
    362f: a6 14        	ldx	$14                     ; 0x2014 <main+0x285>
    3631: 86 12        	stx	$12                     ; 0x2012 <main+0x283>
    3633: a6 15        	ldx	$15                     ; 0x2015 <main+0x286>
    3635: 86 13        	stx	$13                     ; 0x2013 <main+0x284>
    3637: 20 cc 4d     	jsr	$4dcc <free>
    363a: 64 4b        	stz	$4b                     ; 0x204b <main+0x2bc>
    363c: a2 52        	ldx	#$52
    363e: 86 12        	stx	$12                     ; 0x2012 <main+0x283>
    3640: a2 00        	ldx	#$0
    3642: 86 13        	stx	$13                     ; 0x2013 <main+0x284>
    3644: 20 00 ff     	jsr	$ff00 <__heap_start+0x760c>
    3647: 92 24        	sta	($24)                   ; 0x2024 <main+0x295>
    3649: a9 00        	lda	#$0
    364b: 6a           	ror
    364c: 85 12        	sta	$12                     ; 0x2012 <main+0x283>
    364e: a6 4b        	ldx	$4b                     ; 0x204b <main+0x2bc>
    3650: e0 32        	cpx	#$32
    3652: f0 04        	beq	$3658 <main+0x18c9>
    3654: e0 38        	cpx	#$38
    3656: d0 e2        	bne	$363a <main+0x18ab>
    3658: a2 1c        	ldx	#$1c
    365a: 86 28        	stx	$28                     ; 0x2028 <main+0x299>
    365c: a2 55        	ldx	#$55
    365e: 86 29        	stx	$29                     ; 0x2029 <main+0x29a>
    3660: a2 2e        	ldx	#$2e
    3662: 86 2a        	stx	$2a                     ; 0x202a <main+0x29b>
    3664: a2 54        	ldx	#$54
    3666: 86 2b        	stx	$2b                     ; 0x202b <main+0x29c>
    3668: a2 00        	ldx	#$0
    366a: 86 2c        	stx	$2c                     ; 0x202c <main+0x29d>
    366c: a2 00        	ldx	#$0
    366e: 86 2d        	stx	$2d                     ; 0x202d <main+0x29e>
    3670: 4c 0c 25     	jmp	$250c <main+0x77d>
    3673: b2 24        	lda	($24)                   ; 0x2024 <main+0x295>
    3675: 85 28        	sta	$28                     ; 0x2028 <main+0x299>
    3677: 64 4b        	stz	$4b                     ; 0x204b <main+0x2bc>
    3679: a2 52        	ldx	#$52
    367b: 86 12        	stx	$12                     ; 0x2012 <main+0x283>
    367d: a2 00        	ldx	#$0
    367f: 86 13        	stx	$13                     ; 0x2013 <main+0x284>
    3681: 20 00 ff     	jsr	$ff00 <__heap_start+0x760c>
    3684: 92 24        	sta	($24)                   ; 0x2024 <main+0x295>
    3686: a9 00        	lda	#$0
    3688: 6a           	ror
    3689: 85 12        	sta	$12                     ; 0x2012 <main+0x283>
    368b: a6 4b        	ldx	$4b                     ; 0x204b <main+0x2bc>
    368d: e0 28        	cpx	#$28
    368f: d0 03        	bne	$3694 <main+0x1905>
    3691: 4c 83 29     	jmp	$2983 <main+0xbf4>
    3694: e0 38        	cpx	#$38
    3696: d0 03        	bne	$369b <main+0x190c>
    3698: 4c 83 29     	jmp	$2983 <main+0xbf4>
    369b: e0 2a        	cpx	#$2a
    369d: d0 d8        	bne	$3677 <main+0x18e8>
    369f: a2 00        	ldx	#$0
    36a1: a9 01        	lda	#$1
    36a3: 20 f7 4b     	jsr	$4bf7 <malloc>
    36a6: a5 12        	lda	$12                     ; 0x2012 <main+0x283>
    36a8: a0 14        	ldy	#$14
    36aa: 91 10        	sta	($10),y                 ; 0x2010 <main+0x281>
    36ac: a5 13        	lda	$13                     ; 0x2013 <main+0x284>
    36ae: c8           	iny
    36af: 91 10        	sta	($10),y                 ; 0x2010 <main+0x281>
    36b1: a5 28        	lda	$28                     ; 0x2028 <main+0x299>
    36b3: 92 12        	sta	($12)                   ; 0x2012 <main+0x283>
    36b5: 4c 83 29     	jmp	$2983 <main+0xbf4>
    36b8: a2 b0        	ldx	#$b0
    36ba: 8e 80 d5     	stx	$d580                   ; 0xd580 <__heap_start+0x4c8c>
    36bd: 9c 81 d5     	stz	$d581                   ; 0xd581 <__heap_start+0x4c8d>
    36c0: e8           	inx
    36c1: 8e 80 d5     	stx	$d580                   ; 0xd580 <__heap_start+0x4c8c>
    36c4: 9c 81 d5     	stz	$d581                   ; 0xd581 <__heap_start+0x4c8d>
    36c7: e8           	inx
    36c8: 8e 80 d5     	stx	$d580                   ; 0xd580 <__heap_start+0x4c8c>
    36cb: 9c 81 d5     	stz	$d581                   ; 0xd581 <__heap_start+0x4c8d>
    36ce: e8           	inx
    36cf: 8e 80 d5     	stx	$d580                   ; 0xd580 <__heap_start+0x4c8c>
    36d2: 9c 81 d5     	stz	$d581                   ; 0xd581 <__heap_start+0x4c8d>
    36d5: e8           	inx
    36d6: 8e 80 d5     	stx	$d580                   ; 0xd580 <__heap_start+0x4c8c>
    36d9: 9c 81 d5     	stz	$d581                   ; 0xd581 <__heap_start+0x4c8d>
    36dc: e8           	inx
    36dd: 8e 80 d5     	stx	$d580                   ; 0xd580 <__heap_start+0x4c8c>
    36e0: 9c 81 d5     	stz	$d581                   ; 0xd581 <__heap_start+0x4c8d>
    36e3: e8           	inx
    36e4: 8e 80 d5     	stx	$d580                   ; 0xd580 <__heap_start+0x4c8c>
    36e7: 9c 81 d5     	stz	$d581                   ; 0xd581 <__heap_start+0x4c8d>
    36ea: a0 b7        	ldy	#$b7
    36ec: 8c 80 d5     	sty	$d580                   ; 0xd580 <__heap_start+0x4c8c>
    36ef: 9c 81 d5     	stz	$d581                   ; 0xd581 <__heap_start+0x4c8d>
    36f2: a2 b8        	ldx	#$b8
    36f4: 8e 80 d5     	stx	$d580                   ; 0xd580 <__heap_start+0x4c8c>
    36f7: 9c 81 d5     	stz	$d581                   ; 0xd581 <__heap_start+0x4c8d>
    36fa: a9 b0        	lda	#$b0
    36fc: 8d 82 d5     	sta	$d582                   ; 0xd582 <__heap_start+0x4c8e>
    36ff: 9c 81 d5     	stz	$d581                   ; 0xd581 <__heap_start+0x4c8d>
    3702: 1a           	inc
    3703: 8d 82 d5     	sta	$d582                   ; 0xd582 <__heap_start+0x4c8e>
    3706: 9c 81 d5     	stz	$d581                   ; 0xd581 <__heap_start+0x4c8d>
    3709: 1a           	inc
    370a: 8d 82 d5     	sta	$d582                   ; 0xd582 <__heap_start+0x4c8e>
    370d: 9c 81 d5     	stz	$d581                   ; 0xd581 <__heap_start+0x4c8d>
    3710: 1a           	inc
    3711: 8d 82 d5     	sta	$d582                   ; 0xd582 <__heap_start+0x4c8e>
    3714: 9c 81 d5     	stz	$d581                   ; 0xd581 <__heap_start+0x4c8d>
    3717: 1a           	inc
    3718: 8d 82 d5     	sta	$d582                   ; 0xd582 <__heap_start+0x4c8e>
    371b: 9c 81 d5     	stz	$d581                   ; 0xd581 <__heap_start+0x4c8d>
    371e: 1a           	inc
    371f: 8d 82 d5     	sta	$d582                   ; 0xd582 <__heap_start+0x4c8e>
    3722: 9c 81 d5     	stz	$d581                   ; 0xd581 <__heap_start+0x4c8d>
    3725: 1a           	inc
    3726: 8d 82 d5     	sta	$d582                   ; 0xd582 <__heap_start+0x4c8e>
    3729: 9c 81 d5     	stz	$d581                   ; 0xd581 <__heap_start+0x4c8d>
    372c: 8c 82 d5     	sty	$d582                   ; 0xd582 <__heap_start+0x4c8e>
    372f: 9c 81 d5     	stz	$d581                   ; 0xd581 <__heap_start+0x4c8d>
    3732: 8e 82 d5     	stx	$d582                   ; 0xd582 <__heap_start+0x4c8e>
    3735: 9c 81 d5     	stz	$d581                   ; 0xd581 <__heap_start+0x4c8d>
    3738: a0 14        	ldy	#$14
    373a: b1 10        	lda	($10),y                 ; 0x2010 <main+0x281>
    373c: 85 12        	sta	$12                     ; 0x2012 <main+0x283>
    373e: c8           	iny
    373f: b1 10        	lda	($10),y                 ; 0x2010 <main+0x281>
    3741: 85 13        	sta	$13                     ; 0x2013 <main+0x284>
    3743: b2 12        	lda	($12)                   ; 0x2012 <main+0x283>
    3745: 85 f3        	sta	$f3                     ; 0x20f3 <main+0x364>
    3747: a2 52        	ldx	#$52
    3749: 86 26        	stx	$26                     ; 0x2026 <main+0x297>
    374b: a2 00        	ldx	#$0
    374d: 86 27        	stx	$27                     ; 0x2027 <main+0x298>
    374f: 20 68 ff     	jsr	$ff68 <__heap_start+0x7674>
    3752: 92 24        	sta	($24)                   ; 0x2024 <main+0x295>
    3754: a9 00        	lda	#$0
    3756: 6a           	ror
    3757: 85 26        	sta	$26                     ; 0x2026 <main+0x297>
    3759: 20 cc 4d     	jsr	$4dcc <free>
    375c: 64 4b        	stz	$4b                     ; 0x204b <main+0x2bc>
    375e: 20 00 ff     	jsr	$ff00 <__heap_start+0x760c>
    3761: 92 24        	sta	($24)                   ; 0x2024 <main+0x295>
    3763: a9 00        	lda	#$0
    3765: 6a           	ror
    3766: 85 26        	sta	$26                     ; 0x2026 <main+0x297>
    3768: a6 4b        	ldx	$4b                     ; 0x204b <main+0x2bc>
    376a: e0 32        	cpx	#$32
    376c: f0 04        	beq	$3772 <main+0x19e3>
    376e: e0 38        	cpx	#$38
    3770: d0 ea        	bne	$375c <main+0x19cd>
    3772: 20 55 1c     	jsr	$1c55 <opl3_initialize>
    3775: 78           	sei
    3776: a2 07        	ldx	#$7
    3778: 86 0f        	stx	$f                      ; 0x200f <main+0x280>
    377a: a2 de        	ldx	#$de
    377c: 8e a2 d6     	stx	$d6a2                   ; 0xd6a2 <__heap_start+0x4dae>
    377f: a2 ad        	ldx	#$ad
    3781: 8e a3 d6     	stx	$d6a3                   ; 0xd6a3 <__heap_start+0x4daf>
    3784: a2 f0        	ldx	#$f0
    3786: 8e a0 d6     	stx	$d6a0                   ; 0xd6a0 <__heap_start+0x4dac>
    3789: 9c a0 d6     	stz	$d6a0                   ; 0xd6a0 <__heap_start+0x4dac>
    378c: 6c fc ff     	jmp	($fffc)                 ; 0xfffc <__heap_start+0x7708>
    378f: a2 00        	ldx	#$0
    3791: 8a           	txa
    3792: 85 20        	sta	$20                     ; 0x2020 <main+0x291>
    3794: a0 06        	ldy	#$6
    3796: b1 10        	lda	($10),y                 ; 0x2010 <main+0x281>
    3798: 85 2f        	sta	$2f                     ; 0x202f <main+0x2a0>
    379a: c8           	iny
    379b: b1 10        	lda	($10),y                 ; 0x2010 <main+0x281>
    379d: 85 2e        	sta	$2e                     ; 0x202e <main+0x29f>
    379f: c8           	iny
    37a0: b1 10        	lda	($10),y                 ; 0x2010 <main+0x281>
    37a2: 85 2d        	sta	$2d                     ; 0x202d <main+0x29e>
    37a4: c8           	iny
    37a5: b1 10        	lda	($10),y                 ; 0x2010 <main+0x281>
    37a7: 85 2c        	sta	$2c                     ; 0x202c <main+0x29d>
    37a9: c8           	iny
    37aa: b1 10        	lda	($10),y                 ; 0x2010 <main+0x281>
    37ac: 85 2b        	sta	$2b                     ; 0x202b <main+0x29c>
    37ae: c8           	iny
    37af: b1 10        	lda	($10),y                 ; 0x2010 <main+0x281>
    37b1: 85 2a        	sta	$2a                     ; 0x202a <main+0x29b>
    37b3: c8           	iny
    37b4: b1 10        	lda	($10),y                 ; 0x2010 <main+0x281>
    37b6: 85 29        	sta	$29                     ; 0x2029 <main+0x29a>
    37b8: c8           	iny
    37b9: b1 10        	lda	($10),y                 ; 0x2010 <main+0x281>
    37bb: 85 28        	sta	$28                     ; 0x2028 <main+0x299>
    37bd: 7a           	ply
    37be: 84 27        	sty	$27                     ; 0x2027 <main+0x298>
    37c0: 7a           	ply
    37c1: 84 26        	sty	$26                     ; 0x2026 <main+0x297>
    37c3: 7a           	ply
    37c4: 84 25        	sty	$25                     ; 0x2025 <main+0x296>
    37c6: 7a           	ply
    37c7: 84 24        	sty	$24                     ; 0x2024 <main+0x295>
    37c9: 18           	clc
    37ca: a5 10        	lda	$10                     ; 0x2010 <main+0x281>
    37cc: 69 62        	adc	#$62
    37ce: 85 10        	sta	$10                     ; 0x2010 <main+0x281>
    37d0: a5 11        	lda	$11                     ; 0x2011 <main+0x282>
    37d2: 69 00        	adc	#$0
    37d4: 85 11        	sta	$11                     ; 0x2011 <main+0x282>
    37d6: a5 20        	lda	$20                     ; 0x2020 <main+0x291>
    37d8: 60           	rts
    37d9: c9 30        	cmp	#$30
    37db: a0 00        	ldy	#$0
    37dd: a2 ff        	ldx	#$ff
    37df: 86 12        	stx	$12                     ; 0x2012 <main+0x283>
    37e1: a2 87        	ldx	#$87
    37e3: 86 13        	stx	$13                     ; 0x2013 <main+0x284>
    37e5: b0 03        	bcs	$37ea <main+0x1a5b>
    37e7: 4c de 28     	jmp	$28de <main+0xb4f>
    37ea: c9 38        	cmp	#$38
    37ec: a0 00        	ldy	#$0
    37ee: 90 03        	bcc	$37f3 <main+0x1a64>
    37f0: 4c de 28     	jmp	$28de <main+0xb4f>
    37f3: 18           	clc
    37f4: 69 d0        	adc	#$d0
    37f6: a8           	tay
    37f7: 4c de 28     	jmp	$28de <main+0xb4f>
    37fa: a4 28        	ldy	$28                     ; 0x2028 <main+0x299>
    37fc: c0 fa        	cpy	#$fa
    37fe: 90 0a        	bcc	$380a <main+0x1a7b>
    3800: 4c 3b 35     	jmp	$353b <main+0x17ac>
    3803: c0 72        	cpy	#$72
    3805: 90 03        	bcc	$380a <main+0x1a7b>
    3807: 4c 3b 35     	jmp	$353b <main+0x17ac>
    380a: a6 15        	ldx	$15                     ; 0x2015 <main+0x286>
    380c: 8e 55 d6     	stx	$d655                   ; 0xd655 <__heap_start+0x4d61>
    380f: a6 14        	ldx	$14                     ; 0x2014 <main+0x285>
    3811: 8e 56 d6     	stx	$d656                   ; 0xd656 <__heap_start+0x4d62>
    3814: 8d 57 d6     	sta	$d657                   ; 0xd657 <__heap_start+0x4d63>
    3817: 4c 20 35     	jmp	$3520 <main+0x1791>
    381a: a2 0c        	ldx	#$c
    381c: 4c ac 2a     	jmp	$2aac <main+0xd1d>
    381f: a2 0e        	ldx	#$e
    3821: 4c ac 2a     	jmp	$2aac <main+0xd1d>
    3824: a2 1c        	ldx	#$1c
    3826: 4c ac 2a     	jmp	$2aac <main+0xd1d>
    3829: a0 02        	ldy	#$2
    382b: b1 24        	lda	($24),y                 ; 0x2024 <main+0x295>
    382d: f0 03        	beq	$3832 <main+0x1aa3>
    382f: 4c 2b 2a     	jmp	$2a2b <main+0xc9c>
    3832: a0 03        	ldy	#$3
    3834: b1 24        	lda	($24),y                 ; 0x2024 <main+0x295>
    3836: f0 03        	beq	$383b <main+0x1aac>
    3838: 4c 2b 2a     	jmp	$2a2b <main+0xc9c>
    383b: 4c 33 2a     	jmp	$2a33 <main+0xca4>
    383e: a0 0e        	ldy	#$e
    3840: b1 24        	lda	($24),y                 ; 0x2024 <main+0x295>
    3842: f0 03        	beq	$3847 <main+0x1ab8>
    3844: 4c 42 2a     	jmp	$2a42 <main+0xcb3>
    3847: a0 0f        	ldy	#$f
    3849: b1 24        	lda	($24),y                 ; 0x2024 <main+0x295>
    384b: f0 03        	beq	$3850 <main+0x1ac1>
    384d: 4c 42 2a     	jmp	$2a42 <main+0xcb3>
    3850: 4c 55 2a     	jmp	$2a55 <main+0xcc6>

00003853 <textGotoXY>:
    3853: 85 53        	sta	$53                     ; 0x2053 <main+0x2c4>
    3855: 8d 14 d0     	sta	$d014                   ; 0xd014 <__heap_start+0x4720>
    3858: 9c 15 d0     	stz	$d015                   ; 0xd015 <__heap_start+0x4721>
    385b: 86 54        	stx	$54                     ; 0x2054 <main+0x2c5>
    385d: 8e 16 d0     	stx	$d016                   ; 0xd016 <__heap_start+0x4722>
    3860: 9c 17 d0     	stz	$d017                   ; 0xd017 <__heap_start+0x4723>
    3863: 60           	rts

00003864 <fileOpenDir>:
    3864: ad eb 56     	lda	$56eb                   ; 0x56eb <fpr+0x2>
    3867: a0 00        	ldy	#$0
    3869: a2 eb        	ldx	#$eb
    386b: 86 12        	stx	$12                     ; 0x2012 <main+0x283>
    386d: a2 56        	ldx	#$56
    386f: 86 13        	stx	$13                     ; 0x2013 <main+0x284>
    3871: aa           	tax
    3872: d0 03        	bne	$3877 <fileOpenDir+0x13>
    3874: 4c d2 38     	jmp	$38d2 <fileOpenDir+0x6e>
    3877: 85 16        	sta	$16                     ; 0x2016 <main+0x287>
    3879: a2 ed        	ldx	#$ed
    387b: 86 12        	stx	$12                     ; 0x2012 <main+0x283>
    387d: a2 56        	ldx	#$56
    387f: 86 13        	stx	$13                     ; 0x2013 <main+0x284>
    3881: 64 14        	stz	$14                     ; 0x2014 <main+0x285>
    3883: 64 15        	stz	$15                     ; 0x2015 <main+0x286>
    3885: a4 14        	ldy	$14                     ; 0x2014 <main+0x285>
    3887: a6 15        	ldx	$15                     ; 0x2015 <main+0x286>
    3889: c8           	iny
    388a: d0 01        	bne	$388d <fileOpenDir+0x29>
    388c: e8           	inx
    388d: a9 ec        	lda	#$ec
    388f: 18           	clc
    3890: 65 14        	adc	$14                     ; 0x2014 <main+0x285>
    3892: 85 14        	sta	$14                     ; 0x2014 <main+0x285>
    3894: a9 56        	lda	#$56
    3896: 65 15        	adc	$15                     ; 0x2015 <main+0x286>
    3898: 85 15        	sta	$15                     ; 0x2015 <main+0x286>
    389a: b2 14        	lda	($14)                   ; 0x2014 <main+0x285>
    389c: 84 14        	sty	$14                     ; 0x2014 <main+0x285>
    389e: 86 15        	stx	$15                     ; 0x2015 <main+0x286>
    38a0: d0 e3        	bne	$3885 <fileOpenDir+0x21>
    38a2: 8a           	txa
    38a3: d0 08        	bne	$38ad <fileOpenDir+0x49>
    38a5: c0 02        	cpy	#$2
    38a7: a0 00        	ldy	#$0
    38a9: b0 08        	bcs	$38b3 <fileOpenDir+0x4f>
    38ab: 80 1d        	bra	$38ca <fileOpenDir+0x66>
    38ad: e0 00        	cpx	#$0
    38af: a0 00        	ldy	#$0
    38b1: 90 17        	bcc	$38ca <fileOpenDir+0x66>
    38b3: ae ec 56     	ldx	$56ec                   ; 0x56ec <fpr+0x3>
    38b6: e0 3a        	cpx	#$3a
    38b8: d0 10        	bne	$38ca <fileOpenDir+0x66>
    38ba: a5 16        	lda	$16                     ; 0x2016 <main+0x287>
    38bc: c9 30        	cmp	#$30
    38be: 90 12        	bcc	$38d2 <fileOpenDir+0x6e>
    38c0: c9 38        	cmp	#$38
    38c2: b0 0e        	bcs	$38d2 <fileOpenDir+0x6e>
    38c4: 18           	clc
    38c5: 69 d0        	adc	#$d0
    38c7: a8           	tay
    38c8: 80 08        	bra	$38d2 <fileOpenDir+0x6e>
    38ca: a2 eb        	ldx	#$eb
    38cc: 86 12        	stx	$12                     ; 0x2012 <main+0x283>
    38ce: a2 56        	ldx	#$56
    38d0: 86 13        	stx	$13                     ; 0x2013 <main+0x284>
    38d2: b6 55        	ldx	$55,y                   ; 0x2055 <main+0x2c6>
    38d4: f0 03        	beq	$38d9 <fileOpenDir+0x75>
    38d6: 4c 36 39     	jmp	$3936 <fileOpenDir+0xd2>
    38d9: 84 18        	sty	$18                     ; 0x2018 <main+0x289>
    38db: 84 f3        	sty	$f3                     ; 0x20f3 <main+0x364>
    38dd: a6 12        	ldx	$12                     ; 0x2012 <main+0x283>
    38df: a4 13        	ldy	$13                     ; 0x2013 <main+0x284>
    38e1: 86 fb        	stx	$fb                     ; 0x20fb <main+0x36c>
    38e3: 84 fc        	sty	$fc                     ; 0x20fc <main+0x36d>
    38e5: b2 12        	lda	($12)                   ; 0x2012 <main+0x283>
    38e7: f0 2b        	beq	$3914 <fileOpenDir+0xb0>
    38e9: 64 15        	stz	$15                     ; 0x2015 <main+0x286>
    38eb: a0 01        	ldy	#$1
    38ed: a9 00        	lda	#$0
    38ef: 64 14        	stz	$14                     ; 0x2014 <main+0x285>
    38f1: a6 15        	ldx	$15                     ; 0x2015 <main+0x286>
    38f3: e6 15        	inc	$15                     ; 0x2015 <main+0x286>
    38f5: d0 02        	bne	$38f9 <fileOpenDir+0x95>
    38f7: e6 14        	inc	$14                     ; 0x2014 <main+0x285>
    38f9: 18           	clc
    38fa: 85 17        	sta	$17                     ; 0x2017 <main+0x288>
    38fc: 8a           	txa
    38fd: 65 12        	adc	$12                     ; 0x2012 <main+0x283>
    38ff: 85 16        	sta	$16                     ; 0x2016 <main+0x287>
    3901: a5 17        	lda	$17                     ; 0x2017 <main+0x288>
    3903: 65 13        	adc	$13                     ; 0x2013 <main+0x284>
    3905: 85 17        	sta	$17                     ; 0x2017 <main+0x288>
    3907: b1 16        	lda	($16),y                 ; 0x2016 <main+0x287>
    3909: aa           	tax
    390a: a5 14        	lda	$14                     ; 0x2014 <main+0x285>
    390c: e0 00        	cpx	#$0
    390e: d0 e1        	bne	$38f1 <fileOpenDir+0x8d>
    3910: a6 15        	ldx	$15                     ; 0x2015 <main+0x286>
    3912: 80 02        	bra	$3916 <fileOpenDir+0xb2>
    3914: a2 00        	ldx	#$0
    3916: 86 fd        	stx	$fd                     ; 0x20fd <main+0x36e>
    3918: a2 6f        	ldx	#$6f
    391a: a0 00        	ldy	#$0
    391c: 86 12        	stx	$12                     ; 0x2012 <main+0x283>
    391e: 84 13        	sty	$13                     ; 0x2013 <main+0x284>
    3920: a2 52        	ldx	#$52
    3922: 86 14        	stx	$14                     ; 0x2014 <main+0x285>
    3924: a2 00        	ldx	#$0
    3926: 86 15        	stx	$15                     ; 0x2015 <main+0x286>
    3928: 20 78 ff     	jsr	$ff78 <__heap_start+0x7684>
    392b: 92 12        	sta	($12)                   ; 0x2012 <main+0x283>
    392d: a9 00        	lda	#$0
    392f: 6a           	ror
    3930: 85 14        	sta	$14                     ; 0x2014 <main+0x285>
    3932: a6 52        	ldx	$52                     ; 0x2052 <main+0x2c3>
    3934: f0 09        	beq	$393f <fileOpenDir+0xdb>
    3936: a2 00        	ldx	#$0
    3938: 86 12        	stx	$12                     ; 0x2012 <main+0x283>
    393a: a2 00        	ldx	#$0
    393c: 86 13        	stx	$13                     ; 0x2013 <main+0x284>
    393e: 60           	rts
    393f: a9 55        	lda	#$55
    3941: 18           	clc
    3942: 65 18        	adc	$18                     ; 0x2018 <main+0x289>
    3944: 85 12        	sta	$12                     ; 0x2012 <main+0x283>
    3946: a9 00        	lda	#$0
    3948: 69 00        	adc	#$0
    394a: 85 13        	sta	$13                     ; 0x2013 <main+0x284>
    394c: a6 6f        	ldx	$6f                     ; 0x206f <main+0x2e0>
    394e: 86 19        	stx	$19                     ; 0x2019 <main+0x28a>
    3950: a2 70        	ldx	#$70
    3952: a0 00        	ldy	#$0
    3954: 86 16        	stx	$16                     ; 0x2016 <main+0x287>
    3956: 84 17        	sty	$17                     ; 0x2017 <main+0x288>
    3958: 64 4b        	stz	$4b                     ; 0x204b <main+0x2bc>
    395a: 20 00 ff     	jsr	$ff00 <__heap_start+0x760c>
    395d: 92 16        	sta	($16)                   ; 0x2016 <main+0x287>
    395f: a9 00        	lda	#$0
    3961: 6a           	ror
    3962: 85 14        	sta	$14                     ; 0x2014 <main+0x285>
    3964: a6 4b        	ldx	$4b                     ; 0x204b <main+0x2bc>
    3966: e0 48        	cpx	#$48
    3968: f0 cc        	beq	$3936 <fileOpenDir+0xd2>
    396a: e0 3c        	cpx	#$3c
    396c: d0 ea        	bne	$3958 <fileOpenDir+0xf4>
    396e: a6 18        	ldx	$18                     ; 0x2018 <main+0x289>
    3970: a5 19        	lda	$19                     ; 0x2019 <main+0x28a>
    3972: 9d 55 00     	sta	$55,x                   ; 0x55 <_dirStream>
    3975: 60           	rts

00003976 <fileRead>:
    3976: 85 16        	sta	$16                     ; 0x2016 <main+0x287>
    3978: 86 17        	stx	$17                     ; 0x2017 <main+0x288>
    397a: 64 18        	stz	$18                     ; 0x2018 <main+0x289>
    397c: a6 12        	ldx	$12                     ; 0x2012 <main+0x283>
    397e: 86 1a        	stx	$1a                     ; 0x201a <main+0x28b>
    3980: a6 13        	ldx	$13                     ; 0x2013 <main+0x284>
    3982: 86 1b        	stx	$1b                     ; 0x201b <main+0x28c>
    3984: a2 60        	ldx	#$60
    3986: a0 00        	ldy	#$0
    3988: a9 52        	lda	#$52
    398a: 85 12        	sta	$12                     ; 0x2012 <main+0x283>
    398c: a9 00        	lda	#$0
    398e: 85 13        	sta	$13                     ; 0x2013 <main+0x284>
    3990: 64 19        	stz	$19                     ; 0x2019 <main+0x28a>
    3992: b2 14        	lda	($14)                   ; 0x2014 <main+0x285>
    3994: 85 1d        	sta	$1d                     ; 0x201d <main+0x28e>
    3996: a5 1a        	lda	$1a                     ; 0x201a <main+0x28b>
    3998: 85 1e        	sta	$1e                     ; 0x201e <main+0x28f>
    399a: a5 1a        	lda	$1a                     ; 0x201a <main+0x28b>
    399c: 18           	clc
    399d: 65 18        	adc	$18                     ; 0x2018 <main+0x289>
    399f: 85 1c        	sta	$1c                     ; 0x201c <main+0x28d>
    39a1: a5 1b        	lda	$1b                     ; 0x201b <main+0x28c>
    39a3: 85 1f        	sta	$1f                     ; 0x201f <main+0x290>
    39a5: a5 1b        	lda	$1b                     ; 0x201b <main+0x28c>
    39a7: 65 19        	adc	$19                     ; 0x2019 <main+0x28a>
    39a9: e6 1d        	inc	$1d                     ; 0x201d <main+0x28e>
    39ab: c6 1d        	dec	$1d                     ; 0x201d <main+0x28e>
    39ad: d0 03        	bne	$39b2 <fileRead+0x3c>
    39af: 4c 2f 3a     	jmp	$3a2f <fileRead+0xb9>
    39b2: 5a           	phy
    39b3: a4 1d        	ldy	$1d                     ; 0x201d <main+0x28e>
    39b5: 84 1a        	sty	$1a                     ; 0x201a <main+0x28b>
    39b7: 7a           	ply
    39b8: 85 1d        	sta	$1d                     ; 0x201d <main+0x28e>
    39ba: a5 16        	lda	$16                     ; 0x2016 <main+0x287>
    39bc: 38           	sec
    39bd: e5 18        	sbc	$18                     ; 0x2018 <main+0x289>
    39bf: 85 1b        	sta	$1b                     ; 0x201b <main+0x28c>
    39c1: a5 1a        	lda	$1a                     ; 0x201a <main+0x28b>
    39c3: 85 f3        	sta	$f3                     ; 0x20f3 <main+0x364>
    39c5: a5 1b        	lda	$1b                     ; 0x201b <main+0x28c>
    39c7: 85 f4        	sta	$f4                     ; 0x20f4 <main+0x365>
    39c9: a9 62        	lda	#$62
    39cb: 85 1a        	sta	$1a                     ; 0x201a <main+0x28b>
    39cd: a9 00        	lda	#$0
    39cf: 85 1b        	sta	$1b                     ; 0x201b <main+0x28c>
    39d1: 20 60 ff     	jsr	$ff60 <__heap_start+0x766c>
    39d4: 92 1a        	sta	($1a)                   ; 0x201a <main+0x28b>
    39d6: a9 00        	lda	#$0
    39d8: 6a           	ror
    39d9: 85 12        	sta	$12                     ; 0x2012 <main+0x283>
    39db: a5 52        	lda	$52                     ; 0x2052 <main+0x2c3>
    39dd: f0 03        	beq	$39e2 <fileRead+0x6c>
    39df: 4c a7 3a     	jmp	$3aa7 <fileRead+0x131>
    39e2: 64 4b        	stz	$4b                     ; 0x204b <main+0x2bc>
    39e4: a9 63        	lda	#$63
    39e6: 85 1a        	sta	$1a                     ; 0x201a <main+0x28b>
    39e8: a9 00        	lda	#$0
    39ea: 85 1b        	sta	$1b                     ; 0x201b <main+0x28c>
    39ec: 20 00 ff     	jsr	$ff00 <__heap_start+0x760c>
    39ef: 92 1a        	sta	($1a)                   ; 0x201a <main+0x28b>
    39f1: a9 00        	lda	#$0
    39f3: 6a           	ror
    39f4: 85 12        	sta	$12                     ; 0x2012 <main+0x283>
    39f6: a5 4b        	lda	$4b                     ; 0x204b <main+0x2bc>
    39f8: c9 38        	cmp	#$38
    39fa: d0 03        	bne	$39ff <fileRead+0x89>
    39fc: 4c a7 3a     	jmp	$3aa7 <fileRead+0x131>
    39ff: c9 30        	cmp	#$30
    3a01: d0 03        	bne	$3a06 <fileRead+0x90>
    3a03: 4c ae 3a     	jmp	$3aae <fileRead+0x138>
    3a06: c9 2c        	cmp	#$2c
    3a08: d0 d8        	bne	$39e2 <fileRead+0x6c>
    3a0a: a5 1c        	lda	$1c                     ; 0x201c <main+0x28d>
    3a0c: 85 fb        	sta	$fb                     ; 0x20fb <main+0x36c>
    3a0e: a5 1d        	lda	$1d                     ; 0x201d <main+0x28e>
    3a10: 85 fc        	sta	$fc                     ; 0x20fc <main+0x36d>
    3a12: a5 51        	lda	$51                     ; 0x2051 <main+0x2c2>
    3a14: 85 fd        	sta	$fd                     ; 0x20fd <main+0x36e>
    3a16: a9 64        	lda	#$64
    3a18: 85 1a        	sta	$1a                     ; 0x201a <main+0x28b>
    3a1a: a9 00        	lda	#$0
    3a1c: 85 1b        	sta	$1b                     ; 0x201b <main+0x28c>
    3a1e: 20 04 ff     	jsr	$ff04 <__heap_start+0x7610>
    3a21: 92 1a        	sta	($1a)                   ; 0x201a <main+0x28b>
    3a23: a9 00        	lda	#$0
    3a25: 6a           	ror
    3a26: 85 12        	sta	$12                     ; 0x2012 <main+0x283>
    3a28: a5 51        	lda	$51                     ; 0x2051 <main+0x2c2>
    3a2a: d0 43        	bne	$3a6f <fileRead+0xf9>
    3a2c: 4c b8 3a     	jmp	$3ab8 <fileRead+0x142>
    3a2f: 5a           	phy
    3a30: a4 1c        	ldy	$1c                     ; 0x201c <main+0x28d>
    3a32: 84 1a        	sty	$1a                     ; 0x201a <main+0x28b>
    3a34: 7a           	ply
    3a35: 85 1b        	sta	$1b                     ; 0x201b <main+0x28c>
    3a37: 80 12        	bra	$3a4b <fileRead+0xd5>
    3a39: a9 61        	lda	#$61
    3a3b: 85 1c        	sta	$1c                     ; 0x201c <main+0x28d>
    3a3d: a9 00        	lda	#$0
    3a3f: 85 1d        	sta	$1d                     ; 0x201d <main+0x28e>
    3a41: 20 0c ff     	jsr	$ff0c <__heap_start+0x7618>
    3a44: 92 1c        	sta	($1c)                   ; 0x201c <main+0x28d>
    3a46: a9 00        	lda	#$0
    3a48: 6a           	ror
    3a49: 85 12        	sta	$12                     ; 0x2012 <main+0x283>
    3a4b: 64 4b        	stz	$4b                     ; 0x204b <main+0x2bc>
    3a4d: 86 1c        	stx	$1c                     ; 0x201c <main+0x28d>
    3a4f: 84 1d        	sty	$1d                     ; 0x201d <main+0x28e>
    3a51: 20 00 ff     	jsr	$ff00 <__heap_start+0x760c>
    3a54: 92 1c        	sta	($1c)                   ; 0x201c <main+0x28d>
    3a56: a9 00        	lda	#$0
    3a58: 6a           	ror
    3a59: 85 12        	sta	$12                     ; 0x2012 <main+0x283>
    3a5b: a5 52        	lda	$52                     ; 0x2052 <main+0x2c3>
    3a5d: d0 da        	bne	$3a39 <fileRead+0xc3>
    3a5f: a5 4b        	lda	$4b                     ; 0x204b <main+0x2bc>
    3a61: c9 08        	cmp	#$8
    3a63: d0 e6        	bne	$3a4b <fileRead+0xd5>
    3a65: a5 51        	lda	$51                     ; 0x2051 <main+0x2c2>
    3a67: d0 e2        	bne	$3a4b <fileRead+0xd5>
    3a69: a5 50        	lda	$50                     ; 0x2050 <main+0x2c1>
    3a6b: 92 1a        	sta	($1a)                   ; 0x201a <main+0x28b>
    3a6d: a9 01        	lda	#$1
    3a6f: 85 65        	sta	$65                     ; 0x2065 <main+0x2d6>
    3a71: a9 00        	lda	#$0
    3a73: 85 66        	sta	$66                     ; 0x2066 <main+0x2d7>
    3a75: 18           	clc
    3a76: a5 65        	lda	$65                     ; 0x2065 <main+0x2d6>
    3a78: 65 18        	adc	$18                     ; 0x2018 <main+0x289>
    3a7a: 85 65        	sta	$65                     ; 0x2065 <main+0x2d6>
    3a7c: a5 66        	lda	$66                     ; 0x2066 <main+0x2d7>
    3a7e: 65 19        	adc	$19                     ; 0x2019 <main+0x28a>
    3a80: c5 17        	cmp	$17                     ; 0x2017 <main+0x288>
    3a82: d0 0a        	bne	$3a8e <fileRead+0x118>
    3a84: 85 19        	sta	$19                     ; 0x2019 <main+0x28a>
    3a86: a5 65        	lda	$65                     ; 0x2065 <main+0x2d6>
    3a88: 85 18        	sta	$18                     ; 0x2018 <main+0x289>
    3a8a: c5 16        	cmp	$16                     ; 0x2016 <main+0x287>
    3a8c: 80 08        	bra	$3a96 <fileRead+0x120>
    3a8e: c5 17        	cmp	$17                     ; 0x2017 <main+0x288>
    3a90: 85 19        	sta	$19                     ; 0x2019 <main+0x28a>
    3a92: a5 65        	lda	$65                     ; 0x2065 <main+0x2d6>
    3a94: 85 18        	sta	$18                     ; 0x2018 <main+0x289>
    3a96: a5 19        	lda	$19                     ; 0x2019 <main+0x28a>
    3a98: 5a           	phy
    3a99: a4 1e        	ldy	$1e                     ; 0x201e <main+0x28f>
    3a9b: 84 1a        	sty	$1a                     ; 0x201a <main+0x28b>
    3a9d: a4 1f        	ldy	$1f                     ; 0x201f <main+0x290>
    3a9f: 84 1b        	sty	$1b                     ; 0x201b <main+0x28c>
    3aa1: 7a           	ply
    3aa2: b0 10        	bcs	$3ab4 <fileRead+0x13e>
    3aa4: 4c 92 39     	jmp	$3992 <fileRead+0x1c>
    3aa7: a9 ff        	lda	#$ff
    3aa9: aa           	tax
    3aaa: 86 65        	stx	$65                     ; 0x2065 <main+0x2d6>
    3aac: 80 06        	bra	$3ab4 <fileRead+0x13e>
    3aae: a6 18        	ldx	$18                     ; 0x2018 <main+0x289>
    3ab0: 86 65        	stx	$65                     ; 0x2065 <main+0x2d6>
    3ab2: a5 19        	lda	$19                     ; 0x2019 <main+0x28a>
    3ab4: aa           	tax
    3ab5: a5 65        	lda	$65                     ; 0x2065 <main+0x2d6>
    3ab7: 60           	rts
    3ab8: a9 00        	lda	#$0
    3aba: 85 65        	sta	$65                     ; 0x2065 <main+0x2d6>
    3abc: 1a           	inc
    3abd: 80 b4        	bra	$3a73 <fileRead+0xfd>

00003abf <fileReadDir>:
    3abf: b2 12        	lda	($12)                   ; 0x2012 <main+0x283>
    3ac1: 85 f3        	sta	$f3                     ; 0x20f3 <main+0x364>
    3ac3: a2 6f        	ldx	#$6f
    3ac5: a0 00        	ldy	#$0
    3ac7: 86 14        	stx	$14                     ; 0x2014 <main+0x285>
    3ac9: 84 15        	sty	$15                     ; 0x2015 <main+0x286>
    3acb: a2 52        	ldx	#$52
    3acd: 86 16        	stx	$16                     ; 0x2016 <main+0x287>
    3acf: a2 00        	ldx	#$0
    3ad1: 86 17        	stx	$17                     ; 0x2017 <main+0x288>
    3ad3: 20 7c ff     	jsr	$ff7c <__heap_start+0x7688>
    3ad6: 92 14        	sta	($14)                   ; 0x2014 <main+0x285>
    3ad8: a9 00        	lda	#$0
    3ada: 6a           	ror
    3adb: 85 16        	sta	$16                     ; 0x2016 <main+0x287>
    3add: a6 52        	ldx	$52                     ; 0x2052 <main+0x2c3>
    3adf: a0 00        	ldy	#$0
    3ae1: 84 14        	sty	$14                     ; 0x2014 <main+0x285>
    3ae3: a0 00        	ldy	#$0
    3ae5: 84 15        	sty	$15                     ; 0x2015 <main+0x286>
    3ae7: 8a           	txa
    3ae8: f0 09        	beq	$3af3 <fileReadDir+0x34>
    3aea: a6 14        	ldx	$14                     ; 0x2014 <main+0x285>
    3aec: 86 12        	stx	$12                     ; 0x2012 <main+0x283>
    3aee: a6 15        	ldx	$15                     ; 0x2015 <main+0x286>
    3af0: 86 13        	stx	$13                     ; 0x2013 <main+0x284>
    3af2: 60           	rts
    3af3: a2 70        	ldx	#$70
    3af5: a0 00        	ldy	#$0
    3af7: 86 18        	stx	$18                     ; 0x2018 <main+0x289>
    3af9: 84 19        	sty	$19                     ; 0x2019 <main+0x28a>
    3afb: a0 00        	ldy	#$0
    3afd: 80 18        	bra	$3b17 <fileReadDir+0x58>
    3aff: b2 12        	lda	($12)                   ; 0x2012 <main+0x283>
    3b01: 85 f3        	sta	$f3                     ; 0x20f3 <main+0x364>
    3b03: a2 72        	ldx	#$72
    3b05: 86 1a        	stx	$1a                     ; 0x201a <main+0x28b>
    3b07: 84 1b        	sty	$1b                     ; 0x201b <main+0x28c>
    3b09: 20 7c ff     	jsr	$ff7c <__heap_start+0x7688>
    3b0c: 92 1a        	sta	($1a)                   ; 0x201a <main+0x28b>
    3b0e: a9 00        	lda	#$0
    3b10: 6a           	ror
    3b11: 85 16        	sta	$16                     ; 0x2016 <main+0x287>
    3b13: a6 52        	ldx	$52                     ; 0x2052 <main+0x2c3>
    3b15: d0 d3        	bne	$3aea <fileReadDir+0x2b>
    3b17: 64 4b        	stz	$4b                     ; 0x204b <main+0x2bc>
    3b19: 20 00 ff     	jsr	$ff00 <__heap_start+0x760c>
    3b1c: 92 18        	sta	($18)                   ; 0x2018 <main+0x289>
    3b1e: a9 00        	lda	#$0
    3b20: 6a           	ror
    3b21: 85 16        	sta	$16                     ; 0x2016 <main+0x287>
    3b23: a9 c2        	lda	#$c2
    3b25: 18           	clc
    3b26: 65 4b        	adc	$4b                     ; 0x204b <main+0x2bc>
    3b28: c9 0b        	cmp	#$b
    3b2a: b0 eb        	bcs	$3b17 <fileReadDir+0x58>
    3b2c: 0a           	asl
    3b2d: aa           	tax
    3b2e: 7c de 53     	jmp	($53de,x)               ; 0x53de <__set_v+0x2e9>
    3b31: 9c fb 86     	stz	$86fb                   ; 0x86fb <fileReadDir.fileDirEntS>
    3b34: a2 02        	ldx	#$2
    3b36: 80 2d        	bra	$3b65 <fileReadDir+0xa6>
    3b38: a2 fb        	ldx	#$fb
    3b3a: a0 86        	ldy	#$86
    3b3c: 86 fb        	stx	$fb                     ; 0x20fb <main+0x36c>
    3b3e: 84 fc        	sty	$fc                     ; 0x20fc <main+0x36d>
    3b40: a2 01        	ldx	#$1
    3b42: 86 fd        	stx	$fd                     ; 0x20fd <main+0x36e>
    3b44: a0 71        	ldy	#$71
    3b46: a9 00        	lda	#$0
    3b48: 84 12        	sty	$12                     ; 0x2012 <main+0x283>
    3b4a: 85 13        	sta	$13                     ; 0x2013 <main+0x284>
    3b4c: a0 52        	ldy	#$52
    3b4e: 84 14        	sty	$14                     ; 0x2014 <main+0x285>
    3b50: a0 00        	ldy	#$0
    3b52: 84 15        	sty	$15                     ; 0x2015 <main+0x286>
    3b54: 20 08 ff     	jsr	$ff08 <__heap_start+0x7614>
    3b57: 92 12        	sta	($12)                   ; 0x2012 <main+0x283>
    3b59: a9 00        	lda	#$0
    3b5b: 6a           	ror
    3b5c: 85 14        	sta	$14                     ; 0x2014 <main+0x285>
    3b5e: ac fb 86     	ldy	$86fb                   ; 0x86fb <fileReadDir.fileDirEntS>
    3b61: f0 02        	beq	$3b65 <fileReadDir+0xa6>
    3b63: a2 00        	ldx	#$0
    3b65: 8e fc 86     	stx	$86fc                   ; 0x86fc <fileReadDir.fileDirEntS+0x1>
    3b68: a6 50        	ldx	$50                     ; 0x2050 <main+0x2c1>
    3b6a: f0 24        	beq	$3b90 <fileReadDir+0xd1>
    3b6c: a0 fd        	ldy	#$fd
    3b6e: a9 86        	lda	#$86
    3b70: 84 fb        	sty	$fb                     ; 0x20fb <main+0x36c>
    3b72: 85 fc        	sta	$fc                     ; 0x20fc <main+0x36d>
    3b74: 86 fd        	stx	$fd                     ; 0x20fd <main+0x36e>
    3b76: a0 73        	ldy	#$73
    3b78: a9 00        	lda	#$0
    3b7a: 84 12        	sty	$12                     ; 0x2012 <main+0x283>
    3b7c: 85 13        	sta	$13                     ; 0x2013 <main+0x284>
    3b7e: a0 52        	ldy	#$52
    3b80: 84 14        	sty	$14                     ; 0x2014 <main+0x285>
    3b82: a0 00        	ldy	#$0
    3b84: 84 15        	sty	$15                     ; 0x2015 <main+0x286>
    3b86: 20 04 ff     	jsr	$ff04 <__heap_start+0x7610>
    3b89: 92 12        	sta	($12)                   ; 0x2012 <main+0x283>
    3b8b: a9 00        	lda	#$0
    3b8d: 6a           	ror
    3b8e: 85 14        	sta	$14                     ; 0x2014 <main+0x285>
    3b90: 9e fd 86     	stz	$86fd,x                 ; 0x86fd <fileReadDir.fileDirEntS+0x2>
    3b93: a2 fb        	ldx	#$fb
    3b95: 86 14        	stx	$14                     ; 0x2014 <main+0x285>
    3b97: a2 86        	ldx	#$86
    3b99: 86 15        	stx	$15                     ; 0x2015 <main+0x286>
    3b9b: 4c ea 3a     	jmp	$3aea <fileReadDir+0x2b>

00003b9e <exit>:
    3b9e: 20 1b 03     	jsr	$31b <_fini>
    3ba1: 80 fe        	bra	$3ba1 <exit+0x3>

00003ba3 <_ZN12_GLOBAL__N_15printEPKcP6Status>:
    3ba3: a6 14        	ldx	$14                     ; 0x2014 <main+0x285>
    3ba5: 86 8c        	stx	$8c                     ; 0x208c <main+0x2fd>
    3ba7: a6 15        	ldx	$15                     ; 0x2015 <main+0x286>
    3ba9: 86 8d        	stx	$8d                     ; 0x208d <main+0x2fe>
    3bab: a6 12        	ldx	$12                     ; 0x2012 <main+0x283>
    3bad: 86 14        	stx	$14                     ; 0x2014 <main+0x285>
    3baf: a6 13        	ldx	$13                     ; 0x2013 <main+0x284>
    3bb1: 86 15        	stx	$15                     ; 0x2015 <main+0x286>
    3bb3: e6 14        	inc	$14                     ; 0x2014 <main+0x285>
    3bb5: d0 02        	bne	$3bb9 <_ZN12_GLOBAL__N_15printEPKcP6Status+0x16>
    3bb7: e6 15        	inc	$15                     ; 0x2015 <main+0x286>
    3bb9: a0 01        	ldy	#$1
    3bbb: b1 12        	lda	($12),y                 ; 0x2012 <main+0x283>
    3bbd: c9 25        	cmp	#$25
    3bbf: d0 23        	bne	$3be4 <_ZN12_GLOBAL__N_15printEPKcP6Status+0x41>
    3bc1: a9 25        	lda	#$25
    3bc3: a6 12        	ldx	$12                     ; 0x2012 <main+0x283>
    3bc5: 86 8e        	stx	$8e                     ; 0x208e <main+0x2ff>
    3bc7: a6 13        	ldx	$13                     ; 0x2013 <main+0x284>
    3bc9: 86 8f        	stx	$8f                     ; 0x208f <main+0x300>
    3bcb: a6 8c        	ldx	$8c                     ; 0x208c <main+0x2fd>
    3bcd: 86 12        	stx	$12                     ; 0x2012 <main+0x283>
    3bcf: a6 8d        	ldx	$8d                     ; 0x208d <main+0x2fe>
    3bd1: 86 13        	stx	$13                     ; 0x2013 <main+0x284>
    3bd3: 20 d7 46     	jsr	$46d7 <_ZN12_GLOBAL__N_13putEcP6Status>
    3bd6: a5 8e        	lda	$8e                     ; 0x208e <main+0x2ff>
    3bd8: 18           	clc
    3bd9: 69 02        	adc	#$2
    3bdb: 85 12        	sta	$12                     ; 0x2012 <main+0x283>
    3bdd: a5 8f        	lda	$8f                     ; 0x208f <main+0x300>
    3bdf: 69 00        	adc	#$0
    3be1: 85 13        	sta	$13                     ; 0x2013 <main+0x284>
    3be3: 60           	rts
    3be4: 18           	clc
    3be5: a5 8c        	lda	$8c                     ; 0x208c <main+0x2fd>
    3be7: 69 0b        	adc	#$b
    3be9: 85 18        	sta	$18                     ; 0x2018 <main+0x289>
    3beb: a5 8d        	lda	$8d                     ; 0x208d <main+0x2fe>
    3bed: 69 00        	adc	#$0
    3bef: 85 19        	sta	$19                     ; 0x2019 <main+0x28a>
    3bf1: a2 10        	ldx	#$10
    3bf3: 86 b5        	stx	$b5                     ; 0x20b5 <main+0x326>
    3bf5: a9 00        	lda	#$0
    3bf7: a0 0b        	ldy	#$b
    3bf9: 91 8c        	sta	($8c),y                 ; 0x208c <main+0x2fd>
    3bfb: 18           	clc
    3bfc: a5 8c        	lda	$8c                     ; 0x208c <main+0x2fd>
    3bfe: 69 0d        	adc	#$d
    3c00: aa           	tax
    3c01: a5 8d        	lda	$8d                     ; 0x208d <main+0x2fe>
    3c03: 69 00        	adc	#$0
    3c05: 86 16        	stx	$16                     ; 0x2016 <main+0x287>
    3c07: a0 0d        	ldy	#$d
    3c09: 85 17        	sta	$17                     ; 0x2017 <main+0x288>
    3c0b: a9 ff        	lda	#$ff
    3c0d: 91 8c        	sta	($8c),y                 ; 0x208c <main+0x2fd>
    3c0f: a0 01        	ldy	#$1
    3c11: 91 16        	sta	($16),y                 ; 0x2016 <main+0x287>
    3c13: a2 00        	ldx	#$0
    3c15: 86 b8        	stx	$b8                     ; 0x20b8 <main+0x329>
    3c17: a6 8c        	ldx	$8c                     ; 0x208c <main+0x2fd>
    3c19: 86 16        	stx	$16                     ; 0x2016 <main+0x287>
    3c1b: a6 8d        	ldx	$8d                     ; 0x208d <main+0x2fe>
    3c1d: 86 17        	stx	$17                     ; 0x2017 <main+0x288>
    3c1f: e6 16        	inc	$16                     ; 0x2016 <main+0x287>
    3c21: d0 02        	bne	$3c25 <_ZN12_GLOBAL__N_15printEPKcP6Status+0x82>
    3c23: e6 17        	inc	$17                     ; 0x2017 <main+0x288>
    3c25: a9 00        	lda	#$0
    3c27: 91 8c        	sta	($8c),y                 ; 0x208c <main+0x2fd>
    3c29: 91 16        	sta	($16),y                 ; 0x2016 <main+0x287>
    3c2b: 92 8c        	sta	($8c)                   ; 0x208c <main+0x2fd>
    3c2d: 91 18        	sta	($18),y                 ; 0x2018 <main+0x289>
    3c2f: 64 92        	stz	$92                     ; 0x2092 <main+0x303>
    3c31: 80 33        	bra	$3c66 <_ZN12_GLOBAL__N_15printEPKcP6Status+0xc3>
    3c33: a2 02        	ldx	#$2
    3c35: 80 15        	bra	$3c4c <_ZN12_GLOBAL__N_15printEPKcP6Status+0xa9>
    3c37: e0 20        	cpx	#$20
    3c39: f0 15        	beq	$3c50 <_ZN12_GLOBAL__N_15printEPKcP6Status+0xad>
    3c3b: 86 19        	stx	$19                     ; 0x2019 <main+0x28a>
    3c3d: e0 23        	cpx	#$23
    3c3f: f0 03        	beq	$3c44 <_ZN12_GLOBAL__N_15printEPKcP6Status+0xa1>
    3c41: 4c b3 3c     	jmp	$3cb3 <_ZN12_GLOBAL__N_15printEPKcP6Status+0x110>
    3c44: a5 92        	lda	$92                     ; 0x2092 <main+0x303>
    3c46: a2 04        	ldx	#$4
    3c48: 80 02        	bra	$3c4c <_ZN12_GLOBAL__N_15printEPKcP6Status+0xa9>
    3c4a: a2 10        	ldx	#$10
    3c4c: 86 18        	stx	$18                     ; 0x2018 <main+0x289>
    3c4e: 80 06        	bra	$3c56 <_ZN12_GLOBAL__N_15printEPKcP6Status+0xb3>
    3c50: a2 08        	ldx	#$8
    3c52: 86 18        	stx	$18                     ; 0x2018 <main+0x289>
    3c54: a5 92        	lda	$92                     ; 0x2092 <main+0x303>
    3c56: 05 18        	ora	$18                     ; 0x2018 <main+0x289>
    3c58: 85 92        	sta	$92                     ; 0x2092 <main+0x303>
    3c5a: 91 8c        	sta	($8c),y                 ; 0x208c <main+0x2fd>
    3c5c: a9 00        	lda	#$0
    3c5e: 91 16        	sta	($16),y                 ; 0x2016 <main+0x287>
    3c60: e6 14        	inc	$14                     ; 0x2014 <main+0x285>
    3c62: d0 02        	bne	$3c66 <_ZN12_GLOBAL__N_15printEPKcP6Status+0xc3>
    3c64: e6 15        	inc	$15                     ; 0x2015 <main+0x286>
    3c66: b2 14        	lda	($14)                   ; 0x2014 <main+0x285>
    3c68: aa           	tax
    3c69: 18           	clc
    3c6a: 69 d6        	adc	#$d6
    3c6c: c9 07        	cmp	#$7
    3c6e: b0 c7        	bcs	$3c37 <_ZN12_GLOBAL__N_15printEPKcP6Status+0x94>
    3c70: 86 19        	stx	$19                     ; 0x2019 <main+0x28a>
    3c72: 0a           	asl
    3c73: aa           	tax
    3c74: a9 01        	lda	#$1
    3c76: 85 18        	sta	$18                     ; 0x2018 <main+0x289>
    3c78: a5 92        	lda	$92                     ; 0x2092 <main+0x303>
    3c7a: 7c f4 53     	jmp	($53f4,x)               ; 0x53f4 <__set_v+0x2ff>
    3c7d: a0 11        	ldy	#$11
    3c7f: a5 8c        	lda	$8c                     ; 0x208c <main+0x2fd>
    3c81: 18           	clc
    3c82: 69 11        	adc	#$11
    3c84: 85 16        	sta	$16                     ; 0x2016 <main+0x287>
    3c86: a5 8d        	lda	$8d                     ; 0x208d <main+0x2fe>
    3c88: 69 00        	adc	#$0
    3c8a: 85 17        	sta	$17                     ; 0x2017 <main+0x288>
    3c8c: b1 8c        	lda	($8c),y                 ; 0x208c <main+0x2fd>
    3c8e: 85 18        	sta	$18                     ; 0x2018 <main+0x289>
    3c90: 18           	clc
    3c91: 69 02        	adc	#$2
    3c93: 91 8c        	sta	($8c),y                 ; 0x208c <main+0x2fd>
    3c95: a0 01        	ldy	#$1
    3c97: b1 16        	lda	($16),y                 ; 0x2016 <main+0x287>
    3c99: 85 19        	sta	$19                     ; 0x2019 <main+0x28a>
    3c9b: 69 00        	adc	#$0
    3c9d: 91 16        	sta	($16),y                 ; 0x2016 <main+0x287>
    3c9f: b2 18        	lda	($18)                   ; 0x2018 <main+0x289>
    3ca1: 85 17        	sta	$17                     ; 0x2017 <main+0x288>
    3ca3: b1 18        	lda	($18),y                 ; 0x2018 <main+0x289>
    3ca5: 85 16        	sta	$16                     ; 0x2016 <main+0x287>
    3ca7: 10 03        	bpl	$3cac <_ZN12_GLOBAL__N_15printEPKcP6Status+0x109>
    3ca9: 4c 3a 3d     	jmp	$3d3a <_ZN12_GLOBAL__N_15printEPKcP6Status+0x197>
    3cac: a6 17        	ldx	$17                     ; 0x2017 <main+0x288>
    3cae: 85 1a        	sta	$1a                     ; 0x201a <main+0x28b>
    3cb0: 4c 64 3d     	jmp	$3d64 <_ZN12_GLOBAL__N_15printEPKcP6Status+0x1c1>
    3cb3: 18           	clc
    3cb4: a5 19        	lda	$19                     ; 0x2019 <main+0x28a>
    3cb6: 69 d0        	adc	#$d0
    3cb8: c9 0a        	cmp	#$a
    3cba: 90 03        	bcc	$3cbf <_ZN12_GLOBAL__N_15printEPKcP6Status+0x11c>
    3cbc: 4c 15 3d     	jmp	$3d15 <_ZN12_GLOBAL__N_15printEPKcP6Status+0x172>
    3cbf: a6 19        	ldx	$19                     ; 0x2019 <main+0x28a>
    3cc1: 86 16        	stx	$16                     ; 0x2016 <main+0x287>
    3cc3: 64 18        	stz	$18                     ; 0x2018 <main+0x289>
    3cc5: a0 01        	ldy	#$1
    3cc7: 64 17        	stz	$17                     ; 0x2017 <main+0x288>
    3cc9: 64 19        	stz	$19                     ; 0x2019 <main+0x28a>
    3ccb: 06 18        	asl	$18                     ; 0x2018 <main+0x289>
    3ccd: 26 19        	rol	$19                     ; 0x2019 <main+0x28a>
    3ccf: a5 18        	lda	$18                     ; 0x2018 <main+0x289>
    3cd1: 0a           	asl
    3cd2: aa           	tax
    3cd3: a5 19        	lda	$19                     ; 0x2019 <main+0x28a>
    3cd5: 2a           	rol
    3cd6: 86 1a        	stx	$1a                     ; 0x201a <main+0x28b>
    3cd8: 06 1a        	asl	$1a                     ; 0x201a <main+0x28b>
    3cda: 2a           	rol
    3cdb: aa           	tax
    3cdc: a5 1a        	lda	$1a                     ; 0x201a <main+0x28b>
    3cde: 18           	clc
    3cdf: 65 18        	adc	$18                     ; 0x2018 <main+0x289>
    3ce1: 85 18        	sta	$18                     ; 0x2018 <main+0x289>
    3ce3: 8a           	txa
    3ce4: 65 19        	adc	$19                     ; 0x2019 <main+0x28a>
    3ce6: 85 19        	sta	$19                     ; 0x2019 <main+0x28a>
    3ce8: a5 18        	lda	$18                     ; 0x2018 <main+0x289>
    3cea: 18           	clc
    3ceb: 65 16        	adc	$16                     ; 0x2016 <main+0x287>
    3ced: 85 16        	sta	$16                     ; 0x2016 <main+0x287>
    3cef: a5 19        	lda	$19                     ; 0x2019 <main+0x28a>
    3cf1: 65 17        	adc	$17                     ; 0x2017 <main+0x288>
    3cf3: aa           	tax
    3cf4: 18           	clc
    3cf5: a5 16        	lda	$16                     ; 0x2016 <main+0x287>
    3cf7: 69 d0        	adc	#$d0
    3cf9: 85 18        	sta	$18                     ; 0x2018 <main+0x289>
    3cfb: 8a           	txa
    3cfc: 69 ff        	adc	#$ff
    3cfe: 85 19        	sta	$19                     ; 0x2019 <main+0x28a>
    3d00: b1 14        	lda	($14),y                 ; 0x2014 <main+0x285>
    3d02: 85 16        	sta	$16                     ; 0x2016 <main+0x287>
    3d04: 18           	clc
    3d05: 69 d0        	adc	#$d0
    3d07: e6 14        	inc	$14                     ; 0x2014 <main+0x285>
    3d09: d0 02        	bne	$3d0d <_ZN12_GLOBAL__N_15printEPKcP6Status+0x16a>
    3d0b: e6 15        	inc	$15                     ; 0x2015 <main+0x286>
    3d0d: c9 0a        	cmp	#$a
    3d0f: 64 17        	stz	$17                     ; 0x2017 <main+0x288>
    3d11: 90 b8        	bcc	$3ccb <_ZN12_GLOBAL__N_15printEPKcP6Status+0x128>
    3d13: 80 04        	bra	$3d19 <_ZN12_GLOBAL__N_15printEPKcP6Status+0x176>
    3d15: 64 18        	stz	$18                     ; 0x2018 <main+0x289>
    3d17: 64 19        	stz	$19                     ; 0x2019 <main+0x28a>
    3d19: a5 8c        	lda	$8c                     ; 0x208c <main+0x2fd>
    3d1b: 18           	clc
    3d1c: 69 0b        	adc	#$b
    3d1e: 85 16        	sta	$16                     ; 0x2016 <main+0x287>
    3d20: a5 8d        	lda	$8d                     ; 0x208d <main+0x2fe>
    3d22: 69 00        	adc	#$0
    3d24: 85 17        	sta	$17                     ; 0x2017 <main+0x288>
    3d26: a0 0b        	ldy	#$b
    3d28: a5 18        	lda	$18                     ; 0x2018 <main+0x289>
    3d2a: 91 8c        	sta	($8c),y                 ; 0x208c <main+0x2fd>
    3d2c: a6 18        	ldx	$18                     ; 0x2018 <main+0x289>
    3d2e: a0 01        	ldy	#$1
    3d30: a5 19        	lda	$19                     ; 0x2019 <main+0x28a>
    3d32: 91 16        	sta	($16),y                 ; 0x2016 <main+0x287>
    3d34: 86 16        	stx	$16                     ; 0x2016 <main+0x287>
    3d36: 85 17        	sta	$17                     ; 0x2017 <main+0x288>
    3d38: 80 4c        	bra	$3d86 <_ZN12_GLOBAL__N_15printEPKcP6Status+0x1e3>
    3d3a: a5 92        	lda	$92                     ; 0x2092 <main+0x303>
    3d3c: 09 01        	ora	#$1
    3d3e: 85 1b        	sta	$1b                     ; 0x201b <main+0x28c>
    3d40: a6 8c        	ldx	$8c                     ; 0x208c <main+0x2fd>
    3d42: 86 18        	stx	$18                     ; 0x2018 <main+0x289>
    3d44: a6 8d        	ldx	$8d                     ; 0x208d <main+0x2fe>
    3d46: 86 19        	stx	$19                     ; 0x2019 <main+0x28a>
    3d48: 38           	sec
    3d49: a9 00        	lda	#$0
    3d4b: e5 17        	sbc	$17                     ; 0x2017 <main+0x288>
    3d4d: aa           	tax
    3d4e: a9 00        	lda	#$0
    3d50: e5 16        	sbc	$16                     ; 0x2016 <main+0x287>
    3d52: 85 1a        	sta	$1a                     ; 0x201a <main+0x28b>
    3d54: e6 18        	inc	$18                     ; 0x2018 <main+0x289>
    3d56: d0 02        	bne	$3d5a <_ZN12_GLOBAL__N_15printEPKcP6Status+0x1b7>
    3d58: e6 19        	inc	$19                     ; 0x2019 <main+0x28a>
    3d5a: a5 1b        	lda	$1b                     ; 0x201b <main+0x28c>
    3d5c: 85 92        	sta	$92                     ; 0x2092 <main+0x303>
    3d5e: 91 8c        	sta	($8c),y                 ; 0x208c <main+0x2fd>
    3d60: a9 00        	lda	#$0
    3d62: 91 18        	sta	($18),y                 ; 0x2018 <main+0x289>
    3d64: a5 8c        	lda	$8c                     ; 0x208c <main+0x2fd>
    3d66: 18           	clc
    3d67: 69 0b        	adc	#$b
    3d69: 85 16        	sta	$16                     ; 0x2016 <main+0x287>
    3d6b: a5 8d        	lda	$8d                     ; 0x208d <main+0x2fe>
    3d6d: 69 00        	adc	#$0
    3d6f: 85 17        	sta	$17                     ; 0x2017 <main+0x288>
    3d71: a0 0b        	ldy	#$b
    3d73: 8a           	txa
    3d74: 91 8c        	sta	($8c),y                 ; 0x208c <main+0x2fd>
    3d76: a5 1a        	lda	$1a                     ; 0x201a <main+0x28b>
    3d78: a0 01        	ldy	#$1
    3d7a: 91 16        	sta	($16),y                 ; 0x2016 <main+0x287>
    3d7c: 86 16        	stx	$16                     ; 0x2016 <main+0x287>
    3d7e: 85 17        	sta	$17                     ; 0x2017 <main+0x288>
    3d80: e6 14        	inc	$14                     ; 0x2014 <main+0x285>
    3d82: d0 02        	bne	$3d86 <_ZN12_GLOBAL__N_15printEPKcP6Status+0x1e3>
    3d84: e6 15        	inc	$15                     ; 0x2015 <main+0x286>
    3d86: b2 14        	lda	($14)                   ; 0x2014 <main+0x285>
    3d88: a2 ff        	ldx	#$ff
    3d8a: c9 2e        	cmp	#$2e
    3d8c: f0 03        	beq	$3d91 <_ZN12_GLOBAL__N_15printEPKcP6Status+0x1ee>
    3d8e: 4c 10 3e     	jmp	$3e10 <_ZN12_GLOBAL__N_15printEPKcP6Status+0x26d>
    3d91: a6 14        	ldx	$14                     ; 0x2014 <main+0x285>
    3d93: 86 18        	stx	$18                     ; 0x2018 <main+0x289>
    3d95: a6 15        	ldx	$15                     ; 0x2015 <main+0x286>
    3d97: 86 19        	stx	$19                     ; 0x2019 <main+0x28a>
    3d99: e6 18        	inc	$18                     ; 0x2018 <main+0x289>
    3d9b: d0 02        	bne	$3d9f <_ZN12_GLOBAL__N_15printEPKcP6Status+0x1fc>
    3d9d: e6 19        	inc	$19                     ; 0x2019 <main+0x28a>
    3d9f: b1 14        	lda	($14),y                 ; 0x2014 <main+0x285>
    3da1: c9 2a        	cmp	#$2a
    3da3: f0 03        	beq	$3da8 <_ZN12_GLOBAL__N_15printEPKcP6Status+0x205>
    3da5: 4c 17 3e     	jmp	$3e17 <_ZN12_GLOBAL__N_15printEPKcP6Status+0x274>
    3da8: a0 11        	ldy	#$11
    3daa: b1 8c        	lda	($8c),y                 ; 0x208c <main+0x2fd>
    3dac: 85 18        	sta	$18                     ; 0x2018 <main+0x289>
    3dae: 18           	clc
    3daf: 69 02        	adc	#$2
    3db1: a2 01        	ldx	#$1
    3db3: b0 02        	bcs	$3db7 <_ZN12_GLOBAL__N_15printEPKcP6Status+0x214>
    3db5: a2 00        	ldx	#$0
    3db7: 86 1d        	stx	$1d                     ; 0x201d <main+0x28e>
    3db9: 91 8c        	sta	($8c),y                 ; 0x208c <main+0x2fd>
    3dbb: 18           	clc
    3dbc: a5 8c        	lda	$8c                     ; 0x208c <main+0x2fd>
    3dbe: 69 11        	adc	#$11
    3dc0: 85 1a        	sta	$1a                     ; 0x201a <main+0x28b>
    3dc2: a5 8d        	lda	$8d                     ; 0x208d <main+0x2fe>
    3dc4: 69 00        	adc	#$0
    3dc6: 85 1b        	sta	$1b                     ; 0x201b <main+0x28c>
    3dc8: a0 01        	ldy	#$1
    3dca: b1 1a        	lda	($1a),y                 ; 0x201a <main+0x28b>
    3dcc: 85 19        	sta	$19                     ; 0x2019 <main+0x28a>
    3dce: a6 1d        	ldx	$1d                     ; 0x201d <main+0x28e>
    3dd0: e0 01        	cpx	#$1
    3dd2: 69 00        	adc	#$0
    3dd4: 91 1a        	sta	($1a),y                 ; 0x201a <main+0x28b>
    3dd6: b2 18        	lda	($18)                   ; 0x2018 <main+0x289>
    3dd8: 85 1b        	sta	$1b                     ; 0x201b <main+0x28c>
    3dda: 18           	clc
    3ddb: a5 8c        	lda	$8c                     ; 0x208c <main+0x2fd>
    3ddd: 69 0d        	adc	#$d
    3ddf: 85 1a        	sta	$1a                     ; 0x201a <main+0x28b>
    3de1: a5 8d        	lda	$8d                     ; 0x208d <main+0x2fe>
    3de3: 69 00        	adc	#$0
    3de5: aa           	tax
    3de6: b1 18        	lda	($18),y                 ; 0x2018 <main+0x289>
    3de8: 85 1c        	sta	$1c                     ; 0x201c <main+0x28d>
    3dea: a4 1a        	ldy	$1a                     ; 0x201a <main+0x28b>
    3dec: 84 18        	sty	$18                     ; 0x2018 <main+0x289>
    3dee: 86 19        	stx	$19                     ; 0x2019 <main+0x28a>
    3df0: a5 1b        	lda	$1b                     ; 0x201b <main+0x28c>
    3df2: 85 1a        	sta	$1a                     ; 0x201a <main+0x28b>
    3df4: a0 0d        	ldy	#$d
    3df6: 91 8c        	sta	($8c),y                 ; 0x208c <main+0x2fd>
    3df8: a5 1c        	lda	$1c                     ; 0x201c <main+0x28d>
    3dfa: 85 1e        	sta	$1e                     ; 0x201e <main+0x28f>
    3dfc: a0 01        	ldy	#$1
    3dfe: 91 18        	sta	($18),y                 ; 0x2018 <main+0x289>
    3e00: a5 14        	lda	$14                     ; 0x2014 <main+0x285>
    3e02: 18           	clc
    3e03: 69 02        	adc	#$2
    3e05: 85 18        	sta	$18                     ; 0x2018 <main+0x289>
    3e07: a5 15        	lda	$15                     ; 0x2015 <main+0x286>
    3e09: 69 00        	adc	#$0
    3e0b: 85 19        	sta	$19                     ; 0x2019 <main+0x28a>
    3e0d: 4c dd 3e     	jmp	$3edd <_ZN12_GLOBAL__N_15printEPKcP6Status+0x33a>
    3e10: 86 1a        	stx	$1a                     ; 0x201a <main+0x28b>
    3e12: 86 1b        	stx	$1b                     ; 0x201b <main+0x28c>
    3e14: 4c 05 3f     	jmp	$3f05 <_ZN12_GLOBAL__N_15printEPKcP6Status+0x362>
    3e17: 18           	clc
    3e18: 85 1c        	sta	$1c                     ; 0x201c <main+0x28d>
    3e1a: 69 d0        	adc	#$d0
    3e1c: c9 0a        	cmp	#$a
    3e1e: 90 03        	bcc	$3e23 <_ZN12_GLOBAL__N_15printEPKcP6Status+0x280>
    3e20: 4c c2 3e     	jmp	$3ec2 <_ZN12_GLOBAL__N_15printEPKcP6Status+0x31f>
    3e23: 64 1b        	stz	$1b                     ; 0x201b <main+0x28c>
    3e25: 64 1f        	stz	$1f                     ; 0x201f <main+0x290>
    3e27: 64 1e        	stz	$1e                     ; 0x201e <main+0x28f>
    3e29: a2 01        	ldx	#$1
    3e2b: 64 1a        	stz	$1a                     ; 0x201a <main+0x28b>
    3e2d: 5a           	phy
    3e2e: a4 1a        	ldy	$1a                     ; 0x201a <main+0x28b>
    3e30: 84 18        	sty	$18                     ; 0x2018 <main+0x289>
    3e32: 86 19        	stx	$19                     ; 0x2019 <main+0x28a>
    3e34: a5 1f        	lda	$1f                     ; 0x201f <main+0x290>
    3e36: 0a           	asl
    3e37: 85 1d        	sta	$1d                     ; 0x201d <main+0x28e>
    3e39: 26 1e        	rol	$1e                     ; 0x201e <main+0x28f>
    3e3b: 0a           	asl
    3e3c: a4 1e        	ldy	$1e                     ; 0x201e <main+0x28f>
    3e3e: 84 1f        	sty	$1f                     ; 0x201f <main+0x290>
    3e40: 7a           	ply
    3e41: 26 1f        	rol	$1f                     ; 0x201f <main+0x290>
    3e43: 0a           	asl
    3e44: 26 1f        	rol	$1f                     ; 0x201f <main+0x290>
    3e46: 18           	clc
    3e47: 65 1d        	adc	$1d                     ; 0x201d <main+0x28e>
    3e49: 85 22        	sta	$22                     ; 0x2022 <main+0x293>
    3e4b: a5 1f        	lda	$1f                     ; 0x201f <main+0x290>
    3e4d: 65 1e        	adc	$1e                     ; 0x201e <main+0x28f>
    3e4f: 85 1d        	sta	$1d                     ; 0x201d <main+0x28e>
    3e51: 18           	clc
    3e52: a5 22        	lda	$22                     ; 0x2022 <main+0x293>
    3e54: 65 1c        	adc	$1c                     ; 0x201c <main+0x28d>
    3e56: 85 1c        	sta	$1c                     ; 0x201c <main+0x28d>
    3e58: a5 1d        	lda	$1d                     ; 0x201d <main+0x28e>
    3e5a: 65 1b        	adc	$1b                     ; 0x201b <main+0x28c>
    3e5c: 85 1b        	sta	$1b                     ; 0x201b <main+0x28c>
    3e5e: 18           	clc
    3e5f: a5 1c        	lda	$1c                     ; 0x201c <main+0x28d>
    3e61: 69 d0        	adc	#$d0
    3e63: 85 1c        	sta	$1c                     ; 0x201c <main+0x28d>
    3e65: a5 1b        	lda	$1b                     ; 0x201b <main+0x28c>
    3e67: 69 ff        	adc	#$ff
    3e69: 85 1e        	sta	$1e                     ; 0x201e <main+0x28f>
    3e6b: a5 1c        	lda	$1c                     ; 0x201c <main+0x28d>
    3e6d: 85 1f        	sta	$1f                     ; 0x201f <main+0x290>
    3e6f: e8           	inx
    3e70: d0 02        	bne	$3e74 <_ZN12_GLOBAL__N_15printEPKcP6Status+0x2d1>
    3e72: e6 1a        	inc	$1a                     ; 0x201a <main+0x28b>
    3e74: a5 14        	lda	$14                     ; 0x2014 <main+0x285>
    3e76: 18           	clc
    3e77: 65 19        	adc	$19                     ; 0x2019 <main+0x28a>
    3e79: 85 1c        	sta	$1c                     ; 0x201c <main+0x28d>
    3e7b: a5 15        	lda	$15                     ; 0x2015 <main+0x286>
    3e7d: 65 18        	adc	$18                     ; 0x2018 <main+0x289>
    3e7f: 85 1d        	sta	$1d                     ; 0x201d <main+0x28e>
    3e81: b1 1c        	lda	($1c),y                 ; 0x201c <main+0x28d>
    3e83: 85 1c        	sta	$1c                     ; 0x201c <main+0x28d>
    3e85: 18           	clc
    3e86: 69 d0        	adc	#$d0
    3e88: c9 0a        	cmp	#$a
    3e8a: 64 1b        	stz	$1b                     ; 0x201b <main+0x28c>
    3e8c: b0 03        	bcs	$3e91 <_ZN12_GLOBAL__N_15printEPKcP6Status+0x2ee>
    3e8e: 4c 2d 3e     	jmp	$3e2d <_ZN12_GLOBAL__N_15printEPKcP6Status+0x28a>
    3e91: a5 14        	lda	$14                     ; 0x2014 <main+0x285>
    3e93: 18           	clc
    3e94: 65 19        	adc	$19                     ; 0x2019 <main+0x28a>
    3e96: aa           	tax
    3e97: a5 15        	lda	$15                     ; 0x2015 <main+0x286>
    3e99: 65 18        	adc	$18                     ; 0x2018 <main+0x289>
    3e9b: 86 18        	stx	$18                     ; 0x2018 <main+0x289>
    3e9d: 85 19        	sta	$19                     ; 0x2019 <main+0x28a>
    3e9f: a5 8c        	lda	$8c                     ; 0x208c <main+0x2fd>
    3ea1: 18           	clc
    3ea2: 69 0d        	adc	#$d
    3ea4: 85 14        	sta	$14                     ; 0x2014 <main+0x285>
    3ea6: a5 8d        	lda	$8d                     ; 0x208d <main+0x2fe>
    3ea8: 69 00        	adc	#$0
    3eaa: a0 0d        	ldy	#$d
    3eac: 85 15        	sta	$15                     ; 0x2015 <main+0x286>
    3eae: a5 1f        	lda	$1f                     ; 0x201f <main+0x290>
    3eb0: 85 1a        	sta	$1a                     ; 0x201a <main+0x28b>
    3eb2: 91 8c        	sta	($8c),y                 ; 0x208c <main+0x2fd>
    3eb4: a0 01        	ldy	#$1
    3eb6: a5 1e        	lda	$1e                     ; 0x201e <main+0x28f>
    3eb8: 91 14        	sta	($14),y                 ; 0x2014 <main+0x285>
    3eba: e6 18        	inc	$18                     ; 0x2018 <main+0x289>
    3ebc: d0 1f        	bne	$3edd <_ZN12_GLOBAL__N_15printEPKcP6Status+0x33a>
    3ebe: e6 19        	inc	$19                     ; 0x2019 <main+0x28a>
    3ec0: 80 1b        	bra	$3edd <_ZN12_GLOBAL__N_15printEPKcP6Status+0x33a>
    3ec2: a0 0d        	ldy	#$d
    3ec4: a5 8c        	lda	$8c                     ; 0x208c <main+0x2fd>
    3ec6: 18           	clc
    3ec7: 69 0d        	adc	#$d
    3ec9: 85 14        	sta	$14                     ; 0x2014 <main+0x285>
    3ecb: a5 8d        	lda	$8d                     ; 0x208d <main+0x2fe>
    3ecd: 69 00        	adc	#$0
    3ecf: 85 15        	sta	$15                     ; 0x2015 <main+0x286>
    3ed1: a9 00        	lda	#$0
    3ed3: 91 8c        	sta	($8c),y                 ; 0x208c <main+0x2fd>
    3ed5: a0 01        	ldy	#$1
    3ed7: 64 1a        	stz	$1a                     ; 0x201a <main+0x28b>
    3ed9: 91 14        	sta	($14),y                 ; 0x2014 <main+0x285>
    3edb: 64 1e        	stz	$1e                     ; 0x201e <main+0x28f>
    3edd: a5 92        	lda	$92                     ; 0x2092 <main+0x303>
    3edf: 29 ef        	and	#$ef
    3ee1: a6 8c        	ldx	$8c                     ; 0x208c <main+0x2fd>
    3ee3: 86 14        	stx	$14                     ; 0x2014 <main+0x285>
    3ee5: a6 8d        	ldx	$8d                     ; 0x208d <main+0x2fe>
    3ee7: 86 15        	stx	$15                     ; 0x2015 <main+0x286>
    3ee9: e6 14        	inc	$14                     ; 0x2014 <main+0x285>
    3eeb: d0 02        	bne	$3eef <_ZN12_GLOBAL__N_15printEPKcP6Status+0x34c>
    3eed: e6 15        	inc	$15                     ; 0x2015 <main+0x286>
    3eef: 85 92        	sta	$92                     ; 0x2092 <main+0x303>
    3ef1: 91 8c        	sta	($8c),y                 ; 0x208c <main+0x2fd>
    3ef3: a9 00        	lda	#$0
    3ef5: 91 14        	sta	($14),y                 ; 0x2014 <main+0x285>
    3ef7: b2 18        	lda	($18)                   ; 0x2018 <main+0x289>
    3ef9: a6 1e        	ldx	$1e                     ; 0x201e <main+0x28f>
    3efb: 86 1b        	stx	$1b                     ; 0x201b <main+0x28c>
    3efd: a6 18        	ldx	$18                     ; 0x2018 <main+0x289>
    3eff: 86 14        	stx	$14                     ; 0x2014 <main+0x285>
    3f01: a6 19        	ldx	$19                     ; 0x2019 <main+0x28a>
    3f03: 86 15        	stx	$15                     ; 0x2015 <main+0x286>
    3f05: a6 14        	ldx	$14                     ; 0x2014 <main+0x285>
    3f07: 86 18        	stx	$18                     ; 0x2018 <main+0x289>
    3f09: a6 15        	ldx	$15                     ; 0x2015 <main+0x286>
    3f0b: 86 19        	stx	$19                     ; 0x2019 <main+0x28a>
    3f0d: e6 18        	inc	$18                     ; 0x2018 <main+0x289>
    3f0f: d0 02        	bne	$3f13 <_ZN12_GLOBAL__N_15printEPKcP6Status+0x370>
    3f11: e6 19        	inc	$19                     ; 0x2019 <main+0x28a>
    3f13: 38           	sec
    3f14: aa           	tax
    3f15: e9 6c        	sbc	#$6c
    3f17: 50 02        	bvc	$3f1b <_ZN12_GLOBAL__N_15printEPKcP6Status+0x378>
    3f19: 49 80        	eor	#$80
    3f1b: c9 00        	cmp	#$0
    3f1d: 10 20        	bpl	$3f3f <_ZN12_GLOBAL__N_15printEPKcP6Status+0x39c>
    3f1f: e0 4c        	cpx	#$4c
    3f21: f0 3a        	beq	$3f5d <_ZN12_GLOBAL__N_15printEPKcP6Status+0x3ba>
    3f23: 8a           	txa
    3f24: e0 68        	cpx	#$68
    3f26: d0 03        	bne	$3f2b <_ZN12_GLOBAL__N_15printEPKcP6Status+0x388>
    3f28: 4c ef 3f     	jmp	$3fef <_ZN12_GLOBAL__N_15printEPKcP6Status+0x44c>
    3f2b: a0 08        	ldy	#$8
    3f2d: a2 02        	ldx	#$2
    3f2f: c9 6a        	cmp	#$6a
    3f31: d0 26        	bne	$3f59 <_ZN12_GLOBAL__N_15printEPKcP6Status+0x3b6>
    3f33: a6 18        	ldx	$18                     ; 0x2018 <main+0x289>
    3f35: 86 14        	stx	$14                     ; 0x2014 <main+0x285>
    3f37: a6 19        	ldx	$19                     ; 0x2019 <main+0x28a>
    3f39: 86 15        	stx	$15                     ; 0x2015 <main+0x286>
    3f3b: a2 08        	ldx	#$8
    3f3d: 80 44        	bra	$3f83 <_ZN12_GLOBAL__N_15printEPKcP6Status+0x3e0>
    3f3f: e0 6c        	cpx	#$6c
    3f41: d0 03        	bne	$3f46 <_ZN12_GLOBAL__N_15printEPKcP6Status+0x3a3>
    3f43: 4c d3 3f     	jmp	$3fd3 <_ZN12_GLOBAL__N_15printEPKcP6Status+0x430>
    3f46: 8a           	txa
    3f47: e0 74        	cpx	#$74
    3f49: f0 2c        	beq	$3f77 <_ZN12_GLOBAL__N_15printEPKcP6Status+0x3d4>
    3f4b: a2 02        	ldx	#$2
    3f4d: c9 7a        	cmp	#$7a
    3f4f: d0 08        	bne	$3f59 <_ZN12_GLOBAL__N_15printEPKcP6Status+0x3b6>
    3f51: a4 18        	ldy	$18                     ; 0x2018 <main+0x289>
    3f53: 84 14        	sty	$14                     ; 0x2014 <main+0x285>
    3f55: a4 19        	ldy	$19                     ; 0x2019 <main+0x28a>
    3f57: 84 15        	sty	$15                     ; 0x2015 <main+0x286>
    3f59: a0 02        	ldy	#$2
    3f5b: 80 26        	bra	$3f83 <_ZN12_GLOBAL__N_15printEPKcP6Status+0x3e0>
    3f5d: a5 92        	lda	$92                     ; 0x2092 <main+0x303>
    3f5f: 09 40        	ora	#$40
    3f61: a6 8c        	ldx	$8c                     ; 0x208c <main+0x2fd>
    3f63: 86 14        	stx	$14                     ; 0x2014 <main+0x285>
    3f65: a6 8d        	ldx	$8d                     ; 0x208d <main+0x2fe>
    3f67: 86 15        	stx	$15                     ; 0x2015 <main+0x286>
    3f69: e6 14        	inc	$14                     ; 0x2014 <main+0x285>
    3f6b: d0 02        	bne	$3f6f <_ZN12_GLOBAL__N_15printEPKcP6Status+0x3cc>
    3f6d: e6 15        	inc	$15                     ; 0x2015 <main+0x286>
    3f6f: 85 92        	sta	$92                     ; 0x2092 <main+0x303>
    3f71: 91 8c        	sta	($8c),y                 ; 0x208c <main+0x2fd>
    3f73: a9 00        	lda	#$0
    3f75: 91 14        	sta	($14),y                 ; 0x2014 <main+0x285>
    3f77: a6 18        	ldx	$18                     ; 0x2018 <main+0x289>
    3f79: 86 14        	stx	$14                     ; 0x2014 <main+0x285>
    3f7b: a6 19        	ldx	$19                     ; 0x2019 <main+0x28a>
    3f7d: 86 15        	stx	$15                     ; 0x2015 <main+0x286>
    3f7f: a0 02        	ldy	#$2
    3f81: a2 02        	ldx	#$2
    3f83: b2 14        	lda	($14)                   ; 0x2014 <main+0x285>
    3f85: 5a           	phy
    3f86: a4 14        	ldy	$14                     ; 0x2014 <main+0x285>
    3f88: 84 18        	sty	$18                     ; 0x2018 <main+0x289>
    3f8a: a4 15        	ldy	$15                     ; 0x2015 <main+0x286>
    3f8c: 84 19        	sty	$19                     ; 0x2019 <main+0x28a>
    3f8e: 7a           	ply
    3f8f: 86 8e        	stx	$8e                     ; 0x208e <main+0x2ff>
    3f91: 5a           	phy
    3f92: fa           	plx
    3f93: 18           	clc
    3f94: a8           	tay
    3f95: 69 9d        	adc	#$9d
    3f97: c9 16        	cmp	#$16
    3f99: 86 93        	stx	$93                     ; 0x2093 <main+0x304>
    3f9b: 90 03        	bcc	$3fa0 <_ZN12_GLOBAL__N_15printEPKcP6Status+0x3fd>
    3f9d: 4c 0c 40     	jmp	$400c <_ZN12_GLOBAL__N_15printEPKcP6Status+0x469>
    3fa0: 0a           	asl
    3fa1: aa           	tax
    3fa2: 7c 02 54     	jmp	($5402,x)               ; 0x5402 <__set_v+0x30d>
    3fa5: a5 1b        	lda	$1b                     ; 0x201b <main+0x28c>
    3fa7: 85 ba        	sta	$ba                     ; 0x20ba <main+0x32b>
    3fa9: a4 1a        	ldy	$1a                     ; 0x201a <main+0x28b>
    3fab: 84 bb        	sty	$bb                     ; 0x20bb <main+0x32c>
    3fad: a6 16        	ldx	$16                     ; 0x2016 <main+0x287>
    3faf: 86 bd        	stx	$bd                     ; 0x20bd <main+0x32e>
    3fb1: a6 17        	ldx	$17                     ; 0x2017 <main+0x288>
    3fb3: 86 bc        	stx	$bc                     ; 0x20bc <main+0x32d>
    3fb5: a6 18        	ldx	$18                     ; 0x2018 <main+0x289>
    3fb7: 86 12        	stx	$12                     ; 0x2012 <main+0x283>
    3fb9: a6 19        	ldx	$19                     ; 0x2019 <main+0x28a>
    3fbb: 86 13        	stx	$13                     ; 0x2013 <main+0x284>
    3fbd: a6 12        	ldx	$12                     ; 0x2012 <main+0x283>
    3fbf: 86 b6        	stx	$b6                     ; 0x20b6 <main+0x327>
    3fc1: a6 13        	ldx	$13                     ; 0x2013 <main+0x284>
    3fc3: 86 b7        	stx	$b7                     ; 0x20b7 <main+0x328>
    3fc5: a9 0a        	lda	#$a
    3fc7: aa           	tax
    3fc8: 86 b5        	stx	$b5                     ; 0x20b5 <main+0x326>
    3fca: 92 8c        	sta	($8c)                   ; 0x208c <main+0x2fd>
    3fcc: a2 00        	ldx	#$0
    3fce: 86 be        	stx	$be                     ; 0x20be <main+0x32f>
    3fd0: 4c 30 42     	jmp	$4230 <_ZN12_GLOBAL__N_15printEPKcP6Status+0x68d>
    3fd3: b1 14        	lda	($14),y                 ; 0x2014 <main+0x285>
    3fd5: a2 04        	ldx	#$4
    3fd7: c9 6c        	cmp	#$6c
    3fd9: d0 2c        	bne	$4007 <_ZN12_GLOBAL__N_15printEPKcP6Status+0x464>
    3fdb: a5 14        	lda	$14                     ; 0x2014 <main+0x285>
    3fdd: 18           	clc
    3fde: 69 02        	adc	#$2
    3fe0: 85 14        	sta	$14                     ; 0x2014 <main+0x285>
    3fe2: a5 15        	lda	$15                     ; 0x2015 <main+0x286>
    3fe4: 69 00        	adc	#$0
    3fe6: 85 15        	sta	$15                     ; 0x2015 <main+0x286>
    3fe8: a2 08        	ldx	#$8
    3fea: a0 08        	ldy	#$8
    3fec: 4c 83 3f     	jmp	$3f83 <_ZN12_GLOBAL__N_15printEPKcP6Status+0x3e0>
    3fef: b1 14        	lda	($14),y                 ; 0x2014 <main+0x285>
    3ff1: a2 02        	ldx	#$2
    3ff3: c9 68        	cmp	#$68
    3ff5: d0 10        	bne	$4007 <_ZN12_GLOBAL__N_15printEPKcP6Status+0x464>
    3ff7: a5 14        	lda	$14                     ; 0x2014 <main+0x285>
    3ff9: 18           	clc
    3ffa: 69 02        	adc	#$2
    3ffc: 85 14        	sta	$14                     ; 0x2014 <main+0x285>
    3ffe: a5 15        	lda	$15                     ; 0x2015 <main+0x286>
    4000: 69 00        	adc	#$0
    4002: 85 15        	sta	$15                     ; 0x2015 <main+0x286>
    4004: 4c 83 3f     	jmp	$3f83 <_ZN12_GLOBAL__N_15printEPKcP6Status+0x3e0>
    4007: 86 8e        	stx	$8e                     ; 0x208e <main+0x2ff>
    4009: 4c 93 3f     	jmp	$3f93 <_ZN12_GLOBAL__N_15printEPKcP6Status+0x3f0>
    400c: c0 58        	cpy	#$58
    400e: f0 03        	beq	$4013 <_ZN12_GLOBAL__N_15printEPKcP6Status+0x470>
    4010: 4c d6 46     	jmp	$46d6 <_ZN12_GLOBAL__N_15printEPKcP6Status+0xb33>
    4013: a5 1b        	lda	$1b                     ; 0x201b <main+0x28c>
    4015: 85 ba        	sta	$ba                     ; 0x20ba <main+0x32b>
    4017: a4 1a        	ldy	$1a                     ; 0x201a <main+0x28b>
    4019: 84 bb        	sty	$bb                     ; 0x20bb <main+0x32c>
    401b: a6 16        	ldx	$16                     ; 0x2016 <main+0x287>
    401d: 86 bd        	stx	$bd                     ; 0x20bd <main+0x32e>
    401f: a6 17        	ldx	$17                     ; 0x2017 <main+0x288>
    4021: 86 bc        	stx	$bc                     ; 0x20bc <main+0x32d>
    4023: a6 18        	ldx	$18                     ; 0x2018 <main+0x289>
    4025: 86 12        	stx	$12                     ; 0x2012 <main+0x283>
    4027: a6 19        	ldx	$19                     ; 0x2019 <main+0x28a>
    4029: 86 13        	stx	$13                     ; 0x2013 <main+0x284>
    402b: a6 12        	ldx	$12                     ; 0x2012 <main+0x283>
    402d: 86 b6        	stx	$b6                     ; 0x20b6 <main+0x327>
    402f: a6 13        	ldx	$13                     ; 0x2013 <main+0x284>
    4031: 86 b7        	stx	$b7                     ; 0x20b7 <main+0x328>
    4033: a9 10        	lda	#$10
    4035: 4c 10 42     	jmp	$4210 <_ZN12_GLOBAL__N_15printEPKcP6Status+0x66d>
    4038: a5 1b        	lda	$1b                     ; 0x201b <main+0x28c>
    403a: 85 ba        	sta	$ba                     ; 0x20ba <main+0x32b>
    403c: a4 1a        	ldy	$1a                     ; 0x201a <main+0x28b>
    403e: 84 bb        	sty	$bb                     ; 0x20bb <main+0x32c>
    4040: a6 16        	ldx	$16                     ; 0x2016 <main+0x287>
    4042: 86 bd        	stx	$bd                     ; 0x20bd <main+0x32e>
    4044: a6 17        	ldx	$17                     ; 0x2017 <main+0x288>
    4046: 86 bc        	stx	$bc                     ; 0x20bc <main+0x32d>
    4048: a6 18        	ldx	$18                     ; 0x2018 <main+0x289>
    404a: 86 12        	stx	$12                     ; 0x2012 <main+0x283>
    404c: a6 19        	ldx	$19                     ; 0x2019 <main+0x28a>
    404e: 86 13        	stx	$13                     ; 0x2013 <main+0x284>
    4050: a6 12        	ldx	$12                     ; 0x2012 <main+0x283>
    4052: 86 b6        	stx	$b6                     ; 0x20b6 <main+0x327>
    4054: a6 13        	ldx	$13                     ; 0x2013 <main+0x284>
    4056: 86 b7        	stx	$b7                     ; 0x20b7 <main+0x328>
    4058: a9 10        	lda	#$10
    405a: 92 8c        	sta	($8c)                   ; 0x208c <main+0x2fd>
    405c: a5 92        	lda	$92                     ; 0x2092 <main+0x303>
    405e: 09 84        	ora	#$84
    4060: aa           	tax
    4061: a9 00        	lda	#$0
    4063: 09 01        	ora	#$1
    4065: 85 14        	sta	$14                     ; 0x2014 <main+0x285>
    4067: a4 8c        	ldy	$8c                     ; 0x208c <main+0x2fd>
    4069: 84 12        	sty	$12                     ; 0x2012 <main+0x283>
    406b: a4 8d        	ldy	$8d                     ; 0x208d <main+0x2fe>
    406d: 84 13        	sty	$13                     ; 0x2013 <main+0x284>
    406f: e6 12        	inc	$12                     ; 0x2012 <main+0x283>
    4071: d0 02        	bne	$4075 <_ZN12_GLOBAL__N_15printEPKcP6Status+0x4d2>
    4073: e6 13        	inc	$13                     ; 0x2013 <main+0x284>
    4075: a0 01        	ldy	#$1
    4077: 86 92        	stx	$92                     ; 0x2092 <main+0x303>
    4079: 8a           	txa
    407a: 91 8c        	sta	($8c),y                 ; 0x208c <main+0x2fd>
    407c: a5 14        	lda	$14                     ; 0x2014 <main+0x285>
    407e: a6 14        	ldx	$14                     ; 0x2014 <main+0x285>
    4080: 4c 2c 42     	jmp	$422c <_ZN12_GLOBAL__N_15printEPKcP6Status+0x689>
    4083: a5 1b        	lda	$1b                     ; 0x201b <main+0x28c>
    4085: 85 ba        	sta	$ba                     ; 0x20ba <main+0x32b>
    4087: a4 1a        	ldy	$1a                     ; 0x201a <main+0x28b>
    4089: 84 bb        	sty	$bb                     ; 0x20bb <main+0x32c>
    408b: a6 16        	ldx	$16                     ; 0x2016 <main+0x287>
    408d: 86 bd        	stx	$bd                     ; 0x20bd <main+0x32e>
    408f: a6 17        	ldx	$17                     ; 0x2017 <main+0x288>
    4091: 86 bc        	stx	$bc                     ; 0x20bc <main+0x32d>
    4093: a6 18        	ldx	$18                     ; 0x2018 <main+0x289>
    4095: 86 12        	stx	$12                     ; 0x2012 <main+0x283>
    4097: a6 19        	ldx	$19                     ; 0x2019 <main+0x28a>
    4099: 86 13        	stx	$13                     ; 0x2013 <main+0x284>
    409b: a6 12        	ldx	$12                     ; 0x2012 <main+0x283>
    409d: 86 b6        	stx	$b6                     ; 0x20b6 <main+0x327>
    409f: a6 13        	ldx	$13                     ; 0x2013 <main+0x284>
    40a1: 86 b7        	stx	$b7                     ; 0x20b7 <main+0x328>
    40a3: a9 10        	lda	#$10
    40a5: 92 8c        	sta	($8c)                   ; 0x208c <main+0x2fd>
    40a7: a5 92        	lda	$92                     ; 0x2092 <main+0x303>
    40a9: 09 80        	ora	#$80
    40ab: 85 14        	sta	$14                     ; 0x2014 <main+0x285>
    40ad: a9 00        	lda	#$0
    40af: 09 01        	ora	#$1
    40b1: aa           	tax
    40b2: a4 8c        	ldy	$8c                     ; 0x208c <main+0x2fd>
    40b4: 84 12        	sty	$12                     ; 0x2012 <main+0x283>
    40b6: a4 8d        	ldy	$8d                     ; 0x208d <main+0x2fe>
    40b8: 84 13        	sty	$13                     ; 0x2013 <main+0x284>
    40ba: e6 12        	inc	$12                     ; 0x2012 <main+0x283>
    40bc: d0 02        	bne	$40c0 <_ZN12_GLOBAL__N_15printEPKcP6Status+0x51d>
    40be: e6 13        	inc	$13                     ; 0x2013 <main+0x284>
    40c0: a0 01        	ldy	#$1
    40c2: a5 14        	lda	$14                     ; 0x2014 <main+0x285>
    40c4: 85 92        	sta	$92                     ; 0x2092 <main+0x303>
    40c6: 4c 29 42     	jmp	$4229 <_ZN12_GLOBAL__N_15printEPKcP6Status+0x686>
    40c9: a4 8c        	ldy	$8c                     ; 0x208c <main+0x2fd>
    40cb: a5 8c        	lda	$8c                     ; 0x208c <main+0x2fd>
    40cd: 84 16        	sty	$16                     ; 0x2016 <main+0x287>
    40cf: 18           	clc
    40d0: 69 11        	adc	#$11
    40d2: 85 12        	sta	$12                     ; 0x2012 <main+0x283>
    40d4: a5 8d        	lda	$8d                     ; 0x208d <main+0x2fe>
    40d6: 69 00        	adc	#$0
    40d8: 85 13        	sta	$13                     ; 0x2013 <main+0x284>
    40da: a0 11        	ldy	#$11
    40dc: b1 8c        	lda	($8c),y                 ; 0x208c <main+0x2fd>
    40de: 85 14        	sta	$14                     ; 0x2014 <main+0x285>
    40e0: 18           	clc
    40e1: 69 02        	adc	#$2
    40e3: 91 8c        	sta	($8c),y                 ; 0x208c <main+0x2fd>
    40e5: a0 01        	ldy	#$1
    40e7: b1 12        	lda	($12),y                 ; 0x2012 <main+0x283>
    40e9: 85 15        	sta	$15                     ; 0x2015 <main+0x286>
    40eb: 69 00        	adc	#$0
    40ed: 18           	clc
    40ee: 91 12        	sta	($12),y                 ; 0x2012 <main+0x283>
    40f0: b2 14        	lda	($14)                   ; 0x2014 <main+0x285>
    40f2: 85 12        	sta	$12                     ; 0x2012 <main+0x283>
    40f4: b1 14        	lda	($14),y                 ; 0x2014 <main+0x285>
    40f6: 85 13        	sta	$13                     ; 0x2013 <main+0x284>
    40f8: a5 16        	lda	$16                     ; 0x2016 <main+0x287>
    40fa: 69 05        	adc	#$5
    40fc: 85 14        	sta	$14                     ; 0x2014 <main+0x285>
    40fe: a5 8d        	lda	$8d                     ; 0x208d <main+0x2fe>
    4100: 69 00        	adc	#$0
    4102: 85 15        	sta	$15                     ; 0x2015 <main+0x286>
    4104: a0 05        	ldy	#$5
    4106: b1 8c        	lda	($8c),y                 ; 0x208c <main+0x2fd>
    4108: 85 16        	sta	$16                     ; 0x2016 <main+0x287>
    410a: a0 01        	ldy	#$1
    410c: b1 14        	lda	($14),y                 ; 0x2014 <main+0x285>
    410e: 85 14        	sta	$14                     ; 0x2014 <main+0x285>
    4110: a5 16        	lda	$16                     ; 0x2016 <main+0x287>
    4112: 92 12        	sta	($12)                   ; 0x2012 <main+0x283>
    4114: a5 14        	lda	$14                     ; 0x2014 <main+0x285>
    4116: 91 12        	sta	($12),y                 ; 0x2012 <main+0x283>
    4118: e6 18        	inc	$18                     ; 0x2018 <main+0x289>
    411a: d0 02        	bne	$411e <_ZN12_GLOBAL__N_15printEPKcP6Status+0x57b>
    411c: e6 19        	inc	$19                     ; 0x2019 <main+0x28a>
    411e: a6 18        	ldx	$18                     ; 0x2018 <main+0x289>
    4120: 86 12        	stx	$12                     ; 0x2012 <main+0x283>
    4122: a6 19        	ldx	$19                     ; 0x2019 <main+0x28a>
    4124: 4c e8 41     	jmp	$41e8 <_ZN12_GLOBAL__N_15printEPKcP6Status+0x645>
    4127: a0 11        	ldy	#$11
    4129: a5 8c        	lda	$8c                     ; 0x208c <main+0x2fd>
    412b: 18           	clc
    412c: 69 11        	adc	#$11
    412e: 85 12        	sta	$12                     ; 0x2012 <main+0x283>
    4130: a5 8d        	lda	$8d                     ; 0x208d <main+0x2fe>
    4132: 69 00        	adc	#$0
    4134: 85 13        	sta	$13                     ; 0x2013 <main+0x284>
    4136: b1 8c        	lda	($8c),y                 ; 0x208c <main+0x2fd>
    4138: aa           	tax
    4139: a0 01        	ldy	#$1
    413b: b1 12        	lda	($12),y                 ; 0x2012 <main+0x283>
    413d: 86 14        	stx	$14                     ; 0x2014 <main+0x285>
    413f: 85 15        	sta	$15                     ; 0x2015 <main+0x286>
    4141: a8           	tay
    4142: 18           	clc
    4143: 8a           	txa
    4144: 69 02        	adc	#$2
    4146: 85 16        	sta	$16                     ; 0x2016 <main+0x287>
    4148: 98           	tya
    4149: 69 00        	adc	#$0
    414b: 85 17        	sta	$17                     ; 0x2017 <main+0x288>
    414d: a5 16        	lda	$16                     ; 0x2016 <main+0x287>
    414f: a0 11        	ldy	#$11
    4151: 91 8c        	sta	($8c),y                 ; 0x208c <main+0x2fd>
    4153: a0 01        	ldy	#$1
    4155: a5 17        	lda	$17                     ; 0x2017 <main+0x288>
    4157: 91 12        	sta	($12),y                 ; 0x2012 <main+0x283>
    4159: b2 14        	lda	($14)                   ; 0x2014 <main+0x285>
    415b: 85 12        	sta	$12                     ; 0x2012 <main+0x283>
    415d: b1 14        	lda	($14),y                 ; 0x2014 <main+0x285>
    415f: 85 13        	sta	$13                     ; 0x2013 <main+0x284>
    4161: 4c c9 41     	jmp	$41c9 <_ZN12_GLOBAL__N_15printEPKcP6Status+0x626>
    4164: a5 1b        	lda	$1b                     ; 0x201b <main+0x28c>
    4166: 85 ba        	sta	$ba                     ; 0x20ba <main+0x32b>
    4168: a4 1a        	ldy	$1a                     ; 0x201a <main+0x28b>
    416a: 84 bb        	sty	$bb                     ; 0x20bb <main+0x32c>
    416c: a6 16        	ldx	$16                     ; 0x2016 <main+0x287>
    416e: 86 bd        	stx	$bd                     ; 0x20bd <main+0x32e>
    4170: a6 17        	ldx	$17                     ; 0x2017 <main+0x288>
    4172: 86 bc        	stx	$bc                     ; 0x20bc <main+0x32d>
    4174: a6 18        	ldx	$18                     ; 0x2018 <main+0x289>
    4176: 86 12        	stx	$12                     ; 0x2012 <main+0x283>
    4178: a6 19        	ldx	$19                     ; 0x2019 <main+0x28a>
    417a: 86 13        	stx	$13                     ; 0x2013 <main+0x284>
    417c: a6 12        	ldx	$12                     ; 0x2012 <main+0x283>
    417e: 86 b6        	stx	$b6                     ; 0x20b6 <main+0x327>
    4180: a6 13        	ldx	$13                     ; 0x2013 <main+0x284>
    4182: 86 b7        	stx	$b7                     ; 0x20b7 <main+0x328>
    4184: a9 08        	lda	#$8
    4186: 4c 0d 42     	jmp	$420d <_ZN12_GLOBAL__N_15printEPKcP6Status+0x66a>
    4189: a0 11        	ldy	#$11
    418b: a5 8c        	lda	$8c                     ; 0x208c <main+0x2fd>
    418d: 18           	clc
    418e: 69 11        	adc	#$11
    4190: 85 12        	sta	$12                     ; 0x2012 <main+0x283>
    4192: a5 8d        	lda	$8d                     ; 0x208d <main+0x2fe>
    4194: 69 00        	adc	#$0
    4196: 85 13        	sta	$13                     ; 0x2013 <main+0x284>
    4198: b1 8c        	lda	($8c),y                 ; 0x208c <main+0x2fd>
    419a: aa           	tax
    419b: a0 01        	ldy	#$1
    419d: b1 12        	lda	($12),y                 ; 0x2012 <main+0x283>
    419f: 86 14        	stx	$14                     ; 0x2014 <main+0x285>
    41a1: 85 15        	sta	$15                     ; 0x2015 <main+0x286>
    41a3: a8           	tay
    41a4: 18           	clc
    41a5: 8a           	txa
    41a6: 69 02        	adc	#$2
    41a8: 85 16        	sta	$16                     ; 0x2016 <main+0x287>
    41aa: 98           	tya
    41ab: 69 00        	adc	#$0
    41ad: 85 17        	sta	$17                     ; 0x2017 <main+0x288>
    41af: a5 16        	lda	$16                     ; 0x2016 <main+0x287>
    41b1: a0 11        	ldy	#$11
    41b3: 91 8c        	sta	($8c),y                 ; 0x208c <main+0x2fd>
    41b5: a0 01        	ldy	#$1
    41b7: a5 17        	lda	$17                     ; 0x2017 <main+0x288>
    41b9: 91 12        	sta	($12),y                 ; 0x2012 <main+0x283>
    41bb: b2 14        	lda	($14)                   ; 0x2014 <main+0x285>
    41bd: 85 95        	sta	$95                     ; 0x2095 <main+0x306>
    41bf: 64 96        	stz	$96                     ; 0x2096 <main+0x307>
    41c1: a2 95        	ldx	#$95
    41c3: a0 00        	ldy	#$0
    41c5: 86 12        	stx	$12                     ; 0x2012 <main+0x283>
    41c7: 84 13        	sty	$13                     ; 0x2013 <main+0x284>
    41c9: a6 18        	ldx	$18                     ; 0x2018 <main+0x289>
    41cb: 86 8e        	stx	$8e                     ; 0x208e <main+0x2ff>
    41cd: a6 19        	ldx	$19                     ; 0x2019 <main+0x28a>
    41cf: 86 8f        	stx	$8f                     ; 0x208f <main+0x300>
    41d1: a6 8c        	ldx	$8c                     ; 0x208c <main+0x2fd>
    41d3: 86 14        	stx	$14                     ; 0x2014 <main+0x285>
    41d5: a6 8d        	ldx	$8d                     ; 0x208d <main+0x2fe>
    41d7: 86 15        	stx	$15                     ; 0x2015 <main+0x286>
    41d9: 20 aa 47     	jsr	$47aa <_ZN12_GLOBAL__N_112print_stringEPKcP6Status>
    41dc: e6 8e        	inc	$8e                     ; 0x208e <main+0x2ff>
    41de: d0 02        	bne	$41e2 <_ZN12_GLOBAL__N_15printEPKcP6Status+0x63f>
    41e0: e6 8f        	inc	$8f                     ; 0x208f <main+0x300>
    41e2: a6 8e        	ldx	$8e                     ; 0x208e <main+0x2ff>
    41e4: 86 12        	stx	$12                     ; 0x2012 <main+0x283>
    41e6: a6 8f        	ldx	$8f                     ; 0x208f <main+0x300>
    41e8: 86 13        	stx	$13                     ; 0x2013 <main+0x284>
    41ea: 60           	rts
    41eb: a5 1b        	lda	$1b                     ; 0x201b <main+0x28c>
    41ed: 85 ba        	sta	$ba                     ; 0x20ba <main+0x32b>
    41ef: a4 1a        	ldy	$1a                     ; 0x201a <main+0x28b>
    41f1: 84 bb        	sty	$bb                     ; 0x20bb <main+0x32c>
    41f3: a6 16        	ldx	$16                     ; 0x2016 <main+0x287>
    41f5: 86 bd        	stx	$bd                     ; 0x20bd <main+0x32e>
    41f7: a6 17        	ldx	$17                     ; 0x2017 <main+0x288>
    41f9: 86 bc        	stx	$bc                     ; 0x20bc <main+0x32d>
    41fb: a6 18        	ldx	$18                     ; 0x2018 <main+0x289>
    41fd: 86 12        	stx	$12                     ; 0x2012 <main+0x283>
    41ff: a6 19        	ldx	$19                     ; 0x2019 <main+0x28a>
    4201: 86 13        	stx	$13                     ; 0x2013 <main+0x284>
    4203: a6 12        	ldx	$12                     ; 0x2012 <main+0x283>
    4205: 86 b6        	stx	$b6                     ; 0x20b6 <main+0x327>
    4207: a6 13        	ldx	$13                     ; 0x2013 <main+0x284>
    4209: 86 b7        	stx	$b7                     ; 0x20b7 <main+0x328>
    420b: a9 0a        	lda	#$a
    420d: aa           	tax
    420e: 86 b5        	stx	$b5                     ; 0x20b5 <main+0x326>
    4210: 92 8c        	sta	($8c)                   ; 0x208c <main+0x2fd>
    4212: a9 00        	lda	#$0
    4214: 09 01        	ora	#$1
    4216: aa           	tax
    4217: a4 8c        	ldy	$8c                     ; 0x208c <main+0x2fd>
    4219: 84 12        	sty	$12                     ; 0x2012 <main+0x283>
    421b: a4 8d        	ldy	$8d                     ; 0x208d <main+0x2fe>
    421d: 84 13        	sty	$13                     ; 0x2013 <main+0x284>
    421f: e6 12        	inc	$12                     ; 0x2012 <main+0x283>
    4221: d0 02        	bne	$4225 <_ZN12_GLOBAL__N_15printEPKcP6Status+0x682>
    4223: e6 13        	inc	$13                     ; 0x2013 <main+0x284>
    4225: a0 01        	ldy	#$1
    4227: a5 92        	lda	$92                     ; 0x2092 <main+0x303>
    4229: 91 8c        	sta	($8c),y                 ; 0x208c <main+0x2fd>
    422b: 8a           	txa
    422c: 86 be        	stx	$be                     ; 0x20be <main+0x32f>
    422e: 91 12        	sta	($12),y                 ; 0x2012 <main+0x283>
    4230: a2 ac        	ldx	#$ac
    4232: a0 00        	ldy	#$0
    4234: 86 12        	stx	$12                     ; 0x2012 <main+0x283>
    4236: 84 13        	sty	$13                     ; 0x2013 <main+0x284>
    4238: e6 12        	inc	$12                     ; 0x2012 <main+0x283>
    423a: d0 02        	bne	$423e <_ZN12_GLOBAL__N_15printEPKcP6Status+0x69b>
    423c: e6 13        	inc	$13                     ; 0x2013 <main+0x284>
    423e: a0 11        	ldy	#$11
    4240: a2 00        	ldx	#$0
    4242: a5 8c        	lda	$8c                     ; 0x208c <main+0x2fd>
    4244: 18           	clc
    4245: 69 11        	adc	#$11
    4247: 85 90        	sta	$90                     ; 0x2090 <main+0x301>
    4249: a5 8d        	lda	$8d                     ; 0x208d <main+0x2fe>
    424b: 69 00        	adc	#$0
    424d: 85 91        	sta	$91                     ; 0x2091 <main+0x302>
    424f: b1 8c        	lda	($8c),y                 ; 0x208c <main+0x2fd>
    4251: 85 8f        	sta	$8f                     ; 0x208f <main+0x300>
    4253: a0 01        	ldy	#$1
    4255: b1 90        	lda	($90),y                 ; 0x2090 <main+0x301>
    4257: 85 bf        	sta	$bf                     ; 0x20bf <main+0x330>
    4259: a4 8f        	ldy	$8f                     ; 0x208f <main+0x300>
    425b: 84 14        	sty	$14                     ; 0x2014 <main+0x285>
    425d: 85 15        	sta	$15                     ; 0x2015 <main+0x286>
    425f: 64 94        	stz	$94                     ; 0x2094 <main+0x305>
    4261: a5 93        	lda	$93                     ; 0x2093 <main+0x304>
    4263: a4 93        	ldy	$93                     ; 0x2093 <main+0x304>
    4265: 84 c0        	sty	$c0                     ; 0x20c0 <main+0x331>
    4267: 20 5e 4f     	jsr	$4f5e <memcpy>
    426a: a2 00        	ldx	#$0
    426c: 86 b9        	stx	$b9                     ; 0x20b9 <main+0x32a>
    426e: 18           	clc
    426f: a5 8f        	lda	$8f                     ; 0x208f <main+0x300>
    4271: 65 8e        	adc	$8e                     ; 0x208e <main+0x2ff>
    4273: 85 13        	sta	$13                     ; 0x2013 <main+0x284>
    4275: a5 bf        	lda	$bf                     ; 0x20bf <main+0x330>
    4277: 69 00        	adc	#$0
    4279: 85 12        	sta	$12                     ; 0x2012 <main+0x283>
    427b: a0 11        	ldy	#$11
    427d: a5 13        	lda	$13                     ; 0x2013 <main+0x284>
    427f: 91 8c        	sta	($8c),y                 ; 0x208c <main+0x2fd>
    4281: a0 01        	ldy	#$1
    4283: a5 12        	lda	$12                     ; 0x2012 <main+0x283>
    4285: 91 90        	sta	($90),y                 ; 0x2090 <main+0x301>
    4287: a5 be        	lda	$be                     ; 0x20be <main+0x32f>
    4289: 29 01        	and	#$1
    428b: d0 4c        	bne	$42d9 <_ZN12_GLOBAL__N_15printEPKcP6Status+0x736>
    428d: a6 c0        	ldx	$c0                     ; 0x20c0 <main+0x331>
    428f: b4 ac        	ldy	$ac,x                   ; 0x20ac <main+0x31d>
    4291: a6 bc        	ldx	$bc                     ; 0x20bc <main+0x32d>
    4293: 86 12        	stx	$12                     ; 0x2012 <main+0x283>
    4295: a6 bd        	ldx	$bd                     ; 0x20bd <main+0x32e>
    4297: 86 13        	stx	$13                     ; 0x2013 <main+0x284>
    4299: a6 bb        	ldx	$bb                     ; 0x20bb <main+0x32c>
    429b: 86 8e        	stx	$8e                     ; 0x208e <main+0x2ff>
    429d: a6 ba        	ldx	$ba                     ; 0x20ba <main+0x32b>
    429f: 86 8f        	stx	$8f                     ; 0x208f <main+0x300>
    42a1: 98           	tya
    42a2: 10 45        	bpl	$42e9 <_ZN12_GLOBAL__N_15printEPKcP6Status+0x746>
    42a4: a2 00        	ldx	#$0
    42a6: 64 14        	stz	$14                     ; 0x2014 <main+0x285>
    42a8: 38           	sec
    42a9: a9 00        	lda	#$0
    42ab: f5 ad        	sbc	$ad,x                   ; 0x20ad <main+0x31e>
    42ad: a0 00        	ldy	#$0
    42af: b0 02        	bcs	$42b3 <_ZN12_GLOBAL__N_15printEPKcP6Status+0x710>
    42b1: a0 01        	ldy	#$1
    42b3: 38           	sec
    42b4: e5 14        	sbc	$14                     ; 0x2014 <main+0x285>
    42b6: 85 15        	sta	$15                     ; 0x2015 <main+0x286>
    42b8: 64 14        	stz	$14                     ; 0x2014 <main+0x285>
    42ba: b0 04        	bcs	$42c0 <_ZN12_GLOBAL__N_15printEPKcP6Status+0x71d>
    42bc: a9 01        	lda	#$1
    42be: 85 14        	sta	$14                     ; 0x2014 <main+0x285>
    42c0: 98           	tya
    42c1: 05 14        	ora	$14                     ; 0x2014 <main+0x285>
    42c3: 85 14        	sta	$14                     ; 0x2014 <main+0x285>
    42c5: a5 15        	lda	$15                     ; 0x2015 <main+0x286>
    42c7: 9d ad 00     	sta	$ad,x                   ; 0xad <__rc31+0x7e>
    42ca: e8           	inx
    42cb: 86 15        	stx	$15                     ; 0x2015 <main+0x286>
    42cd: a4 93        	ldy	$93                     ; 0x2093 <main+0x304>
    42cf: c4 15        	cpy	$15                     ; 0x2015 <main+0x286>
    42d1: d0 d5        	bne	$42a8 <_ZN12_GLOBAL__N_15printEPKcP6Status+0x705>
    42d3: a2 01        	ldx	#$1
    42d5: 86 b9        	stx	$b9                     ; 0x20b9 <main+0x32a>
    42d7: 80 10        	bra	$42e9 <_ZN12_GLOBAL__N_15printEPKcP6Status+0x746>
    42d9: a6 bc        	ldx	$bc                     ; 0x20bc <main+0x32d>
    42db: 86 12        	stx	$12                     ; 0x2012 <main+0x283>
    42dd: a6 bd        	ldx	$bd                     ; 0x20bd <main+0x32e>
    42df: 86 13        	stx	$13                     ; 0x2013 <main+0x284>
    42e1: a6 bb        	ldx	$bb                     ; 0x20bb <main+0x32c>
    42e3: 86 8e        	stx	$8e                     ; 0x208e <main+0x2ff>
    42e5: a6 ba        	ldx	$ba                     ; 0x20ba <main+0x32b>
    42e7: 86 8f        	stx	$8f                     ; 0x208f <main+0x300>
    42e9: a5 93        	lda	$93                     ; 0x2093 <main+0x304>
    42eb: 0a           	asl
    42ec: 0a           	asl
    42ed: 0a           	asl
    42ee: 85 14        	sta	$14                     ; 0x2014 <main+0x285>
    42f0: 64 91        	stz	$91                     ; 0x2091 <main+0x302>
    42f2: a5 91        	lda	$91                     ; 0x2091 <main+0x302>
    42f4: f0 50        	beq	$4346 <_ZN12_GLOBAL__N_15printEPKcP6Status+0x7a3>
    42f6: a6 91        	ldx	$91                     ; 0x2091 <main+0x302>
    42f8: ca           	dex
    42f9: 86 17        	stx	$17                     ; 0x2017 <main+0x288>
    42fb: a2 00        	ldx	#$0
    42fd: 64 15        	stz	$15                     ; 0x2015 <main+0x286>
    42ff: 80 0d        	bra	$430e <_ZN12_GLOBAL__N_15printEPKcP6Status+0x76b>
    4301: a4 15        	ldy	$15                     ; 0x2015 <main+0x286>
    4303: 99 97 00     	sta	$97,y                   ; 0x97 <__rc31+0x68>
    4306: a4 17        	ldy	$17                     ; 0x2017 <main+0x288>
    4308: c4 15        	cpy	$15                     ; 0x2015 <main+0x286>
    430a: f0 46        	beq	$4352 <_ZN12_GLOBAL__N_15printEPKcP6Status+0x7af>
    430c: e6 15        	inc	$15                     ; 0x2015 <main+0x286>
    430e: a4 15        	ldy	$15                     ; 0x2015 <main+0x286>
    4310: b9 97 00     	lda	$97,y                   ; 0x97 <__rc31+0x68>
    4313: 0a           	asl
    4314: e0 00        	cpx	#$0
    4316: f0 02        	beq	$431a <_ZN12_GLOBAL__N_15printEPKcP6Status+0x777>
    4318: 09 01        	ora	#$1
    431a: a4 b5        	ldy	$b5                     ; 0x20b5 <main+0x326>
    431c: 84 16        	sty	$16                     ; 0x2016 <main+0x287>
    431e: c5 16        	cmp	$16                     ; 0x2016 <main+0x287>
    4320: a2 01        	ldx	#$1
    4322: b0 02        	bcs	$4326 <_ZN12_GLOBAL__N_15printEPKcP6Status+0x783>
    4324: a2 00        	ldx	#$0
    4326: 90 d9        	bcc	$4301 <_ZN12_GLOBAL__N_15printEPKcP6Status+0x75e>
    4328: 84 16        	sty	$16                     ; 0x2016 <main+0x287>
    432a: 38           	sec
    432b: e5 16        	sbc	$16                     ; 0x2016 <main+0x287>
    432d: a4 15        	ldy	$15                     ; 0x2015 <main+0x286>
    432f: 99 97 00     	sta	$97,y                   ; 0x97 <__rc31+0x68>
    4332: a4 17        	ldy	$17                     ; 0x2017 <main+0x288>
    4334: c4 15        	cpy	$15                     ; 0x2015 <main+0x286>
    4336: d0 d4        	bne	$430c <_ZN12_GLOBAL__N_15printEPKcP6Status+0x769>
    4338: a4 91        	ldy	$91                     ; 0x2091 <main+0x302>
    433a: a6 91        	ldx	$91                     ; 0x2091 <main+0x302>
    433c: e8           	inx
    433d: a9 01        	lda	#$1
    433f: 99 97 00     	sta	$97,y                   ; 0x97 <__rc31+0x68>
    4342: da           	phx
    4343: 7a           	ply
    4344: 80 0e        	bra	$4354 <_ZN12_GLOBAL__N_15printEPKcP6Status+0x7b1>
    4346: a6 93        	ldx	$93                     ; 0x2093 <main+0x304>
    4348: b5 ac        	lda	$ac,x                   ; 0x20ac <main+0x31d>
    434a: aa           	tax
    434b: a0 00        	ldy	#$0
    434d: 8a           	txa
    434e: 30 36        	bmi	$4386 <_ZN12_GLOBAL__N_15printEPKcP6Status+0x7e3>
    4350: 80 3e        	bra	$4390 <_ZN12_GLOBAL__N_15printEPKcP6Status+0x7ed>
    4352: a4 91        	ldy	$91                     ; 0x2091 <main+0x302>
    4354: a6 93        	ldx	$93                     ; 0x2093 <main+0x304>
    4356: b5 ac        	lda	$ac,x                   ; 0x20ac <main+0x31d>
    4358: aa           	tax
    4359: 10 35        	bpl	$4390 <_ZN12_GLOBAL__N_15printEPKcP6Status+0x7ed>
    435b: 98           	tya
    435c: f0 26        	beq	$4384 <_ZN12_GLOBAL__N_15printEPKcP6Status+0x7e1>
    435e: 84 16        	sty	$16                     ; 0x2016 <main+0x287>
    4360: a2 00        	ldx	#$0
    4362: a4 b5        	ldy	$b5                     ; 0x20b5 <main+0x326>
    4364: b5 97        	lda	$97,x                   ; 0x2097 <main+0x308>
    4366: 1a           	inc
    4367: f6 97        	inc	$97,x                   ; 0x2097 <main+0x308>
    4369: 84 15        	sty	$15                     ; 0x2015 <main+0x286>
    436b: c5 15        	cmp	$15                     ; 0x2015 <main+0x286>
    436d: 90 4a        	bcc	$43b9 <_ZN12_GLOBAL__N_15printEPKcP6Status+0x816>
    436f: 84 15        	sty	$15                     ; 0x2015 <main+0x286>
    4371: 38           	sec
    4372: e5 15        	sbc	$15                     ; 0x2015 <main+0x286>
    4374: 9d 97 00     	sta	$97,x                   ; 0x97 <__rc31+0x68>
    4377: e8           	inx
    4378: 86 15        	stx	$15                     ; 0x2015 <main+0x286>
    437a: a5 16        	lda	$16                     ; 0x2016 <main+0x287>
    437c: c5 15        	cmp	$15                     ; 0x2015 <main+0x286>
    437e: d0 e4        	bne	$4364 <_ZN12_GLOBAL__N_15printEPKcP6Status+0x7c1>
    4380: a4 16        	ldy	$16                     ; 0x2016 <main+0x287>
    4382: 80 02        	bra	$4386 <_ZN12_GLOBAL__N_15printEPKcP6Status+0x7e3>
    4384: a0 00        	ldy	#$0
    4386: 5a           	phy
    4387: fa           	plx
    4388: e8           	inx
    4389: a9 01        	lda	#$1
    438b: 99 97 00     	sta	$97,y                   ; 0x97 <__rc31+0x68>
    438e: da           	phx
    438f: 7a           	ply
    4390: 84 91        	sty	$91                     ; 0x2091 <main+0x302>
    4392: a2 01        	ldx	#$1
    4394: 64 15        	stz	$15                     ; 0x2015 <main+0x286>
    4396: a4 93        	ldy	$93                     ; 0x2093 <main+0x304>
    4398: b5 ac        	lda	$ac,x                   ; 0x20ac <main+0x31d>
    439a: 0a           	asl
    439b: 64 16        	stz	$16                     ; 0x2016 <main+0x287>
    439d: 26 16        	rol	$16                     ; 0x2016 <main+0x287>
    439f: 05 15        	ora	$15                     ; 0x2015 <main+0x286>
    43a1: 9d ac 00     	sta	$ac,x                   ; 0xac <__rc31+0x7d>
    43a4: e8           	inx
    43a5: 88           	dey
    43a6: a5 16        	lda	$16                     ; 0x2016 <main+0x287>
    43a8: 85 15        	sta	$15                     ; 0x2015 <main+0x286>
    43aa: 98           	tya
    43ab: d0 eb        	bne	$4398 <_ZN12_GLOBAL__N_15printEPKcP6Status+0x7f5>
    43ad: a6 94        	ldx	$94                     ; 0x2094 <main+0x305>
    43af: e8           	inx
    43b0: 86 94        	stx	$94                     ; 0x2094 <main+0x305>
    43b2: e4 14        	cpx	$14                     ; 0x2014 <main+0x285>
    43b4: b0 07        	bcs	$43bd <_ZN12_GLOBAL__N_15printEPKcP6Status+0x81a>
    43b6: 4c f2 42     	jmp	$42f2 <_ZN12_GLOBAL__N_15printEPKcP6Status+0x74f>
    43b9: a4 16        	ldy	$16                     ; 0x2016 <main+0x287>
    43bb: 80 d3        	bra	$4390 <_ZN12_GLOBAL__N_15printEPKcP6Status+0x7ed>
    43bd: a5 92        	lda	$92                     ; 0x2092 <main+0x303>
    43bf: a6 8f        	ldx	$8f                     ; 0x208f <main+0x300>
    43c1: 10 06        	bpl	$43c9 <_ZN12_GLOBAL__N_15printEPKcP6Status+0x826>
    43c3: a2 01        	ldx	#$1
    43c5: 64 8f        	stz	$8f                     ; 0x208f <main+0x300>
    43c7: 86 8e        	stx	$8e                     ; 0x208e <main+0x2ff>
    43c9: 29 04        	and	#$4
    43cb: f0 2c        	beq	$43f9 <_ZN12_GLOBAL__N_15printEPKcP6Status+0x856>
    43cd: a6 b5        	ldx	$b5                     ; 0x20b5 <main+0x326>
    43cf: e0 10        	cpx	#$10
    43d1: f0 14        	beq	$43e7 <_ZN12_GLOBAL__N_15printEPKcP6Status+0x844>
    43d3: e0 08        	cpx	#$8
    43d5: d0 22        	bne	$43f9 <_ZN12_GLOBAL__N_15printEPKcP6Status+0x856>
    43d7: a2 00        	ldx	#$0
    43d9: e4 8f        	cpx	$8f                     ; 0x208f <main+0x300>
    43db: f0 03        	beq	$43e0 <_ZN12_GLOBAL__N_15printEPKcP6Status+0x83d>
    43dd: 4c 20 45     	jmp	$4520 <_ZN12_GLOBAL__N_15printEPKcP6Status+0x97d>
    43e0: a5 91        	lda	$91                     ; 0x2091 <main+0x302>
    43e2: c5 8e        	cmp	$8e                     ; 0x208e <main+0x2ff>
    43e4: 4c 22 45     	jmp	$4522 <_ZN12_GLOBAL__N_15printEPKcP6Status+0x97f>
    43e7: a5 91        	lda	$91                     ; 0x2091 <main+0x302>
    43e9: f0 0e        	beq	$43f9 <_ZN12_GLOBAL__N_15printEPKcP6Status+0x856>
    43eb: a5 92        	lda	$92                     ; 0x2092 <main+0x303>
    43ed: 29 80        	and	#$80
    43ef: d0 03        	bne	$43f4 <_ZN12_GLOBAL__N_15printEPKcP6Status+0x851>
    43f1: 4c 37 45     	jmp	$4537 <_ZN12_GLOBAL__N_15printEPKcP6Status+0x994>
    43f4: a2 78        	ldx	#$78
    43f6: 4c 39 45     	jmp	$4539 <_ZN12_GLOBAL__N_15printEPKcP6Status+0x996>
    43f9: a5 92        	lda	$92                     ; 0x2092 <main+0x303>
    43fb: a2 2d        	ldx	#$2d
    43fd: 86 b5        	stx	$b5                     ; 0x20b5 <main+0x326>
    43ff: a6 b9        	ldx	$b9                     ; 0x20b9 <main+0x32a>
    4401: d0 1b        	bne	$441e <_ZN12_GLOBAL__N_15printEPKcP6Status+0x87b>
    4403: aa           	tax
    4404: 29 02        	and	#$2
    4406: a0 2b        	ldy	#$2b
    4408: 84 b5        	sty	$b5                     ; 0x20b5 <main+0x326>
    440a: a8           	tay
    440b: d0 11        	bne	$441e <_ZN12_GLOBAL__N_15printEPKcP6Status+0x87b>
    440d: 8a           	txa
    440e: 29 08        	and	#$8
    4410: d0 08        	bne	$441a <_ZN12_GLOBAL__N_15printEPKcP6Status+0x877>
    4412: a2 01        	ldx	#$1
    4414: 86 b9        	stx	$b9                     ; 0x20b9 <main+0x32a>
    4416: a9 00        	lda	#$0
    4418: 80 0a        	bra	$4424 <_ZN12_GLOBAL__N_15printEPKcP6Status+0x881>
    441a: a2 20        	ldx	#$20
    441c: 86 b5        	stx	$b5                     ; 0x20b5 <main+0x326>
    441e: a2 00        	ldx	#$0
    4420: 86 b9        	stx	$b9                     ; 0x20b9 <main+0x32a>
    4422: a9 01        	lda	#$1
    4424: a4 91        	ldy	$91                     ; 0x2091 <main+0x302>
    4426: a6 8f        	ldx	$8f                     ; 0x208f <main+0x300>
    4428: d0 08        	bne	$4432 <_ZN12_GLOBAL__N_15printEPKcP6Status+0x88f>
    442a: a6 8e        	ldx	$8e                     ; 0x208e <main+0x2ff>
    442c: 84 14        	sty	$14                     ; 0x2014 <main+0x285>
    442e: e4 14        	cpx	$14                     ; 0x2014 <main+0x285>
    4430: 80 04        	bra	$4436 <_ZN12_GLOBAL__N_15printEPKcP6Status+0x893>
    4432: a6 8f        	ldx	$8f                     ; 0x208f <main+0x300>
    4434: e0 00        	cpx	#$0
    4436: a6 8e        	ldx	$8e                     ; 0x208e <main+0x2ff>
    4438: 86 14        	stx	$14                     ; 0x2014 <main+0x285>
    443a: a6 8f        	ldx	$8f                     ; 0x208f <main+0x300>
    443c: 86 15        	stx	$15                     ; 0x2015 <main+0x286>
    443e: b0 04        	bcs	$4444 <_ZN12_GLOBAL__N_15printEPKcP6Status+0x8a1>
    4440: 84 14        	sty	$14                     ; 0x2014 <main+0x285>
    4442: 64 15        	stz	$15                     ; 0x2015 <main+0x286>
    4444: 18           	clc
    4445: aa           	tax
    4446: 65 14        	adc	$14                     ; 0x2014 <main+0x285>
    4448: a8           	tay
    4449: 85 16        	sta	$16                     ; 0x2016 <main+0x287>
    444b: a5 15        	lda	$15                     ; 0x2015 <main+0x286>
    444d: 69 00        	adc	#$0
    444f: 85 17        	sta	$17                     ; 0x2017 <main+0x288>
    4451: c5 12        	cmp	$12                     ; 0x2012 <main+0x283>
    4453: d0 04        	bne	$4459 <_ZN12_GLOBAL__N_15printEPKcP6Status+0x8b6>
    4455: c4 13        	cpy	$13                     ; 0x2013 <main+0x284>
    4457: 80 02        	bra	$445b <_ZN12_GLOBAL__N_15printEPKcP6Status+0x8b8>
    4459: c5 12        	cmp	$12                     ; 0x2012 <main+0x283>
    445b: 64 90        	stz	$90                     ; 0x2090 <main+0x301>
    445d: 90 04        	bcc	$4463 <_ZN12_GLOBAL__N_15printEPKcP6Status+0x8c0>
    445f: 64 92        	stz	$92                     ; 0x2092 <main+0x303>
    4461: 80 4d        	bra	$44b0 <_ZN12_GLOBAL__N_15printEPKcP6Status+0x90d>
    4463: a5 92        	lda	$92                     ; 0x2092 <main+0x303>
    4465: 29 11        	and	#$11
    4467: f0 0f        	beq	$4478 <_ZN12_GLOBAL__N_15printEPKcP6Status+0x8d5>
    4469: a5 13        	lda	$13                     ; 0x2013 <main+0x284>
    446b: 38           	sec
    446c: e5 16        	sbc	$16                     ; 0x2016 <main+0x287>
    446e: 85 90        	sta	$90                     ; 0x2090 <main+0x301>
    4470: a5 12        	lda	$12                     ; 0x2012 <main+0x283>
    4472: e5 17        	sbc	$17                     ; 0x2017 <main+0x288>
    4474: 85 92        	sta	$92                     ; 0x2092 <main+0x303>
    4476: 80 38        	bra	$44b0 <_ZN12_GLOBAL__N_15printEPKcP6Status+0x90d>
    4478: 8a           	txa
    4479: 38           	sec
    447a: e5 13        	sbc	$13                     ; 0x2013 <main+0x284>
    447c: aa           	tax
    447d: a9 00        	lda	#$0
    447f: e5 12        	sbc	$12                     ; 0x2012 <main+0x283>
    4481: 85 12        	sta	$12                     ; 0x2012 <main+0x283>
    4483: 18           	clc
    4484: 8a           	txa
    4485: 65 14        	adc	$14                     ; 0x2014 <main+0x285>
    4487: 85 90        	sta	$90                     ; 0x2090 <main+0x301>
    4489: a5 12        	lda	$12                     ; 0x2012 <main+0x283>
    448b: 65 15        	adc	$15                     ; 0x2015 <main+0x286>
    448d: 85 92        	sta	$92                     ; 0x2092 <main+0x303>
    448f: a6 8c        	ldx	$8c                     ; 0x208c <main+0x2fd>
    4491: 86 12        	stx	$12                     ; 0x2012 <main+0x283>
    4493: a6 8d        	ldx	$8d                     ; 0x208d <main+0x2fe>
    4495: 86 13        	stx	$13                     ; 0x2013 <main+0x284>
    4497: a9 20        	lda	#$20
    4499: 20 d7 46     	jsr	$46d7 <_ZN12_GLOBAL__N_13putEcP6Status>
    449c: a6 92        	ldx	$92                     ; 0x2092 <main+0x303>
    449e: e6 90        	inc	$90                     ; 0x2090 <main+0x301>
    44a0: d0 01        	bne	$44a3 <_ZN12_GLOBAL__N_15printEPKcP6Status+0x900>
    44a2: e8           	inx
    44a3: 86 92        	stx	$92                     ; 0x2092 <main+0x303>
    44a5: 8a           	txa
    44a6: d0 e7        	bne	$448f <_ZN12_GLOBAL__N_15printEPKcP6Status+0x8ec>
    44a8: a5 90        	lda	$90                     ; 0x2090 <main+0x301>
    44aa: d0 e3        	bne	$448f <_ZN12_GLOBAL__N_15printEPKcP6Status+0x8ec>
    44ac: 64 92        	stz	$92                     ; 0x2092 <main+0x303>
    44ae: 64 90        	stz	$90                     ; 0x2090 <main+0x301>
    44b0: a6 b9        	ldx	$b9                     ; 0x20b9 <main+0x32a>
    44b2: d0 0d        	bne	$44c1 <_ZN12_GLOBAL__N_15printEPKcP6Status+0x91e>
    44b4: a6 8c        	ldx	$8c                     ; 0x208c <main+0x2fd>
    44b6: 86 12        	stx	$12                     ; 0x2012 <main+0x283>
    44b8: a6 8d        	ldx	$8d                     ; 0x208d <main+0x2fe>
    44ba: 86 13        	stx	$13                     ; 0x2013 <main+0x284>
    44bc: a5 b5        	lda	$b5                     ; 0x20b5 <main+0x326>
    44be: 20 d7 46     	jsr	$46d7 <_ZN12_GLOBAL__N_13putEcP6Status>
    44c1: a6 b8        	ldx	$b8                     ; 0x20b8 <main+0x329>
    44c3: f0 0d        	beq	$44d2 <_ZN12_GLOBAL__N_15printEPKcP6Status+0x92f>
    44c5: a6 8c        	ldx	$8c                     ; 0x208c <main+0x2fd>
    44c7: 86 12        	stx	$12                     ; 0x2012 <main+0x283>
    44c9: a6 8d        	ldx	$8d                     ; 0x208d <main+0x2fe>
    44cb: 86 13        	stx	$13                     ; 0x2013 <main+0x284>
    44cd: a5 ba        	lda	$ba                     ; 0x20ba <main+0x32b>
    44cf: 20 d7 46     	jsr	$46d7 <_ZN12_GLOBAL__N_13putEcP6Status>
    44d2: a0 01        	ldy	#$1
    44d4: b1 8c        	lda	($8c),y                 ; 0x208c <main+0x2fd>
    44d6: aa           	tax
    44d7: 29 10        	and	#$10
    44d9: f0 36        	beq	$4511 <_ZN12_GLOBAL__N_15printEPKcP6Status+0x96e>
    44db: 8a           	txa
    44dc: 29 01        	and	#$1
    44de: a6 91        	ldx	$91                     ; 0x2091 <main+0x302>
    44e0: a8           	tay
    44e1: d0 30        	bne	$4513 <_ZN12_GLOBAL__N_15printEPKcP6Status+0x970>
    44e3: a5 92        	lda	$92                     ; 0x2092 <main+0x303>
    44e5: d0 07        	bne	$44ee <_ZN12_GLOBAL__N_15printEPKcP6Status+0x94b>
    44e7: a5 90        	lda	$90                     ; 0x2090 <main+0x301>
    44e9: d0 03        	bne	$44ee <_ZN12_GLOBAL__N_15printEPKcP6Status+0x94b>
    44eb: 4c 4e 45     	jmp	$454e <_ZN12_GLOBAL__N_15printEPKcP6Status+0x9ab>
    44ee: a6 8c        	ldx	$8c                     ; 0x208c <main+0x2fd>
    44f0: 86 12        	stx	$12                     ; 0x2012 <main+0x283>
    44f2: a6 8d        	ldx	$8d                     ; 0x208d <main+0x2fe>
    44f4: 86 13        	stx	$13                     ; 0x2013 <main+0x284>
    44f6: a9 30        	lda	#$30
    44f8: 20 d7 46     	jsr	$46d7 <_ZN12_GLOBAL__N_13putEcP6Status>
    44fb: a2 ff        	ldx	#$ff
    44fd: c6 90        	dec	$90                     ; 0x2090 <main+0x301>
    44ff: e4 90        	cpx	$90                     ; 0x2090 <main+0x301>
    4501: d0 02        	bne	$4505 <_ZN12_GLOBAL__N_15printEPKcP6Status+0x962>
    4503: c6 92        	dec	$92                     ; 0x2092 <main+0x303>
    4505: a5 92        	lda	$92                     ; 0x2092 <main+0x303>
    4507: d0 e5        	bne	$44ee <_ZN12_GLOBAL__N_15printEPKcP6Status+0x94b>
    4509: a5 90        	lda	$90                     ; 0x2090 <main+0x301>
    450b: d0 e1        	bne	$44ee <_ZN12_GLOBAL__N_15printEPKcP6Status+0x94b>
    450d: 64 90        	stz	$90                     ; 0x2090 <main+0x301>
    450f: 64 92        	stz	$92                     ; 0x2092 <main+0x303>
    4511: a6 91        	ldx	$91                     ; 0x2091 <main+0x302>
    4513: a0 00        	ldy	#$0
    4515: c4 8f        	cpy	$8f                     ; 0x208f <main+0x300>
    4517: f0 3d        	beq	$4556 <_ZN12_GLOBAL__N_15printEPKcP6Status+0x9b3>
    4519: c4 8f        	cpy	$8f                     ; 0x208f <main+0x300>
    451b: 90 3d        	bcc	$455a <_ZN12_GLOBAL__N_15printEPKcP6Status+0x9b7>
    451d: 4c 7d 45     	jmp	$457d <_ZN12_GLOBAL__N_15printEPKcP6Status+0x9da>
    4520: e4 8f        	cpx	$8f                     ; 0x208f <main+0x300>
    4522: a5 92        	lda	$92                     ; 0x2092 <main+0x303>
    4524: b0 03        	bcs	$4529 <_ZN12_GLOBAL__N_15printEPKcP6Status+0x986>
    4526: 4c fb 43     	jmp	$43fb <_ZN12_GLOBAL__N_15printEPKcP6Status+0x858>
    4529: a4 91        	ldy	$91                     ; 0x2091 <main+0x302>
    452b: 84 8e        	sty	$8e                     ; 0x208e <main+0x2ff>
    452d: e6 8e        	inc	$8e                     ; 0x208e <main+0x2ff>
    452f: d0 01        	bne	$4532 <_ZN12_GLOBAL__N_15printEPKcP6Status+0x98f>
    4531: e8           	inx
    4532: 86 8f        	stx	$8f                     ; 0x208f <main+0x300>
    4534: 4c fb 43     	jmp	$43fb <_ZN12_GLOBAL__N_15printEPKcP6Status+0x858>
    4537: a2 58        	ldx	#$58
    4539: 86 ba        	stx	$ba                     ; 0x20ba <main+0x32b>
    453b: a4 91        	ldy	$91                     ; 0x2091 <main+0x302>
    453d: a2 01        	ldx	#$1
    453f: 86 b8        	stx	$b8                     ; 0x20b8 <main+0x329>
    4541: a2 30        	ldx	#$30
    4543: 86 b5        	stx	$b5                     ; 0x20b5 <main+0x326>
    4545: a9 02        	lda	#$2
    4547: a2 00        	ldx	#$0
    4549: 86 b9        	stx	$b9                     ; 0x20b9 <main+0x32a>
    454b: 4c 26 44     	jmp	$4426 <_ZN12_GLOBAL__N_15printEPKcP6Status+0x883>
    454e: 64 90        	stz	$90                     ; 0x2090 <main+0x301>
    4550: 64 92        	stz	$92                     ; 0x2092 <main+0x303>
    4552: 80 bf        	bra	$4513 <_ZN12_GLOBAL__N_15printEPKcP6Status+0x970>
    4554: a6 91        	ldx	$91                     ; 0x2091 <main+0x302>
    4556: e4 8e        	cpx	$8e                     ; 0x208e <main+0x2ff>
    4558: b0 23        	bcs	$457d <_ZN12_GLOBAL__N_15printEPKcP6Status+0x9da>
    455a: a2 ff        	ldx	#$ff
    455c: c6 8e        	dec	$8e                     ; 0x208e <main+0x2ff>
    455e: e4 8e        	cpx	$8e                     ; 0x208e <main+0x2ff>
    4560: d0 02        	bne	$4564 <_ZN12_GLOBAL__N_15printEPKcP6Status+0x9c1>
    4562: c6 8f        	dec	$8f                     ; 0x208f <main+0x300>
    4564: a6 8c        	ldx	$8c                     ; 0x208c <main+0x2fd>
    4566: 86 12        	stx	$12                     ; 0x2012 <main+0x283>
    4568: a6 8d        	ldx	$8d                     ; 0x208d <main+0x2fe>
    456a: 86 13        	stx	$13                     ; 0x2013 <main+0x284>
    456c: a9 30        	lda	#$30
    456e: 20 d7 46     	jsr	$46d7 <_ZN12_GLOBAL__N_13putEcP6Status>
    4571: a2 00        	ldx	#$0
    4573: e4 8f        	cpx	$8f                     ; 0x208f <main+0x300>
    4575: f0 dd        	beq	$4554 <_ZN12_GLOBAL__N_15printEPKcP6Status+0x9b1>
    4577: e4 8f        	cpx	$8f                     ; 0x208f <main+0x300>
    4579: a6 91        	ldx	$91                     ; 0x2091 <main+0x302>
    457b: 90 dd        	bcc	$455a <_ZN12_GLOBAL__N_15printEPKcP6Status+0x9b7>
    457d: a4 90        	ldy	$90                     ; 0x2090 <main+0x301>
    457f: 84 91        	sty	$91                     ; 0x2091 <main+0x302>
    4581: 8a           	txa
    4582: d0 03        	bne	$4587 <_ZN12_GLOBAL__N_15printEPKcP6Status+0x9e4>
    4584: 4c 17 46     	jmp	$4617 <_ZN12_GLOBAL__N_15printEPKcP6Status+0xa74>
    4587: ca           	dex
    4588: d0 03        	bne	$458d <_ZN12_GLOBAL__N_15printEPKcP6Status+0x9ea>
    458a: 4c e8 45     	jmp	$45e8 <_ZN12_GLOBAL__N_15printEPKcP6Status+0xa45>
    458d: 86 90        	stx	$90                     ; 0x2090 <main+0x301>
    458f: a9 95        	lda	#$95
    4591: 18           	clc
    4592: 65 90        	adc	$90                     ; 0x2090 <main+0x301>
    4594: aa           	tax
    4595: a9 00        	lda	#$0
    4597: 69 00        	adc	#$0
    4599: 85 12        	sta	$12                     ; 0x2012 <main+0x283>
    459b: 18           	clc
    459c: 8a           	txa
    459d: 69 02        	adc	#$2
    459f: 85 8e        	sta	$8e                     ; 0x208e <main+0x2ff>
    45a1: a5 12        	lda	$12                     ; 0x2012 <main+0x283>
    45a3: 69 00        	adc	#$0
    45a5: 85 8f        	sta	$8f                     ; 0x208f <main+0x300>
    45a7: 80 35        	bra	$45de <_ZN12_GLOBAL__N_15printEPKcP6Status+0xa3b>
    45a9: 85 13        	sta	$13                     ; 0x2013 <main+0x284>
    45ab: a9 80        	lda	#$80
    45ad: a0 01        	ldy	#$1
    45af: 31 8c        	and	($8c),y                 ; 0x208c <main+0x2fd>
    45b1: f0 04        	beq	$45b7 <_ZN12_GLOBAL__N_15printEPKcP6Status+0xa14>
    45b3: a2 61        	ldx	#$61
    45b5: 80 02        	bra	$45b9 <_ZN12_GLOBAL__N_15printEPKcP6Status+0xa16>
    45b7: a2 41        	ldx	#$41
    45b9: 86 12        	stx	$12                     ; 0x2012 <main+0x283>
    45bb: 18           	clc
    45bc: a5 13        	lda	$13                     ; 0x2013 <main+0x284>
    45be: 65 12        	adc	$12                     ; 0x2012 <main+0x283>
    45c0: 18           	clc
    45c1: 69 f6        	adc	#$f6
    45c3: a6 8c        	ldx	$8c                     ; 0x208c <main+0x2fd>
    45c5: 86 12        	stx	$12                     ; 0x2012 <main+0x283>
    45c7: a6 8d        	ldx	$8d                     ; 0x208d <main+0x2fe>
    45c9: 86 13        	stx	$13                     ; 0x2013 <main+0x284>
    45cb: 20 d7 46     	jsr	$46d7 <_ZN12_GLOBAL__N_13putEcP6Status>
    45ce: c6 90        	dec	$90                     ; 0x2090 <main+0x301>
    45d0: a2 ff        	ldx	#$ff
    45d2: c6 8e        	dec	$8e                     ; 0x208e <main+0x2ff>
    45d4: e4 8e        	cpx	$8e                     ; 0x208e <main+0x2ff>
    45d6: d0 02        	bne	$45da <_ZN12_GLOBAL__N_15printEPKcP6Status+0xa37>
    45d8: c6 8f        	dec	$8f                     ; 0x208f <main+0x300>
    45da: a5 90        	lda	$90                     ; 0x2090 <main+0x301>
    45dc: f0 0a        	beq	$45e8 <_ZN12_GLOBAL__N_15printEPKcP6Status+0xa45>
    45de: b2 8e        	lda	($8e)                   ; 0x208e <main+0x2ff>
    45e0: c9 0a        	cmp	#$a
    45e2: b0 c5        	bcs	$45a9 <_ZN12_GLOBAL__N_15printEPKcP6Status+0xa06>
    45e4: 09 30        	ora	#$30
    45e6: 80 db        	bra	$45c3 <_ZN12_GLOBAL__N_15printEPKcP6Status+0xa20>
    45e8: a5 97        	lda	$97                     ; 0x2097 <main+0x308>
    45ea: c9 0a        	cmp	#$a
    45ec: b0 04        	bcs	$45f2 <_ZN12_GLOBAL__N_15printEPKcP6Status+0xa4f>
    45ee: 09 30        	ora	#$30
    45f0: 80 1a        	bra	$460c <_ZN12_GLOBAL__N_15printEPKcP6Status+0xa69>
    45f2: 85 13        	sta	$13                     ; 0x2013 <main+0x284>
    45f4: a0 01        	ldy	#$1
    45f6: a9 80        	lda	#$80
    45f8: 31 8c        	and	($8c),y                 ; 0x208c <main+0x2fd>
    45fa: f0 04        	beq	$4600 <_ZN12_GLOBAL__N_15printEPKcP6Status+0xa5d>
    45fc: a2 61        	ldx	#$61
    45fe: 80 02        	bra	$4602 <_ZN12_GLOBAL__N_15printEPKcP6Status+0xa5f>
    4600: a2 41        	ldx	#$41
    4602: 86 12        	stx	$12                     ; 0x2012 <main+0x283>
    4604: a5 13        	lda	$13                     ; 0x2013 <main+0x284>
    4606: 18           	clc
    4607: 65 12        	adc	$12                     ; 0x2012 <main+0x283>
    4609: 18           	clc
    460a: 69 f6        	adc	#$f6
    460c: a6 8c        	ldx	$8c                     ; 0x208c <main+0x2fd>
    460e: 86 12        	stx	$12                     ; 0x2012 <main+0x283>
    4610: a6 8d        	ldx	$8d                     ; 0x208d <main+0x2fe>
    4612: 86 13        	stx	$13                     ; 0x2013 <main+0x284>
    4614: 20 d7 46     	jsr	$46d7 <_ZN12_GLOBAL__N_13putEcP6Status>
    4617: a0 01        	ldy	#$1
    4619: 98           	tya
    461a: 31 8c        	and	($8c),y                 ; 0x208c <main+0x2fd>
    461c: f0 21        	beq	$463f <_ZN12_GLOBAL__N_15printEPKcP6Status+0xa9c>
    461e: a5 92        	lda	$92                     ; 0x2092 <main+0x303>
    4620: f0 19        	beq	$463b <_ZN12_GLOBAL__N_15printEPKcP6Status+0xa98>
    4622: a6 8c        	ldx	$8c                     ; 0x208c <main+0x2fd>
    4624: 86 12        	stx	$12                     ; 0x2012 <main+0x283>
    4626: a6 8d        	ldx	$8d                     ; 0x208d <main+0x2fe>
    4628: 86 13        	stx	$13                     ; 0x2013 <main+0x284>
    462a: a9 20        	lda	#$20
    462c: 20 d7 46     	jsr	$46d7 <_ZN12_GLOBAL__N_13putEcP6Status>
    462f: a2 ff        	ldx	#$ff
    4631: c6 91        	dec	$91                     ; 0x2091 <main+0x302>
    4633: e4 91        	cpx	$91                     ; 0x2091 <main+0x302>
    4635: d0 e7        	bne	$461e <_ZN12_GLOBAL__N_15printEPKcP6Status+0xa7b>
    4637: c6 92        	dec	$92                     ; 0x2092 <main+0x303>
    4639: 80 e3        	bra	$461e <_ZN12_GLOBAL__N_15printEPKcP6Status+0xa7b>
    463b: a5 91        	lda	$91                     ; 0x2091 <main+0x302>
    463d: d0 e3        	bne	$4622 <_ZN12_GLOBAL__N_15printEPKcP6Status+0xa7f>
    463f: a4 8c        	ldy	$8c                     ; 0x208c <main+0x2fd>
    4641: a5 8c        	lda	$8c                     ; 0x208c <main+0x2fd>
    4643: 84 14        	sty	$14                     ; 0x2014 <main+0x285>
    4645: 18           	clc
    4646: 69 05        	adc	#$5
    4648: 85 12        	sta	$12                     ; 0x2012 <main+0x283>
    464a: a5 8d        	lda	$8d                     ; 0x208d <main+0x2fe>
    464c: 69 00        	adc	#$0
    464e: 18           	clc
    464f: 85 13        	sta	$13                     ; 0x2013 <main+0x284>
    4651: a0 01        	ldy	#$1
    4653: a5 14        	lda	$14                     ; 0x2014 <main+0x285>
    4655: 69 03        	adc	#$3
    4657: 85 14        	sta	$14                     ; 0x2014 <main+0x285>
    4659: a5 8d        	lda	$8d                     ; 0x208d <main+0x2fe>
    465b: 69 00        	adc	#$0
    465d: aa           	tax
    465e: b1 12        	lda	($12),y                 ; 0x2012 <main+0x283>
    4660: 85 15        	sta	$15                     ; 0x2015 <main+0x286>
    4662: a4 14        	ldy	$14                     ; 0x2014 <main+0x285>
    4664: 84 12        	sty	$12                     ; 0x2012 <main+0x283>
    4666: 86 13        	stx	$13                     ; 0x2013 <main+0x284>
    4668: a0 03        	ldy	#$3
    466a: b1 8c        	lda	($8c),y                 ; 0x208c <main+0x2fd>
    466c: 85 16        	sta	$16                     ; 0x2016 <main+0x287>
    466e: a0 01        	ldy	#$1
    4670: b1 12        	lda	($12),y                 ; 0x2012 <main+0x283>
    4672: 85 17        	sta	$17                     ; 0x2017 <main+0x288>
    4674: 85 12        	sta	$12                     ; 0x2012 <main+0x283>
    4676: a4 15        	ldy	$15                     ; 0x2015 <main+0x286>
    4678: c4 12        	cpy	$12                     ; 0x2012 <main+0x283>
    467a: d0 0c        	bne	$4688 <_ZN12_GLOBAL__N_15printEPKcP6Status+0xae5>
    467c: a6 16        	ldx	$16                     ; 0x2016 <main+0x287>
    467e: a0 05        	ldy	#$5
    4680: b1 8c        	lda	($8c),y                 ; 0x208c <main+0x2fd>
    4682: 86 12        	stx	$12                     ; 0x2012 <main+0x283>
    4684: c5 12        	cmp	$12                     ; 0x2012 <main+0x283>
    4686: 80 08        	bra	$4690 <_ZN12_GLOBAL__N_15printEPKcP6Status+0xaed>
    4688: 84 13        	sty	$13                     ; 0x2013 <main+0x284>
    468a: 85 12        	sta	$12                     ; 0x2012 <main+0x283>
    468c: a6 13        	ldx	$13                     ; 0x2013 <main+0x284>
    468e: e4 12        	cpx	$12                     ; 0x2012 <main+0x283>
    4690: a6 b6        	ldx	$b6                     ; 0x20b6 <main+0x327>
    4692: 86 12        	stx	$12                     ; 0x2012 <main+0x283>
    4694: a6 b7        	ldx	$b7                     ; 0x20b7 <main+0x328>
    4696: 86 13        	stx	$13                     ; 0x2013 <main+0x284>
    4698: 90 36        	bcc	$46d0 <_ZN12_GLOBAL__N_15printEPKcP6Status+0xb2d>
    469a: a6 16        	ldx	$16                     ; 0x2016 <main+0x287>
    469c: a5 17        	lda	$17                     ; 0x2017 <main+0x288>
    469e: d0 03        	bne	$46a3 <_ZN12_GLOBAL__N_15printEPKcP6Status+0xb00>
    46a0: 8a           	txa
    46a1: f0 2d        	beq	$46d0 <_ZN12_GLOBAL__N_15printEPKcP6Status+0xb2d>
    46a3: a5 8c        	lda	$8c                     ; 0x208c <main+0x2fd>
    46a5: 18           	clc
    46a6: 69 09        	adc	#$9
    46a8: 85 14        	sta	$14                     ; 0x2014 <main+0x285>
    46aa: a5 8d        	lda	$8d                     ; 0x208d <main+0x2fe>
    46ac: 69 00        	adc	#$0
    46ae: a0 09        	ldy	#$9
    46b0: 85 15        	sta	$15                     ; 0x2015 <main+0x286>
    46b2: 18           	clc
    46b3: a5 16        	lda	$16                     ; 0x2016 <main+0x287>
    46b5: 71 8c        	adc	($8c),y                 ; 0x208c <main+0x2fd>
    46b7: aa           	tax
    46b8: a0 01        	ldy	#$1
    46ba: a5 17        	lda	$17                     ; 0x2017 <main+0x288>
    46bc: 71 14        	adc	($14),y                 ; 0x2014 <main+0x285>
    46be: 86 14        	stx	$14                     ; 0x2014 <main+0x285>
    46c0: 85 15        	sta	$15                     ; 0x2015 <main+0x286>
    46c2: a2 ff        	ldx	#$ff
    46c4: c6 14        	dec	$14                     ; 0x2014 <main+0x285>
    46c6: e4 14        	cpx	$14                     ; 0x2014 <main+0x285>
    46c8: d0 02        	bne	$46cc <_ZN12_GLOBAL__N_15printEPKcP6Status+0xb29>
    46ca: c6 15        	dec	$15                     ; 0x2015 <main+0x286>
    46cc: a9 00        	lda	#$0
    46ce: 92 14        	sta	($14)                   ; 0x2014 <main+0x285>
    46d0: e6 12        	inc	$12                     ; 0x2012 <main+0x283>
    46d2: d0 02        	bne	$46d6 <_ZN12_GLOBAL__N_15printEPKcP6Status+0xb33>
    46d4: e6 13        	inc	$13                     ; 0x2013 <main+0x284>
    46d6: 60           	rts

000046d7 <_ZN12_GLOBAL__N_13putEcP6Status>:
    46d7: 85 18        	sta	$18                     ; 0x2018 <main+0x289>
    46d9: a6 13        	ldx	$13                     ; 0x2013 <main+0x284>
    46db: 18           	clc
    46dc: a5 12        	lda	$12                     ; 0x2012 <main+0x283>
    46de: 69 05        	adc	#$5
    46e0: a8           	tay
    46e1: a5 13        	lda	$13                     ; 0x2013 <main+0x284>
    46e3: 86 15        	stx	$15                     ; 0x2015 <main+0x286>
    46e5: 69 00        	adc	#$0
    46e7: 18           	clc
    46e8: 84 16        	sty	$16                     ; 0x2016 <main+0x287>
    46ea: a0 05        	ldy	#$5
    46ec: 85 17        	sta	$17                     ; 0x2017 <main+0x288>
    46ee: b1 12        	lda	($12),y                 ; 0x2012 <main+0x283>
    46f0: aa           	tax
    46f1: a5 12        	lda	$12                     ; 0x2012 <main+0x283>
    46f3: 69 03        	adc	#$3
    46f5: 85 14        	sta	$14                     ; 0x2014 <main+0x285>
    46f7: a5 15        	lda	$15                     ; 0x2015 <main+0x286>
    46f9: 69 00        	adc	#$0
    46fb: 85 15        	sta	$15                     ; 0x2015 <main+0x286>
    46fd: a0 01        	ldy	#$1
    46ff: b1 16        	lda	($16),y                 ; 0x2016 <main+0x287>
    4701: d1 14        	cmp	($14),y                 ; 0x2014 <main+0x285>
    4703: d0 11        	bne	$4716 <_ZN12_GLOBAL__N_13putEcP6Status+0x3f>
    4705: a0 03        	ldy	#$3
    4707: 85 17        	sta	$17                     ; 0x2017 <main+0x288>
    4709: b1 12        	lda	($12),y                 ; 0x2012 <main+0x283>
    470b: 85 14        	sta	$14                     ; 0x2014 <main+0x285>
    470d: 86 16        	stx	$16                     ; 0x2016 <main+0x287>
    470f: e4 14        	cpx	$14                     ; 0x2014 <main+0x285>
    4711: 90 0e        	bcc	$4721 <_ZN12_GLOBAL__N_13putEcP6Status+0x4a>
    4713: 4c 82 47     	jmp	$4782 <_ZN12_GLOBAL__N_13putEcP6Status+0xab>
    4716: 86 16        	stx	$16                     ; 0x2016 <main+0x287>
    4718: d1 14        	cmp	($14),y                 ; 0x2014 <main+0x285>
    471a: 85 17        	sta	$17                     ; 0x2017 <main+0x288>
    471c: 90 03        	bcc	$4721 <_ZN12_GLOBAL__N_13putEcP6Status+0x4a>
    471e: 4c 82 47     	jmp	$4782 <_ZN12_GLOBAL__N_13putEcP6Status+0xab>
    4721: a5 12        	lda	$12                     ; 0x2012 <main+0x283>
    4723: 18           	clc
    4724: 69 0f        	adc	#$f
    4726: 85 14        	sta	$14                     ; 0x2014 <main+0x285>
    4728: a5 13        	lda	$13                     ; 0x2013 <main+0x284>
    472a: 69 00        	adc	#$0
    472c: 85 15        	sta	$15                     ; 0x2015 <main+0x286>
    472e: a0 01        	ldy	#$1
    4730: b1 14        	lda	($14),y                 ; 0x2014 <main+0x285>
    4732: a2 00        	ldx	#$0
    4734: 86 14        	stx	$14                     ; 0x2014 <main+0x285>
    4736: a2 00        	ldx	#$0
    4738: 86 15        	stx	$15                     ; 0x2015 <main+0x286>
    473a: c5 15        	cmp	$15                     ; 0x2015 <main+0x286>
    473c: d0 2d        	bne	$476b <_ZN12_GLOBAL__N_13putEcP6Status+0x94>
    473e: a0 0f        	ldy	#$f
    4740: b1 12        	lda	($12),y                 ; 0x2012 <main+0x283>
    4742: c5 14        	cmp	$14                     ; 0x2014 <main+0x285>
    4744: d0 25        	bne	$476b <_ZN12_GLOBAL__N_13putEcP6Status+0x94>
    4746: a5 12        	lda	$12                     ; 0x2012 <main+0x283>
    4748: 18           	clc
    4749: 69 09        	adc	#$9
    474b: 85 14        	sta	$14                     ; 0x2014 <main+0x285>
    474d: a5 13        	lda	$13                     ; 0x2013 <main+0x284>
    474f: 69 00        	adc	#$0
    4751: a0 09        	ldy	#$9
    4753: 85 15        	sta	$15                     ; 0x2015 <main+0x286>
    4755: 18           	clc
    4756: a5 16        	lda	$16                     ; 0x2016 <main+0x287>
    4758: 71 12        	adc	($12),y                 ; 0x2012 <main+0x283>
    475a: aa           	tax
    475b: a0 01        	ldy	#$1
    475d: a5 17        	lda	$17                     ; 0x2017 <main+0x288>
    475f: 71 14        	adc	($14),y                 ; 0x2014 <main+0x285>
    4761: 86 14        	stx	$14                     ; 0x2014 <main+0x285>
    4763: 85 15        	sta	$15                     ; 0x2015 <main+0x286>
    4765: a5 18        	lda	$18                     ; 0x2018 <main+0x289>
    4767: 92 14        	sta	($14)                   ; 0x2014 <main+0x285>
    4769: 80 17        	bra	$4782 <_ZN12_GLOBAL__N_13putEcP6Status+0xab>
    476b: a6 12        	ldx	$12                     ; 0x2012 <main+0x283>
    476d: 86 c9        	stx	$c9                     ; 0x20c9 <main+0x33a>
    476f: a6 13        	ldx	$13                     ; 0x2013 <main+0x284>
    4771: 86 ca        	stx	$ca                     ; 0x20ca <main+0x33b>
    4773: a2 00        	ldx	#$0
    4775: a5 18        	lda	$18                     ; 0x2018 <main+0x289>
    4777: 20 12 4a     	jsr	$4a12 <putchar>
    477a: a6 c9        	ldx	$c9                     ; 0x20c9 <main+0x33a>
    477c: 86 12        	stx	$12                     ; 0x2012 <main+0x283>
    477e: a6 ca        	ldx	$ca                     ; 0x20ca <main+0x33b>
    4780: 86 13        	stx	$13                     ; 0x2013 <main+0x284>
    4782: a0 05        	ldy	#$5
    4784: a5 12        	lda	$12                     ; 0x2012 <main+0x283>
    4786: 18           	clc
    4787: 69 05        	adc	#$5
    4789: 85 14        	sta	$14                     ; 0x2014 <main+0x285>
    478b: a5 13        	lda	$13                     ; 0x2013 <main+0x284>
    478d: 69 00        	adc	#$0
    478f: 85 15        	sta	$15                     ; 0x2015 <main+0x286>
    4791: b1 12        	lda	($12),y                 ; 0x2012 <main+0x283>
    4793: aa           	tax
    4794: a0 01        	ldy	#$1
    4796: b1 14        	lda	($14),y                 ; 0x2014 <main+0x285>
    4798: e8           	inx
    4799: d0 01        	bne	$479c <_ZN12_GLOBAL__N_13putEcP6Status+0xc5>
    479b: 1a           	inc
    479c: 85 16        	sta	$16                     ; 0x2016 <main+0x287>
    479e: 8a           	txa
    479f: a0 05        	ldy	#$5
    47a1: 91 12        	sta	($12),y                 ; 0x2012 <main+0x283>
    47a3: a0 01        	ldy	#$1
    47a5: a5 16        	lda	$16                     ; 0x2016 <main+0x287>
    47a7: 91 14        	sta	($14),y                 ; 0x2014 <main+0x285>
    47a9: 60           	rts

000047aa <_ZN12_GLOBAL__N_112print_stringEPKcP6Status>:
    47aa: a6 12        	ldx	$12                     ; 0x2012 <main+0x283>
    47ac: 86 c1        	stx	$c1                     ; 0x20c1 <main+0x332>
    47ae: a6 13        	ldx	$13                     ; 0x2013 <main+0x284>
    47b0: 86 c2        	stx	$c2                     ; 0x20c2 <main+0x333>
    47b2: a6 14        	ldx	$14                     ; 0x2014 <main+0x285>
    47b4: 86 c3        	stx	$c3                     ; 0x20c3 <main+0x334>
    47b6: a6 15        	ldx	$15                     ; 0x2015 <main+0x286>
    47b8: 86 c4        	stx	$c4                     ; 0x20c4 <main+0x335>
    47ba: a5 c3        	lda	$c3                     ; 0x20c3 <main+0x334>
    47bc: 18           	clc
    47bd: 69 0d        	adc	#$d
    47bf: 85 12        	sta	$12                     ; 0x2012 <main+0x283>
    47c1: a5 c4        	lda	$c4                     ; 0x20c4 <main+0x335>
    47c3: 69 00        	adc	#$0
    47c5: 85 13        	sta	$13                     ; 0x2013 <main+0x284>
    47c7: a0 01        	ldy	#$1
    47c9: b1 12        	lda	($12),y                 ; 0x2012 <main+0x283>
    47cb: 30 16        	bmi	$47e3 <_ZN12_GLOBAL__N_112print_stringEPKcP6Status+0x39>
    47cd: a0 0d        	ldy	#$d
    47cf: 85 12        	sta	$12                     ; 0x2012 <main+0x283>
    47d1: b1 c3        	lda	($c3),y                 ; 0x20c3 <main+0x334>
    47d3: a6 12        	ldx	$12                     ; 0x2012 <main+0x283>
    47d5: 86 c8        	stx	$c8                     ; 0x20c8 <main+0x339>
    47d7: d0 0f        	bne	$47e8 <_ZN12_GLOBAL__N_112print_stringEPKcP6Status+0x3e>
    47d9: aa           	tax
    47da: d0 0c        	bne	$47e8 <_ZN12_GLOBAL__N_112print_stringEPKcP6Status+0x3e>
    47dc: 64 c5        	stz	$c5                     ; 0x20c5 <main+0x336>
    47de: a2 00        	ldx	#$0
    47e0: 4c b1 48     	jmp	$48b1 <_ZN12_GLOBAL__N_112print_stringEPKcP6Status+0x107>
    47e3: a9 ff        	lda	#$ff
    47e5: aa           	tax
    47e6: 86 c8        	stx	$c8                     ; 0x20c8 <main+0x339>
    47e8: 85 c5        	sta	$c5                     ; 0x20c5 <main+0x336>
    47ea: 64 12        	stz	$12                     ; 0x2012 <main+0x283>
    47ec: a4 c1        	ldy	$c1                     ; 0x20c1 <main+0x332>
    47ee: a6 c2        	ldx	$c2                     ; 0x20c2 <main+0x333>
    47f0: 86 16        	stx	$16                     ; 0x2016 <main+0x287>
    47f2: 64 13        	stz	$13                     ; 0x2013 <main+0x284>
    47f4: 98           	tya
    47f5: 18           	clc
    47f6: 65 12        	adc	$12                     ; 0x2012 <main+0x283>
    47f8: 85 14        	sta	$14                     ; 0x2014 <main+0x285>
    47fa: a5 c2        	lda	$c2                     ; 0x20c2 <main+0x333>
    47fc: 65 13        	adc	$13                     ; 0x2013 <main+0x284>
    47fe: 85 15        	sta	$15                     ; 0x2015 <main+0x286>
    4800: b2 14        	lda	($14)                   ; 0x2014 <main+0x285>
    4802: d0 03        	bne	$4807 <_ZN12_GLOBAL__N_112print_stringEPKcP6Status+0x5d>
    4804: 4c ab 48     	jmp	$48ab <_ZN12_GLOBAL__N_112print_stringEPKcP6Status+0x101>
    4807: e6 12        	inc	$12                     ; 0x2012 <main+0x283>
    4809: d0 02        	bne	$480d <_ZN12_GLOBAL__N_112print_stringEPKcP6Status+0x63>
    480b: e6 13        	inc	$13                     ; 0x2013 <main+0x284>
    480d: a6 c8        	ldx	$c8                     ; 0x20c8 <main+0x339>
    480f: e4 13        	cpx	$13                     ; 0x2013 <main+0x284>
    4811: d0 e1        	bne	$47f4 <_ZN12_GLOBAL__N_112print_stringEPKcP6Status+0x4a>
    4813: a6 c5        	ldx	$c5                     ; 0x20c5 <main+0x336>
    4815: e4 12        	cpx	$12                     ; 0x2012 <main+0x283>
    4817: d0 db        	bne	$47f4 <_ZN12_GLOBAL__N_112print_stringEPKcP6Status+0x4a>
    4819: a0 01        	ldy	#$1
    481b: b1 c3        	lda	($c3),y                 ; 0x20c3 <main+0x334>
    481d: 29 01        	and	#$1
    481f: f0 03        	beq	$4824 <_ZN12_GLOBAL__N_112print_stringEPKcP6Status+0x7a>
    4821: 4c 7c 48     	jmp	$487c <_ZN12_GLOBAL__N_112print_stringEPKcP6Status+0xd2>
    4824: a5 c3        	lda	$c3                     ; 0x20c3 <main+0x334>
    4826: 18           	clc
    4827: 69 0b        	adc	#$b
    4829: 85 14        	sta	$14                     ; 0x2014 <main+0x285>
    482b: a5 c4        	lda	$c4                     ; 0x20c4 <main+0x335>
    482d: 69 00        	adc	#$0
    482f: 85 15        	sta	$15                     ; 0x2015 <main+0x286>
    4831: a0 0b        	ldy	#$b
    4833: b1 c3        	lda	($c3),y                 ; 0x20c3 <main+0x334>
    4835: 85 13        	sta	$13                     ; 0x2013 <main+0x284>
    4837: a0 01        	ldy	#$1
    4839: b1 14        	lda	($14),y                 ; 0x2014 <main+0x285>
    483b: 85 12        	sta	$12                     ; 0x2012 <main+0x283>
    483d: a6 c8        	ldx	$c8                     ; 0x20c8 <main+0x339>
    483f: e4 12        	cpx	$12                     ; 0x2012 <main+0x283>
    4841: d0 08        	bne	$484b <_ZN12_GLOBAL__N_112print_stringEPKcP6Status+0xa1>
    4843: a6 c5        	ldx	$c5                     ; 0x20c5 <main+0x336>
    4845: e4 13        	cpx	$13                     ; 0x2013 <main+0x284>
    4847: 90 06        	bcc	$484f <_ZN12_GLOBAL__N_112print_stringEPKcP6Status+0xa5>
    4849: 80 31        	bra	$487c <_ZN12_GLOBAL__N_112print_stringEPKcP6Status+0xd2>
    484b: e4 12        	cpx	$12                     ; 0x2012 <main+0x283>
    484d: b0 2d        	bcs	$487c <_ZN12_GLOBAL__N_112print_stringEPKcP6Status+0xd2>
    484f: 38           	sec
    4850: a5 c5        	lda	$c5                     ; 0x20c5 <main+0x336>
    4852: e5 13        	sbc	$13                     ; 0x2013 <main+0x284>
    4854: a8           	tay
    4855: a5 c8        	lda	$c8                     ; 0x20c8 <main+0x339>
    4857: e5 12        	sbc	$12                     ; 0x2012 <main+0x283>
    4859: 85 c7        	sta	$c7                     ; 0x20c7 <main+0x338>
    485b: a6 c3        	ldx	$c3                     ; 0x20c3 <main+0x334>
    485d: 86 12        	stx	$12                     ; 0x2012 <main+0x283>
    485f: a6 c4        	ldx	$c4                     ; 0x20c4 <main+0x335>
    4861: 86 13        	stx	$13                     ; 0x2013 <main+0x284>
    4863: 84 c6        	sty	$c6                     ; 0x20c6 <main+0x337>
    4865: a9 20        	lda	#$20
    4867: 20 d7 46     	jsr	$46d7 <_ZN12_GLOBAL__N_13putEcP6Status>
    486a: a6 c7        	ldx	$c7                     ; 0x20c7 <main+0x338>
    486c: e6 c6        	inc	$c6                     ; 0x20c6 <main+0x337>
    486e: d0 01        	bne	$4871 <_ZN12_GLOBAL__N_112print_stringEPKcP6Status+0xc7>
    4870: e8           	inx
    4871: 86 c7        	stx	$c7                     ; 0x20c7 <main+0x338>
    4873: a4 c6        	ldy	$c6                     ; 0x20c6 <main+0x337>
    4875: 8a           	txa
    4876: d0 e3        	bne	$485b <_ZN12_GLOBAL__N_112print_stringEPKcP6Status+0xb1>
    4878: a5 c6        	lda	$c6                     ; 0x20c6 <main+0x337>
    487a: d0 df        	bne	$485b <_ZN12_GLOBAL__N_112print_stringEPKcP6Status+0xb1>
    487c: a4 c8        	ldy	$c8                     ; 0x20c8 <main+0x339>
    487e: d0 04        	bne	$4884 <_ZN12_GLOBAL__N_112print_stringEPKcP6Status+0xda>
    4880: a5 c5        	lda	$c5                     ; 0x20c5 <main+0x336>
    4882: f0 26        	beq	$48aa <_ZN12_GLOBAL__N_112print_stringEPKcP6Status+0x100>
    4884: a2 ff        	ldx	#$ff
    4886: c6 c5        	dec	$c5                     ; 0x20c5 <main+0x336>
    4888: e4 c5        	cpx	$c5                     ; 0x20c5 <main+0x336>
    488a: d0 01        	bne	$488d <_ZN12_GLOBAL__N_112print_stringEPKcP6Status+0xe3>
    488c: 88           	dey
    488d: 84 c6        	sty	$c6                     ; 0x20c6 <main+0x337>
    488f: b2 c1        	lda	($c1)                   ; 0x20c1 <main+0x332>
    4891: e6 c1        	inc	$c1                     ; 0x20c1 <main+0x332>
    4893: d0 02        	bne	$4897 <_ZN12_GLOBAL__N_112print_stringEPKcP6Status+0xed>
    4895: e6 c2        	inc	$c2                     ; 0x20c2 <main+0x333>
    4897: a6 c3        	ldx	$c3                     ; 0x20c3 <main+0x334>
    4899: 86 12        	stx	$12                     ; 0x2012 <main+0x283>
    489b: a6 c4        	ldx	$c4                     ; 0x20c4 <main+0x335>
    489d: 86 13        	stx	$13                     ; 0x2013 <main+0x284>
    489f: 20 d7 46     	jsr	$46d7 <_ZN12_GLOBAL__N_13putEcP6Status>
    48a2: a4 c6        	ldy	$c6                     ; 0x20c6 <main+0x337>
    48a4: d0 de        	bne	$4884 <_ZN12_GLOBAL__N_112print_stringEPKcP6Status+0xda>
    48a6: a5 c5        	lda	$c5                     ; 0x20c5 <main+0x336>
    48a8: d0 da        	bne	$4884 <_ZN12_GLOBAL__N_112print_stringEPKcP6Status+0xda>
    48aa: 60           	rts
    48ab: a6 12        	ldx	$12                     ; 0x2012 <main+0x283>
    48ad: 86 c5        	stx	$c5                     ; 0x20c5 <main+0x336>
    48af: a6 13        	ldx	$13                     ; 0x2013 <main+0x284>
    48b1: 86 c8        	stx	$c8                     ; 0x20c8 <main+0x339>
    48b3: 4c 19 48     	jmp	$4819 <_ZN12_GLOBAL__N_112print_stringEPKcP6Status+0x6f>

000048b6 <printf>:
    48b6: 18           	clc
    48b7: a6 10        	ldx	$10                     ; 0x2010 <main+0x281>
    48b9: a4 11        	ldy	$11                     ; 0x2011 <main+0x282>
    48bb: 86 8a        	stx	$8a                     ; 0x208a <main+0x2fb>
    48bd: 84 8b        	sty	$8b                     ; 0x208b <main+0x2fc>
    48bf: a6 8a        	ldx	$8a                     ; 0x208a <main+0x2fb>
    48c1: a4 8b        	ldy	$8b                     ; 0x208b <main+0x2fc>
    48c3: 86 75        	stx	$75                     ; 0x2075 <main+0x2e6>
    48c5: 84 76        	sty	$76                     ; 0x2076 <main+0x2e7>
    48c7: a2 ff        	ldx	#$ff
    48c9: 86 7a        	stx	$7a                     ; 0x207a <main+0x2eb>
    48cb: 86 7b        	stx	$7b                     ; 0x207b <main+0x2ec>
    48cd: 64 7c        	stz	$7c                     ; 0x207c <main+0x2ed>
    48cf: 64 7d        	stz	$7d                     ; 0x207d <main+0x2ee>
    48d1: e8           	inx
    48d2: 86 14        	stx	$14                     ; 0x2014 <main+0x285>
    48d4: a2 00        	ldx	#$0
    48d6: 86 15        	stx	$15                     ; 0x2015 <main+0x286>
    48d8: a6 14        	ldx	$14                     ; 0x2014 <main+0x285>
    48da: a4 15        	ldy	$15                     ; 0x2015 <main+0x286>
    48dc: 86 80        	stx	$80                     ; 0x2080 <main+0x2f1>
    48de: 84 81        	sty	$81                     ; 0x2081 <main+0x2f2>
    48e0: a2 02        	ldx	#$2
    48e2: 86 86        	stx	$86                     ; 0x2086 <main+0x2f7>
    48e4: 64 87        	stz	$87                     ; 0x2087 <main+0x2f8>
    48e6: a6 75        	ldx	$75                     ; 0x2075 <main+0x2e6>
    48e8: a4 76        	ldy	$76                     ; 0x2076 <main+0x2e7>
    48ea: 86 88        	stx	$88                     ; 0x2088 <main+0x2f9>
    48ec: 84 89        	sty	$89                     ; 0x2089 <main+0x2fa>
    48ee: a6 12        	ldx	$12                     ; 0x2012 <main+0x283>
    48f0: 86 73        	stx	$73                     ; 0x2073 <main+0x2e4>
    48f2: a6 13        	ldx	$13                     ; 0x2013 <main+0x284>
    48f4: 86 74        	stx	$74                     ; 0x2074 <main+0x2e5>
    48f6: b2 12        	lda	($12)                   ; 0x2012 <main+0x283>
    48f8: a2 00        	ldx	#$0
    48fa: c9 25        	cmp	#$25
    48fc: f0 1c        	beq	$491a <printf+0x64>
    48fe: a8           	tay
    48ff: f0 36        	beq	$4937 <printf+0x81>
    4901: 20 12 4a     	jsr	$4a12 <putchar>
    4904: e6 73        	inc	$73                     ; 0x2073 <main+0x2e4>
    4906: d0 02        	bne	$490a <printf+0x54>
    4908: e6 74        	inc	$74                     ; 0x2074 <main+0x2e5>
    490a: e6 7c        	inc	$7c                     ; 0x207c <main+0x2ed>
    490c: d0 02        	bne	$4910 <printf+0x5a>
    490e: e6 7d        	inc	$7d                     ; 0x207d <main+0x2ee>
    4910: a6 73        	ldx	$73                     ; 0x2073 <main+0x2e4>
    4912: 86 12        	stx	$12                     ; 0x2012 <main+0x283>
    4914: a6 74        	ldx	$74                     ; 0x2074 <main+0x2e5>
    4916: 86 13        	stx	$13                     ; 0x2013 <main+0x284>
    4918: 80 d4        	bra	$48ee <printf+0x38>
    491a: a2 77        	ldx	#$77
    491c: 86 14        	stx	$14                     ; 0x2014 <main+0x285>
    491e: a2 00        	ldx	#$0
    4920: 86 15        	stx	$15                     ; 0x2015 <main+0x286>
    4922: 20 a3 3b     	jsr	$3ba3 <_ZN12_GLOBAL__N_15printEPKcP6Status>
    4925: a6 13        	ldx	$13                     ; 0x2013 <main+0x284>
    4927: e4 74        	cpx	$74                     ; 0x2074 <main+0x2e5>
    4929: d0 c3        	bne	$48ee <printf+0x38>
    492b: a6 12        	ldx	$12                     ; 0x2012 <main+0x283>
    492d: e4 73        	cpx	$73                     ; 0x2073 <main+0x2e4>
    492f: d0 bd        	bne	$48ee <printf+0x38>
    4931: b2 73        	lda	($73)                   ; 0x2073 <main+0x2e4>
    4933: a2 00        	ldx	#$0
    4935: 80 ca        	bra	$4901 <printf+0x4b>
    4937: 60           	rts

00004938 <sprintf>:
    4938: a6 12        	ldx	$12                     ; 0x2012 <main+0x283>
    493a: 86 60        	stx	$60                     ; 0x2060 <main+0x2d1>
    493c: a6 13        	ldx	$13                     ; 0x2013 <main+0x284>
    493e: 86 61        	stx	$61                     ; 0x2061 <main+0x2d2>
    4940: 18           	clc
    4941: a6 10        	ldx	$10                     ; 0x2010 <main+0x281>
    4943: a4 11        	ldy	$11                     ; 0x2011 <main+0x282>
    4945: 86 79        	stx	$79                     ; 0x2079 <main+0x2ea>
    4947: 84 7a        	sty	$7a                     ; 0x207a <main+0x2eb>
    4949: a6 79        	ldx	$79                     ; 0x2079 <main+0x2ea>
    494b: a4 7a        	ldy	$7a                     ; 0x207a <main+0x2eb>
    494d: 86 64        	stx	$64                     ; 0x2064 <main+0x2d5>
    494f: 84 65        	sty	$65                     ; 0x2065 <main+0x2d6>
    4951: a2 ff        	ldx	#$ff
    4953: 86 69        	stx	$69                     ; 0x2069 <main+0x2da>
    4955: 86 6a        	stx	$6a                     ; 0x206a <main+0x2db>
    4957: 64 6b        	stz	$6b                     ; 0x206b <main+0x2dc>
    4959: 64 6c        	stz	$6c                     ; 0x206c <main+0x2dd>
    495b: a6 60        	ldx	$60                     ; 0x2060 <main+0x2d1>
    495d: a4 61        	ldy	$61                     ; 0x2061 <main+0x2d2>
    495f: 86 6f        	stx	$6f                     ; 0x206f <main+0x2e0>
    4961: 84 70        	sty	$70                     ; 0x2070 <main+0x2e1>
    4963: a2 00        	ldx	#$0
    4965: 86 12        	stx	$12                     ; 0x2012 <main+0x283>
    4967: a2 00        	ldx	#$0
    4969: 86 13        	stx	$13                     ; 0x2013 <main+0x284>
    496b: a6 12        	ldx	$12                     ; 0x2012 <main+0x283>
    496d: a4 13        	ldy	$13                     ; 0x2013 <main+0x284>
    496f: 86 75        	stx	$75                     ; 0x2075 <main+0x2e6>
    4971: 84 76        	sty	$76                     ; 0x2076 <main+0x2e7>
    4973: a6 64        	ldx	$64                     ; 0x2064 <main+0x2d5>
    4975: a4 65        	ldy	$65                     ; 0x2065 <main+0x2d6>
    4977: 86 77        	stx	$77                     ; 0x2077 <main+0x2e8>
    4979: 84 78        	sty	$78                     ; 0x2078 <main+0x2e9>
    497b: a2 15        	ldx	#$15
    497d: 86 12        	stx	$12                     ; 0x2012 <main+0x283>
    497f: a2 55        	ldx	#$55
    4981: 86 13        	stx	$13                     ; 0x2013 <main+0x284>
    4983: 80 17        	bra	$499c <sprintf+0x64>
    4985: a2 66        	ldx	#$66
    4987: 86 14        	stx	$14                     ; 0x2014 <main+0x285>
    4989: a2 00        	ldx	#$0
    498b: 86 15        	stx	$15                     ; 0x2015 <main+0x286>
    498d: 20 a3 3b     	jsr	$3ba3 <_ZN12_GLOBAL__N_15printEPKcP6Status>
    4990: a6 13        	ldx	$13                     ; 0x2013 <main+0x284>
    4992: e4 63        	cpx	$63                     ; 0x2063 <main+0x2d4>
    4994: d0 06        	bne	$499c <sprintf+0x64>
    4996: a6 12        	ldx	$12                     ; 0x2012 <main+0x283>
    4998: e4 62        	cpx	$62                     ; 0x2062 <main+0x2d3>
    499a: f0 11        	beq	$49ad <sprintf+0x75>
    499c: a6 12        	ldx	$12                     ; 0x2012 <main+0x283>
    499e: 86 62        	stx	$62                     ; 0x2062 <main+0x2d3>
    49a0: a6 13        	ldx	$13                     ; 0x2013 <main+0x284>
    49a2: 86 63        	stx	$63                     ; 0x2063 <main+0x2d4>
    49a4: b2 12        	lda	($12)                   ; 0x2012 <main+0x283>
    49a6: c9 25        	cmp	#$25
    49a8: f0 db        	beq	$4985 <sprintf+0x4d>
    49aa: aa           	tax
    49ab: f0 43        	beq	$49f0 <sprintf+0xb8>
    49ad: a6 6b        	ldx	$6b                     ; 0x206b <main+0x2dc>
    49af: 86 12        	stx	$12                     ; 0x2012 <main+0x283>
    49b1: a4 6c        	ldy	$6c                     ; 0x206c <main+0x2dd>
    49b3: 84 13        	sty	$13                     ; 0x2013 <main+0x284>
    49b5: c0 ff        	cpy	#$ff
    49b7: d0 04        	bne	$49bd <sprintf+0x85>
    49b9: e0 ff        	cpx	#$ff
    49bb: f0 15        	beq	$49d2 <sprintf+0x9a>
    49bd: b2 62        	lda	($62)                   ; 0x2062 <main+0x2d3>
    49bf: 85 16        	sta	$16                     ; 0x2016 <main+0x287>
    49c1: a5 60        	lda	$60                     ; 0x2060 <main+0x2d1>
    49c3: 18           	clc
    49c4: 65 12        	adc	$12                     ; 0x2012 <main+0x283>
    49c6: 85 14        	sta	$14                     ; 0x2014 <main+0x285>
    49c8: a5 61        	lda	$61                     ; 0x2061 <main+0x2d2>
    49ca: 65 13        	adc	$13                     ; 0x2013 <main+0x284>
    49cc: 85 15        	sta	$15                     ; 0x2015 <main+0x286>
    49ce: a5 16        	lda	$16                     ; 0x2016 <main+0x287>
    49d0: 92 14        	sta	($14)                   ; 0x2014 <main+0x285>
    49d2: e6 12        	inc	$12                     ; 0x2012 <main+0x283>
    49d4: d0 02        	bne	$49d8 <sprintf+0xa0>
    49d6: e6 13        	inc	$13                     ; 0x2013 <main+0x284>
    49d8: a6 12        	ldx	$12                     ; 0x2012 <main+0x283>
    49da: a4 13        	ldy	$13                     ; 0x2013 <main+0x284>
    49dc: 86 6b        	stx	$6b                     ; 0x206b <main+0x2dc>
    49de: 84 6c        	sty	$6c                     ; 0x206c <main+0x2dd>
    49e0: e6 62        	inc	$62                     ; 0x2062 <main+0x2d3>
    49e2: d0 02        	bne	$49e6 <sprintf+0xae>
    49e4: e6 63        	inc	$63                     ; 0x2063 <main+0x2d4>
    49e6: a6 62        	ldx	$62                     ; 0x2062 <main+0x2d3>
    49e8: 86 12        	stx	$12                     ; 0x2012 <main+0x283>
    49ea: a6 63        	ldx	$63                     ; 0x2063 <main+0x2d4>
    49ec: 86 13        	stx	$13                     ; 0x2013 <main+0x284>
    49ee: 80 ac        	bra	$499c <sprintf+0x64>
    49f0: a6 6b        	ldx	$6b                     ; 0x206b <main+0x2dc>
    49f2: 86 12        	stx	$12                     ; 0x2012 <main+0x283>
    49f4: a4 6c        	ldy	$6c                     ; 0x206c <main+0x2dd>
    49f6: 84 13        	sty	$13                     ; 0x2013 <main+0x284>
    49f8: c0 ff        	cpy	#$ff
    49fa: d0 04        	bne	$4a00 <sprintf+0xc8>
    49fc: e0 ff        	cpx	#$ff
    49fe: f0 11        	beq	$4a11 <sprintf+0xd9>
    4a00: a5 60        	lda	$60                     ; 0x2060 <main+0x2d1>
    4a02: 18           	clc
    4a03: 65 12        	adc	$12                     ; 0x2012 <main+0x283>
    4a05: 85 12        	sta	$12                     ; 0x2012 <main+0x283>
    4a07: a5 61        	lda	$61                     ; 0x2061 <main+0x2d2>
    4a09: 65 13        	adc	$13                     ; 0x2013 <main+0x284>
    4a0b: 85 13        	sta	$13                     ; 0x2013 <main+0x284>
    4a0d: a9 00        	lda	#$0
    4a0f: 92 12        	sta	($12)                   ; 0x2012 <main+0x283>
    4a11: 60           	rts

00004a12 <putchar>:
    4a12: 86 12        	stx	$12                     ; 0x2012 <main+0x283>
    4a14: 85 1b        	sta	$1b                     ; 0x201b <main+0x28c>
    4a16: 85 5d        	sta	$5d                     ; 0x205d <main+0x2ce>
    4a18: a6 01        	ldx	$1                      ; 0x2001 <main+0x272>
    4a1a: 86 cb        	stx	$cb                     ; 0x20cb <main+0x33c>
    4a1c: a6 54        	ldx	$54                     ; 0x2054 <main+0x2c5>
    4a1e: a0 50        	ldy	#$50
    4a20: 8c 00 de     	sty	$de00                   ; 0xde00 <__heap_start+0x550c>
    4a23: 9c 01 de     	stz	$de01                   ; 0xde01 <__heap_start+0x550d>
    4a26: 8e 02 de     	stx	$de02                   ; 0xde02 <__heap_start+0x550e>
    4a29: 9c 03 de     	stz	$de03                   ; 0xde03 <__heap_start+0x550f>
    4a2c: ae 10 de     	ldx	$de10                   ; 0xde10 <__heap_start+0x551c>
    4a2f: ad 11 de     	lda	$de11                   ; 0xde11 <__heap_start+0x551d>
    4a32: ac 12 de     	ldy	$de12                   ; 0xde12 <__heap_start+0x551e>
    4a35: 84 1a        	sty	$1a                     ; 0x201a <main+0x28b>
    4a37: ac 13 de     	ldy	$de13                   ; 0xde13 <__heap_start+0x551f>
    4a3a: 84 1c        	sty	$1c                     ; 0x201c <main+0x28d>
    4a3c: 9c 08 de     	stz	$de08                   ; 0xde08 <__heap_start+0x5514>
    4a3f: a0 c0        	ldy	#$c0
    4a41: 8c 09 de     	sty	$de09                   ; 0xde09 <__heap_start+0x5515>
    4a44: 9c 0a de     	stz	$de0a                   ; 0xde0a <__heap_start+0x5516>
    4a47: 9c 0b de     	stz	$de0b                   ; 0xde0b <__heap_start+0x5517>
    4a4a: 8e 0c de     	stx	$de0c                   ; 0xde0c <__heap_start+0x5518>
    4a4d: 8d 0d de     	sta	$de0d                   ; 0xde0d <__heap_start+0x5519>
    4a50: 64 13        	stz	$13                     ; 0x2013 <main+0x284>
    4a52: a2 00        	ldx	#$0
    4a54: 86 14        	stx	$14                     ; 0x2014 <main+0x285>
    4a56: a2 c0        	ldx	#$c0
    4a58: 86 15        	stx	$15                     ; 0x2015 <main+0x286>
    4a5a: a2 11        	ldx	#$11
    4a5c: 86 16        	stx	$16                     ; 0x2016 <main+0x287>
    4a5e: a2 c9        	ldx	#$c9
    4a60: 86 17        	stx	$17                     ; 0x2017 <main+0x288>
    4a62: a2 10        	ldx	#$10
    4a64: 86 18        	stx	$18                     ; 0x2018 <main+0x289>
    4a66: a2 c9        	ldx	#$c9
    4a68: 86 19        	stx	$19                     ; 0x2019 <main+0x28a>
    4a6a: a6 1a        	ldx	$1a                     ; 0x201a <main+0x28b>
    4a6c: 8e 0e de     	stx	$de0e                   ; 0xde0e <__heap_start+0x551a>
    4a6f: a6 1c        	ldx	$1c                     ; 0x201c <main+0x28d>
    4a71: 8e 0f de     	stx	$de0f                   ; 0xde0f <__heap_start+0x551b>
    4a74: ac 18 de     	ldy	$de18                   ; 0xde18 <__heap_start+0x5524>
    4a77: ad 19 de     	lda	$de19                   ; 0xde19 <__heap_start+0x5525>
    4a7a: ae 1a de     	ldx	$de1a                   ; 0xde1a <__heap_start+0x5526>
    4a7d: ae 1b de     	ldx	$de1b                   ; 0xde1b <__heap_start+0x5527>
    4a80: 84 1c        	sty	$1c                     ; 0x201c <main+0x28d>
    4a82: 85 1d        	sta	$1d                     ; 0x201d <main+0x28e>
    4a84: 64 1a        	stz	$1a                     ; 0x201a <main+0x28b>
    4a86: 80 13        	bra	$4a9b <putchar+0x89>
    4a88: a5 1c        	lda	$1c                     ; 0x201c <main+0x28d>
    4a8a: 18           	clc
    4a8b: 69 50        	adc	#$50
    4a8d: 85 1c        	sta	$1c                     ; 0x201c <main+0x28d>
    4a8f: a5 1d        	lda	$1d                     ; 0x201d <main+0x28e>
    4a91: 69 00        	adc	#$0
    4a93: 85 1d        	sta	$1d                     ; 0x201d <main+0x28e>
    4a95: e6 13        	inc	$13                     ; 0x2013 <main+0x284>
    4a97: d0 02        	bne	$4a9b <putchar+0x89>
    4a99: e6 1a        	inc	$1a                     ; 0x201a <main+0x28b>
    4a9b: a9 5d        	lda	#$5d
    4a9d: 18           	clc
    4a9e: 65 13        	adc	$13                     ; 0x2013 <main+0x284>
    4aa0: 85 1e        	sta	$1e                     ; 0x201e <main+0x28f>
    4aa2: a9 00        	lda	#$0
    4aa4: 65 1a        	adc	$1a                     ; 0x201a <main+0x28b>
    4aa6: 85 1f        	sta	$1f                     ; 0x201f <main+0x290>
    4aa8: b2 1e        	lda	($1e)                   ; 0x201e <main+0x28f>
    4aaa: c9 0a        	cmp	#$a
    4aac: f0 26        	beq	$4ad4 <putchar+0xc2>
    4aae: c9 0d        	cmp	#$d
    4ab0: f0 22        	beq	$4ad4 <putchar+0xc2>
    4ab2: aa           	tax
    4ab3: d0 03        	bne	$4ab8 <putchar+0xa6>
    4ab5: 4c dc 4b     	jmp	$4bdc <putchar+0x1ca>
    4ab8: a2 03        	ldx	#$3
    4aba: 86 01        	stx	$1                      ; 0x2001 <main+0x272>
    4abc: a5 33        	lda	$33                     ; 0x2033 <main+0x2a4>
    4abe: a4 53        	ldy	$53                     ; 0x2053 <main+0x2c4>
    4ac0: 91 1c        	sta	($1c),y                 ; 0x201c <main+0x28d>
    4ac2: ca           	dex
    4ac3: 86 01        	stx	$1                      ; 0x2001 <main+0x272>
    4ac5: b2 1e        	lda	($1e)                   ; 0x201e <main+0x28f>
    4ac7: a4 53        	ldy	$53                     ; 0x2053 <main+0x2c4>
    4ac9: 91 1c        	sta	($1c),y                 ; 0x201c <main+0x28d>
    4acb: a6 53        	ldx	$53                     ; 0x2053 <main+0x2c4>
    4acd: e8           	inx
    4ace: e6 53        	inc	$53                     ; 0x2053 <main+0x2c4>
    4ad0: e0 50        	cpx	#$50
    4ad2: d0 c1        	bne	$4a95 <putchar+0x83>
    4ad4: 64 53        	stz	$53                     ; 0x2053 <main+0x2c4>
    4ad6: a6 54        	ldx	$54                     ; 0x2054 <main+0x2c5>
    4ad8: e8           	inx
    4ad9: e6 54        	inc	$54                     ; 0x2054 <main+0x2c5>
    4adb: e0 1e        	cpx	#$1e
    4add: f0 03        	beq	$4ae2 <putchar+0xd0>
    4adf: 4c 88 4a     	jmp	$4a88 <putchar+0x76>
    4ae2: a2 03        	ldx	#$3
    4ae4: 86 01        	stx	$1                      ; 0x2001 <main+0x272>
    4ae6: a2 09        	ldx	#$9
    4ae8: a9 10        	lda	#$10
    4aea: a0 00        	ldy	#$0
    4aec: 84 1c        	sty	$1c                     ; 0x201c <main+0x28d>
    4aee: a0 c0        	ldy	#$c0
    4af0: 84 1d        	sty	$1d                     ; 0x201d <main+0x28e>
    4af2: a0 50        	ldy	#$50
    4af4: 85 1e        	sta	$1e                     ; 0x201e <main+0x28f>
    4af6: b1 1c        	lda	($1c),y                 ; 0x201c <main+0x28d>
    4af8: 92 1c        	sta	($1c)                   ; 0x201c <main+0x28d>
    4afa: a9 ff        	lda	#$ff
    4afc: c6 1e        	dec	$1e                     ; 0x201e <main+0x28f>
    4afe: c5 1e        	cmp	$1e                     ; 0x201e <main+0x28f>
    4b00: d0 01        	bne	$4b03 <putchar+0xf1>
    4b02: ca           	dex
    4b03: e6 1c        	inc	$1c                     ; 0x201c <main+0x28d>
    4b05: d0 02        	bne	$4b09 <putchar+0xf7>
    4b07: e6 1d        	inc	$1d                     ; 0x201d <main+0x28e>
    4b09: 8a           	txa
    4b0a: d0 ea        	bne	$4af6 <putchar+0xe4>
    4b0c: a5 1e        	lda	$1e                     ; 0x201e <main+0x28f>
    4b0e: d0 e6        	bne	$4af6 <putchar+0xe4>
    4b10: a2 02        	ldx	#$2
    4b12: 86 01        	stx	$1                      ; 0x2001 <main+0x272>
    4b14: a2 09        	ldx	#$9
    4b16: a9 10        	lda	#$10
    4b18: 5a           	phy
    4b19: a0 00        	ldy	#$0
    4b1b: 84 1c        	sty	$1c                     ; 0x201c <main+0x28d>
    4b1d: a0 c0        	ldy	#$c0
    4b1f: 84 1d        	sty	$1d                     ; 0x201d <main+0x28e>
    4b21: 7a           	ply
    4b22: 85 1e        	sta	$1e                     ; 0x201e <main+0x28f>
    4b24: b1 1c        	lda	($1c),y                 ; 0x201c <main+0x28d>
    4b26: 92 1c        	sta	($1c)                   ; 0x201c <main+0x28d>
    4b28: a9 ff        	lda	#$ff
    4b2a: c6 1e        	dec	$1e                     ; 0x201e <main+0x28f>
    4b2c: c5 1e        	cmp	$1e                     ; 0x201e <main+0x28f>
    4b2e: d0 01        	bne	$4b31 <putchar+0x11f>
    4b30: ca           	dex
    4b31: e6 1c        	inc	$1c                     ; 0x201c <main+0x28d>
    4b33: d0 02        	bne	$4b37 <putchar+0x125>
    4b35: e6 1d        	inc	$1d                     ; 0x201d <main+0x28e>
    4b37: 8a           	txa
    4b38: d0 ea        	bne	$4b24 <putchar+0x112>
    4b3a: a5 1e        	lda	$1e                     ; 0x201e <main+0x28f>
    4b3c: d0 e6        	bne	$4b24 <putchar+0x112>
    4b3e: a2 02        	ldx	#$2
    4b40: 86 01        	stx	$1                      ; 0x2001 <main+0x272>
    4b42: e8           	inx
    4b43: 86 01        	stx	$1                      ; 0x2001 <main+0x272>
    4b45: a5 33        	lda	$33                     ; 0x2033 <main+0x2a4>
    4b47: a2 50        	ldx	#$50
    4b49: a0 11        	ldy	#$11
    4b4b: 84 1c        	sty	$1c                     ; 0x201c <main+0x28d>
    4b4d: a0 c9        	ldy	#$c9
    4b4f: 84 1d        	sty	$1d                     ; 0x201d <main+0x28e>
    4b51: a0 10        	ldy	#$10
    4b53: 84 1e        	sty	$1e                     ; 0x201e <main+0x28f>
    4b55: a0 c9        	ldy	#$c9
    4b57: 84 1f        	sty	$1f                     ; 0x201f <main+0x290>
    4b59: a4 1c        	ldy	$1c                     ; 0x201c <main+0x28d>
    4b5b: 84 22        	sty	$22                     ; 0x2022 <main+0x293>
    4b5d: a4 1d        	ldy	$1d                     ; 0x201d <main+0x28e>
    4b5f: 84 23        	sty	$23                     ; 0x2023 <main+0x294>
    4b61: 92 1e        	sta	($1e)                   ; 0x201e <main+0x28f>
    4b63: e6 1c        	inc	$1c                     ; 0x201c <main+0x28d>
    4b65: d0 02        	bne	$4b69 <putchar+0x157>
    4b67: e6 1d        	inc	$1d                     ; 0x201d <main+0x28e>
    4b69: ca           	dex
    4b6a: a4 22        	ldy	$22                     ; 0x2022 <main+0x293>
    4b6c: 84 1e        	sty	$1e                     ; 0x201e <main+0x28f>
    4b6e: a4 23        	ldy	$23                     ; 0x2023 <main+0x294>
    4b70: 84 1f        	sty	$1f                     ; 0x201f <main+0x290>
    4b72: e0 00        	cpx	#$0
    4b74: d0 e3        	bne	$4b59 <putchar+0x147>
    4b76: a2 02        	ldx	#$2
    4b78: 86 01        	stx	$1                      ; 0x2001 <main+0x272>
    4b7a: a2 50        	ldx	#$50
    4b7c: a0 11        	ldy	#$11
    4b7e: 84 1c        	sty	$1c                     ; 0x201c <main+0x28d>
    4b80: a0 c9        	ldy	#$c9
    4b82: 84 1d        	sty	$1d                     ; 0x201d <main+0x28e>
    4b84: a0 10        	ldy	#$10
    4b86: 84 1e        	sty	$1e                     ; 0x201e <main+0x28f>
    4b88: a0 c9        	ldy	#$c9
    4b8a: 84 1f        	sty	$1f                     ; 0x201f <main+0x290>
    4b8c: a9 20        	lda	#$20
    4b8e: a4 1c        	ldy	$1c                     ; 0x201c <main+0x28d>
    4b90: 84 22        	sty	$22                     ; 0x2022 <main+0x293>
    4b92: a4 1d        	ldy	$1d                     ; 0x201d <main+0x28e>
    4b94: 84 23        	sty	$23                     ; 0x2023 <main+0x294>
    4b96: 92 1e        	sta	($1e)                   ; 0x201e <main+0x28f>
    4b98: e6 1c        	inc	$1c                     ; 0x201c <main+0x28d>
    4b9a: d0 02        	bne	$4b9e <putchar+0x18c>
    4b9c: e6 1d        	inc	$1d                     ; 0x201d <main+0x28e>
    4b9e: ca           	dex
    4b9f: a4 22        	ldy	$22                     ; 0x2022 <main+0x293>
    4ba1: 84 1e        	sty	$1e                     ; 0x201e <main+0x28f>
    4ba3: a4 23        	ldy	$23                     ; 0x2023 <main+0x294>
    4ba5: 84 1f        	sty	$1f                     ; 0x201f <main+0x290>
    4ba7: e0 00        	cpx	#$0
    4ba9: d0 e3        	bne	$4b8e <putchar+0x17c>
    4bab: c6 54        	dec	$54                     ; 0x2054 <main+0x2c5>
    4bad: 9c 08 de     	stz	$de08                   ; 0xde08 <__heap_start+0x5514>
    4bb0: a2 c0        	ldx	#$c0
    4bb2: 8e 09 de     	stx	$de09                   ; 0xde09 <__heap_start+0x5515>
    4bb5: 9c 0a de     	stz	$de0a                   ; 0xde0a <__heap_start+0x5516>
    4bb8: 9c 0b de     	stz	$de0b                   ; 0xde0b <__heap_start+0x5517>
    4bbb: a2 1d        	ldx	#$1d
    4bbd: 8e 0c de     	stx	$de0c                   ; 0xde0c <__heap_start+0x5518>
    4bc0: 9c 0d de     	stz	$de0d                   ; 0xde0d <__heap_start+0x5519>
    4bc3: 9c 0e de     	stz	$de0e                   ; 0xde0e <__heap_start+0x551a>
    4bc6: 9c 0f de     	stz	$de0f                   ; 0xde0f <__heap_start+0x551b>
    4bc9: ae 18 de     	ldx	$de18                   ; 0xde18 <__heap_start+0x5524>
    4bcc: ac 19 de     	ldy	$de19                   ; 0xde19 <__heap_start+0x5525>
    4bcf: ad 1a de     	lda	$de1a                   ; 0xde1a <__heap_start+0x5526>
    4bd2: ad 1b de     	lda	$de1b                   ; 0xde1b <__heap_start+0x5527>
    4bd5: 86 1c        	stx	$1c                     ; 0x201c <main+0x28d>
    4bd7: 84 1d        	sty	$1d                     ; 0x201d <main+0x28e>
    4bd9: 4c 95 4a     	jmp	$4a95 <putchar+0x83>
    4bdc: a6 cb        	ldx	$cb                     ; 0x20cb <main+0x33c>
    4bde: 86 01        	stx	$1                      ; 0x2001 <main+0x272>
    4be0: a6 53        	ldx	$53                     ; 0x2053 <main+0x2c4>
    4be2: a4 54        	ldy	$54                     ; 0x2054 <main+0x2c5>
    4be4: 8e 14 d0     	stx	$d014                   ; 0xd014 <__heap_start+0x4720>
    4be7: 9c 15 d0     	stz	$d015                   ; 0xd015 <__heap_start+0x4721>
    4bea: 84 54        	sty	$54                     ; 0x2054 <main+0x2c5>
    4bec: 8c 16 d0     	sty	$d016                   ; 0xd016 <__heap_start+0x4722>
    4bef: 9c 17 d0     	stz	$d017                   ; 0xd017 <__heap_start+0x4723>
    4bf2: a6 12        	ldx	$12                     ; 0x2012 <main+0x283>
    4bf4: a5 1b        	lda	$1b                     ; 0x201b <main+0x28c>
    4bf6: 60           	rts

00004bf7 <malloc>:
    4bf7: a8           	tay
    4bf8: 8a           	txa
    4bf9: a2 00        	ldx	#$0
    4bfb: 86 12        	stx	$12                     ; 0x2012 <main+0x283>
    4bfd: a2 00        	ldx	#$0
    4bff: 86 13        	stx	$13                     ; 0x2013 <main+0x284>
    4c01: aa           	tax
    4c02: d0 07        	bne	$4c0b <malloc+0x14>
    4c04: c0 00        	cpy	#$0
    4c06: d0 03        	bne	$4c0b <malloc+0x14>
    4c08: 4c fd 4c     	jmp	$4cfd <malloc+0x106>
    4c0b: 84 16        	sty	$16                     ; 0x2016 <main+0x287>
    4c0d: aa           	tax
    4c0e: d0 0e        	bne	$4c1e <malloc+0x27>
    4c10: a6 16        	ldx	$16                     ; 0x2016 <main+0x287>
    4c12: e0 07        	cpx	#$7
    4c14: b0 0c        	bcs	$4c22 <malloc+0x2b>
    4c16: a2 08        	ldx	#$8
    4c18: 86 61        	stx	$61                     ; 0x2061 <main+0x2d2>
    4c1a: a9 00        	lda	#$0
    4c1c: 80 2f        	bra	$4c4d <malloc+0x56>
    4c1e: c9 00        	cmp	#$0
    4c20: 90 f4        	bcc	$4c16 <malloc+0x1f>
    4c22: a8           	tay
    4c23: a5 16        	lda	$16                     ; 0x2016 <main+0x287>
    4c25: 29 01        	and	#$1
    4c27: a2 02        	ldx	#$2
    4c29: 64 14        	stz	$14                     ; 0x2014 <main+0x285>
    4c2b: c9 00        	cmp	#$0
    4c2d: f0 02        	beq	$4c31 <malloc+0x3a>
    4c2f: a2 03        	ldx	#$3
    4c31: 86 15        	stx	$15                     ; 0x2015 <main+0x286>
    4c33: 18           	clc
    4c34: a5 16        	lda	$16                     ; 0x2016 <main+0x287>
    4c36: 65 15        	adc	$15                     ; 0x2015 <main+0x286>
    4c38: aa           	tax
    4c39: 98           	tya
    4c3a: 65 14        	adc	$14                     ; 0x2014 <main+0x285>
    4c3c: 90 03        	bcc	$4c41 <malloc+0x4a>
    4c3e: 4c fd 4c     	jmp	$4cfd <malloc+0x106>
    4c41: 86 61        	stx	$61                     ; 0x2061 <main+0x2d2>
    4c43: a8           	tay
    4c44: d0 07        	bne	$4c4d <malloc+0x56>
    4c46: e0 00        	cpx	#$0
    4c48: d0 03        	bne	$4c4d <malloc+0x56>
    4c4a: 4c fd 4c     	jmp	$4cfd <malloc+0x106>
    4c4d: 85 60        	sta	$60                     ; 0x2060 <main+0x2d1>
    4c4f: ad 75 88     	lda	$8875                   ; 0x8875 <_ZN12_GLOBAL__N_111initializedE>
    4c52: 29 01        	and	#$1
    4c54: d0 2d        	bne	$4c83 <malloc+0x8c>
    4c56: a9 00        	lda	#$0
    4c58: a2 10        	ldx	#$10
    4c5a: a0 f4        	ldy	#$f4
    4c5c: 84 12        	sty	$12                     ; 0x2012 <main+0x283>
    4c5e: a0 88        	ldy	#$88
    4c60: 84 13        	sty	$13                     ; 0x2013 <main+0x284>
    4c62: 20 1c 03     	jsr	$31c <_ZN12_GLOBAL__N_19FreeChunk6insertEPvj>
    4c65: a2 00        	ldx	#$0
    4c67: 86 12        	stx	$12                     ; 0x2012 <main+0x283>
    4c69: a2 00        	ldx	#$0
    4c6b: 86 13        	stx	$13                     ; 0x2013 <main+0x284>
    4c6d: ae f5 88     	ldx	$88f5                   ; 0x88f5 <__heap_start+0x1>
    4c70: a9 fe        	lda	#$fe
    4c72: 2d f4 88     	and	$88f4                   ; 0x88f4 <__heap_start>
    4c75: 8d f4 88     	sta	$88f4                   ; 0x88f4 <__heap_start>
    4c78: 8e f5 88     	stx	$88f5                   ; 0x88f5 <__heap_start+0x1>
    4c7b: a2 01        	ldx	#$1
    4c7d: 8e 76 88     	stx	$8876                   ; 0x8876 <_ZN12_GLOBAL__N_19last_freeE>
    4c80: 8e 75 88     	stx	$8875                   ; 0x8875 <_ZN12_GLOBAL__N_111initializedE>
    4c83: ae 79 88     	ldx	$8879                   ; 0x8879 <_ZN12_GLOBAL__N_19free_listE>
    4c86: 86 16        	stx	$16                     ; 0x2016 <main+0x287>
    4c88: ac 7a 88     	ldy	$887a                   ; 0x887a <_ZN12_GLOBAL__N_19free_listE+0x1>
    4c8b: 84 17        	sty	$17                     ; 0x2017 <main+0x288>
    4c8d: a9 00        	lda	#$0
    4c8f: 85 14        	sta	$14                     ; 0x2014 <main+0x285>
    4c91: a9 00        	lda	#$0
    4c93: 85 15        	sta	$15                     ; 0x2015 <main+0x286>
    4c95: c4 15        	cpy	$15                     ; 0x2015 <main+0x286>
    4c97: d0 07        	bne	$4ca0 <malloc+0xa9>
    4c99: e4 14        	cpx	$14                     ; 0x2014 <main+0x285>
    4c9b: d0 03        	bne	$4ca0 <malloc+0xa9>
    4c9d: 4c fd 4c     	jmp	$4cfd <malloc+0x106>
    4ca0: a2 00        	ldx	#$0
    4ca2: a0 10        	ldy	#$10
    4ca4: 86 14        	stx	$14                     ; 0x2014 <main+0x285>
    4ca6: 84 15        	sty	$15                     ; 0x2015 <main+0x286>
    4ca8: 18           	clc
    4ca9: a9 f4        	lda	#$f4
    4cab: 65 14        	adc	$14                     ; 0x2014 <main+0x285>
    4cad: 85 18        	sta	$18                     ; 0x2018 <main+0x289>
    4caf: a9 88        	lda	#$88
    4cb1: 65 15        	adc	$15                     ; 0x2015 <main+0x286>
    4cb3: 85 64        	sta	$64                     ; 0x2064 <main+0x2d5>
    4cb5: a0 01        	ldy	#$1
    4cb7: a6 60        	ldx	$60                     ; 0x2060 <main+0x2d1>
    4cb9: 86 19        	stx	$19                     ; 0x2019 <main+0x28a>
    4cbb: a6 16        	ldx	$16                     ; 0x2016 <main+0x287>
    4cbd: 86 14        	stx	$14                     ; 0x2014 <main+0x285>
    4cbf: a6 17        	ldx	$17                     ; 0x2017 <main+0x288>
    4cc1: 86 15        	stx	$15                     ; 0x2015 <main+0x286>
    4cc3: b1 14        	lda	($14),y                 ; 0x2014 <main+0x285>
    4cc5: c5 19        	cmp	$19                     ; 0x2019 <main+0x28a>
    4cc7: d0 0e        	bne	$4cd7 <malloc+0xe0>
    4cc9: b2 14        	lda	($14)                   ; 0x2014 <main+0x285>
    4ccb: 29 fe        	and	#$fe
    4ccd: a6 61        	ldx	$61                     ; 0x2061 <main+0x2d2>
    4ccf: 86 1a        	stx	$1a                     ; 0x201a <main+0x28b>
    4cd1: c5 1a        	cmp	$1a                     ; 0x201a <main+0x28b>
    4cd3: b0 29        	bcs	$4cfe <malloc+0x107>
    4cd5: 80 04        	bra	$4cdb <malloc+0xe4>
    4cd7: c5 19        	cmp	$19                     ; 0x2019 <main+0x28a>
    4cd9: b0 23        	bcs	$4cfe <malloc+0x107>
    4cdb: a5 14        	lda	$14                     ; 0x2014 <main+0x285>
    4cdd: 18           	clc
    4cde: 69 02        	adc	#$2
    4ce0: 85 1a        	sta	$1a                     ; 0x201a <main+0x28b>
    4ce2: a5 15        	lda	$15                     ; 0x2015 <main+0x286>
    4ce4: 69 00        	adc	#$0
    4ce6: 85 1b        	sta	$1b                     ; 0x201b <main+0x28c>
    4ce8: a0 02        	ldy	#$2
    4cea: b1 14        	lda	($14),y                 ; 0x2014 <main+0x285>
    4cec: 85 14        	sta	$14                     ; 0x2014 <main+0x285>
    4cee: 88           	dey
    4cef: b1 1a        	lda	($1a),y                 ; 0x201a <main+0x28b>
    4cf1: 85 15        	sta	$15                     ; 0x2015 <main+0x286>
    4cf3: c5 17        	cmp	$17                     ; 0x2017 <main+0x288>
    4cf5: d0 cc        	bne	$4cc3 <malloc+0xcc>
    4cf7: a5 14        	lda	$14                     ; 0x2014 <main+0x285>
    4cf9: c5 16        	cmp	$16                     ; 0x2016 <main+0x287>
    4cfb: d0 c6        	bne	$4cc3 <malloc+0xcc>
    4cfd: 60           	rts
    4cfe: a6 18        	ldx	$18                     ; 0x2018 <main+0x289>
    4d00: 86 65        	stx	$65                     ; 0x2065 <main+0x2d6>
    4d02: a6 14        	ldx	$14                     ; 0x2014 <main+0x285>
    4d04: 86 12        	stx	$12                     ; 0x2012 <main+0x283>
    4d06: a6 15        	ldx	$15                     ; 0x2015 <main+0x286>
    4d08: 86 13        	stx	$13                     ; 0x2013 <main+0x284>
    4d0a: a6 14        	ldx	$14                     ; 0x2014 <main+0x285>
    4d0c: 86 62        	stx	$62                     ; 0x2062 <main+0x2d3>
    4d0e: a6 15        	ldx	$15                     ; 0x2015 <main+0x286>
    4d10: 86 63        	stx	$63                     ; 0x2063 <main+0x2d4>
    4d12: 20 5a 04     	jsr	$45a <_ZN12_GLOBAL__N_19FreeChunk6removeEv>
    4d15: a6 62        	ldx	$62                     ; 0x2062 <main+0x2d3>
    4d17: 86 12        	stx	$12                     ; 0x2012 <main+0x283>
    4d19: a6 63        	ldx	$63                     ; 0x2063 <main+0x2d4>
    4d1b: 86 13        	stx	$13                     ; 0x2013 <main+0x284>
    4d1d: a0 01        	ldy	#$1
    4d1f: b1 12        	lda	($12),y                 ; 0x2012 <main+0x283>
    4d21: 85 15        	sta	$15                     ; 0x2015 <main+0x286>
    4d23: a9 fe        	lda	#$fe
    4d25: 32 12        	and	($12)                   ; 0x2012 <main+0x283>
    4d27: 38           	sec
    4d28: a6 61        	ldx	$61                     ; 0x2061 <main+0x2d2>
    4d2a: 86 14        	stx	$14                     ; 0x2014 <main+0x285>
    4d2c: 85 17        	sta	$17                     ; 0x2017 <main+0x288>
    4d2e: e5 14        	sbc	$14                     ; 0x2014 <main+0x285>
    4d30: a8           	tay
    4d31: a6 60        	ldx	$60                     ; 0x2060 <main+0x2d1>
    4d33: 86 14        	stx	$14                     ; 0x2014 <main+0x285>
    4d35: a5 15        	lda	$15                     ; 0x2015 <main+0x286>
    4d37: 85 16        	sta	$16                     ; 0x2016 <main+0x287>
    4d39: e5 14        	sbc	$14                     ; 0x2014 <main+0x285>
    4d3b: d0 06        	bne	$4d43 <malloc+0x14c>
    4d3d: 85 18        	sta	$18                     ; 0x2018 <main+0x289>
    4d3f: c0 08        	cpy	#$8
    4d41: 80 04        	bra	$4d47 <malloc+0x150>
    4d43: 85 18        	sta	$18                     ; 0x2018 <main+0x289>
    4d45: c9 00        	cmp	#$0
    4d47: a6 65        	ldx	$65                     ; 0x2065 <main+0x2d6>
    4d49: 86 14        	stx	$14                     ; 0x2014 <main+0x285>
    4d4b: a6 64        	ldx	$64                     ; 0x2064 <main+0x2d5>
    4d4d: 86 15        	stx	$15                     ; 0x2015 <main+0x286>
    4d4f: a5 17        	lda	$17                     ; 0x2017 <main+0x288>
    4d51: 90 42        	bcc	$4d95 <malloc+0x19e>
    4d53: 18           	clc
    4d54: a5 61        	lda	$61                     ; 0x2061 <main+0x2d2>
    4d56: 85 61        	sta	$61                     ; 0x2061 <main+0x2d2>
    4d58: 65 12        	adc	$12                     ; 0x2012 <main+0x283>
    4d5a: 85 12        	sta	$12                     ; 0x2012 <main+0x283>
    4d5c: a6 60        	ldx	$60                     ; 0x2060 <main+0x2d1>
    4d5e: 86 60        	stx	$60                     ; 0x2060 <main+0x2d1>
    4d60: a5 60        	lda	$60                     ; 0x2060 <main+0x2d1>
    4d62: 65 13        	adc	$13                     ; 0x2013 <main+0x284>
    4d64: 85 13        	sta	$13                     ; 0x2013 <main+0x284>
    4d66: a6 18        	ldx	$18                     ; 0x2018 <main+0x289>
    4d68: 98           	tya
    4d69: 20 1c 03     	jsr	$31c <_ZN12_GLOBAL__N_19FreeChunk6insertEPvj>
    4d6c: a6 62        	ldx	$62                     ; 0x2062 <main+0x2d3>
    4d6e: 86 12        	stx	$12                     ; 0x2012 <main+0x283>
    4d70: a6 63        	ldx	$63                     ; 0x2063 <main+0x2d4>
    4d72: 86 13        	stx	$13                     ; 0x2013 <main+0x284>
    4d74: a5 61        	lda	$61                     ; 0x2061 <main+0x2d2>
    4d76: 29 fe        	and	#$fe
    4d78: 85 14        	sta	$14                     ; 0x2014 <main+0x285>
    4d7a: a0 01        	ldy	#$1
    4d7c: 98           	tya
    4d7d: 32 12        	and	($12)                   ; 0x2012 <main+0x283>
    4d7f: 05 14        	ora	$14                     ; 0x2014 <main+0x285>
    4d81: 92 12        	sta	($12)                   ; 0x2012 <main+0x283>
    4d83: a5 60        	lda	$60                     ; 0x2060 <main+0x2d1>
    4d85: 91 12        	sta	($12),y                 ; 0x2012 <main+0x283>
    4d87: a5 14        	lda	$14                     ; 0x2014 <main+0x285>
    4d89: a6 60        	ldx	$60                     ; 0x2060 <main+0x2d1>
    4d8b: 86 16        	stx	$16                     ; 0x2016 <main+0x287>
    4d8d: a6 65        	ldx	$65                     ; 0x2065 <main+0x2d6>
    4d8f: 86 14        	stx	$14                     ; 0x2014 <main+0x285>
    4d91: a6 64        	ldx	$64                     ; 0x2064 <main+0x2d5>
    4d93: 86 15        	stx	$15                     ; 0x2015 <main+0x286>
    4d95: 18           	clc
    4d96: 65 12        	adc	$12                     ; 0x2012 <main+0x283>
    4d98: a8           	tay
    4d99: a5 16        	lda	$16                     ; 0x2016 <main+0x287>
    4d9b: 65 13        	adc	$13                     ; 0x2013 <main+0x284>
    4d9d: c5 15        	cmp	$15                     ; 0x2015 <main+0x286>
    4d9f: d0 09        	bne	$4daa <malloc+0x1b3>
    4da1: c4 14        	cpy	$14                     ; 0x2014 <main+0x285>
    4da3: d0 05        	bne	$4daa <malloc+0x1b3>
    4da5: 9c 76 88     	stz	$8876                   ; 0x8876 <_ZN12_GLOBAL__N_19last_freeE>
    4da8: 80 14        	bra	$4dbe <malloc+0x1c7>
    4daa: 84 14        	sty	$14                     ; 0x2014 <main+0x285>
    4dac: 85 15        	sta	$15                     ; 0x2015 <main+0x286>
    4dae: a0 01        	ldy	#$1
    4db0: b1 14        	lda	($14),y                 ; 0x2014 <main+0x285>
    4db2: 85 16        	sta	$16                     ; 0x2016 <main+0x287>
    4db4: a9 fe        	lda	#$fe
    4db6: 32 14        	and	($14)                   ; 0x2014 <main+0x285>
    4db8: 92 14        	sta	($14)                   ; 0x2014 <main+0x285>
    4dba: a5 16        	lda	$16                     ; 0x2016 <main+0x287>
    4dbc: 91 14        	sta	($14),y                 ; 0x2014 <main+0x285>
    4dbe: a5 12        	lda	$12                     ; 0x2012 <main+0x283>
    4dc0: 18           	clc
    4dc1: 69 02        	adc	#$2
    4dc3: 85 12        	sta	$12                     ; 0x2012 <main+0x283>
    4dc5: a5 13        	lda	$13                     ; 0x2013 <main+0x284>
    4dc7: 69 00        	adc	#$0
    4dc9: 85 13        	sta	$13                     ; 0x2013 <main+0x284>
    4dcb: 60           	rts

00004dcc <free>:
    4dcc: a6 12        	ldx	$12                     ; 0x2012 <main+0x283>
    4dce: 86 14        	stx	$14                     ; 0x2014 <main+0x285>
    4dd0: a6 13        	ldx	$13                     ; 0x2013 <main+0x284>
    4dd2: 86 15        	stx	$15                     ; 0x2015 <main+0x286>
    4dd4: a2 00        	ldx	#$0
    4dd6: 86 12        	stx	$12                     ; 0x2012 <main+0x283>
    4dd8: a2 00        	ldx	#$0
    4dda: 86 13        	stx	$13                     ; 0x2013 <main+0x284>
    4ddc: a6 15        	ldx	$15                     ; 0x2015 <main+0x286>
    4dde: e4 13        	cpx	$13                     ; 0x2013 <main+0x284>
    4de0: d0 09        	bne	$4deb <free+0x1f>
    4de2: a6 14        	ldx	$14                     ; 0x2014 <main+0x285>
    4de4: e4 12        	cpx	$12                     ; 0x2012 <main+0x283>
    4de6: d0 03        	bne	$4deb <free+0x1f>
    4de8: 4c 4f 4f     	jmp	$4f4f <free+0x183>
    4deb: a2 00        	ldx	#$0
    4ded: a0 10        	ldy	#$10
    4def: a9 f4        	lda	#$f4
    4df1: 86 12        	stx	$12                     ; 0x2012 <main+0x283>
    4df3: 84 13        	sty	$13                     ; 0x2013 <main+0x284>
    4df5: 18           	clc
    4df6: 65 12        	adc	$12                     ; 0x2012 <main+0x283>
    4df8: 85 18        	sta	$18                     ; 0x2018 <main+0x289>
    4dfa: a9 88        	lda	#$88
    4dfc: 65 13        	adc	$13                     ; 0x2013 <main+0x284>
    4dfe: 85 19        	sta	$19                     ; 0x2019 <main+0x28a>
    4e00: a5 14        	lda	$14                     ; 0x2014 <main+0x285>
    4e02: 18           	clc
    4e03: 69 fe        	adc	#$fe
    4e05: 85 12        	sta	$12                     ; 0x2012 <main+0x283>
    4e07: a5 15        	lda	$15                     ; 0x2015 <main+0x286>
    4e09: 69 ff        	adc	#$ff
    4e0b: a6 12        	ldx	$12                     ; 0x2012 <main+0x283>
    4e0d: 86 60        	stx	$60                     ; 0x2060 <main+0x2d1>
    4e0f: aa           	tax
    4e10: 85 61        	sta	$61                     ; 0x2061 <main+0x2d2>
    4e12: b2 60        	lda	($60)                   ; 0x2060 <main+0x2d1>
    4e14: 85 1a        	sta	$1a                     ; 0x201a <main+0x28b>
    4e16: a0 01        	ldy	#$1
    4e18: b1 60        	lda	($60),y                 ; 0x2060 <main+0x2d1>
    4e1a: 85 16        	sta	$16                     ; 0x2016 <main+0x287>
    4e1c: a9 fe        	lda	#$fe
    4e1e: 32 60        	and	($60)                   ; 0x2060 <main+0x2d1>
    4e20: 85 17        	sta	$17                     ; 0x2017 <main+0x288>
    4e22: a4 12        	ldy	$12                     ; 0x2012 <main+0x283>
    4e24: 84 1b        	sty	$1b                     ; 0x201b <main+0x28c>
    4e26: a5 12        	lda	$12                     ; 0x2012 <main+0x283>
    4e28: 18           	clc
    4e29: 65 17        	adc	$17                     ; 0x2017 <main+0x288>
    4e2b: 85 12        	sta	$12                     ; 0x2012 <main+0x283>
    4e2d: 8a           	txa
    4e2e: 86 1c        	stx	$1c                     ; 0x201c <main+0x28d>
    4e30: 65 16        	adc	$16                     ; 0x2016 <main+0x287>
    4e32: c5 19        	cmp	$19                     ; 0x2019 <main+0x28a>
    4e34: d0 10        	bne	$4e46 <free+0x7a>
    4e36: a6 12        	ldx	$12                     ; 0x2012 <main+0x283>
    4e38: e4 18        	cpx	$18                     ; 0x2018 <main+0x289>
    4e3a: d0 0a        	bne	$4e46 <free+0x7a>
    4e3c: a2 00        	ldx	#$0
    4e3e: 86 12        	stx	$12                     ; 0x2012 <main+0x283>
    4e40: a2 00        	ldx	#$0
    4e42: 86 13        	stx	$13                     ; 0x2013 <main+0x284>
    4e44: 80 02        	bra	$4e48 <free+0x7c>
    4e46: 85 13        	sta	$13                     ; 0x2013 <main+0x284>
    4e48: a5 1a        	lda	$1a                     ; 0x201a <main+0x28b>
    4e4a: 29 01        	and	#$1
    4e4c: d0 03        	bne	$4e51 <free+0x85>
    4e4e: 4c cc 4e     	jmp	$4ecc <free+0x100>
    4e51: a5 14        	lda	$14                     ; 0x2014 <main+0x285>
    4e53: 18           	clc
    4e54: 69 fc        	adc	#$fc
    4e56: 85 14        	sta	$14                     ; 0x2014 <main+0x285>
    4e58: a5 15        	lda	$15                     ; 0x2015 <main+0x286>
    4e5a: 69 ff        	adc	#$ff
    4e5c: 85 15        	sta	$15                     ; 0x2015 <main+0x286>
    4e5e: a0 01        	ldy	#$1
    4e60: 38           	sec
    4e61: a9 00        	lda	#$0
    4e63: f2 14        	sbc	($14)                   ; 0x2014 <main+0x285>
    4e65: 85 1a        	sta	$1a                     ; 0x201a <main+0x28b>
    4e67: a9 00        	lda	#$0
    4e69: f1 14        	sbc	($14),y                 ; 0x2014 <main+0x285>
    4e6b: 85 14        	sta	$14                     ; 0x2014 <main+0x285>
    4e6d: a5 1b        	lda	$1b                     ; 0x201b <main+0x28c>
    4e6f: 18           	clc
    4e70: 65 1a        	adc	$1a                     ; 0x201a <main+0x28b>
    4e72: 85 60        	sta	$60                     ; 0x2060 <main+0x2d1>
    4e74: a5 1c        	lda	$1c                     ; 0x201c <main+0x28d>
    4e76: 65 14        	adc	$14                     ; 0x2014 <main+0x285>
    4e78: 85 61        	sta	$61                     ; 0x2061 <main+0x2d2>
    4e7a: b1 60        	lda	($60),y                 ; 0x2060 <main+0x2d1>
    4e7c: 85 68        	sta	$68                     ; 0x2068 <main+0x2d9>
    4e7e: a9 fe        	lda	#$fe
    4e80: 32 60        	and	($60)                   ; 0x2060 <main+0x2d1>
    4e82: 85 69        	sta	$69                     ; 0x2069 <main+0x2da>
    4e84: a6 12        	ldx	$12                     ; 0x2012 <main+0x283>
    4e86: 86 62        	stx	$62                     ; 0x2062 <main+0x2d3>
    4e88: a6 13        	ldx	$13                     ; 0x2013 <main+0x284>
    4e8a: 86 63        	stx	$63                     ; 0x2063 <main+0x2d4>
    4e8c: a6 60        	ldx	$60                     ; 0x2060 <main+0x2d1>
    4e8e: 86 12        	stx	$12                     ; 0x2012 <main+0x283>
    4e90: a6 61        	ldx	$61                     ; 0x2061 <main+0x2d2>
    4e92: 86 13        	stx	$13                     ; 0x2013 <main+0x284>
    4e94: a6 16        	ldx	$16                     ; 0x2016 <main+0x287>
    4e96: 86 64        	stx	$64                     ; 0x2064 <main+0x2d5>
    4e98: a6 17        	ldx	$17                     ; 0x2017 <main+0x288>
    4e9a: 86 65        	stx	$65                     ; 0x2065 <main+0x2d6>
    4e9c: a6 18        	ldx	$18                     ; 0x2018 <main+0x289>
    4e9e: 86 66        	stx	$66                     ; 0x2066 <main+0x2d7>
    4ea0: a6 19        	ldx	$19                     ; 0x2019 <main+0x28a>
    4ea2: 86 67        	stx	$67                     ; 0x2067 <main+0x2d8>
    4ea4: 20 5a 04     	jsr	$45a <_ZN12_GLOBAL__N_19FreeChunk6removeEv>
    4ea7: a6 67        	ldx	$67                     ; 0x2067 <main+0x2d8>
    4ea9: 86 19        	stx	$19                     ; 0x2019 <main+0x28a>
    4eab: a6 66        	ldx	$66                     ; 0x2066 <main+0x2d7>
    4ead: 86 18        	stx	$18                     ; 0x2018 <main+0x289>
    4eaf: a6 62        	ldx	$62                     ; 0x2062 <main+0x2d3>
    4eb1: 86 12        	stx	$12                     ; 0x2012 <main+0x283>
    4eb3: a6 63        	ldx	$63                     ; 0x2063 <main+0x2d4>
    4eb5: 86 13        	stx	$13                     ; 0x2013 <main+0x284>
    4eb7: 18           	clc
    4eb8: a5 69        	lda	$69                     ; 0x2069 <main+0x2da>
    4eba: a6 65        	ldx	$65                     ; 0x2065 <main+0x2d6>
    4ebc: 86 14        	stx	$14                     ; 0x2014 <main+0x285>
    4ebe: 65 14        	adc	$14                     ; 0x2014 <main+0x285>
    4ec0: 85 17        	sta	$17                     ; 0x2017 <main+0x288>
    4ec2: a5 68        	lda	$68                     ; 0x2068 <main+0x2d9>
    4ec4: a6 64        	ldx	$64                     ; 0x2064 <main+0x2d5>
    4ec6: 86 14        	stx	$14                     ; 0x2014 <main+0x285>
    4ec8: 65 14        	adc	$14                     ; 0x2014 <main+0x285>
    4eca: 85 16        	sta	$16                     ; 0x2016 <main+0x287>
    4ecc: a2 00        	ldx	#$0
    4ece: 86 14        	stx	$14                     ; 0x2014 <main+0x285>
    4ed0: a2 00        	ldx	#$0
    4ed2: 86 15        	stx	$15                     ; 0x2015 <main+0x286>
    4ed4: a6 13        	ldx	$13                     ; 0x2013 <main+0x284>
    4ed6: e4 15        	cpx	$15                     ; 0x2015 <main+0x286>
    4ed8: d0 0e        	bne	$4ee8 <free+0x11c>
    4eda: a6 12        	ldx	$12                     ; 0x2012 <main+0x283>
    4edc: e4 14        	cpx	$14                     ; 0x2014 <main+0x285>
    4ede: d0 08        	bne	$4ee8 <free+0x11c>
    4ee0: a2 01        	ldx	#$1
    4ee2: 8e 76 88     	stx	$8876                   ; 0x8876 <_ZN12_GLOBAL__N_19last_freeE>
    4ee5: 4c 40 4f     	jmp	$4f40 <free+0x174>
    4ee8: a0 01        	ldy	#$1
    4eea: b1 12        	lda	($12),y                 ; 0x2012 <main+0x283>
    4eec: a8           	tay
    4eed: a9 fe        	lda	#$fe
    4eef: 32 12        	and	($12)                   ; 0x2012 <main+0x283>
    4ef1: 18           	clc
    4ef2: 85 66        	sta	$66                     ; 0x2066 <main+0x2d7>
    4ef4: 65 12        	adc	$12                     ; 0x2012 <main+0x283>
    4ef6: 85 14        	sta	$14                     ; 0x2014 <main+0x285>
    4ef8: 98           	tya
    4ef9: 85 62        	sta	$62                     ; 0x2062 <main+0x2d3>
    4efb: 65 13        	adc	$13                     ; 0x2013 <main+0x284>
    4efd: c5 19        	cmp	$19                     ; 0x2019 <main+0x28a>
    4eff: d0 0f        	bne	$4f10 <free+0x144>
    4f01: a6 14        	ldx	$14                     ; 0x2014 <main+0x285>
    4f03: e4 18        	cpx	$18                     ; 0x2018 <main+0x289>
    4f05: d0 09        	bne	$4f10 <free+0x144>
    4f07: a9 01        	lda	#$1
    4f09: 64 14        	stz	$14                     ; 0x2014 <main+0x285>
    4f0b: 2d 76 88     	and	$8876                   ; 0x8876 <_ZN12_GLOBAL__N_19last_freeE>
    4f0e: 80 08        	bra	$4f18 <free+0x14c>
    4f10: 85 15        	sta	$15                     ; 0x2015 <main+0x286>
    4f12: a9 01        	lda	#$1
    4f14: 32 14        	and	($14)                   ; 0x2014 <main+0x285>
    4f16: 64 14        	stz	$14                     ; 0x2014 <main+0x285>
    4f18: a6 14        	ldx	$14                     ; 0x2014 <main+0x285>
    4f1a: d0 03        	bne	$4f1f <free+0x153>
    4f1c: aa           	tax
    4f1d: f0 31        	beq	$4f50 <free+0x184>
    4f1f: a6 16        	ldx	$16                     ; 0x2016 <main+0x287>
    4f21: 86 64        	stx	$64                     ; 0x2064 <main+0x2d5>
    4f23: a6 17        	ldx	$17                     ; 0x2017 <main+0x288>
    4f25: 86 65        	stx	$65                     ; 0x2065 <main+0x2d6>
    4f27: 20 5a 04     	jsr	$45a <_ZN12_GLOBAL__N_19FreeChunk6removeEv>
    4f2a: 18           	clc
    4f2b: a6 66        	ldx	$66                     ; 0x2066 <main+0x2d7>
    4f2d: 8a           	txa
    4f2e: a6 65        	ldx	$65                     ; 0x2065 <main+0x2d6>
    4f30: 86 12        	stx	$12                     ; 0x2012 <main+0x283>
    4f32: 65 12        	adc	$12                     ; 0x2012 <main+0x283>
    4f34: 85 17        	sta	$17                     ; 0x2017 <main+0x288>
    4f36: a5 62        	lda	$62                     ; 0x2062 <main+0x2d3>
    4f38: a6 64        	ldx	$64                     ; 0x2064 <main+0x2d5>
    4f3a: 86 12        	stx	$12                     ; 0x2012 <main+0x283>
    4f3c: 65 12        	adc	$12                     ; 0x2012 <main+0x283>
    4f3e: 85 16        	sta	$16                     ; 0x2016 <main+0x287>
    4f40: a6 60        	ldx	$60                     ; 0x2060 <main+0x2d1>
    4f42: 86 12        	stx	$12                     ; 0x2012 <main+0x283>
    4f44: a6 61        	ldx	$61                     ; 0x2061 <main+0x2d2>
    4f46: 86 13        	stx	$13                     ; 0x2013 <main+0x284>
    4f48: a6 16        	ldx	$16                     ; 0x2016 <main+0x287>
    4f4a: a5 17        	lda	$17                     ; 0x2017 <main+0x288>
    4f4c: 20 1c 03     	jsr	$31c <_ZN12_GLOBAL__N_19FreeChunk6insertEPvj>
    4f4f: 60           	rts
    4f50: b2 12        	lda	($12)                   ; 0x2012 <main+0x283>
    4f52: 09 01        	ora	#$1
    4f54: 92 12        	sta	($12)                   ; 0x2012 <main+0x283>
    4f56: a0 01        	ldy	#$1
    4f58: a5 62        	lda	$62                     ; 0x2062 <main+0x2d3>
    4f5a: 91 12        	sta	($12),y                 ; 0x2012 <main+0x283>
    4f5c: 80 e2        	bra	$4f40 <free+0x174>

00004f5e <memcpy>:
    4f5e: a8           	tay
    4f5f: 8a           	txa
    4f60: d0 03        	bne	$4f65 <memcpy+0x7>
    4f62: 98           	tya
    4f63: f0 24        	beq	$4f89 <memcpy+0x2b>
    4f65: a5 12        	lda	$12                     ; 0x2012 <main+0x283>
    4f67: 85 16        	sta	$16                     ; 0x2016 <main+0x287>
    4f69: a5 13        	lda	$13                     ; 0x2013 <main+0x284>
    4f6b: 85 17        	sta	$17                     ; 0x2017 <main+0x288>
    4f6d: b2 14        	lda	($14)                   ; 0x2014 <main+0x285>
    4f6f: 92 16        	sta	($16)                   ; 0x2016 <main+0x287>
    4f71: e6 16        	inc	$16                     ; 0x2016 <main+0x287>
    4f73: d0 02        	bne	$4f77 <memcpy+0x19>
    4f75: e6 17        	inc	$17                     ; 0x2017 <main+0x288>
    4f77: e6 14        	inc	$14                     ; 0x2014 <main+0x285>
    4f79: d0 02        	bne	$4f7d <memcpy+0x1f>
    4f7b: e6 15        	inc	$15                     ; 0x2015 <main+0x286>
    4f7d: 88           	dey
    4f7e: c0 ff        	cpy	#$ff
    4f80: d0 01        	bne	$4f83 <memcpy+0x25>
    4f82: ca           	dex
    4f83: 8a           	txa
    4f84: d0 e7        	bne	$4f6d <memcpy+0xf>
    4f86: 98           	tya
    4f87: d0 e4        	bne	$4f6d <memcpy+0xf>
    4f89: 60           	rts

00004f8a <__memset>:
    4f8a: a4 14        	ldy	$14                     ; 0x2014 <main+0x285>
    4f8c: d0 04        	bne	$4f92 <__memset+0x8>
    4f8e: e0 00        	cpx	#$0
    4f90: f0 17        	beq	$4fa9 <__memset+0x1f>
    4f92: 92 12        	sta	($12)                   ; 0x2012 <main+0x283>
    4f94: e6 12        	inc	$12                     ; 0x2012 <main+0x283>
    4f96: d0 02        	bne	$4f9a <__memset+0x10>
    4f98: e6 13        	inc	$13                     ; 0x2013 <main+0x284>
    4f9a: ca           	dex
    4f9b: e0 ff        	cpx	#$ff
    4f9d: d0 02        	bne	$4fa1 <__memset+0x17>
    4f9f: c6 14        	dec	$14                     ; 0x2014 <main+0x285>
    4fa1: a4 14        	ldy	$14                     ; 0x2014 <main+0x285>
    4fa3: d0 ed        	bne	$4f92 <__memset+0x8>
    4fa5: e0 00        	cpx	#$0
    4fa7: d0 e9        	bne	$4f92 <__memset+0x8>
    4fa9: 60           	rts

00004faa <__mulsi3>:
    4faa: a4 17        	ldy	$17                     ; 0x2017 <main+0x288>
    4fac: d0 0f        	bne	$4fbd <__mulsi3+0x13>
    4fae: a4 16        	ldy	$16                     ; 0x2016 <main+0x287>
    4fb0: d0 0b        	bne	$4fbd <__mulsi3+0x13>
    4fb2: a4 15        	ldy	$15                     ; 0x2015 <main+0x286>
    4fb4: d0 07        	bne	$4fbd <__mulsi3+0x13>
    4fb6: a4 14        	ldy	$14                     ; 0x2014 <main+0x285>
    4fb8: d0 03        	bne	$4fbd <__mulsi3+0x13>
    4fba: 4c 11 50     	jmp	$5011 <__mulsi3+0x67>
    4fbd: 85 18        	sta	$18                     ; 0x2018 <main+0x289>
    4fbf: 86 19        	stx	$19                     ; 0x2019 <main+0x28a>
    4fc1: a0 00        	ldy	#$0
    4fc3: a2 00        	ldx	#$0
    4fc5: 64 1a        	stz	$1a                     ; 0x201a <main+0x28b>
    4fc7: 98           	tya
    4fc8: 46 17        	lsr	$17                     ; 0x2017 <main+0x288>
    4fca: 66 16        	ror	$16                     ; 0x2016 <main+0x287>
    4fcc: 66 15        	ror	$15                     ; 0x2015 <main+0x286>
    4fce: 66 14        	ror	$14                     ; 0x2014 <main+0x285>
    4fd0: 90 15        	bcc	$4fe7 <__mulsi3+0x3d>
    4fd2: 85 1b        	sta	$1b                     ; 0x201b <main+0x28c>
    4fd4: 98           	tya
    4fd5: 18           	clc
    4fd6: 65 18        	adc	$18                     ; 0x2018 <main+0x289>
    4fd8: a8           	tay
    4fd9: 8a           	txa
    4fda: 65 19        	adc	$19                     ; 0x2019 <main+0x28a>
    4fdc: aa           	tax
    4fdd: a5 1a        	lda	$1a                     ; 0x201a <main+0x28b>
    4fdf: 65 12        	adc	$12                     ; 0x2012 <main+0x283>
    4fe1: 85 1a        	sta	$1a                     ; 0x201a <main+0x28b>
    4fe3: a5 1b        	lda	$1b                     ; 0x201b <main+0x28c>
    4fe5: 65 13        	adc	$13                     ; 0x2013 <main+0x284>
    4fe7: 06 18        	asl	$18                     ; 0x2018 <main+0x289>
    4fe9: 26 19        	rol	$19                     ; 0x2019 <main+0x28a>
    4feb: 26 12        	rol	$12                     ; 0x2012 <main+0x283>
    4fed: 26 13        	rol	$13                     ; 0x2013 <main+0x284>
    4fef: e6 17        	inc	$17                     ; 0x2017 <main+0x288>
    4ff1: c6 17        	dec	$17                     ; 0x2017 <main+0x288>
    4ff3: d0 d3        	bne	$4fc8 <__mulsi3+0x1e>
    4ff5: e6 16        	inc	$16                     ; 0x2016 <main+0x287>
    4ff7: c6 16        	dec	$16                     ; 0x2016 <main+0x287>
    4ff9: d0 cd        	bne	$4fc8 <__mulsi3+0x1e>
    4ffb: e6 15        	inc	$15                     ; 0x2015 <main+0x286>
    4ffd: c6 15        	dec	$15                     ; 0x2015 <main+0x286>
    4fff: d0 c7        	bne	$4fc8 <__mulsi3+0x1e>
    5001: e6 14        	inc	$14                     ; 0x2014 <main+0x285>
    5003: c6 14        	dec	$14                     ; 0x2014 <main+0x285>
    5005: d0 c1        	bne	$4fc8 <__mulsi3+0x1e>
    5007: 5a           	phy
    5008: a4 1a        	ldy	$1a                     ; 0x201a <main+0x28b>
    500a: 84 12        	sty	$12                     ; 0x2012 <main+0x283>
    500c: 7a           	ply
    500d: 85 13        	sta	$13                     ; 0x2013 <main+0x284>
    500f: 98           	tya
    5010: 60           	rts
    5011: a0 00        	ldy	#$0
    5013: a2 00        	ldx	#$0
    5015: 64 1a        	stz	$1a                     ; 0x201a <main+0x28b>
    5017: 98           	tya
    5018: 80 ed        	bra	$5007 <__mulsi3+0x5d>

0000501a <__udivmodhi4>:
    501a: 86 1a        	stx	$1a                     ; 0x201a <main+0x28b>
    501c: 64 16        	stz	$16                     ; 0x2016 <main+0x287>
    501e: a4 13        	ldy	$13                     ; 0x2013 <main+0x284>
    5020: d0 04        	bne	$5026 <__udivmodhi4+0xc>
    5022: a4 12        	ldy	$12                     ; 0x2012 <main+0x283>
    5024: f0 08        	beq	$502e <__udivmodhi4+0x14>
    5026: e4 13        	cpx	$13                     ; 0x2013 <main+0x284>
    5028: d0 0d        	bne	$5037 <__udivmodhi4+0x1d>
    502a: c5 12        	cmp	$12                     ; 0x2012 <main+0x283>
    502c: b0 0d        	bcs	$503b <__udivmodhi4+0x21>
    502e: a6 1a        	ldx	$1a                     ; 0x201a <main+0x28b>
    5030: 86 12        	stx	$12                     ; 0x2012 <main+0x283>
    5032: a2 00        	ldx	#$0
    5034: 4c df 50     	jmp	$50df <__udivmodhi4+0xc5>
    5037: e4 13        	cpx	$13                     ; 0x2013 <main+0x284>
    5039: 90 f3        	bcc	$502e <__udivmodhi4+0x14>
    503b: a6 13        	ldx	$13                     ; 0x2013 <main+0x284>
    503d: 10 03        	bpl	$5042 <__udivmodhi4+0x28>
    503f: 4c d2 50     	jmp	$50d2 <__udivmodhi4+0xb8>
    5042: a2 00        	ldx	#$0
    5044: a4 12        	ldy	$12                     ; 0x2012 <main+0x283>
    5046: 84 17        	sty	$17                     ; 0x2017 <main+0x288>
    5048: a4 13        	ldy	$13                     ; 0x2013 <main+0x284>
    504a: 84 18        	sty	$18                     ; 0x2018 <main+0x289>
    504c: 06 17        	asl	$17                     ; 0x2017 <main+0x288>
    504e: 26 18        	rol	$18                     ; 0x2018 <main+0x289>
    5050: a4 1a        	ldy	$1a                     ; 0x201a <main+0x28b>
    5052: c4 18        	cpy	$18                     ; 0x2018 <main+0x289>
    5054: d0 06        	bne	$505c <__udivmodhi4+0x42>
    5056: c5 17        	cmp	$17                     ; 0x2017 <main+0x288>
    5058: b0 08        	bcs	$5062 <__udivmodhi4+0x48>
    505a: 80 13        	bra	$506f <__udivmodhi4+0x55>
    505c: a4 1a        	ldy	$1a                     ; 0x201a <main+0x28b>
    505e: c4 18        	cpy	$18                     ; 0x2018 <main+0x289>
    5060: 90 0d        	bcc	$506f <__udivmodhi4+0x55>
    5062: e8           	inx
    5063: a4 17        	ldy	$17                     ; 0x2017 <main+0x288>
    5065: 84 12        	sty	$12                     ; 0x2012 <main+0x283>
    5067: a4 18        	ldy	$18                     ; 0x2018 <main+0x289>
    5069: 84 13        	sty	$13                     ; 0x2013 <main+0x284>
    506b: 10 df        	bpl	$504c <__udivmodhi4+0x32>
    506d: 80 08        	bra	$5077 <__udivmodhi4+0x5d>
    506f: a4 12        	ldy	$12                     ; 0x2012 <main+0x283>
    5071: 84 17        	sty	$17                     ; 0x2017 <main+0x288>
    5073: a4 13        	ldy	$13                     ; 0x2013 <main+0x284>
    5075: 84 18        	sty	$18                     ; 0x2018 <main+0x289>
    5077: 38           	sec
    5078: e5 17        	sbc	$17                     ; 0x2017 <main+0x288>
    507a: a8           	tay
    507b: a5 1a        	lda	$1a                     ; 0x201a <main+0x28b>
    507d: e5 18        	sbc	$18                     ; 0x2018 <main+0x289>
    507f: 85 12        	sta	$12                     ; 0x2012 <main+0x283>
    5081: 8a           	txa
    5082: d0 03        	bne	$5087 <__udivmodhi4+0x6d>
    5084: 4c ee 50     	jmp	$50ee <__udivmodhi4+0xd4>
    5087: a9 01        	lda	#$1
    5089: 85 60        	sta	$60                     ; 0x2060 <main+0x2d1>
    508b: 64 16        	stz	$16                     ; 0x2016 <main+0x287>
    508d: 98           	tya
    508e: 46 18        	lsr	$18                     ; 0x2018 <main+0x289>
    5090: 66 17        	ror	$17                     ; 0x2017 <main+0x288>
    5092: a4 60        	ldy	$60                     ; 0x2060 <main+0x2d1>
    5094: 84 13        	sty	$13                     ; 0x2013 <main+0x284>
    5096: 06 13        	asl	$13                     ; 0x2013 <main+0x284>
    5098: a0 01        	ldy	#$1
    509a: b0 02        	bcs	$509e <__udivmodhi4+0x84>
    509c: a0 00        	ldy	#$0
    509e: 84 19        	sty	$19                     ; 0x2019 <main+0x28a>
    50a0: a4 13        	ldy	$13                     ; 0x2013 <main+0x284>
    50a2: 84 60        	sty	$60                     ; 0x2060 <main+0x2d1>
    50a4: a4 12        	ldy	$12                     ; 0x2012 <main+0x283>
    50a6: c4 18        	cpy	$18                     ; 0x2018 <main+0x289>
    50a8: d0 22        	bne	$50cc <__udivmodhi4+0xb2>
    50aa: c5 17        	cmp	$17                     ; 0x2017 <main+0x288>
    50ac: 90 13        	bcc	$50c1 <__udivmodhi4+0xa7>
    50ae: a8           	tay
    50af: a5 60        	lda	$60                     ; 0x2060 <main+0x2d1>
    50b1: 09 01        	ora	#$1
    50b3: 85 60        	sta	$60                     ; 0x2060 <main+0x2d1>
    50b5: 38           	sec
    50b6: 98           	tya
    50b7: e5 17        	sbc	$17                     ; 0x2017 <main+0x288>
    50b9: a8           	tay
    50ba: a5 12        	lda	$12                     ; 0x2012 <main+0x283>
    50bc: e5 18        	sbc	$18                     ; 0x2018 <main+0x289>
    50be: 85 12        	sta	$12                     ; 0x2012 <main+0x283>
    50c0: 98           	tya
    50c1: a4 19        	ldy	$19                     ; 0x2019 <main+0x28a>
    50c3: c0 01        	cpy	#$1
    50c5: 26 16        	rol	$16                     ; 0x2016 <main+0x287>
    50c7: ca           	dex
    50c8: d0 c4        	bne	$508e <__udivmodhi4+0x74>
    50ca: 80 15        	bra	$50e1 <__udivmodhi4+0xc7>
    50cc: c4 18        	cpy	$18                     ; 0x2018 <main+0x289>
    50ce: b0 de        	bcs	$50ae <__udivmodhi4+0x94>
    50d0: 80 ef        	bra	$50c1 <__udivmodhi4+0xa7>
    50d2: 38           	sec
    50d3: e5 12        	sbc	$12                     ; 0x2012 <main+0x283>
    50d5: aa           	tax
    50d6: a5 1a        	lda	$1a                     ; 0x201a <main+0x28b>
    50d8: e5 13        	sbc	$13                     ; 0x2013 <main+0x284>
    50da: 85 12        	sta	$12                     ; 0x2012 <main+0x283>
    50dc: 8a           	txa
    50dd: a2 01        	ldx	#$1
    50df: 86 60        	stx	$60                     ; 0x2060 <main+0x2d1>
    50e1: 92 14        	sta	($14)                   ; 0x2014 <main+0x285>
    50e3: a0 01        	ldy	#$1
    50e5: a5 12        	lda	$12                     ; 0x2012 <main+0x283>
    50e7: 91 14        	sta	($14),y                 ; 0x2014 <main+0x285>
    50e9: a6 16        	ldx	$16                     ; 0x2016 <main+0x287>
    50eb: a5 60        	lda	$60                     ; 0x2060 <main+0x2d1>
    50ed: 60           	rts
    50ee: a2 01        	ldx	#$1
    50f0: 86 60        	stx	$60                     ; 0x2060 <main+0x2d1>
    50f2: 98           	tya
    50f3: 80 ec        	bra	$50e1 <__udivmodhi4+0xc7>
