
vgmplayer.elf:	file format elf32-mos

SYMBOL TABLE:
00000000 l    df *ABS*	00000000 zero-bss.c
00000000 l    df *ABS*	00000000 zero-zp-bss.c
00000000 l    df *ABS*	00000000 copy-zp-data.c
00000000 l    df *ABS*	00000000 ld-temp.o
00000643 l     F .text	0000010a isExtensionAllowed
00004da5 l     F .text	00000039 strlen
00004e06 l     F .text	0000003a strrchr
00003623 l     F .text	0000000d tolower
0000074d l     F .text	00000326 sortFileList
00004eae l     F .text	00000032 __mulhi3
00004ce6 l     F .text	0000003b strcpy
00000a73 l     F .text	00000c4e pickFile
0000006c l     O .zp.bss	00000007 kernelEventData
00000073 l     O .zp.bss	00000001 kernelError
000031eb l     F .text	00000011 textGotoXY
000045e1 l     F .text	00000057 printf
000016c1 l     F .text	000003ea displayFileList
00004921 l     F .text	00000028 putchar
00001aab l     F .text	000001d5 readDirectory
000030e5 l     F .text	00000106 fileOpenDir
000034c8 l     F .text	0000013d fileReadDir
00004dde l     F .text	00000028 strcmp
00004d21 l     F .text	00000084 strncpy
00003462 l     F .text	00000066 fileCloseDir
00001c80 l     F .text	000004ac filePickModal
00003456 l     F .text	0000000c textSetColor
000048d4 l     F .text	0000004a sprintf
0000212c l     F .text	00000068 opl3_initialize
00002194 l     F .text	0000001c opl3_write
000021b0 l     F .text	0000001b opl3_quietAll
000021cb l     F .text	0000001c setTimer0
000021e7 l     F .text	00000021 getTimerAbsolute
00002208 l     F .text	0000017c f256Init
0000006a l     O .zp.bss	00000002 kernelArgs
00002384 l     F .text	00000173 textReset
000024f7 l     F .text	00000156 bitmapReset
00000089 l     O .zp.bss	00000003 _tileSize
00005389 l     O .bss	00000040 _spriteCtl
0000008c l     O .zp.bss	00000008 _dirStream
00000065 l     O .zp.data	00000001 _ccolor
00000063 l     O .zp.data	00000001 _MAX_COL
00000064 l     O .zp.data	00000001 _MAX_ROW
00000033 l     O .zp.data	00000030 textColors
00000074 l     O .zp.bss	00000001 _col
00000075 l     O .zp.bss	00000001 _row
00000084 l     O .zp.bss	00000001 _MAX_X
00000085 l     O .zp.bss	00000001 _MAX_Y
00000082 l     O .zp.bss	00000001 _active
00000083 l     O .zp.bss	00000001 _color
00000076 l     O .zp.bss	0000000c _BITMAP_BASE
00000086 l     O .zp.bss	00000003 _BITMAP_CLUT
00002671 l     F .text	0000020d f256main
00002cac l     F .text	00000439 playback
00004b14 l     F .text	00000186 free
0000287e l     F .text	0000016c getTheFile
000054cd l     O .bss	00000064 name
000029ea l     F .text	00000103 fileOpen
00002aed l     F .text	000001bf fileRead
00005531 l     O .bss	000011f6 fpr
0000495e l     F .text	00000100 malloc
00004f50 l     F .text	000000c0 __udivhi3
00000094 l     O .zp.bss	00000003 VGMTimer
00004ee0 l     F .text	00000070 __mulsi3
000031fc l     F .text	0000025a textPrint
000053c9 l     O .bss	00000102 fileReadDir.fileDirEntS
00003605 l     F .text	0000000e __putchar
000054cb l     O .bss	00000002 __putchar.s
00003621 l     F .text	00000002 _Exit
00003630 l     F .text	00000218 vfprintf
00004950 l     F .text	00000003 putc
00003848 l     F .text	00000b44 _ZN12_GLOBAL__N_15printEPKcP6Status
0000438c l     F .text	000000e1 _ZN12_GLOBAL__N_13putEcP6Status
00004e40 l     F .text	0000006e __simple_strtoui
0000446d l     F .text	00000174 _ZN12_GLOBAL__N_112print_stringEPKcP6Status
00000560 l     F .text	00000003 _ZN6__impl6VarInt4makeEPvc
00000572 l     F .text	0000000d _ZNK6__impl6VarInt8negativeEv
00000580 l     F .text	00000047 _ZN6__impl6VarInt6negateEv
00000564 l     F .text	0000000d _ZNK6__impl6VarInt8high_bitEv
000005c8 l     F .text	0000003b _ZN6__impl6VarInt3shlEv
00000066 l     O .zp.data	00000002 stdout
00004638 l     F .text	0000029c vsnprintf
0000491e l     F .text	00000003 fputc
00004949 l     F .text	00000007 putchar_wrapper
00004953 l     F .text	0000000b __from_ascii
00000097 l     O .zp.bss	00000001 _ZN12_GLOBAL__N_111initializedE
00000068 l     O .zp.data	00000002 _ZN12_GLOBAL__N_110heap_limitE
00000352 l     F .text	00000135 _ZN12_GLOBAL__N_19FreeChunk6insertEPvj
00000098 l     O .zp.bss	00000001 _ZN12_GLOBAL__N_19last_freeE
0000009b l     O .zp.bss	00000002 _ZN12_GLOBAL__N_19free_listE
00004a5e l     F .text	000000b6 _ZN12_GLOBAL__N_119allocate_free_chunkEPNS_9FreeChunkEj
00000099 l     O .zp.bss	00000002 _ZN12_GLOBAL__N_19free_sizeE
00000488 l     F .text	000000d7 _ZN12_GLOBAL__N_19FreeChunk6removeEv
0000264d g     F .text	00000024 main
0000034e g       .text	00000000 __after_main
0000033a g       .text	00000000 __do_init_stack
00000348 g       .text	00000000 __do_copy_zp_data
0000062c g     F .text	00000017 __copy_zp_data
00000342 g       .text	00000000 __do_zero_bss
00000606 g     F .text	00000013 __zero_bss
00000345 g       .text	00000000 __do_zero_zp_bss
00000619 g     F .text	00000013 __zero_zp_bss
00003613 g     F .text	0000000e exit
00000351 g       .text	00000000 _fini
00000603 g       .text	00000000 __call_indir
00004cc6  w    F .text	00000020 __memset
00001000  w      *ABS*	00000000 __heap_default_limit
00006728 g       .noinit	00000000 __heap_start
00004c9a  w    F .text	0000002c memcpy
00000010 g       *ABS*	00000000 __rc0
00000012 g       *ABS*	00000000 __rc2
00000014 g       *ABS*	00000000 __rc4
00000016 g       *ABS*	00000000 __rc6
00000018 g       *ABS*	00000000 __rc8
0000001a g       *ABS*	00000000 __rc10
0000001c g       *ABS*	00000000 __rc12
0000001e g       *ABS*	00000000 __rc14
00000020 g       *ABS*	00000000 __rc16
00000022 g       *ABS*	00000000 __rc18
00000024 g       *ABS*	00000000 __rc20
00000026 g       *ABS*	00000000 __rc22
00000028 g       *ABS*	00000000 __rc24
0000002a g       *ABS*	00000000 __rc26
0000002c g       *ABS*	00000000 __rc28
0000002e g       *ABS*	00000000 __rc30
0000002f g       *ABS*	00000000 __rc31
00000300 g       *ABS*	00000000 __f256_start
0000c000 g       *ABS*	00000000 __stack
0000c000 g       *ABS*	00000000 __SLOT_ADDR
0800c000 g       *ABS*	00000000 __block8_lma
00002000 g       *ABS*	00000000 __BLOCK_SIZE
0900c000 g       *ABS*	00000000 __block9_lma
0a00c000 g       *ABS*	00000000 __block10_lma
0b00c000 g       *ABS*	00000000 __block11_lma
0c00c000 g       *ABS*	00000000 __block12_lma
0d00c000 g       *ABS*	00000000 __block13_lma
0e00c000 g       *ABS*	00000000 __block14_lma
0f00c000 g       *ABS*	00000000 __block15_lma
1000c000 g       *ABS*	00000000 __block16_lma
1100c000 g       *ABS*	00000000 __block17_lma
1200c000 g       *ABS*	00000000 __block18_lma
1300c000 g       *ABS*	00000000 __block19_lma
1400c000 g       *ABS*	00000000 __block20_lma
1500c000 g       *ABS*	00000000 __block21_lma
1600c000 g       *ABS*	00000000 __block22_lma
1700c000 g       *ABS*	00000000 __block23_lma
00005389 g       .bss	00000000 __bss_start
0000033a g       .text	00000000 _start
0000002d g       *ABS*	00000000 __rc29
0000002b g       *ABS*	00000000 __rc27
00000029 g       *ABS*	00000000 __rc25
00000027 g       *ABS*	00000000 __rc23
00000025 g       *ABS*	00000000 __rc21
00000023 g       *ABS*	00000000 __rc19
00000021 g       *ABS*	00000000 __rc17
0000001f g       *ABS*	00000000 __rc15
0000001d g       *ABS*	00000000 __rc13
0000001b g       *ABS*	00000000 __rc11
00000019 g       *ABS*	00000000 __rc9
00000017 g       *ABS*	00000000 __rc7
00000015 g       *ABS*	00000000 __rc5
00000013 g       *ABS*	00000000 __rc3
00000011 g       *ABS*	00000000 __rc1
00000030 g       .zp.data	00000000 __zp_data_start
00000300 g       *ABS*	00000000 __zp_data_load_start
0000003a g       *ABS*	00000000 __zp_data_size
0000006a g       .zp.bss	00000000 __zp_bss_start
00000033 g       *ABS*	00000000 __zp_bss_size
0000033a g       .text	00000000 _init
00005010 g       .text	00000000 __init_array_start
00005010 g       .text	00000000 __init_array_end
00005010 g       .text	00000000 __fini_array_start
00005010 g       .text	00000000 __fini_array_end
00005389 g       .data	00000000 __data_start
00005389 g       .data	00000000 __data_end
00005389 g       *ABS*	00000000 __data_load_start
00000000 g       *ABS*	00000000 __data_size
00006727 g       .bss	00000000 __bss_end
0000139e g       *ABS*	00000000 __bss_size
00006727 g       .noinit	00000000 end_block8
00006727 g       .noinit	00000000 end_block9
00006727 g       .noinit	00000000 end_block10
00006727 g       .noinit	00000000 end_block11
00006727 g       .noinit	00000000 end_block12
00006727 g       .noinit	00000000 end_block13
00006727 g       .noinit	00000000 end_block14
00006727 g       .noinit	00000000 end_block15
00006727 g       .noinit	00000000 end_block16
00006727 g       .noinit	00000000 end_block17
00006727 g       .noinit	00000000 end_block18
00006727 g       .noinit	00000000 end_block19
00006727 g       .noinit	00000000 end_block20
00006727 g       .noinit	00000000 end_block21
00006727 g       .noinit	00000000 end_block22
00006727 g       .noinit	00000000 end_block23

Disassembly of section .text:

0000033a <_start>:
     33a: a9 00        	lda	#$0
     33c: 85 10        	sta	$10                     ; 0x2010 <filePickModal+0x390>
     33e: a9 c0        	lda	#$c0
     340: 85 11        	sta	$11                     ; 0x2011 <filePickModal+0x391>

00000342 <__do_zero_bss>:
     342: 20 06 06     	jsr	$606 <__zero_bss>

00000345 <__do_zero_zp_bss>:
     345: 20 19 06     	jsr	$619 <__zero_zp_bss>

00000348 <__do_copy_zp_data>:
     348: 20 2c 06     	jsr	$62c <__copy_zp_data>
     34b: 20 4d 26     	jsr	$264d <main>

0000034e <__after_main>:
     34e: 4c 13 36     	jmp	$3613 <exit>

00000351 <_fini>:
     351: 60           	rts

00000352 <_ZN12_GLOBAL__N_19FreeChunk6insertEPvj>:
     352: 85 16        	sta	$16                     ; 0x2016 <filePickModal+0x396>
     354: 29 fe        	and	#$fe
     356: 85 14        	sta	$14                     ; 0x2014 <filePickModal+0x394>
     358: a0 01        	ldy	#$1
     35a: 98           	tya
     35b: 32 12        	and	($12)                   ; 0x2012 <filePickModal+0x392>
     35d: 05 14        	ora	$14                     ; 0x2014 <filePickModal+0x394>
     35f: 92 12        	sta	($12)                   ; 0x2012 <filePickModal+0x392>
     361: a5 12        	lda	$12                     ; 0x2012 <filePickModal+0x392>
     363: 18           	clc
     364: 65 14        	adc	$14                     ; 0x2014 <filePickModal+0x394>
     366: 85 15        	sta	$15                     ; 0x2015 <filePickModal+0x395>
     368: 8a           	txa
     369: 65 13        	adc	$13                     ; 0x2013 <filePickModal+0x393>
     36b: 85 14        	sta	$14                     ; 0x2014 <filePickModal+0x394>
     36d: 18           	clc
     36e: a5 15        	lda	$15                     ; 0x2015 <filePickModal+0x395>
     370: 69 fe        	adc	#$fe
     372: 85 17        	sta	$17                     ; 0x2017 <filePickModal+0x397>
     374: a5 14        	lda	$14                     ; 0x2014 <filePickModal+0x394>
     376: 69 ff        	adc	#$ff
     378: 85 15        	sta	$15                     ; 0x2015 <filePickModal+0x395>
     37a: a5 17        	lda	$17                     ; 0x2017 <filePickModal+0x397>
     37c: 85 14        	sta	$14                     ; 0x2014 <filePickModal+0x394>
     37e: 8a           	txa
     37f: 91 12        	sta	($12),y                 ; 0x2012 <filePickModal+0x392>
     381: a5 16        	lda	$16                     ; 0x2016 <filePickModal+0x396>
     383: 92 14        	sta	($14)                   ; 0x2014 <filePickModal+0x394>
     385: 8a           	txa
     386: 91 14        	sta	($14),y                 ; 0x2014 <filePickModal+0x394>
     388: b1 12        	lda	($12),y                 ; 0x2012 <filePickModal+0x392>
     38a: 85 14        	sta	$14                     ; 0x2014 <filePickModal+0x394>
     38c: a9 fe        	lda	#$fe
     38e: 32 12        	and	($12)                   ; 0x2012 <filePickModal+0x392>
     390: 18           	clc
     391: 65 99        	adc	$99                     ; 0x2099 <filePickModal+0x419>
     393: aa           	tax
     394: a5 14        	lda	$14                     ; 0x2014 <filePickModal+0x394>
     396: 65 9a        	adc	$9a                     ; 0x209a <filePickModal+0x41a>
     398: a8           	tay
     399: 18           	clc
     39a: 8a           	txa
     39b: 69 fe        	adc	#$fe
     39d: aa           	tax
     39e: 98           	tya
     39f: 69 ff        	adc	#$ff
     3a1: 86 99        	stx	$99                     ; 0x2099 <filePickModal+0x419>
     3a3: 85 9a        	sta	$9a                     ; 0x209a <filePickModal+0x41a>
     3a5: a6 9b        	ldx	$9b                     ; 0x209b <filePickModal+0x41b>
     3a7: 86 16        	stx	$16                     ; 0x2016 <filePickModal+0x396>
     3a9: a4 9c        	ldy	$9c                     ; 0x209c <filePickModal+0x41c>
     3ab: a2 00        	ldx	#$0
     3ad: 86 14        	stx	$14                     ; 0x2014 <filePickModal+0x394>
     3af: a2 00        	ldx	#$0
     3b1: 86 15        	stx	$15                     ; 0x2015 <filePickModal+0x395>
     3b3: c4 15        	cpy	$15                     ; 0x2015 <filePickModal+0x395>
     3b5: d0 3c        	bne	$3f3 <_ZN12_GLOBAL__N_19FreeChunk6insertEPvj+0xa1>
     3b7: a6 16        	ldx	$16                     ; 0x2016 <filePickModal+0x396>
     3b9: e4 14        	cpx	$14                     ; 0x2014 <filePickModal+0x394>
     3bb: d0 36        	bne	$3f3 <_ZN12_GLOBAL__N_19FreeChunk6insertEPvj+0xa1>
     3bd: a0 04        	ldy	#$4
     3bf: a5 12        	lda	$12                     ; 0x2012 <filePickModal+0x392>
     3c1: 18           	clc
     3c2: 69 04        	adc	#$4
     3c4: 85 14        	sta	$14                     ; 0x2014 <filePickModal+0x394>
     3c6: a5 13        	lda	$13                     ; 0x2013 <filePickModal+0x393>
     3c8: 69 00        	adc	#$0
     3ca: 18           	clc
     3cb: 85 15        	sta	$15                     ; 0x2015 <filePickModal+0x395>
     3cd: a5 12        	lda	$12                     ; 0x2012 <filePickModal+0x392>
     3cf: 91 12        	sta	($12),y                 ; 0x2012 <filePickModal+0x392>
     3d1: a0 02        	ldy	#$2
     3d3: 85 17        	sta	$17                     ; 0x2017 <filePickModal+0x397>
     3d5: 69 02        	adc	#$2
     3d7: 85 16        	sta	$16                     ; 0x2016 <filePickModal+0x396>
     3d9: a5 17        	lda	$17                     ; 0x2017 <filePickModal+0x397>
     3db: 91 12        	sta	($12),y                 ; 0x2012 <filePickModal+0x392>
     3dd: a5 13        	lda	$13                     ; 0x2013 <filePickModal+0x393>
     3df: 69 00        	adc	#$0
     3e1: 85 17        	sta	$17                     ; 0x2017 <filePickModal+0x397>
     3e3: 88           	dey
     3e4: a5 13        	lda	$13                     ; 0x2013 <filePickModal+0x393>
     3e6: 91 14        	sta	($14),y                 ; 0x2014 <filePickModal+0x394>
     3e8: 91 16        	sta	($16),y                 ; 0x2016 <filePickModal+0x396>
     3ea: a6 12        	ldx	$12                     ; 0x2012 <filePickModal+0x392>
     3ec: 86 9b        	stx	$9b                     ; 0x209b <filePickModal+0x41b>
     3ee: a6 13        	ldx	$13                     ; 0x2013 <filePickModal+0x393>
     3f0: 86 9c        	stx	$9c                     ; 0x209c <filePickModal+0x41c>
     3f2: 60           	rts
     3f3: a6 12        	ldx	$12                     ; 0x2012 <filePickModal+0x392>
     3f5: a5 12        	lda	$12                     ; 0x2012 <filePickModal+0x392>
     3f7: 18           	clc
     3f8: 69 02        	adc	#$2
     3fa: 85 14        	sta	$14                     ; 0x2014 <filePickModal+0x394>
     3fc: 84 18        	sty	$18                     ; 0x2018 <filePickModal+0x398>
     3fe: a5 13        	lda	$13                     ; 0x2013 <filePickModal+0x393>
     400: 69 00        	adc	#$0
     402: 85 15        	sta	$15                     ; 0x2015 <filePickModal+0x395>
     404: a5 16        	lda	$16                     ; 0x2016 <filePickModal+0x396>
     406: 84 17        	sty	$17                     ; 0x2017 <filePickModal+0x397>
     408: a0 02        	ldy	#$2
     40a: 91 12        	sta	($12),y                 ; 0x2012 <filePickModal+0x392>
     40c: 85 19        	sta	$19                     ; 0x2019 <filePickModal+0x399>
     40e: 88           	dey
     40f: a5 18        	lda	$18                     ; 0x2018 <filePickModal+0x398>
     411: 91 14        	sta	($14),y                 ; 0x2014 <filePickModal+0x394>
     413: 18           	clc
     414: a5 19        	lda	$19                     ; 0x2019 <filePickModal+0x399>
     416: 69 04        	adc	#$4
     418: a8           	tay
     419: a5 18        	lda	$18                     ; 0x2018 <filePickModal+0x398>
     41b: 69 00        	adc	#$0
     41d: 85 19        	sta	$19                     ; 0x2019 <filePickModal+0x399>
     41f: 84 18        	sty	$18                     ; 0x2018 <filePickModal+0x398>
     421: 8a           	txa
     422: 18           	clc
     423: 69 04        	adc	#$4
     425: 85 1a        	sta	$1a                     ; 0x201a <filePickModal+0x39a>
     427: a5 13        	lda	$13                     ; 0x2013 <filePickModal+0x393>
     429: 69 00        	adc	#$0
     42b: 85 1b        	sta	$1b                     ; 0x201b <filePickModal+0x39b>
     42d: a0 04        	ldy	#$4
     42f: b1 16        	lda	($16),y                 ; 0x2016 <filePickModal+0x396>
     431: 85 16        	sta	$16                     ; 0x2016 <filePickModal+0x396>
     433: 85 1d        	sta	$1d                     ; 0x201d <filePickModal+0x39d>
     435: a0 01        	ldy	#$1
     437: b1 18        	lda	($18),y                 ; 0x2018 <filePickModal+0x398>
     439: 85 17        	sta	$17                     ; 0x2017 <filePickModal+0x397>
     43b: 85 19        	sta	$19                     ; 0x2019 <filePickModal+0x399>
     43d: a0 04        	ldy	#$4
     43f: a5 1d        	lda	$1d                     ; 0x201d <filePickModal+0x39d>
     441: 91 12        	sta	($12),y                 ; 0x2012 <filePickModal+0x392>
     443: a5 19        	lda	$19                     ; 0x2019 <filePickModal+0x399>
     445: a0 01        	ldy	#$1
     447: 91 1a        	sta	($1a),y                 ; 0x201a <filePickModal+0x39a>
     449: 18           	clc
     44a: a5 1d        	lda	$1d                     ; 0x201d <filePickModal+0x39d>
     44c: 69 02        	adc	#$2
     44e: 85 18        	sta	$18                     ; 0x2018 <filePickModal+0x398>
     450: a5 19        	lda	$19                     ; 0x2019 <filePickModal+0x399>
     452: 69 00        	adc	#$0
     454: 85 19        	sta	$19                     ; 0x2019 <filePickModal+0x399>
     456: 8a           	txa
     457: c8           	iny
     458: 91 16        	sta	($16),y                 ; 0x2016 <filePickModal+0x396>
     45a: a5 13        	lda	$13                     ; 0x2013 <filePickModal+0x393>
     45c: 88           	dey
     45d: 91 18        	sta	($18),y                 ; 0x2018 <filePickModal+0x398>
     45f: c8           	iny
     460: b1 12        	lda	($12),y                 ; 0x2012 <filePickModal+0x392>
     462: 85 16        	sta	$16                     ; 0x2016 <filePickModal+0x396>
     464: 85 18        	sta	$18                     ; 0x2018 <filePickModal+0x398>
     466: 88           	dey
     467: b1 14        	lda	($14),y                 ; 0x2014 <filePickModal+0x394>
     469: 85 17        	sta	$17                     ; 0x2017 <filePickModal+0x397>
     46b: 85 14        	sta	$14                     ; 0x2014 <filePickModal+0x394>
     46d: 8a           	txa
     46e: a0 04        	ldy	#$4
     470: 91 16        	sta	($16),y                 ; 0x2016 <filePickModal+0x396>
     472: 18           	clc
     473: a5 18        	lda	$18                     ; 0x2018 <filePickModal+0x398>
     475: 69 04        	adc	#$4
     477: a8           	tay
     478: a5 14        	lda	$14                     ; 0x2014 <filePickModal+0x394>
     47a: 69 00        	adc	#$0
     47c: 84 14        	sty	$14                     ; 0x2014 <filePickModal+0x394>
     47e: 85 15        	sta	$15                     ; 0x2015 <filePickModal+0x395>
     480: a5 13        	lda	$13                     ; 0x2013 <filePickModal+0x393>
     482: a0 01        	ldy	#$1
     484: 91 14        	sta	($14),y                 ; 0x2014 <filePickModal+0x394>
     486: 60           	rts
     487: 00           	brk

00000488 <_ZN12_GLOBAL__N_19FreeChunk6removeEv>:
     488: a0 01        	ldy	#$1
     48a: a9 fe        	lda	#$fe
     48c: 32 12        	and	($12)                   ; 0x2012 <filePickModal+0x392>
     48e: 85 14        	sta	$14                     ; 0x2014 <filePickModal+0x394>
     490: a5 99        	lda	$99                     ; 0x2099 <filePickModal+0x419>
     492: a6 9a        	ldx	$9a                     ; 0x209a <filePickModal+0x41a>
     494: 86 15        	stx	$15                     ; 0x2015 <filePickModal+0x395>
     496: 38           	sec
     497: e5 14        	sbc	$14                     ; 0x2014 <filePickModal+0x394>
     499: aa           	tax
     49a: a5 15        	lda	$15                     ; 0x2015 <filePickModal+0x395>
     49c: f1 12        	sbc	($12),y                 ; 0x2012 <filePickModal+0x392>
     49e: 85 14        	sta	$14                     ; 0x2014 <filePickModal+0x394>
     4a0: 18           	clc
     4a1: 8a           	txa
     4a2: 69 02        	adc	#$2
     4a4: 85 15        	sta	$15                     ; 0x2015 <filePickModal+0x395>
     4a6: a5 14        	lda	$14                     ; 0x2014 <filePickModal+0x394>
     4a8: 69 00        	adc	#$0
     4aa: a6 15        	ldx	$15                     ; 0x2015 <filePickModal+0x395>
     4ac: 86 99        	stx	$99                     ; 0x2099 <filePickModal+0x419>
     4ae: 85 9a        	sta	$9a                     ; 0x209a <filePickModal+0x41a>
     4b0: a5 12        	lda	$12                     ; 0x2012 <filePickModal+0x392>
     4b2: 18           	clc
     4b3: 69 02        	adc	#$2
     4b5: 85 14        	sta	$14                     ; 0x2014 <filePickModal+0x394>
     4b7: a5 13        	lda	$13                     ; 0x2013 <filePickModal+0x393>
     4b9: 69 00        	adc	#$0
     4bb: c8           	iny
     4bc: 85 15        	sta	$15                     ; 0x2015 <filePickModal+0x395>
     4be: b1 12        	lda	($12),y                 ; 0x2012 <filePickModal+0x392>
     4c0: aa           	tax
     4c1: 88           	dey
     4c2: b1 14        	lda	($14),y                 ; 0x2014 <filePickModal+0x394>
     4c4: 85 19        	sta	$19                     ; 0x2019 <filePickModal+0x399>
     4c6: c5 13        	cmp	$13                     ; 0x2013 <filePickModal+0x393>
     4c8: d0 0f        	bne	$4d9 <_ZN12_GLOBAL__N_19FreeChunk6removeEv+0x51>
     4ca: e4 12        	cpx	$12                     ; 0x2012 <filePickModal+0x392>
     4cc: d0 0b        	bne	$4d9 <_ZN12_GLOBAL__N_19FreeChunk6removeEv+0x51>
     4ce: a2 00        	ldx	#$0
     4d0: 86 14        	stx	$14                     ; 0x2014 <filePickModal+0x394>
     4d2: a2 00        	ldx	#$0
     4d4: 86 15        	stx	$15                     ; 0x2015 <filePickModal+0x395>
     4d6: 4c 56 05     	jmp	$556 <_ZN12_GLOBAL__N_19FreeChunk6removeEv+0xce>
     4d9: 86 18        	stx	$18                     ; 0x2018 <filePickModal+0x398>
     4db: a6 12        	ldx	$12                     ; 0x2012 <filePickModal+0x392>
     4dd: a5 12        	lda	$12                     ; 0x2012 <filePickModal+0x392>
     4df: 86 1b        	stx	$1b                     ; 0x201b <filePickModal+0x39b>
     4e1: 18           	clc
     4e2: 69 04        	adc	#$4
     4e4: 85 14        	sta	$14                     ; 0x2014 <filePickModal+0x394>
     4e6: a5 13        	lda	$13                     ; 0x2013 <filePickModal+0x393>
     4e8: 69 00        	adc	#$0
     4ea: a0 04        	ldy	#$4
     4ec: 85 15        	sta	$15                     ; 0x2015 <filePickModal+0x395>
     4ee: b1 12        	lda	($12),y                 ; 0x2012 <filePickModal+0x392>
     4f0: 85 1c        	sta	$1c                     ; 0x201c <filePickModal+0x39c>
     4f2: 18           	clc
     4f3: 69 02        	adc	#$2
     4f5: 85 16        	sta	$16                     ; 0x2016 <filePickModal+0x396>
     4f7: a0 01        	ldy	#$1
     4f9: b1 14        	lda	($14),y                 ; 0x2014 <filePickModal+0x394>
     4fb: aa           	tax
     4fc: 69 00        	adc	#$0
     4fe: a4 16        	ldy	$16                     ; 0x2016 <filePickModal+0x396>
     500: 84 14        	sty	$14                     ; 0x2014 <filePickModal+0x394>
     502: 85 15        	sta	$15                     ; 0x2015 <filePickModal+0x395>
     504: a4 1c        	ldy	$1c                     ; 0x201c <filePickModal+0x39c>
     506: 84 16        	sty	$16                     ; 0x2016 <filePickModal+0x396>
     508: 86 17        	stx	$17                     ; 0x2017 <filePickModal+0x397>
     50a: a0 02        	ldy	#$2
     50c: a5 18        	lda	$18                     ; 0x2018 <filePickModal+0x398>
     50e: 91 16        	sta	($16),y                 ; 0x2016 <filePickModal+0x396>
     510: a5 19        	lda	$19                     ; 0x2019 <filePickModal+0x399>
     512: 88           	dey
     513: 91 14        	sta	($14),y                 ; 0x2014 <filePickModal+0x394>
     515: 18           	clc
     516: a5 1b        	lda	$1b                     ; 0x201b <filePickModal+0x39b>
     518: 69 02        	adc	#$2
     51a: 85 14        	sta	$14                     ; 0x2014 <filePickModal+0x394>
     51c: a5 13        	lda	$13                     ; 0x2013 <filePickModal+0x393>
     51e: 69 00        	adc	#$0
     520: 85 15        	sta	$15                     ; 0x2015 <filePickModal+0x395>
     522: c8           	iny
     523: b1 12        	lda	($12),y                 ; 0x2012 <filePickModal+0x392>
     525: 85 16        	sta	$16                     ; 0x2016 <filePickModal+0x396>
     527: 88           	dey
     528: b1 14        	lda	($14),y                 ; 0x2014 <filePickModal+0x394>
     52a: a4 16        	ldy	$16                     ; 0x2016 <filePickModal+0x396>
     52c: 84 14        	sty	$14                     ; 0x2014 <filePickModal+0x394>
     52e: 85 15        	sta	$15                     ; 0x2015 <filePickModal+0x395>
     530: 85 17        	sta	$17                     ; 0x2017 <filePickModal+0x397>
     532: a0 04        	ldy	#$4
     534: a5 1c        	lda	$1c                     ; 0x201c <filePickModal+0x39c>
     536: 91 14        	sta	($14),y                 ; 0x2014 <filePickModal+0x394>
     538: 18           	clc
     539: a5 16        	lda	$16                     ; 0x2016 <filePickModal+0x396>
     53b: 69 04        	adc	#$4
     53d: 85 16        	sta	$16                     ; 0x2016 <filePickModal+0x396>
     53f: a5 17        	lda	$17                     ; 0x2017 <filePickModal+0x397>
     541: 69 00        	adc	#$0
     543: 85 17        	sta	$17                     ; 0x2017 <filePickModal+0x397>
     545: 8a           	txa
     546: a0 01        	ldy	#$1
     548: 91 16        	sta	($16),y                 ; 0x2016 <filePickModal+0x396>
     54a: a6 9c        	ldx	$9c                     ; 0x209c <filePickModal+0x41c>
     54c: e4 13        	cpx	$13                     ; 0x2013 <filePickModal+0x393>
     54e: d0 0e        	bne	$55e <_ZN12_GLOBAL__N_19FreeChunk6removeEv+0xd6>
     550: a6 9b        	ldx	$9b                     ; 0x209b <filePickModal+0x41b>
     552: e4 12        	cpx	$12                     ; 0x2012 <filePickModal+0x392>
     554: d0 08        	bne	$55e <_ZN12_GLOBAL__N_19FreeChunk6removeEv+0xd6>
     556: a6 14        	ldx	$14                     ; 0x2014 <filePickModal+0x394>
     558: a4 15        	ldy	$15                     ; 0x2015 <filePickModal+0x395>
     55a: 86 9b        	stx	$9b                     ; 0x209b <filePickModal+0x41b>
     55c: 84 9c        	sty	$9c                     ; 0x209c <filePickModal+0x41c>
     55e: 60           	rts
     55f: 00           	brk

00000560 <_ZN6__impl6VarInt4makeEPvc>:
     560: 92 12        	sta	($12)                   ; 0x2012 <filePickModal+0x392>
     562: 60           	rts
     563: 00           	brk

00000564 <_ZNK6__impl6VarInt8high_bitEv>:
     564: b2 12        	lda	($12)                   ; 0x2012 <filePickModal+0x392>
     566: a8           	tay
     567: b1 12        	lda	($12),y                 ; 0x2012 <filePickModal+0x392>
     569: 10 03        	bpl	$56e <_ZNK6__impl6VarInt8high_bitEv+0xa>
     56b: a9 01        	lda	#$1
     56d: 60           	rts
     56e: a9 00        	lda	#$0
     570: 60           	rts
     571: 00           	brk

00000572 <_ZNK6__impl6VarInt8negativeEv>:
     572: b2 12        	lda	($12)                   ; 0x2012 <filePickModal+0x392>
     574: a8           	tay
     575: b1 12        	lda	($12),y                 ; 0x2012 <filePickModal+0x392>
     577: 10 03        	bpl	$57c <_ZNK6__impl6VarInt8negativeEv+0xa>
     579: a9 01        	lda	#$1
     57b: 60           	rts
     57c: a9 00        	lda	#$0
     57e: 60           	rts
     57f: 00           	brk

00000580 <_ZN6__impl6VarInt6negateEv>:
     580: b2 12        	lda	($12)                   ; 0x2012 <filePickModal+0x392>
     582: f0 42        	beq	$5c6 <_ZN6__impl6VarInt6negateEv+0x46>
     584: aa           	tax
     585: a4 12        	ldy	$12                     ; 0x2012 <filePickModal+0x392>
     587: 84 16        	sty	$16                     ; 0x2016 <filePickModal+0x396>
     589: a4 13        	ldy	$13                     ; 0x2013 <filePickModal+0x393>
     58b: 84 17        	sty	$17                     ; 0x2017 <filePickModal+0x397>
     58d: 64 12        	stz	$12                     ; 0x2012 <filePickModal+0x392>
     58f: 64 13        	stz	$13                     ; 0x2013 <filePickModal+0x393>
     591: a0 01        	ldy	#$1
     593: a5 16        	lda	$16                     ; 0x2016 <filePickModal+0x396>
     595: 18           	clc
     596: 65 12        	adc	$12                     ; 0x2012 <filePickModal+0x392>
     598: 85 14        	sta	$14                     ; 0x2014 <filePickModal+0x394>
     59a: a5 17        	lda	$17                     ; 0x2017 <filePickModal+0x397>
     59c: 69 00        	adc	#$0
     59e: 85 15        	sta	$15                     ; 0x2015 <filePickModal+0x395>
     5a0: a9 00        	lda	#$0
     5a2: 38           	sec
     5a3: f1 14        	sbc	($14),y                 ; 0x2014 <filePickModal+0x394>
     5a5: 64 19        	stz	$19                     ; 0x2019 <filePickModal+0x399>
     5a7: b0 02        	bcs	$5ab <_ZN6__impl6VarInt6negateEv+0x2b>
     5a9: 84 19        	sty	$19                     ; 0x2019 <filePickModal+0x399>
     5ab: 38           	sec
     5ac: e5 13        	sbc	$13                     ; 0x2013 <filePickModal+0x393>
     5ae: 85 18        	sta	$18                     ; 0x2018 <filePickModal+0x398>
     5b0: 64 13        	stz	$13                     ; 0x2013 <filePickModal+0x393>
     5b2: b0 02        	bcs	$5b6 <_ZN6__impl6VarInt6negateEv+0x36>
     5b4: 84 13        	sty	$13                     ; 0x2013 <filePickModal+0x393>
     5b6: a5 19        	lda	$19                     ; 0x2019 <filePickModal+0x399>
     5b8: 05 13        	ora	$13                     ; 0x2013 <filePickModal+0x393>
     5ba: 85 13        	sta	$13                     ; 0x2013 <filePickModal+0x393>
     5bc: a5 18        	lda	$18                     ; 0x2018 <filePickModal+0x398>
     5be: 91 14        	sta	($14),y                 ; 0x2014 <filePickModal+0x394>
     5c0: e6 12        	inc	$12                     ; 0x2012 <filePickModal+0x392>
     5c2: e4 12        	cpx	$12                     ; 0x2012 <filePickModal+0x392>
     5c4: d0 cd        	bne	$593 <_ZN6__impl6VarInt6negateEv+0x13>
     5c6: 60           	rts
     5c7: 00           	brk

000005c8 <_ZN6__impl6VarInt3shlEv>:
     5c8: b2 12        	lda	($12)                   ; 0x2012 <filePickModal+0x392>
     5ca: f0 36        	beq	$602 <_ZN6__impl6VarInt3shlEv+0x3a>
     5cc: 85 17        	sta	$17                     ; 0x2017 <filePickModal+0x397>
     5ce: 64 14        	stz	$14                     ; 0x2014 <filePickModal+0x394>
     5d0: a6 12        	ldx	$12                     ; 0x2012 <filePickModal+0x392>
     5d2: 86 15        	stx	$15                     ; 0x2015 <filePickModal+0x395>
     5d4: a6 13        	ldx	$13                     ; 0x2013 <filePickModal+0x393>
     5d6: 86 18        	stx	$18                     ; 0x2018 <filePickModal+0x398>
     5d8: a0 01        	ldy	#$1
     5da: 64 12        	stz	$12                     ; 0x2012 <filePickModal+0x392>
     5dc: a5 15        	lda	$15                     ; 0x2015 <filePickModal+0x395>
     5de: 18           	clc
     5df: 65 12        	adc	$12                     ; 0x2012 <filePickModal+0x392>
     5e1: 85 16        	sta	$16                     ; 0x2016 <filePickModal+0x396>
     5e3: a6 17        	ldx	$17                     ; 0x2017 <filePickModal+0x397>
     5e5: a5 18        	lda	$18                     ; 0x2018 <filePickModal+0x398>
     5e7: 69 00        	adc	#$0
     5e9: 85 17        	sta	$17                     ; 0x2017 <filePickModal+0x397>
     5eb: b1 16        	lda	($16),y                 ; 0x2016 <filePickModal+0x396>
     5ed: 0a           	asl
     5ee: 64 13        	stz	$13                     ; 0x2013 <filePickModal+0x393>
     5f0: 26 13        	rol	$13                     ; 0x2013 <filePickModal+0x393>
     5f2: 05 14        	ora	$14                     ; 0x2014 <filePickModal+0x394>
     5f4: 91 16        	sta	($16),y                 ; 0x2016 <filePickModal+0x396>
     5f6: e6 12        	inc	$12                     ; 0x2012 <filePickModal+0x392>
     5f8: a5 13        	lda	$13                     ; 0x2013 <filePickModal+0x393>
     5fa: 85 14        	sta	$14                     ; 0x2014 <filePickModal+0x394>
     5fc: 86 17        	stx	$17                     ; 0x2017 <filePickModal+0x397>
     5fe: e4 12        	cpx	$12                     ; 0x2012 <filePickModal+0x392>
     600: d0 da        	bne	$5dc <_ZN6__impl6VarInt3shlEv+0x14>
     602: 60           	rts

00000603 <__call_indir>:
     603: 6c 22 00     	jmp	($22)                   ; 0x22 <__rc18>

00000606 <__zero_bss>:
     606: a2 9e        	ldx	#$9e
     608: a0 13        	ldy	#$13
     60a: a9 89        	lda	#$89
     60c: 85 12        	sta	$12                     ; 0x2012 <filePickModal+0x392>
     60e: a9 53        	lda	#$53
     610: 85 13        	sta	$13                     ; 0x2013 <filePickModal+0x393>
     612: a9 00        	lda	#$0
     614: 84 14        	sty	$14                     ; 0x2014 <filePickModal+0x394>
     616: 4c c6 4c     	jmp	$4cc6 <__memset>

00000619 <__zero_zp_bss>:
     619: a2 33        	ldx	#$33
     61b: a0 00        	ldy	#$0
     61d: a9 6a        	lda	#$6a
     61f: 85 12        	sta	$12                     ; 0x2012 <filePickModal+0x392>
     621: a9 00        	lda	#$0
     623: 85 13        	sta	$13                     ; 0x2013 <filePickModal+0x393>
     625: a9 00        	lda	#$0
     627: 84 14        	sty	$14                     ; 0x2014 <filePickModal+0x394>
     629: 4c c6 4c     	jmp	$4cc6 <__memset>

0000062c <__copy_zp_data>:
     62c: a9 3a        	lda	#$3a
     62e: a2 00        	ldx	#$0
     630: a0 30        	ldy	#$30
     632: 84 12        	sty	$12                     ; 0x2012 <filePickModal+0x392>
     634: a0 00        	ldy	#$0
     636: 84 13        	sty	$13                     ; 0x2013 <filePickModal+0x393>
     638: a0 00        	ldy	#$0
     63a: 84 14        	sty	$14                     ; 0x2014 <filePickModal+0x394>
     63c: a0 03        	ldy	#$3
     63e: 84 15        	sty	$15                     ; 0x2015 <filePickModal+0x395>
     640: 4c 9a 4c     	jmp	$4c9a <memcpy>

00000643 <isExtensionAllowed>:
     643: a6 14        	ldx	$14                     ; 0x2014 <filePickModal+0x394>
     645: 86 b3        	stx	$b3                     ; 0x20b3 <filePickModal+0x433>
     647: a6 15        	ldx	$15                     ; 0x2015 <filePickModal+0x395>
     649: 86 b4        	stx	$b4                     ; 0x20b4 <filePickModal+0x434>
     64b: a5 12        	lda	$12                     ; 0x2012 <filePickModal+0x392>
     64d: 18           	clc
     64e: 69 ea        	adc	#$ea
     650: 85 b1        	sta	$b1                     ; 0x20b1 <filePickModal+0x431>
     652: a5 13        	lda	$13                     ; 0x2013 <filePickModal+0x393>
     654: 69 11        	adc	#$11
     656: 85 b2        	sta	$b2                     ; 0x20b2 <filePickModal+0x432>
     658: a6 b1        	ldx	$b1                     ; 0x20b1 <filePickModal+0x431>
     65a: 86 b7        	stx	$b7                     ; 0x20b7 <filePickModal+0x437>
     65c: 85 b8        	sta	$b8                     ; 0x20b8 <filePickModal+0x438>
     65e: a0 00        	ldy	#$0
     660: a2 00        	ldx	#$0
     662: 64 b5        	stz	$b5                     ; 0x20b5 <filePickModal+0x435>
     664: 86 ae        	stx	$ae                     ; 0x20ae <filePickModal+0x42e>
     666: 84 ad        	sty	$ad                     ; 0x20ad <filePickModal+0x42d>
     668: b1 b1        	lda	($b1),y                 ; 0x20b1 <filePickModal+0x431>
     66a: d0 03        	bne	$66f <isExtensionAllowed+0x2c>
     66c: 4c 15 07     	jmp	$715 <isExtensionAllowed+0xd2>
     66f: a6 b3        	ldx	$b3                     ; 0x20b3 <filePickModal+0x433>
     671: 86 12        	stx	$12                     ; 0x2012 <filePickModal+0x392>
     673: a6 b4        	ldx	$b4                     ; 0x20b4 <filePickModal+0x434>
     675: 86 13        	stx	$13                     ; 0x2013 <filePickModal+0x393>
     677: 20 a5 4d     	jsr	$4da5 <strlen>
     67a: e0 00        	cpx	#$0
     67c: d0 07        	bne	$685 <isExtensionAllowed+0x42>
     67e: c9 04        	cmp	#$4
     680: b0 0a        	bcs	$68c <isExtensionAllowed+0x49>
     682: 4c 15 07     	jmp	$715 <isExtensionAllowed+0xd2>
     685: e0 00        	cpx	#$0
     687: b0 03        	bcs	$68c <isExtensionAllowed+0x49>
     689: 4c 15 07     	jmp	$715 <isExtensionAllowed+0xd2>
     68c: a6 b3        	ldx	$b3                     ; 0x20b3 <filePickModal+0x433>
     68e: 86 12        	stx	$12                     ; 0x2012 <filePickModal+0x392>
     690: a6 b4        	ldx	$b4                     ; 0x20b4 <filePickModal+0x434>
     692: 86 13        	stx	$13                     ; 0x2013 <filePickModal+0x393>
     694: a2 00        	ldx	#$0
     696: a9 2e        	lda	#$2e
     698: 20 06 4e     	jsr	$4e06 <strrchr>
     69b: a6 12        	ldx	$12                     ; 0x2012 <filePickModal+0x392>
     69d: 86 af        	stx	$af                     ; 0x20af <filePickModal+0x42f>
     69f: a6 13        	ldx	$13                     ; 0x2013 <filePickModal+0x393>
     6a1: 86 b0        	stx	$b0                     ; 0x20b0 <filePickModal+0x430>
     6a3: a6 b0        	ldx	$b0                     ; 0x20b0 <filePickModal+0x430>
     6a5: a0 00        	ldy	#$0
     6a7: 84 12        	sty	$12                     ; 0x2012 <filePickModal+0x392>
     6a9: a0 00        	ldy	#$0
     6ab: 84 13        	sty	$13                     ; 0x2013 <filePickModal+0x393>
     6ad: e4 13        	cpx	$13                     ; 0x2013 <filePickModal+0x393>
     6af: d0 09        	bne	$6ba <isExtensionAllowed+0x77>
     6b1: a6 af        	ldx	$af                     ; 0x20af <filePickModal+0x42f>
     6b3: e4 12        	cpx	$12                     ; 0x2012 <filePickModal+0x392>
     6b5: d0 03        	bne	$6ba <isExtensionAllowed+0x77>
     6b7: 4c 15 07     	jmp	$715 <isExtensionAllowed+0xd2>
     6ba: e6 af        	inc	$af                     ; 0x20af <filePickModal+0x42f>
     6bc: d0 02        	bne	$6c0 <isExtensionAllowed+0x7d>
     6be: e6 b0        	inc	$b0                     ; 0x20b0 <filePickModal+0x430>
     6c0: a6 af        	ldx	$af                     ; 0x20af <filePickModal+0x42f>
     6c2: 86 12        	stx	$12                     ; 0x2012 <filePickModal+0x392>
     6c4: a6 b0        	ldx	$b0                     ; 0x20b0 <filePickModal+0x430>
     6c6: 86 13        	stx	$13                     ; 0x2013 <filePickModal+0x393>
     6c8: 20 a5 4d     	jsr	$4da5 <strlen>
     6cb: e0 00        	cpx	#$0
     6cd: d0 46        	bne	$715 <isExtensionAllowed+0xd2>
     6cf: c9 03        	cmp	#$3
     6d1: d0 42        	bne	$715 <isExtensionAllowed+0xd2>
     6d3: a0 00        	ldy	#$0
     6d5: c0 03        	cpy	#$3
     6d7: d0 03        	bne	$6dc <isExtensionAllowed+0x99>
     6d9: 4c 4a 07     	jmp	$74a <isExtensionAllowed+0x107>
     6dc: a6 b3        	ldx	$b3                     ; 0x20b3 <filePickModal+0x433>
     6de: 86 b9        	stx	$b9                     ; 0x20b9 <filePickModal+0x439>
     6e0: a6 b4        	ldx	$b4                     ; 0x20b4 <filePickModal+0x434>
     6e2: 86 ba        	stx	$ba                     ; 0x20ba <filePickModal+0x43a>
     6e4: b1 af        	lda	($af),y                 ; 0x20af <filePickModal+0x42f>
     6e6: a2 00        	ldx	#$0
     6e8: 84 b3        	sty	$b3                     ; 0x20b3 <filePickModal+0x433>
     6ea: 20 23 36     	jsr	$3623 <tolower>
     6ed: 85 b6        	sta	$b6                     ; 0x20b6 <filePickModal+0x436>
     6ef: 86 b4        	stx	$b4                     ; 0x20b4 <filePickModal+0x434>
     6f1: a4 b3        	ldy	$b3                     ; 0x20b3 <filePickModal+0x433>
     6f3: b1 b7        	lda	($b7),y                 ; 0x20b7 <filePickModal+0x437>
     6f5: a2 00        	ldx	#$0
     6f7: 20 23 36     	jsr	$3623 <tolower>
     6fa: 86 13        	stx	$13                     ; 0x2013 <filePickModal+0x393>
     6fc: a6 b4        	ldx	$b4                     ; 0x20b4 <filePickModal+0x434>
     6fe: e4 13        	cpx	$13                     ; 0x2013 <filePickModal+0x393>
     700: d0 3e        	bne	$740 <isExtensionAllowed+0xfd>
     702: 85 12        	sta	$12                     ; 0x2012 <filePickModal+0x392>
     704: a4 b3        	ldy	$b3                     ; 0x20b3 <filePickModal+0x433>
     706: c8           	iny
     707: a6 b9        	ldx	$b9                     ; 0x20b9 <filePickModal+0x439>
     709: 86 b3        	stx	$b3                     ; 0x20b3 <filePickModal+0x433>
     70b: a6 ba        	ldx	$ba                     ; 0x20ba <filePickModal+0x43a>
     70d: 86 b4        	stx	$b4                     ; 0x20b4 <filePickModal+0x434>
     70f: a6 b6        	ldx	$b6                     ; 0x20b6 <filePickModal+0x436>
     711: e4 12        	cpx	$12                     ; 0x2012 <filePickModal+0x392>
     713: f0 c0        	beq	$6d5 <isExtensionAllowed+0x92>
     715: a6 ae        	ldx	$ae                     ; 0x20ae <filePickModal+0x42e>
     717: e8           	inx
     718: d0 02        	bne	$71c <isExtensionAllowed+0xd9>
     71a: e6 b5        	inc	$b5                     ; 0x20b5 <filePickModal+0x435>
     71c: 18           	clc
     71d: a5 ad        	lda	$ad                     ; 0x20ad <filePickModal+0x42d>
     71f: 69 03        	adc	#$3
     721: a8           	tay
     722: a5 b7        	lda	$b7                     ; 0x20b7 <filePickModal+0x437>
     724: 18           	clc
     725: 69 03        	adc	#$3
     727: 85 b7        	sta	$b7                     ; 0x20b7 <filePickModal+0x437>
     729: a5 b8        	lda	$b8                     ; 0x20b8 <filePickModal+0x438>
     72b: 69 00        	adc	#$0
     72d: 85 b8        	sta	$b8                     ; 0x20b8 <filePickModal+0x438>
     72f: a5 b5        	lda	$b5                     ; 0x20b5 <filePickModal+0x435>
     731: f0 03        	beq	$736 <isExtensionAllowed+0xf3>
     733: 4c 64 06     	jmp	$664 <isExtensionAllowed+0x21>
     736: e0 04        	cpx	#$4
     738: f0 03        	beq	$73d <isExtensionAllowed+0xfa>
     73a: 4c 64 06     	jmp	$664 <isExtensionAllowed+0x21>
     73d: a9 00        	lda	#$0
     73f: 60           	rts
     740: a6 b9        	ldx	$b9                     ; 0x20b9 <filePickModal+0x439>
     742: 86 b3        	stx	$b3                     ; 0x20b3 <filePickModal+0x433>
     744: a6 ba        	ldx	$ba                     ; 0x20ba <filePickModal+0x43a>
     746: 86 b4        	stx	$b4                     ; 0x20b4 <filePickModal+0x434>
     748: 80 cb        	bra	$715 <isExtensionAllowed+0xd2>
     74a: a9 01        	lda	#$1
     74c: 60           	rts

0000074d <sortFileList>:
     74d: a6 12        	ldx	$12                     ; 0x2012 <filePickModal+0x392>
     74f: 86 16        	stx	$16                     ; 0x2016 <filePickModal+0x396>
     751: a6 13        	ldx	$13                     ; 0x2013 <filePickModal+0x393>
     753: 86 17        	stx	$17                     ; 0x2017 <filePickModal+0x397>
     755: a0 4e        	ldy	#$4e
     757: a5 12        	lda	$12                     ; 0x2012 <filePickModal+0x392>
     759: 18           	clc
     75a: 69 4e        	adc	#$4e
     75c: 85 14        	sta	$14                     ; 0x2014 <filePickModal+0x394>
     75e: a5 13        	lda	$13                     ; 0x2013 <filePickModal+0x393>
     760: 69 00        	adc	#$0
     762: a6 14        	ldx	$14                     ; 0x2014 <filePickModal+0x394>
     764: 86 dd        	stx	$dd                     ; 0x20dd <filePickModal+0x45d>
     766: 85 de        	sta	$de                     ; 0x20de <filePickModal+0x45e>
     768: 85 15        	sta	$15                     ; 0x2015 <filePickModal+0x395>
     76a: a5 30        	lda	$30                     ; 0x2030 <filePickModal+0x3b0>
     76c: 91 12        	sta	($12),y                 ; 0x2012 <filePickModal+0x392>
     76e: a5 32        	lda	$32                     ; 0x2032 <filePickModal+0x3b2>
     770: a0 02        	ldy	#$2
     772: 91 14        	sta	($14),y                 ; 0x2014 <filePickModal+0x394>
     774: a5 31        	lda	$31                     ; 0x2031 <filePickModal+0x3b1>
     776: 88           	dey
     777: 91 14        	sta	($14),y                 ; 0x2014 <filePickModal+0x394>
     779: a5 12        	lda	$12                     ; 0x2012 <filePickModal+0x392>
     77b: 18           	clc
     77c: 69 7e        	adc	#$7e
     77e: 85 12        	sta	$12                     ; 0x2012 <filePickModal+0x392>
     780: a5 13        	lda	$13                     ; 0x2013 <filePickModal+0x393>
     782: 69 11        	adc	#$11
     784: a6 12        	ldx	$12                     ; 0x2012 <filePickModal+0x392>
     786: 86 d9        	stx	$d9                     ; 0x20d9 <filePickModal+0x459>
     788: 85 da        	sta	$da                     ; 0x20da <filePickModal+0x45a>
     78a: 85 13        	sta	$13                     ; 0x2013 <filePickModal+0x393>
     78c: 98           	tya
     78d: 92 12        	sta	($12)                   ; 0x2012 <filePickModal+0x392>
     78f: 18           	clc
     790: a5 16        	lda	$16                     ; 0x2016 <filePickModal+0x396>
     792: 69 e2        	adc	#$e2
     794: 85 a5        	sta	$a5                     ; 0x20a5 <filePickModal+0x425>
     796: a5 17        	lda	$17                     ; 0x2017 <filePickModal+0x397>
     798: 69 11        	adc	#$11
     79a: 85 a6        	sta	$a6                     ; 0x20a6 <filePickModal+0x426>
     79c: b2 a5        	lda	($a5)                   ; 0x20a5 <filePickModal+0x425>
     79e: 85 12        	sta	$12                     ; 0x2012 <filePickModal+0x392>
     7a0: b1 a5        	lda	($a5),y                 ; 0x20a5 <filePickModal+0x425>
     7a2: a6 12        	ldx	$12                     ; 0x2012 <filePickModal+0x392>
     7a4: e0 03        	cpx	#$3
     7a6: e9 00        	sbc	#$0
     7a8: 50 02        	bvc	$7ac <sortFileList+0x5f>
     7aa: 49 80        	eor	#$80
     7ac: aa           	tax
     7ad: 10 03        	bpl	$7b2 <sortFileList+0x65>
     7af: 4c 72 0a     	jmp	$a72 <sortFileList+0x325>
     7b2: 84 14        	sty	$14                     ; 0x2014 <filePickModal+0x394>
     7b4: 64 15        	stz	$15                     ; 0x2015 <filePickModal+0x395>
     7b6: 4c 43 0a     	jmp	$a43 <sortFileList+0x2f6>
     7b9: a5 a6        	lda	$a6                     ; 0x20a6 <filePickModal+0x426>
     7bb: a4 a3        	ldy	$a3                     ; 0x20a3 <filePickModal+0x423>
     7bd: 84 a5        	sty	$a5                     ; 0x20a5 <filePickModal+0x425>
     7bf: a4 a4        	ldy	$a4                     ; 0x20a4 <filePickModal+0x424>
     7c1: 84 a6        	sty	$a6                     ; 0x20a6 <filePickModal+0x426>
     7c3: 85 14        	sta	$14                     ; 0x2014 <filePickModal+0x394>
     7c5: 38           	sec
     7c6: e5 12        	sbc	$12                     ; 0x2012 <filePickModal+0x392>
     7c8: 85 e0        	sta	$e0                     ; 0x20e0 <filePickModal+0x460>
     7ca: 8a           	txa
     7cb: e5 13        	sbc	$13                     ; 0x2013 <filePickModal+0x393>
     7cd: e4 13        	cpx	$13                     ; 0x2013 <filePickModal+0x393>
     7cf: d0 43        	bne	$814 <sortFileList+0xc7>
     7d1: a6 14        	ldx	$14                     ; 0x2014 <filePickModal+0x394>
     7d3: a4 d5        	ldy	$d5                     ; 0x20d5 <filePickModal+0x455>
     7d5: 84 14        	sty	$14                     ; 0x2014 <filePickModal+0x394>
     7d7: a4 d6        	ldy	$d6                     ; 0x20d6 <filePickModal+0x456>
     7d9: 84 15        	sty	$15                     ; 0x2015 <filePickModal+0x395>
     7db: e4 12        	cpx	$12                     ; 0x2012 <filePickModal+0x392>
     7dd: d0 35        	bne	$814 <sortFileList+0xc7>
     7df: 4c 86 09     	jmp	$986 <sortFileList+0x239>
     7e2: e6 a6        	inc	$a6                     ; 0x20a6 <filePickModal+0x426>
     7e4: 4c ed 09     	jmp	$9ed <sortFileList+0x2a0>
     7e7: e6 17        	inc	$17                     ; 0x2017 <filePickModal+0x397>
     7e9: 4c fc 09     	jmp	$9fc <sortFileList+0x2af>
     7ec: a2 00        	ldx	#$0
     7ee: a4 14        	ldy	$14                     ; 0x2014 <filePickModal+0x394>
     7f0: 84 a3        	sty	$a3                     ; 0x20a3 <filePickModal+0x423>
     7f2: a4 15        	ldy	$15                     ; 0x2015 <filePickModal+0x395>
     7f4: 84 a4        	sty	$a4                     ; 0x20a4 <filePickModal+0x424>
     7f6: 20 23 36     	jsr	$3623 <tolower>
     7f9: 85 a1        	sta	$a1                     ; 0x20a1 <filePickModal+0x421>
     7fb: 86 9d        	stx	$9d                     ; 0x209d <filePickModal+0x41d>
     7fd: b2 a3        	lda	($a3)                   ; 0x20a3 <filePickModal+0x423>
     7ff: a2 00        	ldx	#$0
     801: 20 23 36     	jsr	$3623 <tolower>
     804: 85 12        	sta	$12                     ; 0x2012 <filePickModal+0x392>
     806: 86 13        	stx	$13                     ; 0x2013 <filePickModal+0x393>
     808: 38           	sec
     809: a5 a1        	lda	$a1                     ; 0x20a1 <filePickModal+0x421>
     80b: e5 12        	sbc	$12                     ; 0x2012 <filePickModal+0x392>
     80d: aa           	tax
     80e: a5 9d        	lda	$9d                     ; 0x209d <filePickModal+0x41d>
     810: 86 e0        	stx	$e0                     ; 0x20e0 <filePickModal+0x460>
     812: e5 13        	sbc	$13                     ; 0x2013 <filePickModal+0x393>
     814: a6 e0        	ldx	$e0                     ; 0x20e0 <filePickModal+0x460>
     816: e0 01        	cpx	#$1
     818: e9 00        	sbc	#$0
     81a: 50 02        	bvc	$81e <sortFileList+0xd1>
     81c: 49 80        	eor	#$80
     81e: a0 01        	ldy	#$1
     820: a6 db        	ldx	$db                     ; 0x20db <filePickModal+0x45b>
     822: 86 14        	stx	$14                     ; 0x2014 <filePickModal+0x394>
     824: a6 dc        	ldx	$dc                     ; 0x20dc <filePickModal+0x45c>
     826: 86 15        	stx	$15                     ; 0x2015 <filePickModal+0x395>
     828: a6 d7        	ldx	$d7                     ; 0x20d7 <filePickModal+0x457>
     82a: 86 a5        	stx	$a5                     ; 0x20a5 <filePickModal+0x425>
     82c: a6 d8        	ldx	$d8                     ; 0x20d8 <filePickModal+0x458>
     82e: 86 a6        	stx	$a6                     ; 0x20a6 <filePickModal+0x426>
     830: a6 df        	ldx	$df                     ; 0x20df <filePickModal+0x45f>
     832: c9 00        	cmp	#$0
     834: 10 03        	bpl	$839 <sortFileList+0xec>
     836: 4c d0 08     	jmp	$8d0 <sortFileList+0x183>
     839: a0 2c        	ldy	#$2c
     83b: 84 12        	sty	$12                     ; 0x2012 <filePickModal+0x392>
     83d: 64 13        	stz	$13                     ; 0x2013 <filePickModal+0x393>
     83f: 86 9d        	stx	$9d                     ; 0x209d <filePickModal+0x41d>
     841: a6 a0        	ldx	$a0                     ; 0x20a0 <filePickModal+0x420>
     843: a5 9f        	lda	$9f                     ; 0x209f <filePickModal+0x41f>
     845: 20 ae 4e     	jsr	$4eae <__mulhi3>
     848: 85 12        	sta	$12                     ; 0x2012 <filePickModal+0x392>
     84a: 86 13        	stx	$13                     ; 0x2013 <filePickModal+0x393>
     84c: a6 dd        	ldx	$dd                     ; 0x20dd <filePickModal+0x45d>
     84e: 86 a3        	stx	$a3                     ; 0x20a3 <filePickModal+0x423>
     850: 8a           	txa
     851: 18           	clc
     852: 65 12        	adc	$12                     ; 0x2012 <filePickModal+0x392>
     854: 85 a1        	sta	$a1                     ; 0x20a1 <filePickModal+0x421>
     856: a6 de        	ldx	$de                     ; 0x20de <filePickModal+0x45e>
     858: 86 a4        	stx	$a4                     ; 0x20a4 <filePickModal+0x424>
     85a: 8a           	txa
     85b: 65 13        	adc	$13                     ; 0x2013 <filePickModal+0x393>
     85d: 85 a2        	sta	$a2                     ; 0x20a2 <filePickModal+0x422>
     85f: a2 a9        	ldx	#$a9
     861: 86 9f        	stx	$9f                     ; 0x209f <filePickModal+0x41f>
     863: a2 00        	ldx	#$0
     865: 86 a0        	stx	$a0                     ; 0x20a0 <filePickModal+0x420>
     867: a4 9f        	ldy	$9f                     ; 0x209f <filePickModal+0x41f>
     869: 84 12        	sty	$12                     ; 0x2012 <filePickModal+0x392>
     86b: 86 13        	stx	$13                     ; 0x2013 <filePickModal+0x393>
     86d: a6 a1        	ldx	$a1                     ; 0x20a1 <filePickModal+0x421>
     86f: 86 14        	stx	$14                     ; 0x2014 <filePickModal+0x394>
     871: 85 15        	sta	$15                     ; 0x2015 <filePickModal+0x395>
     873: 20 e6 4c     	jsr	$4ce6 <strcpy>
     876: a2 2c        	ldx	#$2c
     878: 86 12        	stx	$12                     ; 0x2012 <filePickModal+0x392>
     87a: 64 13        	stz	$13                     ; 0x2013 <filePickModal+0x393>
     87c: a6 9e        	ldx	$9e                     ; 0x209e <filePickModal+0x41e>
     87e: a5 9d        	lda	$9d                     ; 0x209d <filePickModal+0x41d>
     880: 20 ae 4e     	jsr	$4eae <__mulhi3>
     883: 85 12        	sta	$12                     ; 0x2012 <filePickModal+0x392>
     885: 86 13        	stx	$13                     ; 0x2013 <filePickModal+0x393>
     887: a5 a3        	lda	$a3                     ; 0x20a3 <filePickModal+0x423>
     889: 18           	clc
     88a: 65 12        	adc	$12                     ; 0x2012 <filePickModal+0x392>
     88c: 85 a3        	sta	$a3                     ; 0x20a3 <filePickModal+0x423>
     88e: a5 a4        	lda	$a4                     ; 0x20a4 <filePickModal+0x424>
     890: 65 13        	adc	$13                     ; 0x2013 <filePickModal+0x393>
     892: 85 a4        	sta	$a4                     ; 0x20a4 <filePickModal+0x424>
     894: a6 a1        	ldx	$a1                     ; 0x20a1 <filePickModal+0x421>
     896: 86 12        	stx	$12                     ; 0x2012 <filePickModal+0x392>
     898: a6 a2        	ldx	$a2                     ; 0x20a2 <filePickModal+0x422>
     89a: 86 13        	stx	$13                     ; 0x2013 <filePickModal+0x393>
     89c: a6 a3        	ldx	$a3                     ; 0x20a3 <filePickModal+0x423>
     89e: 86 14        	stx	$14                     ; 0x2014 <filePickModal+0x394>
     8a0: 85 15        	sta	$15                     ; 0x2015 <filePickModal+0x395>
     8a2: 20 e6 4c     	jsr	$4ce6 <strcpy>
     8a5: a6 a3        	ldx	$a3                     ; 0x20a3 <filePickModal+0x423>
     8a7: 86 12        	stx	$12                     ; 0x2012 <filePickModal+0x392>
     8a9: a6 a4        	ldx	$a4                     ; 0x20a4 <filePickModal+0x424>
     8ab: 86 13        	stx	$13                     ; 0x2013 <filePickModal+0x393>
     8ad: a6 9f        	ldx	$9f                     ; 0x209f <filePickModal+0x41f>
     8af: 86 14        	stx	$14                     ; 0x2014 <filePickModal+0x394>
     8b1: a6 a0        	ldx	$a0                     ; 0x20a0 <filePickModal+0x420>
     8b3: 86 15        	stx	$15                     ; 0x2015 <filePickModal+0x395>
     8b5: 20 e6 4c     	jsr	$4ce6 <strcpy>
     8b8: a6 dc        	ldx	$dc                     ; 0x20dc <filePickModal+0x45c>
     8ba: 86 15        	stx	$15                     ; 0x2015 <filePickModal+0x395>
     8bc: a6 db        	ldx	$db                     ; 0x20db <filePickModal+0x45b>
     8be: 86 14        	stx	$14                     ; 0x2014 <filePickModal+0x394>
     8c0: a6 9d        	ldx	$9d                     ; 0x209d <filePickModal+0x41d>
     8c2: a0 01        	ldy	#$1
     8c4: b2 a7        	lda	($a7)                   ; 0x20a7 <filePickModal+0x427>
     8c6: 85 12        	sta	$12                     ; 0x2012 <filePickModal+0x392>
     8c8: b1 a7        	lda	($a7),y                 ; 0x20a7 <filePickModal+0x427>
     8ca: 92 a7        	sta	($a7)                   ; 0x20a7 <filePickModal+0x427>
     8cc: a5 12        	lda	$12                     ; 0x2012 <filePickModal+0x392>
     8ce: 91 a7        	sta	($a7),y                 ; 0x20a7 <filePickModal+0x427>
     8d0: b2 a5        	lda	($a5)                   ; 0x20a5 <filePickModal+0x425>
     8d2: 85 12        	sta	$12                     ; 0x2012 <filePickModal+0x392>
     8d4: b1 a5        	lda	($a5),y                 ; 0x20a5 <filePickModal+0x425>
     8d6: 85 13        	sta	$13                     ; 0x2013 <filePickModal+0x393>
     8d8: 38           	sec
     8d9: a5 12        	lda	$12                     ; 0x2012 <filePickModal+0x392>
     8db: e5 14        	sbc	$14                     ; 0x2014 <filePickModal+0x394>
     8dd: 85 12        	sta	$12                     ; 0x2012 <filePickModal+0x392>
     8df: a5 13        	lda	$13                     ; 0x2013 <filePickModal+0x393>
     8e1: e5 15        	sbc	$15                     ; 0x2015 <filePickModal+0x395>
     8e3: 85 13        	sta	$13                     ; 0x2013 <filePickModal+0x393>
     8e5: e4 12        	cpx	$12                     ; 0x2012 <filePickModal+0x392>
     8e7: a5 9e        	lda	$9e                     ; 0x209e <filePickModal+0x41e>
     8e9: e5 13        	sbc	$13                     ; 0x2013 <filePickModal+0x393>
     8eb: 50 02        	bvc	$8ef <sortFileList+0x1a2>
     8ed: 49 80        	eor	#$80
     8ef: 86 9f        	stx	$9f                     ; 0x209f <filePickModal+0x41f>
     8f1: a6 9e        	ldx	$9e                     ; 0x209e <filePickModal+0x41e>
     8f3: 86 a0        	stx	$a0                     ; 0x20a0 <filePickModal+0x420>
     8f5: aa           	tax
     8f6: 30 03        	bmi	$8fb <sortFileList+0x1ae>
     8f8: 4c 12 0a     	jmp	$a12 <sortFileList+0x2c5>
     8fb: a6 d9        	ldx	$d9                     ; 0x20d9 <filePickModal+0x459>
     8fd: 8a           	txa
     8fe: 18           	clc
     8ff: 65 9f        	adc	$9f                     ; 0x209f <filePickModal+0x41f>
     901: 85 a7        	sta	$a7                     ; 0x20a7 <filePickModal+0x427>
     903: a5 da        	lda	$da                     ; 0x20da <filePickModal+0x45a>
     905: 65 a0        	adc	$a0                     ; 0x20a0 <filePickModal+0x420>
     907: 85 a8        	sta	$a8                     ; 0x20a8 <filePickModal+0x428>
     909: b2 a7        	lda	($a7)                   ; 0x20a7 <filePickModal+0x427>
     90b: 85 13        	sta	$13                     ; 0x2013 <filePickModal+0x393>
     90d: 29 01        	and	#$1
     90f: 85 17        	sta	$17                     ; 0x2017 <filePickModal+0x397>
     911: a6 9f        	ldx	$9f                     ; 0x209f <filePickModal+0x41f>
     913: a5 a0        	lda	$a0                     ; 0x20a0 <filePickModal+0x420>
     915: 85 9e        	sta	$9e                     ; 0x209e <filePickModal+0x41e>
     917: e8           	inx
     918: d0 02        	bne	$91c <sortFileList+0x1cf>
     91a: e6 9e        	inc	$9e                     ; 0x209e <filePickModal+0x41e>
     91c: b1 a7        	lda	($a7),y                 ; 0x20a7 <filePickModal+0x427>
     91e: 85 12        	sta	$12                     ; 0x2012 <filePickModal+0x392>
     920: e6 17        	inc	$17                     ; 0x2017 <filePickModal+0x397>
     922: c6 17        	dec	$17                     ; 0x2017 <filePickModal+0x397>
     924: d0 07        	bne	$92d <sortFileList+0x1e0>
     926: 29 01        	and	#$1
     928: f0 03        	beq	$92d <sortFileList+0x1e0>
     92a: 4c 39 08     	jmp	$839 <sortFileList+0xec>
     92d: a5 13        	lda	$13                     ; 0x2013 <filePickModal+0x393>
     92f: c5 12        	cmp	$12                     ; 0x2012 <filePickModal+0x392>
     931: f0 03        	beq	$936 <sortFileList+0x1e9>
     933: 4c d0 08     	jmp	$8d0 <sortFileList+0x183>
     936: a4 a5        	ldy	$a5                     ; 0x20a5 <filePickModal+0x425>
     938: 84 d7        	sty	$d7                     ; 0x20d7 <filePickModal+0x457>
     93a: a4 a6        	ldy	$a6                     ; 0x20a6 <filePickModal+0x426>
     93c: 84 d8        	sty	$d8                     ; 0x20d8 <filePickModal+0x458>
     93e: a0 2c        	ldy	#$2c
     940: 84 12        	sty	$12                     ; 0x2012 <filePickModal+0x392>
     942: 64 13        	stz	$13                     ; 0x2013 <filePickModal+0x393>
     944: 86 9d        	stx	$9d                     ; 0x209d <filePickModal+0x41d>
     946: a6 a0        	ldx	$a0                     ; 0x20a0 <filePickModal+0x420>
     948: a5 9f        	lda	$9f                     ; 0x209f <filePickModal+0x41f>
     94a: 20 ae 4e     	jsr	$4eae <__mulhi3>
     94d: 85 12        	sta	$12                     ; 0x2012 <filePickModal+0x392>
     94f: 86 13        	stx	$13                     ; 0x2013 <filePickModal+0x393>
     951: a6 dd        	ldx	$dd                     ; 0x20dd <filePickModal+0x45d>
     953: 86 a3        	stx	$a3                     ; 0x20a3 <filePickModal+0x423>
     955: 8a           	txa
     956: 18           	clc
     957: 65 12        	adc	$12                     ; 0x2012 <filePickModal+0x392>
     959: 85 a5        	sta	$a5                     ; 0x20a5 <filePickModal+0x425>
     95b: a6 de        	ldx	$de                     ; 0x20de <filePickModal+0x45e>
     95d: 86 a4        	stx	$a4                     ; 0x20a4 <filePickModal+0x424>
     95f: 8a           	txa
     960: 65 13        	adc	$13                     ; 0x2013 <filePickModal+0x393>
     962: 85 a6        	sta	$a6                     ; 0x20a6 <filePickModal+0x426>
     964: a2 2c        	ldx	#$2c
     966: 86 12        	stx	$12                     ; 0x2012 <filePickModal+0x392>
     968: 64 13        	stz	$13                     ; 0x2013 <filePickModal+0x393>
     96a: a6 9e        	ldx	$9e                     ; 0x209e <filePickModal+0x41e>
     96c: a4 9d        	ldy	$9d                     ; 0x209d <filePickModal+0x41d>
     96e: 84 df        	sty	$df                     ; 0x20df <filePickModal+0x45f>
     970: a5 9d        	lda	$9d                     ; 0x209d <filePickModal+0x41d>
     972: 20 ae 4e     	jsr	$4eae <__mulhi3>
     975: 85 12        	sta	$12                     ; 0x2012 <filePickModal+0x392>
     977: 86 13        	stx	$13                     ; 0x2013 <filePickModal+0x393>
     979: a5 a3        	lda	$a3                     ; 0x20a3 <filePickModal+0x423>
     97b: 18           	clc
     97c: 65 12        	adc	$12                     ; 0x2012 <filePickModal+0x392>
     97e: 85 14        	sta	$14                     ; 0x2014 <filePickModal+0x394>
     980: a5 a4        	lda	$a4                     ; 0x20a4 <filePickModal+0x424>
     982: 65 13        	adc	$13                     ; 0x2013 <filePickModal+0x393>
     984: 85 15        	sta	$15                     ; 0x2015 <filePickModal+0x395>
     986: 85 a1        	sta	$a1                     ; 0x20a1 <filePickModal+0x421>
     988: b2 a5        	lda	($a5)                   ; 0x20a5 <filePickModal+0x425>
     98a: d0 03        	bne	$98f <sortFileList+0x242>
     98c: 4c ec 07     	jmp	$7ec <sortFileList+0x9f>
     98f: a6 a5        	ldx	$a5                     ; 0x20a5 <filePickModal+0x425>
     991: 86 a3        	stx	$a3                     ; 0x20a3 <filePickModal+0x423>
     993: a6 a6        	ldx	$a6                     ; 0x20a6 <filePickModal+0x426>
     995: 86 a4        	stx	$a4                     ; 0x20a4 <filePickModal+0x424>
     997: aa           	tax
     998: b2 14        	lda	($14)                   ; 0x2014 <filePickModal+0x394>
     99a: 85 a5        	sta	$a5                     ; 0x20a5 <filePickModal+0x425>
     99c: 8a           	txa
     99d: a6 a5        	ldx	$a5                     ; 0x20a5 <filePickModal+0x425>
     99f: d0 03        	bne	$9a4 <sortFileList+0x257>
     9a1: 4c ec 07     	jmp	$7ec <sortFileList+0x9f>
     9a4: a6 14        	ldx	$14                     ; 0x2014 <filePickModal+0x394>
     9a6: 86 12        	stx	$12                     ; 0x2012 <filePickModal+0x392>
     9a8: a6 15        	ldx	$15                     ; 0x2015 <filePickModal+0x395>
     9aa: 86 13        	stx	$13                     ; 0x2013 <filePickModal+0x393>
     9ac: a6 12        	ldx	$12                     ; 0x2012 <filePickModal+0x392>
     9ae: 86 d5        	stx	$d5                     ; 0x20d5 <filePickModal+0x455>
     9b0: a6 13        	ldx	$13                     ; 0x2013 <filePickModal+0x393>
     9b2: 86 d6        	stx	$d6                     ; 0x20d6 <filePickModal+0x456>
     9b4: a2 00        	ldx	#$0
     9b6: 20 23 36     	jsr	$3623 <tolower>
     9b9: 85 a6        	sta	$a6                     ; 0x20a6 <filePickModal+0x426>
     9bb: 86 9d        	stx	$9d                     ; 0x209d <filePickModal+0x41d>
     9bd: a2 00        	ldx	#$0
     9bf: a5 a5        	lda	$a5                     ; 0x20a5 <filePickModal+0x425>
     9c1: 20 23 36     	jsr	$3623 <tolower>
     9c4: 85 12        	sta	$12                     ; 0x2012 <filePickModal+0x392>
     9c6: 86 13        	stx	$13                     ; 0x2013 <filePickModal+0x393>
     9c8: a6 9d        	ldx	$9d                     ; 0x209d <filePickModal+0x41d>
     9ca: 86 15        	stx	$15                     ; 0x2015 <filePickModal+0x395>
     9cc: e4 13        	cpx	$13                     ; 0x2013 <filePickModal+0x393>
     9ce: f0 03        	beq	$9d3 <sortFileList+0x286>
     9d0: 4c b9 07     	jmp	$7b9 <sortFileList+0x6c>
     9d3: a5 a6        	lda	$a6                     ; 0x20a6 <filePickModal+0x426>
     9d5: c5 12        	cmp	$12                     ; 0x2012 <filePickModal+0x392>
     9d7: f0 03        	beq	$9dc <sortFileList+0x28f>
     9d9: 4c bb 07     	jmp	$7bb <sortFileList+0x6e>
     9dc: 85 14        	sta	$14                     ; 0x2014 <filePickModal+0x394>
     9de: a6 a3        	ldx	$a3                     ; 0x20a3 <filePickModal+0x423>
     9e0: 86 a5        	stx	$a5                     ; 0x20a5 <filePickModal+0x425>
     9e2: a6 a4        	ldx	$a4                     ; 0x20a4 <filePickModal+0x424>
     9e4: 86 a6        	stx	$a6                     ; 0x20a6 <filePickModal+0x426>
     9e6: e6 a5        	inc	$a5                     ; 0x20a5 <filePickModal+0x425>
     9e8: d0 03        	bne	$9ed <sortFileList+0x2a0>
     9ea: 4c e2 07     	jmp	$7e2 <sortFileList+0x95>
     9ed: a6 d5        	ldx	$d5                     ; 0x20d5 <filePickModal+0x455>
     9ef: 86 16        	stx	$16                     ; 0x2016 <filePickModal+0x396>
     9f1: a6 d6        	ldx	$d6                     ; 0x20d6 <filePickModal+0x456>
     9f3: 86 17        	stx	$17                     ; 0x2017 <filePickModal+0x397>
     9f5: e6 16        	inc	$16                     ; 0x2016 <filePickModal+0x396>
     9f7: d0 03        	bne	$9fc <sortFileList+0x2af>
     9f9: 4c e7 07     	jmp	$7e7 <sortFileList+0x9a>
     9fc: a6 16        	ldx	$16                     ; 0x2016 <filePickModal+0x396>
     9fe: 86 d5        	stx	$d5                     ; 0x20d5 <filePickModal+0x455>
     a00: a6 17        	ldx	$17                     ; 0x2017 <filePickModal+0x397>
     a02: 86 d6        	stx	$d6                     ; 0x20d6 <filePickModal+0x456>
     a04: a5 a1        	lda	$a1                     ; 0x20a1 <filePickModal+0x421>
     a06: a6 15        	ldx	$15                     ; 0x2015 <filePickModal+0x395>
     a08: e4 13        	cpx	$13                     ; 0x2013 <filePickModal+0x393>
     a0a: f0 03        	beq	$a0f <sortFileList+0x2c2>
     a0c: 4c 14 08     	jmp	$814 <sortFileList+0xc7>
     a0f: 4c d1 07     	jmp	$7d1 <sortFileList+0x84>
     a12: a6 14        	ldx	$14                     ; 0x2014 <filePickModal+0x394>
     a14: a5 15        	lda	$15                     ; 0x2015 <filePickModal+0x395>
     a16: 85 9e        	sta	$9e                     ; 0x209e <filePickModal+0x41e>
     a18: e8           	inx
     a19: d0 02        	bne	$a1d <sortFileList+0x2d0>
     a1b: e6 9e        	inc	$9e                     ; 0x209e <filePickModal+0x41e>
     a1d: b2 a5        	lda	($a5)                   ; 0x20a5 <filePickModal+0x425>
     a1f: 85 12        	sta	$12                     ; 0x2012 <filePickModal+0x392>
     a21: b1 a5        	lda	($a5),y                 ; 0x20a5 <filePickModal+0x425>
     a23: a0 ff        	ldy	#$ff
     a25: c6 12        	dec	$12                     ; 0x2012 <filePickModal+0x392>
     a27: c4 12        	cpy	$12                     ; 0x2012 <filePickModal+0x392>
     a29: d0 01        	bne	$a2c <sortFileList+0x2df>
     a2b: 3a           	dec
     a2c: 85 13        	sta	$13                     ; 0x2013 <filePickModal+0x393>
     a2e: e4 12        	cpx	$12                     ; 0x2012 <filePickModal+0x392>
     a30: a5 9e        	lda	$9e                     ; 0x209e <filePickModal+0x41e>
     a32: e5 13        	sbc	$13                     ; 0x2013 <filePickModal+0x393>
     a34: 50 02        	bvc	$a38 <sortFileList+0x2eb>
     a36: 49 80        	eor	#$80
     a38: 86 14        	stx	$14                     ; 0x2014 <filePickModal+0x394>
     a3a: a6 9e        	ldx	$9e                     ; 0x209e <filePickModal+0x41e>
     a3c: 86 15        	stx	$15                     ; 0x2015 <filePickModal+0x395>
     a3e: a0 01        	ldy	#$1
     a40: aa           	tax
     a41: 10 2f        	bpl	$a72 <sortFileList+0x325>
     a43: b2 a5        	lda	($a5)                   ; 0x20a5 <filePickModal+0x425>
     a45: 85 12        	sta	$12                     ; 0x2012 <filePickModal+0x392>
     a47: b1 a5        	lda	($a5),y                 ; 0x20a5 <filePickModal+0x425>
     a49: aa           	tax
     a4a: 38           	sec
     a4b: a5 12        	lda	$12                     ; 0x2012 <filePickModal+0x392>
     a4d: e5 14        	sbc	$14                     ; 0x2014 <filePickModal+0x394>
     a4f: 85 12        	sta	$12                     ; 0x2012 <filePickModal+0x392>
     a51: 8a           	txa
     a52: e5 15        	sbc	$15                     ; 0x2015 <filePickModal+0x395>
     a54: a6 12        	ldx	$12                     ; 0x2012 <filePickModal+0x392>
     a56: e0 02        	cpx	#$2
     a58: e9 00        	sbc	#$0
     a5a: 50 02        	bvc	$a5e <sortFileList+0x311>
     a5c: 49 80        	eor	#$80
     a5e: aa           	tax
     a5f: 30 b1        	bmi	$a12 <sortFileList+0x2c5>
     a61: a2 01        	ldx	#$1
     a63: 64 a0        	stz	$a0                     ; 0x20a0 <filePickModal+0x420>
     a65: 86 9f        	stx	$9f                     ; 0x209f <filePickModal+0x41f>
     a67: a6 14        	ldx	$14                     ; 0x2014 <filePickModal+0x394>
     a69: 86 db        	stx	$db                     ; 0x20db <filePickModal+0x45b>
     a6b: a6 15        	ldx	$15                     ; 0x2015 <filePickModal+0x395>
     a6d: 86 dc        	stx	$dc                     ; 0x20dc <filePickModal+0x45c>
     a6f: 4c fb 08     	jmp	$8fb <sortFileList+0x1ae>
     a72: 60           	rts

00000a73 <pickFile>:
     a73: 18           	clc
     a74: a5 10        	lda	$10                     ; 0x2010 <filePickModal+0x390>
     a76: 69 f6        	adc	#$f6
     a78: 85 10        	sta	$10                     ; 0x2010 <filePickModal+0x390>
     a7a: a5 11        	lda	$11                     ; 0x2011 <filePickModal+0x391>
     a7c: 69 ff        	adc	#$ff
     a7e: 85 11        	sta	$11                     ; 0x2011 <filePickModal+0x391>
     a80: a6 24        	ldx	$24                     ; 0x2024 <filePickModal+0x3a4>
     a82: da           	phx
     a83: a6 25        	ldx	$25                     ; 0x2025 <filePickModal+0x3a5>
     a85: da           	phx
     a86: a6 26        	ldx	$26                     ; 0x2026 <filePickModal+0x3a6>
     a88: da           	phx
     a89: a6 27        	ldx	$27                     ; 0x2027 <filePickModal+0x3a7>
     a8b: da           	phx
     a8c: a5 28        	lda	$28                     ; 0x2028 <filePickModal+0x3a8>
     a8e: a0 03        	ldy	#$3
     a90: 91 10        	sta	($10),y                 ; 0x2010 <filePickModal+0x390>
     a92: a5 29        	lda	$29                     ; 0x2029 <filePickModal+0x3a9>
     a94: 88           	dey
     a95: 91 10        	sta	($10),y                 ; 0x2010 <filePickModal+0x390>
     a97: a2 08        	ldx	#$8
     a99: 86 26        	stx	$26                     ; 0x2026 <filePickModal+0x3a6>
     a9b: a2 00        	ldx	#$0
     a9d: 86 27        	stx	$27                     ; 0x2027 <filePickModal+0x3a7>
     a9f: a5 12        	lda	$12                     ; 0x2012 <filePickModal+0x392>
     aa1: a6 13        	ldx	$13                     ; 0x2013 <filePickModal+0x393>
     aa3: 18           	clc
     aa4: 48           	pha
     aa5: a5 10        	lda	$10                     ; 0x2010 <filePickModal+0x390>
     aa7: 69 07        	adc	#$7
     aa9: 85 12        	sta	$12                     ; 0x2012 <filePickModal+0x392>
     aab: a5 11        	lda	$11                     ; 0x2011 <filePickModal+0x391>
     aad: 69 00        	adc	#$0
     aaf: 85 13        	sta	$13                     ; 0x2013 <filePickModal+0x393>
     ab1: 68           	pla
     ab2: 92 12        	sta	($12)                   ; 0x2012 <filePickModal+0x392>
     ab4: 88           	dey
     ab5: 8a           	txa
     ab6: 91 12        	sta	($12),y                 ; 0x2012 <filePickModal+0x392>
     ab8: 64 6c        	stz	$6c                     ; 0x206c <filePickModal+0x3ec>
     aba: 18           	clc
     abb: a5 10        	lda	$10                     ; 0x2010 <filePickModal+0x390>
     abd: 69 05        	adc	#$5
     abf: 85 12        	sta	$12                     ; 0x2012 <filePickModal+0x392>
     ac1: a5 11        	lda	$11                     ; 0x2011 <filePickModal+0x391>
     ac3: 69 00        	adc	#$0
     ac5: 85 13        	sta	$13                     ; 0x2013 <filePickModal+0x393>
     ac7: a2 73        	ldx	#$73
     ac9: 86 14        	stx	$14                     ; 0x2014 <filePickModal+0x394>
     acb: a2 00        	ldx	#$0
     acd: 86 15        	stx	$15                     ; 0x2015 <filePickModal+0x395>
     acf: 20 00 ff     	jsr	$ff00 <__heap_start+0x97d8>
     ad2: 92 12        	sta	($12)                   ; 0x2012 <filePickModal+0x392>
     ad4: a9 00        	lda	#$0
     ad6: 6a           	ror
     ad7: 85 14        	sta	$14                     ; 0x2014 <filePickModal+0x394>
     ad9: b2 12        	lda	($12)                   ; 0x2012 <filePickModal+0x392>
     adb: 18           	clc
     adc: 48           	pha
     add: a5 10        	lda	$10                     ; 0x2010 <filePickModal+0x390>
     adf: 69 04        	adc	#$4
     ae1: 85 12        	sta	$12                     ; 0x2012 <filePickModal+0x392>
     ae3: a5 11        	lda	$11                     ; 0x2011 <filePickModal+0x391>
     ae5: 69 00        	adc	#$0
     ae7: 85 13        	sta	$13                     ; 0x2013 <filePickModal+0x393>
     ae9: 68           	pla
     aea: 92 12        	sta	($12)                   ; 0x2012 <filePickModal+0x392>
     aec: b2 12        	lda	($12)                   ; 0x2012 <filePickModal+0x392>
     aee: 18           	clc
     aef: 48           	pha
     af0: a5 10        	lda	$10                     ; 0x2010 <filePickModal+0x390>
     af2: 69 06        	adc	#$6
     af4: 85 12        	sta	$12                     ; 0x2012 <filePickModal+0x392>
     af6: a5 11        	lda	$11                     ; 0x2011 <filePickModal+0x391>
     af8: 69 00        	adc	#$0
     afa: 85 13        	sta	$13                     ; 0x2013 <filePickModal+0x393>
     afc: 68           	pla
     afd: 92 12        	sta	($12)                   ; 0x2012 <filePickModal+0x392>
     aff: a6 6c        	ldx	$6c                     ; 0x206c <filePickModal+0x3ec>
     b01: a0 00        	ldy	#$0
     b03: c4 27        	cpy	$27                     ; 0x2027 <filePickModal+0x3a7>
     b05: f0 02        	beq	$b09 <pickFile+0x96>
     b07: 80 0d        	bra	$b16 <pickFile+0xa3>
     b09: e4 26        	cpx	$26                     ; 0x2026 <filePickModal+0x3a6>
     b0b: f0 02        	beq	$b0f <pickFile+0x9c>
     b0d: 80 02        	bra	$b11 <pickFile+0x9e>
     b0f: 80 03        	bra	$b14 <pickFile+0xa1>
     b11: 4c 86 16     	jmp	$1686 <pickFile+0xc13>
     b14: 80 03        	bra	$b19 <pickFile+0xa6>
     b16: 4c 86 16     	jmp	$1686 <pickFile+0xc13>
     b19: 80 00        	bra	$b1b <pickFile+0xa8>
     b1b: a5 70        	lda	$70                     ; 0x2070 <filePickModal+0x3f0>
     b1d: 18           	clc
     b1e: 69 6e        	adc	#$6e
     b20: aa           	tax
     b21: a9 00        	lda	#$0
     b23: 69 ff        	adc	#$ff
     b25: c9 00        	cmp	#$0
     b27: a0 01        	ldy	#$1
     b29: b0 02        	bcs	$b2d <pickFile+0xba>
     b2b: a0 00        	ldy	#$0
     b2d: 84 12        	sty	$12                     ; 0x2012 <filePickModal+0x392>
     b2f: a8           	tay
     b30: f0 02        	beq	$b34 <pickFile+0xc1>
     b32: 80 08        	bra	$b3c <pickFile+0xc9>
     b34: 8a           	txa
     b35: c9 28        	cmp	#$28
     b37: 90 0b        	bcc	$b44 <pickFile+0xd1>
     b39: 4c 86 16     	jmp	$1686 <pickFile+0xc13>
     b3c: 8a           	txa
     b3d: a6 12        	ldx	$12                     ; 0x2012 <filePickModal+0x392>
     b3f: f0 03        	beq	$b44 <pickFile+0xd1>
     b41: 4c 86 16     	jmp	$1686 <pickFile+0xc13>
     b44: 0a           	asl
     b45: aa           	tax
     b46: 7c 10 50     	jmp	($5010,x)               ; 0x5010 <__BLOCK_SIZE+0x3010>
     b49: 18           	clc
     b4a: a5 10        	lda	$10                     ; 0x2010 <filePickModal+0x390>
     b4c: 69 09        	adc	#$9
     b4e: 85 12        	sta	$12                     ; 0x2012 <filePickModal+0x392>
     b50: a5 11        	lda	$11                     ; 0x2011 <filePickModal+0x391>
     b52: 69 00        	adc	#$0
     b54: 85 13        	sta	$13                     ; 0x2013 <filePickModal+0x393>
     b56: a9 03        	lda	#$3
     b58: 92 12        	sta	($12)                   ; 0x2012 <filePickModal+0x392>
     b5a: 4c 89 16     	jmp	$1689 <pickFile+0xc16>
     b5d: 18           	clc
     b5e: a5 10        	lda	$10                     ; 0x2010 <filePickModal+0x390>
     b60: 69 07        	adc	#$7
     b62: 85 26        	sta	$26                     ; 0x2026 <filePickModal+0x3a6>
     b64: a5 11        	lda	$11                     ; 0x2011 <filePickModal+0x391>
     b66: 69 00        	adc	#$0
     b68: 85 27        	sta	$27                     ; 0x2027 <filePickModal+0x3a7>
     b6a: b2 26        	lda	($26)                   ; 0x2026 <filePickModal+0x3a6>
     b6c: 85 12        	sta	$12                     ; 0x2012 <filePickModal+0x392>
     b6e: a0 01        	ldy	#$1
     b70: b1 26        	lda	($26),y                 ; 0x2026 <filePickModal+0x3a6>
     b72: aa           	tax
     b73: 64 13        	stz	$13                     ; 0x2013 <filePickModal+0x393>
     b75: 18           	clc
     b76: a5 12        	lda	$12                     ; 0x2012 <filePickModal+0x392>
     b78: 69 22        	adc	#$22
     b7a: 85 24        	sta	$24                     ; 0x2024 <filePickModal+0x3a4>
     b7c: 8a           	txa
     b7d: 69 00        	adc	#$0
     b7f: 85 25        	sta	$25                     ; 0x2025 <filePickModal+0x3a5>
     b81: b2 26        	lda	($26)                   ; 0x2026 <filePickModal+0x3a6>
     b83: 85 28        	sta	$28                     ; 0x2028 <filePickModal+0x3a8>
     b85: b2 26        	lda	($26)                   ; 0x2026 <filePickModal+0x3a6>
     b87: 85 14        	sta	$14                     ; 0x2014 <filePickModal+0x394>
     b89: b1 26        	lda	($26),y                 ; 0x2026 <filePickModal+0x3a6>
     b8b: 85 12        	sta	$12                     ; 0x2012 <filePickModal+0x392>
     b8d: 18           	clc
     b8e: a5 14        	lda	$14                     ; 0x2014 <filePickModal+0x394>
     b90: 69 e4        	adc	#$e4
     b92: 85 14        	sta	$14                     ; 0x2014 <filePickModal+0x394>
     b94: a5 12        	lda	$12                     ; 0x2012 <filePickModal+0x392>
     b96: 69 11        	adc	#$11
     b98: 85 15        	sta	$15                     ; 0x2015 <filePickModal+0x395>
     b9a: b1 26        	lda	($26),y                 ; 0x2026 <filePickModal+0x3a6>
     b9c: 85 29        	sta	$29                     ; 0x2029 <filePickModal+0x3a9>
     b9e: b2 14        	lda	($14)                   ; 0x2014 <filePickModal+0x394>
     ba0: 85 16        	sta	$16                     ; 0x2016 <filePickModal+0x396>
     ba2: b1 14        	lda	($14),y                 ; 0x2014 <filePickModal+0x394>
     ba4: a2 2c        	ldx	#$2c
     ba6: 86 12        	stx	$12                     ; 0x2012 <filePickModal+0x392>
     ba8: aa           	tax
     ba9: a5 16        	lda	$16                     ; 0x2016 <filePickModal+0x396>
     bab: 20 ae 4e     	jsr	$4eae <__mulhi3>
     bae: 85 12        	sta	$12                     ; 0x2012 <filePickModal+0x392>
     bb0: 86 13        	stx	$13                     ; 0x2013 <filePickModal+0x393>
     bb2: a5 28        	lda	$28                     ; 0x2028 <filePickModal+0x3a8>
     bb4: 18           	clc
     bb5: 65 12        	adc	$12                     ; 0x2012 <filePickModal+0x392>
     bb7: a8           	tay
     bb8: a5 29        	lda	$29                     ; 0x2029 <filePickModal+0x3a9>
     bba: 65 13        	adc	$13                     ; 0x2013 <filePickModal+0x393>
     bbc: aa           	tax
     bbd: 18           	clc
     bbe: 98           	tya
     bbf: 69 4e        	adc	#$4e
     bc1: 85 14        	sta	$14                     ; 0x2014 <filePickModal+0x394>
     bc3: 8a           	txa
     bc4: 69 00        	adc	#$0
     bc6: 85 15        	sta	$15                     ; 0x2015 <filePickModal+0x395>
     bc8: a6 24        	ldx	$24                     ; 0x2024 <filePickModal+0x3a4>
     bca: 86 12        	stx	$12                     ; 0x2012 <filePickModal+0x392>
     bcc: a6 25        	ldx	$25                     ; 0x2025 <filePickModal+0x3a5>
     bce: 86 13        	stx	$13                     ; 0x2013 <filePickModal+0x393>
     bd0: a9 2c        	lda	#$2c
     bd2: a2 00        	ldx	#$0
     bd4: 20 9a 4c     	jsr	$4c9a <memcpy>
     bd7: b2 26        	lda	($26)                   ; 0x2026 <filePickModal+0x3a6>
     bd9: 85 13        	sta	$13                     ; 0x2013 <filePickModal+0x393>
     bdb: a0 01        	ldy	#$1
     bdd: b1 26        	lda	($26),y                 ; 0x2026 <filePickModal+0x3a6>
     bdf: 85 12        	sta	$12                     ; 0x2012 <filePickModal+0x392>
     be1: 18           	clc
     be2: a5 13        	lda	$13                     ; 0x2013 <filePickModal+0x393>
     be4: 69 e6        	adc	#$e6
     be6: aa           	tax
     be7: a5 12        	lda	$12                     ; 0x2012 <filePickModal+0x392>
     be9: 69 11        	adc	#$11
     beb: 86 12        	stx	$12                     ; 0x2012 <filePickModal+0x392>
     bed: 85 13        	sta	$13                     ; 0x2013 <filePickModal+0x393>
     bef: b2 12        	lda	($12)                   ; 0x2012 <filePickModal+0x392>
     bf1: 85 14        	sta	$14                     ; 0x2014 <filePickModal+0x394>
     bf3: b1 12        	lda	($12),y                 ; 0x2012 <filePickModal+0x392>
     bf5: d0 1c        	bne	$c13 <pickFile+0x1a0>
     bf7: 80 00        	bra	$bf9 <pickFile+0x186>
     bf9: a5 14        	lda	$14                     ; 0x2014 <filePickModal+0x394>
     bfb: d0 16        	bne	$c13 <pickFile+0x1a0>
     bfd: 80 00        	bra	$bff <pickFile+0x18c>
     bff: 18           	clc
     c00: a5 10        	lda	$10                     ; 0x2010 <filePickModal+0x390>
     c02: 69 09        	adc	#$9
     c04: 85 12        	sta	$12                     ; 0x2012 <filePickModal+0x392>
     c06: a5 11        	lda	$11                     ; 0x2011 <filePickModal+0x391>
     c08: 69 00        	adc	#$0
     c0a: 85 13        	sta	$13                     ; 0x2013 <filePickModal+0x393>
     c0c: a9 00        	lda	#$0
     c0e: 92 12        	sta	($12)                   ; 0x2012 <filePickModal+0x392>
     c10: 4c 89 16     	jmp	$1689 <pickFile+0xc16>
     c13: 18           	clc
     c14: a5 10        	lda	$10                     ; 0x2010 <filePickModal+0x390>
     c16: 69 07        	adc	#$7
     c18: 85 12        	sta	$12                     ; 0x2012 <filePickModal+0x392>
     c1a: a5 11        	lda	$11                     ; 0x2011 <filePickModal+0x391>
     c1c: 69 00        	adc	#$0
     c1e: 85 13        	sta	$13                     ; 0x2013 <filePickModal+0x393>
     c20: a0 01        	ldy	#$1
     c22: b2 12        	lda	($12)                   ; 0x2012 <filePickModal+0x392>
     c24: 85 15        	sta	$15                     ; 0x2015 <filePickModal+0x395>
     c26: b1 12        	lda	($12),y                 ; 0x2012 <filePickModal+0x392>
     c28: 85 14        	sta	$14                     ; 0x2014 <filePickModal+0x394>
     c2a: 18           	clc
     c2b: a5 15        	lda	$15                     ; 0x2015 <filePickModal+0x395>
     c2d: 69 e4        	adc	#$e4
     c2f: aa           	tax
     c30: a5 14        	lda	$14                     ; 0x2014 <filePickModal+0x394>
     c32: 69 11        	adc	#$11
     c34: 86 14        	stx	$14                     ; 0x2014 <filePickModal+0x394>
     c36: 85 15        	sta	$15                     ; 0x2015 <filePickModal+0x395>
     c38: b2 14        	lda	($14)                   ; 0x2014 <filePickModal+0x394>
     c3a: 85 16        	sta	$16                     ; 0x2016 <filePickModal+0x396>
     c3c: b1 14        	lda	($14),y                 ; 0x2014 <filePickModal+0x394>
     c3e: 85 14        	sta	$14                     ; 0x2014 <filePickModal+0x394>
     c40: 18           	clc
     c41: a5 16        	lda	$16                     ; 0x2016 <filePickModal+0x396>
     c43: 72 12        	adc	($12)                   ; 0x2012 <filePickModal+0x392>
     c45: 85 15        	sta	$15                     ; 0x2015 <filePickModal+0x395>
     c47: a5 14        	lda	$14                     ; 0x2014 <filePickModal+0x394>
     c49: 71 12        	adc	($12),y                 ; 0x2012 <filePickModal+0x392>
     c4b: 85 12        	sta	$12                     ; 0x2012 <filePickModal+0x392>
     c4d: 18           	clc
     c4e: a5 15        	lda	$15                     ; 0x2015 <filePickModal+0x395>
     c50: 69 7e        	adc	#$7e
     c52: aa           	tax
     c53: a5 12        	lda	$12                     ; 0x2012 <filePickModal+0x392>
     c55: 69 11        	adc	#$11
     c57: 85 13        	sta	$13                     ; 0x2013 <filePickModal+0x393>
     c59: 86 12        	stx	$12                     ; 0x2012 <filePickModal+0x392>
     c5b: b2 12        	lda	($12)                   ; 0x2012 <filePickModal+0x392>
     c5d: 29 01        	and	#$1
     c5f: f0 16        	beq	$c77 <pickFile+0x204>
     c61: 80 00        	bra	$c63 <pickFile+0x1f0>
     c63: 18           	clc
     c64: a5 10        	lda	$10                     ; 0x2010 <filePickModal+0x390>
     c66: 69 09        	adc	#$9
     c68: 85 12        	sta	$12                     ; 0x2012 <filePickModal+0x392>
     c6a: a5 11        	lda	$11                     ; 0x2011 <filePickModal+0x391>
     c6c: 69 00        	adc	#$0
     c6e: 85 13        	sta	$13                     ; 0x2013 <filePickModal+0x393>
     c70: a9 01        	lda	#$1
     c72: 92 12        	sta	($12)                   ; 0x2012 <filePickModal+0x392>
     c74: 4c 89 16     	jmp	$1689 <pickFile+0xc16>
     c77: 18           	clc
     c78: a5 10        	lda	$10                     ; 0x2010 <filePickModal+0x390>
     c7a: 69 09        	adc	#$9
     c7c: 85 12        	sta	$12                     ; 0x2012 <filePickModal+0x392>
     c7e: a5 11        	lda	$11                     ; 0x2011 <filePickModal+0x391>
     c80: 69 00        	adc	#$0
     c82: 85 13        	sta	$13                     ; 0x2013 <filePickModal+0x393>
     c84: a9 02        	lda	#$2
     c86: 92 12        	sta	($12)                   ; 0x2012 <filePickModal+0x392>
     c88: 4c 89 16     	jmp	$1689 <pickFile+0xc16>
     c8b: 18           	clc
     c8c: a5 10        	lda	$10                     ; 0x2010 <filePickModal+0x390>
     c8e: 69 07        	adc	#$7
     c90: 85 12        	sta	$12                     ; 0x2012 <filePickModal+0x392>
     c92: a5 11        	lda	$11                     ; 0x2011 <filePickModal+0x391>
     c94: 69 00        	adc	#$0
     c96: 85 13        	sta	$13                     ; 0x2013 <filePickModal+0x393>
     c98: b2 12        	lda	($12)                   ; 0x2012 <filePickModal+0x392>
     c9a: 85 14        	sta	$14                     ; 0x2014 <filePickModal+0x394>
     c9c: a0 01        	ldy	#$1
     c9e: b1 12        	lda	($12),y                 ; 0x2012 <filePickModal+0x392>
     ca0: aa           	tax
     ca1: 18           	clc
     ca2: a5 14        	lda	$14                     ; 0x2014 <filePickModal+0x394>
     ca4: 69 e4        	adc	#$e4
     ca6: 85 12        	sta	$12                     ; 0x2012 <filePickModal+0x392>
     ca8: 8a           	txa
     ca9: 69 11        	adc	#$11
     cab: 85 13        	sta	$13                     ; 0x2013 <filePickModal+0x393>
     cad: b2 12        	lda	($12)                   ; 0x2012 <filePickModal+0x392>
     caf: 85 14        	sta	$14                     ; 0x2014 <filePickModal+0x394>
     cb1: b1 12        	lda	($12),y                 ; 0x2012 <filePickModal+0x392>
     cb3: a6 14        	ldx	$14                     ; 0x2014 <filePickModal+0x394>
     cb5: e0 01        	cpx	#$1
     cb7: e9 00        	sbc	#$0
     cb9: 70 02        	bvs	$cbd <pickFile+0x24a>
     cbb: 80 04        	bra	$cc1 <pickFile+0x24e>
     cbd: 49 80        	eor	#$80
     cbf: 80 02        	bra	$cc3 <pickFile+0x250>
     cc1: 80 00        	bra	$cc3 <pickFile+0x250>
     cc3: aa           	tax
     cc4: 10 03        	bpl	$cc9 <pickFile+0x256>
     cc6: 4c 7b 0f     	jmp	$f7b <pickFile+0x508>
     cc9: 18           	clc
     cca: a5 10        	lda	$10                     ; 0x2010 <filePickModal+0x390>
     ccc: 69 07        	adc	#$7
     cce: 85 12        	sta	$12                     ; 0x2012 <filePickModal+0x392>
     cd0: a5 11        	lda	$11                     ; 0x2011 <filePickModal+0x391>
     cd2: 69 00        	adc	#$0
     cd4: 85 13        	sta	$13                     ; 0x2013 <filePickModal+0x393>
     cd6: b2 12        	lda	($12)                   ; 0x2012 <filePickModal+0x392>
     cd8: 85 14        	sta	$14                     ; 0x2014 <filePickModal+0x394>
     cda: a0 01        	ldy	#$1
     cdc: b1 12        	lda	($12),y                 ; 0x2012 <filePickModal+0x392>
     cde: aa           	tax
     cdf: 18           	clc
     ce0: a5 14        	lda	$14                     ; 0x2014 <filePickModal+0x394>
     ce2: 69 e6        	adc	#$e6
     ce4: 85 12        	sta	$12                     ; 0x2012 <filePickModal+0x392>
     ce6: 8a           	txa
     ce7: 69 11        	adc	#$11
     ce9: 85 13        	sta	$13                     ; 0x2013 <filePickModal+0x393>
     ceb: b2 12        	lda	($12)                   ; 0x2012 <filePickModal+0x392>
     ced: 85 14        	sta	$14                     ; 0x2014 <filePickModal+0x394>
     cef: b1 12        	lda	($12),y                 ; 0x2012 <filePickModal+0x392>
     cf1: a6 14        	ldx	$14                     ; 0x2014 <filePickModal+0x394>
     cf3: e0 01        	cpx	#$1
     cf5: e9 00        	sbc	#$0
     cf7: 70 02        	bvs	$cfb <pickFile+0x288>
     cf9: 80 04        	bra	$cff <pickFile+0x28c>
     cfb: 49 80        	eor	#$80
     cfd: 80 02        	bra	$d01 <pickFile+0x28e>
     cff: 80 00        	bra	$d01 <pickFile+0x28e>
     d01: aa           	tax
     d02: 10 03        	bpl	$d07 <pickFile+0x294>
     d04: 4c 1b 0e     	jmp	$e1b <pickFile+0x3a8>
     d07: 18           	clc
     d08: a5 10        	lda	$10                     ; 0x2010 <filePickModal+0x390>
     d0a: 69 07        	adc	#$7
     d0c: 85 24        	sta	$24                     ; 0x2024 <filePickModal+0x3a4>
     d0e: a5 11        	lda	$11                     ; 0x2011 <filePickModal+0x391>
     d10: 69 00        	adc	#$0
     d12: 85 25        	sta	$25                     ; 0x2025 <filePickModal+0x3a5>
     d14: b2 24        	lda	($24)                   ; 0x2024 <filePickModal+0x3a4>
     d16: 85 12        	sta	$12                     ; 0x2012 <filePickModal+0x392>
     d18: a0 01        	ldy	#$1
     d1a: b1 24        	lda	($24),y                 ; 0x2024 <filePickModal+0x3a4>
     d1c: 85 13        	sta	$13                     ; 0x2013 <filePickModal+0x393>
     d1e: b2 12        	lda	($12)                   ; 0x2012 <filePickModal+0x392>
     d20: 85 14        	sta	$14                     ; 0x2014 <filePickModal+0x394>
     d22: b2 24        	lda	($24)                   ; 0x2024 <filePickModal+0x3a4>
     d24: 85 12        	sta	$12                     ; 0x2012 <filePickModal+0x392>
     d26: b1 24        	lda	($24),y                 ; 0x2024 <filePickModal+0x3a4>
     d28: 85 13        	sta	$13                     ; 0x2013 <filePickModal+0x393>
     d2a: b2 24        	lda	($24)                   ; 0x2024 <filePickModal+0x3a4>
     d2c: 85 16        	sta	$16                     ; 0x2016 <filePickModal+0x396>
     d2e: b1 24        	lda	($24),y                 ; 0x2024 <filePickModal+0x3a4>
     d30: 85 15        	sta	$15                     ; 0x2015 <filePickModal+0x395>
     d32: 18           	clc
     d33: a5 16        	lda	$16                     ; 0x2016 <filePickModal+0x396>
     d35: 69 e6        	adc	#$e6
     d37: aa           	tax
     d38: a5 15        	lda	$15                     ; 0x2015 <filePickModal+0x395>
     d3a: 69 11        	adc	#$11
     d3c: 85 15        	sta	$15                     ; 0x2015 <filePickModal+0x395>
     d3e: b1 12        	lda	($12),y                 ; 0x2012 <filePickModal+0x392>
     d40: 86 12        	stx	$12                     ; 0x2012 <filePickModal+0x392>
     d42: a6 15        	ldx	$15                     ; 0x2015 <filePickModal+0x395>
     d44: 86 13        	stx	$13                     ; 0x2013 <filePickModal+0x393>
     d46: 18           	clc
     d47: 72 12        	adc	($12)                   ; 0x2012 <filePickModal+0x392>
     d49: aa           	tax
     d4a: a5 14        	lda	$14                     ; 0x2014 <filePickModal+0x394>
     d4c: 20 eb 31     	jsr	$31eb <textGotoXY>
     d4f: a9 20        	lda	#$20
     d51: 92 10        	sta	($10)                   ; 0x2010 <filePickModal+0x390>
     d53: a9 00        	lda	#$0
     d55: a0 01        	ldy	#$1
     d57: 91 10        	sta	($10),y                 ; 0x2010 <filePickModal+0x390>
     d59: a2 b3        	ldx	#$b3
     d5b: 86 12        	stx	$12                     ; 0x2012 <filePickModal+0x392>
     d5d: a2 52        	ldx	#$52
     d5f: 86 13        	stx	$13                     ; 0x2013 <filePickModal+0x393>
     d61: 20 e1 45     	jsr	$45e1 <printf>
     d64: b2 24        	lda	($24)                   ; 0x2024 <filePickModal+0x3a4>
     d66: 85 13        	sta	$13                     ; 0x2013 <filePickModal+0x393>
     d68: a0 01        	ldy	#$1
     d6a: b1 24        	lda	($24),y                 ; 0x2024 <filePickModal+0x3a4>
     d6c: 85 12        	sta	$12                     ; 0x2012 <filePickModal+0x392>
     d6e: 18           	clc
     d6f: a5 13        	lda	$13                     ; 0x2013 <filePickModal+0x393>
     d71: 69 e4        	adc	#$e4
     d73: aa           	tax
     d74: a5 12        	lda	$12                     ; 0x2012 <filePickModal+0x392>
     d76: 69 11        	adc	#$11
     d78: 86 12        	stx	$12                     ; 0x2012 <filePickModal+0x392>
     d7a: 85 13        	sta	$13                     ; 0x2013 <filePickModal+0x393>
     d7c: b2 12        	lda	($12)                   ; 0x2012 <filePickModal+0x392>
     d7e: aa           	tax
     d7f: b1 12        	lda	($12),y                 ; 0x2012 <filePickModal+0x392>
     d81: 85 14        	sta	$14                     ; 0x2014 <filePickModal+0x394>
     d83: 8a           	txa
     d84: 3a           	dec
     d85: c9 ff        	cmp	#$ff
     d87: f0 03        	beq	$d8c <pickFile+0x319>
     d89: 4c 91 0d     	jmp	$d91 <pickFile+0x31e>
     d8c: c6 14        	dec	$14                     ; 0x2014 <filePickModal+0x394>
     d8e: 4c 91 0d     	jmp	$d91 <pickFile+0x31e>
     d91: 92 12        	sta	($12)                   ; 0x2012 <filePickModal+0x392>
     d93: a5 14        	lda	$14                     ; 0x2014 <filePickModal+0x394>
     d95: 91 12        	sta	($12),y                 ; 0x2012 <filePickModal+0x392>
     d97: b2 24        	lda	($24)                   ; 0x2024 <filePickModal+0x3a4>
     d99: 85 13        	sta	$13                     ; 0x2013 <filePickModal+0x393>
     d9b: b1 24        	lda	($24),y                 ; 0x2024 <filePickModal+0x3a4>
     d9d: 85 12        	sta	$12                     ; 0x2012 <filePickModal+0x392>
     d9f: 18           	clc
     da0: a5 13        	lda	$13                     ; 0x2013 <filePickModal+0x393>
     da2: 69 e6        	adc	#$e6
     da4: aa           	tax
     da5: a5 12        	lda	$12                     ; 0x2012 <filePickModal+0x392>
     da7: 69 11        	adc	#$11
     da9: 86 12        	stx	$12                     ; 0x2012 <filePickModal+0x392>
     dab: 85 13        	sta	$13                     ; 0x2013 <filePickModal+0x393>
     dad: b2 12        	lda	($12)                   ; 0x2012 <filePickModal+0x392>
     daf: aa           	tax
     db0: b1 12        	lda	($12),y                 ; 0x2012 <filePickModal+0x392>
     db2: 85 14        	sta	$14                     ; 0x2014 <filePickModal+0x394>
     db4: 8a           	txa
     db5: 3a           	dec
     db6: c9 ff        	cmp	#$ff
     db8: f0 03        	beq	$dbd <pickFile+0x34a>
     dba: 4c c2 0d     	jmp	$dc2 <pickFile+0x34f>
     dbd: c6 14        	dec	$14                     ; 0x2014 <filePickModal+0x394>
     dbf: 4c c2 0d     	jmp	$dc2 <pickFile+0x34f>
     dc2: 92 12        	sta	($12)                   ; 0x2012 <filePickModal+0x392>
     dc4: a5 14        	lda	$14                     ; 0x2014 <filePickModal+0x394>
     dc6: 91 12        	sta	($12),y                 ; 0x2012 <filePickModal+0x392>
     dc8: b2 24        	lda	($24)                   ; 0x2024 <filePickModal+0x3a4>
     dca: 85 12        	sta	$12                     ; 0x2012 <filePickModal+0x392>
     dcc: b1 24        	lda	($24),y                 ; 0x2024 <filePickModal+0x3a4>
     dce: 85 13        	sta	$13                     ; 0x2013 <filePickModal+0x393>
     dd0: b2 24        	lda	($24)                   ; 0x2024 <filePickModal+0x3a4>
     dd2: 85 14        	sta	$14                     ; 0x2014 <filePickModal+0x394>
     dd4: b1 24        	lda	($24),y                 ; 0x2024 <filePickModal+0x3a4>
     dd6: 85 15        	sta	$15                     ; 0x2015 <filePickModal+0x395>
     dd8: b2 24        	lda	($24)                   ; 0x2024 <filePickModal+0x3a4>
     dda: 85 16        	sta	$16                     ; 0x2016 <filePickModal+0x396>
     ddc: b1 24        	lda	($24),y                 ; 0x2024 <filePickModal+0x3a4>
     dde: 85 18        	sta	$18                     ; 0x2018 <filePickModal+0x398>
     de0: a0 01        	ldy	#$1
     de2: 18           	clc
     de3: a5 16        	lda	$16                     ; 0x2016 <filePickModal+0x396>
     de5: 69 e6        	adc	#$e6
     de7: 85 17        	sta	$17                     ; 0x2017 <filePickModal+0x397>
     de9: a5 18        	lda	$18                     ; 0x2018 <filePickModal+0x398>
     deb: 69 11        	adc	#$11
     ded: aa           	tax
     dee: b2 12        	lda	($12)                   ; 0x2012 <filePickModal+0x392>
     df0: 85 16        	sta	$16                     ; 0x2016 <filePickModal+0x396>
     df2: a5 17        	lda	$17                     ; 0x2017 <filePickModal+0x397>
     df4: 85 12        	sta	$12                     ; 0x2012 <filePickModal+0x392>
     df6: b1 14        	lda	($14),y                 ; 0x2014 <filePickModal+0x394>
     df8: 86 13        	stx	$13                     ; 0x2013 <filePickModal+0x393>
     dfa: 18           	clc
     dfb: 72 12        	adc	($12)                   ; 0x2012 <filePickModal+0x392>
     dfd: aa           	tax
     dfe: a5 16        	lda	$16                     ; 0x2016 <filePickModal+0x396>
     e00: 20 eb 31     	jsr	$31eb <textGotoXY>
     e03: a9 fa        	lda	#$fa
     e05: 92 10        	sta	($10)                   ; 0x2010 <filePickModal+0x390>
     e07: a9 00        	lda	#$0
     e09: a0 01        	ldy	#$1
     e0b: 91 10        	sta	($10),y                 ; 0x2010 <filePickModal+0x390>
     e0d: a2 b3        	ldx	#$b3
     e0f: 86 12        	stx	$12                     ; 0x2012 <filePickModal+0x392>
     e11: a2 52        	ldx	#$52
     e13: 86 13        	stx	$13                     ; 0x2013 <filePickModal+0x393>
     e15: 20 e1 45     	jsr	$45e1 <printf>
     e18: 4c 7b 0f     	jmp	$f7b <pickFile+0x508>
     e1b: 18           	clc
     e1c: a5 10        	lda	$10                     ; 0x2010 <filePickModal+0x390>
     e1e: 69 07        	adc	#$7
     e20: 85 12        	sta	$12                     ; 0x2012 <filePickModal+0x392>
     e22: a5 11        	lda	$11                     ; 0x2011 <filePickModal+0x391>
     e24: 69 00        	adc	#$0
     e26: 85 13        	sta	$13                     ; 0x2013 <filePickModal+0x393>
     e28: b2 12        	lda	($12)                   ; 0x2012 <filePickModal+0x392>
     e2a: 85 14        	sta	$14                     ; 0x2014 <filePickModal+0x394>
     e2c: a0 01        	ldy	#$1
     e2e: b1 12        	lda	($12),y                 ; 0x2012 <filePickModal+0x392>
     e30: aa           	tax
     e31: 18           	clc
     e32: a5 14        	lda	$14                     ; 0x2014 <filePickModal+0x394>
     e34: 69 e6        	adc	#$e6
     e36: 85 12        	sta	$12                     ; 0x2012 <filePickModal+0x392>
     e38: 8a           	txa
     e39: 69 11        	adc	#$11
     e3b: 85 13        	sta	$13                     ; 0x2013 <filePickModal+0x393>
     e3d: b2 12        	lda	($12)                   ; 0x2012 <filePickModal+0x392>
     e3f: 85 14        	sta	$14                     ; 0x2014 <filePickModal+0x394>
     e41: b1 12        	lda	($12),y                 ; 0x2012 <filePickModal+0x392>
     e43: f0 03        	beq	$e48 <pickFile+0x3d5>
     e45: 4c 7b 0f     	jmp	$f7b <pickFile+0x508>
     e48: a5 14        	lda	$14                     ; 0x2014 <filePickModal+0x394>
     e4a: f0 03        	beq	$e4f <pickFile+0x3dc>
     e4c: 4c 7b 0f     	jmp	$f7b <pickFile+0x508>
     e4f: 18           	clc
     e50: a5 10        	lda	$10                     ; 0x2010 <filePickModal+0x390>
     e52: 69 07        	adc	#$7
     e54: 85 24        	sta	$24                     ; 0x2024 <filePickModal+0x3a4>
     e56: a5 11        	lda	$11                     ; 0x2011 <filePickModal+0x391>
     e58: 69 00        	adc	#$0
     e5a: 85 25        	sta	$25                     ; 0x2025 <filePickModal+0x3a5>
     e5c: b2 24        	lda	($24)                   ; 0x2024 <filePickModal+0x3a4>
     e5e: 85 12        	sta	$12                     ; 0x2012 <filePickModal+0x392>
     e60: a0 01        	ldy	#$1
     e62: b1 24        	lda	($24),y                 ; 0x2024 <filePickModal+0x3a4>
     e64: 85 13        	sta	$13                     ; 0x2013 <filePickModal+0x393>
     e66: b2 12        	lda	($12)                   ; 0x2012 <filePickModal+0x392>
     e68: 85 14        	sta	$14                     ; 0x2014 <filePickModal+0x394>
     e6a: b2 24        	lda	($24)                   ; 0x2024 <filePickModal+0x3a4>
     e6c: 85 12        	sta	$12                     ; 0x2012 <filePickModal+0x392>
     e6e: b1 24        	lda	($24),y                 ; 0x2024 <filePickModal+0x3a4>
     e70: 85 13        	sta	$13                     ; 0x2013 <filePickModal+0x393>
     e72: b2 24        	lda	($24)                   ; 0x2024 <filePickModal+0x3a4>
     e74: 85 16        	sta	$16                     ; 0x2016 <filePickModal+0x396>
     e76: b1 24        	lda	($24),y                 ; 0x2024 <filePickModal+0x3a4>
     e78: 85 15        	sta	$15                     ; 0x2015 <filePickModal+0x395>
     e7a: 18           	clc
     e7b: a5 16        	lda	$16                     ; 0x2016 <filePickModal+0x396>
     e7d: 69 e6        	adc	#$e6
     e7f: aa           	tax
     e80: a5 15        	lda	$15                     ; 0x2015 <filePickModal+0x395>
     e82: 69 11        	adc	#$11
     e84: 85 15        	sta	$15                     ; 0x2015 <filePickModal+0x395>
     e86: b1 12        	lda	($12),y                 ; 0x2012 <filePickModal+0x392>
     e88: 86 12        	stx	$12                     ; 0x2012 <filePickModal+0x392>
     e8a: a6 15        	ldx	$15                     ; 0x2015 <filePickModal+0x395>
     e8c: 86 13        	stx	$13                     ; 0x2013 <filePickModal+0x393>
     e8e: 18           	clc
     e8f: 72 12        	adc	($12)                   ; 0x2012 <filePickModal+0x392>
     e91: aa           	tax
     e92: a5 14        	lda	$14                     ; 0x2014 <filePickModal+0x394>
     e94: 20 eb 31     	jsr	$31eb <textGotoXY>
     e97: a9 20        	lda	#$20
     e99: 92 10        	sta	($10)                   ; 0x2010 <filePickModal+0x390>
     e9b: a9 00        	lda	#$0
     e9d: a0 01        	ldy	#$1
     e9f: 91 10        	sta	($10),y                 ; 0x2010 <filePickModal+0x390>
     ea1: a2 b3        	ldx	#$b3
     ea3: 86 12        	stx	$12                     ; 0x2012 <filePickModal+0x392>
     ea5: a2 52        	ldx	#$52
     ea7: 86 13        	stx	$13                     ; 0x2013 <filePickModal+0x393>
     ea9: 20 e1 45     	jsr	$45e1 <printf>
     eac: b2 24        	lda	($24)                   ; 0x2024 <filePickModal+0x3a4>
     eae: 85 13        	sta	$13                     ; 0x2013 <filePickModal+0x393>
     eb0: a0 01        	ldy	#$1
     eb2: b1 24        	lda	($24),y                 ; 0x2024 <filePickModal+0x3a4>
     eb4: 85 12        	sta	$12                     ; 0x2012 <filePickModal+0x392>
     eb6: 18           	clc
     eb7: a5 13        	lda	$13                     ; 0x2013 <filePickModal+0x393>
     eb9: 69 e6        	adc	#$e6
     ebb: aa           	tax
     ebc: a5 12        	lda	$12                     ; 0x2012 <filePickModal+0x392>
     ebe: 69 11        	adc	#$11
     ec0: 86 12        	stx	$12                     ; 0x2012 <filePickModal+0x392>
     ec2: 85 13        	sta	$13                     ; 0x2013 <filePickModal+0x393>
     ec4: a9 0f        	lda	#$f
     ec6: 92 12        	sta	($12)                   ; 0x2012 <filePickModal+0x392>
     ec8: a9 00        	lda	#$0
     eca: 91 12        	sta	($12),y                 ; 0x2012 <filePickModal+0x392>
     ecc: b2 24        	lda	($24)                   ; 0x2024 <filePickModal+0x3a4>
     ece: 85 13        	sta	$13                     ; 0x2013 <filePickModal+0x393>
     ed0: b1 24        	lda	($24),y                 ; 0x2024 <filePickModal+0x3a4>
     ed2: 85 12        	sta	$12                     ; 0x2012 <filePickModal+0x392>
     ed4: 18           	clc
     ed5: a5 13        	lda	$13                     ; 0x2013 <filePickModal+0x393>
     ed7: 69 e8        	adc	#$e8
     ed9: aa           	tax
     eda: a5 12        	lda	$12                     ; 0x2012 <filePickModal+0x392>
     edc: 69 11        	adc	#$11
     ede: 86 12        	stx	$12                     ; 0x2012 <filePickModal+0x392>
     ee0: 85 13        	sta	$13                     ; 0x2013 <filePickModal+0x393>
     ee2: b2 12        	lda	($12)                   ; 0x2012 <filePickModal+0x392>
     ee4: 85 15        	sta	$15                     ; 0x2015 <filePickModal+0x395>
     ee6: b1 12        	lda	($12),y                 ; 0x2012 <filePickModal+0x392>
     ee8: 85 14        	sta	$14                     ; 0x2014 <filePickModal+0x394>
     eea: 18           	clc
     eeb: a5 15        	lda	$15                     ; 0x2015 <filePickModal+0x395>
     eed: 69 f1        	adc	#$f1
     eef: 85 15        	sta	$15                     ; 0x2015 <filePickModal+0x395>
     ef1: a5 14        	lda	$14                     ; 0x2014 <filePickModal+0x394>
     ef3: 69 ff        	adc	#$ff
     ef5: aa           	tax
     ef6: a5 15        	lda	$15                     ; 0x2015 <filePickModal+0x395>
     ef8: 92 12        	sta	($12)                   ; 0x2012 <filePickModal+0x392>
     efa: 8a           	txa
     efb: 91 12        	sta	($12),y                 ; 0x2012 <filePickModal+0x392>
     efd: b2 24        	lda	($24)                   ; 0x2024 <filePickModal+0x3a4>
     eff: 85 12        	sta	$12                     ; 0x2012 <filePickModal+0x392>
     f01: b1 24        	lda	($24),y                 ; 0x2024 <filePickModal+0x3a4>
     f03: 85 13        	sta	$13                     ; 0x2013 <filePickModal+0x393>
     f05: b2 24        	lda	($24)                   ; 0x2024 <filePickModal+0x3a4>
     f07: 85 15        	sta	$15                     ; 0x2015 <filePickModal+0x395>
     f09: b1 24        	lda	($24),y                 ; 0x2024 <filePickModal+0x3a4>
     f0b: 85 14        	sta	$14                     ; 0x2014 <filePickModal+0x394>
     f0d: a0 01        	ldy	#$1
     f0f: 18           	clc
     f10: a5 15        	lda	$15                     ; 0x2015 <filePickModal+0x395>
     f12: 69 e8        	adc	#$e8
     f14: aa           	tax
     f15: a5 14        	lda	$14                     ; 0x2014 <filePickModal+0x394>
     f17: 69 11        	adc	#$11
     f19: 86 14        	stx	$14                     ; 0x2014 <filePickModal+0x394>
     f1b: 85 15        	sta	$15                     ; 0x2015 <filePickModal+0x395>
     f1d: b2 14        	lda	($14)                   ; 0x2014 <filePickModal+0x394>
     f1f: 85 16        	sta	$16                     ; 0x2016 <filePickModal+0x396>
     f21: b1 14        	lda	($14),y                 ; 0x2014 <filePickModal+0x394>
     f23: aa           	tax
     f24: a5 16        	lda	$16                     ; 0x2016 <filePickModal+0x396>
     f26: 20 c1 16     	jsr	$16c1 <displayFileList>
     f29: b2 24        	lda	($24)                   ; 0x2024 <filePickModal+0x3a4>
     f2b: 85 12        	sta	$12                     ; 0x2012 <filePickModal+0x392>
     f2d: a0 01        	ldy	#$1
     f2f: b1 24        	lda	($24),y                 ; 0x2024 <filePickModal+0x3a4>
     f31: 85 13        	sta	$13                     ; 0x2013 <filePickModal+0x393>
     f33: b2 24        	lda	($24)                   ; 0x2024 <filePickModal+0x3a4>
     f35: 85 14        	sta	$14                     ; 0x2014 <filePickModal+0x394>
     f37: b1 24        	lda	($24),y                 ; 0x2024 <filePickModal+0x3a4>
     f39: 85 15        	sta	$15                     ; 0x2015 <filePickModal+0x395>
     f3b: b2 24        	lda	($24)                   ; 0x2024 <filePickModal+0x3a4>
     f3d: 85 16        	sta	$16                     ; 0x2016 <filePickModal+0x396>
     f3f: b1 24        	lda	($24),y                 ; 0x2024 <filePickModal+0x3a4>
     f41: 85 18        	sta	$18                     ; 0x2018 <filePickModal+0x398>
     f43: a0 01        	ldy	#$1
     f45: 18           	clc
     f46: a5 16        	lda	$16                     ; 0x2016 <filePickModal+0x396>
     f48: 69 e6        	adc	#$e6
     f4a: 85 17        	sta	$17                     ; 0x2017 <filePickModal+0x397>
     f4c: a5 18        	lda	$18                     ; 0x2018 <filePickModal+0x398>
     f4e: 69 11        	adc	#$11
     f50: aa           	tax
     f51: b2 12        	lda	($12)                   ; 0x2012 <filePickModal+0x392>
     f53: 85 16        	sta	$16                     ; 0x2016 <filePickModal+0x396>
     f55: a5 17        	lda	$17                     ; 0x2017 <filePickModal+0x397>
     f57: 85 12        	sta	$12                     ; 0x2012 <filePickModal+0x392>
     f59: b1 14        	lda	($14),y                 ; 0x2014 <filePickModal+0x394>
     f5b: 86 13        	stx	$13                     ; 0x2013 <filePickModal+0x393>
     f5d: 18           	clc
     f5e: 72 12        	adc	($12)                   ; 0x2012 <filePickModal+0x392>
     f60: aa           	tax
     f61: a5 16        	lda	$16                     ; 0x2016 <filePickModal+0x396>
     f63: 20 eb 31     	jsr	$31eb <textGotoXY>
     f66: a9 fa        	lda	#$fa
     f68: 92 10        	sta	($10)                   ; 0x2010 <filePickModal+0x390>
     f6a: a9 00        	lda	#$0
     f6c: a0 01        	ldy	#$1
     f6e: 91 10        	sta	($10),y                 ; 0x2010 <filePickModal+0x390>
     f70: a2 b3        	ldx	#$b3
     f72: 86 12        	stx	$12                     ; 0x2012 <filePickModal+0x392>
     f74: a2 52        	ldx	#$52
     f76: 86 13        	stx	$13                     ; 0x2013 <filePickModal+0x393>
     f78: 20 e1 45     	jsr	$45e1 <printf>
     f7b: 4c 86 16     	jmp	$1686 <pickFile+0xc13>
     f7e: 18           	clc
     f7f: a5 10        	lda	$10                     ; 0x2010 <filePickModal+0x390>
     f81: 69 07        	adc	#$7
     f83: 85 12        	sta	$12                     ; 0x2012 <filePickModal+0x392>
     f85: a5 11        	lda	$11                     ; 0x2011 <filePickModal+0x391>
     f87: 69 00        	adc	#$0
     f89: 85 13        	sta	$13                     ; 0x2013 <filePickModal+0x393>
     f8b: b2 12        	lda	($12)                   ; 0x2012 <filePickModal+0x392>
     f8d: 85 14        	sta	$14                     ; 0x2014 <filePickModal+0x394>
     f8f: a0 01        	ldy	#$1
     f91: b1 12        	lda	($12),y                 ; 0x2012 <filePickModal+0x392>
     f93: aa           	tax
     f94: 18           	clc
     f95: a5 14        	lda	$14                     ; 0x2014 <filePickModal+0x394>
     f97: 69 e4        	adc	#$e4
     f99: 85 14        	sta	$14                     ; 0x2014 <filePickModal+0x394>
     f9b: 8a           	txa
     f9c: 69 11        	adc	#$11
     f9e: 85 15        	sta	$15                     ; 0x2015 <filePickModal+0x395>
     fa0: b2 14        	lda	($14)                   ; 0x2014 <filePickModal+0x394>
     fa2: 85 16        	sta	$16                     ; 0x2016 <filePickModal+0x396>
     fa4: b2 12        	lda	($12)                   ; 0x2012 <filePickModal+0x392>
     fa6: 85 17        	sta	$17                     ; 0x2017 <filePickModal+0x397>
     fa8: b1 12        	lda	($12),y                 ; 0x2012 <filePickModal+0x392>
     faa: 85 12        	sta	$12                     ; 0x2012 <filePickModal+0x392>
     fac: 18           	clc
     fad: a5 17        	lda	$17                     ; 0x2017 <filePickModal+0x397>
     faf: 69 e2        	adc	#$e2
     fb1: aa           	tax
     fb2: a5 12        	lda	$12                     ; 0x2012 <filePickModal+0x392>
     fb4: 69 11        	adc	#$11
     fb6: 85 13        	sta	$13                     ; 0x2013 <filePickModal+0x393>
     fb8: b1 14        	lda	($14),y                 ; 0x2014 <filePickModal+0x394>
     fba: 85 14        	sta	$14                     ; 0x2014 <filePickModal+0x394>
     fbc: 86 12        	stx	$12                     ; 0x2012 <filePickModal+0x392>
     fbe: b2 12        	lda	($12)                   ; 0x2012 <filePickModal+0x392>
     fc0: aa           	tax
     fc1: b1 12        	lda	($12),y                 ; 0x2012 <filePickModal+0x392>
     fc3: 85 12        	sta	$12                     ; 0x2012 <filePickModal+0x392>
     fc5: a5 14        	lda	$14                     ; 0x2014 <filePickModal+0x394>
     fc7: 86 13        	stx	$13                     ; 0x2013 <filePickModal+0x393>
     fc9: a2 ff        	ldx	#$ff
     fcb: c6 13        	dec	$13                     ; 0x2013 <filePickModal+0x393>
     fcd: e4 13        	cpx	$13                     ; 0x2013 <filePickModal+0x393>
     fcf: f0 03        	beq	$fd4 <pickFile+0x561>
     fd1: 4c d9 0f     	jmp	$fd9 <pickFile+0x566>
     fd4: c6 12        	dec	$12                     ; 0x2012 <filePickModal+0x392>
     fd6: 4c d9 0f     	jmp	$fd9 <pickFile+0x566>
     fd9: a6 16        	ldx	$16                     ; 0x2016 <filePickModal+0x396>
     fdb: e4 13        	cpx	$13                     ; 0x2013 <filePickModal+0x393>
     fdd: e5 12        	sbc	$12                     ; 0x2012 <filePickModal+0x392>
     fdf: 70 02        	bvs	$fe3 <pickFile+0x570>
     fe1: 80 04        	bra	$fe7 <pickFile+0x574>
     fe3: 49 80        	eor	#$80
     fe5: 80 02        	bra	$fe9 <pickFile+0x576>
     fe7: 80 00        	bra	$fe9 <pickFile+0x576>
     fe9: aa           	tax
     fea: 30 03        	bmi	$fef <pickFile+0x57c>
     fec: 4c fb 12     	jmp	$12fb <pickFile+0x888>
     fef: 18           	clc
     ff0: a5 10        	lda	$10                     ; 0x2010 <filePickModal+0x390>
     ff2: 69 07        	adc	#$7
     ff4: 85 12        	sta	$12                     ; 0x2012 <filePickModal+0x392>
     ff6: a5 11        	lda	$11                     ; 0x2011 <filePickModal+0x391>
     ff8: 69 00        	adc	#$0
     ffa: 85 13        	sta	$13                     ; 0x2013 <filePickModal+0x393>
     ffc: b2 12        	lda	($12)                   ; 0x2012 <filePickModal+0x392>
     ffe: 85 14        	sta	$14                     ; 0x2014 <filePickModal+0x394>
    1000: a0 01        	ldy	#$1
    1002: b1 12        	lda	($12),y                 ; 0x2012 <filePickModal+0x392>
    1004: aa           	tax
    1005: 18           	clc
    1006: a5 14        	lda	$14                     ; 0x2014 <filePickModal+0x394>
    1008: 69 e6        	adc	#$e6
    100a: 85 12        	sta	$12                     ; 0x2012 <filePickModal+0x392>
    100c: 8a           	txa
    100d: 69 11        	adc	#$11
    100f: 85 13        	sta	$13                     ; 0x2013 <filePickModal+0x393>
    1011: b2 12        	lda	($12)                   ; 0x2012 <filePickModal+0x392>
    1013: 85 14        	sta	$14                     ; 0x2014 <filePickModal+0x394>
    1015: b1 12        	lda	($12),y                 ; 0x2012 <filePickModal+0x392>
    1017: a6 14        	ldx	$14                     ; 0x2014 <filePickModal+0x394>
    1019: e0 0f        	cpx	#$f
    101b: e9 00        	sbc	#$0
    101d: 70 02        	bvs	$1021 <pickFile+0x5ae>
    101f: 80 04        	bra	$1025 <pickFile+0x5b2>
    1021: 49 80        	eor	#$80
    1023: 80 02        	bra	$1027 <pickFile+0x5b4>
    1025: 80 00        	bra	$1027 <pickFile+0x5b4>
    1027: aa           	tax
    1028: 30 03        	bmi	$102d <pickFile+0x5ba>
    102a: 4c 3b 11     	jmp	$113b <pickFile+0x6c8>
    102d: 18           	clc
    102e: a5 10        	lda	$10                     ; 0x2010 <filePickModal+0x390>
    1030: 69 07        	adc	#$7
    1032: 85 24        	sta	$24                     ; 0x2024 <filePickModal+0x3a4>
    1034: a5 11        	lda	$11                     ; 0x2011 <filePickModal+0x391>
    1036: 69 00        	adc	#$0
    1038: 85 25        	sta	$25                     ; 0x2025 <filePickModal+0x3a5>
    103a: b2 24        	lda	($24)                   ; 0x2024 <filePickModal+0x3a4>
    103c: 85 12        	sta	$12                     ; 0x2012 <filePickModal+0x392>
    103e: a0 01        	ldy	#$1
    1040: b1 24        	lda	($24),y                 ; 0x2024 <filePickModal+0x3a4>
    1042: 85 13        	sta	$13                     ; 0x2013 <filePickModal+0x393>
    1044: b2 12        	lda	($12)                   ; 0x2012 <filePickModal+0x392>
    1046: 85 14        	sta	$14                     ; 0x2014 <filePickModal+0x394>
    1048: b2 24        	lda	($24)                   ; 0x2024 <filePickModal+0x3a4>
    104a: 85 12        	sta	$12                     ; 0x2012 <filePickModal+0x392>
    104c: b1 24        	lda	($24),y                 ; 0x2024 <filePickModal+0x3a4>
    104e: 85 13        	sta	$13                     ; 0x2013 <filePickModal+0x393>
    1050: b2 24        	lda	($24)                   ; 0x2024 <filePickModal+0x3a4>
    1052: 85 16        	sta	$16                     ; 0x2016 <filePickModal+0x396>
    1054: b1 24        	lda	($24),y                 ; 0x2024 <filePickModal+0x3a4>
    1056: 85 15        	sta	$15                     ; 0x2015 <filePickModal+0x395>
    1058: 18           	clc
    1059: a5 16        	lda	$16                     ; 0x2016 <filePickModal+0x396>
    105b: 69 e6        	adc	#$e6
    105d: aa           	tax
    105e: a5 15        	lda	$15                     ; 0x2015 <filePickModal+0x395>
    1060: 69 11        	adc	#$11
    1062: 85 15        	sta	$15                     ; 0x2015 <filePickModal+0x395>
    1064: b1 12        	lda	($12),y                 ; 0x2012 <filePickModal+0x392>
    1066: 86 12        	stx	$12                     ; 0x2012 <filePickModal+0x392>
    1068: a6 15        	ldx	$15                     ; 0x2015 <filePickModal+0x395>
    106a: 86 13        	stx	$13                     ; 0x2013 <filePickModal+0x393>
    106c: 18           	clc
    106d: 72 12        	adc	($12)                   ; 0x2012 <filePickModal+0x392>
    106f: aa           	tax
    1070: a5 14        	lda	$14                     ; 0x2014 <filePickModal+0x394>
    1072: 20 eb 31     	jsr	$31eb <textGotoXY>
    1075: a9 20        	lda	#$20
    1077: 92 10        	sta	($10)                   ; 0x2010 <filePickModal+0x390>
    1079: a9 00        	lda	#$0
    107b: a0 01        	ldy	#$1
    107d: 91 10        	sta	($10),y                 ; 0x2010 <filePickModal+0x390>
    107f: a2 b3        	ldx	#$b3
    1081: 86 12        	stx	$12                     ; 0x2012 <filePickModal+0x392>
    1083: a2 52        	ldx	#$52
    1085: 86 13        	stx	$13                     ; 0x2013 <filePickModal+0x393>
    1087: 20 e1 45     	jsr	$45e1 <printf>
    108a: b2 24        	lda	($24)                   ; 0x2024 <filePickModal+0x3a4>
    108c: 85 13        	sta	$13                     ; 0x2013 <filePickModal+0x393>
    108e: a0 01        	ldy	#$1
    1090: b1 24        	lda	($24),y                 ; 0x2024 <filePickModal+0x3a4>
    1092: 85 12        	sta	$12                     ; 0x2012 <filePickModal+0x392>
    1094: 18           	clc
    1095: a5 13        	lda	$13                     ; 0x2013 <filePickModal+0x393>
    1097: 69 e4        	adc	#$e4
    1099: aa           	tax
    109a: a5 12        	lda	$12                     ; 0x2012 <filePickModal+0x392>
    109c: 69 11        	adc	#$11
    109e: 86 12        	stx	$12                     ; 0x2012 <filePickModal+0x392>
    10a0: 85 13        	sta	$13                     ; 0x2013 <filePickModal+0x393>
    10a2: b2 12        	lda	($12)                   ; 0x2012 <filePickModal+0x392>
    10a4: 85 14        	sta	$14                     ; 0x2014 <filePickModal+0x394>
    10a6: b1 12        	lda	($12),y                 ; 0x2012 <filePickModal+0x392>
    10a8: aa           	tax
    10a9: a5 14        	lda	$14                     ; 0x2014 <filePickModal+0x394>
    10ab: 1a           	inc
    10ac: f0 03        	beq	$10b1 <pickFile+0x63e>
    10ae: 4c b5 10     	jmp	$10b5 <pickFile+0x642>
    10b1: e8           	inx
    10b2: 4c b5 10     	jmp	$10b5 <pickFile+0x642>
    10b5: 92 12        	sta	($12)                   ; 0x2012 <filePickModal+0x392>
    10b7: 8a           	txa
    10b8: 91 12        	sta	($12),y                 ; 0x2012 <filePickModal+0x392>
    10ba: b2 24        	lda	($24)                   ; 0x2024 <filePickModal+0x3a4>
    10bc: 85 13        	sta	$13                     ; 0x2013 <filePickModal+0x393>
    10be: b1 24        	lda	($24),y                 ; 0x2024 <filePickModal+0x3a4>
    10c0: 85 12        	sta	$12                     ; 0x2012 <filePickModal+0x392>
    10c2: 18           	clc
    10c3: a5 13        	lda	$13                     ; 0x2013 <filePickModal+0x393>
    10c5: 69 e6        	adc	#$e6
    10c7: aa           	tax
    10c8: a5 12        	lda	$12                     ; 0x2012 <filePickModal+0x392>
    10ca: 69 11        	adc	#$11
    10cc: 86 12        	stx	$12                     ; 0x2012 <filePickModal+0x392>
    10ce: 85 13        	sta	$13                     ; 0x2013 <filePickModal+0x393>
    10d0: b2 12        	lda	($12)                   ; 0x2012 <filePickModal+0x392>
    10d2: 85 14        	sta	$14                     ; 0x2014 <filePickModal+0x394>
    10d4: b1 12        	lda	($12),y                 ; 0x2012 <filePickModal+0x392>
    10d6: aa           	tax
    10d7: a5 14        	lda	$14                     ; 0x2014 <filePickModal+0x394>
    10d9: 1a           	inc
    10da: f0 03        	beq	$10df <pickFile+0x66c>
    10dc: 4c e3 10     	jmp	$10e3 <pickFile+0x670>
    10df: e8           	inx
    10e0: 4c e3 10     	jmp	$10e3 <pickFile+0x670>
    10e3: 92 12        	sta	($12)                   ; 0x2012 <filePickModal+0x392>
    10e5: 8a           	txa
    10e6: 91 12        	sta	($12),y                 ; 0x2012 <filePickModal+0x392>
    10e8: b2 24        	lda	($24)                   ; 0x2024 <filePickModal+0x3a4>
    10ea: 85 12        	sta	$12                     ; 0x2012 <filePickModal+0x392>
    10ec: b1 24        	lda	($24),y                 ; 0x2024 <filePickModal+0x3a4>
    10ee: 85 13        	sta	$13                     ; 0x2013 <filePickModal+0x393>
    10f0: b2 24        	lda	($24)                   ; 0x2024 <filePickModal+0x3a4>
    10f2: 85 14        	sta	$14                     ; 0x2014 <filePickModal+0x394>
    10f4: b1 24        	lda	($24),y                 ; 0x2024 <filePickModal+0x3a4>
    10f6: 85 15        	sta	$15                     ; 0x2015 <filePickModal+0x395>
    10f8: b2 24        	lda	($24)                   ; 0x2024 <filePickModal+0x3a4>
    10fa: 85 16        	sta	$16                     ; 0x2016 <filePickModal+0x396>
    10fc: b1 24        	lda	($24),y                 ; 0x2024 <filePickModal+0x3a4>
    10fe: 85 18        	sta	$18                     ; 0x2018 <filePickModal+0x398>
    1100: a0 01        	ldy	#$1
    1102: 18           	clc
    1103: a5 16        	lda	$16                     ; 0x2016 <filePickModal+0x396>
    1105: 69 e6        	adc	#$e6
    1107: 85 17        	sta	$17                     ; 0x2017 <filePickModal+0x397>
    1109: a5 18        	lda	$18                     ; 0x2018 <filePickModal+0x398>
    110b: 69 11        	adc	#$11
    110d: aa           	tax
    110e: b2 12        	lda	($12)                   ; 0x2012 <filePickModal+0x392>
    1110: 85 16        	sta	$16                     ; 0x2016 <filePickModal+0x396>
    1112: a5 17        	lda	$17                     ; 0x2017 <filePickModal+0x397>
    1114: 85 12        	sta	$12                     ; 0x2012 <filePickModal+0x392>
    1116: b1 14        	lda	($14),y                 ; 0x2014 <filePickModal+0x394>
    1118: 86 13        	stx	$13                     ; 0x2013 <filePickModal+0x393>
    111a: 18           	clc
    111b: 72 12        	adc	($12)                   ; 0x2012 <filePickModal+0x392>
    111d: aa           	tax
    111e: a5 16        	lda	$16                     ; 0x2016 <filePickModal+0x396>
    1120: 20 eb 31     	jsr	$31eb <textGotoXY>
    1123: a9 fa        	lda	#$fa
    1125: 92 10        	sta	($10)                   ; 0x2010 <filePickModal+0x390>
    1127: a9 00        	lda	#$0
    1129: a0 01        	ldy	#$1
    112b: 91 10        	sta	($10),y                 ; 0x2010 <filePickModal+0x390>
    112d: a2 b3        	ldx	#$b3
    112f: 86 12        	stx	$12                     ; 0x2012 <filePickModal+0x392>
    1131: a2 52        	ldx	#$52
    1133: 86 13        	stx	$13                     ; 0x2013 <filePickModal+0x393>
    1135: 20 e1 45     	jsr	$45e1 <printf>
    1138: 4c fb 12     	jmp	$12fb <pickFile+0x888>
    113b: 18           	clc
    113c: a5 10        	lda	$10                     ; 0x2010 <filePickModal+0x390>
    113e: 69 07        	adc	#$7
    1140: 85 12        	sta	$12                     ; 0x2012 <filePickModal+0x392>
    1142: a5 11        	lda	$11                     ; 0x2011 <filePickModal+0x391>
    1144: 69 00        	adc	#$0
    1146: 85 13        	sta	$13                     ; 0x2013 <filePickModal+0x393>
    1148: b2 12        	lda	($12)                   ; 0x2012 <filePickModal+0x392>
    114a: 85 14        	sta	$14                     ; 0x2014 <filePickModal+0x394>
    114c: a0 01        	ldy	#$1
    114e: b1 12        	lda	($12),y                 ; 0x2012 <filePickModal+0x392>
    1150: aa           	tax
    1151: 18           	clc
    1152: a5 14        	lda	$14                     ; 0x2014 <filePickModal+0x394>
    1154: 69 e6        	adc	#$e6
    1156: 85 12        	sta	$12                     ; 0x2012 <filePickModal+0x392>
    1158: 8a           	txa
    1159: 69 11        	adc	#$11
    115b: 85 13        	sta	$13                     ; 0x2013 <filePickModal+0x393>
    115d: b2 12        	lda	($12)                   ; 0x2012 <filePickModal+0x392>
    115f: 85 14        	sta	$14                     ; 0x2014 <filePickModal+0x394>
    1161: b1 12        	lda	($12),y                 ; 0x2012 <filePickModal+0x392>
    1163: f0 02        	beq	$1167 <pickFile+0x6f4>
    1165: 80 0f        	bra	$1176 <pickFile+0x703>
    1167: a6 14        	ldx	$14                     ; 0x2014 <filePickModal+0x394>
    1169: e0 0f        	cpx	#$f
    116b: f0 02        	beq	$116f <pickFile+0x6fc>
    116d: 80 02        	bra	$1171 <pickFile+0x6fe>
    116f: 80 03        	bra	$1174 <pickFile+0x701>
    1171: 4c fb 12     	jmp	$12fb <pickFile+0x888>
    1174: 80 03        	bra	$1179 <pickFile+0x706>
    1176: 4c fb 12     	jmp	$12fb <pickFile+0x888>
    1179: 80 00        	bra	$117b <pickFile+0x708>
    117b: 18           	clc
    117c: a5 10        	lda	$10                     ; 0x2010 <filePickModal+0x390>
    117e: 69 07        	adc	#$7
    1180: 85 12        	sta	$12                     ; 0x2012 <filePickModal+0x392>
    1182: a5 11        	lda	$11                     ; 0x2011 <filePickModal+0x391>
    1184: 69 00        	adc	#$0
    1186: 85 13        	sta	$13                     ; 0x2013 <filePickModal+0x393>
    1188: b2 12        	lda	($12)                   ; 0x2012 <filePickModal+0x392>
    118a: 85 14        	sta	$14                     ; 0x2014 <filePickModal+0x394>
    118c: a0 01        	ldy	#$1
    118e: b1 12        	lda	($12),y                 ; 0x2012 <filePickModal+0x392>
    1190: aa           	tax
    1191: 18           	clc
    1192: a5 14        	lda	$14                     ; 0x2014 <filePickModal+0x394>
    1194: 69 e2        	adc	#$e2
    1196: 85 14        	sta	$14                     ; 0x2014 <filePickModal+0x394>
    1198: 8a           	txa
    1199: 69 11        	adc	#$11
    119b: 85 15        	sta	$15                     ; 0x2015 <filePickModal+0x395>
    119d: b2 12        	lda	($12)                   ; 0x2012 <filePickModal+0x392>
    119f: 85 16        	sta	$16                     ; 0x2016 <filePickModal+0x396>
    11a1: b1 12        	lda	($12),y                 ; 0x2012 <filePickModal+0x392>
    11a3: 85 12        	sta	$12                     ; 0x2012 <filePickModal+0x392>
    11a5: 18           	clc
    11a6: a5 16        	lda	$16                     ; 0x2016 <filePickModal+0x396>
    11a8: 69 e4        	adc	#$e4
    11aa: aa           	tax
    11ab: a5 12        	lda	$12                     ; 0x2012 <filePickModal+0x392>
    11ad: 69 11        	adc	#$11
    11af: 86 12        	stx	$12                     ; 0x2012 <filePickModal+0x392>
    11b1: 85 13        	sta	$13                     ; 0x2013 <filePickModal+0x393>
    11b3: b2 12        	lda	($12)                   ; 0x2012 <filePickModal+0x392>
    11b5: 85 16        	sta	$16                     ; 0x2016 <filePickModal+0x396>
    11b7: b1 12        	lda	($12),y                 ; 0x2012 <filePickModal+0x392>
    11b9: aa           	tax
    11ba: a5 16        	lda	$16                     ; 0x2016 <filePickModal+0x396>
    11bc: d2 14        	cmp	($14)                   ; 0x2014 <filePickModal+0x394>
    11be: 8a           	txa
    11bf: f1 14        	sbc	($14),y                 ; 0x2014 <filePickModal+0x394>
    11c1: 70 02        	bvs	$11c5 <pickFile+0x752>
    11c3: 80 04        	bra	$11c9 <pickFile+0x756>
    11c5: 49 80        	eor	#$80
    11c7: 80 02        	bra	$11cb <pickFile+0x758>
    11c9: 80 00        	bra	$11cb <pickFile+0x758>
    11cb: aa           	tax
    11cc: 30 03        	bmi	$11d1 <pickFile+0x75e>
    11ce: 4c fb 12     	jmp	$12fb <pickFile+0x888>
    11d1: 18           	clc
    11d2: a5 10        	lda	$10                     ; 0x2010 <filePickModal+0x390>
    11d4: 69 07        	adc	#$7
    11d6: 85 24        	sta	$24                     ; 0x2024 <filePickModal+0x3a4>
    11d8: a5 11        	lda	$11                     ; 0x2011 <filePickModal+0x391>
    11da: 69 00        	adc	#$0
    11dc: 85 25        	sta	$25                     ; 0x2025 <filePickModal+0x3a5>
    11de: b2 24        	lda	($24)                   ; 0x2024 <filePickModal+0x3a4>
    11e0: 85 12        	sta	$12                     ; 0x2012 <filePickModal+0x392>
    11e2: a0 01        	ldy	#$1
    11e4: b1 24        	lda	($24),y                 ; 0x2024 <filePickModal+0x3a4>
    11e6: 85 13        	sta	$13                     ; 0x2013 <filePickModal+0x393>
    11e8: b2 12        	lda	($12)                   ; 0x2012 <filePickModal+0x392>
    11ea: 85 14        	sta	$14                     ; 0x2014 <filePickModal+0x394>
    11ec: b2 24        	lda	($24)                   ; 0x2024 <filePickModal+0x3a4>
    11ee: 85 12        	sta	$12                     ; 0x2012 <filePickModal+0x392>
    11f0: b1 24        	lda	($24),y                 ; 0x2024 <filePickModal+0x3a4>
    11f2: 85 13        	sta	$13                     ; 0x2013 <filePickModal+0x393>
    11f4: b2 24        	lda	($24)                   ; 0x2024 <filePickModal+0x3a4>
    11f6: 85 16        	sta	$16                     ; 0x2016 <filePickModal+0x396>
    11f8: b1 24        	lda	($24),y                 ; 0x2024 <filePickModal+0x3a4>
    11fa: 85 15        	sta	$15                     ; 0x2015 <filePickModal+0x395>
    11fc: 18           	clc
    11fd: a5 16        	lda	$16                     ; 0x2016 <filePickModal+0x396>
    11ff: 69 e6        	adc	#$e6
    1201: aa           	tax
    1202: a5 15        	lda	$15                     ; 0x2015 <filePickModal+0x395>
    1204: 69 11        	adc	#$11
    1206: 85 15        	sta	$15                     ; 0x2015 <filePickModal+0x395>
    1208: b1 12        	lda	($12),y                 ; 0x2012 <filePickModal+0x392>
    120a: 86 12        	stx	$12                     ; 0x2012 <filePickModal+0x392>
    120c: a6 15        	ldx	$15                     ; 0x2015 <filePickModal+0x395>
    120e: 86 13        	stx	$13                     ; 0x2013 <filePickModal+0x393>
    1210: 18           	clc
    1211: 72 12        	adc	($12)                   ; 0x2012 <filePickModal+0x392>
    1213: aa           	tax
    1214: a5 14        	lda	$14                     ; 0x2014 <filePickModal+0x394>
    1216: 20 eb 31     	jsr	$31eb <textGotoXY>
    1219: a9 20        	lda	#$20
    121b: 92 10        	sta	($10)                   ; 0x2010 <filePickModal+0x390>
    121d: a9 00        	lda	#$0
    121f: a0 01        	ldy	#$1
    1221: 91 10        	sta	($10),y                 ; 0x2010 <filePickModal+0x390>
    1223: a2 b3        	ldx	#$b3
    1225: 86 12        	stx	$12                     ; 0x2012 <filePickModal+0x392>
    1227: a2 52        	ldx	#$52
    1229: 86 13        	stx	$13                     ; 0x2013 <filePickModal+0x393>
    122b: 20 e1 45     	jsr	$45e1 <printf>
    122e: b2 24        	lda	($24)                   ; 0x2024 <filePickModal+0x3a4>
    1230: 85 13        	sta	$13                     ; 0x2013 <filePickModal+0x393>
    1232: a0 01        	ldy	#$1
    1234: b1 24        	lda	($24),y                 ; 0x2024 <filePickModal+0x3a4>
    1236: 85 12        	sta	$12                     ; 0x2012 <filePickModal+0x392>
    1238: 18           	clc
    1239: a5 13        	lda	$13                     ; 0x2013 <filePickModal+0x393>
    123b: 69 e6        	adc	#$e6
    123d: aa           	tax
    123e: a5 12        	lda	$12                     ; 0x2012 <filePickModal+0x392>
    1240: 69 11        	adc	#$11
    1242: 86 12        	stx	$12                     ; 0x2012 <filePickModal+0x392>
    1244: 85 13        	sta	$13                     ; 0x2013 <filePickModal+0x393>
    1246: a9 00        	lda	#$0
    1248: 92 12        	sta	($12)                   ; 0x2012 <filePickModal+0x392>
    124a: 91 12        	sta	($12),y                 ; 0x2012 <filePickModal+0x392>
    124c: b2 24        	lda	($24)                   ; 0x2024 <filePickModal+0x3a4>
    124e: 85 13        	sta	$13                     ; 0x2013 <filePickModal+0x393>
    1250: b1 24        	lda	($24),y                 ; 0x2024 <filePickModal+0x3a4>
    1252: 85 12        	sta	$12                     ; 0x2012 <filePickModal+0x392>
    1254: 18           	clc
    1255: a5 13        	lda	$13                     ; 0x2013 <filePickModal+0x393>
    1257: 69 e8        	adc	#$e8
    1259: aa           	tax
    125a: a5 12        	lda	$12                     ; 0x2012 <filePickModal+0x392>
    125c: 69 11        	adc	#$11
    125e: 86 12        	stx	$12                     ; 0x2012 <filePickModal+0x392>
    1260: 85 13        	sta	$13                     ; 0x2013 <filePickModal+0x393>
    1262: b2 12        	lda	($12)                   ; 0x2012 <filePickModal+0x392>
    1264: 85 15        	sta	$15                     ; 0x2015 <filePickModal+0x395>
    1266: b1 12        	lda	($12),y                 ; 0x2012 <filePickModal+0x392>
    1268: 85 14        	sta	$14                     ; 0x2014 <filePickModal+0x394>
    126a: 18           	clc
    126b: a5 15        	lda	$15                     ; 0x2015 <filePickModal+0x395>
    126d: 69 0f        	adc	#$f
    126f: 85 15        	sta	$15                     ; 0x2015 <filePickModal+0x395>
    1271: a5 14        	lda	$14                     ; 0x2014 <filePickModal+0x394>
    1273: 69 00        	adc	#$0
    1275: aa           	tax
    1276: a5 15        	lda	$15                     ; 0x2015 <filePickModal+0x395>
    1278: 92 12        	sta	($12)                   ; 0x2012 <filePickModal+0x392>
    127a: 8a           	txa
    127b: 91 12        	sta	($12),y                 ; 0x2012 <filePickModal+0x392>
    127d: b2 24        	lda	($24)                   ; 0x2024 <filePickModal+0x3a4>
    127f: 85 12        	sta	$12                     ; 0x2012 <filePickModal+0x392>
    1281: b1 24        	lda	($24),y                 ; 0x2024 <filePickModal+0x3a4>
    1283: 85 13        	sta	$13                     ; 0x2013 <filePickModal+0x393>
    1285: b2 24        	lda	($24)                   ; 0x2024 <filePickModal+0x3a4>
    1287: 85 15        	sta	$15                     ; 0x2015 <filePickModal+0x395>
    1289: b1 24        	lda	($24),y                 ; 0x2024 <filePickModal+0x3a4>
    128b: 85 14        	sta	$14                     ; 0x2014 <filePickModal+0x394>
    128d: a0 01        	ldy	#$1
    128f: 18           	clc
    1290: a5 15        	lda	$15                     ; 0x2015 <filePickModal+0x395>
    1292: 69 e8        	adc	#$e8
    1294: aa           	tax
    1295: a5 14        	lda	$14                     ; 0x2014 <filePickModal+0x394>
    1297: 69 11        	adc	#$11
    1299: 86 14        	stx	$14                     ; 0x2014 <filePickModal+0x394>
    129b: 85 15        	sta	$15                     ; 0x2015 <filePickModal+0x395>
    129d: b2 14        	lda	($14)                   ; 0x2014 <filePickModal+0x394>
    129f: 85 16        	sta	$16                     ; 0x2016 <filePickModal+0x396>
    12a1: b1 14        	lda	($14),y                 ; 0x2014 <filePickModal+0x394>
    12a3: aa           	tax
    12a4: a5 16        	lda	$16                     ; 0x2016 <filePickModal+0x396>
    12a6: 20 c1 16     	jsr	$16c1 <displayFileList>
    12a9: b2 24        	lda	($24)                   ; 0x2024 <filePickModal+0x3a4>
    12ab: 85 12        	sta	$12                     ; 0x2012 <filePickModal+0x392>
    12ad: a0 01        	ldy	#$1
    12af: b1 24        	lda	($24),y                 ; 0x2024 <filePickModal+0x3a4>
    12b1: 85 13        	sta	$13                     ; 0x2013 <filePickModal+0x393>
    12b3: b2 24        	lda	($24)                   ; 0x2024 <filePickModal+0x3a4>
    12b5: 85 14        	sta	$14                     ; 0x2014 <filePickModal+0x394>
    12b7: b1 24        	lda	($24),y                 ; 0x2024 <filePickModal+0x3a4>
    12b9: 85 15        	sta	$15                     ; 0x2015 <filePickModal+0x395>
    12bb: b2 24        	lda	($24)                   ; 0x2024 <filePickModal+0x3a4>
    12bd: 85 16        	sta	$16                     ; 0x2016 <filePickModal+0x396>
    12bf: b1 24        	lda	($24),y                 ; 0x2024 <filePickModal+0x3a4>
    12c1: 85 18        	sta	$18                     ; 0x2018 <filePickModal+0x398>
    12c3: a0 01        	ldy	#$1
    12c5: 18           	clc
    12c6: a5 16        	lda	$16                     ; 0x2016 <filePickModal+0x396>
    12c8: 69 e6        	adc	#$e6
    12ca: 85 17        	sta	$17                     ; 0x2017 <filePickModal+0x397>
    12cc: a5 18        	lda	$18                     ; 0x2018 <filePickModal+0x398>
    12ce: 69 11        	adc	#$11
    12d0: aa           	tax
    12d1: b2 12        	lda	($12)                   ; 0x2012 <filePickModal+0x392>
    12d3: 85 16        	sta	$16                     ; 0x2016 <filePickModal+0x396>
    12d5: a5 17        	lda	$17                     ; 0x2017 <filePickModal+0x397>
    12d7: 85 12        	sta	$12                     ; 0x2012 <filePickModal+0x392>
    12d9: b1 14        	lda	($14),y                 ; 0x2014 <filePickModal+0x394>
    12db: 86 13        	stx	$13                     ; 0x2013 <filePickModal+0x393>
    12dd: 18           	clc
    12de: 72 12        	adc	($12)                   ; 0x2012 <filePickModal+0x392>
    12e0: aa           	tax
    12e1: a5 16        	lda	$16                     ; 0x2016 <filePickModal+0x396>
    12e3: 20 eb 31     	jsr	$31eb <textGotoXY>
    12e6: a9 fa        	lda	#$fa
    12e8: 92 10        	sta	($10)                   ; 0x2010 <filePickModal+0x390>
    12ea: a9 00        	lda	#$0
    12ec: a0 01        	ldy	#$1
    12ee: 91 10        	sta	($10),y                 ; 0x2010 <filePickModal+0x390>
    12f0: a2 b3        	ldx	#$b3
    12f2: 86 12        	stx	$12                     ; 0x2012 <filePickModal+0x392>
    12f4: a2 52        	ldx	#$52
    12f6: 86 13        	stx	$13                     ; 0x2013 <filePickModal+0x393>
    12f8: 20 e1 45     	jsr	$45e1 <printf>
    12fb: 4c 86 16     	jmp	$1686 <pickFile+0xc13>
    12fe: 18           	clc
    12ff: a5 10        	lda	$10                     ; 0x2010 <filePickModal+0x390>
    1301: 69 07        	adc	#$7
    1303: 85 12        	sta	$12                     ; 0x2012 <filePickModal+0x392>
    1305: a5 11        	lda	$11                     ; 0x2011 <filePickModal+0x391>
    1307: 69 00        	adc	#$0
    1309: 85 13        	sta	$13                     ; 0x2013 <filePickModal+0x393>
    130b: b2 12        	lda	($12)                   ; 0x2012 <filePickModal+0x392>
    130d: 85 14        	sta	$14                     ; 0x2014 <filePickModal+0x394>
    130f: a0 01        	ldy	#$1
    1311: b1 12        	lda	($12),y                 ; 0x2012 <filePickModal+0x392>
    1313: aa           	tax
    1314: 18           	clc
    1315: a5 14        	lda	$14                     ; 0x2014 <filePickModal+0x394>
    1317: 69 e4        	adc	#$e4
    1319: 85 12        	sta	$12                     ; 0x2012 <filePickModal+0x392>
    131b: 8a           	txa
    131c: 69 11        	adc	#$11
    131e: 85 13        	sta	$13                     ; 0x2013 <filePickModal+0x393>
    1320: b2 12        	lda	($12)                   ; 0x2012 <filePickModal+0x392>
    1322: 85 14        	sta	$14                     ; 0x2014 <filePickModal+0x394>
    1324: b1 12        	lda	($12),y                 ; 0x2012 <filePickModal+0x392>
    1326: a6 14        	ldx	$14                     ; 0x2014 <filePickModal+0x394>
    1328: e0 0f        	cpx	#$f
    132a: e9 00        	sbc	#$0
    132c: 70 02        	bvs	$1330 <pickFile+0x8bd>
    132e: 80 04        	bra	$1334 <pickFile+0x8c1>
    1330: 49 80        	eor	#$80
    1332: 80 02        	bra	$1336 <pickFile+0x8c3>
    1334: 80 00        	bra	$1336 <pickFile+0x8c3>
    1336: aa           	tax
    1337: 10 03        	bpl	$133c <pickFile+0x8c9>
    1339: 4c 7b 14     	jmp	$147b <pickFile+0xa08>
    133c: 18           	clc
    133d: a5 10        	lda	$10                     ; 0x2010 <filePickModal+0x390>
    133f: 69 07        	adc	#$7
    1341: 85 24        	sta	$24                     ; 0x2024 <filePickModal+0x3a4>
    1343: a5 11        	lda	$11                     ; 0x2011 <filePickModal+0x391>
    1345: 69 00        	adc	#$0
    1347: 85 25        	sta	$25                     ; 0x2025 <filePickModal+0x3a5>
    1349: b2 24        	lda	($24)                   ; 0x2024 <filePickModal+0x3a4>
    134b: 85 12        	sta	$12                     ; 0x2012 <filePickModal+0x392>
    134d: a0 01        	ldy	#$1
    134f: b1 24        	lda	($24),y                 ; 0x2024 <filePickModal+0x3a4>
    1351: 85 13        	sta	$13                     ; 0x2013 <filePickModal+0x393>
    1353: b2 12        	lda	($12)                   ; 0x2012 <filePickModal+0x392>
    1355: 85 14        	sta	$14                     ; 0x2014 <filePickModal+0x394>
    1357: b2 24        	lda	($24)                   ; 0x2024 <filePickModal+0x3a4>
    1359: 85 12        	sta	$12                     ; 0x2012 <filePickModal+0x392>
    135b: b1 24        	lda	($24),y                 ; 0x2024 <filePickModal+0x3a4>
    135d: 85 13        	sta	$13                     ; 0x2013 <filePickModal+0x393>
    135f: b2 24        	lda	($24)                   ; 0x2024 <filePickModal+0x3a4>
    1361: 85 16        	sta	$16                     ; 0x2016 <filePickModal+0x396>
    1363: b1 24        	lda	($24),y                 ; 0x2024 <filePickModal+0x3a4>
    1365: 85 15        	sta	$15                     ; 0x2015 <filePickModal+0x395>
    1367: 18           	clc
    1368: a5 16        	lda	$16                     ; 0x2016 <filePickModal+0x396>
    136a: 69 e6        	adc	#$e6
    136c: aa           	tax
    136d: a5 15        	lda	$15                     ; 0x2015 <filePickModal+0x395>
    136f: 69 11        	adc	#$11
    1371: 85 15        	sta	$15                     ; 0x2015 <filePickModal+0x395>
    1373: b1 12        	lda	($12),y                 ; 0x2012 <filePickModal+0x392>
    1375: 86 12        	stx	$12                     ; 0x2012 <filePickModal+0x392>
    1377: a6 15        	ldx	$15                     ; 0x2015 <filePickModal+0x395>
    1379: 86 13        	stx	$13                     ; 0x2013 <filePickModal+0x393>
    137b: 18           	clc
    137c: 72 12        	adc	($12)                   ; 0x2012 <filePickModal+0x392>
    137e: aa           	tax
    137f: a5 14        	lda	$14                     ; 0x2014 <filePickModal+0x394>
    1381: 20 eb 31     	jsr	$31eb <textGotoXY>
    1384: a9 20        	lda	#$20
    1386: 92 10        	sta	($10)                   ; 0x2010 <filePickModal+0x390>
    1388: a9 00        	lda	#$0
    138a: a0 01        	ldy	#$1
    138c: 91 10        	sta	($10),y                 ; 0x2010 <filePickModal+0x390>
    138e: a2 b3        	ldx	#$b3
    1390: 86 12        	stx	$12                     ; 0x2012 <filePickModal+0x392>
    1392: a2 52        	ldx	#$52
    1394: 86 13        	stx	$13                     ; 0x2013 <filePickModal+0x393>
    1396: 20 e1 45     	jsr	$45e1 <printf>
    1399: b2 24        	lda	($24)                   ; 0x2024 <filePickModal+0x3a4>
    139b: 85 13        	sta	$13                     ; 0x2013 <filePickModal+0x393>
    139d: a0 01        	ldy	#$1
    139f: b1 24        	lda	($24),y                 ; 0x2024 <filePickModal+0x3a4>
    13a1: 85 12        	sta	$12                     ; 0x2012 <filePickModal+0x392>
    13a3: 18           	clc
    13a4: a5 13        	lda	$13                     ; 0x2013 <filePickModal+0x393>
    13a6: 69 e4        	adc	#$e4
    13a8: aa           	tax
    13a9: a5 12        	lda	$12                     ; 0x2012 <filePickModal+0x392>
    13ab: 69 11        	adc	#$11
    13ad: 86 12        	stx	$12                     ; 0x2012 <filePickModal+0x392>
    13af: 85 13        	sta	$13                     ; 0x2013 <filePickModal+0x393>
    13b1: b2 12        	lda	($12)                   ; 0x2012 <filePickModal+0x392>
    13b3: 85 15        	sta	$15                     ; 0x2015 <filePickModal+0x395>
    13b5: b1 12        	lda	($12),y                 ; 0x2012 <filePickModal+0x392>
    13b7: 85 14        	sta	$14                     ; 0x2014 <filePickModal+0x394>
    13b9: 18           	clc
    13ba: a5 15        	lda	$15                     ; 0x2015 <filePickModal+0x395>
    13bc: 69 f1        	adc	#$f1
    13be: 85 15        	sta	$15                     ; 0x2015 <filePickModal+0x395>
    13c0: a5 14        	lda	$14                     ; 0x2014 <filePickModal+0x394>
    13c2: 69 ff        	adc	#$ff
    13c4: aa           	tax
    13c5: a5 15        	lda	$15                     ; 0x2015 <filePickModal+0x395>
    13c7: 92 12        	sta	($12)                   ; 0x2012 <filePickModal+0x392>
    13c9: 8a           	txa
    13ca: 91 12        	sta	($12),y                 ; 0x2012 <filePickModal+0x392>
    13cc: b2 24        	lda	($24)                   ; 0x2024 <filePickModal+0x3a4>
    13ce: 85 13        	sta	$13                     ; 0x2013 <filePickModal+0x393>
    13d0: b1 24        	lda	($24),y                 ; 0x2024 <filePickModal+0x3a4>
    13d2: 85 12        	sta	$12                     ; 0x2012 <filePickModal+0x392>
    13d4: 18           	clc
    13d5: a5 13        	lda	$13                     ; 0x2013 <filePickModal+0x393>
    13d7: 69 e8        	adc	#$e8
    13d9: aa           	tax
    13da: a5 12        	lda	$12                     ; 0x2012 <filePickModal+0x392>
    13dc: 69 11        	adc	#$11
    13de: 86 12        	stx	$12                     ; 0x2012 <filePickModal+0x392>
    13e0: 85 13        	sta	$13                     ; 0x2013 <filePickModal+0x393>
    13e2: b2 12        	lda	($12)                   ; 0x2012 <filePickModal+0x392>
    13e4: 85 15        	sta	$15                     ; 0x2015 <filePickModal+0x395>
    13e6: b1 12        	lda	($12),y                 ; 0x2012 <filePickModal+0x392>
    13e8: 85 14        	sta	$14                     ; 0x2014 <filePickModal+0x394>
    13ea: 18           	clc
    13eb: a5 15        	lda	$15                     ; 0x2015 <filePickModal+0x395>
    13ed: 69 f1        	adc	#$f1
    13ef: 85 15        	sta	$15                     ; 0x2015 <filePickModal+0x395>
    13f1: a5 14        	lda	$14                     ; 0x2014 <filePickModal+0x394>
    13f3: 69 ff        	adc	#$ff
    13f5: aa           	tax
    13f6: a5 15        	lda	$15                     ; 0x2015 <filePickModal+0x395>
    13f8: 92 12        	sta	($12)                   ; 0x2012 <filePickModal+0x392>
    13fa: 8a           	txa
    13fb: 91 12        	sta	($12),y                 ; 0x2012 <filePickModal+0x392>
    13fd: b2 24        	lda	($24)                   ; 0x2024 <filePickModal+0x3a4>
    13ff: 85 12        	sta	$12                     ; 0x2012 <filePickModal+0x392>
    1401: b1 24        	lda	($24),y                 ; 0x2024 <filePickModal+0x3a4>
    1403: 85 13        	sta	$13                     ; 0x2013 <filePickModal+0x393>
    1405: b2 24        	lda	($24)                   ; 0x2024 <filePickModal+0x3a4>
    1407: 85 15        	sta	$15                     ; 0x2015 <filePickModal+0x395>
    1409: b1 24        	lda	($24),y                 ; 0x2024 <filePickModal+0x3a4>
    140b: 85 14        	sta	$14                     ; 0x2014 <filePickModal+0x394>
    140d: a0 01        	ldy	#$1
    140f: 18           	clc
    1410: a5 15        	lda	$15                     ; 0x2015 <filePickModal+0x395>
    1412: 69 e8        	adc	#$e8
    1414: aa           	tax
    1415: a5 14        	lda	$14                     ; 0x2014 <filePickModal+0x394>
    1417: 69 11        	adc	#$11
    1419: 86 14        	stx	$14                     ; 0x2014 <filePickModal+0x394>
    141b: 85 15        	sta	$15                     ; 0x2015 <filePickModal+0x395>
    141d: b2 14        	lda	($14)                   ; 0x2014 <filePickModal+0x394>
    141f: 85 16        	sta	$16                     ; 0x2016 <filePickModal+0x396>
    1421: b1 14        	lda	($14),y                 ; 0x2014 <filePickModal+0x394>
    1423: aa           	tax
    1424: a5 16        	lda	$16                     ; 0x2016 <filePickModal+0x396>
    1426: 20 c1 16     	jsr	$16c1 <displayFileList>
    1429: b2 24        	lda	($24)                   ; 0x2024 <filePickModal+0x3a4>
    142b: 85 12        	sta	$12                     ; 0x2012 <filePickModal+0x392>
    142d: a0 01        	ldy	#$1
    142f: b1 24        	lda	($24),y                 ; 0x2024 <filePickModal+0x3a4>
    1431: 85 13        	sta	$13                     ; 0x2013 <filePickModal+0x393>
    1433: b2 24        	lda	($24)                   ; 0x2024 <filePickModal+0x3a4>
    1435: 85 14        	sta	$14                     ; 0x2014 <filePickModal+0x394>
    1437: b1 24        	lda	($24),y                 ; 0x2024 <filePickModal+0x3a4>
    1439: 85 15        	sta	$15                     ; 0x2015 <filePickModal+0x395>
    143b: b2 24        	lda	($24)                   ; 0x2024 <filePickModal+0x3a4>
    143d: 85 16        	sta	$16                     ; 0x2016 <filePickModal+0x396>
    143f: b1 24        	lda	($24),y                 ; 0x2024 <filePickModal+0x3a4>
    1441: 85 18        	sta	$18                     ; 0x2018 <filePickModal+0x398>
    1443: a0 01        	ldy	#$1
    1445: 18           	clc
    1446: a5 16        	lda	$16                     ; 0x2016 <filePickModal+0x396>
    1448: 69 e6        	adc	#$e6
    144a: 85 17        	sta	$17                     ; 0x2017 <filePickModal+0x397>
    144c: a5 18        	lda	$18                     ; 0x2018 <filePickModal+0x398>
    144e: 69 11        	adc	#$11
    1450: aa           	tax
    1451: b2 12        	lda	($12)                   ; 0x2012 <filePickModal+0x392>
    1453: 85 16        	sta	$16                     ; 0x2016 <filePickModal+0x396>
    1455: a5 17        	lda	$17                     ; 0x2017 <filePickModal+0x397>
    1457: 85 12        	sta	$12                     ; 0x2012 <filePickModal+0x392>
    1459: b1 14        	lda	($14),y                 ; 0x2014 <filePickModal+0x394>
    145b: 86 13        	stx	$13                     ; 0x2013 <filePickModal+0x393>
    145d: 18           	clc
    145e: 72 12        	adc	($12)                   ; 0x2012 <filePickModal+0x392>
    1460: aa           	tax
    1461: a5 16        	lda	$16                     ; 0x2016 <filePickModal+0x396>
    1463: 20 eb 31     	jsr	$31eb <textGotoXY>
    1466: a9 fa        	lda	#$fa
    1468: 92 10        	sta	($10)                   ; 0x2010 <filePickModal+0x390>
    146a: a9 00        	lda	#$0
    146c: a0 01        	ldy	#$1
    146e: 91 10        	sta	($10),y                 ; 0x2010 <filePickModal+0x390>
    1470: a2 b3        	ldx	#$b3
    1472: 86 12        	stx	$12                     ; 0x2012 <filePickModal+0x392>
    1474: a2 52        	ldx	#$52
    1476: 86 13        	stx	$13                     ; 0x2013 <filePickModal+0x393>
    1478: 20 e1 45     	jsr	$45e1 <printf>
    147b: 4c 86 16     	jmp	$1686 <pickFile+0xc13>
    147e: 18           	clc
    147f: a5 10        	lda	$10                     ; 0x2010 <filePickModal+0x390>
    1481: 69 07        	adc	#$7
    1483: 85 14        	sta	$14                     ; 0x2014 <filePickModal+0x394>
    1485: a5 11        	lda	$11                     ; 0x2011 <filePickModal+0x391>
    1487: 69 00        	adc	#$0
    1489: 85 15        	sta	$15                     ; 0x2015 <filePickModal+0x395>
    148b: b2 14        	lda	($14)                   ; 0x2014 <filePickModal+0x394>
    148d: 85 12        	sta	$12                     ; 0x2012 <filePickModal+0x392>
    148f: a0 01        	ldy	#$1
    1491: b1 14        	lda	($14),y                 ; 0x2014 <filePickModal+0x394>
    1493: aa           	tax
    1494: 18           	clc
    1495: a5 12        	lda	$12                     ; 0x2012 <filePickModal+0x392>
    1497: 69 e2        	adc	#$e2
    1499: 85 12        	sta	$12                     ; 0x2012 <filePickModal+0x392>
    149b: 8a           	txa
    149c: 69 11        	adc	#$11
    149e: 85 13        	sta	$13                     ; 0x2013 <filePickModal+0x393>
    14a0: b2 14        	lda	($14)                   ; 0x2014 <filePickModal+0x394>
    14a2: 85 17        	sta	$17                     ; 0x2017 <filePickModal+0x397>
    14a4: b1 14        	lda	($14),y                 ; 0x2014 <filePickModal+0x394>
    14a6: 85 16        	sta	$16                     ; 0x2016 <filePickModal+0x396>
    14a8: 18           	clc
    14a9: a5 17        	lda	$17                     ; 0x2017 <filePickModal+0x397>
    14ab: 69 e4        	adc	#$e4
    14ad: aa           	tax
    14ae: a5 16        	lda	$16                     ; 0x2016 <filePickModal+0x396>
    14b0: 69 11        	adc	#$11
    14b2: 86 16        	stx	$16                     ; 0x2016 <filePickModal+0x396>
    14b4: 85 17        	sta	$17                     ; 0x2017 <filePickModal+0x397>
    14b6: b2 16        	lda	($16)                   ; 0x2016 <filePickModal+0x396>
    14b8: 85 18        	sta	$18                     ; 0x2018 <filePickModal+0x398>
    14ba: b2 14        	lda	($14)                   ; 0x2014 <filePickModal+0x394>
    14bc: 85 19        	sta	$19                     ; 0x2019 <filePickModal+0x399>
    14be: b1 14        	lda	($14),y                 ; 0x2014 <filePickModal+0x394>
    14c0: 85 15        	sta	$15                     ; 0x2015 <filePickModal+0x395>
    14c2: 18           	clc
    14c3: a5 19        	lda	$19                     ; 0x2019 <filePickModal+0x399>
    14c5: 69 e6        	adc	#$e6
    14c7: 85 14        	sta	$14                     ; 0x2014 <filePickModal+0x394>
    14c9: a5 15        	lda	$15                     ; 0x2015 <filePickModal+0x395>
    14cb: 69 11        	adc	#$11
    14cd: 85 15        	sta	$15                     ; 0x2015 <filePickModal+0x395>
    14cf: b1 16        	lda	($16),y                 ; 0x2016 <filePickModal+0x396>
    14d1: 85 17        	sta	$17                     ; 0x2017 <filePickModal+0x397>
    14d3: 38           	sec
    14d4: a5 18        	lda	$18                     ; 0x2018 <filePickModal+0x398>
    14d6: f2 14        	sbc	($14)                   ; 0x2014 <filePickModal+0x394>
    14d8: 85 16        	sta	$16                     ; 0x2016 <filePickModal+0x396>
    14da: a5 17        	lda	$17                     ; 0x2017 <filePickModal+0x397>
    14dc: f1 14        	sbc	($14),y                 ; 0x2014 <filePickModal+0x394>
    14de: 85 15        	sta	$15                     ; 0x2015 <filePickModal+0x395>
    14e0: 18           	clc
    14e1: a5 16        	lda	$16                     ; 0x2016 <filePickModal+0x396>
    14e3: 69 10        	adc	#$10
    14e5: 85 14        	sta	$14                     ; 0x2014 <filePickModal+0x394>
    14e7: a5 15        	lda	$15                     ; 0x2015 <filePickModal+0x395>
    14e9: 69 00        	adc	#$0
    14eb: aa           	tax
    14ec: a5 14        	lda	$14                     ; 0x2014 <filePickModal+0x394>
    14ee: d2 12        	cmp	($12)                   ; 0x2012 <filePickModal+0x392>
    14f0: 8a           	txa
    14f1: f1 12        	sbc	($12),y                 ; 0x2012 <filePickModal+0x392>
    14f3: 70 02        	bvs	$14f7 <pickFile+0xa84>
    14f5: 80 04        	bra	$14fb <pickFile+0xa88>
    14f7: 49 80        	eor	#$80
    14f9: 80 02        	bra	$14fd <pickFile+0xa8a>
    14fb: 80 00        	bra	$14fd <pickFile+0xa8a>
    14fd: aa           	tax
    14fe: 30 03        	bmi	$1503 <pickFile+0xa90>
    1500: 4c 86 16     	jmp	$1686 <pickFile+0xc13>
    1503: 18           	clc
    1504: a5 10        	lda	$10                     ; 0x2010 <filePickModal+0x390>
    1506: 69 07        	adc	#$7
    1508: 85 24        	sta	$24                     ; 0x2024 <filePickModal+0x3a4>
    150a: a5 11        	lda	$11                     ; 0x2011 <filePickModal+0x391>
    150c: 69 00        	adc	#$0
    150e: 85 25        	sta	$25                     ; 0x2025 <filePickModal+0x3a5>
    1510: b2 24        	lda	($24)                   ; 0x2024 <filePickModal+0x3a4>
    1512: 85 12        	sta	$12                     ; 0x2012 <filePickModal+0x392>
    1514: a0 01        	ldy	#$1
    1516: b1 24        	lda	($24),y                 ; 0x2024 <filePickModal+0x3a4>
    1518: 85 13        	sta	$13                     ; 0x2013 <filePickModal+0x393>
    151a: b2 12        	lda	($12)                   ; 0x2012 <filePickModal+0x392>
    151c: 85 14        	sta	$14                     ; 0x2014 <filePickModal+0x394>
    151e: b2 24        	lda	($24)                   ; 0x2024 <filePickModal+0x3a4>
    1520: 85 12        	sta	$12                     ; 0x2012 <filePickModal+0x392>
    1522: b1 24        	lda	($24),y                 ; 0x2024 <filePickModal+0x3a4>
    1524: 85 13        	sta	$13                     ; 0x2013 <filePickModal+0x393>
    1526: b2 24        	lda	($24)                   ; 0x2024 <filePickModal+0x3a4>
    1528: 85 16        	sta	$16                     ; 0x2016 <filePickModal+0x396>
    152a: b1 24        	lda	($24),y                 ; 0x2024 <filePickModal+0x3a4>
    152c: 85 15        	sta	$15                     ; 0x2015 <filePickModal+0x395>
    152e: 18           	clc
    152f: a5 16        	lda	$16                     ; 0x2016 <filePickModal+0x396>
    1531: 69 e6        	adc	#$e6
    1533: aa           	tax
    1534: a5 15        	lda	$15                     ; 0x2015 <filePickModal+0x395>
    1536: 69 11        	adc	#$11
    1538: 85 15        	sta	$15                     ; 0x2015 <filePickModal+0x395>
    153a: b1 12        	lda	($12),y                 ; 0x2012 <filePickModal+0x392>
    153c: 86 12        	stx	$12                     ; 0x2012 <filePickModal+0x392>
    153e: a6 15        	ldx	$15                     ; 0x2015 <filePickModal+0x395>
    1540: 86 13        	stx	$13                     ; 0x2013 <filePickModal+0x393>
    1542: 18           	clc
    1543: 72 12        	adc	($12)                   ; 0x2012 <filePickModal+0x392>
    1545: aa           	tax
    1546: a5 14        	lda	$14                     ; 0x2014 <filePickModal+0x394>
    1548: 20 eb 31     	jsr	$31eb <textGotoXY>
    154b: a9 20        	lda	#$20
    154d: 92 10        	sta	($10)                   ; 0x2010 <filePickModal+0x390>
    154f: a9 00        	lda	#$0
    1551: a0 01        	ldy	#$1
    1553: 91 10        	sta	($10),y                 ; 0x2010 <filePickModal+0x390>
    1555: a2 b3        	ldx	#$b3
    1557: 86 12        	stx	$12                     ; 0x2012 <filePickModal+0x392>
    1559: a2 52        	ldx	#$52
    155b: 86 13        	stx	$13                     ; 0x2013 <filePickModal+0x393>
    155d: 20 e1 45     	jsr	$45e1 <printf>
    1560: b2 24        	lda	($24)                   ; 0x2024 <filePickModal+0x3a4>
    1562: 85 13        	sta	$13                     ; 0x2013 <filePickModal+0x393>
    1564: a0 01        	ldy	#$1
    1566: b1 24        	lda	($24),y                 ; 0x2024 <filePickModal+0x3a4>
    1568: 85 12        	sta	$12                     ; 0x2012 <filePickModal+0x392>
    156a: 18           	clc
    156b: a5 13        	lda	$13                     ; 0x2013 <filePickModal+0x393>
    156d: 69 e6        	adc	#$e6
    156f: aa           	tax
    1570: a5 12        	lda	$12                     ; 0x2012 <filePickModal+0x392>
    1572: 69 11        	adc	#$11
    1574: 86 12        	stx	$12                     ; 0x2012 <filePickModal+0x392>
    1576: 85 13        	sta	$13                     ; 0x2013 <filePickModal+0x393>
    1578: 38           	sec
    1579: a9 0f        	lda	#$f
    157b: f2 12        	sbc	($12)                   ; 0x2012 <filePickModal+0x392>
    157d: aa           	tax
    157e: a9 00        	lda	#$0
    1580: f1 12        	sbc	($12),y                 ; 0x2012 <filePickModal+0x392>
    1582: 85 15        	sta	$15                     ; 0x2015 <filePickModal+0x395>
    1584: b2 24        	lda	($24)                   ; 0x2024 <filePickModal+0x3a4>
    1586: 85 13        	sta	$13                     ; 0x2013 <filePickModal+0x393>
    1588: b1 24        	lda	($24),y                 ; 0x2024 <filePickModal+0x3a4>
    158a: 85 12        	sta	$12                     ; 0x2012 <filePickModal+0x392>
    158c: 18           	clc
    158d: a5 13        	lda	$13                     ; 0x2013 <filePickModal+0x393>
    158f: 69 e4        	adc	#$e4
    1591: 85 14        	sta	$14                     ; 0x2014 <filePickModal+0x394>
    1593: a5 12        	lda	$12                     ; 0x2012 <filePickModal+0x392>
    1595: 69 11        	adc	#$11
    1597: 5a           	phy
    1598: a4 14        	ldy	$14                     ; 0x2014 <filePickModal+0x394>
    159a: 84 12        	sty	$12                     ; 0x2012 <filePickModal+0x392>
    159c: 7a           	ply
    159d: 85 13        	sta	$13                     ; 0x2013 <filePickModal+0x393>
    159f: 18           	clc
    15a0: 8a           	txa
    15a1: 72 12        	adc	($12)                   ; 0x2012 <filePickModal+0x392>
    15a3: 85 14        	sta	$14                     ; 0x2014 <filePickModal+0x394>
    15a5: a5 15        	lda	$15                     ; 0x2015 <filePickModal+0x395>
    15a7: 71 12        	adc	($12),y                 ; 0x2012 <filePickModal+0x392>
    15a9: 85 15        	sta	$15                     ; 0x2015 <filePickModal+0x395>
    15ab: a5 14        	lda	$14                     ; 0x2014 <filePickModal+0x394>
    15ad: 92 12        	sta	($12)                   ; 0x2012 <filePickModal+0x392>
    15af: a5 15        	lda	$15                     ; 0x2015 <filePickModal+0x395>
    15b1: 91 12        	sta	($12),y                 ; 0x2012 <filePickModal+0x392>
    15b3: b2 24        	lda	($24)                   ; 0x2024 <filePickModal+0x3a4>
    15b5: 85 13        	sta	$13                     ; 0x2013 <filePickModal+0x393>
    15b7: b1 24        	lda	($24),y                 ; 0x2024 <filePickModal+0x3a4>
    15b9: 85 12        	sta	$12                     ; 0x2012 <filePickModal+0x392>
    15bb: 18           	clc
    15bc: a5 13        	lda	$13                     ; 0x2013 <filePickModal+0x393>
    15be: 69 e6        	adc	#$e6
    15c0: aa           	tax
    15c1: a5 12        	lda	$12                     ; 0x2012 <filePickModal+0x392>
    15c3: 69 11        	adc	#$11
    15c5: 86 12        	stx	$12                     ; 0x2012 <filePickModal+0x392>
    15c7: 85 13        	sta	$13                     ; 0x2013 <filePickModal+0x393>
    15c9: a9 00        	lda	#$0
    15cb: 92 12        	sta	($12)                   ; 0x2012 <filePickModal+0x392>
    15cd: 91 12        	sta	($12),y                 ; 0x2012 <filePickModal+0x392>
    15cf: b2 24        	lda	($24)                   ; 0x2024 <filePickModal+0x3a4>
    15d1: 85 13        	sta	$13                     ; 0x2013 <filePickModal+0x393>
    15d3: b1 24        	lda	($24),y                 ; 0x2024 <filePickModal+0x3a4>
    15d5: 85 12        	sta	$12                     ; 0x2012 <filePickModal+0x392>
    15d7: 18           	clc
    15d8: a5 13        	lda	$13                     ; 0x2013 <filePickModal+0x393>
    15da: 69 e8        	adc	#$e8
    15dc: aa           	tax
    15dd: a5 12        	lda	$12                     ; 0x2012 <filePickModal+0x392>
    15df: 69 11        	adc	#$11
    15e1: 86 12        	stx	$12                     ; 0x2012 <filePickModal+0x392>
    15e3: 85 13        	sta	$13                     ; 0x2013 <filePickModal+0x393>
    15e5: b2 12        	lda	($12)                   ; 0x2012 <filePickModal+0x392>
    15e7: 85 15        	sta	$15                     ; 0x2015 <filePickModal+0x395>
    15e9: b1 12        	lda	($12),y                 ; 0x2012 <filePickModal+0x392>
    15eb: 85 14        	sta	$14                     ; 0x2014 <filePickModal+0x394>
    15ed: 18           	clc
    15ee: a5 15        	lda	$15                     ; 0x2015 <filePickModal+0x395>
    15f0: 69 0f        	adc	#$f
    15f2: 85 15        	sta	$15                     ; 0x2015 <filePickModal+0x395>
    15f4: a5 14        	lda	$14                     ; 0x2014 <filePickModal+0x394>
    15f6: 69 00        	adc	#$0
    15f8: aa           	tax
    15f9: a5 15        	lda	$15                     ; 0x2015 <filePickModal+0x395>
    15fb: 92 12        	sta	($12)                   ; 0x2012 <filePickModal+0x392>
    15fd: 8a           	txa
    15fe: 91 12        	sta	($12),y                 ; 0x2012 <filePickModal+0x392>
    1600: b2 24        	lda	($24)                   ; 0x2024 <filePickModal+0x3a4>
    1602: 85 12        	sta	$12                     ; 0x2012 <filePickModal+0x392>
    1604: b1 24        	lda	($24),y                 ; 0x2024 <filePickModal+0x3a4>
    1606: 85 13        	sta	$13                     ; 0x2013 <filePickModal+0x393>
    1608: b2 24        	lda	($24)                   ; 0x2024 <filePickModal+0x3a4>
    160a: 85 15        	sta	$15                     ; 0x2015 <filePickModal+0x395>
    160c: b1 24        	lda	($24),y                 ; 0x2024 <filePickModal+0x3a4>
    160e: 85 14        	sta	$14                     ; 0x2014 <filePickModal+0x394>
    1610: a0 01        	ldy	#$1
    1612: 18           	clc
    1613: a5 15        	lda	$15                     ; 0x2015 <filePickModal+0x395>
    1615: 69 e8        	adc	#$e8
    1617: aa           	tax
    1618: a5 14        	lda	$14                     ; 0x2014 <filePickModal+0x394>
    161a: 69 11        	adc	#$11
    161c: 86 14        	stx	$14                     ; 0x2014 <filePickModal+0x394>
    161e: 85 15        	sta	$15                     ; 0x2015 <filePickModal+0x395>
    1620: b2 14        	lda	($14)                   ; 0x2014 <filePickModal+0x394>
    1622: 85 16        	sta	$16                     ; 0x2016 <filePickModal+0x396>
    1624: b1 14        	lda	($14),y                 ; 0x2014 <filePickModal+0x394>
    1626: aa           	tax
    1627: a5 16        	lda	$16                     ; 0x2016 <filePickModal+0x396>
    1629: 20 c1 16     	jsr	$16c1 <displayFileList>
    162c: b2 24        	lda	($24)                   ; 0x2024 <filePickModal+0x3a4>
    162e: 85 12        	sta	$12                     ; 0x2012 <filePickModal+0x392>
    1630: a0 01        	ldy	#$1
    1632: b1 24        	lda	($24),y                 ; 0x2024 <filePickModal+0x3a4>
    1634: 85 13        	sta	$13                     ; 0x2013 <filePickModal+0x393>
    1636: b2 24        	lda	($24)                   ; 0x2024 <filePickModal+0x3a4>
    1638: 85 14        	sta	$14                     ; 0x2014 <filePickModal+0x394>
    163a: b1 24        	lda	($24),y                 ; 0x2024 <filePickModal+0x3a4>
    163c: 85 15        	sta	$15                     ; 0x2015 <filePickModal+0x395>
    163e: b2 24        	lda	($24)                   ; 0x2024 <filePickModal+0x3a4>
    1640: 85 16        	sta	$16                     ; 0x2016 <filePickModal+0x396>
    1642: b1 24        	lda	($24),y                 ; 0x2024 <filePickModal+0x3a4>
    1644: 85 18        	sta	$18                     ; 0x2018 <filePickModal+0x398>
    1646: a0 01        	ldy	#$1
    1648: a2 08        	ldx	#$8
    164a: 86 26        	stx	$26                     ; 0x2026 <filePickModal+0x3a6>
    164c: a2 00        	ldx	#$0
    164e: 86 27        	stx	$27                     ; 0x2027 <filePickModal+0x3a7>
    1650: 18           	clc
    1651: a5 16        	lda	$16                     ; 0x2016 <filePickModal+0x396>
    1653: 69 e6        	adc	#$e6
    1655: 85 17        	sta	$17                     ; 0x2017 <filePickModal+0x397>
    1657: a5 18        	lda	$18                     ; 0x2018 <filePickModal+0x398>
    1659: 69 11        	adc	#$11
    165b: aa           	tax
    165c: b2 12        	lda	($12)                   ; 0x2012 <filePickModal+0x392>
    165e: 85 16        	sta	$16                     ; 0x2016 <filePickModal+0x396>
    1660: a5 17        	lda	$17                     ; 0x2017 <filePickModal+0x397>
    1662: 85 12        	sta	$12                     ; 0x2012 <filePickModal+0x392>
    1664: b1 14        	lda	($14),y                 ; 0x2014 <filePickModal+0x394>
    1666: 86 13        	stx	$13                     ; 0x2013 <filePickModal+0x393>
    1668: 18           	clc
    1669: 72 12        	adc	($12)                   ; 0x2012 <filePickModal+0x392>
    166b: aa           	tax
    166c: a5 16        	lda	$16                     ; 0x2016 <filePickModal+0x396>
    166e: 20 eb 31     	jsr	$31eb <textGotoXY>
    1671: a9 fa        	lda	#$fa
    1673: 92 10        	sta	($10)                   ; 0x2010 <filePickModal+0x390>
    1675: a9 00        	lda	#$0
    1677: a0 01        	ldy	#$1
    1679: 91 10        	sta	($10),y                 ; 0x2010 <filePickModal+0x390>
    167b: a2 b3        	ldx	#$b3
    167d: 86 12        	stx	$12                     ; 0x2012 <filePickModal+0x392>
    167f: a2 52        	ldx	#$52
    1681: 86 13        	stx	$13                     ; 0x2013 <filePickModal+0x393>
    1683: 20 e1 45     	jsr	$45e1 <printf>
    1686: 4c b8 0a     	jmp	$ab8 <pickFile+0x45>
    1689: 18           	clc
    168a: a5 10        	lda	$10                     ; 0x2010 <filePickModal+0x390>
    168c: 69 09        	adc	#$9
    168e: 85 12        	sta	$12                     ; 0x2012 <filePickModal+0x392>
    1690: a5 11        	lda	$11                     ; 0x2011 <filePickModal+0x391>
    1692: 69 00        	adc	#$0
    1694: 85 13        	sta	$13                     ; 0x2013 <filePickModal+0x393>
    1696: b2 12        	lda	($12)                   ; 0x2012 <filePickModal+0x392>
    1698: 85 20        	sta	$20                     ; 0x2020 <filePickModal+0x3a0>
    169a: a0 02        	ldy	#$2
    169c: b1 10        	lda	($10),y                 ; 0x2010 <filePickModal+0x390>
    169e: 85 29        	sta	$29                     ; 0x2029 <filePickModal+0x3a9>
    16a0: c8           	iny
    16a1: b1 10        	lda	($10),y                 ; 0x2010 <filePickModal+0x390>
    16a3: 85 28        	sta	$28                     ; 0x2028 <filePickModal+0x3a8>
    16a5: fa           	plx
    16a6: 86 27        	stx	$27                     ; 0x2027 <filePickModal+0x3a7>
    16a8: fa           	plx
    16a9: 86 26        	stx	$26                     ; 0x2026 <filePickModal+0x3a6>
    16ab: fa           	plx
    16ac: 86 25        	stx	$25                     ; 0x2025 <filePickModal+0x3a5>
    16ae: fa           	plx
    16af: 86 24        	stx	$24                     ; 0x2024 <filePickModal+0x3a4>
    16b1: 18           	clc
    16b2: a5 10        	lda	$10                     ; 0x2010 <filePickModal+0x390>
    16b4: 69 0a        	adc	#$a
    16b6: 85 10        	sta	$10                     ; 0x2010 <filePickModal+0x390>
    16b8: a5 11        	lda	$11                     ; 0x2011 <filePickModal+0x391>
    16ba: 69 00        	adc	#$0
    16bc: 85 11        	sta	$11                     ; 0x2011 <filePickModal+0x391>
    16be: a5 20        	lda	$20                     ; 0x2020 <filePickModal+0x3a0>
    16c0: 60           	rts

000016c1 <displayFileList>:
    16c1: 48           	pha
    16c2: 18           	clc
    16c3: a5 10        	lda	$10                     ; 0x2010 <filePickModal+0x390>
    16c5: 69 eb        	adc	#$eb
    16c7: 85 10        	sta	$10                     ; 0x2010 <filePickModal+0x390>
    16c9: a5 11        	lda	$11                     ; 0x2011 <filePickModal+0x391>
    16cb: 69 ff        	adc	#$ff
    16cd: 85 11        	sta	$11                     ; 0x2011 <filePickModal+0x391>
    16cf: 68           	pla
    16d0: a4 24        	ldy	$24                     ; 0x2024 <filePickModal+0x3a4>
    16d2: 5a           	phy
    16d3: a4 25        	ldy	$25                     ; 0x2025 <filePickModal+0x3a5>
    16d5: 5a           	phy
    16d6: a4 26        	ldy	$26                     ; 0x2026 <filePickModal+0x3a6>
    16d8: 5a           	phy
    16d9: a4 27        	ldy	$27                     ; 0x2027 <filePickModal+0x3a7>
    16db: 5a           	phy
    16dc: 48           	pha
    16dd: a5 28        	lda	$28                     ; 0x2028 <filePickModal+0x3a8>
    16df: a0 0d        	ldy	#$d
    16e1: 91 10        	sta	($10),y                 ; 0x2010 <filePickModal+0x390>
    16e3: a5 29        	lda	$29                     ; 0x2029 <filePickModal+0x3a9>
    16e5: 88           	dey
    16e6: 91 10        	sta	($10),y                 ; 0x2010 <filePickModal+0x390>
    16e8: a5 2a        	lda	$2a                     ; 0x202a <filePickModal+0x3aa>
    16ea: 88           	dey
    16eb: 91 10        	sta	($10),y                 ; 0x2010 <filePickModal+0x390>
    16ed: a5 2b        	lda	$2b                     ; 0x202b <filePickModal+0x3ab>
    16ef: 88           	dey
    16f0: 91 10        	sta	($10),y                 ; 0x2010 <filePickModal+0x390>
    16f2: a5 2c        	lda	$2c                     ; 0x202c <filePickModal+0x3ac>
    16f4: 88           	dey
    16f5: 91 10        	sta	($10),y                 ; 0x2010 <filePickModal+0x390>
    16f7: a5 2d        	lda	$2d                     ; 0x202d <filePickModal+0x3ad>
    16f9: 88           	dey
    16fa: 91 10        	sta	($10),y                 ; 0x2010 <filePickModal+0x390>
    16fc: a5 2e        	lda	$2e                     ; 0x202e <filePickModal+0x3ae>
    16fe: 88           	dey
    16ff: 91 10        	sta	($10),y                 ; 0x2010 <filePickModal+0x390>
    1701: a5 2f        	lda	$2f                     ; 0x202f <filePickModal+0x3af>
    1703: 88           	dey
    1704: 91 10        	sta	($10),y                 ; 0x2010 <filePickModal+0x390>
    1706: 68           	pla
    1707: 85 14        	sta	$14                     ; 0x2014 <filePickModal+0x394>
    1709: 86 2a        	stx	$2a                     ; 0x202a <filePickModal+0x3aa>
    170b: a4 12        	ldy	$12                     ; 0x2012 <filePickModal+0x392>
    170d: 84 24        	sty	$24                     ; 0x2024 <filePickModal+0x3a4>
    170f: a4 13        	ldy	$13                     ; 0x2013 <filePickModal+0x393>
    1711: 84 25        	sty	$25                     ; 0x2025 <filePickModal+0x3a5>
    1713: 18           	clc
    1714: 69 10        	adc	#$10
    1716: 85 15        	sta	$15                     ; 0x2015 <filePickModal+0x395>
    1718: 8a           	txa
    1719: 69 00        	adc	#$0
    171b: 85 18        	sta	$18                     ; 0x2018 <filePickModal+0x398>
    171d: a5 24        	lda	$24                     ; 0x2024 <filePickModal+0x3a4>
    171f: 18           	clc
    1720: 69 e2        	adc	#$e2
    1722: 85 16        	sta	$16                     ; 0x2016 <filePickModal+0x396>
    1724: a5 25        	lda	$25                     ; 0x2025 <filePickModal+0x3a5>
    1726: 69 11        	adc	#$11
    1728: 86 26        	stx	$26                     ; 0x2026 <filePickModal+0x3a6>
    172a: 48           	pha
    172b: a5 14        	lda	$14                     ; 0x2014 <filePickModal+0x394>
    172d: a0 12        	ldy	#$12
    172f: 91 10        	sta	($10),y                 ; 0x2010 <filePickModal+0x390>
    1731: 68           	pla
    1732: a6 14        	ldx	$14                     ; 0x2014 <filePickModal+0x394>
    1734: e8           	inx
    1735: d0 02        	bne	$1739 <displayFileList+0x78>
    1737: e6 26        	inc	$26                     ; 0x2026 <filePickModal+0x3a6>
    1739: 85 17        	sta	$17                     ; 0x2017 <filePickModal+0x397>
    173b: a0 01        	ldy	#$1
    173d: b1 16        	lda	($16),y                 ; 0x2016 <filePickModal+0x396>
    173f: 85 12        	sta	$12                     ; 0x2012 <filePickModal+0x392>
    1741: a5 15        	lda	$15                     ; 0x2015 <filePickModal+0x395>
    1743: a0 14        	ldy	#$14
    1745: 91 10        	sta	($10),y                 ; 0x2010 <filePickModal+0x390>
    1747: d2 16        	cmp	($16)                   ; 0x2016 <filePickModal+0x396>
    1749: a5 18        	lda	$18                     ; 0x2018 <filePickModal+0x398>
    174b: 88           	dey
    174c: 91 10        	sta	($10),y                 ; 0x2010 <filePickModal+0x390>
    174e: e5 12        	sbc	$12                     ; 0x2012 <filePickModal+0x392>
    1750: 86 27        	stx	$27                     ; 0x2027 <filePickModal+0x3a7>
    1752: 50 02        	bvc	$1756 <displayFileList+0x95>
    1754: 49 80        	eor	#$80
    1756: aa           	tax
    1757: 30 0b        	bmi	$1764 <displayFileList+0xa3>
    1759: b2 16        	lda	($16)                   ; 0x2016 <filePickModal+0x396>
    175b: a0 14        	ldy	#$14
    175d: 91 10        	sta	($10),y                 ; 0x2010 <filePickModal+0x390>
    175f: a5 12        	lda	$12                     ; 0x2012 <filePickModal+0x392>
    1761: 88           	dey
    1762: 91 10        	sta	($10),y                 ; 0x2010 <filePickModal+0x390>
    1764: a5 16        	lda	$16                     ; 0x2016 <filePickModal+0x396>
    1766: a0 10        	ldy	#$10
    1768: 91 10        	sta	($10),y                 ; 0x2010 <filePickModal+0x390>
    176a: a5 17        	lda	$17                     ; 0x2017 <filePickModal+0x397>
    176c: c8           	iny
    176d: 91 10        	sta	($10),y                 ; 0x2010 <filePickModal+0x390>
    176f: b2 24        	lda	($24)                   ; 0x2024 <filePickModal+0x3a4>
    1771: 85 12        	sta	$12                     ; 0x2012 <filePickModal+0x392>
    1773: a0 01        	ldy	#$1
    1775: b1 24        	lda	($24),y                 ; 0x2024 <filePickModal+0x3a4>
    1777: aa           	tax
    1778: a5 12        	lda	$12                     ; 0x2012 <filePickModal+0x392>
    177a: 20 eb 31     	jsr	$31eb <textGotoXY>
    177d: a2 00        	ldx	#$0
    177f: a0 00        	ldy	#$0
    1781: 80 14        	bra	$1797 <displayFileList+0xd6>
    1783: e4 12        	cpx	$12                     ; 0x2012 <filePickModal+0x392>
    1785: a5 29        	lda	$29                     ; 0x2029 <filePickModal+0x3a9>
    1787: 90 14        	bcc	$179d <displayFileList+0xdc>
    1789: a9 0a        	lda	#$a
    178b: 20 21 49     	jsr	$4921 <putchar>
    178e: a2 00        	ldx	#$0
    1790: a4 28        	ldy	$28                     ; 0x2028 <filePickModal+0x3a8>
    1792: c8           	iny
    1793: c0 11        	cpy	#$11
    1795: f0 2c        	beq	$17c3 <displayFileList+0x102>
    1797: 84 28        	sty	$28                     ; 0x2028 <filePickModal+0x3a8>
    1799: a0 01        	ldy	#$1
    179b: b1 24        	lda	($24),y                 ; 0x2024 <filePickModal+0x3a4>
    179d: 1a           	inc
    179e: 85 29        	sta	$29                     ; 0x2029 <filePickModal+0x3a9>
    17a0: a9 20        	lda	#$20
    17a2: 20 21 49     	jsr	$4921 <putchar>
    17a5: a0 01        	ldy	#$1
    17a7: b1 24        	lda	($24),y                 ; 0x2024 <filePickModal+0x3a4>
    17a9: 18           	clc
    17aa: 69 2c        	adc	#$2c
    17ac: a8           	tay
    17ad: a9 00        	lda	#$0
    17af: 69 00        	adc	#$0
    17b1: 85 12        	sta	$12                     ; 0x2012 <filePickModal+0x392>
    17b3: a2 00        	ldx	#$0
    17b5: e4 12        	cpx	$12                     ; 0x2012 <filePickModal+0x392>
    17b7: d0 ca        	bne	$1783 <displayFileList+0xc2>
    17b9: 84 12        	sty	$12                     ; 0x2012 <filePickModal+0x392>
    17bb: a5 29        	lda	$29                     ; 0x2029 <filePickModal+0x3a9>
    17bd: c5 12        	cmp	$12                     ; 0x2012 <filePickModal+0x392>
    17bf: 90 dc        	bcc	$179d <displayFileList+0xdc>
    17c1: 80 c6        	bra	$1789 <displayFileList+0xc8>
    17c3: b2 24        	lda	($24)                   ; 0x2024 <filePickModal+0x3a4>
    17c5: 85 12        	sta	$12                     ; 0x2012 <filePickModal+0x392>
    17c7: a0 01        	ldy	#$1
    17c9: b1 24        	lda	($24),y                 ; 0x2024 <filePickModal+0x3a4>
    17cb: aa           	tax
    17cc: a5 12        	lda	$12                     ; 0x2012 <filePickModal+0x392>
    17ce: 20 eb 31     	jsr	$31eb <textGotoXY>
    17d1: a5 24        	lda	$24                     ; 0x2024 <filePickModal+0x3a4>
    17d3: 18           	clc
    17d4: 69 e6        	adc	#$e6
    17d6: 85 14        	sta	$14                     ; 0x2014 <filePickModal+0x394>
    17d8: a5 25        	lda	$25                     ; 0x2025 <filePickModal+0x3a5>
    17da: 69 11        	adc	#$11
    17dc: 85 15        	sta	$15                     ; 0x2015 <filePickModal+0x395>
    17de: b2 14        	lda	($14)                   ; 0x2014 <filePickModal+0x394>
    17e0: 85 16        	sta	$16                     ; 0x2016 <filePickModal+0x396>
    17e2: a5 14        	lda	$14                     ; 0x2014 <filePickModal+0x394>
    17e4: a0 0e        	ldy	#$e
    17e6: 91 10        	sta	($10),y                 ; 0x2010 <filePickModal+0x390>
    17e8: a5 15        	lda	$15                     ; 0x2015 <filePickModal+0x395>
    17ea: c8           	iny
    17eb: 91 10        	sta	($10),y                 ; 0x2010 <filePickModal+0x390>
    17ed: a0 01        	ldy	#$1
    17ef: b1 14        	lda	($14),y                 ; 0x2014 <filePickModal+0x394>
    17f1: 64 14        	stz	$14                     ; 0x2014 <filePickModal+0x394>
    17f3: d0 07        	bne	$17fc <displayFileList+0x13b>
    17f5: a5 16        	lda	$16                     ; 0x2016 <filePickModal+0x396>
    17f7: d0 03        	bne	$17fc <displayFileList+0x13b>
    17f9: 4c a6 1a     	jmp	$1aa6 <displayFileList+0x3e5>
    17fc: a0 20        	ldy	#$20
    17fe: a5 24        	lda	$24                     ; 0x2024 <filePickModal+0x3a4>
    1800: 18           	clc
    1801: 69 4e        	adc	#$4e
    1803: 85 15        	sta	$15                     ; 0x2015 <filePickModal+0x395>
    1805: a5 25        	lda	$25                     ; 0x2025 <filePickModal+0x3a5>
    1807: 69 00        	adc	#$0
    1809: 85 16        	sta	$16                     ; 0x2016 <filePickModal+0x396>
    180b: 18           	clc
    180c: a5 24        	lda	$24                     ; 0x2024 <filePickModal+0x3a4>
    180e: 69 7e        	adc	#$7e
    1810: aa           	tax
    1811: a5 25        	lda	$25                     ; 0x2025 <filePickModal+0x3a5>
    1813: 69 11        	adc	#$11
    1815: 86 12        	stx	$12                     ; 0x2012 <filePickModal+0x392>
    1817: 85 13        	sta	$13                     ; 0x2013 <filePickModal+0x393>
    1819: b2 12        	lda	($12)                   ; 0x2012 <filePickModal+0x392>
    181b: 29 01        	and	#$1
    181d: a2 9e        	ldx	#$9e
    181f: 86 12        	stx	$12                     ; 0x2012 <filePickModal+0x392>
    1821: a2 52        	ldx	#$52
    1823: 86 13        	stx	$13                     ; 0x2013 <filePickModal+0x393>
    1825: aa           	tax
    1826: d0 08        	bne	$1830 <displayFileList+0x16f>
    1828: a2 46        	ldx	#$46
    182a: 86 12        	stx	$12                     ; 0x2012 <filePickModal+0x392>
    182c: a2 52        	ldx	#$52
    182e: 86 13        	stx	$13                     ; 0x2013 <filePickModal+0x393>
    1830: a6 10        	ldx	$10                     ; 0x2010 <filePickModal+0x390>
    1832: 98           	tya
    1833: 92 10        	sta	($10)                   ; 0x2010 <filePickModal+0x390>
    1835: a0 01        	ldy	#$1
    1837: a9 00        	lda	#$0
    1839: 91 10        	sta	($10),y                 ; 0x2010 <filePickModal+0x390>
    183b: c8           	iny
    183c: a5 15        	lda	$15                     ; 0x2015 <filePickModal+0x395>
    183e: 91 10        	sta	($10),y                 ; 0x2010 <filePickModal+0x390>
    1840: 18           	clc
    1841: 8a           	txa
    1842: 69 02        	adc	#$2
    1844: 85 14        	sta	$14                     ; 0x2014 <filePickModal+0x394>
    1846: a5 11        	lda	$11                     ; 0x2011 <filePickModal+0x391>
    1848: 69 00        	adc	#$0
    184a: 18           	clc
    184b: 85 15        	sta	$15                     ; 0x2015 <filePickModal+0x395>
    184d: a5 16        	lda	$16                     ; 0x2016 <filePickModal+0x396>
    184f: 88           	dey
    1850: 91 14        	sta	($14),y                 ; 0x2014 <filePickModal+0x394>
    1852: 8a           	txa
    1853: 69 04        	adc	#$4
    1855: 85 14        	sta	$14                     ; 0x2014 <filePickModal+0x394>
    1857: a5 11        	lda	$11                     ; 0x2011 <filePickModal+0x391>
    1859: 69 00        	adc	#$0
    185b: 85 15        	sta	$15                     ; 0x2015 <filePickModal+0x395>
    185d: a5 12        	lda	$12                     ; 0x2012 <filePickModal+0x392>
    185f: a0 04        	ldy	#$4
    1861: 91 10        	sta	($10),y                 ; 0x2010 <filePickModal+0x390>
    1863: a0 01        	ldy	#$1
    1865: a5 13        	lda	$13                     ; 0x2013 <filePickModal+0x393>
    1867: 91 14        	sta	($14),y                 ; 0x2014 <filePickModal+0x394>
    1869: a2 ec        	ldx	#$ec
    186b: 86 12        	stx	$12                     ; 0x2012 <filePickModal+0x392>
    186d: a2 52        	ldx	#$52
    186f: 86 13        	stx	$13                     ; 0x2013 <filePickModal+0x393>
    1871: 20 e1 45     	jsr	$45e1 <printf>
    1874: a0 14        	ldy	#$14
    1876: b1 10        	lda	($10),y                 ; 0x2010 <filePickModal+0x390>
    1878: 85 12        	sta	$12                     ; 0x2012 <filePickModal+0x392>
    187a: a6 27        	ldx	$27                     ; 0x2027 <filePickModal+0x3a7>
    187c: e4 12        	cpx	$12                     ; 0x2012 <filePickModal+0x392>
    187e: 88           	dey
    187f: b1 10        	lda	($10),y                 ; 0x2010 <filePickModal+0x390>
    1881: 85 12        	sta	$12                     ; 0x2012 <filePickModal+0x392>
    1883: a5 26        	lda	$26                     ; 0x2026 <filePickModal+0x3a6>
    1885: e5 12        	sbc	$12                     ; 0x2012 <filePickModal+0x392>
    1887: 50 02        	bvc	$188b <displayFileList+0x1ca>
    1889: 49 80        	eor	#$80
    188b: aa           	tax
    188c: 30 03        	bmi	$1891 <displayFileList+0x1d0>
    188e: 4c a1 19     	jmp	$19a1 <displayFileList+0x2e0>
    1891: a5 24        	lda	$24                     ; 0x2024 <filePickModal+0x3a4>
    1893: 18           	clc
    1894: 69 e4        	adc	#$e4
    1896: 85 2c        	sta	$2c                     ; 0x202c <filePickModal+0x3ac>
    1898: a5 25        	lda	$25                     ; 0x2025 <filePickModal+0x3a5>
    189a: 69 11        	adc	#$11
    189c: 85 2d        	sta	$2d                     ; 0x202d <filePickModal+0x3ad>
    189e: a0 12        	ldy	#$12
    18a0: b1 10        	lda	($10),y                 ; 0x2010 <filePickModal+0x390>
    18a2: a8           	tay
    18a3: 85 12        	sta	$12                     ; 0x2012 <filePickModal+0x392>
    18a5: a5 24        	lda	$24                     ; 0x2024 <filePickModal+0x3a4>
    18a7: 18           	clc
    18a8: 65 12        	adc	$12                     ; 0x2012 <filePickModal+0x392>
    18aa: aa           	tax
    18ab: a5 25        	lda	$25                     ; 0x2025 <filePickModal+0x3a5>
    18ad: 65 2a        	adc	$2a                     ; 0x202a <filePickModal+0x3aa>
    18af: 85 12        	sta	$12                     ; 0x2012 <filePickModal+0x392>
    18b1: 18           	clc
    18b2: 8a           	txa
    18b3: 69 7f        	adc	#$7f
    18b5: 85 2e        	sta	$2e                     ; 0x202e <filePickModal+0x3ae>
    18b7: a5 12        	lda	$12                     ; 0x2012 <filePickModal+0x392>
    18b9: 69 11        	adc	#$11
    18bb: 85 2f        	sta	$2f                     ; 0x202f <filePickModal+0x3af>
    18bd: a2 2c        	ldx	#$2c
    18bf: 64 13        	stz	$13                     ; 0x2013 <filePickModal+0x393>
    18c1: 86 12        	stx	$12                     ; 0x2012 <filePickModal+0x392>
    18c3: a6 2a        	ldx	$2a                     ; 0x202a <filePickModal+0x3aa>
    18c5: 98           	tya
    18c6: 20 ae 4e     	jsr	$4eae <__mulhi3>
    18c9: 18           	clc
    18ca: 65 24        	adc	$24                     ; 0x2024 <filePickModal+0x3a4>
    18cc: a8           	tay
    18cd: 8a           	txa
    18ce: 65 25        	adc	$25                     ; 0x2025 <filePickModal+0x3a5>
    18d0: 85 12        	sta	$12                     ; 0x2012 <filePickModal+0x392>
    18d2: 18           	clc
    18d3: 98           	tya
    18d4: 69 7a        	adc	#$7a
    18d6: 85 2a        	sta	$2a                     ; 0x202a <filePickModal+0x3aa>
    18d8: a5 12        	lda	$12                     ; 0x2012 <filePickModal+0x392>
    18da: 69 00        	adc	#$0
    18dc: 85 2b        	sta	$2b                     ; 0x202b <filePickModal+0x3ab>
    18de: a0 01        	ldy	#$1
    18e0: b2 24        	lda	($24)                   ; 0x2024 <filePickModal+0x3a4>
    18e2: 85 12        	sta	$12                     ; 0x2012 <filePickModal+0x392>
    18e4: 84 28        	sty	$28                     ; 0x2028 <filePickModal+0x3a8>
    18e6: 98           	tya
    18e7: 18           	clc
    18e8: a0 01        	ldy	#$1
    18ea: 71 24        	adc	($24),y                 ; 0x2024 <filePickModal+0x3a4>
    18ec: aa           	tax
    18ed: a5 12        	lda	$12                     ; 0x2012 <filePickModal+0x392>
    18ef: 20 eb 31     	jsr	$31eb <textGotoXY>
    18f2: a0 01        	ldy	#$1
    18f4: a5 26        	lda	$26                     ; 0x2026 <filePickModal+0x3a6>
    18f6: d1 2c        	cmp	($2c),y                 ; 0x202c <filePickModal+0x3ac>
    18f8: d0 0e        	bne	$1908 <displayFileList+0x247>
    18fa: b2 2c        	lda	($2c)                   ; 0x202c <filePickModal+0x3ac>
    18fc: 85 12        	sta	$12                     ; 0x2012 <filePickModal+0x392>
    18fe: a6 27        	ldx	$27                     ; 0x2027 <filePickModal+0x3a7>
    1900: e4 12        	cpx	$12                     ; 0x2012 <filePickModal+0x392>
    1902: d0 04        	bne	$1908 <displayFileList+0x247>
    1904: a9 fa        	lda	#$fa
    1906: 80 02        	bra	$190a <displayFileList+0x249>
    1908: a9 20        	lda	#$20
    190a: a2 00        	ldx	#$0
    190c: 20 21 49     	jsr	$4921 <putchar>
    190f: b2 2e        	lda	($2e)                   ; 0x202e <filePickModal+0x3ae>
    1911: 29 01        	and	#$1
    1913: a2 9e        	ldx	#$9e
    1915: 86 12        	stx	$12                     ; 0x2012 <filePickModal+0x392>
    1917: a2 52        	ldx	#$52
    1919: 86 13        	stx	$13                     ; 0x2013 <filePickModal+0x393>
    191b: aa           	tax
    191c: d0 08        	bne	$1926 <displayFileList+0x265>
    191e: a2 46        	ldx	#$46
    1920: 86 12        	stx	$12                     ; 0x2012 <filePickModal+0x392>
    1922: a2 52        	ldx	#$52
    1924: 86 13        	stx	$13                     ; 0x2013 <filePickModal+0x393>
    1926: a5 10        	lda	$10                     ; 0x2010 <filePickModal+0x390>
    1928: a6 11        	ldx	$11                     ; 0x2011 <filePickModal+0x391>
    192a: 18           	clc
    192b: 69 02        	adc	#$2
    192d: 85 14        	sta	$14                     ; 0x2014 <filePickModal+0x394>
    192f: 8a           	txa
    1930: 69 00        	adc	#$0
    1932: 85 15        	sta	$15                     ; 0x2015 <filePickModal+0x395>
    1934: a5 2a        	lda	$2a                     ; 0x202a <filePickModal+0x3aa>
    1936: 92 10        	sta	($10)                   ; 0x2010 <filePickModal+0x390>
    1938: a0 01        	ldy	#$1
    193a: a5 2b        	lda	$2b                     ; 0x202b <filePickModal+0x3ab>
    193c: 91 10        	sta	($10),y                 ; 0x2010 <filePickModal+0x390>
    193e: a5 12        	lda	$12                     ; 0x2012 <filePickModal+0x392>
    1940: c8           	iny
    1941: 91 10        	sta	($10),y                 ; 0x2010 <filePickModal+0x390>
    1943: 88           	dey
    1944: a5 13        	lda	$13                     ; 0x2013 <filePickModal+0x393>
    1946: 91 14        	sta	($14),y                 ; 0x2014 <filePickModal+0x394>
    1948: a2 99        	ldx	#$99
    194a: 86 12        	stx	$12                     ; 0x2012 <filePickModal+0x392>
    194c: a2 52        	ldx	#$52
    194e: 86 13        	stx	$13                     ; 0x2013 <filePickModal+0x393>
    1950: 20 e1 45     	jsr	$45e1 <printf>
    1953: a6 27        	ldx	$27                     ; 0x2027 <filePickModal+0x3a7>
    1955: 86 12        	stx	$12                     ; 0x2012 <filePickModal+0x392>
    1957: a6 26        	ldx	$26                     ; 0x2026 <filePickModal+0x3a6>
    1959: 86 13        	stx	$13                     ; 0x2013 <filePickModal+0x393>
    195b: e6 12        	inc	$12                     ; 0x2012 <filePickModal+0x392>
    195d: d0 02        	bne	$1961 <displayFileList+0x2a0>
    195f: e6 13        	inc	$13                     ; 0x2013 <filePickModal+0x393>
    1961: e6 2e        	inc	$2e                     ; 0x202e <filePickModal+0x3ae>
    1963: d0 02        	bne	$1967 <displayFileList+0x2a6>
    1965: e6 2f        	inc	$2f                     ; 0x202f <filePickModal+0x3af>
    1967: 18           	clc
    1968: a5 2a        	lda	$2a                     ; 0x202a <filePickModal+0x3aa>
    196a: 69 2c        	adc	#$2c
    196c: 85 2a        	sta	$2a                     ; 0x202a <filePickModal+0x3aa>
    196e: a5 2b        	lda	$2b                     ; 0x202b <filePickModal+0x3ab>
    1970: 69 00        	adc	#$0
    1972: 85 2b        	sta	$2b                     ; 0x202b <filePickModal+0x3ab>
    1974: a4 28        	ldy	$28                     ; 0x2028 <filePickModal+0x3a8>
    1976: c8           	iny
    1977: a6 12        	ldx	$12                     ; 0x2012 <filePickModal+0x392>
    1979: 86 27        	stx	$27                     ; 0x2027 <filePickModal+0x3a7>
    197b: a6 13        	ldx	$13                     ; 0x2013 <filePickModal+0x393>
    197d: 86 26        	stx	$26                     ; 0x2026 <filePickModal+0x3a6>
    197f: 5a           	phy
    1980: a0 13        	ldy	#$13
    1982: b1 10        	lda	($10),y                 ; 0x2010 <filePickModal+0x390>
    1984: 7a           	ply
    1985: c5 13        	cmp	$13                     ; 0x2013 <filePickModal+0x393>
    1987: f0 03        	beq	$198c <displayFileList+0x2cb>
    1989: 4c e0 18     	jmp	$18e0 <displayFileList+0x21f>
    198c: a6 12        	ldx	$12                     ; 0x2012 <filePickModal+0x392>
    198e: 86 27        	stx	$27                     ; 0x2027 <filePickModal+0x3a7>
    1990: a6 13        	ldx	$13                     ; 0x2013 <filePickModal+0x393>
    1992: 86 26        	stx	$26                     ; 0x2026 <filePickModal+0x3a6>
    1994: 5a           	phy
    1995: a0 14        	ldy	#$14
    1997: b1 10        	lda	($10),y                 ; 0x2010 <filePickModal+0x390>
    1999: 7a           	ply
    199a: c5 12        	cmp	$12                     ; 0x2012 <filePickModal+0x392>
    199c: f0 03        	beq	$19a1 <displayFileList+0x2e0>
    199e: 4c e0 18     	jmp	$18e0 <displayFileList+0x21f>
    19a1: a0 12        	ldy	#$12
    19a3: b1 10        	lda	($10),y                 ; 0x2010 <filePickModal+0x390>
    19a5: 49 ff        	eor	#$ff
    19a7: 85 12        	sta	$12                     ; 0x2012 <filePickModal+0x392>
    19a9: a9 02        	lda	#$2
    19ab: 18           	clc
    19ac: 72 24        	adc	($24)                   ; 0x2024 <filePickModal+0x3a4>
    19ae: 85 13        	sta	$13                     ; 0x2013 <filePickModal+0x393>
    19b0: a0 01        	ldy	#$1
    19b2: 18           	clc
    19b3: 5a           	phy
    19b4: a0 14        	ldy	#$14
    19b6: b1 10        	lda	($10),y                 ; 0x2010 <filePickModal+0x390>
    19b8: 7a           	ply
    19b9: 65 12        	adc	$12                     ; 0x2012 <filePickModal+0x392>
    19bb: 18           	clc
    19bc: 71 24        	adc	($24),y                 ; 0x2024 <filePickModal+0x3a4>
    19be: 1a           	inc
    19bf: aa           	tax
    19c0: a5 13        	lda	$13                     ; 0x2013 <filePickModal+0x393>
    19c2: 20 eb 31     	jsr	$31eb <textGotoXY>
    19c5: a5 24        	lda	$24                     ; 0x2024 <filePickModal+0x3a4>
    19c7: 18           	clc
    19c8: 69 e4        	adc	#$e4
    19ca: 85 12        	sta	$12                     ; 0x2012 <filePickModal+0x392>
    19cc: a5 25        	lda	$25                     ; 0x2025 <filePickModal+0x3a5>
    19ce: 69 11        	adc	#$11
    19d0: 85 13        	sta	$13                     ; 0x2013 <filePickModal+0x393>
    19d2: b2 12        	lda	($12)                   ; 0x2012 <filePickModal+0x392>
    19d4: 85 14        	sta	$14                     ; 0x2014 <filePickModal+0x394>
    19d6: a0 01        	ldy	#$1
    19d8: b1 12        	lda	($12),y                 ; 0x2012 <filePickModal+0x392>
    19da: a4 14        	ldy	$14                     ; 0x2014 <filePickModal+0x394>
    19dc: 84 16        	sty	$16                     ; 0x2016 <filePickModal+0x396>
    19de: c0 0f        	cpy	#$f
    19e0: aa           	tax
    19e1: e9 00        	sbc	#$0
    19e3: 50 02        	bvc	$19e7 <displayFileList+0x326>
    19e5: 49 80        	eor	#$80
    19e7: 48           	pha
    19e8: a0 10        	ldy	#$10
    19ea: b1 10        	lda	($10),y                 ; 0x2010 <filePickModal+0x390>
    19ec: 85 12        	sta	$12                     ; 0x2012 <filePickModal+0x392>
    19ee: c8           	iny
    19ef: b1 10        	lda	($10),y                 ; 0x2010 <filePickModal+0x390>
    19f1: 85 13        	sta	$13                     ; 0x2013 <filePickModal+0x393>
    19f3: 68           	pla
    19f4: a0 fb        	ldy	#$fb
    19f6: 48           	pha
    19f7: 98           	tya
    19f8: a0 14        	ldy	#$14
    19fa: 91 10        	sta	($10),y                 ; 0x2010 <filePickModal+0x390>
    19fc: 68           	pla
    19fd: 64 18        	stz	$18                     ; 0x2018 <filePickModal+0x398>
    19ff: 10 07        	bpl	$1a08 <displayFileList+0x347>
    1a01: a0 20        	ldy	#$20
    1a03: 98           	tya
    1a04: a0 14        	ldy	#$14
    1a06: 91 10        	sta	($10),y                 ; 0x2010 <filePickModal+0x390>
    1a08: a0 01        	ldy	#$1
    1a0a: 18           	clc
    1a0b: a5 16        	lda	$16                     ; 0x2016 <filePickModal+0x396>
    1a0d: 69 10        	adc	#$10
    1a0f: 85 19        	sta	$19                     ; 0x2019 <filePickModal+0x399>
    1a11: 8a           	txa
    1a12: 69 00        	adc	#$0
    1a14: aa           	tax
    1a15: 38           	sec
    1a16: 5a           	phy
    1a17: a0 0e        	ldy	#$e
    1a19: b1 10        	lda	($10),y                 ; 0x2010 <filePickModal+0x390>
    1a1b: 85 16        	sta	$16                     ; 0x2016 <filePickModal+0x396>
    1a1d: c8           	iny
    1a1e: b1 10        	lda	($10),y                 ; 0x2010 <filePickModal+0x390>
    1a20: 7a           	ply
    1a21: 85 17        	sta	$17                     ; 0x2017 <filePickModal+0x397>
    1a23: a5 19        	lda	$19                     ; 0x2019 <filePickModal+0x399>
    1a25: f2 16        	sbc	($16)                   ; 0x2016 <filePickModal+0x396>
    1a27: 85 14        	sta	$14                     ; 0x2014 <filePickModal+0x394>
    1a29: 8a           	txa
    1a2a: f1 16        	sbc	($16),y                 ; 0x2016 <filePickModal+0x396>
    1a2c: aa           	tax
    1a2d: a5 14        	lda	$14                     ; 0x2014 <filePickModal+0x394>
    1a2f: d2 12        	cmp	($12)                   ; 0x2012 <filePickModal+0x392>
    1a31: 8a           	txa
    1a32: f1 12        	sbc	($12),y                 ; 0x2012 <filePickModal+0x392>
    1a34: 50 02        	bvc	$1a38 <displayFileList+0x377>
    1a36: 49 80        	eor	#$80
    1a38: 64 14        	stz	$14                     ; 0x2014 <filePickModal+0x394>
    1a3a: aa           	tax
    1a3b: 10 04        	bpl	$1a41 <displayFileList+0x380>
    1a3d: a2 f8        	ldx	#$f8
    1a3f: 80 02        	bra	$1a43 <displayFileList+0x382>
    1a41: a2 20        	ldx	#$20
    1a43: a0 14        	ldy	#$14
    1a45: b1 10        	lda	($10),y                 ; 0x2010 <filePickModal+0x390>
    1a47: 92 10        	sta	($10)                   ; 0x2010 <filePickModal+0x390>
    1a49: a0 01        	ldy	#$1
    1a4b: a9 00        	lda	#$0
    1a4d: 91 10        	sta	($10),y                 ; 0x2010 <filePickModal+0x390>
    1a4f: c8           	iny
    1a50: 8a           	txa
    1a51: 91 10        	sta	($10),y                 ; 0x2010 <filePickModal+0x390>
    1a53: c8           	iny
    1a54: a9 00        	lda	#$0
    1a56: 91 10        	sta	($10),y                 ; 0x2010 <filePickModal+0x390>
    1a58: a2 17        	ldx	#$17
    1a5a: 86 12        	stx	$12                     ; 0x2012 <filePickModal+0x392>
    1a5c: a2 53        	ldx	#$53
    1a5e: 86 13        	stx	$13                     ; 0x2013 <filePickModal+0x393>
    1a60: 20 e1 45     	jsr	$45e1 <printf>
    1a63: a0 06        	ldy	#$6
    1a65: b1 10        	lda	($10),y                 ; 0x2010 <filePickModal+0x390>
    1a67: 85 2f        	sta	$2f                     ; 0x202f <filePickModal+0x3af>
    1a69: c8           	iny
    1a6a: b1 10        	lda	($10),y                 ; 0x2010 <filePickModal+0x390>
    1a6c: 85 2e        	sta	$2e                     ; 0x202e <filePickModal+0x3ae>
    1a6e: c8           	iny
    1a6f: b1 10        	lda	($10),y                 ; 0x2010 <filePickModal+0x390>
    1a71: 85 2d        	sta	$2d                     ; 0x202d <filePickModal+0x3ad>
    1a73: c8           	iny
    1a74: b1 10        	lda	($10),y                 ; 0x2010 <filePickModal+0x390>
    1a76: 85 2c        	sta	$2c                     ; 0x202c <filePickModal+0x3ac>
    1a78: c8           	iny
    1a79: b1 10        	lda	($10),y                 ; 0x2010 <filePickModal+0x390>
    1a7b: 85 2b        	sta	$2b                     ; 0x202b <filePickModal+0x3ab>
    1a7d: c8           	iny
    1a7e: b1 10        	lda	($10),y                 ; 0x2010 <filePickModal+0x390>
    1a80: 85 2a        	sta	$2a                     ; 0x202a <filePickModal+0x3aa>
    1a82: c8           	iny
    1a83: b1 10        	lda	($10),y                 ; 0x2010 <filePickModal+0x390>
    1a85: 85 29        	sta	$29                     ; 0x2029 <filePickModal+0x3a9>
    1a87: c8           	iny
    1a88: b1 10        	lda	($10),y                 ; 0x2010 <filePickModal+0x390>
    1a8a: 85 28        	sta	$28                     ; 0x2028 <filePickModal+0x3a8>
    1a8c: fa           	plx
    1a8d: 86 27        	stx	$27                     ; 0x2027 <filePickModal+0x3a7>
    1a8f: fa           	plx
    1a90: 86 26        	stx	$26                     ; 0x2026 <filePickModal+0x3a6>
    1a92: fa           	plx
    1a93: 86 25        	stx	$25                     ; 0x2025 <filePickModal+0x3a5>
    1a95: fa           	plx
    1a96: 86 24        	stx	$24                     ; 0x2024 <filePickModal+0x3a4>
    1a98: 18           	clc
    1a99: a5 10        	lda	$10                     ; 0x2010 <filePickModal+0x390>
    1a9b: 69 15        	adc	#$15
    1a9d: 85 10        	sta	$10                     ; 0x2010 <filePickModal+0x390>
    1a9f: a5 11        	lda	$11                     ; 0x2011 <filePickModal+0x391>
    1aa1: 69 00        	adc	#$0
    1aa3: 85 11        	sta	$11                     ; 0x2011 <filePickModal+0x391>
    1aa5: 60           	rts
    1aa6: a0 fa        	ldy	#$fa
    1aa8: 4c fe 17     	jmp	$17fe <displayFileList+0x13d>

00001aab <readDirectory>:
    1aab: a6 12        	ldx	$12                     ; 0x2012 <filePickModal+0x392>
    1aad: 86 9f        	stx	$9f                     ; 0x209f <filePickModal+0x41f>
    1aaf: a6 13        	ldx	$13                     ; 0x2013 <filePickModal+0x393>
    1ab1: 86 a0        	stx	$a0                     ; 0x20a0 <filePickModal+0x420>
    1ab3: a5 9f        	lda	$9f                     ; 0x209f <filePickModal+0x41f>
    1ab5: 18           	clc
    1ab6: 69 02        	adc	#$2
    1ab8: 85 12        	sta	$12                     ; 0x2012 <filePickModal+0x392>
    1aba: a5 a0        	lda	$a0                     ; 0x20a0 <filePickModal+0x420>
    1abc: 69 00        	adc	#$0
    1abe: 85 13        	sta	$13                     ; 0x2013 <filePickModal+0x393>
    1ac0: 20 e5 30     	jsr	$30e5 <fileOpenDir>
    1ac3: a6 12        	ldx	$12                     ; 0x2012 <filePickModal+0x392>
    1ac5: 86 a7        	stx	$a7                     ; 0x20a7 <filePickModal+0x427>
    1ac7: a6 13        	ldx	$13                     ; 0x2013 <filePickModal+0x393>
    1ac9: 86 a8        	stx	$a8                     ; 0x20a8 <filePickModal+0x428>
    1acb: a2 00        	ldx	#$0
    1acd: 86 12        	stx	$12                     ; 0x2012 <filePickModal+0x392>
    1acf: a2 00        	ldx	#$0
    1ad1: 86 13        	stx	$13                     ; 0x2013 <filePickModal+0x393>
    1ad3: a6 a8        	ldx	$a8                     ; 0x20a8 <filePickModal+0x428>
    1ad5: e4 13        	cpx	$13                     ; 0x2013 <filePickModal+0x393>
    1ad7: d0 09        	bne	$1ae2 <readDirectory+0x37>
    1ad9: a6 a7        	ldx	$a7                     ; 0x20a7 <filePickModal+0x427>
    1adb: e4 12        	cpx	$12                     ; 0x2012 <filePickModal+0x392>
    1add: d0 03        	bne	$1ae2 <readDirectory+0x37>
    1adf: 4c 7f 1c     	jmp	$1c7f <readDirectory+0x1d4>
    1ae2: a6 a7        	ldx	$a7                     ; 0x20a7 <filePickModal+0x427>
    1ae4: 86 12        	stx	$12                     ; 0x2012 <filePickModal+0x392>
    1ae6: a6 a8        	ldx	$a8                     ; 0x20a8 <filePickModal+0x428>
    1ae8: 86 13        	stx	$13                     ; 0x2013 <filePickModal+0x393>
    1aea: 20 c8 34     	jsr	$34c8 <fileReadDir>
    1aed: a2 01        	ldx	#$1
    1aef: 86 ab        	stx	$ab                     ; 0x20ab <filePickModal+0x42b>
    1af1: a0 00        	ldy	#$0
    1af3: ca           	dex
    1af4: 86 a5        	stx	$a5                     ; 0x20a5 <filePickModal+0x425>
    1af6: a2 00        	ldx	#$0
    1af8: 86 a6        	stx	$a6                     ; 0x20a6 <filePickModal+0x426>
    1afa: a2 00        	ldx	#$0
    1afc: 4c 30 1c     	jmp	$1c30 <readDirectory+0x185>
    1aff: a5 9e        	lda	$9e                     ; 0x209e <filePickModal+0x41e>
    1b01: f0 03        	beq	$1b06 <readDirectory+0x5b>
    1b03: 4c a3 1b     	jmp	$1ba3 <readDirectory+0xf8>
    1b06: a2 01        	ldx	#$1
    1b08: 86 a9        	stx	$a9                     ; 0x20a9 <filePickModal+0x429>
    1b0a: a6 a7        	ldx	$a7                     ; 0x20a7 <filePickModal+0x427>
    1b0c: 86 12        	stx	$12                     ; 0x2012 <filePickModal+0x392>
    1b0e: a6 a8        	ldx	$a8                     ; 0x20a8 <filePickModal+0x428>
    1b10: 86 13        	stx	$13                     ; 0x2013 <filePickModal+0x393>
    1b12: 20 c8 34     	jsr	$34c8 <fileReadDir>
    1b15: a6 12        	ldx	$12                     ; 0x2012 <filePickModal+0x392>
    1b17: 86 a1        	stx	$a1                     ; 0x20a1 <filePickModal+0x421>
    1b19: a6 13        	ldx	$13                     ; 0x2013 <filePickModal+0x393>
    1b1b: 86 a2        	stx	$a2                     ; 0x20a2 <filePickModal+0x422>
    1b1d: a6 a2        	ldx	$a2                     ; 0x20a2 <filePickModal+0x422>
    1b1f: e4 a6        	cpx	$a6                     ; 0x20a6 <filePickModal+0x426>
    1b21: d0 0c        	bne	$1b2f <readDirectory+0x84>
    1b23: a6 a1        	ldx	$a1                     ; 0x20a1 <filePickModal+0x421>
    1b25: a4 a9        	ldy	$a9                     ; 0x20a9 <filePickModal+0x429>
    1b27: e4 a5        	cpx	$a5                     ; 0x20a5 <filePickModal+0x425>
    1b29: d0 06        	bne	$1b31 <readDirectory+0x86>
    1b2b: a0 00        	ldy	#$0
    1b2d: 80 02        	bra	$1b31 <readDirectory+0x86>
    1b2f: a4 a9        	ldy	$a9                     ; 0x20a9 <filePickModal+0x429>
    1b31: 98           	tya
    1b32: d0 03        	bne	$1b37 <readDirectory+0x8c>
    1b34: 4c 41 1c     	jmp	$1c41 <readDirectory+0x196>
    1b37: a5 a1        	lda	$a1                     ; 0x20a1 <filePickModal+0x421>
    1b39: 18           	clc
    1b3a: 69 02        	adc	#$2
    1b3c: 85 a3        	sta	$a3                     ; 0x20a3 <filePickModal+0x423>
    1b3e: a5 a2        	lda	$a2                     ; 0x20a2 <filePickModal+0x422>
    1b40: 69 00        	adc	#$0
    1b42: 85 a4        	sta	$a4                     ; 0x20a4 <filePickModal+0x424>
    1b44: a6 a3        	ldx	$a3                     ; 0x20a3 <filePickModal+0x423>
    1b46: 86 12        	stx	$12                     ; 0x2012 <filePickModal+0x392>
    1b48: 85 13        	sta	$13                     ; 0x2013 <filePickModal+0x393>
    1b4a: a2 a0        	ldx	#$a0
    1b4c: 86 14        	stx	$14                     ; 0x2014 <filePickModal+0x394>
    1b4e: a2 52        	ldx	#$52
    1b50: 86 15        	stx	$15                     ; 0x2015 <filePickModal+0x395>
    1b52: 20 de 4d     	jsr	$4dde <strcmp>
    1b55: e0 00        	cpx	#$0
    1b57: d0 03        	bne	$1b5c <readDirectory+0xb1>
    1b59: aa           	tax
    1b5a: f0 37        	beq	$1b93 <readDirectory+0xe8>
    1b5c: a6 a3        	ldx	$a3                     ; 0x20a3 <filePickModal+0x423>
    1b5e: 86 12        	stx	$12                     ; 0x2012 <filePickModal+0x392>
    1b60: a6 a4        	ldx	$a4                     ; 0x20a4 <filePickModal+0x424>
    1b62: 86 13        	stx	$13                     ; 0x2013 <filePickModal+0x393>
    1b64: a2 30        	ldx	#$30
    1b66: 86 14        	stx	$14                     ; 0x2014 <filePickModal+0x394>
    1b68: a2 00        	ldx	#$0
    1b6a: 86 15        	stx	$15                     ; 0x2015 <filePickModal+0x395>
    1b6c: 20 de 4d     	jsr	$4dde <strcmp>
    1b6f: e0 00        	cpx	#$0
    1b71: d0 03        	bne	$1b76 <readDirectory+0xcb>
    1b73: aa           	tax
    1b74: f0 1d        	beq	$1b93 <readDirectory+0xe8>
    1b76: a6 9f        	ldx	$9f                     ; 0x209f <filePickModal+0x41f>
    1b78: 86 12        	stx	$12                     ; 0x2012 <filePickModal+0x392>
    1b7a: a6 a0        	ldx	$a0                     ; 0x20a0 <filePickModal+0x420>
    1b7c: 86 13        	stx	$13                     ; 0x2013 <filePickModal+0x393>
    1b7e: a6 a3        	ldx	$a3                     ; 0x20a3 <filePickModal+0x423>
    1b80: 86 14        	stx	$14                     ; 0x2014 <filePickModal+0x394>
    1b82: a6 a4        	ldx	$a4                     ; 0x20a4 <filePickModal+0x424>
    1b84: 86 15        	stx	$15                     ; 0x2015 <filePickModal+0x395>
    1b86: 20 43 06     	jsr	$643 <isExtensionAllowed>
    1b89: 29 01        	and	#$1
    1b8b: d0 1b        	bne	$1ba8 <readDirectory+0xfd>
    1b8d: a0 01        	ldy	#$1
    1b8f: b1 a1        	lda	($a1),y                 ; 0x20a1 <filePickModal+0x421>
    1b91: d0 15        	bne	$1ba8 <readDirectory+0xfd>
    1b93: a5 9d        	lda	$9d                     ; 0x209d <filePickModal+0x41d>
    1b95: f0 03        	beq	$1b9a <readDirectory+0xef>
    1b97: 4c ff 1a     	jmp	$1aff <readDirectory+0x54>
    1b9a: a6 ab        	ldx	$ab                     ; 0x20ab <filePickModal+0x42b>
    1b9c: e0 64        	cpx	#$64
    1b9e: b0 03        	bcs	$1ba3 <readDirectory+0xf8>
    1ba0: 4c 06 1b     	jmp	$1b06 <readDirectory+0x5b>
    1ba3: a2 00        	ldx	#$0
    1ba5: 4c 08 1b     	jmp	$1b08 <readDirectory+0x5d>
    1ba8: a2 2c        	ldx	#$2c
    1baa: 86 12        	stx	$12                     ; 0x2012 <filePickModal+0x392>
    1bac: 64 13        	stz	$13                     ; 0x2013 <filePickModal+0x393>
    1bae: a6 9d        	ldx	$9d                     ; 0x209d <filePickModal+0x41d>
    1bb0: a5 ab        	lda	$ab                     ; 0x20ab <filePickModal+0x42b>
    1bb2: 20 ae 4e     	jsr	$4eae <__mulhi3>
    1bb5: 18           	clc
    1bb6: 65 9f        	adc	$9f                     ; 0x209f <filePickModal+0x41f>
    1bb8: a8           	tay
    1bb9: 8a           	txa
    1bba: 65 a0        	adc	$a0                     ; 0x20a0 <filePickModal+0x420>
    1bbc: 85 12        	sta	$12                     ; 0x2012 <filePickModal+0x392>
    1bbe: 98           	tya
    1bbf: 84 14        	sty	$14                     ; 0x2014 <filePickModal+0x394>
    1bc1: a6 14        	ldx	$14                     ; 0x2014 <filePickModal+0x394>
    1bc3: 86 a9        	stx	$a9                     ; 0x20a9 <filePickModal+0x429>
    1bc5: a6 12        	ldx	$12                     ; 0x2012 <filePickModal+0x392>
    1bc7: 86 aa        	stx	$aa                     ; 0x20aa <filePickModal+0x42a>
    1bc9: 18           	clc
    1bca: 69 4e        	adc	#$4e
    1bcc: aa           	tax
    1bcd: a5 12        	lda	$12                     ; 0x2012 <filePickModal+0x392>
    1bcf: 69 00        	adc	#$0
    1bd1: 85 13        	sta	$13                     ; 0x2013 <filePickModal+0x393>
    1bd3: 86 12        	stx	$12                     ; 0x2012 <filePickModal+0x392>
    1bd5: a6 a3        	ldx	$a3                     ; 0x20a3 <filePickModal+0x423>
    1bd7: 86 14        	stx	$14                     ; 0x2014 <filePickModal+0x394>
    1bd9: a6 a4        	ldx	$a4                     ; 0x20a4 <filePickModal+0x424>
    1bdb: 86 15        	stx	$15                     ; 0x2015 <filePickModal+0x395>
    1bdd: a2 00        	ldx	#$0
    1bdf: a9 2b        	lda	#$2b
    1be1: 20 21 4d     	jsr	$4d21 <strncpy>
    1be4: a0 79        	ldy	#$79
    1be6: a9 00        	lda	#$0
    1be8: a6 a9        	ldx	$a9                     ; 0x20a9 <filePickModal+0x429>
    1bea: 86 12        	stx	$12                     ; 0x2012 <filePickModal+0x392>
    1bec: a6 aa        	ldx	$aa                     ; 0x20aa <filePickModal+0x42a>
    1bee: 86 13        	stx	$13                     ; 0x2013 <filePickModal+0x393>
    1bf0: 91 12        	sta	($12),y                 ; 0x2012 <filePickModal+0x392>
    1bf2: a0 01        	ldy	#$1
    1bf4: b1 a1        	lda	($a1),y                 ; 0x20a1 <filePickModal+0x421>
    1bf6: a2 01        	ldx	#$1
    1bf8: c9 01        	cmp	#$1
    1bfa: f0 02        	beq	$1bfe <readDirectory+0x153>
    1bfc: a2 00        	ldx	#$0
    1bfe: 8a           	txa
    1bff: d0 02        	bne	$1c03 <readDirectory+0x158>
    1c01: a0 00        	ldy	#$0
    1c03: a5 9f        	lda	$9f                     ; 0x209f <filePickModal+0x41f>
    1c05: a6 ac        	ldx	$ac                     ; 0x20ac <filePickModal+0x42c>
    1c07: 86 14        	stx	$14                     ; 0x2014 <filePickModal+0x394>
    1c09: 18           	clc
    1c0a: 65 14        	adc	$14                     ; 0x2014 <filePickModal+0x394>
    1c0c: aa           	tax
    1c0d: a5 a0        	lda	$a0                     ; 0x20a0 <filePickModal+0x420>
    1c0f: 69 00        	adc	#$0
    1c11: 85 12        	sta	$12                     ; 0x2012 <filePickModal+0x392>
    1c13: 8a           	txa
    1c14: 18           	clc
    1c15: 69 7f        	adc	#$7f
    1c17: aa           	tax
    1c18: a5 12        	lda	$12                     ; 0x2012 <filePickModal+0x392>
    1c1a: 69 11        	adc	#$11
    1c1c: 85 13        	sta	$13                     ; 0x2013 <filePickModal+0x393>
    1c1e: 86 12        	stx	$12                     ; 0x2012 <filePickModal+0x392>
    1c20: 98           	tya
    1c21: 92 12        	sta	($12)                   ; 0x2012 <filePickModal+0x392>
    1c23: a6 ab        	ldx	$ab                     ; 0x20ab <filePickModal+0x42b>
    1c25: a4 9d        	ldy	$9d                     ; 0x209d <filePickModal+0x41d>
    1c27: e8           	inx
    1c28: d0 01        	bne	$1c2b <readDirectory+0x180>
    1c2a: c8           	iny
    1c2b: 86 ab        	stx	$ab                     ; 0x20ab <filePickModal+0x42b>
    1c2d: a6 14        	ldx	$14                     ; 0x2014 <filePickModal+0x394>
    1c2f: e8           	inx
    1c30: 86 ac        	stx	$ac                     ; 0x20ac <filePickModal+0x42c>
    1c32: 84 9d        	sty	$9d                     ; 0x209d <filePickModal+0x41d>
    1c34: c0 00        	cpy	#$0
    1c36: a2 01        	ldx	#$1
    1c38: b0 02        	bcs	$1c3c <readDirectory+0x191>
    1c3a: a2 00        	ldx	#$0
    1c3c: 86 9e        	stx	$9e                     ; 0x209e <filePickModal+0x41e>
    1c3e: 4c 93 1b     	jmp	$1b93 <readDirectory+0xe8>
    1c41: a5 9f        	lda	$9f                     ; 0x209f <filePickModal+0x41f>
    1c43: 18           	clc
    1c44: 69 e2        	adc	#$e2
    1c46: 85 12        	sta	$12                     ; 0x2012 <filePickModal+0x392>
    1c48: a5 a0        	lda	$a0                     ; 0x20a0 <filePickModal+0x420>
    1c4a: 69 11        	adc	#$11
    1c4c: 85 13        	sta	$13                     ; 0x2013 <filePickModal+0x393>
    1c4e: a0 01        	ldy	#$1
    1c50: a5 9d        	lda	$9d                     ; 0x209d <filePickModal+0x41d>
    1c52: 91 12        	sta	($12),y                 ; 0x2012 <filePickModal+0x392>
    1c54: 18           	clc
    1c55: a5 ab        	lda	$ab                     ; 0x20ab <filePickModal+0x42b>
    1c57: 92 12        	sta	($12)                   ; 0x2012 <filePickModal+0x392>
    1c59: a5 9f        	lda	$9f                     ; 0x209f <filePickModal+0x41f>
    1c5b: 69 4e        	adc	#$4e
    1c5d: 85 12        	sta	$12                     ; 0x2012 <filePickModal+0x392>
    1c5f: a5 a0        	lda	$a0                     ; 0x20a0 <filePickModal+0x420>
    1c61: 69 00        	adc	#$0
    1c63: 85 13        	sta	$13                     ; 0x2013 <filePickModal+0x393>
    1c65: a2 1d        	ldx	#$1d
    1c67: 86 14        	stx	$14                     ; 0x2014 <filePickModal+0x394>
    1c69: a2 53        	ldx	#$53
    1c6b: 86 15        	stx	$15                     ; 0x2015 <filePickModal+0x395>
    1c6d: a9 2c        	lda	#$2c
    1c6f: a2 00        	ldx	#$0
    1c71: 20 9a 4c     	jsr	$4c9a <memcpy>
    1c74: a6 a7        	ldx	$a7                     ; 0x20a7 <filePickModal+0x427>
    1c76: 86 12        	stx	$12                     ; 0x2012 <filePickModal+0x392>
    1c78: a6 a8        	ldx	$a8                     ; 0x20a8 <filePickModal+0x428>
    1c7a: 86 13        	stx	$13                     ; 0x2013 <filePickModal+0x393>
    1c7c: 20 62 34     	jsr	$3462 <fileCloseDir>
    1c7f: 60           	rts

00001c80 <filePickModal>:
    1c80: 48           	pha
    1c81: 18           	clc
    1c82: a5 10        	lda	$10                     ; 0x2010 <filePickModal+0x390>
    1c84: 69 a8        	adc	#$a8
    1c86: 85 10        	sta	$10                     ; 0x2010 <filePickModal+0x390>
    1c88: a5 11        	lda	$11                     ; 0x2011 <filePickModal+0x391>
    1c8a: 69 ff        	adc	#$ff
    1c8c: 85 11        	sta	$11                     ; 0x2011 <filePickModal+0x391>
    1c8e: 68           	pla
    1c8f: a4 24        	ldy	$24                     ; 0x2024 <filePickModal+0x3a4>
    1c91: 5a           	phy
    1c92: a4 25        	ldy	$25                     ; 0x2025 <filePickModal+0x3a5>
    1c94: 5a           	phy
    1c95: a4 26        	ldy	$26                     ; 0x2026 <filePickModal+0x3a6>
    1c97: 5a           	phy
    1c98: a4 27        	ldy	$27                     ; 0x2027 <filePickModal+0x3a7>
    1c9a: 5a           	phy
    1c9b: 48           	pha
    1c9c: a5 28        	lda	$28                     ; 0x2028 <filePickModal+0x3a8>
    1c9e: a0 0d        	ldy	#$d
    1ca0: 91 10        	sta	($10),y                 ; 0x2010 <filePickModal+0x390>
    1ca2: a5 29        	lda	$29                     ; 0x2029 <filePickModal+0x3a9>
    1ca4: 88           	dey
    1ca5: 91 10        	sta	($10),y                 ; 0x2010 <filePickModal+0x390>
    1ca7: a5 2a        	lda	$2a                     ; 0x202a <filePickModal+0x3aa>
    1ca9: 88           	dey
    1caa: 91 10        	sta	($10),y                 ; 0x2010 <filePickModal+0x390>
    1cac: a5 2b        	lda	$2b                     ; 0x202b <filePickModal+0x3ab>
    1cae: 88           	dey
    1caf: 91 10        	sta	($10),y                 ; 0x2010 <filePickModal+0x390>
    1cb1: a5 2c        	lda	$2c                     ; 0x202c <filePickModal+0x3ac>
    1cb3: 88           	dey
    1cb4: 91 10        	sta	($10),y                 ; 0x2010 <filePickModal+0x390>
    1cb6: a5 2d        	lda	$2d                     ; 0x202d <filePickModal+0x3ad>
    1cb8: 88           	dey
    1cb9: 91 10        	sta	($10),y                 ; 0x2010 <filePickModal+0x390>
    1cbb: a5 2e        	lda	$2e                     ; 0x202e <filePickModal+0x3ae>
    1cbd: 88           	dey
    1cbe: 91 10        	sta	($10),y                 ; 0x2010 <filePickModal+0x390>
    1cc0: a5 2f        	lda	$2f                     ; 0x202f <filePickModal+0x3af>
    1cc2: 88           	dey
    1cc3: 91 10        	sta	($10),y                 ; 0x2010 <filePickModal+0x390>
    1cc5: 68           	pla
    1cc6: a0 10        	ldy	#$10
    1cc8: 91 10        	sta	($10),y                 ; 0x2010 <filePickModal+0x390>
    1cca: 8a           	txa
    1ccb: c8           	iny
    1ccc: 91 10        	sta	($10),y                 ; 0x2010 <filePickModal+0x390>
    1cce: a6 12        	ldx	$12                     ; 0x2012 <filePickModal+0x392>
    1cd0: 86 24        	stx	$24                     ; 0x2024 <filePickModal+0x3a4>
    1cd2: a6 13        	ldx	$13                     ; 0x2013 <filePickModal+0x393>
    1cd4: 86 25        	stx	$25                     ; 0x2025 <filePickModal+0x3a5>
    1cd6: a6 24        	ldx	$24                     ; 0x2024 <filePickModal+0x3a4>
    1cd8: a5 24        	lda	$24                     ; 0x2024 <filePickModal+0x3a4>
    1cda: 86 27        	stx	$27                     ; 0x2027 <filePickModal+0x3a7>
    1cdc: 18           	clc
    1cdd: 69 22        	adc	#$22
    1cdf: 85 1d        	sta	$1d                     ; 0x201d <filePickModal+0x39d>
    1ce1: a6 25        	ldx	$25                     ; 0x2025 <filePickModal+0x3a5>
    1ce3: a5 25        	lda	$25                     ; 0x2025 <filePickModal+0x3a5>
    1ce5: 86 28        	stx	$28                     ; 0x2028 <filePickModal+0x3a8>
    1ce7: 69 00        	adc	#$0
    1ce9: a8           	tay
    1cea: a6 14        	ldx	$14                     ; 0x2014 <filePickModal+0x394>
    1cec: 86 2a        	stx	$2a                     ; 0x202a <filePickModal+0x3aa>
    1cee: a6 15        	ldx	$15                     ; 0x2015 <filePickModal+0x395>
    1cf0: 86 2b        	stx	$2b                     ; 0x202b <filePickModal+0x3ab>
    1cf2: a6 16        	ldx	$16                     ; 0x2016 <filePickModal+0x396>
    1cf4: 86 2e        	stx	$2e                     ; 0x202e <filePickModal+0x3ae>
    1cf6: a6 17        	ldx	$17                     ; 0x2017 <filePickModal+0x397>
    1cf8: 86 2f        	stx	$2f                     ; 0x202f <filePickModal+0x3af>
    1cfa: a6 18        	ldx	$18                     ; 0x2018 <filePickModal+0x398>
    1cfc: 86 2c        	stx	$2c                     ; 0x202c <filePickModal+0x3ac>
    1cfe: a6 19        	ldx	$19                     ; 0x2019 <filePickModal+0x399>
    1d00: 86 2d        	stx	$2d                     ; 0x202d <filePickModal+0x3ad>
    1d02: 5a           	phy
    1d03: a5 1a        	lda	$1a                     ; 0x201a <filePickModal+0x39a>
    1d05: a0 12        	ldy	#$12
    1d07: 91 10        	sta	($10),y                 ; 0x2010 <filePickModal+0x390>
    1d09: a5 1b        	lda	$1b                     ; 0x201b <filePickModal+0x39b>
    1d0b: c8           	iny
    1d0c: 91 10        	sta	($10),y                 ; 0x2010 <filePickModal+0x390>
    1d0e: a5 1c        	lda	$1c                     ; 0x201c <filePickModal+0x39c>
    1d10: 29 01        	and	#$1
    1d12: 85 26        	sta	$26                     ; 0x2026 <filePickModal+0x3a6>
    1d14: a6 1d        	ldx	$1d                     ; 0x201d <filePickModal+0x39d>
    1d16: 8a           	txa
    1d17: a0 15        	ldy	#$15
    1d19: 91 10        	sta	($10),y                 ; 0x2010 <filePickModal+0x390>
    1d1b: 7a           	ply
    1d1c: 86 12        	stx	$12                     ; 0x2012 <filePickModal+0x392>
    1d1e: 84 13        	sty	$13                     ; 0x2013 <filePickModal+0x393>
    1d20: 98           	tya
    1d21: a0 14        	ldy	#$14
    1d23: 91 10        	sta	($10),y                 ; 0x2010 <filePickModal+0x390>
    1d25: a2 2c        	ldx	#$2c
    1d27: 64 14        	stz	$14                     ; 0x2014 <filePickModal+0x394>
    1d29: a9 00        	lda	#$0
    1d2b: 20 c6 4c     	jsr	$4cc6 <__memset>
    1d2e: a5 27        	lda	$27                     ; 0x2027 <filePickModal+0x3a7>
    1d30: 18           	clc
    1d31: 69 7a        	adc	#$7a
    1d33: 85 12        	sta	$12                     ; 0x2012 <filePickModal+0x392>
    1d35: a5 28        	lda	$28                     ; 0x2028 <filePickModal+0x3a8>
    1d37: 69 00        	adc	#$0
    1d39: 85 13        	sta	$13                     ; 0x2013 <filePickModal+0x393>
    1d3b: a5 12        	lda	$12                     ; 0x2012 <filePickModal+0x392>
    1d3d: a0 16        	ldy	#$16
    1d3f: 91 10        	sta	($10),y                 ; 0x2010 <filePickModal+0x390>
    1d41: a5 13        	lda	$13                     ; 0x2013 <filePickModal+0x393>
    1d43: c8           	iny
    1d44: 91 10        	sta	($10),y                 ; 0x2010 <filePickModal+0x390>
    1d46: a2 11        	ldx	#$11
    1d48: 86 14        	stx	$14                     ; 0x2014 <filePickModal+0x394>
    1d4a: a2 04        	ldx	#$4
    1d4c: a9 00        	lda	#$0
    1d4e: 20 c6 4c     	jsr	$4cc6 <__memset>
    1d51: 18           	clc
    1d52: a5 27        	lda	$27                     ; 0x2027 <filePickModal+0x3a7>
    1d54: 69 7f        	adc	#$7f
    1d56: 85 12        	sta	$12                     ; 0x2012 <filePickModal+0x392>
    1d58: a5 28        	lda	$28                     ; 0x2028 <filePickModal+0x3a8>
    1d5a: 69 11        	adc	#$11
    1d5c: 85 13        	sta	$13                     ; 0x2013 <filePickModal+0x393>
    1d5e: a5 12        	lda	$12                     ; 0x2012 <filePickModal+0x392>
    1d60: a0 0e        	ldy	#$e
    1d62: 91 10        	sta	($10),y                 ; 0x2010 <filePickModal+0x390>
    1d64: a5 13        	lda	$13                     ; 0x2013 <filePickModal+0x393>
    1d66: c8           	iny
    1d67: 91 10        	sta	($10),y                 ; 0x2010 <filePickModal+0x390>
    1d69: a2 63        	ldx	#$63
    1d6b: 64 14        	stz	$14                     ; 0x2014 <filePickModal+0x394>
    1d6d: a9 00        	lda	#$0
    1d6f: 20 c6 4c     	jsr	$4cc6 <__memset>
    1d72: a5 26        	lda	$26                     ; 0x2026 <filePickModal+0x3a6>
    1d74: f0 27        	beq	$1d9d <filePickModal+0x11d>
    1d76: a5 24        	lda	$24                     ; 0x2024 <filePickModal+0x3a4>
    1d78: 18           	clc
    1d79: 69 e2        	adc	#$e2
    1d7b: 85 12        	sta	$12                     ; 0x2012 <filePickModal+0x392>
    1d7d: a5 25        	lda	$25                     ; 0x2025 <filePickModal+0x3a5>
    1d7f: 69 11        	adc	#$11
    1d81: 85 13        	sta	$13                     ; 0x2013 <filePickModal+0x393>
    1d83: a9 00        	lda	#$0
    1d85: 92 12        	sta	($12)                   ; 0x2012 <filePickModal+0x392>
    1d87: a0 01        	ldy	#$1
    1d89: 91 12        	sta	($12),y                 ; 0x2012 <filePickModal+0x392>
    1d8b: c8           	iny
    1d8c: 91 12        	sta	($12),y                 ; 0x2012 <filePickModal+0x392>
    1d8e: c8           	iny
    1d8f: 91 12        	sta	($12),y                 ; 0x2012 <filePickModal+0x392>
    1d91: c8           	iny
    1d92: 91 12        	sta	($12),y                 ; 0x2012 <filePickModal+0x392>
    1d94: c8           	iny
    1d95: 91 12        	sta	($12),y                 ; 0x2012 <filePickModal+0x392>
    1d97: c8           	iny
    1d98: 91 12        	sta	($12),y                 ; 0x2012 <filePickModal+0x392>
    1d9a: c8           	iny
    1d9b: 91 12        	sta	($12),y                 ; 0x2012 <filePickModal+0x392>
    1d9d: a6 24        	ldx	$24                     ; 0x2024 <filePickModal+0x3a4>
    1d9f: a5 24        	lda	$24                     ; 0x2024 <filePickModal+0x3a4>
    1da1: 86 29        	stx	$29                     ; 0x2029 <filePickModal+0x3a9>
    1da3: 18           	clc
    1da4: 69 ea        	adc	#$ea
    1da6: 85 26        	sta	$26                     ; 0x2026 <filePickModal+0x3a6>
    1da8: a5 25        	lda	$25                     ; 0x2025 <filePickModal+0x3a5>
    1daa: 69 11        	adc	#$11
    1dac: 85 27        	sta	$27                     ; 0x2027 <filePickModal+0x3a7>
    1dae: a6 26        	ldx	$26                     ; 0x2026 <filePickModal+0x3a6>
    1db0: 86 12        	stx	$12                     ; 0x2012 <filePickModal+0x392>
    1db2: 85 13        	sta	$13                     ; 0x2013 <filePickModal+0x393>
    1db4: a2 0c        	ldx	#$c
    1db6: 64 14        	stz	$14                     ; 0x2014 <filePickModal+0x394>
    1db8: a9 00        	lda	#$0
    1dba: 20 c6 4c     	jsr	$4cc6 <__memset>
    1dbd: a0 10        	ldy	#$10
    1dbf: b1 10        	lda	($10),y                 ; 0x2010 <filePickModal+0x390>
    1dc1: 92 24        	sta	($24)                   ; 0x2024 <filePickModal+0x3a4>
    1dc3: a0 01        	ldy	#$1
    1dc5: 5a           	phy
    1dc6: a0 11        	ldy	#$11
    1dc8: b1 10        	lda	($10),y                 ; 0x2010 <filePickModal+0x390>
    1dca: 7a           	ply
    1dcb: 91 24        	sta	($24),y                 ; 0x2024 <filePickModal+0x3a4>
    1dcd: b2 2a        	lda	($2a)                   ; 0x202a <filePickModal+0x3aa>
    1dcf: 92 26        	sta	($26)                   ; 0x2026 <filePickModal+0x3a6>
    1dd1: b1 2a        	lda	($2a),y                 ; 0x202a <filePickModal+0x3aa>
    1dd3: 91 26        	sta	($26),y                 ; 0x2026 <filePickModal+0x3a6>
    1dd5: a0 02        	ldy	#$2
    1dd7: b1 2a        	lda	($2a),y                 ; 0x202a <filePickModal+0x3aa>
    1dd9: 91 26        	sta	($26),y                 ; 0x2026 <filePickModal+0x3a6>
    1ddb: a5 29        	lda	$29                     ; 0x2029 <filePickModal+0x3a9>
    1ddd: 18           	clc
    1dde: 69 ed        	adc	#$ed
    1de0: 85 12        	sta	$12                     ; 0x2012 <filePickModal+0x392>
    1de2: a5 25        	lda	$25                     ; 0x2025 <filePickModal+0x3a5>
    1de4: 69 11        	adc	#$11
    1de6: 85 13        	sta	$13                     ; 0x2013 <filePickModal+0x393>
    1de8: b2 2e        	lda	($2e)                   ; 0x202e <filePickModal+0x3ae>
    1dea: 92 12        	sta	($12)                   ; 0x2012 <filePickModal+0x392>
    1dec: 88           	dey
    1ded: b1 2e        	lda	($2e),y                 ; 0x202e <filePickModal+0x3ae>
    1def: 91 12        	sta	($12),y                 ; 0x2012 <filePickModal+0x392>
    1df1: c8           	iny
    1df2: b1 2e        	lda	($2e),y                 ; 0x202e <filePickModal+0x3ae>
    1df4: 91 12        	sta	($12),y                 ; 0x2012 <filePickModal+0x392>
    1df6: a5 29        	lda	$29                     ; 0x2029 <filePickModal+0x3a9>
    1df8: 18           	clc
    1df9: 69 f0        	adc	#$f0
    1dfb: 85 12        	sta	$12                     ; 0x2012 <filePickModal+0x392>
    1dfd: a5 25        	lda	$25                     ; 0x2025 <filePickModal+0x3a5>
    1dff: 69 11        	adc	#$11
    1e01: 85 13        	sta	$13                     ; 0x2013 <filePickModal+0x393>
    1e03: b2 2c        	lda	($2c)                   ; 0x202c <filePickModal+0x3ac>
    1e05: 92 12        	sta	($12)                   ; 0x2012 <filePickModal+0x392>
    1e07: 88           	dey
    1e08: b1 2c        	lda	($2c),y                 ; 0x202c <filePickModal+0x3ac>
    1e0a: 91 12        	sta	($12),y                 ; 0x2012 <filePickModal+0x392>
    1e0c: c8           	iny
    1e0d: b1 2c        	lda	($2c),y                 ; 0x202c <filePickModal+0x3ac>
    1e0f: 91 12        	sta	($12),y                 ; 0x2012 <filePickModal+0x392>
    1e11: a5 29        	lda	$29                     ; 0x2029 <filePickModal+0x3a9>
    1e13: 18           	clc
    1e14: 69 f3        	adc	#$f3
    1e16: 85 12        	sta	$12                     ; 0x2012 <filePickModal+0x392>
    1e18: a5 25        	lda	$25                     ; 0x2025 <filePickModal+0x3a5>
    1e1a: 69 11        	adc	#$11
    1e1c: 85 13        	sta	$13                     ; 0x2013 <filePickModal+0x393>
    1e1e: a0 12        	ldy	#$12
    1e20: b1 10        	lda	($10),y                 ; 0x2010 <filePickModal+0x390>
    1e22: 85 16        	sta	$16                     ; 0x2016 <filePickModal+0x396>
    1e24: c8           	iny
    1e25: b1 10        	lda	($10),y                 ; 0x2010 <filePickModal+0x390>
    1e27: 85 17        	sta	$17                     ; 0x2017 <filePickModal+0x397>
    1e29: b2 16        	lda	($16)                   ; 0x2016 <filePickModal+0x396>
    1e2b: 92 12        	sta	($12)                   ; 0x2012 <filePickModal+0x392>
    1e2d: a0 01        	ldy	#$1
    1e2f: b1 16        	lda	($16),y                 ; 0x2016 <filePickModal+0x396>
    1e31: 91 12        	sta	($12),y                 ; 0x2012 <filePickModal+0x392>
    1e33: c8           	iny
    1e34: b1 16        	lda	($16),y                 ; 0x2016 <filePickModal+0x396>
    1e36: 91 12        	sta	($12),y                 ; 0x2012 <filePickModal+0x392>
    1e38: a6 24        	ldx	$24                     ; 0x2024 <filePickModal+0x3a4>
    1e3a: 86 12        	stx	$12                     ; 0x2012 <filePickModal+0x392>
    1e3c: a6 25        	ldx	$25                     ; 0x2025 <filePickModal+0x3a5>
    1e3e: 86 13        	stx	$13                     ; 0x2013 <filePickModal+0x393>
    1e40: 20 ab 1a     	jsr	$1aab <readDirectory>
    1e43: a6 24        	ldx	$24                     ; 0x2024 <filePickModal+0x3a4>
    1e45: 86 12        	stx	$12                     ; 0x2012 <filePickModal+0x392>
    1e47: a6 25        	ldx	$25                     ; 0x2025 <filePickModal+0x3a5>
    1e49: 86 13        	stx	$13                     ; 0x2013 <filePickModal+0x393>
    1e4b: 20 4d 07     	jsr	$74d <sortFileList>
    1e4e: a9 0a        	lda	#$a
    1e50: a2 00        	ldx	#$0
    1e52: 20 56 34     	jsr	$3456 <textSetColor>
    1e55: a5 29        	lda	$29                     ; 0x2029 <filePickModal+0x3a9>
    1e57: 18           	clc
    1e58: 69 e8        	adc	#$e8
    1e5a: 85 26        	sta	$26                     ; 0x2026 <filePickModal+0x3a6>
    1e5c: a5 25        	lda	$25                     ; 0x2025 <filePickModal+0x3a5>
    1e5e: 69 11        	adc	#$11
    1e60: 85 27        	sta	$27                     ; 0x2027 <filePickModal+0x3a7>
    1e62: b2 26        	lda	($26)                   ; 0x2026 <filePickModal+0x3a6>
    1e64: 85 14        	sta	$14                     ; 0x2014 <filePickModal+0x394>
    1e66: a0 01        	ldy	#$1
    1e68: b1 26        	lda	($26),y                 ; 0x2026 <filePickModal+0x3a6>
    1e6a: a6 24        	ldx	$24                     ; 0x2024 <filePickModal+0x3a4>
    1e6c: 86 12        	stx	$12                     ; 0x2012 <filePickModal+0x392>
    1e6e: a6 25        	ldx	$25                     ; 0x2025 <filePickModal+0x3a5>
    1e70: 86 13        	stx	$13                     ; 0x2013 <filePickModal+0x393>
    1e72: aa           	tax
    1e73: a5 14        	lda	$14                     ; 0x2014 <filePickModal+0x394>
    1e75: 20 c1 16     	jsr	$16c1 <displayFileList>
    1e78: a5 29        	lda	$29                     ; 0x2029 <filePickModal+0x3a9>
    1e7a: 18           	clc
    1e7b: 69 02        	adc	#$2
    1e7d: a0 12        	ldy	#$12
    1e7f: 91 10        	sta	($10),y                 ; 0x2010 <filePickModal+0x390>
    1e81: 85 2a        	sta	$2a                     ; 0x202a <filePickModal+0x3aa>
    1e83: a5 25        	lda	$25                     ; 0x2025 <filePickModal+0x3a5>
    1e85: 69 00        	adc	#$0
    1e87: 88           	dey
    1e88: 91 10        	sta	($10),y                 ; 0x2010 <filePickModal+0x390>
    1e8a: 85 2b        	sta	$2b                     ; 0x202b <filePickModal+0x3ab>
    1e8c: 18           	clc
    1e8d: a5 29        	lda	$29                     ; 0x2029 <filePickModal+0x3a9>
    1e8f: 69 e2        	adc	#$e2
    1e91: 85 2e        	sta	$2e                     ; 0x202e <filePickModal+0x3ae>
    1e93: a5 25        	lda	$25                     ; 0x2025 <filePickModal+0x3a5>
    1e95: 69 11        	adc	#$11
    1e97: 85 2f        	sta	$2f                     ; 0x202f <filePickModal+0x3af>
    1e99: a2 00        	ldx	#$0
    1e9b: 86 2c        	stx	$2c                     ; 0x202c <filePickModal+0x3ac>
    1e9d: a2 00        	ldx	#$0
    1e9f: 86 2d        	stx	$2d                     ; 0x202d <filePickModal+0x3ad>
    1ea1: a0 0e        	ldy	#$e
    1ea3: b1 10        	lda	($10),y                 ; 0x2010 <filePickModal+0x390>
    1ea5: 85 28        	sta	$28                     ; 0x2028 <filePickModal+0x3a8>
    1ea7: c8           	iny
    1ea8: b1 10        	lda	($10),y                 ; 0x2010 <filePickModal+0x390>
    1eaa: 85 29        	sta	$29                     ; 0x2029 <filePickModal+0x3a9>
    1eac: a6 24        	ldx	$24                     ; 0x2024 <filePickModal+0x3a4>
    1eae: 86 12        	stx	$12                     ; 0x2012 <filePickModal+0x392>
    1eb0: a6 25        	ldx	$25                     ; 0x2025 <filePickModal+0x3a5>
    1eb2: 86 13        	stx	$13                     ; 0x2013 <filePickModal+0x393>
    1eb4: 20 73 0a     	jsr	$a73 <pickFile>
    1eb7: c9 04        	cmp	#$4
    1eb9: 90 03        	bcc	$1ebe <filePickModal+0x23e>
    1ebb: 4c 65 20     	jmp	$2065 <filePickModal+0x3e5>
    1ebe: a0 00        	ldy	#$0
    1ec0: 85 12        	sta	$12                     ; 0x2012 <filePickModal+0x392>
    1ec2: 06 12        	asl	$12                     ; 0x2012 <filePickModal+0x392>
    1ec4: a6 12        	ldx	$12                     ; 0x2012 <filePickModal+0x392>
    1ec6: 7c 60 50     	jmp	($5060,x)               ; 0x5060 <__BLOCK_SIZE+0x3060>
    1ec9: a0 02        	ldy	#$2
    1ecb: b1 24        	lda	($24),y                 ; 0x2024 <filePickModal+0x3a4>
    1ecd: d0 03        	bne	$1ed2 <filePickModal+0x252>
    1ecf: 4c f8 1f     	jmp	$1ff8 <filePickModal+0x378>
    1ed2: a6 2a        	ldx	$2a                     ; 0x202a <filePickModal+0x3aa>
    1ed4: 86 12        	stx	$12                     ; 0x2012 <filePickModal+0x392>
    1ed6: a6 2b        	ldx	$2b                     ; 0x202b <filePickModal+0x3ab>
    1ed8: 86 13        	stx	$13                     ; 0x2013 <filePickModal+0x393>
    1eda: a2 9e        	ldx	#$9e
    1edc: 86 14        	stx	$14                     ; 0x2014 <filePickModal+0x394>
    1ede: a2 52        	ldx	#$52
    1ee0: 86 15        	stx	$15                     ; 0x2015 <filePickModal+0x395>
    1ee2: 20 de 4d     	jsr	$4dde <strcmp>
    1ee5: e0 00        	cpx	#$0
    1ee7: d0 06        	bne	$1eef <filePickModal+0x26f>
    1ee9: aa           	tax
    1eea: d0 03        	bne	$1eef <filePickModal+0x26f>
    1eec: 4c f8 1f     	jmp	$1ff8 <filePickModal+0x378>
    1eef: a6 2a        	ldx	$2a                     ; 0x202a <filePickModal+0x3aa>
    1ef1: 86 12        	stx	$12                     ; 0x2012 <filePickModal+0x392>
    1ef3: a6 2b        	ldx	$2b                     ; 0x202b <filePickModal+0x3ab>
    1ef5: 86 13        	stx	$13                     ; 0x2013 <filePickModal+0x393>
    1ef7: a2 00        	ldx	#$0
    1ef9: a9 2f        	lda	#$2f
    1efb: 20 06 4e     	jsr	$4e06 <strrchr>
    1efe: a6 13        	ldx	$13                     ; 0x2013 <filePickModal+0x393>
    1f00: e4 2d        	cpx	$2d                     ; 0x202d <filePickModal+0x3ad>
    1f02: f0 03        	beq	$1f07 <filePickModal+0x287>
    1f04: 4c e2 1f     	jmp	$1fe2 <filePickModal+0x362>
    1f07: a6 12        	ldx	$12                     ; 0x2012 <filePickModal+0x392>
    1f09: a9 00        	lda	#$0
    1f0b: e4 2c        	cpx	$2c                     ; 0x202c <filePickModal+0x3ac>
    1f0d: f0 03        	beq	$1f12 <filePickModal+0x292>
    1f0f: 4c e4 1f     	jmp	$1fe4 <filePickModal+0x364>
    1f12: 4c f0 1f     	jmp	$1ff0 <filePickModal+0x370>
    1f15: a6 10        	ldx	$10                     ; 0x2010 <filePickModal+0x390>
    1f17: a4 11        	ldy	$11                     ; 0x2011 <filePickModal+0x391>
    1f19: 8a           	txa
    1f1a: 18           	clc
    1f1b: 69 02        	adc	#$2
    1f1d: 85 12        	sta	$12                     ; 0x2012 <filePickModal+0x392>
    1f1f: 98           	tya
    1f20: 69 00        	adc	#$0
    1f22: 85 13        	sta	$13                     ; 0x2013 <filePickModal+0x393>
    1f24: 18           	clc
    1f25: 8a           	txa
    1f26: 69 04        	adc	#$4
    1f28: 85 16        	sta	$16                     ; 0x2016 <filePickModal+0x396>
    1f2a: 98           	tya
    1f2b: 69 00        	adc	#$0
    1f2d: aa           	tax
    1f2e: a0 12        	ldy	#$12
    1f30: b1 10        	lda	($10),y                 ; 0x2010 <filePickModal+0x390>
    1f32: 92 10        	sta	($10)                   ; 0x2010 <filePickModal+0x390>
    1f34: a0 01        	ldy	#$1
    1f36: 5a           	phy
    1f37: a0 11        	ldy	#$11
    1f39: b1 10        	lda	($10),y                 ; 0x2010 <filePickModal+0x390>
    1f3b: 7a           	ply
    1f3c: 91 10        	sta	($10),y                 ; 0x2010 <filePickModal+0x390>
    1f3e: a9 9e        	lda	#$9e
    1f40: a0 02        	ldy	#$2
    1f42: 91 10        	sta	($10),y                 ; 0x2010 <filePickModal+0x390>
    1f44: a9 52        	lda	#$52
    1f46: 88           	dey
    1f47: 91 12        	sta	($12),y                 ; 0x2012 <filePickModal+0x392>
    1f49: a4 16        	ldy	$16                     ; 0x2016 <filePickModal+0x396>
    1f4b: 84 12        	sty	$12                     ; 0x2012 <filePickModal+0x392>
    1f4d: 86 13        	stx	$13                     ; 0x2013 <filePickModal+0x393>
    1f4f: a0 15        	ldy	#$15
    1f51: b1 10        	lda	($10),y                 ; 0x2010 <filePickModal+0x390>
    1f53: a0 04        	ldy	#$4
    1f55: 91 10        	sta	($10),y                 ; 0x2010 <filePickModal+0x390>
    1f57: a0 14        	ldy	#$14
    1f59: b1 10        	lda	($10),y                 ; 0x2010 <filePickModal+0x390>
    1f5b: a0 01        	ldy	#$1
    1f5d: 91 12        	sta	($12),y                 ; 0x2012 <filePickModal+0x392>
    1f5f: 18           	clc
    1f60: a5 10        	lda	$10                     ; 0x2010 <filePickModal+0x390>
    1f62: 69 18        	adc	#$18
    1f64: 85 2c        	sta	$2c                     ; 0x202c <filePickModal+0x3ac>
    1f66: a5 11        	lda	$11                     ; 0x2011 <filePickModal+0x391>
    1f68: 69 00        	adc	#$0
    1f6a: 85 2d        	sta	$2d                     ; 0x202d <filePickModal+0x3ad>
    1f6c: a6 2c        	ldx	$2c                     ; 0x202c <filePickModal+0x3ac>
    1f6e: 86 12        	stx	$12                     ; 0x2012 <filePickModal+0x392>
    1f70: 85 13        	sta	$13                     ; 0x2013 <filePickModal+0x393>
    1f72: a2 e1        	ldx	#$e1
    1f74: 86 14        	stx	$14                     ; 0x2014 <filePickModal+0x394>
    1f76: a2 52        	ldx	#$52
    1f78: 86 15        	stx	$15                     ; 0x2015 <filePickModal+0x395>
    1f7a: 20 d4 48     	jsr	$48d4 <sprintf>
    1f7d: a0 16        	ldy	#$16
    1f7f: b1 10        	lda	($10),y                 ; 0x2010 <filePickModal+0x390>
    1f81: 85 12        	sta	$12                     ; 0x2012 <filePickModal+0x392>
    1f83: c8           	iny
    1f84: b1 10        	lda	($10),y                 ; 0x2010 <filePickModal+0x390>
    1f86: 85 13        	sta	$13                     ; 0x2013 <filePickModal+0x393>
    1f88: a2 11        	ldx	#$11
    1f8a: 86 14        	stx	$14                     ; 0x2014 <filePickModal+0x394>
    1f8c: a2 04        	ldx	#$4
    1f8e: a9 00        	lda	#$0
    1f90: 20 c6 4c     	jsr	$4cc6 <__memset>
    1f93: a6 28        	ldx	$28                     ; 0x2028 <filePickModal+0x3a8>
    1f95: 86 12        	stx	$12                     ; 0x2012 <filePickModal+0x392>
    1f97: a6 29        	ldx	$29                     ; 0x2029 <filePickModal+0x3a9>
    1f99: 86 13        	stx	$13                     ; 0x2013 <filePickModal+0x393>
    1f9b: 64 14        	stz	$14                     ; 0x2014 <filePickModal+0x394>
    1f9d: a2 63        	ldx	#$63
    1f9f: a9 00        	lda	#$0
    1fa1: 20 c6 4c     	jsr	$4cc6 <__memset>
    1fa4: a9 00        	lda	#$0
    1fa6: 92 2e        	sta	($2e)                   ; 0x202e <filePickModal+0x3ae>
    1fa8: a0 01        	ldy	#$1
    1faa: 91 2e        	sta	($2e),y                 ; 0x202e <filePickModal+0x3ae>
    1fac: c8           	iny
    1fad: 91 2e        	sta	($2e),y                 ; 0x202e <filePickModal+0x3ae>
    1faf: c8           	iny
    1fb0: 91 2e        	sta	($2e),y                 ; 0x202e <filePickModal+0x3ae>
    1fb2: c8           	iny
    1fb3: 91 2e        	sta	($2e),y                 ; 0x202e <filePickModal+0x3ae>
    1fb5: c8           	iny
    1fb6: 91 2e        	sta	($2e),y                 ; 0x202e <filePickModal+0x3ae>
    1fb8: c8           	iny
    1fb9: 91 2e        	sta	($2e),y                 ; 0x202e <filePickModal+0x3ae>
    1fbb: c8           	iny
    1fbc: 91 2e        	sta	($2e),y                 ; 0x202e <filePickModal+0x3ae>
    1fbe: aa           	tax
    1fbf: a4 2a        	ldy	$2a                     ; 0x202a <filePickModal+0x3aa>
    1fc1: 84 12        	sty	$12                     ; 0x2012 <filePickModal+0x392>
    1fc3: a4 2b        	ldy	$2b                     ; 0x202b <filePickModal+0x3ab>
    1fc5: 84 13        	sty	$13                     ; 0x2013 <filePickModal+0x393>
    1fc7: a4 2c        	ldy	$2c                     ; 0x202c <filePickModal+0x3ac>
    1fc9: 84 14        	sty	$14                     ; 0x2014 <filePickModal+0x394>
    1fcb: a4 2d        	ldy	$2d                     ; 0x202d <filePickModal+0x3ad>
    1fcd: 84 15        	sty	$15                     ; 0x2015 <filePickModal+0x395>
    1fcf: a8           	tay
    1fd0: 84 2c        	sty	$2c                     ; 0x202c <filePickModal+0x3ac>
    1fd2: a8           	tay
    1fd3: 84 2d        	sty	$2d                     ; 0x202d <filePickModal+0x3ad>
    1fd5: a9 20        	lda	#$20
    1fd7: 20 21 4d     	jsr	$4d21 <strncpy>
    1fda: 4c 39 20     	jmp	$2039 <filePickModal+0x3b9>
    1fdd: a9 01        	lda	#$1
    1fdf: 4c 68 20     	jmp	$2068 <filePickModal+0x3e8>
    1fe2: a9 00        	lda	#$0
    1fe4: a6 13        	ldx	$13                     ; 0x2013 <filePickModal+0x393>
    1fe6: e4 2b        	cpx	$2b                     ; 0x202b <filePickModal+0x3ab>
    1fe8: d0 0c        	bne	$1ff6 <filePickModal+0x376>
    1fea: a6 12        	ldx	$12                     ; 0x2012 <filePickModal+0x392>
    1fec: e4 2a        	cpx	$2a                     ; 0x202a <filePickModal+0x3aa>
    1fee: d0 06        	bne	$1ff6 <filePickModal+0x376>
    1ff0: a0 02        	ldy	#$2
    1ff2: 91 24        	sta	($24),y                 ; 0x2024 <filePickModal+0x3a4>
    1ff4: 80 02        	bra	$1ff8 <filePickModal+0x378>
    1ff6: 92 12        	sta	($12)                   ; 0x2012 <filePickModal+0x392>
    1ff8: a0 16        	ldy	#$16
    1ffa: b1 10        	lda	($10),y                 ; 0x2010 <filePickModal+0x390>
    1ffc: 85 12        	sta	$12                     ; 0x2012 <filePickModal+0x392>
    1ffe: c8           	iny
    1fff: b1 10        	lda	($10),y                 ; 0x2010 <filePickModal+0x390>
    2001: 85 13        	sta	$13                     ; 0x2013 <filePickModal+0x393>
    2003: a2 11        	ldx	#$11
    2005: 86 14        	stx	$14                     ; 0x2014 <filePickModal+0x394>
    2007: a2 04        	ldx	#$4
    2009: a9 00        	lda	#$0
    200b: 20 c6 4c     	jsr	$4cc6 <__memset>
    200e: a6 28        	ldx	$28                     ; 0x2028 <filePickModal+0x3a8>
    2010: 86 12        	stx	$12                     ; 0x2012 <filePickModal+0x392>
    2012: a6 29        	ldx	$29                     ; 0x2029 <filePickModal+0x3a9>
    2014: 86 13        	stx	$13                     ; 0x2013 <filePickModal+0x393>
    2016: 64 14        	stz	$14                     ; 0x2014 <filePickModal+0x394>
    2018: a2 63        	ldx	#$63
    201a: a9 00        	lda	#$0
    201c: 20 c6 4c     	jsr	$4cc6 <__memset>
    201f: a9 00        	lda	#$0
    2021: 92 2e        	sta	($2e)                   ; 0x202e <filePickModal+0x3ae>
    2023: a0 01        	ldy	#$1
    2025: 91 2e        	sta	($2e),y                 ; 0x202e <filePickModal+0x3ae>
    2027: c8           	iny
    2028: 91 2e        	sta	($2e),y                 ; 0x202e <filePickModal+0x3ae>
    202a: c8           	iny
    202b: 91 2e        	sta	($2e),y                 ; 0x202e <filePickModal+0x3ae>
    202d: c8           	iny
    202e: 91 2e        	sta	($2e),y                 ; 0x202e <filePickModal+0x3ae>
    2030: c8           	iny
    2031: 91 2e        	sta	($2e),y                 ; 0x202e <filePickModal+0x3ae>
    2033: c8           	iny
    2034: 91 2e        	sta	($2e),y                 ; 0x202e <filePickModal+0x3ae>
    2036: c8           	iny
    2037: 91 2e        	sta	($2e),y                 ; 0x202e <filePickModal+0x3ae>
    2039: a6 24        	ldx	$24                     ; 0x2024 <filePickModal+0x3a4>
    203b: 86 12        	stx	$12                     ; 0x2012 <filePickModal+0x392>
    203d: a6 25        	ldx	$25                     ; 0x2025 <filePickModal+0x3a5>
    203f: 86 13        	stx	$13                     ; 0x2013 <filePickModal+0x393>
    2041: 20 ab 1a     	jsr	$1aab <readDirectory>
    2044: a6 24        	ldx	$24                     ; 0x2024 <filePickModal+0x3a4>
    2046: 86 12        	stx	$12                     ; 0x2012 <filePickModal+0x392>
    2048: a6 25        	ldx	$25                     ; 0x2025 <filePickModal+0x3a5>
    204a: 86 13        	stx	$13                     ; 0x2013 <filePickModal+0x393>
    204c: 20 4d 07     	jsr	$74d <sortFileList>
    204f: b2 26        	lda	($26)                   ; 0x2026 <filePickModal+0x3a6>
    2051: 85 14        	sta	$14                     ; 0x2014 <filePickModal+0x394>
    2053: a0 01        	ldy	#$1
    2055: b1 26        	lda	($26),y                 ; 0x2026 <filePickModal+0x3a6>
    2057: a6 24        	ldx	$24                     ; 0x2024 <filePickModal+0x3a4>
    2059: 86 12        	stx	$12                     ; 0x2012 <filePickModal+0x392>
    205b: a6 25        	ldx	$25                     ; 0x2025 <filePickModal+0x3a5>
    205d: 86 13        	stx	$13                     ; 0x2013 <filePickModal+0x393>
    205f: aa           	tax
    2060: a5 14        	lda	$14                     ; 0x2014 <filePickModal+0x394>
    2062: 20 c1 16     	jsr	$16c1 <displayFileList>
    2065: a9 00        	lda	#$0
    2067: a8           	tay
    2068: c0 00        	cpy	#$0
    206a: d0 0e        	bne	$207a <filePickModal+0x3fa>
    206c: c0 00        	cpy	#$0
    206e: d0 0a        	bne	$207a <filePickModal+0x3fa>
    2070: c0 00        	cpy	#$0
    2072: d0 06        	bne	$207a <filePickModal+0x3fa>
    2074: aa           	tax
    2075: d0 03        	bne	$207a <filePickModal+0x3fa>
    2077: 4c ac 1e     	jmp	$1eac <filePickModal+0x22c>
    207a: c0 00        	cpy	#$0
    207c: d0 11        	bne	$208f <filePickModal+0x40f>
    207e: c0 00        	cpy	#$0
    2080: d0 0d        	bne	$208f <filePickModal+0x40f>
    2082: c0 00        	cpy	#$0
    2084: d0 09        	bne	$208f <filePickModal+0x40f>
    2086: c9 01        	cmp	#$1
    2088: d0 05        	bne	$208f <filePickModal+0x40f>
    208a: a9 01        	lda	#$1
    208c: 4c e5 20     	jmp	$20e5 <filePickModal+0x465>
    208f: b2 24        	lda	($24)                   ; 0x2024 <filePickModal+0x3a4>
    2091: 85 12        	sta	$12                     ; 0x2012 <filePickModal+0x392>
    2093: a0 01        	ldy	#$1
    2095: b1 24        	lda	($24),y                 ; 0x2024 <filePickModal+0x3a4>
    2097: aa           	tax
    2098: a5 12        	lda	$12                     ; 0x2012 <filePickModal+0x392>
    209a: 20 eb 31     	jsr	$31eb <textGotoXY>
    209d: a2 00        	ldx	#$0
    209f: a0 00        	ldy	#$0
    20a1: 80 14        	bra	$20b7 <filePickModal+0x437>
    20a3: e4 12        	cpx	$12                     ; 0x2012 <filePickModal+0x392>
    20a5: a5 27        	lda	$27                     ; 0x2027 <filePickModal+0x3a7>
    20a7: 90 14        	bcc	$20bd <filePickModal+0x43d>
    20a9: a9 0a        	lda	#$a
    20ab: 20 21 49     	jsr	$4921 <putchar>
    20ae: a2 00        	ldx	#$0
    20b0: a4 26        	ldy	$26                     ; 0x2026 <filePickModal+0x3a6>
    20b2: c8           	iny
    20b3: c0 11        	cpy	#$11
    20b5: f0 2c        	beq	$20e3 <filePickModal+0x463>
    20b7: 84 26        	sty	$26                     ; 0x2026 <filePickModal+0x3a6>
    20b9: a0 01        	ldy	#$1
    20bb: b1 24        	lda	($24),y                 ; 0x2024 <filePickModal+0x3a4>
    20bd: 1a           	inc
    20be: 85 27        	sta	$27                     ; 0x2027 <filePickModal+0x3a7>
    20c0: a9 20        	lda	#$20
    20c2: 20 21 49     	jsr	$4921 <putchar>
    20c5: a0 01        	ldy	#$1
    20c7: b1 24        	lda	($24),y                 ; 0x2024 <filePickModal+0x3a4>
    20c9: 18           	clc
    20ca: 69 2c        	adc	#$2c
    20cc: a8           	tay
    20cd: a9 00        	lda	#$0
    20cf: 69 00        	adc	#$0
    20d1: 85 12        	sta	$12                     ; 0x2012 <filePickModal+0x392>
    20d3: a2 00        	ldx	#$0
    20d5: e4 12        	cpx	$12                     ; 0x2012 <filePickModal+0x392>
    20d7: d0 ca        	bne	$20a3 <filePickModal+0x423>
    20d9: 84 12        	sty	$12                     ; 0x2012 <filePickModal+0x392>
    20db: a5 27        	lda	$27                     ; 0x2027 <filePickModal+0x3a7>
    20dd: c5 12        	cmp	$12                     ; 0x2012 <filePickModal+0x392>
    20df: b0 c8        	bcs	$20a9 <filePickModal+0x429>
    20e1: 80 da        	bra	$20bd <filePickModal+0x43d>
    20e3: a9 00        	lda	#$0
    20e5: 85 20        	sta	$20                     ; 0x2020 <filePickModal+0x3a0>
    20e7: a0 06        	ldy	#$6
    20e9: b1 10        	lda	($10),y                 ; 0x2010 <filePickModal+0x390>
    20eb: 85 2f        	sta	$2f                     ; 0x202f <filePickModal+0x3af>
    20ed: c8           	iny
    20ee: b1 10        	lda	($10),y                 ; 0x2010 <filePickModal+0x390>
    20f0: 85 2e        	sta	$2e                     ; 0x202e <filePickModal+0x3ae>
    20f2: c8           	iny
    20f3: b1 10        	lda	($10),y                 ; 0x2010 <filePickModal+0x390>
    20f5: 85 2d        	sta	$2d                     ; 0x202d <filePickModal+0x3ad>
    20f7: c8           	iny
    20f8: b1 10        	lda	($10),y                 ; 0x2010 <filePickModal+0x390>
    20fa: 85 2c        	sta	$2c                     ; 0x202c <filePickModal+0x3ac>
    20fc: c8           	iny
    20fd: b1 10        	lda	($10),y                 ; 0x2010 <filePickModal+0x390>
    20ff: 85 2b        	sta	$2b                     ; 0x202b <filePickModal+0x3ab>
    2101: c8           	iny
    2102: b1 10        	lda	($10),y                 ; 0x2010 <filePickModal+0x390>
    2104: 85 2a        	sta	$2a                     ; 0x202a <filePickModal+0x3aa>
    2106: c8           	iny
    2107: b1 10        	lda	($10),y                 ; 0x2010 <filePickModal+0x390>
    2109: 85 29        	sta	$29                     ; 0x2029 <filePickModal+0x3a9>
    210b: c8           	iny
    210c: b1 10        	lda	($10),y                 ; 0x2010 <filePickModal+0x390>
    210e: 85 28        	sta	$28                     ; 0x2028 <filePickModal+0x3a8>
    2110: fa           	plx
    2111: 86 27        	stx	$27                     ; 0x2027 <filePickModal+0x3a7>
    2113: fa           	plx
    2114: 86 26        	stx	$26                     ; 0x2026 <filePickModal+0x3a6>
    2116: fa           	plx
    2117: 86 25        	stx	$25                     ; 0x2025 <filePickModal+0x3a5>
    2119: fa           	plx
    211a: 86 24        	stx	$24                     ; 0x2024 <filePickModal+0x3a4>
    211c: 18           	clc
    211d: a5 10        	lda	$10                     ; 0x2010 <filePickModal+0x390>
    211f: 69 58        	adc	#$58
    2121: 85 10        	sta	$10                     ; 0x2010 <filePickModal+0x390>
    2123: a5 11        	lda	$11                     ; 0x2011 <filePickModal+0x391>
    2125: 69 00        	adc	#$0
    2127: 85 11        	sta	$11                     ; 0x2011 <filePickModal+0x391>
    2129: a5 20        	lda	$20                     ; 0x2020 <filePickModal+0x3a0>
    212b: 60           	rts

0000212c <opl3_initialize>:
    212c: a2 01        	ldx	#$1
    212e: 8e 80 d5     	stx	$d580                   ; 0xd580 <__heap_start+0x6e58>
    2131: a0 20        	ldy	#$20
    2133: 8c 81 d5     	sty	$d581                   ; 0xd581 <__heap_start+0x6e59>
    2136: a0 02        	ldy	#$2
    2138: 8c 80 d5     	sty	$d580                   ; 0xd580 <__heap_start+0x6e58>
    213b: 9c 81 d5     	stz	$d581                   ; 0xd581 <__heap_start+0x6e59>
    213e: c8           	iny
    213f: 8c 80 d5     	sty	$d580                   ; 0xd580 <__heap_start+0x6e58>
    2142: 9c 81 d5     	stz	$d581                   ; 0xd581 <__heap_start+0x6e59>
    2145: c8           	iny
    2146: 8c 82 d5     	sty	$d582                   ; 0xd582 <__heap_start+0x6e5a>
    2149: 9c 81 d5     	stz	$d581                   ; 0xd581 <__heap_start+0x6e59>
    214c: c8           	iny
    214d: 8c 82 d5     	sty	$d582                   ; 0xd582 <__heap_start+0x6e5a>
    2150: 8e 81 d5     	stx	$d581                   ; 0xd581 <__heap_start+0x6e59>
    2153: a2 08        	ldx	#$8
    2155: 8e 80 d5     	stx	$d580                   ; 0xd580 <__heap_start+0x6e58>
    2158: 9c 81 d5     	stz	$d581                   ; 0xd581 <__heap_start+0x6e59>
    215b: a2 c0        	ldx	#$c0
    215d: a0 30        	ldy	#$30
    215f: 8e 80 d5     	stx	$d580                   ; 0xd580 <__heap_start+0x6e58>
    2162: 8c 81 d5     	sty	$d581                   ; 0xd581 <__heap_start+0x6e59>
    2165: e8           	inx
    2166: e0 c9        	cpx	#$c9
    2168: d0 f5        	bne	$215f <opl3_initialize+0x33>
    216a: a2 c0        	ldx	#$c0
    216c: a0 30        	ldy	#$30
    216e: 8e 82 d5     	stx	$d582                   ; 0xd582 <__heap_start+0x6e5a>
    2171: 8c 81 d5     	sty	$d581                   ; 0xd581 <__heap_start+0x6e59>
    2174: e8           	inx
    2175: e0 c9        	cpx	#$c9
    2177: d0 f5        	bne	$216e <opl3_initialize+0x42>
    2179: a2 b0        	ldx	#$b0
    217b: 8e 80 d5     	stx	$d580                   ; 0xd580 <__heap_start+0x6e58>
    217e: 9c 81 d5     	stz	$d581                   ; 0xd581 <__heap_start+0x6e59>
    2181: e8           	inx
    2182: e0 b9        	cpx	#$b9
    2184: d0 f5        	bne	$217b <opl3_initialize+0x4f>
    2186: a2 b0        	ldx	#$b0
    2188: 8e 82 d5     	stx	$d582                   ; 0xd582 <__heap_start+0x6e5a>
    218b: 9c 81 d5     	stz	$d581                   ; 0xd581 <__heap_start+0x6e59>
    218e: e8           	inx
    218f: e0 b9        	cpx	#$b9
    2191: d0 f5        	bne	$2188 <opl3_initialize+0x5c>
    2193: 60           	rts

00002194 <opl3_write>:
    2194: a4 12        	ldy	$12                     ; 0x2012 <filePickModal+0x392>
    2196: e0 01        	cpx	#$1
    2198: d0 0b        	bne	$21a5 <opl3_write+0x11>
    219a: c9 00        	cmp	#$0
    219c: 90 0b        	bcc	$21a9 <opl3_write+0x15>
    219e: 8d 82 d5     	sta	$d582                   ; 0xd582 <__heap_start+0x6e5a>
    21a1: 8c 81 d5     	sty	$d581                   ; 0xd581 <__heap_start+0x6e59>
    21a4: 60           	rts
    21a5: e0 01        	cpx	#$1
    21a7: b0 f5        	bcs	$219e <opl3_write+0xa>
    21a9: 8d 80 d5     	sta	$d580                   ; 0xd580 <__heap_start+0x6e58>
    21ac: 8c 81 d5     	sty	$d581                   ; 0xd581 <__heap_start+0x6e59>
    21af: 60           	rts

000021b0 <opl3_quietAll>:
    21b0: a2 b0        	ldx	#$b0
    21b2: 8e 80 d5     	stx	$d580                   ; 0xd580 <__heap_start+0x6e58>
    21b5: 9c 81 d5     	stz	$d581                   ; 0xd581 <__heap_start+0x6e59>
    21b8: e8           	inx
    21b9: e0 b9        	cpx	#$b9
    21bb: d0 f5        	bne	$21b2 <opl3_quietAll+0x2>
    21bd: a2 b0        	ldx	#$b0
    21bf: 8e 82 d5     	stx	$d582                   ; 0xd582 <__heap_start+0x6e5a>
    21c2: 9c 81 d5     	stz	$d581                   ; 0xd581 <__heap_start+0x6e59>
    21c5: e8           	inx
    21c6: e0 b9        	cpx	#$b9
    21c8: d0 f5        	bne	$21bf <opl3_quietAll+0xf>
    21ca: 60           	rts

000021cb <setTimer0>:
    21cb: a0 02        	ldy	#$2
    21cd: 8c 50 d6     	sty	$d650                   ; 0xd650 <__heap_start+0x6f28>
    21d0: 8d 55 d6     	sta	$d655                   ; 0xd655 <__heap_start+0x6f2d>
    21d3: 8e 56 d6     	stx	$d656                   ; 0xd656 <__heap_start+0x6f2e>
    21d6: a6 12        	ldx	$12                     ; 0x2012 <filePickModal+0x392>
    21d8: 8e 57 d6     	stx	$d657                   ; 0xd657 <__heap_start+0x6f2f>
    21db: 9c 54 d6     	stz	$d654                   ; 0xd654 <__heap_start+0x6f2c>
    21de: 8c 50 d6     	sty	$d650                   ; 0xd650 <__heap_start+0x6f28>
    21e1: a2 89        	ldx	#$89
    21e3: 8e 50 d6     	stx	$d650                   ; 0xd650 <__heap_start+0x6f28>
    21e6: 60           	rts

000021e7 <getTimerAbsolute>:
    21e7: 09 80        	ora	#$80
    21e9: 85 f3        	sta	$f3                     ; 0x20f3 <filePickModal+0x473>
    21eb: a2 9d        	ldx	#$9d
    21ed: a0 00        	ldy	#$0
    21ef: 86 12        	stx	$12                     ; 0x2012 <filePickModal+0x392>
    21f1: 84 13        	sty	$13                     ; 0x2013 <filePickModal+0x393>
    21f3: a2 73        	ldx	#$73
    21f5: 86 14        	stx	$14                     ; 0x2014 <filePickModal+0x394>
    21f7: a2 00        	ldx	#$0
    21f9: 86 15        	stx	$15                     ; 0x2015 <filePickModal+0x395>
    21fb: 20 f0 ff     	jsr	$fff0 <__heap_start+0x98c8>
    21fe: 92 12        	sta	($12)                   ; 0x2012 <filePickModal+0x392>
    2200: a9 00        	lda	#$0
    2202: 6a           	ror
    2203: 85 14        	sta	$14                     ; 0x2014 <filePickModal+0x394>
    2205: a5 9d        	lda	$9d                     ; 0x209d <filePickModal+0x41d>
    2207: 60           	rts

00002208 <f256Init>:
    2208: 64 12        	stz	$12                     ; 0x2012 <filePickModal+0x392>
    220a: 64 01        	stz	$1                      ; 0x2001 <filePickModal+0x381>
    220c: a2 3f        	ldx	#$3f
    220e: 8e 00 d0     	stx	$d000                   ; 0xd000 <__heap_start+0x68d8>
    2211: a2 b3        	ldx	#$b3
    2213: 86 00        	stx	$0                      ; 0x2000 <filePickModal+0x380>
    2215: 64 08        	stz	$8                      ; 0x2008 <filePickModal+0x388>
    2217: a2 01        	ldx	#$1
    2219: 86 09        	stx	$9                      ; 0x2009 <filePickModal+0x389>
    221b: e8           	inx
    221c: 86 0a        	stx	$a                      ; 0x200a <filePickModal+0x38a>
    221e: e8           	inx
    221f: 86 0b        	stx	$b                      ; 0x200b <filePickModal+0x38b>
    2221: e8           	inx
    2222: 86 0c        	stx	$c                      ; 0x200c <filePickModal+0x38c>
    2224: e8           	inx
    2225: 86 0d        	stx	$d                      ; 0x200d <filePickModal+0x38d>
    2227: a2 f0        	ldx	#$f0
    2229: 86 6a        	stx	$6a                     ; 0x206a <filePickModal+0x3ea>
    222b: 64 6b        	stz	$6b                     ; 0x206b <filePickModal+0x3eb>
    222d: a2 6c        	ldx	#$6c
    222f: a0 00        	ldy	#$0
    2231: 86 f0        	stx	$f0                     ; 0x20f0 <filePickModal+0x470>
    2233: 84 f1        	sty	$f1                     ; 0x20f1 <filePickModal+0x471>
    2235: a2 00        	ldx	#$0
    2237: 86 16        	stx	$16                     ; 0x2016 <filePickModal+0x396>
    2239: ca           	dex
    223a: 86 17        	stx	$17                     ; 0x2017 <filePickModal+0x397>
    223c: 8a           	txa
    223d: 0a           	asl
    223e: 0a           	asl
    223f: 18           	clc
    2240: 69 d4        	adc	#$d4
    2242: 85 18        	sta	$18                     ; 0x2018 <filePickModal+0x398>
    2244: a0 00        	ldy	#$0
    2246: 64 15        	stz	$15                     ; 0x2015 <filePickModal+0x395>
    2248: 64 14        	stz	$14                     ; 0x2014 <filePickModal+0x394>
    224a: a6 17        	ldx	$17                     ; 0x2017 <filePickModal+0x397>
    224c: e0 03        	cpx	#$3
    224e: a6 01        	ldx	$1                      ; 0x2001 <filePickModal+0x381>
    2250: 86 1a        	stx	$1a                     ; 0x201a <filePickModal+0x39a>
    2252: a2 d0        	ldx	#$d0
    2254: 84 19        	sty	$19                     ; 0x2019 <filePickModal+0x399>
    2256: b0 02        	bcs	$225a <f256Init+0x52>
    2258: a6 18        	ldx	$18                     ; 0x2018 <filePickModal+0x398>
    225a: 86 13        	stx	$13                     ; 0x2013 <filePickModal+0x393>
    225c: a5 15        	lda	$15                     ; 0x2015 <filePickModal+0x395>
    225e: 18           	clc
    225f: 65 12        	adc	$12                     ; 0x2012 <filePickModal+0x392>
    2261: a8           	tay
    2262: a6 15        	ldx	$15                     ; 0x2015 <filePickModal+0x395>
    2264: a5 14        	lda	$14                     ; 0x2014 <filePickModal+0x394>
    2266: 85 1b        	sta	$1b                     ; 0x201b <filePickModal+0x39b>
    2268: a5 14        	lda	$14                     ; 0x2014 <filePickModal+0x394>
    226a: 65 13        	adc	$13                     ; 0x2013 <filePickModal+0x393>
    226c: 84 14        	sty	$14                     ; 0x2014 <filePickModal+0x394>
    226e: a0 01        	ldy	#$1
    2270: 84 01        	sty	$1                      ; 0x2001 <filePickModal+0x381>
    2272: 85 15        	sta	$15                     ; 0x2015 <filePickModal+0x395>
    2274: a5 19        	lda	$19                     ; 0x2019 <filePickModal+0x399>
    2276: 92 14        	sta	($14)                   ; 0x2014 <filePickModal+0x394>
    2278: 91 14        	sta	($14),y                 ; 0x2014 <filePickModal+0x394>
    227a: c8           	iny
    227b: 91 14        	sta	($14),y                 ; 0x2014 <filePickModal+0x394>
    227d: 85 13        	sta	$13                     ; 0x2013 <filePickModal+0x393>
    227f: c8           	iny
    2280: a9 ff        	lda	#$ff
    2282: 91 14        	sta	($14),y                 ; 0x2014 <filePickModal+0x394>
    2284: 8a           	txa
    2285: a6 1a        	ldx	$1a                     ; 0x201a <filePickModal+0x39a>
    2287: 86 01        	stx	$1                      ; 0x2001 <filePickModal+0x381>
    2289: 18           	clc
    228a: 69 04        	adc	#$4
    228c: 85 15        	sta	$15                     ; 0x2015 <filePickModal+0x395>
    228e: a5 1b        	lda	$1b                     ; 0x201b <filePickModal+0x39b>
    2290: 69 00        	adc	#$0
    2292: e6 13        	inc	$13                     ; 0x2013 <filePickModal+0x393>
    2294: a4 13        	ldy	$13                     ; 0x2013 <filePickModal+0x393>
    2296: 85 14        	sta	$14                     ; 0x2014 <filePickModal+0x394>
    2298: c9 04        	cmp	#$4
    229a: f0 03        	beq	$229f <f256Init+0x97>
    229c: 4c 4a 22     	jmp	$224a <f256Init+0x42>
    229f: a5 15        	lda	$15                     ; 0x2015 <filePickModal+0x395>
    22a1: f0 03        	beq	$22a6 <f256Init+0x9e>
    22a3: 4c 4a 22     	jmp	$224a <f256Init+0x42>
    22a6: a6 16        	ldx	$16                     ; 0x2016 <filePickModal+0x396>
    22a8: e8           	inx
    22a9: e0 04        	cpx	#$4
    22ab: f0 03        	beq	$22b0 <f256Init+0xa8>
    22ad: 4c 37 22     	jmp	$2237 <f256Init+0x2f>
    22b0: ad 02 d0     	lda	$d002                   ; 0xd002 <__heap_start+0x68da>
    22b3: 29 f0        	and	#$f0
    22b5: 8d 02 d0     	sta	$d002                   ; 0xd002 <__heap_start+0x68da>
    22b8: ad 02 d0     	lda	$d002                   ; 0xd002 <__heap_start+0x68da>
    22bb: 29 0f        	and	#$f
    22bd: 09 10        	ora	#$10
    22bf: 8d 02 d0     	sta	$d002                   ; 0xd002 <__heap_start+0x68da>
    22c2: a2 02        	ldx	#$2
    22c4: 8e 03 d0     	stx	$d003                   ; 0xd003 <__heap_start+0x68db>
    22c7: 20 84 23     	jsr	$2384 <textReset>
    22ca: 20 f7 24     	jsr	$24f7 <bitmapReset>
    22cd: a9 10        	lda	#$10
    22cf: a2 08        	ldx	#$8
    22d1: 86 89        	stx	$89                     ; 0x2089 <filePickModal+0x409>
    22d3: 86 8a        	stx	$8a                     ; 0x208a <filePickModal+0x40a>
    22d5: 86 8b        	stx	$8b                     ; 0x208b <filePickModal+0x40b>
    22d7: 8d 00 d2     	sta	$d200                   ; 0xd200 <__heap_start+0x6ad8>
    22da: a4 8a        	ldy	$8a                     ; 0x208a <filePickModal+0x40a>
    22dc: aa           	tax
    22dd: c0 08        	cpy	#$8
    22df: f0 02        	beq	$22e3 <f256Init+0xdb>
    22e1: a2 00        	ldx	#$0
    22e3: 8e 0c d2     	stx	$d20c                   ; 0xd20c <__heap_start+0x6ae4>
    22e6: a6 8b        	ldx	$8b                     ; 0x208b <filePickModal+0x40b>
    22e8: e0 08        	cpx	#$8
    22ea: f0 02        	beq	$22ee <f256Init+0xe6>
    22ec: a9 00        	lda	#$0
    22ee: 8d 18 d2     	sta	$d218                   ; 0xd218 <__heap_start+0x6af0>
    22f1: a0 d9        	ldy	#$d9
    22f3: a2 00        	ldx	#$0
    22f5: 64 12        	stz	$12                     ; 0x2012 <filePickModal+0x392>
    22f7: 84 13        	sty	$13                     ; 0x2013 <filePickModal+0x393>
    22f9: bd 89 53     	lda	$5389,x                 ; 0x5389 <_spriteCtl>
    22fc: 92 12        	sta	($12)                   ; 0x2012 <filePickModal+0x392>
    22fe: e8           	inx
    22ff: 18           	clc
    2300: a5 12        	lda	$12                     ; 0x2012 <filePickModal+0x392>
    2302: 69 08        	adc	#$8
    2304: 85 12        	sta	$12                     ; 0x2012 <filePickModal+0x392>
    2306: 98           	tya
    2307: 69 00        	adc	#$0
    2309: a8           	tay
    230a: e0 40        	cpx	#$40
    230c: d0 e9        	bne	$22f7 <f256Init+0xef>
    230e: 64 8c        	stz	$8c                     ; 0x208c <filePickModal+0x40c>
    2310: 64 8d        	stz	$8d                     ; 0x208d <filePickModal+0x40d>
    2312: 64 8e        	stz	$8e                     ; 0x208e <filePickModal+0x40e>
    2314: 64 8f        	stz	$8f                     ; 0x208f <filePickModal+0x40f>
    2316: 64 90        	stz	$90                     ; 0x2090 <filePickModal+0x410>
    2318: 64 91        	stz	$91                     ; 0x2091 <filePickModal+0x411>
    231a: 64 92        	stz	$92                     ; 0x2092 <filePickModal+0x412>
    231c: 64 93        	stz	$93                     ; 0x2093 <filePickModal+0x413>
    231e: a5 6a        	lda	$6a                     ; 0x206a <filePickModal+0x3ea>
    2320: a6 6b        	ldx	$6b                     ; 0x206b <filePickModal+0x3eb>
    2322: 85 12        	sta	$12                     ; 0x2012 <filePickModal+0x392>
    2324: 86 13        	stx	$13                     ; 0x2013 <filePickModal+0x393>
    2326: a0 0b        	ldy	#$b
    2328: 18           	clc
    2329: 69 0b        	adc	#$b
    232b: 85 14        	sta	$14                     ; 0x2014 <filePickModal+0x394>
    232d: 8a           	txa
    232e: 69 00        	adc	#$0
    2330: 85 15        	sta	$15                     ; 0x2015 <filePickModal+0x395>
    2332: a9 9d        	lda	#$9d
    2334: 91 12        	sta	($12),y                 ; 0x2012 <filePickModal+0x392>
    2336: a0 01        	ldy	#$1
    2338: a9 00        	lda	#$0
    233a: 91 14        	sta	($14),y                 ; 0x2014 <filePickModal+0x394>
    233c: a0 0d        	ldy	#$d
    233e: a9 08        	lda	#$8
    2340: 91 12        	sta	($12),y                 ; 0x2012 <filePickModal+0x392>
    2342: a2 a5        	ldx	#$a5
    2344: a0 00        	ldy	#$0
    2346: 86 12        	stx	$12                     ; 0x2012 <filePickModal+0x392>
    2348: 84 13        	sty	$13                     ; 0x2013 <filePickModal+0x393>
    234a: a2 73        	ldx	#$73
    234c: 86 14        	stx	$14                     ; 0x2014 <filePickModal+0x394>
    234e: a2 00        	ldx	#$0
    2350: 86 15        	stx	$15                     ; 0x2015 <filePickModal+0x395>
    2352: 20 dc ff     	jsr	$ffdc <__heap_start+0x98b4>
    2355: 92 12        	sta	($12)                   ; 0x2012 <filePickModal+0x392>
    2357: a9 00        	lda	#$0
    2359: 6a           	ror
    235a: 85 14        	sta	$14                     ; 0x2014 <filePickModal+0x394>
    235c: a6 a3        	ldx	$a3                     ; 0x20a3 <filePickModal+0x423>
    235e: a4 a4        	ldy	$a4                     ; 0x20a4 <filePickModal+0x424>
    2360: 8e 00 de     	stx	$de00                   ; 0xde00 <__heap_start+0x76d8>
    2363: 9c 01 de     	stz	$de01                   ; 0xde01 <__heap_start+0x76d9>
    2366: 8c 02 de     	sty	$de02                   ; 0xde02 <__heap_start+0x76da>
    2369: 9c 03 de     	stz	$de03                   ; 0xde03 <__heap_start+0x76db>
    236c: ae 10 de     	ldx	$de10                   ; 0xde10 <__heap_start+0x76e8>
    236f: ac 11 de     	ldy	$de11                   ; 0xde11 <__heap_start+0x76e9>
    2372: ad 12 de     	lda	$de12                   ; 0xde12 <__heap_start+0x76ea>
    2375: ad 13 de     	lda	$de13                   ; 0xde13 <__heap_start+0x76eb>
    2378: 8e a4 d6     	stx	$d6a4                   ; 0xd6a4 <__heap_start+0x6f7c>
    237b: 8c a5 d6     	sty	$d6a5                   ; 0xd6a5 <__heap_start+0x6f7d>
    237e: a2 03        	ldx	#$3
    2380: 8e a6 d6     	stx	$d6a6                   ; 0xd6a6 <__heap_start+0x6f7e>
    2383: 60           	rts

00002384 <textReset>:
    2384: 64 14        	stz	$14                     ; 0x2014 <filePickModal+0x394>
    2386: a2 00        	ldx	#$0
    2388: 86 12        	stx	$12                     ; 0x2012 <filePickModal+0x392>
    238a: a2 c0        	ldx	#$c0
    238c: 86 13        	stx	$13                     ; 0x2013 <filePickModal+0x393>
    238e: a2 f0        	ldx	#$f0
    2390: 86 65        	stx	$65                     ; 0x2065 <filePickModal+0x3e5>
    2392: ad 01 d0     	lda	$d001                   ; 0xd001 <__heap_start+0x68d9>
    2395: 29 f9        	and	#$f9
    2397: 09 04        	ora	#$4
    2399: 8d 01 d0     	sta	$d001                   ; 0xd001 <__heap_start+0x68d9>
    239c: a2 50        	ldx	#$50
    239e: 86 63        	stx	$63                     ; 0x2063 <filePickModal+0x3e3>
    23a0: a2 1e        	ldx	#$1e
    23a2: 86 64        	stx	$64                     ; 0x2064 <filePickModal+0x3e4>
    23a4: 9c 10 d0     	stz	$d010                   ; 0xd010 <__heap_start+0x68e8>
    23a7: a0 00        	ldy	#$0
    23a9: a2 00        	ldx	#$0
    23ab: 84 18        	sty	$18                     ; 0x2018 <filePickModal+0x398>
    23ad: b9 33 00     	lda	$33,y                   ; 0x33 <textColors>
    23b0: 85 1b        	sta	$1b                     ; 0x201b <filePickModal+0x39b>
    23b2: b9 34 00     	lda	$34,y                   ; 0x34 <textColors+0x1>
    23b5: 85 1c        	sta	$1c                     ; 0x201c <filePickModal+0x39c>
    23b7: b9 35 00     	lda	$35,y                   ; 0x35 <textColors+0x2>
    23ba: 85 1d        	sta	$1d                     ; 0x201d <filePickModal+0x39d>
    23bc: 84 1a        	sty	$1a                     ; 0x201a <filePickModal+0x39a>
    23be: 8e 00 de     	stx	$de00                   ; 0xde00 <__heap_start+0x76d8>
    23c1: 9c 01 de     	stz	$de01                   ; 0xde01 <__heap_start+0x76d9>
    23c4: a0 04        	ldy	#$4
    23c6: 8c 02 de     	sty	$de02                   ; 0xde02 <__heap_start+0x76da>
    23c9: 9c 03 de     	stz	$de03                   ; 0xde03 <__heap_start+0x76db>
    23cc: ac 10 de     	ldy	$de10                   ; 0xde10 <__heap_start+0x76e8>
    23cf: ad 11 de     	lda	$de11                   ; 0xde11 <__heap_start+0x76e9>
    23d2: 85 15        	sta	$15                     ; 0x2015 <filePickModal+0x395>
    23d4: 18           	clc
    23d5: 98           	tya
    23d6: 65 14        	adc	$14                     ; 0x2014 <filePickModal+0x394>
    23d8: 85 16        	sta	$16                     ; 0x2016 <filePickModal+0x396>
    23da: a9 d8        	lda	#$d8
    23dc: 65 15        	adc	$15                     ; 0x2015 <filePickModal+0x395>
    23de: 86 19        	stx	$19                     ; 0x2019 <filePickModal+0x399>
    23e0: ae 12 de     	ldx	$de12                   ; 0xde12 <__heap_start+0x76ea>
    23e3: ae 13 de     	ldx	$de13                   ; 0xde13 <__heap_start+0x76eb>
    23e6: 85 17        	sta	$17                     ; 0x2017 <filePickModal+0x397>
    23e8: a5 1d        	lda	$1d                     ; 0x201d <filePickModal+0x39d>
    23ea: 92 16        	sta	($16)                   ; 0x2016 <filePickModal+0x396>
    23ec: a0 01        	ldy	#$1
    23ee: a5 1c        	lda	$1c                     ; 0x201c <filePickModal+0x39c>
    23f0: 91 16        	sta	($16),y                 ; 0x2016 <filePickModal+0x396>
    23f2: c8           	iny
    23f3: a5 1b        	lda	$1b                     ; 0x201b <filePickModal+0x39b>
    23f5: 91 16        	sta	($16),y                 ; 0x2016 <filePickModal+0x396>
    23f7: c8           	iny
    23f8: a9 ff        	lda	#$ff
    23fa: 91 16        	sta	($16),y                 ; 0x2016 <filePickModal+0x396>
    23fc: a6 1a        	ldx	$1a                     ; 0x201a <filePickModal+0x39a>
    23fe: b4 33        	ldy	$33,x                   ; 0x2033 <filePickModal+0x3b3>
    2400: 84 1a        	sty	$1a                     ; 0x201a <filePickModal+0x39a>
    2402: b4 34        	ldy	$34,x                   ; 0x2034 <filePickModal+0x3b4>
    2404: 84 1b        	sty	$1b                     ; 0x201b <filePickModal+0x39b>
    2406: b5 35        	lda	$35,x                   ; 0x2035 <filePickModal+0x3b5>
    2408: aa           	tax
    2409: 86 1c        	stx	$1c                     ; 0x201c <filePickModal+0x39c>
    240b: a6 19        	ldx	$19                     ; 0x2019 <filePickModal+0x399>
    240d: 8e 00 de     	stx	$de00                   ; 0xde00 <__heap_start+0x76d8>
    2410: 9c 01 de     	stz	$de01                   ; 0xde01 <__heap_start+0x76d9>
    2413: a2 04        	ldx	#$4
    2415: 8e 02 de     	stx	$de02                   ; 0xde02 <__heap_start+0x76da>
    2418: 9c 03 de     	stz	$de03                   ; 0xde03 <__heap_start+0x76db>
    241b: ae 10 de     	ldx	$de10                   ; 0xde10 <__heap_start+0x76e8>
    241e: 86 15        	stx	$15                     ; 0x2015 <filePickModal+0x395>
    2420: ae 11 de     	ldx	$de11                   ; 0xde11 <__heap_start+0x76e9>
    2423: 86 16        	stx	$16                     ; 0x2016 <filePickModal+0x396>
    2425: a9 40        	lda	#$40
    2427: 18           	clc
    2428: 65 15        	adc	$15                     ; 0x2015 <filePickModal+0x395>
    242a: aa           	tax
    242b: a9 d8        	lda	#$d8
    242d: 65 16        	adc	$16                     ; 0x2016 <filePickModal+0x396>
    242f: 86 16        	stx	$16                     ; 0x2016 <filePickModal+0x396>
    2431: ae 12 de     	ldx	$de12                   ; 0xde12 <__heap_start+0x76ea>
    2434: 85 17        	sta	$17                     ; 0x2017 <filePickModal+0x397>
    2436: ae 13 de     	ldx	$de13                   ; 0xde13 <__heap_start+0x76eb>
    2439: a6 19        	ldx	$19                     ; 0x2019 <filePickModal+0x399>
    243b: a5 1c        	lda	$1c                     ; 0x201c <filePickModal+0x39c>
    243d: 92 16        	sta	($16)                   ; 0x2016 <filePickModal+0x396>
    243f: a0 01        	ldy	#$1
    2441: a5 1b        	lda	$1b                     ; 0x201b <filePickModal+0x39b>
    2443: 91 16        	sta	($16),y                 ; 0x2016 <filePickModal+0x396>
    2445: c8           	iny
    2446: a5 1a        	lda	$1a                     ; 0x201a <filePickModal+0x39a>
    2448: 91 16        	sta	($16),y                 ; 0x2016 <filePickModal+0x396>
    244a: a9 ff        	lda	#$ff
    244c: c8           	iny
    244d: 91 16        	sta	($16),y                 ; 0x2016 <filePickModal+0x396>
    244f: e8           	inx
    2450: 18           	clc
    2451: a5 18        	lda	$18                     ; 0x2018 <filePickModal+0x398>
    2453: 69 03        	adc	#$3
    2455: a8           	tay
    2456: c9 30        	cmp	#$30
    2458: f0 03        	beq	$245d <textReset+0xd9>
    245a: 4c ab 23     	jmp	$23ab <textReset+0x27>
    245d: a6 01        	ldx	$1                      ; 0x2001 <filePickModal+0x381>
    245f: 86 18        	stx	$18                     ; 0x2018 <filePickModal+0x398>
    2461: a6 63        	ldx	$63                     ; 0x2063 <filePickModal+0x3e3>
    2463: a4 64        	ldy	$64                     ; 0x2064 <filePickModal+0x3e4>
    2465: 8e 00 de     	stx	$de00                   ; 0xde00 <__heap_start+0x76d8>
    2468: 9c 01 de     	stz	$de01                   ; 0xde01 <__heap_start+0x76d9>
    246b: 8c 02 de     	sty	$de02                   ; 0xde02 <__heap_start+0x76da>
    246e: 9c 03 de     	stz	$de03                   ; 0xde03 <__heap_start+0x76db>
    2471: ae 10 de     	ldx	$de10                   ; 0xde10 <__heap_start+0x76e8>
    2474: ac 11 de     	ldy	$de11                   ; 0xde11 <__heap_start+0x76e9>
    2477: ad 12 de     	lda	$de12                   ; 0xde12 <__heap_start+0x76ea>
    247a: ad 13 de     	lda	$de13                   ; 0xde13 <__heap_start+0x76eb>
    247d: a9 02        	lda	#$2
    247f: 85 01        	sta	$1                      ; 0x2001 <filePickModal+0x381>
    2481: e0 01        	cpx	#$1
    2483: 98           	tya
    2484: e9 00        	sbc	#$0
    2486: 50 02        	bvc	$248a <textReset+0x106>
    2488: 49 80        	eor	#$80
    248a: c9 00        	cmp	#$0
    248c: 30 50        	bmi	$24de <textReset+0x15a>
    248e: a9 20        	lda	#$20
    2490: 86 19        	stx	$19                     ; 0x2019 <filePickModal+0x399>
    2492: 86 14        	stx	$14                     ; 0x2014 <filePickModal+0x394>
    2494: 84 15        	sty	$15                     ; 0x2015 <filePickModal+0x395>
    2496: a2 00        	ldx	#$0
    2498: 86 16        	stx	$16                     ; 0x2016 <filePickModal+0x396>
    249a: a2 c0        	ldx	#$c0
    249c: 86 17        	stx	$17                     ; 0x2017 <filePickModal+0x397>
    249e: 80 04        	bra	$24a4 <textReset+0x120>
    24a0: a6 15        	ldx	$15                     ; 0x2015 <filePickModal+0x395>
    24a2: f0 14        	beq	$24b8 <textReset+0x134>
    24a4: 92 16        	sta	($16)                   ; 0x2016 <filePickModal+0x396>
    24a6: e6 16        	inc	$16                     ; 0x2016 <filePickModal+0x396>
    24a8: d0 02        	bne	$24ac <textReset+0x128>
    24aa: e6 17        	inc	$17                     ; 0x2017 <filePickModal+0x397>
    24ac: a2 ff        	ldx	#$ff
    24ae: c6 14        	dec	$14                     ; 0x2014 <filePickModal+0x394>
    24b0: e4 14        	cpx	$14                     ; 0x2014 <filePickModal+0x394>
    24b2: d0 ec        	bne	$24a0 <textReset+0x11c>
    24b4: c6 15        	dec	$15                     ; 0x2015 <filePickModal+0x395>
    24b6: 80 e8        	bra	$24a0 <textReset+0x11c>
    24b8: a6 14        	ldx	$14                     ; 0x2014 <filePickModal+0x394>
    24ba: d0 e8        	bne	$24a4 <textReset+0x120>
    24bc: a2 03        	ldx	#$3
    24be: 86 01        	stx	$1                      ; 0x2001 <filePickModal+0x381>
    24c0: a6 19        	ldx	$19                     ; 0x2019 <filePickModal+0x399>
    24c2: 80 03        	bra	$24c7 <textReset+0x143>
    24c4: 98           	tya
    24c5: f0 12        	beq	$24d9 <textReset+0x155>
    24c7: a5 65        	lda	$65                     ; 0x2065 <filePickModal+0x3e5>
    24c9: 92 12        	sta	($12)                   ; 0x2012 <filePickModal+0x392>
    24cb: e6 12        	inc	$12                     ; 0x2012 <filePickModal+0x392>
    24cd: d0 02        	bne	$24d1 <textReset+0x14d>
    24cf: e6 13        	inc	$13                     ; 0x2013 <filePickModal+0x393>
    24d1: ca           	dex
    24d2: e0 ff        	cpx	#$ff
    24d4: d0 ee        	bne	$24c4 <textReset+0x140>
    24d6: 88           	dey
    24d7: 80 eb        	bra	$24c4 <textReset+0x140>
    24d9: 8a           	txa
    24da: d0 eb        	bne	$24c7 <textReset+0x143>
    24dc: 80 04        	bra	$24e2 <textReset+0x15e>
    24de: a2 03        	ldx	#$3
    24e0: 86 01        	stx	$1                      ; 0x2001 <filePickModal+0x381>
    24e2: a6 18        	ldx	$18                     ; 0x2018 <filePickModal+0x398>
    24e4: 86 01        	stx	$1                      ; 0x2001 <filePickModal+0x381>
    24e6: 64 74        	stz	$74                     ; 0x2074 <filePickModal+0x3f4>
    24e8: 9c 14 d0     	stz	$d014                   ; 0xd014 <__heap_start+0x68ec>
    24eb: 9c 15 d0     	stz	$d015                   ; 0xd015 <__heap_start+0x68ed>
    24ee: 64 75        	stz	$75                     ; 0x2075 <filePickModal+0x3f5>
    24f0: 9c 16 d0     	stz	$d016                   ; 0xd016 <__heap_start+0x68ee>
    24f3: 9c 17 d0     	stz	$d017                   ; 0xd017 <__heap_start+0x68ef>
    24f6: 60           	rts

000024f7 <bitmapReset>:
    24f7: a2 01        	ldx	#$1
    24f9: 86 84        	stx	$84                     ; 0x2084 <filePickModal+0x404>
    24fb: 86 85        	stx	$85                     ; 0x2085 <filePickModal+0x405>
    24fd: a0 40        	ldy	#$40
    24ff: 8c 00 de     	sty	$de00                   ; 0xde00 <__heap_start+0x76d8>
    2502: 8e 01 de     	stx	$de01                   ; 0xde01 <__heap_start+0x76d9>
    2505: a2 f0        	ldx	#$f0
    2507: 8e 02 de     	stx	$de02                   ; 0xde02 <__heap_start+0x76da>
    250a: 9c 03 de     	stz	$de03                   ; 0xde03 <__heap_start+0x76db>
    250d: ae 10 de     	ldx	$de10                   ; 0xde10 <__heap_start+0x76e8>
    2510: 86 17        	stx	$17                     ; 0x2017 <filePickModal+0x397>
    2512: ae 11 de     	ldx	$de11                   ; 0xde11 <__heap_start+0x76e9>
    2515: 86 12        	stx	$12                     ; 0x2012 <filePickModal+0x392>
    2517: ae 12 de     	ldx	$de12                   ; 0xde12 <__heap_start+0x76ea>
    251a: 86 13        	stx	$13                     ; 0x2013 <filePickModal+0x393>
    251c: ae 13 de     	ldx	$de13                   ; 0xde13 <__heap_start+0x76eb>
    251f: 86 14        	stx	$14                     ; 0x2014 <filePickModal+0x394>
    2521: 64 82        	stz	$82                     ; 0x2082 <filePickModal+0x402>
    2523: a2 ff        	ldx	#$ff
    2525: 86 83        	stx	$83                     ; 0x2083 <filePickModal+0x403>
    2527: a6 12        	ldx	$12                     ; 0x2012 <filePickModal+0x392>
    2529: 86 15        	stx	$15                     ; 0x2015 <filePickModal+0x395>
    252b: 06 15        	asl	$15                     ; 0x2015 <filePickModal+0x395>
    252d: a5 13        	lda	$13                     ; 0x2013 <filePickModal+0x393>
    252f: 2a           	rol
    2530: a6 14        	ldx	$14                     ; 0x2014 <filePickModal+0x394>
    2532: 86 16        	stx	$16                     ; 0x2016 <filePickModal+0x396>
    2534: 26 16        	rol	$16                     ; 0x2016 <filePickModal+0x396>
    2536: 06 15        	asl	$15                     ; 0x2015 <filePickModal+0x395>
    2538: 2a           	rol
    2539: 26 16        	rol	$16                     ; 0x2016 <filePickModal+0x396>
    253b: 06 15        	asl	$15                     ; 0x2015 <filePickModal+0x395>
    253d: 2a           	rol
    253e: 26 16        	rol	$16                     ; 0x2016 <filePickModal+0x396>
    2540: 85 15        	sta	$15                     ; 0x2015 <filePickModal+0x395>
    2542: 8d 00 de     	sta	$de00                   ; 0xde00 <__heap_start+0x76d8>
    2545: a5 16        	lda	$16                     ; 0x2016 <filePickModal+0x396>
    2547: 8d 01 de     	sta	$de01                   ; 0xde01 <__heap_start+0x76d9>
    254a: 9c 02 de     	stz	$de02                   ; 0xde02 <__heap_start+0x76da>
    254d: a2 20        	ldx	#$20
    254f: 8e 03 de     	stx	$de03                   ; 0xde03 <__heap_start+0x76db>
    2552: ae 10 de     	ldx	$de10                   ; 0xde10 <__heap_start+0x76e8>
    2555: 86 16        	stx	$16                     ; 0x2016 <filePickModal+0x396>
    2557: ae 11 de     	ldx	$de11                   ; 0xde11 <__heap_start+0x76e9>
    255a: 86 18        	stx	$18                     ; 0x2018 <filePickModal+0x398>
    255c: ac 12 de     	ldy	$de12                   ; 0xde12 <__heap_start+0x76ea>
    255f: ae 13 de     	ldx	$de13                   ; 0xde13 <__heap_start+0x76eb>
    2562: e4 14        	cpx	$14                     ; 0x2014 <filePickModal+0x394>
    2564: d0 14        	bne	$257a <bitmapReset+0x83>
    2566: c4 13        	cpy	$13                     ; 0x2013 <filePickModal+0x393>
    2568: d0 10        	bne	$257a <bitmapReset+0x83>
    256a: a6 18        	ldx	$18                     ; 0x2018 <filePickModal+0x398>
    256c: e4 12        	cpx	$12                     ; 0x2012 <filePickModal+0x392>
    256e: d0 0a        	bne	$257a <bitmapReset+0x83>
    2570: a6 16        	ldx	$16                     ; 0x2016 <filePickModal+0x396>
    2572: e4 17        	cpx	$17                     ; 0x2017 <filePickModal+0x397>
    2574: d0 04        	bne	$257a <bitmapReset+0x83>
    2576: a6 15        	ldx	$15                     ; 0x2015 <filePickModal+0x395>
    2578: 80 06        	bra	$2580 <bitmapReset+0x89>
    257a: a6 15        	ldx	$15                     ; 0x2015 <filePickModal+0x395>
    257c: e8           	inx
    257d: d0 01        	bne	$2580 <bitmapReset+0x89>
    257f: 1a           	inc
    2580: 8e 00 de     	stx	$de00                   ; 0xde00 <__heap_start+0x76d8>
    2583: 8d 01 de     	sta	$de01                   ; 0xde01 <__heap_start+0x76d9>
    2586: 9c 02 de     	stz	$de02                   ; 0xde02 <__heap_start+0x76da>
    2589: a2 20        	ldx	#$20
    258b: 8e 03 de     	stx	$de03                   ; 0xde03 <__heap_start+0x76db>
    258e: ae 10 de     	ldx	$de10                   ; 0xde10 <__heap_start+0x76e8>
    2591: 86 12        	stx	$12                     ; 0x2012 <filePickModal+0x392>
    2593: ae 11 de     	ldx	$de11                   ; 0xde11 <__heap_start+0x76e9>
    2596: 86 13        	stx	$13                     ; 0x2013 <filePickModal+0x393>
    2598: ae 12 de     	ldx	$de12                   ; 0xde12 <__heap_start+0x76ea>
    259b: 86 14        	stx	$14                     ; 0x2014 <filePickModal+0x394>
    259d: ae 13 de     	ldx	$de13                   ; 0xde13 <__heap_start+0x76eb>
    25a0: 86 15        	stx	$15                     ; 0x2015 <filePickModal+0x395>
    25a2: a9 00        	lda	#$0
    25a4: 38           	sec
    25a5: e5 12        	sbc	$12                     ; 0x2012 <filePickModal+0x392>
    25a7: 85 1a        	sta	$1a                     ; 0x201a <filePickModal+0x39a>
    25a9: a9 00        	lda	#$0
    25ab: e5 13        	sbc	$13                     ; 0x2013 <filePickModal+0x393>
    25ad: 85 18        	sta	$18                     ; 0x2018 <filePickModal+0x398>
    25af: a9 08        	lda	#$8
    25b1: e5 14        	sbc	$14                     ; 0x2014 <filePickModal+0x394>
    25b3: a8           	tay
    25b4: a9 00        	lda	#$0
    25b6: e5 15        	sbc	$15                     ; 0x2015 <filePickModal+0x395>
    25b8: 85 16        	sta	$16                     ; 0x2016 <filePickModal+0x396>
    25ba: a6 18        	ldx	$18                     ; 0x2018 <filePickModal+0x398>
    25bc: 86 77        	stx	$77                     ; 0x2077 <filePickModal+0x3f7>
    25be: 84 78        	sty	$78                     ; 0x2078 <filePickModal+0x3f8>
    25c0: 85 79        	sta	$79                     ; 0x2079 <filePickModal+0x3f9>
    25c2: a5 1a        	lda	$1a                     ; 0x201a <filePickModal+0x39a>
    25c4: 38           	sec
    25c5: e5 12        	sbc	$12                     ; 0x2012 <filePickModal+0x392>
    25c7: 85 17        	sta	$17                     ; 0x2017 <filePickModal+0x397>
    25c9: a5 18        	lda	$18                     ; 0x2018 <filePickModal+0x398>
    25cb: e5 13        	sbc	$13                     ; 0x2013 <filePickModal+0x393>
    25cd: 85 18        	sta	$18                     ; 0x2018 <filePickModal+0x398>
    25cf: 98           	tya
    25d0: e5 14        	sbc	$14                     ; 0x2014 <filePickModal+0x394>
    25d2: 85 19        	sta	$19                     ; 0x2019 <filePickModal+0x399>
    25d4: a5 16        	lda	$16                     ; 0x2016 <filePickModal+0x396>
    25d6: e5 15        	sbc	$15                     ; 0x2015 <filePickModal+0x395>
    25d8: 85 16        	sta	$16                     ; 0x2016 <filePickModal+0x396>
    25da: 38           	sec
    25db: a6 17        	ldx	$17                     ; 0x2017 <filePickModal+0x397>
    25dd: 86 7a        	stx	$7a                     ; 0x207a <filePickModal+0x3fa>
    25df: a4 18        	ldy	$18                     ; 0x2018 <filePickModal+0x398>
    25e1: 84 7b        	sty	$7b                     ; 0x207b <filePickModal+0x3fb>
    25e3: a6 19        	ldx	$19                     ; 0x2019 <filePickModal+0x399>
    25e5: 86 7c        	stx	$7c                     ; 0x207c <filePickModal+0x3fc>
    25e7: 85 7d        	sta	$7d                     ; 0x207d <filePickModal+0x3fd>
    25e9: a5 17        	lda	$17                     ; 0x2017 <filePickModal+0x397>
    25eb: e5 12        	sbc	$12                     ; 0x2012 <filePickModal+0x392>
    25ed: 85 17        	sta	$17                     ; 0x2017 <filePickModal+0x397>
    25ef: a5 18        	lda	$18                     ; 0x2018 <filePickModal+0x398>
    25f1: e5 13        	sbc	$13                     ; 0x2013 <filePickModal+0x393>
    25f3: aa           	tax
    25f4: a5 19        	lda	$19                     ; 0x2019 <filePickModal+0x399>
    25f6: e5 14        	sbc	$14                     ; 0x2014 <filePickModal+0x394>
    25f8: 85 13        	sta	$13                     ; 0x2013 <filePickModal+0x393>
    25fa: a5 16        	lda	$16                     ; 0x2016 <filePickModal+0x396>
    25fc: e5 15        	sbc	$15                     ; 0x2015 <filePickModal+0x395>
    25fe: 85 12        	sta	$12                     ; 0x2012 <filePickModal+0x392>
    2600: a5 17        	lda	$17                     ; 0x2017 <filePickModal+0x397>
    2602: 85 7e        	sta	$7e                     ; 0x207e <filePickModal+0x3fe>
    2604: 86 7f        	stx	$7f                     ; 0x207f <filePickModal+0x3ff>
    2606: a6 13        	ldx	$13                     ; 0x2013 <filePickModal+0x393>
    2608: 86 80        	stx	$80                     ; 0x2080 <filePickModal+0x400>
    260a: a6 12        	ldx	$12                     ; 0x2012 <filePickModal+0x392>
    260c: 86 81        	stx	$81                     ; 0x2081 <filePickModal+0x401>
    260e: a6 1a        	ldx	$1a                     ; 0x201a <filePickModal+0x39a>
    2610: 86 76        	stx	$76                     ; 0x2076 <filePickModal+0x3f6>
    2612: 64 86        	stz	$86                     ; 0x2086 <filePickModal+0x406>
    2614: 64 87        	stz	$87                     ; 0x2087 <filePickModal+0x407>
    2616: 64 88        	stz	$88                     ; 0x2088 <filePickModal+0x408>
    2618: 8e 01 d1     	stx	$d101                   ; 0xd101 <__heap_start+0x69d9>
    261b: a6 77        	ldx	$77                     ; 0x2077 <filePickModal+0x3f7>
    261d: 8e 02 d1     	stx	$d102                   ; 0xd102 <__heap_start+0x69da>
    2620: a6 78        	ldx	$78                     ; 0x2078 <filePickModal+0x3f8>
    2622: 8e 03 d1     	stx	$d103                   ; 0xd103 <__heap_start+0x69db>
    2625: a6 7a        	ldx	$7a                     ; 0x207a <filePickModal+0x3fa>
    2627: 8e 09 d1     	stx	$d109                   ; 0xd109 <__heap_start+0x69e1>
    262a: a6 7b        	ldx	$7b                     ; 0x207b <filePickModal+0x3fb>
    262c: 8e 0a d1     	stx	$d10a                   ; 0xd10a <__heap_start+0x69e2>
    262f: a6 7c        	ldx	$7c                     ; 0x207c <filePickModal+0x3fc>
    2631: 8e 0b d1     	stx	$d10b                   ; 0xd10b <__heap_start+0x69e3>
    2634: a6 7e        	ldx	$7e                     ; 0x207e <filePickModal+0x3fe>
    2636: 8e 11 d1     	stx	$d111                   ; 0xd111 <__heap_start+0x69e9>
    2639: a6 7f        	ldx	$7f                     ; 0x207f <filePickModal+0x3ff>
    263b: 8e 12 d1     	stx	$d112                   ; 0xd112 <__heap_start+0x69ea>
    263e: a6 80        	ldx	$80                     ; 0x2080 <filePickModal+0x400>
    2640: 8e 13 d1     	stx	$d113                   ; 0xd113 <__heap_start+0x69eb>
    2643: 9c 00 d1     	stz	$d100                   ; 0xd100 <__heap_start+0x69d8>
    2646: 9c 08 d1     	stz	$d108                   ; 0xd108 <__heap_start+0x69e0>
    2649: 9c 10 d1     	stz	$d110                   ; 0xd110 <__heap_start+0x69e8>
    264c: 60           	rts

0000264d <main>:
    264d: 20 08 22     	jsr	$2208 <f256Init>
    2650: 20 71 26     	jsr	$2671 <f256main>
    2653: 78           	sei
    2654: a2 07        	ldx	#$7
    2656: 86 0f        	stx	$f                      ; 0x200f <filePickModal+0x38f>
    2658: a2 de        	ldx	#$de
    265a: 8e a2 d6     	stx	$d6a2                   ; 0xd6a2 <__heap_start+0x6f7a>
    265d: a2 ad        	ldx	#$ad
    265f: 8e a3 d6     	stx	$d6a3                   ; 0xd6a3 <__heap_start+0x6f7b>
    2662: a2 f0        	ldx	#$f0
    2664: 8e a0 d6     	stx	$d6a0                   ; 0xd6a0 <__heap_start+0x6f78>
    2667: 9c a0 d6     	stz	$d6a0                   ; 0xd6a0 <__heap_start+0x6f78>
    266a: 6c fc ff     	jmp	($fffc)                 ; 0xfffc <__heap_start+0x98d4>
    266d: a2 00        	ldx	#$0
    266f: 8a           	txa
    2670: 60           	rts

00002671 <f256main>:
    2671: 18           	clc
    2672: a5 10        	lda	$10                     ; 0x2010 <filePickModal+0x390>
    2674: 69 e8        	adc	#$e8
    2676: 85 10        	sta	$10                     ; 0x2010 <filePickModal+0x390>
    2678: a5 11        	lda	$11                     ; 0x2011 <filePickModal+0x391>
    267a: 69 ff        	adc	#$ff
    267c: 85 11        	sta	$11                     ; 0x2011 <filePickModal+0x391>
    267e: a6 24        	ldx	$24                     ; 0x2024 <filePickModal+0x3a4>
    2680: da           	phx
    2681: a6 25        	ldx	$25                     ; 0x2025 <filePickModal+0x3a5>
    2683: da           	phx
    2684: a6 26        	ldx	$26                     ; 0x2026 <filePickModal+0x3a6>
    2686: da           	phx
    2687: a6 27        	ldx	$27                     ; 0x2027 <filePickModal+0x3a7>
    2689: da           	phx
    268a: a5 28        	lda	$28                     ; 0x2028 <filePickModal+0x3a8>
    268c: a0 05        	ldy	#$5
    268e: 91 10        	sta	($10),y                 ; 0x2010 <filePickModal+0x390>
    2690: a5 29        	lda	$29                     ; 0x2029 <filePickModal+0x3a9>
    2692: 88           	dey
    2693: 91 10        	sta	($10),y                 ; 0x2010 <filePickModal+0x390>
    2695: a5 2a        	lda	$2a                     ; 0x202a <filePickModal+0x3aa>
    2697: 88           	dey
    2698: 91 10        	sta	($10),y                 ; 0x2010 <filePickModal+0x390>
    269a: a5 2b        	lda	$2b                     ; 0x202b <filePickModal+0x3ab>
    269c: 88           	dey
    269d: 91 10        	sta	($10),y                 ; 0x2010 <filePickModal+0x390>
    269f: 64 01        	stz	$1                      ; 0x2001 <filePickModal+0x381>
    26a1: a2 0f        	ldx	#$f
    26a3: 8e 00 d0     	stx	$d000                   ; 0xd000 <__heap_start+0x68d8>
    26a6: a2 14        	ldx	#$14
    26a8: 8e 01 d0     	stx	$d001                   ; 0xd001 <__heap_start+0x68d9>
    26ab: a2 10        	ldx	#$10
    26ad: 8e 02 d0     	stx	$d002                   ; 0xd002 <__heap_start+0x68da>
    26b0: 9c 0d d0     	stz	$d00d                   ; 0xd00d <__heap_start+0x68e5>
    26b3: 9c 0e d0     	stz	$d00e                   ; 0xd00e <__heap_start+0x68e6>
    26b6: 9c 0f d0     	stz	$d00f                   ; 0xd00f <__heap_start+0x68e7>
    26b9: 20 2c 21     	jsr	$212c <opl3_initialize>
    26bc: a2 73        	ldx	#$73
    26be: 86 28        	stx	$28                     ; 0x2028 <filePickModal+0x3a8>
    26c0: a2 00        	ldx	#$0
    26c2: 86 29        	stx	$29                     ; 0x2029 <filePickModal+0x3a9>
    26c4: 4c 65 27     	jmp	$2765 <f256main+0xf4>
    26c7: e0 00        	cpx	#$0
    26c9: 90 4d        	bcc	$2718 <f256main+0xa7>
    26cb: a9 00        	lda	#$0
    26cd: a2 b6        	ldx	#$b6
    26cf: 86 12        	stx	$12                     ; 0x2012 <filePickModal+0x392>
    26d1: a2 52        	ldx	#$52
    26d3: 86 13        	stx	$13                     ; 0x2013 <filePickModal+0x393>
    26d5: 48           	pha
    26d6: a5 12        	lda	$12                     ; 0x2012 <filePickModal+0x392>
    26d8: a0 06        	ldy	#$6
    26da: 91 10        	sta	($10),y                 ; 0x2010 <filePickModal+0x390>
    26dc: a5 13        	lda	$13                     ; 0x2013 <filePickModal+0x393>
    26de: c8           	iny
    26df: 91 10        	sta	($10),y                 ; 0x2010 <filePickModal+0x390>
    26e1: 68           	pla
    26e2: a8           	tay
    26e3: b1 24        	lda	($24),y                 ; 0x2024 <filePickModal+0x3a4>
    26e5: 84 2b        	sty	$2b                     ; 0x202b <filePickModal+0x3ab>
    26e7: 92 10        	sta	($10)                   ; 0x2010 <filePickModal+0x390>
    26e9: a9 00        	lda	#$0
    26eb: a0 01        	ldy	#$1
    26ed: 91 10        	sta	($10),y                 ; 0x2010 <filePickModal+0x390>
    26ef: a0 06        	ldy	#$6
    26f1: b1 10        	lda	($10),y                 ; 0x2010 <filePickModal+0x390>
    26f3: 85 12        	sta	$12                     ; 0x2012 <filePickModal+0x392>
    26f5: c8           	iny
    26f6: b1 10        	lda	($10),y                 ; 0x2010 <filePickModal+0x390>
    26f8: 85 13        	sta	$13                     ; 0x2013 <filePickModal+0x393>
    26fa: 20 e1 45     	jsr	$45e1 <printf>
    26fd: a6 2b        	ldx	$2b                     ; 0x202b <filePickModal+0x3ab>
    26ff: e8           	inx
    2700: 8a           	txa
    2701: e0 10        	cpx	#$10
    2703: d0 dd        	bne	$26e2 <f256main+0x71>
    2705: a2 00        	ldx	#$0
    2707: a9 0a        	lda	#$a
    2709: 20 21 49     	jsr	$4921 <putchar>
    270c: a6 2a        	ldx	$2a                     ; 0x202a <filePickModal+0x3aa>
    270e: e8           	inx
    270f: 86 2a        	stx	$2a                     ; 0x202a <filePickModal+0x3aa>
    2711: e0 08        	cpx	#$8
    2713: f0 03        	beq	$2718 <f256main+0xa7>
    2715: 4c dc 27     	jmp	$27dc <f256main+0x16b>
    2718: a6 26        	ldx	$26                     ; 0x2026 <filePickModal+0x3a6>
    271a: 86 12        	stx	$12                     ; 0x2012 <filePickModal+0x392>
    271c: a6 27        	ldx	$27                     ; 0x2027 <filePickModal+0x3a7>
    271e: 86 13        	stx	$13                     ; 0x2013 <filePickModal+0x393>
    2720: 20 ac 2c     	jsr	$2cac <playback>
    2723: 85 12        	sta	$12                     ; 0x2012 <filePickModal+0x392>
    2725: b2 26        	lda	($26)                   ; 0x2026 <filePickModal+0x3a6>
    2727: a4 6a        	ldy	$6a                     ; 0x206a <filePickModal+0x3ea>
    2729: a6 6b        	ldx	$6b                     ; 0x206b <filePickModal+0x3eb>
    272b: 84 14        	sty	$14                     ; 0x2014 <filePickModal+0x394>
    272d: 86 15        	stx	$15                     ; 0x2015 <filePickModal+0x395>
    272f: a0 03        	ldy	#$3
    2731: 91 14        	sta	($14),y                 ; 0x2014 <filePickModal+0x394>
    2733: a5 12        	lda	$12                     ; 0x2012 <filePickModal+0x392>
    2735: f0 03        	beq	$273a <f256main+0xc9>
    2737: 4c 15 28     	jmp	$2815 <f256main+0x1a4>
    273a: 20 68 ff     	jsr	$ff68 <__heap_start+0x9840>
    273d: 92 24        	sta	($24)                   ; 0x2024 <filePickModal+0x3a4>
    273f: a9 00        	lda	#$0
    2741: 6a           	ror
    2742: 85 28        	sta	$28                     ; 0x2028 <filePickModal+0x3a8>
    2744: a6 26        	ldx	$26                     ; 0x2026 <filePickModal+0x3a6>
    2746: 86 12        	stx	$12                     ; 0x2012 <filePickModal+0x392>
    2748: a6 27        	ldx	$27                     ; 0x2027 <filePickModal+0x3a7>
    274a: 86 13        	stx	$13                     ; 0x2013 <filePickModal+0x393>
    274c: 20 14 4b     	jsr	$4b14 <free>
    274f: 64 6c        	stz	$6c                     ; 0x206c <filePickModal+0x3ec>
    2751: 20 00 ff     	jsr	$ff00 <__heap_start+0x97d8>
    2754: 92 24        	sta	($24)                   ; 0x2024 <filePickModal+0x3a4>
    2756: a9 00        	lda	#$0
    2758: 6a           	ror
    2759: 85 28        	sta	$28                     ; 0x2028 <filePickModal+0x3a8>
    275b: a6 6c        	ldx	$6c                     ; 0x206c <filePickModal+0x3ec>
    275d: e0 32        	cpx	#$32
    275f: f0 04        	beq	$2765 <f256main+0xf4>
    2761: e0 38        	cpx	#$38
    2763: d0 ea        	bne	$274f <f256main+0xde>
    2765: 20 b0 21     	jsr	$21b0 <opl3_quietAll>
    2768: a2 f0        	ldx	#$f0
    276a: 86 65        	stx	$65                     ; 0x2065 <filePickModal+0x3e5>
    276c: 64 74        	stz	$74                     ; 0x2074 <filePickModal+0x3f4>
    276e: 9c 14 d0     	stz	$d014                   ; 0xd014 <__heap_start+0x68ec>
    2771: 9c 15 d0     	stz	$d015                   ; 0xd015 <__heap_start+0x68ed>
    2774: 64 75        	stz	$75                     ; 0x2075 <filePickModal+0x3f5>
    2776: 9c 16 d0     	stz	$d016                   ; 0xd016 <__heap_start+0x68ee>
    2779: 9c 17 d0     	stz	$d017                   ; 0xd017 <__heap_start+0x68ef>
    277c: a2 a3        	ldx	#$a3
    277e: 86 12        	stx	$12                     ; 0x2012 <filePickModal+0x392>
    2780: a2 52        	ldx	#$52
    2782: 86 13        	stx	$13                     ; 0x2013 <filePickModal+0x393>
    2784: 20 e1 45     	jsr	$45e1 <printf>
    2787: 64 74        	stz	$74                     ; 0x2074 <filePickModal+0x3f4>
    2789: 9c 14 d0     	stz	$d014                   ; 0xd014 <__heap_start+0x68ec>
    278c: 9c 15 d0     	stz	$d015                   ; 0xd015 <__heap_start+0x68ed>
    278f: a2 01        	ldx	#$1
    2791: 86 75        	stx	$75                     ; 0x2075 <filePickModal+0x3f5>
    2793: 8e 16 d0     	stx	$d016                   ; 0xd016 <__heap_start+0x68ee>
    2796: 9c 17 d0     	stz	$d017                   ; 0xd017 <__heap_start+0x68ef>
    2799: a2 f3        	ldx	#$f3
    279b: 86 12        	stx	$12                     ; 0x2012 <filePickModal+0x392>
    279d: a2 52        	ldx	#$52
    279f: 86 13        	stx	$13                     ; 0x2013 <filePickModal+0x393>
    27a1: 20 e1 45     	jsr	$45e1 <printf>
    27a4: 20 7e 28     	jsr	$287e <getTheFile>
    27a7: aa           	tax
    27a8: f0 03        	beq	$27ad <f256main+0x13c>
    27aa: 4c 48 28     	jmp	$2848 <f256main+0x1d7>
    27ad: a2 cd        	ldx	#$cd
    27af: 86 12        	stx	$12                     ; 0x2012 <filePickModal+0x392>
    27b1: a2 54        	ldx	#$54
    27b3: 86 13        	stx	$13                     ; 0x2013 <filePickModal+0x393>
    27b5: a2 bc        	ldx	#$bc
    27b7: 86 14        	stx	$14                     ; 0x2014 <filePickModal+0x394>
    27b9: a2 52        	ldx	#$52
    27bb: 86 15        	stx	$15                     ; 0x2015 <filePickModal+0x395>
    27bd: 20 ea 29     	jsr	$29ea <fileOpen>
    27c0: a6 12        	ldx	$12                     ; 0x2012 <filePickModal+0x392>
    27c2: 86 26        	stx	$26                     ; 0x2026 <filePickModal+0x3a6>
    27c4: a6 13        	ldx	$13                     ; 0x2013 <filePickModal+0x393>
    27c6: 86 27        	stx	$27                     ; 0x2027 <filePickModal+0x3a7>
    27c8: 64 2a        	stz	$2a                     ; 0x202a <filePickModal+0x3aa>
    27ca: 64 74        	stz	$74                     ; 0x2074 <filePickModal+0x3f4>
    27cc: 9c 14 d0     	stz	$d014                   ; 0xd014 <__heap_start+0x68ec>
    27cf: 9c 15 d0     	stz	$d015                   ; 0xd015 <__heap_start+0x68ed>
    27d2: a2 03        	ldx	#$3
    27d4: 86 75        	stx	$75                     ; 0x2075 <filePickModal+0x3f5>
    27d6: 8e 16 d0     	stx	$d016                   ; 0xd016 <__heap_start+0x68ee>
    27d9: 9c 17 d0     	stz	$d017                   ; 0xd017 <__heap_start+0x68ef>
    27dc: 18           	clc
    27dd: a5 10        	lda	$10                     ; 0x2010 <filePickModal+0x390>
    27df: 69 08        	adc	#$8
    27e1: 85 24        	sta	$24                     ; 0x2024 <filePickModal+0x3a4>
    27e3: a5 11        	lda	$11                     ; 0x2011 <filePickModal+0x391>
    27e5: 69 00        	adc	#$0
    27e7: 85 25        	sta	$25                     ; 0x2025 <filePickModal+0x3a5>
    27e9: a6 24        	ldx	$24                     ; 0x2024 <filePickModal+0x3a4>
    27eb: 86 12        	stx	$12                     ; 0x2012 <filePickModal+0x392>
    27ed: 85 13        	sta	$13                     ; 0x2013 <filePickModal+0x393>
    27ef: a6 26        	ldx	$26                     ; 0x2026 <filePickModal+0x3a6>
    27f1: 86 16        	stx	$16                     ; 0x2016 <filePickModal+0x396>
    27f3: a6 27        	ldx	$27                     ; 0x2027 <filePickModal+0x3a7>
    27f5: 86 17        	stx	$17                     ; 0x2017 <filePickModal+0x397>
    27f7: a2 10        	ldx	#$10
    27f9: 86 14        	stx	$14                     ; 0x2014 <filePickModal+0x394>
    27fb: 64 15        	stz	$15                     ; 0x2015 <filePickModal+0x395>
    27fd: a2 00        	ldx	#$0
    27ff: a9 01        	lda	#$1
    2801: 20 ed 2a     	jsr	$2aed <fileRead>
    2804: e0 00        	cpx	#$0
    2806: f0 03        	beq	$280b <f256main+0x19a>
    2808: 4c c7 26     	jmp	$26c7 <f256main+0x56>
    280b: c9 04        	cmp	#$4
    280d: b0 03        	bcs	$2812 <f256main+0x1a1>
    280f: 4c 18 27     	jmp	$2718 <f256main+0xa7>
    2812: 4c cb 26     	jmp	$26cb <f256main+0x5a>
    2815: a2 73        	ldx	#$73
    2817: 86 28        	stx	$28                     ; 0x2028 <filePickModal+0x3a8>
    2819: a2 00        	ldx	#$0
    281b: 86 29        	stx	$29                     ; 0x2029 <filePickModal+0x3a9>
    281d: 20 68 ff     	jsr	$ff68 <__heap_start+0x9840>
    2820: 92 24        	sta	($24)                   ; 0x2024 <filePickModal+0x3a4>
    2822: a9 00        	lda	#$0
    2824: 6a           	ror
    2825: 85 28        	sta	$28                     ; 0x2028 <filePickModal+0x3a8>
    2827: a6 26        	ldx	$26                     ; 0x2026 <filePickModal+0x3a6>
    2829: 86 12        	stx	$12                     ; 0x2012 <filePickModal+0x392>
    282b: a6 27        	ldx	$27                     ; 0x2027 <filePickModal+0x3a7>
    282d: 86 13        	stx	$13                     ; 0x2013 <filePickModal+0x393>
    282f: 20 14 4b     	jsr	$4b14 <free>
    2832: 64 6c        	stz	$6c                     ; 0x206c <filePickModal+0x3ec>
    2834: 20 00 ff     	jsr	$ff00 <__heap_start+0x97d8>
    2837: 92 24        	sta	($24)                   ; 0x2024 <filePickModal+0x3a4>
    2839: a9 00        	lda	#$0
    283b: 6a           	ror
    283c: 85 28        	sta	$28                     ; 0x2028 <filePickModal+0x3a8>
    283e: a6 6c        	ldx	$6c                     ; 0x206c <filePickModal+0x3ec>
    2840: e0 32        	cpx	#$32
    2842: f0 04        	beq	$2848 <f256main+0x1d7>
    2844: e0 38        	cpx	#$38
    2846: d0 ea        	bne	$2832 <f256main+0x1c1>
    2848: a2 00        	ldx	#$0
    284a: 8a           	txa
    284b: 85 20        	sta	$20                     ; 0x2020 <filePickModal+0x3a0>
    284d: a0 02        	ldy	#$2
    284f: b1 10        	lda	($10),y                 ; 0x2010 <filePickModal+0x390>
    2851: 85 2b        	sta	$2b                     ; 0x202b <filePickModal+0x3ab>
    2853: c8           	iny
    2854: b1 10        	lda	($10),y                 ; 0x2010 <filePickModal+0x390>
    2856: 85 2a        	sta	$2a                     ; 0x202a <filePickModal+0x3aa>
    2858: c8           	iny
    2859: b1 10        	lda	($10),y                 ; 0x2010 <filePickModal+0x390>
    285b: 85 29        	sta	$29                     ; 0x2029 <filePickModal+0x3a9>
    285d: c8           	iny
    285e: b1 10        	lda	($10),y                 ; 0x2010 <filePickModal+0x390>
    2860: 85 28        	sta	$28                     ; 0x2028 <filePickModal+0x3a8>
    2862: 7a           	ply
    2863: 84 27        	sty	$27                     ; 0x2027 <filePickModal+0x3a7>
    2865: 7a           	ply
    2866: 84 26        	sty	$26                     ; 0x2026 <filePickModal+0x3a6>
    2868: 7a           	ply
    2869: 84 25        	sty	$25                     ; 0x2025 <filePickModal+0x3a5>
    286b: 7a           	ply
    286c: 84 24        	sty	$24                     ; 0x2024 <filePickModal+0x3a4>
    286e: 18           	clc
    286f: a5 10        	lda	$10                     ; 0x2010 <filePickModal+0x390>
    2871: 69 18        	adc	#$18
    2873: 85 10        	sta	$10                     ; 0x2010 <filePickModal+0x390>
    2875: a5 11        	lda	$11                     ; 0x2011 <filePickModal+0x391>
    2877: 69 00        	adc	#$0
    2879: 85 11        	sta	$11                     ; 0x2011 <filePickModal+0x391>
    287b: a5 20        	lda	$20                     ; 0x2020 <filePickModal+0x3a0>
    287d: 60           	rts

0000287e <getTheFile>:
    287e: 18           	clc
    287f: a5 10        	lda	$10                     ; 0x2010 <filePickModal+0x390>
    2881: 69 f8        	adc	#$f8
    2883: 85 10        	sta	$10                     ; 0x2010 <filePickModal+0x390>
    2885: a5 11        	lda	$11                     ; 0x2011 <filePickModal+0x391>
    2887: 69 ff        	adc	#$ff
    2889: 85 11        	sta	$11                     ; 0x2011 <filePickModal+0x391>
    288b: a6 24        	ldx	$24                     ; 0x2024 <filePickModal+0x3a4>
    288d: da           	phx
    288e: a6 25        	ldx	$25                     ; 0x2025 <filePickModal+0x3a5>
    2890: da           	phx
    2891: a2 e8        	ldx	#$e8
    2893: 86 12        	stx	$12                     ; 0x2012 <filePickModal+0x392>
    2895: a2 52        	ldx	#$52
    2897: 86 13        	stx	$13                     ; 0x2013 <filePickModal+0x393>
    2899: 20 e5 30     	jsr	$30e5 <fileOpenDir>
    289c: a6 12        	ldx	$12                     ; 0x2012 <filePickModal+0x392>
    289e: 86 24        	stx	$24                     ; 0x2024 <filePickModal+0x3a4>
    28a0: a6 13        	ldx	$13                     ; 0x2013 <filePickModal+0x393>
    28a2: 86 25        	stx	$25                     ; 0x2025 <filePickModal+0x3a5>
    28a4: a2 00        	ldx	#$0
    28a6: 86 12        	stx	$12                     ; 0x2012 <filePickModal+0x392>
    28a8: a2 00        	ldx	#$0
    28aa: 86 13        	stx	$13                     ; 0x2013 <filePickModal+0x393>
    28ac: a6 25        	ldx	$25                     ; 0x2025 <filePickModal+0x3a5>
    28ae: e4 13        	cpx	$13                     ; 0x2013 <filePickModal+0x393>
    28b0: d0 20        	bne	$28d2 <getTheFile+0x54>
    28b2: a6 24        	ldx	$24                     ; 0x2024 <filePickModal+0x3a4>
    28b4: e4 12        	cpx	$12                     ; 0x2012 <filePickModal+0x392>
    28b6: d0 1a        	bne	$28d2 <getTheFile+0x54>
    28b8: a2 33        	ldx	#$33
    28ba: 86 12        	stx	$12                     ; 0x2012 <filePickModal+0x392>
    28bc: a2 55        	ldx	#$55
    28be: 86 13        	stx	$13                     ; 0x2013 <filePickModal+0x393>
    28c0: a2 49        	ldx	#$49
    28c2: 86 14        	stx	$14                     ; 0x2014 <filePickModal+0x394>
    28c4: a2 53        	ldx	#$53
    28c6: 86 15        	stx	$15                     ; 0x2015 <filePickModal+0x395>
    28c8: a9 20        	lda	#$20
    28ca: a2 00        	ldx	#$0
    28cc: 20 9a 4c     	jsr	$4c9a <memcpy>
    28cf: 4c 4b 29     	jmp	$294b <getTheFile+0xcd>
    28d2: a2 33        	ldx	#$33
    28d4: 86 12        	stx	$12                     ; 0x2012 <filePickModal+0x392>
    28d6: a2 55        	ldx	#$55
    28d8: 86 13        	stx	$13                     ; 0x2013 <filePickModal+0x393>
    28da: a2 69        	ldx	#$69
    28dc: 86 14        	stx	$14                     ; 0x2014 <filePickModal+0x394>
    28de: a2 53        	ldx	#$53
    28e0: 86 15        	stx	$15                     ; 0x2015 <filePickModal+0x395>
    28e2: a9 20        	lda	#$20
    28e4: a2 00        	ldx	#$0
    28e6: 20 9a 4c     	jsr	$4c9a <memcpy>
    28e9: 18           	clc
    28ea: a5 10        	lda	$10                     ; 0x2010 <filePickModal+0x390>
    28ec: 69 06        	adc	#$6
    28ee: 85 12        	sta	$12                     ; 0x2012 <filePickModal+0x392>
    28f0: a2 01        	ldx	#$1
    28f2: b0 02        	bcs	$28f6 <getTheFile+0x78>
    28f4: a2 00        	ldx	#$0
    28f6: 86 18        	stx	$18                     ; 0x2018 <filePickModal+0x398>
    28f8: a2 73        	ldx	#$73
    28fa: 86 14        	stx	$14                     ; 0x2014 <filePickModal+0x394>
    28fc: a2 00        	ldx	#$0
    28fe: 86 15        	stx	$15                     ; 0x2015 <filePickModal+0x395>
    2900: b2 24        	lda	($24)                   ; 0x2024 <filePickModal+0x3a4>
    2902: f0 2b        	beq	$292f <getTheFile+0xb1>
    2904: a6 6a        	ldx	$6a                     ; 0x206a <filePickModal+0x3ea>
    2906: a4 6b        	ldy	$6b                     ; 0x206b <filePickModal+0x3eb>
    2908: 86 16        	stx	$16                     ; 0x2016 <filePickModal+0x396>
    290a: 84 17        	sty	$17                     ; 0x2017 <filePickModal+0x397>
    290c: a0 03        	ldy	#$3
    290e: 91 16        	sta	($16),y                 ; 0x2016 <filePickModal+0x396>
    2910: 18           	clc
    2911: a5 10        	lda	$10                     ; 0x2010 <filePickModal+0x390>
    2913: 69 07        	adc	#$7
    2915: 85 16        	sta	$16                     ; 0x2016 <filePickModal+0x396>
    2917: a5 11        	lda	$11                     ; 0x2011 <filePickModal+0x391>
    2919: 69 00        	adc	#$0
    291b: 85 17        	sta	$17                     ; 0x2017 <filePickModal+0x397>
    291d: 20 80 ff     	jsr	$ff80 <__heap_start+0x9858>
    2920: 92 16        	sta	($16)                   ; 0x2016 <filePickModal+0x396>
    2922: a9 00        	lda	#$0
    2924: 6a           	ror
    2925: 85 14        	sta	$14                     ; 0x2014 <filePickModal+0x394>
    2927: a6 73        	ldx	$73                     ; 0x2073 <filePickModal+0x3f3>
    2929: d0 04        	bne	$292f <getTheFile+0xb1>
    292b: a9 00        	lda	#$0
    292d: 92 24        	sta	($24)                   ; 0x2024 <filePickModal+0x3a4>
    292f: 64 6c        	stz	$6c                     ; 0x206c <filePickModal+0x3ec>
    2931: a6 18        	ldx	$18                     ; 0x2018 <filePickModal+0x398>
    2933: e0 01        	cpx	#$1
    2935: a5 11        	lda	$11                     ; 0x2011 <filePickModal+0x391>
    2937: 69 00        	adc	#$0
    2939: 85 13        	sta	$13                     ; 0x2013 <filePickModal+0x393>
    293b: 20 00 ff     	jsr	$ff00 <__heap_start+0x97d8>
    293e: 92 12        	sta	($12)                   ; 0x2012 <filePickModal+0x392>
    2940: a9 00        	lda	#$0
    2942: 6a           	ror
    2943: 85 14        	sta	$14                     ; 0x2014 <filePickModal+0x394>
    2945: a6 6c        	ldx	$6c                     ; 0x206c <filePickModal+0x3ec>
    2947: e0 46        	cpx	#$46
    2949: d0 b5        	bne	$2900 <getTheFile+0x82>
    294b: a2 31        	ldx	#$31
    294d: 86 12        	stx	$12                     ; 0x2012 <filePickModal+0x392>
    294f: a2 55        	ldx	#$55
    2951: 86 13        	stx	$13                     ; 0x2013 <filePickModal+0x393>
    2953: a9 00        	lda	#$0
    2955: a2 03        	ldx	#$3
    2957: a0 e8        	ldy	#$e8
    2959: 84 14        	sty	$14                     ; 0x2014 <filePickModal+0x394>
    295b: a0 52        	ldy	#$52
    295d: 84 15        	sty	$15                     ; 0x2015 <filePickModal+0x395>
    295f: a0 a2        	ldy	#$a2
    2961: 84 16        	sty	$16                     ; 0x2016 <filePickModal+0x396>
    2963: a0 52        	ldy	#$52
    2965: 84 17        	sty	$17                     ; 0x2017 <filePickModal+0x397>
    2967: a0 a2        	ldy	#$a2
    2969: 84 18        	sty	$18                     ; 0x2018 <filePickModal+0x398>
    296b: a0 52        	ldy	#$52
    296d: 84 19        	sty	$19                     ; 0x2019 <filePickModal+0x399>
    296f: a0 a2        	ldy	#$a2
    2971: 84 1a        	sty	$1a                     ; 0x201a <filePickModal+0x39a>
    2973: a0 52        	ldy	#$52
    2975: 84 1b        	sty	$1b                     ; 0x201b <filePickModal+0x39b>
    2977: a0 01        	ldy	#$1
    2979: 84 1c        	sty	$1c                     ; 0x201c <filePickModal+0x39c>
    297b: 20 80 1c     	jsr	$1c80 <filePickModal>
    297e: a2 01        	ldx	#$1
    2980: a8           	tay
    2981: d0 4e        	bne	$29d1 <getTheFile+0x153>
    2983: a6 10        	ldx	$10                     ; 0x2010 <filePickModal+0x390>
    2985: a9 33        	lda	#$33
    2987: 92 10        	sta	($10)                   ; 0x2010 <filePickModal+0x390>
    2989: a0 01        	ldy	#$1
    298b: a9 55        	lda	#$55
    298d: 91 10        	sta	($10),y                 ; 0x2010 <filePickModal+0x390>
    298f: a9 9e        	lda	#$9e
    2991: c8           	iny
    2992: 91 10        	sta	($10),y                 ; 0x2010 <filePickModal+0x390>
    2994: a0 04        	ldy	#$4
    2996: a9 53        	lda	#$53
    2998: 91 10        	sta	($10),y                 ; 0x2010 <filePickModal+0x390>
    299a: 18           	clc
    299b: 8a           	txa
    299c: 69 02        	adc	#$2
    299e: 85 12        	sta	$12                     ; 0x2012 <filePickModal+0x392>
    29a0: a5 11        	lda	$11                     ; 0x2011 <filePickModal+0x391>
    29a2: 69 00        	adc	#$0
    29a4: 18           	clc
    29a5: 85 13        	sta	$13                     ; 0x2013 <filePickModal+0x393>
    29a7: a9 52        	lda	#$52
    29a9: a0 01        	ldy	#$1
    29ab: 91 12        	sta	($12),y                 ; 0x2012 <filePickModal+0x392>
    29ad: 8a           	txa
    29ae: 69 04        	adc	#$4
    29b0: 85 12        	sta	$12                     ; 0x2012 <filePickModal+0x392>
    29b2: a5 11        	lda	$11                     ; 0x2011 <filePickModal+0x391>
    29b4: 69 00        	adc	#$0
    29b6: 85 13        	sta	$13                     ; 0x2013 <filePickModal+0x393>
    29b8: a9 55        	lda	#$55
    29ba: 91 12        	sta	($12),y                 ; 0x2012 <filePickModal+0x392>
    29bc: a2 cd        	ldx	#$cd
    29be: 86 12        	stx	$12                     ; 0x2012 <filePickModal+0x392>
    29c0: a2 54        	ldx	#$54
    29c2: 86 13        	stx	$13                     ; 0x2013 <filePickModal+0x393>
    29c4: a2 e1        	ldx	#$e1
    29c6: 86 14        	stx	$14                     ; 0x2014 <filePickModal+0x394>
    29c8: a2 52        	ldx	#$52
    29ca: 86 15        	stx	$15                     ; 0x2015 <filePickModal+0x395>
    29cc: 20 d4 48     	jsr	$48d4 <sprintf>
    29cf: a2 00        	ldx	#$0
    29d1: 8a           	txa
    29d2: 85 20        	sta	$20                     ; 0x2020 <filePickModal+0x3a0>
    29d4: fa           	plx
    29d5: 86 25        	stx	$25                     ; 0x2025 <filePickModal+0x3a5>
    29d7: fa           	plx
    29d8: 86 24        	stx	$24                     ; 0x2024 <filePickModal+0x3a4>
    29da: 18           	clc
    29db: a5 10        	lda	$10                     ; 0x2010 <filePickModal+0x390>
    29dd: 69 08        	adc	#$8
    29df: 85 10        	sta	$10                     ; 0x2010 <filePickModal+0x390>
    29e1: a5 11        	lda	$11                     ; 0x2011 <filePickModal+0x391>
    29e3: 69 00        	adc	#$0
    29e5: 85 11        	sta	$11                     ; 0x2011 <filePickModal+0x391>
    29e7: a5 20        	lda	$20                     ; 0x2020 <filePickModal+0x3a0>
    29e9: 60           	rts

000029ea <fileOpen>:
    29ea: a6 12        	ldx	$12                     ; 0x2012 <filePickModal+0x392>
    29ec: 86 9d        	stx	$9d                     ; 0x209d <filePickModal+0x41d>
    29ee: a6 13        	ldx	$13                     ; 0x2013 <filePickModal+0x393>
    29f0: 86 9e        	stx	$9e                     ; 0x209e <filePickModal+0x41e>
    29f2: a6 14        	ldx	$14                     ; 0x2014 <filePickModal+0x394>
    29f4: 86 9f        	stx	$9f                     ; 0x209f <filePickModal+0x41f>
    29f6: a6 15        	ldx	$15                     ; 0x2015 <filePickModal+0x395>
    29f8: 86 a0        	stx	$a0                     ; 0x20a0 <filePickModal+0x420>
    29fa: 20 a5 4d     	jsr	$4da5 <strlen>
    29fd: 64 a1        	stz	$a1                     ; 0x20a1 <filePickModal+0x421>
    29ff: e0 00        	cpx	#$0
    2a01: d0 06        	bne	$2a09 <fileOpen+0x1f>
    2a03: c9 02        	cmp	#$2
    2a05: b0 06        	bcs	$2a0d <fileOpen+0x23>
    2a07: 80 28        	bra	$2a31 <fileOpen+0x47>
    2a09: e0 00        	cpx	#$0
    2a0b: 90 24        	bcc	$2a31 <fileOpen+0x47>
    2a0d: a0 01        	ldy	#$1
    2a0f: b1 9d        	lda	($9d),y                 ; 0x209d <filePickModal+0x41d>
    2a11: c9 3a        	cmp	#$3a
    2a13: d0 1c        	bne	$2a31 <fileOpen+0x47>
    2a15: b2 9d        	lda	($9d)                   ; 0x209d <filePickModal+0x41d>
    2a17: c9 30        	cmp	#$30
    2a19: 90 09        	bcc	$2a24 <fileOpen+0x3a>
    2a1b: c9 38        	cmp	#$38
    2a1d: b0 05        	bcs	$2a24 <fileOpen+0x3a>
    2a1f: 18           	clc
    2a20: 69 d0        	adc	#$d0
    2a22: 85 a1        	sta	$a1                     ; 0x20a1 <filePickModal+0x421>
    2a24: a5 9d        	lda	$9d                     ; 0x209d <filePickModal+0x41d>
    2a26: 18           	clc
    2a27: 69 02        	adc	#$2
    2a29: 85 9d        	sta	$9d                     ; 0x209d <filePickModal+0x41d>
    2a2b: a5 9e        	lda	$9e                     ; 0x209e <filePickModal+0x41e>
    2a2d: 69 00        	adc	#$0
    2a2f: 85 9e        	sta	$9e                     ; 0x209e <filePickModal+0x41e>
    2a31: a2 00        	ldx	#$0
    2a33: 86 a4        	stx	$a4                     ; 0x20a4 <filePickModal+0x424>
    2a35: 80 00        	bra	$2a37 <fileOpen+0x4d>
    2a37: b2 9f        	lda	($9f)                   ; 0x209f <filePickModal+0x41f>
    2a39: c9 77        	cmp	#$77
    2a3b: f0 13        	beq	$2a50 <fileOpen+0x66>
    2a3d: aa           	tax
    2a3e: f0 1a        	beq	$2a5a <fileOpen+0x70>
    2a40: c9 61        	cmp	#$61
    2a42: d0 04        	bne	$2a48 <fileOpen+0x5e>
    2a44: a2 02        	ldx	#$2
    2a46: 86 a4        	stx	$a4                     ; 0x20a4 <filePickModal+0x424>
    2a48: e6 9f        	inc	$9f                     ; 0x209f <filePickModal+0x41f>
    2a4a: d0 eb        	bne	$2a37 <fileOpen+0x4d>
    2a4c: e6 a0        	inc	$a0                     ; 0x20a0 <filePickModal+0x420>
    2a4e: 80 e7        	bra	$2a37 <fileOpen+0x4d>
    2a50: a2 01        	ldx	#$1
    2a52: 86 a4        	stx	$a4                     ; 0x20a4 <filePickModal+0x424>
    2a54: c9 61        	cmp	#$61
    2a56: f0 ec        	beq	$2a44 <fileOpen+0x5a>
    2a58: 80 ee        	bra	$2a48 <fileOpen+0x5e>
    2a5a: a5 6a        	lda	$6a                     ; 0x206a <filePickModal+0x3ea>
    2a5c: a6 6b        	ldx	$6b                     ; 0x206b <filePickModal+0x3eb>
    2a5e: 85 9f        	sta	$9f                     ; 0x209f <filePickModal+0x41f>
    2a60: 86 a0        	stx	$a0                     ; 0x20a0 <filePickModal+0x420>
    2a62: a0 0b        	ldy	#$b
    2a64: 18           	clc
    2a65: 69 0b        	adc	#$b
    2a67: 85 12        	sta	$12                     ; 0x2012 <filePickModal+0x392>
    2a69: 8a           	txa
    2a6a: 69 00        	adc	#$0
    2a6c: 85 13        	sta	$13                     ; 0x2013 <filePickModal+0x393>
    2a6e: a5 9d        	lda	$9d                     ; 0x209d <filePickModal+0x41d>
    2a70: 91 9f        	sta	($9f),y                 ; 0x209f <filePickModal+0x41f>
    2a72: a0 01        	ldy	#$1
    2a74: a5 9e        	lda	$9e                     ; 0x209e <filePickModal+0x41e>
    2a76: 91 12        	sta	($12),y                 ; 0x2012 <filePickModal+0x392>
    2a78: a6 9d        	ldx	$9d                     ; 0x209d <filePickModal+0x41d>
    2a7a: 86 12        	stx	$12                     ; 0x2012 <filePickModal+0x392>
    2a7c: a6 9e        	ldx	$9e                     ; 0x209e <filePickModal+0x41e>
    2a7e: 86 13        	stx	$13                     ; 0x2013 <filePickModal+0x393>
    2a80: 20 a5 4d     	jsr	$4da5 <strlen>
    2a83: a0 0d        	ldy	#$d
    2a85: 91 9f        	sta	($9f),y                 ; 0x209f <filePickModal+0x41f>
    2a87: a0 03        	ldy	#$3
    2a89: a5 a1        	lda	$a1                     ; 0x20a1 <filePickModal+0x421>
    2a8b: 91 9f        	sta	($9f),y                 ; 0x209f <filePickModal+0x41f>
    2a8d: a0 05        	ldy	#$5
    2a8f: a5 a4        	lda	$a4                     ; 0x20a4 <filePickModal+0x424>
    2a91: 91 9f        	sta	($9f),y                 ; 0x209f <filePickModal+0x41f>
    2a93: a2 a2        	ldx	#$a2
    2a95: a0 00        	ldy	#$0
    2a97: 86 12        	stx	$12                     ; 0x2012 <filePickModal+0x392>
    2a99: 84 13        	sty	$13                     ; 0x2013 <filePickModal+0x393>
    2a9b: a2 73        	ldx	#$73
    2a9d: 86 14        	stx	$14                     ; 0x2014 <filePickModal+0x394>
    2a9f: a2 00        	ldx	#$0
    2aa1: 86 15        	stx	$15                     ; 0x2015 <filePickModal+0x395>
    2aa3: 20 5c ff     	jsr	$ff5c <__heap_start+0x9834>
    2aa6: 92 12        	sta	($12)                   ; 0x2012 <filePickModal+0x392>
    2aa8: a9 00        	lda	#$0
    2aaa: 6a           	ror
    2aab: 85 14        	sta	$14                     ; 0x2014 <filePickModal+0x394>
    2aad: a6 73        	ldx	$73                     ; 0x2073 <filePickModal+0x3f3>
    2aaf: a0 00        	ldy	#$0
    2ab1: 84 12        	sty	$12                     ; 0x2012 <filePickModal+0x392>
    2ab3: a0 00        	ldy	#$0
    2ab5: 84 13        	sty	$13                     ; 0x2013 <filePickModal+0x393>
    2ab7: 8a           	txa
    2ab8: f0 01        	beq	$2abb <fileOpen+0xd1>
    2aba: 60           	rts
    2abb: a6 a2        	ldx	$a2                     ; 0x20a2 <filePickModal+0x422>
    2abd: 86 9d        	stx	$9d                     ; 0x209d <filePickModal+0x41d>
    2abf: a2 a3        	ldx	#$a3
    2ac1: a0 00        	ldy	#$0
    2ac3: 86 16        	stx	$16                     ; 0x2016 <filePickModal+0x396>
    2ac5: 84 17        	sty	$17                     ; 0x2017 <filePickModal+0x397>
    2ac7: 64 6c        	stz	$6c                     ; 0x206c <filePickModal+0x3ec>
    2ac9: 20 00 ff     	jsr	$ff00 <__heap_start+0x97d8>
    2acc: 92 16        	sta	($16)                   ; 0x2016 <filePickModal+0x396>
    2ace: a9 00        	lda	#$0
    2ad0: 6a           	ror
    2ad1: 85 14        	sta	$14                     ; 0x2014 <filePickModal+0x394>
    2ad3: a6 6c        	ldx	$6c                     ; 0x206c <filePickModal+0x3ec>
    2ad5: e0 28        	cpx	#$28
    2ad7: f0 e1        	beq	$2aba <fileOpen+0xd0>
    2ad9: e0 38        	cpx	#$38
    2adb: f0 dd        	beq	$2aba <fileOpen+0xd0>
    2add: e0 2a        	cpx	#$2a
    2adf: d0 e6        	bne	$2ac7 <fileOpen+0xdd>
    2ae1: a9 01        	lda	#$1
    2ae3: a2 00        	ldx	#$0
    2ae5: 20 5e 49     	jsr	$495e <malloc>
    2ae8: a5 9d        	lda	$9d                     ; 0x209d <filePickModal+0x41d>
    2aea: 92 12        	sta	($12)                   ; 0x2012 <filePickModal+0x392>
    2aec: 60           	rts

00002aed <fileRead>:
    2aed: 85 9d        	sta	$9d                     ; 0x209d <filePickModal+0x41d>
    2aef: 86 9e        	stx	$9e                     ; 0x209e <filePickModal+0x41e>
    2af1: a4 12        	ldy	$12                     ; 0x2012 <filePickModal+0x392>
    2af3: 84 a1        	sty	$a1                     ; 0x20a1 <filePickModal+0x421>
    2af5: a4 13        	ldy	$13                     ; 0x2013 <filePickModal+0x393>
    2af7: 84 a2        	sty	$a2                     ; 0x20a2 <filePickModal+0x422>
    2af9: a4 16        	ldy	$16                     ; 0x2016 <filePickModal+0x396>
    2afb: 84 9f        	sty	$9f                     ; 0x209f <filePickModal+0x41f>
    2afd: a4 17        	ldy	$17                     ; 0x2017 <filePickModal+0x397>
    2aff: 84 a0        	sty	$a0                     ; 0x20a0 <filePickModal+0x420>
    2b01: 85 12        	sta	$12                     ; 0x2012 <filePickModal+0x392>
    2b03: 86 13        	stx	$13                     ; 0x2013 <filePickModal+0x393>
    2b05: a6 15        	ldx	$15                     ; 0x2015 <filePickModal+0x395>
    2b07: a5 14        	lda	$14                     ; 0x2014 <filePickModal+0x394>
    2b09: 20 ae 4e     	jsr	$4eae <__mulhi3>
    2b0c: 85 12        	sta	$12                     ; 0x2012 <filePickModal+0x392>
    2b0e: 64 14        	stz	$14                     ; 0x2014 <filePickModal+0x394>
    2b10: 86 13        	stx	$13                     ; 0x2013 <filePickModal+0x393>
    2b12: a5 13        	lda	$13                     ; 0x2013 <filePickModal+0x393>
    2b14: d0 07        	bne	$2b1d <fileRead+0x30>
    2b16: a5 12        	lda	$12                     ; 0x2012 <filePickModal+0x392>
    2b18: d0 03        	bne	$2b1d <fileRead+0x30>
    2b1a: 4c 98 2c     	jmp	$2c98 <fileRead+0x1ab>
    2b1d: a2 00        	ldx	#$0
    2b1f: a0 73        	ldy	#$73
    2b21: 84 16        	sty	$16                     ; 0x2016 <filePickModal+0x396>
    2b23: a0 00        	ldy	#$0
    2b25: 84 17        	sty	$17                     ; 0x2017 <filePickModal+0x397>
    2b27: 64 15        	stz	$15                     ; 0x2015 <filePickModal+0x395>
    2b29: b2 9f        	lda	($9f)                   ; 0x209f <filePickModal+0x41f>
    2b2b: 85 1a        	sta	$1a                     ; 0x201a <filePickModal+0x39a>
    2b2d: a4 a1        	ldy	$a1                     ; 0x20a1 <filePickModal+0x421>
    2b2f: 84 1c        	sty	$1c                     ; 0x201c <filePickModal+0x39c>
    2b31: a5 a1        	lda	$a1                     ; 0x20a1 <filePickModal+0x421>
    2b33: 18           	clc
    2b34: 65 14        	adc	$14                     ; 0x2014 <filePickModal+0x394>
    2b36: a8           	tay
    2b37: a5 a2        	lda	$a2                     ; 0x20a2 <filePickModal+0x422>
    2b39: 85 1d        	sta	$1d                     ; 0x201d <filePickModal+0x39d>
    2b3b: a5 a2        	lda	$a2                     ; 0x20a2 <filePickModal+0x422>
    2b3d: 65 15        	adc	$15                     ; 0x2015 <filePickModal+0x395>
    2b3f: e6 1a        	inc	$1a                     ; 0x201a <filePickModal+0x39a>
    2b41: c6 1a        	dec	$1a                     ; 0x201a <filePickModal+0x39a>
    2b43: f0 53        	beq	$2b98 <fileRead+0xab>
    2b45: 85 1f        	sta	$1f                     ; 0x201f <filePickModal+0x39f>
    2b47: 84 1e        	sty	$1e                     ; 0x201e <filePickModal+0x39e>
    2b49: a5 12        	lda	$12                     ; 0x2012 <filePickModal+0x392>
    2b4b: 38           	sec
    2b4c: e5 14        	sbc	$14                     ; 0x2014 <filePickModal+0x394>
    2b4e: 85 1b        	sta	$1b                     ; 0x201b <filePickModal+0x39b>
    2b50: a5 13        	lda	$13                     ; 0x2013 <filePickModal+0x393>
    2b52: e5 15        	sbc	$15                     ; 0x2015 <filePickModal+0x395>
    2b54: c9 01        	cmp	#$1
    2b56: f0 03        	beq	$2b5b <fileRead+0x6e>
    2b58: 4c 0f 2c     	jmp	$2c0f <fileRead+0x122>
    2b5b: a4 1b        	ldy	$1b                     ; 0x201b <filePickModal+0x39b>
    2b5d: c0 01        	cpy	#$1
    2b5f: 90 02        	bcc	$2b63 <fileRead+0x76>
    2b61: 64 1b        	stz	$1b                     ; 0x201b <filePickModal+0x39b>
    2b63: a5 6a        	lda	$6a                     ; 0x206a <filePickModal+0x3ea>
    2b65: 85 18        	sta	$18                     ; 0x2018 <filePickModal+0x398>
    2b67: a5 6b        	lda	$6b                     ; 0x206b <filePickModal+0x3eb>
    2b69: 85 19        	sta	$19                     ; 0x2019 <filePickModal+0x399>
    2b6b: a0 03        	ldy	#$3
    2b6d: a5 1a        	lda	$1a                     ; 0x201a <filePickModal+0x39a>
    2b6f: 91 18        	sta	($18),y                 ; 0x2018 <filePickModal+0x398>
    2b71: c8           	iny
    2b72: a5 1b        	lda	$1b                     ; 0x201b <filePickModal+0x39b>
    2b74: 91 18        	sta	($18),y                 ; 0x2018 <filePickModal+0x398>
    2b76: a0 a5        	ldy	#$a5
    2b78: 84 18        	sty	$18                     ; 0x2018 <filePickModal+0x398>
    2b7a: a0 00        	ldy	#$0
    2b7c: 84 19        	sty	$19                     ; 0x2019 <filePickModal+0x399>
    2b7e: 20 60 ff     	jsr	$ff60 <__heap_start+0x9838>
    2b81: 92 18        	sta	($18)                   ; 0x2018 <filePickModal+0x398>
    2b83: a9 00        	lda	#$0
    2b85: 6a           	ror
    2b86: 85 16        	sta	$16                     ; 0x2016 <filePickModal+0x396>
    2b88: a5 73        	lda	$73                     ; 0x2073 <filePickModal+0x3f3>
    2b8a: a0 ff        	ldy	#$ff
    2b8c: 84 a8        	sty	$a8                     ; 0x20a8 <filePickModal+0x428>
    2b8e: a8           	tay
    2b8f: d0 03        	bne	$2b94 <fileRead+0xa7>
    2b91: 4c 19 2c     	jmp	$2c19 <fileRead+0x12c>
    2b94: a9 ff        	lda	#$ff
    2b96: 80 42        	bra	$2bda <fileRead+0xed>
    2b98: 84 18        	sty	$18                     ; 0x2018 <filePickModal+0x398>
    2b9a: 85 19        	sta	$19                     ; 0x2019 <filePickModal+0x399>
    2b9c: 80 12        	bra	$2bb0 <fileRead+0xc3>
    2b9e: a9 a4        	lda	#$a4
    2ba0: 85 1a        	sta	$1a                     ; 0x201a <filePickModal+0x39a>
    2ba2: a9 00        	lda	#$0
    2ba4: 85 1b        	sta	$1b                     ; 0x201b <filePickModal+0x39b>
    2ba6: 20 0c ff     	jsr	$ff0c <__heap_start+0x97e4>
    2ba9: 92 1a        	sta	($1a)                   ; 0x201a <filePickModal+0x39a>
    2bab: a9 00        	lda	#$0
    2bad: 6a           	ror
    2bae: 85 16        	sta	$16                     ; 0x2016 <filePickModal+0x396>
    2bb0: 64 6c        	stz	$6c                     ; 0x206c <filePickModal+0x3ec>
    2bb2: a9 a3        	lda	#$a3
    2bb4: 85 1a        	sta	$1a                     ; 0x201a <filePickModal+0x39a>
    2bb6: 86 1b        	stx	$1b                     ; 0x201b <filePickModal+0x39b>
    2bb8: 20 00 ff     	jsr	$ff00 <__heap_start+0x97d8>
    2bbb: 92 1a        	sta	($1a)                   ; 0x201a <filePickModal+0x39a>
    2bbd: a9 00        	lda	#$0
    2bbf: 6a           	ror
    2bc0: 85 16        	sta	$16                     ; 0x2016 <filePickModal+0x396>
    2bc2: a5 73        	lda	$73                     ; 0x2073 <filePickModal+0x3f3>
    2bc4: d0 d8        	bne	$2b9e <fileRead+0xb1>
    2bc6: a5 6c        	lda	$6c                     ; 0x206c <filePickModal+0x3ec>
    2bc8: c9 08        	cmp	#$8
    2bca: d0 e4        	bne	$2bb0 <fileRead+0xc3>
    2bcc: a5 72        	lda	$72                     ; 0x2072 <filePickModal+0x3f2>
    2bce: d0 e0        	bne	$2bb0 <fileRead+0xc3>
    2bd0: a5 71        	lda	$71                     ; 0x2071 <filePickModal+0x3f1>
    2bd2: 92 18        	sta	($18)                   ; 0x2018 <filePickModal+0x398>
    2bd4: a0 01        	ldy	#$1
    2bd6: 84 a8        	sty	$a8                     ; 0x20a8 <filePickModal+0x428>
    2bd8: a9 00        	lda	#$0
    2bda: a8           	tay
    2bdb: 10 03        	bpl	$2be0 <fileRead+0xf3>
    2bdd: 4c a1 2c     	jmp	$2ca1 <fileRead+0x1b4>
    2be0: a4 a8        	ldy	$a8                     ; 0x20a8 <filePickModal+0x428>
    2be2: c9 00        	cmp	#$0
    2be4: d0 03        	bne	$2be9 <fileRead+0xfc>
    2be6: 4c a5 2c     	jmp	$2ca5 <fileRead+0x1b8>
    2be9: 84 18        	sty	$18                     ; 0x2018 <filePickModal+0x398>
    2beb: 18           	clc
    2bec: a8           	tay
    2bed: a5 18        	lda	$18                     ; 0x2018 <filePickModal+0x398>
    2bef: 65 14        	adc	$14                     ; 0x2014 <filePickModal+0x394>
    2bf1: 85 14        	sta	$14                     ; 0x2014 <filePickModal+0x394>
    2bf3: 98           	tya
    2bf4: 65 15        	adc	$15                     ; 0x2015 <filePickModal+0x395>
    2bf6: c5 13        	cmp	$13                     ; 0x2013 <filePickModal+0x393>
    2bf8: d0 09        	bne	$2c03 <fileRead+0x116>
    2bfa: a4 14        	ldy	$14                     ; 0x2014 <filePickModal+0x394>
    2bfc: c4 12        	cpy	$12                     ; 0x2012 <filePickModal+0x392>
    2bfe: 90 0a        	bcc	$2c0a <fileRead+0x11d>
    2c00: 4c 87 2c     	jmp	$2c87 <fileRead+0x19a>
    2c03: c5 13        	cmp	$13                     ; 0x2013 <filePickModal+0x393>
    2c05: 90 03        	bcc	$2c0a <fileRead+0x11d>
    2c07: 4c 87 2c     	jmp	$2c87 <fileRead+0x19a>
    2c0a: 85 15        	sta	$15                     ; 0x2015 <filePickModal+0x395>
    2c0c: 4c 29 2b     	jmp	$2b29 <fileRead+0x3c>
    2c0f: c9 01        	cmp	#$1
    2c11: 90 03        	bcc	$2c16 <fileRead+0x129>
    2c13: 4c 61 2b     	jmp	$2b61 <fileRead+0x74>
    2c16: 4c 63 2b     	jmp	$2b63 <fileRead+0x76>
    2c19: a0 a6        	ldy	#$a6
    2c1b: 64 6c        	stz	$6c                     ; 0x206c <filePickModal+0x3ec>
    2c1d: 84 18        	sty	$18                     ; 0x2018 <filePickModal+0x398>
    2c1f: a9 00        	lda	#$0
    2c21: 85 19        	sta	$19                     ; 0x2019 <filePickModal+0x399>
    2c23: 20 00 ff     	jsr	$ff00 <__heap_start+0x97d8>
    2c26: 92 18        	sta	($18)                   ; 0x2018 <filePickModal+0x398>
    2c28: a9 00        	lda	#$0
    2c2a: 6a           	ror
    2c2b: 85 16        	sta	$16                     ; 0x2016 <filePickModal+0x396>
    2c2d: a5 6c        	lda	$6c                     ; 0x206c <filePickModal+0x3ec>
    2c2f: c9 38        	cmp	#$38
    2c31: d0 03        	bne	$2c36 <fileRead+0x149>
    2c33: 4c 94 2b     	jmp	$2b94 <fileRead+0xa7>
    2c36: c9 30        	cmp	#$30
    2c38: d0 03        	bne	$2c3d <fileRead+0x150>
    2c3a: 4c 9c 2c     	jmp	$2c9c <fileRead+0x1af>
    2c3d: c9 2c        	cmp	#$2c
    2c3f: d0 da        	bne	$2c1b <fileRead+0x12e>
    2c41: a5 6a        	lda	$6a                     ; 0x206a <filePickModal+0x3ea>
    2c43: a4 6b        	ldy	$6b                     ; 0x206b <filePickModal+0x3eb>
    2c45: 85 18        	sta	$18                     ; 0x2018 <filePickModal+0x398>
    2c47: 84 19        	sty	$19                     ; 0x2019 <filePickModal+0x399>
    2c49: 18           	clc
    2c4a: 69 0b        	adc	#$b
    2c4c: 85 1a        	sta	$1a                     ; 0x201a <filePickModal+0x39a>
    2c4e: 98           	tya
    2c4f: 69 00        	adc	#$0
    2c51: 85 1b        	sta	$1b                     ; 0x201b <filePickModal+0x39b>
    2c53: a0 0b        	ldy	#$b
    2c55: a5 1e        	lda	$1e                     ; 0x201e <filePickModal+0x39e>
    2c57: 91 18        	sta	($18),y                 ; 0x2018 <filePickModal+0x398>
    2c59: a0 01        	ldy	#$1
    2c5b: a5 1f        	lda	$1f                     ; 0x201f <filePickModal+0x39f>
    2c5d: 91 1a        	sta	($1a),y                 ; 0x201a <filePickModal+0x39a>
    2c5f: a5 72        	lda	$72                     ; 0x2072 <filePickModal+0x3f2>
    2c61: a0 0d        	ldy	#$d
    2c63: 91 18        	sta	($18),y                 ; 0x2018 <filePickModal+0x398>
    2c65: a0 a7        	ldy	#$a7
    2c67: 84 18        	sty	$18                     ; 0x2018 <filePickModal+0x398>
    2c69: a0 00        	ldy	#$0
    2c6b: 84 19        	sty	$19                     ; 0x2019 <filePickModal+0x399>
    2c6d: 20 04 ff     	jsr	$ff04 <__heap_start+0x97dc>
    2c70: 92 18        	sta	($18)                   ; 0x2018 <filePickModal+0x398>
    2c72: a9 00        	lda	#$0
    2c74: 6a           	ror
    2c75: 85 16        	sta	$16                     ; 0x2016 <filePickModal+0x396>
    2c77: a4 72        	ldy	$72                     ; 0x2072 <filePickModal+0x3f2>
    2c79: f0 03        	beq	$2c7e <fileRead+0x191>
    2c7b: 4c d6 2b     	jmp	$2bd6 <fileRead+0xe9>
    2c7e: a0 00        	ldy	#$0
    2c80: 84 a8        	sty	$a8                     ; 0x20a8 <filePickModal+0x428>
    2c82: a9 01        	lda	#$1
    2c84: 4c da 2b     	jmp	$2bda <fileRead+0xed>
    2c87: 85 15        	sta	$15                     ; 0x2015 <filePickModal+0x395>
    2c89: a6 9d        	ldx	$9d                     ; 0x209d <filePickModal+0x41d>
    2c8b: 86 12        	stx	$12                     ; 0x2012 <filePickModal+0x392>
    2c8d: a6 9e        	ldx	$9e                     ; 0x209e <filePickModal+0x41e>
    2c8f: 86 13        	stx	$13                     ; 0x2013 <filePickModal+0x393>
    2c91: a6 15        	ldx	$15                     ; 0x2015 <filePickModal+0x395>
    2c93: a5 14        	lda	$14                     ; 0x2014 <filePickModal+0x394>
    2c95: 4c 50 4f     	jmp	$4f50 <__udivhi3>
    2c98: 64 15        	stz	$15                     ; 0x2015 <filePickModal+0x395>
    2c9a: 80 ed        	bra	$2c89 <fileRead+0x19c>
    2c9c: a0 00        	ldy	#$0
    2c9e: 4c d6 2b     	jmp	$2bd6 <fileRead+0xe9>
    2ca1: a9 ff        	lda	#$ff
    2ca3: aa           	tax
    2ca4: 60           	rts
    2ca5: c0 00        	cpy	#$0
    2ca7: f0 e0        	beq	$2c89 <fileRead+0x19c>
    2ca9: 4c e9 2b     	jmp	$2be9 <fileRead+0xfc>

00002cac <playback>:
    2cac: 18           	clc
    2cad: a5 10        	lda	$10                     ; 0x2010 <filePickModal+0x390>
    2caf: 69 ef        	adc	#$ef
    2cb1: 85 10        	sta	$10                     ; 0x2010 <filePickModal+0x390>
    2cb3: a5 11        	lda	$11                     ; 0x2011 <filePickModal+0x391>
    2cb5: 69 ff        	adc	#$ff
    2cb7: 85 11        	sta	$11                     ; 0x2011 <filePickModal+0x391>
    2cb9: a6 24        	ldx	$24                     ; 0x2024 <filePickModal+0x3a4>
    2cbb: da           	phx
    2cbc: a6 25        	ldx	$25                     ; 0x2025 <filePickModal+0x3a5>
    2cbe: da           	phx
    2cbf: a6 26        	ldx	$26                     ; 0x2026 <filePickModal+0x3a6>
    2cc1: da           	phx
    2cc2: a6 27        	ldx	$27                     ; 0x2027 <filePickModal+0x3a7>
    2cc4: da           	phx
    2cc5: a5 28        	lda	$28                     ; 0x2028 <filePickModal+0x3a8>
    2cc7: a0 08        	ldy	#$8
    2cc9: 91 10        	sta	($10),y                 ; 0x2010 <filePickModal+0x390>
    2ccb: a5 29        	lda	$29                     ; 0x2029 <filePickModal+0x3a9>
    2ccd: 88           	dey
    2cce: 91 10        	sta	($10),y                 ; 0x2010 <filePickModal+0x390>
    2cd0: a5 2a        	lda	$2a                     ; 0x202a <filePickModal+0x3aa>
    2cd2: 88           	dey
    2cd3: 91 10        	sta	($10),y                 ; 0x2010 <filePickModal+0x390>
    2cd5: a5 2b        	lda	$2b                     ; 0x202b <filePickModal+0x3ab>
    2cd7: 88           	dey
    2cd8: 91 10        	sta	($10),y                 ; 0x2010 <filePickModal+0x390>
    2cda: a5 2c        	lda	$2c                     ; 0x202c <filePickModal+0x3ac>
    2cdc: 88           	dey
    2cdd: 91 10        	sta	($10),y                 ; 0x2010 <filePickModal+0x390>
    2cdf: a5 2d        	lda	$2d                     ; 0x202d <filePickModal+0x3ad>
    2ce1: 88           	dey
    2ce2: 91 10        	sta	($10),y                 ; 0x2010 <filePickModal+0x390>
    2ce4: a5 2e        	lda	$2e                     ; 0x202e <filePickModal+0x3ae>
    2ce6: 88           	dey
    2ce7: 91 10        	sta	($10),y                 ; 0x2010 <filePickModal+0x390>
    2ce9: a6 12        	ldx	$12                     ; 0x2012 <filePickModal+0x392>
    2ceb: 86 24        	stx	$24                     ; 0x2024 <filePickModal+0x3a4>
    2ced: a6 13        	ldx	$13                     ; 0x2013 <filePickModal+0x393>
    2cef: 86 25        	stx	$25                     ; 0x2025 <filePickModal+0x3a5>
    2cf1: 64 74        	stz	$74                     ; 0x2074 <filePickModal+0x3f4>
    2cf3: 9c 14 d0     	stz	$d014                   ; 0xd014 <__heap_start+0x68ec>
    2cf6: 9c 15 d0     	stz	$d015                   ; 0xd015 <__heap_start+0x68ed>
    2cf9: 64 75        	stz	$75                     ; 0x2075 <filePickModal+0x3f5>
    2cfb: 9c 16 d0     	stz	$d016                   ; 0xd016 <__heap_start+0x68ee>
    2cfe: 9c 17 d0     	stz	$d017                   ; 0xd017 <__heap_start+0x68ef>
    2d01: a2 48        	ldx	#$48
    2d03: 86 12        	stx	$12                     ; 0x2012 <filePickModal+0x392>
    2d05: a2 52        	ldx	#$52
    2d07: 86 13        	stx	$13                     ; 0x2013 <filePickModal+0x393>
    2d09: 20 e1 45     	jsr	$45e1 <printf>
    2d0c: 64 74        	stz	$74                     ; 0x2074 <filePickModal+0x3f4>
    2d0e: 9c 14 d0     	stz	$d014                   ; 0xd014 <__heap_start+0x68ec>
    2d11: 9c 15 d0     	stz	$d015                   ; 0xd015 <__heap_start+0x68ed>
    2d14: a2 01        	ldx	#$1
    2d16: 86 75        	stx	$75                     ; 0x2075 <filePickModal+0x3f5>
    2d18: 8e 16 d0     	stx	$d016                   ; 0xd016 <__heap_start+0x68ee>
    2d1b: 9c 17 d0     	stz	$d017                   ; 0xd017 <__heap_start+0x68ef>
    2d1e: a2 48        	ldx	#$48
    2d20: 86 12        	stx	$12                     ; 0x2012 <filePickModal+0x392>
    2d22: a2 52        	ldx	#$52
    2d24: 86 13        	stx	$13                     ; 0x2013 <filePickModal+0x393>
    2d26: 20 e1 45     	jsr	$45e1 <printf>
    2d29: 64 74        	stz	$74                     ; 0x2074 <filePickModal+0x3f4>
    2d2b: 9c 14 d0     	stz	$d014                   ; 0xd014 <__heap_start+0x68ec>
    2d2e: 9c 15 d0     	stz	$d015                   ; 0xd015 <__heap_start+0x68ed>
    2d31: 64 75        	stz	$75                     ; 0x2075 <filePickModal+0x3f5>
    2d33: 9c 16 d0     	stz	$d016                   ; 0xd016 <__heap_start+0x68ee>
    2d36: 9c 17 d0     	stz	$d017                   ; 0xd017 <__heap_start+0x68ef>
    2d39: a9 cd        	lda	#$cd
    2d3b: 92 10        	sta	($10)                   ; 0x2010 <filePickModal+0x390>
    2d3d: a0 01        	ldy	#$1
    2d3f: a9 54        	lda	#$54
    2d41: 91 10        	sta	($10),y                 ; 0x2010 <filePickModal+0x390>
    2d43: a2 be        	ldx	#$be
    2d45: 86 12        	stx	$12                     ; 0x2012 <filePickModal+0x392>
    2d47: a2 52        	ldx	#$52
    2d49: 86 13        	stx	$13                     ; 0x2013 <filePickModal+0x393>
    2d4b: 20 e1 45     	jsr	$45e1 <printf>
    2d4e: 64 74        	stz	$74                     ; 0x2074 <filePickModal+0x3f4>
    2d50: 9c 14 d0     	stz	$d014                   ; 0xd014 <__heap_start+0x68ec>
    2d53: 9c 15 d0     	stz	$d015                   ; 0xd015 <__heap_start+0x68ed>
    2d56: a2 18        	ldx	#$18
    2d58: 86 75        	stx	$75                     ; 0x2075 <filePickModal+0x3f5>
    2d5a: 8e 16 d0     	stx	$d016                   ; 0xd016 <__heap_start+0x68ee>
    2d5d: 9c 17 d0     	stz	$d017                   ; 0xd017 <__heap_start+0x68ef>
    2d60: a2 ca        	ldx	#$ca
    2d62: 86 12        	stx	$12                     ; 0x2012 <filePickModal+0x392>
    2d64: a2 52        	ldx	#$52
    2d66: 86 13        	stx	$13                     ; 0x2013 <filePickModal+0x393>
    2d68: 20 e1 45     	jsr	$45e1 <printf>
    2d6b: 64 94        	stz	$94                     ; 0x2094 <filePickModal+0x414>
    2d6d: 64 96        	stz	$96                     ; 0x2096 <filePickModal+0x416>
    2d6f: a9 00        	lda	#$0
    2d71: 20 e7 21     	jsr	$21e7 <getTimerAbsolute>
    2d74: 1a           	inc
    2d75: 85 95        	sta	$95                     ; 0x2095 <filePickModal+0x415>
    2d77: 64 12        	stz	$12                     ; 0x2012 <filePickModal+0x392>
    2d79: 64 13        	stz	$13                     ; 0x2013 <filePickModal+0x393>
    2d7b: a2 00        	ldx	#$0
    2d7d: a9 01        	lda	#$1
    2d7f: 20 cb 21     	jsr	$21cb <setTimer0>
    2d82: a2 73        	ldx	#$73
    2d84: 86 2c        	stx	$2c                     ; 0x202c <filePickModal+0x3ac>
    2d86: a2 00        	ldx	#$0
    2d88: 86 2d        	stx	$2d                     ; 0x202d <filePickModal+0x3ad>
    2d8a: 64 2e        	stz	$2e                     ; 0x202e <filePickModal+0x3ae>
    2d8c: 18           	clc
    2d8d: a5 10        	lda	$10                     ; 0x2010 <filePickModal+0x390>
    2d8f: 69 0d        	adc	#$d
    2d91: 85 26        	sta	$26                     ; 0x2026 <filePickModal+0x3a6>
    2d93: a5 11        	lda	$11                     ; 0x2011 <filePickModal+0x391>
    2d95: 69 00        	adc	#$0
    2d97: 85 27        	sta	$27                     ; 0x2027 <filePickModal+0x3a7>
    2d99: a9 00        	lda	#$0
    2d9b: 92 26        	sta	($26)                   ; 0x2026 <filePickModal+0x3a6>
    2d9d: 18           	clc
    2d9e: 48           	pha
    2d9f: a5 10        	lda	$10                     ; 0x2010 <filePickModal+0x390>
    2da1: 69 0c        	adc	#$c
    2da3: 85 28        	sta	$28                     ; 0x2028 <filePickModal+0x3a8>
    2da5: a5 11        	lda	$11                     ; 0x2011 <filePickModal+0x391>
    2da7: 69 00        	adc	#$0
    2da9: 85 29        	sta	$29                     ; 0x2029 <filePickModal+0x3a9>
    2dab: 64 12        	stz	$12                     ; 0x2012 <filePickModal+0x392>
    2dad: a9 00        	lda	#$0
    2daf: a0 0a        	ldy	#$a
    2db1: 91 10        	sta	($10),y                 ; 0x2010 <filePickModal+0x390>
    2db3: 68           	pla
    2db4: 92 28        	sta	($28)                   ; 0x2028 <filePickModal+0x3a8>
    2db6: 64 6c        	stz	$6c                     ; 0x206c <filePickModal+0x3ec>
    2db8: 18           	clc
    2db9: a5 10        	lda	$10                     ; 0x2010 <filePickModal+0x390>
    2dbb: 69 0b        	adc	#$b
    2dbd: 85 12        	sta	$12                     ; 0x2012 <filePickModal+0x392>
    2dbf: a5 11        	lda	$11                     ; 0x2011 <filePickModal+0x391>
    2dc1: 69 00        	adc	#$0
    2dc3: 85 13        	sta	$13                     ; 0x2013 <filePickModal+0x393>
    2dc5: 20 00 ff     	jsr	$ff00 <__heap_start+0x97d8>
    2dc8: 92 12        	sta	($12)                   ; 0x2012 <filePickModal+0x392>
    2dca: a9 00        	lda	#$0
    2dcc: 6a           	ror
    2dcd: 85 2c        	sta	$2c                     ; 0x202c <filePickModal+0x3ac>
    2dcf: a6 6c        	ldx	$6c                     ; 0x206c <filePickModal+0x3ec>
    2dd1: e0 08        	cpx	#$8
    2dd3: d0 10        	bne	$2de5 <playback+0x139>
    2dd5: a6 70        	ldx	$70                     ; 0x2070 <filePickModal+0x3f0>
    2dd7: e0 92        	cpx	#$92
    2dd9: d0 03        	bne	$2dde <playback+0x132>
    2ddb: 4c 4a 2f     	jmp	$2f4a <playback+0x29e>
    2dde: e0 83        	cpx	#$83
    2de0: d0 03        	bne	$2de5 <playback+0x139>
    2de2: 4c 10 2f     	jmp	$2f10 <playback+0x264>
    2de5: ad 60 d6     	lda	$d660                   ; 0xd660 <__heap_start+0x6f38>
    2de8: 29 10        	and	#$10
    2dea: d0 03        	bne	$2def <playback+0x143>
    2dec: 4c b6 2e     	jmp	$2eb6 <playback+0x20a>
    2def: a2 10        	ldx	#$10
    2df1: 8e 60 d6     	stx	$d660                   ; 0xd660 <__heap_start+0x6f38>
    2df4: 18           	clc
    2df5: a5 10        	lda	$10                     ; 0x2010 <filePickModal+0x390>
    2df7: 69 10        	adc	#$10
    2df9: 85 2a        	sta	$2a                     ; 0x202a <filePickModal+0x3aa>
    2dfb: a5 11        	lda	$11                     ; 0x2011 <filePickModal+0x391>
    2dfd: 69 00        	adc	#$0
    2dff: 85 2b        	sta	$2b                     ; 0x202b <filePickModal+0x3ab>
    2e01: a6 2a        	ldx	$2a                     ; 0x202a <filePickModal+0x3aa>
    2e03: 86 12        	stx	$12                     ; 0x2012 <filePickModal+0x392>
    2e05: 85 13        	sta	$13                     ; 0x2013 <filePickModal+0x393>
    2e07: a6 24        	ldx	$24                     ; 0x2024 <filePickModal+0x3a4>
    2e09: 86 16        	stx	$16                     ; 0x2016 <filePickModal+0x396>
    2e0b: a6 25        	ldx	$25                     ; 0x2025 <filePickModal+0x3a5>
    2e0d: 86 17        	stx	$17                     ; 0x2017 <filePickModal+0x397>
    2e0f: a9 01        	lda	#$1
    2e11: 85 14        	sta	$14                     ; 0x2014 <filePickModal+0x394>
    2e13: 64 15        	stz	$15                     ; 0x2015 <filePickModal+0x395>
    2e15: 64 18        	stz	$18                     ; 0x2018 <filePickModal+0x398>
    2e17: 48           	pha
    2e18: 3a           	dec
    2e19: 91 10        	sta	($10),y                 ; 0x2010 <filePickModal+0x390>
    2e1b: 68           	pla
    2e1c: a2 00        	ldx	#$0
    2e1e: 20 ed 2a     	jsr	$2aed <fileRead>
    2e21: c9 01        	cmp	#$1
    2e23: f0 03        	beq	$2e28 <playback+0x17c>
    2e25: 4c 54 2f     	jmp	$2f54 <playback+0x2a8>
    2e28: 18           	clc
    2e29: a9 60        	lda	#$60
    2e2b: 72 2a        	adc	($2a)                   ; 0x202a <filePickModal+0x3aa>
    2e2d: c9 c7        	cmp	#$c7
    2e2f: 90 03        	bcc	$2e34 <playback+0x188>
    2e31: 4c a0 2e     	jmp	$2ea0 <playback+0x1f4>
    2e34: aa           	tax
    2e35: bc 68 50     	ldy	$5068,x                 ; 0x5068 <__BLOCK_SIZE+0x3068>
    2e38: bd 2f 51     	lda	$512f,x                 ; 0x512f <__BLOCK_SIZE+0x312f>
    2e3b: aa           	tax
    2e3c: 84 14        	sty	$14                     ; 0x2014 <filePickModal+0x394>
    2e3e: 86 15        	stx	$15                     ; 0x2015 <filePickModal+0x395>
    2e40: a0 06        	ldy	#$6
    2e42: a2 66        	ldx	#$66
    2e44: 8a           	txa
    2e45: 5a           	phy
    2e46: a0 09        	ldy	#$9
    2e48: 91 10        	sta	($10),y                 ; 0x2010 <filePickModal+0x390>
    2e4a: 7a           	ply
    2e4b: a2 01        	ldx	#$1
    2e4d: a9 66        	lda	#$66
    2e4f: 64 13        	stz	$13                     ; 0x2013 <filePickModal+0x393>
    2e51: 6c 14 00     	jmp	($14)                   ; 0x14 <__rc4>
    2e54: 18           	clc
    2e55: a5 10        	lda	$10                     ; 0x2010 <filePickModal+0x390>
    2e57: 69 0f        	adc	#$f
    2e59: 85 26        	sta	$26                     ; 0x2026 <filePickModal+0x3a6>
    2e5b: a5 11        	lda	$11                     ; 0x2011 <filePickModal+0x391>
    2e5d: 69 00        	adc	#$0
    2e5f: 85 27        	sta	$27                     ; 0x2027 <filePickModal+0x3a7>
    2e61: a6 26        	ldx	$26                     ; 0x2026 <filePickModal+0x3a6>
    2e63: 86 12        	stx	$12                     ; 0x2012 <filePickModal+0x392>
    2e65: a6 27        	ldx	$27                     ; 0x2027 <filePickModal+0x3a7>
    2e67: 86 13        	stx	$13                     ; 0x2013 <filePickModal+0x393>
    2e69: a6 24        	ldx	$24                     ; 0x2024 <filePickModal+0x3a4>
    2e6b: 86 16        	stx	$16                     ; 0x2016 <filePickModal+0x396>
    2e6d: a6 25        	ldx	$25                     ; 0x2025 <filePickModal+0x3a5>
    2e6f: 86 17        	stx	$17                     ; 0x2017 <filePickModal+0x397>
    2e71: a9 01        	lda	#$1
    2e73: 85 14        	sta	$14                     ; 0x2014 <filePickModal+0x394>
    2e75: 64 15        	stz	$15                     ; 0x2015 <filePickModal+0x395>
    2e77: a2 00        	ldx	#$0
    2e79: 20 ed 2a     	jsr	$2aed <fileRead>
    2e7c: a6 26        	ldx	$26                     ; 0x2026 <filePickModal+0x3a6>
    2e7e: 86 12        	stx	$12                     ; 0x2012 <filePickModal+0x392>
    2e80: a6 27        	ldx	$27                     ; 0x2027 <filePickModal+0x3a7>
    2e82: 86 13        	stx	$13                     ; 0x2013 <filePickModal+0x393>
    2e84: a6 24        	ldx	$24                     ; 0x2024 <filePickModal+0x3a4>
    2e86: 86 16        	stx	$16                     ; 0x2016 <filePickModal+0x396>
    2e88: a6 25        	ldx	$25                     ; 0x2025 <filePickModal+0x3a5>
    2e8a: 86 17        	stx	$17                     ; 0x2017 <filePickModal+0x397>
    2e8c: a9 01        	lda	#$1
    2e8e: 85 14        	sta	$14                     ; 0x2014 <filePickModal+0x394>
    2e90: 64 15        	stz	$15                     ; 0x2015 <filePickModal+0x395>
    2e92: 64 18        	stz	$18                     ; 0x2018 <filePickModal+0x398>
    2e94: 48           	pha
    2e95: 3a           	dec
    2e96: a0 0a        	ldy	#$a
    2e98: 91 10        	sta	($10),y                 ; 0x2010 <filePickModal+0x390>
    2e9a: 68           	pla
    2e9b: a2 00        	ldx	#$0
    2e9d: 20 ed 2a     	jsr	$2aed <fileRead>
    2ea0: a2 01        	ldx	#$1
    2ea2: 8a           	txa
    2ea3: a0 09        	ldy	#$9
    2ea5: 91 10        	sta	($10),y                 ; 0x2010 <filePickModal+0x390>
    2ea7: a9 00        	lda	#$0
    2ea9: a8           	tay
    2eaa: 64 13        	stz	$13                     ; 0x2013 <filePickModal+0x393>
    2eac: 84 12        	sty	$12                     ; 0x2012 <filePickModal+0x392>
    2eae: aa           	tax
    2eaf: a0 09        	ldy	#$9
    2eb1: b1 10        	lda	($10),y                 ; 0x2010 <filePickModal+0x390>
    2eb3: 20 cb 21     	jsr	$21cb <setTimer0>
    2eb6: a6 2e        	ldx	$2e                     ; 0x202e <filePickModal+0x3ae>
    2eb8: 86 2e        	stx	$2e                     ; 0x202e <filePickModal+0x3ae>
    2eba: 8a           	txa
    2ebb: d0 03        	bne	$2ec0 <playback+0x214>
    2ebd: 4c 8c 2d     	jmp	$2d8c <playback+0xe0>
    2ec0: 64 74        	stz	$74                     ; 0x2074 <filePickModal+0x3f4>
    2ec2: 9c 14 d0     	stz	$d014                   ; 0xd014 <__heap_start+0x68ec>
    2ec5: 9c 15 d0     	stz	$d015                   ; 0xd015 <__heap_start+0x68ed>
    2ec8: 64 75        	stz	$75                     ; 0x2075 <filePickModal+0x3f5>
    2eca: 9c 16 d0     	stz	$d016                   ; 0xd016 <__heap_start+0x68ee>
    2ecd: 9c 17 d0     	stz	$d017                   ; 0xd017 <__heap_start+0x68ef>
    2ed0: a2 48        	ldx	#$48
    2ed2: 86 12        	stx	$12                     ; 0x2012 <filePickModal+0x392>
    2ed4: a2 52        	ldx	#$52
    2ed6: 86 13        	stx	$13                     ; 0x2013 <filePickModal+0x393>
    2ed8: 20 e1 45     	jsr	$45e1 <printf>
    2edb: 64 74        	stz	$74                     ; 0x2074 <filePickModal+0x3f4>
    2edd: 9c 14 d0     	stz	$d014                   ; 0xd014 <__heap_start+0x68ec>
    2ee0: 9c 15 d0     	stz	$d015                   ; 0xd015 <__heap_start+0x68ed>
    2ee3: a2 18        	ldx	#$18
    2ee5: 80 4e        	bra	$2f35 <playback+0x289>
    2ee7: 18           	clc
    2ee8: a5 10        	lda	$10                     ; 0x2010 <filePickModal+0x390>
    2eea: 69 0f        	adc	#$f
    2eec: 85 26        	sta	$26                     ; 0x2026 <filePickModal+0x3a6>
    2eee: a5 11        	lda	$11                     ; 0x2011 <filePickModal+0x391>
    2ef0: 69 00        	adc	#$0
    2ef2: 85 27        	sta	$27                     ; 0x2027 <filePickModal+0x3a7>
    2ef4: a6 26        	ldx	$26                     ; 0x2026 <filePickModal+0x3a6>
    2ef6: 86 12        	stx	$12                     ; 0x2012 <filePickModal+0x392>
    2ef8: 85 13        	sta	$13                     ; 0x2013 <filePickModal+0x393>
    2efa: a6 24        	ldx	$24                     ; 0x2024 <filePickModal+0x3a4>
    2efc: 86 16        	stx	$16                     ; 0x2016 <filePickModal+0x396>
    2efe: a6 25        	ldx	$25                     ; 0x2025 <filePickModal+0x3a5>
    2f00: 86 17        	stx	$17                     ; 0x2017 <filePickModal+0x397>
    2f02: a9 01        	lda	#$1
    2f04: 85 14        	sta	$14                     ; 0x2014 <filePickModal+0x394>
    2f06: 64 15        	stz	$15                     ; 0x2015 <filePickModal+0x395>
    2f08: a2 00        	ldx	#$0
    2f0a: 20 ed 2a     	jsr	$2aed <fileRead>
    2f0d: 4c 61 2e     	jmp	$2e61 <playback+0x1b5>
    2f10: 64 74        	stz	$74                     ; 0x2074 <filePickModal+0x3f4>
    2f12: 9c 14 d0     	stz	$d014                   ; 0xd014 <__heap_start+0x68ec>
    2f15: 9c 15 d0     	stz	$d015                   ; 0xd015 <__heap_start+0x68ed>
    2f18: 64 75        	stz	$75                     ; 0x2075 <filePickModal+0x3f5>
    2f1a: 9c 16 d0     	stz	$d016                   ; 0xd016 <__heap_start+0x68ee>
    2f1d: 9c 17 d0     	stz	$d017                   ; 0xd017 <__heap_start+0x68ef>
    2f20: a2 48        	ldx	#$48
    2f22: 86 12        	stx	$12                     ; 0x2012 <filePickModal+0x392>
    2f24: a2 52        	ldx	#$52
    2f26: 86 13        	stx	$13                     ; 0x2013 <filePickModal+0x393>
    2f28: 20 e1 45     	jsr	$45e1 <printf>
    2f2b: 64 74        	stz	$74                     ; 0x2074 <filePickModal+0x3f4>
    2f2d: 9c 14 d0     	stz	$d014                   ; 0xd014 <__heap_start+0x68ec>
    2f30: 9c 15 d0     	stz	$d015                   ; 0xd015 <__heap_start+0x68ed>
    2f33: a2 27        	ldx	#$27
    2f35: 86 75        	stx	$75                     ; 0x2075 <filePickModal+0x3f5>
    2f37: 8e 16 d0     	stx	$d016                   ; 0xd016 <__heap_start+0x68ee>
    2f3a: 9c 17 d0     	stz	$d017                   ; 0xd017 <__heap_start+0x68ef>
    2f3d: a2 48        	ldx	#$48
    2f3f: 86 12        	stx	$12                     ; 0x2012 <filePickModal+0x392>
    2f41: a2 52        	ldx	#$52
    2f43: 86 13        	stx	$13                     ; 0x2013 <filePickModal+0x393>
    2f45: 20 e1 45     	jsr	$45e1 <printf>
    2f48: 80 0a        	bra	$2f54 <playback+0x2a8>
    2f4a: 20 b0 21     	jsr	$21b0 <opl3_quietAll>
    2f4d: a2 01        	ldx	#$1
    2f4f: 8a           	txa
    2f50: a0 0a        	ldy	#$a
    2f52: 91 10        	sta	($10),y                 ; 0x2010 <filePickModal+0x390>
    2f54: a0 0a        	ldy	#$a
    2f56: b1 10        	lda	($10),y                 ; 0x2010 <filePickModal+0x390>
    2f58: 85 20        	sta	$20                     ; 0x2020 <filePickModal+0x3a0>
    2f5a: a0 02        	ldy	#$2
    2f5c: b1 10        	lda	($10),y                 ; 0x2010 <filePickModal+0x390>
    2f5e: 85 2e        	sta	$2e                     ; 0x202e <filePickModal+0x3ae>
    2f60: c8           	iny
    2f61: b1 10        	lda	($10),y                 ; 0x2010 <filePickModal+0x390>
    2f63: 85 2d        	sta	$2d                     ; 0x202d <filePickModal+0x3ad>
    2f65: c8           	iny
    2f66: b1 10        	lda	($10),y                 ; 0x2010 <filePickModal+0x390>
    2f68: 85 2c        	sta	$2c                     ; 0x202c <filePickModal+0x3ac>
    2f6a: c8           	iny
    2f6b: b1 10        	lda	($10),y                 ; 0x2010 <filePickModal+0x390>
    2f6d: 85 2b        	sta	$2b                     ; 0x202b <filePickModal+0x3ab>
    2f6f: c8           	iny
    2f70: b1 10        	lda	($10),y                 ; 0x2010 <filePickModal+0x390>
    2f72: 85 2a        	sta	$2a                     ; 0x202a <filePickModal+0x3aa>
    2f74: c8           	iny
    2f75: b1 10        	lda	($10),y                 ; 0x2010 <filePickModal+0x390>
    2f77: 85 29        	sta	$29                     ; 0x2029 <filePickModal+0x3a9>
    2f79: c8           	iny
    2f7a: b1 10        	lda	($10),y                 ; 0x2010 <filePickModal+0x390>
    2f7c: 85 28        	sta	$28                     ; 0x2028 <filePickModal+0x3a8>
    2f7e: fa           	plx
    2f7f: 86 27        	stx	$27                     ; 0x2027 <filePickModal+0x3a7>
    2f81: fa           	plx
    2f82: 86 26        	stx	$26                     ; 0x2026 <filePickModal+0x3a6>
    2f84: fa           	plx
    2f85: 86 25        	stx	$25                     ; 0x2025 <filePickModal+0x3a5>
    2f87: fa           	plx
    2f88: 86 24        	stx	$24                     ; 0x2024 <filePickModal+0x3a4>
    2f8a: 18           	clc
    2f8b: a5 10        	lda	$10                     ; 0x2010 <filePickModal+0x390>
    2f8d: 69 11        	adc	#$11
    2f8f: 85 10        	sta	$10                     ; 0x2010 <filePickModal+0x390>
    2f91: a5 11        	lda	$11                     ; 0x2011 <filePickModal+0x391>
    2f93: 69 00        	adc	#$0
    2f95: 85 11        	sta	$11                     ; 0x2011 <filePickModal+0x391>
    2f97: a5 20        	lda	$20                     ; 0x2020 <filePickModal+0x3a0>
    2f99: 60           	rts
    2f9a: 18           	clc
    2f9b: a5 10        	lda	$10                     ; 0x2010 <filePickModal+0x390>
    2f9d: 69 0f        	adc	#$f
    2f9f: 85 12        	sta	$12                     ; 0x2012 <filePickModal+0x392>
    2fa1: a5 11        	lda	$11                     ; 0x2011 <filePickModal+0x391>
    2fa3: 69 00        	adc	#$0
    2fa5: 85 13        	sta	$13                     ; 0x2013 <filePickModal+0x393>
    2fa7: 4c 84 2e     	jmp	$2e84 <playback+0x1d8>
    2faa: 18           	clc
    2fab: a5 10        	lda	$10                     ; 0x2010 <filePickModal+0x390>
    2fad: 69 0f        	adc	#$f
    2faf: 85 26        	sta	$26                     ; 0x2026 <filePickModal+0x3a6>
    2fb1: a5 11        	lda	$11                     ; 0x2011 <filePickModal+0x391>
    2fb3: 69 00        	adc	#$0
    2fb5: 85 27        	sta	$27                     ; 0x2027 <filePickModal+0x3a7>
    2fb7: a6 26        	ldx	$26                     ; 0x2026 <filePickModal+0x3a6>
    2fb9: 86 12        	stx	$12                     ; 0x2012 <filePickModal+0x392>
    2fbb: 85 13        	sta	$13                     ; 0x2013 <filePickModal+0x393>
    2fbd: a6 24        	ldx	$24                     ; 0x2024 <filePickModal+0x3a4>
    2fbf: 86 16        	stx	$16                     ; 0x2016 <filePickModal+0x396>
    2fc1: a6 25        	ldx	$25                     ; 0x2025 <filePickModal+0x3a5>
    2fc3: 86 17        	stx	$17                     ; 0x2017 <filePickModal+0x397>
    2fc5: a9 01        	lda	#$1
    2fc7: 85 14        	sta	$14                     ; 0x2014 <filePickModal+0x394>
    2fc9: 64 15        	stz	$15                     ; 0x2015 <filePickModal+0x395>
    2fcb: a2 00        	ldx	#$0
    2fcd: 20 ed 2a     	jsr	$2aed <fileRead>
    2fd0: 18           	clc
    2fd1: a5 10        	lda	$10                     ; 0x2010 <filePickModal+0x390>
    2fd3: 69 0e        	adc	#$e
    2fd5: 85 28        	sta	$28                     ; 0x2028 <filePickModal+0x3a8>
    2fd7: a5 11        	lda	$11                     ; 0x2011 <filePickModal+0x391>
    2fd9: 69 00        	adc	#$0
    2fdb: 85 29        	sta	$29                     ; 0x2029 <filePickModal+0x3a9>
    2fdd: a6 28        	ldx	$28                     ; 0x2028 <filePickModal+0x3a8>
    2fdf: 86 12        	stx	$12                     ; 0x2012 <filePickModal+0x392>
    2fe1: 85 13        	sta	$13                     ; 0x2013 <filePickModal+0x393>
    2fe3: a6 24        	ldx	$24                     ; 0x2024 <filePickModal+0x3a4>
    2fe5: 86 16        	stx	$16                     ; 0x2016 <filePickModal+0x396>
    2fe7: a6 25        	ldx	$25                     ; 0x2025 <filePickModal+0x3a5>
    2fe9: 86 17        	stx	$17                     ; 0x2017 <filePickModal+0x397>
    2feb: a9 01        	lda	#$1
    2fed: 85 14        	sta	$14                     ; 0x2014 <filePickModal+0x394>
    2fef: 64 15        	stz	$15                     ; 0x2015 <filePickModal+0x395>
    2ff1: 64 18        	stz	$18                     ; 0x2018 <filePickModal+0x398>
    2ff3: 48           	pha
    2ff4: 3a           	dec
    2ff5: a0 0a        	ldy	#$a
    2ff7: 91 10        	sta	($10),y                 ; 0x2010 <filePickModal+0x390>
    2ff9: 68           	pla
    2ffa: a2 00        	ldx	#$0
    2ffc: 20 ed 2a     	jsr	$2aed <fileRead>
    2fff: b2 26        	lda	($26)                   ; 0x2026 <filePickModal+0x3a6>
    3001: a8           	tay
    3002: b2 28        	lda	($28)                   ; 0x2028 <filePickModal+0x3a8>
    3004: 85 12        	sta	$12                     ; 0x2012 <filePickModal+0x392>
    3006: a2 01        	ldx	#$1
    3008: 4c de 30     	jmp	$30de <playback+0x432>
    300b: a6 28        	ldx	$28                     ; 0x2028 <filePickModal+0x3a8>
    300d: 86 12        	stx	$12                     ; 0x2012 <filePickModal+0x392>
    300f: a6 29        	ldx	$29                     ; 0x2029 <filePickModal+0x3a9>
    3011: 86 13        	stx	$13                     ; 0x2013 <filePickModal+0x393>
    3013: a6 24        	ldx	$24                     ; 0x2024 <filePickModal+0x3a4>
    3015: 86 16        	stx	$16                     ; 0x2016 <filePickModal+0x396>
    3017: a6 25        	ldx	$25                     ; 0x2025 <filePickModal+0x3a5>
    3019: 86 17        	stx	$17                     ; 0x2017 <filePickModal+0x397>
    301b: a9 01        	lda	#$1
    301d: 85 14        	sta	$14                     ; 0x2014 <filePickModal+0x394>
    301f: 64 15        	stz	$15                     ; 0x2015 <filePickModal+0x395>
    3021: a2 00        	ldx	#$0
    3023: 20 ed 2a     	jsr	$2aed <fileRead>
    3026: a6 26        	ldx	$26                     ; 0x2026 <filePickModal+0x3a6>
    3028: 86 12        	stx	$12                     ; 0x2012 <filePickModal+0x392>
    302a: a6 27        	ldx	$27                     ; 0x2027 <filePickModal+0x3a7>
    302c: 86 13        	stx	$13                     ; 0x2013 <filePickModal+0x393>
    302e: a6 24        	ldx	$24                     ; 0x2024 <filePickModal+0x3a4>
    3030: 86 16        	stx	$16                     ; 0x2016 <filePickModal+0x396>
    3032: a6 25        	ldx	$25                     ; 0x2025 <filePickModal+0x3a5>
    3034: 86 17        	stx	$17                     ; 0x2017 <filePickModal+0x397>
    3036: a9 01        	lda	#$1
    3038: 85 14        	sta	$14                     ; 0x2014 <filePickModal+0x394>
    303a: 64 15        	stz	$15                     ; 0x2015 <filePickModal+0x395>
    303c: a2 00        	ldx	#$0
    303e: 20 ed 2a     	jsr	$2aed <fileRead>
    3041: b2 26        	lda	($26)                   ; 0x2026 <filePickModal+0x3a6>
    3043: 85 1a        	sta	$1a                     ; 0x201a <filePickModal+0x39a>
    3045: b2 28        	lda	($28)                   ; 0x2028 <filePickModal+0x3a8>
    3047: 64 12        	stz	$12                     ; 0x2012 <filePickModal+0x392>
    3049: 64 13        	stz	$13                     ; 0x2013 <filePickModal+0x393>
    304b: a2 3a        	ldx	#$3a
    304d: 86 14        	stx	$14                     ; 0x2014 <filePickModal+0x394>
    304f: a2 02        	ldx	#$2
    3051: 86 15        	stx	$15                     ; 0x2015 <filePickModal+0x395>
    3053: 64 16        	stz	$16                     ; 0x2016 <filePickModal+0x396>
    3055: 64 17        	stz	$17                     ; 0x2017 <filePickModal+0x397>
    3057: 48           	pha
    3058: a9 00        	lda	#$0
    305a: a0 0a        	ldy	#$a
    305c: 91 10        	sta	($10),y                 ; 0x2010 <filePickModal+0x390>
    305e: 68           	pla
    305f: a6 1a        	ldx	$1a                     ; 0x201a <filePickModal+0x39a>
    3061: 20 e0 4e     	jsr	$4ee0 <__mulsi3>
    3064: a0 09        	ldy	#$9
    3066: 91 10        	sta	($10),y                 ; 0x2010 <filePickModal+0x390>
    3068: 8a           	txa
    3069: a4 12        	ldy	$12                     ; 0x2012 <filePickModal+0x392>
    306b: 4c ac 2e     	jmp	$2eac <playback+0x200>
    306e: a0 07        	ldy	#$7
    3070: a9 ae        	lda	#$ae
    3072: a2 15        	ldx	#$15
    3074: 48           	pha
    3075: 8a           	txa
    3076: 5a           	phy
    3077: a0 09        	ldy	#$9
    3079: 91 10        	sta	($10),y                 ; 0x2010 <filePickModal+0x390>
    307b: 7a           	ply
    307c: 68           	pla
    307d: 4c ac 2e     	jmp	$2eac <playback+0x200>
    3080: 18           	clc
    3081: a5 10        	lda	$10                     ; 0x2010 <filePickModal+0x390>
    3083: 69 0f        	adc	#$f
    3085: 85 26        	sta	$26                     ; 0x2026 <filePickModal+0x3a6>
    3087: a5 11        	lda	$11                     ; 0x2011 <filePickModal+0x391>
    3089: 69 00        	adc	#$0
    308b: 85 27        	sta	$27                     ; 0x2027 <filePickModal+0x3a7>
    308d: a6 26        	ldx	$26                     ; 0x2026 <filePickModal+0x3a6>
    308f: 86 12        	stx	$12                     ; 0x2012 <filePickModal+0x392>
    3091: 85 13        	sta	$13                     ; 0x2013 <filePickModal+0x393>
    3093: a6 24        	ldx	$24                     ; 0x2024 <filePickModal+0x3a4>
    3095: 86 16        	stx	$16                     ; 0x2016 <filePickModal+0x396>
    3097: a6 25        	ldx	$25                     ; 0x2025 <filePickModal+0x3a5>
    3099: 86 17        	stx	$17                     ; 0x2017 <filePickModal+0x397>
    309b: a9 01        	lda	#$1
    309d: 85 14        	sta	$14                     ; 0x2014 <filePickModal+0x394>
    309f: 64 15        	stz	$15                     ; 0x2015 <filePickModal+0x395>
    30a1: a2 00        	ldx	#$0
    30a3: 20 ed 2a     	jsr	$2aed <fileRead>
    30a6: 18           	clc
    30a7: a5 10        	lda	$10                     ; 0x2010 <filePickModal+0x390>
    30a9: 69 0e        	adc	#$e
    30ab: 85 28        	sta	$28                     ; 0x2028 <filePickModal+0x3a8>
    30ad: a5 11        	lda	$11                     ; 0x2011 <filePickModal+0x391>
    30af: 69 00        	adc	#$0
    30b1: 85 29        	sta	$29                     ; 0x2029 <filePickModal+0x3a9>
    30b3: a6 28        	ldx	$28                     ; 0x2028 <filePickModal+0x3a8>
    30b5: 86 12        	stx	$12                     ; 0x2012 <filePickModal+0x392>
    30b7: 85 13        	sta	$13                     ; 0x2013 <filePickModal+0x393>
    30b9: a6 24        	ldx	$24                     ; 0x2024 <filePickModal+0x3a4>
    30bb: 86 16        	stx	$16                     ; 0x2016 <filePickModal+0x396>
    30bd: a6 25        	ldx	$25                     ; 0x2025 <filePickModal+0x3a5>
    30bf: 86 17        	stx	$17                     ; 0x2017 <filePickModal+0x397>
    30c1: a9 01        	lda	#$1
    30c3: 85 14        	sta	$14                     ; 0x2014 <filePickModal+0x394>
    30c5: 64 15        	stz	$15                     ; 0x2015 <filePickModal+0x395>
    30c7: a2 00        	ldx	#$0
    30c9: 20 ed 2a     	jsr	$2aed <fileRead>
    30cc: b2 26        	lda	($26)                   ; 0x2026 <filePickModal+0x3a6>
    30ce: a8           	tay
    30cf: b2 28        	lda	($28)                   ; 0x2028 <filePickModal+0x3a8>
    30d1: 85 12        	sta	$12                     ; 0x2012 <filePickModal+0x392>
    30d3: 64 13        	stz	$13                     ; 0x2013 <filePickModal+0x393>
    30d5: a9 00        	lda	#$0
    30d7: 5a           	phy
    30d8: a0 0a        	ldy	#$a
    30da: 91 10        	sta	($10),y                 ; 0x2010 <filePickModal+0x390>
    30dc: 7a           	ply
    30dd: aa           	tax
    30de: 98           	tya
    30df: 20 94 21     	jsr	$2194 <opl3_write>
    30e2: 4c a0 2e     	jmp	$2ea0 <playback+0x1f4>

000030e5 <fileOpenDir>:
    30e5: a6 12        	ldx	$12                     ; 0x2012 <filePickModal+0x392>
    30e7: 86 ad        	stx	$ad                     ; 0x20ad <filePickModal+0x42d>
    30e9: a6 13        	ldx	$13                     ; 0x2013 <filePickModal+0x393>
    30eb: 86 ae        	stx	$ae                     ; 0x20ae <filePickModal+0x42e>
    30ed: 20 a5 4d     	jsr	$4da5 <strlen>
    30f0: a0 00        	ldy	#$0
    30f2: e0 00        	cpx	#$0
    30f4: d0 06        	bne	$30fc <fileOpenDir+0x17>
    30f6: c9 02        	cmp	#$2
    30f8: b0 06        	bcs	$3100 <fileOpenDir+0x1b>
    30fa: 80 2d        	bra	$3129 <fileOpenDir+0x44>
    30fc: e0 00        	cpx	#$0
    30fe: 90 29        	bcc	$3129 <fileOpenDir+0x44>
    3100: a0 01        	ldy	#$1
    3102: b1 ad        	lda	($ad),y                 ; 0x20ad <filePickModal+0x42d>
    3104: c9 3a        	cmp	#$3a
    3106: d0 1f        	bne	$3127 <fileOpenDir+0x42>
    3108: b2 ad        	lda	($ad)                   ; 0x20ad <filePickModal+0x42d>
    310a: c9 30        	cmp	#$30
    310c: a0 00        	ldy	#$0
    310e: 90 08        	bcc	$3118 <fileOpenDir+0x33>
    3110: c9 38        	cmp	#$38
    3112: b0 04        	bcs	$3118 <fileOpenDir+0x33>
    3114: 18           	clc
    3115: 69 d0        	adc	#$d0
    3117: a8           	tay
    3118: a5 ad        	lda	$ad                     ; 0x20ad <filePickModal+0x42d>
    311a: 18           	clc
    311b: 69 02        	adc	#$2
    311d: 85 ad        	sta	$ad                     ; 0x20ad <filePickModal+0x42d>
    311f: a5 ae        	lda	$ae                     ; 0x20ae <filePickModal+0x42e>
    3121: 69 00        	adc	#$0
    3123: 85 ae        	sta	$ae                     ; 0x20ae <filePickModal+0x42e>
    3125: 80 02        	bra	$3129 <fileOpenDir+0x44>
    3127: a0 00        	ldy	#$0
    3129: a2 00        	ldx	#$0
    312b: 86 12        	stx	$12                     ; 0x2012 <filePickModal+0x392>
    312d: a2 00        	ldx	#$0
    312f: 86 13        	stx	$13                     ; 0x2013 <filePickModal+0x393>
    3131: b6 8c        	ldx	$8c,y                   ; 0x208c <filePickModal+0x40c>
    3133: f0 01        	beq	$3136 <fileOpenDir+0x51>
    3135: 60           	rts
    3136: a5 6a        	lda	$6a                     ; 0x206a <filePickModal+0x3ea>
    3138: a6 6b        	ldx	$6b                     ; 0x206b <filePickModal+0x3eb>
    313a: 85 12        	sta	$12                     ; 0x2012 <filePickModal+0x392>
    313c: 85 17        	sta	$17                     ; 0x2017 <filePickModal+0x397>
    313e: 86 13        	stx	$13                     ; 0x2013 <filePickModal+0x393>
    3140: 86 16        	stx	$16                     ; 0x2016 <filePickModal+0x396>
    3142: 98           	tya
    3143: a0 03        	ldy	#$3
    3145: 85 b3        	sta	$b3                     ; 0x20b3 <filePickModal+0x433>
    3147: 91 12        	sta	($12),y                 ; 0x2012 <filePickModal+0x392>
    3149: a4 12        	ldy	$12                     ; 0x2012 <filePickModal+0x392>
    314b: 84 14        	sty	$14                     ; 0x2014 <filePickModal+0x394>
    314d: 86 15        	stx	$15                     ; 0x2015 <filePickModal+0x395>
    314f: a6 12        	ldx	$12                     ; 0x2012 <filePickModal+0x392>
    3151: 86 b1        	stx	$b1                     ; 0x20b1 <filePickModal+0x431>
    3153: a6 13        	ldx	$13                     ; 0x2013 <filePickModal+0x393>
    3155: 86 b2        	stx	$b2                     ; 0x20b2 <filePickModal+0x432>
    3157: 18           	clc
    3158: a5 17        	lda	$17                     ; 0x2017 <filePickModal+0x397>
    315a: 69 0b        	adc	#$b
    315c: 85 12        	sta	$12                     ; 0x2012 <filePickModal+0x392>
    315e: a5 16        	lda	$16                     ; 0x2016 <filePickModal+0x396>
    3160: 69 00        	adc	#$0
    3162: a0 0b        	ldy	#$b
    3164: 85 13        	sta	$13                     ; 0x2013 <filePickModal+0x393>
    3166: a5 ad        	lda	$ad                     ; 0x20ad <filePickModal+0x42d>
    3168: 91 14        	sta	($14),y                 ; 0x2014 <filePickModal+0x394>
    316a: a5 ae        	lda	$ae                     ; 0x20ae <filePickModal+0x42e>
    316c: a0 01        	ldy	#$1
    316e: 91 12        	sta	($12),y                 ; 0x2012 <filePickModal+0x392>
    3170: a6 ad        	ldx	$ad                     ; 0x20ad <filePickModal+0x42d>
    3172: 86 12        	stx	$12                     ; 0x2012 <filePickModal+0x392>
    3174: a6 ae        	ldx	$ae                     ; 0x20ae <filePickModal+0x42e>
    3176: 86 13        	stx	$13                     ; 0x2013 <filePickModal+0x393>
    3178: 20 a5 4d     	jsr	$4da5 <strlen>
    317b: a0 0d        	ldy	#$d
    317d: a6 b1        	ldx	$b1                     ; 0x20b1 <filePickModal+0x431>
    317f: 86 12        	stx	$12                     ; 0x2012 <filePickModal+0x392>
    3181: a6 b2        	ldx	$b2                     ; 0x20b2 <filePickModal+0x432>
    3183: 86 13        	stx	$13                     ; 0x2013 <filePickModal+0x393>
    3185: 91 12        	sta	($12),y                 ; 0x2012 <filePickModal+0x392>
    3187: a2 af        	ldx	#$af
    3189: a0 00        	ldy	#$0
    318b: 86 12        	stx	$12                     ; 0x2012 <filePickModal+0x392>
    318d: 84 13        	sty	$13                     ; 0x2013 <filePickModal+0x393>
    318f: a2 73        	ldx	#$73
    3191: 86 14        	stx	$14                     ; 0x2014 <filePickModal+0x394>
    3193: a2 00        	ldx	#$0
    3195: 86 15        	stx	$15                     ; 0x2015 <filePickModal+0x395>
    3197: 20 78 ff     	jsr	$ff78 <__heap_start+0x9850>
    319a: 92 12        	sta	($12)                   ; 0x2012 <filePickModal+0x392>
    319c: a9 00        	lda	#$0
    319e: 6a           	ror
    319f: 85 14        	sta	$14                     ; 0x2014 <filePickModal+0x394>
    31a1: a6 73        	ldx	$73                     ; 0x2073 <filePickModal+0x3f3>
    31a3: f0 09        	beq	$31ae <fileOpenDir+0xc9>
    31a5: a2 00        	ldx	#$0
    31a7: 86 12        	stx	$12                     ; 0x2012 <filePickModal+0x392>
    31a9: a2 00        	ldx	#$0
    31ab: 86 13        	stx	$13                     ; 0x2013 <filePickModal+0x393>
    31ad: 60           	rts
    31ae: a9 8c        	lda	#$8c
    31b0: a6 b3        	ldx	$b3                     ; 0x20b3 <filePickModal+0x433>
    31b2: 86 18        	stx	$18                     ; 0x2018 <filePickModal+0x398>
    31b4: 86 12        	stx	$12                     ; 0x2012 <filePickModal+0x392>
    31b6: 18           	clc
    31b7: 65 12        	adc	$12                     ; 0x2012 <filePickModal+0x392>
    31b9: 85 12        	sta	$12                     ; 0x2012 <filePickModal+0x392>
    31bb: a9 00        	lda	#$0
    31bd: 69 00        	adc	#$0
    31bf: 85 13        	sta	$13                     ; 0x2013 <filePickModal+0x393>
    31c1: a6 af        	ldx	$af                     ; 0x20af <filePickModal+0x42f>
    31c3: 86 19        	stx	$19                     ; 0x2019 <filePickModal+0x399>
    31c5: a2 b0        	ldx	#$b0
    31c7: a0 00        	ldy	#$0
    31c9: 86 16        	stx	$16                     ; 0x2016 <filePickModal+0x396>
    31cb: 84 17        	sty	$17                     ; 0x2017 <filePickModal+0x397>
    31cd: 64 6c        	stz	$6c                     ; 0x206c <filePickModal+0x3ec>
    31cf: 20 00 ff     	jsr	$ff00 <__heap_start+0x97d8>
    31d2: 92 16        	sta	($16)                   ; 0x2016 <filePickModal+0x396>
    31d4: a9 00        	lda	#$0
    31d6: 6a           	ror
    31d7: 85 14        	sta	$14                     ; 0x2014 <filePickModal+0x394>
    31d9: a6 6c        	ldx	$6c                     ; 0x206c <filePickModal+0x3ec>
    31db: e0 48        	cpx	#$48
    31dd: f0 c6        	beq	$31a5 <fileOpenDir+0xc0>
    31df: e0 3c        	cpx	#$3c
    31e1: d0 ea        	bne	$31cd <fileOpenDir+0xe8>
    31e3: a6 18        	ldx	$18                     ; 0x2018 <filePickModal+0x398>
    31e5: a5 19        	lda	$19                     ; 0x2019 <filePickModal+0x399>
    31e7: 9d 8c 00     	sta	$8c,x                   ; 0x8c <_dirStream>
    31ea: 60           	rts

000031eb <textGotoXY>:
    31eb: 85 74        	sta	$74                     ; 0x2074 <filePickModal+0x3f4>
    31ed: 8d 14 d0     	sta	$d014                   ; 0xd014 <__heap_start+0x68ec>
    31f0: 9c 15 d0     	stz	$d015                   ; 0xd015 <__heap_start+0x68ed>
    31f3: 86 75        	stx	$75                     ; 0x2075 <filePickModal+0x3f5>
    31f5: 8e 16 d0     	stx	$d016                   ; 0xd016 <__heap_start+0x68ee>
    31f8: 9c 17 d0     	stz	$d017                   ; 0xd017 <__heap_start+0x68ef>
    31fb: 60           	rts

000031fc <textPrint>:
    31fc: a6 12        	ldx	$12                     ; 0x2012 <filePickModal+0x392>
    31fe: 86 9d        	stx	$9d                     ; 0x209d <filePickModal+0x41d>
    3200: a6 13        	ldx	$13                     ; 0x2013 <filePickModal+0x393>
    3202: 86 9e        	stx	$9e                     ; 0x209e <filePickModal+0x41e>
    3204: a2 00        	ldx	#$0
    3206: 86 9f        	stx	$9f                     ; 0x209f <filePickModal+0x41f>
    3208: a2 c0        	ldx	#$c0
    320a: 86 a0        	stx	$a0                     ; 0x20a0 <filePickModal+0x420>
    320c: a6 01        	ldx	$1                      ; 0x2001 <filePickModal+0x381>
    320e: 86 a4        	stx	$a4                     ; 0x20a4 <filePickModal+0x424>
    3210: a6 63        	ldx	$63                     ; 0x2063 <filePickModal+0x3e3>
    3212: a4 75        	ldy	$75                     ; 0x2075 <filePickModal+0x3f5>
    3214: 8e 00 de     	stx	$de00                   ; 0xde00 <__heap_start+0x76d8>
    3217: 9c 01 de     	stz	$de01                   ; 0xde01 <__heap_start+0x76d9>
    321a: 8c 02 de     	sty	$de02                   ; 0xde02 <__heap_start+0x76da>
    321d: 9c 03 de     	stz	$de03                   ; 0xde03 <__heap_start+0x76db>
    3220: ae 10 de     	ldx	$de10                   ; 0xde10 <__heap_start+0x76e8>
    3223: 86 12        	stx	$12                     ; 0x2012 <filePickModal+0x392>
    3225: ac 11 de     	ldy	$de11                   ; 0xde11 <__heap_start+0x76e9>
    3228: ad 12 de     	lda	$de12                   ; 0xde12 <__heap_start+0x76ea>
    322b: ae 13 de     	ldx	$de13                   ; 0xde13 <__heap_start+0x76eb>
    322e: 86 13        	stx	$13                     ; 0x2013 <filePickModal+0x393>
    3230: 9c 08 de     	stz	$de08                   ; 0xde08 <__heap_start+0x76e0>
    3233: a2 c0        	ldx	#$c0
    3235: 8e 09 de     	stx	$de09                   ; 0xde09 <__heap_start+0x76e1>
    3238: 9c 0a de     	stz	$de0a                   ; 0xde0a <__heap_start+0x76e2>
    323b: 9c 0b de     	stz	$de0b                   ; 0xde0b <__heap_start+0x76e3>
    323e: a6 12        	ldx	$12                     ; 0x2012 <filePickModal+0x392>
    3240: 8e 0c de     	stx	$de0c                   ; 0xde0c <__heap_start+0x76e4>
    3243: 8c 0d de     	sty	$de0d                   ; 0xde0d <__heap_start+0x76e5>
    3246: 8d 0e de     	sta	$de0e                   ; 0xde0e <__heap_start+0x76e6>
    3249: a6 13        	ldx	$13                     ; 0x2013 <filePickModal+0x393>
    324b: 8e 0f de     	stx	$de0f                   ; 0xde0f <__heap_start+0x76e7>
    324e: ae 18 de     	ldx	$de18                   ; 0xde18 <__heap_start+0x76f0>
    3251: ac 19 de     	ldy	$de19                   ; 0xde19 <__heap_start+0x76f1>
    3254: ad 1a de     	lda	$de1a                   ; 0xde1a <__heap_start+0x76f2>
    3257: ad 1b de     	lda	$de1b                   ; 0xde1b <__heap_start+0x76f3>
    325a: 86 12        	stx	$12                     ; 0x2012 <filePickModal+0x392>
    325c: 84 13        	sty	$13                     ; 0x2013 <filePickModal+0x393>
    325e: 64 a1        	stz	$a1                     ; 0x20a1 <filePickModal+0x421>
    3260: 64 a2        	stz	$a2                     ; 0x20a2 <filePickModal+0x422>
    3262: 80 00        	bra	$3264 <textPrint+0x68>
    3264: a5 9d        	lda	$9d                     ; 0x209d <filePickModal+0x41d>
    3266: 18           	clc
    3267: 65 a1        	adc	$a1                     ; 0x20a1 <filePickModal+0x421>
    3269: 85 14        	sta	$14                     ; 0x2014 <filePickModal+0x394>
    326b: a5 9e        	lda	$9e                     ; 0x209e <filePickModal+0x41e>
    326d: 65 a2        	adc	$a2                     ; 0x20a2 <filePickModal+0x422>
    326f: 85 15        	sta	$15                     ; 0x2015 <filePickModal+0x395>
    3271: b2 14        	lda	($14)                   ; 0x2014 <filePickModal+0x394>
    3273: c9 0a        	cmp	#$a
    3275: f0 29        	beq	$32a0 <textPrint+0xa4>
    3277: c9 0d        	cmp	#$d
    3279: f0 25        	beq	$32a0 <textPrint+0xa4>
    327b: aa           	tax
    327c: d0 03        	bne	$3281 <textPrint+0x85>
    327e: 4c 3f 34     	jmp	$343f <textPrint+0x243>
    3281: a2 03        	ldx	#$3
    3283: 86 01        	stx	$1                      ; 0x2001 <filePickModal+0x381>
    3285: a5 65        	lda	$65                     ; 0x2065 <filePickModal+0x3e5>
    3287: a4 74        	ldy	$74                     ; 0x2074 <filePickModal+0x3f4>
    3289: 91 12        	sta	($12),y                 ; 0x2012 <filePickModal+0x392>
    328b: ca           	dex
    328c: 86 01        	stx	$1                      ; 0x2001 <filePickModal+0x381>
    328e: b2 14        	lda	($14)                   ; 0x2014 <filePickModal+0x394>
    3290: a4 74        	ldy	$74                     ; 0x2074 <filePickModal+0x3f4>
    3292: 91 12        	sta	($12),y                 ; 0x2012 <filePickModal+0x392>
    3294: a6 74        	ldx	$74                     ; 0x2074 <filePickModal+0x3f4>
    3296: e8           	inx
    3297: e6 74        	inc	$74                     ; 0x2074 <filePickModal+0x3f4>
    3299: e4 63        	cpx	$63                     ; 0x2063 <filePickModal+0x3e3>
    329b: f0 03        	beq	$32a0 <textPrint+0xa4>
    329d: 4c 71 33     	jmp	$3371 <textPrint+0x175>
    32a0: 64 74        	stz	$74                     ; 0x2074 <filePickModal+0x3f4>
    32a2: a6 75        	ldx	$75                     ; 0x2075 <filePickModal+0x3f5>
    32a4: e8           	inx
    32a5: e6 75        	inc	$75                     ; 0x2075 <filePickModal+0x3f5>
    32a7: a4 64        	ldy	$64                     ; 0x2064 <filePickModal+0x3e4>
    32a9: 84 a3        	sty	$a3                     ; 0x20a3 <filePickModal+0x423>
    32ab: e4 a3        	cpx	$a3                     ; 0x20a3 <filePickModal+0x423>
    32ad: f0 03        	beq	$32b2 <textPrint+0xb6>
    32af: 4c 64 33     	jmp	$3364 <textPrint+0x168>
    32b2: a6 63        	ldx	$63                     ; 0x2063 <filePickModal+0x3e3>
    32b4: 86 a7        	stx	$a7                     ; 0x20a7 <filePickModal+0x427>
    32b6: 98           	tya
    32b7: a2 00        	ldx	#$0
    32b9: 3a           	dec
    32ba: c9 ff        	cmp	#$ff
    32bc: d0 01        	bne	$32bf <textPrint+0xc3>
    32be: ca           	dex
    32bf: a4 a7        	ldy	$a7                     ; 0x20a7 <filePickModal+0x427>
    32c1: 84 12        	sty	$12                     ; 0x2012 <filePickModal+0x392>
    32c3: 64 13        	stz	$13                     ; 0x2013 <filePickModal+0x393>
    32c5: 20 ae 4e     	jsr	$4eae <__mulhi3>
    32c8: 85 a5        	sta	$a5                     ; 0x20a5 <filePickModal+0x425>
    32ca: 86 a6        	stx	$a6                     ; 0x20a6 <filePickModal+0x426>
    32cc: a2 03        	ldx	#$3
    32ce: 86 01        	stx	$1                      ; 0x2001 <filePickModal+0x381>
    32d0: 38           	sec
    32d1: a9 01        	lda	#$1
    32d3: e5 a3        	sbc	$a3                     ; 0x20a3 <filePickModal+0x423>
    32d5: a8           	tay
    32d6: 64 a3        	stz	$a3                     ; 0x20a3 <filePickModal+0x423>
    32d8: a9 00        	lda	#$0
    32da: e9 00        	sbc	#$0
    32dc: a6 a7        	ldx	$a7                     ; 0x20a7 <filePickModal+0x427>
    32de: 86 12        	stx	$12                     ; 0x2012 <filePickModal+0x392>
    32e0: 64 13        	stz	$13                     ; 0x2013 <filePickModal+0x393>
    32e2: aa           	tax
    32e3: 98           	tya
    32e4: 20 ae 4e     	jsr	$4eae <__mulhi3>
    32e7: 85 1a        	sta	$1a                     ; 0x201a <filePickModal+0x39a>
    32e9: a9 00        	lda	#$0
    32eb: 80 1d        	bra	$330a <textPrint+0x10e>
    32ed: 64 14        	stz	$14                     ; 0x2014 <filePickModal+0x394>
    32ef: 64 15        	stz	$15                     ; 0x2015 <filePickModal+0x395>
    32f1: a0 02        	ldy	#$2
    32f3: 84 01        	sty	$1                      ; 0x2001 <filePickModal+0x381>
    32f5: a5 12        	lda	$12                     ; 0x2012 <filePickModal+0x392>
    32f7: e6 a3        	inc	$a3                     ; 0x20a3 <filePickModal+0x423>
    32f9: d0 01        	bne	$32fc <textPrint+0x100>
    32fb: 1a           	inc
    32fc: a4 12        	ldy	$12                     ; 0x2012 <filePickModal+0x392>
    32fe: f0 03        	beq	$3303 <textPrint+0x107>
    3300: 4c 7d 33     	jmp	$337d <textPrint+0x181>
    3303: a4 13        	ldy	$13                     ; 0x2013 <filePickModal+0x393>
    3305: f0 03        	beq	$330a <textPrint+0x10e>
    3307: 4c 7d 33     	jmp	$337d <textPrint+0x181>
    330a: 85 12        	sta	$12                     ; 0x2012 <filePickModal+0x392>
    330c: a4 a3        	ldy	$a3                     ; 0x20a3 <filePickModal+0x423>
    330e: 84 13        	sty	$13                     ; 0x2013 <filePickModal+0x393>
    3310: a4 a5        	ldy	$a5                     ; 0x20a5 <filePickModal+0x425>
    3312: c0 01        	cpy	#$1
    3314: a5 a6        	lda	$a6                     ; 0x20a6 <filePickModal+0x426>
    3316: e9 00        	sbc	#$0
    3318: 50 02        	bvc	$331c <textPrint+0x120>
    331a: 49 80        	eor	#$80
    331c: a8           	tay
    331d: 30 ce        	bmi	$32ed <textPrint+0xf1>
    331f: 64 15        	stz	$15                     ; 0x2015 <filePickModal+0x395>
    3321: a0 00        	ldy	#$0
    3323: 84 18        	sty	$18                     ; 0x2018 <filePickModal+0x398>
    3325: a0 c0        	ldy	#$c0
    3327: 84 19        	sty	$19                     ; 0x2019 <filePickModal+0x399>
    3329: 64 17        	stz	$17                     ; 0x2017 <filePickModal+0x397>
    332b: a4 17        	ldy	$17                     ; 0x2017 <filePickModal+0x397>
    332d: 84 14        	sty	$14                     ; 0x2014 <filePickModal+0x394>
    332f: a4 15        	ldy	$15                     ; 0x2015 <filePickModal+0x395>
    3331: 84 16        	sty	$16                     ; 0x2016 <filePickModal+0x396>
    3333: a4 63        	ldy	$63                     ; 0x2063 <filePickModal+0x3e3>
    3335: b1 18        	lda	($18),y                 ; 0x2018 <filePickModal+0x398>
    3337: 92 18        	sta	($18)                   ; 0x2018 <filePickModal+0x398>
    3339: a0 ff        	ldy	#$ff
    333b: c6 15        	dec	$15                     ; 0x2015 <filePickModal+0x395>
    333d: c4 15        	cpy	$15                     ; 0x2015 <filePickModal+0x395>
    333f: d0 02        	bne	$3343 <textPrint+0x147>
    3341: c6 17        	dec	$17                     ; 0x2017 <filePickModal+0x397>
    3343: e6 18        	inc	$18                     ; 0x2018 <filePickModal+0x398>
    3345: d0 02        	bne	$3349 <textPrint+0x14d>
    3347: e6 19        	inc	$19                     ; 0x2019 <filePickModal+0x399>
    3349: e4 17        	cpx	$17                     ; 0x2017 <filePickModal+0x397>
    334b: d0 de        	bne	$332b <textPrint+0x12f>
    334d: a4 1a        	ldy	$1a                     ; 0x201a <filePickModal+0x39a>
    334f: c4 15        	cpy	$15                     ; 0x2015 <filePickModal+0x395>
    3351: d0 d8        	bne	$332b <textPrint+0x12f>
    3353: 38           	sec
    3354: a9 01        	lda	#$1
    3356: e5 16        	sbc	$16                     ; 0x2016 <filePickModal+0x396>
    3358: a8           	tay
    3359: a9 00        	lda	#$0
    335b: e5 14        	sbc	$14                     ; 0x2014 <filePickModal+0x394>
    335d: 84 14        	sty	$14                     ; 0x2014 <filePickModal+0x394>
    335f: 85 15        	sta	$15                     ; 0x2015 <filePickModal+0x395>
    3361: 4c f1 32     	jmp	$32f1 <textPrint+0xf5>
    3364: a5 12        	lda	$12                     ; 0x2012 <filePickModal+0x392>
    3366: 18           	clc
    3367: 65 63        	adc	$63                     ; 0x2063 <filePickModal+0x3e3>
    3369: 85 12        	sta	$12                     ; 0x2012 <filePickModal+0x392>
    336b: a5 13        	lda	$13                     ; 0x2013 <filePickModal+0x393>
    336d: 69 00        	adc	#$0
    336f: 85 13        	sta	$13                     ; 0x2013 <filePickModal+0x393>
    3371: e6 a1        	inc	$a1                     ; 0x20a1 <filePickModal+0x421>
    3373: f0 03        	beq	$3378 <textPrint+0x17c>
    3375: 4c 64 32     	jmp	$3264 <textPrint+0x68>
    3378: e6 a2        	inc	$a2                     ; 0x20a2 <filePickModal+0x422>
    337a: 4c 64 32     	jmp	$3264 <textPrint+0x68>
    337d: a9 00        	lda	#$0
    337f: 18           	clc
    3380: 65 14        	adc	$14                     ; 0x2014 <filePickModal+0x394>
    3382: 85 12        	sta	$12                     ; 0x2012 <filePickModal+0x392>
    3384: a9 c0        	lda	#$c0
    3386: 65 15        	adc	$15                     ; 0x2015 <filePickModal+0x395>
    3388: 85 13        	sta	$13                     ; 0x2013 <filePickModal+0x393>
    338a: a2 03        	ldx	#$3
    338c: 86 01        	stx	$1                      ; 0x2001 <filePickModal+0x381>
    338e: a6 63        	ldx	$63                     ; 0x2063 <filePickModal+0x3e3>
    3390: f0 37        	beq	$33c9 <textPrint+0x1cd>
    3392: a9 01        	lda	#$1
    3394: 18           	clc
    3395: 65 14        	adc	$14                     ; 0x2014 <filePickModal+0x394>
    3397: 85 17        	sta	$17                     ; 0x2017 <filePickModal+0x397>
    3399: a9 c0        	lda	#$c0
    339b: 65 15        	adc	$15                     ; 0x2015 <filePickModal+0x395>
    339d: a8           	tay
    339e: 64 16        	stz	$16                     ; 0x2016 <filePickModal+0x396>
    33a0: a6 12        	ldx	$12                     ; 0x2012 <filePickModal+0x392>
    33a2: 86 18        	stx	$18                     ; 0x2018 <filePickModal+0x398>
    33a4: a6 13        	ldx	$13                     ; 0x2013 <filePickModal+0x393>
    33a6: 86 19        	stx	$19                     ; 0x2019 <filePickModal+0x399>
    33a8: a5 17        	lda	$17                     ; 0x2017 <filePickModal+0x397>
    33aa: 18           	clc
    33ab: 65 16        	adc	$16                     ; 0x2016 <filePickModal+0x396>
    33ad: 85 1a        	sta	$1a                     ; 0x201a <filePickModal+0x39a>
    33af: 98           	tya
    33b0: 69 00        	adc	#$0
    33b2: 85 1b        	sta	$1b                     ; 0x201b <filePickModal+0x39b>
    33b4: a5 65        	lda	$65                     ; 0x2065 <filePickModal+0x3e5>
    33b6: 92 18        	sta	($18)                   ; 0x2018 <filePickModal+0x398>
    33b8: a6 16        	ldx	$16                     ; 0x2016 <filePickModal+0x396>
    33ba: e8           	inx
    33bb: 86 16        	stx	$16                     ; 0x2016 <filePickModal+0x396>
    33bd: e4 63        	cpx	$63                     ; 0x2063 <filePickModal+0x3e3>
    33bf: a6 1a        	ldx	$1a                     ; 0x201a <filePickModal+0x39a>
    33c1: 86 18        	stx	$18                     ; 0x2018 <filePickModal+0x398>
    33c3: a6 1b        	ldx	$1b                     ; 0x201b <filePickModal+0x39b>
    33c5: 86 19        	stx	$19                     ; 0x2019 <filePickModal+0x399>
    33c7: 90 df        	bcc	$33a8 <textPrint+0x1ac>
    33c9: a2 02        	ldx	#$2
    33cb: 86 01        	stx	$1                      ; 0x2001 <filePickModal+0x381>
    33cd: a6 63        	ldx	$63                     ; 0x2063 <filePickModal+0x3e3>
    33cf: f0 2f        	beq	$3400 <textPrint+0x204>
    33d1: a9 01        	lda	#$1
    33d3: 18           	clc
    33d4: 65 14        	adc	$14                     ; 0x2014 <filePickModal+0x394>
    33d6: 85 18        	sta	$18                     ; 0x2018 <filePickModal+0x398>
    33d8: a9 c0        	lda	#$c0
    33da: 65 15        	adc	$15                     ; 0x2015 <filePickModal+0x395>
    33dc: a8           	tay
    33dd: 64 14        	stz	$14                     ; 0x2014 <filePickModal+0x394>
    33df: a5 18        	lda	$18                     ; 0x2018 <filePickModal+0x398>
    33e1: 18           	clc
    33e2: 65 14        	adc	$14                     ; 0x2014 <filePickModal+0x394>
    33e4: 85 16        	sta	$16                     ; 0x2016 <filePickModal+0x396>
    33e6: 98           	tya
    33e7: 69 00        	adc	#$0
    33e9: 85 17        	sta	$17                     ; 0x2017 <filePickModal+0x397>
    33eb: a9 20        	lda	#$20
    33ed: 92 12        	sta	($12)                   ; 0x2012 <filePickModal+0x392>
    33ef: a6 14        	ldx	$14                     ; 0x2014 <filePickModal+0x394>
    33f1: e8           	inx
    33f2: 86 14        	stx	$14                     ; 0x2014 <filePickModal+0x394>
    33f4: e4 63        	cpx	$63                     ; 0x2063 <filePickModal+0x3e3>
    33f6: a6 16        	ldx	$16                     ; 0x2016 <filePickModal+0x396>
    33f8: 86 12        	stx	$12                     ; 0x2012 <filePickModal+0x392>
    33fa: a6 17        	ldx	$17                     ; 0x2017 <filePickModal+0x397>
    33fc: 86 13        	stx	$13                     ; 0x2013 <filePickModal+0x393>
    33fe: 90 df        	bcc	$33df <textPrint+0x1e3>
    3400: c6 75        	dec	$75                     ; 0x2075 <filePickModal+0x3f5>
    3402: a6 64        	ldx	$64                     ; 0x2064 <filePickModal+0x3e4>
    3404: a0 00        	ldy	#$0
    3406: ca           	dex
    3407: e0 ff        	cpx	#$ff
    3409: d0 01        	bne	$340c <textPrint+0x210>
    340b: 88           	dey
    340c: 9c 08 de     	stz	$de08                   ; 0xde08 <__heap_start+0x76e0>
    340f: a9 c0        	lda	#$c0
    3411: 8d 09 de     	sta	$de09                   ; 0xde09 <__heap_start+0x76e1>
    3414: 9c 0a de     	stz	$de0a                   ; 0xde0a <__heap_start+0x76e2>
    3417: 9c 0b de     	stz	$de0b                   ; 0xde0b <__heap_start+0x76e3>
    341a: 8e 0c de     	stx	$de0c                   ; 0xde0c <__heap_start+0x76e4>
    341d: 8c 0d de     	sty	$de0d                   ; 0xde0d <__heap_start+0x76e5>
    3420: 9c 0e de     	stz	$de0e                   ; 0xde0e <__heap_start+0x76e6>
    3423: 9c 0f de     	stz	$de0f                   ; 0xde0f <__heap_start+0x76e7>
    3426: ae 18 de     	ldx	$de18                   ; 0xde18 <__heap_start+0x76f0>
    3429: ac 19 de     	ldy	$de19                   ; 0xde19 <__heap_start+0x76f1>
    342c: ad 1a de     	lda	$de1a                   ; 0xde1a <__heap_start+0x76f2>
    342f: ad 1b de     	lda	$de1b                   ; 0xde1b <__heap_start+0x76f3>
    3432: 86 12        	stx	$12                     ; 0x2012 <filePickModal+0x392>
    3434: 84 13        	sty	$13                     ; 0x2013 <filePickModal+0x393>
    3436: e6 a1        	inc	$a1                     ; 0x20a1 <filePickModal+0x421>
    3438: d0 02        	bne	$343c <textPrint+0x240>
    343a: e6 a2        	inc	$a2                     ; 0x20a2 <filePickModal+0x422>
    343c: 4c 64 32     	jmp	$3264 <textPrint+0x68>
    343f: a6 a4        	ldx	$a4                     ; 0x20a4 <filePickModal+0x424>
    3441: 86 01        	stx	$1                      ; 0x2001 <filePickModal+0x381>
    3443: a6 74        	ldx	$74                     ; 0x2074 <filePickModal+0x3f4>
    3445: a4 75        	ldy	$75                     ; 0x2075 <filePickModal+0x3f5>
    3447: 8e 14 d0     	stx	$d014                   ; 0xd014 <__heap_start+0x68ec>
    344a: 9c 15 d0     	stz	$d015                   ; 0xd015 <__heap_start+0x68ed>
    344d: 84 75        	sty	$75                     ; 0x2075 <filePickModal+0x3f5>
    344f: 8c 16 d0     	sty	$d016                   ; 0xd016 <__heap_start+0x68ee>
    3452: 9c 17 d0     	stz	$d017                   ; 0xd017 <__heap_start+0x68ef>
    3455: 60           	rts

00003456 <textSetColor>:
    3456: 86 12        	stx	$12                     ; 0x2012 <filePickModal+0x392>
    3458: 0a           	asl
    3459: 0a           	asl
    345a: 0a           	asl
    345b: 0a           	asl
    345c: 18           	clc
    345d: 65 12        	adc	$12                     ; 0x2012 <filePickModal+0x392>
    345f: 85 65        	sta	$65                     ; 0x2065 <filePickModal+0x3e5>
    3461: 60           	rts

00003462 <fileCloseDir>:
    3462: a2 00        	ldx	#$0
    3464: 86 14        	stx	$14                     ; 0x2014 <filePickModal+0x394>
    3466: a2 00        	ldx	#$0
    3468: 86 15        	stx	$15                     ; 0x2015 <filePickModal+0x395>
    346a: a6 13        	ldx	$13                     ; 0x2013 <filePickModal+0x393>
    346c: e4 15        	cpx	$15                     ; 0x2015 <filePickModal+0x395>
    346e: d0 09        	bne	$3479 <fileCloseDir+0x17>
    3470: a6 12        	ldx	$12                     ; 0x2012 <filePickModal+0x392>
    3472: e4 14        	cpx	$14                     ; 0x2014 <filePickModal+0x394>
    3474: d0 03        	bne	$3479 <fileCloseDir+0x17>
    3476: a9 ff        	lda	#$ff
    3478: 60           	rts
    3479: a2 ae        	ldx	#$ae
    347b: a0 00        	ldy	#$0
    347d: 86 14        	stx	$14                     ; 0x2014 <filePickModal+0x394>
    347f: 84 15        	sty	$15                     ; 0x2015 <filePickModal+0x395>
    3481: a2 73        	ldx	#$73
    3483: 86 16        	stx	$16                     ; 0x2016 <filePickModal+0x396>
    3485: a2 00        	ldx	#$0
    3487: 86 17        	stx	$17                     ; 0x2017 <filePickModal+0x397>
    3489: b2 12        	lda	($12)                   ; 0x2012 <filePickModal+0x392>
    348b: f0 26        	beq	$34b3 <fileCloseDir+0x51>
    348d: a6 6a        	ldx	$6a                     ; 0x206a <filePickModal+0x3ea>
    348f: a4 6b        	ldy	$6b                     ; 0x206b <filePickModal+0x3eb>
    3491: 86 18        	stx	$18                     ; 0x2018 <filePickModal+0x398>
    3493: 84 19        	sty	$19                     ; 0x2019 <filePickModal+0x399>
    3495: a0 03        	ldy	#$3
    3497: 91 18        	sta	($18),y                 ; 0x2018 <filePickModal+0x398>
    3499: a2 ad        	ldx	#$ad
    349b: 86 18        	stx	$18                     ; 0x2018 <filePickModal+0x398>
    349d: a2 00        	ldx	#$0
    349f: 86 19        	stx	$19                     ; 0x2019 <filePickModal+0x399>
    34a1: 20 80 ff     	jsr	$ff80 <__heap_start+0x9858>
    34a4: 92 18        	sta	($18)                   ; 0x2018 <filePickModal+0x398>
    34a6: a9 00        	lda	#$0
    34a8: 6a           	ror
    34a9: 85 16        	sta	$16                     ; 0x2016 <filePickModal+0x396>
    34ab: a6 73        	ldx	$73                     ; 0x2073 <filePickModal+0x3f3>
    34ad: d0 04        	bne	$34b3 <fileCloseDir+0x51>
    34af: a9 00        	lda	#$0
    34b1: 92 12        	sta	($12)                   ; 0x2012 <filePickModal+0x392>
    34b3: 64 6c        	stz	$6c                     ; 0x206c <filePickModal+0x3ec>
    34b5: 20 00 ff     	jsr	$ff00 <__heap_start+0x97d8>
    34b8: 92 14        	sta	($14)                   ; 0x2014 <filePickModal+0x394>
    34ba: a9 00        	lda	#$0
    34bc: 6a           	ror
    34bd: 85 16        	sta	$16                     ; 0x2016 <filePickModal+0x396>
    34bf: a6 6c        	ldx	$6c                     ; 0x206c <filePickModal+0x3ec>
    34c1: e0 46        	cpx	#$46
    34c3: d0 c4        	bne	$3489 <fileCloseDir+0x27>
    34c5: a9 00        	lda	#$0
    34c7: 60           	rts

000034c8 <fileReadDir>:
    34c8: a6 12        	ldx	$12                     ; 0x2012 <filePickModal+0x392>
    34ca: 86 14        	stx	$14                     ; 0x2014 <filePickModal+0x394>
    34cc: a6 13        	ldx	$13                     ; 0x2013 <filePickModal+0x393>
    34ce: 86 15        	stx	$15                     ; 0x2015 <filePickModal+0x395>
    34d0: a2 00        	ldx	#$0
    34d2: 86 12        	stx	$12                     ; 0x2012 <filePickModal+0x392>
    34d4: a2 00        	ldx	#$0
    34d6: 86 13        	stx	$13                     ; 0x2013 <filePickModal+0x393>
    34d8: a6 15        	ldx	$15                     ; 0x2015 <filePickModal+0x395>
    34da: e4 13        	cpx	$13                     ; 0x2013 <filePickModal+0x393>
    34dc: d0 06        	bne	$34e4 <fileReadDir+0x1c>
    34de: a6 14        	ldx	$14                     ; 0x2014 <filePickModal+0x394>
    34e0: e4 12        	cpx	$12                     ; 0x2012 <filePickModal+0x392>
    34e2: f0 2c        	beq	$3510 <fileReadDir+0x48>
    34e4: b2 14        	lda	($14)                   ; 0x2014 <filePickModal+0x394>
    34e6: a6 6a        	ldx	$6a                     ; 0x206a <filePickModal+0x3ea>
    34e8: a4 6b        	ldy	$6b                     ; 0x206b <filePickModal+0x3eb>
    34ea: 86 16        	stx	$16                     ; 0x2016 <filePickModal+0x396>
    34ec: 84 17        	sty	$17                     ; 0x2017 <filePickModal+0x397>
    34ee: a0 03        	ldy	#$3
    34f0: 91 16        	sta	($16),y                 ; 0x2016 <filePickModal+0x396>
    34f2: a2 ad        	ldx	#$ad
    34f4: a9 00        	lda	#$0
    34f6: 86 18        	stx	$18                     ; 0x2018 <filePickModal+0x398>
    34f8: 85 19        	sta	$19                     ; 0x2019 <filePickModal+0x399>
    34fa: a2 73        	ldx	#$73
    34fc: 86 16        	stx	$16                     ; 0x2016 <filePickModal+0x396>
    34fe: a2 00        	ldx	#$0
    3500: 86 17        	stx	$17                     ; 0x2017 <filePickModal+0x397>
    3502: 20 7c ff     	jsr	$ff7c <__heap_start+0x9854>
    3505: 92 18        	sta	($18)                   ; 0x2018 <filePickModal+0x398>
    3507: a9 00        	lda	#$0
    3509: 6a           	ror
    350a: 85 16        	sta	$16                     ; 0x2016 <filePickModal+0x396>
    350c: a6 73        	ldx	$73                     ; 0x2073 <filePickModal+0x3f3>
    350e: f0 01        	beq	$3511 <fileReadDir+0x49>
    3510: 60           	rts
    3511: a2 ae        	ldx	#$ae
    3513: a9 00        	lda	#$0
    3515: 86 18        	stx	$18                     ; 0x2018 <filePickModal+0x398>
    3517: 85 19        	sta	$19                     ; 0x2019 <filePickModal+0x399>
    3519: 80 24        	bra	$353f <fileReadDir+0x77>
    351b: b2 14        	lda	($14)                   ; 0x2014 <filePickModal+0x394>
    351d: a6 6a        	ldx	$6a                     ; 0x206a <filePickModal+0x3ea>
    351f: a4 6b        	ldy	$6b                     ; 0x206b <filePickModal+0x3eb>
    3521: 86 1a        	stx	$1a                     ; 0x201a <filePickModal+0x39a>
    3523: 84 1b        	sty	$1b                     ; 0x201b <filePickModal+0x39b>
    3525: a0 03        	ldy	#$3
    3527: 91 1a        	sta	($1a),y                 ; 0x201a <filePickModal+0x39a>
    3529: a2 b0        	ldx	#$b0
    352b: 86 1a        	stx	$1a                     ; 0x201a <filePickModal+0x39a>
    352d: a2 00        	ldx	#$0
    352f: 86 1b        	stx	$1b                     ; 0x201b <filePickModal+0x39b>
    3531: 20 7c ff     	jsr	$ff7c <__heap_start+0x9854>
    3534: 92 1a        	sta	($1a)                   ; 0x201a <filePickModal+0x39a>
    3536: a9 00        	lda	#$0
    3538: 6a           	ror
    3539: 85 16        	sta	$16                     ; 0x2016 <filePickModal+0x396>
    353b: a6 73        	ldx	$73                     ; 0x2073 <filePickModal+0x3f3>
    353d: d0 d1        	bne	$3510 <fileReadDir+0x48>
    353f: 64 6c        	stz	$6c                     ; 0x206c <filePickModal+0x3ec>
    3541: 20 00 ff     	jsr	$ff00 <__heap_start+0x97d8>
    3544: 92 18        	sta	($18)                   ; 0x2018 <filePickModal+0x398>
    3546: a9 00        	lda	#$0
    3548: 6a           	ror
    3549: 85 16        	sta	$16                     ; 0x2016 <filePickModal+0x396>
    354b: a9 c2        	lda	#$c2
    354d: 18           	clc
    354e: 65 6c        	adc	$6c                     ; 0x206c <filePickModal+0x3ec>
    3550: c9 0b        	cmp	#$b
    3552: b0 eb        	bcs	$353f <fileReadDir+0x77>
    3554: 0a           	asl
    3555: aa           	tax
    3556: 7c f6 51     	jmp	($51f6,x)               ; 0x51f6 <__BLOCK_SIZE+0x31f6>
    3559: 9c c9 53     	stz	$53c9                   ; 0x53c9 <fileReadDir.fileDirEntS>
    355c: a2 02        	ldx	#$2
    355e: 80 4c        	bra	$35ac <fileReadDir+0xe4>
    3560: a5 6a        	lda	$6a                     ; 0x206a <filePickModal+0x3ea>
    3562: a6 6b        	ldx	$6b                     ; 0x206b <filePickModal+0x3eb>
    3564: 85 12        	sta	$12                     ; 0x2012 <filePickModal+0x392>
    3566: 86 13        	stx	$13                     ; 0x2013 <filePickModal+0x393>
    3568: a0 0b        	ldy	#$b
    356a: 18           	clc
    356b: 69 0b        	adc	#$b
    356d: 85 14        	sta	$14                     ; 0x2014 <filePickModal+0x394>
    356f: 8a           	txa
    3570: 69 00        	adc	#$0
    3572: 85 15        	sta	$15                     ; 0x2015 <filePickModal+0x395>
    3574: a9 c9        	lda	#$c9
    3576: 91 12        	sta	($12),y                 ; 0x2012 <filePickModal+0x392>
    3578: a0 01        	ldy	#$1
    357a: a9 53        	lda	#$53
    357c: a2 01        	ldx	#$1
    357e: 86 b2        	stx	$b2                     ; 0x20b2 <filePickModal+0x432>
    3580: 91 14        	sta	($14),y                 ; 0x2014 <filePickModal+0x394>
    3582: 98           	tya
    3583: a0 0d        	ldy	#$d
    3585: 91 12        	sta	($12),y                 ; 0x2012 <filePickModal+0x392>
    3587: a2 af        	ldx	#$af
    3589: a9 00        	lda	#$0
    358b: 86 12        	stx	$12                     ; 0x2012 <filePickModal+0x392>
    358d: 85 13        	sta	$13                     ; 0x2013 <filePickModal+0x393>
    358f: a2 73        	ldx	#$73
    3591: 86 14        	stx	$14                     ; 0x2014 <filePickModal+0x394>
    3593: a2 00        	ldx	#$0
    3595: 86 15        	stx	$15                     ; 0x2015 <filePickModal+0x395>
    3597: 20 08 ff     	jsr	$ff08 <__heap_start+0x97e0>
    359a: 92 12        	sta	($12)                   ; 0x2012 <filePickModal+0x392>
    359c: a9 00        	lda	#$0
    359e: 6a           	ror
    359f: 85 14        	sta	$14                     ; 0x2014 <filePickModal+0x394>
    35a1: ae c9 53     	ldx	$53c9                   ; 0x53c9 <fileReadDir.fileDirEntS>
    35a4: f0 04        	beq	$35aa <fileReadDir+0xe2>
    35a6: a2 00        	ldx	#$0
    35a8: 86 b2        	stx	$b2                     ; 0x20b2 <filePickModal+0x432>
    35aa: a6 b2        	ldx	$b2                     ; 0x20b2 <filePickModal+0x432>
    35ac: 8e ca 53     	stx	$53ca                   ; 0x53ca <fileReadDir.fileDirEntS+0x1>
    35af: a6 71        	ldx	$71                     ; 0x2071 <filePickModal+0x3f1>
    35b1: f0 46        	beq	$35f9 <fileReadDir+0x131>
    35b3: a5 6a        	lda	$6a                     ; 0x206a <filePickModal+0x3ea>
    35b5: a4 6b        	ldy	$6b                     ; 0x206b <filePickModal+0x3eb>
    35b7: 84 14        	sty	$14                     ; 0x2014 <filePickModal+0x394>
    35b9: 85 12        	sta	$12                     ; 0x2012 <filePickModal+0x392>
    35bb: 84 13        	sty	$13                     ; 0x2013 <filePickModal+0x393>
    35bd: a0 0b        	ldy	#$b
    35bf: 18           	clc
    35c0: 69 0b        	adc	#$b
    35c2: 85 16        	sta	$16                     ; 0x2016 <filePickModal+0x396>
    35c4: a5 14        	lda	$14                     ; 0x2014 <filePickModal+0x394>
    35c6: 69 00        	adc	#$0
    35c8: 5a           	phy
    35c9: a4 16        	ldy	$16                     ; 0x2016 <filePickModal+0x396>
    35cb: 84 14        	sty	$14                     ; 0x2014 <filePickModal+0x394>
    35cd: 7a           	ply
    35ce: 85 15        	sta	$15                     ; 0x2015 <filePickModal+0x395>
    35d0: a9 cb        	lda	#$cb
    35d2: 91 12        	sta	($12),y                 ; 0x2012 <filePickModal+0x392>
    35d4: a0 01        	ldy	#$1
    35d6: a9 53        	lda	#$53
    35d8: 91 14        	sta	($14),y                 ; 0x2014 <filePickModal+0x394>
    35da: a0 0d        	ldy	#$d
    35dc: 8a           	txa
    35dd: 91 12        	sta	($12),y                 ; 0x2012 <filePickModal+0x392>
    35df: a0 b1        	ldy	#$b1
    35e1: a9 00        	lda	#$0
    35e3: 84 12        	sty	$12                     ; 0x2012 <filePickModal+0x392>
    35e5: 85 13        	sta	$13                     ; 0x2013 <filePickModal+0x393>
    35e7: a0 73        	ldy	#$73
    35e9: 84 14        	sty	$14                     ; 0x2014 <filePickModal+0x394>
    35eb: a0 00        	ldy	#$0
    35ed: 84 15        	sty	$15                     ; 0x2015 <filePickModal+0x395>
    35ef: 20 04 ff     	jsr	$ff04 <__heap_start+0x97dc>
    35f2: 92 12        	sta	($12)                   ; 0x2012 <filePickModal+0x392>
    35f4: a9 00        	lda	#$0
    35f6: 6a           	ror
    35f7: 85 14        	sta	$14                     ; 0x2014 <filePickModal+0x394>
    35f9: 9e cb 53     	stz	$53cb,x                 ; 0x53cb <fileReadDir.fileDirEntS+0x2>
    35fc: a2 c9        	ldx	#$c9
    35fe: 86 12        	stx	$12                     ; 0x2012 <filePickModal+0x392>
    3600: a2 53        	ldx	#$53
    3602: 86 13        	stx	$13                     ; 0x2013 <filePickModal+0x393>
    3604: 60           	rts

00003605 <__putchar>:
    3605: 8d cb 54     	sta	$54cb                   ; 0x54cb <__putchar.s>
    3608: a2 cb        	ldx	#$cb
    360a: 86 12        	stx	$12                     ; 0x2012 <filePickModal+0x392>
    360c: a2 54        	ldx	#$54
    360e: 86 13        	stx	$13                     ; 0x2013 <filePickModal+0x393>
    3610: 4c fc 31     	jmp	$31fc <textPrint>

00003613 <exit>:
    3613: 85 9d        	sta	$9d                     ; 0x209d <filePickModal+0x41d>
    3615: 86 9e        	stx	$9e                     ; 0x209e <filePickModal+0x41e>
    3617: 20 51 03     	jsr	$351 <_fini>
    361a: a6 9e        	ldx	$9e                     ; 0x209e <filePickModal+0x41e>
    361c: a5 9d        	lda	$9d                     ; 0x209d <filePickModal+0x41d>
    361e: 20 21 36     	jsr	$3621 <_Exit>

00003621 <_Exit>:
    3621: 80 fe        	bra	$3621 <_Exit>

00003623 <tolower>:
    3623: c9 41        	cmp	#$41
    3625: 90 06        	bcc	$362d <tolower+0xa>
    3627: c9 5b        	cmp	#$5b
    3629: b0 02        	bcs	$362d <tolower+0xa>
    362b: 09 20        	ora	#$20
    362d: a2 00        	ldx	#$0
    362f: 60           	rts

00003630 <vfprintf>:
    3630: 18           	clc
    3631: a5 10        	lda	$10                     ; 0x2010 <filePickModal+0x390>
    3633: 69 e8        	adc	#$e8
    3635: 85 10        	sta	$10                     ; 0x2010 <filePickModal+0x390>
    3637: a5 11        	lda	$11                     ; 0x2011 <filePickModal+0x391>
    3639: 69 ff        	adc	#$ff
    363b: 85 11        	sta	$11                     ; 0x2011 <filePickModal+0x391>
    363d: a6 24        	ldx	$24                     ; 0x2024 <filePickModal+0x3a4>
    363f: da           	phx
    3640: a6 25        	ldx	$25                     ; 0x2025 <filePickModal+0x3a5>
    3642: da           	phx
    3643: a6 26        	ldx	$26                     ; 0x2026 <filePickModal+0x3a6>
    3645: da           	phx
    3646: a6 27        	ldx	$27                     ; 0x2027 <filePickModal+0x3a7>
    3648: da           	phx
    3649: a5 28        	lda	$28                     ; 0x2028 <filePickModal+0x3a8>
    364b: a0 01        	ldy	#$1
    364d: 91 10        	sta	($10),y                 ; 0x2010 <filePickModal+0x390>
    364f: a5 29        	lda	$29                     ; 0x2029 <filePickModal+0x3a9>
    3651: 88           	dey
    3652: 91 10        	sta	($10),y                 ; 0x2010 <filePickModal+0x390>
    3654: a6 12        	ldx	$12                     ; 0x2012 <filePickModal+0x392>
    3656: 86 24        	stx	$24                     ; 0x2024 <filePickModal+0x3a4>
    3658: a6 13        	ldx	$13                     ; 0x2013 <filePickModal+0x393>
    365a: 86 25        	stx	$25                     ; 0x2025 <filePickModal+0x3a5>
    365c: a5 16        	lda	$16                     ; 0x2016 <filePickModal+0x396>
    365e: 18           	clc
    365f: 48           	pha
    3660: a5 10        	lda	$10                     ; 0x2010 <filePickModal+0x390>
    3662: 69 16        	adc	#$16
    3664: 85 12        	sta	$12                     ; 0x2012 <filePickModal+0x392>
    3666: a5 11        	lda	$11                     ; 0x2011 <filePickModal+0x391>
    3668: 69 00        	adc	#$0
    366a: 85 13        	sta	$13                     ; 0x2013 <filePickModal+0x393>
    366c: 68           	pla
    366d: 92 12        	sta	($12)                   ; 0x2012 <filePickModal+0x392>
    366f: c8           	iny
    3670: a5 17        	lda	$17                     ; 0x2017 <filePickModal+0x397>
    3672: 91 12        	sta	($12),y                 ; 0x2012 <filePickModal+0x392>
    3674: 18           	clc
    3675: a5 10        	lda	$10                     ; 0x2010 <filePickModal+0x390>
    3677: 69 03        	adc	#$3
    3679: 48           	pha
    367a: a5 11        	lda	$11                     ; 0x2011 <filePickModal+0x391>
    367c: 69 00        	adc	#$0
    367e: a8           	tay
    367f: 68           	pla
    3680: 85 16        	sta	$16                     ; 0x2016 <filePickModal+0x396>
    3682: 84 17        	sty	$17                     ; 0x2017 <filePickModal+0x397>
    3684: 85 28        	sta	$28                     ; 0x2028 <filePickModal+0x3a8>
    3686: 18           	clc
    3687: 69 03        	adc	#$3
    3689: 85 18        	sta	$18                     ; 0x2018 <filePickModal+0x398>
    368b: 84 29        	sty	$29                     ; 0x2029 <filePickModal+0x3a9>
    368d: 98           	tya
    368e: 69 00        	adc	#$0
    3690: a0 03        	ldy	#$3
    3692: 85 19        	sta	$19                     ; 0x2019 <filePickModal+0x399>
    3694: a9 ff        	lda	#$ff
    3696: 91 16        	sta	($16),y                 ; 0x2016 <filePickModal+0x396>
    3698: 18           	clc
    3699: a5 10        	lda	$10                     ; 0x2010 <filePickModal+0x390>
    369b: 69 03        	adc	#$3
    369d: 85 1b        	sta	$1b                     ; 0x201b <filePickModal+0x39b>
    369f: a5 11        	lda	$11                     ; 0x2011 <filePickModal+0x391>
    36a1: 69 00        	adc	#$0
    36a3: 85 1a        	sta	$1a                     ; 0x201a <filePickModal+0x39a>
    36a5: a0 01        	ldy	#$1
    36a7: a9 ff        	lda	#$ff
    36a9: 91 18        	sta	($18),y                 ; 0x2018 <filePickModal+0x398>
    36ab: 18           	clc
    36ac: a5 1b        	lda	$1b                     ; 0x201b <filePickModal+0x39b>
    36ae: 69 05        	adc	#$5
    36b0: 85 18        	sta	$18                     ; 0x2018 <filePickModal+0x398>
    36b2: a5 1a        	lda	$1a                     ; 0x201a <filePickModal+0x39a>
    36b4: 69 00        	adc	#$0
    36b6: 85 19        	sta	$19                     ; 0x2019 <filePickModal+0x399>
    36b8: 18           	clc
    36b9: a5 10        	lda	$10                     ; 0x2010 <filePickModal+0x390>
    36bb: 69 03        	adc	#$3
    36bd: 48           	pha
    36be: a5 11        	lda	$11                     ; 0x2011 <filePickModal+0x391>
    36c0: 69 00        	adc	#$0
    36c2: 85 1b        	sta	$1b                     ; 0x201b <filePickModal+0x39b>
    36c4: 68           	pla
    36c5: 18           	clc
    36c6: 69 09        	adc	#$9
    36c8: 85 1a        	sta	$1a                     ; 0x201a <filePickModal+0x39a>
    36ca: a5 1b        	lda	$1b                     ; 0x201b <filePickModal+0x39b>
    36cc: 69 00        	adc	#$0
    36ce: 85 1b        	sta	$1b                     ; 0x201b <filePickModal+0x39b>
    36d0: a0 09        	ldy	#$9
    36d2: a2 00        	ldx	#$0
    36d4: 86 1c        	stx	$1c                     ; 0x201c <filePickModal+0x39c>
    36d6: a2 00        	ldx	#$0
    36d8: 86 1d        	stx	$1d                     ; 0x201d <filePickModal+0x39d>
    36da: a5 1c        	lda	$1c                     ; 0x201c <filePickModal+0x39c>
    36dc: 91 16        	sta	($16),y                 ; 0x2016 <filePickModal+0x396>
    36de: a0 0f        	ldy	#$f
    36e0: a5 24        	lda	$24                     ; 0x2024 <filePickModal+0x3a4>
    36e2: 91 16        	sta	($16),y                 ; 0x2016 <filePickModal+0x396>
    36e4: 18           	clc
    36e5: a5 10        	lda	$10                     ; 0x2010 <filePickModal+0x390>
    36e7: 69 03        	adc	#$3
    36e9: 85 1c        	sta	$1c                     ; 0x201c <filePickModal+0x39c>
    36eb: a5 11        	lda	$11                     ; 0x2011 <filePickModal+0x391>
    36ed: 69 00        	adc	#$0
    36ef: aa           	tax
    36f0: a5 1d        	lda	$1d                     ; 0x201d <filePickModal+0x39d>
    36f2: a0 01        	ldy	#$1
    36f4: 91 1a        	sta	($1a),y                 ; 0x201a <filePickModal+0x39a>
    36f6: 18           	clc
    36f7: a5 1c        	lda	$1c                     ; 0x201c <filePickModal+0x39c>
    36f9: 69 0f        	adc	#$f
    36fb: 85 1a        	sta	$1a                     ; 0x201a <filePickModal+0x39a>
    36fd: 8a           	txa
    36fe: 69 00        	adc	#$0
    3700: aa           	tax
    3701: a0 05        	ldy	#$5
    3703: a9 00        	lda	#$0
    3705: 91 16        	sta	($16),y                 ; 0x2016 <filePickModal+0x396>
    3707: 64 1b        	stz	$1b                     ; 0x201b <filePickModal+0x39b>
    3709: a9 00        	lda	#$0
    370b: a0 02        	ldy	#$2
    370d: 91 10        	sta	($10),y                 ; 0x2010 <filePickModal+0x390>
    370f: 88           	dey
    3710: a9 00        	lda	#$0
    3712: 91 18        	sta	($18),y                 ; 0x2018 <filePickModal+0x398>
    3714: 86 1b        	stx	$1b                     ; 0x201b <filePickModal+0x39b>
    3716: a5 25        	lda	$25                     ; 0x2025 <filePickModal+0x3a5>
    3718: 91 1a        	sta	($1a),y                 ; 0x201a <filePickModal+0x39a>
    371a: b2 12        	lda	($12)                   ; 0x2012 <filePickModal+0x392>
    371c: 85 19        	sta	$19                     ; 0x2019 <filePickModal+0x399>
    371e: b1 12        	lda	($12),y                 ; 0x2012 <filePickModal+0x392>
    3720: 85 18        	sta	$18                     ; 0x2018 <filePickModal+0x398>
    3722: a0 11        	ldy	#$11
    3724: a5 19        	lda	$19                     ; 0x2019 <filePickModal+0x399>
    3726: 91 16        	sta	($16),y                 ; 0x2016 <filePickModal+0x396>
    3728: 18           	clc
    3729: a5 10        	lda	$10                     ; 0x2010 <filePickModal+0x390>
    372b: 69 03        	adc	#$3
    372d: 48           	pha
    372e: a5 11        	lda	$11                     ; 0x2011 <filePickModal+0x391>
    3730: 69 00        	adc	#$0
    3732: 85 12        	sta	$12                     ; 0x2012 <filePickModal+0x392>
    3734: 68           	pla
    3735: 18           	clc
    3736: 69 11        	adc	#$11
    3738: aa           	tax
    3739: a5 12        	lda	$12                     ; 0x2012 <filePickModal+0x392>
    373b: 69 00        	adc	#$0
    373d: 86 12        	stx	$12                     ; 0x2012 <filePickModal+0x392>
    373f: 85 13        	sta	$13                     ; 0x2013 <filePickModal+0x393>
    3741: a5 18        	lda	$18                     ; 0x2018 <filePickModal+0x398>
    3743: a0 01        	ldy	#$1
    3745: 91 12        	sta	($12),y                 ; 0x2012 <filePickModal+0x392>
    3747: a6 14        	ldx	$14                     ; 0x2014 <filePickModal+0x394>
    3749: 86 12        	stx	$12                     ; 0x2012 <filePickModal+0x392>
    374b: a6 15        	ldx	$15                     ; 0x2015 <filePickModal+0x395>
    374d: 86 13        	stx	$13                     ; 0x2013 <filePickModal+0x393>
    374f: a6 12        	ldx	$12                     ; 0x2012 <filePickModal+0x392>
    3751: 86 26        	stx	$26                     ; 0x2026 <filePickModal+0x3a6>
    3753: a6 13        	ldx	$13                     ; 0x2013 <filePickModal+0x393>
    3755: 86 27        	stx	$27                     ; 0x2027 <filePickModal+0x3a7>
    3757: b2 12        	lda	($12)                   ; 0x2012 <filePickModal+0x392>
    3759: c9 25        	cmp	#$25
    375b: d0 03        	bne	$3760 <vfprintf+0x130>
    375d: 4c c8 37     	jmp	$37c8 <vfprintf+0x198>
    3760: aa           	tax
    3761: d0 03        	bne	$3766 <vfprintf+0x136>
    3763: 4c 20 38     	jmp	$3820 <vfprintf+0x1f0>
    3766: a6 24        	ldx	$24                     ; 0x2024 <filePickModal+0x3a4>
    3768: 86 12        	stx	$12                     ; 0x2012 <filePickModal+0x392>
    376a: a6 25        	ldx	$25                     ; 0x2025 <filePickModal+0x3a5>
    376c: 86 13        	stx	$13                     ; 0x2013 <filePickModal+0x393>
    376e: 48           	pha
    376f: a0 02        	ldy	#$2
    3771: b1 10        	lda	($10),y                 ; 0x2010 <filePickModal+0x390>
    3773: aa           	tax
    3774: 68           	pla
    3775: 20 50 49     	jsr	$4950 <putc>
    3778: e0 ff        	cpx	#$ff
    377a: d0 07        	bne	$3783 <vfprintf+0x153>
    377c: c9 ff        	cmp	#$ff
    377e: d0 03        	bne	$3783 <vfprintf+0x153>
    3780: 4c ea 37     	jmp	$37ea <vfprintf+0x1ba>
    3783: e6 26        	inc	$26                     ; 0x2026 <filePickModal+0x3a6>
    3785: d0 02        	bne	$3789 <vfprintf+0x159>
    3787: e6 27        	inc	$27                     ; 0x2027 <filePickModal+0x3a7>
    3789: 18           	clc
    378a: a5 10        	lda	$10                     ; 0x2010 <filePickModal+0x390>
    378c: 69 03        	adc	#$3
    378e: 48           	pha
    378f: a5 11        	lda	$11                     ; 0x2011 <filePickModal+0x391>
    3791: 69 00        	adc	#$0
    3793: aa           	tax
    3794: 68           	pla
    3795: 85 12        	sta	$12                     ; 0x2012 <filePickModal+0x392>
    3797: 86 13        	stx	$13                     ; 0x2013 <filePickModal+0x393>
    3799: 18           	clc
    379a: 69 05        	adc	#$5
    379c: 85 14        	sta	$14                     ; 0x2014 <filePickModal+0x394>
    379e: 8a           	txa
    379f: 69 00        	adc	#$0
    37a1: 85 15        	sta	$15                     ; 0x2015 <filePickModal+0x395>
    37a3: a0 05        	ldy	#$5
    37a5: b1 12        	lda	($12),y                 ; 0x2012 <filePickModal+0x392>
    37a7: 85 16        	sta	$16                     ; 0x2016 <filePickModal+0x396>
    37a9: a0 01        	ldy	#$1
    37ab: b1 14        	lda	($14),y                 ; 0x2014 <filePickModal+0x394>
    37ad: aa           	tax
    37ae: a5 16        	lda	$16                     ; 0x2016 <filePickModal+0x396>
    37b0: 1a           	inc
    37b1: d0 01        	bne	$37b4 <vfprintf+0x184>
    37b3: e8           	inx
    37b4: a0 05        	ldy	#$5
    37b6: 91 12        	sta	($12),y                 ; 0x2012 <filePickModal+0x392>
    37b8: 8a           	txa
    37b9: a0 01        	ldy	#$1
    37bb: 91 14        	sta	($14),y                 ; 0x2014 <filePickModal+0x394>
    37bd: a6 26        	ldx	$26                     ; 0x2026 <filePickModal+0x3a6>
    37bf: 86 12        	stx	$12                     ; 0x2012 <filePickModal+0x392>
    37c1: a6 27        	ldx	$27                     ; 0x2027 <filePickModal+0x3a7>
    37c3: 86 13        	stx	$13                     ; 0x2013 <filePickModal+0x393>
    37c5: 4c 4f 37     	jmp	$374f <vfprintf+0x11f>
    37c8: a6 28        	ldx	$28                     ; 0x2028 <filePickModal+0x3a8>
    37ca: 86 14        	stx	$14                     ; 0x2014 <filePickModal+0x394>
    37cc: a6 29        	ldx	$29                     ; 0x2029 <filePickModal+0x3a9>
    37ce: 86 15        	stx	$15                     ; 0x2015 <filePickModal+0x395>
    37d0: 20 48 38     	jsr	$3848 <_ZN12_GLOBAL__N_15printEPKcP6Status>
    37d3: a6 13        	ldx	$13                     ; 0x2013 <filePickModal+0x393>
    37d5: e4 27        	cpx	$27                     ; 0x2027 <filePickModal+0x3a7>
    37d7: f0 03        	beq	$37dc <vfprintf+0x1ac>
    37d9: 4c 4f 37     	jmp	$374f <vfprintf+0x11f>
    37dc: a6 12        	ldx	$12                     ; 0x2012 <filePickModal+0x392>
    37de: e4 26        	cpx	$26                     ; 0x2026 <filePickModal+0x3a6>
    37e0: f0 03        	beq	$37e5 <vfprintf+0x1b5>
    37e2: 4c 4f 37     	jmp	$374f <vfprintf+0x11f>
    37e5: b2 26        	lda	($26)                   ; 0x2026 <filePickModal+0x3a6>
    37e7: 4c 66 37     	jmp	$3766 <vfprintf+0x136>
    37ea: a2 ff        	ldx	#$ff
    37ec: 8a           	txa
    37ed: a0 02        	ldy	#$2
    37ef: 91 10        	sta	($10),y                 ; 0x2010 <filePickModal+0x390>
    37f1: 8a           	txa
    37f2: aa           	tax
    37f3: a0 02        	ldy	#$2
    37f5: b1 10        	lda	($10),y                 ; 0x2010 <filePickModal+0x390>
    37f7: 85 20        	sta	$20                     ; 0x2020 <filePickModal+0x3a0>
    37f9: a0 00        	ldy	#$0
    37fb: b1 10        	lda	($10),y                 ; 0x2010 <filePickModal+0x390>
    37fd: 85 29        	sta	$29                     ; 0x2029 <filePickModal+0x3a9>
    37ff: c8           	iny
    3800: b1 10        	lda	($10),y                 ; 0x2010 <filePickModal+0x390>
    3802: 85 28        	sta	$28                     ; 0x2028 <filePickModal+0x3a8>
    3804: 7a           	ply
    3805: 84 27        	sty	$27                     ; 0x2027 <filePickModal+0x3a7>
    3807: 7a           	ply
    3808: 84 26        	sty	$26                     ; 0x2026 <filePickModal+0x3a6>
    380a: 7a           	ply
    380b: 84 25        	sty	$25                     ; 0x2025 <filePickModal+0x3a5>
    380d: 7a           	ply
    380e: 84 24        	sty	$24                     ; 0x2024 <filePickModal+0x3a4>
    3810: 18           	clc
    3811: a5 10        	lda	$10                     ; 0x2010 <filePickModal+0x390>
    3813: 69 18        	adc	#$18
    3815: 85 10        	sta	$10                     ; 0x2010 <filePickModal+0x390>
    3817: a5 11        	lda	$11                     ; 0x2011 <filePickModal+0x391>
    3819: 69 00        	adc	#$0
    381b: 85 11        	sta	$11                     ; 0x2011 <filePickModal+0x391>
    381d: a5 20        	lda	$20                     ; 0x2020 <filePickModal+0x3a0>
    381f: 60           	rts
    3820: a0 05        	ldy	#$5
    3822: 18           	clc
    3823: a5 10        	lda	$10                     ; 0x2010 <filePickModal+0x390>
    3825: 69 03        	adc	#$3
    3827: 48           	pha
    3828: a5 11        	lda	$11                     ; 0x2011 <filePickModal+0x391>
    382a: 69 00        	adc	#$0
    382c: aa           	tax
    382d: 68           	pla
    382e: 85 12        	sta	$12                     ; 0x2012 <filePickModal+0x392>
    3830: 86 13        	stx	$13                     ; 0x2013 <filePickModal+0x393>
    3832: 18           	clc
    3833: 69 05        	adc	#$5
    3835: 85 14        	sta	$14                     ; 0x2014 <filePickModal+0x394>
    3837: 8a           	txa
    3838: 69 00        	adc	#$0
    383a: 85 15        	sta	$15                     ; 0x2015 <filePickModal+0x395>
    383c: b1 12        	lda	($12),y                 ; 0x2012 <filePickModal+0x392>
    383e: a0 02        	ldy	#$2
    3840: 91 10        	sta	($10),y                 ; 0x2010 <filePickModal+0x390>
    3842: 88           	dey
    3843: b1 14        	lda	($14),y                 ; 0x2014 <filePickModal+0x394>
    3845: 4c f2 37     	jmp	$37f2 <vfprintf+0x1c2>

00003848 <_ZN12_GLOBAL__N_15printEPKcP6Status>:
    3848: 18           	clc
    3849: a5 10        	lda	$10                     ; 0x2010 <filePickModal+0x390>
    384b: 69 d1        	adc	#$d1
    384d: 85 10        	sta	$10                     ; 0x2010 <filePickModal+0x390>
    384f: a5 11        	lda	$11                     ; 0x2011 <filePickModal+0x391>
    3851: 69 ff        	adc	#$ff
    3853: 85 11        	sta	$11                     ; 0x2011 <filePickModal+0x391>
    3855: a6 24        	ldx	$24                     ; 0x2024 <filePickModal+0x3a4>
    3857: da           	phx
    3858: a6 25        	ldx	$25                     ; 0x2025 <filePickModal+0x3a5>
    385a: da           	phx
    385b: a6 26        	ldx	$26                     ; 0x2026 <filePickModal+0x3a6>
    385d: da           	phx
    385e: a6 27        	ldx	$27                     ; 0x2027 <filePickModal+0x3a7>
    3860: da           	phx
    3861: a5 28        	lda	$28                     ; 0x2028 <filePickModal+0x3a8>
    3863: a0 07        	ldy	#$7
    3865: 91 10        	sta	($10),y                 ; 0x2010 <filePickModal+0x390>
    3867: a5 29        	lda	$29                     ; 0x2029 <filePickModal+0x3a9>
    3869: 88           	dey
    386a: 91 10        	sta	($10),y                 ; 0x2010 <filePickModal+0x390>
    386c: a5 2a        	lda	$2a                     ; 0x202a <filePickModal+0x3aa>
    386e: 88           	dey
    386f: 91 10        	sta	($10),y                 ; 0x2010 <filePickModal+0x390>
    3871: a5 2b        	lda	$2b                     ; 0x202b <filePickModal+0x3ab>
    3873: 88           	dey
    3874: 91 10        	sta	($10),y                 ; 0x2010 <filePickModal+0x390>
    3876: a5 2c        	lda	$2c                     ; 0x202c <filePickModal+0x3ac>
    3878: 88           	dey
    3879: 91 10        	sta	($10),y                 ; 0x2010 <filePickModal+0x390>
    387b: a5 2d        	lda	$2d                     ; 0x202d <filePickModal+0x3ad>
    387d: 88           	dey
    387e: 91 10        	sta	($10),y                 ; 0x2010 <filePickModal+0x390>
    3880: a5 2e        	lda	$2e                     ; 0x202e <filePickModal+0x3ae>
    3882: 88           	dey
    3883: 91 10        	sta	($10),y                 ; 0x2010 <filePickModal+0x390>
    3885: a5 2f        	lda	$2f                     ; 0x202f <filePickModal+0x3af>
    3887: 88           	dey
    3888: 91 10        	sta	($10),y                 ; 0x2010 <filePickModal+0x390>
    388a: a6 12        	ldx	$12                     ; 0x2012 <filePickModal+0x392>
    388c: 86 28        	stx	$28                     ; 0x2028 <filePickModal+0x3a8>
    388e: a6 13        	ldx	$13                     ; 0x2013 <filePickModal+0x393>
    3890: 86 29        	stx	$29                     ; 0x2029 <filePickModal+0x3a9>
    3892: a6 14        	ldx	$14                     ; 0x2014 <filePickModal+0x394>
    3894: 86 24        	stx	$24                     ; 0x2024 <filePickModal+0x3a4>
    3896: a6 15        	ldx	$15                     ; 0x2015 <filePickModal+0x395>
    3898: 86 25        	stx	$25                     ; 0x2025 <filePickModal+0x3a5>
    389a: e6 12        	inc	$12                     ; 0x2012 <filePickModal+0x392>
    389c: d0 02        	bne	$38a0 <_ZN12_GLOBAL__N_15printEPKcP6Status+0x58>
    389e: e6 13        	inc	$13                     ; 0x2013 <filePickModal+0x393>
    38a0: a5 12        	lda	$12                     ; 0x2012 <filePickModal+0x392>
    38a2: 18           	clc
    38a3: 48           	pha
    38a4: a5 10        	lda	$10                     ; 0x2010 <filePickModal+0x390>
    38a6: 69 16        	adc	#$16
    38a8: 85 26        	sta	$26                     ; 0x2026 <filePickModal+0x3a6>
    38aa: a5 11        	lda	$11                     ; 0x2011 <filePickModal+0x391>
    38ac: 69 00        	adc	#$0
    38ae: 85 27        	sta	$27                     ; 0x2027 <filePickModal+0x3a7>
    38b0: 68           	pla
    38b1: 92 26        	sta	($26)                   ; 0x2026 <filePickModal+0x3a6>
    38b3: a0 01        	ldy	#$1
    38b5: a5 13        	lda	$13                     ; 0x2013 <filePickModal+0x393>
    38b7: 91 26        	sta	($26),y                 ; 0x2026 <filePickModal+0x3a6>
    38b9: b1 28        	lda	($28),y                 ; 0x2028 <filePickModal+0x3a8>
    38bb: c9 25        	cmp	#$25
    38bd: d0 1d        	bne	$38dc <_ZN12_GLOBAL__N_15printEPKcP6Status+0x94>
    38bf: a9 25        	lda	#$25
    38c1: a6 14        	ldx	$14                     ; 0x2014 <filePickModal+0x394>
    38c3: 86 12        	stx	$12                     ; 0x2012 <filePickModal+0x392>
    38c5: a6 15        	ldx	$15                     ; 0x2015 <filePickModal+0x395>
    38c7: 86 13        	stx	$13                     ; 0x2013 <filePickModal+0x393>
    38c9: 20 8c 43     	jsr	$438c <_ZN12_GLOBAL__N_13putEcP6Status>
    38cc: a5 28        	lda	$28                     ; 0x2028 <filePickModal+0x3a8>
    38ce: 18           	clc
    38cf: 69 02        	adc	#$2
    38d1: 85 28        	sta	$28                     ; 0x2028 <filePickModal+0x3a8>
    38d3: a5 29        	lda	$29                     ; 0x2029 <filePickModal+0x3a9>
    38d5: 69 00        	adc	#$0
    38d7: 85 29        	sta	$29                     ; 0x2029 <filePickModal+0x3a9>
    38d9: 4c 41 43     	jmp	$4341 <_ZN12_GLOBAL__N_15printEPKcP6Status+0xaf9>
    38dc: 64 2a        	stz	$2a                     ; 0x202a <filePickModal+0x3aa>
    38de: 18           	clc
    38df: a5 24        	lda	$24                     ; 0x2024 <filePickModal+0x3a4>
    38e1: 69 0b        	adc	#$b
    38e3: 85 16        	sta	$16                     ; 0x2016 <filePickModal+0x396>
    38e5: a5 25        	lda	$25                     ; 0x2025 <filePickModal+0x3a5>
    38e7: 69 00        	adc	#$0
    38e9: 85 17        	sta	$17                     ; 0x2017 <filePickModal+0x397>
    38eb: 18           	clc
    38ec: a9 00        	lda	#$0
    38ee: a0 0b        	ldy	#$b
    38f0: 91 10        	sta	($10),y                 ; 0x2010 <filePickModal+0x390>
    38f2: a9 00        	lda	#$0
    38f4: 91 24        	sta	($24),y                 ; 0x2024 <filePickModal+0x3a4>
    38f6: a5 24        	lda	$24                     ; 0x2024 <filePickModal+0x3a4>
    38f8: 69 0d        	adc	#$d
    38fa: 85 18        	sta	$18                     ; 0x2018 <filePickModal+0x398>
    38fc: a5 25        	lda	$25                     ; 0x2025 <filePickModal+0x3a5>
    38fe: 69 00        	adc	#$0
    3900: e6 14        	inc	$14                     ; 0x2014 <filePickModal+0x394>
    3902: d0 02        	bne	$3906 <_ZN12_GLOBAL__N_15printEPKcP6Status+0xbe>
    3904: e6 15        	inc	$15                     ; 0x2015 <filePickModal+0x395>
    3906: a0 0d        	ldy	#$d
    3908: 85 19        	sta	$19                     ; 0x2019 <filePickModal+0x399>
    390a: a9 ff        	lda	#$ff
    390c: 91 24        	sta	($24),y                 ; 0x2024 <filePickModal+0x3a4>
    390e: a0 01        	ldy	#$1
    3910: 1a           	inc
    3911: 91 24        	sta	($24),y                 ; 0x2024 <filePickModal+0x3a4>
    3913: 91 14        	sta	($14),y                 ; 0x2014 <filePickModal+0x394>
    3915: 92 24        	sta	($24)                   ; 0x2024 <filePickModal+0x3a4>
    3917: 91 16        	sta	($16),y                 ; 0x2016 <filePickModal+0x396>
    3919: 3a           	dec
    391a: 91 18        	sta	($18),y                 ; 0x2018 <filePickModal+0x398>
    391c: 64 18        	stz	$18                     ; 0x2018 <filePickModal+0x398>
    391e: 80 35        	bra	$3955 <_ZN12_GLOBAL__N_15printEPKcP6Status+0x10d>
    3920: a2 02        	ldx	#$2
    3922: 80 15        	bra	$3939 <_ZN12_GLOBAL__N_15printEPKcP6Status+0xf1>
    3924: e0 20        	cpx	#$20
    3926: f0 0f        	beq	$3937 <_ZN12_GLOBAL__N_15printEPKcP6Status+0xef>
    3928: e0 23        	cpx	#$23
    392a: f0 03        	beq	$392f <_ZN12_GLOBAL__N_15printEPKcP6Status+0xe7>
    392c: 4c 9a 39     	jmp	$399a <_ZN12_GLOBAL__N_15printEPKcP6Status+0x152>
    392f: a2 04        	ldx	#$4
    3931: 80 06        	bra	$3939 <_ZN12_GLOBAL__N_15printEPKcP6Status+0xf1>
    3933: a2 10        	ldx	#$10
    3935: 80 02        	bra	$3939 <_ZN12_GLOBAL__N_15printEPKcP6Status+0xf1>
    3937: a2 08        	ldx	#$8
    3939: 86 16        	stx	$16                     ; 0x2016 <filePickModal+0x396>
    393b: a5 18        	lda	$18                     ; 0x2018 <filePickModal+0x398>
    393d: 05 16        	ora	$16                     ; 0x2016 <filePickModal+0x396>
    393f: 85 18        	sta	$18                     ; 0x2018 <filePickModal+0x398>
    3941: 91 24        	sta	($24),y                 ; 0x2024 <filePickModal+0x3a4>
    3943: a9 00        	lda	#$0
    3945: 91 14        	sta	($14),y                 ; 0x2014 <filePickModal+0x394>
    3947: e6 12        	inc	$12                     ; 0x2012 <filePickModal+0x392>
    3949: d0 02        	bne	$394d <_ZN12_GLOBAL__N_15printEPKcP6Status+0x105>
    394b: e6 13        	inc	$13                     ; 0x2013 <filePickModal+0x393>
    394d: a5 12        	lda	$12                     ; 0x2012 <filePickModal+0x392>
    394f: 92 26        	sta	($26)                   ; 0x2026 <filePickModal+0x3a6>
    3951: a5 13        	lda	$13                     ; 0x2013 <filePickModal+0x393>
    3953: 91 26        	sta	($26),y                 ; 0x2026 <filePickModal+0x3a6>
    3955: b2 12        	lda	($12)                   ; 0x2012 <filePickModal+0x392>
    3957: 18           	clc
    3958: aa           	tax
    3959: 69 d6        	adc	#$d6
    395b: c9 07        	cmp	#$7
    395d: b0 c5        	bcs	$3924 <_ZN12_GLOBAL__N_15printEPKcP6Status+0xdc>
    395f: 0a           	asl
    3960: aa           	tax
    3961: a9 01        	lda	#$1
    3963: 85 16        	sta	$16                     ; 0x2016 <filePickModal+0x396>
    3965: 7c 0c 52     	jmp	($520c,x)               ; 0x520c <__BLOCK_SIZE+0x320c>
    3968: a0 11        	ldy	#$11
    396a: a5 24        	lda	$24                     ; 0x2024 <filePickModal+0x3a4>
    396c: 18           	clc
    396d: 69 11        	adc	#$11
    396f: 85 14        	sta	$14                     ; 0x2014 <filePickModal+0x394>
    3971: a5 25        	lda	$25                     ; 0x2025 <filePickModal+0x3a5>
    3973: 69 00        	adc	#$0
    3975: 85 15        	sta	$15                     ; 0x2015 <filePickModal+0x395>
    3977: b1 24        	lda	($24),y                 ; 0x2024 <filePickModal+0x3a4>
    3979: 85 16        	sta	$16                     ; 0x2016 <filePickModal+0x396>
    397b: 18           	clc
    397c: 69 02        	adc	#$2
    397e: 91 24        	sta	($24),y                 ; 0x2024 <filePickModal+0x3a4>
    3980: a0 01        	ldy	#$1
    3982: b1 14        	lda	($14),y                 ; 0x2014 <filePickModal+0x394>
    3984: 85 17        	sta	$17                     ; 0x2017 <filePickModal+0x397>
    3986: 69 00        	adc	#$0
    3988: 91 14        	sta	($14),y                 ; 0x2014 <filePickModal+0x394>
    398a: b2 16        	lda	($16)                   ; 0x2016 <filePickModal+0x396>
    398c: 85 15        	sta	$15                     ; 0x2015 <filePickModal+0x395>
    398e: b1 16        	lda	($16),y                 ; 0x2016 <filePickModal+0x396>
    3990: 85 14        	sta	$14                     ; 0x2014 <filePickModal+0x394>
    3992: 30 31        	bmi	$39c5 <_ZN12_GLOBAL__N_15printEPKcP6Status+0x17d>
    3994: a5 15        	lda	$15                     ; 0x2015 <filePickModal+0x395>
    3996: a6 14        	ldx	$14                     ; 0x2014 <filePickModal+0x394>
    3998: 80 4d        	bra	$39e7 <_ZN12_GLOBAL__N_15printEPKcP6Status+0x19f>
    399a: a6 26        	ldx	$26                     ; 0x2026 <filePickModal+0x3a6>
    399c: 86 14        	stx	$14                     ; 0x2014 <filePickModal+0x394>
    399e: a6 27        	ldx	$27                     ; 0x2027 <filePickModal+0x3a7>
    39a0: 86 15        	stx	$15                     ; 0x2015 <filePickModal+0x395>
    39a2: 20 40 4e     	jsr	$4e40 <__simple_strtoui>
    39a5: a0 0b        	ldy	#$b
    39a7: 91 24        	sta	($24),y                 ; 0x2024 <filePickModal+0x3a4>
    39a9: 18           	clc
    39aa: a5 24        	lda	$24                     ; 0x2024 <filePickModal+0x3a4>
    39ac: 69 0b        	adc	#$b
    39ae: 85 12        	sta	$12                     ; 0x2012 <filePickModal+0x392>
    39b0: a5 25        	lda	$25                     ; 0x2025 <filePickModal+0x3a5>
    39b2: 69 00        	adc	#$0
    39b4: 85 13        	sta	$13                     ; 0x2013 <filePickModal+0x393>
    39b6: a0 01        	ldy	#$1
    39b8: 8a           	txa
    39b9: 91 12        	sta	($12),y                 ; 0x2012 <filePickModal+0x392>
    39bb: b2 26        	lda	($26)                   ; 0x2026 <filePickModal+0x3a6>
    39bd: 85 12        	sta	$12                     ; 0x2012 <filePickModal+0x392>
    39bf: b1 26        	lda	($26),y                 ; 0x2026 <filePickModal+0x3a6>
    39c1: 85 13        	sta	$13                     ; 0x2013 <filePickModal+0x393>
    39c3: 80 46        	bra	$3a0b <_ZN12_GLOBAL__N_15printEPKcP6Status+0x1c3>
    39c5: a5 18        	lda	$18                     ; 0x2018 <filePickModal+0x398>
    39c7: 09 01        	ora	#$1
    39c9: a6 24        	ldx	$24                     ; 0x2024 <filePickModal+0x3a4>
    39cb: 86 16        	stx	$16                     ; 0x2016 <filePickModal+0x396>
    39cd: a6 25        	ldx	$25                     ; 0x2025 <filePickModal+0x3a5>
    39cf: 86 17        	stx	$17                     ; 0x2017 <filePickModal+0x397>
    39d1: e6 16        	inc	$16                     ; 0x2016 <filePickModal+0x396>
    39d3: d0 02        	bne	$39d7 <_ZN12_GLOBAL__N_15printEPKcP6Status+0x18f>
    39d5: e6 17        	inc	$17                     ; 0x2017 <filePickModal+0x397>
    39d7: 91 24        	sta	($24),y                 ; 0x2024 <filePickModal+0x3a4>
    39d9: a9 00        	lda	#$0
    39db: 91 16        	sta	($16),y                 ; 0x2016 <filePickModal+0x396>
    39dd: 38           	sec
    39de: e5 15        	sbc	$15                     ; 0x2015 <filePickModal+0x395>
    39e0: a8           	tay
    39e1: a9 00        	lda	#$0
    39e3: e5 14        	sbc	$14                     ; 0x2014 <filePickModal+0x394>
    39e5: aa           	tax
    39e6: 98           	tya
    39e7: a0 0b        	ldy	#$b
    39e9: 91 24        	sta	($24),y                 ; 0x2024 <filePickModal+0x3a4>
    39eb: 18           	clc
    39ec: a5 24        	lda	$24                     ; 0x2024 <filePickModal+0x3a4>
    39ee: 69 0b        	adc	#$b
    39f0: 85 14        	sta	$14                     ; 0x2014 <filePickModal+0x394>
    39f2: a5 25        	lda	$25                     ; 0x2025 <filePickModal+0x3a5>
    39f4: 69 00        	adc	#$0
    39f6: 85 15        	sta	$15                     ; 0x2015 <filePickModal+0x395>
    39f8: 8a           	txa
    39f9: a0 01        	ldy	#$1
    39fb: 91 14        	sta	($14),y                 ; 0x2014 <filePickModal+0x394>
    39fd: e6 12        	inc	$12                     ; 0x2012 <filePickModal+0x392>
    39ff: d0 02        	bne	$3a03 <_ZN12_GLOBAL__N_15printEPKcP6Status+0x1bb>
    3a01: e6 13        	inc	$13                     ; 0x2013 <filePickModal+0x393>
    3a03: a5 13        	lda	$13                     ; 0x2013 <filePickModal+0x393>
    3a05: 91 26        	sta	($26),y                 ; 0x2026 <filePickModal+0x3a6>
    3a07: a5 12        	lda	$12                     ; 0x2012 <filePickModal+0x392>
    3a09: 92 26        	sta	($26)                   ; 0x2026 <filePickModal+0x3a6>
    3a0b: b2 12        	lda	($12)                   ; 0x2012 <filePickModal+0x392>
    3a0d: c9 2e        	cmp	#$2e
    3a0f: f0 03        	beq	$3a14 <_ZN12_GLOBAL__N_15printEPKcP6Status+0x1cc>
    3a11: 4c 29 3b     	jmp	$3b29 <_ZN12_GLOBAL__N_15printEPKcP6Status+0x2e1>
    3a14: a6 12        	ldx	$12                     ; 0x2012 <filePickModal+0x392>
    3a16: 86 14        	stx	$14                     ; 0x2014 <filePickModal+0x394>
    3a18: a6 13        	ldx	$13                     ; 0x2013 <filePickModal+0x393>
    3a1a: 86 15        	stx	$15                     ; 0x2015 <filePickModal+0x395>
    3a1c: e6 14        	inc	$14                     ; 0x2014 <filePickModal+0x394>
    3a1e: d0 02        	bne	$3a22 <_ZN12_GLOBAL__N_15printEPKcP6Status+0x1da>
    3a20: e6 15        	inc	$15                     ; 0x2015 <filePickModal+0x395>
    3a22: a5 14        	lda	$14                     ; 0x2014 <filePickModal+0x394>
    3a24: 92 26        	sta	($26)                   ; 0x2026 <filePickModal+0x3a6>
    3a26: a5 15        	lda	$15                     ; 0x2015 <filePickModal+0x395>
    3a28: 91 26        	sta	($26),y                 ; 0x2026 <filePickModal+0x3a6>
    3a2a: b1 12        	lda	($12),y                 ; 0x2012 <filePickModal+0x392>
    3a2c: c9 2a        	cmp	#$2a
    3a2e: f0 03        	beq	$3a33 <_ZN12_GLOBAL__N_15printEPKcP6Status+0x1eb>
    3a30: 4c 9e 3a     	jmp	$3a9e <_ZN12_GLOBAL__N_15printEPKcP6Status+0x256>
    3a33: a4 24        	ldy	$24                     ; 0x2024 <filePickModal+0x3a4>
    3a35: a5 24        	lda	$24                     ; 0x2024 <filePickModal+0x3a4>
    3a37: 84 18        	sty	$18                     ; 0x2018 <filePickModal+0x398>
    3a39: 18           	clc
    3a3a: 69 11        	adc	#$11
    3a3c: 85 14        	sta	$14                     ; 0x2014 <filePickModal+0x394>
    3a3e: a5 25        	lda	$25                     ; 0x2025 <filePickModal+0x3a5>
    3a40: 69 00        	adc	#$0
    3a42: a0 11        	ldy	#$11
    3a44: 85 15        	sta	$15                     ; 0x2015 <filePickModal+0x395>
    3a46: b1 24        	lda	($24),y                 ; 0x2024 <filePickModal+0x3a4>
    3a48: 85 16        	sta	$16                     ; 0x2016 <filePickModal+0x396>
    3a4a: a0 01        	ldy	#$1
    3a4c: b1 14        	lda	($14),y                 ; 0x2014 <filePickModal+0x394>
    3a4e: 85 19        	sta	$19                     ; 0x2019 <filePickModal+0x399>
    3a50: a5 16        	lda	$16                     ; 0x2016 <filePickModal+0x396>
    3a52: a6 19        	ldx	$19                     ; 0x2019 <filePickModal+0x399>
    3a54: 86 17        	stx	$17                     ; 0x2017 <filePickModal+0x397>
    3a56: 18           	clc
    3a57: 69 02        	adc	#$2
    3a59: 85 1a        	sta	$1a                     ; 0x201a <filePickModal+0x39a>
    3a5b: a5 19        	lda	$19                     ; 0x2019 <filePickModal+0x399>
    3a5d: 69 00        	adc	#$0
    3a5f: 85 19        	sta	$19                     ; 0x2019 <filePickModal+0x399>
    3a61: a0 11        	ldy	#$11
    3a63: a5 1a        	lda	$1a                     ; 0x201a <filePickModal+0x39a>
    3a65: 91 24        	sta	($24),y                 ; 0x2024 <filePickModal+0x3a4>
    3a67: a5 19        	lda	$19                     ; 0x2019 <filePickModal+0x399>
    3a69: a0 01        	ldy	#$1
    3a6b: 91 14        	sta	($14),y                 ; 0x2014 <filePickModal+0x394>
    3a6d: b2 16        	lda	($16)                   ; 0x2016 <filePickModal+0x396>
    3a6f: 85 14        	sta	$14                     ; 0x2014 <filePickModal+0x394>
    3a71: b1 16        	lda	($16),y                 ; 0x2016 <filePickModal+0x396>
    3a73: 85 16        	sta	$16                     ; 0x2016 <filePickModal+0x396>
    3a75: a0 0d        	ldy	#$d
    3a77: a5 14        	lda	$14                     ; 0x2014 <filePickModal+0x394>
    3a79: 91 24        	sta	($24),y                 ; 0x2024 <filePickModal+0x3a4>
    3a7b: 18           	clc
    3a7c: a5 18        	lda	$18                     ; 0x2018 <filePickModal+0x398>
    3a7e: 69 0d        	adc	#$d
    3a80: 85 14        	sta	$14                     ; 0x2014 <filePickModal+0x394>
    3a82: a5 25        	lda	$25                     ; 0x2025 <filePickModal+0x3a5>
    3a84: 69 00        	adc	#$0
    3a86: 18           	clc
    3a87: 85 15        	sta	$15                     ; 0x2015 <filePickModal+0x395>
    3a89: a5 16        	lda	$16                     ; 0x2016 <filePickModal+0x396>
    3a8b: a0 01        	ldy	#$1
    3a8d: 91 14        	sta	($14),y                 ; 0x2014 <filePickModal+0x394>
    3a8f: a5 12        	lda	$12                     ; 0x2012 <filePickModal+0x392>
    3a91: 69 02        	adc	#$2
    3a93: 85 12        	sta	$12                     ; 0x2012 <filePickModal+0x392>
    3a95: a5 13        	lda	$13                     ; 0x2013 <filePickModal+0x393>
    3a97: 69 00        	adc	#$0
    3a99: 85 13        	sta	$13                     ; 0x2013 <filePickModal+0x393>
    3a9b: 4c 0d 3b     	jmp	$3b0d <_ZN12_GLOBAL__N_15printEPKcP6Status+0x2c5>
    3a9e: a6 28        	ldx	$28                     ; 0x2028 <filePickModal+0x3a8>
    3aa0: 86 2c        	stx	$2c                     ; 0x202c <filePickModal+0x3ac>
    3aa2: a6 29        	ldx	$29                     ; 0x2029 <filePickModal+0x3a9>
    3aa4: 86 2d        	stx	$2d                     ; 0x202d <filePickModal+0x3ad>
    3aa6: a6 14        	ldx	$14                     ; 0x2014 <filePickModal+0x394>
    3aa8: 86 12        	stx	$12                     ; 0x2012 <filePickModal+0x392>
    3aaa: a6 15        	ldx	$15                     ; 0x2015 <filePickModal+0x395>
    3aac: 86 13        	stx	$13                     ; 0x2013 <filePickModal+0x393>
    3aae: 18           	clc
    3aaf: a5 10        	lda	$10                     ; 0x2010 <filePickModal+0x390>
    3ab1: 69 18        	adc	#$18
    3ab3: 85 28        	sta	$28                     ; 0x2028 <filePickModal+0x3a8>
    3ab5: a5 11        	lda	$11                     ; 0x2011 <filePickModal+0x391>
    3ab7: 69 00        	adc	#$0
    3ab9: 85 29        	sta	$29                     ; 0x2029 <filePickModal+0x3a9>
    3abb: a6 28        	ldx	$28                     ; 0x2028 <filePickModal+0x3a8>
    3abd: 86 14        	stx	$14                     ; 0x2014 <filePickModal+0x394>
    3abf: 85 15        	sta	$15                     ; 0x2015 <filePickModal+0x395>
    3ac1: 20 40 4e     	jsr	$4e40 <__simple_strtoui>
    3ac4: a0 0d        	ldy	#$d
    3ac6: 91 24        	sta	($24),y                 ; 0x2024 <filePickModal+0x3a4>
    3ac8: 18           	clc
    3ac9: a5 24        	lda	$24                     ; 0x2024 <filePickModal+0x3a4>
    3acb: 69 0d        	adc	#$d
    3acd: 85 12        	sta	$12                     ; 0x2012 <filePickModal+0x392>
    3acf: a5 25        	lda	$25                     ; 0x2025 <filePickModal+0x3a5>
    3ad1: 69 00        	adc	#$0
    3ad3: 85 13        	sta	$13                     ; 0x2013 <filePickModal+0x393>
    3ad5: a0 01        	ldy	#$1
    3ad7: 8a           	txa
    3ad8: 91 12        	sta	($12),y                 ; 0x2012 <filePickModal+0x392>
    3ada: b2 28        	lda	($28)                   ; 0x2028 <filePickModal+0x3a8>
    3adc: 85 12        	sta	$12                     ; 0x2012 <filePickModal+0x392>
    3ade: b1 28        	lda	($28),y                 ; 0x2028 <filePickModal+0x3a8>
    3ae0: 85 13        	sta	$13                     ; 0x2013 <filePickModal+0x393>
    3ae2: b1 26        	lda	($26),y                 ; 0x2026 <filePickModal+0x3a6>
    3ae4: c5 13        	cmp	$13                     ; 0x2013 <filePickModal+0x393>
    3ae6: d0 1d        	bne	$3b05 <_ZN12_GLOBAL__N_15printEPKcP6Status+0x2bd>
    3ae8: b2 26        	lda	($26)                   ; 0x2026 <filePickModal+0x3a6>
    3aea: c5 12        	cmp	$12                     ; 0x2012 <filePickModal+0x392>
    3aec: d0 17        	bne	$3b05 <_ZN12_GLOBAL__N_15printEPKcP6Status+0x2bd>
    3aee: a0 0d        	ldy	#$d
    3af0: a5 24        	lda	$24                     ; 0x2024 <filePickModal+0x3a4>
    3af2: 18           	clc
    3af3: 69 0d        	adc	#$d
    3af5: 85 14        	sta	$14                     ; 0x2014 <filePickModal+0x394>
    3af7: a5 25        	lda	$25                     ; 0x2025 <filePickModal+0x3a5>
    3af9: 69 00        	adc	#$0
    3afb: 85 15        	sta	$15                     ; 0x2015 <filePickModal+0x395>
    3afd: a9 00        	lda	#$0
    3aff: 91 24        	sta	($24),y                 ; 0x2024 <filePickModal+0x3a4>
    3b01: a0 01        	ldy	#$1
    3b03: 91 14        	sta	($14),y                 ; 0x2014 <filePickModal+0x394>
    3b05: a6 2c        	ldx	$2c                     ; 0x202c <filePickModal+0x3ac>
    3b07: 86 28        	stx	$28                     ; 0x2028 <filePickModal+0x3a8>
    3b09: a6 2d        	ldx	$2d                     ; 0x202d <filePickModal+0x3ad>
    3b0b: 86 29        	stx	$29                     ; 0x2029 <filePickModal+0x3a9>
    3b0d: a6 24        	ldx	$24                     ; 0x2024 <filePickModal+0x3a4>
    3b0f: 86 14        	stx	$14                     ; 0x2014 <filePickModal+0x394>
    3b11: a6 25        	ldx	$25                     ; 0x2025 <filePickModal+0x3a5>
    3b13: 86 15        	stx	$15                     ; 0x2015 <filePickModal+0x395>
    3b15: e6 14        	inc	$14                     ; 0x2014 <filePickModal+0x394>
    3b17: d0 02        	bne	$3b1b <_ZN12_GLOBAL__N_15printEPKcP6Status+0x2d3>
    3b19: e6 15        	inc	$15                     ; 0x2015 <filePickModal+0x395>
    3b1b: b1 14        	lda	($14),y                 ; 0x2014 <filePickModal+0x394>
    3b1d: 85 16        	sta	$16                     ; 0x2016 <filePickModal+0x396>
    3b1f: a9 ef        	lda	#$ef
    3b21: 31 24        	and	($24),y                 ; 0x2024 <filePickModal+0x3a4>
    3b23: 91 24        	sta	($24),y                 ; 0x2024 <filePickModal+0x3a4>
    3b25: a5 16        	lda	$16                     ; 0x2016 <filePickModal+0x396>
    3b27: 91 14        	sta	($14),y                 ; 0x2014 <filePickModal+0x394>
    3b29: a6 12        	ldx	$12                     ; 0x2012 <filePickModal+0x392>
    3b2b: 86 14        	stx	$14                     ; 0x2014 <filePickModal+0x394>
    3b2d: a6 13        	ldx	$13                     ; 0x2013 <filePickModal+0x393>
    3b2f: 86 15        	stx	$15                     ; 0x2015 <filePickModal+0x395>
    3b31: e6 14        	inc	$14                     ; 0x2014 <filePickModal+0x394>
    3b33: d0 02        	bne	$3b37 <_ZN12_GLOBAL__N_15printEPKcP6Status+0x2ef>
    3b35: e6 15        	inc	$15                     ; 0x2015 <filePickModal+0x395>
    3b37: a5 14        	lda	$14                     ; 0x2014 <filePickModal+0x394>
    3b39: 92 26        	sta	($26)                   ; 0x2026 <filePickModal+0x3a6>
    3b3b: a5 15        	lda	$15                     ; 0x2015 <filePickModal+0x395>
    3b3d: 91 26        	sta	($26),y                 ; 0x2026 <filePickModal+0x3a6>
    3b3f: b2 12        	lda	($12)                   ; 0x2012 <filePickModal+0x392>
    3b41: 38           	sec
    3b42: aa           	tax
    3b43: e9 6c        	sbc	#$6c
    3b45: 50 02        	bvc	$3b49 <_ZN12_GLOBAL__N_15printEPKcP6Status+0x301>
    3b47: 49 80        	eor	#$80
    3b49: c9 00        	cmp	#$0
    3b4b: 10 16        	bpl	$3b63 <_ZN12_GLOBAL__N_15printEPKcP6Status+0x31b>
    3b4d: e0 4c        	cpx	#$4c
    3b4f: f0 3c        	beq	$3b8d <_ZN12_GLOBAL__N_15printEPKcP6Status+0x345>
    3b51: 8a           	txa
    3b52: e0 68        	cpx	#$68
    3b54: d0 03        	bne	$3b59 <_ZN12_GLOBAL__N_15printEPKcP6Status+0x311>
    3b56: 4c 09 3c     	jmp	$3c09 <_ZN12_GLOBAL__N_15printEPKcP6Status+0x3c1>
    3b59: a2 08        	ldx	#$8
    3b5b: a0 08        	ldy	#$8
    3b5d: c9 6a        	cmp	#$6a
    3b5f: d0 14        	bne	$3b75 <_ZN12_GLOBAL__N_15printEPKcP6Status+0x32d>
    3b61: 80 4a        	bra	$3bad <_ZN12_GLOBAL__N_15printEPKcP6Status+0x365>
    3b63: e0 6c        	cpx	#$6c
    3b65: d0 03        	bne	$3b6a <_ZN12_GLOBAL__N_15printEPKcP6Status+0x322>
    3b67: 4c d4 3b     	jmp	$3bd4 <_ZN12_GLOBAL__N_15printEPKcP6Status+0x38c>
    3b6a: 8a           	txa
    3b6b: e0 74        	cpx	#$74
    3b6d: f0 3a        	beq	$3ba9 <_ZN12_GLOBAL__N_15printEPKcP6Status+0x361>
    3b6f: a2 02        	ldx	#$2
    3b71: c9 7a        	cmp	#$7a
    3b73: f0 14        	beq	$3b89 <_ZN12_GLOBAL__N_15printEPKcP6Status+0x341>
    3b75: a5 12        	lda	$12                     ; 0x2012 <filePickModal+0x392>
    3b77: 92 26        	sta	($26)                   ; 0x2026 <filePickModal+0x3a6>
    3b79: a0 01        	ldy	#$1
    3b7b: a5 13        	lda	$13                     ; 0x2013 <filePickModal+0x393>
    3b7d: 91 26        	sta	($26),y                 ; 0x2026 <filePickModal+0x3a6>
    3b7f: a6 12        	ldx	$12                     ; 0x2012 <filePickModal+0x392>
    3b81: 86 14        	stx	$14                     ; 0x2014 <filePickModal+0x394>
    3b83: a6 13        	ldx	$13                     ; 0x2013 <filePickModal+0x393>
    3b85: 86 15        	stx	$15                     ; 0x2015 <filePickModal+0x395>
    3b87: a2 02        	ldx	#$2
    3b89: a0 02        	ldy	#$2
    3b8b: 80 20        	bra	$3bad <_ZN12_GLOBAL__N_15printEPKcP6Status+0x365>
    3b8d: a6 24        	ldx	$24                     ; 0x2024 <filePickModal+0x3a4>
    3b8f: 86 12        	stx	$12                     ; 0x2012 <filePickModal+0x392>
    3b91: a6 25        	ldx	$25                     ; 0x2025 <filePickModal+0x3a5>
    3b93: 86 13        	stx	$13                     ; 0x2013 <filePickModal+0x393>
    3b95: e6 12        	inc	$12                     ; 0x2012 <filePickModal+0x392>
    3b97: d0 02        	bne	$3b9b <_ZN12_GLOBAL__N_15printEPKcP6Status+0x353>
    3b99: e6 13        	inc	$13                     ; 0x2013 <filePickModal+0x393>
    3b9b: b1 12        	lda	($12),y                 ; 0x2012 <filePickModal+0x392>
    3b9d: 85 16        	sta	$16                     ; 0x2016 <filePickModal+0x396>
    3b9f: a9 40        	lda	#$40
    3ba1: 11 24        	ora	($24),y                 ; 0x2024 <filePickModal+0x3a4>
    3ba3: 91 24        	sta	($24),y                 ; 0x2024 <filePickModal+0x3a4>
    3ba5: a5 16        	lda	$16                     ; 0x2016 <filePickModal+0x396>
    3ba7: 91 12        	sta	($12),y                 ; 0x2012 <filePickModal+0x392>
    3ba9: a0 02        	ldy	#$2
    3bab: a2 02        	ldx	#$2
    3bad: b2 14        	lda	($14)                   ; 0x2014 <filePickModal+0x394>
    3baf: 85 16        	sta	$16                     ; 0x2016 <filePickModal+0x396>
    3bb1: 86 2b        	stx	$2b                     ; 0x202b <filePickModal+0x3ab>
    3bb3: 98           	tya
    3bb4: a0 0c        	ldy	#$c
    3bb6: 91 10        	sta	($10),y                 ; 0x2010 <filePickModal+0x390>
    3bb8: 18           	clc
    3bb9: a5 16        	lda	$16                     ; 0x2016 <filePickModal+0x396>
    3bbb: 69 9d        	adc	#$9d
    3bbd: c9 16        	cmp	#$16
    3bbf: 90 03        	bcc	$3bc4 <_ZN12_GLOBAL__N_15printEPKcP6Status+0x37c>
    3bc1: 4c 3d 3c     	jmp	$3c3d <_ZN12_GLOBAL__N_15printEPKcP6Status+0x3f5>
    3bc4: aa           	tax
    3bc5: b1 10        	lda	($10),y                 ; 0x2010 <filePickModal+0x390>
    3bc7: 8a           	txa
    3bc8: 0a           	asl
    3bc9: aa           	tax
    3bca: 7c 1a 52     	jmp	($521a,x)               ; 0x521a <__BLOCK_SIZE+0x321a>
    3bcd: a9 0a        	lda	#$a
    3bcf: 92 24        	sta	($24)                   ; 0x2024 <filePickModal+0x3a4>
    3bd1: 4c a6 3d     	jmp	$3da6 <_ZN12_GLOBAL__N_15printEPKcP6Status+0x55e>
    3bd4: b1 12        	lda	($12),y                 ; 0x2012 <filePickModal+0x392>
    3bd6: a2 04        	ldx	#$4
    3bd8: a0 04        	ldy	#$4
    3bda: 48           	pha
    3bdb: 98           	tya
    3bdc: a0 0c        	ldy	#$c
    3bde: 91 10        	sta	($10),y                 ; 0x2010 <filePickModal+0x390>
    3be0: 68           	pla
    3be1: 86 2b        	stx	$2b                     ; 0x202b <filePickModal+0x3ab>
    3be3: 85 16        	sta	$16                     ; 0x2016 <filePickModal+0x396>
    3be5: c9 6c        	cmp	#$6c
    3be7: d0 cf        	bne	$3bb8 <_ZN12_GLOBAL__N_15printEPKcP6Status+0x370>
    3be9: a5 12        	lda	$12                     ; 0x2012 <filePickModal+0x392>
    3beb: 18           	clc
    3bec: 69 02        	adc	#$2
    3bee: aa           	tax
    3bef: a5 13        	lda	$13                     ; 0x2013 <filePickModal+0x393>
    3bf1: 69 00        	adc	#$0
    3bf3: 86 14        	stx	$14                     ; 0x2014 <filePickModal+0x394>
    3bf5: 85 15        	sta	$15                     ; 0x2015 <filePickModal+0x395>
    3bf7: 85 12        	sta	$12                     ; 0x2012 <filePickModal+0x392>
    3bf9: 8a           	txa
    3bfa: 92 26        	sta	($26)                   ; 0x2026 <filePickModal+0x3a6>
    3bfc: a0 01        	ldy	#$1
    3bfe: a5 12        	lda	$12                     ; 0x2012 <filePickModal+0x392>
    3c00: 91 26        	sta	($26),y                 ; 0x2026 <filePickModal+0x3a6>
    3c02: a2 08        	ldx	#$8
    3c04: a0 08        	ldy	#$8
    3c06: 4c ad 3b     	jmp	$3bad <_ZN12_GLOBAL__N_15printEPKcP6Status+0x365>
    3c09: b1 12        	lda	($12),y                 ; 0x2012 <filePickModal+0x392>
    3c0b: a2 02        	ldx	#$2
    3c0d: a0 02        	ldy	#$2
    3c0f: 48           	pha
    3c10: 98           	tya
    3c11: a0 0c        	ldy	#$c
    3c13: 91 10        	sta	($10),y                 ; 0x2010 <filePickModal+0x390>
    3c15: 68           	pla
    3c16: 86 2b        	stx	$2b                     ; 0x202b <filePickModal+0x3ab>
    3c18: 85 16        	sta	$16                     ; 0x2016 <filePickModal+0x396>
    3c1a: c9 68        	cmp	#$68
    3c1c: f0 03        	beq	$3c21 <_ZN12_GLOBAL__N_15printEPKcP6Status+0x3d9>
    3c1e: 4c b8 3b     	jmp	$3bb8 <_ZN12_GLOBAL__N_15printEPKcP6Status+0x370>
    3c21: a5 12        	lda	$12                     ; 0x2012 <filePickModal+0x392>
    3c23: 18           	clc
    3c24: 69 02        	adc	#$2
    3c26: aa           	tax
    3c27: a5 13        	lda	$13                     ; 0x2013 <filePickModal+0x393>
    3c29: 69 00        	adc	#$0
    3c2b: 86 14        	stx	$14                     ; 0x2014 <filePickModal+0x394>
    3c2d: 85 15        	sta	$15                     ; 0x2015 <filePickModal+0x395>
    3c2f: 85 12        	sta	$12                     ; 0x2012 <filePickModal+0x392>
    3c31: 8a           	txa
    3c32: 92 26        	sta	($26)                   ; 0x2026 <filePickModal+0x3a6>
    3c34: a0 01        	ldy	#$1
    3c36: a5 12        	lda	$12                     ; 0x2012 <filePickModal+0x392>
    3c38: 91 26        	sta	($26),y                 ; 0x2026 <filePickModal+0x3a6>
    3c3a: 4c ab 3b     	jmp	$3bab <_ZN12_GLOBAL__N_15printEPKcP6Status+0x363>
    3c3d: a6 16        	ldx	$16                     ; 0x2016 <filePickModal+0x396>
    3c3f: e0 58        	cpx	#$58
    3c41: f0 03        	beq	$3c46 <_ZN12_GLOBAL__N_15printEPKcP6Status+0x3fe>
    3c43: 4c 41 43     	jmp	$4341 <_ZN12_GLOBAL__N_15printEPKcP6Status+0xaf9>
    3c46: a9 10        	lda	#$10
    3c48: 4c 85 3d     	jmp	$3d85 <_ZN12_GLOBAL__N_15printEPKcP6Status+0x53d>
    3c4b: a9 10        	lda	#$10
    3c4d: 92 24        	sta	($24)                   ; 0x2024 <filePickModal+0x3a4>
    3c4f: a6 24        	ldx	$24                     ; 0x2024 <filePickModal+0x3a4>
    3c51: 86 12        	stx	$12                     ; 0x2012 <filePickModal+0x392>
    3c53: a6 25        	ldx	$25                     ; 0x2025 <filePickModal+0x3a5>
    3c55: 86 13        	stx	$13                     ; 0x2013 <filePickModal+0x393>
    3c57: e6 12        	inc	$12                     ; 0x2012 <filePickModal+0x392>
    3c59: d0 02        	bne	$3c5d <_ZN12_GLOBAL__N_15printEPKcP6Status+0x415>
    3c5b: e6 13        	inc	$13                     ; 0x2013 <filePickModal+0x393>
    3c5d: a0 01        	ldy	#$1
    3c5f: a9 84        	lda	#$84
    3c61: 80 16        	bra	$3c79 <_ZN12_GLOBAL__N_15printEPKcP6Status+0x431>
    3c63: a9 10        	lda	#$10
    3c65: 92 24        	sta	($24)                   ; 0x2024 <filePickModal+0x3a4>
    3c67: a6 24        	ldx	$24                     ; 0x2024 <filePickModal+0x3a4>
    3c69: 86 12        	stx	$12                     ; 0x2012 <filePickModal+0x392>
    3c6b: a6 25        	ldx	$25                     ; 0x2025 <filePickModal+0x3a5>
    3c6d: 86 13        	stx	$13                     ; 0x2013 <filePickModal+0x393>
    3c6f: e6 12        	inc	$12                     ; 0x2012 <filePickModal+0x392>
    3c71: d0 02        	bne	$3c75 <_ZN12_GLOBAL__N_15printEPKcP6Status+0x42d>
    3c73: e6 13        	inc	$13                     ; 0x2013 <filePickModal+0x393>
    3c75: a0 01        	ldy	#$1
    3c77: a9 80        	lda	#$80
    3c79: 11 24        	ora	($24),y                 ; 0x2024 <filePickModal+0x3a4>
    3c7b: aa           	tax
    3c7c: a9 01        	lda	#$1
    3c7e: 11 12        	ora	($12),y                 ; 0x2012 <filePickModal+0x392>
    3c80: 85 14        	sta	$14                     ; 0x2014 <filePickModal+0x394>
    3c82: 8a           	txa
    3c83: 91 24        	sta	($24),y                 ; 0x2024 <filePickModal+0x3a4>
    3c85: a5 14        	lda	$14                     ; 0x2014 <filePickModal+0x394>
    3c87: 4c a4 3d     	jmp	$3da4 <_ZN12_GLOBAL__N_15printEPKcP6Status+0x55c>
    3c8a: a4 24        	ldy	$24                     ; 0x2024 <filePickModal+0x3a4>
    3c8c: 18           	clc
    3c8d: a5 24        	lda	$24                     ; 0x2024 <filePickModal+0x3a4>
    3c8f: 84 18        	sty	$18                     ; 0x2018 <filePickModal+0x398>
    3c91: 69 11        	adc	#$11
    3c93: 85 12        	sta	$12                     ; 0x2012 <filePickModal+0x392>
    3c95: a5 25        	lda	$25                     ; 0x2025 <filePickModal+0x3a5>
    3c97: 69 00        	adc	#$0
    3c99: 85 13        	sta	$13                     ; 0x2013 <filePickModal+0x393>
    3c9b: a0 11        	ldy	#$11
    3c9d: b1 24        	lda	($24),y                 ; 0x2024 <filePickModal+0x3a4>
    3c9f: 85 16        	sta	$16                     ; 0x2016 <filePickModal+0x396>
    3ca1: 18           	clc
    3ca2: 69 02        	adc	#$2
    3ca4: 91 24        	sta	($24),y                 ; 0x2024 <filePickModal+0x3a4>
    3ca6: a0 01        	ldy	#$1
    3ca8: b1 12        	lda	($12),y                 ; 0x2012 <filePickModal+0x392>
    3caa: 85 17        	sta	$17                     ; 0x2017 <filePickModal+0x397>
    3cac: 69 00        	adc	#$0
    3cae: 18           	clc
    3caf: 91 12        	sta	($12),y                 ; 0x2012 <filePickModal+0x392>
    3cb1: b2 16        	lda	($16)                   ; 0x2016 <filePickModal+0x396>
    3cb3: 85 12        	sta	$12                     ; 0x2012 <filePickModal+0x392>
    3cb5: b1 16        	lda	($16),y                 ; 0x2016 <filePickModal+0x396>
    3cb7: 85 13        	sta	$13                     ; 0x2013 <filePickModal+0x393>
    3cb9: a5 18        	lda	$18                     ; 0x2018 <filePickModal+0x398>
    3cbb: 69 05        	adc	#$5
    3cbd: 85 16        	sta	$16                     ; 0x2016 <filePickModal+0x396>
    3cbf: a5 25        	lda	$25                     ; 0x2025 <filePickModal+0x3a5>
    3cc1: 69 00        	adc	#$0
    3cc3: 85 17        	sta	$17                     ; 0x2017 <filePickModal+0x397>
    3cc5: a0 05        	ldy	#$5
    3cc7: b1 24        	lda	($24),y                 ; 0x2024 <filePickModal+0x3a4>
    3cc9: 85 18        	sta	$18                     ; 0x2018 <filePickModal+0x398>
    3ccb: a0 01        	ldy	#$1
    3ccd: b1 16        	lda	($16),y                 ; 0x2016 <filePickModal+0x396>
    3ccf: 85 16        	sta	$16                     ; 0x2016 <filePickModal+0x396>
    3cd1: a5 18        	lda	$18                     ; 0x2018 <filePickModal+0x398>
    3cd3: 92 12        	sta	($12)                   ; 0x2012 <filePickModal+0x392>
    3cd5: a5 16        	lda	$16                     ; 0x2016 <filePickModal+0x396>
    3cd7: 91 12        	sta	($12),y                 ; 0x2012 <filePickModal+0x392>
    3cd9: e6 14        	inc	$14                     ; 0x2014 <filePickModal+0x394>
    3cdb: d0 02        	bne	$3cdf <_ZN12_GLOBAL__N_15printEPKcP6Status+0x497>
    3cdd: e6 15        	inc	$15                     ; 0x2015 <filePickModal+0x395>
    3cdf: a6 14        	ldx	$14                     ; 0x2014 <filePickModal+0x394>
    3ce1: 86 28        	stx	$28                     ; 0x2028 <filePickModal+0x3a8>
    3ce3: a6 15        	ldx	$15                     ; 0x2015 <filePickModal+0x395>
    3ce5: 86 29        	stx	$29                     ; 0x2029 <filePickModal+0x3a9>
    3ce7: 4c 41 43     	jmp	$4341 <_ZN12_GLOBAL__N_15printEPKcP6Status+0xaf9>
    3cea: a0 11        	ldy	#$11
    3cec: a5 24        	lda	$24                     ; 0x2024 <filePickModal+0x3a4>
    3cee: 18           	clc
    3cef: 69 11        	adc	#$11
    3cf1: 85 12        	sta	$12                     ; 0x2012 <filePickModal+0x392>
    3cf3: a5 25        	lda	$25                     ; 0x2025 <filePickModal+0x3a5>
    3cf5: 69 00        	adc	#$0
    3cf7: 85 13        	sta	$13                     ; 0x2013 <filePickModal+0x393>
    3cf9: b1 24        	lda	($24),y                 ; 0x2024 <filePickModal+0x3a4>
    3cfb: aa           	tax
    3cfc: a0 01        	ldy	#$1
    3cfe: b1 12        	lda	($12),y                 ; 0x2012 <filePickModal+0x392>
    3d00: 86 14        	stx	$14                     ; 0x2014 <filePickModal+0x394>
    3d02: 85 15        	sta	$15                     ; 0x2015 <filePickModal+0x395>
    3d04: a8           	tay
    3d05: 18           	clc
    3d06: 8a           	txa
    3d07: 69 02        	adc	#$2
    3d09: 85 16        	sta	$16                     ; 0x2016 <filePickModal+0x396>
    3d0b: 98           	tya
    3d0c: 69 00        	adc	#$0
    3d0e: 85 17        	sta	$17                     ; 0x2017 <filePickModal+0x397>
    3d10: a5 16        	lda	$16                     ; 0x2016 <filePickModal+0x396>
    3d12: a0 11        	ldy	#$11
    3d14: 91 24        	sta	($24),y                 ; 0x2024 <filePickModal+0x3a4>
    3d16: a0 01        	ldy	#$1
    3d18: a5 17        	lda	$17                     ; 0x2017 <filePickModal+0x397>
    3d1a: 91 12        	sta	($12),y                 ; 0x2012 <filePickModal+0x392>
    3d1c: b2 14        	lda	($14)                   ; 0x2014 <filePickModal+0x394>
    3d1e: 85 12        	sta	$12                     ; 0x2012 <filePickModal+0x392>
    3d20: b1 14        	lda	($14),y                 ; 0x2014 <filePickModal+0x394>
    3d22: 85 13        	sta	$13                     ; 0x2013 <filePickModal+0x393>
    3d24: 4c 75 3d     	jmp	$3d75 <_ZN12_GLOBAL__N_15printEPKcP6Status+0x52d>
    3d27: a9 08        	lda	#$8
    3d29: 4c 85 3d     	jmp	$3d85 <_ZN12_GLOBAL__N_15printEPKcP6Status+0x53d>
    3d2c: a0 11        	ldy	#$11
    3d2e: a5 24        	lda	$24                     ; 0x2024 <filePickModal+0x3a4>
    3d30: 18           	clc
    3d31: 69 11        	adc	#$11
    3d33: 85 12        	sta	$12                     ; 0x2012 <filePickModal+0x392>
    3d35: a5 25        	lda	$25                     ; 0x2025 <filePickModal+0x3a5>
    3d37: 69 00        	adc	#$0
    3d39: 85 13        	sta	$13                     ; 0x2013 <filePickModal+0x393>
    3d3b: b1 24        	lda	($24),y                 ; 0x2024 <filePickModal+0x3a4>
    3d3d: aa           	tax
    3d3e: a0 01        	ldy	#$1
    3d40: b1 12        	lda	($12),y                 ; 0x2012 <filePickModal+0x392>
    3d42: 86 14        	stx	$14                     ; 0x2014 <filePickModal+0x394>
    3d44: 85 15        	sta	$15                     ; 0x2015 <filePickModal+0x395>
    3d46: a8           	tay
    3d47: 18           	clc
    3d48: 8a           	txa
    3d49: 69 02        	adc	#$2
    3d4b: 85 16        	sta	$16                     ; 0x2016 <filePickModal+0x396>
    3d4d: 98           	tya
    3d4e: 69 00        	adc	#$0
    3d50: 85 17        	sta	$17                     ; 0x2017 <filePickModal+0x397>
    3d52: a5 16        	lda	$16                     ; 0x2016 <filePickModal+0x396>
    3d54: a0 11        	ldy	#$11
    3d56: 91 24        	sta	($24),y                 ; 0x2024 <filePickModal+0x3a4>
    3d58: a0 01        	ldy	#$1
    3d5a: a5 17        	lda	$17                     ; 0x2017 <filePickModal+0x397>
    3d5c: 91 12        	sta	($12),y                 ; 0x2012 <filePickModal+0x392>
    3d5e: b2 14        	lda	($14)                   ; 0x2014 <filePickModal+0x394>
    3d60: 18           	clc
    3d61: 48           	pha
    3d62: a5 10        	lda	$10                     ; 0x2010 <filePickModal+0x390>
    3d64: 69 18        	adc	#$18
    3d66: 85 12        	sta	$12                     ; 0x2012 <filePickModal+0x392>
    3d68: a5 11        	lda	$11                     ; 0x2011 <filePickModal+0x391>
    3d6a: 69 00        	adc	#$0
    3d6c: 85 13        	sta	$13                     ; 0x2013 <filePickModal+0x393>
    3d6e: 68           	pla
    3d6f: 92 12        	sta	($12)                   ; 0x2012 <filePickModal+0x392>
    3d71: a9 00        	lda	#$0
    3d73: 91 12        	sta	($12),y                 ; 0x2012 <filePickModal+0x392>
    3d75: a6 24        	ldx	$24                     ; 0x2024 <filePickModal+0x3a4>
    3d77: 86 14        	stx	$14                     ; 0x2014 <filePickModal+0x394>
    3d79: a6 25        	ldx	$25                     ; 0x2025 <filePickModal+0x3a5>
    3d7b: 86 15        	stx	$15                     ; 0x2015 <filePickModal+0x395>
    3d7d: 20 6d 44     	jsr	$446d <_ZN12_GLOBAL__N_112print_stringEPKcP6Status>
    3d80: 4c 31 43     	jmp	$4331 <_ZN12_GLOBAL__N_15printEPKcP6Status+0xae9>
    3d83: a9 0a        	lda	#$a
    3d85: 92 24        	sta	($24)                   ; 0x2024 <filePickModal+0x3a4>
    3d87: a6 24        	ldx	$24                     ; 0x2024 <filePickModal+0x3a4>
    3d89: 86 12        	stx	$12                     ; 0x2012 <filePickModal+0x392>
    3d8b: a6 25        	ldx	$25                     ; 0x2025 <filePickModal+0x3a5>
    3d8d: 86 13        	stx	$13                     ; 0x2013 <filePickModal+0x393>
    3d8f: e6 12        	inc	$12                     ; 0x2012 <filePickModal+0x392>
    3d91: d0 02        	bne	$3d95 <_ZN12_GLOBAL__N_15printEPKcP6Status+0x54d>
    3d93: e6 13        	inc	$13                     ; 0x2013 <filePickModal+0x393>
    3d95: a0 01        	ldy	#$1
    3d97: b1 24        	lda	($24),y                 ; 0x2024 <filePickModal+0x3a4>
    3d99: 85 14        	sta	$14                     ; 0x2014 <filePickModal+0x394>
    3d9b: 98           	tya
    3d9c: 11 12        	ora	($12),y                 ; 0x2012 <filePickModal+0x392>
    3d9e: aa           	tax
    3d9f: a5 14        	lda	$14                     ; 0x2014 <filePickModal+0x394>
    3da1: 91 24        	sta	($24),y                 ; 0x2024 <filePickModal+0x3a4>
    3da3: 8a           	txa
    3da4: 91 12        	sta	($12),y                 ; 0x2012 <filePickModal+0x392>
    3da6: 18           	clc
    3da7: a5 10        	lda	$10                     ; 0x2010 <filePickModal+0x390>
    3da9: 69 0d        	adc	#$d
    3dab: 85 28        	sta	$28                     ; 0x2028 <filePickModal+0x3a8>
    3dad: a5 11        	lda	$11                     ; 0x2011 <filePickModal+0x391>
    3daf: 69 00        	adc	#$0
    3db1: 85 29        	sta	$29                     ; 0x2029 <filePickModal+0x3a9>
    3db3: a6 28        	ldx	$28                     ; 0x2028 <filePickModal+0x3a8>
    3db5: 86 12        	stx	$12                     ; 0x2012 <filePickModal+0x392>
    3db7: 85 13        	sta	$13                     ; 0x2013 <filePickModal+0x393>
    3db9: a0 0c        	ldy	#$c
    3dbb: b1 10        	lda	($10),y                 ; 0x2010 <filePickModal+0x390>
    3dbd: 20 60 05     	jsr	$560 <_ZN6__impl6VarInt4makeEPvc>
    3dc0: a6 28        	ldx	$28                     ; 0x2028 <filePickModal+0x3a8>
    3dc2: 86 12        	stx	$12                     ; 0x2012 <filePickModal+0x392>
    3dc4: a6 29        	ldx	$29                     ; 0x2029 <filePickModal+0x3a9>
    3dc6: 86 13        	stx	$13                     ; 0x2013 <filePickModal+0x393>
    3dc8: e6 12        	inc	$12                     ; 0x2012 <filePickModal+0x392>
    3dca: d0 02        	bne	$3dce <_ZN12_GLOBAL__N_15printEPKcP6Status+0x586>
    3dcc: e6 13        	inc	$13                     ; 0x2013 <filePickModal+0x393>
    3dce: a0 11        	ldy	#$11
    3dd0: a2 00        	ldx	#$0
    3dd2: a5 24        	lda	$24                     ; 0x2024 <filePickModal+0x3a4>
    3dd4: 18           	clc
    3dd5: 69 11        	adc	#$11
    3dd7: 85 2c        	sta	$2c                     ; 0x202c <filePickModal+0x3ac>
    3dd9: a5 25        	lda	$25                     ; 0x2025 <filePickModal+0x3a5>
    3ddb: 69 00        	adc	#$0
    3ddd: 85 2d        	sta	$2d                     ; 0x202d <filePickModal+0x3ad>
    3ddf: b1 24        	lda	($24),y                 ; 0x2024 <filePickModal+0x3a4>
    3de1: 85 2f        	sta	$2f                     ; 0x202f <filePickModal+0x3af>
    3de3: a0 01        	ldy	#$1
    3de5: b1 2c        	lda	($2c),y                 ; 0x202c <filePickModal+0x3ac>
    3de7: a4 2f        	ldy	$2f                     ; 0x202f <filePickModal+0x3af>
    3de9: 84 14        	sty	$14                     ; 0x2014 <filePickModal+0x394>
    3deb: 85 15        	sta	$15                     ; 0x2015 <filePickModal+0x395>
    3ded: 85 2e        	sta	$2e                     ; 0x202e <filePickModal+0x3ae>
    3def: b2 28        	lda	($28)                   ; 0x2028 <filePickModal+0x3a8>
    3df1: 64 16        	stz	$16                     ; 0x2016 <filePickModal+0x396>
    3df3: 48           	pha
    3df4: 8a           	txa
    3df5: a0 0c        	ldy	#$c
    3df7: 91 10        	sta	($10),y                 ; 0x2010 <filePickModal+0x390>
    3df9: 68           	pla
    3dfa: 20 9a 4c     	jsr	$4c9a <memcpy>
    3dfd: 18           	clc
    3dfe: a9 00        	lda	#$0
    3e00: a0 0a        	ldy	#$a
    3e02: 91 10        	sta	($10),y                 ; 0x2010 <filePickModal+0x390>
    3e04: a5 2f        	lda	$2f                     ; 0x202f <filePickModal+0x3af>
    3e06: 65 2b        	adc	$2b                     ; 0x202b <filePickModal+0x3ab>
    3e08: aa           	tax
    3e09: a5 2e        	lda	$2e                     ; 0x202e <filePickModal+0x3ae>
    3e0b: 69 00        	adc	#$0
    3e0d: 85 12        	sta	$12                     ; 0x2012 <filePickModal+0x392>
    3e0f: a0 11        	ldy	#$11
    3e11: 8a           	txa
    3e12: 91 24        	sta	($24),y                 ; 0x2024 <filePickModal+0x3a4>
    3e14: a0 01        	ldy	#$1
    3e16: a5 12        	lda	$12                     ; 0x2012 <filePickModal+0x392>
    3e18: 91 2c        	sta	($2c),y                 ; 0x202c <filePickModal+0x3ac>
    3e1a: a6 24        	ldx	$24                     ; 0x2024 <filePickModal+0x3a4>
    3e1c: 86 12        	stx	$12                     ; 0x2012 <filePickModal+0x392>
    3e1e: a6 25        	ldx	$25                     ; 0x2025 <filePickModal+0x3a5>
    3e20: 86 13        	stx	$13                     ; 0x2013 <filePickModal+0x393>
    3e22: e6 12        	inc	$12                     ; 0x2012 <filePickModal+0x392>
    3e24: d0 02        	bne	$3e28 <_ZN12_GLOBAL__N_15printEPKcP6Status+0x5e0>
    3e26: e6 13        	inc	$13                     ; 0x2013 <filePickModal+0x393>
    3e28: a9 01        	lda	#$1
    3e2a: 31 12        	and	($12),y                 ; 0x2012 <filePickModal+0x392>
    3e2c: d0 21        	bne	$3e4f <_ZN12_GLOBAL__N_15printEPKcP6Status+0x607>
    3e2e: a6 28        	ldx	$28                     ; 0x2028 <filePickModal+0x3a8>
    3e30: 86 12        	stx	$12                     ; 0x2012 <filePickModal+0x392>
    3e32: a6 29        	ldx	$29                     ; 0x2029 <filePickModal+0x3a9>
    3e34: 86 13        	stx	$13                     ; 0x2013 <filePickModal+0x393>
    3e36: 20 72 05     	jsr	$572 <_ZNK6__impl6VarInt8negativeEv>
    3e39: 29 01        	and	#$1
    3e3b: f0 12        	beq	$3e4f <_ZN12_GLOBAL__N_15printEPKcP6Status+0x607>
    3e3d: a6 28        	ldx	$28                     ; 0x2028 <filePickModal+0x3a8>
    3e3f: 86 12        	stx	$12                     ; 0x2012 <filePickModal+0x392>
    3e41: a6 29        	ldx	$29                     ; 0x2029 <filePickModal+0x3a9>
    3e43: 86 13        	stx	$13                     ; 0x2013 <filePickModal+0x393>
    3e45: 20 80 05     	jsr	$580 <_ZN6__impl6VarInt6negateEv>
    3e48: 38           	sec
    3e49: a9 01        	lda	#$1
    3e4b: a0 0a        	ldy	#$a
    3e4d: 91 10        	sta	($10),y                 ; 0x2010 <filePickModal+0x390>
    3e4f: b2 28        	lda	($28)                   ; 0x2028 <filePickModal+0x3a8>
    3e51: d0 03        	bne	$3e56 <_ZN12_GLOBAL__N_15printEPKcP6Status+0x60e>
    3e53: 4c 4d 3f     	jmp	$3f4d <_ZN12_GLOBAL__N_15printEPKcP6Status+0x705>
    3e56: b2 24        	lda	($24)                   ; 0x2024 <filePickModal+0x3a4>
    3e58: 85 2b        	sta	$2b                     ; 0x202b <filePickModal+0x3ab>
    3e5a: 18           	clc
    3e5b: a5 10        	lda	$10                     ; 0x2010 <filePickModal+0x390>
    3e5d: 69 18        	adc	#$18
    3e5f: 48           	pha
    3e60: a5 11        	lda	$11                     ; 0x2011 <filePickModal+0x391>
    3e62: 69 00        	adc	#$0
    3e64: 85 12        	sta	$12                     ; 0x2012 <filePickModal+0x392>
    3e66: 68           	pla
    3e67: 18           	clc
    3e68: 69 02        	adc	#$2
    3e6a: 85 2c        	sta	$2c                     ; 0x202c <filePickModal+0x3ac>
    3e6c: a5 12        	lda	$12                     ; 0x2012 <filePickModal+0x392>
    3e6e: 69 00        	adc	#$0
    3e70: 85 2d        	sta	$2d                     ; 0x202d <filePickModal+0x3ad>
    3e72: a2 00        	ldx	#$0
    3e74: a0 00        	ldy	#$0
    3e76: 8a           	txa
    3e77: d0 03        	bne	$3e7c <_ZN12_GLOBAL__N_15printEPKcP6Status+0x634>
    3e79: 4c f6 3e     	jmp	$3ef6 <_ZN12_GLOBAL__N_15printEPKcP6Status+0x6ae>
    3e7c: 84 2f        	sty	$2f                     ; 0x202f <filePickModal+0x3af>
    3e7e: 86 2e        	stx	$2e                     ; 0x202e <filePickModal+0x3ae>
    3e80: ca           	dex
    3e81: 86 13        	stx	$13                     ; 0x2013 <filePickModal+0x393>
    3e83: a2 00        	ldx	#$0
    3e85: 64 12        	stz	$12                     ; 0x2012 <filePickModal+0x392>
    3e87: 80 0c        	bra	$3e95 <_ZN12_GLOBAL__N_15printEPKcP6Status+0x64d>
    3e89: a4 12        	ldy	$12                     ; 0x2012 <filePickModal+0x392>
    3e8b: 91 2c        	sta	($2c),y                 ; 0x202c <filePickModal+0x3ac>
    3e8d: a4 13        	ldy	$13                     ; 0x2013 <filePickModal+0x393>
    3e8f: c4 12        	cpy	$12                     ; 0x2012 <filePickModal+0x392>
    3e91: f0 2f        	beq	$3ec2 <_ZN12_GLOBAL__N_15printEPKcP6Status+0x67a>
    3e93: e6 12        	inc	$12                     ; 0x2012 <filePickModal+0x392>
    3e95: a4 12        	ldy	$12                     ; 0x2012 <filePickModal+0x392>
    3e97: b1 2c        	lda	($2c),y                 ; 0x202c <filePickModal+0x3ac>
    3e99: 0a           	asl
    3e9a: e0 00        	cpx	#$0
    3e9c: f0 02        	beq	$3ea0 <_ZN12_GLOBAL__N_15printEPKcP6Status+0x658>
    3e9e: 09 01        	ora	#$1
    3ea0: c5 2b        	cmp	$2b                     ; 0x202b <filePickModal+0x3ab>
    3ea2: a2 01        	ldx	#$1
    3ea4: b0 02        	bcs	$3ea8 <_ZN12_GLOBAL__N_15printEPKcP6Status+0x660>
    3ea6: a2 00        	ldx	#$0
    3ea8: 90 df        	bcc	$3e89 <_ZN12_GLOBAL__N_15printEPKcP6Status+0x641>
    3eaa: 38           	sec
    3eab: e5 2b        	sbc	$2b                     ; 0x202b <filePickModal+0x3ab>
    3ead: a4 12        	ldy	$12                     ; 0x2012 <filePickModal+0x392>
    3eaf: 91 2c        	sta	($2c),y                 ; 0x202c <filePickModal+0x3ac>
    3eb1: a4 13        	ldy	$13                     ; 0x2013 <filePickModal+0x393>
    3eb3: c4 12        	cpy	$12                     ; 0x2012 <filePickModal+0x392>
    3eb5: d0 dc        	bne	$3e93 <_ZN12_GLOBAL__N_15printEPKcP6Status+0x64b>
    3eb7: a4 2e        	ldy	$2e                     ; 0x202e <filePickModal+0x3ae>
    3eb9: a6 2e        	ldx	$2e                     ; 0x202e <filePickModal+0x3ae>
    3ebb: e8           	inx
    3ebc: a9 01        	lda	#$1
    3ebe: 91 2c        	sta	($2c),y                 ; 0x202c <filePickModal+0x3ac>
    3ec0: 86 2e        	stx	$2e                     ; 0x202e <filePickModal+0x3ae>
    3ec2: a6 28        	ldx	$28                     ; 0x2028 <filePickModal+0x3a8>
    3ec4: 86 12        	stx	$12                     ; 0x2012 <filePickModal+0x392>
    3ec6: a6 29        	ldx	$29                     ; 0x2029 <filePickModal+0x3a9>
    3ec8: 86 13        	stx	$13                     ; 0x2013 <filePickModal+0x393>
    3eca: 20 64 05     	jsr	$564 <_ZNK6__impl6VarInt8high_bitEv>
    3ecd: 29 01        	and	#$1
    3ecf: f0 21        	beq	$3ef2 <_ZN12_GLOBAL__N_15printEPKcP6Status+0x6aa>
    3ed1: a0 00        	ldy	#$0
    3ed3: a5 2e        	lda	$2e                     ; 0x202e <filePickModal+0x3ae>
    3ed5: f0 33        	beq	$3f0a <_ZN12_GLOBAL__N_15printEPKcP6Status+0x6c2>
    3ed7: b1 2c        	lda	($2c),y                 ; 0x202c <filePickModal+0x3ac>
    3ed9: 1a           	inc
    3eda: 91 2c        	sta	($2c),y                 ; 0x202c <filePickModal+0x3ac>
    3edc: c5 2b        	cmp	$2b                     ; 0x202b <filePickModal+0x3ab>
    3ede: 90 12        	bcc	$3ef2 <_ZN12_GLOBAL__N_15printEPKcP6Status+0x6aa>
    3ee0: 38           	sec
    3ee1: e5 2b        	sbc	$2b                     ; 0x202b <filePickModal+0x3ab>
    3ee3: 91 2c        	sta	($2c),y                 ; 0x202c <filePickModal+0x3ac>
    3ee5: c8           	iny
    3ee6: 84 12        	sty	$12                     ; 0x2012 <filePickModal+0x392>
    3ee8: a6 2e        	ldx	$2e                     ; 0x202e <filePickModal+0x3ae>
    3eea: e4 12        	cpx	$12                     ; 0x2012 <filePickModal+0x392>
    3eec: d0 e9        	bne	$3ed7 <_ZN12_GLOBAL__N_15printEPKcP6Status+0x68f>
    3eee: a4 2e        	ldy	$2e                     ; 0x202e <filePickModal+0x3ae>
    3ef0: 80 18        	bra	$3f0a <_ZN12_GLOBAL__N_15printEPKcP6Status+0x6c2>
    3ef2: a4 2e        	ldy	$2e                     ; 0x202e <filePickModal+0x3ae>
    3ef4: 80 1d        	bra	$3f13 <_ZN12_GLOBAL__N_15printEPKcP6Status+0x6cb>
    3ef6: 84 2f        	sty	$2f                     ; 0x202f <filePickModal+0x3af>
    3ef8: a6 28        	ldx	$28                     ; 0x2028 <filePickModal+0x3a8>
    3efa: 86 12        	stx	$12                     ; 0x2012 <filePickModal+0x392>
    3efc: a6 29        	ldx	$29                     ; 0x2029 <filePickModal+0x3a9>
    3efe: 86 13        	stx	$13                     ; 0x2013 <filePickModal+0x393>
    3f00: 20 64 05     	jsr	$564 <_ZNK6__impl6VarInt8high_bitEv>
    3f03: 29 01        	and	#$1
    3f05: a0 00        	ldy	#$0
    3f07: aa           	tax
    3f08: f0 09        	beq	$3f13 <_ZN12_GLOBAL__N_15printEPKcP6Status+0x6cb>
    3f0a: 5a           	phy
    3f0b: fa           	plx
    3f0c: e8           	inx
    3f0d: a9 01        	lda	#$1
    3f0f: 91 2c        	sta	($2c),y                 ; 0x202c <filePickModal+0x3ac>
    3f11: da           	phx
    3f12: 7a           	ply
    3f13: 98           	tya
    3f14: a0 0c        	ldy	#$c
    3f16: 91 10        	sta	($10),y                 ; 0x2010 <filePickModal+0x390>
    3f18: a6 28        	ldx	$28                     ; 0x2028 <filePickModal+0x3a8>
    3f1a: 86 12        	stx	$12                     ; 0x2012 <filePickModal+0x392>
    3f1c: a6 29        	ldx	$29                     ; 0x2029 <filePickModal+0x3a9>
    3f1e: 86 13        	stx	$13                     ; 0x2013 <filePickModal+0x393>
    3f20: 20 c8 05     	jsr	$5c8 <_ZN6__impl6VarInt3shlEv>
    3f23: a4 2f        	ldy	$2f                     ; 0x202f <filePickModal+0x3af>
    3f25: c8           	iny
    3f26: b2 28        	lda	($28)                   ; 0x2028 <filePickModal+0x3a8>
    3f28: 0a           	asl
    3f29: 64 13        	stz	$13                     ; 0x2013 <filePickModal+0x393>
    3f2b: 26 13        	rol	$13                     ; 0x2013 <filePickModal+0x393>
    3f2d: 0a           	asl
    3f2e: 26 13        	rol	$13                     ; 0x2013 <filePickModal+0x393>
    3f30: 0a           	asl
    3f31: 26 13        	rol	$13                     ; 0x2013 <filePickModal+0x393>
    3f33: a2 00        	ldx	#$0
    3f35: e4 13        	cpx	$13                     ; 0x2013 <filePickModal+0x393>
    3f37: d0 06        	bne	$3f3f <_ZN12_GLOBAL__N_15printEPKcP6Status+0x6f7>
    3f39: 85 12        	sta	$12                     ; 0x2012 <filePickModal+0x392>
    3f3b: c4 12        	cpy	$12                     ; 0x2012 <filePickModal+0x392>
    3f3d: 80 02        	bra	$3f41 <_ZN12_GLOBAL__N_15printEPKcP6Status+0x6f9>
    3f3f: e4 13        	cpx	$13                     ; 0x2013 <filePickModal+0x393>
    3f41: 5a           	phy
    3f42: a0 0c        	ldy	#$c
    3f44: b1 10        	lda	($10),y                 ; 0x2010 <filePickModal+0x390>
    3f46: 7a           	ply
    3f47: aa           	tax
    3f48: b0 03        	bcs	$3f4d <_ZN12_GLOBAL__N_15printEPKcP6Status+0x705>
    3f4a: 4c 76 3e     	jmp	$3e76 <_ZN12_GLOBAL__N_15printEPKcP6Status+0x62e>
    3f4d: a5 24        	lda	$24                     ; 0x2024 <filePickModal+0x3a4>
    3f4f: 18           	clc
    3f50: 69 0d        	adc	#$d
    3f52: 85 12        	sta	$12                     ; 0x2012 <filePickModal+0x392>
    3f54: a5 25        	lda	$25                     ; 0x2025 <filePickModal+0x3a5>
    3f56: 69 00        	adc	#$0
    3f58: 85 13        	sta	$13                     ; 0x2013 <filePickModal+0x393>
    3f5a: a0 01        	ldy	#$1
    3f5c: b1 12        	lda	($12),y                 ; 0x2012 <filePickModal+0x392>
    3f5e: 30 0a        	bmi	$3f6a <_ZN12_GLOBAL__N_15printEPKcP6Status+0x722>
    3f60: a0 0d        	ldy	#$d
    3f62: 85 29        	sta	$29                     ; 0x2029 <filePickModal+0x3a9>
    3f64: b1 24        	lda	($24),y                 ; 0x2024 <filePickModal+0x3a4>
    3f66: 85 28        	sta	$28                     ; 0x2028 <filePickModal+0x3a8>
    3f68: 80 04        	bra	$3f6e <_ZN12_GLOBAL__N_15printEPKcP6Status+0x726>
    3f6a: 64 29        	stz	$29                     ; 0x2029 <filePickModal+0x3a9>
    3f6c: 84 28        	sty	$28                     ; 0x2028 <filePickModal+0x3a8>
    3f6e: a0 01        	ldy	#$1
    3f70: b1 24        	lda	($24),y                 ; 0x2024 <filePickModal+0x3a4>
    3f72: 85 18        	sta	$18                     ; 0x2018 <filePickModal+0x398>
    3f74: 29 04        	and	#$4
    3f76: f0 35        	beq	$3fad <_ZN12_GLOBAL__N_15printEPKcP6Status+0x765>
    3f78: b2 24        	lda	($24)                   ; 0x2024 <filePickModal+0x3a4>
    3f7a: c9 10        	cmp	#$10
    3f7c: f0 18        	beq	$3f96 <_ZN12_GLOBAL__N_15printEPKcP6Status+0x74e>
    3f7e: c9 08        	cmp	#$8
    3f80: d0 2b        	bne	$3fad <_ZN12_GLOBAL__N_15printEPKcP6Status+0x765>
    3f82: a2 00        	ldx	#$0
    3f84: e4 29        	cpx	$29                     ; 0x2029 <filePickModal+0x3a9>
    3f86: f0 03        	beq	$3f8b <_ZN12_GLOBAL__N_15printEPKcP6Status+0x743>
    3f88: 4c 4c 41     	jmp	$414c <_ZN12_GLOBAL__N_15printEPKcP6Status+0x904>
    3f8b: 5a           	phy
    3f8c: a0 0c        	ldy	#$c
    3f8e: b1 10        	lda	($10),y                 ; 0x2010 <filePickModal+0x390>
    3f90: 7a           	ply
    3f91: c5 28        	cmp	$28                     ; 0x2028 <filePickModal+0x3a8>
    3f93: 4c 4e 41     	jmp	$414e <_ZN12_GLOBAL__N_15printEPKcP6Status+0x906>
    3f96: 5a           	phy
    3f97: a0 0c        	ldy	#$c
    3f99: b1 10        	lda	($10),y                 ; 0x2010 <filePickModal+0x390>
    3f9b: 7a           	ply
    3f9c: aa           	tax
    3f9d: f0 0e        	beq	$3fad <_ZN12_GLOBAL__N_15printEPKcP6Status+0x765>
    3f9f: a5 18        	lda	$18                     ; 0x2018 <filePickModal+0x398>
    3fa1: 29 80        	and	#$80
    3fa3: d0 03        	bne	$3fa8 <_ZN12_GLOBAL__N_15printEPKcP6Status+0x760>
    3fa5: 4c 69 41     	jmp	$4169 <_ZN12_GLOBAL__N_15printEPKcP6Status+0x921>
    3fa8: a2 78        	ldx	#$78
    3faa: 4c 6b 41     	jmp	$416b <_ZN12_GLOBAL__N_15printEPKcP6Status+0x923>
    3fad: a5 18        	lda	$18                     ; 0x2018 <filePickModal+0x398>
    3faf: a2 2d        	ldx	#$2d
    3fb1: 48           	pha
    3fb2: 5a           	phy
    3fb3: 8a           	txa
    3fb4: a0 09        	ldy	#$9
    3fb6: 91 10        	sta	($10),y                 ; 0x2010 <filePickModal+0x390>
    3fb8: c8           	iny
    3fb9: b1 10        	lda	($10),y                 ; 0x2010 <filePickModal+0x390>
    3fbb: 7a           	ply
    3fbc: 85 12        	sta	$12                     ; 0x2012 <filePickModal+0x392>
    3fbe: 68           	pla
    3fbf: a6 12        	ldx	$12                     ; 0x2012 <filePickModal+0x392>
    3fc1: f0 0d        	beq	$3fd0 <_ZN12_GLOBAL__N_15printEPKcP6Status+0x788>
    3fc3: 18           	clc
    3fc4: a9 00        	lda	#$0
    3fc6: 5a           	phy
    3fc7: a0 0a        	ldy	#$a
    3fc9: 91 10        	sta	($10),y                 ; 0x2010 <filePickModal+0x390>
    3fcb: 7a           	ply
    3fcc: 84 12        	sty	$12                     ; 0x2012 <filePickModal+0x392>
    3fce: 80 2f        	bra	$3fff <_ZN12_GLOBAL__N_15printEPKcP6Status+0x7b7>
    3fd0: aa           	tax
    3fd1: 29 02        	and	#$2
    3fd3: a0 2b        	ldy	#$2b
    3fd5: 48           	pha
    3fd6: 98           	tya
    3fd7: a0 09        	ldy	#$9
    3fd9: 91 10        	sta	($10),y                 ; 0x2010 <filePickModal+0x390>
    3fdb: 68           	pla
    3fdc: d0 16        	bne	$3ff4 <_ZN12_GLOBAL__N_15printEPKcP6Status+0x7ac>
    3fde: 8a           	txa
    3fdf: 29 08        	and	#$8
    3fe1: a0 01        	ldy	#$1
    3fe3: aa           	tax
    3fe4: f0 03        	beq	$3fe9 <_ZN12_GLOBAL__N_15printEPKcP6Status+0x7a1>
    3fe6: 4c 3e 41     	jmp	$413e <_ZN12_GLOBAL__N_15printEPKcP6Status+0x8f6>
    3fe9: 38           	sec
    3fea: a9 01        	lda	#$1
    3fec: a0 0a        	ldy	#$a
    3fee: 91 10        	sta	($10),y                 ; 0x2010 <filePickModal+0x390>
    3ff0: 64 12        	stz	$12                     ; 0x2012 <filePickModal+0x392>
    3ff2: 80 0b        	bra	$3fff <_ZN12_GLOBAL__N_15printEPKcP6Status+0x7b7>
    3ff4: 18           	clc
    3ff5: a9 00        	lda	#$0
    3ff7: a0 0a        	ldy	#$a
    3ff9: 91 10        	sta	($10),y                 ; 0x2010 <filePickModal+0x390>
    3ffb: a2 01        	ldx	#$1
    3ffd: 86 12        	stx	$12                     ; 0x2012 <filePickModal+0x392>
    3fff: a0 0c        	ldy	#$c
    4001: b1 10        	lda	($10),y                 ; 0x2010 <filePickModal+0x390>
    4003: a8           	tay
    4004: a5 29        	lda	$29                     ; 0x2029 <filePickModal+0x3a9>
    4006: d0 4d        	bne	$4055 <_ZN12_GLOBAL__N_15printEPKcP6Status+0x80d>
    4008: a6 28        	ldx	$28                     ; 0x2028 <filePickModal+0x3a8>
    400a: 84 13        	sty	$13                     ; 0x2013 <filePickModal+0x393>
    400c: e4 13        	cpx	$13                     ; 0x2013 <filePickModal+0x393>
    400e: a5 28        	lda	$28                     ; 0x2028 <filePickModal+0x3a8>
    4010: a6 29        	ldx	$29                     ; 0x2029 <filePickModal+0x3a9>
    4012: b0 03        	bcs	$4017 <_ZN12_GLOBAL__N_15printEPKcP6Status+0x7cf>
    4014: 98           	tya
    4015: a2 00        	ldx	#$0
    4017: 18           	clc
    4018: 85 19        	sta	$19                     ; 0x2019 <filePickModal+0x399>
    401a: 65 12        	adc	$12                     ; 0x2012 <filePickModal+0x392>
    401c: 85 1c        	sta	$1c                     ; 0x201c <filePickModal+0x39c>
    401e: 85 13        	sta	$13                     ; 0x2013 <filePickModal+0x393>
    4020: 86 1a        	stx	$1a                     ; 0x201a <filePickModal+0x39a>
    4022: 8a           	txa
    4023: 69 00        	adc	#$0
    4025: 85 14        	sta	$14                     ; 0x2014 <filePickModal+0x394>
    4027: 85 1d        	sta	$1d                     ; 0x201d <filePickModal+0x39d>
    4029: a5 24        	lda	$24                     ; 0x2024 <filePickModal+0x3a4>
    402b: 18           	clc
    402c: 69 0b        	adc	#$b
    402e: 85 16        	sta	$16                     ; 0x2016 <filePickModal+0x396>
    4030: a5 25        	lda	$25                     ; 0x2025 <filePickModal+0x3a5>
    4032: 69 00        	adc	#$0
    4034: a0 0b        	ldy	#$b
    4036: 85 17        	sta	$17                     ; 0x2017 <filePickModal+0x397>
    4038: b1 24        	lda	($24),y                 ; 0x2024 <filePickModal+0x3a4>
    403a: 85 1b        	sta	$1b                     ; 0x201b <filePickModal+0x39b>
    403c: 85 15        	sta	$15                     ; 0x2015 <filePickModal+0x395>
    403e: a0 01        	ldy	#$1
    4040: b1 16        	lda	($16),y                 ; 0x2016 <filePickModal+0x396>
    4042: 85 17        	sta	$17                     ; 0x2017 <filePickModal+0x397>
    4044: 85 16        	sta	$16                     ; 0x2016 <filePickModal+0x396>
    4046: a5 1d        	lda	$1d                     ; 0x201d <filePickModal+0x39d>
    4048: c5 16        	cmp	$16                     ; 0x2016 <filePickModal+0x396>
    404a: d0 13        	bne	$405f <_ZN12_GLOBAL__N_15printEPKcP6Status+0x817>
    404c: a6 1c        	ldx	$1c                     ; 0x201c <filePickModal+0x39c>
    404e: e4 15        	cpx	$15                     ; 0x2015 <filePickModal+0x395>
    4050: 90 13        	bcc	$4065 <_ZN12_GLOBAL__N_15printEPKcP6Status+0x81d>
    4052: 4c ad 40     	jmp	$40ad <_ZN12_GLOBAL__N_15printEPKcP6Status+0x865>
    4055: a6 29        	ldx	$29                     ; 0x2029 <filePickModal+0x3a9>
    4057: e0 00        	cpx	#$0
    4059: a5 28        	lda	$28                     ; 0x2028 <filePickModal+0x3a8>
    405b: 90 b7        	bcc	$4014 <_ZN12_GLOBAL__N_15printEPKcP6Status+0x7cc>
    405d: 80 b8        	bra	$4017 <_ZN12_GLOBAL__N_15printEPKcP6Status+0x7cf>
    405f: a6 1d        	ldx	$1d                     ; 0x201d <filePickModal+0x39d>
    4061: e4 16        	cpx	$16                     ; 0x2016 <filePickModal+0x396>
    4063: b0 48        	bcs	$40ad <_ZN12_GLOBAL__N_15printEPKcP6Status+0x865>
    4065: a5 18        	lda	$18                     ; 0x2018 <filePickModal+0x398>
    4067: 29 11        	and	#$11
    4069: f0 0d        	beq	$4078 <_ZN12_GLOBAL__N_15printEPKcP6Status+0x830>
    406b: a5 1b        	lda	$1b                     ; 0x201b <filePickModal+0x39b>
    406d: 38           	sec
    406e: e5 13        	sbc	$13                     ; 0x2013 <filePickModal+0x393>
    4070: 85 2a        	sta	$2a                     ; 0x202a <filePickModal+0x3aa>
    4072: a5 17        	lda	$17                     ; 0x2017 <filePickModal+0x397>
    4074: e5 14        	sbc	$14                     ; 0x2014 <filePickModal+0x394>
    4076: 80 37        	bra	$40af <_ZN12_GLOBAL__N_15printEPKcP6Status+0x867>
    4078: 18           	clc
    4079: a5 19        	lda	$19                     ; 0x2019 <filePickModal+0x399>
    407b: 65 12        	adc	$12                     ; 0x2012 <filePickModal+0x392>
    407d: aa           	tax
    407e: a5 1a        	lda	$1a                     ; 0x201a <filePickModal+0x39a>
    4080: 69 00        	adc	#$0
    4082: 85 12        	sta	$12                     ; 0x2012 <filePickModal+0x392>
    4084: 38           	sec
    4085: 8a           	txa
    4086: e5 15        	sbc	$15                     ; 0x2015 <filePickModal+0x395>
    4088: 85 2b        	sta	$2b                     ; 0x202b <filePickModal+0x3ab>
    408a: a5 12        	lda	$12                     ; 0x2012 <filePickModal+0x392>
    408c: e5 16        	sbc	$16                     ; 0x2016 <filePickModal+0x396>
    408e: 85 2c        	sta	$2c                     ; 0x202c <filePickModal+0x3ac>
    4090: a6 24        	ldx	$24                     ; 0x2024 <filePickModal+0x3a4>
    4092: 86 12        	stx	$12                     ; 0x2012 <filePickModal+0x392>
    4094: a6 25        	ldx	$25                     ; 0x2025 <filePickModal+0x3a5>
    4096: 86 13        	stx	$13                     ; 0x2013 <filePickModal+0x393>
    4098: a9 20        	lda	#$20
    409a: 20 8c 43     	jsr	$438c <_ZN12_GLOBAL__N_13putEcP6Status>
    409d: a6 2c        	ldx	$2c                     ; 0x202c <filePickModal+0x3ac>
    409f: e6 2b        	inc	$2b                     ; 0x202b <filePickModal+0x3ab>
    40a1: d0 01        	bne	$40a4 <_ZN12_GLOBAL__N_15printEPKcP6Status+0x85c>
    40a3: e8           	inx
    40a4: 86 2c        	stx	$2c                     ; 0x202c <filePickModal+0x3ac>
    40a6: 8a           	txa
    40a7: d0 e7        	bne	$4090 <_ZN12_GLOBAL__N_15printEPKcP6Status+0x848>
    40a9: a5 2b        	lda	$2b                     ; 0x202b <filePickModal+0x3ab>
    40ab: d0 e3        	bne	$4090 <_ZN12_GLOBAL__N_15printEPKcP6Status+0x848>
    40ad: a9 00        	lda	#$0
    40af: 85 2b        	sta	$2b                     ; 0x202b <filePickModal+0x3ab>
    40b1: a0 0a        	ldy	#$a
    40b3: b1 10        	lda	($10),y                 ; 0x2010 <filePickModal+0x390>
    40b5: 85 12        	sta	$12                     ; 0x2012 <filePickModal+0x392>
    40b7: a5 12        	lda	$12                     ; 0x2012 <filePickModal+0x392>
    40b9: d0 0f        	bne	$40ca <_ZN12_GLOBAL__N_15printEPKcP6Status+0x882>
    40bb: a6 24        	ldx	$24                     ; 0x2024 <filePickModal+0x3a4>
    40bd: 86 12        	stx	$12                     ; 0x2012 <filePickModal+0x392>
    40bf: a6 25        	ldx	$25                     ; 0x2025 <filePickModal+0x3a5>
    40c1: 86 13        	stx	$13                     ; 0x2013 <filePickModal+0x393>
    40c3: a0 09        	ldy	#$9
    40c5: b1 10        	lda	($10),y                 ; 0x2010 <filePickModal+0x390>
    40c7: 20 8c 43     	jsr	$438c <_ZN12_GLOBAL__N_13putEcP6Status>
    40ca: a0 0b        	ldy	#$b
    40cc: b1 10        	lda	($10),y                 ; 0x2010 <filePickModal+0x390>
    40ce: 85 12        	sta	$12                     ; 0x2012 <filePickModal+0x392>
    40d0: a5 12        	lda	$12                     ; 0x2012 <filePickModal+0x392>
    40d2: f0 0f        	beq	$40e3 <_ZN12_GLOBAL__N_15printEPKcP6Status+0x89b>
    40d4: a6 24        	ldx	$24                     ; 0x2024 <filePickModal+0x3a4>
    40d6: 86 12        	stx	$12                     ; 0x2012 <filePickModal+0x392>
    40d8: a6 25        	ldx	$25                     ; 0x2025 <filePickModal+0x3a5>
    40da: 86 13        	stx	$13                     ; 0x2013 <filePickModal+0x393>
    40dc: a0 08        	ldy	#$8
    40de: b1 10        	lda	($10),y                 ; 0x2010 <filePickModal+0x390>
    40e0: 20 8c 43     	jsr	$438c <_ZN12_GLOBAL__N_13putEcP6Status>
    40e3: a0 01        	ldy	#$1
    40e5: b1 24        	lda	($24),y                 ; 0x2024 <filePickModal+0x3a4>
    40e7: aa           	tax
    40e8: 29 10        	and	#$10
    40ea: f0 3a        	beq	$4126 <_ZN12_GLOBAL__N_15printEPKcP6Status+0x8de>
    40ec: 8a           	txa
    40ed: 29 01        	and	#$1
    40ef: 48           	pha
    40f0: a0 0c        	ldy	#$c
    40f2: b1 10        	lda	($10),y                 ; 0x2010 <filePickModal+0x390>
    40f4: aa           	tax
    40f5: 68           	pla
    40f6: d0 33        	bne	$412b <_ZN12_GLOBAL__N_15printEPKcP6Status+0x8e3>
    40f8: a5 2b        	lda	$2b                     ; 0x202b <filePickModal+0x3ab>
    40fa: d0 07        	bne	$4103 <_ZN12_GLOBAL__N_15printEPKcP6Status+0x8bb>
    40fc: a5 2a        	lda	$2a                     ; 0x202a <filePickModal+0x3aa>
    40fe: d0 03        	bne	$4103 <_ZN12_GLOBAL__N_15printEPKcP6Status+0x8bb>
    4100: 4c 92 41     	jmp	$4192 <_ZN12_GLOBAL__N_15printEPKcP6Status+0x94a>
    4103: a6 24        	ldx	$24                     ; 0x2024 <filePickModal+0x3a4>
    4105: 86 12        	stx	$12                     ; 0x2012 <filePickModal+0x392>
    4107: a6 25        	ldx	$25                     ; 0x2025 <filePickModal+0x3a5>
    4109: 86 13        	stx	$13                     ; 0x2013 <filePickModal+0x393>
    410b: a9 30        	lda	#$30
    410d: 20 8c 43     	jsr	$438c <_ZN12_GLOBAL__N_13putEcP6Status>
    4110: a2 ff        	ldx	#$ff
    4112: c6 2a        	dec	$2a                     ; 0x202a <filePickModal+0x3aa>
    4114: e4 2a        	cpx	$2a                     ; 0x202a <filePickModal+0x3aa>
    4116: d0 02        	bne	$411a <_ZN12_GLOBAL__N_15printEPKcP6Status+0x8d2>
    4118: c6 2b        	dec	$2b                     ; 0x202b <filePickModal+0x3ab>
    411a: a5 2b        	lda	$2b                     ; 0x202b <filePickModal+0x3ab>
    411c: d0 e5        	bne	$4103 <_ZN12_GLOBAL__N_15printEPKcP6Status+0x8bb>
    411e: a5 2a        	lda	$2a                     ; 0x202a <filePickModal+0x3aa>
    4120: d0 e1        	bne	$4103 <_ZN12_GLOBAL__N_15printEPKcP6Status+0x8bb>
    4122: 64 2a        	stz	$2a                     ; 0x202a <filePickModal+0x3aa>
    4124: 64 2b        	stz	$2b                     ; 0x202b <filePickModal+0x3ab>
    4126: a0 0c        	ldy	#$c
    4128: b1 10        	lda	($10),y                 ; 0x2010 <filePickModal+0x390>
    412a: aa           	tax
    412b: a0 00        	ldy	#$0
    412d: c4 29        	cpy	$29                     ; 0x2029 <filePickModal+0x3a9>
    412f: d0 03        	bne	$4134 <_ZN12_GLOBAL__N_15printEPKcP6Status+0x8ec>
    4131: 4c 9e 41     	jmp	$419e <_ZN12_GLOBAL__N_15printEPKcP6Status+0x956>
    4134: c4 29        	cpy	$29                     ; 0x2029 <filePickModal+0x3a9>
    4136: b0 03        	bcs	$413b <_ZN12_GLOBAL__N_15printEPKcP6Status+0x8f3>
    4138: 4c a2 41     	jmp	$41a2 <_ZN12_GLOBAL__N_15printEPKcP6Status+0x95a>
    413b: 4c c8 41     	jmp	$41c8 <_ZN12_GLOBAL__N_15printEPKcP6Status+0x980>
    413e: a2 20        	ldx	#$20
    4140: 5a           	phy
    4141: 8a           	txa
    4142: a0 09        	ldy	#$9
    4144: 91 10        	sta	($10),y                 ; 0x2010 <filePickModal+0x390>
    4146: 18           	clc
    4147: a9 00        	lda	#$0
    4149: 4c c7 3f     	jmp	$3fc7 <_ZN12_GLOBAL__N_15printEPKcP6Status+0x77f>
    414c: e4 29        	cpx	$29                     ; 0x2029 <filePickModal+0x3a9>
    414e: a5 18        	lda	$18                     ; 0x2018 <filePickModal+0x398>
    4150: b0 03        	bcs	$4155 <_ZN12_GLOBAL__N_15printEPKcP6Status+0x90d>
    4152: 4c af 3f     	jmp	$3faf <_ZN12_GLOBAL__N_15printEPKcP6Status+0x767>
    4155: 48           	pha
    4156: 5a           	phy
    4157: a0 0c        	ldy	#$c
    4159: b1 10        	lda	($10),y                 ; 0x2010 <filePickModal+0x390>
    415b: 7a           	ply
    415c: 85 28        	sta	$28                     ; 0x2028 <filePickModal+0x3a8>
    415e: 68           	pla
    415f: e6 28        	inc	$28                     ; 0x2028 <filePickModal+0x3a8>
    4161: d0 01        	bne	$4164 <_ZN12_GLOBAL__N_15printEPKcP6Status+0x91c>
    4163: e8           	inx
    4164: 86 29        	stx	$29                     ; 0x2029 <filePickModal+0x3a9>
    4166: 4c af 3f     	jmp	$3faf <_ZN12_GLOBAL__N_15printEPKcP6Status+0x767>
    4169: a2 58        	ldx	#$58
    416b: 8a           	txa
    416c: a0 08        	ldy	#$8
    416e: 91 10        	sta	($10),y                 ; 0x2010 <filePickModal+0x390>
    4170: a0 0c        	ldy	#$c
    4172: b1 10        	lda	($10),y                 ; 0x2010 <filePickModal+0x390>
    4174: a8           	tay
    4175: 38           	sec
    4176: 5a           	phy
    4177: a9 01        	lda	#$1
    4179: a0 0b        	ldy	#$b
    417b: 91 10        	sta	($10),y                 ; 0x2010 <filePickModal+0x390>
    417d: a2 30        	ldx	#$30
    417f: 8a           	txa
    4180: a0 09        	ldy	#$9
    4182: 91 10        	sta	($10),y                 ; 0x2010 <filePickModal+0x390>
    4184: a2 02        	ldx	#$2
    4186: 18           	clc
    4187: a9 00        	lda	#$0
    4189: c8           	iny
    418a: 91 10        	sta	($10),y                 ; 0x2010 <filePickModal+0x390>
    418c: 7a           	ply
    418d: 86 12        	stx	$12                     ; 0x2012 <filePickModal+0x392>
    418f: 4c 04 40     	jmp	$4004 <_ZN12_GLOBAL__N_15printEPKcP6Status+0x7bc>
    4192: 64 2a        	stz	$2a                     ; 0x202a <filePickModal+0x3aa>
    4194: 64 2b        	stz	$2b                     ; 0x202b <filePickModal+0x3ab>
    4196: 4c 2b 41     	jmp	$412b <_ZN12_GLOBAL__N_15printEPKcP6Status+0x8e3>
    4199: a0 0c        	ldy	#$c
    419b: b1 10        	lda	($10),y                 ; 0x2010 <filePickModal+0x390>
    419d: aa           	tax
    419e: e4 28        	cpx	$28                     ; 0x2028 <filePickModal+0x3a8>
    41a0: b0 26        	bcs	$41c8 <_ZN12_GLOBAL__N_15printEPKcP6Status+0x980>
    41a2: a2 ff        	ldx	#$ff
    41a4: c6 28        	dec	$28                     ; 0x2028 <filePickModal+0x3a8>
    41a6: e4 28        	cpx	$28                     ; 0x2028 <filePickModal+0x3a8>
    41a8: d0 02        	bne	$41ac <_ZN12_GLOBAL__N_15printEPKcP6Status+0x964>
    41aa: c6 29        	dec	$29                     ; 0x2029 <filePickModal+0x3a9>
    41ac: a6 24        	ldx	$24                     ; 0x2024 <filePickModal+0x3a4>
    41ae: 86 12        	stx	$12                     ; 0x2012 <filePickModal+0x392>
    41b0: a6 25        	ldx	$25                     ; 0x2025 <filePickModal+0x3a5>
    41b2: 86 13        	stx	$13                     ; 0x2013 <filePickModal+0x393>
    41b4: a9 30        	lda	#$30
    41b6: 20 8c 43     	jsr	$438c <_ZN12_GLOBAL__N_13putEcP6Status>
    41b9: a2 00        	ldx	#$0
    41bb: e4 29        	cpx	$29                     ; 0x2029 <filePickModal+0x3a9>
    41bd: f0 da        	beq	$4199 <_ZN12_GLOBAL__N_15printEPKcP6Status+0x951>
    41bf: e4 29        	cpx	$29                     ; 0x2029 <filePickModal+0x3a9>
    41c1: a0 0c        	ldy	#$c
    41c3: b1 10        	lda	($10),y                 ; 0x2010 <filePickModal+0x390>
    41c5: aa           	tax
    41c6: 90 da        	bcc	$41a2 <_ZN12_GLOBAL__N_15printEPKcP6Status+0x95a>
    41c8: a4 2b        	ldy	$2b                     ; 0x202b <filePickModal+0x3ab>
    41ca: 84 2c        	sty	$2c                     ; 0x202c <filePickModal+0x3ac>
    41cc: 8a           	txa
    41cd: d0 03        	bne	$41d2 <_ZN12_GLOBAL__N_15printEPKcP6Status+0x98a>
    41cf: 4c 7c 42     	jmp	$427c <_ZN12_GLOBAL__N_15printEPKcP6Status+0xa34>
    41d2: ca           	dex
    41d3: d0 03        	bne	$41d8 <_ZN12_GLOBAL__N_15printEPKcP6Status+0x990>
    41d5: 4c 3e 42     	jmp	$423e <_ZN12_GLOBAL__N_15printEPKcP6Status+0x9f6>
    41d8: 86 2b        	stx	$2b                     ; 0x202b <filePickModal+0x3ab>
    41da: 18           	clc
    41db: a5 10        	lda	$10                     ; 0x2010 <filePickModal+0x390>
    41dd: 69 18        	adc	#$18
    41df: 48           	pha
    41e0: a5 11        	lda	$11                     ; 0x2011 <filePickModal+0x391>
    41e2: 69 00        	adc	#$0
    41e4: 85 12        	sta	$12                     ; 0x2012 <filePickModal+0x392>
    41e6: 68           	pla
    41e7: 18           	clc
    41e8: 65 2b        	adc	$2b                     ; 0x202b <filePickModal+0x3ab>
    41ea: aa           	tax
    41eb: a5 12        	lda	$12                     ; 0x2012 <filePickModal+0x392>
    41ed: 69 00        	adc	#$0
    41ef: 85 12        	sta	$12                     ; 0x2012 <filePickModal+0x392>
    41f1: 18           	clc
    41f2: 8a           	txa
    41f3: 69 02        	adc	#$2
    41f5: 85 28        	sta	$28                     ; 0x2028 <filePickModal+0x3a8>
    41f7: a5 12        	lda	$12                     ; 0x2012 <filePickModal+0x392>
    41f9: 69 00        	adc	#$0
    41fb: 85 29        	sta	$29                     ; 0x2029 <filePickModal+0x3a9>
    41fd: 80 35        	bra	$4234 <_ZN12_GLOBAL__N_15printEPKcP6Status+0x9ec>
    41ff: 85 13        	sta	$13                     ; 0x2013 <filePickModal+0x393>
    4201: a9 80        	lda	#$80
    4203: a0 01        	ldy	#$1
    4205: 31 24        	and	($24),y                 ; 0x2024 <filePickModal+0x3a4>
    4207: f0 04        	beq	$420d <_ZN12_GLOBAL__N_15printEPKcP6Status+0x9c5>
    4209: a2 61        	ldx	#$61
    420b: 80 02        	bra	$420f <_ZN12_GLOBAL__N_15printEPKcP6Status+0x9c7>
    420d: a2 41        	ldx	#$41
    420f: 86 12        	stx	$12                     ; 0x2012 <filePickModal+0x392>
    4211: 18           	clc
    4212: a5 13        	lda	$13                     ; 0x2013 <filePickModal+0x393>
    4214: 65 12        	adc	$12                     ; 0x2012 <filePickModal+0x392>
    4216: 18           	clc
    4217: 69 f6        	adc	#$f6
    4219: a6 24        	ldx	$24                     ; 0x2024 <filePickModal+0x3a4>
    421b: 86 12        	stx	$12                     ; 0x2012 <filePickModal+0x392>
    421d: a6 25        	ldx	$25                     ; 0x2025 <filePickModal+0x3a5>
    421f: 86 13        	stx	$13                     ; 0x2013 <filePickModal+0x393>
    4221: 20 8c 43     	jsr	$438c <_ZN12_GLOBAL__N_13putEcP6Status>
    4224: c6 2b        	dec	$2b                     ; 0x202b <filePickModal+0x3ab>
    4226: a2 ff        	ldx	#$ff
    4228: c6 28        	dec	$28                     ; 0x2028 <filePickModal+0x3a8>
    422a: e4 28        	cpx	$28                     ; 0x2028 <filePickModal+0x3a8>
    422c: d0 02        	bne	$4230 <_ZN12_GLOBAL__N_15printEPKcP6Status+0x9e8>
    422e: c6 29        	dec	$29                     ; 0x2029 <filePickModal+0x3a9>
    4230: a5 2b        	lda	$2b                     ; 0x202b <filePickModal+0x3ab>
    4232: f0 0a        	beq	$423e <_ZN12_GLOBAL__N_15printEPKcP6Status+0x9f6>
    4234: b2 28        	lda	($28)                   ; 0x2028 <filePickModal+0x3a8>
    4236: c9 0a        	cmp	#$a
    4238: b0 c5        	bcs	$41ff <_ZN12_GLOBAL__N_15printEPKcP6Status+0x9b7>
    423a: 09 30        	ora	#$30
    423c: 80 db        	bra	$4219 <_ZN12_GLOBAL__N_15printEPKcP6Status+0x9d1>
    423e: a0 02        	ldy	#$2
    4240: 18           	clc
    4241: a5 10        	lda	$10                     ; 0x2010 <filePickModal+0x390>
    4243: 69 18        	adc	#$18
    4245: 85 12        	sta	$12                     ; 0x2012 <filePickModal+0x392>
    4247: a5 11        	lda	$11                     ; 0x2011 <filePickModal+0x391>
    4249: 69 00        	adc	#$0
    424b: 85 13        	sta	$13                     ; 0x2013 <filePickModal+0x393>
    424d: b1 12        	lda	($12),y                 ; 0x2012 <filePickModal+0x392>
    424f: c9 0a        	cmp	#$a
    4251: b0 04        	bcs	$4257 <_ZN12_GLOBAL__N_15printEPKcP6Status+0xa0f>
    4253: 09 30        	ora	#$30
    4255: 80 1a        	bra	$4271 <_ZN12_GLOBAL__N_15printEPKcP6Status+0xa29>
    4257: 85 13        	sta	$13                     ; 0x2013 <filePickModal+0x393>
    4259: a0 01        	ldy	#$1
    425b: a9 80        	lda	#$80
    425d: 31 24        	and	($24),y                 ; 0x2024 <filePickModal+0x3a4>
    425f: f0 04        	beq	$4265 <_ZN12_GLOBAL__N_15printEPKcP6Status+0xa1d>
    4261: a2 61        	ldx	#$61
    4263: 80 02        	bra	$4267 <_ZN12_GLOBAL__N_15printEPKcP6Status+0xa1f>
    4265: a2 41        	ldx	#$41
    4267: 86 12        	stx	$12                     ; 0x2012 <filePickModal+0x392>
    4269: a5 13        	lda	$13                     ; 0x2013 <filePickModal+0x393>
    426b: 18           	clc
    426c: 65 12        	adc	$12                     ; 0x2012 <filePickModal+0x392>
    426e: 18           	clc
    426f: 69 f6        	adc	#$f6
    4271: a6 24        	ldx	$24                     ; 0x2024 <filePickModal+0x3a4>
    4273: 86 12        	stx	$12                     ; 0x2012 <filePickModal+0x392>
    4275: a6 25        	ldx	$25                     ; 0x2025 <filePickModal+0x3a5>
    4277: 86 13        	stx	$13                     ; 0x2013 <filePickModal+0x393>
    4279: 20 8c 43     	jsr	$438c <_ZN12_GLOBAL__N_13putEcP6Status>
    427c: a0 01        	ldy	#$1
    427e: 98           	tya
    427f: 31 24        	and	($24),y                 ; 0x2024 <filePickModal+0x3a4>
    4281: f0 21        	beq	$42a4 <_ZN12_GLOBAL__N_15printEPKcP6Status+0xa5c>
    4283: a5 2c        	lda	$2c                     ; 0x202c <filePickModal+0x3ac>
    4285: f0 19        	beq	$42a0 <_ZN12_GLOBAL__N_15printEPKcP6Status+0xa58>
    4287: a6 24        	ldx	$24                     ; 0x2024 <filePickModal+0x3a4>
    4289: 86 12        	stx	$12                     ; 0x2012 <filePickModal+0x392>
    428b: a6 25        	ldx	$25                     ; 0x2025 <filePickModal+0x3a5>
    428d: 86 13        	stx	$13                     ; 0x2013 <filePickModal+0x393>
    428f: a9 20        	lda	#$20
    4291: 20 8c 43     	jsr	$438c <_ZN12_GLOBAL__N_13putEcP6Status>
    4294: a2 ff        	ldx	#$ff
    4296: c6 2a        	dec	$2a                     ; 0x202a <filePickModal+0x3aa>
    4298: e4 2a        	cpx	$2a                     ; 0x202a <filePickModal+0x3aa>
    429a: d0 e7        	bne	$4283 <_ZN12_GLOBAL__N_15printEPKcP6Status+0xa3b>
    429c: c6 2c        	dec	$2c                     ; 0x202c <filePickModal+0x3ac>
    429e: 80 e3        	bra	$4283 <_ZN12_GLOBAL__N_15printEPKcP6Status+0xa3b>
    42a0: a5 2a        	lda	$2a                     ; 0x202a <filePickModal+0x3aa>
    42a2: d0 e3        	bne	$4287 <_ZN12_GLOBAL__N_15printEPKcP6Status+0xa3f>
    42a4: a4 24        	ldy	$24                     ; 0x2024 <filePickModal+0x3a4>
    42a6: a5 24        	lda	$24                     ; 0x2024 <filePickModal+0x3a4>
    42a8: 84 14        	sty	$14                     ; 0x2014 <filePickModal+0x394>
    42aa: 18           	clc
    42ab: 69 05        	adc	#$5
    42ad: 85 12        	sta	$12                     ; 0x2012 <filePickModal+0x392>
    42af: a5 25        	lda	$25                     ; 0x2025 <filePickModal+0x3a5>
    42b1: 69 00        	adc	#$0
    42b3: 18           	clc
    42b4: 85 13        	sta	$13                     ; 0x2013 <filePickModal+0x393>
    42b6: a0 01        	ldy	#$1
    42b8: a5 14        	lda	$14                     ; 0x2014 <filePickModal+0x394>
    42ba: 69 03        	adc	#$3
    42bc: 85 14        	sta	$14                     ; 0x2014 <filePickModal+0x394>
    42be: a5 25        	lda	$25                     ; 0x2025 <filePickModal+0x3a5>
    42c0: 69 00        	adc	#$0
    42c2: aa           	tax
    42c3: b1 12        	lda	($12),y                 ; 0x2012 <filePickModal+0x392>
    42c5: 85 15        	sta	$15                     ; 0x2015 <filePickModal+0x395>
    42c7: a4 14        	ldy	$14                     ; 0x2014 <filePickModal+0x394>
    42c9: 84 12        	sty	$12                     ; 0x2012 <filePickModal+0x392>
    42cb: 86 13        	stx	$13                     ; 0x2013 <filePickModal+0x393>
    42cd: a0 03        	ldy	#$3
    42cf: b1 24        	lda	($24),y                 ; 0x2024 <filePickModal+0x3a4>
    42d1: aa           	tax
    42d2: a0 01        	ldy	#$1
    42d4: b1 12        	lda	($12),y                 ; 0x2012 <filePickModal+0x392>
    42d6: 85 12        	sta	$12                     ; 0x2012 <filePickModal+0x392>
    42d8: a4 15        	ldy	$15                     ; 0x2015 <filePickModal+0x395>
    42da: c4 12        	cpy	$12                     ; 0x2012 <filePickModal+0x392>
    42dc: d0 10        	bne	$42ee <_ZN12_GLOBAL__N_15printEPKcP6Status+0xaa6>
    42de: a0 05        	ldy	#$5
    42e0: 85 15        	sta	$15                     ; 0x2015 <filePickModal+0x395>
    42e2: b1 24        	lda	($24),y                 ; 0x2024 <filePickModal+0x3a4>
    42e4: 86 13        	stx	$13                     ; 0x2013 <filePickModal+0x393>
    42e6: 86 12        	stx	$12                     ; 0x2012 <filePickModal+0x392>
    42e8: c5 12        	cmp	$12                     ; 0x2012 <filePickModal+0x392>
    42ea: b0 10        	bcs	$42fc <_ZN12_GLOBAL__N_15printEPKcP6Status+0xab4>
    42ec: 80 43        	bra	$4331 <_ZN12_GLOBAL__N_15printEPKcP6Status+0xae9>
    42ee: 84 14        	sty	$14                     ; 0x2014 <filePickModal+0x394>
    42f0: 86 13        	stx	$13                     ; 0x2013 <filePickModal+0x393>
    42f2: 85 12        	sta	$12                     ; 0x2012 <filePickModal+0x392>
    42f4: a6 14        	ldx	$14                     ; 0x2014 <filePickModal+0x394>
    42f6: e4 12        	cpx	$12                     ; 0x2012 <filePickModal+0x392>
    42f8: 85 15        	sta	$15                     ; 0x2015 <filePickModal+0x395>
    42fa: 90 35        	bcc	$4331 <_ZN12_GLOBAL__N_15printEPKcP6Status+0xae9>
    42fc: a6 13        	ldx	$13                     ; 0x2013 <filePickModal+0x393>
    42fe: a5 15        	lda	$15                     ; 0x2015 <filePickModal+0x395>
    4300: d0 03        	bne	$4305 <_ZN12_GLOBAL__N_15printEPKcP6Status+0xabd>
    4302: 8a           	txa
    4303: f0 2c        	beq	$4331 <_ZN12_GLOBAL__N_15printEPKcP6Status+0xae9>
    4305: a5 24        	lda	$24                     ; 0x2024 <filePickModal+0x3a4>
    4307: 18           	clc
    4308: 69 09        	adc	#$9
    430a: 85 12        	sta	$12                     ; 0x2012 <filePickModal+0x392>
    430c: a5 25        	lda	$25                     ; 0x2025 <filePickModal+0x3a5>
    430e: 69 00        	adc	#$0
    4310: a0 09        	ldy	#$9
    4312: 85 13        	sta	$13                     ; 0x2013 <filePickModal+0x393>
    4314: 18           	clc
    4315: 8a           	txa
    4316: 71 24        	adc	($24),y                 ; 0x2024 <filePickModal+0x3a4>
    4318: aa           	tax
    4319: a0 01        	ldy	#$1
    431b: a5 15        	lda	$15                     ; 0x2015 <filePickModal+0x395>
    431d: 71 12        	adc	($12),y                 ; 0x2012 <filePickModal+0x392>
    431f: 86 12        	stx	$12                     ; 0x2012 <filePickModal+0x392>
    4321: 85 13        	sta	$13                     ; 0x2013 <filePickModal+0x393>
    4323: a2 ff        	ldx	#$ff
    4325: c6 12        	dec	$12                     ; 0x2012 <filePickModal+0x392>
    4327: e4 12        	cpx	$12                     ; 0x2012 <filePickModal+0x392>
    4329: d0 02        	bne	$432d <_ZN12_GLOBAL__N_15printEPKcP6Status+0xae5>
    432b: c6 13        	dec	$13                     ; 0x2013 <filePickModal+0x393>
    432d: a9 00        	lda	#$0
    432f: 92 12        	sta	($12)                   ; 0x2012 <filePickModal+0x392>
    4331: b2 26        	lda	($26)                   ; 0x2026 <filePickModal+0x3a6>
    4333: 85 28        	sta	$28                     ; 0x2028 <filePickModal+0x3a8>
    4335: a0 01        	ldy	#$1
    4337: b1 26        	lda	($26),y                 ; 0x2026 <filePickModal+0x3a6>
    4339: 85 29        	sta	$29                     ; 0x2029 <filePickModal+0x3a9>
    433b: e6 28        	inc	$28                     ; 0x2028 <filePickModal+0x3a8>
    433d: d0 02        	bne	$4341 <_ZN12_GLOBAL__N_15printEPKcP6Status+0xaf9>
    433f: e6 29        	inc	$29                     ; 0x2029 <filePickModal+0x3a9>
    4341: a6 28        	ldx	$28                     ; 0x2028 <filePickModal+0x3a8>
    4343: 86 12        	stx	$12                     ; 0x2012 <filePickModal+0x392>
    4345: a6 29        	ldx	$29                     ; 0x2029 <filePickModal+0x3a9>
    4347: 86 13        	stx	$13                     ; 0x2013 <filePickModal+0x393>
    4349: a0 00        	ldy	#$0
    434b: b1 10        	lda	($10),y                 ; 0x2010 <filePickModal+0x390>
    434d: 85 2f        	sta	$2f                     ; 0x202f <filePickModal+0x3af>
    434f: c8           	iny
    4350: b1 10        	lda	($10),y                 ; 0x2010 <filePickModal+0x390>
    4352: 85 2e        	sta	$2e                     ; 0x202e <filePickModal+0x3ae>
    4354: c8           	iny
    4355: b1 10        	lda	($10),y                 ; 0x2010 <filePickModal+0x390>
    4357: 85 2d        	sta	$2d                     ; 0x202d <filePickModal+0x3ad>
    4359: c8           	iny
    435a: b1 10        	lda	($10),y                 ; 0x2010 <filePickModal+0x390>
    435c: 85 2c        	sta	$2c                     ; 0x202c <filePickModal+0x3ac>
    435e: c8           	iny
    435f: b1 10        	lda	($10),y                 ; 0x2010 <filePickModal+0x390>
    4361: 85 2b        	sta	$2b                     ; 0x202b <filePickModal+0x3ab>
    4363: c8           	iny
    4364: b1 10        	lda	($10),y                 ; 0x2010 <filePickModal+0x390>
    4366: 85 2a        	sta	$2a                     ; 0x202a <filePickModal+0x3aa>
    4368: c8           	iny
    4369: b1 10        	lda	($10),y                 ; 0x2010 <filePickModal+0x390>
    436b: 85 29        	sta	$29                     ; 0x2029 <filePickModal+0x3a9>
    436d: c8           	iny
    436e: b1 10        	lda	($10),y                 ; 0x2010 <filePickModal+0x390>
    4370: 85 28        	sta	$28                     ; 0x2028 <filePickModal+0x3a8>
    4372: fa           	plx
    4373: 86 27        	stx	$27                     ; 0x2027 <filePickModal+0x3a7>
    4375: fa           	plx
    4376: 86 26        	stx	$26                     ; 0x2026 <filePickModal+0x3a6>
    4378: fa           	plx
    4379: 86 25        	stx	$25                     ; 0x2025 <filePickModal+0x3a5>
    437b: fa           	plx
    437c: 86 24        	stx	$24                     ; 0x2024 <filePickModal+0x3a4>
    437e: 18           	clc
    437f: a5 10        	lda	$10                     ; 0x2010 <filePickModal+0x390>
    4381: 69 2f        	adc	#$2f
    4383: 85 10        	sta	$10                     ; 0x2010 <filePickModal+0x390>
    4385: a5 11        	lda	$11                     ; 0x2011 <filePickModal+0x391>
    4387: 69 00        	adc	#$0
    4389: 85 11        	sta	$11                     ; 0x2011 <filePickModal+0x391>
    438b: 60           	rts

0000438c <_ZN12_GLOBAL__N_13putEcP6Status>:
    438c: a6 24        	ldx	$24                     ; 0x2024 <filePickModal+0x3a4>
    438e: da           	phx
    438f: a6 25        	ldx	$25                     ; 0x2025 <filePickModal+0x3a5>
    4391: da           	phx
    4392: 85 16        	sta	$16                     ; 0x2016 <filePickModal+0x396>
    4394: a6 12        	ldx	$12                     ; 0x2012 <filePickModal+0x392>
    4396: 86 24        	stx	$24                     ; 0x2024 <filePickModal+0x3a4>
    4398: a6 13        	ldx	$13                     ; 0x2013 <filePickModal+0x393>
    439a: 86 25        	stx	$25                     ; 0x2025 <filePickModal+0x3a5>
    439c: a6 25        	ldx	$25                     ; 0x2025 <filePickModal+0x3a5>
    439e: 18           	clc
    439f: a5 12        	lda	$12                     ; 0x2012 <filePickModal+0x392>
    43a1: 69 05        	adc	#$5
    43a3: a8           	tay
    43a4: a5 25        	lda	$25                     ; 0x2025 <filePickModal+0x3a5>
    43a6: 86 13        	stx	$13                     ; 0x2013 <filePickModal+0x393>
    43a8: 69 00        	adc	#$0
    43aa: 18           	clc
    43ab: 84 14        	sty	$14                     ; 0x2014 <filePickModal+0x394>
    43ad: a0 05        	ldy	#$5
    43af: 85 15        	sta	$15                     ; 0x2015 <filePickModal+0x395>
    43b1: b1 24        	lda	($24),y                 ; 0x2024 <filePickModal+0x3a4>
    43b3: aa           	tax
    43b4: a5 12        	lda	$12                     ; 0x2012 <filePickModal+0x392>
    43b6: 69 03        	adc	#$3
    43b8: 85 12        	sta	$12                     ; 0x2012 <filePickModal+0x392>
    43ba: a5 13        	lda	$13                     ; 0x2013 <filePickModal+0x393>
    43bc: 69 00        	adc	#$0
    43be: 85 13        	sta	$13                     ; 0x2013 <filePickModal+0x393>
    43c0: a0 01        	ldy	#$1
    43c2: b1 14        	lda	($14),y                 ; 0x2014 <filePickModal+0x394>
    43c4: d1 12        	cmp	($12),y                 ; 0x2012 <filePickModal+0x392>
    43c6: d0 11        	bne	$43d9 <_ZN12_GLOBAL__N_13putEcP6Status+0x4d>
    43c8: a0 03        	ldy	#$3
    43ca: 85 15        	sta	$15                     ; 0x2015 <filePickModal+0x395>
    43cc: b1 24        	lda	($24),y                 ; 0x2024 <filePickModal+0x3a4>
    43ce: 85 12        	sta	$12                     ; 0x2012 <filePickModal+0x392>
    43d0: 86 14        	stx	$14                     ; 0x2014 <filePickModal+0x394>
    43d2: e4 12        	cpx	$12                     ; 0x2012 <filePickModal+0x392>
    43d4: 90 0e        	bcc	$43e4 <_ZN12_GLOBAL__N_13putEcP6Status+0x58>
    43d6: 4c 3f 44     	jmp	$443f <_ZN12_GLOBAL__N_13putEcP6Status+0xb3>
    43d9: 86 14        	stx	$14                     ; 0x2014 <filePickModal+0x394>
    43db: d1 12        	cmp	($12),y                 ; 0x2012 <filePickModal+0x392>
    43dd: 85 15        	sta	$15                     ; 0x2015 <filePickModal+0x395>
    43df: 90 03        	bcc	$43e4 <_ZN12_GLOBAL__N_13putEcP6Status+0x58>
    43e1: 4c 3f 44     	jmp	$443f <_ZN12_GLOBAL__N_13putEcP6Status+0xb3>
    43e4: a0 0f        	ldy	#$f
    43e6: a5 24        	lda	$24                     ; 0x2024 <filePickModal+0x3a4>
    43e8: 18           	clc
    43e9: 69 0f        	adc	#$f
    43eb: 85 12        	sta	$12                     ; 0x2012 <filePickModal+0x392>
    43ed: a5 25        	lda	$25                     ; 0x2025 <filePickModal+0x3a5>
    43ef: 69 00        	adc	#$0
    43f1: 85 13        	sta	$13                     ; 0x2013 <filePickModal+0x393>
    43f3: b1 24        	lda	($24),y                 ; 0x2024 <filePickModal+0x3a4>
    43f5: 85 17        	sta	$17                     ; 0x2017 <filePickModal+0x397>
    43f7: a0 01        	ldy	#$1
    43f9: b1 12        	lda	($12),y                 ; 0x2012 <filePickModal+0x392>
    43fb: a2 00        	ldx	#$0
    43fd: 86 12        	stx	$12                     ; 0x2012 <filePickModal+0x392>
    43ff: a2 00        	ldx	#$0
    4401: 86 13        	stx	$13                     ; 0x2013 <filePickModal+0x393>
    4403: c5 13        	cmp	$13                     ; 0x2013 <filePickModal+0x393>
    4405: d0 2b        	bne	$4432 <_ZN12_GLOBAL__N_13putEcP6Status+0xa6>
    4407: a4 17        	ldy	$17                     ; 0x2017 <filePickModal+0x397>
    4409: c4 12        	cpy	$12                     ; 0x2012 <filePickModal+0x392>
    440b: d0 27        	bne	$4434 <_ZN12_GLOBAL__N_13putEcP6Status+0xa8>
    440d: a5 24        	lda	$24                     ; 0x2024 <filePickModal+0x3a4>
    440f: 18           	clc
    4410: 69 09        	adc	#$9
    4412: 85 12        	sta	$12                     ; 0x2012 <filePickModal+0x392>
    4414: a5 25        	lda	$25                     ; 0x2025 <filePickModal+0x3a5>
    4416: 69 00        	adc	#$0
    4418: a0 09        	ldy	#$9
    441a: 85 13        	sta	$13                     ; 0x2013 <filePickModal+0x393>
    441c: 18           	clc
    441d: a5 14        	lda	$14                     ; 0x2014 <filePickModal+0x394>
    441f: 71 24        	adc	($24),y                 ; 0x2024 <filePickModal+0x3a4>
    4421: aa           	tax
    4422: a0 01        	ldy	#$1
    4424: a5 15        	lda	$15                     ; 0x2015 <filePickModal+0x395>
    4426: 71 12        	adc	($12),y                 ; 0x2012 <filePickModal+0x392>
    4428: 86 12        	stx	$12                     ; 0x2012 <filePickModal+0x392>
    442a: 85 13        	sta	$13                     ; 0x2013 <filePickModal+0x393>
    442c: a5 16        	lda	$16                     ; 0x2016 <filePickModal+0x396>
    442e: 92 12        	sta	($12)                   ; 0x2012 <filePickModal+0x392>
    4430: 80 0d        	bra	$443f <_ZN12_GLOBAL__N_13putEcP6Status+0xb3>
    4432: a4 17        	ldy	$17                     ; 0x2017 <filePickModal+0x397>
    4434: 84 12        	sty	$12                     ; 0x2012 <filePickModal+0x392>
    4436: 85 13        	sta	$13                     ; 0x2013 <filePickModal+0x393>
    4438: a2 00        	ldx	#$0
    443a: a5 16        	lda	$16                     ; 0x2016 <filePickModal+0x396>
    443c: 20 50 49     	jsr	$4950 <putc>
    443f: a0 05        	ldy	#$5
    4441: a5 24        	lda	$24                     ; 0x2024 <filePickModal+0x3a4>
    4443: 18           	clc
    4444: 69 05        	adc	#$5
    4446: 85 12        	sta	$12                     ; 0x2012 <filePickModal+0x392>
    4448: a5 25        	lda	$25                     ; 0x2025 <filePickModal+0x3a5>
    444a: 69 00        	adc	#$0
    444c: 85 13        	sta	$13                     ; 0x2013 <filePickModal+0x393>
    444e: b1 24        	lda	($24),y                 ; 0x2024 <filePickModal+0x3a4>
    4450: aa           	tax
    4451: a0 01        	ldy	#$1
    4453: b1 12        	lda	($12),y                 ; 0x2012 <filePickModal+0x392>
    4455: e8           	inx
    4456: d0 01        	bne	$4459 <_ZN12_GLOBAL__N_13putEcP6Status+0xcd>
    4458: 1a           	inc
    4459: 85 14        	sta	$14                     ; 0x2014 <filePickModal+0x394>
    445b: 8a           	txa
    445c: a0 05        	ldy	#$5
    445e: 91 24        	sta	($24),y                 ; 0x2024 <filePickModal+0x3a4>
    4460: a0 01        	ldy	#$1
    4462: a5 14        	lda	$14                     ; 0x2014 <filePickModal+0x394>
    4464: 91 12        	sta	($12),y                 ; 0x2012 <filePickModal+0x392>
    4466: fa           	plx
    4467: 86 25        	stx	$25                     ; 0x2025 <filePickModal+0x3a5>
    4469: fa           	plx
    446a: 86 24        	stx	$24                     ; 0x2024 <filePickModal+0x3a4>
    446c: 60           	rts

0000446d <_ZN12_GLOBAL__N_112print_stringEPKcP6Status>:
    446d: 18           	clc
    446e: a5 10        	lda	$10                     ; 0x2010 <filePickModal+0x390>
    4470: 69 fc        	adc	#$fc
    4472: 85 10        	sta	$10                     ; 0x2010 <filePickModal+0x390>
    4474: a5 11        	lda	$11                     ; 0x2011 <filePickModal+0x391>
    4476: 69 ff        	adc	#$ff
    4478: 85 11        	sta	$11                     ; 0x2011 <filePickModal+0x391>
    447a: a6 24        	ldx	$24                     ; 0x2024 <filePickModal+0x3a4>
    447c: da           	phx
    447d: a6 25        	ldx	$25                     ; 0x2025 <filePickModal+0x3a5>
    447f: da           	phx
    4480: a6 26        	ldx	$26                     ; 0x2026 <filePickModal+0x3a6>
    4482: da           	phx
    4483: a6 27        	ldx	$27                     ; 0x2027 <filePickModal+0x3a7>
    4485: da           	phx
    4486: a5 28        	lda	$28                     ; 0x2028 <filePickModal+0x3a8>
    4488: a0 02        	ldy	#$2
    448a: 91 10        	sta	($10),y                 ; 0x2010 <filePickModal+0x390>
    448c: a5 29        	lda	$29                     ; 0x2029 <filePickModal+0x3a9>
    448e: 88           	dey
    448f: 91 10        	sta	($10),y                 ; 0x2010 <filePickModal+0x390>
    4491: a5 2a        	lda	$2a                     ; 0x202a <filePickModal+0x3aa>
    4493: 88           	dey
    4494: 91 10        	sta	($10),y                 ; 0x2010 <filePickModal+0x390>
    4496: a6 12        	ldx	$12                     ; 0x2012 <filePickModal+0x392>
    4498: 86 24        	stx	$24                     ; 0x2024 <filePickModal+0x3a4>
    449a: a6 13        	ldx	$13                     ; 0x2013 <filePickModal+0x393>
    449c: 86 25        	stx	$25                     ; 0x2025 <filePickModal+0x3a5>
    449e: a6 14        	ldx	$14                     ; 0x2014 <filePickModal+0x394>
    44a0: 86 26        	stx	$26                     ; 0x2026 <filePickModal+0x3a6>
    44a2: a6 15        	ldx	$15                     ; 0x2015 <filePickModal+0x395>
    44a4: 86 27        	stx	$27                     ; 0x2027 <filePickModal+0x3a7>
    44a6: a5 26        	lda	$26                     ; 0x2026 <filePickModal+0x3a6>
    44a8: 18           	clc
    44a9: 69 0d        	adc	#$d
    44ab: 85 12        	sta	$12                     ; 0x2012 <filePickModal+0x392>
    44ad: a5 27        	lda	$27                     ; 0x2027 <filePickModal+0x3a7>
    44af: 69 00        	adc	#$0
    44b1: 85 13        	sta	$13                     ; 0x2013 <filePickModal+0x393>
    44b3: c8           	iny
    44b4: b1 12        	lda	($12),y                 ; 0x2012 <filePickModal+0x392>
    44b6: 30 1c        	bmi	$44d4 <_ZN12_GLOBAL__N_112print_stringEPKcP6Status+0x67>
    44b8: a0 0d        	ldy	#$d
    44ba: aa           	tax
    44bb: b1 26        	lda	($26),y                 ; 0x2026 <filePickModal+0x3a6>
    44bd: 48           	pha
    44be: 8a           	txa
    44bf: a0 03        	ldy	#$3
    44c1: 91 10        	sta	($10),y                 ; 0x2010 <filePickModal+0x390>
    44c3: 68           	pla
    44c4: e0 00        	cpx	#$0
    44c6: d0 16        	bne	$44de <_ZN12_GLOBAL__N_112print_stringEPKcP6Status+0x71>
    44c8: aa           	tax
    44c9: d0 13        	bne	$44de <_ZN12_GLOBAL__N_112print_stringEPKcP6Status+0x71>
    44cb: 64 28        	stz	$28                     ; 0x2028 <filePickModal+0x3a8>
    44cd: 64 12        	stz	$12                     ; 0x2012 <filePickModal+0x392>
    44cf: a9 00        	lda	#$0
    44d1: 4c dc 45     	jmp	$45dc <_ZN12_GLOBAL__N_112print_stringEPKcP6Status+0x16f>
    44d4: a9 ff        	lda	#$ff
    44d6: aa           	tax
    44d7: 48           	pha
    44d8: 8a           	txa
    44d9: a0 03        	ldy	#$3
    44db: 91 10        	sta	($10),y                 ; 0x2010 <filePickModal+0x390>
    44dd: 68           	pla
    44de: 85 28        	sta	$28                     ; 0x2028 <filePickModal+0x3a8>
    44e0: 64 12        	stz	$12                     ; 0x2012 <filePickModal+0x392>
    44e2: a4 24        	ldy	$24                     ; 0x2024 <filePickModal+0x3a4>
    44e4: a6 25        	ldx	$25                     ; 0x2025 <filePickModal+0x3a5>
    44e6: 86 16        	stx	$16                     ; 0x2016 <filePickModal+0x396>
    44e8: 64 13        	stz	$13                     ; 0x2013 <filePickModal+0x393>
    44ea: 98           	tya
    44eb: 18           	clc
    44ec: 65 12        	adc	$12                     ; 0x2012 <filePickModal+0x392>
    44ee: 85 14        	sta	$14                     ; 0x2014 <filePickModal+0x394>
    44f0: a5 25        	lda	$25                     ; 0x2025 <filePickModal+0x3a5>
    44f2: 65 13        	adc	$13                     ; 0x2013 <filePickModal+0x393>
    44f4: 85 15        	sta	$15                     ; 0x2015 <filePickModal+0x395>
    44f6: b2 14        	lda	($14)                   ; 0x2014 <filePickModal+0x394>
    44f8: d0 03        	bne	$44fd <_ZN12_GLOBAL__N_112print_stringEPKcP6Status+0x90>
    44fa: 4c d4 45     	jmp	$45d4 <_ZN12_GLOBAL__N_112print_stringEPKcP6Status+0x167>
    44fd: e6 12        	inc	$12                     ; 0x2012 <filePickModal+0x392>
    44ff: d0 02        	bne	$4503 <_ZN12_GLOBAL__N_112print_stringEPKcP6Status+0x96>
    4501: e6 13        	inc	$13                     ; 0x2013 <filePickModal+0x393>
    4503: 5a           	phy
    4504: a0 03        	ldy	#$3
    4506: b1 10        	lda	($10),y                 ; 0x2010 <filePickModal+0x390>
    4508: 7a           	ply
    4509: c5 13        	cmp	$13                     ; 0x2013 <filePickModal+0x393>
    450b: d0 dd        	bne	$44ea <_ZN12_GLOBAL__N_112print_stringEPKcP6Status+0x7d>
    450d: a6 28        	ldx	$28                     ; 0x2028 <filePickModal+0x3a8>
    450f: e4 12        	cpx	$12                     ; 0x2012 <filePickModal+0x392>
    4511: d0 d7        	bne	$44ea <_ZN12_GLOBAL__N_112print_stringEPKcP6Status+0x7d>
    4513: a0 01        	ldy	#$1
    4515: b1 26        	lda	($26),y                 ; 0x2026 <filePickModal+0x3a6>
    4517: 29 01        	and	#$1
    4519: f0 03        	beq	$451e <_ZN12_GLOBAL__N_112print_stringEPKcP6Status+0xb1>
    451b: 4c 79 45     	jmp	$4579 <_ZN12_GLOBAL__N_112print_stringEPKcP6Status+0x10c>
    451e: a5 26        	lda	$26                     ; 0x2026 <filePickModal+0x3a6>
    4520: 18           	clc
    4521: 69 0b        	adc	#$b
    4523: 85 14        	sta	$14                     ; 0x2014 <filePickModal+0x394>
    4525: a5 27        	lda	$27                     ; 0x2027 <filePickModal+0x3a7>
    4527: 69 00        	adc	#$0
    4529: 85 15        	sta	$15                     ; 0x2015 <filePickModal+0x395>
    452b: a0 0b        	ldy	#$b
    452d: b1 26        	lda	($26),y                 ; 0x2026 <filePickModal+0x3a6>
    452f: 85 13        	sta	$13                     ; 0x2013 <filePickModal+0x393>
    4531: a0 01        	ldy	#$1
    4533: b1 14        	lda	($14),y                 ; 0x2014 <filePickModal+0x394>
    4535: 85 12        	sta	$12                     ; 0x2012 <filePickModal+0x392>
    4537: a0 03        	ldy	#$3
    4539: b1 10        	lda	($10),y                 ; 0x2010 <filePickModal+0x390>
    453b: aa           	tax
    453c: c5 12        	cmp	$12                     ; 0x2012 <filePickModal+0x392>
    453e: d0 08        	bne	$4548 <_ZN12_GLOBAL__N_112print_stringEPKcP6Status+0xdb>
    4540: a6 28        	ldx	$28                     ; 0x2028 <filePickModal+0x3a8>
    4542: e4 13        	cpx	$13                     ; 0x2013 <filePickModal+0x393>
    4544: 90 06        	bcc	$454c <_ZN12_GLOBAL__N_112print_stringEPKcP6Status+0xdf>
    4546: 80 31        	bra	$4579 <_ZN12_GLOBAL__N_112print_stringEPKcP6Status+0x10c>
    4548: e4 12        	cpx	$12                     ; 0x2012 <filePickModal+0x392>
    454a: b0 2d        	bcs	$4579 <_ZN12_GLOBAL__N_112print_stringEPKcP6Status+0x10c>
    454c: 38           	sec
    454d: a5 28        	lda	$28                     ; 0x2028 <filePickModal+0x3a8>
    454f: e5 13        	sbc	$13                     ; 0x2013 <filePickModal+0x393>
    4551: aa           	tax
    4552: b1 10        	lda	($10),y                 ; 0x2010 <filePickModal+0x390>
    4554: e5 12        	sbc	$12                     ; 0x2012 <filePickModal+0x392>
    4556: 85 2a        	sta	$2a                     ; 0x202a <filePickModal+0x3aa>
    4558: a4 26        	ldy	$26                     ; 0x2026 <filePickModal+0x3a6>
    455a: 84 12        	sty	$12                     ; 0x2012 <filePickModal+0x392>
    455c: a4 27        	ldy	$27                     ; 0x2027 <filePickModal+0x3a7>
    455e: 84 13        	sty	$13                     ; 0x2013 <filePickModal+0x393>
    4560: 86 29        	stx	$29                     ; 0x2029 <filePickModal+0x3a9>
    4562: a9 20        	lda	#$20
    4564: 20 8c 43     	jsr	$438c <_ZN12_GLOBAL__N_13putEcP6Status>
    4567: a4 2a        	ldy	$2a                     ; 0x202a <filePickModal+0x3aa>
    4569: e6 29        	inc	$29                     ; 0x2029 <filePickModal+0x3a9>
    456b: d0 01        	bne	$456e <_ZN12_GLOBAL__N_112print_stringEPKcP6Status+0x101>
    456d: c8           	iny
    456e: 84 2a        	sty	$2a                     ; 0x202a <filePickModal+0x3aa>
    4570: a6 29        	ldx	$29                     ; 0x2029 <filePickModal+0x3a9>
    4572: 98           	tya
    4573: d0 e3        	bne	$4558 <_ZN12_GLOBAL__N_112print_stringEPKcP6Status+0xeb>
    4575: a5 29        	lda	$29                     ; 0x2029 <filePickModal+0x3a9>
    4577: d0 df        	bne	$4558 <_ZN12_GLOBAL__N_112print_stringEPKcP6Status+0xeb>
    4579: a0 03        	ldy	#$3
    457b: b1 10        	lda	($10),y                 ; 0x2010 <filePickModal+0x390>
    457d: a8           	tay
    457e: d0 04        	bne	$4584 <_ZN12_GLOBAL__N_112print_stringEPKcP6Status+0x117>
    4580: a5 28        	lda	$28                     ; 0x2028 <filePickModal+0x3a8>
    4582: f0 26        	beq	$45aa <_ZN12_GLOBAL__N_112print_stringEPKcP6Status+0x13d>
    4584: a2 ff        	ldx	#$ff
    4586: c6 28        	dec	$28                     ; 0x2028 <filePickModal+0x3a8>
    4588: e4 28        	cpx	$28                     ; 0x2028 <filePickModal+0x3a8>
    458a: d0 01        	bne	$458d <_ZN12_GLOBAL__N_112print_stringEPKcP6Status+0x120>
    458c: 88           	dey
    458d: 84 29        	sty	$29                     ; 0x2029 <filePickModal+0x3a9>
    458f: b2 24        	lda	($24)                   ; 0x2024 <filePickModal+0x3a4>
    4591: e6 24        	inc	$24                     ; 0x2024 <filePickModal+0x3a4>
    4593: d0 02        	bne	$4597 <_ZN12_GLOBAL__N_112print_stringEPKcP6Status+0x12a>
    4595: e6 25        	inc	$25                     ; 0x2025 <filePickModal+0x3a5>
    4597: a6 26        	ldx	$26                     ; 0x2026 <filePickModal+0x3a6>
    4599: 86 12        	stx	$12                     ; 0x2012 <filePickModal+0x392>
    459b: a6 27        	ldx	$27                     ; 0x2027 <filePickModal+0x3a7>
    459d: 86 13        	stx	$13                     ; 0x2013 <filePickModal+0x393>
    459f: 20 8c 43     	jsr	$438c <_ZN12_GLOBAL__N_13putEcP6Status>
    45a2: a4 29        	ldy	$29                     ; 0x2029 <filePickModal+0x3a9>
    45a4: d0 de        	bne	$4584 <_ZN12_GLOBAL__N_112print_stringEPKcP6Status+0x117>
    45a6: a5 28        	lda	$28                     ; 0x2028 <filePickModal+0x3a8>
    45a8: d0 da        	bne	$4584 <_ZN12_GLOBAL__N_112print_stringEPKcP6Status+0x117>
    45aa: a0 00        	ldy	#$0
    45ac: b1 10        	lda	($10),y                 ; 0x2010 <filePickModal+0x390>
    45ae: 85 2a        	sta	$2a                     ; 0x202a <filePickModal+0x3aa>
    45b0: c8           	iny
    45b1: b1 10        	lda	($10),y                 ; 0x2010 <filePickModal+0x390>
    45b3: 85 29        	sta	$29                     ; 0x2029 <filePickModal+0x3a9>
    45b5: c8           	iny
    45b6: b1 10        	lda	($10),y                 ; 0x2010 <filePickModal+0x390>
    45b8: 85 28        	sta	$28                     ; 0x2028 <filePickModal+0x3a8>
    45ba: fa           	plx
    45bb: 86 27        	stx	$27                     ; 0x2027 <filePickModal+0x3a7>
    45bd: fa           	plx
    45be: 86 26        	stx	$26                     ; 0x2026 <filePickModal+0x3a6>
    45c0: fa           	plx
    45c1: 86 25        	stx	$25                     ; 0x2025 <filePickModal+0x3a5>
    45c3: fa           	plx
    45c4: 86 24        	stx	$24                     ; 0x2024 <filePickModal+0x3a4>
    45c6: 18           	clc
    45c7: a5 10        	lda	$10                     ; 0x2010 <filePickModal+0x390>
    45c9: 69 04        	adc	#$4
    45cb: 85 10        	sta	$10                     ; 0x2010 <filePickModal+0x390>
    45cd: a5 11        	lda	$11                     ; 0x2011 <filePickModal+0x391>
    45cf: 69 00        	adc	#$0
    45d1: 85 11        	sta	$11                     ; 0x2011 <filePickModal+0x391>
    45d3: 60           	rts
    45d4: a6 12        	ldx	$12                     ; 0x2012 <filePickModal+0x392>
    45d6: 86 28        	stx	$28                     ; 0x2028 <filePickModal+0x3a8>
    45d8: a5 13        	lda	$13                     ; 0x2013 <filePickModal+0x393>
    45da: a0 03        	ldy	#$3
    45dc: 91 10        	sta	($10),y                 ; 0x2010 <filePickModal+0x390>
    45de: 4c 13 45     	jmp	$4513 <_ZN12_GLOBAL__N_112print_stringEPKcP6Status+0xa6>

000045e1 <printf>:
    45e1: 18           	clc
    45e2: a5 10        	lda	$10                     ; 0x2010 <filePickModal+0x390>
    45e4: 69 fe        	adc	#$fe
    45e6: 85 10        	sta	$10                     ; 0x2010 <filePickModal+0x390>
    45e8: a5 11        	lda	$11                     ; 0x2011 <filePickModal+0x391>
    45ea: 69 ff        	adc	#$ff
    45ec: 85 11        	sta	$11                     ; 0x2011 <filePickModal+0x391>
    45ee: a6 12        	ldx	$12                     ; 0x2012 <filePickModal+0x392>
    45f0: 86 14        	stx	$14                     ; 0x2014 <filePickModal+0x394>
    45f2: a6 13        	ldx	$13                     ; 0x2013 <filePickModal+0x393>
    45f4: 86 15        	stx	$15                     ; 0x2015 <filePickModal+0x395>
    45f6: 18           	clc
    45f7: a5 10        	lda	$10                     ; 0x2010 <filePickModal+0x390>
    45f9: 69 02        	adc	#$2
    45fb: 48           	pha
    45fc: a5 11        	lda	$11                     ; 0x2011 <filePickModal+0x391>
    45fe: 69 00        	adc	#$0
    4600: 85 12        	sta	$12                     ; 0x2012 <filePickModal+0x392>
    4602: 68           	pla
    4603: 18           	clc
    4604: a6 10        	ldx	$10                     ; 0x2010 <filePickModal+0x390>
    4606: 86 16        	stx	$16                     ; 0x2016 <filePickModal+0x396>
    4608: a6 11        	ldx	$11                     ; 0x2011 <filePickModal+0x391>
    460a: 86 17        	stx	$17                     ; 0x2017 <filePickModal+0x397>
    460c: 92 16        	sta	($16)                   ; 0x2016 <filePickModal+0x396>
    460e: a0 01        	ldy	#$1
    4610: a5 12        	lda	$12                     ; 0x2012 <filePickModal+0x392>
    4612: 91 16        	sta	($16),y                 ; 0x2016 <filePickModal+0x396>
    4614: a6 66        	ldx	$66                     ; 0x2066 <filePickModal+0x3e6>
    4616: a5 67        	lda	$67                     ; 0x2067 <filePickModal+0x3e7>
    4618: 86 12        	stx	$12                     ; 0x2012 <filePickModal+0x392>
    461a: 85 13        	sta	$13                     ; 0x2013 <filePickModal+0x393>
    461c: b2 16        	lda	($16)                   ; 0x2016 <filePickModal+0x396>
    461e: aa           	tax
    461f: b1 16        	lda	($16),y                 ; 0x2016 <filePickModal+0x396>
    4621: 86 16        	stx	$16                     ; 0x2016 <filePickModal+0x396>
    4623: 85 17        	sta	$17                     ; 0x2017 <filePickModal+0x397>
    4625: 20 30 36     	jsr	$3630 <vfprintf>
    4628: 48           	pha
    4629: 18           	clc
    462a: a5 10        	lda	$10                     ; 0x2010 <filePickModal+0x390>
    462c: 69 02        	adc	#$2
    462e: 85 10        	sta	$10                     ; 0x2010 <filePickModal+0x390>
    4630: a5 11        	lda	$11                     ; 0x2011 <filePickModal+0x391>
    4632: 69 00        	adc	#$0
    4634: 85 11        	sta	$11                     ; 0x2011 <filePickModal+0x391>
    4636: 68           	pla
    4637: 60           	rts

00004638 <vsnprintf>:
    4638: 48           	pha
    4639: 18           	clc
    463a: a5 10        	lda	$10                     ; 0x2010 <filePickModal+0x390>
    463c: 69 e7        	adc	#$e7
    463e: 85 10        	sta	$10                     ; 0x2010 <filePickModal+0x390>
    4640: a5 11        	lda	$11                     ; 0x2011 <filePickModal+0x391>
    4642: 69 ff        	adc	#$ff
    4644: 85 11        	sta	$11                     ; 0x2011 <filePickModal+0x391>
    4646: 68           	pla
    4647: a4 24        	ldy	$24                     ; 0x2024 <filePickModal+0x3a4>
    4649: 5a           	phy
    464a: a4 25        	ldy	$25                     ; 0x2025 <filePickModal+0x3a5>
    464c: 5a           	phy
    464d: a4 26        	ldy	$26                     ; 0x2026 <filePickModal+0x3a6>
    464f: 5a           	phy
    4650: a4 27        	ldy	$27                     ; 0x2027 <filePickModal+0x3a7>
    4652: 5a           	phy
    4653: 48           	pha
    4654: a5 28        	lda	$28                     ; 0x2028 <filePickModal+0x3a8>
    4656: a0 03        	ldy	#$3
    4658: 91 10        	sta	($10),y                 ; 0x2010 <filePickModal+0x390>
    465a: a5 29        	lda	$29                     ; 0x2029 <filePickModal+0x3a9>
    465c: 88           	dey
    465d: 91 10        	sta	($10),y                 ; 0x2010 <filePickModal+0x390>
    465f: a5 2a        	lda	$2a                     ; 0x202a <filePickModal+0x3aa>
    4661: 88           	dey
    4662: 91 10        	sta	($10),y                 ; 0x2010 <filePickModal+0x390>
    4664: a5 2b        	lda	$2b                     ; 0x202b <filePickModal+0x3ab>
    4666: 88           	dey
    4667: 91 10        	sta	($10),y                 ; 0x2010 <filePickModal+0x390>
    4669: 68           	pla
    466a: 85 28        	sta	$28                     ; 0x2028 <filePickModal+0x3a8>
    466c: 86 29        	stx	$29                     ; 0x2029 <filePickModal+0x3a9>
    466e: a5 16        	lda	$16                     ; 0x2016 <filePickModal+0x396>
    4670: a6 17        	ldx	$17                     ; 0x2017 <filePickModal+0x397>
    4672: 18           	clc
    4673: 48           	pha
    4674: a5 10        	lda	$10                     ; 0x2010 <filePickModal+0x390>
    4676: 69 17        	adc	#$17
    4678: 85 16        	sta	$16                     ; 0x2016 <filePickModal+0x396>
    467a: a5 11        	lda	$11                     ; 0x2011 <filePickModal+0x391>
    467c: 69 00        	adc	#$0
    467e: 85 17        	sta	$17                     ; 0x2017 <filePickModal+0x397>
    4680: 68           	pla
    4681: 92 16        	sta	($16)                   ; 0x2016 <filePickModal+0x396>
    4683: c8           	iny
    4684: 8a           	txa
    4685: 91 16        	sta	($16),y                 ; 0x2016 <filePickModal+0x396>
    4687: 18           	clc
    4688: a5 10        	lda	$10                     ; 0x2010 <filePickModal+0x390>
    468a: 69 04        	adc	#$4
    468c: 48           	pha
    468d: a5 11        	lda	$11                     ; 0x2011 <filePickModal+0x391>
    468f: 69 00        	adc	#$0
    4691: aa           	tax
    4692: 68           	pla
    4693: 85 18        	sta	$18                     ; 0x2018 <filePickModal+0x398>
    4695: 86 19        	stx	$19                     ; 0x2019 <filePickModal+0x399>
    4697: 18           	clc
    4698: 85 2a        	sta	$2a                     ; 0x202a <filePickModal+0x3aa>
    469a: 69 03        	adc	#$3
    469c: 85 1a        	sta	$1a                     ; 0x201a <filePickModal+0x39a>
    469e: 86 2b        	stx	$2b                     ; 0x202b <filePickModal+0x3ab>
    46a0: 8a           	txa
    46a1: 69 00        	adc	#$0
    46a3: 85 1b        	sta	$1b                     ; 0x201b <filePickModal+0x39b>
    46a5: a0 03        	ldy	#$3
    46a7: a5 28        	lda	$28                     ; 0x2028 <filePickModal+0x3a8>
    46a9: 91 18        	sta	($18),y                 ; 0x2018 <filePickModal+0x398>
    46ab: 18           	clc
    46ac: a5 10        	lda	$10                     ; 0x2010 <filePickModal+0x390>
    46ae: 69 04        	adc	#$4
    46b0: 85 1c        	sta	$1c                     ; 0x201c <filePickModal+0x39c>
    46b2: a5 11        	lda	$11                     ; 0x2011 <filePickModal+0x391>
    46b4: 69 00        	adc	#$0
    46b6: aa           	tax
    46b7: a5 29        	lda	$29                     ; 0x2029 <filePickModal+0x3a9>
    46b9: a0 01        	ldy	#$1
    46bb: 91 1a        	sta	($1a),y                 ; 0x201a <filePickModal+0x39a>
    46bd: 18           	clc
    46be: a5 1c        	lda	$1c                     ; 0x201c <filePickModal+0x39c>
    46c0: 69 05        	adc	#$5
    46c2: 85 1a        	sta	$1a                     ; 0x201a <filePickModal+0x39a>
    46c4: 8a           	txa
    46c5: 69 00        	adc	#$0
    46c7: a0 05        	ldy	#$5
    46c9: 85 1b        	sta	$1b                     ; 0x201b <filePickModal+0x39b>
    46cb: a9 00        	lda	#$0
    46cd: 91 18        	sta	($18),y                 ; 0x2018 <filePickModal+0x398>
    46cf: a0 01        	ldy	#$1
    46d1: 91 1a        	sta	($1a),y                 ; 0x201a <filePickModal+0x39a>
    46d3: 18           	clc
    46d4: a5 10        	lda	$10                     ; 0x2010 <filePickModal+0x390>
    46d6: 69 04        	adc	#$4
    46d8: 48           	pha
    46d9: a5 11        	lda	$11                     ; 0x2011 <filePickModal+0x391>
    46db: 69 00        	adc	#$0
    46dd: 85 1a        	sta	$1a                     ; 0x201a <filePickModal+0x39a>
    46df: 68           	pla
    46e0: 18           	clc
    46e1: 69 09        	adc	#$9
    46e3: a8           	tay
    46e4: a5 1a        	lda	$1a                     ; 0x201a <filePickModal+0x39a>
    46e6: 69 00        	adc	#$0
    46e8: a6 12        	ldx	$12                     ; 0x2012 <filePickModal+0x392>
    46ea: 86 24        	stx	$24                     ; 0x2024 <filePickModal+0x3a4>
    46ec: a6 13        	ldx	$13                     ; 0x2013 <filePickModal+0x393>
    46ee: 86 25        	stx	$25                     ; 0x2025 <filePickModal+0x3a5>
    46f0: 84 12        	sty	$12                     ; 0x2012 <filePickModal+0x392>
    46f2: a0 09        	ldy	#$9
    46f4: 85 13        	sta	$13                     ; 0x2013 <filePickModal+0x393>
    46f6: a5 24        	lda	$24                     ; 0x2024 <filePickModal+0x3a4>
    46f8: 91 18        	sta	($18),y                 ; 0x2018 <filePickModal+0x398>
    46fa: a5 25        	lda	$25                     ; 0x2025 <filePickModal+0x3a5>
    46fc: a0 01        	ldy	#$1
    46fe: 91 12        	sta	($12),y                 ; 0x2012 <filePickModal+0x392>
    4700: 18           	clc
    4701: a5 10        	lda	$10                     ; 0x2010 <filePickModal+0x390>
    4703: 69 04        	adc	#$4
    4705: 48           	pha
    4706: a5 11        	lda	$11                     ; 0x2011 <filePickModal+0x391>
    4708: 69 00        	adc	#$0
    470a: 85 12        	sta	$12                     ; 0x2012 <filePickModal+0x392>
    470c: 68           	pla
    470d: 18           	clc
    470e: 69 0f        	adc	#$f
    4710: aa           	tax
    4711: a5 12        	lda	$12                     ; 0x2012 <filePickModal+0x392>
    4713: 69 00        	adc	#$0
    4715: 86 12        	stx	$12                     ; 0x2012 <filePickModal+0x392>
    4717: a0 0f        	ldy	#$f
    4719: 85 13        	sta	$13                     ; 0x2013 <filePickModal+0x393>
    471b: a2 00        	ldx	#$0
    471d: 86 1a        	stx	$1a                     ; 0x201a <filePickModal+0x39a>
    471f: a2 00        	ldx	#$0
    4721: 86 1b        	stx	$1b                     ; 0x201b <filePickModal+0x39b>
    4723: a5 1a        	lda	$1a                     ; 0x201a <filePickModal+0x39a>
    4725: 91 18        	sta	($18),y                 ; 0x2018 <filePickModal+0x398>
    4727: a5 1b        	lda	$1b                     ; 0x201b <filePickModal+0x39b>
    4729: a0 01        	ldy	#$1
    472b: 91 12        	sta	($12),y                 ; 0x2012 <filePickModal+0x392>
    472d: b2 16        	lda	($16)                   ; 0x2016 <filePickModal+0x396>
    472f: 85 12        	sta	$12                     ; 0x2012 <filePickModal+0x392>
    4731: b1 16        	lda	($16),y                 ; 0x2016 <filePickModal+0x396>
    4733: 85 1a        	sta	$1a                     ; 0x201a <filePickModal+0x39a>
    4735: a0 11        	ldy	#$11
    4737: a5 12        	lda	$12                     ; 0x2012 <filePickModal+0x392>
    4739: 91 18        	sta	($18),y                 ; 0x2018 <filePickModal+0x398>
    473b: a0 01        	ldy	#$1
    473d: 18           	clc
    473e: a5 10        	lda	$10                     ; 0x2010 <filePickModal+0x390>
    4740: 69 04        	adc	#$4
    4742: 48           	pha
    4743: a5 11        	lda	$11                     ; 0x2011 <filePickModal+0x391>
    4745: 69 00        	adc	#$0
    4747: 85 12        	sta	$12                     ; 0x2012 <filePickModal+0x392>
    4749: 68           	pla
    474a: 18           	clc
    474b: 69 11        	adc	#$11
    474d: 85 16        	sta	$16                     ; 0x2016 <filePickModal+0x396>
    474f: a5 12        	lda	$12                     ; 0x2012 <filePickModal+0x392>
    4751: 69 00        	adc	#$0
    4753: 85 17        	sta	$17                     ; 0x2017 <filePickModal+0x397>
    4755: a6 14        	ldx	$14                     ; 0x2014 <filePickModal+0x394>
    4757: 86 12        	stx	$12                     ; 0x2012 <filePickModal+0x392>
    4759: a6 15        	ldx	$15                     ; 0x2015 <filePickModal+0x395>
    475b: 86 13        	stx	$13                     ; 0x2013 <filePickModal+0x393>
    475d: a5 1a        	lda	$1a                     ; 0x201a <filePickModal+0x39a>
    475f: 91 16        	sta	($16),y                 ; 0x2016 <filePickModal+0x396>
    4761: a6 12        	ldx	$12                     ; 0x2012 <filePickModal+0x392>
    4763: 86 26        	stx	$26                     ; 0x2026 <filePickModal+0x3a6>
    4765: a6 13        	ldx	$13                     ; 0x2013 <filePickModal+0x393>
    4767: 86 27        	stx	$27                     ; 0x2027 <filePickModal+0x3a7>
    4769: b2 12        	lda	($12)                   ; 0x2012 <filePickModal+0x392>
    476b: c9 25        	cmp	#$25
    476d: d0 03        	bne	$4772 <vsnprintf+0x13a>
    476f: 4c 04 48     	jmp	$4804 <vsnprintf+0x1cc>
    4772: aa           	tax
    4773: d0 03        	bne	$4778 <vsnprintf+0x140>
    4775: 4c 2e 48     	jmp	$482e <vsnprintf+0x1f6>
    4778: 18           	clc
    4779: a5 10        	lda	$10                     ; 0x2010 <filePickModal+0x390>
    477b: 69 04        	adc	#$4
    477d: 48           	pha
    477e: a5 11        	lda	$11                     ; 0x2011 <filePickModal+0x391>
    4780: 69 00        	adc	#$0
    4782: aa           	tax
    4783: 68           	pla
    4784: 85 12        	sta	$12                     ; 0x2012 <filePickModal+0x392>
    4786: 86 13        	stx	$13                     ; 0x2013 <filePickModal+0x393>
    4788: 18           	clc
    4789: 69 05        	adc	#$5
    478b: 85 14        	sta	$14                     ; 0x2014 <filePickModal+0x394>
    478d: 8a           	txa
    478e: 69 00        	adc	#$0
    4790: 85 15        	sta	$15                     ; 0x2015 <filePickModal+0x395>
    4792: a0 05        	ldy	#$5
    4794: b1 12        	lda	($12),y                 ; 0x2012 <filePickModal+0x392>
    4796: aa           	tax
    4797: 85 13        	sta	$13                     ; 0x2013 <filePickModal+0x393>
    4799: a0 01        	ldy	#$1
    479b: b1 14        	lda	($14),y                 ; 0x2014 <filePickModal+0x394>
    479d: 85 12        	sta	$12                     ; 0x2012 <filePickModal+0x392>
    479f: c5 29        	cmp	$29                     ; 0x2029 <filePickModal+0x3a9>
    47a1: f0 03        	beq	$47a6 <vsnprintf+0x16e>
    47a3: 4c 24 48     	jmp	$4824 <vsnprintf+0x1ec>
    47a6: e4 28        	cpx	$28                     ; 0x2028 <filePickModal+0x3a8>
    47a8: b0 15        	bcs	$47bf <vsnprintf+0x187>
    47aa: b2 26        	lda	($26)                   ; 0x2026 <filePickModal+0x3a6>
    47ac: 85 16        	sta	$16                     ; 0x2016 <filePickModal+0x396>
    47ae: a5 24        	lda	$24                     ; 0x2024 <filePickModal+0x3a4>
    47b0: 18           	clc
    47b1: 65 13        	adc	$13                     ; 0x2013 <filePickModal+0x393>
    47b3: 85 14        	sta	$14                     ; 0x2014 <filePickModal+0x394>
    47b5: a5 25        	lda	$25                     ; 0x2025 <filePickModal+0x3a5>
    47b7: 65 12        	adc	$12                     ; 0x2012 <filePickModal+0x392>
    47b9: 85 15        	sta	$15                     ; 0x2015 <filePickModal+0x395>
    47bb: a5 16        	lda	$16                     ; 0x2016 <filePickModal+0x396>
    47bd: 92 14        	sta	($14)                   ; 0x2014 <filePickModal+0x394>
    47bf: a6 13        	ldx	$13                     ; 0x2013 <filePickModal+0x393>
    47c1: 18           	clc
    47c2: a5 10        	lda	$10                     ; 0x2010 <filePickModal+0x390>
    47c4: 69 04        	adc	#$4
    47c6: 48           	pha
    47c7: a5 11        	lda	$11                     ; 0x2011 <filePickModal+0x391>
    47c9: 69 00        	adc	#$0
    47cb: a8           	tay
    47cc: 68           	pla
    47cd: 85 14        	sta	$14                     ; 0x2014 <filePickModal+0x394>
    47cf: 84 15        	sty	$15                     ; 0x2015 <filePickModal+0x395>
    47d1: 18           	clc
    47d2: 69 05        	adc	#$5
    47d4: 85 16        	sta	$16                     ; 0x2016 <filePickModal+0x396>
    47d6: 98           	tya
    47d7: 69 00        	adc	#$0
    47d9: a4 12        	ldy	$12                     ; 0x2012 <filePickModal+0x392>
    47db: 84 17        	sty	$17                     ; 0x2017 <filePickModal+0x397>
    47dd: a4 16        	ldy	$16                     ; 0x2016 <filePickModal+0x396>
    47df: 84 12        	sty	$12                     ; 0x2012 <filePickModal+0x392>
    47e1: 85 13        	sta	$13                     ; 0x2013 <filePickModal+0x393>
    47e3: 8a           	txa
    47e4: 1a           	inc
    47e5: d0 02        	bne	$47e9 <vsnprintf+0x1b1>
    47e7: e6 17        	inc	$17                     ; 0x2017 <filePickModal+0x397>
    47e9: a0 05        	ldy	#$5
    47eb: 91 14        	sta	($14),y                 ; 0x2014 <filePickModal+0x394>
    47ed: a0 01        	ldy	#$1
    47ef: a5 17        	lda	$17                     ; 0x2017 <filePickModal+0x397>
    47f1: 91 12        	sta	($12),y                 ; 0x2012 <filePickModal+0x392>
    47f3: e6 26        	inc	$26                     ; 0x2026 <filePickModal+0x3a6>
    47f5: d0 02        	bne	$47f9 <vsnprintf+0x1c1>
    47f7: e6 27        	inc	$27                     ; 0x2027 <filePickModal+0x3a7>
    47f9: a6 26        	ldx	$26                     ; 0x2026 <filePickModal+0x3a6>
    47fb: 86 12        	stx	$12                     ; 0x2012 <filePickModal+0x392>
    47fd: a6 27        	ldx	$27                     ; 0x2027 <filePickModal+0x3a7>
    47ff: 86 13        	stx	$13                     ; 0x2013 <filePickModal+0x393>
    4801: 4c 61 47     	jmp	$4761 <vsnprintf+0x129>
    4804: a6 2a        	ldx	$2a                     ; 0x202a <filePickModal+0x3aa>
    4806: 86 14        	stx	$14                     ; 0x2014 <filePickModal+0x394>
    4808: a6 2b        	ldx	$2b                     ; 0x202b <filePickModal+0x3ab>
    480a: 86 15        	stx	$15                     ; 0x2015 <filePickModal+0x395>
    480c: 20 48 38     	jsr	$3848 <_ZN12_GLOBAL__N_15printEPKcP6Status>
    480f: a6 13        	ldx	$13                     ; 0x2013 <filePickModal+0x393>
    4811: e4 27        	cpx	$27                     ; 0x2027 <filePickModal+0x3a7>
    4813: f0 03        	beq	$4818 <vsnprintf+0x1e0>
    4815: 4c 61 47     	jmp	$4761 <vsnprintf+0x129>
    4818: a6 12        	ldx	$12                     ; 0x2012 <filePickModal+0x392>
    481a: e4 26        	cpx	$26                     ; 0x2026 <filePickModal+0x3a6>
    481c: f0 03        	beq	$4821 <vsnprintf+0x1e9>
    481e: 4c 61 47     	jmp	$4761 <vsnprintf+0x129>
    4821: 4c 78 47     	jmp	$4778 <vsnprintf+0x140>
    4824: c5 29        	cmp	$29                     ; 0x2029 <filePickModal+0x3a9>
    4826: b0 03        	bcs	$482b <vsnprintf+0x1f3>
    4828: 4c aa 47     	jmp	$47aa <vsnprintf+0x172>
    482b: 4c bf 47     	jmp	$47bf <vsnprintf+0x187>
    482e: a0 05        	ldy	#$5
    4830: 18           	clc
    4831: a5 10        	lda	$10                     ; 0x2010 <filePickModal+0x390>
    4833: 69 04        	adc	#$4
    4835: 48           	pha
    4836: a5 11        	lda	$11                     ; 0x2011 <filePickModal+0x391>
    4838: 69 00        	adc	#$0
    483a: aa           	tax
    483b: 68           	pla
    483c: 85 12        	sta	$12                     ; 0x2012 <filePickModal+0x392>
    483e: 86 13        	stx	$13                     ; 0x2013 <filePickModal+0x393>
    4840: 18           	clc
    4841: 69 05        	adc	#$5
    4843: 85 14        	sta	$14                     ; 0x2014 <filePickModal+0x394>
    4845: 8a           	txa
    4846: 69 00        	adc	#$0
    4848: 85 15        	sta	$15                     ; 0x2015 <filePickModal+0x395>
    484a: b1 12        	lda	($12),y                 ; 0x2012 <filePickModal+0x392>
    484c: aa           	tax
    484d: 85 12        	sta	$12                     ; 0x2012 <filePickModal+0x392>
    484f: a0 01        	ldy	#$1
    4851: b1 14        	lda	($14),y                 ; 0x2014 <filePickModal+0x394>
    4853: 85 13        	sta	$13                     ; 0x2013 <filePickModal+0x393>
    4855: c5 29        	cmp	$29                     ; 0x2029 <filePickModal+0x3a9>
    4857: f0 03        	beq	$485c <vsnprintf+0x224>
    4859: 4c ca 48     	jmp	$48ca <vsnprintf+0x292>
    485c: e4 28        	cpx	$28                     ; 0x2028 <filePickModal+0x3a8>
    485e: b0 11        	bcs	$4871 <vsnprintf+0x239>
    4860: a5 24        	lda	$24                     ; 0x2024 <filePickModal+0x3a4>
    4862: 18           	clc
    4863: 65 12        	adc	$12                     ; 0x2012 <filePickModal+0x392>
    4865: 85 12        	sta	$12                     ; 0x2012 <filePickModal+0x392>
    4867: a5 25        	lda	$25                     ; 0x2025 <filePickModal+0x3a5>
    4869: 65 13        	adc	$13                     ; 0x2013 <filePickModal+0x393>
    486b: 85 13        	sta	$13                     ; 0x2013 <filePickModal+0x393>
    486d: a9 00        	lda	#$0
    486f: 92 12        	sta	($12)                   ; 0x2012 <filePickModal+0x392>
    4871: a0 05        	ldy	#$5
    4873: 18           	clc
    4874: a5 10        	lda	$10                     ; 0x2010 <filePickModal+0x390>
    4876: 69 04        	adc	#$4
    4878: 48           	pha
    4879: a5 11        	lda	$11                     ; 0x2011 <filePickModal+0x391>
    487b: 69 00        	adc	#$0
    487d: aa           	tax
    487e: 68           	pla
    487f: 85 12        	sta	$12                     ; 0x2012 <filePickModal+0x392>
    4881: 86 13        	stx	$13                     ; 0x2013 <filePickModal+0x393>
    4883: 18           	clc
    4884: 69 05        	adc	#$5
    4886: 85 14        	sta	$14                     ; 0x2014 <filePickModal+0x394>
    4888: 8a           	txa
    4889: 69 00        	adc	#$0
    488b: 85 15        	sta	$15                     ; 0x2015 <filePickModal+0x395>
    488d: b1 12        	lda	($12),y                 ; 0x2012 <filePickModal+0x392>
    488f: 85 12        	sta	$12                     ; 0x2012 <filePickModal+0x392>
    4891: a0 01        	ldy	#$1
    4893: b1 14        	lda	($14),y                 ; 0x2014 <filePickModal+0x394>
    4895: aa           	tax
    4896: a5 12        	lda	$12                     ; 0x2012 <filePickModal+0x392>
    4898: 85 20        	sta	$20                     ; 0x2020 <filePickModal+0x3a0>
    489a: 88           	dey
    489b: b1 10        	lda	($10),y                 ; 0x2010 <filePickModal+0x390>
    489d: 85 2b        	sta	$2b                     ; 0x202b <filePickModal+0x3ab>
    489f: c8           	iny
    48a0: b1 10        	lda	($10),y                 ; 0x2010 <filePickModal+0x390>
    48a2: 85 2a        	sta	$2a                     ; 0x202a <filePickModal+0x3aa>
    48a4: c8           	iny
    48a5: b1 10        	lda	($10),y                 ; 0x2010 <filePickModal+0x390>
    48a7: 85 29        	sta	$29                     ; 0x2029 <filePickModal+0x3a9>
    48a9: c8           	iny
    48aa: b1 10        	lda	($10),y                 ; 0x2010 <filePickModal+0x390>
    48ac: 85 28        	sta	$28                     ; 0x2028 <filePickModal+0x3a8>
    48ae: 7a           	ply
    48af: 84 27        	sty	$27                     ; 0x2027 <filePickModal+0x3a7>
    48b1: 7a           	ply
    48b2: 84 26        	sty	$26                     ; 0x2026 <filePickModal+0x3a6>
    48b4: 7a           	ply
    48b5: 84 25        	sty	$25                     ; 0x2025 <filePickModal+0x3a5>
    48b7: 7a           	ply
    48b8: 84 24        	sty	$24                     ; 0x2024 <filePickModal+0x3a4>
    48ba: 18           	clc
    48bb: a5 10        	lda	$10                     ; 0x2010 <filePickModal+0x390>
    48bd: 69 19        	adc	#$19
    48bf: 85 10        	sta	$10                     ; 0x2010 <filePickModal+0x390>
    48c1: a5 11        	lda	$11                     ; 0x2011 <filePickModal+0x391>
    48c3: 69 00        	adc	#$0
    48c5: 85 11        	sta	$11                     ; 0x2011 <filePickModal+0x391>
    48c7: a5 20        	lda	$20                     ; 0x2020 <filePickModal+0x3a0>
    48c9: 60           	rts
    48ca: c5 29        	cmp	$29                     ; 0x2029 <filePickModal+0x3a9>
    48cc: b0 03        	bcs	$48d1 <vsnprintf+0x299>
    48ce: 4c 60 48     	jmp	$4860 <vsnprintf+0x228>
    48d1: 4c 71 48     	jmp	$4871 <vsnprintf+0x239>

000048d4 <sprintf>:
    48d4: 18           	clc
    48d5: a5 10        	lda	$10                     ; 0x2010 <filePickModal+0x390>
    48d7: 69 fe        	adc	#$fe
    48d9: 85 10        	sta	$10                     ; 0x2010 <filePickModal+0x390>
    48db: a5 11        	lda	$11                     ; 0x2011 <filePickModal+0x391>
    48dd: 69 ff        	adc	#$ff
    48df: 85 11        	sta	$11                     ; 0x2011 <filePickModal+0x391>
    48e1: 18           	clc
    48e2: a5 10        	lda	$10                     ; 0x2010 <filePickModal+0x390>
    48e4: 69 02        	adc	#$2
    48e6: 48           	pha
    48e7: a5 11        	lda	$11                     ; 0x2011 <filePickModal+0x391>
    48e9: 69 00        	adc	#$0
    48eb: 85 18        	sta	$18                     ; 0x2018 <filePickModal+0x398>
    48ed: 68           	pla
    48ee: 18           	clc
    48ef: a6 10        	ldx	$10                     ; 0x2010 <filePickModal+0x390>
    48f1: 86 16        	stx	$16                     ; 0x2016 <filePickModal+0x396>
    48f3: a6 11        	ldx	$11                     ; 0x2011 <filePickModal+0x391>
    48f5: 86 17        	stx	$17                     ; 0x2017 <filePickModal+0x397>
    48f7: 92 16        	sta	($16)                   ; 0x2016 <filePickModal+0x396>
    48f9: a0 01        	ldy	#$1
    48fb: a5 18        	lda	$18                     ; 0x2018 <filePickModal+0x398>
    48fd: 91 16        	sta	($16),y                 ; 0x2016 <filePickModal+0x396>
    48ff: b2 16        	lda	($16)                   ; 0x2016 <filePickModal+0x396>
    4901: aa           	tax
    4902: b1 16        	lda	($16),y                 ; 0x2016 <filePickModal+0x396>
    4904: 86 16        	stx	$16                     ; 0x2016 <filePickModal+0x396>
    4906: 85 17        	sta	$17                     ; 0x2017 <filePickModal+0x397>
    4908: a2 ff        	ldx	#$ff
    490a: 8a           	txa
    490b: 20 38 46     	jsr	$4638 <vsnprintf>
    490e: 48           	pha
    490f: 18           	clc
    4910: a5 10        	lda	$10                     ; 0x2010 <filePickModal+0x390>
    4912: 69 02        	adc	#$2
    4914: 85 10        	sta	$10                     ; 0x2010 <filePickModal+0x390>
    4916: a5 11        	lda	$11                     ; 0x2011 <filePickModal+0x391>
    4918: 69 00        	adc	#$0
    491a: 85 11        	sta	$11                     ; 0x2011 <filePickModal+0x391>
    491c: 68           	pla
    491d: 60           	rts

0000491e <fputc>:
    491e: 4c 21 49     	jmp	$4921 <putchar>

00004921 <putchar>:
    4921: a4 24        	ldy	$24                     ; 0x2024 <filePickModal+0x3a4>
    4923: 5a           	phy
    4924: a4 25        	ldy	$25                     ; 0x2025 <filePickModal+0x3a5>
    4926: 5a           	phy
    4927: 85 24        	sta	$24                     ; 0x2024 <filePickModal+0x3a4>
    4929: 86 25        	stx	$25                     ; 0x2025 <filePickModal+0x3a5>
    492b: a2 00        	ldx	#$0
    492d: 86 12        	stx	$12                     ; 0x2012 <filePickModal+0x392>
    492f: a2 00        	ldx	#$0
    4931: 86 13        	stx	$13                     ; 0x2013 <filePickModal+0x393>
    4933: a2 49        	ldx	#$49
    4935: 86 14        	stx	$14                     ; 0x2014 <filePickModal+0x394>
    4937: a2 49        	ldx	#$49
    4939: 86 15        	stx	$15                     ; 0x2015 <filePickModal+0x395>
    493b: 20 53 49     	jsr	$4953 <__from_ascii>
    493e: a6 25        	ldx	$25                     ; 0x2025 <filePickModal+0x3a5>
    4940: a5 24        	lda	$24                     ; 0x2024 <filePickModal+0x3a4>
    4942: 7a           	ply
    4943: 84 25        	sty	$25                     ; 0x2025 <filePickModal+0x3a5>
    4945: 7a           	ply
    4946: 84 24        	sty	$24                     ; 0x2024 <filePickModal+0x3a4>
    4948: 60           	rts

00004949 <putchar_wrapper>:
    4949: 20 05 36     	jsr	$3605 <__putchar>
    494c: a2 00        	ldx	#$0
    494e: 8a           	txa
    494f: 60           	rts

00004950 <putc>:
    4950: 4c 1e 49     	jmp	$491e <fputc>

00004953 <__from_ascii>:
    4953: a6 14        	ldx	$14                     ; 0x2014 <filePickModal+0x394>
    4955: 86 22        	stx	$22                     ; 0x2022 <filePickModal+0x3a2>
    4957: a6 15        	ldx	$15                     ; 0x2015 <filePickModal+0x395>
    4959: 86 23        	stx	$23                     ; 0x2023 <filePickModal+0x3a3>
    495b: 4c 03 06     	jmp	$603 <__call_indir>

0000495e <malloc>:
    495e: a8           	tay
    495f: 8a           	txa
    4960: a2 00        	ldx	#$0
    4962: 86 12        	stx	$12                     ; 0x2012 <filePickModal+0x392>
    4964: a2 00        	ldx	#$0
    4966: 86 13        	stx	$13                     ; 0x2013 <filePickModal+0x393>
    4968: aa           	tax
    4969: d0 07        	bne	$4972 <malloc+0x14>
    496b: c0 00        	cpy	#$0
    496d: d0 03        	bne	$4972 <malloc+0x14>
    496f: 4c 4e 4a     	jmp	$4a4e <malloc+0xf0>
    4972: 84 16        	sty	$16                     ; 0x2016 <filePickModal+0x396>
    4974: aa           	tax
    4975: d0 0e        	bne	$4985 <malloc+0x27>
    4977: a6 16        	ldx	$16                     ; 0x2016 <filePickModal+0x396>
    4979: e0 07        	cpx	#$7
    497b: b0 0c        	bcs	$4989 <malloc+0x2b>
    497d: a2 08        	ldx	#$8
    497f: 64 17        	stz	$17                     ; 0x2017 <filePickModal+0x397>
    4981: 86 16        	stx	$16                     ; 0x2016 <filePickModal+0x396>
    4983: 80 30        	bra	$49b5 <malloc+0x57>
    4985: c9 00        	cmp	#$0
    4987: 90 f4        	bcc	$497d <malloc+0x1f>
    4989: a8           	tay
    498a: a5 16        	lda	$16                     ; 0x2016 <filePickModal+0x396>
    498c: 29 01        	and	#$1
    498e: a2 02        	ldx	#$2
    4990: 64 14        	stz	$14                     ; 0x2014 <filePickModal+0x394>
    4992: c9 00        	cmp	#$0
    4994: f0 02        	beq	$4998 <malloc+0x3a>
    4996: a2 03        	ldx	#$3
    4998: 86 15        	stx	$15                     ; 0x2015 <filePickModal+0x395>
    499a: 18           	clc
    499b: a5 16        	lda	$16                     ; 0x2016 <filePickModal+0x396>
    499d: 65 15        	adc	$15                     ; 0x2015 <filePickModal+0x395>
    499f: aa           	tax
    49a0: 98           	tya
    49a1: 65 14        	adc	$14                     ; 0x2014 <filePickModal+0x394>
    49a3: 90 03        	bcc	$49a8 <malloc+0x4a>
    49a5: 4c 4e 4a     	jmp	$4a4e <malloc+0xf0>
    49a8: 86 16        	stx	$16                     ; 0x2016 <filePickModal+0x396>
    49aa: 85 17        	sta	$17                     ; 0x2017 <filePickModal+0x397>
    49ac: a8           	tay
    49ad: d0 06        	bne	$49b5 <malloc+0x57>
    49af: 8a           	txa
    49b0: d0 03        	bne	$49b5 <malloc+0x57>
    49b2: 4c 4e 4a     	jmp	$4a4e <malloc+0xf0>
    49b5: a5 97        	lda	$97                     ; 0x2097 <filePickModal+0x417>
    49b7: 29 01        	and	#$1
    49b9: d0 3b        	bne	$49f6 <malloc+0x98>
    49bb: a5 68        	lda	$68                     ; 0x2068 <filePickModal+0x3e8>
    49bd: a6 69        	ldx	$69                     ; 0x2069 <filePickModal+0x3e9>
    49bf: a0 28        	ldy	#$28
    49c1: 84 12        	sty	$12                     ; 0x2012 <filePickModal+0x392>
    49c3: a0 67        	ldy	#$67
    49c5: 84 13        	sty	$13                     ; 0x2013 <filePickModal+0x393>
    49c7: a4 16        	ldy	$16                     ; 0x2016 <filePickModal+0x396>
    49c9: 84 a5        	sty	$a5                     ; 0x20a5 <filePickModal+0x425>
    49cb: a4 17        	ldy	$17                     ; 0x2017 <filePickModal+0x397>
    49cd: 84 a6        	sty	$a6                     ; 0x20a6 <filePickModal+0x426>
    49cf: 20 52 03     	jsr	$352 <_ZN12_GLOBAL__N_19FreeChunk6insertEPvj>
    49d2: a6 a6        	ldx	$a6                     ; 0x20a6 <filePickModal+0x426>
    49d4: 86 17        	stx	$17                     ; 0x2017 <filePickModal+0x397>
    49d6: a6 a5        	ldx	$a5                     ; 0x20a5 <filePickModal+0x425>
    49d8: 86 16        	stx	$16                     ; 0x2016 <filePickModal+0x396>
    49da: a2 00        	ldx	#$0
    49dc: 86 12        	stx	$12                     ; 0x2012 <filePickModal+0x392>
    49de: a2 00        	ldx	#$0
    49e0: 86 13        	stx	$13                     ; 0x2013 <filePickModal+0x393>
    49e2: ae 29 67     	ldx	$6729                   ; 0x6729 <__heap_start+0x1>
    49e5: a9 fe        	lda	#$fe
    49e7: 2d 28 67     	and	$6728                   ; 0x6728 <__heap_start>
    49ea: 8d 28 67     	sta	$6728                   ; 0x6728 <__heap_start>
    49ed: 8e 29 67     	stx	$6729                   ; 0x6729 <__heap_start+0x1>
    49f0: a2 01        	ldx	#$1
    49f2: 86 98        	stx	$98                     ; 0x2098 <filePickModal+0x418>
    49f4: 86 97        	stx	$97                     ; 0x2097 <filePickModal+0x417>
    49f6: a6 9b        	ldx	$9b                     ; 0x209b <filePickModal+0x41b>
    49f8: 86 18        	stx	$18                     ; 0x2018 <filePickModal+0x398>
    49fa: a4 9c        	ldy	$9c                     ; 0x209c <filePickModal+0x41c>
    49fc: 84 19        	sty	$19                     ; 0x2019 <filePickModal+0x399>
    49fe: a9 00        	lda	#$0
    4a00: 85 14        	sta	$14                     ; 0x2014 <filePickModal+0x394>
    4a02: a9 00        	lda	#$0
    4a04: 85 15        	sta	$15                     ; 0x2015 <filePickModal+0x395>
    4a06: c4 15        	cpy	$15                     ; 0x2015 <filePickModal+0x395>
    4a08: d0 04        	bne	$4a0e <malloc+0xb0>
    4a0a: e4 14        	cpx	$14                     ; 0x2014 <filePickModal+0x394>
    4a0c: f0 40        	beq	$4a4e <malloc+0xf0>
    4a0e: a0 01        	ldy	#$1
    4a10: a6 18        	ldx	$18                     ; 0x2018 <filePickModal+0x398>
    4a12: 86 14        	stx	$14                     ; 0x2014 <filePickModal+0x394>
    4a14: a6 19        	ldx	$19                     ; 0x2019 <filePickModal+0x399>
    4a16: 86 15        	stx	$15                     ; 0x2015 <filePickModal+0x395>
    4a18: b1 14        	lda	($14),y                 ; 0x2014 <filePickModal+0x394>
    4a1a: c5 17        	cmp	$17                     ; 0x2017 <filePickModal+0x397>
    4a1c: d0 0a        	bne	$4a28 <malloc+0xca>
    4a1e: b2 14        	lda	($14)                   ; 0x2014 <filePickModal+0x394>
    4a20: 29 fe        	and	#$fe
    4a22: c5 16        	cmp	$16                     ; 0x2016 <filePickModal+0x396>
    4a24: b0 29        	bcs	$4a4f <malloc+0xf1>
    4a26: 80 04        	bra	$4a2c <malloc+0xce>
    4a28: c5 17        	cmp	$17                     ; 0x2017 <filePickModal+0x397>
    4a2a: b0 23        	bcs	$4a4f <malloc+0xf1>
    4a2c: a5 14        	lda	$14                     ; 0x2014 <filePickModal+0x394>
    4a2e: 18           	clc
    4a2f: 69 02        	adc	#$2
    4a31: 85 1a        	sta	$1a                     ; 0x201a <filePickModal+0x39a>
    4a33: a5 15        	lda	$15                     ; 0x2015 <filePickModal+0x395>
    4a35: 69 00        	adc	#$0
    4a37: 85 1b        	sta	$1b                     ; 0x201b <filePickModal+0x39b>
    4a39: a0 02        	ldy	#$2
    4a3b: b1 14        	lda	($14),y                 ; 0x2014 <filePickModal+0x394>
    4a3d: 85 14        	sta	$14                     ; 0x2014 <filePickModal+0x394>
    4a3f: 88           	dey
    4a40: b1 1a        	lda	($1a),y                 ; 0x201a <filePickModal+0x39a>
    4a42: 85 15        	sta	$15                     ; 0x2015 <filePickModal+0x395>
    4a44: c5 19        	cmp	$19                     ; 0x2019 <filePickModal+0x399>
    4a46: d0 d0        	bne	$4a18 <malloc+0xba>
    4a48: a5 14        	lda	$14                     ; 0x2014 <filePickModal+0x394>
    4a4a: c5 18        	cmp	$18                     ; 0x2018 <filePickModal+0x398>
    4a4c: d0 ca        	bne	$4a18 <malloc+0xba>
    4a4e: 60           	rts
    4a4f: a6 14        	ldx	$14                     ; 0x2014 <filePickModal+0x394>
    4a51: 86 12        	stx	$12                     ; 0x2012 <filePickModal+0x392>
    4a53: a6 15        	ldx	$15                     ; 0x2015 <filePickModal+0x395>
    4a55: 86 13        	stx	$13                     ; 0x2013 <filePickModal+0x393>
    4a57: a6 17        	ldx	$17                     ; 0x2017 <filePickModal+0x397>
    4a59: a5 16        	lda	$16                     ; 0x2016 <filePickModal+0x396>
    4a5b: 4c 5e 4a     	jmp	$4a5e <_ZN12_GLOBAL__N_119allocate_free_chunkEPNS_9FreeChunkEj>

00004a5e <_ZN12_GLOBAL__N_119allocate_free_chunkEPNS_9FreeChunkEj>:
    4a5e: 85 a7        	sta	$a7                     ; 0x20a7 <filePickModal+0x427>
    4a60: 86 aa        	stx	$aa                     ; 0x20aa <filePickModal+0x42a>
    4a62: a6 12        	ldx	$12                     ; 0x2012 <filePickModal+0x392>
    4a64: 86 a8        	stx	$a8                     ; 0x20a8 <filePickModal+0x428>
    4a66: a6 13        	ldx	$13                     ; 0x2013 <filePickModal+0x393>
    4a68: 86 a9        	stx	$a9                     ; 0x20a9 <filePickModal+0x429>
    4a6a: 20 88 04     	jsr	$488 <_ZN12_GLOBAL__N_19FreeChunk6removeEv>
    4a6d: a0 01        	ldy	#$1
    4a6f: b1 a8        	lda	($a8),y                 ; 0x20a8 <filePickModal+0x428>
    4a71: 85 14        	sta	$14                     ; 0x2014 <filePickModal+0x394>
    4a73: a9 fe        	lda	#$fe
    4a75: 32 a8        	and	($a8)                   ; 0x20a8 <filePickModal+0x428>
    4a77: 38           	sec
    4a78: a6 a7        	ldx	$a7                     ; 0x20a7 <filePickModal+0x427>
    4a7a: a8           	tay
    4a7b: e5 a7        	sbc	$a7                     ; 0x20a7 <filePickModal+0x427>
    4a7d: 85 16        	sta	$16                     ; 0x2016 <filePickModal+0x396>
    4a7f: a5 aa        	lda	$aa                     ; 0x20aa <filePickModal+0x42a>
    4a81: 85 13        	sta	$13                     ; 0x2013 <filePickModal+0x393>
    4a83: 85 12        	sta	$12                     ; 0x2012 <filePickModal+0x392>
    4a85: a5 14        	lda	$14                     ; 0x2014 <filePickModal+0x394>
    4a87: e5 12        	sbc	$12                     ; 0x2012 <filePickModal+0x392>
    4a89: f0 03        	beq	$4a8e <_ZN12_GLOBAL__N_119allocate_free_chunkEPNS_9FreeChunkEj+0x30>
    4a8b: 4c 09 4b     	jmp	$4b09 <_ZN12_GLOBAL__N_119allocate_free_chunkEPNS_9FreeChunkEj+0xab>
    4a8e: 85 15        	sta	$15                     ; 0x2015 <filePickModal+0x395>
    4a90: a5 16        	lda	$16                     ; 0x2016 <filePickModal+0x396>
    4a92: c9 08        	cmp	#$8
    4a94: 90 2e        	bcc	$4ac4 <_ZN12_GLOBAL__N_119allocate_free_chunkEPNS_9FreeChunkEj+0x66>
    4a96: a8           	tay
    4a97: 18           	clc
    4a98: 8a           	txa
    4a99: 65 a8        	adc	$a8                     ; 0x20a8 <filePickModal+0x428>
    4a9b: 85 12        	sta	$12                     ; 0x2012 <filePickModal+0x392>
    4a9d: a5 13        	lda	$13                     ; 0x2013 <filePickModal+0x393>
    4a9f: a6 13        	ldx	$13                     ; 0x2013 <filePickModal+0x393>
    4aa1: 86 aa        	stx	$aa                     ; 0x20aa <filePickModal+0x42a>
    4aa3: 65 a9        	adc	$a9                     ; 0x20a9 <filePickModal+0x429>
    4aa5: 85 13        	sta	$13                     ; 0x2013 <filePickModal+0x393>
    4aa7: a6 15        	ldx	$15                     ; 0x2015 <filePickModal+0x395>
    4aa9: 98           	tya
    4aaa: 20 52 03     	jsr	$352 <_ZN12_GLOBAL__N_19FreeChunk6insertEPvj>
    4aad: a5 a7        	lda	$a7                     ; 0x20a7 <filePickModal+0x427>
    4aaf: 29 fe        	and	#$fe
    4ab1: 85 12        	sta	$12                     ; 0x2012 <filePickModal+0x392>
    4ab3: a0 01        	ldy	#$1
    4ab5: 98           	tya
    4ab6: 32 a8        	and	($a8)                   ; 0x20a8 <filePickModal+0x428>
    4ab8: 05 12        	ora	$12                     ; 0x2012 <filePickModal+0x392>
    4aba: 92 a8        	sta	($a8)                   ; 0x20a8 <filePickModal+0x428>
    4abc: a5 aa        	lda	$aa                     ; 0x20aa <filePickModal+0x42a>
    4abe: 91 a8        	sta	($a8),y                 ; 0x20a8 <filePickModal+0x428>
    4ac0: a4 12        	ldy	$12                     ; 0x2012 <filePickModal+0x392>
    4ac2: 85 14        	sta	$14                     ; 0x2014 <filePickModal+0x394>
    4ac4: 18           	clc
    4ac5: 98           	tya
    4ac6: 65 a8        	adc	$a8                     ; 0x20a8 <filePickModal+0x428>
    4ac8: a8           	tay
    4ac9: a5 14        	lda	$14                     ; 0x2014 <filePickModal+0x394>
    4acb: 65 a9        	adc	$a9                     ; 0x20a9 <filePickModal+0x429>
    4acd: aa           	tax
    4ace: 18           	clc
    4acf: a9 28        	lda	#$28
    4ad1: 65 68        	adc	$68                     ; 0x2068 <filePickModal+0x3e8>
    4ad3: 85 13        	sta	$13                     ; 0x2013 <filePickModal+0x393>
    4ad5: a9 67        	lda	#$67
    4ad7: 65 69        	adc	$69                     ; 0x2069 <filePickModal+0x3e9>
    4ad9: 85 12        	sta	$12                     ; 0x2012 <filePickModal+0x392>
    4adb: e4 12        	cpx	$12                     ; 0x2012 <filePickModal+0x392>
    4add: d0 08        	bne	$4ae7 <_ZN12_GLOBAL__N_119allocate_free_chunkEPNS_9FreeChunkEj+0x89>
    4adf: c4 13        	cpy	$13                     ; 0x2013 <filePickModal+0x393>
    4ae1: d0 04        	bne	$4ae7 <_ZN12_GLOBAL__N_119allocate_free_chunkEPNS_9FreeChunkEj+0x89>
    4ae3: 64 98        	stz	$98                     ; 0x2098 <filePickModal+0x418>
    4ae5: 80 14        	bra	$4afb <_ZN12_GLOBAL__N_119allocate_free_chunkEPNS_9FreeChunkEj+0x9d>
    4ae7: 84 12        	sty	$12                     ; 0x2012 <filePickModal+0x392>
    4ae9: 86 13        	stx	$13                     ; 0x2013 <filePickModal+0x393>
    4aeb: a0 01        	ldy	#$1
    4aed: b1 12        	lda	($12),y                 ; 0x2012 <filePickModal+0x392>
    4aef: 85 14        	sta	$14                     ; 0x2014 <filePickModal+0x394>
    4af1: a9 fe        	lda	#$fe
    4af3: 32 12        	and	($12)                   ; 0x2012 <filePickModal+0x392>
    4af5: 92 12        	sta	($12)                   ; 0x2012 <filePickModal+0x392>
    4af7: a5 14        	lda	$14                     ; 0x2014 <filePickModal+0x394>
    4af9: 91 12        	sta	($12),y                 ; 0x2012 <filePickModal+0x392>
    4afb: a5 a8        	lda	$a8                     ; 0x20a8 <filePickModal+0x428>
    4afd: 18           	clc
    4afe: 69 02        	adc	#$2
    4b00: 85 12        	sta	$12                     ; 0x2012 <filePickModal+0x392>
    4b02: a5 a9        	lda	$a9                     ; 0x20a9 <filePickModal+0x429>
    4b04: 69 00        	adc	#$0
    4b06: 85 13        	sta	$13                     ; 0x2013 <filePickModal+0x393>
    4b08: 60           	rts
    4b09: 85 15        	sta	$15                     ; 0x2015 <filePickModal+0x395>
    4b0b: c9 00        	cmp	#$0
    4b0d: a5 16        	lda	$16                     ; 0x2016 <filePickModal+0x396>
    4b0f: 90 b3        	bcc	$4ac4 <_ZN12_GLOBAL__N_119allocate_free_chunkEPNS_9FreeChunkEj+0x66>
    4b11: 4c 96 4a     	jmp	$4a96 <_ZN12_GLOBAL__N_119allocate_free_chunkEPNS_9FreeChunkEj+0x38>

00004b14 <free>:
    4b14: a6 12        	ldx	$12                     ; 0x2012 <filePickModal+0x392>
    4b16: 86 14        	stx	$14                     ; 0x2014 <filePickModal+0x394>
    4b18: a6 13        	ldx	$13                     ; 0x2013 <filePickModal+0x393>
    4b1a: 86 15        	stx	$15                     ; 0x2015 <filePickModal+0x395>
    4b1c: a2 00        	ldx	#$0
    4b1e: 86 12        	stx	$12                     ; 0x2012 <filePickModal+0x392>
    4b20: a2 00        	ldx	#$0
    4b22: 86 13        	stx	$13                     ; 0x2013 <filePickModal+0x393>
    4b24: a6 15        	ldx	$15                     ; 0x2015 <filePickModal+0x395>
    4b26: e4 13        	cpx	$13                     ; 0x2013 <filePickModal+0x393>
    4b28: d0 09        	bne	$4b33 <free+0x1f>
    4b2a: a6 14        	ldx	$14                     ; 0x2014 <filePickModal+0x394>
    4b2c: e4 12        	cpx	$12                     ; 0x2012 <filePickModal+0x392>
    4b2e: d0 03        	bne	$4b33 <free+0x1f>
    4b30: 4c 8b 4c     	jmp	$4c8b <free+0x177>
    4b33: a5 14        	lda	$14                     ; 0x2014 <filePickModal+0x394>
    4b35: 18           	clc
    4b36: 69 fe        	adc	#$fe
    4b38: aa           	tax
    4b39: a5 15        	lda	$15                     ; 0x2015 <filePickModal+0x395>
    4b3b: 69 ff        	adc	#$ff
    4b3d: 86 9d        	stx	$9d                     ; 0x209d <filePickModal+0x41d>
    4b3f: 85 9e        	sta	$9e                     ; 0x209e <filePickModal+0x41e>
    4b41: 85 12        	sta	$12                     ; 0x2012 <filePickModal+0x392>
    4b43: a0 01        	ldy	#$1
    4b45: b1 9d        	lda	($9d),y                 ; 0x209d <filePickModal+0x41d>
    4b47: 85 16        	sta	$16                     ; 0x2016 <filePickModal+0x396>
    4b49: a9 fe        	lda	#$fe
    4b4b: 32 9d        	and	($9d)                   ; 0x209d <filePickModal+0x41d>
    4b4d: 85 17        	sta	$17                     ; 0x2017 <filePickModal+0x397>
    4b4f: 8a           	txa
    4b50: 86 1b        	stx	$1b                     ; 0x201b <filePickModal+0x39b>
    4b52: 18           	clc
    4b53: 65 17        	adc	$17                     ; 0x2017 <filePickModal+0x397>
    4b55: aa           	tax
    4b56: a4 12        	ldy	$12                     ; 0x2012 <filePickModal+0x392>
    4b58: 84 1c        	sty	$1c                     ; 0x201c <filePickModal+0x39c>
    4b5a: a5 12        	lda	$12                     ; 0x2012 <filePickModal+0x392>
    4b5c: 65 16        	adc	$16                     ; 0x2016 <filePickModal+0x396>
    4b5e: a8           	tay
    4b5f: b2 9d        	lda	($9d)                   ; 0x209d <filePickModal+0x41d>
    4b61: 85 1a        	sta	$1a                     ; 0x201a <filePickModal+0x39a>
    4b63: a9 28        	lda	#$28
    4b65: 18           	clc
    4b66: 65 68        	adc	$68                     ; 0x2068 <filePickModal+0x3e8>
    4b68: 85 18        	sta	$18                     ; 0x2018 <filePickModal+0x398>
    4b6a: a9 67        	lda	#$67
    4b6c: 65 69        	adc	$69                     ; 0x2069 <filePickModal+0x3e9>
    4b6e: 85 19        	sta	$19                     ; 0x2019 <filePickModal+0x399>
    4b70: c4 19        	cpy	$19                     ; 0x2019 <filePickModal+0x399>
    4b72: d0 0e        	bne	$4b82 <free+0x6e>
    4b74: e4 18        	cpx	$18                     ; 0x2018 <filePickModal+0x398>
    4b76: d0 0a        	bne	$4b82 <free+0x6e>
    4b78: a2 00        	ldx	#$0
    4b7a: 86 12        	stx	$12                     ; 0x2012 <filePickModal+0x392>
    4b7c: a2 00        	ldx	#$0
    4b7e: 86 13        	stx	$13                     ; 0x2013 <filePickModal+0x393>
    4b80: 80 04        	bra	$4b86 <free+0x72>
    4b82: 86 12        	stx	$12                     ; 0x2012 <filePickModal+0x392>
    4b84: 84 13        	sty	$13                     ; 0x2013 <filePickModal+0x393>
    4b86: a5 1a        	lda	$1a                     ; 0x201a <filePickModal+0x39a>
    4b88: 29 01        	and	#$1
    4b8a: d0 03        	bne	$4b8f <free+0x7b>
    4b8c: 4c 0a 4c     	jmp	$4c0a <free+0xf6>
    4b8f: a5 14        	lda	$14                     ; 0x2014 <filePickModal+0x394>
    4b91: 18           	clc
    4b92: 69 fc        	adc	#$fc
    4b94: 85 14        	sta	$14                     ; 0x2014 <filePickModal+0x394>
    4b96: a5 15        	lda	$15                     ; 0x2015 <filePickModal+0x395>
    4b98: 69 ff        	adc	#$ff
    4b9a: 85 15        	sta	$15                     ; 0x2015 <filePickModal+0x395>
    4b9c: a0 01        	ldy	#$1
    4b9e: 38           	sec
    4b9f: a9 00        	lda	#$0
    4ba1: f2 14        	sbc	($14)                   ; 0x2014 <filePickModal+0x394>
    4ba3: 85 1a        	sta	$1a                     ; 0x201a <filePickModal+0x39a>
    4ba5: a9 00        	lda	#$0
    4ba7: f1 14        	sbc	($14),y                 ; 0x2014 <filePickModal+0x394>
    4ba9: 85 14        	sta	$14                     ; 0x2014 <filePickModal+0x394>
    4bab: a5 1b        	lda	$1b                     ; 0x201b <filePickModal+0x39b>
    4bad: 18           	clc
    4bae: 65 1a        	adc	$1a                     ; 0x201a <filePickModal+0x39a>
    4bb0: 85 9d        	sta	$9d                     ; 0x209d <filePickModal+0x41d>
    4bb2: a5 1c        	lda	$1c                     ; 0x201c <filePickModal+0x39c>
    4bb4: 65 14        	adc	$14                     ; 0x2014 <filePickModal+0x394>
    4bb6: 85 9e        	sta	$9e                     ; 0x209e <filePickModal+0x41e>
    4bb8: b1 9d        	lda	($9d),y                 ; 0x209d <filePickModal+0x41d>
    4bba: 85 a5        	sta	$a5                     ; 0x20a5 <filePickModal+0x425>
    4bbc: a9 fe        	lda	#$fe
    4bbe: 32 9d        	and	($9d)                   ; 0x209d <filePickModal+0x41d>
    4bc0: 85 a6        	sta	$a6                     ; 0x20a6 <filePickModal+0x426>
    4bc2: a6 12        	ldx	$12                     ; 0x2012 <filePickModal+0x392>
    4bc4: 86 9f        	stx	$9f                     ; 0x209f <filePickModal+0x41f>
    4bc6: a6 13        	ldx	$13                     ; 0x2013 <filePickModal+0x393>
    4bc8: 86 a0        	stx	$a0                     ; 0x20a0 <filePickModal+0x420>
    4bca: a6 9d        	ldx	$9d                     ; 0x209d <filePickModal+0x41d>
    4bcc: 86 12        	stx	$12                     ; 0x2012 <filePickModal+0x392>
    4bce: a6 9e        	ldx	$9e                     ; 0x209e <filePickModal+0x41e>
    4bd0: 86 13        	stx	$13                     ; 0x2013 <filePickModal+0x393>
    4bd2: a6 16        	ldx	$16                     ; 0x2016 <filePickModal+0x396>
    4bd4: 86 a1        	stx	$a1                     ; 0x20a1 <filePickModal+0x421>
    4bd6: a6 17        	ldx	$17                     ; 0x2017 <filePickModal+0x397>
    4bd8: 86 a2        	stx	$a2                     ; 0x20a2 <filePickModal+0x422>
    4bda: a6 18        	ldx	$18                     ; 0x2018 <filePickModal+0x398>
    4bdc: 86 a3        	stx	$a3                     ; 0x20a3 <filePickModal+0x423>
    4bde: a6 19        	ldx	$19                     ; 0x2019 <filePickModal+0x399>
    4be0: 86 a4        	stx	$a4                     ; 0x20a4 <filePickModal+0x424>
    4be2: 20 88 04     	jsr	$488 <_ZN12_GLOBAL__N_19FreeChunk6removeEv>
    4be5: a6 a4        	ldx	$a4                     ; 0x20a4 <filePickModal+0x424>
    4be7: 86 19        	stx	$19                     ; 0x2019 <filePickModal+0x399>
    4be9: a6 a3        	ldx	$a3                     ; 0x20a3 <filePickModal+0x423>
    4beb: 86 18        	stx	$18                     ; 0x2018 <filePickModal+0x398>
    4bed: a6 9f        	ldx	$9f                     ; 0x209f <filePickModal+0x41f>
    4bef: 86 12        	stx	$12                     ; 0x2012 <filePickModal+0x392>
    4bf1: a6 a0        	ldx	$a0                     ; 0x20a0 <filePickModal+0x420>
    4bf3: 86 13        	stx	$13                     ; 0x2013 <filePickModal+0x393>
    4bf5: 18           	clc
    4bf6: a5 a6        	lda	$a6                     ; 0x20a6 <filePickModal+0x426>
    4bf8: a6 a2        	ldx	$a2                     ; 0x20a2 <filePickModal+0x422>
    4bfa: 86 14        	stx	$14                     ; 0x2014 <filePickModal+0x394>
    4bfc: 65 14        	adc	$14                     ; 0x2014 <filePickModal+0x394>
    4bfe: 85 17        	sta	$17                     ; 0x2017 <filePickModal+0x397>
    4c00: a5 a5        	lda	$a5                     ; 0x20a5 <filePickModal+0x425>
    4c02: a6 a1        	ldx	$a1                     ; 0x20a1 <filePickModal+0x421>
    4c04: 86 14        	stx	$14                     ; 0x2014 <filePickModal+0x394>
    4c06: 65 14        	adc	$14                     ; 0x2014 <filePickModal+0x394>
    4c08: 85 16        	sta	$16                     ; 0x2016 <filePickModal+0x396>
    4c0a: a2 00        	ldx	#$0
    4c0c: 86 14        	stx	$14                     ; 0x2014 <filePickModal+0x394>
    4c0e: a2 00        	ldx	#$0
    4c10: 86 15        	stx	$15                     ; 0x2015 <filePickModal+0x395>
    4c12: a6 13        	ldx	$13                     ; 0x2013 <filePickModal+0x393>
    4c14: e4 15        	cpx	$15                     ; 0x2015 <filePickModal+0x395>
    4c16: d0 0d        	bne	$4c25 <free+0x111>
    4c18: a6 12        	ldx	$12                     ; 0x2012 <filePickModal+0x392>
    4c1a: e4 14        	cpx	$14                     ; 0x2014 <filePickModal+0x394>
    4c1c: d0 07        	bne	$4c25 <free+0x111>
    4c1e: a2 01        	ldx	#$1
    4c20: 86 98        	stx	$98                     ; 0x2098 <filePickModal+0x418>
    4c22: 4c 7c 4c     	jmp	$4c7c <free+0x168>
    4c25: a0 01        	ldy	#$1
    4c27: b1 12        	lda	($12),y                 ; 0x2012 <filePickModal+0x392>
    4c29: a8           	tay
    4c2a: a9 fe        	lda	#$fe
    4c2c: 32 12        	and	($12)                   ; 0x2012 <filePickModal+0x392>
    4c2e: 18           	clc
    4c2f: 85 a3        	sta	$a3                     ; 0x20a3 <filePickModal+0x423>
    4c31: 65 12        	adc	$12                     ; 0x2012 <filePickModal+0x392>
    4c33: 85 14        	sta	$14                     ; 0x2014 <filePickModal+0x394>
    4c35: 98           	tya
    4c36: 85 9f        	sta	$9f                     ; 0x209f <filePickModal+0x41f>
    4c38: 65 13        	adc	$13                     ; 0x2013 <filePickModal+0x393>
    4c3a: c5 19        	cmp	$19                     ; 0x2019 <filePickModal+0x399>
    4c3c: d0 0e        	bne	$4c4c <free+0x138>
    4c3e: a6 14        	ldx	$14                     ; 0x2014 <filePickModal+0x394>
    4c40: e4 18        	cpx	$18                     ; 0x2018 <filePickModal+0x398>
    4c42: d0 08        	bne	$4c4c <free+0x138>
    4c44: a9 01        	lda	#$1
    4c46: 64 14        	stz	$14                     ; 0x2014 <filePickModal+0x394>
    4c48: 25 98        	and	$98                     ; 0x2098 <filePickModal+0x418>
    4c4a: 80 08        	bra	$4c54 <free+0x140>
    4c4c: 85 15        	sta	$15                     ; 0x2015 <filePickModal+0x395>
    4c4e: a9 01        	lda	#$1
    4c50: 32 14        	and	($14)                   ; 0x2014 <filePickModal+0x394>
    4c52: 64 14        	stz	$14                     ; 0x2014 <filePickModal+0x394>
    4c54: a6 14        	ldx	$14                     ; 0x2014 <filePickModal+0x394>
    4c56: d0 03        	bne	$4c5b <free+0x147>
    4c58: aa           	tax
    4c59: f0 31        	beq	$4c8c <free+0x178>
    4c5b: a6 16        	ldx	$16                     ; 0x2016 <filePickModal+0x396>
    4c5d: 86 a1        	stx	$a1                     ; 0x20a1 <filePickModal+0x421>
    4c5f: a6 17        	ldx	$17                     ; 0x2017 <filePickModal+0x397>
    4c61: 86 a2        	stx	$a2                     ; 0x20a2 <filePickModal+0x422>
    4c63: 20 88 04     	jsr	$488 <_ZN12_GLOBAL__N_19FreeChunk6removeEv>
    4c66: 18           	clc
    4c67: a6 a3        	ldx	$a3                     ; 0x20a3 <filePickModal+0x423>
    4c69: 8a           	txa
    4c6a: a6 a2        	ldx	$a2                     ; 0x20a2 <filePickModal+0x422>
    4c6c: 86 12        	stx	$12                     ; 0x2012 <filePickModal+0x392>
    4c6e: 65 12        	adc	$12                     ; 0x2012 <filePickModal+0x392>
    4c70: 85 17        	sta	$17                     ; 0x2017 <filePickModal+0x397>
    4c72: a5 9f        	lda	$9f                     ; 0x209f <filePickModal+0x41f>
    4c74: a6 a1        	ldx	$a1                     ; 0x20a1 <filePickModal+0x421>
    4c76: 86 12        	stx	$12                     ; 0x2012 <filePickModal+0x392>
    4c78: 65 12        	adc	$12                     ; 0x2012 <filePickModal+0x392>
    4c7a: 85 16        	sta	$16                     ; 0x2016 <filePickModal+0x396>
    4c7c: a6 9d        	ldx	$9d                     ; 0x209d <filePickModal+0x41d>
    4c7e: 86 12        	stx	$12                     ; 0x2012 <filePickModal+0x392>
    4c80: a6 9e        	ldx	$9e                     ; 0x209e <filePickModal+0x41e>
    4c82: 86 13        	stx	$13                     ; 0x2013 <filePickModal+0x393>
    4c84: a6 16        	ldx	$16                     ; 0x2016 <filePickModal+0x396>
    4c86: a5 17        	lda	$17                     ; 0x2017 <filePickModal+0x397>
    4c88: 20 52 03     	jsr	$352 <_ZN12_GLOBAL__N_19FreeChunk6insertEPvj>
    4c8b: 60           	rts
    4c8c: b2 12        	lda	($12)                   ; 0x2012 <filePickModal+0x392>
    4c8e: 09 01        	ora	#$1
    4c90: 92 12        	sta	($12)                   ; 0x2012 <filePickModal+0x392>
    4c92: a0 01        	ldy	#$1
    4c94: a5 9f        	lda	$9f                     ; 0x209f <filePickModal+0x41f>
    4c96: 91 12        	sta	($12),y                 ; 0x2012 <filePickModal+0x392>
    4c98: 80 e2        	bra	$4c7c <free+0x168>

00004c9a <memcpy>:
    4c9a: a8           	tay
    4c9b: 8a           	txa
    4c9c: d0 03        	bne	$4ca1 <memcpy+0x7>
    4c9e: 98           	tya
    4c9f: f0 24        	beq	$4cc5 <memcpy+0x2b>
    4ca1: a5 12        	lda	$12                     ; 0x2012 <filePickModal+0x392>
    4ca3: 85 16        	sta	$16                     ; 0x2016 <filePickModal+0x396>
    4ca5: a5 13        	lda	$13                     ; 0x2013 <filePickModal+0x393>
    4ca7: 85 17        	sta	$17                     ; 0x2017 <filePickModal+0x397>
    4ca9: b2 14        	lda	($14)                   ; 0x2014 <filePickModal+0x394>
    4cab: 92 16        	sta	($16)                   ; 0x2016 <filePickModal+0x396>
    4cad: e6 16        	inc	$16                     ; 0x2016 <filePickModal+0x396>
    4caf: d0 02        	bne	$4cb3 <memcpy+0x19>
    4cb1: e6 17        	inc	$17                     ; 0x2017 <filePickModal+0x397>
    4cb3: e6 14        	inc	$14                     ; 0x2014 <filePickModal+0x394>
    4cb5: d0 02        	bne	$4cb9 <memcpy+0x1f>
    4cb7: e6 15        	inc	$15                     ; 0x2015 <filePickModal+0x395>
    4cb9: 88           	dey
    4cba: c0 ff        	cpy	#$ff
    4cbc: d0 01        	bne	$4cbf <memcpy+0x25>
    4cbe: ca           	dex
    4cbf: 8a           	txa
    4cc0: d0 e7        	bne	$4ca9 <memcpy+0xf>
    4cc2: 98           	tya
    4cc3: d0 e4        	bne	$4ca9 <memcpy+0xf>
    4cc5: 60           	rts

00004cc6 <__memset>:
    4cc6: a4 14        	ldy	$14                     ; 0x2014 <filePickModal+0x394>
    4cc8: d0 04        	bne	$4cce <__memset+0x8>
    4cca: e0 00        	cpx	#$0
    4ccc: f0 17        	beq	$4ce5 <__memset+0x1f>
    4cce: 92 12        	sta	($12)                   ; 0x2012 <filePickModal+0x392>
    4cd0: e6 12        	inc	$12                     ; 0x2012 <filePickModal+0x392>
    4cd2: d0 02        	bne	$4cd6 <__memset+0x10>
    4cd4: e6 13        	inc	$13                     ; 0x2013 <filePickModal+0x393>
    4cd6: ca           	dex
    4cd7: e0 ff        	cpx	#$ff
    4cd9: d0 02        	bne	$4cdd <__memset+0x17>
    4cdb: c6 14        	dec	$14                     ; 0x2014 <filePickModal+0x394>
    4cdd: a4 14        	ldy	$14                     ; 0x2014 <filePickModal+0x394>
    4cdf: d0 ed        	bne	$4cce <__memset+0x8>
    4ce1: e0 00        	cpx	#$0
    4ce3: d0 e9        	bne	$4cce <__memset+0x8>
    4ce5: 60           	rts

00004ce6 <strcpy>:
    4ce6: b2 14        	lda	($14)                   ; 0x2014 <filePickModal+0x394>
    4ce8: aa           	tax
    4ce9: b2 14        	lda	($14)                   ; 0x2014 <filePickModal+0x394>
    4ceb: 92 12        	sta	($12)                   ; 0x2012 <filePickModal+0x392>
    4ced: 8a           	txa
    4cee: f0 30        	beq	$4d20 <strcpy+0x3a>
    4cf0: a0 01        	ldy	#$1
    4cf2: a6 12        	ldx	$12                     ; 0x2012 <filePickModal+0x392>
    4cf4: 86 16        	stx	$16                     ; 0x2016 <filePickModal+0x396>
    4cf6: a6 13        	ldx	$13                     ; 0x2013 <filePickModal+0x393>
    4cf8: 86 17        	stx	$17                     ; 0x2017 <filePickModal+0x397>
    4cfa: a6 14        	ldx	$14                     ; 0x2014 <filePickModal+0x394>
    4cfc: 86 18        	stx	$18                     ; 0x2018 <filePickModal+0x398>
    4cfe: a6 15        	ldx	$15                     ; 0x2015 <filePickModal+0x395>
    4d00: 86 19        	stx	$19                     ; 0x2019 <filePickModal+0x399>
    4d02: e6 18        	inc	$18                     ; 0x2018 <filePickModal+0x398>
    4d04: d0 02        	bne	$4d08 <strcpy+0x22>
    4d06: e6 19        	inc	$19                     ; 0x2019 <filePickModal+0x399>
    4d08: b1 14        	lda	($14),y                 ; 0x2014 <filePickModal+0x394>
    4d0a: aa           	tax
    4d0b: b1 14        	lda	($14),y                 ; 0x2014 <filePickModal+0x394>
    4d0d: 91 16        	sta	($16),y                 ; 0x2016 <filePickModal+0x396>
    4d0f: e6 16        	inc	$16                     ; 0x2016 <filePickModal+0x396>
    4d11: d0 02        	bne	$4d15 <strcpy+0x2f>
    4d13: e6 17        	inc	$17                     ; 0x2017 <filePickModal+0x397>
    4d15: a5 18        	lda	$18                     ; 0x2018 <filePickModal+0x398>
    4d17: 85 14        	sta	$14                     ; 0x2014 <filePickModal+0x394>
    4d19: a5 19        	lda	$19                     ; 0x2019 <filePickModal+0x399>
    4d1b: 85 15        	sta	$15                     ; 0x2015 <filePickModal+0x395>
    4d1d: 8a           	txa
    4d1e: d0 e2        	bne	$4d02 <strcpy+0x1c>
    4d20: 60           	rts

00004d21 <strncpy>:
    4d21: 85 17        	sta	$17                     ; 0x2017 <filePickModal+0x397>
    4d23: 86 16        	stx	$16                     ; 0x2016 <filePickModal+0x396>
    4d25: a5 16        	lda	$16                     ; 0x2016 <filePickModal+0x396>
    4d27: d0 04        	bne	$4d2d <strncpy+0xc>
    4d29: a5 17        	lda	$17                     ; 0x2017 <filePickModal+0x397>
    4d2b: f0 3c        	beq	$4d69 <strncpy+0x48>
    4d2d: 38           	sec
    4d2e: a9 01        	lda	#$1
    4d30: e5 17        	sbc	$17                     ; 0x2017 <filePickModal+0x397>
    4d32: aa           	tax
    4d33: a9 00        	lda	#$0
    4d35: e5 16        	sbc	$16                     ; 0x2016 <filePickModal+0x396>
    4d37: a4 12        	ldy	$12                     ; 0x2012 <filePickModal+0x392>
    4d39: 84 16        	sty	$16                     ; 0x2016 <filePickModal+0x396>
    4d3b: a4 13        	ldy	$13                     ; 0x2013 <filePickModal+0x393>
    4d3d: 84 17        	sty	$17                     ; 0x2017 <filePickModal+0x397>
    4d3f: 85 18        	sta	$18                     ; 0x2018 <filePickModal+0x398>
    4d41: 86 19        	stx	$19                     ; 0x2019 <filePickModal+0x399>
    4d43: b2 14        	lda	($14)                   ; 0x2014 <filePickModal+0x394>
    4d45: aa           	tax
    4d46: b2 14        	lda	($14)                   ; 0x2014 <filePickModal+0x394>
    4d48: 92 16        	sta	($16)                   ; 0x2016 <filePickModal+0x396>
    4d4a: 8a           	txa
    4d4b: f0 1d        	beq	$4d6a <strncpy+0x49>
    4d4d: e6 16        	inc	$16                     ; 0x2016 <filePickModal+0x396>
    4d4f: d0 02        	bne	$4d53 <strncpy+0x32>
    4d51: e6 17        	inc	$17                     ; 0x2017 <filePickModal+0x397>
    4d53: e6 14        	inc	$14                     ; 0x2014 <filePickModal+0x394>
    4d55: d0 02        	bne	$4d59 <strncpy+0x38>
    4d57: e6 15        	inc	$15                     ; 0x2015 <filePickModal+0x395>
    4d59: a5 18        	lda	$18                     ; 0x2018 <filePickModal+0x398>
    4d5b: a6 19        	ldx	$19                     ; 0x2019 <filePickModal+0x399>
    4d5d: e8           	inx
    4d5e: d0 01        	bne	$4d61 <strncpy+0x40>
    4d60: 1a           	inc
    4d61: a4 18        	ldy	$18                     ; 0x2018 <filePickModal+0x398>
    4d63: d0 da        	bne	$4d3f <strncpy+0x1e>
    4d65: a4 19        	ldy	$19                     ; 0x2019 <filePickModal+0x399>
    4d67: d0 d6        	bne	$4d3f <strncpy+0x1e>
    4d69: 60           	rts
    4d6a: a5 18        	lda	$18                     ; 0x2018 <filePickModal+0x398>
    4d6c: d0 04        	bne	$4d72 <strncpy+0x51>
    4d6e: a5 19        	lda	$19                     ; 0x2019 <filePickModal+0x399>
    4d70: f0 f7        	beq	$4d69 <strncpy+0x48>
    4d72: 38           	sec
    4d73: a9 00        	lda	#$0
    4d75: e5 19        	sbc	$19                     ; 0x2019 <filePickModal+0x399>
    4d77: 85 15        	sta	$15                     ; 0x2015 <filePickModal+0x395>
    4d79: a9 00        	lda	#$0
    4d7b: e5 18        	sbc	$18                     ; 0x2018 <filePickModal+0x398>
    4d7d: e6 16        	inc	$16                     ; 0x2016 <filePickModal+0x396>
    4d7f: d0 02        	bne	$4d83 <strncpy+0x62>
    4d81: e6 17        	inc	$17                     ; 0x2017 <filePickModal+0x397>
    4d83: a6 12        	ldx	$12                     ; 0x2012 <filePickModal+0x392>
    4d85: 86 ad        	stx	$ad                     ; 0x20ad <filePickModal+0x42d>
    4d87: a6 13        	ldx	$13                     ; 0x2013 <filePickModal+0x393>
    4d89: 86 ae        	stx	$ae                     ; 0x20ae <filePickModal+0x42e>
    4d8b: a6 16        	ldx	$16                     ; 0x2016 <filePickModal+0x396>
    4d8d: 86 12        	stx	$12                     ; 0x2012 <filePickModal+0x392>
    4d8f: a6 17        	ldx	$17                     ; 0x2017 <filePickModal+0x397>
    4d91: 86 13        	stx	$13                     ; 0x2013 <filePickModal+0x393>
    4d93: 85 14        	sta	$14                     ; 0x2014 <filePickModal+0x394>
    4d95: a6 15        	ldx	$15                     ; 0x2015 <filePickModal+0x395>
    4d97: a9 00        	lda	#$0
    4d99: 20 c6 4c     	jsr	$4cc6 <__memset>
    4d9c: a6 ad        	ldx	$ad                     ; 0x20ad <filePickModal+0x42d>
    4d9e: 86 12        	stx	$12                     ; 0x2012 <filePickModal+0x392>
    4da0: a6 ae        	ldx	$ae                     ; 0x20ae <filePickModal+0x42e>
    4da2: 86 13        	stx	$13                     ; 0x2013 <filePickModal+0x393>
    4da4: 60           	rts

00004da5 <strlen>:
    4da5: b2 12        	lda	($12)                   ; 0x2012 <filePickModal+0x392>
    4da7: f0 2e        	beq	$4dd7 <strlen+0x32>
    4da9: 64 15        	stz	$15                     ; 0x2015 <filePickModal+0x395>
    4dab: a0 01        	ldy	#$1
    4dad: a9 00        	lda	#$0
    4daf: 64 14        	stz	$14                     ; 0x2014 <filePickModal+0x394>
    4db1: aa           	tax
    4db2: e6 14        	inc	$14                     ; 0x2014 <filePickModal+0x394>
    4db4: d0 01        	bne	$4db7 <strlen+0x12>
    4db6: e8           	inx
    4db7: 18           	clc
    4db8: 85 17        	sta	$17                     ; 0x2017 <filePickModal+0x397>
    4dba: a5 15        	lda	$15                     ; 0x2015 <filePickModal+0x395>
    4dbc: 65 12        	adc	$12                     ; 0x2012 <filePickModal+0x392>
    4dbe: 85 16        	sta	$16                     ; 0x2016 <filePickModal+0x396>
    4dc0: a5 17        	lda	$17                     ; 0x2017 <filePickModal+0x397>
    4dc2: 65 13        	adc	$13                     ; 0x2013 <filePickModal+0x393>
    4dc4: 85 17        	sta	$17                     ; 0x2017 <filePickModal+0x397>
    4dc6: b1 16        	lda	($16),y                 ; 0x2016 <filePickModal+0x396>
    4dc8: 85 16        	sta	$16                     ; 0x2016 <filePickModal+0x396>
    4dca: a5 14        	lda	$14                     ; 0x2014 <filePickModal+0x394>
    4dcc: 85 15        	sta	$15                     ; 0x2015 <filePickModal+0x395>
    4dce: 8a           	txa
    4dcf: e6 16        	inc	$16                     ; 0x2016 <filePickModal+0x396>
    4dd1: c6 16        	dec	$16                     ; 0x2016 <filePickModal+0x396>
    4dd3: d0 dd        	bne	$4db2 <strlen+0xd>
    4dd5: 80 04        	bra	$4ddb <strlen+0x36>
    4dd7: 64 14        	stz	$14                     ; 0x2014 <filePickModal+0x394>
    4dd9: a2 00        	ldx	#$0
    4ddb: a5 14        	lda	$14                     ; 0x2014 <filePickModal+0x394>
    4ddd: 60           	rts

00004dde <strcmp>:
    4dde: b2 12        	lda	($12)                   ; 0x2012 <filePickModal+0x392>
    4de0: f0 17        	beq	$4df9 <strcmp+0x1b>
    4de2: a0 01        	ldy	#$1
    4de4: d2 14        	cmp	($14)                   ; 0x2014 <filePickModal+0x394>
    4de6: d0 13        	bne	$4dfb <strcmp+0x1d>
    4de8: e6 14        	inc	$14                     ; 0x2014 <filePickModal+0x394>
    4dea: d0 02        	bne	$4dee <strcmp+0x10>
    4dec: e6 15        	inc	$15                     ; 0x2015 <filePickModal+0x395>
    4dee: b1 12        	lda	($12),y                 ; 0x2012 <filePickModal+0x392>
    4df0: e6 12        	inc	$12                     ; 0x2012 <filePickModal+0x392>
    4df2: d0 02        	bne	$4df6 <strcmp+0x18>
    4df4: e6 13        	inc	$13                     ; 0x2013 <filePickModal+0x393>
    4df6: aa           	tax
    4df7: d0 eb        	bne	$4de4 <strcmp+0x6>
    4df9: a9 00        	lda	#$0
    4dfb: 38           	sec
    4dfc: f2 14        	sbc	($14)                   ; 0x2014 <filePickModal+0x394>
    4dfe: a8           	tay
    4dff: a9 00        	lda	#$0
    4e01: e9 00        	sbc	#$0
    4e03: aa           	tax
    4e04: 98           	tya
    4e05: 60           	rts

00004e06 <strrchr>:
    4e06: 85 16        	sta	$16                     ; 0x2016 <filePickModal+0x396>
    4e08: b2 12        	lda	($12)                   ; 0x2012 <filePickModal+0x392>
    4e0a: f0 23        	beq	$4e2f <strrchr+0x29>
    4e0c: a2 00        	ldx	#$0
    4e0e: 86 14        	stx	$14                     ; 0x2014 <filePickModal+0x394>
    4e10: a2 00        	ldx	#$0
    4e12: 86 15        	stx	$15                     ; 0x2015 <filePickModal+0x395>
    4e14: a0 01        	ldy	#$1
    4e16: c5 16        	cmp	$16                     ; 0x2016 <filePickModal+0x396>
    4e18: d0 08        	bne	$4e22 <strrchr+0x1c>
    4e1a: a6 12        	ldx	$12                     ; 0x2012 <filePickModal+0x392>
    4e1c: 86 14        	stx	$14                     ; 0x2014 <filePickModal+0x394>
    4e1e: a6 13        	ldx	$13                     ; 0x2013 <filePickModal+0x393>
    4e20: 86 15        	stx	$15                     ; 0x2015 <filePickModal+0x395>
    4e22: b1 12        	lda	($12),y                 ; 0x2012 <filePickModal+0x392>
    4e24: e6 12        	inc	$12                     ; 0x2012 <filePickModal+0x392>
    4e26: d0 02        	bne	$4e2a <strrchr+0x24>
    4e28: e6 13        	inc	$13                     ; 0x2013 <filePickModal+0x393>
    4e2a: aa           	tax
    4e2b: f0 0a        	beq	$4e37 <strrchr+0x31>
    4e2d: 80 e7        	bra	$4e16 <strrchr+0x10>
    4e2f: a2 00        	ldx	#$0
    4e31: 86 14        	stx	$14                     ; 0x2014 <filePickModal+0x394>
    4e33: a2 00        	ldx	#$0
    4e35: 86 15        	stx	$15                     ; 0x2015 <filePickModal+0x395>
    4e37: a6 14        	ldx	$14                     ; 0x2014 <filePickModal+0x394>
    4e39: 86 12        	stx	$12                     ; 0x2012 <filePickModal+0x392>
    4e3b: a6 15        	ldx	$15                     ; 0x2015 <filePickModal+0x395>
    4e3d: 86 13        	stx	$13                     ; 0x2013 <filePickModal+0x393>
    4e3f: 60           	rts

00004e40 <__simple_strtoui>:
    4e40: a9 d0        	lda	#$d0
    4e42: 18           	clc
    4e43: 72 12        	adc	($12)                   ; 0x2012 <filePickModal+0x392>
    4e45: c9 0a        	cmp	#$a
    4e47: 90 03        	bcc	$4e4c <__simple_strtoui+0xc>
    4e49: 4c 9d 4e     	jmp	$4e9d <__simple_strtoui+0x5d>
    4e4c: b2 12        	lda	($12)                   ; 0x2012 <filePickModal+0x392>
    4e4e: 64 16        	stz	$16                     ; 0x2016 <filePickModal+0x396>
    4e50: a0 01        	ldy	#$1
    4e52: 85 17        	sta	$17                     ; 0x2017 <filePickModal+0x397>
    4e54: 64 18        	stz	$18                     ; 0x2018 <filePickModal+0x398>
    4e56: a2 00        	ldx	#$0
    4e58: 06 18        	asl	$18                     ; 0x2018 <filePickModal+0x398>
    4e5a: 8a           	txa
    4e5b: 2a           	rol
    4e5c: 85 19        	sta	$19                     ; 0x2019 <filePickModal+0x399>
    4e5e: a5 18        	lda	$18                     ; 0x2018 <filePickModal+0x398>
    4e60: 0a           	asl
    4e61: a6 19        	ldx	$19                     ; 0x2019 <filePickModal+0x399>
    4e63: 86 1a        	stx	$1a                     ; 0x201a <filePickModal+0x39a>
    4e65: 26 1a        	rol	$1a                     ; 0x201a <filePickModal+0x39a>
    4e67: 0a           	asl
    4e68: 26 1a        	rol	$1a                     ; 0x201a <filePickModal+0x39a>
    4e6a: 18           	clc
    4e6b: 65 18        	adc	$18                     ; 0x2018 <filePickModal+0x398>
    4e6d: aa           	tax
    4e6e: a5 1a        	lda	$1a                     ; 0x201a <filePickModal+0x39a>
    4e70: 65 19        	adc	$19                     ; 0x2019 <filePickModal+0x399>
    4e72: 85 18        	sta	$18                     ; 0x2018 <filePickModal+0x398>
    4e74: 8a           	txa
    4e75: 18           	clc
    4e76: 65 17        	adc	$17                     ; 0x2017 <filePickModal+0x397>
    4e78: 85 17        	sta	$17                     ; 0x2017 <filePickModal+0x397>
    4e7a: a5 18        	lda	$18                     ; 0x2018 <filePickModal+0x398>
    4e7c: 65 16        	adc	$16                     ; 0x2016 <filePickModal+0x396>
    4e7e: aa           	tax
    4e7f: 18           	clc
    4e80: a5 17        	lda	$17                     ; 0x2017 <filePickModal+0x397>
    4e82: 69 d0        	adc	#$d0
    4e84: 85 18        	sta	$18                     ; 0x2018 <filePickModal+0x398>
    4e86: 8a           	txa
    4e87: 69 ff        	adc	#$ff
    4e89: aa           	tax
    4e8a: b1 12        	lda	($12),y                 ; 0x2012 <filePickModal+0x392>
    4e8c: 85 17        	sta	$17                     ; 0x2017 <filePickModal+0x397>
    4e8e: 18           	clc
    4e8f: 69 d0        	adc	#$d0
    4e91: e6 12        	inc	$12                     ; 0x2012 <filePickModal+0x392>
    4e93: d0 02        	bne	$4e97 <__simple_strtoui+0x57>
    4e95: e6 13        	inc	$13                     ; 0x2013 <filePickModal+0x393>
    4e97: c9 0a        	cmp	#$a
    4e99: 90 bd        	bcc	$4e58 <__simple_strtoui+0x18>
    4e9b: 80 04        	bra	$4ea1 <__simple_strtoui+0x61>
    4e9d: 64 18        	stz	$18                     ; 0x2018 <filePickModal+0x398>
    4e9f: a2 00        	ldx	#$0
    4ea1: a5 12        	lda	$12                     ; 0x2012 <filePickModal+0x392>
    4ea3: 92 14        	sta	($14)                   ; 0x2014 <filePickModal+0x394>
    4ea5: a0 01        	ldy	#$1
    4ea7: a5 13        	lda	$13                     ; 0x2013 <filePickModal+0x393>
    4ea9: 91 14        	sta	($14),y                 ; 0x2014 <filePickModal+0x394>
    4eab: a5 18        	lda	$18                     ; 0x2018 <filePickModal+0x398>
    4ead: 60           	rts

00004eae <__mulhi3>:
    4eae: a4 13        	ldy	$13                     ; 0x2013 <filePickModal+0x393>
    4eb0: d0 04        	bne	$4eb6 <__mulhi3+0x8>
    4eb2: a4 12        	ldy	$12                     ; 0x2012 <filePickModal+0x392>
    4eb4: f0 25        	beq	$4edb <__mulhi3+0x2d>
    4eb6: 85 14        	sta	$14                     ; 0x2014 <filePickModal+0x394>
    4eb8: 86 15        	stx	$15                     ; 0x2015 <filePickModal+0x395>
    4eba: a0 00        	ldy	#$0
    4ebc: 98           	tya
    4ebd: 46 13        	lsr	$13                     ; 0x2013 <filePickModal+0x393>
    4ebf: 66 12        	ror	$12                     ; 0x2012 <filePickModal+0x392>
    4ec1: 90 09        	bcc	$4ecc <__mulhi3+0x1e>
    4ec3: aa           	tax
    4ec4: 98           	tya
    4ec5: 18           	clc
    4ec6: 65 14        	adc	$14                     ; 0x2014 <filePickModal+0x394>
    4ec8: a8           	tay
    4ec9: 8a           	txa
    4eca: 65 15        	adc	$15                     ; 0x2015 <filePickModal+0x395>
    4ecc: 06 14        	asl	$14                     ; 0x2014 <filePickModal+0x394>
    4ece: 26 15        	rol	$15                     ; 0x2015 <filePickModal+0x395>
    4ed0: a6 13        	ldx	$13                     ; 0x2013 <filePickModal+0x393>
    4ed2: d0 e9        	bne	$4ebd <__mulhi3+0xf>
    4ed4: a6 12        	ldx	$12                     ; 0x2012 <filePickModal+0x392>
    4ed6: d0 e5        	bne	$4ebd <__mulhi3+0xf>
    4ed8: aa           	tax
    4ed9: 98           	tya
    4eda: 60           	rts
    4edb: a0 00        	ldy	#$0
    4edd: 98           	tya
    4ede: 80 f8        	bra	$4ed8 <__mulhi3+0x2a>

00004ee0 <__mulsi3>:
    4ee0: a4 17        	ldy	$17                     ; 0x2017 <filePickModal+0x397>
    4ee2: d0 0f        	bne	$4ef3 <__mulsi3+0x13>
    4ee4: a4 16        	ldy	$16                     ; 0x2016 <filePickModal+0x396>
    4ee6: d0 0b        	bne	$4ef3 <__mulsi3+0x13>
    4ee8: a4 15        	ldy	$15                     ; 0x2015 <filePickModal+0x395>
    4eea: d0 07        	bne	$4ef3 <__mulsi3+0x13>
    4eec: a4 14        	ldy	$14                     ; 0x2014 <filePickModal+0x394>
    4eee: d0 03        	bne	$4ef3 <__mulsi3+0x13>
    4ef0: 4c 47 4f     	jmp	$4f47 <__mulsi3+0x67>
    4ef3: 85 18        	sta	$18                     ; 0x2018 <filePickModal+0x398>
    4ef5: 86 19        	stx	$19                     ; 0x2019 <filePickModal+0x399>
    4ef7: a0 00        	ldy	#$0
    4ef9: a2 00        	ldx	#$0
    4efb: 64 1a        	stz	$1a                     ; 0x201a <filePickModal+0x39a>
    4efd: 98           	tya
    4efe: 46 17        	lsr	$17                     ; 0x2017 <filePickModal+0x397>
    4f00: 66 16        	ror	$16                     ; 0x2016 <filePickModal+0x396>
    4f02: 66 15        	ror	$15                     ; 0x2015 <filePickModal+0x395>
    4f04: 66 14        	ror	$14                     ; 0x2014 <filePickModal+0x394>
    4f06: 90 15        	bcc	$4f1d <__mulsi3+0x3d>
    4f08: 85 1b        	sta	$1b                     ; 0x201b <filePickModal+0x39b>
    4f0a: 98           	tya
    4f0b: 18           	clc
    4f0c: 65 18        	adc	$18                     ; 0x2018 <filePickModal+0x398>
    4f0e: a8           	tay
    4f0f: 8a           	txa
    4f10: 65 19        	adc	$19                     ; 0x2019 <filePickModal+0x399>
    4f12: aa           	tax
    4f13: a5 1a        	lda	$1a                     ; 0x201a <filePickModal+0x39a>
    4f15: 65 12        	adc	$12                     ; 0x2012 <filePickModal+0x392>
    4f17: 85 1a        	sta	$1a                     ; 0x201a <filePickModal+0x39a>
    4f19: a5 1b        	lda	$1b                     ; 0x201b <filePickModal+0x39b>
    4f1b: 65 13        	adc	$13                     ; 0x2013 <filePickModal+0x393>
    4f1d: 06 18        	asl	$18                     ; 0x2018 <filePickModal+0x398>
    4f1f: 26 19        	rol	$19                     ; 0x2019 <filePickModal+0x399>
    4f21: 26 12        	rol	$12                     ; 0x2012 <filePickModal+0x392>
    4f23: 26 13        	rol	$13                     ; 0x2013 <filePickModal+0x393>
    4f25: e6 17        	inc	$17                     ; 0x2017 <filePickModal+0x397>
    4f27: c6 17        	dec	$17                     ; 0x2017 <filePickModal+0x397>
    4f29: d0 d3        	bne	$4efe <__mulsi3+0x1e>
    4f2b: e6 16        	inc	$16                     ; 0x2016 <filePickModal+0x396>
    4f2d: c6 16        	dec	$16                     ; 0x2016 <filePickModal+0x396>
    4f2f: d0 cd        	bne	$4efe <__mulsi3+0x1e>
    4f31: e6 15        	inc	$15                     ; 0x2015 <filePickModal+0x395>
    4f33: c6 15        	dec	$15                     ; 0x2015 <filePickModal+0x395>
    4f35: d0 c7        	bne	$4efe <__mulsi3+0x1e>
    4f37: e6 14        	inc	$14                     ; 0x2014 <filePickModal+0x394>
    4f39: c6 14        	dec	$14                     ; 0x2014 <filePickModal+0x394>
    4f3b: d0 c1        	bne	$4efe <__mulsi3+0x1e>
    4f3d: 5a           	phy
    4f3e: a4 1a        	ldy	$1a                     ; 0x201a <filePickModal+0x39a>
    4f40: 84 12        	sty	$12                     ; 0x2012 <filePickModal+0x392>
    4f42: 7a           	ply
    4f43: 85 13        	sta	$13                     ; 0x2013 <filePickModal+0x393>
    4f45: 98           	tya
    4f46: 60           	rts
    4f47: a0 00        	ldy	#$0
    4f49: a2 00        	ldx	#$0
    4f4b: 64 1a        	stz	$1a                     ; 0x201a <filePickModal+0x39a>
    4f4d: 98           	tya
    4f4e: 80 ed        	bra	$4f3d <__mulsi3+0x5d>

00004f50 <__udivhi3>:
    4f50: 64 14        	stz	$14                     ; 0x2014 <filePickModal+0x394>
    4f52: a4 13        	ldy	$13                     ; 0x2013 <filePickModal+0x393>
    4f54: d0 04        	bne	$4f5a <__udivhi3+0xa>
    4f56: a4 12        	ldy	$12                     ; 0x2012 <filePickModal+0x392>
    4f58: f0 0e        	beq	$4f68 <__udivhi3+0x18>
    4f5a: 85 17        	sta	$17                     ; 0x2017 <filePickModal+0x397>
    4f5c: 8a           	txa
    4f5d: e4 13        	cpx	$13                     ; 0x2013 <filePickModal+0x393>
    4f5f: d0 0e        	bne	$4f6f <__udivhi3+0x1f>
    4f61: a5 17        	lda	$17                     ; 0x2017 <filePickModal+0x397>
    4f63: c5 12        	cmp	$12                     ; 0x2012 <filePickModal+0x392>
    4f65: 8a           	txa
    4f66: b0 0b        	bcs	$4f73 <__udivhi3+0x23>
    4f68: a2 00        	ldx	#$0
    4f6a: 86 a9        	stx	$a9                     ; 0x20a9 <filePickModal+0x429>
    4f6c: 4c 0b 50     	jmp	$500b <__udivhi3+0xbb>
    4f6f: c5 13        	cmp	$13                     ; 0x2013 <filePickModal+0x393>
    4f71: 90 f5        	bcc	$4f68 <__udivhi3+0x18>
    4f73: a2 01        	ldx	#$1
    4f75: 86 a9        	stx	$a9                     ; 0x20a9 <filePickModal+0x429>
    4f77: a6 13        	ldx	$13                     ; 0x2013 <filePickModal+0x393>
    4f79: 10 03        	bpl	$4f7e <__udivhi3+0x2e>
    4f7b: 4c 0b 50     	jmp	$500b <__udivhi3+0xbb>
    4f7e: a2 00        	ldx	#$0
    4f80: a4 12        	ldy	$12                     ; 0x2012 <filePickModal+0x392>
    4f82: 84 15        	sty	$15                     ; 0x2015 <filePickModal+0x395>
    4f84: a4 13        	ldy	$13                     ; 0x2013 <filePickModal+0x393>
    4f86: 84 16        	sty	$16                     ; 0x2016 <filePickModal+0x396>
    4f88: 06 15        	asl	$15                     ; 0x2015 <filePickModal+0x395>
    4f8a: 26 16        	rol	$16                     ; 0x2016 <filePickModal+0x396>
    4f8c: c5 16        	cmp	$16                     ; 0x2016 <filePickModal+0x396>
    4f8e: d0 08        	bne	$4f98 <__udivhi3+0x48>
    4f90: a4 17        	ldy	$17                     ; 0x2017 <filePickModal+0x397>
    4f92: c4 15        	cpy	$15                     ; 0x2015 <filePickModal+0x395>
    4f94: 90 13        	bcc	$4fa9 <__udivhi3+0x59>
    4f96: 80 04        	bra	$4f9c <__udivhi3+0x4c>
    4f98: c5 16        	cmp	$16                     ; 0x2016 <filePickModal+0x396>
    4f9a: 90 0d        	bcc	$4fa9 <__udivhi3+0x59>
    4f9c: e8           	inx
    4f9d: a4 15        	ldy	$15                     ; 0x2015 <filePickModal+0x395>
    4f9f: 84 12        	sty	$12                     ; 0x2012 <filePickModal+0x392>
    4fa1: a4 16        	ldy	$16                     ; 0x2016 <filePickModal+0x396>
    4fa3: 84 13        	sty	$13                     ; 0x2013 <filePickModal+0x393>
    4fa5: 10 e1        	bpl	$4f88 <__udivhi3+0x38>
    4fa7: 80 08        	bra	$4fb1 <__udivhi3+0x61>
    4fa9: a4 12        	ldy	$12                     ; 0x2012 <filePickModal+0x392>
    4fab: 84 15        	sty	$15                     ; 0x2015 <filePickModal+0x395>
    4fad: a4 13        	ldy	$13                     ; 0x2013 <filePickModal+0x393>
    4faf: 84 16        	sty	$16                     ; 0x2016 <filePickModal+0x396>
    4fb1: e0 00        	cpx	#$0
    4fb3: d0 03        	bne	$4fb8 <__udivhi3+0x68>
    4fb5: 4c 0b 50     	jmp	$500b <__udivhi3+0xbb>
    4fb8: 38           	sec
    4fb9: a8           	tay
    4fba: a5 17        	lda	$17                     ; 0x2017 <filePickModal+0x397>
    4fbc: e5 15        	sbc	$15                     ; 0x2015 <filePickModal+0x395>
    4fbe: 85 12        	sta	$12                     ; 0x2012 <filePickModal+0x392>
    4fc0: 98           	tya
    4fc1: e5 16        	sbc	$16                     ; 0x2016 <filePickModal+0x396>
    4fc3: a0 01        	ldy	#$1
    4fc5: 84 a9        	sty	$a9                     ; 0x20a9 <filePickModal+0x429>
    4fc7: 64 14        	stz	$14                     ; 0x2014 <filePickModal+0x394>
    4fc9: 46 16        	lsr	$16                     ; 0x2016 <filePickModal+0x396>
    4fcb: 66 15        	ror	$15                     ; 0x2015 <filePickModal+0x395>
    4fcd: a4 a9        	ldy	$a9                     ; 0x20a9 <filePickModal+0x429>
    4fcf: 84 13        	sty	$13                     ; 0x2013 <filePickModal+0x393>
    4fd1: 06 13        	asl	$13                     ; 0x2013 <filePickModal+0x393>
    4fd3: a0 01        	ldy	#$1
    4fd5: b0 02        	bcs	$4fd9 <__udivhi3+0x89>
    4fd7: a0 00        	ldy	#$0
    4fd9: 84 17        	sty	$17                     ; 0x2017 <filePickModal+0x397>
    4fdb: a4 13        	ldy	$13                     ; 0x2013 <filePickModal+0x393>
    4fdd: 84 a9        	sty	$a9                     ; 0x20a9 <filePickModal+0x429>
    4fdf: c5 16        	cmp	$16                     ; 0x2016 <filePickModal+0x396>
    4fe1: d0 22        	bne	$5005 <__udivhi3+0xb5>
    4fe3: a4 12        	ldy	$12                     ; 0x2012 <filePickModal+0x392>
    4fe5: c4 15        	cpy	$15                     ; 0x2015 <filePickModal+0x395>
    4fe7: 90 11        	bcc	$4ffa <__udivhi3+0xaa>
    4fe9: a8           	tay
    4fea: a5 a9        	lda	$a9                     ; 0x20a9 <filePickModal+0x429>
    4fec: 09 01        	ora	#$1
    4fee: 85 a9        	sta	$a9                     ; 0x20a9 <filePickModal+0x429>
    4ff0: 38           	sec
    4ff1: a5 12        	lda	$12                     ; 0x2012 <filePickModal+0x392>
    4ff3: e5 15        	sbc	$15                     ; 0x2015 <filePickModal+0x395>
    4ff5: 85 12        	sta	$12                     ; 0x2012 <filePickModal+0x392>
    4ff7: 98           	tya
    4ff8: e5 16        	sbc	$16                     ; 0x2016 <filePickModal+0x396>
    4ffa: a4 17        	ldy	$17                     ; 0x2017 <filePickModal+0x397>
    4ffc: c0 01        	cpy	#$1
    4ffe: 26 14        	rol	$14                     ; 0x2014 <filePickModal+0x394>
    5000: ca           	dex
    5001: d0 c6        	bne	$4fc9 <__udivhi3+0x79>
    5003: 80 06        	bra	$500b <__udivhi3+0xbb>
    5005: c5 16        	cmp	$16                     ; 0x2016 <filePickModal+0x396>
    5007: b0 e0        	bcs	$4fe9 <__udivhi3+0x99>
    5009: 80 ef        	bra	$4ffa <__udivhi3+0xaa>
    500b: a6 14        	ldx	$14                     ; 0x2014 <filePickModal+0x394>
    500d: a5 a9        	lda	$a9                     ; 0x20a9 <filePickModal+0x429>
    500f: 60           	rts
