
vgmplayer.elf:	file format elf32-mos

SYMBOL TABLE:
00000000 l    df *ABS*	00000000 zero-bss.c
00000000 l    df *ABS*	00000000 zero-zp-bss.c
00000000 l    df *ABS*	00000000 copy-zp-data.c
00000000 l    df *ABS*	00000000 ld-temp.o
0000059d l     F .text	000003a2 readDirectory
00003829 l     F .text	0000011b fileOpenDir
00003abf l     F .text	000000f3 fileReadDir
0000547a l     O .bss	0000300e fpr
000037de l     F .text	0000004b fileCloseDir
0000093f l     F .text	0000031d sortFileList
00000c5c l     F .text	00000376 displayFileList
00000053 l     O .zp.bss	00000001 _col
00000054 l     O .zp.bss	00000001 _row
00001c8d l     F .text	00000040 wipeArea
00004913 l     F .text	0000008a printf
00004a7f l     F .text	000001d8 putchar
00000fd2 l     F .text	00000cbb pickFile
0000004b l     O .zp.bss	00000007 kernelEventData
00000052 l     O .zp.bss	00000001 kernelError
000037cd l     F .text	00000011 textGotoXY
00001ccd l     F .text	00000070 opl3_initialize
00001d3d l     F .text	00000139 opl3_setInstrument
00001e76 l     F .text	0000011d bitmapReset
00008488 l     O .bss	00000004 _BITMAP_BASE.0
0000858e l     O .bss	00000078 name
00000033 l     O .zp.data	00000001 _ccolor
0000544a l     O .rodata	00000030 textColors
00000055 l     O .zp.bss	00000008 _dirStream
00005372 l     O .rodata	000000d8 opl3_instrument_defs
0000499d l     F .text	000000e2 sprintf
00003944 l     F .text	0000017b fileRead
0000005f l     O .zp.bss	00000001 comeRightTrough
00000047 l     O .zp.bss	00000004 tooBigWait
00000035 l     O .zp.bss	00000012 polyOPL3Buffer
00004e8b l     F .text	000000d7 __udivmodhi4
0000535a l     O .rodata	00000018 opl3_fnums
00000034 l     O .zp.bss	00000001 chipAct.0
00005302 l     O .rodata	00000058 noteColors
00004f62 l     F .text	00000070 __mulsi3
0000361d l     F .text	000001b0 fileClose
00004c57 l     F .text	000001e8 malloc
00000470 l     F .text	000000f0 _ZN12_GLOBAL__N_19FreeChunk6removeEv
00008607 l     O .bss	00000001 _ZN12_GLOBAL__N_19last_freeE
0000031c l     F .text	00000153 _ZN12_GLOBAL__N_19FreeChunk6insertEPvj
0000848c l     O .bss	00000102 fileReadDir.fileDirEntS
00003bb7 l     F .text	00000b76 _ZN12_GLOBAL__N_15printEPKcP6Status
0000472d l     F .text	000000d7 _ZN12_GLOBAL__N_13putEcP6Status
00004804 l     F .text	0000010f _ZN12_GLOBAL__N_112print_stringEPKcP6Status
0000005d l     O .zp.bss	00000002 __putchar.s
00008606 l     O .bss	00000001 _ZN12_GLOBAL__N_111initializedE
0000860a l     O .bss	00000002 _ZN12_GLOBAL__N_19free_listE
00008608 l     O .bss	00000002 _ZN12_GLOBAL__N_19free_sizeE
00001f93 g     F .text	0000168a main
000203fc g       .pianopal	00000000 pianopal_end
00033000 g       .keys	00000000 keys_end
00020000 g       .pianopal	00000000 pianopal_start
00020400 g       .keys	00000000 keys_start
00000318 g       .text	00000000 __after_main
00000304 g       .text	00000000 __do_init_stack
00000312 g       .text	00000000 __do_copy_zp_data
00000586 g     F .text	00000017 __copy_zp_data
0000030c g       .text	00000000 __do_zero_bss
00000560 g     F .text	00000013 __zero_bss
0000030f g       .text	00000000 __do_zero_zp_bss
00000573 g     F .text	00000013 __zero_zp_bss
00003bb2 g     F .text	00000005 exit
0000031b g       .text	00000000 _fini
00004fd2 g       .rodata	00000000 __set_v
00004e6b  w    F .text	00000020 __memset
00001000  w      *ABS*	00000000 __heap_default_limit
00008684 g       .noinit	00000000 __heap_start
00004e3f  w    F .text	0000002c memcpy
00000010 g       *ABS*	00000000 __rc0
00000012 g       *ABS*	00000000 __rc2
00000014 g       *ABS*	00000000 __rc4
00000016 g       *ABS*	00000000 __rc6
00000018 g       *ABS*	00000000 __rc8
0000001a g       *ABS*	00000000 __rc10
0000001c g       *ABS*	00000000 __rc12
0000001e g       *ABS*	00000000 __rc14
00000020 g       *ABS*	00000000 __rc16
00000022 g       *ABS*	00000000 __rc18
00000024 g       *ABS*	00000000 __rc20
00000026 g       *ABS*	00000000 __rc22
00000028 g       *ABS*	00000000 __rc24
0000002a g       *ABS*	00000000 __rc26
0000002c g       *ABS*	00000000 __rc28
0000002e g       *ABS*	00000000 __rc30
0000002f g       *ABS*	00000000 __rc31
00000300 g       *ABS*	00000000 __f256_start
0000a000 g       *ABS*	00000000 __stack
0000a000 g       *ABS*	00000000 __SLOT_ADDR
0800a000 g       *ABS*	00000000 __block8_lma
00002000 g       *ABS*	00000000 __BLOCK_SIZE
0900a000 g       *ABS*	00000000 __block9_lma
0a00a000 g       *ABS*	00000000 __block10_lma
0b00a000 g       *ABS*	00000000 __block11_lma
0c00a000 g       *ABS*	00000000 __block12_lma
0d00a000 g       *ABS*	00000000 __block13_lma
0e00a000 g       *ABS*	00000000 __block14_lma
0f00a000 g       *ABS*	00000000 __block15_lma
1000a000 g       *ABS*	00000000 __block16_lma
1100a000 g       *ABS*	00000000 __block17_lma
1200a000 g       *ABS*	00000000 __block18_lma
1300a000 g       *ABS*	00000000 __block19_lma
1400a000 g       *ABS*	00000000 __block20_lma
1500a000 g       *ABS*	00000000 __block21_lma
1600a000 g       *ABS*	00000000 __block22_lma
1700a000 g       *ABS*	00000000 __block23_lma
00020000 g       *ABS*	00000000 __pianopal_lma
000003fc g       *ABS*	00000000 __pianopal_size
00020400 g       *ABS*	00000000 __keys_lma
00012c00 g       *ABS*	00000000 __keys_size
0000547a g       .bss	00000000 __bss_start
000203fc g       .pianopal	00000000 end_pianopal
00033000 g       .keys	00000000 end_keys
00000304 g       .text	00000000 _start
0000002d g       *ABS*	00000000 __rc29
0000002b g       *ABS*	00000000 __rc27
00000029 g       *ABS*	00000000 __rc25
00000027 g       *ABS*	00000000 __rc23
00000025 g       *ABS*	00000000 __rc21
00000023 g       *ABS*	00000000 __rc19
00000021 g       *ABS*	00000000 __rc17
0000001f g       *ABS*	00000000 __rc15
0000001d g       *ABS*	00000000 __rc13
0000001b g       *ABS*	00000000 __rc11
00000019 g       *ABS*	00000000 __rc9
00000017 g       *ABS*	00000000 __rc7
00000015 g       *ABS*	00000000 __rc5
00000013 g       *ABS*	00000000 __rc3
00000011 g       *ABS*	00000000 __rc1
00000030 g       .zp.data	00000000 __zp_data_start
00000300 g       *ABS*	00000000 __zp_data_load_start
00000004 g       *ABS*	00000000 __zp_data_size
00000034 g       .zp.bss	00000000 __zp_bss_start
0000002c g       *ABS*	00000000 __zp_bss_size
00000304 g       .text	00000000 _init
00004fd2 g       .text	00000000 __init_array_start
00004fd2 g       .text	00000000 __init_array_end
00004fd2 g       .text	00000000 __fini_array_start
00004fd2 g       .text	00000000 __fini_array_end
0000547a g       .data	00000000 __data_start
0000547a g       .data	00000000 __data_end
0000547a g       *ABS*	00000000 __data_load_start
00000000 g       *ABS*	00000000 __data_size
0000860c g       .bss	00000000 __bss_end
00003192 g       *ABS*	00000000 __bss_size
00008684 g       .noinit	00000000 end_block8
00008684 g       .noinit	00000000 end_block9
00008684 g       .noinit	00000000 end_block10
00008684 g       .noinit	00000000 end_block11
00008684 g       .noinit	00000000 end_block12
00008684 g       .noinit	00000000 end_block13
00008684 g       .noinit	00000000 end_block14
00008684 g       .noinit	00000000 end_block15
00008684 g       .noinit	00000000 end_block16
00008684 g       .noinit	00000000 end_block17
00008684 g       .noinit	00000000 end_block18
00008684 g       .noinit	00000000 end_block19
00008684 g       .noinit	00000000 end_block20
00008684 g       .noinit	00000000 end_block21
00008684 g       .noinit	00000000 end_block22
00008684 g       .noinit	00000000 end_block23

Disassembly of section .text:

00000304 <_start>:
     304: a9 00        	lda	#$0
     306: 85 10        	sta	$10                     ; 0x10 <__rc0>
     308: a9 a0        	lda	#$a0
     30a: 85 11        	sta	$11                     ; 0x11 <__rc1>

0000030c <__do_zero_bss>:
     30c: 20 60 05     	jsr	$560 <__zero_bss>

0000030f <__do_zero_zp_bss>:
     30f: 20 73 05     	jsr	$573 <__zero_zp_bss>

00000312 <__do_copy_zp_data>:
     312: 20 86 05     	jsr	$586 <__copy_zp_data>
     315: 20 93 1f     	jsr	$1f93 <main>

00000318 <__after_main>:
     318: 4c b2 3b     	jmp	$3bb2 <exit>

0000031b <_fini>:
     31b: 60           	rts

0000031c <_ZN12_GLOBAL__N_19FreeChunk6insertEPvj>:
     31c: 85 16        	sta	$16                     ; 0x16 <__rc6>
     31e: 29 fe        	and	#$fe
     320: 85 14        	sta	$14                     ; 0x14 <__rc4>
     322: a0 01        	ldy	#$1
     324: 98           	tya
     325: 32 12        	and	($12)                   ; 0x12 <__rc2>
     327: 05 14        	ora	$14                     ; 0x14 <__rc4>
     329: 92 12        	sta	($12)                   ; 0x12 <__rc2>
     32b: a5 12        	lda	$12                     ; 0x12 <__rc2>
     32d: 18           	clc
     32e: 65 14        	adc	$14                     ; 0x14 <__rc4>
     330: 85 15        	sta	$15                     ; 0x15 <__rc5>
     332: 8a           	txa
     333: 65 13        	adc	$13                     ; 0x13 <__rc3>
     335: 85 14        	sta	$14                     ; 0x14 <__rc4>
     337: 18           	clc
     338: a5 15        	lda	$15                     ; 0x15 <__rc5>
     33a: 69 fe        	adc	#$fe
     33c: 85 17        	sta	$17                     ; 0x17 <__rc7>
     33e: a5 14        	lda	$14                     ; 0x14 <__rc4>
     340: 69 ff        	adc	#$ff
     342: 85 15        	sta	$15                     ; 0x15 <__rc5>
     344: a5 17        	lda	$17                     ; 0x17 <__rc7>
     346: 85 14        	sta	$14                     ; 0x14 <__rc4>
     348: 8a           	txa
     349: 91 12        	sta	($12),y                 ; 0x12 <__rc2>
     34b: a5 16        	lda	$16                     ; 0x16 <__rc6>
     34d: 92 14        	sta	($14)                   ; 0x14 <__rc4>
     34f: 8a           	txa
     350: 91 14        	sta	($14),y                 ; 0x14 <__rc4>
     352: a2 01        	ldx	#$1
     354: 86 18        	stx	$18                     ; 0x18 <__rc8>
     356: b1 12        	lda	($12),y                 ; 0x12 <__rc2>
     358: 85 14        	sta	$14                     ; 0x14 <__rc4>
     35a: a9 fe        	lda	#$fe
     35c: 32 12        	and	($12)                   ; 0x12 <__rc2>
     35e: 18           	clc
     35f: 6d 08 86     	adc	$8608                   ; 0x8608 <_ZN12_GLOBAL__N_19free_sizeE>
     362: aa           	tax
     363: a5 14        	lda	$14                     ; 0x14 <__rc4>
     365: 6d 09 86     	adc	$8609                   ; 0x8609 <_ZN12_GLOBAL__N_19free_sizeE+0x1>
     368: a8           	tay
     369: 18           	clc
     36a: 8a           	txa
     36b: 69 fe        	adc	#$fe
     36d: aa           	tax
     36e: 98           	tya
     36f: 69 ff        	adc	#$ff
     371: 8e 08 86     	stx	$8608                   ; 0x8608 <_ZN12_GLOBAL__N_19free_sizeE>
     374: 8d 09 86     	sta	$8609                   ; 0x8609 <_ZN12_GLOBAL__N_19free_sizeE+0x1>
     377: ae 0a 86     	ldx	$860a                   ; 0x860a <_ZN12_GLOBAL__N_19free_listE>
     37a: 86 16        	stx	$16                     ; 0x16 <__rc6>
     37c: ac 0b 86     	ldy	$860b                   ; 0x860b <_ZN12_GLOBAL__N_19free_listE+0x1>
     37f: a2 00        	ldx	#$0
     381: 86 14        	stx	$14                     ; 0x14 <__rc4>
     383: a2 00        	ldx	#$0
     385: 86 15        	stx	$15                     ; 0x15 <__rc5>
     387: 84 17        	sty	$17                     ; 0x17 <__rc7>
     389: c4 15        	cpy	$15                     ; 0x15 <__rc5>
     38b: d0 3e        	bne	$3cb <_ZN12_GLOBAL__N_19FreeChunk6insertEPvj+0xaf>
     38d: a6 16        	ldx	$16                     ; 0x16 <__rc6>
     38f: e4 14        	cpx	$14                     ; 0x14 <__rc4>
     391: d0 38        	bne	$3cb <_ZN12_GLOBAL__N_19FreeChunk6insertEPvj+0xaf>
     393: a0 04        	ldy	#$4
     395: a5 12        	lda	$12                     ; 0x12 <__rc2>
     397: 18           	clc
     398: 69 04        	adc	#$4
     39a: 85 14        	sta	$14                     ; 0x14 <__rc4>
     39c: a5 13        	lda	$13                     ; 0x13 <__rc3>
     39e: 69 00        	adc	#$0
     3a0: 18           	clc
     3a1: 85 15        	sta	$15                     ; 0x15 <__rc5>
     3a3: a5 12        	lda	$12                     ; 0x12 <__rc2>
     3a5: 91 12        	sta	($12),y                 ; 0x12 <__rc2>
     3a7: a0 02        	ldy	#$2
     3a9: 85 17        	sta	$17                     ; 0x17 <__rc7>
     3ab: 69 02        	adc	#$2
     3ad: 85 16        	sta	$16                     ; 0x16 <__rc6>
     3af: a5 17        	lda	$17                     ; 0x17 <__rc7>
     3b1: 91 12        	sta	($12),y                 ; 0x12 <__rc2>
     3b3: a5 13        	lda	$13                     ; 0x13 <__rc3>
     3b5: 69 00        	adc	#$0
     3b7: 85 17        	sta	$17                     ; 0x17 <__rc7>
     3b9: 88           	dey
     3ba: a5 13        	lda	$13                     ; 0x13 <__rc3>
     3bc: 91 14        	sta	($14),y                 ; 0x14 <__rc4>
     3be: 91 16        	sta	($16),y                 ; 0x16 <__rc6>
     3c0: a6 12        	ldx	$12                     ; 0x12 <__rc2>
     3c2: 8e 0a 86     	stx	$860a                   ; 0x860a <_ZN12_GLOBAL__N_19free_listE>
     3c5: a6 13        	ldx	$13                     ; 0x13 <__rc3>
     3c7: 8e 0b 86     	stx	$860b                   ; 0x860b <_ZN12_GLOBAL__N_19free_listE+0x1>
     3ca: 60           	rts
     3cb: a6 12        	ldx	$12                     ; 0x12 <__rc2>
     3cd: a5 12        	lda	$12                     ; 0x12 <__rc2>
     3cf: 18           	clc
     3d0: 69 02        	adc	#$2
     3d2: 85 14        	sta	$14                     ; 0x14 <__rc4>
     3d4: a4 16        	ldy	$16                     ; 0x16 <__rc6>
     3d6: a5 13        	lda	$13                     ; 0x13 <__rc3>
     3d8: 69 00        	adc	#$0
     3da: 85 15        	sta	$15                     ; 0x15 <__rc5>
     3dc: 84 19        	sty	$19                     ; 0x19 <__rc9>
     3de: a4 17        	ldy	$17                     ; 0x17 <__rc7>
     3e0: 84 1a        	sty	$1a                     ; 0x1a <__rc10>
     3e2: a0 02        	ldy	#$2
     3e4: a5 19        	lda	$19                     ; 0x19 <__rc9>
     3e6: 91 12        	sta	($12),y                 ; 0x12 <__rc2>
     3e8: 84 1d        	sty	$1d                     ; 0x1d <__rc13>
     3ea: a4 18        	ldy	$18                     ; 0x18 <__rc8>
     3ec: a5 1a        	lda	$1a                     ; 0x1a <__rc10>
     3ee: 91 14        	sta	($14),y                 ; 0x14 <__rc4>
     3f0: 84 1e        	sty	$1e                     ; 0x1e <__rc14>
     3f2: 18           	clc
     3f3: a5 19        	lda	$19                     ; 0x19 <__rc9>
     3f5: 69 04        	adc	#$4
     3f7: 85 18        	sta	$18                     ; 0x18 <__rc8>
     3f9: a5 1a        	lda	$1a                     ; 0x1a <__rc10>
     3fb: 69 00        	adc	#$0
     3fd: 85 19        	sta	$19                     ; 0x19 <__rc9>
     3ff: 8a           	txa
     400: 18           	clc
     401: 69 04        	adc	#$4
     403: 85 1a        	sta	$1a                     ; 0x1a <__rc10>
     405: a5 13        	lda	$13                     ; 0x13 <__rc3>
     407: 69 00        	adc	#$0
     409: 85 1b        	sta	$1b                     ; 0x1b <__rc11>
     40b: a0 04        	ldy	#$4
     40d: b1 16        	lda	($16),y                 ; 0x16 <__rc6>
     40f: 85 16        	sta	$16                     ; 0x16 <__rc6>
     411: 85 22        	sta	$22                     ; 0x22 <__rc18>
     413: a4 1e        	ldy	$1e                     ; 0x1e <__rc14>
     415: b1 18        	lda	($18),y                 ; 0x18 <__rc8>
     417: 85 17        	sta	$17                     ; 0x17 <__rc7>
     419: 85 19        	sta	$19                     ; 0x19 <__rc9>
     41b: a0 04        	ldy	#$4
     41d: a5 22        	lda	$22                     ; 0x22 <__rc18>
     41f: 91 12        	sta	($12),y                 ; 0x12 <__rc2>
     421: 84 1f        	sty	$1f                     ; 0x1f <__rc15>
     423: a4 1e        	ldy	$1e                     ; 0x1e <__rc14>
     425: a5 19        	lda	$19                     ; 0x19 <__rc9>
     427: 91 1a        	sta	($1a),y                 ; 0x1a <__rc10>
     429: 84 1a        	sty	$1a                     ; 0x1a <__rc10>
     42b: 18           	clc
     42c: a5 22        	lda	$22                     ; 0x22 <__rc18>
     42e: 69 02        	adc	#$2
     430: 85 18        	sta	$18                     ; 0x18 <__rc8>
     432: a5 19        	lda	$19                     ; 0x19 <__rc9>
     434: 69 00        	adc	#$0
     436: 85 19        	sta	$19                     ; 0x19 <__rc9>
     438: 8a           	txa
     439: a4 1d        	ldy	$1d                     ; 0x1d <__rc13>
     43b: 91 16        	sta	($16),y                 ; 0x16 <__rc6>
     43d: a5 13        	lda	$13                     ; 0x13 <__rc3>
     43f: a4 1a        	ldy	$1a                     ; 0x1a <__rc10>
     441: 91 18        	sta	($18),y                 ; 0x18 <__rc8>
     443: a4 1d        	ldy	$1d                     ; 0x1d <__rc13>
     445: b1 12        	lda	($12),y                 ; 0x12 <__rc2>
     447: 85 16        	sta	$16                     ; 0x16 <__rc6>
     449: 85 19        	sta	$19                     ; 0x19 <__rc9>
     44b: a4 1a        	ldy	$1a                     ; 0x1a <__rc10>
     44d: b1 14        	lda	($14),y                 ; 0x14 <__rc4>
     44f: 84 18        	sty	$18                     ; 0x18 <__rc8>
     451: 85 17        	sta	$17                     ; 0x17 <__rc7>
     453: 85 14        	sta	$14                     ; 0x14 <__rc4>
     455: 8a           	txa
     456: a4 1f        	ldy	$1f                     ; 0x1f <__rc15>
     458: 91 16        	sta	($16),y                 ; 0x16 <__rc6>
     45a: 18           	clc
     45b: a5 19        	lda	$19                     ; 0x19 <__rc9>
     45d: 69 04        	adc	#$4
     45f: a8           	tay
     460: a5 14        	lda	$14                     ; 0x14 <__rc4>
     462: 69 00        	adc	#$0
     464: 84 14        	sty	$14                     ; 0x14 <__rc4>
     466: 85 15        	sta	$15                     ; 0x15 <__rc5>
     468: a5 13        	lda	$13                     ; 0x13 <__rc3>
     46a: a4 18        	ldy	$18                     ; 0x18 <__rc8>
     46c: 91 14        	sta	($14),y                 ; 0x14 <__rc4>
     46e: 60           	rts
     46f: 00           	brk

00000470 <_ZN12_GLOBAL__N_19FreeChunk6removeEv>:
     470: a0 01        	ldy	#$1
     472: a9 fe        	lda	#$fe
     474: 32 12        	and	($12)                   ; 0x12 <__rc2>
     476: 85 14        	sta	$14                     ; 0x14 <__rc4>
     478: ad 08 86     	lda	$8608                   ; 0x8608 <_ZN12_GLOBAL__N_19free_sizeE>
     47b: ae 09 86     	ldx	$8609                   ; 0x8609 <_ZN12_GLOBAL__N_19free_sizeE+0x1>
     47e: 38           	sec
     47f: e5 14        	sbc	$14                     ; 0x14 <__rc4>
     481: 85 17        	sta	$17                     ; 0x17 <__rc7>
     483: 8a           	txa
     484: f1 12        	sbc	($12),y                 ; 0x12 <__rc2>
     486: 85 14        	sta	$14                     ; 0x14 <__rc4>
     488: a2 01        	ldx	#$1
     48a: 86 16        	stx	$16                     ; 0x16 <__rc6>
     48c: 18           	clc
     48d: a5 17        	lda	$17                     ; 0x17 <__rc7>
     48f: 69 02        	adc	#$2
     491: 85 15        	sta	$15                     ; 0x15 <__rc5>
     493: a5 14        	lda	$14                     ; 0x14 <__rc4>
     495: 69 00        	adc	#$0
     497: a6 15        	ldx	$15                     ; 0x15 <__rc5>
     499: 8e 08 86     	stx	$8608                   ; 0x8608 <_ZN12_GLOBAL__N_19free_sizeE>
     49c: 8d 09 86     	sta	$8609                   ; 0x8609 <_ZN12_GLOBAL__N_19free_sizeE+0x1>
     49f: a5 12        	lda	$12                     ; 0x12 <__rc2>
     4a1: 18           	clc
     4a2: 69 02        	adc	#$2
     4a4: 85 14        	sta	$14                     ; 0x14 <__rc4>
     4a6: a5 13        	lda	$13                     ; 0x13 <__rc3>
     4a8: 69 00        	adc	#$0
     4aa: c8           	iny
     4ab: 85 15        	sta	$15                     ; 0x15 <__rc5>
     4ad: b1 12        	lda	($12),y                 ; 0x12 <__rc2>
     4af: aa           	tax
     4b0: a4 16        	ldy	$16                     ; 0x16 <__rc6>
     4b2: b1 14        	lda	($14),y                 ; 0x14 <__rc4>
     4b4: 85 19        	sta	$19                     ; 0x19 <__rc9>
     4b6: c5 13        	cmp	$13                     ; 0x13 <__rc3>
     4b8: d0 0f        	bne	$4c9 <_ZN12_GLOBAL__N_19FreeChunk6removeEv+0x59>
     4ba: e4 12        	cpx	$12                     ; 0x12 <__rc2>
     4bc: d0 0b        	bne	$4c9 <_ZN12_GLOBAL__N_19FreeChunk6removeEv+0x59>
     4be: a2 00        	ldx	#$0
     4c0: 86 14        	stx	$14                     ; 0x14 <__rc4>
     4c2: a2 00        	ldx	#$0
     4c4: 86 15        	stx	$15                     ; 0x15 <__rc5>
     4c6: 4c 55 05     	jmp	$555 <_ZN12_GLOBAL__N_19FreeChunk6removeEv+0xe5>
     4c9: 86 18        	stx	$18                     ; 0x18 <__rc8>
     4cb: a6 12        	ldx	$12                     ; 0x12 <__rc2>
     4cd: a5 12        	lda	$12                     ; 0x12 <__rc2>
     4cf: 86 1c        	stx	$1c                     ; 0x1c <__rc12>
     4d1: 18           	clc
     4d2: 69 04        	adc	#$4
     4d4: 85 14        	sta	$14                     ; 0x14 <__rc4>
     4d6: a5 13        	lda	$13                     ; 0x13 <__rc3>
     4d8: 69 00        	adc	#$0
     4da: a0 04        	ldy	#$4
     4dc: 85 15        	sta	$15                     ; 0x15 <__rc5>
     4de: b1 12        	lda	($12),y                 ; 0x12 <__rc2>
     4e0: 85 1d        	sta	$1d                     ; 0x1d <__rc13>
     4e2: a2 04        	ldx	#$4
     4e4: 86 1a        	stx	$1a                     ; 0x1a <__rc10>
     4e6: 18           	clc
     4e7: 69 02        	adc	#$2
     4e9: 85 16        	sta	$16                     ; 0x16 <__rc6>
     4eb: a0 01        	ldy	#$1
     4ed: b1 14        	lda	($14),y                 ; 0x14 <__rc4>
     4ef: aa           	tax
     4f0: 84 1e        	sty	$1e                     ; 0x1e <__rc14>
     4f2: 69 00        	adc	#$0
     4f4: a4 16        	ldy	$16                     ; 0x16 <__rc6>
     4f6: 84 14        	sty	$14                     ; 0x14 <__rc4>
     4f8: 85 15        	sta	$15                     ; 0x15 <__rc5>
     4fa: a4 1d        	ldy	$1d                     ; 0x1d <__rc13>
     4fc: 84 16        	sty	$16                     ; 0x16 <__rc6>
     4fe: 86 17        	stx	$17                     ; 0x17 <__rc7>
     500: a5 18        	lda	$18                     ; 0x18 <__rc8>
     502: a0 02        	ldy	#$2
     504: 91 16        	sta	($16),y                 ; 0x16 <__rc6>
     506: 84 16        	sty	$16                     ; 0x16 <__rc6>
     508: a5 19        	lda	$19                     ; 0x19 <__rc9>
     50a: a4 1e        	ldy	$1e                     ; 0x1e <__rc14>
     50c: 91 14        	sta	($14),y                 ; 0x14 <__rc4>
     50e: 18           	clc
     50f: a5 1c        	lda	$1c                     ; 0x1c <__rc12>
     511: 69 02        	adc	#$2
     513: 85 14        	sta	$14                     ; 0x14 <__rc4>
     515: a5 13        	lda	$13                     ; 0x13 <__rc3>
     517: 69 00        	adc	#$0
     519: 85 15        	sta	$15                     ; 0x15 <__rc5>
     51b: a4 16        	ldy	$16                     ; 0x16 <__rc6>
     51d: b1 12        	lda	($12),y                 ; 0x12 <__rc2>
     51f: 85 16        	sta	$16                     ; 0x16 <__rc6>
     521: a4 1e        	ldy	$1e                     ; 0x1e <__rc14>
     523: b1 14        	lda	($14),y                 ; 0x14 <__rc4>
     525: 84 18        	sty	$18                     ; 0x18 <__rc8>
     527: a4 16        	ldy	$16                     ; 0x16 <__rc6>
     529: 84 14        	sty	$14                     ; 0x14 <__rc4>
     52b: 85 15        	sta	$15                     ; 0x15 <__rc5>
     52d: 85 17        	sta	$17                     ; 0x17 <__rc7>
     52f: a4 1a        	ldy	$1a                     ; 0x1a <__rc10>
     531: a5 1d        	lda	$1d                     ; 0x1d <__rc13>
     533: 91 14        	sta	($14),y                 ; 0x14 <__rc4>
     535: 18           	clc
     536: a5 16        	lda	$16                     ; 0x16 <__rc6>
     538: 69 04        	adc	#$4
     53a: 85 16        	sta	$16                     ; 0x16 <__rc6>
     53c: a5 17        	lda	$17                     ; 0x17 <__rc7>
     53e: 69 00        	adc	#$0
     540: 85 17        	sta	$17                     ; 0x17 <__rc7>
     542: 8a           	txa
     543: a4 18        	ldy	$18                     ; 0x18 <__rc8>
     545: 91 16        	sta	($16),y                 ; 0x16 <__rc6>
     547: ae 0b 86     	ldx	$860b                   ; 0x860b <_ZN12_GLOBAL__N_19free_listE+0x1>
     54a: e4 13        	cpx	$13                     ; 0x13 <__rc3>
     54c: d0 11        	bne	$55f <_ZN12_GLOBAL__N_19FreeChunk6removeEv+0xef>
     54e: ae 0a 86     	ldx	$860a                   ; 0x860a <_ZN12_GLOBAL__N_19free_listE>
     551: e4 12        	cpx	$12                     ; 0x12 <__rc2>
     553: d0 0a        	bne	$55f <_ZN12_GLOBAL__N_19FreeChunk6removeEv+0xef>
     555: a6 14        	ldx	$14                     ; 0x14 <__rc4>
     557: a4 15        	ldy	$15                     ; 0x15 <__rc5>
     559: 8e 0a 86     	stx	$860a                   ; 0x860a <_ZN12_GLOBAL__N_19free_listE>
     55c: 8c 0b 86     	sty	$860b                   ; 0x860b <_ZN12_GLOBAL__N_19free_listE+0x1>
     55f: 60           	rts

00000560 <__zero_bss>:
     560: a2 92        	ldx	#$92
     562: a0 31        	ldy	#$31
     564: a9 7a        	lda	#$7a
     566: 85 12        	sta	$12                     ; 0x12 <__rc2>
     568: a9 54        	lda	#$54
     56a: 85 13        	sta	$13                     ; 0x13 <__rc3>
     56c: a9 00        	lda	#$0
     56e: 84 14        	sty	$14                     ; 0x14 <__rc4>
     570: 4c 6b 4e     	jmp	$4e6b <__memset>

00000573 <__zero_zp_bss>:
     573: a2 2c        	ldx	#$2c
     575: a0 00        	ldy	#$0
     577: a9 34        	lda	#$34
     579: 85 12        	sta	$12                     ; 0x12 <__rc2>
     57b: a9 00        	lda	#$0
     57d: 85 13        	sta	$13                     ; 0x13 <__rc3>
     57f: a9 00        	lda	#$0
     581: 84 14        	sty	$14                     ; 0x14 <__rc4>
     583: 4c 6b 4e     	jmp	$4e6b <__memset>

00000586 <__copy_zp_data>:
     586: a9 04        	lda	#$4
     588: a2 00        	ldx	#$0
     58a: a0 30        	ldy	#$30
     58c: 84 12        	sty	$12                     ; 0x12 <__rc2>
     58e: a0 00        	ldy	#$0
     590: 84 13        	sty	$13                     ; 0x13 <__rc3>
     592: a0 00        	ldy	#$0
     594: 84 14        	sty	$14                     ; 0x14 <__rc4>
     596: a0 03        	ldy	#$3
     598: 84 15        	sty	$15                     ; 0x15 <__rc5>
     59a: 4c 3f 4e     	jmp	$4e3f <memcpy>

0000059d <readDirectory>:
     59d: 20 29 38     	jsr	$3829 <fileOpenDir>
     5a0: a2 00        	ldx	#$0
     5a2: 86 14        	stx	$14                     ; 0x14 <__rc4>
     5a4: a2 00        	ldx	#$0
     5a6: 86 15        	stx	$15                     ; 0x15 <__rc5>
     5a8: a6 13        	ldx	$13                     ; 0x13 <__rc3>
     5aa: e4 15        	cpx	$15                     ; 0x15 <__rc5>
     5ac: d0 09        	bne	$5b7 <readDirectory+0x1a>
     5ae: a6 12        	ldx	$12                     ; 0x12 <__rc2>
     5b0: e4 14        	cpx	$14                     ; 0x14 <__rc4>
     5b2: d0 03        	bne	$5b7 <readDirectory+0x1a>
     5b4: 4c 3e 09     	jmp	$93e <readDirectory+0x3a1>
     5b7: a6 12        	ldx	$12                     ; 0x12 <__rc2>
     5b9: 86 14        	stx	$14                     ; 0x14 <__rc4>
     5bb: a6 13        	ldx	$13                     ; 0x13 <__rc3>
     5bd: 86 15        	stx	$15                     ; 0x15 <__rc5>
     5bf: a6 14        	ldx	$14                     ; 0x14 <__rc4>
     5c1: 86 6c        	stx	$6c                     ; 0x6c <__rc31+0x3d>
     5c3: a6 15        	ldx	$15                     ; 0x15 <__rc5>
     5c5: 86 6d        	stx	$6d                     ; 0x6d <__rc31+0x3e>
     5c7: 20 bf 3a     	jsr	$3abf <fileReadDir>
     5ca: a2 a8        	ldx	#$a8
     5cc: 86 62        	stx	$62                     ; 0x62 <__rc31+0x33>
     5ce: a2 55        	ldx	#$55
     5d0: 86 63        	stx	$63                     ; 0x63 <__rc31+0x34>
     5d2: a2 01        	ldx	#$1
     5d4: 86 64        	stx	$64                     ; 0x64 <__rc31+0x35>
     5d6: a0 00        	ldy	#$0
     5d8: e8           	inx
     5d9: 86 65        	stx	$65                     ; 0x65 <__rc31+0x36>
     5db: a2 00        	ldx	#$0
     5dd: 86 66        	stx	$66                     ; 0x66 <__rc31+0x37>
     5df: a2 03        	ldx	#$3
     5e1: 86 67        	stx	$67                     ; 0x67 <__rc31+0x38>
     5e3: a2 01        	ldx	#$1
     5e5: 86 68        	stx	$68                     ; 0x68 <__rc31+0x39>
     5e7: 64 69        	stz	$69                     ; 0x69 <__rc31+0x3a>
     5e9: 4c 02 09     	jmp	$902 <readDirectory+0x365>
     5ec: a6 69        	ldx	$69                     ; 0x69 <__rc31+0x3a>
     5ee: e0 00        	cpx	#$0
     5f0: a6 6c        	ldx	$6c                     ; 0x6c <__rc31+0x3d>
     5f2: 86 60        	stx	$60                     ; 0x60 <__rc31+0x31>
     5f4: a6 6d        	ldx	$6d                     ; 0x6d <__rc31+0x3e>
     5f6: 86 61        	stx	$61                     ; 0x61 <__rc31+0x32>
     5f8: 90 04        	bcc	$5fe <readDirectory+0x61>
     5fa: a2 00        	ldx	#$0
     5fc: 80 02        	bra	$600 <readDirectory+0x63>
     5fe: a2 01        	ldx	#$1
     600: 86 6b        	stx	$6b                     ; 0x6b <__rc31+0x3c>
     602: a6 60        	ldx	$60                     ; 0x60 <__rc31+0x31>
     604: 86 12        	stx	$12                     ; 0x12 <__rc2>
     606: a6 61        	ldx	$61                     ; 0x61 <__rc31+0x32>
     608: 86 13        	stx	$13                     ; 0x13 <__rc3>
     60a: 20 bf 3a     	jsr	$3abf <fileReadDir>
     60d: a2 00        	ldx	#$0
     60f: 86 14        	stx	$14                     ; 0x14 <__rc4>
     611: a2 00        	ldx	#$0
     613: 86 15        	stx	$15                     ; 0x15 <__rc5>
     615: a6 13        	ldx	$13                     ; 0x13 <__rc3>
     617: e4 15        	cpx	$15                     ; 0x15 <__rc5>
     619: d0 0e        	bne	$629 <readDirectory+0x8c>
     61b: a6 12        	ldx	$12                     ; 0x12 <__rc2>
     61d: a4 65        	ldy	$65                     ; 0x65 <__rc31+0x36>
     61f: a5 6b        	lda	$6b                     ; 0x6b <__rc31+0x3c>
     621: e4 14        	cpx	$14                     ; 0x14 <__rc4>
     623: d0 08        	bne	$62d <readDirectory+0x90>
     625: a9 00        	lda	#$0
     627: 80 04        	bra	$62d <readDirectory+0x90>
     629: a4 65        	ldy	$65                     ; 0x65 <__rc31+0x36>
     62b: a5 6b        	lda	$6b                     ; 0x6b <__rc31+0x3c>
     62d: aa           	tax
     62e: d0 03        	bne	$633 <readDirectory+0x96>
     630: 4c 12 09     	jmp	$912 <readDirectory+0x375>
     633: a2 02        	ldx	#$2
     635: 86 65        	stx	$65                     ; 0x65 <__rc31+0x36>
     637: b1 12        	lda	($12),y                 ; 0x12 <__rc2>
     639: 85 19        	sta	$19                     ; 0x19 <__rc9>
     63b: 85 22        	sta	$22                     ; 0x22 <__rc18>
     63d: c9 2e        	cmp	#$2e
     63f: d0 1e        	bne	$65f <readDirectory+0xc2>
     641: a0 03        	ldy	#$3
     643: a2 03        	ldx	#$3
     645: 86 67        	stx	$67                     ; 0x67 <__rc31+0x38>
     647: b1 12        	lda	($12),y                 ; 0x12 <__rc2>
     649: d0 03        	bne	$64e <readDirectory+0xb1>
     64b: 4c 04 09     	jmp	$904 <readDirectory+0x367>
     64e: a2 2e        	ldx	#$2e
     650: 86 19        	stx	$19                     ; 0x19 <__rc9>
     652: c9 2e        	cmp	#$2e
     654: d0 09        	bne	$65f <readDirectory+0xc2>
     656: a0 04        	ldy	#$4
     658: b1 12        	lda	($12),y                 ; 0x12 <__rc2>
     65a: d0 03        	bne	$65f <readDirectory+0xc2>
     65c: 4c 04 09     	jmp	$904 <readDirectory+0x367>
     65f: a5 12        	lda	$12                     ; 0x12 <__rc2>
     661: 18           	clc
     662: 69 02        	adc	#$2
     664: 85 1e        	sta	$1e                     ; 0x1e <__rc14>
     666: a5 13        	lda	$13                     ; 0x13 <__rc3>
     668: 69 00        	adc	#$0
     66a: 85 1f        	sta	$1f                     ; 0x1f <__rc15>
     66c: a2 7c        	ldx	#$7c
     66e: 86 16        	stx	$16                     ; 0x16 <__rc6>
     670: a2 84        	ldx	#$84
     672: 86 17        	stx	$17                     ; 0x17 <__rc7>
     674: a9 00        	lda	#$0
     676: a8           	tay
     677: 64 1c        	stz	$1c                     ; 0x1c <__rc12>
     679: aa           	tax
     67a: 48           	pha
     67b: bd 7c 84     	lda	$847c,x                 ; 0x847c <fpr+0x3002>
     67e: aa           	tax
     67f: 68           	pla
     680: e0 00        	cpx	#$0
     682: f0 4d        	beq	$6d1 <readDirectory+0x134>
     684: 85 23        	sta	$23                     ; 0x23 <__rc19>
     686: a5 19        	lda	$19                     ; 0x19 <__rc9>
     688: d0 03        	bne	$68d <readDirectory+0xf0>
     68a: 4c 03 07     	jmp	$703 <readDirectory+0x166>
     68d: 84 6b        	sty	$6b                     ; 0x6b <__rc31+0x3c>
     68f: a0 00        	ldy	#$0
     691: a2 00        	ldx	#$0
     693: 86 14        	stx	$14                     ; 0x14 <__rc4>
     695: 98           	tya
     696: c8           	iny
     697: d0 01        	bne	$69a <readDirectory+0xfd>
     699: e8           	inx
     69a: 48           	pha
     69b: a5 66        	lda	$66                     ; 0x66 <__rc31+0x37>
     69d: c9 01        	cmp	#$1
     69f: 68           	pla
     6a0: 65 12        	adc	$12                     ; 0x12 <__rc2>
     6a2: 85 1a        	sta	$1a                     ; 0x1a <__rc10>
     6a4: a5 14        	lda	$14                     ; 0x14 <__rc4>
     6a6: 65 13        	adc	$13                     ; 0x13 <__rc3>
     6a8: 84 18        	sty	$18                     ; 0x18 <__rc8>
     6aa: a4 1a        	ldy	$1a                     ; 0x1a <__rc10>
     6ac: 84 14        	sty	$14                     ; 0x14 <__rc4>
     6ae: 85 15        	sta	$15                     ; 0x15 <__rc5>
     6b0: a4 67        	ldy	$67                     ; 0x67 <__rc31+0x38>
     6b2: b1 14        	lda	($14),y                 ; 0x14 <__rc4>
     6b4: a4 18        	ldy	$18                     ; 0x18 <__rc8>
     6b6: c9 00        	cmp	#$0
     6b8: d0 d9        	bne	$693 <readDirectory+0xf6>
     6ba: a9 03        	lda	#$3
     6bc: 85 67        	sta	$67                     ; 0x67 <__rc31+0x38>
     6be: a9 00        	lda	#$0
     6c0: 85 66        	sta	$66                     ; 0x66 <__rc31+0x37>
     6c2: 2c d2 4f     	bit	$4fd2                   ; 0x4fd2 <__set_v>
     6c5: a5 22        	lda	$22                     ; 0x22 <__rc18>
     6c7: f0 01        	beq	$6ca <readDirectory+0x12d>
     6c9: b8           	clv
     6ca: 8a           	txa
     6cb: d0 3b        	bne	$708 <readDirectory+0x16b>
     6cd: c0 04        	cpy	#$4
     6cf: 80 39        	bra	$70a <readDirectory+0x16d>
     6d1: 85 23        	sta	$23                     ; 0x23 <__rc19>
     6d3: 4c d1 07     	jmp	$7d1 <readDirectory+0x234>
     6d6: c0 03        	cpy	#$3
     6d8: d0 03        	bne	$6dd <readDirectory+0x140>
     6da: 4c 16 08     	jmp	$816 <readDirectory+0x279>
     6dd: b1 60        	lda	($60),y                 ; 0x60 <__rc31+0x31>
     6df: c9 41        	cmp	#$41
     6e1: 90 06        	bcc	$6e9 <readDirectory+0x14c>
     6e3: c9 5b        	cmp	#$5b
     6e5: b0 02        	bcs	$6e9 <readDirectory+0x14c>
     6e7: 09 20        	ora	#$20
     6e9: 85 14        	sta	$14                     ; 0x14 <__rc4>
     6eb: b1 16        	lda	($16),y                 ; 0x16 <__rc6>
     6ed: c9 41        	cmp	#$41
     6ef: 90 06        	bcc	$6f7 <readDirectory+0x15a>
     6f1: c9 5b        	cmp	#$5b
     6f3: b0 02        	bcs	$6f7 <readDirectory+0x15a>
     6f5: 09 20        	ora	#$20
     6f7: 85 1a        	sta	$1a                     ; 0x1a <__rc10>
     6f9: c8           	iny
     6fa: a6 14        	ldx	$14                     ; 0x14 <__rc4>
     6fc: e4 1a        	cpx	$1a                     ; 0x1a <__rc10>
     6fe: f0 d6        	beq	$6d6 <readDirectory+0x139>
     700: 4c 0e 08     	jmp	$80e <readDirectory+0x271>
     703: 64 19        	stz	$19                     ; 0x19 <__rc9>
     705: 4c d1 07     	jmp	$7d1 <readDirectory+0x234>
     708: e0 00        	cpx	#$0
     70a: a4 6b        	ldy	$6b                     ; 0x6b <__rc31+0x3c>
     70c: a2 01        	ldx	#$1
     70e: a9 00        	lda	#$0
     710: b0 02        	bcs	$714 <readDirectory+0x177>
     712: a9 01        	lda	#$1
     714: 86 18        	stx	$18                     ; 0x18 <__rc8>
     716: 70 02        	bvs	$71a <readDirectory+0x17d>
     718: 64 18        	stz	$18                     ; 0x18 <__rc8>
     71a: aa           	tax
     71b: 29 01        	and	#$1
     71d: d0 02        	bne	$721 <readDirectory+0x184>
     71f: 64 19        	stz	$19                     ; 0x19 <__rc9>
     721: 8a           	txa
     722: 05 18        	ora	$18                     ; 0x18 <__rc8>
     724: 29 01        	and	#$1
     726: f0 03        	beq	$72b <readDirectory+0x18e>
     728: 4c d1 07     	jmp	$7d1 <readDirectory+0x234>
     72b: a2 00        	ldx	#$0
     72d: 86 1a        	stx	$1a                     ; 0x1a <__rc10>
     72f: a2 00        	ldx	#$0
     731: 86 1b        	stx	$1b                     ; 0x1b <__rc11>
     733: a5 22        	lda	$22                     ; 0x22 <__rc18>
     735: a6 1e        	ldx	$1e                     ; 0x1e <__rc14>
     737: 86 18        	stx	$18                     ; 0x18 <__rc8>
     739: a6 1f        	ldx	$1f                     ; 0x1f <__rc15>
     73b: 86 19        	stx	$19                     ; 0x19 <__rc9>
     73d: a4 64        	ldy	$64                     ; 0x64 <__rc31+0x35>
     73f: c9 2e        	cmp	#$2e
     741: d0 08        	bne	$74b <readDirectory+0x1ae>
     743: a6 18        	ldx	$18                     ; 0x18 <__rc8>
     745: 86 1a        	stx	$1a                     ; 0x1a <__rc10>
     747: a6 19        	ldx	$19                     ; 0x19 <__rc9>
     749: 86 1b        	stx	$1b                     ; 0x1b <__rc11>
     74b: b1 18        	lda	($18),y                 ; 0x18 <__rc8>
     74d: e6 18        	inc	$18                     ; 0x18 <__rc8>
     74f: d0 02        	bne	$753 <readDirectory+0x1b6>
     751: e6 19        	inc	$19                     ; 0x19 <__rc9>
     753: aa           	tax
     754: d0 e9        	bne	$73f <readDirectory+0x1a2>
     756: a2 01        	ldx	#$1
     758: 86 64        	stx	$64                     ; 0x64 <__rc31+0x35>
     75a: ca           	dex
     75b: 86 18        	stx	$18                     ; 0x18 <__rc8>
     75d: a2 00        	ldx	#$0
     75f: 86 19        	stx	$19                     ; 0x19 <__rc9>
     761: a6 1b        	ldx	$1b                     ; 0x1b <__rc11>
     763: e4 19        	cpx	$19                     ; 0x19 <__rc9>
     765: d0 0f        	bne	$776 <readDirectory+0x1d9>
     767: a6 1a        	ldx	$1a                     ; 0x1a <__rc10>
     769: a4 22        	ldy	$22                     ; 0x22 <__rc18>
     76b: 84 19        	sty	$19                     ; 0x19 <__rc9>
     76d: a4 6b        	ldy	$6b                     ; 0x6b <__rc31+0x3c>
     76f: e4 18        	cpx	$18                     ; 0x18 <__rc8>
     771: d0 03        	bne	$776 <readDirectory+0x1d9>
     773: 4c d1 07     	jmp	$7d1 <readDirectory+0x234>
     776: a6 1a        	ldx	$1a                     ; 0x1a <__rc10>
     778: 86 60        	stx	$60                     ; 0x60 <__rc31+0x31>
     77a: a6 1b        	ldx	$1b                     ; 0x1b <__rc11>
     77c: 86 61        	stx	$61                     ; 0x61 <__rc31+0x32>
     77e: e6 60        	inc	$60                     ; 0x60 <__rc31+0x31>
     780: d0 02        	bne	$784 <readDirectory+0x1e7>
     782: e6 61        	inc	$61                     ; 0x61 <__rc31+0x32>
     784: a0 01        	ldy	#$1
     786: a2 01        	ldx	#$1
     788: 86 64        	stx	$64                     ; 0x64 <__rc31+0x35>
     78a: b1 1a        	lda	($1a),y                 ; 0x1a <__rc10>
     78c: a6 22        	ldx	$22                     ; 0x22 <__rc18>
     78e: 86 19        	stx	$19                     ; 0x19 <__rc9>
     790: a4 6b        	ldy	$6b                     ; 0x6b <__rc31+0x3c>
     792: aa           	tax
     793: f0 3c        	beq	$7d1 <readDirectory+0x234>
     795: a2 00        	ldx	#$0
     797: 64 1d        	stz	$1d                     ; 0x1d <__rc13>
     799: a4 65        	ldy	$65                     ; 0x65 <__rc31+0x36>
     79b: 8a           	txa
     79c: 5a           	phy
     79d: a4 66        	ldy	$66                     ; 0x66 <__rc31+0x37>
     79f: c0 01        	cpy	#$1
     7a1: 7a           	ply
     7a2: 65 1a        	adc	$1a                     ; 0x1a <__rc10>
     7a4: 85 14        	sta	$14                     ; 0x14 <__rc4>
     7a6: a5 1d        	lda	$1d                     ; 0x1d <__rc13>
     7a8: 65 1b        	adc	$1b                     ; 0x1b <__rc11>
     7aa: e8           	inx
     7ab: d0 02        	bne	$7af <readDirectory+0x212>
     7ad: e6 1d        	inc	$1d                     ; 0x1d <__rc13>
     7af: 85 15        	sta	$15                     ; 0x15 <__rc5>
     7b1: b1 14        	lda	($14),y                 ; 0x14 <__rc4>
     7b3: d0 e6        	bne	$79b <readDirectory+0x1fe>
     7b5: a0 00        	ldy	#$0
     7b7: 84 66        	sty	$66                     ; 0x66 <__rc31+0x37>
     7b9: a0 02        	ldy	#$2
     7bb: 84 65        	sty	$65                     ; 0x65 <__rc31+0x36>
     7bd: a4 22        	ldy	$22                     ; 0x22 <__rc18>
     7bf: 84 19        	sty	$19                     ; 0x19 <__rc9>
     7c1: a4 6b        	ldy	$6b                     ; 0x6b <__rc31+0x3c>
     7c3: a5 1d        	lda	$1d                     ; 0x1d <__rc13>
     7c5: d0 0a        	bne	$7d1 <readDirectory+0x234>
     7c7: a4 22        	ldy	$22                     ; 0x22 <__rc18>
     7c9: 84 19        	sty	$19                     ; 0x19 <__rc9>
     7cb: a4 6b        	ldy	$6b                     ; 0x6b <__rc31+0x3c>
     7cd: e0 03        	cpx	#$3
     7cf: f0 38        	beq	$809 <readDirectory+0x26c>
     7d1: 5a           	phy
     7d2: fa           	plx
     7d3: e8           	inx
     7d4: d0 02        	bne	$7d8 <readDirectory+0x23b>
     7d6: e6 1c        	inc	$1c                     ; 0x1c <__rc12>
     7d8: da           	phx
     7d9: 7a           	ply
     7da: 18           	clc
     7db: a5 23        	lda	$23                     ; 0x23 <__rc19>
     7dd: 69 03        	adc	#$3
     7df: aa           	tax
     7e0: a5 16        	lda	$16                     ; 0x16 <__rc6>
     7e2: 18           	clc
     7e3: 69 03        	adc	#$3
     7e5: 85 16        	sta	$16                     ; 0x16 <__rc6>
     7e7: a5 17        	lda	$17                     ; 0x17 <__rc7>
     7e9: 69 00        	adc	#$0
     7eb: 85 17        	sta	$17                     ; 0x17 <__rc7>
     7ed: 8a           	txa
     7ee: a6 1c        	ldx	$1c                     ; 0x1c <__rc12>
     7f0: f0 03        	beq	$7f5 <readDirectory+0x258>
     7f2: 4c 79 06     	jmp	$679 <readDirectory+0xdc>
     7f5: c0 04        	cpy	#$4
     7f7: f0 03        	beq	$7fc <readDirectory+0x25f>
     7f9: 4c 79 06     	jmp	$679 <readDirectory+0xdc>
     7fc: a0 01        	ldy	#$1
     7fe: a2 01        	ldx	#$1
     800: 86 64        	stx	$64                     ; 0x64 <__rc31+0x35>
     802: b1 12        	lda	($12),y                 ; 0x12 <__rc2>
     804: d0 10        	bne	$816 <readDirectory+0x279>
     806: 4c 04 09     	jmp	$904 <readDirectory+0x367>
     809: a0 00        	ldy	#$0
     80b: 4c d6 06     	jmp	$6d6 <readDirectory+0x139>
     80e: a6 22        	ldx	$22                     ; 0x22 <__rc18>
     810: 86 19        	stx	$19                     ; 0x19 <__rc9>
     812: a4 6b        	ldy	$6b                     ; 0x6b <__rc31+0x3c>
     814: 80 bb        	bra	$7d1 <readDirectory+0x234>
     816: a5 68        	lda	$68                     ; 0x68 <__rc31+0x39>
     818: 0a           	asl
     819: a6 69        	ldx	$69                     ; 0x69 <__rc31+0x3a>
     81b: 86 14        	stx	$14                     ; 0x14 <__rc4>
     81d: 26 14        	rol	$14                     ; 0x14 <__rc4>
     81f: 0a           	asl
     820: 26 14        	rol	$14                     ; 0x14 <__rc4>
     822: 0a           	asl
     823: 85 15        	sta	$15                     ; 0x15 <__rc5>
     825: 26 14        	rol	$14                     ; 0x14 <__rc4>
     827: 0a           	asl
     828: a6 14        	ldx	$14                     ; 0x14 <__rc4>
     82a: 86 16        	stx	$16                     ; 0x16 <__rc6>
     82c: 26 16        	rol	$16                     ; 0x16 <__rc6>
     82e: 0a           	asl
     82f: 26 16        	rol	$16                     ; 0x16 <__rc6>
     831: 0a           	asl
     832: 26 16        	rol	$16                     ; 0x16 <__rc6>
     834: 0a           	asl
     835: 26 16        	rol	$16                     ; 0x16 <__rc6>
     837: 38           	sec
     838: e5 15        	sbc	$15                     ; 0x15 <__rc5>
     83a: 85 15        	sta	$15                     ; 0x15 <__rc5>
     83c: a5 16        	lda	$16                     ; 0x16 <__rc6>
     83e: e5 14        	sbc	$14                     ; 0x14 <__rc4>
     840: 85 14        	sta	$14                     ; 0x14 <__rc4>
     842: a9 30        	lda	#$30
     844: 18           	clc
     845: a2 00        	ldx	#$0
     847: 86 66        	stx	$66                     ; 0x66 <__rc31+0x37>
     849: 65 15        	adc	$15                     ; 0x15 <__rc5>
     84b: a8           	tay
     84c: a9 55        	lda	#$55
     84e: 65 14        	adc	$14                     ; 0x14 <__rc4>
     850: a2 77        	ldx	#$77
     852: 84 15        	sty	$15                     ; 0x15 <__rc5>
     854: 84 16        	sty	$16                     ; 0x16 <__rc6>
     856: 85 19        	sta	$19                     ; 0x19 <__rc9>
     858: 85 17        	sta	$17                     ; 0x17 <__rc7>
     85a: 64 18        	stz	$18                     ; 0x18 <__rc8>
     85c: 64 14        	stz	$14                     ; 0x14 <__rc4>
     85e: a4 18        	ldy	$18                     ; 0x18 <__rc8>
     860: b1 1e        	lda	($1e),y                 ; 0x1e <__rc14>
     862: 85 1a        	sta	$1a                     ; 0x1a <__rc10>
     864: b1 1e        	lda	($1e),y                 ; 0x1e <__rc14>
     866: 91 62        	sta	($62),y                 ; 0x62 <__rc31+0x33>
     868: a5 1a        	lda	$1a                     ; 0x1a <__rc10>
     86a: f0 12        	beq	$87e <readDirectory+0x2e1>
     86c: ca           	dex
     86d: e0 ff        	cpx	#$ff
     86f: d0 02        	bne	$873 <readDirectory+0x2d6>
     871: c6 14        	dec	$14                     ; 0x14 <__rc4>
     873: e6 18        	inc	$18                     ; 0x18 <__rc8>
     875: a5 14        	lda	$14                     ; 0x14 <__rc4>
     877: d0 e5        	bne	$85e <readDirectory+0x2c1>
     879: 8a           	txa
     87a: d0 e2        	bne	$85e <readDirectory+0x2c1>
     87c: 80 52        	bra	$8d0 <readDirectory+0x333>
     87e: ca           	dex
     87f: e0 ff        	cpx	#$ff
     881: d0 02        	bne	$885 <readDirectory+0x2e8>
     883: c6 14        	dec	$14                     ; 0x14 <__rc4>
     885: a5 14        	lda	$14                     ; 0x14 <__rc4>
     887: d0 03        	bne	$88c <readDirectory+0x2ef>
     889: 8a           	txa
     88a: f0 44        	beq	$8d0 <readDirectory+0x333>
     88c: 18           	clc
     88d: a0 00        	ldy	#$0
     88f: 84 66        	sty	$66                     ; 0x66 <__rc31+0x37>
     891: a5 15        	lda	$15                     ; 0x15 <__rc5>
     893: 65 18        	adc	$18                     ; 0x18 <__rc8>
     895: 85 18        	sta	$18                     ; 0x18 <__rc8>
     897: a5 19        	lda	$19                     ; 0x19 <__rc9>
     899: 69 00        	adc	#$0
     89b: 85 19        	sta	$19                     ; 0x19 <__rc9>
     89d: e6 18        	inc	$18                     ; 0x18 <__rc8>
     89f: d0 02        	bne	$8a3 <readDirectory+0x306>
     8a1: e6 19        	inc	$19                     ; 0x19 <__rc9>
     8a3: a4 12        	ldy	$12                     ; 0x12 <__rc2>
     8a5: 84 6e        	sty	$6e                     ; 0x6e <__rc31+0x3f>
     8a7: a4 13        	ldy	$13                     ; 0x13 <__rc3>
     8a9: 84 6f        	sty	$6f                     ; 0x6f <__rc31+0x40>
     8ab: a4 18        	ldy	$18                     ; 0x18 <__rc8>
     8ad: 84 12        	sty	$12                     ; 0x12 <__rc2>
     8af: a4 19        	ldy	$19                     ; 0x19 <__rc9>
     8b1: 84 13        	sty	$13                     ; 0x13 <__rc3>
     8b3: a9 00        	lda	#$0
     8b5: a4 16        	ldy	$16                     ; 0x16 <__rc6>
     8b7: 84 70        	sty	$70                     ; 0x70 <__rc31+0x41>
     8b9: a4 17        	ldy	$17                     ; 0x17 <__rc7>
     8bb: 84 71        	sty	$71                     ; 0x71 <__rc31+0x42>
     8bd: 20 6b 4e     	jsr	$4e6b <__memset>
     8c0: a6 70        	ldx	$70                     ; 0x70 <__rc31+0x41>
     8c2: 86 16        	stx	$16                     ; 0x16 <__rc6>
     8c4: a6 71        	ldx	$71                     ; 0x71 <__rc31+0x42>
     8c6: 86 17        	stx	$17                     ; 0x17 <__rc7>
     8c8: a6 6e        	ldx	$6e                     ; 0x6e <__rc31+0x3f>
     8ca: 86 12        	stx	$12                     ; 0x12 <__rc2>
     8cc: a6 6f        	ldx	$6f                     ; 0x6f <__rc31+0x40>
     8ce: 86 13        	stx	$13                     ; 0x13 <__rc3>
     8d0: a9 00        	lda	#$0
     8d2: a0 77        	ldy	#$77
     8d4: 91 16        	sta	($16),y                 ; 0x16 <__rc6>
     8d6: a0 01        	ldy	#$1
     8d8: b1 12        	lda	($12),y                 ; 0x12 <__rc2>
     8da: a2 01        	ldx	#$1
     8dc: c9 01        	cmp	#$1
     8de: f0 02        	beq	$8e2 <readDirectory+0x345>
     8e0: a2 00        	ldx	#$0
     8e2: 98           	tya
     8e3: a4 6a        	ldy	$6a                     ; 0x6a <__rc31+0x3b>
     8e5: e0 00        	cpx	#$0
     8e7: d0 02        	bne	$8eb <readDirectory+0x34e>
     8e9: a9 00        	lda	#$0
     8eb: 99 11 84     	sta	$8411,y                 ; 0x8411 <fpr+0x2f97>
     8ee: a5 62        	lda	$62                     ; 0x62 <__rc31+0x33>
     8f0: 18           	clc
     8f1: 69 78        	adc	#$78
     8f3: 85 62        	sta	$62                     ; 0x62 <__rc31+0x33>
     8f5: a5 63        	lda	$63                     ; 0x63 <__rc31+0x34>
     8f7: 69 00        	adc	#$0
     8f9: 85 63        	sta	$63                     ; 0x63 <__rc31+0x34>
     8fb: e6 68        	inc	$68                     ; 0x68 <__rc31+0x39>
     8fd: d0 02        	bne	$901 <readDirectory+0x364>
     8ff: e6 69        	inc	$69                     ; 0x69 <__rc31+0x3a>
     901: c8           	iny
     902: 84 6a        	sty	$6a                     ; 0x6a <__rc31+0x3b>
     904: a5 69        	lda	$69                     ; 0x69 <__rc31+0x3a>
     906: f0 03        	beq	$90b <readDirectory+0x36e>
     908: 4c ec 05     	jmp	$5ec <readDirectory+0x4f>
     90b: a6 68        	ldx	$68                     ; 0x68 <__rc31+0x39>
     90d: e0 64        	cpx	#$64
     90f: 4c f0 05     	jmp	$5f0 <readDirectory+0x53>
     912: a6 68        	ldx	$68                     ; 0x68 <__rc31+0x39>
     914: 8e 74 84     	stx	$8474                   ; 0x8474 <fpr+0x2ffa>
     917: a6 69        	ldx	$69                     ; 0x69 <__rc31+0x3a>
     919: 8e 75 84     	stx	$8475                   ; 0x8475 <fpr+0x2ffb>
     91c: a2 30        	ldx	#$30
     91e: 86 12        	stx	$12                     ; 0x12 <__rc2>
     920: a2 55        	ldx	#$55
     922: 86 13        	stx	$13                     ; 0x13 <__rc3>
     924: a2 8a        	ldx	#$8a
     926: 86 14        	stx	$14                     ; 0x14 <__rc4>
     928: a2 52        	ldx	#$52
     92a: 86 15        	stx	$15                     ; 0x15 <__rc5>
     92c: a9 78        	lda	#$78
     92e: a2 00        	ldx	#$0
     930: 20 3f 4e     	jsr	$4e3f <memcpy>
     933: a6 60        	ldx	$60                     ; 0x60 <__rc31+0x31>
     935: 86 12        	stx	$12                     ; 0x12 <__rc2>
     937: a6 61        	ldx	$61                     ; 0x61 <__rc31+0x32>
     939: 86 13        	stx	$13                     ; 0x13 <__rc3>
     93b: 20 de 37     	jsr	$37de <fileCloseDir>
     93e: 60           	rts

0000093f <sortFileList>:
     93f: a6 30        	ldx	$30                     ; 0x30 <__zp_data_start>
     941: 8e 30 55     	stx	$5530                   ; 0x5530 <fpr+0xb6>
     944: a6 31        	ldx	$31                     ; 0x31 <__zp_data_start+0x1>
     946: 8e 31 55     	stx	$5531                   ; 0x5531 <fpr+0xb7>
     949: a6 32        	ldx	$32                     ; 0x32 <__zp_data_start+0x2>
     94b: 8e 32 55     	stx	$5532                   ; 0x5532 <fpr+0xb8>
     94e: a2 01        	ldx	#$1
     950: 8e 10 84     	stx	$8410                   ; 0x8410 <fpr+0x2f96>
     953: ae 74 84     	ldx	$8474                   ; 0x8474 <fpr+0x2ffa>
     956: ad 75 84     	lda	$8475                   ; 0x8475 <fpr+0x2ffb>
     959: 86 65        	stx	$65                     ; 0x65 <__rc31+0x36>
     95b: e0 03        	cpx	#$3
     95d: 85 66        	sta	$66                     ; 0x66 <__rc31+0x37>
     95f: e9 00        	sbc	#$0
     961: 50 02        	bvc	$965 <sortFileList+0x26>
     963: 49 80        	eor	#$80
     965: aa           	tax
     966: 10 03        	bpl	$96b <sortFileList+0x2c>
     968: 4c 5b 0c     	jmp	$c5b <sortFileList+0x31c>
     96b: a2 0c        	ldx	#$c
     96d: a0 86        	ldy	#$86
     96f: 86 12        	stx	$12                     ; 0x12 <__rc2>
     971: 84 13        	sty	$13                     ; 0x13 <__rc3>
     973: e6 12        	inc	$12                     ; 0x12 <__rc2>
     975: d0 02        	bne	$979 <sortFileList+0x3a>
     977: e6 13        	inc	$13                     ; 0x13 <__rc3>
     979: a6 12        	ldx	$12                     ; 0x12 <__rc2>
     97b: 86 6c        	stx	$6c                     ; 0x6c <__rc31+0x3d>
     97d: a6 13        	ldx	$13                     ; 0x13 <__rc3>
     97f: 86 6d        	stx	$6d                     ; 0x6d <__rc31+0x3e>
     981: a2 01        	ldx	#$1
     983: 64 14        	stz	$14                     ; 0x14 <__rc4>
     985: 86 15        	stx	$15                     ; 0x15 <__rc5>
     987: 4c 28 0c     	jmp	$c28 <sortFileList+0x2e9>
     98a: a4 67        	ldy	$67                     ; 0x67 <__rc31+0x38>
     98c: c4 23        	cpy	$23                     ; 0x23 <__rc19>
     98e: f0 03        	beq	$993 <sortFileList+0x54>
     990: 4c 1a 0a     	jmp	$a1a <sortFileList+0xdb>
     993: 86 13        	stx	$13                     ; 0x13 <__rc3>
     995: a5 68        	lda	$68                     ; 0x68 <__rc31+0x39>
     997: 38           	sec
     998: e5 1b        	sbc	$1b                     ; 0x1b <__rc11>
     99a: 85 23        	sta	$23                     ; 0x23 <__rc19>
     99c: a5 69        	lda	$69                     ; 0x69 <__rc31+0x3a>
     99e: e5 1e        	sbc	$1e                     ; 0x1e <__rc14>
     9a0: 85 60        	sta	$60                     ; 0x60 <__rc31+0x31>
     9a2: a9 30        	lda	#$30
     9a4: a2 00        	ldx	#$0
     9a6: 18           	clc
     9a7: 65 23        	adc	$23                     ; 0x23 <__rc19>
     9a9: 85 62        	sta	$62                     ; 0x62 <__rc31+0x33>
     9ab: a9 55        	lda	#$55
     9ad: 65 60        	adc	$60                     ; 0x60 <__rc31+0x31>
     9af: 85 63        	sta	$63                     ; 0x63 <__rc31+0x34>
     9b1: a5 6b        	lda	$6b                     ; 0x6b <__rc31+0x3c>
     9b3: 38           	sec
     9b4: e5 1f        	sbc	$1f                     ; 0x1f <__rc15>
     9b6: 85 23        	sta	$23                     ; 0x23 <__rc19>
     9b8: a5 6a        	lda	$6a                     ; 0x6a <__rc31+0x3b>
     9ba: e5 22        	sbc	$22                     ; 0x22 <__rc18>
     9bc: 85 60        	sta	$60                     ; 0x60 <__rc31+0x31>
     9be: a9 30        	lda	#$30
     9c0: 18           	clc
     9c1: 65 23        	adc	$23                     ; 0x23 <__rc19>
     9c3: aa           	tax
     9c4: a9 55        	lda	#$55
     9c6: 65 60        	adc	$60                     ; 0x60 <__rc31+0x31>
     9c8: 86 60        	stx	$60                     ; 0x60 <__rc31+0x31>
     9ca: 85 61        	sta	$61                     ; 0x61 <__rc31+0x32>
     9cc: b2 62        	lda	($62)                   ; 0x62 <__rc31+0x33>
     9ce: a4 64        	ldy	$64                     ; 0x64 <__rc31+0x35>
     9d0: aa           	tax
     9d1: f0 4e        	beq	$a21 <sortFileList+0xe2>
     9d3: 85 12        	sta	$12                     ; 0x12 <__rc2>
     9d5: 85 23        	sta	$23                     ; 0x23 <__rc19>
     9d7: b2 60        	lda	($60)                   ; 0x60 <__rc31+0x31>
     9d9: f0 4c        	beq	$a27 <sortFileList+0xe8>
     9db: 85 62        	sta	$62                     ; 0x62 <__rc31+0x33>
     9dd: a6 23        	ldx	$23                     ; 0x23 <__rc19>
     9df: e0 41        	cpx	#$41
     9e1: 90 0a        	bcc	$9ed <sortFileList+0xae>
     9e3: a5 23        	lda	$23                     ; 0x23 <__rc19>
     9e5: c9 5b        	cmp	#$5b
     9e7: b0 04        	bcs	$9ed <sortFileList+0xae>
     9e9: 09 20        	ora	#$20
     9eb: 85 23        	sta	$23                     ; 0x23 <__rc19>
     9ed: a5 62        	lda	$62                     ; 0x62 <__rc31+0x33>
     9ef: c9 41        	cmp	#$41
     9f1: 90 06        	bcc	$9f9 <sortFileList+0xba>
     9f3: c9 5b        	cmp	#$5b
     9f5: b0 02        	bcs	$9f9 <sortFileList+0xba>
     9f7: 09 20        	ora	#$20
     9f9: 85 62        	sta	$62                     ; 0x62 <__rc31+0x33>
     9fb: a6 23        	ldx	$23                     ; 0x23 <__rc19>
     9fd: e4 62        	cpx	$62                     ; 0x62 <__rc31+0x33>
     9ff: d0 40        	bne	$a41 <sortFileList+0x102>
     a01: a5 60        	lda	$60                     ; 0x60 <__rc31+0x31>
     a03: 18           	clc
     a04: 69 89        	adc	#$89
     a06: 85 62        	sta	$62                     ; 0x62 <__rc31+0x33>
     a08: a5 61        	lda	$61                     ; 0x61 <__rc31+0x32>
     a0a: 69 ff        	adc	#$ff
     a0c: 85 63        	sta	$63                     ; 0x63 <__rc31+0x34>
     a0e: e6 60        	inc	$60                     ; 0x60 <__rc31+0x31>
     a10: d0 02        	bne	$a14 <sortFileList+0xd5>
     a12: e6 61        	inc	$61                     ; 0x61 <__rc31+0x32>
     a14: b2 62        	lda	($62)                   ; 0x62 <__rc31+0x33>
     a16: d0 bd        	bne	$9d5 <sortFileList+0x96>
     a18: 80 09        	bra	$a23 <sortFileList+0xe4>
     a1a: a4 23        	ldy	$23                     ; 0x23 <__rc19>
     a1c: 84 67        	sty	$67                     ; 0x67 <__rc31+0x38>
     a1e: 4c 1c 0b     	jmp	$b1c <sortFileList+0x1dd>
     a21: 85 12        	sta	$12                     ; 0x12 <__rc2>
     a23: 64 23        	stz	$23                     ; 0x23 <__rc19>
     a25: 80 0e        	bra	$a35 <sortFileList+0xf6>
     a27: a5 23        	lda	$23                     ; 0x23 <__rc19>
     a29: c9 41        	cmp	#$41
     a2b: 90 06        	bcc	$a33 <sortFileList+0xf4>
     a2d: c9 5b        	cmp	#$5b
     a2f: b0 02        	bcs	$a33 <sortFileList+0xf4>
     a31: 09 20        	ora	#$20
     a33: 85 23        	sta	$23                     ; 0x23 <__rc19>
     a35: b2 60        	lda	($60)                   ; 0x60 <__rc31+0x31>
     a37: c9 41        	cmp	#$41
     a39: 90 06        	bcc	$a41 <sortFileList+0x102>
     a3b: c9 5b        	cmp	#$5b
     a3d: b0 02        	bcs	$a41 <sortFileList+0x102>
     a3f: 09 20        	ora	#$20
     a41: c5 23        	cmp	$23                     ; 0x23 <__rc19>
     a43: a6 13        	ldx	$13                     ; 0x13 <__rc3>
     a45: 90 03        	bcc	$a4a <sortFileList+0x10b>
     a47: 4c 1c 0b     	jmp	$b1c <sortFileList+0x1dd>
     a4a: 38           	sec
     a4b: a5 68        	lda	$68                     ; 0x68 <__rc31+0x39>
     a4d: e5 1b        	sbc	$1b                     ; 0x1b <__rc11>
     a4f: 85 1b        	sta	$1b                     ; 0x1b <__rc11>
     a51: a5 69        	lda	$69                     ; 0x69 <__rc31+0x3a>
     a53: e5 1e        	sbc	$1e                     ; 0x1e <__rc14>
     a55: 85 1e        	sta	$1e                     ; 0x1e <__rc14>
     a57: a9 30        	lda	#$30
     a59: 18           	clc
     a5a: 65 1b        	adc	$1b                     ; 0x1b <__rc11>
     a5c: 85 60        	sta	$60                     ; 0x60 <__rc31+0x31>
     a5e: a9 55        	lda	#$55
     a60: 65 1e        	adc	$1e                     ; 0x1e <__rc14>
     a62: 85 61        	sta	$61                     ; 0x61 <__rc31+0x32>
     a64: a5 12        	lda	$12                     ; 0x12 <__rc2>
     a66: f0 28        	beq	$a90 <sortFileList+0x151>
     a68: a5 16        	lda	$16                     ; 0x16 <__rc6>
     a6a: 85 62        	sta	$62                     ; 0x62 <__rc31+0x33>
     a6c: a5 17        	lda	$17                     ; 0x17 <__rc7>
     a6e: 85 63        	sta	$63                     ; 0x63 <__rc31+0x34>
     a70: a5 6c        	lda	$6c                     ; 0x6c <__rc31+0x3d>
     a72: 85 64        	sta	$64                     ; 0x64 <__rc31+0x35>
     a74: a5 6d        	lda	$6d                     ; 0x6d <__rc31+0x3e>
     a76: 85 65        	sta	$65                     ; 0x65 <__rc31+0x36>
     a78: b2 62        	lda	($62)                   ; 0x62 <__rc31+0x33>
     a7a: 85 13        	sta	$13                     ; 0x13 <__rc3>
     a7c: b2 62        	lda	($62)                   ; 0x62 <__rc31+0x33>
     a7e: 92 64        	sta	($64)                   ; 0x64 <__rc31+0x35>
     a80: e6 64        	inc	$64                     ; 0x64 <__rc31+0x35>
     a82: d0 02        	bne	$a86 <sortFileList+0x147>
     a84: e6 65        	inc	$65                     ; 0x65 <__rc31+0x36>
     a86: e6 62        	inc	$62                     ; 0x62 <__rc31+0x33>
     a88: d0 02        	bne	$a8c <sortFileList+0x14d>
     a8a: e6 63        	inc	$63                     ; 0x63 <__rc31+0x34>
     a8c: a5 13        	lda	$13                     ; 0x13 <__rc3>
     a8e: d0 e8        	bne	$a78 <sortFileList+0x139>
     a90: 38           	sec
     a91: a5 6b        	lda	$6b                     ; 0x6b <__rc31+0x3c>
     a93: e5 1f        	sbc	$1f                     ; 0x1f <__rc15>
     a95: 85 1b        	sta	$1b                     ; 0x1b <__rc11>
     a97: a5 6a        	lda	$6a                     ; 0x6a <__rc31+0x3b>
     a99: e5 22        	sbc	$22                     ; 0x22 <__rc18>
     a9b: 85 1e        	sta	$1e                     ; 0x1e <__rc14>
     a9d: a9 30        	lda	#$30
     a9f: 18           	clc
     aa0: 65 1b        	adc	$1b                     ; 0x1b <__rc11>
     aa2: 85 13        	sta	$13                     ; 0x13 <__rc3>
     aa4: a9 55        	lda	#$55
     aa6: 65 1e        	adc	$1e                     ; 0x1e <__rc14>
     aa8: 5a           	phy
     aa9: a4 13        	ldy	$13                     ; 0x13 <__rc3>
     aab: 84 1e        	sty	$1e                     ; 0x1e <__rc14>
     aad: 7a           	ply
     aae: 85 1f        	sta	$1f                     ; 0x1f <__rc15>
     ab0: b2 1e        	lda	($1e)                   ; 0x1e <__rc14>
     ab2: 85 13        	sta	$13                     ; 0x13 <__rc3>
     ab4: b2 1e        	lda	($1e)                   ; 0x1e <__rc14>
     ab6: 92 60        	sta	($60)                   ; 0x60 <__rc31+0x31>
     ab8: a5 13        	lda	$13                     ; 0x13 <__rc3>
     aba: f0 1a        	beq	$ad6 <sortFileList+0x197>
     abc: a5 16        	lda	$16                     ; 0x16 <__rc6>
     abe: 85 22        	sta	$22                     ; 0x22 <__rc18>
     ac0: a5 17        	lda	$17                     ; 0x17 <__rc7>
     ac2: 85 23        	sta	$23                     ; 0x23 <__rc19>
     ac4: b1 22        	lda	($22),y                 ; 0x22 <__rc18>
     ac6: 85 13        	sta	$13                     ; 0x13 <__rc3>
     ac8: b1 22        	lda	($22),y                 ; 0x22 <__rc18>
     aca: 92 22        	sta	($22)                   ; 0x22 <__rc18>
     acc: e6 22        	inc	$22                     ; 0x22 <__rc18>
     ace: d0 02        	bne	$ad2 <sortFileList+0x193>
     ad0: e6 23        	inc	$23                     ; 0x23 <__rc19>
     ad2: a5 13        	lda	$13                     ; 0x13 <__rc3>
     ad4: d0 ee        	bne	$ac4 <sortFileList+0x185>
     ad6: a5 12        	lda	$12                     ; 0x12 <__rc2>
     ad8: 92 1e        	sta	($1e)                   ; 0x1e <__rc14>
     ada: f0 26        	beq	$b02 <sortFileList+0x1c3>
     adc: a4 6c        	ldy	$6c                     ; 0x6c <__rc31+0x3d>
     ade: 84 1e        	sty	$1e                     ; 0x1e <__rc14>
     ae0: a4 6d        	ldy	$6d                     ; 0x6d <__rc31+0x3e>
     ae2: 84 1f        	sty	$1f                     ; 0x1f <__rc15>
     ae4: a4 18        	ldy	$18                     ; 0x18 <__rc8>
     ae6: 84 22        	sty	$22                     ; 0x22 <__rc18>
     ae8: a4 19        	ldy	$19                     ; 0x19 <__rc9>
     aea: 84 23        	sty	$23                     ; 0x23 <__rc19>
     aec: b2 1e        	lda	($1e)                   ; 0x1e <__rc14>
     aee: a8           	tay
     aef: b2 1e        	lda	($1e)                   ; 0x1e <__rc14>
     af1: 92 22        	sta	($22)                   ; 0x22 <__rc18>
     af3: e6 22        	inc	$22                     ; 0x22 <__rc18>
     af5: d0 02        	bne	$af9 <sortFileList+0x1ba>
     af7: e6 23        	inc	$23                     ; 0x23 <__rc19>
     af9: e6 1e        	inc	$1e                     ; 0x1e <__rc14>
     afb: d0 02        	bne	$aff <sortFileList+0x1c0>
     afd: e6 1f        	inc	$1f                     ; 0x1f <__rc15>
     aff: 98           	tya
     b00: d0 ea        	bne	$aec <sortFileList+0x1ad>
     b02: b2 1c        	lda	($1c)                   ; 0x1c <__rc12>
     b04: 85 12        	sta	$12                     ; 0x12 <__rc2>
     b06: a0 01        	ldy	#$1
     b08: b1 1c        	lda	($1c),y                 ; 0x1c <__rc12>
     b0a: 92 1c        	sta	($1c)                   ; 0x1c <__rc12>
     b0c: a5 12        	lda	$12                     ; 0x12 <__rc2>
     b0e: 85 67        	sta	$67                     ; 0x67 <__rc31+0x38>
     b10: 91 1c        	sta	($1c),y                 ; 0x1c <__rc12>
     b12: ac 74 84     	ldy	$8474                   ; 0x8474 <fpr+0x2ffa>
     b15: 84 65        	sty	$65                     ; 0x65 <__rc31+0x36>
     b17: ac 75 84     	ldy	$8475                   ; 0x8475 <fpr+0x2ffb>
     b1a: 84 66        	sty	$66                     ; 0x66 <__rc31+0x37>
     b1c: a5 65        	lda	$65                     ; 0x65 <__rc31+0x36>
     b1e: 38           	sec
     b1f: e5 15        	sbc	$15                     ; 0x15 <__rc5>
     b21: 85 1b        	sta	$1b                     ; 0x1b <__rc11>
     b23: a5 66        	lda	$66                     ; 0x66 <__rc31+0x37>
     b25: e5 14        	sbc	$14                     ; 0x14 <__rc4>
     b27: 85 1c        	sta	$1c                     ; 0x1c <__rc12>
     b29: e4 1b        	cpx	$1b                     ; 0x1b <__rc11>
     b2b: a5 1a        	lda	$1a                     ; 0x1a <__rc10>
     b2d: e5 1c        	sbc	$1c                     ; 0x1c <__rc12>
     b2f: 50 02        	bvc	$b33 <sortFileList+0x1f4>
     b31: 49 80        	eor	#$80
     b33: a8           	tay
     b34: a5 16        	lda	$16                     ; 0x16 <__rc6>
     b36: 18           	clc
     b37: 69 78        	adc	#$78
     b39: 85 16        	sta	$16                     ; 0x16 <__rc6>
     b3b: a5 17        	lda	$17                     ; 0x17 <__rc7>
     b3d: 69 00        	adc	#$0
     b3f: 85 17        	sta	$17                     ; 0x17 <__rc7>
     b41: a5 18        	lda	$18                     ; 0x18 <__rc8>
     b43: 18           	clc
     b44: 69 78        	adc	#$78
     b46: 85 18        	sta	$18                     ; 0x18 <__rc8>
     b48: a5 19        	lda	$19                     ; 0x19 <__rc9>
     b4a: 69 00        	adc	#$0
     b4c: 85 19        	sta	$19                     ; 0x19 <__rc9>
     b4e: 86 1e        	stx	$1e                     ; 0x1e <__rc14>
     b50: a6 1a        	ldx	$1a                     ; 0x1a <__rc10>
     b52: 86 1b        	stx	$1b                     ; 0x1b <__rc11>
     b54: 98           	tya
     b55: 30 03        	bmi	$b5a <sortFileList+0x21b>
     b57: 4c 01 0c     	jmp	$c01 <sortFileList+0x2c2>
     b5a: a2 78        	ldx	#$78
     b5c: 86 64        	stx	$64                     ; 0x64 <__rc31+0x35>
     b5e: a9 10        	lda	#$10
     b60: 18           	clc
     b61: 65 1e        	adc	$1e                     ; 0x1e <__rc14>
     b63: 85 1c        	sta	$1c                     ; 0x1c <__rc12>
     b65: a9 84        	lda	#$84
     b67: 65 1b        	adc	$1b                     ; 0x1b <__rc11>
     b69: 85 1d        	sta	$1d                     ; 0x1d <__rc13>
     b6b: a6 1e        	ldx	$1e                     ; 0x1e <__rc14>
     b6d: a4 1b        	ldy	$1b                     ; 0x1b <__rc11>
     b6f: 84 1a        	sty	$1a                     ; 0x1a <__rc10>
     b71: e8           	inx
     b72: d0 02        	bne	$b76 <sortFileList+0x237>
     b74: e6 1a        	inc	$1a                     ; 0x1a <__rc10>
     b76: a5 1e        	lda	$1e                     ; 0x1e <__rc14>
     b78: 0a           	asl
     b79: a4 1b        	ldy	$1b                     ; 0x1b <__rc11>
     b7b: 84 1e        	sty	$1e                     ; 0x1e <__rc14>
     b7d: 26 1e        	rol	$1e                     ; 0x1e <__rc14>
     b7f: 0a           	asl
     b80: 26 1e        	rol	$1e                     ; 0x1e <__rc14>
     b82: 0a           	asl
     b83: 85 1b        	sta	$1b                     ; 0x1b <__rc11>
     b85: 26 1e        	rol	$1e                     ; 0x1e <__rc14>
     b87: 0a           	asl
     b88: a4 1e        	ldy	$1e                     ; 0x1e <__rc14>
     b8a: 84 1f        	sty	$1f                     ; 0x1f <__rc15>
     b8c: 26 1f        	rol	$1f                     ; 0x1f <__rc15>
     b8e: 0a           	asl
     b8f: 26 1f        	rol	$1f                     ; 0x1f <__rc15>
     b91: 0a           	asl
     b92: 26 1f        	rol	$1f                     ; 0x1f <__rc15>
     b94: 0a           	asl
     b95: 85 68        	sta	$68                     ; 0x68 <__rc31+0x39>
     b97: 26 1f        	rol	$1f                     ; 0x1f <__rc15>
     b99: a4 1f        	ldy	$1f                     ; 0x1f <__rc15>
     b9b: 84 69        	sty	$69                     ; 0x69 <__rc31+0x3a>
     b9d: 8a           	txa
     b9e: 0a           	asl
     b9f: a4 1a        	ldy	$1a                     ; 0x1a <__rc10>
     ba1: 84 22        	sty	$22                     ; 0x22 <__rc18>
     ba3: 26 22        	rol	$22                     ; 0x22 <__rc18>
     ba5: 0a           	asl
     ba6: 26 22        	rol	$22                     ; 0x22 <__rc18>
     ba8: 0a           	asl
     ba9: 85 1f        	sta	$1f                     ; 0x1f <__rc15>
     bab: 26 22        	rol	$22                     ; 0x22 <__rc18>
     bad: 85 23        	sta	$23                     ; 0x23 <__rc19>
     baf: 06 23        	asl	$23                     ; 0x23 <__rc19>
     bb1: a5 22        	lda	$22                     ; 0x22 <__rc18>
     bb3: 2a           	rol
     bb4: 06 23        	asl	$23                     ; 0x23 <__rc19>
     bb6: 2a           	rol
     bb7: 06 23        	asl	$23                     ; 0x23 <__rc19>
     bb9: 2a           	rol
     bba: 06 23        	asl	$23                     ; 0x23 <__rc19>
     bbc: a4 23        	ldy	$23                     ; 0x23 <__rc19>
     bbe: 84 6b        	sty	$6b                     ; 0x6b <__rc31+0x3c>
     bc0: 2a           	rol
     bc1: 85 6a        	sta	$6a                     ; 0x6a <__rc31+0x3b>
     bc3: a5 67        	lda	$67                     ; 0x67 <__rc31+0x38>
     bc5: 29 01        	and	#$1
     bc7: 85 13        	sta	$13                     ; 0x13 <__rc3>
     bc9: a0 01        	ldy	#$1
     bcb: b1 1c        	lda	($1c),y                 ; 0x1c <__rc12>
     bcd: 85 23        	sta	$23                     ; 0x23 <__rc19>
     bcf: a4 13        	ldy	$13                     ; 0x13 <__rc3>
     bd1: f0 03        	beq	$bd6 <sortFileList+0x297>
     bd3: 4c 8a 09     	jmp	$98a <sortFileList+0x4b>
     bd6: 29 01        	and	#$1
     bd8: d0 03        	bne	$bdd <sortFileList+0x29e>
     bda: 4c 8a 09     	jmp	$98a <sortFileList+0x4b>
     bdd: a5 68        	lda	$68                     ; 0x68 <__rc31+0x39>
     bdf: 38           	sec
     be0: e5 1b        	sbc	$1b                     ; 0x1b <__rc11>
     be2: 85 23        	sta	$23                     ; 0x23 <__rc19>
     be4: a5 69        	lda	$69                     ; 0x69 <__rc31+0x3a>
     be6: e5 1e        	sbc	$1e                     ; 0x1e <__rc14>
     be8: 85 60        	sta	$60                     ; 0x60 <__rc31+0x31>
     bea: a9 30        	lda	#$30
     bec: 18           	clc
     bed: 65 23        	adc	$23                     ; 0x23 <__rc19>
     bef: a8           	tay
     bf0: a9 55        	lda	#$55
     bf2: 65 60        	adc	$60                     ; 0x60 <__rc31+0x31>
     bf4: 84 60        	sty	$60                     ; 0x60 <__rc31+0x31>
     bf6: 85 61        	sta	$61                     ; 0x61 <__rc31+0x32>
     bf8: b2 60        	lda	($60)                   ; 0x60 <__rc31+0x31>
     bfa: 85 12        	sta	$12                     ; 0x12 <__rc2>
     bfc: a4 64        	ldy	$64                     ; 0x64 <__rc31+0x35>
     bfe: 4c 4a 0a     	jmp	$a4a <sortFileList+0x10b>
     c01: a6 15        	ldx	$15                     ; 0x15 <__rc5>
     c03: e8           	inx
     c04: d0 02        	bne	$c08 <sortFileList+0x2c9>
     c06: e6 14        	inc	$14                     ; 0x14 <__rc4>
     c08: da           	phx
     c09: 7a           	ply
     c0a: a5 65        	lda	$65                     ; 0x65 <__rc31+0x36>
     c0c: a6 66        	ldx	$66                     ; 0x66 <__rc31+0x37>
     c0e: 86 15        	stx	$15                     ; 0x15 <__rc5>
     c10: 3a           	dec
     c11: c9 ff        	cmp	#$ff
     c13: d0 02        	bne	$c17 <sortFileList+0x2d8>
     c15: c6 15        	dec	$15                     ; 0x15 <__rc5>
     c17: 85 16        	sta	$16                     ; 0x16 <__rc6>
     c19: c4 16        	cpy	$16                     ; 0x16 <__rc6>
     c1b: a5 14        	lda	$14                     ; 0x14 <__rc4>
     c1d: e5 15        	sbc	$15                     ; 0x15 <__rc5>
     c1f: 50 02        	bvc	$c23 <sortFileList+0x2e4>
     c21: 49 80        	eor	#$80
     c23: 84 15        	sty	$15                     ; 0x15 <__rc5>
     c25: aa           	tax
     c26: 10 33        	bpl	$c5b <sortFileList+0x31c>
     c28: a5 65        	lda	$65                     ; 0x65 <__rc31+0x36>
     c2a: 38           	sec
     c2b: e5 15        	sbc	$15                     ; 0x15 <__rc5>
     c2d: aa           	tax
     c2e: a5 66        	lda	$66                     ; 0x66 <__rc31+0x37>
     c30: e5 14        	sbc	$14                     ; 0x14 <__rc4>
     c32: e0 02        	cpx	#$2
     c34: e9 00        	sbc	#$0
     c36: 50 02        	bvc	$c3a <sortFileList+0x2fb>
     c38: 49 80        	eor	#$80
     c3a: aa           	tax
     c3b: 30 c4        	bmi	$c01 <sortFileList+0x2c2>
     c3d: ae 11 84     	ldx	$8411                   ; 0x8411 <fpr+0x2f97>
     c40: 86 67        	stx	$67                     ; 0x67 <__rc31+0x38>
     c42: a2 a9        	ldx	#$a9
     c44: 86 16        	stx	$16                     ; 0x16 <__rc6>
     c46: a2 55        	ldx	#$55
     c48: 86 17        	stx	$17                     ; 0x17 <__rc7>
     c4a: a2 21        	ldx	#$21
     c4c: 86 18        	stx	$18                     ; 0x18 <__rc8>
     c4e: a2 56        	ldx	#$56
     c50: 86 19        	stx	$19                     ; 0x19 <__rc9>
     c52: a2 01        	ldx	#$1
     c54: 64 1b        	stz	$1b                     ; 0x1b <__rc11>
     c56: 86 1e        	stx	$1e                     ; 0x1e <__rc14>
     c58: 4c 5a 0b     	jmp	$b5a <sortFileList+0x21b>
     c5b: 60           	rts

00000c5c <displayFileList>:
     c5c: 48           	pha
     c5d: 18           	clc
     c5e: a5 10        	lda	$10                     ; 0x10 <__rc0>
     c60: 69 fa        	adc	#$fa
     c62: 85 10        	sta	$10                     ; 0x10 <__rc0>
     c64: a5 11        	lda	$11                     ; 0x11 <__rc1>
     c66: 69 ff        	adc	#$ff
     c68: 85 11        	sta	$11                     ; 0x11 <__rc1>
     c6a: 68           	pla
     c6b: 86 66        	stx	$66                     ; 0x66 <__rc31+0x37>
     c6d: a4 12        	ldy	$12                     ; 0x12 <__rc2>
     c6f: 84 60        	sty	$60                     ; 0x60 <__rc31+0x31>
     c71: a4 13        	ldy	$13                     ; 0x13 <__rc3>
     c73: 84 61        	sty	$61                     ; 0x61 <__rc31+0x32>
     c75: 85 64        	sta	$64                     ; 0x64 <__rc31+0x35>
     c77: 18           	clc
     c78: 85 72        	sta	$72                     ; 0x72 <__rc31+0x43>
     c7a: 69 10        	adc	#$10
     c7c: 85 13        	sta	$13                     ; 0x13 <__rc3>
     c7e: 8a           	txa
     c7f: 69 00        	adc	#$0
     c81: 85 14        	sta	$14                     ; 0x14 <__rc4>
     c83: a5 60        	lda	$60                     ; 0x60 <__rc31+0x31>
     c85: 18           	clc
     c86: 69 fa        	adc	#$fa
     c88: 85 62        	sta	$62                     ; 0x62 <__rc31+0x33>
     c8a: a5 61        	lda	$61                     ; 0x61 <__rc31+0x32>
     c8c: 69 2f        	adc	#$2f
     c8e: a4 66        	ldy	$66                     ; 0x66 <__rc31+0x37>
     c90: e6 64        	inc	$64                     ; 0x64 <__rc31+0x35>
     c92: d0 01        	bne	$c95 <displayFileList+0x39>
     c94: c8           	iny
     c95: 84 67        	sty	$67                     ; 0x67 <__rc31+0x38>
     c97: 85 63        	sta	$63                     ; 0x63 <__rc31+0x34>
     c99: a0 01        	ldy	#$1
     c9b: b1 62        	lda	($62),y                 ; 0x62 <__rc31+0x33>
     c9d: 85 12        	sta	$12                     ; 0x12 <__rc2>
     c9f: a5 13        	lda	$13                     ; 0x13 <__rc3>
     ca1: a4 13        	ldy	$13                     ; 0x13 <__rc3>
     ca3: 84 6c        	sty	$6c                     ; 0x6c <__rc31+0x3d>
     ca5: d2 62        	cmp	($62)                   ; 0x62 <__rc31+0x33>
     ca7: a5 14        	lda	$14                     ; 0x14 <__rc4>
     ca9: a4 14        	ldy	$14                     ; 0x14 <__rc4>
     cab: 84 6d        	sty	$6d                     ; 0x6d <__rc31+0x3e>
     cad: e5 12        	sbc	$12                     ; 0x12 <__rc2>
     caf: 50 02        	bvc	$cb3 <displayFileList+0x57>
     cb1: 49 80        	eor	#$80
     cb3: aa           	tax
     cb4: 30 08        	bmi	$cbe <displayFileList+0x62>
     cb6: b2 62        	lda	($62)                   ; 0x62 <__rc31+0x33>
     cb8: 85 6c        	sta	$6c                     ; 0x6c <__rc31+0x3d>
     cba: a6 12        	ldx	$12                     ; 0x12 <__rc2>
     cbc: 86 6d        	stx	$6d                     ; 0x6d <__rc31+0x3e>
     cbe: b2 60        	lda	($60)                   ; 0x60 <__rc31+0x31>
     cc0: 85 13        	sta	$13                     ; 0x13 <__rc3>
     cc2: a0 01        	ldy	#$1
     cc4: b1 60        	lda	($60),y                 ; 0x60 <__rc31+0x31>
     cc6: a2 01        	ldx	#$1
     cc8: 86 68        	stx	$68                     ; 0x68 <__rc31+0x39>
     cca: a6 13        	ldx	$13                     ; 0x13 <__rc3>
     ccc: 86 53        	stx	$53                     ; 0x53 <_col>
     cce: 8e 14 d0     	stx	$d014                   ; 0xd014 <end_block9+0x4990>
     cd1: 64 65        	stz	$65                     ; 0x65 <__rc31+0x36>
     cd3: 9c 15 d0     	stz	$d015                   ; 0xd015 <end_block9+0x4991>
     cd6: 85 54        	sta	$54                     ; 0x54 <_row>
     cd8: 8d 16 d0     	sta	$d016                   ; 0xd016 <end_block9+0x4992>
     cdb: 9c 17 d0     	stz	$d017                   ; 0xd017 <end_block9+0x4993>
     cde: a6 60        	ldx	$60                     ; 0x60 <__rc31+0x31>
     ce0: 86 12        	stx	$12                     ; 0x12 <__rc2>
     ce2: a6 61        	ldx	$61                     ; 0x61 <__rc31+0x32>
     ce4: 86 13        	stx	$13                     ; 0x13 <__rc3>
     ce6: 20 8d 1c     	jsr	$1c8d <wipeArea>
     ce9: b2 60        	lda	($60)                   ; 0x60 <__rc31+0x31>
     ceb: 85 12        	sta	$12                     ; 0x12 <__rc2>
     ced: a4 68        	ldy	$68                     ; 0x68 <__rc31+0x39>
     cef: b1 60        	lda	($60),y                 ; 0x60 <__rc31+0x31>
     cf1: aa           	tax
     cf2: a5 12        	lda	$12                     ; 0x12 <__rc2>
     cf4: 85 53        	sta	$53                     ; 0x53 <_col>
     cf6: 8d 14 d0     	sta	$d014                   ; 0xd014 <end_block9+0x4990>
     cf9: 9c 15 d0     	stz	$d015                   ; 0xd015 <end_block9+0x4991>
     cfc: 86 54        	stx	$54                     ; 0x54 <_row>
     cfe: 8e 16 d0     	stx	$d016                   ; 0xd016 <end_block9+0x4992>
     d01: 9c 17 d0     	stz	$d017                   ; 0xd017 <end_block9+0x4993>
     d04: a5 60        	lda	$60                     ; 0x60 <__rc31+0x31>
     d06: 18           	clc
     d07: 69 fe        	adc	#$fe
     d09: 85 14        	sta	$14                     ; 0x14 <__rc4>
     d0b: a5 61        	lda	$61                     ; 0x61 <__rc31+0x32>
     d0d: 69 2f        	adc	#$2f
     d0f: 85 15        	sta	$15                     ; 0x15 <__rc5>
     d11: b2 14        	lda	($14)                   ; 0x14 <__rc4>
     d13: 85 16        	sta	$16                     ; 0x16 <__rc6>
     d15: a6 14        	ldx	$14                     ; 0x14 <__rc4>
     d17: 86 12        	stx	$12                     ; 0x12 <__rc2>
     d19: a6 15        	ldx	$15                     ; 0x15 <__rc5>
     d1b: 86 13        	stx	$13                     ; 0x13 <__rc3>
     d1d: a6 12        	ldx	$12                     ; 0x12 <__rc2>
     d1f: 86 70        	stx	$70                     ; 0x70 <__rc31+0x41>
     d21: a6 13        	ldx	$13                     ; 0x13 <__rc3>
     d23: 86 71        	stx	$71                     ; 0x71 <__rc31+0x42>
     d25: b1 14        	lda	($14),y                 ; 0x14 <__rc4>
     d27: d0 07        	bne	$d30 <displayFileList+0xd4>
     d29: a5 16        	lda	$16                     ; 0x16 <__rc6>
     d2b: d0 03        	bne	$d30 <displayFileList+0xd4>
     d2d: 4c cd 0f     	jmp	$fcd <displayFileList+0x371>
     d30: a0 20        	ldy	#$20
     d32: a5 60        	lda	$60                     ; 0x60 <__rc31+0x31>
     d34: 18           	clc
     d35: 69 b6        	adc	#$b6
     d37: 85 14        	sta	$14                     ; 0x14 <__rc4>
     d39: a5 61        	lda	$61                     ; 0x61 <__rc31+0x32>
     d3b: 69 00        	adc	#$0
     d3d: 85 16        	sta	$16                     ; 0x16 <__rc6>
     d3f: 18           	clc
     d40: a5 60        	lda	$60                     ; 0x60 <__rc31+0x31>
     d42: 69 96        	adc	#$96
     d44: aa           	tax
     d45: a5 61        	lda	$61                     ; 0x61 <__rc31+0x32>
     d47: 69 2f        	adc	#$2f
     d49: 86 12        	stx	$12                     ; 0x12 <__rc2>
     d4b: 85 13        	sta	$13                     ; 0x13 <__rc3>
     d4d: b2 12        	lda	($12)                   ; 0x12 <__rc2>
     d4f: 29 01        	and	#$1
     d51: a2 6e        	ldx	#$6e
     d53: 86 12        	stx	$12                     ; 0x12 <__rc2>
     d55: a2 51        	ldx	#$51
     d57: 86 13        	stx	$13                     ; 0x13 <__rc3>
     d59: aa           	tax
     d5a: d0 08        	bne	$d64 <displayFileList+0x108>
     d5c: a2 13        	ldx	#$13
     d5e: 86 12        	stx	$12                     ; 0x12 <__rc2>
     d60: a2 51        	ldx	#$51
     d62: 86 13        	stx	$13                     ; 0x13 <__rc3>
     d64: a6 10        	ldx	$10                     ; 0x10 <__rc0>
     d66: 98           	tya
     d67: 92 10        	sta	($10)                   ; 0x10 <__rc0>
     d69: a0 01        	ldy	#$1
     d6b: a9 00        	lda	#$0
     d6d: 91 10        	sta	($10),y                 ; 0x10 <__rc0>
     d6f: 84 18        	sty	$18                     ; 0x18 <__rc8>
     d71: c8           	iny
     d72: a5 14        	lda	$14                     ; 0x14 <__rc4>
     d74: 91 10        	sta	($10),y                 ; 0x10 <__rc0>
     d76: 8a           	txa
     d77: 18           	clc
     d78: 69 02        	adc	#$2
     d7a: 85 14        	sta	$14                     ; 0x14 <__rc4>
     d7c: a5 11        	lda	$11                     ; 0x11 <__rc1>
     d7e: 69 00        	adc	#$0
     d80: 18           	clc
     d81: 85 15        	sta	$15                     ; 0x15 <__rc5>
     d83: a5 16        	lda	$16                     ; 0x16 <__rc6>
     d85: a4 18        	ldy	$18                     ; 0x18 <__rc8>
     d87: 91 14        	sta	($14),y                 ; 0x14 <__rc4>
     d89: 8a           	txa
     d8a: 69 04        	adc	#$4
     d8c: 85 14        	sta	$14                     ; 0x14 <__rc4>
     d8e: a5 11        	lda	$11                     ; 0x11 <__rc1>
     d90: 69 00        	adc	#$0
     d92: 85 15        	sta	$15                     ; 0x15 <__rc5>
     d94: a5 12        	lda	$12                     ; 0x12 <__rc2>
     d96: a0 04        	ldy	#$4
     d98: 91 10        	sta	($10),y                 ; 0x10 <__rc0>
     d9a: a4 18        	ldy	$18                     ; 0x18 <__rc8>
     d9c: a5 13        	lda	$13                     ; 0x13 <__rc3>
     d9e: 91 14        	sta	($14),y                 ; 0x14 <__rc4>
     da0: a2 05        	ldx	#$5
     da2: 86 12        	stx	$12                     ; 0x12 <__rc2>
     da4: a2 52        	ldx	#$52
     da6: 86 13        	stx	$13                     ; 0x13 <__rc3>
     da8: 20 13 49     	jsr	$4913 <printf>
     dab: a6 6c        	ldx	$6c                     ; 0x6c <__rc31+0x3d>
     dad: 86 12        	stx	$12                     ; 0x12 <__rc2>
     daf: a6 64        	ldx	$64                     ; 0x64 <__rc31+0x35>
     db1: e4 12        	cpx	$12                     ; 0x12 <__rc2>
     db3: a6 6d        	ldx	$6d                     ; 0x6d <__rc31+0x3e>
     db5: 86 12        	stx	$12                     ; 0x12 <__rc2>
     db7: a5 67        	lda	$67                     ; 0x67 <__rc31+0x38>
     db9: e5 12        	sbc	$12                     ; 0x12 <__rc2>
     dbb: 50 02        	bvc	$dbf <displayFileList+0x163>
     dbd: 49 80        	eor	#$80
     dbf: a6 62        	ldx	$62                     ; 0x62 <__rc31+0x33>
     dc1: 86 12        	stx	$12                     ; 0x12 <__rc2>
     dc3: a6 63        	ldx	$63                     ; 0x63 <__rc31+0x34>
     dc5: 86 13        	stx	$13                     ; 0x13 <__rc3>
     dc7: a6 12        	ldx	$12                     ; 0x12 <__rc2>
     dc9: 86 6e        	stx	$6e                     ; 0x6e <__rc31+0x3f>
     dcb: a6 13        	ldx	$13                     ; 0x13 <__rc3>
     dcd: 86 6f        	stx	$6f                     ; 0x6f <__rc31+0x40>
     dcf: aa           	tax
     dd0: 30 03        	bmi	$dd5 <displayFileList+0x179>
     dd2: 4c 13 0f     	jmp	$f13 <displayFileList+0x2b7>
     dd5: a6 67        	ldx	$67                     ; 0x67 <__rc31+0x38>
     dd7: 86 15        	stx	$15                     ; 0x15 <__rc5>
     dd9: a5 60        	lda	$60                     ; 0x60 <__rc31+0x31>
     ddb: 18           	clc
     ddc: 69 fc        	adc	#$fc
     dde: 85 68        	sta	$68                     ; 0x68 <__rc31+0x39>
     de0: a5 61        	lda	$61                     ; 0x61 <__rc31+0x32>
     de2: 69 2f        	adc	#$2f
     de4: 85 69        	sta	$69                     ; 0x69 <__rc31+0x3a>
     de6: a6 72        	ldx	$72                     ; 0x72 <__rc31+0x43>
     de8: 86 12        	stx	$12                     ; 0x12 <__rc2>
     dea: a5 60        	lda	$60                     ; 0x60 <__rc31+0x31>
     dec: 18           	clc
     ded: 65 12        	adc	$12                     ; 0x12 <__rc2>
     def: a8           	tay
     df0: a5 61        	lda	$61                     ; 0x61 <__rc31+0x32>
     df2: 65 66        	adc	$66                     ; 0x66 <__rc31+0x37>
     df4: 85 13        	sta	$13                     ; 0x13 <__rc3>
     df6: 18           	clc
     df7: 98           	tya
     df8: 69 97        	adc	#$97
     dfa: 85 12        	sta	$12                     ; 0x12 <__rc2>
     dfc: a5 13        	lda	$13                     ; 0x13 <__rc3>
     dfe: 69 2f        	adc	#$2f
     e00: 85 13        	sta	$13                     ; 0x13 <__rc3>
     e02: 8a           	txa
     e03: 0a           	asl
     e04: a6 66        	ldx	$66                     ; 0x66 <__rc31+0x37>
     e06: 86 14        	stx	$14                     ; 0x14 <__rc4>
     e08: a6 12        	ldx	$12                     ; 0x12 <__rc2>
     e0a: 86 66        	stx	$66                     ; 0x66 <__rc31+0x37>
     e0c: a6 13        	ldx	$13                     ; 0x13 <__rc3>
     e0e: 86 67        	stx	$67                     ; 0x67 <__rc31+0x38>
     e10: 26 14        	rol	$14                     ; 0x14 <__rc4>
     e12: 0a           	asl
     e13: 26 14        	rol	$14                     ; 0x14 <__rc4>
     e15: 0a           	asl
     e16: 85 12        	sta	$12                     ; 0x12 <__rc2>
     e18: 26 14        	rol	$14                     ; 0x14 <__rc4>
     e1a: 0a           	asl
     e1b: aa           	tax
     e1c: a5 14        	lda	$14                     ; 0x14 <__rc4>
     e1e: 2a           	rol
     e1f: 86 13        	stx	$13                     ; 0x13 <__rc3>
     e21: 06 13        	asl	$13                     ; 0x13 <__rc3>
     e23: 2a           	rol
     e24: 06 13        	asl	$13                     ; 0x13 <__rc3>
     e26: 2a           	rol
     e27: 06 13        	asl	$13                     ; 0x13 <__rc3>
     e29: 2a           	rol
     e2a: aa           	tax
     e2b: 38           	sec
     e2c: a5 13        	lda	$13                     ; 0x13 <__rc3>
     e2e: e5 12        	sbc	$12                     ; 0x12 <__rc2>
     e30: 85 12        	sta	$12                     ; 0x12 <__rc2>
     e32: 8a           	txa
     e33: e5 14        	sbc	$14                     ; 0x14 <__rc4>
     e35: 85 13        	sta	$13                     ; 0x13 <__rc3>
     e37: 18           	clc
     e38: a5 12        	lda	$12                     ; 0x12 <__rc2>
     e3a: 65 60        	adc	$60                     ; 0x60 <__rc31+0x31>
     e3c: 85 12        	sta	$12                     ; 0x12 <__rc2>
     e3e: a5 13        	lda	$13                     ; 0x13 <__rc3>
     e40: 65 61        	adc	$61                     ; 0x61 <__rc31+0x32>
     e42: aa           	tax
     e43: 18           	clc
     e44: a5 12        	lda	$12                     ; 0x12 <__rc2>
     e46: 69 2e        	adc	#$2e
     e48: 85 6a        	sta	$6a                     ; 0x6a <__rc31+0x3b>
     e4a: 8a           	txa
     e4b: 69 01        	adc	#$1
     e4d: 85 6b        	sta	$6b                     ; 0x6b <__rc31+0x3c>
     e4f: a2 01        	ldx	#$1
     e51: 86 65        	stx	$65                     ; 0x65 <__rc31+0x36>
     e53: 8a           	txa
     e54: 85 63        	sta	$63                     ; 0x63 <__rc31+0x34>
     e56: 18           	clc
     e57: a4 65        	ldy	$65                     ; 0x65 <__rc31+0x36>
     e59: 71 60        	adc	($60),y                 ; 0x60 <__rc31+0x31>
     e5b: 85 13        	sta	$13                     ; 0x13 <__rc3>
     e5d: b2 60        	lda	($60)                   ; 0x60 <__rc31+0x31>
     e5f: 85 53        	sta	$53                     ; 0x53 <_col>
     e61: 8d 14 d0     	sta	$d014                   ; 0xd014 <end_block9+0x4990>
     e64: 9c 15 d0     	stz	$d015                   ; 0xd015 <end_block9+0x4991>
     e67: a6 13        	ldx	$13                     ; 0x13 <__rc3>
     e69: 86 54        	stx	$54                     ; 0x54 <_row>
     e6b: 8e 16 d0     	stx	$d016                   ; 0xd016 <end_block9+0x4992>
     e6e: 9c 17 d0     	stz	$d017                   ; 0xd017 <end_block9+0x4993>
     e71: a5 15        	lda	$15                     ; 0x15 <__rc5>
     e73: a0 01        	ldy	#$1
     e75: d1 68        	cmp	($68),y                 ; 0x68 <__rc31+0x39>
     e77: d0 10        	bne	$e89 <displayFileList+0x22d>
     e79: 85 62        	sta	$62                     ; 0x62 <__rc31+0x33>
     e7b: b2 68        	lda	($68)                   ; 0x68 <__rc31+0x39>
     e7d: 85 12        	sta	$12                     ; 0x12 <__rc2>
     e7f: a6 64        	ldx	$64                     ; 0x64 <__rc31+0x35>
     e81: e4 12        	cpx	$12                     ; 0x12 <__rc2>
     e83: d0 06        	bne	$e8b <displayFileList+0x22f>
     e85: a9 fa        	lda	#$fa
     e87: 80 04        	bra	$e8d <displayFileList+0x231>
     e89: 85 62        	sta	$62                     ; 0x62 <__rc31+0x33>
     e8b: a9 20        	lda	#$20
     e8d: a2 00        	ldx	#$0
     e8f: 20 7f 4a     	jsr	$4a7f <putchar>
     e92: b2 66        	lda	($66)                   ; 0x66 <__rc31+0x37>
     e94: 29 01        	and	#$1
     e96: a2 6e        	ldx	#$6e
     e98: 86 12        	stx	$12                     ; 0x12 <__rc2>
     e9a: a2 51        	ldx	#$51
     e9c: 86 13        	stx	$13                     ; 0x13 <__rc3>
     e9e: aa           	tax
     e9f: d0 08        	bne	$ea9 <displayFileList+0x24d>
     ea1: a2 13        	ldx	#$13
     ea3: 86 12        	stx	$12                     ; 0x12 <__rc2>
     ea5: a2 51        	ldx	#$51
     ea7: 86 13        	stx	$13                     ; 0x13 <__rc3>
     ea9: a5 10        	lda	$10                     ; 0x10 <__rc0>
     eab: a6 11        	ldx	$11                     ; 0x11 <__rc1>
     ead: 18           	clc
     eae: 69 02        	adc	#$2
     eb0: 85 14        	sta	$14                     ; 0x14 <__rc4>
     eb2: 8a           	txa
     eb3: 69 00        	adc	#$0
     eb5: 85 15        	sta	$15                     ; 0x15 <__rc5>
     eb7: a5 6a        	lda	$6a                     ; 0x6a <__rc31+0x3b>
     eb9: 92 10        	sta	($10)                   ; 0x10 <__rc0>
     ebb: a0 01        	ldy	#$1
     ebd: a5 6b        	lda	$6b                     ; 0x6b <__rc31+0x3c>
     ebf: 91 10        	sta	($10),y                 ; 0x10 <__rc0>
     ec1: 84 16        	sty	$16                     ; 0x16 <__rc6>
     ec3: a5 12        	lda	$12                     ; 0x12 <__rc2>
     ec5: c8           	iny
     ec6: 91 10        	sta	($10),y                 ; 0x10 <__rc0>
     ec8: a5 13        	lda	$13                     ; 0x13 <__rc3>
     eca: a2 01        	ldx	#$1
     ecc: 86 65        	stx	$65                     ; 0x65 <__rc31+0x36>
     ece: a4 16        	ldy	$16                     ; 0x16 <__rc6>
     ed0: 91 14        	sta	($14),y                 ; 0x14 <__rc4>
     ed2: a2 90        	ldx	#$90
     ed4: 86 12        	stx	$12                     ; 0x12 <__rc2>
     ed6: a2 51        	ldx	#$51
     ed8: 86 13        	stx	$13                     ; 0x13 <__rc3>
     eda: 20 13 49     	jsr	$4913 <printf>
     edd: e6 64        	inc	$64                     ; 0x64 <__rc31+0x35>
     edf: d0 02        	bne	$ee3 <displayFileList+0x287>
     ee1: e6 62        	inc	$62                     ; 0x62 <__rc31+0x33>
     ee3: e6 66        	inc	$66                     ; 0x66 <__rc31+0x37>
     ee5: d0 02        	bne	$ee9 <displayFileList+0x28d>
     ee7: e6 67        	inc	$67                     ; 0x67 <__rc31+0x38>
     ee9: 18           	clc
     eea: a5 6a        	lda	$6a                     ; 0x6a <__rc31+0x3b>
     eec: 69 78        	adc	#$78
     eee: 85 6a        	sta	$6a                     ; 0x6a <__rc31+0x3b>
     ef0: a5 6b        	lda	$6b                     ; 0x6b <__rc31+0x3c>
     ef2: 69 00        	adc	#$0
     ef4: 85 6b        	sta	$6b                     ; 0x6b <__rc31+0x3c>
     ef6: a5 63        	lda	$63                     ; 0x63 <__rc31+0x34>
     ef8: 1a           	inc
     ef9: a6 62        	ldx	$62                     ; 0x62 <__rc31+0x33>
     efb: 86 15        	stx	$15                     ; 0x15 <__rc5>
     efd: a6 6d        	ldx	$6d                     ; 0x6d <__rc31+0x3e>
     eff: e4 62        	cpx	$62                     ; 0x62 <__rc31+0x33>
     f01: f0 03        	beq	$f06 <displayFileList+0x2aa>
     f03: 4c 54 0e     	jmp	$e54 <displayFileList+0x1f8>
     f06: a6 62        	ldx	$62                     ; 0x62 <__rc31+0x33>
     f08: 86 15        	stx	$15                     ; 0x15 <__rc5>
     f0a: a6 6c        	ldx	$6c                     ; 0x6c <__rc31+0x3d>
     f0c: e4 64        	cpx	$64                     ; 0x64 <__rc31+0x35>
     f0e: f0 03        	beq	$f13 <displayFileList+0x2b7>
     f10: 4c 54 0e     	jmp	$e54 <displayFileList+0x1f8>
     f13: a5 72        	lda	$72                     ; 0x72 <__rc31+0x43>
     f15: 49 ff        	eor	#$ff
     f17: 85 12        	sta	$12                     ; 0x12 <__rc2>
     f19: a9 02        	lda	#$2
     f1b: 18           	clc
     f1c: 72 60        	adc	($60)                   ; 0x60 <__rc31+0x31>
     f1e: aa           	tax
     f1f: a0 01        	ldy	#$1
     f21: 18           	clc
     f22: a5 6c        	lda	$6c                     ; 0x6c <__rc31+0x3d>
     f24: 65 12        	adc	$12                     ; 0x12 <__rc2>
     f26: 18           	clc
     f27: 71 60        	adc	($60),y                 ; 0x60 <__rc31+0x31>
     f29: 1a           	inc
     f2a: 86 53        	stx	$53                     ; 0x53 <_col>
     f2c: 8e 14 d0     	stx	$d014                   ; 0xd014 <end_block9+0x4990>
     f2f: 9c 15 d0     	stz	$d015                   ; 0xd015 <end_block9+0x4991>
     f32: 85 54        	sta	$54                     ; 0x54 <_row>
     f34: 8d 16 d0     	sta	$d016                   ; 0xd016 <end_block9+0x4992>
     f37: 9c 17 d0     	stz	$d017                   ; 0xd017 <end_block9+0x4993>
     f3a: a5 60        	lda	$60                     ; 0x60 <__rc31+0x31>
     f3c: 18           	clc
     f3d: 69 fc        	adc	#$fc
     f3f: 85 12        	sta	$12                     ; 0x12 <__rc2>
     f41: a5 61        	lda	$61                     ; 0x61 <__rc31+0x32>
     f43: 69 2f        	adc	#$2f
     f45: 85 13        	sta	$13                     ; 0x13 <__rc3>
     f47: b2 12        	lda	($12)                   ; 0x12 <__rc2>
     f49: aa           	tax
     f4a: b1 12        	lda	($12),y                 ; 0x12 <__rc2>
     f4c: 86 15        	stx	$15                     ; 0x15 <__rc5>
     f4e: e0 0f        	cpx	#$f
     f50: 85 14        	sta	$14                     ; 0x14 <__rc4>
     f52: e9 00        	sbc	#$0
     f54: a6 6e        	ldx	$6e                     ; 0x6e <__rc31+0x3f>
     f56: 86 12        	stx	$12                     ; 0x12 <__rc2>
     f58: a6 6f        	ldx	$6f                     ; 0x6f <__rc31+0x40>
     f5a: 86 13        	stx	$13                     ; 0x13 <__rc3>
     f5c: 50 02        	bvc	$f60 <displayFileList+0x304>
     f5e: 49 80        	eor	#$80
     f60: a2 fb        	ldx	#$fb
     f62: 64 16        	stz	$16                     ; 0x16 <__rc6>
     f64: c9 00        	cmp	#$0
     f66: 10 02        	bpl	$f6a <displayFileList+0x30e>
     f68: a2 20        	ldx	#$20
     f6a: 86 17        	stx	$17                     ; 0x17 <__rc7>
     f6c: 18           	clc
     f6d: a5 15        	lda	$15                     ; 0x15 <__rc5>
     f6f: 69 10        	adc	#$10
     f71: 85 18        	sta	$18                     ; 0x18 <__rc8>
     f73: a5 14        	lda	$14                     ; 0x14 <__rc4>
     f75: 69 00        	adc	#$0
     f77: 85 19        	sta	$19                     ; 0x19 <__rc9>
     f79: 38           	sec
     f7a: a6 70        	ldx	$70                     ; 0x70 <__rc31+0x41>
     f7c: 86 14        	stx	$14                     ; 0x14 <__rc4>
     f7e: a6 71        	ldx	$71                     ; 0x71 <__rc31+0x42>
     f80: 86 15        	stx	$15                     ; 0x15 <__rc5>
     f82: a5 18        	lda	$18                     ; 0x18 <__rc8>
     f84: f2 14        	sbc	($14)                   ; 0x14 <__rc4>
     f86: 85 18        	sta	$18                     ; 0x18 <__rc8>
     f88: a5 19        	lda	$19                     ; 0x19 <__rc9>
     f8a: f1 14        	sbc	($14),y                 ; 0x14 <__rc4>
     f8c: aa           	tax
     f8d: a5 18        	lda	$18                     ; 0x18 <__rc8>
     f8f: d2 12        	cmp	($12)                   ; 0x12 <__rc2>
     f91: 8a           	txa
     f92: f1 12        	sbc	($12),y                 ; 0x12 <__rc2>
     f94: 50 02        	bvc	$f98 <displayFileList+0x33c>
     f96: 49 80        	eor	#$80
     f98: a2 f8        	ldx	#$f8
     f9a: 64 12        	stz	$12                     ; 0x12 <__rc2>
     f9c: c9 00        	cmp	#$0
     f9e: 30 02        	bmi	$fa2 <displayFileList+0x346>
     fa0: a2 20        	ldx	#$20
     fa2: a5 17        	lda	$17                     ; 0x17 <__rc7>
     fa4: 92 10        	sta	($10)                   ; 0x10 <__rc0>
     fa6: a9 00        	lda	#$0
     fa8: 91 10        	sta	($10),y                 ; 0x10 <__rc0>
     faa: a0 02        	ldy	#$2
     fac: 8a           	txa
     fad: 91 10        	sta	($10),y                 ; 0x10 <__rc0>
     faf: c8           	iny
     fb0: a9 00        	lda	#$0
     fb2: 91 10        	sta	($10),y                 ; 0x10 <__rc0>
     fb4: a2 0c        	ldx	#$c
     fb6: 86 12        	stx	$12                     ; 0x12 <__rc2>
     fb8: a2 52        	ldx	#$52
     fba: 86 13        	stx	$13                     ; 0x13 <__rc3>
     fbc: 20 13 49     	jsr	$4913 <printf>
     fbf: 18           	clc
     fc0: a5 10        	lda	$10                     ; 0x10 <__rc0>
     fc2: 69 06        	adc	#$6
     fc4: 85 10        	sta	$10                     ; 0x10 <__rc0>
     fc6: a5 11        	lda	$11                     ; 0x11 <__rc1>
     fc8: 69 00        	adc	#$0
     fca: 85 11        	sta	$11                     ; 0x11 <__rc1>
     fcc: 60           	rts
     fcd: a0 fa        	ldy	#$fa
     fcf: 4c 32 0d     	jmp	$d32 <displayFileList+0xd6>

00000fd2 <pickFile>:
     fd2: 18           	clc
     fd3: a5 10        	lda	$10                     ; 0x10 <__rc0>
     fd5: 69 ea        	adc	#$ea
     fd7: 85 10        	sta	$10                     ; 0x10 <__rc0>
     fd9: a5 11        	lda	$11                     ; 0x11 <__rc1>
     fdb: 69 ff        	adc	#$ff
     fdd: 85 11        	sta	$11                     ; 0x11 <__rc1>
     fdf: a6 24        	ldx	$24                     ; 0x24 <__rc20>
     fe1: da           	phx
     fe2: a6 25        	ldx	$25                     ; 0x25 <__rc21>
     fe4: da           	phx
     fe5: a6 26        	ldx	$26                     ; 0x26 <__rc22>
     fe7: da           	phx
     fe8: a6 27        	ldx	$27                     ; 0x27 <__rc23>
     fea: da           	phx
     feb: a2 08        	ldx	#$8
     fed: 86 26        	stx	$26                     ; 0x26 <__rc22>
     fef: a2 00        	ldx	#$0
     ff1: 86 27        	stx	$27                     ; 0x27 <__rc23>
     ff3: a9 7a        	lda	#$7a
     ff5: 18           	clc
     ff6: 48           	pha
     ff7: a5 10        	lda	$10                     ; 0x10 <__rc0>
     ff9: 69 13        	adc	#$13
     ffb: 85 12        	sta	$12                     ; 0x12 <__rc2>
     ffd: a5 11        	lda	$11                     ; 0x11 <__rc1>
     fff: 69 00        	adc	#$0
    1001: 85 13        	sta	$13                     ; 0x13 <__rc3>
    1003: 68           	pla
    1004: 92 12        	sta	($12)                   ; 0x12 <__rc2>
    1006: a0 01        	ldy	#$1
    1008: a9 54        	lda	#$54
    100a: 91 12        	sta	($12),y                 ; 0x12 <__rc2>
    100c: 64 4b        	stz	$4b                     ; 0x4b <kernelEventData>
    100e: 18           	clc
    100f: a5 10        	lda	$10                     ; 0x10 <__rc0>
    1011: 69 11        	adc	#$11
    1013: 85 12        	sta	$12                     ; 0x12 <__rc2>
    1015: a5 11        	lda	$11                     ; 0x11 <__rc1>
    1017: 69 00        	adc	#$0
    1019: 85 13        	sta	$13                     ; 0x13 <__rc3>
    101b: a2 52        	ldx	#$52
    101d: 86 14        	stx	$14                     ; 0x14 <__rc4>
    101f: a2 00        	ldx	#$0
    1021: 86 15        	stx	$15                     ; 0x15 <__rc5>
    1023: 20 00 ff     	jsr	$ff00 <end_block9+0x787c>
    1026: 92 12        	sta	($12)                   ; 0x12 <__rc2>
    1028: a9 00        	lda	#$0
    102a: 6a           	ror
    102b: 85 14        	sta	$14                     ; 0x14 <__rc4>
    102d: b2 12        	lda	($12)                   ; 0x12 <__rc2>
    102f: 18           	clc
    1030: 48           	pha
    1031: a5 10        	lda	$10                     ; 0x10 <__rc0>
    1033: 69 10        	adc	#$10
    1035: 85 12        	sta	$12                     ; 0x12 <__rc2>
    1037: a5 11        	lda	$11                     ; 0x11 <__rc1>
    1039: 69 00        	adc	#$0
    103b: 85 13        	sta	$13                     ; 0x13 <__rc3>
    103d: 68           	pla
    103e: 92 12        	sta	($12)                   ; 0x12 <__rc2>
    1040: b2 12        	lda	($12)                   ; 0x12 <__rc2>
    1042: 18           	clc
    1043: 48           	pha
    1044: a5 10        	lda	$10                     ; 0x10 <__rc0>
    1046: 69 12        	adc	#$12
    1048: 85 12        	sta	$12                     ; 0x12 <__rc2>
    104a: a5 11        	lda	$11                     ; 0x11 <__rc1>
    104c: 69 00        	adc	#$0
    104e: 85 13        	sta	$13                     ; 0x13 <__rc3>
    1050: 68           	pla
    1051: 92 12        	sta	($12)                   ; 0x12 <__rc2>
    1053: a6 4b        	ldx	$4b                     ; 0x4b <kernelEventData>
    1055: a0 00        	ldy	#$0
    1057: c4 27        	cpy	$27                     ; 0x27 <__rc23>
    1059: f0 02        	beq	$105d <pickFile+0x8b>
    105b: 80 0d        	bra	$106a <pickFile+0x98>
    105d: e4 26        	cpx	$26                     ; 0x26 <__rc22>
    105f: f0 02        	beq	$1063 <pickFile+0x91>
    1061: 80 02        	bra	$1065 <pickFile+0x93>
    1063: 80 03        	bra	$1068 <pickFile+0x96>
    1065: 4c 5d 1c     	jmp	$1c5d <pickFile+0xc8b>
    1068: 80 03        	bra	$106d <pickFile+0x9b>
    106a: 4c 5d 1c     	jmp	$1c5d <pickFile+0xc8b>
    106d: 80 00        	bra	$106f <pickFile+0x9d>
    106f: a5 4f        	lda	$4f                     ; 0x4f <kernelEventData+0x4>
    1071: 18           	clc
    1072: 69 6e        	adc	#$6e
    1074: aa           	tax
    1075: a9 00        	lda	#$0
    1077: 69 ff        	adc	#$ff
    1079: c9 00        	cmp	#$0
    107b: a0 01        	ldy	#$1
    107d: b0 02        	bcs	$1081 <pickFile+0xaf>
    107f: a0 00        	ldy	#$0
    1081: 84 12        	sty	$12                     ; 0x12 <__rc2>
    1083: a8           	tay
    1084: f0 02        	beq	$1088 <pickFile+0xb6>
    1086: 80 08        	bra	$1090 <pickFile+0xbe>
    1088: 8a           	txa
    1089: c9 28        	cmp	#$28
    108b: 90 0b        	bcc	$1098 <pickFile+0xc6>
    108d: 4c 5d 1c     	jmp	$1c5d <pickFile+0xc8b>
    1090: 8a           	txa
    1091: a6 12        	ldx	$12                     ; 0x12 <__rc2>
    1093: f0 03        	beq	$1098 <pickFile+0xc6>
    1095: 4c 5d 1c     	jmp	$1c5d <pickFile+0xc8b>
    1098: 0a           	asl
    1099: aa           	tax
    109a: 7c d3 4f     	jmp	($4fd3,x)               ; 0x4fd3 <__set_v+0x1>
    109d: 18           	clc
    109e: a5 10        	lda	$10                     ; 0x10 <__rc0>
    10a0: 69 15        	adc	#$15
    10a2: 85 12        	sta	$12                     ; 0x12 <__rc2>
    10a4: a5 11        	lda	$11                     ; 0x11 <__rc1>
    10a6: 69 00        	adc	#$0
    10a8: 85 13        	sta	$13                     ; 0x13 <__rc3>
    10aa: a9 03        	lda	#$3
    10ac: 92 12        	sta	($12)                   ; 0x12 <__rc2>
    10ae: 4c 60 1c     	jmp	$1c60 <pickFile+0xc8e>
    10b1: 18           	clc
    10b2: a5 10        	lda	$10                     ; 0x10 <__rc0>
    10b4: 69 13        	adc	#$13
    10b6: 85 24        	sta	$24                     ; 0x24 <__rc20>
    10b8: a5 11        	lda	$11                     ; 0x11 <__rc1>
    10ba: 69 00        	adc	#$0
    10bc: 85 25        	sta	$25                     ; 0x25 <__rc21>
    10be: b2 24        	lda	($24)                   ; 0x24 <__rc20>
    10c0: 85 12        	sta	$12                     ; 0x12 <__rc2>
    10c2: a0 01        	ldy	#$1
    10c4: b1 24        	lda	($24),y                 ; 0x24 <__rc20>
    10c6: aa           	tax
    10c7: a0 01        	ldy	#$1
    10c9: 18           	clc
    10ca: a5 12        	lda	$12                     ; 0x12 <__rc2>
    10cc: 69 3e        	adc	#$3e
    10ce: 85 12        	sta	$12                     ; 0x12 <__rc2>
    10d0: 8a           	txa
    10d1: 69 00        	adc	#$0
    10d3: 85 13        	sta	$13                     ; 0x13 <__rc3>
    10d5: b2 24        	lda	($24)                   ; 0x24 <__rc20>
    10d7: 85 15        	sta	$15                     ; 0x15 <__rc5>
    10d9: b1 24        	lda	($24),y                 ; 0x24 <__rc20>
    10db: 85 14        	sta	$14                     ; 0x14 <__rc4>
    10dd: 18           	clc
    10de: a5 15        	lda	$15                     ; 0x15 <__rc5>
    10e0: 69 fc        	adc	#$fc
    10e2: aa           	tax
    10e3: a5 14        	lda	$14                     ; 0x14 <__rc4>
    10e5: 69 2f        	adc	#$2f
    10e7: 86 14        	stx	$14                     ; 0x14 <__rc4>
    10e9: 85 15        	sta	$15                     ; 0x15 <__rc5>
    10eb: b2 14        	lda	($14)                   ; 0x14 <__rc4>
    10ed: aa           	tax
    10ee: b1 14        	lda	($14),y                 ; 0x14 <__rc4>
    10f0: 85 14        	sta	$14                     ; 0x14 <__rc4>
    10f2: 8a           	txa
    10f3: 0a           	asl
    10f4: 26 14        	rol	$14                     ; 0x14 <__rc4>
    10f6: 0a           	asl
    10f7: 26 14        	rol	$14                     ; 0x14 <__rc4>
    10f9: a6 14        	ldx	$14                     ; 0x14 <__rc4>
    10fb: 86 15        	stx	$15                     ; 0x15 <__rc5>
    10fd: 85 14        	sta	$14                     ; 0x14 <__rc4>
    10ff: 06 14        	asl	$14                     ; 0x14 <__rc4>
    1101: 26 15        	rol	$15                     ; 0x15 <__rc5>
    1103: a5 14        	lda	$14                     ; 0x14 <__rc4>
    1105: 0a           	asl
    1106: aa           	tax
    1107: a5 15        	lda	$15                     ; 0x15 <__rc5>
    1109: 2a           	rol
    110a: 86 16        	stx	$16                     ; 0x16 <__rc6>
    110c: 06 16        	asl	$16                     ; 0x16 <__rc6>
    110e: 2a           	rol
    110f: 06 16        	asl	$16                     ; 0x16 <__rc6>
    1111: 2a           	rol
    1112: 06 16        	asl	$16                     ; 0x16 <__rc6>
    1114: 2a           	rol
    1115: aa           	tax
    1116: 38           	sec
    1117: a5 16        	lda	$16                     ; 0x16 <__rc6>
    1119: e5 14        	sbc	$14                     ; 0x14 <__rc4>
    111b: 85 14        	sta	$14                     ; 0x14 <__rc4>
    111d: 8a           	txa
    111e: e5 15        	sbc	$15                     ; 0x15 <__rc5>
    1120: 85 15        	sta	$15                     ; 0x15 <__rc5>
    1122: 18           	clc
    1123: a5 14        	lda	$14                     ; 0x14 <__rc4>
    1125: 72 24        	adc	($24)                   ; 0x24 <__rc20>
    1127: 85 14        	sta	$14                     ; 0x14 <__rc4>
    1129: a5 15        	lda	$15                     ; 0x15 <__rc5>
    112b: 71 24        	adc	($24),y                 ; 0x24 <__rc20>
    112d: aa           	tax
    112e: 84 26        	sty	$26                     ; 0x26 <__rc22>
    1130: 18           	clc
    1131: a5 14        	lda	$14                     ; 0x14 <__rc4>
    1133: 69 b6        	adc	#$b6
    1135: 85 14        	sta	$14                     ; 0x14 <__rc4>
    1137: 8a           	txa
    1138: 69 00        	adc	#$0
    113a: 85 15        	sta	$15                     ; 0x15 <__rc5>
    113c: a9 78        	lda	#$78
    113e: a2 00        	ldx	#$0
    1140: 20 3f 4e     	jsr	$4e3f <memcpy>
    1143: b2 24        	lda	($24)                   ; 0x24 <__rc20>
    1145: 85 13        	sta	$13                     ; 0x13 <__rc3>
    1147: a4 26        	ldy	$26                     ; 0x26 <__rc22>
    1149: b1 24        	lda	($24),y                 ; 0x24 <__rc20>
    114b: 85 12        	sta	$12                     ; 0x12 <__rc2>
    114d: 18           	clc
    114e: a5 13        	lda	$13                     ; 0x13 <__rc3>
    1150: 69 fe        	adc	#$fe
    1152: aa           	tax
    1153: a5 12        	lda	$12                     ; 0x12 <__rc2>
    1155: 69 2f        	adc	#$2f
    1157: 86 12        	stx	$12                     ; 0x12 <__rc2>
    1159: 85 13        	sta	$13                     ; 0x13 <__rc3>
    115b: b2 12        	lda	($12)                   ; 0x12 <__rc2>
    115d: 85 14        	sta	$14                     ; 0x14 <__rc4>
    115f: b1 12        	lda	($12),y                 ; 0x12 <__rc2>
    1161: d0 1c        	bne	$117f <pickFile+0x1ad>
    1163: 80 00        	bra	$1165 <pickFile+0x193>
    1165: a5 14        	lda	$14                     ; 0x14 <__rc4>
    1167: d0 16        	bne	$117f <pickFile+0x1ad>
    1169: 80 00        	bra	$116b <pickFile+0x199>
    116b: 18           	clc
    116c: a5 10        	lda	$10                     ; 0x10 <__rc0>
    116e: 69 15        	adc	#$15
    1170: 85 12        	sta	$12                     ; 0x12 <__rc2>
    1172: a5 11        	lda	$11                     ; 0x11 <__rc1>
    1174: 69 00        	adc	#$0
    1176: 85 13        	sta	$13                     ; 0x13 <__rc3>
    1178: a9 00        	lda	#$0
    117a: 92 12        	sta	($12)                   ; 0x12 <__rc2>
    117c: 4c 60 1c     	jmp	$1c60 <pickFile+0xc8e>
    117f: 18           	clc
    1180: a5 10        	lda	$10                     ; 0x10 <__rc0>
    1182: 69 13        	adc	#$13
    1184: 85 12        	sta	$12                     ; 0x12 <__rc2>
    1186: a5 11        	lda	$11                     ; 0x11 <__rc1>
    1188: 69 00        	adc	#$0
    118a: 85 13        	sta	$13                     ; 0x13 <__rc3>
    118c: a0 01        	ldy	#$1
    118e: b2 12        	lda	($12)                   ; 0x12 <__rc2>
    1190: 85 15        	sta	$15                     ; 0x15 <__rc5>
    1192: b1 12        	lda	($12),y                 ; 0x12 <__rc2>
    1194: 85 14        	sta	$14                     ; 0x14 <__rc4>
    1196: 18           	clc
    1197: a5 15        	lda	$15                     ; 0x15 <__rc5>
    1199: 69 fc        	adc	#$fc
    119b: aa           	tax
    119c: a5 14        	lda	$14                     ; 0x14 <__rc4>
    119e: 69 2f        	adc	#$2f
    11a0: 86 14        	stx	$14                     ; 0x14 <__rc4>
    11a2: 85 15        	sta	$15                     ; 0x15 <__rc5>
    11a4: b2 14        	lda	($14)                   ; 0x14 <__rc4>
    11a6: 85 16        	sta	$16                     ; 0x16 <__rc6>
    11a8: b1 14        	lda	($14),y                 ; 0x14 <__rc4>
    11aa: 85 14        	sta	$14                     ; 0x14 <__rc4>
    11ac: 18           	clc
    11ad: a5 16        	lda	$16                     ; 0x16 <__rc6>
    11af: 72 12        	adc	($12)                   ; 0x12 <__rc2>
    11b1: 85 15        	sta	$15                     ; 0x15 <__rc5>
    11b3: a5 14        	lda	$14                     ; 0x14 <__rc4>
    11b5: 71 12        	adc	($12),y                 ; 0x12 <__rc2>
    11b7: 85 12        	sta	$12                     ; 0x12 <__rc2>
    11b9: 18           	clc
    11ba: a5 15        	lda	$15                     ; 0x15 <__rc5>
    11bc: 69 96        	adc	#$96
    11be: aa           	tax
    11bf: a5 12        	lda	$12                     ; 0x12 <__rc2>
    11c1: 69 2f        	adc	#$2f
    11c3: 85 13        	sta	$13                     ; 0x13 <__rc3>
    11c5: 86 12        	stx	$12                     ; 0x12 <__rc2>
    11c7: b2 12        	lda	($12)                   ; 0x12 <__rc2>
    11c9: 29 01        	and	#$1
    11cb: f0 16        	beq	$11e3 <pickFile+0x211>
    11cd: 80 00        	bra	$11cf <pickFile+0x1fd>
    11cf: 18           	clc
    11d0: a5 10        	lda	$10                     ; 0x10 <__rc0>
    11d2: 69 15        	adc	#$15
    11d4: 85 12        	sta	$12                     ; 0x12 <__rc2>
    11d6: a5 11        	lda	$11                     ; 0x11 <__rc1>
    11d8: 69 00        	adc	#$0
    11da: 85 13        	sta	$13                     ; 0x13 <__rc3>
    11dc: a9 01        	lda	#$1
    11de: 92 12        	sta	($12)                   ; 0x12 <__rc2>
    11e0: 4c 60 1c     	jmp	$1c60 <pickFile+0xc8e>
    11e3: 18           	clc
    11e4: a5 10        	lda	$10                     ; 0x10 <__rc0>
    11e6: 69 15        	adc	#$15
    11e8: 85 12        	sta	$12                     ; 0x12 <__rc2>
    11ea: a5 11        	lda	$11                     ; 0x11 <__rc1>
    11ec: 69 00        	adc	#$0
    11ee: 85 13        	sta	$13                     ; 0x13 <__rc3>
    11f0: a9 02        	lda	#$2
    11f2: 92 12        	sta	($12)                   ; 0x12 <__rc2>
    11f4: 4c 60 1c     	jmp	$1c60 <pickFile+0xc8e>
    11f7: 18           	clc
    11f8: a5 10        	lda	$10                     ; 0x10 <__rc0>
    11fa: 69 13        	adc	#$13
    11fc: 85 12        	sta	$12                     ; 0x12 <__rc2>
    11fe: a5 11        	lda	$11                     ; 0x11 <__rc1>
    1200: 69 00        	adc	#$0
    1202: 85 13        	sta	$13                     ; 0x13 <__rc3>
    1204: b2 12        	lda	($12)                   ; 0x12 <__rc2>
    1206: 85 14        	sta	$14                     ; 0x14 <__rc4>
    1208: a0 01        	ldy	#$1
    120a: b1 12        	lda	($12),y                 ; 0x12 <__rc2>
    120c: aa           	tax
    120d: 18           	clc
    120e: a5 14        	lda	$14                     ; 0x14 <__rc4>
    1210: 69 fc        	adc	#$fc
    1212: 85 12        	sta	$12                     ; 0x12 <__rc2>
    1214: 8a           	txa
    1215: 69 2f        	adc	#$2f
    1217: 85 13        	sta	$13                     ; 0x13 <__rc3>
    1219: b2 12        	lda	($12)                   ; 0x12 <__rc2>
    121b: 85 14        	sta	$14                     ; 0x14 <__rc4>
    121d: b1 12        	lda	($12),y                 ; 0x12 <__rc2>
    121f: a6 14        	ldx	$14                     ; 0x14 <__rc4>
    1221: e0 01        	cpx	#$1
    1223: e9 00        	sbc	#$0
    1225: 70 02        	bvs	$1229 <pickFile+0x257>
    1227: 80 04        	bra	$122d <pickFile+0x25b>
    1229: 49 80        	eor	#$80
    122b: 80 02        	bra	$122f <pickFile+0x25d>
    122d: 80 00        	bra	$122f <pickFile+0x25d>
    122f: aa           	tax
    1230: 10 03        	bpl	$1235 <pickFile+0x263>
    1232: 4c 04 15     	jmp	$1504 <pickFile+0x532>
    1235: 18           	clc
    1236: a5 10        	lda	$10                     ; 0x10 <__rc0>
    1238: 69 13        	adc	#$13
    123a: 85 12        	sta	$12                     ; 0x12 <__rc2>
    123c: a5 11        	lda	$11                     ; 0x11 <__rc1>
    123e: 69 00        	adc	#$0
    1240: 85 13        	sta	$13                     ; 0x13 <__rc3>
    1242: b2 12        	lda	($12)                   ; 0x12 <__rc2>
    1244: 85 14        	sta	$14                     ; 0x14 <__rc4>
    1246: a0 01        	ldy	#$1
    1248: b1 12        	lda	($12),y                 ; 0x12 <__rc2>
    124a: aa           	tax
    124b: 18           	clc
    124c: a5 14        	lda	$14                     ; 0x14 <__rc4>
    124e: 69 fe        	adc	#$fe
    1250: 85 12        	sta	$12                     ; 0x12 <__rc2>
    1252: 8a           	txa
    1253: 69 2f        	adc	#$2f
    1255: 85 13        	sta	$13                     ; 0x13 <__rc3>
    1257: b2 12        	lda	($12)                   ; 0x12 <__rc2>
    1259: 85 14        	sta	$14                     ; 0x14 <__rc4>
    125b: b1 12        	lda	($12),y                 ; 0x12 <__rc2>
    125d: a6 14        	ldx	$14                     ; 0x14 <__rc4>
    125f: e0 01        	cpx	#$1
    1261: e9 00        	sbc	#$0
    1263: 70 02        	bvs	$1267 <pickFile+0x295>
    1265: 80 04        	bra	$126b <pickFile+0x299>
    1267: 49 80        	eor	#$80
    1269: 80 02        	bra	$126d <pickFile+0x29b>
    126b: 80 00        	bra	$126d <pickFile+0x29b>
    126d: aa           	tax
    126e: 10 03        	bpl	$1273 <pickFile+0x2a1>
    1270: 4c 96 13     	jmp	$1396 <pickFile+0x3c4>
    1273: 18           	clc
    1274: a5 10        	lda	$10                     ; 0x10 <__rc0>
    1276: 69 13        	adc	#$13
    1278: 85 24        	sta	$24                     ; 0x24 <__rc20>
    127a: a5 11        	lda	$11                     ; 0x11 <__rc1>
    127c: 69 00        	adc	#$0
    127e: 85 25        	sta	$25                     ; 0x25 <__rc21>
    1280: b2 24        	lda	($24)                   ; 0x24 <__rc20>
    1282: 85 12        	sta	$12                     ; 0x12 <__rc2>
    1284: a0 01        	ldy	#$1
    1286: b1 24        	lda	($24),y                 ; 0x24 <__rc20>
    1288: 85 13        	sta	$13                     ; 0x13 <__rc3>
    128a: b2 12        	lda	($12)                   ; 0x12 <__rc2>
    128c: 85 14        	sta	$14                     ; 0x14 <__rc4>
    128e: b2 24        	lda	($24)                   ; 0x24 <__rc20>
    1290: 85 12        	sta	$12                     ; 0x12 <__rc2>
    1292: b1 24        	lda	($24),y                 ; 0x24 <__rc20>
    1294: 85 13        	sta	$13                     ; 0x13 <__rc3>
    1296: b2 24        	lda	($24)                   ; 0x24 <__rc20>
    1298: 85 16        	sta	$16                     ; 0x16 <__rc6>
    129a: b1 24        	lda	($24),y                 ; 0x24 <__rc20>
    129c: 85 15        	sta	$15                     ; 0x15 <__rc5>
    129e: 18           	clc
    129f: a5 16        	lda	$16                     ; 0x16 <__rc6>
    12a1: 69 fe        	adc	#$fe
    12a3: aa           	tax
    12a4: a5 15        	lda	$15                     ; 0x15 <__rc5>
    12a6: 69 2f        	adc	#$2f
    12a8: 85 15        	sta	$15                     ; 0x15 <__rc5>
    12aa: b1 12        	lda	($12),y                 ; 0x12 <__rc2>
    12ac: 86 12        	stx	$12                     ; 0x12 <__rc2>
    12ae: a6 15        	ldx	$15                     ; 0x15 <__rc5>
    12b0: 86 13        	stx	$13                     ; 0x13 <__rc3>
    12b2: 18           	clc
    12b3: 72 12        	adc	($12)                   ; 0x12 <__rc2>
    12b5: aa           	tax
    12b6: a5 14        	lda	$14                     ; 0x14 <__rc4>
    12b8: 20 cd 37     	jsr	$37cd <textGotoXY>
    12bb: a9 20        	lda	#$20
    12bd: 92 10        	sta	($10)                   ; 0x10 <__rc0>
    12bf: a9 00        	lda	#$0
    12c1: a0 01        	ldy	#$1
    12c3: 91 10        	sta	($10),y                 ; 0x10 <__rc0>
    12c5: a2 a0        	ldx	#$a0
    12c7: 86 12        	stx	$12                     ; 0x12 <__rc2>
    12c9: a2 51        	ldx	#$51
    12cb: 86 13        	stx	$13                     ; 0x13 <__rc3>
    12cd: a5 12        	lda	$12                     ; 0x12 <__rc2>
    12cf: c8           	iny
    12d0: 91 10        	sta	($10),y                 ; 0x10 <__rc0>
    12d2: a5 13        	lda	$13                     ; 0x13 <__rc3>
    12d4: c8           	iny
    12d5: 91 10        	sta	($10),y                 ; 0x10 <__rc0>
    12d7: 20 13 49     	jsr	$4913 <printf>
    12da: b2 24        	lda	($24)                   ; 0x24 <__rc20>
    12dc: 85 13        	sta	$13                     ; 0x13 <__rc3>
    12de: a0 01        	ldy	#$1
    12e0: b1 24        	lda	($24),y                 ; 0x24 <__rc20>
    12e2: 85 12        	sta	$12                     ; 0x12 <__rc2>
    12e4: 18           	clc
    12e5: a5 13        	lda	$13                     ; 0x13 <__rc3>
    12e7: 69 fc        	adc	#$fc
    12e9: aa           	tax
    12ea: a5 12        	lda	$12                     ; 0x12 <__rc2>
    12ec: 69 2f        	adc	#$2f
    12ee: 86 12        	stx	$12                     ; 0x12 <__rc2>
    12f0: 85 13        	sta	$13                     ; 0x13 <__rc3>
    12f2: b2 12        	lda	($12)                   ; 0x12 <__rc2>
    12f4: aa           	tax
    12f5: b1 12        	lda	($12),y                 ; 0x12 <__rc2>
    12f7: 85 14        	sta	$14                     ; 0x14 <__rc4>
    12f9: 8a           	txa
    12fa: 3a           	dec
    12fb: c9 ff        	cmp	#$ff
    12fd: f0 03        	beq	$1302 <pickFile+0x330>
    12ff: 4c 07 13     	jmp	$1307 <pickFile+0x335>
    1302: c6 14        	dec	$14                     ; 0x14 <__rc4>
    1304: 4c 07 13     	jmp	$1307 <pickFile+0x335>
    1307: 92 12        	sta	($12)                   ; 0x12 <__rc2>
    1309: a5 14        	lda	$14                     ; 0x14 <__rc4>
    130b: 91 12        	sta	($12),y                 ; 0x12 <__rc2>
    130d: b2 24        	lda	($24)                   ; 0x24 <__rc20>
    130f: 85 13        	sta	$13                     ; 0x13 <__rc3>
    1311: b1 24        	lda	($24),y                 ; 0x24 <__rc20>
    1313: 85 12        	sta	$12                     ; 0x12 <__rc2>
    1315: 18           	clc
    1316: a5 13        	lda	$13                     ; 0x13 <__rc3>
    1318: 69 fe        	adc	#$fe
    131a: aa           	tax
    131b: a5 12        	lda	$12                     ; 0x12 <__rc2>
    131d: 69 2f        	adc	#$2f
    131f: 86 12        	stx	$12                     ; 0x12 <__rc2>
    1321: 85 13        	sta	$13                     ; 0x13 <__rc3>
    1323: b2 12        	lda	($12)                   ; 0x12 <__rc2>
    1325: aa           	tax
    1326: b1 12        	lda	($12),y                 ; 0x12 <__rc2>
    1328: 85 14        	sta	$14                     ; 0x14 <__rc4>
    132a: 8a           	txa
    132b: 3a           	dec
    132c: c9 ff        	cmp	#$ff
    132e: f0 03        	beq	$1333 <pickFile+0x361>
    1330: 4c 38 13     	jmp	$1338 <pickFile+0x366>
    1333: c6 14        	dec	$14                     ; 0x14 <__rc4>
    1335: 4c 38 13     	jmp	$1338 <pickFile+0x366>
    1338: 92 12        	sta	($12)                   ; 0x12 <__rc2>
    133a: a5 14        	lda	$14                     ; 0x14 <__rc4>
    133c: 91 12        	sta	($12),y                 ; 0x12 <__rc2>
    133e: b2 24        	lda	($24)                   ; 0x24 <__rc20>
    1340: 85 12        	sta	$12                     ; 0x12 <__rc2>
    1342: b1 24        	lda	($24),y                 ; 0x24 <__rc20>
    1344: 85 13        	sta	$13                     ; 0x13 <__rc3>
    1346: b2 24        	lda	($24)                   ; 0x24 <__rc20>
    1348: 85 14        	sta	$14                     ; 0x14 <__rc4>
    134a: b1 24        	lda	($24),y                 ; 0x24 <__rc20>
    134c: 85 15        	sta	$15                     ; 0x15 <__rc5>
    134e: b2 24        	lda	($24)                   ; 0x24 <__rc20>
    1350: 85 16        	sta	$16                     ; 0x16 <__rc6>
    1352: b1 24        	lda	($24),y                 ; 0x24 <__rc20>
    1354: 85 18        	sta	$18                     ; 0x18 <__rc8>
    1356: a0 01        	ldy	#$1
    1358: 18           	clc
    1359: a5 16        	lda	$16                     ; 0x16 <__rc6>
    135b: 69 fe        	adc	#$fe
    135d: 85 17        	sta	$17                     ; 0x17 <__rc7>
    135f: a5 18        	lda	$18                     ; 0x18 <__rc8>
    1361: 69 2f        	adc	#$2f
    1363: aa           	tax
    1364: b2 12        	lda	($12)                   ; 0x12 <__rc2>
    1366: 85 16        	sta	$16                     ; 0x16 <__rc6>
    1368: a5 17        	lda	$17                     ; 0x17 <__rc7>
    136a: 85 12        	sta	$12                     ; 0x12 <__rc2>
    136c: b1 14        	lda	($14),y                 ; 0x14 <__rc4>
    136e: 84 24        	sty	$24                     ; 0x24 <__rc20>
    1370: 86 13        	stx	$13                     ; 0x13 <__rc3>
    1372: 18           	clc
    1373: 72 12        	adc	($12)                   ; 0x12 <__rc2>
    1375: aa           	tax
    1376: a5 16        	lda	$16                     ; 0x16 <__rc6>
    1378: 20 cd 37     	jsr	$37cd <textGotoXY>
    137b: a9 fa        	lda	#$fa
    137d: 92 10        	sta	($10)                   ; 0x10 <__rc0>
    137f: a9 00        	lda	#$0
    1381: a4 24        	ldy	$24                     ; 0x24 <__rc20>
    1383: 91 10        	sta	($10),y                 ; 0x10 <__rc0>
    1385: a0 02        	ldy	#$2
    1387: b1 10        	lda	($10),y                 ; 0x10 <__rc0>
    1389: 85 12        	sta	$12                     ; 0x12 <__rc2>
    138b: c8           	iny
    138c: b1 10        	lda	($10),y                 ; 0x10 <__rc0>
    138e: 85 13        	sta	$13                     ; 0x13 <__rc3>
    1390: 20 13 49     	jsr	$4913 <printf>
    1393: 4c 04 15     	jmp	$1504 <pickFile+0x532>
    1396: 18           	clc
    1397: a5 10        	lda	$10                     ; 0x10 <__rc0>
    1399: 69 13        	adc	#$13
    139b: 85 12        	sta	$12                     ; 0x12 <__rc2>
    139d: a5 11        	lda	$11                     ; 0x11 <__rc1>
    139f: 69 00        	adc	#$0
    13a1: 85 13        	sta	$13                     ; 0x13 <__rc3>
    13a3: b2 12        	lda	($12)                   ; 0x12 <__rc2>
    13a5: 85 14        	sta	$14                     ; 0x14 <__rc4>
    13a7: a0 01        	ldy	#$1
    13a9: b1 12        	lda	($12),y                 ; 0x12 <__rc2>
    13ab: aa           	tax
    13ac: 18           	clc
    13ad: a5 14        	lda	$14                     ; 0x14 <__rc4>
    13af: 69 fe        	adc	#$fe
    13b1: 85 12        	sta	$12                     ; 0x12 <__rc2>
    13b3: 8a           	txa
    13b4: 69 2f        	adc	#$2f
    13b6: 85 13        	sta	$13                     ; 0x13 <__rc3>
    13b8: b2 12        	lda	($12)                   ; 0x12 <__rc2>
    13ba: 85 14        	sta	$14                     ; 0x14 <__rc4>
    13bc: b1 12        	lda	($12),y                 ; 0x12 <__rc2>
    13be: f0 03        	beq	$13c3 <pickFile+0x3f1>
    13c0: 4c 04 15     	jmp	$1504 <pickFile+0x532>
    13c3: a5 14        	lda	$14                     ; 0x14 <__rc4>
    13c5: f0 03        	beq	$13ca <pickFile+0x3f8>
    13c7: 4c 04 15     	jmp	$1504 <pickFile+0x532>
    13ca: 18           	clc
    13cb: a5 10        	lda	$10                     ; 0x10 <__rc0>
    13cd: 69 13        	adc	#$13
    13cf: 85 24        	sta	$24                     ; 0x24 <__rc20>
    13d1: a5 11        	lda	$11                     ; 0x11 <__rc1>
    13d3: 69 00        	adc	#$0
    13d5: 85 25        	sta	$25                     ; 0x25 <__rc21>
    13d7: b2 24        	lda	($24)                   ; 0x24 <__rc20>
    13d9: 85 12        	sta	$12                     ; 0x12 <__rc2>
    13db: a0 01        	ldy	#$1
    13dd: b1 24        	lda	($24),y                 ; 0x24 <__rc20>
    13df: 85 13        	sta	$13                     ; 0x13 <__rc3>
    13e1: b2 12        	lda	($12)                   ; 0x12 <__rc2>
    13e3: 85 14        	sta	$14                     ; 0x14 <__rc4>
    13e5: b2 24        	lda	($24)                   ; 0x24 <__rc20>
    13e7: 85 12        	sta	$12                     ; 0x12 <__rc2>
    13e9: b1 24        	lda	($24),y                 ; 0x24 <__rc20>
    13eb: 85 13        	sta	$13                     ; 0x13 <__rc3>
    13ed: b2 24        	lda	($24)                   ; 0x24 <__rc20>
    13ef: 85 16        	sta	$16                     ; 0x16 <__rc6>
    13f1: b1 24        	lda	($24),y                 ; 0x24 <__rc20>
    13f3: 85 15        	sta	$15                     ; 0x15 <__rc5>
    13f5: 18           	clc
    13f6: a5 16        	lda	$16                     ; 0x16 <__rc6>
    13f8: 69 fe        	adc	#$fe
    13fa: aa           	tax
    13fb: a5 15        	lda	$15                     ; 0x15 <__rc5>
    13fd: 69 2f        	adc	#$2f
    13ff: 85 15        	sta	$15                     ; 0x15 <__rc5>
    1401: b1 12        	lda	($12),y                 ; 0x12 <__rc2>
    1403: 86 12        	stx	$12                     ; 0x12 <__rc2>
    1405: a6 15        	ldx	$15                     ; 0x15 <__rc5>
    1407: 86 13        	stx	$13                     ; 0x13 <__rc3>
    1409: 18           	clc
    140a: 72 12        	adc	($12)                   ; 0x12 <__rc2>
    140c: aa           	tax
    140d: a5 14        	lda	$14                     ; 0x14 <__rc4>
    140f: 20 cd 37     	jsr	$37cd <textGotoXY>
    1412: a9 20        	lda	#$20
    1414: 92 10        	sta	($10)                   ; 0x10 <__rc0>
    1416: a9 00        	lda	#$0
    1418: a0 01        	ldy	#$1
    141a: 91 10        	sta	($10),y                 ; 0x10 <__rc0>
    141c: a2 a0        	ldx	#$a0
    141e: 86 12        	stx	$12                     ; 0x12 <__rc2>
    1420: a2 51        	ldx	#$51
    1422: 86 13        	stx	$13                     ; 0x13 <__rc3>
    1424: a5 12        	lda	$12                     ; 0x12 <__rc2>
    1426: a0 08        	ldy	#$8
    1428: 91 10        	sta	($10),y                 ; 0x10 <__rc0>
    142a: a5 13        	lda	$13                     ; 0x13 <__rc3>
    142c: c8           	iny
    142d: 91 10        	sta	($10),y                 ; 0x10 <__rc0>
    142f: 20 13 49     	jsr	$4913 <printf>
    1432: b2 24        	lda	($24)                   ; 0x24 <__rc20>
    1434: 85 13        	sta	$13                     ; 0x13 <__rc3>
    1436: a0 01        	ldy	#$1
    1438: b1 24        	lda	($24),y                 ; 0x24 <__rc20>
    143a: 85 12        	sta	$12                     ; 0x12 <__rc2>
    143c: 18           	clc
    143d: a5 13        	lda	$13                     ; 0x13 <__rc3>
    143f: 69 fe        	adc	#$fe
    1441: aa           	tax
    1442: a5 12        	lda	$12                     ; 0x12 <__rc2>
    1444: 69 2f        	adc	#$2f
    1446: 86 12        	stx	$12                     ; 0x12 <__rc2>
    1448: 85 13        	sta	$13                     ; 0x13 <__rc3>
    144a: a9 0f        	lda	#$f
    144c: 92 12        	sta	($12)                   ; 0x12 <__rc2>
    144e: a9 00        	lda	#$0
    1450: 91 12        	sta	($12),y                 ; 0x12 <__rc2>
    1452: b2 24        	lda	($24)                   ; 0x24 <__rc20>
    1454: 85 13        	sta	$13                     ; 0x13 <__rc3>
    1456: b1 24        	lda	($24),y                 ; 0x24 <__rc20>
    1458: 85 12        	sta	$12                     ; 0x12 <__rc2>
    145a: 18           	clc
    145b: a5 13        	lda	$13                     ; 0x13 <__rc3>
    145d: 69 00        	adc	#$0
    145f: aa           	tax
    1460: a5 12        	lda	$12                     ; 0x12 <__rc2>
    1462: 69 30        	adc	#$30
    1464: 86 12        	stx	$12                     ; 0x12 <__rc2>
    1466: 85 13        	sta	$13                     ; 0x13 <__rc3>
    1468: b2 12        	lda	($12)                   ; 0x12 <__rc2>
    146a: 85 15        	sta	$15                     ; 0x15 <__rc5>
    146c: b1 12        	lda	($12),y                 ; 0x12 <__rc2>
    146e: 85 14        	sta	$14                     ; 0x14 <__rc4>
    1470: 18           	clc
    1471: a5 15        	lda	$15                     ; 0x15 <__rc5>
    1473: 69 f1        	adc	#$f1
    1475: 85 15        	sta	$15                     ; 0x15 <__rc5>
    1477: a5 14        	lda	$14                     ; 0x14 <__rc4>
    1479: 69 ff        	adc	#$ff
    147b: aa           	tax
    147c: a5 15        	lda	$15                     ; 0x15 <__rc5>
    147e: 92 12        	sta	($12)                   ; 0x12 <__rc2>
    1480: 8a           	txa
    1481: 91 12        	sta	($12),y                 ; 0x12 <__rc2>
    1483: b2 24        	lda	($24)                   ; 0x24 <__rc20>
    1485: 85 12        	sta	$12                     ; 0x12 <__rc2>
    1487: b1 24        	lda	($24),y                 ; 0x24 <__rc20>
    1489: 85 13        	sta	$13                     ; 0x13 <__rc3>
    148b: b2 24        	lda	($24)                   ; 0x24 <__rc20>
    148d: 85 15        	sta	$15                     ; 0x15 <__rc5>
    148f: b1 24        	lda	($24),y                 ; 0x24 <__rc20>
    1491: 85 14        	sta	$14                     ; 0x14 <__rc4>
    1493: a0 01        	ldy	#$1
    1495: 18           	clc
    1496: a5 15        	lda	$15                     ; 0x15 <__rc5>
    1498: 69 00        	adc	#$0
    149a: aa           	tax
    149b: a5 14        	lda	$14                     ; 0x14 <__rc4>
    149d: 69 30        	adc	#$30
    149f: 86 14        	stx	$14                     ; 0x14 <__rc4>
    14a1: 85 15        	sta	$15                     ; 0x15 <__rc5>
    14a3: b2 14        	lda	($14)                   ; 0x14 <__rc4>
    14a5: 85 16        	sta	$16                     ; 0x16 <__rc6>
    14a7: b1 14        	lda	($14),y                 ; 0x14 <__rc4>
    14a9: aa           	tax
    14aa: a5 16        	lda	$16                     ; 0x16 <__rc6>
    14ac: 20 5c 0c     	jsr	$c5c <displayFileList>
    14af: b2 24        	lda	($24)                   ; 0x24 <__rc20>
    14b1: 85 12        	sta	$12                     ; 0x12 <__rc2>
    14b3: a0 01        	ldy	#$1
    14b5: b1 24        	lda	($24),y                 ; 0x24 <__rc20>
    14b7: 85 13        	sta	$13                     ; 0x13 <__rc3>
    14b9: b2 24        	lda	($24)                   ; 0x24 <__rc20>
    14bb: 85 14        	sta	$14                     ; 0x14 <__rc4>
    14bd: b1 24        	lda	($24),y                 ; 0x24 <__rc20>
    14bf: 85 15        	sta	$15                     ; 0x15 <__rc5>
    14c1: b2 24        	lda	($24)                   ; 0x24 <__rc20>
    14c3: 85 16        	sta	$16                     ; 0x16 <__rc6>
    14c5: b1 24        	lda	($24),y                 ; 0x24 <__rc20>
    14c7: 85 18        	sta	$18                     ; 0x18 <__rc8>
    14c9: 18           	clc
    14ca: a5 16        	lda	$16                     ; 0x16 <__rc6>
    14cc: 69 fe        	adc	#$fe
    14ce: 85 17        	sta	$17                     ; 0x17 <__rc7>
    14d0: a5 18        	lda	$18                     ; 0x18 <__rc8>
    14d2: 69 2f        	adc	#$2f
    14d4: aa           	tax
    14d5: b2 12        	lda	($12)                   ; 0x12 <__rc2>
    14d7: 85 16        	sta	$16                     ; 0x16 <__rc6>
    14d9: a5 17        	lda	$17                     ; 0x17 <__rc7>
    14db: 85 12        	sta	$12                     ; 0x12 <__rc2>
    14dd: b1 14        	lda	($14),y                 ; 0x14 <__rc4>
    14df: 84 24        	sty	$24                     ; 0x24 <__rc20>
    14e1: 86 13        	stx	$13                     ; 0x13 <__rc3>
    14e3: 18           	clc
    14e4: 72 12        	adc	($12)                   ; 0x12 <__rc2>
    14e6: aa           	tax
    14e7: a5 16        	lda	$16                     ; 0x16 <__rc6>
    14e9: 20 cd 37     	jsr	$37cd <textGotoXY>
    14ec: a9 fa        	lda	#$fa
    14ee: 92 10        	sta	($10)                   ; 0x10 <__rc0>
    14f0: a9 00        	lda	#$0
    14f2: a4 24        	ldy	$24                     ; 0x24 <__rc20>
    14f4: 91 10        	sta	($10),y                 ; 0x10 <__rc0>
    14f6: a0 08        	ldy	#$8
    14f8: b1 10        	lda	($10),y                 ; 0x10 <__rc0>
    14fa: 85 12        	sta	$12                     ; 0x12 <__rc2>
    14fc: c8           	iny
    14fd: b1 10        	lda	($10),y                 ; 0x10 <__rc0>
    14ff: 85 13        	sta	$13                     ; 0x13 <__rc3>
    1501: 20 13 49     	jsr	$4913 <printf>
    1504: 4c 5d 1c     	jmp	$1c5d <pickFile+0xc8b>
    1507: 18           	clc
    1508: a5 10        	lda	$10                     ; 0x10 <__rc0>
    150a: 69 13        	adc	#$13
    150c: 85 12        	sta	$12                     ; 0x12 <__rc2>
    150e: a5 11        	lda	$11                     ; 0x11 <__rc1>
    1510: 69 00        	adc	#$0
    1512: 85 13        	sta	$13                     ; 0x13 <__rc3>
    1514: b2 12        	lda	($12)                   ; 0x12 <__rc2>
    1516: 85 14        	sta	$14                     ; 0x14 <__rc4>
    1518: a0 01        	ldy	#$1
    151a: b1 12        	lda	($12),y                 ; 0x12 <__rc2>
    151c: aa           	tax
    151d: 18           	clc
    151e: a5 14        	lda	$14                     ; 0x14 <__rc4>
    1520: 69 fc        	adc	#$fc
    1522: 85 14        	sta	$14                     ; 0x14 <__rc4>
    1524: 8a           	txa
    1525: 69 2f        	adc	#$2f
    1527: 85 15        	sta	$15                     ; 0x15 <__rc5>
    1529: b2 14        	lda	($14)                   ; 0x14 <__rc4>
    152b: 85 16        	sta	$16                     ; 0x16 <__rc6>
    152d: b2 12        	lda	($12)                   ; 0x12 <__rc2>
    152f: 85 17        	sta	$17                     ; 0x17 <__rc7>
    1531: b1 12        	lda	($12),y                 ; 0x12 <__rc2>
    1533: 85 12        	sta	$12                     ; 0x12 <__rc2>
    1535: 18           	clc
    1536: a5 17        	lda	$17                     ; 0x17 <__rc7>
    1538: 69 fa        	adc	#$fa
    153a: aa           	tax
    153b: a5 12        	lda	$12                     ; 0x12 <__rc2>
    153d: 69 2f        	adc	#$2f
    153f: 85 13        	sta	$13                     ; 0x13 <__rc3>
    1541: b1 14        	lda	($14),y                 ; 0x14 <__rc4>
    1543: 85 14        	sta	$14                     ; 0x14 <__rc4>
    1545: 86 12        	stx	$12                     ; 0x12 <__rc2>
    1547: b2 12        	lda	($12)                   ; 0x12 <__rc2>
    1549: aa           	tax
    154a: b1 12        	lda	($12),y                 ; 0x12 <__rc2>
    154c: 85 12        	sta	$12                     ; 0x12 <__rc2>
    154e: a5 14        	lda	$14                     ; 0x14 <__rc4>
    1550: 86 13        	stx	$13                     ; 0x13 <__rc3>
    1552: a2 ff        	ldx	#$ff
    1554: c6 13        	dec	$13                     ; 0x13 <__rc3>
    1556: e4 13        	cpx	$13                     ; 0x13 <__rc3>
    1558: f0 03        	beq	$155d <pickFile+0x58b>
    155a: 4c 62 15     	jmp	$1562 <pickFile+0x590>
    155d: c6 12        	dec	$12                     ; 0x12 <__rc2>
    155f: 4c 62 15     	jmp	$1562 <pickFile+0x590>
    1562: a6 16        	ldx	$16                     ; 0x16 <__rc6>
    1564: e4 13        	cpx	$13                     ; 0x13 <__rc3>
    1566: e5 12        	sbc	$12                     ; 0x12 <__rc2>
    1568: 70 02        	bvs	$156c <pickFile+0x59a>
    156a: 80 04        	bra	$1570 <pickFile+0x59e>
    156c: 49 80        	eor	#$80
    156e: 80 02        	bra	$1572 <pickFile+0x5a0>
    1570: 80 00        	bra	$1572 <pickFile+0x5a0>
    1572: aa           	tax
    1573: 30 03        	bmi	$1578 <pickFile+0x5a6>
    1575: 4c a2 18     	jmp	$18a2 <pickFile+0x8d0>
    1578: 18           	clc
    1579: a5 10        	lda	$10                     ; 0x10 <__rc0>
    157b: 69 13        	adc	#$13
    157d: 85 12        	sta	$12                     ; 0x12 <__rc2>
    157f: a5 11        	lda	$11                     ; 0x11 <__rc1>
    1581: 69 00        	adc	#$0
    1583: 85 13        	sta	$13                     ; 0x13 <__rc3>
    1585: b2 12        	lda	($12)                   ; 0x12 <__rc2>
    1587: 85 14        	sta	$14                     ; 0x14 <__rc4>
    1589: a0 01        	ldy	#$1
    158b: b1 12        	lda	($12),y                 ; 0x12 <__rc2>
    158d: aa           	tax
    158e: 18           	clc
    158f: a5 14        	lda	$14                     ; 0x14 <__rc4>
    1591: 69 fe        	adc	#$fe
    1593: 85 12        	sta	$12                     ; 0x12 <__rc2>
    1595: 8a           	txa
    1596: 69 2f        	adc	#$2f
    1598: 85 13        	sta	$13                     ; 0x13 <__rc3>
    159a: b2 12        	lda	($12)                   ; 0x12 <__rc2>
    159c: 85 14        	sta	$14                     ; 0x14 <__rc4>
    159e: b1 12        	lda	($12),y                 ; 0x12 <__rc2>
    15a0: a6 14        	ldx	$14                     ; 0x14 <__rc4>
    15a2: e0 0f        	cpx	#$f
    15a4: e9 00        	sbc	#$0
    15a6: 70 02        	bvs	$15aa <pickFile+0x5d8>
    15a8: 80 04        	bra	$15ae <pickFile+0x5dc>
    15aa: 49 80        	eor	#$80
    15ac: 80 02        	bra	$15b0 <pickFile+0x5de>
    15ae: 80 00        	bra	$15b0 <pickFile+0x5de>
    15b0: aa           	tax
    15b1: 30 03        	bmi	$15b6 <pickFile+0x5e4>
    15b3: 4c d4 16     	jmp	$16d4 <pickFile+0x702>
    15b6: 18           	clc
    15b7: a5 10        	lda	$10                     ; 0x10 <__rc0>
    15b9: 69 13        	adc	#$13
    15bb: 85 24        	sta	$24                     ; 0x24 <__rc20>
    15bd: a5 11        	lda	$11                     ; 0x11 <__rc1>
    15bf: 69 00        	adc	#$0
    15c1: 85 25        	sta	$25                     ; 0x25 <__rc21>
    15c3: b2 24        	lda	($24)                   ; 0x24 <__rc20>
    15c5: 85 12        	sta	$12                     ; 0x12 <__rc2>
    15c7: a0 01        	ldy	#$1
    15c9: b1 24        	lda	($24),y                 ; 0x24 <__rc20>
    15cb: 85 13        	sta	$13                     ; 0x13 <__rc3>
    15cd: b2 12        	lda	($12)                   ; 0x12 <__rc2>
    15cf: 85 14        	sta	$14                     ; 0x14 <__rc4>
    15d1: b2 24        	lda	($24)                   ; 0x24 <__rc20>
    15d3: 85 12        	sta	$12                     ; 0x12 <__rc2>
    15d5: b1 24        	lda	($24),y                 ; 0x24 <__rc20>
    15d7: 85 13        	sta	$13                     ; 0x13 <__rc3>
    15d9: b2 24        	lda	($24)                   ; 0x24 <__rc20>
    15db: 85 16        	sta	$16                     ; 0x16 <__rc6>
    15dd: b1 24        	lda	($24),y                 ; 0x24 <__rc20>
    15df: 85 15        	sta	$15                     ; 0x15 <__rc5>
    15e1: 18           	clc
    15e2: a5 16        	lda	$16                     ; 0x16 <__rc6>
    15e4: 69 fe        	adc	#$fe
    15e6: aa           	tax
    15e7: a5 15        	lda	$15                     ; 0x15 <__rc5>
    15e9: 69 2f        	adc	#$2f
    15eb: 85 15        	sta	$15                     ; 0x15 <__rc5>
    15ed: b1 12        	lda	($12),y                 ; 0x12 <__rc2>
    15ef: 86 12        	stx	$12                     ; 0x12 <__rc2>
    15f1: a6 15        	ldx	$15                     ; 0x15 <__rc5>
    15f3: 86 13        	stx	$13                     ; 0x13 <__rc3>
    15f5: 18           	clc
    15f6: 72 12        	adc	($12)                   ; 0x12 <__rc2>
    15f8: aa           	tax
    15f9: a5 14        	lda	$14                     ; 0x14 <__rc4>
    15fb: 20 cd 37     	jsr	$37cd <textGotoXY>
    15fe: a9 20        	lda	#$20
    1600: 92 10        	sta	($10)                   ; 0x10 <__rc0>
    1602: a9 00        	lda	#$0
    1604: a0 01        	ldy	#$1
    1606: 91 10        	sta	($10),y                 ; 0x10 <__rc0>
    1608: a2 a0        	ldx	#$a0
    160a: 86 12        	stx	$12                     ; 0x12 <__rc2>
    160c: a2 51        	ldx	#$51
    160e: 86 13        	stx	$13                     ; 0x13 <__rc3>
    1610: a5 12        	lda	$12                     ; 0x12 <__rc2>
    1612: a0 04        	ldy	#$4
    1614: 91 10        	sta	($10),y                 ; 0x10 <__rc0>
    1616: a5 13        	lda	$13                     ; 0x13 <__rc3>
    1618: c8           	iny
    1619: 91 10        	sta	($10),y                 ; 0x10 <__rc0>
    161b: 20 13 49     	jsr	$4913 <printf>
    161e: b2 24        	lda	($24)                   ; 0x24 <__rc20>
    1620: 85 13        	sta	$13                     ; 0x13 <__rc3>
    1622: a0 01        	ldy	#$1
    1624: b1 24        	lda	($24),y                 ; 0x24 <__rc20>
    1626: 85 12        	sta	$12                     ; 0x12 <__rc2>
    1628: 18           	clc
    1629: a5 13        	lda	$13                     ; 0x13 <__rc3>
    162b: 69 fc        	adc	#$fc
    162d: aa           	tax
    162e: a5 12        	lda	$12                     ; 0x12 <__rc2>
    1630: 69 2f        	adc	#$2f
    1632: 86 12        	stx	$12                     ; 0x12 <__rc2>
    1634: 85 13        	sta	$13                     ; 0x13 <__rc3>
    1636: b2 12        	lda	($12)                   ; 0x12 <__rc2>
    1638: 85 14        	sta	$14                     ; 0x14 <__rc4>
    163a: b1 12        	lda	($12),y                 ; 0x12 <__rc2>
    163c: aa           	tax
    163d: a5 14        	lda	$14                     ; 0x14 <__rc4>
    163f: 1a           	inc
    1640: f0 03        	beq	$1645 <pickFile+0x673>
    1642: 4c 49 16     	jmp	$1649 <pickFile+0x677>
    1645: e8           	inx
    1646: 4c 49 16     	jmp	$1649 <pickFile+0x677>
    1649: 92 12        	sta	($12)                   ; 0x12 <__rc2>
    164b: 8a           	txa
    164c: 91 12        	sta	($12),y                 ; 0x12 <__rc2>
    164e: b2 24        	lda	($24)                   ; 0x24 <__rc20>
    1650: 85 13        	sta	$13                     ; 0x13 <__rc3>
    1652: b1 24        	lda	($24),y                 ; 0x24 <__rc20>
    1654: 85 12        	sta	$12                     ; 0x12 <__rc2>
    1656: 18           	clc
    1657: a5 13        	lda	$13                     ; 0x13 <__rc3>
    1659: 69 fe        	adc	#$fe
    165b: aa           	tax
    165c: a5 12        	lda	$12                     ; 0x12 <__rc2>
    165e: 69 2f        	adc	#$2f
    1660: 86 12        	stx	$12                     ; 0x12 <__rc2>
    1662: 85 13        	sta	$13                     ; 0x13 <__rc3>
    1664: b2 12        	lda	($12)                   ; 0x12 <__rc2>
    1666: 85 14        	sta	$14                     ; 0x14 <__rc4>
    1668: b1 12        	lda	($12),y                 ; 0x12 <__rc2>
    166a: aa           	tax
    166b: a5 14        	lda	$14                     ; 0x14 <__rc4>
    166d: 1a           	inc
    166e: f0 03        	beq	$1673 <pickFile+0x6a1>
    1670: 4c 77 16     	jmp	$1677 <pickFile+0x6a5>
    1673: e8           	inx
    1674: 4c 77 16     	jmp	$1677 <pickFile+0x6a5>
    1677: 92 12        	sta	($12)                   ; 0x12 <__rc2>
    1679: 8a           	txa
    167a: 91 12        	sta	($12),y                 ; 0x12 <__rc2>
    167c: b2 24        	lda	($24)                   ; 0x24 <__rc20>
    167e: 85 12        	sta	$12                     ; 0x12 <__rc2>
    1680: b1 24        	lda	($24),y                 ; 0x24 <__rc20>
    1682: 85 13        	sta	$13                     ; 0x13 <__rc3>
    1684: b2 24        	lda	($24)                   ; 0x24 <__rc20>
    1686: 85 14        	sta	$14                     ; 0x14 <__rc4>
    1688: b1 24        	lda	($24),y                 ; 0x24 <__rc20>
    168a: 85 15        	sta	$15                     ; 0x15 <__rc5>
    168c: b2 24        	lda	($24)                   ; 0x24 <__rc20>
    168e: 85 16        	sta	$16                     ; 0x16 <__rc6>
    1690: b1 24        	lda	($24),y                 ; 0x24 <__rc20>
    1692: 85 18        	sta	$18                     ; 0x18 <__rc8>
    1694: a0 01        	ldy	#$1
    1696: 18           	clc
    1697: a5 16        	lda	$16                     ; 0x16 <__rc6>
    1699: 69 fe        	adc	#$fe
    169b: 85 17        	sta	$17                     ; 0x17 <__rc7>
    169d: a5 18        	lda	$18                     ; 0x18 <__rc8>
    169f: 69 2f        	adc	#$2f
    16a1: aa           	tax
    16a2: b2 12        	lda	($12)                   ; 0x12 <__rc2>
    16a4: 85 16        	sta	$16                     ; 0x16 <__rc6>
    16a6: a5 17        	lda	$17                     ; 0x17 <__rc7>
    16a8: 85 12        	sta	$12                     ; 0x12 <__rc2>
    16aa: b1 14        	lda	($14),y                 ; 0x14 <__rc4>
    16ac: 84 24        	sty	$24                     ; 0x24 <__rc20>
    16ae: 86 13        	stx	$13                     ; 0x13 <__rc3>
    16b0: 18           	clc
    16b1: 72 12        	adc	($12)                   ; 0x12 <__rc2>
    16b3: aa           	tax
    16b4: a5 16        	lda	$16                     ; 0x16 <__rc6>
    16b6: 20 cd 37     	jsr	$37cd <textGotoXY>
    16b9: a9 fa        	lda	#$fa
    16bb: 92 10        	sta	($10)                   ; 0x10 <__rc0>
    16bd: a9 00        	lda	#$0
    16bf: a4 24        	ldy	$24                     ; 0x24 <__rc20>
    16c1: 91 10        	sta	($10),y                 ; 0x10 <__rc0>
    16c3: a0 04        	ldy	#$4
    16c5: b1 10        	lda	($10),y                 ; 0x10 <__rc0>
    16c7: 85 12        	sta	$12                     ; 0x12 <__rc2>
    16c9: c8           	iny
    16ca: b1 10        	lda	($10),y                 ; 0x10 <__rc0>
    16cc: 85 13        	sta	$13                     ; 0x13 <__rc3>
    16ce: 20 13 49     	jsr	$4913 <printf>
    16d1: 4c a2 18     	jmp	$18a2 <pickFile+0x8d0>
    16d4: 18           	clc
    16d5: a5 10        	lda	$10                     ; 0x10 <__rc0>
    16d7: 69 13        	adc	#$13
    16d9: 85 12        	sta	$12                     ; 0x12 <__rc2>
    16db: a5 11        	lda	$11                     ; 0x11 <__rc1>
    16dd: 69 00        	adc	#$0
    16df: 85 13        	sta	$13                     ; 0x13 <__rc3>
    16e1: b2 12        	lda	($12)                   ; 0x12 <__rc2>
    16e3: 85 14        	sta	$14                     ; 0x14 <__rc4>
    16e5: a0 01        	ldy	#$1
    16e7: b1 12        	lda	($12),y                 ; 0x12 <__rc2>
    16e9: aa           	tax
    16ea: 18           	clc
    16eb: a5 14        	lda	$14                     ; 0x14 <__rc4>
    16ed: 69 fe        	adc	#$fe
    16ef: 85 12        	sta	$12                     ; 0x12 <__rc2>
    16f1: 8a           	txa
    16f2: 69 2f        	adc	#$2f
    16f4: 85 13        	sta	$13                     ; 0x13 <__rc3>
    16f6: b2 12        	lda	($12)                   ; 0x12 <__rc2>
    16f8: 85 14        	sta	$14                     ; 0x14 <__rc4>
    16fa: b1 12        	lda	($12),y                 ; 0x12 <__rc2>
    16fc: f0 02        	beq	$1700 <pickFile+0x72e>
    16fe: 80 0f        	bra	$170f <pickFile+0x73d>
    1700: a6 14        	ldx	$14                     ; 0x14 <__rc4>
    1702: e0 0f        	cpx	#$f
    1704: f0 02        	beq	$1708 <pickFile+0x736>
    1706: 80 02        	bra	$170a <pickFile+0x738>
    1708: 80 03        	bra	$170d <pickFile+0x73b>
    170a: 4c a2 18     	jmp	$18a2 <pickFile+0x8d0>
    170d: 80 03        	bra	$1712 <pickFile+0x740>
    170f: 4c a2 18     	jmp	$18a2 <pickFile+0x8d0>
    1712: 80 00        	bra	$1714 <pickFile+0x742>
    1714: 18           	clc
    1715: a5 10        	lda	$10                     ; 0x10 <__rc0>
    1717: 69 13        	adc	#$13
    1719: 85 12        	sta	$12                     ; 0x12 <__rc2>
    171b: a5 11        	lda	$11                     ; 0x11 <__rc1>
    171d: 69 00        	adc	#$0
    171f: 85 13        	sta	$13                     ; 0x13 <__rc3>
    1721: b2 12        	lda	($12)                   ; 0x12 <__rc2>
    1723: 85 14        	sta	$14                     ; 0x14 <__rc4>
    1725: a0 01        	ldy	#$1
    1727: b1 12        	lda	($12),y                 ; 0x12 <__rc2>
    1729: aa           	tax
    172a: 18           	clc
    172b: a5 14        	lda	$14                     ; 0x14 <__rc4>
    172d: 69 fa        	adc	#$fa
    172f: 85 14        	sta	$14                     ; 0x14 <__rc4>
    1731: 8a           	txa
    1732: 69 2f        	adc	#$2f
    1734: 85 15        	sta	$15                     ; 0x15 <__rc5>
    1736: b2 12        	lda	($12)                   ; 0x12 <__rc2>
    1738: 85 16        	sta	$16                     ; 0x16 <__rc6>
    173a: b1 12        	lda	($12),y                 ; 0x12 <__rc2>
    173c: 85 12        	sta	$12                     ; 0x12 <__rc2>
    173e: 18           	clc
    173f: a5 16        	lda	$16                     ; 0x16 <__rc6>
    1741: 69 fc        	adc	#$fc
    1743: aa           	tax
    1744: a5 12        	lda	$12                     ; 0x12 <__rc2>
    1746: 69 2f        	adc	#$2f
    1748: 86 12        	stx	$12                     ; 0x12 <__rc2>
    174a: 85 13        	sta	$13                     ; 0x13 <__rc3>
    174c: b2 12        	lda	($12)                   ; 0x12 <__rc2>
    174e: 85 16        	sta	$16                     ; 0x16 <__rc6>
    1750: b1 12        	lda	($12),y                 ; 0x12 <__rc2>
    1752: aa           	tax
    1753: a5 16        	lda	$16                     ; 0x16 <__rc6>
    1755: d2 14        	cmp	($14)                   ; 0x14 <__rc4>
    1757: 8a           	txa
    1758: f1 14        	sbc	($14),y                 ; 0x14 <__rc4>
    175a: 70 02        	bvs	$175e <pickFile+0x78c>
    175c: 80 04        	bra	$1762 <pickFile+0x790>
    175e: 49 80        	eor	#$80
    1760: 80 02        	bra	$1764 <pickFile+0x792>
    1762: 80 00        	bra	$1764 <pickFile+0x792>
    1764: aa           	tax
    1765: 30 03        	bmi	$176a <pickFile+0x798>
    1767: 4c a2 18     	jmp	$18a2 <pickFile+0x8d0>
    176a: 18           	clc
    176b: a5 10        	lda	$10                     ; 0x10 <__rc0>
    176d: 69 13        	adc	#$13
    176f: 85 24        	sta	$24                     ; 0x24 <__rc20>
    1771: a5 11        	lda	$11                     ; 0x11 <__rc1>
    1773: 69 00        	adc	#$0
    1775: 85 25        	sta	$25                     ; 0x25 <__rc21>
    1777: b2 24        	lda	($24)                   ; 0x24 <__rc20>
    1779: 85 12        	sta	$12                     ; 0x12 <__rc2>
    177b: a0 01        	ldy	#$1
    177d: b1 24        	lda	($24),y                 ; 0x24 <__rc20>
    177f: 85 13        	sta	$13                     ; 0x13 <__rc3>
    1781: b2 12        	lda	($12)                   ; 0x12 <__rc2>
    1783: 85 14        	sta	$14                     ; 0x14 <__rc4>
    1785: b2 24        	lda	($24)                   ; 0x24 <__rc20>
    1787: 85 12        	sta	$12                     ; 0x12 <__rc2>
    1789: b1 24        	lda	($24),y                 ; 0x24 <__rc20>
    178b: 85 13        	sta	$13                     ; 0x13 <__rc3>
    178d: b2 24        	lda	($24)                   ; 0x24 <__rc20>
    178f: 85 16        	sta	$16                     ; 0x16 <__rc6>
    1791: b1 24        	lda	($24),y                 ; 0x24 <__rc20>
    1793: 85 15        	sta	$15                     ; 0x15 <__rc5>
    1795: 18           	clc
    1796: a5 16        	lda	$16                     ; 0x16 <__rc6>
    1798: 69 fe        	adc	#$fe
    179a: aa           	tax
    179b: a5 15        	lda	$15                     ; 0x15 <__rc5>
    179d: 69 2f        	adc	#$2f
    179f: 85 15        	sta	$15                     ; 0x15 <__rc5>
    17a1: b1 12        	lda	($12),y                 ; 0x12 <__rc2>
    17a3: 86 12        	stx	$12                     ; 0x12 <__rc2>
    17a5: a6 15        	ldx	$15                     ; 0x15 <__rc5>
    17a7: 86 13        	stx	$13                     ; 0x13 <__rc3>
    17a9: 18           	clc
    17aa: 72 12        	adc	($12)                   ; 0x12 <__rc2>
    17ac: aa           	tax
    17ad: a5 14        	lda	$14                     ; 0x14 <__rc4>
    17af: 20 cd 37     	jsr	$37cd <textGotoXY>
    17b2: a9 20        	lda	#$20
    17b4: 92 10        	sta	($10)                   ; 0x10 <__rc0>
    17b6: a9 00        	lda	#$0
    17b8: a0 01        	ldy	#$1
    17ba: 91 10        	sta	($10),y                 ; 0x10 <__rc0>
    17bc: a2 a0        	ldx	#$a0
    17be: 86 12        	stx	$12                     ; 0x12 <__rc2>
    17c0: a2 51        	ldx	#$51
    17c2: 86 13        	stx	$13                     ; 0x13 <__rc3>
    17c4: a5 12        	lda	$12                     ; 0x12 <__rc2>
    17c6: a0 06        	ldy	#$6
    17c8: 91 10        	sta	($10),y                 ; 0x10 <__rc0>
    17ca: a5 13        	lda	$13                     ; 0x13 <__rc3>
    17cc: c8           	iny
    17cd: 91 10        	sta	($10),y                 ; 0x10 <__rc0>
    17cf: 20 13 49     	jsr	$4913 <printf>
    17d2: b2 24        	lda	($24)                   ; 0x24 <__rc20>
    17d4: 85 13        	sta	$13                     ; 0x13 <__rc3>
    17d6: a0 01        	ldy	#$1
    17d8: b1 24        	lda	($24),y                 ; 0x24 <__rc20>
    17da: 85 12        	sta	$12                     ; 0x12 <__rc2>
    17dc: 18           	clc
    17dd: a5 13        	lda	$13                     ; 0x13 <__rc3>
    17df: 69 fe        	adc	#$fe
    17e1: aa           	tax
    17e2: a5 12        	lda	$12                     ; 0x12 <__rc2>
    17e4: 69 2f        	adc	#$2f
    17e6: 86 12        	stx	$12                     ; 0x12 <__rc2>
    17e8: 85 13        	sta	$13                     ; 0x13 <__rc3>
    17ea: a9 00        	lda	#$0
    17ec: 92 12        	sta	($12)                   ; 0x12 <__rc2>
    17ee: 91 12        	sta	($12),y                 ; 0x12 <__rc2>
    17f0: b2 24        	lda	($24)                   ; 0x24 <__rc20>
    17f2: 85 13        	sta	$13                     ; 0x13 <__rc3>
    17f4: b1 24        	lda	($24),y                 ; 0x24 <__rc20>
    17f6: 85 12        	sta	$12                     ; 0x12 <__rc2>
    17f8: 18           	clc
    17f9: a5 13        	lda	$13                     ; 0x13 <__rc3>
    17fb: 69 00        	adc	#$0
    17fd: aa           	tax
    17fe: a5 12        	lda	$12                     ; 0x12 <__rc2>
    1800: 69 30        	adc	#$30
    1802: 86 12        	stx	$12                     ; 0x12 <__rc2>
    1804: 85 13        	sta	$13                     ; 0x13 <__rc3>
    1806: b2 12        	lda	($12)                   ; 0x12 <__rc2>
    1808: 85 15        	sta	$15                     ; 0x15 <__rc5>
    180a: b1 12        	lda	($12),y                 ; 0x12 <__rc2>
    180c: 85 14        	sta	$14                     ; 0x14 <__rc4>
    180e: 18           	clc
    180f: a5 15        	lda	$15                     ; 0x15 <__rc5>
    1811: 69 0f        	adc	#$f
    1813: 85 15        	sta	$15                     ; 0x15 <__rc5>
    1815: a5 14        	lda	$14                     ; 0x14 <__rc4>
    1817: 69 00        	adc	#$0
    1819: aa           	tax
    181a: a5 15        	lda	$15                     ; 0x15 <__rc5>
    181c: 92 12        	sta	($12)                   ; 0x12 <__rc2>
    181e: 8a           	txa
    181f: 91 12        	sta	($12),y                 ; 0x12 <__rc2>
    1821: b2 24        	lda	($24)                   ; 0x24 <__rc20>
    1823: 85 12        	sta	$12                     ; 0x12 <__rc2>
    1825: b1 24        	lda	($24),y                 ; 0x24 <__rc20>
    1827: 85 13        	sta	$13                     ; 0x13 <__rc3>
    1829: b2 24        	lda	($24)                   ; 0x24 <__rc20>
    182b: 85 15        	sta	$15                     ; 0x15 <__rc5>
    182d: b1 24        	lda	($24),y                 ; 0x24 <__rc20>
    182f: 85 14        	sta	$14                     ; 0x14 <__rc4>
    1831: a0 01        	ldy	#$1
    1833: 18           	clc
    1834: a5 15        	lda	$15                     ; 0x15 <__rc5>
    1836: 69 00        	adc	#$0
    1838: aa           	tax
    1839: a5 14        	lda	$14                     ; 0x14 <__rc4>
    183b: 69 30        	adc	#$30
    183d: 86 14        	stx	$14                     ; 0x14 <__rc4>
    183f: 85 15        	sta	$15                     ; 0x15 <__rc5>
    1841: b2 14        	lda	($14)                   ; 0x14 <__rc4>
    1843: 85 16        	sta	$16                     ; 0x16 <__rc6>
    1845: b1 14        	lda	($14),y                 ; 0x14 <__rc4>
    1847: aa           	tax
    1848: a5 16        	lda	$16                     ; 0x16 <__rc6>
    184a: 20 5c 0c     	jsr	$c5c <displayFileList>
    184d: b2 24        	lda	($24)                   ; 0x24 <__rc20>
    184f: 85 12        	sta	$12                     ; 0x12 <__rc2>
    1851: a0 01        	ldy	#$1
    1853: b1 24        	lda	($24),y                 ; 0x24 <__rc20>
    1855: 85 13        	sta	$13                     ; 0x13 <__rc3>
    1857: b2 24        	lda	($24)                   ; 0x24 <__rc20>
    1859: 85 14        	sta	$14                     ; 0x14 <__rc4>
    185b: b1 24        	lda	($24),y                 ; 0x24 <__rc20>
    185d: 85 15        	sta	$15                     ; 0x15 <__rc5>
    185f: b2 24        	lda	($24)                   ; 0x24 <__rc20>
    1861: 85 16        	sta	$16                     ; 0x16 <__rc6>
    1863: b1 24        	lda	($24),y                 ; 0x24 <__rc20>
    1865: 85 18        	sta	$18                     ; 0x18 <__rc8>
    1867: 18           	clc
    1868: a5 16        	lda	$16                     ; 0x16 <__rc6>
    186a: 69 fe        	adc	#$fe
    186c: 85 17        	sta	$17                     ; 0x17 <__rc7>
    186e: a5 18        	lda	$18                     ; 0x18 <__rc8>
    1870: 69 2f        	adc	#$2f
    1872: aa           	tax
    1873: b2 12        	lda	($12)                   ; 0x12 <__rc2>
    1875: 85 16        	sta	$16                     ; 0x16 <__rc6>
    1877: a5 17        	lda	$17                     ; 0x17 <__rc7>
    1879: 85 12        	sta	$12                     ; 0x12 <__rc2>
    187b: b1 14        	lda	($14),y                 ; 0x14 <__rc4>
    187d: 84 24        	sty	$24                     ; 0x24 <__rc20>
    187f: 86 13        	stx	$13                     ; 0x13 <__rc3>
    1881: 18           	clc
    1882: 72 12        	adc	($12)                   ; 0x12 <__rc2>
    1884: aa           	tax
    1885: a5 16        	lda	$16                     ; 0x16 <__rc6>
    1887: 20 cd 37     	jsr	$37cd <textGotoXY>
    188a: a9 fa        	lda	#$fa
    188c: 92 10        	sta	($10)                   ; 0x10 <__rc0>
    188e: a9 00        	lda	#$0
    1890: a4 24        	ldy	$24                     ; 0x24 <__rc20>
    1892: 91 10        	sta	($10),y                 ; 0x10 <__rc0>
    1894: a0 06        	ldy	#$6
    1896: b1 10        	lda	($10),y                 ; 0x10 <__rc0>
    1898: 85 12        	sta	$12                     ; 0x12 <__rc2>
    189a: c8           	iny
    189b: b1 10        	lda	($10),y                 ; 0x10 <__rc0>
    189d: 85 13        	sta	$13                     ; 0x13 <__rc3>
    189f: 20 13 49     	jsr	$4913 <printf>
    18a2: 4c 5d 1c     	jmp	$1c5d <pickFile+0xc8b>
    18a5: 18           	clc
    18a6: a5 10        	lda	$10                     ; 0x10 <__rc0>
    18a8: 69 13        	adc	#$13
    18aa: 85 12        	sta	$12                     ; 0x12 <__rc2>
    18ac: a5 11        	lda	$11                     ; 0x11 <__rc1>
    18ae: 69 00        	adc	#$0
    18b0: 85 13        	sta	$13                     ; 0x13 <__rc3>
    18b2: b2 12        	lda	($12)                   ; 0x12 <__rc2>
    18b4: 85 14        	sta	$14                     ; 0x14 <__rc4>
    18b6: a0 01        	ldy	#$1
    18b8: b1 12        	lda	($12),y                 ; 0x12 <__rc2>
    18ba: aa           	tax
    18bb: 18           	clc
    18bc: a5 14        	lda	$14                     ; 0x14 <__rc4>
    18be: 69 fc        	adc	#$fc
    18c0: 85 12        	sta	$12                     ; 0x12 <__rc2>
    18c2: 8a           	txa
    18c3: 69 2f        	adc	#$2f
    18c5: 85 13        	sta	$13                     ; 0x13 <__rc3>
    18c7: b2 12        	lda	($12)                   ; 0x12 <__rc2>
    18c9: 85 14        	sta	$14                     ; 0x14 <__rc4>
    18cb: b1 12        	lda	($12),y                 ; 0x12 <__rc2>
    18cd: a6 14        	ldx	$14                     ; 0x14 <__rc4>
    18cf: e0 0f        	cpx	#$f
    18d1: e9 00        	sbc	#$0
    18d3: 70 02        	bvs	$18d7 <pickFile+0x905>
    18d5: 80 04        	bra	$18db <pickFile+0x909>
    18d7: 49 80        	eor	#$80
    18d9: 80 02        	bra	$18dd <pickFile+0x90b>
    18db: 80 00        	bra	$18dd <pickFile+0x90b>
    18dd: aa           	tax
    18de: 10 03        	bpl	$18e3 <pickFile+0x911>
    18e0: 4c 30 1a     	jmp	$1a30 <pickFile+0xa5e>
    18e3: 18           	clc
    18e4: a5 10        	lda	$10                     ; 0x10 <__rc0>
    18e6: 69 13        	adc	#$13
    18e8: 85 24        	sta	$24                     ; 0x24 <__rc20>
    18ea: a5 11        	lda	$11                     ; 0x11 <__rc1>
    18ec: 69 00        	adc	#$0
    18ee: 85 25        	sta	$25                     ; 0x25 <__rc21>
    18f0: b2 24        	lda	($24)                   ; 0x24 <__rc20>
    18f2: 85 12        	sta	$12                     ; 0x12 <__rc2>
    18f4: a0 01        	ldy	#$1
    18f6: b1 24        	lda	($24),y                 ; 0x24 <__rc20>
    18f8: 85 13        	sta	$13                     ; 0x13 <__rc3>
    18fa: b2 12        	lda	($12)                   ; 0x12 <__rc2>
    18fc: 85 14        	sta	$14                     ; 0x14 <__rc4>
    18fe: b2 24        	lda	($24)                   ; 0x24 <__rc20>
    1900: 85 12        	sta	$12                     ; 0x12 <__rc2>
    1902: b1 24        	lda	($24),y                 ; 0x24 <__rc20>
    1904: 85 13        	sta	$13                     ; 0x13 <__rc3>
    1906: b2 24        	lda	($24)                   ; 0x24 <__rc20>
    1908: 85 16        	sta	$16                     ; 0x16 <__rc6>
    190a: b1 24        	lda	($24),y                 ; 0x24 <__rc20>
    190c: 85 15        	sta	$15                     ; 0x15 <__rc5>
    190e: 18           	clc
    190f: a5 16        	lda	$16                     ; 0x16 <__rc6>
    1911: 69 fe        	adc	#$fe
    1913: aa           	tax
    1914: a5 15        	lda	$15                     ; 0x15 <__rc5>
    1916: 69 2f        	adc	#$2f
    1918: 85 15        	sta	$15                     ; 0x15 <__rc5>
    191a: b1 12        	lda	($12),y                 ; 0x12 <__rc2>
    191c: 86 12        	stx	$12                     ; 0x12 <__rc2>
    191e: a6 15        	ldx	$15                     ; 0x15 <__rc5>
    1920: 86 13        	stx	$13                     ; 0x13 <__rc3>
    1922: 18           	clc
    1923: 72 12        	adc	($12)                   ; 0x12 <__rc2>
    1925: aa           	tax
    1926: a5 14        	lda	$14                     ; 0x14 <__rc4>
    1928: 20 cd 37     	jsr	$37cd <textGotoXY>
    192b: a9 20        	lda	#$20
    192d: 92 10        	sta	($10)                   ; 0x10 <__rc0>
    192f: a9 00        	lda	#$0
    1931: a0 01        	ldy	#$1
    1933: 91 10        	sta	($10),y                 ; 0x10 <__rc0>
    1935: a2 a0        	ldx	#$a0
    1937: 86 12        	stx	$12                     ; 0x12 <__rc2>
    1939: a2 51        	ldx	#$51
    193b: 86 13        	stx	$13                     ; 0x13 <__rc3>
    193d: a5 12        	lda	$12                     ; 0x12 <__rc2>
    193f: a0 0a        	ldy	#$a
    1941: 91 10        	sta	($10),y                 ; 0x10 <__rc0>
    1943: a5 13        	lda	$13                     ; 0x13 <__rc3>
    1945: c8           	iny
    1946: 91 10        	sta	($10),y                 ; 0x10 <__rc0>
    1948: 20 13 49     	jsr	$4913 <printf>
    194b: b2 24        	lda	($24)                   ; 0x24 <__rc20>
    194d: 85 13        	sta	$13                     ; 0x13 <__rc3>
    194f: a0 01        	ldy	#$1
    1951: b1 24        	lda	($24),y                 ; 0x24 <__rc20>
    1953: 85 12        	sta	$12                     ; 0x12 <__rc2>
    1955: 18           	clc
    1956: a5 13        	lda	$13                     ; 0x13 <__rc3>
    1958: 69 fc        	adc	#$fc
    195a: aa           	tax
    195b: a5 12        	lda	$12                     ; 0x12 <__rc2>
    195d: 69 2f        	adc	#$2f
    195f: 86 12        	stx	$12                     ; 0x12 <__rc2>
    1961: 85 13        	sta	$13                     ; 0x13 <__rc3>
    1963: b2 12        	lda	($12)                   ; 0x12 <__rc2>
    1965: 85 15        	sta	$15                     ; 0x15 <__rc5>
    1967: b1 12        	lda	($12),y                 ; 0x12 <__rc2>
    1969: 85 14        	sta	$14                     ; 0x14 <__rc4>
    196b: 18           	clc
    196c: a5 15        	lda	$15                     ; 0x15 <__rc5>
    196e: 69 f1        	adc	#$f1
    1970: 85 15        	sta	$15                     ; 0x15 <__rc5>
    1972: a5 14        	lda	$14                     ; 0x14 <__rc4>
    1974: 69 ff        	adc	#$ff
    1976: aa           	tax
    1977: a5 15        	lda	$15                     ; 0x15 <__rc5>
    1979: 92 12        	sta	($12)                   ; 0x12 <__rc2>
    197b: 8a           	txa
    197c: 91 12        	sta	($12),y                 ; 0x12 <__rc2>
    197e: b2 24        	lda	($24)                   ; 0x24 <__rc20>
    1980: 85 13        	sta	$13                     ; 0x13 <__rc3>
    1982: b1 24        	lda	($24),y                 ; 0x24 <__rc20>
    1984: 85 12        	sta	$12                     ; 0x12 <__rc2>
    1986: 18           	clc
    1987: a5 13        	lda	$13                     ; 0x13 <__rc3>
    1989: 69 00        	adc	#$0
    198b: aa           	tax
    198c: a5 12        	lda	$12                     ; 0x12 <__rc2>
    198e: 69 30        	adc	#$30
    1990: 86 12        	stx	$12                     ; 0x12 <__rc2>
    1992: 85 13        	sta	$13                     ; 0x13 <__rc3>
    1994: b2 12        	lda	($12)                   ; 0x12 <__rc2>
    1996: 85 15        	sta	$15                     ; 0x15 <__rc5>
    1998: b1 12        	lda	($12),y                 ; 0x12 <__rc2>
    199a: 85 14        	sta	$14                     ; 0x14 <__rc4>
    199c: 18           	clc
    199d: a5 15        	lda	$15                     ; 0x15 <__rc5>
    199f: 69 f1        	adc	#$f1
    19a1: 85 15        	sta	$15                     ; 0x15 <__rc5>
    19a3: a5 14        	lda	$14                     ; 0x14 <__rc4>
    19a5: 69 ff        	adc	#$ff
    19a7: aa           	tax
    19a8: a5 15        	lda	$15                     ; 0x15 <__rc5>
    19aa: 92 12        	sta	($12)                   ; 0x12 <__rc2>
    19ac: 8a           	txa
    19ad: 91 12        	sta	($12),y                 ; 0x12 <__rc2>
    19af: b2 24        	lda	($24)                   ; 0x24 <__rc20>
    19b1: 85 12        	sta	$12                     ; 0x12 <__rc2>
    19b3: b1 24        	lda	($24),y                 ; 0x24 <__rc20>
    19b5: 85 13        	sta	$13                     ; 0x13 <__rc3>
    19b7: b2 24        	lda	($24)                   ; 0x24 <__rc20>
    19b9: 85 15        	sta	$15                     ; 0x15 <__rc5>
    19bb: b1 24        	lda	($24),y                 ; 0x24 <__rc20>
    19bd: 85 14        	sta	$14                     ; 0x14 <__rc4>
    19bf: a0 01        	ldy	#$1
    19c1: 18           	clc
    19c2: a5 15        	lda	$15                     ; 0x15 <__rc5>
    19c4: 69 00        	adc	#$0
    19c6: aa           	tax
    19c7: a5 14        	lda	$14                     ; 0x14 <__rc4>
    19c9: 69 30        	adc	#$30
    19cb: 86 14        	stx	$14                     ; 0x14 <__rc4>
    19cd: 85 15        	sta	$15                     ; 0x15 <__rc5>
    19cf: b2 14        	lda	($14)                   ; 0x14 <__rc4>
    19d1: 85 16        	sta	$16                     ; 0x16 <__rc6>
    19d3: b1 14        	lda	($14),y                 ; 0x14 <__rc4>
    19d5: aa           	tax
    19d6: a5 16        	lda	$16                     ; 0x16 <__rc6>
    19d8: 20 5c 0c     	jsr	$c5c <displayFileList>
    19db: b2 24        	lda	($24)                   ; 0x24 <__rc20>
    19dd: 85 12        	sta	$12                     ; 0x12 <__rc2>
    19df: a0 01        	ldy	#$1
    19e1: b1 24        	lda	($24),y                 ; 0x24 <__rc20>
    19e3: 85 13        	sta	$13                     ; 0x13 <__rc3>
    19e5: b2 24        	lda	($24)                   ; 0x24 <__rc20>
    19e7: 85 14        	sta	$14                     ; 0x14 <__rc4>
    19e9: b1 24        	lda	($24),y                 ; 0x24 <__rc20>
    19eb: 85 15        	sta	$15                     ; 0x15 <__rc5>
    19ed: b2 24        	lda	($24)                   ; 0x24 <__rc20>
    19ef: 85 16        	sta	$16                     ; 0x16 <__rc6>
    19f1: b1 24        	lda	($24),y                 ; 0x24 <__rc20>
    19f3: 85 18        	sta	$18                     ; 0x18 <__rc8>
    19f5: 18           	clc
    19f6: a5 16        	lda	$16                     ; 0x16 <__rc6>
    19f8: 69 fe        	adc	#$fe
    19fa: 85 17        	sta	$17                     ; 0x17 <__rc7>
    19fc: a5 18        	lda	$18                     ; 0x18 <__rc8>
    19fe: 69 2f        	adc	#$2f
    1a00: aa           	tax
    1a01: b2 12        	lda	($12)                   ; 0x12 <__rc2>
    1a03: 85 16        	sta	$16                     ; 0x16 <__rc6>
    1a05: a5 17        	lda	$17                     ; 0x17 <__rc7>
    1a07: 85 12        	sta	$12                     ; 0x12 <__rc2>
    1a09: b1 14        	lda	($14),y                 ; 0x14 <__rc4>
    1a0b: 84 24        	sty	$24                     ; 0x24 <__rc20>
    1a0d: 86 13        	stx	$13                     ; 0x13 <__rc3>
    1a0f: 18           	clc
    1a10: 72 12        	adc	($12)                   ; 0x12 <__rc2>
    1a12: aa           	tax
    1a13: a5 16        	lda	$16                     ; 0x16 <__rc6>
    1a15: 20 cd 37     	jsr	$37cd <textGotoXY>
    1a18: a9 fa        	lda	#$fa
    1a1a: 92 10        	sta	($10)                   ; 0x10 <__rc0>
    1a1c: a9 00        	lda	#$0
    1a1e: a4 24        	ldy	$24                     ; 0x24 <__rc20>
    1a20: 91 10        	sta	($10),y                 ; 0x10 <__rc0>
    1a22: a0 0a        	ldy	#$a
    1a24: b1 10        	lda	($10),y                 ; 0x10 <__rc0>
    1a26: 85 12        	sta	$12                     ; 0x12 <__rc2>
    1a28: c8           	iny
    1a29: b1 10        	lda	($10),y                 ; 0x10 <__rc0>
    1a2b: 85 13        	sta	$13                     ; 0x13 <__rc3>
    1a2d: 20 13 49     	jsr	$4913 <printf>
    1a30: 4c 5d 1c     	jmp	$1c5d <pickFile+0xc8b>
    1a33: 18           	clc
    1a34: a5 10        	lda	$10                     ; 0x10 <__rc0>
    1a36: 69 13        	adc	#$13
    1a38: 85 14        	sta	$14                     ; 0x14 <__rc4>
    1a3a: a5 11        	lda	$11                     ; 0x11 <__rc1>
    1a3c: 69 00        	adc	#$0
    1a3e: 85 15        	sta	$15                     ; 0x15 <__rc5>
    1a40: b2 14        	lda	($14)                   ; 0x14 <__rc4>
    1a42: 85 12        	sta	$12                     ; 0x12 <__rc2>
    1a44: a0 01        	ldy	#$1
    1a46: b1 14        	lda	($14),y                 ; 0x14 <__rc4>
    1a48: aa           	tax
    1a49: 18           	clc
    1a4a: a5 12        	lda	$12                     ; 0x12 <__rc2>
    1a4c: 69 fa        	adc	#$fa
    1a4e: 85 12        	sta	$12                     ; 0x12 <__rc2>
    1a50: 8a           	txa
    1a51: 69 2f        	adc	#$2f
    1a53: 85 13        	sta	$13                     ; 0x13 <__rc3>
    1a55: b2 14        	lda	($14)                   ; 0x14 <__rc4>
    1a57: 85 17        	sta	$17                     ; 0x17 <__rc7>
    1a59: b1 14        	lda	($14),y                 ; 0x14 <__rc4>
    1a5b: 85 16        	sta	$16                     ; 0x16 <__rc6>
    1a5d: 18           	clc
    1a5e: a5 17        	lda	$17                     ; 0x17 <__rc7>
    1a60: 69 fc        	adc	#$fc
    1a62: aa           	tax
    1a63: a5 16        	lda	$16                     ; 0x16 <__rc6>
    1a65: 69 2f        	adc	#$2f
    1a67: 86 16        	stx	$16                     ; 0x16 <__rc6>
    1a69: 85 17        	sta	$17                     ; 0x17 <__rc7>
    1a6b: b2 16        	lda	($16)                   ; 0x16 <__rc6>
    1a6d: 85 18        	sta	$18                     ; 0x18 <__rc8>
    1a6f: b2 14        	lda	($14)                   ; 0x14 <__rc4>
    1a71: 85 19        	sta	$19                     ; 0x19 <__rc9>
    1a73: b1 14        	lda	($14),y                 ; 0x14 <__rc4>
    1a75: 85 15        	sta	$15                     ; 0x15 <__rc5>
    1a77: 18           	clc
    1a78: a5 19        	lda	$19                     ; 0x19 <__rc9>
    1a7a: 69 fe        	adc	#$fe
    1a7c: 85 14        	sta	$14                     ; 0x14 <__rc4>
    1a7e: a5 15        	lda	$15                     ; 0x15 <__rc5>
    1a80: 69 2f        	adc	#$2f
    1a82: 85 15        	sta	$15                     ; 0x15 <__rc5>
    1a84: b1 16        	lda	($16),y                 ; 0x16 <__rc6>
    1a86: 85 17        	sta	$17                     ; 0x17 <__rc7>
    1a88: 38           	sec
    1a89: a5 18        	lda	$18                     ; 0x18 <__rc8>
    1a8b: f2 14        	sbc	($14)                   ; 0x14 <__rc4>
    1a8d: 85 16        	sta	$16                     ; 0x16 <__rc6>
    1a8f: a5 17        	lda	$17                     ; 0x17 <__rc7>
    1a91: f1 14        	sbc	($14),y                 ; 0x14 <__rc4>
    1a93: 85 15        	sta	$15                     ; 0x15 <__rc5>
    1a95: 18           	clc
    1a96: a5 16        	lda	$16                     ; 0x16 <__rc6>
    1a98: 69 10        	adc	#$10
    1a9a: 85 14        	sta	$14                     ; 0x14 <__rc4>
    1a9c: a5 15        	lda	$15                     ; 0x15 <__rc5>
    1a9e: 69 00        	adc	#$0
    1aa0: aa           	tax
    1aa1: a5 14        	lda	$14                     ; 0x14 <__rc4>
    1aa3: d2 12        	cmp	($12)                   ; 0x12 <__rc2>
    1aa5: 8a           	txa
    1aa6: f1 12        	sbc	($12),y                 ; 0x12 <__rc2>
    1aa8: 70 02        	bvs	$1aac <pickFile+0xada>
    1aaa: 80 04        	bra	$1ab0 <pickFile+0xade>
    1aac: 49 80        	eor	#$80
    1aae: 80 02        	bra	$1ab2 <pickFile+0xae0>
    1ab0: 80 00        	bra	$1ab2 <pickFile+0xae0>
    1ab2: aa           	tax
    1ab3: 30 03        	bmi	$1ab8 <pickFile+0xae6>
    1ab5: 4c 5d 1c     	jmp	$1c5d <pickFile+0xc8b>
    1ab8: a5 26        	lda	$26                     ; 0x26 <__rc22>
    1aba: a0 0e        	ldy	#$e
    1abc: 91 10        	sta	($10),y                 ; 0x10 <__rc0>
    1abe: a5 27        	lda	$27                     ; 0x27 <__rc23>
    1ac0: c8           	iny
    1ac1: 91 10        	sta	($10),y                 ; 0x10 <__rc0>
    1ac3: 18           	clc
    1ac4: a5 10        	lda	$10                     ; 0x10 <__rc0>
    1ac6: 69 13        	adc	#$13
    1ac8: 85 24        	sta	$24                     ; 0x24 <__rc20>
    1aca: a5 11        	lda	$11                     ; 0x11 <__rc1>
    1acc: 69 00        	adc	#$0
    1ace: 85 25        	sta	$25                     ; 0x25 <__rc21>
    1ad0: b2 24        	lda	($24)                   ; 0x24 <__rc20>
    1ad2: 85 12        	sta	$12                     ; 0x12 <__rc2>
    1ad4: a0 01        	ldy	#$1
    1ad6: b1 24        	lda	($24),y                 ; 0x24 <__rc20>
    1ad8: 85 13        	sta	$13                     ; 0x13 <__rc3>
    1ada: b2 12        	lda	($12)                   ; 0x12 <__rc2>
    1adc: 85 14        	sta	$14                     ; 0x14 <__rc4>
    1ade: b2 24        	lda	($24)                   ; 0x24 <__rc20>
    1ae0: 85 12        	sta	$12                     ; 0x12 <__rc2>
    1ae2: b1 24        	lda	($24),y                 ; 0x24 <__rc20>
    1ae4: 85 13        	sta	$13                     ; 0x13 <__rc3>
    1ae6: b2 24        	lda	($24)                   ; 0x24 <__rc20>
    1ae8: 85 15        	sta	$15                     ; 0x15 <__rc5>
    1aea: b1 24        	lda	($24),y                 ; 0x24 <__rc20>
    1aec: 85 16        	sta	$16                     ; 0x16 <__rc6>
    1aee: 18           	clc
    1aef: a5 15        	lda	$15                     ; 0x15 <__rc5>
    1af1: 69 fe        	adc	#$fe
    1af3: 85 15        	sta	$15                     ; 0x15 <__rc5>
    1af5: a5 16        	lda	$16                     ; 0x16 <__rc6>
    1af7: 69 2f        	adc	#$2f
    1af9: 85 16        	sta	$16                     ; 0x16 <__rc6>
    1afb: b1 12        	lda	($12),y                 ; 0x12 <__rc2>
    1afd: a2 01        	ldx	#$1
    1aff: 86 26        	stx	$26                     ; 0x26 <__rc22>
    1b01: a6 15        	ldx	$15                     ; 0x15 <__rc5>
    1b03: 86 12        	stx	$12                     ; 0x12 <__rc2>
    1b05: a6 16        	ldx	$16                     ; 0x16 <__rc6>
    1b07: 86 13        	stx	$13                     ; 0x13 <__rc3>
    1b09: 18           	clc
    1b0a: 72 12        	adc	($12)                   ; 0x12 <__rc2>
    1b0c: aa           	tax
    1b0d: a5 14        	lda	$14                     ; 0x14 <__rc4>
    1b0f: 20 cd 37     	jsr	$37cd <textGotoXY>
    1b12: a9 20        	lda	#$20
    1b14: 92 10        	sta	($10)                   ; 0x10 <__rc0>
    1b16: a9 00        	lda	#$0
    1b18: a4 26        	ldy	$26                     ; 0x26 <__rc22>
    1b1a: 91 10        	sta	($10),y                 ; 0x10 <__rc0>
    1b1c: a2 a0        	ldx	#$a0
    1b1e: 86 12        	stx	$12                     ; 0x12 <__rc2>
    1b20: a2 51        	ldx	#$51
    1b22: 86 13        	stx	$13                     ; 0x13 <__rc3>
    1b24: a5 12        	lda	$12                     ; 0x12 <__rc2>
    1b26: a0 0c        	ldy	#$c
    1b28: 91 10        	sta	($10),y                 ; 0x10 <__rc0>
    1b2a: a5 13        	lda	$13                     ; 0x13 <__rc3>
    1b2c: c8           	iny
    1b2d: 91 10        	sta	($10),y                 ; 0x10 <__rc0>
    1b2f: 20 13 49     	jsr	$4913 <printf>
    1b32: b2 24        	lda	($24)                   ; 0x24 <__rc20>
    1b34: 85 13        	sta	$13                     ; 0x13 <__rc3>
    1b36: a0 01        	ldy	#$1
    1b38: b1 24        	lda	($24),y                 ; 0x24 <__rc20>
    1b3a: 85 12        	sta	$12                     ; 0x12 <__rc2>
    1b3c: 18           	clc
    1b3d: a5 13        	lda	$13                     ; 0x13 <__rc3>
    1b3f: 69 fe        	adc	#$fe
    1b41: aa           	tax
    1b42: a5 12        	lda	$12                     ; 0x12 <__rc2>
    1b44: 69 2f        	adc	#$2f
    1b46: 86 12        	stx	$12                     ; 0x12 <__rc2>
    1b48: 85 13        	sta	$13                     ; 0x13 <__rc3>
    1b4a: 38           	sec
    1b4b: a9 0f        	lda	#$f
    1b4d: f2 12        	sbc	($12)                   ; 0x12 <__rc2>
    1b4f: aa           	tax
    1b50: a9 00        	lda	#$0
    1b52: f1 12        	sbc	($12),y                 ; 0x12 <__rc2>
    1b54: 85 15        	sta	$15                     ; 0x15 <__rc5>
    1b56: b2 24        	lda	($24)                   ; 0x24 <__rc20>
    1b58: 85 13        	sta	$13                     ; 0x13 <__rc3>
    1b5a: b1 24        	lda	($24),y                 ; 0x24 <__rc20>
    1b5c: 85 12        	sta	$12                     ; 0x12 <__rc2>
    1b5e: 18           	clc
    1b5f: a5 13        	lda	$13                     ; 0x13 <__rc3>
    1b61: 69 fc        	adc	#$fc
    1b63: 85 14        	sta	$14                     ; 0x14 <__rc4>
    1b65: a5 12        	lda	$12                     ; 0x12 <__rc2>
    1b67: 69 2f        	adc	#$2f
    1b69: 5a           	phy
    1b6a: a4 14        	ldy	$14                     ; 0x14 <__rc4>
    1b6c: 84 12        	sty	$12                     ; 0x12 <__rc2>
    1b6e: 7a           	ply
    1b6f: 85 13        	sta	$13                     ; 0x13 <__rc3>
    1b71: 18           	clc
    1b72: 8a           	txa
    1b73: 72 12        	adc	($12)                   ; 0x12 <__rc2>
    1b75: 85 14        	sta	$14                     ; 0x14 <__rc4>
    1b77: a5 15        	lda	$15                     ; 0x15 <__rc5>
    1b79: 71 12        	adc	($12),y                 ; 0x12 <__rc2>
    1b7b: 85 15        	sta	$15                     ; 0x15 <__rc5>
    1b7d: a5 14        	lda	$14                     ; 0x14 <__rc4>
    1b7f: 92 12        	sta	($12)                   ; 0x12 <__rc2>
    1b81: a5 15        	lda	$15                     ; 0x15 <__rc5>
    1b83: 91 12        	sta	($12),y                 ; 0x12 <__rc2>
    1b85: b2 24        	lda	($24)                   ; 0x24 <__rc20>
    1b87: 85 13        	sta	$13                     ; 0x13 <__rc3>
    1b89: b1 24        	lda	($24),y                 ; 0x24 <__rc20>
    1b8b: 85 12        	sta	$12                     ; 0x12 <__rc2>
    1b8d: 18           	clc
    1b8e: a5 13        	lda	$13                     ; 0x13 <__rc3>
    1b90: 69 fe        	adc	#$fe
    1b92: aa           	tax
    1b93: a5 12        	lda	$12                     ; 0x12 <__rc2>
    1b95: 69 2f        	adc	#$2f
    1b97: 86 12        	stx	$12                     ; 0x12 <__rc2>
    1b99: 85 13        	sta	$13                     ; 0x13 <__rc3>
    1b9b: a9 00        	lda	#$0
    1b9d: 92 12        	sta	($12)                   ; 0x12 <__rc2>
    1b9f: 91 12        	sta	($12),y                 ; 0x12 <__rc2>
    1ba1: b2 24        	lda	($24)                   ; 0x24 <__rc20>
    1ba3: 85 13        	sta	$13                     ; 0x13 <__rc3>
    1ba5: b1 24        	lda	($24),y                 ; 0x24 <__rc20>
    1ba7: 85 12        	sta	$12                     ; 0x12 <__rc2>
    1ba9: 18           	clc
    1baa: a5 13        	lda	$13                     ; 0x13 <__rc3>
    1bac: 69 00        	adc	#$0
    1bae: aa           	tax
    1baf: a5 12        	lda	$12                     ; 0x12 <__rc2>
    1bb1: 69 30        	adc	#$30
    1bb3: 86 12        	stx	$12                     ; 0x12 <__rc2>
    1bb5: 85 13        	sta	$13                     ; 0x13 <__rc3>
    1bb7: b2 12        	lda	($12)                   ; 0x12 <__rc2>
    1bb9: 85 15        	sta	$15                     ; 0x15 <__rc5>
    1bbb: b1 12        	lda	($12),y                 ; 0x12 <__rc2>
    1bbd: 85 14        	sta	$14                     ; 0x14 <__rc4>
    1bbf: 18           	clc
    1bc0: a5 15        	lda	$15                     ; 0x15 <__rc5>
    1bc2: 69 0f        	adc	#$f
    1bc4: 85 15        	sta	$15                     ; 0x15 <__rc5>
    1bc6: a5 14        	lda	$14                     ; 0x14 <__rc4>
    1bc8: 69 00        	adc	#$0
    1bca: aa           	tax
    1bcb: a5 15        	lda	$15                     ; 0x15 <__rc5>
    1bcd: 92 12        	sta	($12)                   ; 0x12 <__rc2>
    1bcf: 8a           	txa
    1bd0: 91 12        	sta	($12),y                 ; 0x12 <__rc2>
    1bd2: b2 24        	lda	($24)                   ; 0x24 <__rc20>
    1bd4: 85 12        	sta	$12                     ; 0x12 <__rc2>
    1bd6: b1 24        	lda	($24),y                 ; 0x24 <__rc20>
    1bd8: 85 13        	sta	$13                     ; 0x13 <__rc3>
    1bda: b2 24        	lda	($24)                   ; 0x24 <__rc20>
    1bdc: 85 15        	sta	$15                     ; 0x15 <__rc5>
    1bde: b1 24        	lda	($24),y                 ; 0x24 <__rc20>
    1be0: 85 14        	sta	$14                     ; 0x14 <__rc4>
    1be2: a0 01        	ldy	#$1
    1be4: 18           	clc
    1be5: a5 15        	lda	$15                     ; 0x15 <__rc5>
    1be7: 69 00        	adc	#$0
    1be9: aa           	tax
    1bea: a5 14        	lda	$14                     ; 0x14 <__rc4>
    1bec: 69 30        	adc	#$30
    1bee: 86 14        	stx	$14                     ; 0x14 <__rc4>
    1bf0: 85 15        	sta	$15                     ; 0x15 <__rc5>
    1bf2: b2 14        	lda	($14)                   ; 0x14 <__rc4>
    1bf4: 85 16        	sta	$16                     ; 0x16 <__rc6>
    1bf6: b1 14        	lda	($14),y                 ; 0x14 <__rc4>
    1bf8: 84 26        	sty	$26                     ; 0x26 <__rc22>
    1bfa: aa           	tax
    1bfb: a5 16        	lda	$16                     ; 0x16 <__rc6>
    1bfd: 20 5c 0c     	jsr	$c5c <displayFileList>
    1c00: b2 24        	lda	($24)                   ; 0x24 <__rc20>
    1c02: 85 14        	sta	$14                     ; 0x14 <__rc4>
    1c04: a4 26        	ldy	$26                     ; 0x26 <__rc22>
    1c06: b1 24        	lda	($24),y                 ; 0x24 <__rc20>
    1c08: 85 15        	sta	$15                     ; 0x15 <__rc5>
    1c0a: b2 24        	lda	($24)                   ; 0x24 <__rc20>
    1c0c: 85 16        	sta	$16                     ; 0x16 <__rc6>
    1c0e: b1 24        	lda	($24),y                 ; 0x24 <__rc20>
    1c10: 85 17        	sta	$17                     ; 0x17 <__rc7>
    1c12: b2 24        	lda	($24)                   ; 0x24 <__rc20>
    1c14: 85 18        	sta	$18                     ; 0x18 <__rc8>
    1c16: b1 24        	lda	($24),y                 ; 0x24 <__rc20>
    1c18: 85 19        	sta	$19                     ; 0x19 <__rc9>
    1c1a: 5a           	phy
    1c1b: a0 0e        	ldy	#$e
    1c1d: b1 10        	lda	($10),y                 ; 0x10 <__rc0>
    1c1f: 85 26        	sta	$26                     ; 0x26 <__rc22>
    1c21: c8           	iny
    1c22: b1 10        	lda	($10),y                 ; 0x10 <__rc0>
    1c24: 7a           	ply
    1c25: 85 27        	sta	$27                     ; 0x27 <__rc23>
    1c27: 18           	clc
    1c28: a5 18        	lda	$18                     ; 0x18 <__rc8>
    1c2a: 69 fe        	adc	#$fe
    1c2c: 85 12        	sta	$12                     ; 0x12 <__rc2>
    1c2e: a5 19        	lda	$19                     ; 0x19 <__rc9>
    1c30: 69 2f        	adc	#$2f
    1c32: 85 13        	sta	$13                     ; 0x13 <__rc3>
    1c34: b2 14        	lda	($14)                   ; 0x14 <__rc4>
    1c36: 85 14        	sta	$14                     ; 0x14 <__rc4>
    1c38: b1 16        	lda	($16),y                 ; 0x16 <__rc6>
    1c3a: 84 24        	sty	$24                     ; 0x24 <__rc20>
    1c3c: 18           	clc
    1c3d: 72 12        	adc	($12)                   ; 0x12 <__rc2>
    1c3f: aa           	tax
    1c40: a5 14        	lda	$14                     ; 0x14 <__rc4>
    1c42: 20 cd 37     	jsr	$37cd <textGotoXY>
    1c45: a9 fa        	lda	#$fa
    1c47: 92 10        	sta	($10)                   ; 0x10 <__rc0>
    1c49: a9 00        	lda	#$0
    1c4b: a4 24        	ldy	$24                     ; 0x24 <__rc20>
    1c4d: 91 10        	sta	($10),y                 ; 0x10 <__rc0>
    1c4f: a0 0c        	ldy	#$c
    1c51: b1 10        	lda	($10),y                 ; 0x10 <__rc0>
    1c53: 85 12        	sta	$12                     ; 0x12 <__rc2>
    1c55: c8           	iny
    1c56: b1 10        	lda	($10),y                 ; 0x10 <__rc0>
    1c58: 85 13        	sta	$13                     ; 0x13 <__rc3>
    1c5a: 20 13 49     	jsr	$4913 <printf>
    1c5d: 4c 0c 10     	jmp	$100c <pickFile+0x3a>
    1c60: 18           	clc
    1c61: a5 10        	lda	$10                     ; 0x10 <__rc0>
    1c63: 69 15        	adc	#$15
    1c65: 85 12        	sta	$12                     ; 0x12 <__rc2>
    1c67: a5 11        	lda	$11                     ; 0x11 <__rc1>
    1c69: 69 00        	adc	#$0
    1c6b: 85 13        	sta	$13                     ; 0x13 <__rc3>
    1c6d: b2 12        	lda	($12)                   ; 0x12 <__rc2>
    1c6f: 85 20        	sta	$20                     ; 0x20 <__rc16>
    1c71: fa           	plx
    1c72: 86 27        	stx	$27                     ; 0x27 <__rc23>
    1c74: fa           	plx
    1c75: 86 26        	stx	$26                     ; 0x26 <__rc22>
    1c77: fa           	plx
    1c78: 86 25        	stx	$25                     ; 0x25 <__rc21>
    1c7a: fa           	plx
    1c7b: 86 24        	stx	$24                     ; 0x24 <__rc20>
    1c7d: 18           	clc
    1c7e: a5 10        	lda	$10                     ; 0x10 <__rc0>
    1c80: 69 16        	adc	#$16
    1c82: 85 10        	sta	$10                     ; 0x10 <__rc0>
    1c84: a5 11        	lda	$11                     ; 0x11 <__rc1>
    1c86: 69 00        	adc	#$0
    1c88: 85 11        	sta	$11                     ; 0x11 <__rc1>
    1c8a: a5 20        	lda	$20                     ; 0x20 <__rc16>
    1c8c: 60           	rts

00001c8d <wipeArea>:
    1c8d: a6 12        	ldx	$12                     ; 0x12 <__rc2>
    1c8f: 86 73        	stx	$73                     ; 0x73 <__rc31+0x44>
    1c91: a6 13        	ldx	$13                     ; 0x13 <__rc3>
    1c93: 86 74        	stx	$74                     ; 0x74 <__rc31+0x45>
    1c95: a2 20        	ldx	#$20
    1c97: 86 75        	stx	$75                     ; 0x75 <__rc31+0x46>
    1c99: a2 0a        	ldx	#$a
    1c9b: 86 76        	stx	$76                     ; 0x76 <__rc31+0x47>
    1c9d: a2 00        	ldx	#$0
    1c9f: 86 77        	stx	$77                     ; 0x77 <__rc31+0x48>
    1ca1: a0 01        	ldy	#$1
    1ca3: b1 73        	lda	($73),y                 ; 0x73 <__rc31+0x44>
    1ca5: c9 50        	cmp	#$50
    1ca7: b0 11        	bcs	$1cba <wipeArea+0x2d>
    1ca9: 18           	clc
    1caa: 69 b0        	adc	#$b0
    1cac: a2 00        	ldx	#$0
    1cae: 85 78        	sta	$78                     ; 0x78 <__rc31+0x49>
    1cb0: a5 75        	lda	$75                     ; 0x75 <__rc31+0x46>
    1cb2: 20 7f 4a     	jsr	$4a7f <putchar>
    1cb5: a5 78        	lda	$78                     ; 0x78 <__rc31+0x49>
    1cb7: 1a           	inc
    1cb8: d0 f2        	bne	$1cac <wipeArea+0x1f>
    1cba: a2 20        	ldx	#$20
    1cbc: 86 75        	stx	$75                     ; 0x75 <__rc31+0x46>
    1cbe: a2 00        	ldx	#$0
    1cc0: a5 76        	lda	$76                     ; 0x76 <__rc31+0x47>
    1cc2: 20 7f 4a     	jsr	$4a7f <putchar>
    1cc5: a6 77        	ldx	$77                     ; 0x77 <__rc31+0x48>
    1cc7: e8           	inx
    1cc8: e0 11        	cpx	#$11
    1cca: d0 d3        	bne	$1c9f <wipeArea+0x12>
    1ccc: 60           	rts

00001ccd <opl3_initialize>:
    1ccd: a2 01        	ldx	#$1
    1ccf: 8e 80 d5     	stx	$d580                   ; 0xd580 <end_block9+0x4efc>
    1cd2: a0 20        	ldy	#$20
    1cd4: 8c 81 d5     	sty	$d581                   ; 0xd581 <end_block9+0x4efd>
    1cd7: a0 02        	ldy	#$2
    1cd9: 8c 80 d5     	sty	$d580                   ; 0xd580 <end_block9+0x4efc>
    1cdc: 9c 81 d5     	stz	$d581                   ; 0xd581 <end_block9+0x4efd>
    1cdf: c8           	iny
    1ce0: 8c 80 d5     	sty	$d580                   ; 0xd580 <end_block9+0x4efc>
    1ce3: 9c 81 d5     	stz	$d581                   ; 0xd581 <end_block9+0x4efd>
    1ce6: c8           	iny
    1ce7: 8c 82 d5     	sty	$d582                   ; 0xd582 <end_block9+0x4efe>
    1cea: 9c 81 d5     	stz	$d581                   ; 0xd581 <end_block9+0x4efd>
    1ced: c8           	iny
    1cee: 8c 82 d5     	sty	$d582                   ; 0xd582 <end_block9+0x4efe>
    1cf1: 8e 81 d5     	stx	$d581                   ; 0xd581 <end_block9+0x4efd>
    1cf4: a2 08        	ldx	#$8
    1cf6: 8e 80 d5     	stx	$d580                   ; 0xd580 <end_block9+0x4efc>
    1cf9: 9c 81 d5     	stz	$d581                   ; 0xd581 <end_block9+0x4efd>
    1cfc: a2 bd        	ldx	#$bd
    1cfe: 8e 80 d5     	stx	$d580                   ; 0xd580 <end_block9+0x4efc>
    1d01: 9c 81 d5     	stz	$d581                   ; 0xd581 <end_block9+0x4efd>
    1d04: a2 c0        	ldx	#$c0
    1d06: a0 30        	ldy	#$30
    1d08: 8e 80 d5     	stx	$d580                   ; 0xd580 <end_block9+0x4efc>
    1d0b: 8c 81 d5     	sty	$d581                   ; 0xd581 <end_block9+0x4efd>
    1d0e: e8           	inx
    1d0f: e0 c9        	cpx	#$c9
    1d11: d0 f5        	bne	$1d08 <opl3_initialize+0x3b>
    1d13: a2 c0        	ldx	#$c0
    1d15: a0 30        	ldy	#$30
    1d17: 8e 82 d5     	stx	$d582                   ; 0xd582 <end_block9+0x4efe>
    1d1a: 8c 81 d5     	sty	$d581                   ; 0xd581 <end_block9+0x4efd>
    1d1d: e8           	inx
    1d1e: e0 c9        	cpx	#$c9
    1d20: d0 f5        	bne	$1d17 <opl3_initialize+0x4a>
    1d22: a2 b0        	ldx	#$b0
    1d24: 8e 80 d5     	stx	$d580                   ; 0xd580 <end_block9+0x4efc>
    1d27: 9c 81 d5     	stz	$d581                   ; 0xd581 <end_block9+0x4efd>
    1d2a: e8           	inx
    1d2b: e0 b9        	cpx	#$b9
    1d2d: d0 f5        	bne	$1d24 <opl3_initialize+0x57>
    1d2f: a2 b0        	ldx	#$b0
    1d31: 8e 82 d5     	stx	$d582                   ; 0xd582 <end_block9+0x4efe>
    1d34: 9c 81 d5     	stz	$d581                   ; 0xd581 <end_block9+0x4efd>
    1d37: e8           	inx
    1d38: e0 b9        	cpx	#$b9
    1d3a: d0 f5        	bne	$1d31 <opl3_initialize+0x64>
    1d3c: 60           	rts

00001d3d <opl3_setInstrument>:
    1d3d: a0 01        	ldy	#$1
    1d3f: a2 82        	ldx	#$82
    1d41: 86 16        	stx	$16                     ; 0x16 <__rc6>
    1d43: a2 d5        	ldx	#$d5
    1d45: 86 17        	stx	$17                     ; 0x17 <__rc7>
    1d47: a2 80        	ldx	#$80
    1d49: 86 14        	stx	$14                     ; 0x14 <__rc4>
    1d4b: a2 d5        	ldx	#$d5
    1d4d: 86 15        	stx	$15                     ; 0x15 <__rc5>
    1d4f: c9 03        	cmp	#$3
    1d51: 90 22        	bcc	$1d75 <opl3_setInstrument+0x38>
    1d53: c9 06        	cmp	#$6
    1d55: 90 16        	bcc	$1d6d <opl3_setInstrument+0x30>
    1d57: c9 09        	cmp	#$9
    1d59: 90 17        	bcc	$1d72 <opl3_setInstrument+0x35>
    1d5b: c9 0c        	cmp	#$c
    1d5d: b0 03        	bcs	$1d62 <opl3_setInstrument+0x25>
    1d5f: 4c 67 1e     	jmp	$1e67 <opl3_setInstrument+0x12a>
    1d62: c9 0f        	cmp	#$f
    1d64: b0 03        	bcs	$1d69 <opl3_setInstrument+0x2c>
    1d66: 4c 6c 1e     	jmp	$1e6c <opl3_setInstrument+0x12f>
    1d69: 1a           	inc
    1d6a: 4c 6f 1e     	jmp	$1e6f <opl3_setInstrument+0x132>
    1d6d: 18           	clc
    1d6e: 69 05        	adc	#$5
    1d70: 80 03        	bra	$1d75 <opl3_setInstrument+0x38>
    1d72: 18           	clc
    1d73: 69 0a        	adc	#$a
    1d75: 64 1a        	stz	$1a                     ; 0x1a <__rc10>
    1d77: a2 80        	ldx	#$80
    1d79: 86 18        	stx	$18                     ; 0x18 <__rc8>
    1d7b: a2 d5        	ldx	#$d5
    1d7d: 86 19        	stx	$19                     ; 0x19 <__rc9>
    1d7f: aa           	tax
    1d80: 09 20        	ora	#$20
    1d82: 85 1c        	sta	$1c                     ; 0x1c <__rc12>
    1d84: a0 02        	ldy	#$2
    1d86: b1 12        	lda	($12),y                 ; 0x12 <__rc2>
    1d88: 85 1b        	sta	$1b                     ; 0x1b <__rc11>
    1d8a: a5 1c        	lda	$1c                     ; 0x1c <__rc12>
    1d8c: 92 18        	sta	($18)                   ; 0x18 <__rc8>
    1d8e: a4 1b        	ldy	$1b                     ; 0x1b <__rc11>
    1d90: 8c 81 d5     	sty	$d581                   ; 0xd581 <end_block9+0x4efd>
    1d93: 18           	clc
    1d94: 8a           	txa
    1d95: 69 03        	adc	#$3
    1d97: 85 1c        	sta	$1c                     ; 0x1c <__rc12>
    1d99: a9 00        	lda	#$0
    1d9b: 69 00        	adc	#$0
    1d9d: 05 1a        	ora	$1a                     ; 0x1a <__rc10>
    1d9f: 85 1d        	sta	$1d                     ; 0x1d <__rc13>
    1da1: a0 01        	ldy	#$1
    1da3: b1 12        	lda	($12),y                 ; 0x12 <__rc2>
    1da5: 85 1b        	sta	$1b                     ; 0x1b <__rc11>
    1da7: a5 1c        	lda	$1c                     ; 0x1c <__rc12>
    1da9: 85 1a        	sta	$1a                     ; 0x1a <__rc10>
    1dab: 09 20        	ora	#$20
    1dad: a4 1d        	ldy	$1d                     ; 0x1d <__rc13>
    1daf: c0 01        	cpy	#$1
    1db1: f0 03        	beq	$1db6 <opl3_setInstrument+0x79>
    1db3: 4c 5d 1e     	jmp	$1e5d <opl3_setInstrument+0x120>
    1db6: a4 1a        	ldy	$1a                     ; 0x1a <__rc10>
    1db8: c0 00        	cpy	#$0
    1dba: 90 08        	bcc	$1dc4 <opl3_setInstrument+0x87>
    1dbc: a0 82        	ldy	#$82
    1dbe: 84 14        	sty	$14                     ; 0x14 <__rc4>
    1dc0: a0 d5        	ldy	#$d5
    1dc2: 84 15        	sty	$15                     ; 0x15 <__rc5>
    1dc4: 92 14        	sta	($14)                   ; 0x14 <__rc4>
    1dc6: a4 1b        	ldy	$1b                     ; 0x1b <__rc11>
    1dc8: 8c 81 d5     	sty	$d581                   ; 0xd581 <end_block9+0x4efd>
    1dcb: 8a           	txa
    1dcc: 09 40        	ora	#$40
    1dce: 85 17        	sta	$17                     ; 0x17 <__rc7>
    1dd0: a0 04        	ldy	#$4
    1dd2: b1 12        	lda	($12),y                 ; 0x12 <__rc2>
    1dd4: 85 16        	sta	$16                     ; 0x16 <__rc6>
    1dd6: a5 17        	lda	$17                     ; 0x17 <__rc7>
    1dd8: 92 18        	sta	($18)                   ; 0x18 <__rc8>
    1dda: a4 16        	ldy	$16                     ; 0x16 <__rc6>
    1ddc: 8c 81 d5     	sty	$d581                   ; 0xd581 <end_block9+0x4efd>
    1ddf: a0 03        	ldy	#$3
    1de1: b1 12        	lda	($12),y                 ; 0x12 <__rc2>
    1de3: 85 16        	sta	$16                     ; 0x16 <__rc6>
    1de5: a5 1a        	lda	$1a                     ; 0x1a <__rc10>
    1de7: 09 40        	ora	#$40
    1de9: 92 14        	sta	($14)                   ; 0x14 <__rc4>
    1deb: a4 16        	ldy	$16                     ; 0x16 <__rc6>
    1ded: 8c 81 d5     	sty	$d581                   ; 0xd581 <end_block9+0x4efd>
    1df0: 8a           	txa
    1df1: 09 60        	ora	#$60
    1df3: 85 17        	sta	$17                     ; 0x17 <__rc7>
    1df5: a0 06        	ldy	#$6
    1df7: b1 12        	lda	($12),y                 ; 0x12 <__rc2>
    1df9: 85 16        	sta	$16                     ; 0x16 <__rc6>
    1dfb: a5 17        	lda	$17                     ; 0x17 <__rc7>
    1dfd: 92 18        	sta	($18)                   ; 0x18 <__rc8>
    1dff: a4 16        	ldy	$16                     ; 0x16 <__rc6>
    1e01: 8c 81 d5     	sty	$d581                   ; 0xd581 <end_block9+0x4efd>
    1e04: a0 05        	ldy	#$5
    1e06: b1 12        	lda	($12),y                 ; 0x12 <__rc2>
    1e08: 85 16        	sta	$16                     ; 0x16 <__rc6>
    1e0a: a5 1a        	lda	$1a                     ; 0x1a <__rc10>
    1e0c: 09 60        	ora	#$60
    1e0e: 92 14        	sta	($14)                   ; 0x14 <__rc4>
    1e10: a4 16        	ldy	$16                     ; 0x16 <__rc6>
    1e12: 8c 81 d5     	sty	$d581                   ; 0xd581 <end_block9+0x4efd>
    1e15: 8a           	txa
    1e16: 09 80        	ora	#$80
    1e18: 85 17        	sta	$17                     ; 0x17 <__rc7>
    1e1a: a0 08        	ldy	#$8
    1e1c: b1 12        	lda	($12),y                 ; 0x12 <__rc2>
    1e1e: 85 16        	sta	$16                     ; 0x16 <__rc6>
    1e20: a5 17        	lda	$17                     ; 0x17 <__rc7>
    1e22: 92 18        	sta	($18)                   ; 0x18 <__rc8>
    1e24: a4 16        	ldy	$16                     ; 0x16 <__rc6>
    1e26: 8c 81 d5     	sty	$d581                   ; 0xd581 <end_block9+0x4efd>
    1e29: a0 07        	ldy	#$7
    1e2b: b1 12        	lda	($12),y                 ; 0x12 <__rc2>
    1e2d: 85 16        	sta	$16                     ; 0x16 <__rc6>
    1e2f: a5 1a        	lda	$1a                     ; 0x1a <__rc10>
    1e31: 09 80        	ora	#$80
    1e33: 92 14        	sta	($14)                   ; 0x14 <__rc4>
    1e35: a4 16        	ldy	$16                     ; 0x16 <__rc6>
    1e37: 8c 81 d5     	sty	$d581                   ; 0xd581 <end_block9+0x4efd>
    1e3a: 8a           	txa
    1e3b: 09 e0        	ora	#$e0
    1e3d: aa           	tax
    1e3e: a0 0a        	ldy	#$a
    1e40: b1 12        	lda	($12),y                 ; 0x12 <__rc2>
    1e42: 85 16        	sta	$16                     ; 0x16 <__rc6>
    1e44: 8a           	txa
    1e45: 92 18        	sta	($18)                   ; 0x18 <__rc8>
    1e47: a6 16        	ldx	$16                     ; 0x16 <__rc6>
    1e49: 8e 81 d5     	stx	$d581                   ; 0xd581 <end_block9+0x4efd>
    1e4c: 88           	dey
    1e4d: b1 12        	lda	($12),y                 ; 0x12 <__rc2>
    1e4f: 85 12        	sta	$12                     ; 0x12 <__rc2>
    1e51: a5 1a        	lda	$1a                     ; 0x1a <__rc10>
    1e53: 09 e0        	ora	#$e0
    1e55: 92 14        	sta	($14)                   ; 0x14 <__rc4>
    1e57: a6 12        	ldx	$12                     ; 0x12 <__rc2>
    1e59: 8e 81 d5     	stx	$d581                   ; 0xd581 <end_block9+0x4efd>
    1e5c: 60           	rts
    1e5d: c0 01        	cpy	#$1
    1e5f: 90 03        	bcc	$1e64 <opl3_setInstrument+0x127>
    1e61: 4c bc 1d     	jmp	$1dbc <opl3_setInstrument+0x7f>
    1e64: 4c c4 1d     	jmp	$1dc4 <opl3_setInstrument+0x87>
    1e67: 18           	clc
    1e68: 69 f7        	adc	#$f7
    1e6a: 80 03        	bra	$1e6f <opl3_setInstrument+0x132>
    1e6c: 18           	clc
    1e6d: 69 fc        	adc	#$fc
    1e6f: 84 1a        	sty	$1a                     ; 0x1a <__rc10>
    1e71: a2 82        	ldx	#$82
    1e73: 4c 79 1d     	jmp	$1d79 <opl3_setInstrument+0x3c>

00001e76 <bitmapReset>:
    1e76: a2 40        	ldx	#$40
    1e78: 8e 00 de     	stx	$de00                   ; 0xde00 <end_block9+0x577c>
    1e7b: a2 01        	ldx	#$1
    1e7d: 8e 01 de     	stx	$de01                   ; 0xde01 <end_block9+0x577d>
    1e80: a2 f0        	ldx	#$f0
    1e82: 8e 02 de     	stx	$de02                   ; 0xde02 <end_block9+0x577e>
    1e85: 9c 03 de     	stz	$de03                   ; 0xde03 <end_block9+0x577f>
    1e88: ae 10 de     	ldx	$de10                   ; 0xde10 <end_block9+0x578c>
    1e8b: 86 17        	stx	$17                     ; 0x17 <__rc7>
    1e8d: ae 11 de     	ldx	$de11                   ; 0xde11 <end_block9+0x578d>
    1e90: 86 12        	stx	$12                     ; 0x12 <__rc2>
    1e92: ae 12 de     	ldx	$de12                   ; 0xde12 <end_block9+0x578e>
    1e95: 86 13        	stx	$13                     ; 0x13 <__rc3>
    1e97: ae 13 de     	ldx	$de13                   ; 0xde13 <end_block9+0x578f>
    1e9a: 86 14        	stx	$14                     ; 0x14 <__rc4>
    1e9c: a4 12        	ldy	$12                     ; 0x12 <__rc2>
    1e9e: 84 15        	sty	$15                     ; 0x15 <__rc5>
    1ea0: 06 15        	asl	$15                     ; 0x15 <__rc5>
    1ea2: a5 13        	lda	$13                     ; 0x13 <__rc3>
    1ea4: 2a           	rol
    1ea5: 86 16        	stx	$16                     ; 0x16 <__rc6>
    1ea7: 26 16        	rol	$16                     ; 0x16 <__rc6>
    1ea9: 06 15        	asl	$15                     ; 0x15 <__rc5>
    1eab: 2a           	rol
    1eac: 26 16        	rol	$16                     ; 0x16 <__rc6>
    1eae: 06 15        	asl	$15                     ; 0x15 <__rc5>
    1eb0: 2a           	rol
    1eb1: 26 16        	rol	$16                     ; 0x16 <__rc6>
    1eb3: 85 15        	sta	$15                     ; 0x15 <__rc5>
    1eb5: 8d 00 de     	sta	$de00                   ; 0xde00 <end_block9+0x577c>
    1eb8: a5 16        	lda	$16                     ; 0x16 <__rc6>
    1eba: 8d 01 de     	sta	$de01                   ; 0xde01 <end_block9+0x577d>
    1ebd: 9c 02 de     	stz	$de02                   ; 0xde02 <end_block9+0x577e>
    1ec0: a2 20        	ldx	#$20
    1ec2: 8e 03 de     	stx	$de03                   ; 0xde03 <end_block9+0x577f>
    1ec5: ae 10 de     	ldx	$de10                   ; 0xde10 <end_block9+0x578c>
    1ec8: 86 16        	stx	$16                     ; 0x16 <__rc6>
    1eca: ae 11 de     	ldx	$de11                   ; 0xde11 <end_block9+0x578d>
    1ecd: 86 18        	stx	$18                     ; 0x18 <__rc8>
    1ecf: ac 12 de     	ldy	$de12                   ; 0xde12 <end_block9+0x578e>
    1ed2: ae 13 de     	ldx	$de13                   ; 0xde13 <end_block9+0x578f>
    1ed5: e4 14        	cpx	$14                     ; 0x14 <__rc4>
    1ed7: d0 14        	bne	$1eed <bitmapReset+0x77>
    1ed9: c4 13        	cpy	$13                     ; 0x13 <__rc3>
    1edb: d0 10        	bne	$1eed <bitmapReset+0x77>
    1edd: a6 18        	ldx	$18                     ; 0x18 <__rc8>
    1edf: e4 12        	cpx	$12                     ; 0x12 <__rc2>
    1ee1: d0 0a        	bne	$1eed <bitmapReset+0x77>
    1ee3: a6 16        	ldx	$16                     ; 0x16 <__rc6>
    1ee5: e4 17        	cpx	$17                     ; 0x17 <__rc7>
    1ee7: d0 04        	bne	$1eed <bitmapReset+0x77>
    1ee9: a6 15        	ldx	$15                     ; 0x15 <__rc5>
    1eeb: 80 06        	bra	$1ef3 <bitmapReset+0x7d>
    1eed: a6 15        	ldx	$15                     ; 0x15 <__rc5>
    1eef: e8           	inx
    1ef0: d0 01        	bne	$1ef3 <bitmapReset+0x7d>
    1ef2: 1a           	inc
    1ef3: 8e 00 de     	stx	$de00                   ; 0xde00 <end_block9+0x577c>
    1ef6: 8d 01 de     	sta	$de01                   ; 0xde01 <end_block9+0x577d>
    1ef9: 9c 02 de     	stz	$de02                   ; 0xde02 <end_block9+0x577e>
    1efc: a2 20        	ldx	#$20
    1efe: 8e 03 de     	stx	$de03                   ; 0xde03 <end_block9+0x577f>
    1f01: ae 10 de     	ldx	$de10                   ; 0xde10 <end_block9+0x578c>
    1f04: 86 12        	stx	$12                     ; 0x12 <__rc2>
    1f06: ae 11 de     	ldx	$de11                   ; 0xde11 <end_block9+0x578d>
    1f09: 86 13        	stx	$13                     ; 0x13 <__rc3>
    1f0b: ae 12 de     	ldx	$de12                   ; 0xde12 <end_block9+0x578e>
    1f0e: 86 14        	stx	$14                     ; 0x14 <__rc4>
    1f10: ae 13 de     	ldx	$de13                   ; 0xde13 <end_block9+0x578f>
    1f13: 86 15        	stx	$15                     ; 0x15 <__rc5>
    1f15: a9 00        	lda	#$0
    1f17: 38           	sec
    1f18: e5 12        	sbc	$12                     ; 0x12 <__rc2>
    1f1a: 85 16        	sta	$16                     ; 0x16 <__rc6>
    1f1c: a9 00        	lda	#$0
    1f1e: e5 13        	sbc	$13                     ; 0x13 <__rc3>
    1f20: 85 17        	sta	$17                     ; 0x17 <__rc7>
    1f22: a9 08        	lda	#$8
    1f24: e5 14        	sbc	$14                     ; 0x14 <__rc4>
    1f26: aa           	tax
    1f27: a9 00        	lda	#$0
    1f29: e5 15        	sbc	$15                     ; 0x15 <__rc5>
    1f2b: 85 15        	sta	$15                     ; 0x15 <__rc5>
    1f2d: a5 17        	lda	$17                     ; 0x17 <__rc7>
    1f2f: 8d 89 84     	sta	$8489                   ; 0x8489 <_BITMAP_BASE.0+0x1>
    1f32: 8e 8a 84     	stx	$848a                   ; 0x848a <_BITMAP_BASE.0+0x2>
    1f35: a4 15        	ldy	$15                     ; 0x15 <__rc5>
    1f37: 8c 8b 84     	sty	$848b                   ; 0x848b <_BITMAP_BASE.0+0x3>
    1f3a: a5 16        	lda	$16                     ; 0x16 <__rc6>
    1f3c: 38           	sec
    1f3d: e5 12        	sbc	$12                     ; 0x12 <__rc2>
    1f3f: a8           	tay
    1f40: a5 17        	lda	$17                     ; 0x17 <__rc7>
    1f42: e5 13        	sbc	$13                     ; 0x13 <__rc3>
    1f44: 85 15        	sta	$15                     ; 0x15 <__rc5>
    1f46: 8a           	txa
    1f47: e5 14        	sbc	$14                     ; 0x14 <__rc4>
    1f49: aa           	tax
    1f4a: 98           	tya
    1f4b: 38           	sec
    1f4c: e5 12        	sbc	$12                     ; 0x12 <__rc2>
    1f4e: 85 12        	sta	$12                     ; 0x12 <__rc2>
    1f50: a5 15        	lda	$15                     ; 0x15 <__rc5>
    1f52: e5 13        	sbc	$13                     ; 0x13 <__rc3>
    1f54: 85 13        	sta	$13                     ; 0x13 <__rc3>
    1f56: 8a           	txa
    1f57: 86 17        	stx	$17                     ; 0x17 <__rc7>
    1f59: e5 14        	sbc	$14                     ; 0x14 <__rc4>
    1f5b: a6 16        	ldx	$16                     ; 0x16 <__rc6>
    1f5d: 8e 88 84     	stx	$8488                   ; 0x8488 <_BITMAP_BASE.0>
    1f60: 8e 01 d1     	stx	$d101                   ; 0xd101 <end_block9+0x4a7d>
    1f63: ae 89 84     	ldx	$8489                   ; 0x8489 <_BITMAP_BASE.0+0x1>
    1f66: 8e 02 d1     	stx	$d102                   ; 0xd102 <end_block9+0x4a7e>
    1f69: ae 8a 84     	ldx	$848a                   ; 0x848a <_BITMAP_BASE.0+0x2>
    1f6c: 8e 03 d1     	stx	$d103                   ; 0xd103 <end_block9+0x4a7f>
    1f6f: 8c 09 d1     	sty	$d109                   ; 0xd109 <end_block9+0x4a85>
    1f72: a6 15        	ldx	$15                     ; 0x15 <__rc5>
    1f74: 8e 0a d1     	stx	$d10a                   ; 0xd10a <end_block9+0x4a86>
    1f77: a6 17        	ldx	$17                     ; 0x17 <__rc7>
    1f79: 8e 0b d1     	stx	$d10b                   ; 0xd10b <end_block9+0x4a87>
    1f7c: a6 12        	ldx	$12                     ; 0x12 <__rc2>
    1f7e: 8e 11 d1     	stx	$d111                   ; 0xd111 <end_block9+0x4a8d>
    1f81: a6 13        	ldx	$13                     ; 0x13 <__rc3>
    1f83: 8e 12 d1     	stx	$d112                   ; 0xd112 <end_block9+0x4a8e>
    1f86: 8d 13 d1     	sta	$d113                   ; 0xd113 <end_block9+0x4a8f>
    1f89: 9c 00 d1     	stz	$d100                   ; 0xd100 <end_block9+0x4a7c>
    1f8c: 9c 08 d1     	stz	$d108                   ; 0xd108 <end_block9+0x4a84>
    1f8f: 9c 10 d1     	stz	$d110                   ; 0xd110 <end_block9+0x4a8c>
    1f92: 60           	rts

00001f93 <main>:
    1f93: 18           	clc
    1f94: a5 10        	lda	$10                     ; 0x10 <__rc0>
    1f96: 69 97        	adc	#$97
    1f98: 85 10        	sta	$10                     ; 0x10 <__rc0>
    1f9a: a5 11        	lda	$11                     ; 0x11 <__rc1>
    1f9c: 69 ff        	adc	#$ff
    1f9e: 85 11        	sta	$11                     ; 0x11 <__rc1>
    1fa0: a6 24        	ldx	$24                     ; 0x24 <__rc20>
    1fa2: da           	phx
    1fa3: a6 25        	ldx	$25                     ; 0x25 <__rc21>
    1fa5: da           	phx
    1fa6: a6 26        	ldx	$26                     ; 0x26 <__rc22>
    1fa8: da           	phx
    1fa9: a6 27        	ldx	$27                     ; 0x27 <__rc23>
    1fab: da           	phx
    1fac: a5 28        	lda	$28                     ; 0x28 <__rc24>
    1fae: a0 0d        	ldy	#$d
    1fb0: 91 10        	sta	($10),y                 ; 0x10 <__rc0>
    1fb2: a5 29        	lda	$29                     ; 0x29 <__rc25>
    1fb4: 88           	dey
    1fb5: 91 10        	sta	($10),y                 ; 0x10 <__rc0>
    1fb7: a5 2a        	lda	$2a                     ; 0x2a <__rc26>
    1fb9: 88           	dey
    1fba: 91 10        	sta	($10),y                 ; 0x10 <__rc0>
    1fbc: a5 2b        	lda	$2b                     ; 0x2b <__rc27>
    1fbe: 88           	dey
    1fbf: 91 10        	sta	($10),y                 ; 0x10 <__rc0>
    1fc1: a5 2c        	lda	$2c                     ; 0x2c <__zp_bss_size>
    1fc3: 88           	dey
    1fc4: 91 10        	sta	($10),y                 ; 0x10 <__rc0>
    1fc6: a5 2d        	lda	$2d                     ; 0x2d <__rc29>
    1fc8: 88           	dey
    1fc9: 91 10        	sta	($10),y                 ; 0x10 <__rc0>
    1fcb: a5 2e        	lda	$2e                     ; 0x2e <__rc30>
    1fcd: 88           	dey
    1fce: 91 10        	sta	($10),y                 ; 0x10 <__rc0>
    1fd0: a5 2f        	lda	$2f                     ; 0x2f <__rc31>
    1fd2: 88           	dey
    1fd3: 91 10        	sta	($10),y                 ; 0x10 <__rc0>
    1fd5: a2 80        	ldx	#$80
    1fd7: 86 12        	stx	$12                     ; 0x12 <__rc2>
    1fd9: a2 d5        	ldx	#$d5
    1fdb: 86 13        	stx	$13                     ; 0x13 <__rc3>
    1fdd: a5 12        	lda	$12                     ; 0x12 <__rc2>
    1fdf: a0 1c        	ldy	#$1c
    1fe1: 91 10        	sta	($10),y                 ; 0x10 <__rc0>
    1fe3: a5 13        	lda	$13                     ; 0x13 <__rc3>
    1fe5: c8           	iny
    1fe6: 91 10        	sta	($10),y                 ; 0x10 <__rc0>
    1fe8: a2 82        	ldx	#$82
    1fea: 86 12        	stx	$12                     ; 0x12 <__rc2>
    1fec: a2 d5        	ldx	#$d5
    1fee: 86 13        	stx	$13                     ; 0x13 <__rc3>
    1ff0: a5 12        	lda	$12                     ; 0x12 <__rc2>
    1ff2: a0 1a        	ldy	#$1a
    1ff4: 91 10        	sta	($10),y                 ; 0x10 <__rc0>
    1ff6: a5 13        	lda	$13                     ; 0x13 <__rc3>
    1ff8: c8           	iny
    1ff9: 91 10        	sta	($10),y                 ; 0x10 <__rc0>
    1ffb: a2 8e        	ldx	#$8e
    1ffd: 86 24        	stx	$24                     ; 0x24 <__rc20>
    1fff: a2 85        	ldx	#$85
    2001: 86 25        	stx	$25                     ; 0x25 <__rc21>
    2003: 64 26        	stz	$26                     ; 0x26 <__rc22>
    2005: a2 00        	ldx	#$0
    2007: 86 12        	stx	$12                     ; 0x12 <__rc2>
    2009: a2 c0        	ldx	#$c0
    200b: 86 13        	stx	$13                     ; 0x13 <__rc3>
    200d: a2 90        	ldx	#$90
    200f: 86 14        	stx	$14                     ; 0x14 <__rc4>
    2011: a2 85        	ldx	#$85
    2013: 86 15        	stx	$15                     ; 0x15 <__rc5>
    2015: a5 14        	lda	$14                     ; 0x14 <__rc4>
    2017: a0 0e        	ldy	#$e
    2019: 91 10        	sta	($10),y                 ; 0x10 <__rc0>
    201b: a5 15        	lda	$15                     ; 0x15 <__rc5>
    201d: c8           	iny
    201e: 91 10        	sta	($10),y                 ; 0x10 <__rc0>
    2020: 64 01        	stz	$1                      ; 0x1 <__data_size+0x1>
    2022: a2 3f        	ldx	#$3f
    2024: 8e 00 d0     	stx	$d000                   ; 0xd000 <end_block9+0x497c>
    2027: a2 b3        	ldx	#$b3
    2029: 86 00        	stx	$0                      ; 0x0 <__data_size>
    202b: 64 08        	stz	$8                      ; 0x8 <__zp_data_size+0x4>
    202d: a2 01        	ldx	#$1
    202f: 86 09        	stx	$9                      ; 0x9 <__zp_data_size+0x5>
    2031: e8           	inx
    2032: 86 0a        	stx	$a                      ; 0xa <__zp_data_size+0x6>
    2034: e8           	inx
    2035: 86 0b        	stx	$b                      ; 0xb <__zp_data_size+0x7>
    2037: e8           	inx
    2038: 86 0c        	stx	$c                      ; 0xc <__zp_data_size+0x8>
    203a: e8           	inx
    203b: 86 0d        	stx	$d                      ; 0xd <__zp_data_size+0x9>
    203d: a2 4b        	ldx	#$4b
    203f: a0 00        	ldy	#$0
    2041: 86 f0        	stx	$f0                     ; 0xf0 <__rc31+0xc1>
    2043: 84 f1        	sty	$f1                     ; 0xf1 <__rc31+0xc2>
    2045: a2 00        	ldx	#$0
    2047: 86 16        	stx	$16                     ; 0x16 <__rc6>
    2049: ca           	dex
    204a: 86 17        	stx	$17                     ; 0x17 <__rc7>
    204c: 8a           	txa
    204d: 0a           	asl
    204e: 0a           	asl
    204f: 18           	clc
    2050: 69 d4        	adc	#$d4
    2052: 85 18        	sta	$18                     ; 0x18 <__rc8>
    2054: a0 00        	ldy	#$0
    2056: 64 1c        	stz	$1c                     ; 0x1c <__rc12>
    2058: 64 15        	stz	$15                     ; 0x15 <__rc5>
    205a: a6 17        	ldx	$17                     ; 0x17 <__rc7>
    205c: e0 03        	cpx	#$3
    205e: a6 01        	ldx	$1                      ; 0x1 <__data_size+0x1>
    2060: 86 1a        	stx	$1a                     ; 0x1a <__rc10>
    2062: a2 d0        	ldx	#$d0
    2064: 84 19        	sty	$19                     ; 0x19 <__rc9>
    2066: b0 02        	bcs	$206a <main+0xd7>
    2068: a6 18        	ldx	$18                     ; 0x18 <__rc8>
    206a: 86 14        	stx	$14                     ; 0x14 <__rc4>
    206c: a5 1c        	lda	$1c                     ; 0x1c <__rc12>
    206e: 18           	clc
    206f: 65 26        	adc	$26                     ; 0x26 <__rc22>
    2071: a8           	tay
    2072: a6 15        	ldx	$15                     ; 0x15 <__rc5>
    2074: 86 1b        	stx	$1b                     ; 0x1b <__rc11>
    2076: a5 15        	lda	$15                     ; 0x15 <__rc5>
    2078: 65 14        	adc	$14                     ; 0x14 <__rc4>
    207a: 84 14        	sty	$14                     ; 0x14 <__rc4>
    207c: a0 01        	ldy	#$1
    207e: 84 01        	sty	$1                      ; 0x1 <__data_size+0x1>
    2080: 85 15        	sta	$15                     ; 0x15 <__rc5>
    2082: a5 19        	lda	$19                     ; 0x19 <__rc9>
    2084: 92 14        	sta	($14)                   ; 0x14 <__rc4>
    2086: 91 14        	sta	($14),y                 ; 0x14 <__rc4>
    2088: c8           	iny
    2089: 91 14        	sta	($14),y                 ; 0x14 <__rc4>
    208b: c8           	iny
    208c: a9 ff        	lda	#$ff
    208e: 91 14        	sta	($14),y                 ; 0x14 <__rc4>
    2090: a5 1c        	lda	$1c                     ; 0x1c <__rc12>
    2092: a6 1a        	ldx	$1a                     ; 0x1a <__rc10>
    2094: 86 01        	stx	$1                      ; 0x1 <__data_size+0x1>
    2096: 18           	clc
    2097: 69 04        	adc	#$4
    2099: 85 1c        	sta	$1c                     ; 0x1c <__rc12>
    209b: a5 1b        	lda	$1b                     ; 0x1b <__rc11>
    209d: 69 00        	adc	#$0
    209f: e6 19        	inc	$19                     ; 0x19 <__rc9>
    20a1: a4 19        	ldy	$19                     ; 0x19 <__rc9>
    20a3: 85 15        	sta	$15                     ; 0x15 <__rc5>
    20a5: c9 04        	cmp	#$4
    20a7: d0 b1        	bne	$205a <main+0xc7>
    20a9: a5 1c        	lda	$1c                     ; 0x1c <__rc12>
    20ab: f0 03        	beq	$20b0 <main+0x11d>
    20ad: 4c 5a 20     	jmp	$205a <main+0xc7>
    20b0: a6 16        	ldx	$16                     ; 0x16 <__rc6>
    20b2: e8           	inx
    20b3: e0 04        	cpx	#$4
    20b5: f0 03        	beq	$20ba <main+0x127>
    20b7: 4c 47 20     	jmp	$2047 <main+0xb4>
    20ba: ad 02 d0     	lda	$d002                   ; 0xd002 <end_block9+0x497e>
    20bd: a2 f0        	ldx	#$f0
    20bf: 29 f0        	and	#$f0
    20c1: 8d 02 d0     	sta	$d002                   ; 0xd002 <end_block9+0x497e>
    20c4: ad 02 d0     	lda	$d002                   ; 0xd002 <end_block9+0x497e>
    20c7: 29 0f        	and	#$f
    20c9: 09 10        	ora	#$10
    20cb: 8d 02 d0     	sta	$d002                   ; 0xd002 <end_block9+0x497e>
    20ce: a0 02        	ldy	#$2
    20d0: 8c 03 d0     	sty	$d003                   ; 0xd003 <end_block9+0x497f>
    20d3: 86 33        	stx	$33                     ; 0x33 <_ccolor>
    20d5: ad 01 d0     	lda	$d001                   ; 0xd001 <end_block9+0x497d>
    20d8: 29 f9        	and	#$f9
    20da: 09 04        	ora	#$4
    20dc: 8d 01 d0     	sta	$d001                   ; 0xd001 <end_block9+0x497d>
    20df: 64 14        	stz	$14                     ; 0x14 <__rc4>
    20e1: 9c 10 d0     	stz	$d010                   ; 0xd010 <end_block9+0x498c>
    20e4: a2 00        	ldx	#$0
    20e6: 64 15        	stz	$15                     ; 0x15 <__rc5>
    20e8: 86 18        	stx	$18                     ; 0x18 <__rc8>
    20ea: a4 18        	ldy	$18                     ; 0x18 <__rc8>
    20ec: be 4a 54     	ldx	$544a,y                 ; 0x544a <textColors>
    20ef: 86 19        	stx	$19                     ; 0x19 <__rc9>
    20f1: be 4b 54     	ldx	$544b,y                 ; 0x544b <textColors+0x1>
    20f4: 86 1a        	stx	$1a                     ; 0x1a <__rc10>
    20f6: be 4c 54     	ldx	$544c,y                 ; 0x544c <textColors+0x2>
    20f9: 86 1b        	stx	$1b                     ; 0x1b <__rc11>
    20fb: a6 15        	ldx	$15                     ; 0x15 <__rc5>
    20fd: 8e 00 de     	stx	$de00                   ; 0xde00 <end_block9+0x577c>
    2100: 86 17        	stx	$17                     ; 0x17 <__rc7>
    2102: 9c 01 de     	stz	$de01                   ; 0xde01 <end_block9+0x577d>
    2105: a2 04        	ldx	#$4
    2107: 8e 02 de     	stx	$de02                   ; 0xde02 <end_block9+0x577e>
    210a: 86 1d        	stx	$1d                     ; 0x1d <__rc13>
    210c: 9c 03 de     	stz	$de03                   ; 0xde03 <end_block9+0x577f>
    210f: ad 10 de     	lda	$de10                   ; 0xde10 <end_block9+0x578c>
    2112: ac 11 de     	ldy	$de11                   ; 0xde11 <end_block9+0x578d>
    2115: 84 15        	sty	$15                     ; 0x15 <__rc5>
    2117: ac 12 de     	ldy	$de12                   ; 0xde12 <end_block9+0x578e>
    211a: ac 13 de     	ldy	$de13                   ; 0xde13 <end_block9+0x578f>
    211d: a2 00        	ldx	#$0
    211f: 18           	clc
    2120: 65 14        	adc	$14                     ; 0x14 <__rc4>
    2122: a8           	tay
    2123: 86 1f        	stx	$1f                     ; 0x1f <__rc15>
    2125: a6 17        	ldx	$17                     ; 0x17 <__rc7>
    2127: a9 d8        	lda	#$d8
    2129: 65 15        	adc	$15                     ; 0x15 <__rc5>
    212b: 84 16        	sty	$16                     ; 0x16 <__rc6>
    212d: 85 17        	sta	$17                     ; 0x17 <__rc7>
    212f: a5 1b        	lda	$1b                     ; 0x1b <__rc11>
    2131: 92 16        	sta	($16)                   ; 0x16 <__rc6>
    2133: a0 01        	ldy	#$1
    2135: a5 1a        	lda	$1a                     ; 0x1a <__rc10>
    2137: 91 16        	sta	($16),y                 ; 0x16 <__rc6>
    2139: 84 1c        	sty	$1c                     ; 0x1c <__rc12>
    213b: c8           	iny
    213c: a5 19        	lda	$19                     ; 0x19 <__rc9>
    213e: 91 16        	sta	($16),y                 ; 0x16 <__rc6>
    2140: 84 1e        	sty	$1e                     ; 0x1e <__rc14>
    2142: c8           	iny
    2143: a9 ff        	lda	#$ff
    2145: 91 16        	sta	($16),y                 ; 0x16 <__rc6>
    2147: 85 23        	sta	$23                     ; 0x23 <__rc19>
    2149: 84 22        	sty	$22                     ; 0x22 <__rc18>
    214b: 8e 00 de     	stx	$de00                   ; 0xde00 <end_block9+0x577c>
    214e: 9c 01 de     	stz	$de01                   ; 0xde01 <end_block9+0x577d>
    2151: a4 1d        	ldy	$1d                     ; 0x1d <__rc13>
    2153: 8c 02 de     	sty	$de02                   ; 0xde02 <end_block9+0x577e>
    2156: 9c 03 de     	stz	$de03                   ; 0xde03 <end_block9+0x577f>
    2159: ad 10 de     	lda	$de10                   ; 0xde10 <end_block9+0x578c>
    215c: 85 15        	sta	$15                     ; 0x15 <__rc5>
    215e: ad 11 de     	lda	$de11                   ; 0xde11 <end_block9+0x578d>
    2161: 85 16        	sta	$16                     ; 0x16 <__rc6>
    2163: a9 40        	lda	#$40
    2165: a4 1f        	ldy	$1f                     ; 0x1f <__rc15>
    2167: c0 01        	cpy	#$1
    2169: 65 15        	adc	$15                     ; 0x15 <__rc5>
    216b: a8           	tay
    216c: a9 d8        	lda	#$d8
    216e: 65 16        	adc	$16                     ; 0x16 <__rc6>
    2170: 85 17        	sta	$17                     ; 0x17 <__rc7>
    2172: 84 16        	sty	$16                     ; 0x16 <__rc6>
    2174: ad 12 de     	lda	$de12                   ; 0xde12 <end_block9+0x578e>
    2177: ad 13 de     	lda	$de13                   ; 0xde13 <end_block9+0x578f>
    217a: a5 1b        	lda	$1b                     ; 0x1b <__rc11>
    217c: 92 16        	sta	($16)                   ; 0x16 <__rc6>
    217e: a5 1a        	lda	$1a                     ; 0x1a <__rc10>
    2180: a4 1c        	ldy	$1c                     ; 0x1c <__rc12>
    2182: 91 16        	sta	($16),y                 ; 0x16 <__rc6>
    2184: a5 19        	lda	$19                     ; 0x19 <__rc9>
    2186: a4 1e        	ldy	$1e                     ; 0x1e <__rc14>
    2188: 91 16        	sta	($16),y                 ; 0x16 <__rc6>
    218a: a4 22        	ldy	$22                     ; 0x22 <__rc18>
    218c: a5 23        	lda	$23                     ; 0x23 <__rc19>
    218e: 91 16        	sta	($16),y                 ; 0x16 <__rc6>
    2190: e8           	inx
    2191: 86 15        	stx	$15                     ; 0x15 <__rc5>
    2193: 18           	clc
    2194: a5 18        	lda	$18                     ; 0x18 <__rc8>
    2196: 69 03        	adc	#$3
    2198: aa           	tax
    2199: c9 30        	cmp	#$30
    219b: f0 03        	beq	$21a0 <main+0x20d>
    219d: 4c e8 20     	jmp	$20e8 <main+0x155>
    21a0: a6 01        	ldx	$1                      ; 0x1 <__data_size+0x1>
    21a2: 86 18        	stx	$18                     ; 0x18 <__rc8>
    21a4: a2 50        	ldx	#$50
    21a6: 8e 00 de     	stx	$de00                   ; 0xde00 <end_block9+0x577c>
    21a9: 9c 01 de     	stz	$de01                   ; 0xde01 <end_block9+0x577d>
    21ac: a2 1e        	ldx	#$1e
    21ae: 8e 02 de     	stx	$de02                   ; 0xde02 <end_block9+0x577e>
    21b1: 9c 03 de     	stz	$de03                   ; 0xde03 <end_block9+0x577f>
    21b4: ae 10 de     	ldx	$de10                   ; 0xde10 <end_block9+0x578c>
    21b7: ac 11 de     	ldy	$de11                   ; 0xde11 <end_block9+0x578d>
    21ba: ad 12 de     	lda	$de12                   ; 0xde12 <end_block9+0x578e>
    21bd: ad 13 de     	lda	$de13                   ; 0xde13 <end_block9+0x578f>
    21c0: a9 02        	lda	#$2
    21c2: 85 01        	sta	$1                      ; 0x1 <__data_size+0x1>
    21c4: e0 01        	cpx	#$1
    21c6: 98           	tya
    21c7: e9 00        	sbc	#$0
    21c9: 50 02        	bvc	$21cd <main+0x23a>
    21cb: 49 80        	eor	#$80
    21cd: c9 00        	cmp	#$0
    21cf: 30 4c        	bmi	$221d <main+0x28a>
    21d1: a9 20        	lda	#$20
    21d3: 86 19        	stx	$19                     ; 0x19 <__rc9>
    21d5: 86 14        	stx	$14                     ; 0x14 <__rc4>
    21d7: 84 15        	sty	$15                     ; 0x15 <__rc5>
    21d9: a2 00        	ldx	#$0
    21db: 86 16        	stx	$16                     ; 0x16 <__rc6>
    21dd: a2 c0        	ldx	#$c0
    21df: 86 17        	stx	$17                     ; 0x17 <__rc7>
    21e1: 92 16        	sta	($16)                   ; 0x16 <__rc6>
    21e3: e6 16        	inc	$16                     ; 0x16 <__rc6>
    21e5: d0 02        	bne	$21e9 <main+0x256>
    21e7: e6 17        	inc	$17                     ; 0x17 <__rc7>
    21e9: a2 ff        	ldx	#$ff
    21eb: c6 14        	dec	$14                     ; 0x14 <__rc4>
    21ed: e4 14        	cpx	$14                     ; 0x14 <__rc4>
    21ef: d0 02        	bne	$21f3 <main+0x260>
    21f1: c6 15        	dec	$15                     ; 0x15 <__rc5>
    21f3: a6 15        	ldx	$15                     ; 0x15 <__rc5>
    21f5: d0 ea        	bne	$21e1 <main+0x24e>
    21f7: a6 14        	ldx	$14                     ; 0x14 <__rc4>
    21f9: d0 e6        	bne	$21e1 <main+0x24e>
    21fb: a2 03        	ldx	#$3
    21fd: 86 01        	stx	$1                      ; 0x1 <__data_size+0x1>
    21ff: a6 33        	ldx	$33                     ; 0x33 <_ccolor>
    2201: 86 14        	stx	$14                     ; 0x14 <__rc4>
    2203: a6 19        	ldx	$19                     ; 0x19 <__rc9>
    2205: a5 14        	lda	$14                     ; 0x14 <__rc4>
    2207: 92 12        	sta	($12)                   ; 0x12 <__rc2>
    2209: e6 12        	inc	$12                     ; 0x12 <__rc2>
    220b: d0 02        	bne	$220f <main+0x27c>
    220d: e6 13        	inc	$13                     ; 0x13 <__rc3>
    220f: ca           	dex
    2210: e0 ff        	cpx	#$ff
    2212: d0 01        	bne	$2215 <main+0x282>
    2214: 88           	dey
    2215: 98           	tya
    2216: d0 ed        	bne	$2205 <main+0x272>
    2218: 8a           	txa
    2219: d0 ea        	bne	$2205 <main+0x272>
    221b: 80 04        	bra	$2221 <main+0x28e>
    221d: a2 03        	ldx	#$3
    221f: 86 01        	stx	$1                      ; 0x1 <__data_size+0x1>
    2221: a6 18        	ldx	$18                     ; 0x18 <__rc8>
    2223: 86 01        	stx	$1                      ; 0x1 <__data_size+0x1>
    2225: 64 53        	stz	$53                     ; 0x53 <_col>
    2227: 9c 14 d0     	stz	$d014                   ; 0xd014 <end_block9+0x4990>
    222a: 9c 15 d0     	stz	$d015                   ; 0xd015 <end_block9+0x4991>
    222d: 64 54        	stz	$54                     ; 0x54 <_row>
    222f: 9c 16 d0     	stz	$d016                   ; 0xd016 <end_block9+0x4992>
    2232: 9c 17 d0     	stz	$d017                   ; 0xd017 <end_block9+0x4993>
    2235: 20 76 1e     	jsr	$1e76 <bitmapReset>
    2238: a2 10        	ldx	#$10
    223a: 8e 00 d2     	stx	$d200                   ; 0xd200 <end_block9+0x4b7c>
    223d: 8e 0c d2     	stx	$d20c                   ; 0xd20c <end_block9+0x4b88>
    2240: 8e 18 d2     	stx	$d218                   ; 0xd218 <end_block9+0x4b94>
    2243: a0 d9        	ldy	#$d9
    2245: a2 40        	ldx	#$40
    2247: 64 12        	stz	$12                     ; 0x12 <__rc2>
    2249: 84 13        	sty	$13                     ; 0x13 <__rc3>
    224b: a9 00        	lda	#$0
    224d: 92 12        	sta	($12)                   ; 0x12 <__rc2>
    224f: ca           	dex
    2250: 18           	clc
    2251: a5 12        	lda	$12                     ; 0x12 <__rc2>
    2253: 69 08        	adc	#$8
    2255: 85 12        	sta	$12                     ; 0x12 <__rc2>
    2257: 98           	tya
    2258: 69 00        	adc	#$0
    225a: a8           	tay
    225b: 8a           	txa
    225c: d0 eb        	bne	$2249 <main+0x2b6>
    225e: a9 08        	lda	#$8
    2260: a2 55        	ldx	#$55
    2262: 86 12        	stx	$12                     ; 0x12 <__rc2>
    2264: a2 00        	ldx	#$0
    2266: 86 13        	stx	$13                     ; 0x13 <__rc3>
    2268: 64 14        	stz	$14                     ; 0x14 <__rc4>
    226a: aa           	tax
    226b: 85 27        	sta	$27                     ; 0x27 <__rc23>
    226d: a9 00        	lda	#$0
    226f: 20 6b 4e     	jsr	$4e6b <__memset>
    2272: 18           	clc
    2273: a5 10        	lda	$10                     ; 0x10 <__rc0>
    2275: 69 26        	adc	#$26
    2277: 85 2a        	sta	$2a                     ; 0x2a <__rc26>
    2279: a5 11        	lda	$11                     ; 0x11 <__rc1>
    227b: 69 00        	adc	#$0
    227d: 85 2b        	sta	$2b                     ; 0x2b <__rc27>
    227f: a6 2a        	ldx	$2a                     ; 0x2a <__rc26>
    2281: 86 fb        	stx	$fb                     ; 0xfb <__rc31+0xcc>
    2283: 85 fc        	sta	$fc                     ; 0xfc <__rc31+0xcd>
    2285: a6 27        	ldx	$27                     ; 0x27 <__rc23>
    2287: 86 fd        	stx	$fd                     ; 0xfd <__rc31+0xce>
    2289: 18           	clc
    228a: a5 10        	lda	$10                     ; 0x10 <__rc0>
    228c: 69 68        	adc	#$68
    228e: 85 16        	sta	$16                     ; 0x16 <__rc6>
    2290: a5 11        	lda	$11                     ; 0x11 <__rc1>
    2292: 69 00        	adc	#$0
    2294: 85 17        	sta	$17                     ; 0x17 <__rc7>
    2296: a2 52        	ldx	#$52
    2298: 86 12        	stx	$12                     ; 0x12 <__rc2>
    229a: a2 00        	ldx	#$0
    229c: 86 13        	stx	$13                     ; 0x13 <__rc3>
    229e: a0 06        	ldy	#$6
    22a0: 5a           	phy
    22a1: a5 16        	lda	$16                     ; 0x16 <__rc6>
    22a3: a0 15        	ldy	#$15
    22a5: 91 10        	sta	($10),y                 ; 0x10 <__rc0>
    22a7: a5 17        	lda	$17                     ; 0x17 <__rc7>
    22a9: c8           	iny
    22aa: 91 10        	sta	($10),y                 ; 0x10 <__rc0>
    22ac: 7a           	ply
    22ad: 20 dc ff     	jsr	$ffdc <end_block9+0x7958>
    22b0: 92 16        	sta	($16)                   ; 0x16 <__rc6>
    22b2: a9 00        	lda	#$0
    22b4: 6a           	ror
    22b5: 85 12        	sta	$12                     ; 0x12 <__rc2>
    22b7: b1 2a        	lda	($2a),y                 ; 0x2a <__rc26>
    22b9: 85 12        	sta	$12                     ; 0x12 <__rc2>
    22bb: a0 07        	ldy	#$7
    22bd: b1 2a        	lda	($2a),y                 ; 0x2a <__rc26>
    22bf: a6 12        	ldx	$12                     ; 0x12 <__rc2>
    22c1: 8e 00 de     	stx	$de00                   ; 0xde00 <end_block9+0x577c>
    22c4: 9c 01 de     	stz	$de01                   ; 0xde01 <end_block9+0x577d>
    22c7: 8d 02 de     	sta	$de02                   ; 0xde02 <end_block9+0x577e>
    22ca: 9c 03 de     	stz	$de03                   ; 0xde03 <end_block9+0x577f>
    22cd: ae 10 de     	ldx	$de10                   ; 0xde10 <end_block9+0x578c>
    22d0: ac 11 de     	ldy	$de11                   ; 0xde11 <end_block9+0x578d>
    22d3: ad 12 de     	lda	$de12                   ; 0xde12 <end_block9+0x578e>
    22d6: ad 13 de     	lda	$de13                   ; 0xde13 <end_block9+0x578f>
    22d9: a9 00        	lda	#$0
    22db: 8e a4 d6     	stx	$d6a4                   ; 0xd6a4 <end_block9+0x5020>
    22de: 8c a5 d6     	sty	$d6a5                   ; 0xd6a5 <end_block9+0x5021>
    22e1: a2 03        	ldx	#$3
    22e3: 8e a6 d6     	stx	$d6a6                   ; 0xd6a6 <end_block9+0x5022>
    22e6: 64 01        	stz	$1                      ; 0x1 <__data_size+0x1>
    22e8: a2 0f        	ldx	#$f
    22ea: 8e 00 d0     	stx	$d000                   ; 0xd000 <end_block9+0x497c>
    22ed: a2 04        	ldx	#$4
    22ef: 8e 01 d0     	stx	$d001                   ; 0xd001 <end_block9+0x497d>
    22f2: a2 10        	ldx	#$10
    22f4: 8e 02 d0     	stx	$d002                   ; 0xd002 <end_block9+0x497e>
    22f7: 9c 0d d0     	stz	$d00d                   ; 0xd00d <end_block9+0x4989>
    22fa: 9c 0e d0     	stz	$d00e                   ; 0xd00e <end_block9+0x498a>
    22fd: 9c 0f d0     	stz	$d00f                   ; 0xd00f <end_block9+0x498b>
    2300: a0 01        	ldy	#$1
    2302: 84 01        	sty	$1                      ; 0x1 <__data_size+0x1>
    2304: a0 d0        	ldy	#$d0
    2306: 18           	clc
    2307: 85 16        	sta	$16                     ; 0x16 <__rc6>
    2309: 69 00        	adc	#$0
    230b: 85 14        	sta	$14                     ; 0x14 <__rc4>
    230d: 98           	tya
    230e: 69 10        	adc	#$10
    2310: 85 15        	sta	$15                     ; 0x15 <__rc5>
    2312: a6 16        	ldx	$16                     ; 0x16 <__rc6>
    2314: 86 12        	stx	$12                     ; 0x12 <__rc2>
    2316: 84 13        	sty	$13                     ; 0x13 <__rc3>
    2318: a6 0f        	ldx	$f                      ; 0xf <__zp_data_size+0xb>
    231a: 78           	sei
    231b: a9 10        	lda	#$10
    231d: 85 0f        	sta	$f                      ; 0xf <__zp_data_size+0xb>
    231f: b2 14        	lda	($14)                   ; 0x14 <__rc4>
    2321: 86 0f        	stx	$f                      ; 0xf <__zp_data_size+0xb>
    2323: 58           	cli
    2324: 92 12        	sta	($12)                   ; 0x12 <__rc2>
    2326: a5 16        	lda	$16                     ; 0x16 <__rc6>
    2328: 1a           	inc
    2329: d0 01        	bne	$232c <main+0x399>
    232b: c8           	iny
    232c: c0 d3        	cpy	#$d3
    232e: d0 d6        	bne	$2306 <main+0x373>
    2330: c9 ff        	cmp	#$ff
    2332: d0 d2        	bne	$2306 <main+0x373>
    2334: 64 01        	stz	$1                      ; 0x1 <__data_size+0x1>
    2336: 20 76 1e     	jsr	$1e76 <bitmapReset>
    2339: 9c 88 84     	stz	$8488                   ; 0x8488 <_BITMAP_BASE.0>
    233c: a2 04        	ldx	#$4
    233e: 8e 89 84     	stx	$8489                   ; 0x8489 <_BITMAP_BASE.0+0x1>
    2341: a0 02        	ldy	#$2
    2343: 8c 8a 84     	sty	$848a                   ; 0x848a <_BITMAP_BASE.0+0x2>
    2346: 9c 8b 84     	stz	$848b                   ; 0x848b <_BITMAP_BASE.0+0x3>
    2349: 9c 01 d1     	stz	$d101                   ; 0xd101 <end_block9+0x4a7d>
    234c: 8e 02 d1     	stx	$d102                   ; 0xd102 <end_block9+0x4a7e>
    234f: 8c 03 d1     	sty	$d103                   ; 0xd103 <end_block9+0x4a7f>
    2352: a2 01        	ldx	#$1
    2354: 8e 00 d1     	stx	$d100                   ; 0xd100 <end_block9+0x4a7c>
    2357: a2 7c        	ldx	#$7c
    2359: 86 12        	stx	$12                     ; 0x12 <__rc2>
    235b: a2 54        	ldx	#$54
    235d: 86 13        	stx	$13                     ; 0x13 <__rc3>
    235f: a2 12        	ldx	#$12
    2361: 86 14        	stx	$14                     ; 0x14 <__rc4>
    2363: a2 52        	ldx	#$52
    2365: 86 15        	stx	$15                     ; 0x15 <__rc5>
    2367: a9 3c        	lda	#$3c
    2369: 64 27        	stz	$27                     ; 0x27 <__rc23>
    236b: a2 00        	ldx	#$0
    236d: 20 3f 4e     	jsr	$4e3f <memcpy>
    2370: a2 bd        	ldx	#$bd
    2372: 8e 80 d5     	stx	$d580                   ; 0xd580 <end_block9+0x4efc>
    2375: 9c 81 d5     	stz	$d581                   ; 0xd581 <end_block9+0x4efd>
    2378: a2 f6        	ldx	#$f6
    237a: 86 12        	stx	$12                     ; 0x12 <__rc2>
    237c: a2 53        	ldx	#$53
    237e: 86 13        	stx	$13                     ; 0x13 <__rc3>
    2380: a5 27        	lda	$27                     ; 0x27 <__rc23>
    2382: 20 3d 1d     	jsr	$1d3d <opl3_setInstrument>
    2385: 18           	clc
    2386: a6 27        	ldx	$27                     ; 0x27 <__rc23>
    2388: a5 27        	lda	$27                     ; 0x27 <__rc23>
    238a: 69 c0        	adc	#$c0
    238c: 8d 80 d5     	sta	$d580                   ; 0xd580 <end_block9+0x4efc>
    238f: 9c 81 d5     	stz	$d581                   ; 0xd581 <end_block9+0x4efd>
    2392: e8           	inx
    2393: 86 27        	stx	$27                     ; 0x27 <__rc23>
    2395: e0 09        	cpx	#$9
    2397: d0 df        	bne	$2378 <main+0x3e5>
    2399: a0 09        	ldy	#$9
    239b: a2 f6        	ldx	#$f6
    239d: 86 12        	stx	$12                     ; 0x12 <__rc2>
    239f: a2 53        	ldx	#$53
    23a1: 86 13        	stx	$13                     ; 0x13 <__rc3>
    23a3: 84 27        	sty	$27                     ; 0x27 <__rc23>
    23a5: 98           	tya
    23a6: 20 3d 1d     	jsr	$1d3d <opl3_setInstrument>
    23a9: a5 27        	lda	$27                     ; 0x27 <__rc23>
    23ab: 18           	clc
    23ac: 69 b7        	adc	#$b7
    23ae: 8d 82 d5     	sta	$d582                   ; 0xd582 <end_block9+0x4efe>
    23b1: a4 27        	ldy	$27                     ; 0x27 <__rc23>
    23b3: 9c 81 d5     	stz	$d581                   ; 0xd581 <end_block9+0x4efd>
    23b6: c8           	iny
    23b7: c0 12        	cpy	#$12
    23b9: d0 e0        	bne	$239b <main+0x408>
    23bb: a5 24        	lda	$24                     ; 0x24 <__rc20>
    23bd: a0 11        	ldy	#$11
    23bf: 91 10        	sta	($10),y                 ; 0x10 <__rc0>
    23c1: a5 25        	lda	$25                     ; 0x25 <__rc21>
    23c3: c8           	iny
    23c4: 91 10        	sta	($10),y                 ; 0x10 <__rc0>
    23c6: a9 00        	lda	#$0
    23c8: a0 10        	ldy	#$10
    23ca: 91 10        	sta	($10),y                 ; 0x10 <__rc0>
    23cc: a2 90        	ldx	#$90
    23ce: 8a           	txa
    23cf: a0 17        	ldy	#$17
    23d1: 91 10        	sta	($10),y                 ; 0x10 <__rc0>
    23d3: a2 d1        	ldx	#$d1
    23d5: 86 24        	stx	$24                     ; 0x24 <__rc20>
    23d7: a2 7c        	ldx	#$7c
    23d9: a0 54        	ldy	#$54
    23db: 8a           	txa
    23dc: 5a           	phy
    23dd: a0 14        	ldy	#$14
    23df: 91 10        	sta	($10),y                 ; 0x10 <__rc0>
    23e1: 7a           	ply
    23e2: 98           	tya
    23e3: a0 13        	ldy	#$13
    23e5: 91 10        	sta	($10),y                 ; 0x10 <__rc0>
    23e7: 64 26        	stz	$26                     ; 0x26 <__rc22>
    23e9: 64 12        	stz	$12                     ; 0x12 <__rc2>
    23eb: a9 00        	lda	#$0
    23ed: a0 20        	ldy	#$20
    23ef: 91 10        	sta	($10),y                 ; 0x10 <__rc0>
    23f1: a0 1e        	ldy	#$1e
    23f3: 91 10        	sta	($10),y                 ; 0x10 <__rc0>
    23f5: 64 28        	stz	$28                     ; 0x28 <__rc24>
    23f7: c8           	iny
    23f8: 91 10        	sta	($10),y                 ; 0x10 <__rc0>
    23fa: 20 cd 1c     	jsr	$1ccd <opl3_initialize>
    23fd: ad 01 d0     	lda	$d001                   ; 0xd001 <end_block9+0x497d>
    2400: 09 10        	ora	#$10
    2402: 8d 01 d0     	sta	$d001                   ; 0xd001 <end_block9+0x497d>
    2405: a6 24        	ldx	$24                     ; 0x24 <__rc20>
    2407: 86 33        	stx	$33                     ; 0x33 <_ccolor>
    2409: 64 53        	stz	$53                     ; 0x53 <_col>
    240b: 9c 14 d0     	stz	$d014                   ; 0xd014 <end_block9+0x4990>
    240e: 9c 15 d0     	stz	$d015                   ; 0xd015 <end_block9+0x4991>
    2411: 64 54        	stz	$54                     ; 0x54 <_row>
    2413: 9c 16 d0     	stz	$d016                   ; 0xd016 <end_block9+0x4992>
    2416: 9c 17 d0     	stz	$d017                   ; 0xd017 <end_block9+0x4993>
    2419: a2 d5        	ldx	#$d5
    241b: 86 12        	stx	$12                     ; 0x12 <__rc2>
    241d: a2 51        	ldx	#$51
    241f: 86 13        	stx	$13                     ; 0x13 <__rc3>
    2421: 20 13 49     	jsr	$4913 <printf>
    2424: 64 53        	stz	$53                     ; 0x53 <_col>
    2426: 9c 14 d0     	stz	$d014                   ; 0xd014 <end_block9+0x4990>
    2429: 9c 15 d0     	stz	$d015                   ; 0xd015 <end_block9+0x4991>
    242c: a2 01        	ldx	#$1
    242e: 86 54        	stx	$54                     ; 0x54 <_row>
    2430: 8e 16 d0     	stx	$d016                   ; 0xd016 <end_block9+0x4992>
    2433: 9c 17 d0     	stz	$d017                   ; 0xd017 <end_block9+0x4993>
    2436: a2 e7        	ldx	#$e7
    2438: 86 12        	stx	$12                     ; 0x12 <__rc2>
    243a: a2 50        	ldx	#$50
    243c: 86 13        	stx	$13                     ; 0x13 <__rc3>
    243e: 20 13 49     	jsr	$4913 <printf>
    2441: 20 29 38     	jsr	$3829 <fileOpenDir>
    2444: a6 12        	ldx	$12                     ; 0x12 <__rc2>
    2446: 86 2c        	stx	$2c                     ; 0x2c <__zp_bss_size>
    2448: a6 13        	ldx	$13                     ; 0x13 <__rc3>
    244a: 86 2d        	stx	$2d                     ; 0x2d <__rc29>
    244c: a2 00        	ldx	#$0
    244e: 86 12        	stx	$12                     ; 0x12 <__rc2>
    2450: a2 00        	ldx	#$0
    2452: 86 13        	stx	$13                     ; 0x13 <__rc3>
    2454: a6 2d        	ldx	$2d                     ; 0x2d <__rc29>
    2456: e4 13        	cpx	$13                     ; 0x13 <__rc3>
    2458: d0 1f        	bne	$2479 <main+0x4e6>
    245a: a6 2c        	ldx	$2c                     ; 0x2c <__zp_bss_size>
    245c: e4 12        	cpx	$12                     ; 0x12 <__rc2>
    245e: d0 19        	bne	$2479 <main+0x4e6>
    2460: a2 7c        	ldx	#$7c
    2462: 86 12        	stx	$12                     ; 0x12 <__rc2>
    2464: a2 54        	ldx	#$54
    2466: 86 13        	stx	$13                     ; 0x13 <__rc3>
    2468: a2 4e        	ldx	#$4e
    246a: 86 14        	stx	$14                     ; 0x14 <__rc4>
    246c: a2 52        	ldx	#$52
    246e: 86 15        	stx	$15                     ; 0x15 <__rc5>
    2470: a2 00        	ldx	#$0
    2472: a9 3c        	lda	#$3c
    2474: 20 3f 4e     	jsr	$4e3f <memcpy>
    2477: 80 51        	bra	$24ca <main+0x537>
    2479: a2 3c        	ldx	#$3c
    247b: 64 12        	stz	$12                     ; 0x12 <__rc2>
    247d: 64 14        	stz	$14                     ; 0x14 <__rc4>
    247f: a4 12        	ldy	$12                     ; 0x12 <__rc2>
    2481: b9 7c 54     	lda	$547c,y                 ; 0x547c <fpr+0x2>
    2484: a8           	tay
    2485: f0 12        	beq	$2499 <main+0x506>
    2487: ca           	dex
    2488: e0 ff        	cpx	#$ff
    248a: d0 02        	bne	$248e <main+0x4fb>
    248c: c6 14        	dec	$14                     ; 0x14 <__rc4>
    248e: e6 12        	inc	$12                     ; 0x12 <__rc2>
    2490: a5 14        	lda	$14                     ; 0x14 <__rc4>
    2492: d0 eb        	bne	$247f <main+0x4ec>
    2494: 8a           	txa
    2495: d0 e8        	bne	$247f <main+0x4ec>
    2497: 80 26        	bra	$24bf <main+0x52c>
    2499: ca           	dex
    249a: e0 ff        	cpx	#$ff
    249c: d0 02        	bne	$24a0 <main+0x50d>
    249e: c6 14        	dec	$14                     ; 0x14 <__rc4>
    24a0: a5 14        	lda	$14                     ; 0x14 <__rc4>
    24a2: d0 03        	bne	$24a7 <main+0x514>
    24a4: 8a           	txa
    24a5: f0 18        	beq	$24bf <main+0x52c>
    24a7: a9 7c        	lda	#$7c
    24a9: 18           	clc
    24aa: 65 12        	adc	$12                     ; 0x12 <__rc2>
    24ac: 85 12        	sta	$12                     ; 0x12 <__rc2>
    24ae: a9 54        	lda	#$54
    24b0: 69 00        	adc	#$0
    24b2: 85 13        	sta	$13                     ; 0x13 <__rc3>
    24b4: e6 12        	inc	$12                     ; 0x12 <__rc2>
    24b6: d0 02        	bne	$24ba <main+0x527>
    24b8: e6 13        	inc	$13                     ; 0x13 <__rc3>
    24ba: a9 00        	lda	#$0
    24bc: 20 6b 4e     	jsr	$4e6b <__memset>
    24bf: a6 2c        	ldx	$2c                     ; 0x2c <__zp_bss_size>
    24c1: 86 12        	stx	$12                     ; 0x12 <__rc2>
    24c3: a6 2d        	ldx	$2d                     ; 0x2d <__rc29>
    24c5: 86 13        	stx	$13                     ; 0x13 <__rc3>
    24c7: 20 de 37     	jsr	$37de <fileCloseDir>
    24ca: a2 b8        	ldx	#$b8
    24cc: 86 12        	stx	$12                     ; 0x12 <__rc2>
    24ce: a2 54        	ldx	#$54
    24d0: 86 13        	stx	$13                     ; 0x13 <__rc3>
    24d2: 64 14        	stz	$14                     ; 0x14 <__rc4>
    24d4: a2 78        	ldx	#$78
    24d6: a9 00        	lda	#$0
    24d8: 20 6b 4e     	jsr	$4e6b <__memset>
    24db: a2 a8        	ldx	#$a8
    24dd: 86 12        	stx	$12                     ; 0x12 <__rc2>
    24df: a2 55        	ldx	#$55
    24e1: 86 13        	stx	$13                     ; 0x13 <__rc3>
    24e3: a2 2e        	ldx	#$2e
    24e5: 86 14        	stx	$14                     ; 0x14 <__rc4>
    24e7: a2 68        	ldx	#$68
    24e9: a9 00        	lda	#$0
    24eb: 20 6b 4e     	jsr	$4e6b <__memset>
    24ee: 9c 7a 54     	stz	$547a                   ; 0x547a <fpr>
    24f1: a2 11        	ldx	#$11
    24f3: 86 12        	stx	$12                     ; 0x12 <__rc2>
    24f5: a2 84        	ldx	#$84
    24f7: 86 13        	stx	$13                     ; 0x13 <__rc3>
    24f9: 64 14        	stz	$14                     ; 0x14 <__rc4>
    24fb: a2 6b        	ldx	#$6b
    24fd: a9 00        	lda	#$0
    24ff: 20 6b 4e     	jsr	$4e6b <__memset>
    2502: a2 03        	ldx	#$3
    2504: 8e 7b 54     	stx	$547b                   ; 0x547b <fpr+0x1>
    2507: ae 01 52     	ldx	$5201                   ; 0x5201 <__set_v+0x22f>
    250a: 8e 7c 84     	stx	$847c                   ; 0x847c <fpr+0x3002>
    250d: ae 02 52     	ldx	$5202                   ; 0x5202 <__set_v+0x230>
    2510: 8e 7d 84     	stx	$847d                   ; 0x847d <fpr+0x3003>
    2513: ae 03 52     	ldx	$5203                   ; 0x5203 <__set_v+0x231>
    2516: 8e 7e 84     	stx	$847e                   ; 0x847e <fpr+0x3004>
    2519: a2 7f        	ldx	#$7f
    251b: 86 12        	stx	$12                     ; 0x12 <__rc2>
    251d: a2 84        	ldx	#$84
    251f: 86 13        	stx	$13                     ; 0x13 <__rc3>
    2521: 64 14        	stz	$14                     ; 0x14 <__rc4>
    2523: a2 09        	ldx	#$9
    2525: a9 00        	lda	#$0
    2527: 20 6b 4e     	jsr	$4e6b <__memset>
    252a: 20 9d 05     	jsr	$59d <readDirectory>
    252d: 20 3f 09     	jsr	$93f <sortFileList>
    2530: a2 a0        	ldx	#$a0
    2532: 86 33        	stx	$33                     ; 0x33 <_ccolor>
    2534: ad 7a 84     	lda	$847a                   ; 0x847a <fpr+0x3000>
    2537: ae 7b 84     	ldx	$847b                   ; 0x847b <fpr+0x3001>
    253a: a0 7a        	ldy	#$7a
    253c: 84 12        	sty	$12                     ; 0x12 <__rc2>
    253e: a0 54        	ldy	#$54
    2540: 84 13        	sty	$13                     ; 0x13 <__rc3>
    2542: 20 5c 0c     	jsr	$c5c <displayFileList>
    2545: a0 14        	ldy	#$14
    2547: b1 10        	lda	($10),y                 ; 0x10 <__rc0>
    2549: 85 2d        	sta	$2d                     ; 0x2d <__rc29>
    254b: 88           	dey
    254c: b1 10        	lda	($10),y                 ; 0x10 <__rc0>
    254e: 85 2c        	sta	$2c                     ; 0x2c <__zp_bss_size>
    2550: 4c c2 26     	jmp	$26c2 <main+0x72f>
    2553: ad 7c 54     	lda	$547c                   ; 0x547c <fpr+0x2>
    2556: d0 03        	bne	$255b <main+0x5c8>
    2558: 4c 87 26     	jmp	$2687 <main+0x6f4>
    255b: c9 2f        	cmp	#$2f
    255d: d0 0c        	bne	$256b <main+0x5d8>
    255f: ae 7d 54     	ldx	$547d                   ; 0x547d <fpr+0x3>
    2562: a9 2f        	lda	#$2f
    2564: e0 00        	cpx	#$0
    2566: d0 03        	bne	$256b <main+0x5d8>
    2568: 4c 87 26     	jmp	$2687 <main+0x6f4>
    256b: a2 7c        	ldx	#$7c
    256d: 86 14        	stx	$14                     ; 0x14 <__rc4>
    256f: a2 54        	ldx	#$54
    2571: 86 15        	stx	$15                     ; 0x15 <__rc5>
    2573: a2 00        	ldx	#$0
    2575: 86 12        	stx	$12                     ; 0x12 <__rc2>
    2577: a2 00        	ldx	#$0
    2579: 86 13        	stx	$13                     ; 0x13 <__rc3>
    257b: a0 01        	ldy	#$1
    257d: c9 2f        	cmp	#$2f
    257f: d0 08        	bne	$2589 <main+0x5f6>
    2581: a6 14        	ldx	$14                     ; 0x14 <__rc4>
    2583: 86 12        	stx	$12                     ; 0x12 <__rc2>
    2585: a6 15        	ldx	$15                     ; 0x15 <__rc5>
    2587: 86 13        	stx	$13                     ; 0x13 <__rc3>
    2589: b1 14        	lda	($14),y                 ; 0x14 <__rc4>
    258b: e6 14        	inc	$14                     ; 0x14 <__rc4>
    258d: d0 02        	bne	$2591 <main+0x5fe>
    258f: e6 15        	inc	$15                     ; 0x15 <__rc5>
    2591: aa           	tax
    2592: d0 e9        	bne	$257d <main+0x5ea>
    2594: a2 00        	ldx	#$0
    2596: 86 14        	stx	$14                     ; 0x14 <__rc4>
    2598: a2 00        	ldx	#$0
    259a: 86 15        	stx	$15                     ; 0x15 <__rc5>
    259c: a6 13        	ldx	$13                     ; 0x13 <__rc3>
    259e: e4 15        	cpx	$15                     ; 0x15 <__rc5>
    25a0: d0 06        	bne	$25a8 <main+0x615>
    25a2: a6 12        	ldx	$12                     ; 0x12 <__rc2>
    25a4: e4 14        	cpx	$14                     ; 0x14 <__rc4>
    25a6: f0 12        	beq	$25ba <main+0x627>
    25a8: a6 13        	ldx	$13                     ; 0x13 <__rc3>
    25aa: e4 2c        	cpx	$2c                     ; 0x2c <__zp_bss_size>
    25ac: f0 03        	beq	$25b1 <main+0x61e>
    25ae: 4c 83 26     	jmp	$2683 <main+0x6f0>
    25b1: a6 12        	ldx	$12                     ; 0x12 <__rc2>
    25b3: e4 2d        	cpx	$2d                     ; 0x2d <__rc29>
    25b5: f0 03        	beq	$25ba <main+0x627>
    25b7: 4c 83 26     	jmp	$2683 <main+0x6f0>
    25ba: 9c 7c 54     	stz	$547c                   ; 0x547c <fpr+0x2>
    25bd: 4c 87 26     	jmp	$2687 <main+0x6f4>
    25c0: a6 10        	ldx	$10                     ; 0x10 <__rc0>
    25c2: a4 11        	ldy	$11                     ; 0x11 <__rc1>
    25c4: 8a           	txa
    25c5: 18           	clc
    25c6: 69 02        	adc	#$2
    25c8: 85 12        	sta	$12                     ; 0x12 <__rc2>
    25ca: 98           	tya
    25cb: 69 00        	adc	#$0
    25cd: 85 13        	sta	$13                     ; 0x13 <__rc3>
    25cf: 18           	clc
    25d0: 8a           	txa
    25d1: 69 04        	adc	#$4
    25d3: 85 14        	sta	$14                     ; 0x14 <__rc4>
    25d5: 98           	tya
    25d6: 69 00        	adc	#$0
    25d8: aa           	tax
    25d9: a9 7c        	lda	#$7c
    25db: 92 10        	sta	($10)                   ; 0x10 <__rc0>
    25dd: a0 01        	ldy	#$1
    25df: a9 54        	lda	#$54
    25e1: 91 10        	sta	($10),y                 ; 0x10 <__rc0>
    25e3: 84 15        	sty	$15                     ; 0x15 <__rc5>
    25e5: c8           	iny
    25e6: a9 6e        	lda	#$6e
    25e8: 91 10        	sta	($10),y                 ; 0x10 <__rc0>
    25ea: a9 51        	lda	#$51
    25ec: a4 15        	ldy	$15                     ; 0x15 <__rc5>
    25ee: 91 12        	sta	($12),y                 ; 0x12 <__rc2>
    25f0: a4 14        	ldy	$14                     ; 0x14 <__rc4>
    25f2: 84 12        	sty	$12                     ; 0x12 <__rc2>
    25f4: 86 13        	stx	$13                     ; 0x13 <__rc3>
    25f6: a9 b8        	lda	#$b8
    25f8: a0 04        	ldy	#$4
    25fa: 91 10        	sta	($10),y                 ; 0x10 <__rc0>
    25fc: a9 54        	lda	#$54
    25fe: a4 15        	ldy	$15                     ; 0x15 <__rc5>
    2600: 91 12        	sta	($12),y                 ; 0x12 <__rc2>
    2602: a6 2a        	ldx	$2a                     ; 0x2a <__rc26>
    2604: 86 24        	stx	$24                     ; 0x24 <__rc20>
    2606: a6 2b        	ldx	$2b                     ; 0x2b <__rc27>
    2608: 86 25        	stx	$25                     ; 0x25 <__rc21>
    260a: a6 2a        	ldx	$2a                     ; 0x2a <__rc26>
    260c: 86 12        	stx	$12                     ; 0x12 <__rc2>
    260e: a6 2b        	ldx	$2b                     ; 0x2b <__rc27>
    2610: 86 13        	stx	$13                     ; 0x13 <__rc3>
    2612: 20 9d 49     	jsr	$499d <sprintf>
    2615: a2 a8        	ldx	#$a8
    2617: 86 12        	stx	$12                     ; 0x12 <__rc2>
    2619: a2 55        	ldx	#$55
    261b: 86 13        	stx	$13                     ; 0x13 <__rc3>
    261d: 64 27        	stz	$27                     ; 0x27 <__rc23>
    261f: a2 2e        	ldx	#$2e
    2621: 86 14        	stx	$14                     ; 0x14 <__rc4>
    2623: a2 68        	ldx	#$68
    2625: a9 00        	lda	#$0
    2627: 20 6b 4e     	jsr	$4e6b <__memset>
    262a: a2 11        	ldx	#$11
    262c: 86 12        	stx	$12                     ; 0x12 <__rc2>
    262e: a2 84        	ldx	#$84
    2630: 86 13        	stx	$13                     ; 0x13 <__rc3>
    2632: 64 14        	stz	$14                     ; 0x14 <__rc4>
    2634: a2 6b        	ldx	#$6b
    2636: a9 00        	lda	#$0
    2638: 20 6b 4e     	jsr	$4e6b <__memset>
    263b: a2 3c        	ldx	#$3c
    263d: 64 14        	stz	$14                     ; 0x14 <__rc4>
    263f: a4 27        	ldy	$27                     ; 0x27 <__rc23>
    2641: b1 24        	lda	($24),y                 ; 0x24 <__rc20>
    2643: 85 12        	sta	$12                     ; 0x12 <__rc2>
    2645: b1 24        	lda	($24),y                 ; 0x24 <__rc20>
    2647: 99 7c 54     	sta	$547c,y                 ; 0x547c <fpr+0x2>
    264a: a5 12        	lda	$12                     ; 0x12 <__rc2>
    264c: f0 12        	beq	$2660 <main+0x6cd>
    264e: ca           	dex
    264f: e0 ff        	cpx	#$ff
    2651: d0 02        	bne	$2655 <main+0x6c2>
    2653: c6 14        	dec	$14                     ; 0x14 <__rc4>
    2655: e6 27        	inc	$27                     ; 0x27 <__rc23>
    2657: a5 14        	lda	$14                     ; 0x14 <__rc4>
    2659: d0 e4        	bne	$263f <main+0x6ac>
    265b: 8a           	txa
    265c: d0 e1        	bne	$263f <main+0x6ac>
    265e: 80 4b        	bra	$26ab <main+0x718>
    2660: ca           	dex
    2661: e0 ff        	cpx	#$ff
    2663: d0 02        	bne	$2667 <main+0x6d4>
    2665: c6 14        	dec	$14                     ; 0x14 <__rc4>
    2667: a5 14        	lda	$14                     ; 0x14 <__rc4>
    2669: d0 03        	bne	$266e <main+0x6db>
    266b: 8a           	txa
    266c: f0 3d        	beq	$26ab <main+0x718>
    266e: a9 7c        	lda	#$7c
    2670: 18           	clc
    2671: 65 27        	adc	$27                     ; 0x27 <__rc23>
    2673: 85 12        	sta	$12                     ; 0x12 <__rc2>
    2675: a9 54        	lda	#$54
    2677: 69 00        	adc	#$0
    2679: 85 13        	sta	$13                     ; 0x13 <__rc3>
    267b: e6 12        	inc	$12                     ; 0x12 <__rc2>
    267d: d0 27        	bne	$26a6 <main+0x713>
    267f: e6 13        	inc	$13                     ; 0x13 <__rc3>
    2681: 80 23        	bra	$26a6 <main+0x713>
    2683: a9 00        	lda	#$0
    2685: 92 12        	sta	($12)                   ; 0x12 <__rc2>
    2687: a2 a8        	ldx	#$a8
    2689: 86 12        	stx	$12                     ; 0x12 <__rc2>
    268b: a2 55        	ldx	#$55
    268d: 86 13        	stx	$13                     ; 0x13 <__rc3>
    268f: a2 2e        	ldx	#$2e
    2691: 86 14        	stx	$14                     ; 0x14 <__rc4>
    2693: a2 68        	ldx	#$68
    2695: a9 00        	lda	#$0
    2697: 20 6b 4e     	jsr	$4e6b <__memset>
    269a: a2 11        	ldx	#$11
    269c: 86 12        	stx	$12                     ; 0x12 <__rc2>
    269e: a2 84        	ldx	#$84
    26a0: 86 13        	stx	$13                     ; 0x13 <__rc3>
    26a2: 64 14        	stz	$14                     ; 0x14 <__rc4>
    26a4: a2 6b        	ldx	#$6b
    26a6: a9 00        	lda	#$0
    26a8: 20 6b 4e     	jsr	$4e6b <__memset>
    26ab: 20 9d 05     	jsr	$59d <readDirectory>
    26ae: 20 3f 09     	jsr	$93f <sortFileList>
    26b1: ad 7a 84     	lda	$847a                   ; 0x847a <fpr+0x3000>
    26b4: ae 7b 84     	ldx	$847b                   ; 0x847b <fpr+0x3001>
    26b7: a0 7a        	ldy	#$7a
    26b9: 84 12        	sty	$12                     ; 0x12 <__rc2>
    26bb: a0 54        	ldy	#$54
    26bd: 84 13        	sty	$13                     ; 0x13 <__rc3>
    26bf: 20 5c 0c     	jsr	$c5c <displayFileList>
    26c2: 20 d2 0f     	jsr	$fd2 <pickFile>
    26c5: c9 04        	cmp	#$4
    26c7: b0 f9        	bcs	$26c2 <main+0x72f>
    26c9: 0a           	asl
    26ca: aa           	tax
    26cb: 7c 23 50     	jmp	($5023,x)               ; 0x5023 <__set_v+0x51>
    26ce: ae 7a 54     	ldx	$547a                   ; 0x547a <fpr>
    26d1: ac 7b 54     	ldy	$547b                   ; 0x547b <fpr+0x1>
    26d4: 86 53        	stx	$53                     ; 0x53 <_col>
    26d6: 8e 14 d0     	stx	$d014                   ; 0xd014 <end_block9+0x4990>
    26d9: 9c 15 d0     	stz	$d015                   ; 0xd015 <end_block9+0x4991>
    26dc: 84 54        	sty	$54                     ; 0x54 <_row>
    26de: 8c 16 d0     	sty	$d016                   ; 0xd016 <end_block9+0x4992>
    26e1: 9c 17 d0     	stz	$d017                   ; 0xd017 <end_block9+0x4993>
    26e4: a2 7a        	ldx	#$7a
    26e6: 86 12        	stx	$12                     ; 0x12 <__rc2>
    26e8: a2 54        	ldx	#$54
    26ea: 86 13        	stx	$13                     ; 0x13 <__rc3>
    26ec: 20 8d 1c     	jsr	$1c8d <wipeArea>
    26ef: a6 10        	ldx	$10                     ; 0x10 <__rc0>
    26f1: a4 11        	ldy	$11                     ; 0x11 <__rc1>
    26f3: 8a           	txa
    26f4: 18           	clc
    26f5: 69 02        	adc	#$2
    26f7: 85 12        	sta	$12                     ; 0x12 <__rc2>
    26f9: 98           	tya
    26fa: 69 00        	adc	#$0
    26fc: 85 13        	sta	$13                     ; 0x13 <__rc3>
    26fe: 18           	clc
    26ff: 8a           	txa
    2700: 69 04        	adc	#$4
    2702: 85 14        	sta	$14                     ; 0x14 <__rc4>
    2704: 98           	tya
    2705: 69 00        	adc	#$0
    2707: aa           	tax
    2708: a9 7c        	lda	#$7c
    270a: 92 10        	sta	($10)                   ; 0x10 <__rc0>
    270c: a0 01        	ldy	#$1
    270e: a9 54        	lda	#$54
    2710: 91 10        	sta	($10),y                 ; 0x10 <__rc0>
    2712: 84 16        	sty	$16                     ; 0x16 <__rc6>
    2714: c8           	iny
    2715: a9 6e        	lda	#$6e
    2717: 91 10        	sta	($10),y                 ; 0x10 <__rc0>
    2719: a9 51        	lda	#$51
    271b: a4 16        	ldy	$16                     ; 0x16 <__rc6>
    271d: 91 12        	sta	($12),y                 ; 0x12 <__rc2>
    271f: 84 15        	sty	$15                     ; 0x15 <__rc5>
    2721: a4 14        	ldy	$14                     ; 0x14 <__rc4>
    2723: 84 12        	sty	$12                     ; 0x12 <__rc2>
    2725: 86 13        	stx	$13                     ; 0x13 <__rc3>
    2727: a9 b8        	lda	#$b8
    2729: a0 04        	ldy	#$4
    272b: 91 10        	sta	($10),y                 ; 0x10 <__rc0>
    272d: a2 01        	ldx	#$1
    272f: 86 27        	stx	$27                     ; 0x27 <__rc23>
    2731: a9 54        	lda	#$54
    2733: a4 15        	ldy	$15                     ; 0x15 <__rc5>
    2735: 91 12        	sta	($12),y                 ; 0x12 <__rc2>
    2737: a2 8e        	ldx	#$8e
    2739: 86 12        	stx	$12                     ; 0x12 <__rc2>
    273b: a2 85        	ldx	#$85
    273d: 86 13        	stx	$13                     ; 0x13 <__rc3>
    273f: 20 9d 49     	jsr	$499d <sprintf>
    2742: ae 8e 85     	ldx	$858e                   ; 0x858e <name>
    2745: a0 10        	ldy	#$10
    2747: b1 10        	lda	($10),y                 ; 0x10 <__rc0>
    2749: 85 16        	sta	$16                     ; 0x16 <__rc6>
    274b: a8           	tay
    274c: 5a           	phy
    274d: a0 11        	ldy	#$11
    274f: b1 10        	lda	($10),y                 ; 0x10 <__rc0>
    2751: 85 14        	sta	$14                     ; 0x14 <__rc4>
    2753: c8           	iny
    2754: b1 10        	lda	($10),y                 ; 0x10 <__rc0>
    2756: 7a           	ply
    2757: 85 15        	sta	$15                     ; 0x15 <__rc5>
    2759: 5a           	phy
    275a: a4 14        	ldy	$14                     ; 0x14 <__rc4>
    275c: 84 12        	sty	$12                     ; 0x12 <__rc2>
    275e: 7a           	ply
    275f: 85 13        	sta	$13                     ; 0x13 <__rc3>
    2761: 8a           	txa
    2762: d0 03        	bne	$2767 <main+0x7d4>
    2764: 4c c5 27     	jmp	$27c5 <main+0x832>
    2767: 86 17        	stx	$17                     ; 0x17 <__rc7>
    2769: 64 12        	stz	$12                     ; 0x12 <__rc2>
    276b: 64 13        	stz	$13                     ; 0x13 <__rc3>
    276d: 18           	clc
    276e: a2 01        	ldx	#$1
    2770: b0 02        	bcs	$2774 <main+0x7e1>
    2772: a2 00        	ldx	#$0
    2774: 86 18        	stx	$18                     ; 0x18 <__rc8>
    2776: a4 13        	ldy	$13                     ; 0x13 <__rc3>
    2778: a6 12        	ldx	$12                     ; 0x12 <__rc2>
    277a: e8           	inx
    277b: d0 01        	bne	$277e <main+0x7eb>
    277d: c8           	iny
    277e: a9 8f        	lda	#$8f
    2780: 5a           	phy
    2781: a4 18        	ldy	$18                     ; 0x18 <__rc8>
    2783: c0 01        	cpy	#$1
    2785: 7a           	ply
    2786: 65 12        	adc	$12                     ; 0x12 <__rc2>
    2788: 85 12        	sta	$12                     ; 0x12 <__rc2>
    278a: a9 85        	lda	#$85
    278c: 65 13        	adc	$13                     ; 0x13 <__rc3>
    278e: 85 13        	sta	$13                     ; 0x13 <__rc3>
    2790: b2 12        	lda	($12)                   ; 0x12 <__rc2>
    2792: 86 12        	stx	$12                     ; 0x12 <__rc2>
    2794: 84 13        	sty	$13                     ; 0x13 <__rc3>
    2796: d0 de        	bne	$2776 <main+0x7e3>
    2798: 98           	tya
    2799: d0 04        	bne	$279f <main+0x80c>
    279b: e0 02        	cpx	#$2
    279d: 80 02        	bra	$27a1 <main+0x80e>
    279f: c0 00        	cpy	#$0
    27a1: a4 16        	ldy	$16                     ; 0x16 <__rc6>
    27a3: a6 14        	ldx	$14                     ; 0x14 <__rc4>
    27a5: 86 12        	stx	$12                     ; 0x12 <__rc2>
    27a7: a6 15        	ldx	$15                     ; 0x15 <__rc5>
    27a9: 86 13        	stx	$13                     ; 0x13 <__rc3>
    27ab: a5 17        	lda	$17                     ; 0x17 <__rc7>
    27ad: 90 16        	bcc	$27c5 <main+0x832>
    27af: ae 8f 85     	ldx	$858f                   ; 0x858f <name+0x1>
    27b2: a4 16        	ldy	$16                     ; 0x16 <__rc6>
    27b4: 48           	pha
    27b5: a5 14        	lda	$14                     ; 0x14 <__rc4>
    27b7: 85 12        	sta	$12                     ; 0x12 <__rc2>
    27b9: a5 15        	lda	$15                     ; 0x15 <__rc5>
    27bb: 85 13        	sta	$13                     ; 0x13 <__rc3>
    27bd: 68           	pla
    27be: e0 3a        	cpx	#$3a
    27c0: d0 03        	bne	$27c5 <main+0x832>
    27c2: 4c 37 35     	jmp	$3537 <main+0x15a4>
    27c5: 84 1a        	sty	$1a                     ; 0x1a <__rc10>
    27c7: a2 ba        	ldx	#$ba
    27c9: 86 14        	stx	$14                     ; 0x14 <__rc4>
    27cb: a2 51        	ldx	#$51
    27cd: 86 15        	stx	$15                     ; 0x15 <__rc5>
    27cf: a2 00        	ldx	#$0
    27d1: a4 2a        	ldy	$2a                     ; 0x2a <__rc26>
    27d3: 84 18        	sty	$18                     ; 0x18 <__rc8>
    27d5: a4 2b        	ldy	$2b                     ; 0x2b <__rc27>
    27d7: 84 19        	sty	$19                     ; 0x19 <__rc9>
    27d9: 80 0a        	bra	$27e5 <main+0x852>
    27db: a0 02        	ldy	#$2
    27dd: e6 14        	inc	$14                     ; 0x14 <__rc4>
    27df: d0 02        	bne	$27e3 <main+0x850>
    27e1: e6 15        	inc	$15                     ; 0x15 <__rc5>
    27e3: 5a           	phy
    27e4: fa           	plx
    27e5: b2 14        	lda	($14)                   ; 0x14 <__rc4>
    27e7: c9 61        	cmp	#$61
    27e9: f0 f0        	beq	$27db <main+0x848>
    27eb: a0 01        	ldy	#$1
    27ed: c9 77        	cmp	#$77
    27ef: f0 ec        	beq	$27dd <main+0x84a>
    27f1: a8           	tay
    27f2: f0 04        	beq	$27f8 <main+0x865>
    27f4: da           	phx
    27f5: 7a           	ply
    27f6: 80 e5        	bra	$27dd <main+0x84a>
    27f8: a4 12        	ldy	$12                     ; 0x12 <__rc2>
    27fa: a5 13        	lda	$13                     ; 0x13 <__rc3>
    27fc: 84 fb        	sty	$fb                     ; 0xfb <__rc31+0xcc>
    27fe: 85 fc        	sta	$fc                     ; 0xfc <__rc31+0xcd>
    2800: b2 12        	lda	($12)                   ; 0x12 <__rc2>
    2802: f0 44        	beq	$2848 <main+0x8b5>
    2804: 64 15        	stz	$15                     ; 0x15 <__rc5>
    2806: a9 00        	lda	#$0
    2808: 64 14        	stz	$14                     ; 0x14 <__rc4>
    280a: a4 27        	ldy	$27                     ; 0x27 <__rc23>
    280c: 18           	clc
    280d: 48           	pha
    280e: 1a           	inc
    280f: b0 02        	bcs	$2813 <main+0x880>
    2811: a9 00        	lda	#$0
    2813: 85 1b        	sta	$1b                     ; 0x1b <__rc11>
    2815: 68           	pla
    2816: 5a           	phy
    2817: a4 15        	ldy	$15                     ; 0x15 <__rc5>
    2819: 84 16        	sty	$16                     ; 0x16 <__rc6>
    281b: e6 15        	inc	$15                     ; 0x15 <__rc5>
    281d: d0 02        	bne	$2821 <main+0x88e>
    281f: e6 14        	inc	$14                     ; 0x14 <__rc4>
    2821: a4 1b        	ldy	$1b                     ; 0x1b <__rc11>
    2823: c0 01        	cpy	#$1
    2825: 7a           	ply
    2826: 85 17        	sta	$17                     ; 0x17 <__rc7>
    2828: a5 16        	lda	$16                     ; 0x16 <__rc6>
    282a: 65 12        	adc	$12                     ; 0x12 <__rc2>
    282c: 85 16        	sta	$16                     ; 0x16 <__rc6>
    282e: a5 17        	lda	$17                     ; 0x17 <__rc7>
    2830: 65 13        	adc	$13                     ; 0x13 <__rc3>
    2832: 85 17        	sta	$17                     ; 0x17 <__rc7>
    2834: b1 16        	lda	($16),y                 ; 0x16 <__rc6>
    2836: 85 16        	sta	$16                     ; 0x16 <__rc6>
    2838: a5 14        	lda	$14                     ; 0x14 <__rc4>
    283a: e6 16        	inc	$16                     ; 0x16 <__rc6>
    283c: c6 16        	dec	$16                     ; 0x16 <__rc6>
    283e: d0 d6        	bne	$2816 <main+0x883>
    2840: a0 01        	ldy	#$1
    2842: 84 27        	sty	$27                     ; 0x27 <__rc23>
    2844: a4 15        	ldy	$15                     ; 0x15 <__rc5>
    2846: 80 02        	bra	$284a <main+0x8b7>
    2848: a0 00        	ldy	#$0
    284a: 84 fd        	sty	$fd                     ; 0xfd <__rc31+0xce>
    284c: a4 1a        	ldy	$1a                     ; 0x1a <__rc10>
    284e: 84 f3        	sty	$f3                     ; 0xf3 <__rc31+0xc4>
    2850: 86 f5        	stx	$f5                     ; 0xf5 <__rc31+0xc6>
    2852: a2 52        	ldx	#$52
    2854: 86 12        	stx	$12                     ; 0x12 <__rc2>
    2856: a2 00        	ldx	#$0
    2858: 86 13        	stx	$13                     ; 0x13 <__rc3>
    285a: 20 5c ff     	jsr	$ff5c <end_block9+0x78d8>
    285d: 92 18        	sta	($18)                   ; 0x18 <__rc8>
    285f: a9 00        	lda	#$0
    2861: 6a           	ror
    2862: 85 12        	sta	$12                     ; 0x12 <__rc2>
    2864: a6 52        	ldx	$52                     ; 0x52 <kernelError>
    2866: a0 00        	ldy	#$0
    2868: 84 12        	sty	$12                     ; 0x12 <__rc2>
    286a: a0 00        	ldy	#$0
    286c: 84 13        	sty	$13                     ; 0x13 <__rc3>
    286e: a5 12        	lda	$12                     ; 0x12 <__rc2>
    2870: a0 18        	ldy	#$18
    2872: 91 10        	sta	($10),y                 ; 0x10 <__rc0>
    2874: a5 13        	lda	$13                     ; 0x13 <__rc3>
    2876: c8           	iny
    2877: 91 10        	sta	($10),y                 ; 0x10 <__rc0>
    2879: 8a           	txa
    287a: d0 2f        	bne	$28ab <main+0x918>
    287c: b2 18        	lda	($18)                   ; 0x18 <__rc8>
    287e: 85 24        	sta	$24                     ; 0x24 <__rc20>
    2880: a4 27        	ldy	$27                     ; 0x27 <__rc23>
    2882: 64 4b        	stz	$4b                     ; 0x4b <kernelEventData>
    2884: a2 52        	ldx	#$52
    2886: 86 12        	stx	$12                     ; 0x12 <__rc2>
    2888: a2 00        	ldx	#$0
    288a: 86 13        	stx	$13                     ; 0x13 <__rc3>
    288c: 20 00 ff     	jsr	$ff00 <end_block9+0x787c>
    288f: 92 18        	sta	($18)                   ; 0x18 <__rc8>
    2891: a9 00        	lda	#$0
    2893: 6a           	ror
    2894: 85 12        	sta	$12                     ; 0x12 <__rc2>
    2896: a6 4b        	ldx	$4b                     ; 0x4b <kernelEventData>
    2898: e0 28        	cpx	#$28
    289a: f0 0b        	beq	$28a7 <main+0x914>
    289c: e0 38        	cpx	#$38
    289e: f0 07        	beq	$28a7 <main+0x914>
    28a0: e0 2a        	cpx	#$2a
    28a2: d0 de        	bne	$2882 <main+0x8ef>
    28a4: 4c 7b 35     	jmp	$357b <main+0x15e8>
    28a7: a2 01        	ldx	#$1
    28a9: 86 27        	stx	$27                     ; 0x27 <__rc23>
    28ab: a2 40        	ldx	#$40
    28ad: 86 24        	stx	$24                     ; 0x24 <__rc20>
    28af: 64 29        	stz	$29                     ; 0x29 <__rc25>
    28b1: a0 00        	ldy	#$0
    28b3: 64 2d        	stz	$2d                     ; 0x2d <__rc29>
    28b5: 64 2c        	stz	$2c                     ; 0x2c <__zp_bss_size>
    28b7: 64 2e        	stz	$2e                     ; 0x2e <__rc30>
    28b9: 4c 36 2a     	jmp	$2a36 <main+0xaa3>
    28bc: a2 01        	ldx	#$1
    28be: 86 27        	stx	$27                     ; 0x27 <__rc23>
    28c0: 18           	clc
    28c1: a9 34        	lda	#$34
    28c3: a0 04        	ldy	#$4
    28c5: a6 2a        	ldx	$2a                     ; 0x2a <__rc26>
    28c7: 86 18        	stx	$18                     ; 0x18 <__rc8>
    28c9: a6 2b        	ldx	$2b                     ; 0x2b <__rc27>
    28cb: 86 19        	stx	$19                     ; 0x19 <__rc9>
    28cd: 71 2a        	adc	($2a),y                 ; 0x2a <__rc26>
    28cf: a4 25        	ldy	$25                     ; 0x25 <__rc21>
    28d1: 85 24        	sta	$24                     ; 0x24 <__rc20>
    28d3: 4c 27 2a     	jmp	$2a27 <main+0xa94>
    28d6: a6 2a        	ldx	$2a                     ; 0x2a <__rc26>
    28d8: 86 14        	stx	$14                     ; 0x14 <__rc4>
    28da: a6 2b        	ldx	$2b                     ; 0x2b <__rc27>
    28dc: 86 15        	stx	$15                     ; 0x15 <__rc5>
    28de: b2 2a        	lda	($2a)                   ; 0x2a <__rc26>
    28e0: a0 02        	ldy	#$2
    28e2: 84 12        	sty	$12                     ; 0x12 <__rc2>
    28e4: aa           	tax
    28e5: d0 12        	bne	$28f9 <main+0x966>
    28e7: a4 27        	ldy	$27                     ; 0x27 <__rc23>
    28e9: b1 14        	lda	($14),y                 ; 0x14 <__rc4>
    28eb: d0 0c        	bne	$28f9 <main+0x966>
    28ed: a4 12        	ldy	$12                     ; 0x12 <__rc2>
    28ef: b1 14        	lda	($14),y                 ; 0x14 <__rc4>
    28f1: d0 06        	bne	$28f9 <main+0x966>
    28f3: a0 03        	ldy	#$3
    28f5: b1 14        	lda	($14),y                 ; 0x14 <__rc4>
    28f7: f0 08        	beq	$2901 <main+0x96e>
    28f9: a2 05        	ldx	#$5
    28fb: 8e 82 d5     	stx	$d582                   ; 0xd582 <end_block9+0x4efe>
    28fe: 9c 81 d5     	stz	$d581                   ; 0xd581 <end_block9+0x4efd>
    2901: a0 0c        	ldy	#$c
    2903: b1 14        	lda	($14),y                 ; 0x14 <__rc4>
    2905: d0 12        	bne	$2919 <main+0x986>
    2907: a0 0d        	ldy	#$d
    2909: b1 14        	lda	($14),y                 ; 0x14 <__rc4>
    290b: d0 0c        	bne	$2919 <main+0x986>
    290d: a0 0e        	ldy	#$e
    290f: b1 14        	lda	($14),y                 ; 0x14 <__rc4>
    2911: d0 06        	bne	$2919 <main+0x986>
    2913: a0 0f        	ldy	#$f
    2915: b1 14        	lda	($14),y                 ; 0x14 <__rc4>
    2917: f0 0e        	beq	$2927 <main+0x994>
    2919: a2 05        	ldx	#$5
    291b: 8e 82 d5     	stx	$d582                   ; 0xd582 <end_block9+0x4efe>
    291e: a0 01        	ldy	#$1
    2920: a2 01        	ldx	#$1
    2922: 86 2d        	stx	$2d                     ; 0x2d <__rc29>
    2924: 8c 81 d5     	sty	$d581                   ; 0xd581 <end_block9+0x4efd>
    2927: 64 53        	stz	$53                     ; 0x53 <_col>
    2929: 9c 14 d0     	stz	$d014                   ; 0xd014 <end_block9+0x4990>
    292c: 9c 15 d0     	stz	$d015                   ; 0xd015 <end_block9+0x4991>
    292f: a6 12        	ldx	$12                     ; 0x12 <__rc2>
    2931: 86 54        	stx	$54                     ; 0x54 <_row>
    2933: 86 14        	stx	$14                     ; 0x14 <__rc4>
    2935: 8e 16 d0     	stx	$d016                   ; 0xd016 <end_block9+0x4992>
    2938: 9c 17 d0     	stz	$d017                   ; 0xd017 <end_block9+0x4993>
    293b: a2 70        	ldx	#$70
    293d: 86 33        	stx	$33                     ; 0x33 <_ccolor>
    293f: a5 2d        	lda	$2d                     ; 0x2d <__rc29>
    2941: f0 3e        	beq	$2981 <main+0x9ee>
    2943: a5 10        	lda	$10                     ; 0x10 <__rc0>
    2945: a6 11        	ldx	$11                     ; 0x11 <__rc1>
    2947: 18           	clc
    2948: 69 02        	adc	#$2
    294a: 85 12        	sta	$12                     ; 0x12 <__rc2>
    294c: 8a           	txa
    294d: 69 00        	adc	#$0
    294f: 85 13        	sta	$13                     ; 0x13 <__rc3>
    2951: a5 29        	lda	$29                     ; 0x29 <__rc25>
    2953: 92 10        	sta	($10)                   ; 0x10 <__rc0>
    2955: a5 2c        	lda	$2c                     ; 0x2c <__zp_bss_size>
    2957: a4 27        	ldy	$27                     ; 0x27 <__rc23>
    2959: 91 10        	sta	($10),y                 ; 0x10 <__rc0>
    295b: 84 15        	sty	$15                     ; 0x15 <__rc5>
    295d: a9 84        	lda	#$84
    295f: a4 14        	ldy	$14                     ; 0x14 <__rc4>
    2961: 91 10        	sta	($10),y                 ; 0x10 <__rc0>
    2963: a2 01        	ldx	#$1
    2965: 86 27        	stx	$27                     ; 0x27 <__rc23>
    2967: a9 51        	lda	#$51
    2969: a4 15        	ldy	$15                     ; 0x15 <__rc5>
    296b: 91 12        	sta	($12),y                 ; 0x12 <__rc2>
    296d: a2 70        	ldx	#$70
    296f: 86 12        	stx	$12                     ; 0x12 <__rc2>
    2971: a2 51        	ldx	#$51
    2973: 86 13        	stx	$13                     ; 0x13 <__rc3>
    2975: 20 13 49     	jsr	$4913 <printf>
    2978: 80 3e        	bra	$29b8 <main+0xa25>
    297a: a2 01        	ldx	#$1
    297c: 86 27        	stx	$27                     ; 0x27 <__rc23>
    297e: 4c 27 2a     	jmp	$2a27 <main+0xa94>
    2981: a5 10        	lda	$10                     ; 0x10 <__rc0>
    2983: a6 11        	ldx	$11                     ; 0x11 <__rc1>
    2985: 18           	clc
    2986: 69 02        	adc	#$2
    2988: 85 12        	sta	$12                     ; 0x12 <__rc2>
    298a: 8a           	txa
    298b: 69 00        	adc	#$0
    298d: 85 13        	sta	$13                     ; 0x13 <__rc3>
    298f: a5 29        	lda	$29                     ; 0x29 <__rc25>
    2991: 92 10        	sta	($10)                   ; 0x10 <__rc0>
    2993: a5 2c        	lda	$2c                     ; 0x2c <__zp_bss_size>
    2995: a4 27        	ldy	$27                     ; 0x27 <__rc23>
    2997: 91 10        	sta	($10),y                 ; 0x10 <__rc0>
    2999: 84 15        	sty	$15                     ; 0x15 <__rc5>
    299b: a9 7f        	lda	#$7f
    299d: a4 14        	ldy	$14                     ; 0x14 <__rc4>
    299f: 91 10        	sta	($10),y                 ; 0x10 <__rc0>
    29a1: a2 01        	ldx	#$1
    29a3: 86 27        	stx	$27                     ; 0x27 <__rc23>
    29a5: a9 51        	lda	#$51
    29a7: a4 15        	ldy	$15                     ; 0x15 <__rc5>
    29a9: 91 12        	sta	($12),y                 ; 0x12 <__rc2>
    29ab: a2 70        	ldx	#$70
    29ad: 86 12        	stx	$12                     ; 0x12 <__rc2>
    29af: a2 51        	ldx	#$51
    29b1: 86 13        	stx	$13                     ; 0x13 <__rc3>
    29b3: 20 13 49     	jsr	$4913 <printf>
    29b6: 64 2d        	stz	$2d                     ; 0x2d <__rc29>
    29b8: a6 2a        	ldx	$2a                     ; 0x2a <__rc26>
    29ba: 86 18        	stx	$18                     ; 0x18 <__rc8>
    29bc: a6 2b        	ldx	$2b                     ; 0x2b <__rc27>
    29be: 86 19        	stx	$19                     ; 0x19 <__rc9>
    29c0: a4 25        	ldy	$25                     ; 0x25 <__rc21>
    29c2: 4c 27 2a     	jmp	$2a27 <main+0xa94>
    29c5: a5 29        	lda	$29                     ; 0x29 <__rc25>
    29c7: 18           	clc
    29c8: 69 af        	adc	#$af
    29ca: 85 12        	sta	$12                     ; 0x12 <__rc2>
    29cc: a5 2c        	lda	$2c                     ; 0x2c <__zp_bss_size>
    29ce: 69 fe        	adc	#$fe
    29d0: d0 2b        	bne	$29fd <main+0xa6a>
    29d2: a2 01        	ldx	#$1
    29d4: 86 27        	stx	$27                     ; 0x27 <__rc23>
    29d6: a6 12        	ldx	$12                     ; 0x12 <__rc2>
    29d8: e0 10        	cpx	#$10
    29da: b0 29        	bcs	$2a05 <main+0xa72>
    29dc: a2 0c        	ldx	#$c
    29de: 80 45        	bra	$2a25 <main+0xa92>
    29e0: a2 01        	ldx	#$1
    29e2: 86 27        	stx	$27                     ; 0x27 <__rc23>
    29e4: c9 00        	cmp	#$0
    29e6: b0 03        	bcs	$29eb <main+0xa58>
    29e8: 4c c9 2a     	jmp	$2ac9 <main+0xb36>
    29eb: a5 29        	lda	$29                     ; 0x29 <__rc25>
    29ed: 18           	clc
    29ee: 69 8f        	adc	#$8f
    29f0: aa           	tax
    29f1: a5 2c        	lda	$2c                     ; 0x2c <__zp_bss_size>
    29f3: 69 fe        	adc	#$fe
    29f5: d0 1e        	bne	$2a15 <main+0xa82>
    29f7: e0 10        	cpx	#$10
    29f9: 90 1e        	bcc	$2a19 <main+0xa86>
    29fb: 80 26        	bra	$2a23 <main+0xa90>
    29fd: a2 01        	ldx	#$1
    29ff: 86 27        	stx	$27                     ; 0x27 <__rc23>
    2a01: c9 00        	cmp	#$0
    2a03: 90 d7        	bcc	$29dc <main+0xa49>
    2a05: a5 29        	lda	$29                     ; 0x29 <__rc25>
    2a07: 18           	clc
    2a08: 69 00        	adc	#$0
    2a0a: aa           	tax
    2a0b: a5 2c        	lda	$2c                     ; 0x2c <__zp_bss_size>
    2a0d: 69 ff        	adc	#$ff
    2a0f: d0 0c        	bne	$2a1d <main+0xa8a>
    2a11: e0 02        	cpx	#$2
    2a13: 80 0a        	bra	$2a1f <main+0xa8c>
    2a15: c9 00        	cmp	#$0
    2a17: b0 0a        	bcs	$2a23 <main+0xa90>
    2a19: a2 1c        	ldx	#$1c
    2a1b: 80 08        	bra	$2a25 <main+0xa92>
    2a1d: c9 00        	cmp	#$0
    2a1f: 64 2e        	stz	$2e                     ; 0x2e <__rc30>
    2a21: 90 04        	bcc	$2a27 <main+0xa94>
    2a23: a2 04        	ldx	#$4
    2a25: 86 2e        	stx	$2e                     ; 0x2e <__rc30>
    2a27: c8           	iny
    2a28: a5 2e        	lda	$2e                     ; 0x2e <__rc30>
    2a2a: 18           	clc
    2a2b: 69 08        	adc	#$8
    2a2d: 85 12        	sta	$12                     ; 0x12 <__rc2>
    2a2f: c4 12        	cpy	$12                     ; 0x12 <__rc2>
    2a31: 90 03        	bcc	$2a36 <main+0xaa3>
    2a33: 4c ce 2a     	jmp	$2ace <main+0xb3b>
    2a36: a6 2a        	ldx	$2a                     ; 0x2a <__rc26>
    2a38: 86 12        	stx	$12                     ; 0x12 <__rc2>
    2a3a: a6 2b        	ldx	$2b                     ; 0x2b <__rc27>
    2a3c: 86 13        	stx	$13                     ; 0x13 <__rc3>
    2a3e: 5a           	phy
    2a3f: a0 18        	ldy	#$18
    2a41: b1 10        	lda	($10),y                 ; 0x10 <__rc0>
    2a43: 85 14        	sta	$14                     ; 0x14 <__rc4>
    2a45: c8           	iny
    2a46: b1 10        	lda	($10),y                 ; 0x10 <__rc0>
    2a48: 7a           	ply
    2a49: 85 15        	sta	$15                     ; 0x15 <__rc5>
    2a4b: a2 00        	ldx	#$0
    2a4d: a9 10        	lda	#$10
    2a4f: 84 25        	sty	$25                     ; 0x25 <__rc21>
    2a51: 20 44 39     	jsr	$3944 <fileRead>
    2a54: a4 25        	ldy	$25                     ; 0x25 <__rc21>
    2a56: c0 05        	cpy	#$5
    2a58: d0 03        	bne	$2a5d <main+0xaca>
    2a5a: 4c d6 28     	jmp	$28d6 <main+0x943>
    2a5d: c0 03        	cpy	#$3
    2a5f: d0 03        	bne	$2a64 <main+0xad1>
    2a61: 4c bc 28     	jmp	$28bc <main+0x929>
    2a64: a6 2a        	ldx	$2a                     ; 0x2a <__rc26>
    2a66: 86 18        	stx	$18                     ; 0x18 <__rc8>
    2a68: a6 2b        	ldx	$2b                     ; 0x2b <__rc27>
    2a6a: 86 19        	stx	$19                     ; 0x19 <__rc9>
    2a6c: 98           	tya
    2a6d: f0 03        	beq	$2a72 <main+0xadf>
    2a6f: 4c 7a 29     	jmp	$297a <main+0x9e7>
    2a72: 18           	clc
    2a73: a5 10        	lda	$10                     ; 0x10 <__rc0>
    2a75: 69 26        	adc	#$26
    2a77: 48           	pha
    2a78: a5 11        	lda	$11                     ; 0x11 <__rc1>
    2a7a: 69 00        	adc	#$0
    2a7c: aa           	tax
    2a7d: 68           	pla
    2a7e: 85 12        	sta	$12                     ; 0x12 <__rc2>
    2a80: 86 13        	stx	$13                     ; 0x13 <__rc3>
    2a82: 18           	clc
    2a83: 69 08        	adc	#$8
    2a85: 85 14        	sta	$14                     ; 0x14 <__rc4>
    2a87: 8a           	txa
    2a88: 69 00        	adc	#$0
    2a8a: 85 15        	sta	$15                     ; 0x15 <__rc5>
    2a8c: a0 08        	ldy	#$8
    2a8e: b1 12        	lda	($12),y                 ; 0x12 <__rc2>
    2a90: 85 12        	sta	$12                     ; 0x12 <__rc2>
    2a92: a0 01        	ldy	#$1
    2a94: b1 14        	lda	($14),y                 ; 0x14 <__rc4>
    2a96: a4 12        	ldy	$12                     ; 0x12 <__rc2>
    2a98: 84 29        	sty	$29                     ; 0x29 <__rc25>
    2a9a: c0 61        	cpy	#$61
    2a9c: 85 2c        	sta	$2c                     ; 0x2c <__zp_bss_size>
    2a9e: e9 01        	sbc	#$1
    2aa0: 50 02        	bvc	$2aa4 <main+0xb11>
    2aa2: 49 80        	eor	#$80
    2aa4: a4 25        	ldy	$25                     ; 0x25 <__rc21>
    2aa6: aa           	tax
    2aa7: 10 03        	bpl	$2aac <main+0xb19>
    2aa9: 4c c5 29     	jmp	$29c5 <main+0xa32>
    2aac: a5 29        	lda	$29                     ; 0x29 <__rc25>
    2aae: 18           	clc
    2aaf: 69 9f        	adc	#$9f
    2ab1: 85 12        	sta	$12                     ; 0x12 <__rc2>
    2ab3: a5 2c        	lda	$2c                     ; 0x2c <__zp_bss_size>
    2ab5: 69 fe        	adc	#$fe
    2ab7: f0 03        	beq	$2abc <main+0xb29>
    2ab9: 4c e0 29     	jmp	$29e0 <main+0xa4d>
    2abc: a2 01        	ldx	#$1
    2abe: 86 27        	stx	$27                     ; 0x27 <__rc23>
    2ac0: a6 12        	ldx	$12                     ; 0x12 <__rc2>
    2ac2: e0 10        	cpx	#$10
    2ac4: 90 03        	bcc	$2ac9 <main+0xb36>
    2ac6: 4c eb 29     	jmp	$29eb <main+0xa58>
    2ac9: a2 0e        	ldx	#$e
    2acb: 4c 25 2a     	jmp	$2a25 <main+0xa92>
    2ace: a0 18        	ldy	#$18
    2ad0: b1 10        	lda	($10),y                 ; 0x10 <__rc0>
    2ad2: 85 12        	sta	$12                     ; 0x12 <__rc2>
    2ad4: c8           	iny
    2ad5: b1 10        	lda	($10),y                 ; 0x10 <__rc0>
    2ad7: 85 13        	sta	$13                     ; 0x13 <__rc3>
    2ad9: b2 12        	lda	($12)                   ; 0x12 <__rc2>
    2adb: 85 f3        	sta	$f3                     ; 0xf3 <__rc31+0xc4>
    2add: a6 24        	ldx	$24                     ; 0x24 <__rc20>
    2adf: 86 f4        	stx	$f4                     ; 0xf4 <__rc31+0xc5>
    2ae1: 64 f5        	stz	$f5                     ; 0xf5 <__rc31+0xc6>
    2ae3: 64 f6        	stz	$f6                     ; 0xf6 <__rc31+0xc7>
    2ae5: 64 f7        	stz	$f7                     ; 0xf7 <__rc31+0xc8>
    2ae7: a2 52        	ldx	#$52
    2ae9: 86 12        	stx	$12                     ; 0x12 <__rc2>
    2aeb: a2 00        	ldx	#$0
    2aed: 86 13        	stx	$13                     ; 0x13 <__rc3>
    2aef: 20 74 ff     	jsr	$ff74 <end_block9+0x78f0>
    2af2: 92 18        	sta	($18)                   ; 0x18 <__rc8>
    2af4: a9 00        	lda	#$0
    2af6: 6a           	ror
    2af7: 85 12        	sta	$12                     ; 0x12 <__rc2>
    2af9: 64 53        	stz	$53                     ; 0x53 <_col>
    2afb: 9c 14 d0     	stz	$d014                   ; 0xd014 <end_block9+0x4990>
    2afe: 9c 15 d0     	stz	$d015                   ; 0xd015 <end_block9+0x4991>
    2b01: a2 03        	ldx	#$3
    2b03: 86 54        	stx	$54                     ; 0x54 <_row>
    2b05: 8e 16 d0     	stx	$d016                   ; 0xd016 <end_block9+0x4992>
    2b08: 86 24        	stx	$24                     ; 0x24 <__rc20>
    2b0a: 9c 17 d0     	stz	$d017                   ; 0xd017 <end_block9+0x4993>
    2b0d: a2 15        	ldx	#$15
    2b0f: 86 12        	stx	$12                     ; 0x12 <__rc2>
    2b11: a2 51        	ldx	#$51
    2b13: 86 13        	stx	$13                     ; 0x13 <__rc3>
    2b15: 20 13 49     	jsr	$4913 <printf>
    2b18: 64 53        	stz	$53                     ; 0x53 <_col>
    2b1a: 9c 14 d0     	stz	$d014                   ; 0xd014 <end_block9+0x4990>
    2b1d: 9c 15 d0     	stz	$d015                   ; 0xd015 <end_block9+0x4991>
    2b20: a6 24        	ldx	$24                     ; 0x24 <__rc20>
    2b22: 86 54        	stx	$54                     ; 0x54 <_row>
    2b24: 8e 16 d0     	stx	$d016                   ; 0xd016 <end_block9+0x4992>
    2b27: 9c 17 d0     	stz	$d017                   ; 0xd017 <end_block9+0x4993>
    2b2a: a2 70        	ldx	#$70
    2b2c: 86 33        	stx	$33                     ; 0x33 <_ccolor>
    2b2e: a9 8e        	lda	#$8e
    2b30: 92 10        	sta	($10)                   ; 0x10 <__rc0>
    2b32: a0 01        	ldy	#$1
    2b34: a9 85        	lda	#$85
    2b36: 91 10        	sta	($10),y                 ; 0x10 <__rc0>
    2b38: 84 24        	sty	$24                     ; 0x24 <__rc20>
    2b3a: a2 bc        	ldx	#$bc
    2b3c: 86 12        	stx	$12                     ; 0x12 <__rc2>
    2b3e: a2 51        	ldx	#$51
    2b40: 86 13        	stx	$13                     ; 0x13 <__rc3>
    2b42: 20 13 49     	jsr	$4913 <printf>
    2b45: 64 53        	stz	$53                     ; 0x53 <_col>
    2b47: 9c 14 d0     	stz	$d014                   ; 0xd014 <end_block9+0x4990>
    2b4a: 9c 15 d0     	stz	$d015                   ; 0xd015 <end_block9+0x4991>
    2b4d: a2 1c        	ldx	#$1c
    2b4f: 86 54        	stx	$54                     ; 0x54 <_row>
    2b51: 8e 16 d0     	stx	$d016                   ; 0xd016 <end_block9+0x4992>
    2b54: 9c 17 d0     	stz	$d017                   ; 0xd017 <end_block9+0x4993>
    2b57: a2 76        	ldx	#$76
    2b59: 86 33        	stx	$33                     ; 0x33 <_ccolor>
    2b5b: 86 25        	stx	$25                     ; 0x25 <__rc21>
    2b5d: a2 c8        	ldx	#$c8
    2b5f: 86 12        	stx	$12                     ; 0x12 <__rc2>
    2b61: a2 51        	ldx	#$51
    2b63: 86 13        	stx	$13                     ; 0x13 <__rc3>
    2b65: 20 13 49     	jsr	$4913 <printf>
    2b68: a2 f0        	ldx	#$f0
    2b6a: 86 33        	stx	$33                     ; 0x33 <_ccolor>
    2b6c: 86 27        	stx	$27                     ; 0x27 <__rc23>
    2b6e: a2 99        	ldx	#$99
    2b70: 86 12        	stx	$12                     ; 0x12 <__rc2>
    2b72: a2 51        	ldx	#$51
    2b74: 86 13        	stx	$13                     ; 0x13 <__rc3>
    2b76: 20 13 49     	jsr	$4913 <printf>
    2b79: a6 25        	ldx	$25                     ; 0x25 <__rc21>
    2b7b: 86 33        	stx	$33                     ; 0x33 <_ccolor>
    2b7d: a2 a3        	ldx	#$a3
    2b7f: 86 12        	stx	$12                     ; 0x12 <__rc2>
    2b81: a2 51        	ldx	#$51
    2b83: 86 13        	stx	$13                     ; 0x13 <__rc3>
    2b85: 20 13 49     	jsr	$4913 <printf>
    2b88: a6 27        	ldx	$27                     ; 0x27 <__rc23>
    2b8a: 86 33        	stx	$33                     ; 0x33 <_ccolor>
    2b8c: a2 89        	ldx	#$89
    2b8e: 86 12        	stx	$12                     ; 0x12 <__rc2>
    2b90: a2 51        	ldx	#$51
    2b92: 86 13        	stx	$13                     ; 0x13 <__rc3>
    2b94: 20 13 49     	jsr	$4913 <printf>
    2b97: a6 25        	ldx	$25                     ; 0x25 <__rc21>
    2b99: 86 33        	stx	$33                     ; 0x33 <_ccolor>
    2b9b: a2 66        	ldx	#$66
    2b9d: 86 12        	stx	$12                     ; 0x12 <__rc2>
    2b9f: a2 51        	ldx	#$51
    2ba1: 86 13        	stx	$13                     ; 0x13 <__rc3>
    2ba3: 20 13 49     	jsr	$4913 <printf>
    2ba6: a6 27        	ldx	$27                     ; 0x27 <__rc23>
    2ba8: 86 33        	stx	$33                     ; 0x33 <_ccolor>
    2baa: a2 a8        	ldx	#$a8
    2bac: 86 12        	stx	$12                     ; 0x12 <__rc2>
    2bae: a2 51        	ldx	#$51
    2bb0: 86 13        	stx	$13                     ; 0x13 <__rc3>
    2bb2: 20 13 49     	jsr	$4913 <printf>
    2bb5: a6 2a        	ldx	$2a                     ; 0x2a <__rc26>
    2bb7: 86 18        	stx	$18                     ; 0x18 <__rc8>
    2bb9: a6 2b        	ldx	$2b                     ; 0x2b <__rc27>
    2bbb: 86 19        	stx	$19                     ; 0x19 <__rc9>
    2bbd: a4 24        	ldy	$24                     ; 0x24 <__rc20>
    2bbf: 84 5f        	sty	$5f                     ; 0x5f <comeRightTrough>
    2bc1: a2 01        	ldx	#$1
    2bc3: 18           	clc
    2bc4: a5 10        	lda	$10                     ; 0x10 <__rc0>
    2bc6: 69 67        	adc	#$67
    2bc8: 85 2a        	sta	$2a                     ; 0x2a <__rc26>
    2bca: a5 11        	lda	$11                     ; 0x11 <__rc1>
    2bcc: 69 00        	adc	#$0
    2bce: 85 2b        	sta	$2b                     ; 0x2b <__rc27>
    2bd0: a9 00        	lda	#$0
    2bd2: 92 2a        	sta	($2a)                   ; 0x2a <__rc26>
    2bd4: 18           	clc
    2bd5: 48           	pha
    2bd6: a5 10        	lda	$10                     ; 0x10 <__rc0>
    2bd8: 69 66        	adc	#$66
    2bda: 85 2c        	sta	$2c                     ; 0x2c <__zp_bss_size>
    2bdc: a5 11        	lda	$11                     ; 0x11 <__rc1>
    2bde: 69 00        	adc	#$0
    2be0: 85 2d        	sta	$2d                     ; 0x2d <__rc29>
    2be2: 68           	pla
    2be3: 92 2c        	sta	($2c)                   ; 0x2c <__zp_bss_size>
    2be5: ad 60 d6     	lda	$d660                   ; 0xd660 <end_block9+0x4fdc>
    2be8: 29 10        	and	#$10
    2bea: d0 06        	bne	$2bf2 <main+0xc5f>
    2bec: 8a           	txa
    2bed: d0 0b        	bne	$2bfa <main+0xc67>
    2bef: 4c 85 2d     	jmp	$2d85 <main+0xdf2>
    2bf2: 8a           	txa
    2bf3: d0 05        	bne	$2bfa <main+0xc67>
    2bf5: a2 10        	ldx	#$10
    2bf7: 8e 60 d6     	stx	$d660                   ; 0xd660 <end_block9+0x4fdc>
    2bfa: a2 01        	ldx	#$1
    2bfc: 86 27        	stx	$27                     ; 0x27 <__rc23>
    2bfe: a6 47        	ldx	$47                     ; 0x47 <tooBigWait>
    2c00: 86 16        	stx	$16                     ; 0x16 <__rc6>
    2c02: a5 48        	lda	$48                     ; 0x48 <tooBigWait+0x1>
    2c04: a4 49        	ldy	$49                     ; 0x49 <tooBigWait+0x2>
    2c06: a6 4a        	ldx	$4a                     ; 0x4a <tooBigWait+0x3>
    2c08: d0 0e        	bne	$2c18 <main+0xc85>
    2c0a: c0 00        	cpy	#$0
    2c0c: d0 0a        	bne	$2c18 <main+0xc85>
    2c0e: c9 00        	cmp	#$0
    2c10: d0 06        	bne	$2c18 <main+0xc85>
    2c12: e6 16        	inc	$16                     ; 0x16 <__rc6>
    2c14: c6 16        	dec	$16                     ; 0x16 <__rc6>
    2c16: f0 0b        	beq	$2c23 <main+0xc90>
    2c18: 85 13        	sta	$13                     ; 0x13 <__rc3>
    2c1a: a5 5f        	lda	$5f                     ; 0x5f <comeRightTrough>
    2c1c: 29 01        	and	#$1
    2c1e: d0 03        	bne	$2c23 <main+0xc90>
    2c20: 4c a6 2c     	jmp	$2ca6 <main+0xd13>
    2c23: 64 5f        	stz	$5f                     ; 0x5f <comeRightTrough>
    2c25: a0 15        	ldy	#$15
    2c27: b1 10        	lda	($10),y                 ; 0x10 <__rc0>
    2c29: 85 12        	sta	$12                     ; 0x12 <__rc2>
    2c2b: c8           	iny
    2c2c: b1 10        	lda	($10),y                 ; 0x10 <__rc0>
    2c2e: 85 13        	sta	$13                     ; 0x13 <__rc3>
    2c30: a0 18        	ldy	#$18
    2c32: b1 10        	lda	($10),y                 ; 0x10 <__rc0>
    2c34: 85 14        	sta	$14                     ; 0x14 <__rc4>
    2c36: c8           	iny
    2c37: b1 10        	lda	($10),y                 ; 0x10 <__rc0>
    2c39: 85 15        	sta	$15                     ; 0x15 <__rc5>
    2c3b: a2 00        	ldx	#$0
    2c3d: a5 27        	lda	$27                     ; 0x27 <__rc23>
    2c3f: a4 18        	ldy	$18                     ; 0x18 <__rc8>
    2c41: 84 24        	sty	$24                     ; 0x24 <__rc20>
    2c43: a4 19        	ldy	$19                     ; 0x19 <__rc9>
    2c45: 84 25        	sty	$25                     ; 0x25 <__rc21>
    2c47: 20 44 39     	jsr	$3944 <fileRead>
    2c4a: a6 24        	ldx	$24                     ; 0x24 <__rc20>
    2c4c: 86 18        	stx	$18                     ; 0x18 <__rc8>
    2c4e: a6 25        	ldx	$25                     ; 0x25 <__rc21>
    2c50: 86 19        	stx	$19                     ; 0x19 <__rc9>
    2c52: a4 27        	ldy	$27                     ; 0x27 <__rc23>
    2c54: c9 01        	cmp	#$1
    2c56: f0 03        	beq	$2c5b <main+0xcc8>
    2c58: 4c 85 2d     	jmp	$2d85 <main+0xdf2>
    2c5b: 5a           	phy
    2c5c: a0 15        	ldy	#$15
    2c5e: b1 10        	lda	($10),y                 ; 0x10 <__rc0>
    2c60: 85 12        	sta	$12                     ; 0x12 <__rc2>
    2c62: c8           	iny
    2c63: b1 10        	lda	($10),y                 ; 0x10 <__rc0>
    2c65: 7a           	ply
    2c66: 85 13        	sta	$13                     ; 0x13 <__rc3>
    2c68: b2 12        	lda	($12)                   ; 0x12 <__rc2>
    2c6a: aa           	tax
    2c6b: 38           	sec
    2c6c: e9 d0        	sbc	#$d0
    2c6e: 50 02        	bvc	$2c72 <main+0xcdf>
    2c70: 49 80        	eor	#$80
    2c72: c9 00        	cmp	#$0
    2c74: 10 03        	bpl	$2c79 <main+0xce6>
    2c76: 4c 34 2d     	jmp	$2d34 <main+0xda1>
    2c79: 8a           	txa
    2c7a: 18           	clc
    2c7b: 69 cf        	adc	#$cf
    2c7d: c9 36        	cmp	#$36
    2c7f: 90 03        	bcc	$2c84 <main+0xcf1>
    2c81: 4c dd 32     	jmp	$32dd <main+0x134a>
    2c84: 0a           	asl
    2c85: aa           	tax
    2c86: 7c 2b 50     	jmp	($502b,x)               ; 0x502b <__set_v+0x59>
    2c89: a6 24        	ldx	$24                     ; 0x24 <__rc20>
    2c8b: 86 12        	stx	$12                     ; 0x12 <__rc2>
    2c8d: a6 25        	ldx	$25                     ; 0x25 <__rc21>
    2c8f: 86 13        	stx	$13                     ; 0x13 <__rc3>
    2c91: 5a           	phy
    2c92: a0 18        	ldy	#$18
    2c94: b1 10        	lda	($10),y                 ; 0x10 <__rc0>
    2c96: 85 14        	sta	$14                     ; 0x14 <__rc4>
    2c98: c8           	iny
    2c99: b1 10        	lda	($10),y                 ; 0x10 <__rc0>
    2c9b: 7a           	ply
    2c9c: 85 15        	sta	$15                     ; 0x15 <__rc5>
    2c9e: a2 00        	ldx	#$0
    2ca0: 98           	tya
    2ca1: 84 27        	sty	$27                     ; 0x27 <__rc23>
    2ca3: 4c 76 2d     	jmp	$2d76 <main+0xde3>
    2ca6: 84 14        	sty	$14                     ; 0x14 <__rc4>
    2ca8: a9 02        	lda	#$2
    2caa: 8d 50 d6     	sta	$d650                   ; 0xd650 <end_block9+0x4fcc>
    2cad: e0 01        	cpx	#$1
    2caf: d0 10        	bne	$2cc1 <main+0xd2e>
    2cb1: a5 14        	lda	$14                     ; 0x14 <__rc4>
    2cb3: d0 34        	bne	$2ce9 <main+0xd56>
    2cb5: a5 13        	lda	$13                     ; 0x13 <__rc3>
    2cb7: f0 03        	beq	$2cbc <main+0xd29>
    2cb9: 4c d1 32     	jmp	$32d1 <main+0x133e>
    2cbc: a6 16        	ldx	$16                     ; 0x16 <__rc6>
    2cbe: 4c d3 32     	jmp	$32d3 <main+0x1340>
    2cc1: e0 01        	cpx	#$1
    2cc3: b0 28        	bcs	$2ced <main+0xd5a>
    2cc5: a6 16        	ldx	$16                     ; 0x16 <__rc6>
    2cc7: 8e 55 d6     	stx	$d655                   ; 0xd655 <end_block9+0x4fd1>
    2cca: a6 13        	ldx	$13                     ; 0x13 <__rc3>
    2ccc: 8e 56 d6     	stx	$d656                   ; 0xd656 <end_block9+0x4fd2>
    2ccf: 8c 57 d6     	sty	$d657                   ; 0xd657 <end_block9+0x4fd3>
    2cd2: 9c 54 d6     	stz	$d654                   ; 0xd654 <end_block9+0x4fd0>
    2cd5: a0 02        	ldy	#$2
    2cd7: 8c 50 d6     	sty	$d650                   ; 0xd650 <end_block9+0x4fcc>
    2cda: a2 89        	ldx	#$89
    2cdc: 8e 50 d6     	stx	$d650                   ; 0xd650 <end_block9+0x4fcc>
    2cdf: 64 47        	stz	$47                     ; 0x47 <tooBigWait>
    2ce1: 64 48        	stz	$48                     ; 0x48 <tooBigWait+0x1>
    2ce3: 64 49        	stz	$49                     ; 0x49 <tooBigWait+0x2>
    2ce5: 64 4a        	stz	$4a                     ; 0x4a <tooBigWait+0x3>
    2ce7: 80 47        	bra	$2d30 <main+0xd9d>
    2ce9: c0 00        	cpy	#$0
    2ceb: 90 d8        	bcc	$2cc5 <main+0xd32>
    2ced: a2 ff        	ldx	#$ff
    2cef: 8e 55 d6     	stx	$d655                   ; 0xd655 <end_block9+0x4fd1>
    2cf2: 8e 56 d6     	stx	$d656                   ; 0xd656 <end_block9+0x4fd2>
    2cf5: 8e 57 d6     	stx	$d657                   ; 0xd657 <end_block9+0x4fd3>
    2cf8: 9c 54 d6     	stz	$d654                   ; 0xd654 <end_block9+0x4fd0>
    2cfb: a0 02        	ldy	#$2
    2cfd: 8c 50 d6     	sty	$d650                   ; 0xd650 <end_block9+0x4fcc>
    2d00: a2 89        	ldx	#$89
    2d02: 8e 50 d6     	stx	$d650                   ; 0xd650 <end_block9+0x4fcc>
    2d05: a5 47        	lda	$47                     ; 0x47 <tooBigWait>
    2d07: a6 48        	ldx	$48                     ; 0x48 <tooBigWait+0x1>
    2d09: 86 12        	stx	$12                     ; 0x12 <__rc2>
    2d0b: a4 49        	ldy	$49                     ; 0x49 <tooBigWait+0x2>
    2d0d: a6 4a        	ldx	$4a                     ; 0x4a <tooBigWait+0x3>
    2d0f: 86 13        	stx	$13                     ; 0x13 <__rc3>
    2d11: 18           	clc
    2d12: 69 01        	adc	#$1
    2d14: aa           	tax
    2d15: a5 12        	lda	$12                     ; 0x12 <__rc2>
    2d17: 69 00        	adc	#$0
    2d19: 85 12        	sta	$12                     ; 0x12 <__rc2>
    2d1b: 98           	tya
    2d1c: 69 00        	adc	#$0
    2d1e: 85 14        	sta	$14                     ; 0x14 <__rc4>
    2d20: a5 13        	lda	$13                     ; 0x13 <__rc3>
    2d22: 69 ff        	adc	#$ff
    2d24: 86 47        	stx	$47                     ; 0x47 <tooBigWait>
    2d26: a6 12        	ldx	$12                     ; 0x12 <__rc2>
    2d28: 86 48        	stx	$48                     ; 0x48 <tooBigWait+0x1>
    2d2a: a6 14        	ldx	$14                     ; 0x14 <__rc4>
    2d2c: 86 49        	stx	$49                     ; 0x49 <tooBigWait+0x2>
    2d2e: 85 4a        	sta	$4a                     ; 0x4a <tooBigWait+0x3>
    2d30: a4 27        	ldy	$27                     ; 0x27 <__rc23>
    2d32: 80 51        	bra	$2d85 <main+0xdf2>
    2d34: 8a           	txa
    2d35: 18           	clc
    2d36: 69 50        	adc	#$50
    2d38: c9 19        	cmp	#$19
    2d3a: 90 03        	bcc	$2d3f <main+0xdac>
    2d3c: 4c 58 33     	jmp	$3358 <main+0x13c5>
    2d3f: a6 24        	ldx	$24                     ; 0x24 <__rc20>
    2d41: 86 12        	stx	$12                     ; 0x12 <__rc2>
    2d43: a6 25        	ldx	$25                     ; 0x25 <__rc21>
    2d45: 86 13        	stx	$13                     ; 0x13 <__rc3>
    2d47: 5a           	phy
    2d48: a0 18        	ldy	#$18
    2d4a: b1 10        	lda	($10),y                 ; 0x10 <__rc0>
    2d4c: 85 2a        	sta	$2a                     ; 0x2a <__rc26>
    2d4e: c8           	iny
    2d4f: b1 10        	lda	($10),y                 ; 0x10 <__rc0>
    2d51: 7a           	ply
    2d52: 85 2b        	sta	$2b                     ; 0x2b <__rc27>
    2d54: a6 2a        	ldx	$2a                     ; 0x2a <__rc26>
    2d56: 86 14        	stx	$14                     ; 0x14 <__rc4>
    2d58: 85 15        	sta	$15                     ; 0x15 <__rc5>
    2d5a: a2 00        	ldx	#$0
    2d5c: 98           	tya
    2d5d: 84 27        	sty	$27                     ; 0x27 <__rc23>
    2d5f: 20 44 39     	jsr	$3944 <fileRead>
    2d62: a6 24        	ldx	$24                     ; 0x24 <__rc20>
    2d64: 86 12        	stx	$12                     ; 0x12 <__rc2>
    2d66: a6 25        	ldx	$25                     ; 0x25 <__rc21>
    2d68: 86 13        	stx	$13                     ; 0x13 <__rc3>
    2d6a: a6 2a        	ldx	$2a                     ; 0x2a <__rc26>
    2d6c: 86 14        	stx	$14                     ; 0x14 <__rc4>
    2d6e: a6 2b        	ldx	$2b                     ; 0x2b <__rc27>
    2d70: 86 15        	stx	$15                     ; 0x15 <__rc5>
    2d72: a2 00        	ldx	#$0
    2d74: a5 27        	lda	$27                     ; 0x27 <__rc23>
    2d76: 20 44 39     	jsr	$3944 <fileRead>
    2d79: a6 24        	ldx	$24                     ; 0x24 <__rc20>
    2d7b: 86 18        	stx	$18                     ; 0x18 <__rc8>
    2d7d: a6 25        	ldx	$25                     ; 0x25 <__rc21>
    2d7f: 86 19        	stx	$19                     ; 0x19 <__rc9>
    2d81: a4 27        	ldy	$27                     ; 0x27 <__rc23>
    2d83: 84 5f        	sty	$5f                     ; 0x5f <comeRightTrough>
    2d85: 64 4b        	stz	$4b                     ; 0x4b <kernelEventData>
    2d87: a2 52        	ldx	#$52
    2d89: 86 12        	stx	$12                     ; 0x12 <__rc2>
    2d8b: a2 00        	ldx	#$0
    2d8d: 86 13        	stx	$13                     ; 0x13 <__rc3>
    2d8f: 20 00 ff     	jsr	$ff00 <end_block9+0x787c>
    2d92: 92 18        	sta	($18)                   ; 0x18 <__rc8>
    2d94: a9 00        	lda	#$0
    2d96: 6a           	ror
    2d97: 85 12        	sta	$12                     ; 0x12 <__rc2>
    2d99: a6 4b        	ldx	$4b                     ; 0x4b <kernelEventData>
    2d9b: e0 08        	cpx	#$8
    2d9d: d0 14        	bne	$2db3 <main+0xe20>
    2d9f: a6 4f        	ldx	$4f                     ; 0x4f <kernelEventData+0x4>
    2da1: e0 20        	cpx	#$20
    2da3: f0 16        	beq	$2dbb <main+0xe28>
    2da5: e0 83        	cpx	#$83
    2da7: d0 03        	bne	$2dac <main+0xe19>
    2da9: 4c 49 34     	jmp	$3449 <main+0x14b6>
    2dac: e0 92        	cpx	#$92
    2dae: d0 03        	bne	$2db3 <main+0xe20>
    2db0: 4c a8 34     	jmp	$34a8 <main+0x1515>
    2db3: a5 5f        	lda	$5f                     ; 0x5f <comeRightTrough>
    2db5: 29 01        	and	#$1
    2db7: aa           	tax
    2db8: 4c c3 2b     	jmp	$2bc3 <main+0xc30>
    2dbb: a2 b0        	ldx	#$b0
    2dbd: 8e 80 d5     	stx	$d580                   ; 0xd580 <end_block9+0x4efc>
    2dc0: 9c 81 d5     	stz	$d581                   ; 0xd581 <end_block9+0x4efd>
    2dc3: e8           	inx
    2dc4: e0 b9        	cpx	#$b9
    2dc6: d0 f5        	bne	$2dbd <main+0xe2a>
    2dc8: a2 b0        	ldx	#$b0
    2dca: 8e 82 d5     	stx	$d582                   ; 0xd582 <end_block9+0x4efe>
    2dcd: 9c 81 d5     	stz	$d581                   ; 0xd581 <end_block9+0x4efd>
    2dd0: e8           	inx
    2dd1: e0 b9        	cpx	#$b9
    2dd3: d0 f5        	bne	$2dca <main+0xe37>
    2dd5: ad a0 dd     	lda	$dda0                   ; 0xdda0 <end_block9+0x571c>
    2dd8: 29 02        	and	#$2
    2dda: f0 03        	beq	$2ddf <main+0xe4c>
    2ddc: 4c b0 31     	jmp	$31b0 <main+0x121d>
    2ddf: ae a2 dd     	ldx	$dda2                   ; 0xdda2 <end_block9+0x571e>
    2de2: 86 2b        	stx	$2b                     ; 0x2b <__rc27>
    2de4: ad a3 dd     	lda	$dda3                   ; 0xdda3 <end_block9+0x571f>
    2de7: 29 0f        	and	#$f
    2de9: 85 27        	sta	$27                     ; 0x27 <__rc23>
    2deb: a5 27        	lda	$27                     ; 0x27 <__rc23>
    2ded: d0 07        	bne	$2df6 <main+0xe63>
    2def: a5 2b        	lda	$2b                     ; 0x2b <__rc27>
    2df1: d0 03        	bne	$2df6 <main+0xe63>
    2df3: 4c b0 31     	jmp	$31b0 <main+0x121d>
    2df6: a2 01        	ldx	#$1
    2df8: 86 14        	stx	$14                     ; 0x14 <__rc4>
    2dfa: ca           	dex
    2dfb: a0 00        	ldy	#$0
    2dfd: a5 26        	lda	$26                     ; 0x26 <__rc22>
    2dff: 85 15        	sta	$15                     ; 0x15 <__rc5>
    2e01: ad a1 dd     	lda	$dda1                   ; 0xdda1 <end_block9+0x571d>
    2e04: c9 fe        	cmp	#$fe
    2e06: d0 0b        	bne	$2e13 <main+0xe80>
    2e08: 5a           	phy
    2e09: a0 20        	ldy	#$20
    2e0b: 91 10        	sta	($10),y                 ; 0x10 <__rc0>
    2e0d: 7a           	ply
    2e0e: a5 15        	lda	$15                     ; 0x15 <__rc5>
    2e10: 4c 1e 31     	jmp	$311e <main+0x118b>
    2e13: 85 2e        	sta	$2e                     ; 0x2e <__rc30>
    2e15: 84 26        	sty	$26                     ; 0x26 <__rc22>
    2e17: 86 29        	stx	$29                     ; 0x29 <__rc25>
    2e19: a0 1f        	ldy	#$1f
    2e1b: b1 10        	lda	($10),y                 ; 0x10 <__rc0>
    2e1d: aa           	tax
    2e1e: a4 28        	ldy	$28                     ; 0x28 <__rc24>
    2e20: f0 1f        	beq	$2e41 <main+0xeae>
    2e22: a4 14        	ldy	$14                     ; 0x14 <__rc4>
    2e24: a5 15        	lda	$15                     ; 0x15 <__rc5>
    2e26: e0 01        	cpx	#$1
    2e28: d0 3c        	bne	$2e66 <main+0xed3>
    2e2a: a6 28        	ldx	$28                     ; 0x28 <__rc24>
    2e2c: f0 03        	beq	$2e31 <main+0xe9e>
    2e2e: 4c 8b 2e     	jmp	$2e8b <main+0xef8>
    2e31: 48           	pha
    2e32: 5a           	phy
    2e33: a0 1e        	ldy	#$1e
    2e35: b1 10        	lda	($10),y                 ; 0x10 <__rc0>
    2e37: 7a           	ply
    2e38: aa           	tax
    2e39: 68           	pla
    2e3a: e0 00        	cpx	#$0
    2e3c: d0 4f        	bne	$2e8d <main+0xefa>
    2e3e: 4c d9 31     	jmp	$31d9 <main+0x1246>
    2e41: a0 1e        	ldy	#$1e
    2e43: b1 10        	lda	($10),y                 ; 0x10 <__rc0>
    2e45: 85 12        	sta	$12                     ; 0x12 <__rc2>
    2e47: a5 12        	lda	$12                     ; 0x12 <__rc2>
    2e49: d0 03        	bne	$2e4e <main+0xebb>
    2e4b: 4c b6 2f     	jmp	$2fb6 <main+0x1023>
    2e4e: a4 14        	ldy	$14                     ; 0x14 <__rc4>
    2e50: a5 2e        	lda	$2e                     ; 0x2e <__rc30>
    2e52: 18           	clc
    2e53: 69 ec        	adc	#$ec
    2e55: e0 01        	cpx	#$1
    2e57: f0 03        	beq	$2e5c <main+0xec9>
    2e59: 4c 3c 30     	jmp	$303c <main+0x10a9>
    2e5c: a6 28        	ldx	$28                     ; 0x28 <__rc24>
    2e5e: f0 03        	beq	$2e63 <main+0xed0>
    2e60: 4c 01 32     	jmp	$3201 <main+0x126e>
    2e63: 4c e5 31     	jmp	$31e5 <main+0x1252>
    2e66: e0 01        	cpx	#$1
    2e68: 90 27        	bcc	$2e91 <main+0xefe>
    2e6a: aa           	tax
    2e6b: d0 03        	bne	$2e70 <main+0xedd>
    2e6d: 4c 69 30     	jmp	$3069 <main+0x10d6>
    2e70: a2 00        	ldx	#$0
    2e72: 86 24        	stx	$24                     ; 0x24 <__rc20>
    2e74: 48           	pha
    2e75: b5 35        	lda	$35,x                   ; 0x35 <polyOPL3Buffer>
    2e77: aa           	tax
    2e78: 68           	pla
    2e79: e0 00        	cpx	#$0
    2e7b: d0 03        	bne	$2e80 <main+0xeed>
    2e7d: 4c 33 31     	jmp	$3133 <main+0x11a0>
    2e80: e6 24        	inc	$24                     ; 0x24 <__rc20>
    2e82: a6 24        	ldx	$24                     ; 0x24 <__rc20>
    2e84: e0 12        	cpx	#$12
    2e86: d0 ea        	bne	$2e72 <main+0xedf>
    2e88: 4c 05 31     	jmp	$3105 <main+0x1172>
    2e8b: a6 28        	ldx	$28                     ; 0x28 <__rc24>
    2e8d: e0 00        	cpx	#$0
    2e8f: b0 d9        	bcs	$2e6a <main+0xed7>
    2e91: a2 00        	ldx	#$0
    2e93: b4 35        	ldy	$35,x                   ; 0x35 <polyOPL3Buffer>
    2e95: 85 12        	sta	$12                     ; 0x12 <__rc2>
    2e97: c4 12        	cpy	$12                     ; 0x12 <__rc2>
    2e99: f0 11        	beq	$2eac <main+0xf19>
    2e9b: e8           	inx
    2e9c: e0 12        	cpx	#$12
    2e9e: d0 f3        	bne	$2e93 <main+0xf00>
    2ea0: a6 18        	ldx	$18                     ; 0x18 <__rc8>
    2ea2: 86 24        	stx	$24                     ; 0x24 <__rc20>
    2ea4: a6 19        	ldx	$19                     ; 0x19 <__rc9>
    2ea6: 86 25        	stx	$25                     ; 0x25 <__rc21>
    2ea8: a2 ff        	ldx	#$ff
    2eaa: 80 08        	bra	$2eb4 <main+0xf21>
    2eac: a4 18        	ldy	$18                     ; 0x18 <__rc8>
    2eae: 84 24        	sty	$24                     ; 0x24 <__rc20>
    2eb0: a4 19        	ldy	$19                     ; 0x19 <__rc9>
    2eb2: 84 25        	sty	$25                     ; 0x25 <__rc21>
    2eb4: 86 28        	stx	$28                     ; 0x28 <__rc24>
    2eb6: 85 2f        	sta	$2f                     ; 0x2f <__rc31>
    2eb8: 18           	clc
    2eb9: 69 05        	adc	#$5
    2ebb: a8           	tay
    2ebc: 64 2a        	stz	$2a                     ; 0x2a <__rc26>
    2ebe: a9 00        	lda	#$0
    2ec0: 69 00        	adc	#$0
    2ec2: 18           	clc
    2ec3: 48           	pha
    2ec4: a5 10        	lda	$10                     ; 0x10 <__rc0>
    2ec6: 69 24        	adc	#$24
    2ec8: 85 2c        	sta	$2c                     ; 0x2c <__zp_bss_size>
    2eca: a5 11        	lda	$11                     ; 0x11 <__rc1>
    2ecc: 69 00        	adc	#$0
    2ece: 85 2d        	sta	$2d                     ; 0x2d <__rc29>
    2ed0: 68           	pla
    2ed1: a6 2c        	ldx	$2c                     ; 0x2c <__zp_bss_size>
    2ed3: 86 14        	stx	$14                     ; 0x14 <__rc4>
    2ed5: a6 2d        	ldx	$2d                     ; 0x2d <__rc29>
    2ed7: 86 15        	stx	$15                     ; 0x15 <__rc5>
    2ed9: a2 0c        	ldx	#$c
    2edb: 86 12        	stx	$12                     ; 0x12 <__rc2>
    2edd: 64 13        	stz	$13                     ; 0x13 <__rc3>
    2edf: aa           	tax
    2ee0: 98           	tya
    2ee1: 20 8b 4e     	jsr	$4e8b <__udivmodhi4>
    2ee4: 85 16        	sta	$16                     ; 0x16 <__rc6>
    2ee6: b2 2c        	lda	($2c)                   ; 0x2c <__zp_bss_size>
    2ee8: 85 12        	sta	$12                     ; 0x12 <__rc2>
    2eea: a0 01        	ldy	#$1
    2eec: b1 2c        	lda	($2c),y                 ; 0x2c <__zp_bss_size>
    2eee: 06 12        	asl	$12                     ; 0x12 <__rc2>
    2ef0: 2a           	rol
    2ef1: 85 13        	sta	$13                     ; 0x13 <__rc3>
    2ef3: a9 5a        	lda	#$5a
    2ef5: 18           	clc
    2ef6: 65 12        	adc	$12                     ; 0x12 <__rc2>
    2ef8: 85 14        	sta	$14                     ; 0x14 <__rc4>
    2efa: a9 53        	lda	#$53
    2efc: 65 13        	adc	$13                     ; 0x13 <__rc3>
    2efe: 85 15        	sta	$15                     ; 0x15 <__rc5>
    2f00: a6 28        	ldx	$28                     ; 0x28 <__rc24>
    2f02: e0 09        	cpx	#$9
    2f04: 90 08        	bcc	$2f0e <main+0xf7b>
    2f06: a2 09        	ldx	#$9
    2f08: 84 12        	sty	$12                     ; 0x12 <__rc2>
    2f0a: 86 13        	stx	$13                     ; 0x13 <__rc3>
    2f0c: 80 04        	bra	$2f12 <main+0xf7f>
    2f0e: 64 12        	stz	$12                     ; 0x12 <__rc2>
    2f10: 64 13        	stz	$13                     ; 0x13 <__rc3>
    2f12: b2 14        	lda	($14)                   ; 0x14 <__rc4>
    2f14: 85 1a        	sta	$1a                     ; 0x1a <__rc10>
    2f16: b1 14        	lda	($14),y                 ; 0x14 <__rc4>
    2f18: aa           	tax
    2f19: 18           	clc
    2f1a: a5 16        	lda	$16                     ; 0x16 <__rc6>
    2f1c: 69 3e        	adc	#$3e
    2f1e: 85 16        	sta	$16                     ; 0x16 <__rc6>
    2f20: a5 28        	lda	$28                     ; 0x28 <__rc24>
    2f22: 38           	sec
    2f23: e5 13        	sbc	$13                     ; 0x13 <__rc3>
    2f25: a8           	tay
    2f26: a9 00        	lda	#$0
    2f28: e5 2a        	sbc	$2a                     ; 0x2a <__rc26>
    2f2a: 05 12        	ora	$12                     ; 0x12 <__rc2>
    2f2c: 85 12        	sta	$12                     ; 0x12 <__rc2>
    2f2e: 98           	tya
    2f2f: 09 a0        	ora	#$a0
    2f31: 85 1b        	sta	$1b                     ; 0x1b <__rc11>
    2f33: a5 12        	lda	$12                     ; 0x12 <__rc2>
    2f35: 5a           	phy
    2f36: a4 24        	ldy	$24                     ; 0x24 <__rc20>
    2f38: 84 18        	sty	$18                     ; 0x18 <__rc8>
    2f3a: a4 25        	ldy	$25                     ; 0x25 <__rc21>
    2f3c: 84 19        	sty	$19                     ; 0x19 <__rc9>
    2f3e: 7a           	ply
    2f3f: c9 01        	cmp	#$1
    2f41: d0 06        	bne	$2f49 <main+0xfb6>
    2f43: 84 17        	sty	$17                     ; 0x17 <__rc7>
    2f45: c0 00        	cpy	#$0
    2f47: 80 04        	bra	$2f4d <main+0xfba>
    2f49: 84 17        	sty	$17                     ; 0x17 <__rc7>
    2f4b: c9 01        	cmp	#$1
    2f4d: a0 1c        	ldy	#$1c
    2f4f: b1 10        	lda	($10),y                 ; 0x10 <__rc0>
    2f51: 85 12        	sta	$12                     ; 0x12 <__rc2>
    2f53: c8           	iny
    2f54: b1 10        	lda	($10),y                 ; 0x10 <__rc0>
    2f56: 85 13        	sta	$13                     ; 0x13 <__rc3>
    2f58: a4 26        	ldy	$26                     ; 0x26 <__rc22>
    2f5a: 90 0d        	bcc	$2f69 <main+0xfd6>
    2f5c: 5a           	phy
    2f5d: a0 1a        	ldy	#$1a
    2f5f: b1 10        	lda	($10),y                 ; 0x10 <__rc0>
    2f61: 85 12        	sta	$12                     ; 0x12 <__rc2>
    2f63: c8           	iny
    2f64: b1 10        	lda	($10),y                 ; 0x10 <__rc0>
    2f66: 7a           	ply
    2f67: 85 13        	sta	$13                     ; 0x13 <__rc3>
    2f69: a5 1b        	lda	$1b                     ; 0x1b <__rc11>
    2f6b: 92 12        	sta	($12)                   ; 0x12 <__rc2>
    2f6d: a5 1a        	lda	$1a                     ; 0x1a <__rc10>
    2f6f: 8d 81 d5     	sta	$d581                   ; 0xd581 <end_block9+0x4efd>
    2f72: 8a           	txa
    2f73: 29 03        	and	#$3
    2f75: 85 14        	sta	$14                     ; 0x14 <__rc4>
    2f77: a5 16        	lda	$16                     ; 0x16 <__rc6>
    2f79: 0a           	asl
    2f7a: 0a           	asl
    2f7b: 05 14        	ora	$14                     ; 0x14 <__rc4>
    2f7d: aa           	tax
    2f7e: a5 17        	lda	$17                     ; 0x17 <__rc7>
    2f80: 09 b0        	ora	#$b0
    2f82: 92 12        	sta	($12)                   ; 0x12 <__rc2>
    2f84: 8e 81 d5     	stx	$d581                   ; 0xd581 <end_block9+0x4efd>
    2f87: a5 28        	lda	$28                     ; 0x28 <__rc24>
    2f89: 10 06        	bpl	$2f91 <main+0xffe>
    2f8b: a2 ff        	ldx	#$ff
    2f8d: 86 12        	stx	$12                     ; 0x12 <__rc2>
    2f8f: 80 02        	bra	$2f93 <main+0x1000>
    2f91: 64 12        	stz	$12                     ; 0x12 <__rc2>
    2f93: a2 01        	ldx	#$1
    2f95: 86 14        	stx	$14                     ; 0x14 <__rc4>
    2f97: a9 35        	lda	#$35
    2f99: 18           	clc
    2f9a: 65 28        	adc	$28                     ; 0x28 <__rc24>
    2f9c: aa           	tax
    2f9d: a9 00        	lda	#$0
    2f9f: 65 12        	adc	$12                     ; 0x12 <__rc2>
    2fa1: 86 12        	stx	$12                     ; 0x12 <__rc2>
    2fa3: 85 13        	sta	$13                     ; 0x13 <__rc3>
    2fa5: a9 00        	lda	#$0
    2fa7: 92 12        	sta	($12)                   ; 0x12 <__rc2>
    2fa9: a6 34        	ldx	$34                     ; 0x34 <chipAct.0>
    2fab: d0 03        	bne	$2fb0 <main+0x101d>
    2fad: 4c 80 30     	jmp	$3080 <main+0x10ed>
    2fb0: ca           	dex
    2fb1: a5 2f        	lda	$2f                     ; 0x2f <__rc31>
    2fb3: 4c 0e 31     	jmp	$310e <main+0x117b>
    2fb6: a5 2e        	lda	$2e                     ; 0x2e <__rc30>
    2fb8: 29 f0        	and	#$f0
    2fba: c9 80        	cmp	#$80
    2fbc: d0 03        	bne	$2fc1 <main+0x102e>
    2fbe: 4c 53 32     	jmp	$3253 <main+0x12c0>
    2fc1: a4 26        	ldy	$26                     ; 0x26 <__rc22>
    2fc3: c9 90        	cmp	#$90
    2fc5: f0 03        	beq	$2fca <main+0x1037>
    2fc7: 4c 72 32     	jmp	$3272 <main+0x12df>
    2fca: 4c 38 32     	jmp	$3238 <main+0x12a5>
    2fcd: e0 00        	cpx	#$0
    2fcf: b0 03        	bcs	$2fd4 <main+0x1041>
    2fd1: 4c 43 30     	jmp	$3043 <main+0x10b0>
    2fd4: a6 01        	ldx	$1                      ; 0x1 <__data_size+0x1>
    2fd6: 84 01        	sty	$1                      ; 0x1 <__data_size+0x1>
    2fd8: 64 12        	stz	$12                     ; 0x12 <__rc2>
    2fda: a0 ff        	ldy	#$ff
    2fdc: 64 15        	stz	$15                     ; 0x15 <__rc5>
    2fde: 80 12        	bra	$2ff2 <main+0x105f>
    2fe0: 06 13        	asl	$13                     ; 0x13 <__rc3>
    2fe2: 86 13        	stx	$13                     ; 0x13 <__rc3>
    2fe4: 26 13        	rol	$13                     ; 0x13 <__rc3>
    2fe6: a6 01        	ldx	$1                      ; 0x1 <__data_size+0x1>
    2fe8: 84 01        	sty	$1                      ; 0x1 <__data_size+0x1>
    2fea: a4 13        	ldy	$13                     ; 0x13 <__rc3>
    2fec: 48           	pha
    2fed: a5 13        	lda	$13                     ; 0x13 <__rc3>
    2fef: 85 15        	sta	$15                     ; 0x15 <__rc5>
    2ff1: 68           	pla
    2ff2: 0a           	asl
    2ff3: 26 12        	rol	$12                     ; 0x12 <__rc2>
    2ff5: 0a           	asl
    2ff6: 85 13        	sta	$13                     ; 0x13 <__rc3>
    2ff8: 26 12        	rol	$12                     ; 0x12 <__rc2>
    2ffa: a9 00        	lda	#$0
    2ffc: 18           	clc
    2ffd: 65 13        	adc	$13                     ; 0x13 <__rc3>
    2fff: 85 13        	sta	$13                     ; 0x13 <__rc3>
    3001: a9 d0        	lda	#$d0
    3003: 65 12        	adc	$12                     ; 0x12 <__rc2>
    3005: 5a           	phy
    3006: a4 13        	ldy	$13                     ; 0x13 <__rc3>
    3008: 84 12        	sty	$12                     ; 0x12 <__rc2>
    300a: 7a           	ply
    300b: 85 13        	sta	$13                     ; 0x13 <__rc3>
    300d: 98           	tya
    300e: 92 12        	sta	($12)                   ; 0x12 <__rc2>
    3010: 84 16        	sty	$16                     ; 0x16 <__rc6>
    3012: a0 01        	ldy	#$1
    3014: 84 14        	sty	$14                     ; 0x14 <__rc4>
    3016: a5 15        	lda	$15                     ; 0x15 <__rc5>
    3018: 91 12        	sta	($12),y                 ; 0x12 <__rc2>
    301a: c8           	iny
    301b: a5 16        	lda	$16                     ; 0x16 <__rc6>
    301d: 91 12        	sta	($12),y                 ; 0x12 <__rc2>
    301f: c8           	iny
    3020: a9 ff        	lda	#$ff
    3022: 91 12        	sta	($12),y                 ; 0x12 <__rc2>
    3024: 86 01        	stx	$1                      ; 0x1 <__data_size+0x1>
    3026: a5 2e        	lda	$2e                     ; 0x2e <__rc30>
    3028: 48           	pha
    3029: a0 20        	ldy	#$20
    302b: 91 10        	sta	($10),y                 ; 0x10 <__rc0>
    302d: 64 12        	stz	$12                     ; 0x12 <__rc2>
    302f: a9 00        	lda	#$0
    3031: a0 1e        	ldy	#$1e
    3033: 91 10        	sta	($10),y                 ; 0x10 <__rc0>
    3035: 68           	pla
    3036: a2 01        	ldx	#$1
    3038: 86 28        	stx	$28                     ; 0x28 <__rc24>
    303a: 80 3d        	bra	$3079 <main+0x10e6>
    303c: e0 01        	cpx	#$1
    303e: 90 03        	bcc	$3043 <main+0x10b0>
    3040: 4c d4 2f     	jmp	$2fd4 <main+0x1041>
    3043: aa           	tax
    3044: 64 12        	stz	$12                     ; 0x12 <__rc2>
    3046: 48           	pha
    3047: bd 01 53     	lda	$5301,x                 ; 0x5301 <__set_v+0x32f>
    304a: aa           	tax
    304b: 68           	pla
    304c: 86 13        	stx	$13                     ; 0x13 <__rc3>
    304e: a2 00        	ldx	#$0
    3050: e6 13        	inc	$13                     ; 0x13 <__rc3>
    3052: c6 13        	dec	$13                     ; 0x13 <__rc3>
    3054: f0 03        	beq	$3059 <main+0x10c6>
    3056: 4c 06 32     	jmp	$3206 <main+0x1273>
    3059: 86 13        	stx	$13                     ; 0x13 <__rc3>
    305b: 46 13        	lsr	$13                     ; 0x13 <__rc3>
    305d: 64 13        	stz	$13                     ; 0x13 <__rc3>
    305f: 66 13        	ror	$13                     ; 0x13 <__rc3>
    3061: 30 03        	bmi	$3066 <main+0x10d3>
    3063: 4c 10 32     	jmp	$3210 <main+0x127d>
    3066: 4c 0b 32     	jmp	$320b <main+0x1278>
    3069: a2 01        	ldx	#$1
    306b: 86 14        	stx	$14                     ; 0x14 <__rc4>
    306d: a9 00        	lda	#$0
    306f: 48           	pha
    3070: a5 2e        	lda	$2e                     ; 0x2e <__rc30>
    3072: a0 20        	ldy	#$20
    3074: 91 10        	sta	($10),y                 ; 0x10 <__rc0>
    3076: 68           	pla
    3077: 64 28        	stz	$28                     ; 0x28 <__rc24>
    3079: a6 29        	ldx	$29                     ; 0x29 <__rc25>
    307b: a4 26        	ldy	$26                     ; 0x26 <__rc22>
    307d: 4c 1e 31     	jmp	$311e <main+0x118b>
    3080: a5 2e        	lda	$2e                     ; 0x2e <__rc30>
    3082: 5a           	phy
    3083: a0 20        	ldy	#$20
    3085: 91 10        	sta	($10),y                 ; 0x10 <__rc0>
    3087: 7a           	ply
    3088: 64 28        	stz	$28                     ; 0x28 <__rc24>
    308a: a5 2f        	lda	$2f                     ; 0x2f <__rc31>
    308c: 4c 1c 31     	jmp	$311c <main+0x1189>
    308f: b2 14        	lda	($14)                   ; 0x14 <__rc4>
    3091: 85 1a        	sta	$1a                     ; 0x1a <__rc10>
    3093: b1 14        	lda	($14),y                 ; 0x14 <__rc4>
    3095: a8           	tay
    3096: 18           	clc
    3097: a5 17        	lda	$17                     ; 0x17 <__rc7>
    3099: 69 3e        	adc	#$3e
    309b: 85 16        	sta	$16                     ; 0x16 <__rc6>
    309d: 8a           	txa
    309e: 38           	sec
    309f: e5 13        	sbc	$13                     ; 0x13 <__rc3>
    30a1: 85 14        	sta	$14                     ; 0x14 <__rc4>
    30a3: a9 00        	lda	#$0
    30a5: e5 2a        	sbc	$2a                     ; 0x2a <__rc26>
    30a7: 05 12        	ora	$12                     ; 0x12 <__rc2>
    30a9: 85 12        	sta	$12                     ; 0x12 <__rc2>
    30ab: a5 14        	lda	$14                     ; 0x14 <__rc4>
    30ad: 85 17        	sta	$17                     ; 0x17 <__rc7>
    30af: 09 a0        	ora	#$a0
    30b1: 85 1b        	sta	$1b                     ; 0x1b <__rc11>
    30b3: a5 12        	lda	$12                     ; 0x12 <__rc2>
    30b5: 48           	pha
    30b6: 5a           	phy
    30b7: a0 20        	ldy	#$20
    30b9: b1 10        	lda	($10),y                 ; 0x10 <__rc0>
    30bb: 85 18        	sta	$18                     ; 0x18 <__rc8>
    30bd: c8           	iny
    30be: b1 10        	lda	($10),y                 ; 0x10 <__rc0>
    30c0: 7a           	ply
    30c1: 85 19        	sta	$19                     ; 0x19 <__rc9>
    30c3: 68           	pla
    30c4: c9 01        	cmp	#$1
    30c6: f0 03        	beq	$30cb <main+0x1138>
    30c8: 4c 1c 32     	jmp	$321c <main+0x1289>
    30cb: 4c 15 32     	jmp	$3215 <main+0x1282>
    30ce: 5a           	phy
    30cf: a0 1c        	ldy	#$1c
    30d1: b1 10        	lda	($10),y                 ; 0x10 <__rc0>
    30d3: 85 12        	sta	$12                     ; 0x12 <__rc2>
    30d5: c8           	iny
    30d6: b1 10        	lda	($10),y                 ; 0x10 <__rc0>
    30d8: 7a           	ply
    30d9: 85 13        	sta	$13                     ; 0x13 <__rc3>
    30db: 90 03        	bcc	$30e0 <main+0x114d>
    30dd: 4c 21 32     	jmp	$3221 <main+0x128e>
    30e0: a5 1b        	lda	$1b                     ; 0x1b <__rc11>
    30e2: 92 12        	sta	($12)                   ; 0x12 <__rc2>
    30e4: a5 1a        	lda	$1a                     ; 0x1a <__rc10>
    30e6: 8d 81 d5     	sta	$d581                   ; 0xd581 <end_block9+0x4efd>
    30e9: 98           	tya
    30ea: 29 03        	and	#$3
    30ec: 85 14        	sta	$14                     ; 0x14 <__rc4>
    30ee: 06 16        	asl	$16                     ; 0x16 <__rc6>
    30f0: a5 17        	lda	$17                     ; 0x17 <__rc7>
    30f2: 09 b0        	ora	#$b0
    30f4: 92 12        	sta	($12)                   ; 0x12 <__rc2>
    30f6: a5 16        	lda	$16                     ; 0x16 <__rc6>
    30f8: 0a           	asl
    30f9: 05 14        	ora	$14                     ; 0x14 <__rc4>
    30fb: 09 20        	ora	#$20
    30fd: 8d 81 d5     	sta	$d581                   ; 0xd581 <end_block9+0x4efd>
    3100: a5 2f        	lda	$2f                     ; 0x2f <__rc31>
    3102: 9d 35 00     	sta	$35,x                   ; 0x35 <polyOPL3Buffer>
    3105: a2 01        	ldx	#$1
    3107: 86 14        	stx	$14                     ; 0x14 <__rc4>
    3109: a6 34        	ldx	$34                     ; 0x34 <chipAct.0>
    310b: e8           	inx
    310c: a4 26        	ldy	$26                     ; 0x26 <__rc22>
    310e: 86 34        	stx	$34                     ; 0x34 <chipAct.0>
    3110: 48           	pha
    3111: a5 2e        	lda	$2e                     ; 0x2e <__rc30>
    3113: 5a           	phy
    3114: a0 20        	ldy	#$20
    3116: 91 10        	sta	($10),y                 ; 0x10 <__rc0>
    3118: 7a           	ply
    3119: 68           	pla
    311a: 64 28        	stz	$28                     ; 0x28 <__rc24>
    311c: a6 29        	ldx	$29                     ; 0x29 <__rc25>
    311e: e8           	inx
    311f: d0 01        	bne	$3122 <main+0x118f>
    3121: c8           	iny
    3122: c4 27        	cpy	$27                     ; 0x27 <__rc23>
    3124: f0 03        	beq	$3129 <main+0x1196>
    3126: 4c ff 2d     	jmp	$2dff <main+0xe6c>
    3129: e4 2b        	cpx	$2b                     ; 0x2b <__rc27>
    312b: f0 03        	beq	$3130 <main+0x119d>
    312d: 4c ff 2d     	jmp	$2dff <main+0xe6c>
    3130: 4c ac 31     	jmp	$31ac <main+0x1219>
    3133: 48           	pha
    3134: 5a           	phy
    3135: a5 18        	lda	$18                     ; 0x18 <__rc8>
    3137: a0 20        	ldy	#$20
    3139: 91 10        	sta	($10),y                 ; 0x10 <__rc0>
    313b: a5 19        	lda	$19                     ; 0x19 <__rc9>
    313d: c8           	iny
    313e: 91 10        	sta	($10),y                 ; 0x10 <__rc0>
    3140: 7a           	ply
    3141: 68           	pla
    3142: 85 2f        	sta	$2f                     ; 0x2f <__rc31>
    3144: 18           	clc
    3145: 69 05        	adc	#$5
    3147: 85 16        	sta	$16                     ; 0x16 <__rc6>
    3149: 64 2a        	stz	$2a                     ; 0x2a <__rc26>
    314b: a9 00        	lda	#$0
    314d: 69 00        	adc	#$0
    314f: 18           	clc
    3150: 48           	pha
    3151: a5 10        	lda	$10                     ; 0x10 <__rc0>
    3153: 69 22        	adc	#$22
    3155: 85 2c        	sta	$2c                     ; 0x2c <__zp_bss_size>
    3157: a5 11        	lda	$11                     ; 0x11 <__rc1>
    3159: 69 00        	adc	#$0
    315b: 85 2d        	sta	$2d                     ; 0x2d <__rc29>
    315d: 68           	pla
    315e: a6 2c        	ldx	$2c                     ; 0x2c <__zp_bss_size>
    3160: 86 14        	stx	$14                     ; 0x14 <__rc4>
    3162: a6 2d        	ldx	$2d                     ; 0x2d <__rc29>
    3164: 86 15        	stx	$15                     ; 0x15 <__rc5>
    3166: a2 0c        	ldx	#$c
    3168: 86 12        	stx	$12                     ; 0x12 <__rc2>
    316a: 64 13        	stz	$13                     ; 0x13 <__rc3>
    316c: aa           	tax
    316d: a5 16        	lda	$16                     ; 0x16 <__rc6>
    316f: 84 28        	sty	$28                     ; 0x28 <__rc24>
    3171: 20 8b 4e     	jsr	$4e8b <__udivmodhi4>
    3174: a4 28        	ldy	$28                     ; 0x28 <__rc24>
    3176: 85 17        	sta	$17                     ; 0x17 <__rc7>
    3178: b2 2c        	lda	($2c)                   ; 0x2c <__zp_bss_size>
    317a: 85 12        	sta	$12                     ; 0x12 <__rc2>
    317c: b1 2c        	lda	($2c),y                 ; 0x2c <__zp_bss_size>
    317e: 06 12        	asl	$12                     ; 0x12 <__rc2>
    3180: 2a           	rol
    3181: 85 13        	sta	$13                     ; 0x13 <__rc3>
    3183: a9 5a        	lda	#$5a
    3185: 18           	clc
    3186: 65 12        	adc	$12                     ; 0x12 <__rc2>
    3188: 85 14        	sta	$14                     ; 0x14 <__rc4>
    318a: a9 53        	lda	#$53
    318c: 65 13        	adc	$13                     ; 0x13 <__rc3>
    318e: 85 15        	sta	$15                     ; 0x15 <__rc5>
    3190: a6 24        	ldx	$24                     ; 0x24 <__rc20>
    3192: e0 09        	cpx	#$9
    3194: b0 03        	bcs	$3199 <main+0x1206>
    3196: 4c 31 32     	jmp	$3231 <main+0x129e>
    3199: 86 16        	stx	$16                     ; 0x16 <__rc6>
    319b: a2 09        	ldx	#$9
    319d: 84 13        	sty	$13                     ; 0x13 <__rc3>
    319f: a0 01        	ldy	#$1
    31a1: 84 12        	sty	$12                     ; 0x12 <__rc2>
    31a3: a4 13        	ldy	$13                     ; 0x13 <__rc3>
    31a5: 86 13        	stx	$13                     ; 0x13 <__rc3>
    31a7: a6 16        	ldx	$16                     ; 0x16 <__rc6>
    31a9: 4c 8f 30     	jmp	$308f <main+0x10fc>
    31ac: 85 26        	sta	$26                     ; 0x26 <__rc22>
    31ae: a4 14        	ldy	$14                     ; 0x14 <__rc4>
    31b0: 64 4b        	stz	$4b                     ; 0x4b <kernelEventData>
    31b2: a2 52        	ldx	#$52
    31b4: 86 12        	stx	$12                     ; 0x12 <__rc2>
    31b6: a2 00        	ldx	#$0
    31b8: 86 13        	stx	$13                     ; 0x13 <__rc3>
    31ba: 20 00 ff     	jsr	$ff00 <end_block9+0x787c>
    31bd: 92 18        	sta	($18)                   ; 0x18 <__rc8>
    31bf: a9 00        	lda	#$0
    31c1: 6a           	ror
    31c2: 85 12        	sta	$12                     ; 0x12 <__rc2>
    31c4: a6 4b        	ldx	$4b                     ; 0x4b <kernelEventData>
    31c6: e0 08        	cpx	#$8
    31c8: f0 03        	beq	$31cd <main+0x123a>
    31ca: 4c d5 2d     	jmp	$2dd5 <main+0xe42>
    31cd: a6 4f        	ldx	$4f                     ; 0x4f <kernelEventData+0x4>
    31cf: e0 20        	cpx	#$20
    31d1: f0 03        	beq	$31d6 <main+0x1243>
    31d3: 4c d5 2d     	jmp	$2dd5 <main+0xe42>
    31d6: 4c b3 2d     	jmp	$2db3 <main+0xe20>
    31d9: 48           	pha
    31da: 5a           	phy
    31db: a0 20        	ldy	#$20
    31dd: b1 10        	lda	($10),y                 ; 0x10 <__rc0>
    31df: 7a           	ply
    31e0: aa           	tax
    31e1: 68           	pla
    31e2: 4c 8d 2e     	jmp	$2e8d <main+0xefa>
    31e5: 48           	pha
    31e6: 5a           	phy
    31e7: a0 1e        	ldy	#$1e
    31e9: b1 10        	lda	($10),y                 ; 0x10 <__rc0>
    31eb: 7a           	ply
    31ec: aa           	tax
    31ed: 68           	pla
    31ee: e0 00        	cpx	#$0
    31f0: f0 03        	beq	$31f5 <main+0x1262>
    31f2: 4c cd 2f     	jmp	$2fcd <main+0x103a>
    31f5: 48           	pha
    31f6: 5a           	phy
    31f7: a0 20        	ldy	#$20
    31f9: b1 10        	lda	($10),y                 ; 0x10 <__rc0>
    31fb: 7a           	ply
    31fc: aa           	tax
    31fd: 68           	pla
    31fe: 4c cd 2f     	jmp	$2fcd <main+0x103a>
    3201: a6 28        	ldx	$28                     ; 0x28 <__rc24>
    3203: 4c cd 2f     	jmp	$2fcd <main+0x103a>
    3206: a2 01        	ldx	#$1
    3208: 4c 59 30     	jmp	$3059 <main+0x10c6>
    320b: a2 ff        	ldx	#$ff
    320d: 4c e0 2f     	jmp	$2fe0 <main+0x104d>
    3210: a2 00        	ldx	#$0
    3212: 4c e0 2f     	jmp	$2fe0 <main+0x104d>
    3215: a5 17        	lda	$17                     ; 0x17 <__rc7>
    3217: c9 00        	cmp	#$0
    3219: 4c ce 30     	jmp	$30ce <main+0x113b>
    321c: c9 01        	cmp	#$1
    321e: 4c ce 30     	jmp	$30ce <main+0x113b>
    3221: 5a           	phy
    3222: a0 1a        	ldy	#$1a
    3224: b1 10        	lda	($10),y                 ; 0x10 <__rc0>
    3226: 85 12        	sta	$12                     ; 0x12 <__rc2>
    3228: c8           	iny
    3229: b1 10        	lda	($10),y                 ; 0x10 <__rc0>
    322b: 7a           	ply
    322c: 85 13        	sta	$13                     ; 0x13 <__rc3>
    322e: 4c e0 30     	jmp	$30e0 <main+0x114d>
    3231: 64 12        	stz	$12                     ; 0x12 <__rc2>
    3233: 64 13        	stz	$13                     ; 0x13 <__rc3>
    3235: 4c 8f 30     	jmp	$308f <main+0x10fc>
    3238: a2 01        	ldx	#$1
    323a: 86 14        	stx	$14                     ; 0x14 <__rc4>
    323c: 5a           	phy
    323d: 8a           	txa
    323e: a0 1e        	ldy	#$1e
    3240: 91 10        	sta	($10),y                 ; 0x10 <__rc0>
    3242: a5 2e        	lda	$2e                     ; 0x2e <__rc30>
    3244: a0 17        	ldy	#$17
    3246: 91 10        	sta	($10),y                 ; 0x10 <__rc0>
    3248: a0 20        	ldy	#$20
    324a: 91 10        	sta	($10),y                 ; 0x10 <__rc0>
    324c: 64 28        	stz	$28                     ; 0x28 <__rc24>
    324e: 8a           	txa
    324f: 88           	dey
    3250: 4c a4 32     	jmp	$32a4 <main+0x1311>
    3253: a2 01        	ldx	#$1
    3255: 86 14        	stx	$14                     ; 0x14 <__rc4>
    3257: 8a           	txa
    3258: 91 10        	sta	($10),y                 ; 0x10 <__rc0>
    325a: a5 2e        	lda	$2e                     ; 0x2e <__rc30>
    325c: a0 17        	ldy	#$17
    325e: 91 10        	sta	($10),y                 ; 0x10 <__rc0>
    3260: a0 20        	ldy	#$20
    3262: 91 10        	sta	($10),y                 ; 0x10 <__rc0>
    3264: 64 28        	stz	$28                     ; 0x28 <__rc24>
    3266: 64 12        	stz	$12                     ; 0x12 <__rc2>
    3268: a9 00        	lda	#$0
    326a: 88           	dey
    326b: 91 10        	sta	($10),y                 ; 0x10 <__rc0>
    326d: a5 15        	lda	$15                     ; 0x15 <__rc5>
    326f: 4c 79 30     	jmp	$3079 <main+0x10e6>
    3272: a5 2e        	lda	$2e                     ; 0x2e <__rc30>
    3274: 30 25        	bmi	$329b <main+0x1308>
    3276: 5a           	phy
    3277: a0 17        	ldy	#$17
    3279: b1 10        	lda	($10),y                 ; 0x10 <__rc0>
    327b: 7a           	ply
    327c: 29 f0        	and	#$f0
    327e: c9 80        	cmp	#$80
    3280: f0 2a        	beq	$32ac <main+0x1319>
    3282: a2 01        	ldx	#$1
    3284: 86 14        	stx	$14                     ; 0x14 <__rc4>
    3286: c9 90        	cmp	#$90
    3288: f0 26        	beq	$32b0 <main+0x131d>
    328a: a5 28        	lda	$28                     ; 0x28 <__rc24>
    328c: 09 01        	ora	#$1
    328e: 85 28        	sta	$28                     ; 0x28 <__rc24>
    3290: a5 2e        	lda	$2e                     ; 0x2e <__rc30>
    3292: 48           	pha
    3293: 5a           	phy
    3294: a0 20        	ldy	#$20
    3296: 91 10        	sta	($10),y                 ; 0x10 <__rc0>
    3298: 7a           	ply
    3299: 80 32        	bra	$32cd <main+0x133a>
    329b: a5 2e        	lda	$2e                     ; 0x2e <__rc30>
    329d: a2 01        	ldx	#$1
    329f: 86 14        	stx	$14                     ; 0x14 <__rc4>
    32a1: 5a           	phy
    32a2: a0 20        	ldy	#$20
    32a4: 91 10        	sta	($10),y                 ; 0x10 <__rc0>
    32a6: 7a           	ply
    32a7: a5 15        	lda	$15                     ; 0x15 <__rc5>
    32a9: 4c 1c 31     	jmp	$311c <main+0x1189>
    32ac: a2 01        	ldx	#$1
    32ae: 86 14        	stx	$14                     ; 0x14 <__rc4>
    32b0: a5 2e        	lda	$2e                     ; 0x2e <__rc30>
    32b2: 29 7f        	and	#$7f
    32b4: 84 21        	sty	$21                     ; 0x21 <__rc17>
    32b6: a0 20        	ldy	#$20
    32b8: 91 10        	sta	($10),y                 ; 0x10 <__rc0>
    32ba: a5 2e        	lda	$2e                     ; 0x2e <__rc30>
    32bc: 64 12        	stz	$12                     ; 0x12 <__rc2>
    32be: 48           	pha
    32bf: a9 00        	lda	#$0
    32c1: a0 1e        	ldy	#$1e
    32c3: 91 10        	sta	($10),y                 ; 0x10 <__rc0>
    32c5: 86 28        	stx	$28                     ; 0x28 <__rc24>
    32c7: 8a           	txa
    32c8: c8           	iny
    32c9: 91 10        	sta	($10),y                 ; 0x10 <__rc0>
    32cb: a4 21        	ldy	$21                     ; 0x21 <__rc17>
    32cd: 68           	pla
    32ce: 4c 1c 31     	jmp	$311c <main+0x1189>
    32d1: a6 13        	ldx	$13                     ; 0x13 <__rc3>
    32d3: e0 00        	cpx	#$0
    32d5: b0 03        	bcs	$32da <main+0x1347>
    32d7: 4c c5 2c     	jmp	$2cc5 <main+0xd32>
    32da: 4c ed 2c     	jmp	$2ced <main+0xd5a>
    32dd: 18           	clc
    32de: 8a           	txa
    32df: 69 30        	adc	#$30
    32e1: c9 07        	cmp	#$7
    32e3: 90 03        	bcc	$32e8 <main+0x1355>
    32e5: 4c 83 2d     	jmp	$2d83 <main+0xdf0>
    32e8: a6 24        	ldx	$24                     ; 0x24 <__rc20>
    32ea: 86 12        	stx	$12                     ; 0x12 <__rc2>
    32ec: a6 25        	ldx	$25                     ; 0x25 <__rc21>
    32ee: 86 13        	stx	$13                     ; 0x13 <__rc3>
    32f0: 5a           	phy
    32f1: a0 18        	ldy	#$18
    32f3: b1 10        	lda	($10),y                 ; 0x10 <__rc0>
    32f5: 85 2a        	sta	$2a                     ; 0x2a <__rc26>
    32f7: c8           	iny
    32f8: b1 10        	lda	($10),y                 ; 0x10 <__rc0>
    32fa: 7a           	ply
    32fb: 85 2b        	sta	$2b                     ; 0x2b <__rc27>
    32fd: a6 2a        	ldx	$2a                     ; 0x2a <__rc26>
    32ff: 86 14        	stx	$14                     ; 0x14 <__rc4>
    3301: 85 15        	sta	$15                     ; 0x15 <__rc5>
    3303: a2 00        	ldx	#$0
    3305: 98           	tya
    3306: 84 27        	sty	$27                     ; 0x27 <__rc23>
    3308: 20 44 39     	jsr	$3944 <fileRead>
    330b: a6 24        	ldx	$24                     ; 0x24 <__rc20>
    330d: 86 12        	stx	$12                     ; 0x12 <__rc2>
    330f: a6 25        	ldx	$25                     ; 0x25 <__rc21>
    3311: 86 13        	stx	$13                     ; 0x13 <__rc3>
    3313: a6 2a        	ldx	$2a                     ; 0x2a <__rc26>
    3315: 86 14        	stx	$14                     ; 0x14 <__rc4>
    3317: a6 2b        	ldx	$2b                     ; 0x2b <__rc27>
    3319: 86 15        	stx	$15                     ; 0x15 <__rc5>
    331b: a2 00        	ldx	#$0
    331d: a5 27        	lda	$27                     ; 0x27 <__rc23>
    331f: 4c 5f 2d     	jmp	$2d5f <main+0xdcc>
    3322: a6 24        	ldx	$24                     ; 0x24 <__rc20>
    3324: 86 12        	stx	$12                     ; 0x12 <__rc2>
    3326: a6 25        	ldx	$25                     ; 0x25 <__rc21>
    3328: 86 13        	stx	$13                     ; 0x13 <__rc3>
    332a: 5a           	phy
    332b: a0 18        	ldy	#$18
    332d: b1 10        	lda	($10),y                 ; 0x10 <__rc0>
    332f: 85 14        	sta	$14                     ; 0x14 <__rc4>
    3331: c8           	iny
    3332: b1 10        	lda	($10),y                 ; 0x10 <__rc0>
    3334: 7a           	ply
    3335: 85 15        	sta	$15                     ; 0x15 <__rc5>
    3337: a2 00        	ldx	#$0
    3339: a9 02        	lda	#$2
    333b: 84 27        	sty	$27                     ; 0x27 <__rc23>
    333d: 20 44 39     	jsr	$3944 <fileRead>
    3340: a6 24        	ldx	$24                     ; 0x24 <__rc20>
    3342: 86 18        	stx	$18                     ; 0x18 <__rc8>
    3344: a6 25        	ldx	$25                     ; 0x25 <__rc21>
    3346: 86 19        	stx	$19                     ; 0x19 <__rc9>
    3348: a4 27        	ldy	$27                     ; 0x27 <__rc23>
    334a: b2 24        	lda	($24)                   ; 0x24 <__rc20>
    334c: 85 13        	sta	$13                     ; 0x13 <__rc3>
    334e: b1 24        	lda	($24),y                 ; 0x24 <__rc20>
    3350: a6 13        	ldx	$13                     ; 0x13 <__rc3>
    3352: 8e 80 d5     	stx	$d580                   ; 0xd580 <end_block9+0x4efc>
    3355: 4c 23 34     	jmp	$3423 <main+0x1490>
    3358: e0 a0        	cpx	#$a0
    335a: d0 03        	bne	$335f <main+0x13cc>
    335c: 4c 3f 2d     	jmp	$2d3f <main+0xdac>
    335f: 4c 83 2d     	jmp	$2d83 <main+0xdf0>
    3362: a6 2c        	ldx	$2c                     ; 0x2c <__zp_bss_size>
    3364: 86 12        	stx	$12                     ; 0x12 <__rc2>
    3366: a6 2d        	ldx	$2d                     ; 0x2d <__rc29>
    3368: 86 13        	stx	$13                     ; 0x13 <__rc3>
    336a: 5a           	phy
    336b: a0 18        	ldy	#$18
    336d: b1 10        	lda	($10),y                 ; 0x10 <__rc0>
    336f: 85 2e        	sta	$2e                     ; 0x2e <__rc30>
    3371: c8           	iny
    3372: b1 10        	lda	($10),y                 ; 0x10 <__rc0>
    3374: 7a           	ply
    3375: 85 2f        	sta	$2f                     ; 0x2f <__rc31>
    3377: a6 2e        	ldx	$2e                     ; 0x2e <__rc30>
    3379: 86 14        	stx	$14                     ; 0x14 <__rc4>
    337b: 85 15        	sta	$15                     ; 0x15 <__rc5>
    337d: a2 00        	ldx	#$0
    337f: 98           	tya
    3380: 84 27        	sty	$27                     ; 0x27 <__rc23>
    3382: 20 44 39     	jsr	$3944 <fileRead>
    3385: a6 2a        	ldx	$2a                     ; 0x2a <__rc26>
    3387: 86 12        	stx	$12                     ; 0x12 <__rc2>
    3389: a6 2b        	ldx	$2b                     ; 0x2b <__rc27>
    338b: 86 13        	stx	$13                     ; 0x13 <__rc3>
    338d: a6 2e        	ldx	$2e                     ; 0x2e <__rc30>
    338f: 86 14        	stx	$14                     ; 0x14 <__rc4>
    3391: a6 2f        	ldx	$2f                     ; 0x2f <__rc31>
    3393: 86 15        	stx	$15                     ; 0x15 <__rc5>
    3395: a2 00        	ldx	#$0
    3397: a5 27        	lda	$27                     ; 0x27 <__rc23>
    3399: 20 44 39     	jsr	$3944 <fileRead>
    339c: b2 2a        	lda	($2a)                   ; 0x2a <__rc26>
    339e: 85 2a        	sta	$2a                     ; 0x2a <__rc26>
    33a0: b2 2c        	lda	($2c)                   ; 0x2c <__zp_bss_size>
    33a2: 64 12        	stz	$12                     ; 0x12 <__rc2>
    33a4: 64 13        	stz	$13                     ; 0x13 <__rc3>
    33a6: a2 3a        	ldx	#$3a
    33a8: 86 14        	stx	$14                     ; 0x14 <__rc4>
    33aa: a2 02        	ldx	#$2
    33ac: 86 27        	stx	$27                     ; 0x27 <__rc23>
    33ae: 86 15        	stx	$15                     ; 0x15 <__rc5>
    33b0: 64 16        	stz	$16                     ; 0x16 <__rc6>
    33b2: 64 17        	stz	$17                     ; 0x17 <__rc7>
    33b4: a6 2a        	ldx	$2a                     ; 0x2a <__rc26>
    33b6: 85 29        	sta	$29                     ; 0x29 <__rc25>
    33b8: 20 62 4f     	jsr	$4f62 <__mulsi3>
    33bb: a4 12        	ldy	$12                     ; 0x12 <__rc2>
    33bd: 85 15        	sta	$15                     ; 0x15 <__rc5>
    33bf: 85 47        	sta	$47                     ; 0x47 <tooBigWait>
    33c1: 8a           	txa
    33c2: 86 48        	stx	$48                     ; 0x48 <tooBigWait+0x1>
    33c4: 84 14        	sty	$14                     ; 0x14 <__rc4>
    33c6: 84 49        	sty	$49                     ; 0x49 <tooBigWait+0x2>
    33c8: a6 13        	ldx	$13                     ; 0x13 <__rc3>
    33ca: 86 4a        	stx	$4a                     ; 0x4a <tooBigWait+0x3>
    33cc: a6 27        	ldx	$27                     ; 0x27 <__rc23>
    33ce: 8e 50 d6     	stx	$d650                   ; 0xd650 <end_block9+0x4fcc>
    33d1: a4 2a        	ldy	$2a                     ; 0x2a <__rc26>
    33d3: c0 72        	cpy	#$72
    33d5: f0 03        	beq	$33da <main+0x1447>
    33d7: 4c c6 35     	jmp	$35c6 <main+0x1633>
    33da: 4c 93 35     	jmp	$3593 <main+0x1600>
    33dd: a9 02        	lda	#$2
    33df: 8d 50 d6     	sta	$d650                   ; 0xd650 <end_block9+0x4fcc>
    33e2: a2 15        	ldx	#$15
    33e4: 8e 55 d6     	stx	$d655                   ; 0xd655 <end_block9+0x4fd1>
    33e7: a2 ae        	ldx	#$ae
    33e9: 8e 56 d6     	stx	$d656                   ; 0xd656 <end_block9+0x4fd2>
    33ec: a2 07        	ldx	#$7
    33ee: 80 48        	bra	$3438 <main+0x14a5>
    33f0: a6 24        	ldx	$24                     ; 0x24 <__rc20>
    33f2: 86 12        	stx	$12                     ; 0x12 <__rc2>
    33f4: a6 25        	ldx	$25                     ; 0x25 <__rc21>
    33f6: 86 13        	stx	$13                     ; 0x13 <__rc3>
    33f8: 5a           	phy
    33f9: a0 18        	ldy	#$18
    33fb: b1 10        	lda	($10),y                 ; 0x10 <__rc0>
    33fd: 85 14        	sta	$14                     ; 0x14 <__rc4>
    33ff: c8           	iny
    3400: b1 10        	lda	($10),y                 ; 0x10 <__rc0>
    3402: 7a           	ply
    3403: 85 15        	sta	$15                     ; 0x15 <__rc5>
    3405: a2 00        	ldx	#$0
    3407: a9 02        	lda	#$2
    3409: 84 27        	sty	$27                     ; 0x27 <__rc23>
    340b: 20 44 39     	jsr	$3944 <fileRead>
    340e: a6 24        	ldx	$24                     ; 0x24 <__rc20>
    3410: 86 18        	stx	$18                     ; 0x18 <__rc8>
    3412: a6 25        	ldx	$25                     ; 0x25 <__rc21>
    3414: 86 19        	stx	$19                     ; 0x19 <__rc9>
    3416: a4 27        	ldy	$27                     ; 0x27 <__rc23>
    3418: b2 24        	lda	($24)                   ; 0x24 <__rc20>
    341a: 85 13        	sta	$13                     ; 0x13 <__rc3>
    341c: b1 24        	lda	($24),y                 ; 0x24 <__rc20>
    341e: a6 13        	ldx	$13                     ; 0x13 <__rc3>
    3420: 8e 82 d5     	stx	$d582                   ; 0xd582 <end_block9+0x4efe>
    3423: 8d 81 d5     	sta	$d581                   ; 0xd581 <end_block9+0x4efd>
    3426: 4c 83 2d     	jmp	$2d83 <main+0xdf0>
    3429: a9 02        	lda	#$2
    342b: 8d 50 d6     	sta	$d650                   ; 0xd650 <end_block9+0x4fcc>
    342e: a2 66        	ldx	#$66
    3430: 8e 55 d6     	stx	$d655                   ; 0xd655 <end_block9+0x4fd1>
    3433: 8e 56 d6     	stx	$d656                   ; 0xd656 <end_block9+0x4fd2>
    3436: a2 06        	ldx	#$6
    3438: 8e 57 d6     	stx	$d657                   ; 0xd657 <end_block9+0x4fd3>
    343b: 9c 54 d6     	stz	$d654                   ; 0xd654 <end_block9+0x4fd0>
    343e: 8d 50 d6     	sta	$d650                   ; 0xd650 <end_block9+0x4fcc>
    3441: a2 89        	ldx	#$89
    3443: 8e 50 d6     	stx	$d650                   ; 0xd650 <end_block9+0x4fcc>
    3446: 4c 85 2d     	jmp	$2d85 <main+0xdf2>
    3449: a6 18        	ldx	$18                     ; 0x18 <__rc8>
    344b: 86 2a        	stx	$2a                     ; 0x2a <__rc26>
    344d: a6 19        	ldx	$19                     ; 0x19 <__rc9>
    344f: 86 2b        	stx	$2b                     ; 0x2b <__rc27>
    3451: 64 53        	stz	$53                     ; 0x53 <_col>
    3453: 9c 14 d0     	stz	$d014                   ; 0xd014 <end_block9+0x4990>
    3456: 9c 15 d0     	stz	$d015                   ; 0xd015 <end_block9+0x4991>
    3459: 64 54        	stz	$54                     ; 0x54 <_row>
    345b: 9c 16 d0     	stz	$d016                   ; 0xd016 <end_block9+0x4992>
    345e: 9c 17 d0     	stz	$d017                   ; 0xd017 <end_block9+0x4993>
    3461: a2 15        	ldx	#$15
    3463: 86 24        	stx	$24                     ; 0x24 <__rc20>
    3465: a2 51        	ldx	#$51
    3467: 86 25        	stx	$25                     ; 0x25 <__rc21>
    3469: a2 15        	ldx	#$15
    346b: 86 12        	stx	$12                     ; 0x12 <__rc2>
    346d: a2 51        	ldx	#$51
    346f: 86 13        	stx	$13                     ; 0x13 <__rc3>
    3471: 84 27        	sty	$27                     ; 0x27 <__rc23>
    3473: 20 13 49     	jsr	$4913 <printf>
    3476: 64 53        	stz	$53                     ; 0x53 <_col>
    3478: 9c 14 d0     	stz	$d014                   ; 0xd014 <end_block9+0x4990>
    347b: 9c 15 d0     	stz	$d015                   ; 0xd015 <end_block9+0x4991>
    347e: a6 27        	ldx	$27                     ; 0x27 <__rc23>
    3480: 86 54        	stx	$54                     ; 0x54 <_row>
    3482: 8e 16 d0     	stx	$d016                   ; 0xd016 <end_block9+0x4992>
    3485: 9c 17 d0     	stz	$d017                   ; 0xd017 <end_block9+0x4993>
    3488: a2 15        	ldx	#$15
    348a: 86 12        	stx	$12                     ; 0x12 <__rc2>
    348c: a2 51        	ldx	#$51
    348e: 86 13        	stx	$13                     ; 0x13 <__rc3>
    3490: 20 13 49     	jsr	$4913 <printf>
    3493: a0 18        	ldy	#$18
    3495: b1 10        	lda	($10),y                 ; 0x10 <__rc0>
    3497: 85 12        	sta	$12                     ; 0x12 <__rc2>
    3499: c8           	iny
    349a: b1 10        	lda	($10),y                 ; 0x10 <__rc0>
    349c: 85 13        	sta	$13                     ; 0x13 <__rc3>
    349e: 20 1d 36     	jsr	$361d <fileClose>
    34a1: a2 d1        	ldx	#$d1
    34a3: 86 24        	stx	$24                     ; 0x24 <__rc20>
    34a5: 4c fa 23     	jmp	$23fa <main+0x467>
    34a8: a2 b0        	ldx	#$b0
    34aa: 8e 80 d5     	stx	$d580                   ; 0xd580 <end_block9+0x4efc>
    34ad: 9c 81 d5     	stz	$d581                   ; 0xd581 <end_block9+0x4efd>
    34b0: e8           	inx
    34b1: e0 b9        	cpx	#$b9
    34b3: d0 f5        	bne	$34aa <main+0x1517>
    34b5: a2 b0        	ldx	#$b0
    34b7: 8e 82 d5     	stx	$d582                   ; 0xd582 <end_block9+0x4efe>
    34ba: 9c 81 d5     	stz	$d581                   ; 0xd581 <end_block9+0x4efd>
    34bd: e8           	inx
    34be: e0 b9        	cpx	#$b9
    34c0: d0 f5        	bne	$34b7 <main+0x1524>
    34c2: a0 18        	ldy	#$18
    34c4: b1 10        	lda	($10),y                 ; 0x10 <__rc0>
    34c6: 85 12        	sta	$12                     ; 0x12 <__rc2>
    34c8: c8           	iny
    34c9: b1 10        	lda	($10),y                 ; 0x10 <__rc0>
    34cb: 85 13        	sta	$13                     ; 0x13 <__rc3>
    34cd: 20 1d 36     	jsr	$361d <fileClose>
    34d0: 20 cd 1c     	jsr	$1ccd <opl3_initialize>
    34d3: 78           	sei
    34d4: a2 07        	ldx	#$7
    34d6: 86 0f        	stx	$f                      ; 0xf <__zp_data_size+0xb>
    34d8: a2 de        	ldx	#$de
    34da: 8e a2 d6     	stx	$d6a2                   ; 0xd6a2 <end_block9+0x501e>
    34dd: a2 ad        	ldx	#$ad
    34df: 8e a3 d6     	stx	$d6a3                   ; 0xd6a3 <end_block9+0x501f>
    34e2: a2 f0        	ldx	#$f0
    34e4: 8e a0 d6     	stx	$d6a0                   ; 0xd6a0 <end_block9+0x501c>
    34e7: 9c a0 d6     	stz	$d6a0                   ; 0xd6a0 <end_block9+0x501c>
    34ea: 6c fc ff     	jmp	($fffc)                 ; 0xfffc <end_block9+0x7978>
    34ed: a2 00        	ldx	#$0
    34ef: 8a           	txa
    34f0: 85 20        	sta	$20                     ; 0x20 <__rc16>
    34f2: a0 06        	ldy	#$6
    34f4: b1 10        	lda	($10),y                 ; 0x10 <__rc0>
    34f6: 85 2f        	sta	$2f                     ; 0x2f <__rc31>
    34f8: c8           	iny
    34f9: b1 10        	lda	($10),y                 ; 0x10 <__rc0>
    34fb: 85 2e        	sta	$2e                     ; 0x2e <__rc30>
    34fd: c8           	iny
    34fe: b1 10        	lda	($10),y                 ; 0x10 <__rc0>
    3500: 85 2d        	sta	$2d                     ; 0x2d <__rc29>
    3502: c8           	iny
    3503: b1 10        	lda	($10),y                 ; 0x10 <__rc0>
    3505: 85 2c        	sta	$2c                     ; 0x2c <__zp_bss_size>
    3507: c8           	iny
    3508: b1 10        	lda	($10),y                 ; 0x10 <__rc0>
    350a: 85 2b        	sta	$2b                     ; 0x2b <__rc27>
    350c: c8           	iny
    350d: b1 10        	lda	($10),y                 ; 0x10 <__rc0>
    350f: 85 2a        	sta	$2a                     ; 0x2a <__rc26>
    3511: c8           	iny
    3512: b1 10        	lda	($10),y                 ; 0x10 <__rc0>
    3514: 85 29        	sta	$29                     ; 0x29 <__rc25>
    3516: c8           	iny
    3517: b1 10        	lda	($10),y                 ; 0x10 <__rc0>
    3519: 85 28        	sta	$28                     ; 0x28 <__rc24>
    351b: 7a           	ply
    351c: 84 27        	sty	$27                     ; 0x27 <__rc23>
    351e: 7a           	ply
    351f: 84 26        	sty	$26                     ; 0x26 <__rc22>
    3521: 7a           	ply
    3522: 84 25        	sty	$25                     ; 0x25 <__rc21>
    3524: 7a           	ply
    3525: 84 24        	sty	$24                     ; 0x24 <__rc20>
    3527: 18           	clc
    3528: a5 10        	lda	$10                     ; 0x10 <__rc0>
    352a: 69 69        	adc	#$69
    352c: 85 10        	sta	$10                     ; 0x10 <__rc0>
    352e: a5 11        	lda	$11                     ; 0x11 <__rc1>
    3530: 69 00        	adc	#$0
    3532: 85 11        	sta	$11                     ; 0x11 <__rc1>
    3534: a5 20        	lda	$20                     ; 0x20 <__rc16>
    3536: 60           	rts
    3537: c9 30        	cmp	#$30
    3539: a4 16        	ldy	$16                     ; 0x16 <__rc6>
    353b: 48           	pha
    353c: 5a           	phy
    353d: a0 0e        	ldy	#$e
    353f: b1 10        	lda	($10),y                 ; 0x10 <__rc0>
    3541: 85 12        	sta	$12                     ; 0x12 <__rc2>
    3543: c8           	iny
    3544: b1 10        	lda	($10),y                 ; 0x10 <__rc0>
    3546: 7a           	ply
    3547: 85 13        	sta	$13                     ; 0x13 <__rc3>
    3549: 68           	pla
    354a: b0 03        	bcs	$354f <main+0x15bc>
    354c: 4c c5 27     	jmp	$27c5 <main+0x832>
    354f: c9 38        	cmp	#$38
    3551: a4 16        	ldy	$16                     ; 0x16 <__rc6>
    3553: 48           	pha
    3554: 5a           	phy
    3555: a0 0e        	ldy	#$e
    3557: b1 10        	lda	($10),y                 ; 0x10 <__rc0>
    3559: 85 12        	sta	$12                     ; 0x12 <__rc2>
    355b: c8           	iny
    355c: b1 10        	lda	($10),y                 ; 0x10 <__rc0>
    355e: 7a           	ply
    355f: 85 13        	sta	$13                     ; 0x13 <__rc3>
    3561: 68           	pla
    3562: 90 03        	bcc	$3567 <main+0x15d4>
    3564: 4c c5 27     	jmp	$27c5 <main+0x832>
    3567: 18           	clc
    3568: 69 d0        	adc	#$d0
    356a: a8           	tay
    356b: 5a           	phy
    356c: a0 0e        	ldy	#$e
    356e: b1 10        	lda	($10),y                 ; 0x10 <__rc0>
    3570: 85 12        	sta	$12                     ; 0x12 <__rc2>
    3572: c8           	iny
    3573: b1 10        	lda	($10),y                 ; 0x10 <__rc0>
    3575: 7a           	ply
    3576: 85 13        	sta	$13                     ; 0x13 <__rc3>
    3578: 4c c5 27     	jmp	$27c5 <main+0x832>
    357b: a2 00        	ldx	#$0
    357d: 98           	tya
    357e: 20 57 4c     	jsr	$4c57 <malloc>
    3581: a5 12        	lda	$12                     ; 0x12 <__rc2>
    3583: a0 18        	ldy	#$18
    3585: 91 10        	sta	($10),y                 ; 0x10 <__rc0>
    3587: a5 13        	lda	$13                     ; 0x13 <__rc3>
    3589: c8           	iny
    358a: 91 10        	sta	($10),y                 ; 0x10 <__rc0>
    358c: a5 24        	lda	$24                     ; 0x24 <__rc20>
    358e: 92 12        	sta	($12)                   ; 0x12 <__rc2>
    3590: 4c ab 28     	jmp	$28ab <main+0x918>
    3593: a4 29        	ldy	$29                     ; 0x29 <__rc25>
    3595: c0 fa        	cpy	#$fa
    3597: b0 31        	bcs	$35ca <main+0x1637>
    3599: a4 15        	ldy	$15                     ; 0x15 <__rc5>
    359b: 8c 55 d6     	sty	$d655                   ; 0xd655 <end_block9+0x4fd1>
    359e: 8d 56 d6     	sta	$d656                   ; 0xd656 <end_block9+0x4fd2>
    35a1: a4 14        	ldy	$14                     ; 0x14 <__rc4>
    35a3: 8c 57 d6     	sty	$d657                   ; 0xd657 <end_block9+0x4fd3>
    35a6: 9c 54 d6     	stz	$d654                   ; 0xd654 <end_block9+0x4fd0>
    35a9: 8e 50 d6     	stx	$d650                   ; 0xd650 <end_block9+0x4fcc>
    35ac: a2 89        	ldx	#$89
    35ae: 8e 50 d6     	stx	$d650                   ; 0xd650 <end_block9+0x4fcc>
    35b1: 64 47        	stz	$47                     ; 0x47 <tooBigWait>
    35b3: 64 48        	stz	$48                     ; 0x48 <tooBigWait+0x1>
    35b5: 64 49        	stz	$49                     ; 0x49 <tooBigWait+0x2>
    35b7: 64 4a        	stz	$4a                     ; 0x4a <tooBigWait+0x3>
    35b9: a0 01        	ldy	#$1
    35bb: a6 24        	ldx	$24                     ; 0x24 <__rc20>
    35bd: 86 18        	stx	$18                     ; 0x18 <__rc8>
    35bf: a6 25        	ldx	$25                     ; 0x25 <__rc21>
    35c1: 86 19        	stx	$19                     ; 0x19 <__rc9>
    35c3: 4c 85 2d     	jmp	$2d85 <main+0xdf2>
    35c6: c0 72        	cpy	#$72
    35c8: 90 cf        	bcc	$3599 <main+0x1606>
    35ca: a0 01        	ldy	#$1
    35cc: a6 24        	ldx	$24                     ; 0x24 <__rc20>
    35ce: 86 18        	stx	$18                     ; 0x18 <__rc8>
    35d0: a6 25        	ldx	$25                     ; 0x25 <__rc21>
    35d2: 86 19        	stx	$19                     ; 0x19 <__rc9>
    35d4: a2 ff        	ldx	#$ff
    35d6: 8e 55 d6     	stx	$d655                   ; 0xd655 <end_block9+0x4fd1>
    35d9: 8e 56 d6     	stx	$d656                   ; 0xd656 <end_block9+0x4fd2>
    35dc: 8e 57 d6     	stx	$d657                   ; 0xd657 <end_block9+0x4fd3>
    35df: 9c 54 d6     	stz	$d654                   ; 0xd654 <end_block9+0x4fd0>
    35e2: a9 02        	lda	#$2
    35e4: 8d 50 d6     	sta	$d650                   ; 0xd650 <end_block9+0x4fcc>
    35e7: a2 89        	ldx	#$89
    35e9: 8e 50 d6     	stx	$d650                   ; 0xd650 <end_block9+0x4fcc>
    35ec: a5 47        	lda	$47                     ; 0x47 <tooBigWait>
    35ee: a6 48        	ldx	$48                     ; 0x48 <tooBigWait+0x1>
    35f0: 86 12        	stx	$12                     ; 0x12 <__rc2>
    35f2: a6 49        	ldx	$49                     ; 0x49 <tooBigWait+0x2>
    35f4: 86 14        	stx	$14                     ; 0x14 <__rc4>
    35f6: a6 4a        	ldx	$4a                     ; 0x4a <tooBigWait+0x3>
    35f8: 86 13        	stx	$13                     ; 0x13 <__rc3>
    35fa: 18           	clc
    35fb: 69 01        	adc	#$1
    35fd: aa           	tax
    35fe: a5 12        	lda	$12                     ; 0x12 <__rc2>
    3600: 69 00        	adc	#$0
    3602: 85 12        	sta	$12                     ; 0x12 <__rc2>
    3604: a5 14        	lda	$14                     ; 0x14 <__rc4>
    3606: 69 00        	adc	#$0
    3608: 85 14        	sta	$14                     ; 0x14 <__rc4>
    360a: a5 13        	lda	$13                     ; 0x13 <__rc3>
    360c: 69 ff        	adc	#$ff
    360e: 86 47        	stx	$47                     ; 0x47 <tooBigWait>
    3610: a6 12        	ldx	$12                     ; 0x12 <__rc2>
    3612: 86 48        	stx	$48                     ; 0x48 <tooBigWait+0x1>
    3614: a6 14        	ldx	$14                     ; 0x14 <__rc4>
    3616: 86 49        	stx	$49                     ; 0x49 <tooBigWait+0x2>
    3618: 85 4a        	sta	$4a                     ; 0x4a <tooBigWait+0x3>
    361a: 4c 85 2d     	jmp	$2d85 <main+0xdf2>

0000361d <fileClose>:
    361d: a6 12        	ldx	$12                     ; 0x12 <__rc2>
    361f: 86 14        	stx	$14                     ; 0x14 <__rc4>
    3621: a6 13        	ldx	$13                     ; 0x13 <__rc3>
    3623: 86 15        	stx	$15                     ; 0x15 <__rc5>
    3625: a2 00        	ldx	#$0
    3627: a0 10        	ldy	#$10
    3629: a9 84        	lda	#$84
    362b: 86 12        	stx	$12                     ; 0x12 <__rc2>
    362d: 84 13        	sty	$13                     ; 0x13 <__rc3>
    362f: 18           	clc
    3630: 65 12        	adc	$12                     ; 0x12 <__rc2>
    3632: a2 00        	ldx	#$0
    3634: 86 1a        	stx	$1a                     ; 0x1a <__rc10>
    3636: 85 16        	sta	$16                     ; 0x16 <__rc6>
    3638: a9 86        	lda	#$86
    363a: 65 13        	adc	$13                     ; 0x13 <__rc3>
    363c: 85 17        	sta	$17                     ; 0x17 <__rc7>
    363e: b2 14        	lda	($14)                   ; 0x14 <__rc4>
    3640: 85 f3        	sta	$f3                     ; 0xf3 <__rc31+0xc4>
    3642: a2 65        	ldx	#$65
    3644: a0 00        	ldy	#$0
    3646: 86 12        	stx	$12                     ; 0x12 <__rc2>
    3648: 84 13        	sty	$13                     ; 0x13 <__rc3>
    364a: a2 52        	ldx	#$52
    364c: 86 18        	stx	$18                     ; 0x18 <__rc8>
    364e: a2 00        	ldx	#$0
    3650: 86 19        	stx	$19                     ; 0x19 <__rc9>
    3652: a5 14        	lda	$14                     ; 0x14 <__rc4>
    3654: 18           	clc
    3655: 69 fe        	adc	#$fe
    3657: 85 1b        	sta	$1b                     ; 0x1b <__rc11>
    3659: a5 15        	lda	$15                     ; 0x15 <__rc5>
    365b: 69 ff        	adc	#$ff
    365d: a6 1b        	ldx	$1b                     ; 0x1b <__rc11>
    365f: 86 60        	stx	$60                     ; 0x60 <__rc31+0x31>
    3661: aa           	tax
    3662: 85 61        	sta	$61                     ; 0x61 <__rc31+0x32>
    3664: 20 68 ff     	jsr	$ff68 <end_block9+0x78e4>
    3667: 92 12        	sta	($12)                   ; 0x12 <__rc2>
    3669: a9 00        	lda	#$0
    366b: 6a           	ror
    366c: 85 18        	sta	$18                     ; 0x18 <__rc8>
    366e: b2 60        	lda	($60)                   ; 0x60 <__rc31+0x31>
    3670: 85 18        	sta	$18                     ; 0x18 <__rc8>
    3672: a0 01        	ldy	#$1
    3674: b1 60        	lda	($60),y                 ; 0x60 <__rc31+0x31>
    3676: 85 62        	sta	$62                     ; 0x62 <__rc31+0x33>
    3678: a9 fe        	lda	#$fe
    367a: 32 60        	and	($60)                   ; 0x60 <__rc31+0x31>
    367c: 85 63        	sta	$63                     ; 0x63 <__rc31+0x34>
    367e: a4 1b        	ldy	$1b                     ; 0x1b <__rc11>
    3680: 84 19        	sty	$19                     ; 0x19 <__rc9>
    3682: a5 1b        	lda	$1b                     ; 0x1b <__rc11>
    3684: a4 1a        	ldy	$1a                     ; 0x1a <__rc10>
    3686: c0 01        	cpy	#$1
    3688: 65 63        	adc	$63                     ; 0x63 <__rc31+0x34>
    368a: 85 12        	sta	$12                     ; 0x12 <__rc2>
    368c: 8a           	txa
    368d: 86 1a        	stx	$1a                     ; 0x1a <__rc10>
    368f: 65 62        	adc	$62                     ; 0x62 <__rc31+0x33>
    3691: c5 17        	cmp	$17                     ; 0x17 <__rc7>
    3693: d0 10        	bne	$36a5 <fileClose+0x88>
    3695: a6 12        	ldx	$12                     ; 0x12 <__rc2>
    3697: e4 16        	cpx	$16                     ; 0x16 <__rc6>
    3699: d0 0a        	bne	$36a5 <fileClose+0x88>
    369b: a2 00        	ldx	#$0
    369d: 86 12        	stx	$12                     ; 0x12 <__rc2>
    369f: a2 00        	ldx	#$0
    36a1: 86 13        	stx	$13                     ; 0x13 <__rc3>
    36a3: 80 02        	bra	$36a7 <fileClose+0x8a>
    36a5: 85 13        	sta	$13                     ; 0x13 <__rc3>
    36a7: a5 18        	lda	$18                     ; 0x18 <__rc8>
    36a9: 29 01        	and	#$1
    36ab: d0 03        	bne	$36b0 <fileClose+0x93>
    36ad: 4c 2b 37     	jmp	$372b <fileClose+0x10e>
    36b0: a5 14        	lda	$14                     ; 0x14 <__rc4>
    36b2: 18           	clc
    36b3: 69 fc        	adc	#$fc
    36b5: 85 14        	sta	$14                     ; 0x14 <__rc4>
    36b7: a5 15        	lda	$15                     ; 0x15 <__rc5>
    36b9: 69 ff        	adc	#$ff
    36bb: 85 15        	sta	$15                     ; 0x15 <__rc5>
    36bd: a0 01        	ldy	#$1
    36bf: 38           	sec
    36c0: a9 00        	lda	#$0
    36c2: f2 14        	sbc	($14)                   ; 0x14 <__rc4>
    36c4: 85 18        	sta	$18                     ; 0x18 <__rc8>
    36c6: a9 00        	lda	#$0
    36c8: f1 14        	sbc	($14),y                 ; 0x14 <__rc4>
    36ca: 85 14        	sta	$14                     ; 0x14 <__rc4>
    36cc: a5 19        	lda	$19                     ; 0x19 <__rc9>
    36ce: 18           	clc
    36cf: 65 18        	adc	$18                     ; 0x18 <__rc8>
    36d1: 85 60        	sta	$60                     ; 0x60 <__rc31+0x31>
    36d3: a5 1a        	lda	$1a                     ; 0x1a <__rc10>
    36d5: 65 14        	adc	$14                     ; 0x14 <__rc4>
    36d7: 85 61        	sta	$61                     ; 0x61 <__rc31+0x32>
    36d9: b1 60        	lda	($60),y                 ; 0x60 <__rc31+0x31>
    36db: 85 69        	sta	$69                     ; 0x69 <__rc31+0x3a>
    36dd: a9 fe        	lda	#$fe
    36df: 32 60        	and	($60)                   ; 0x60 <__rc31+0x31>
    36e1: 85 64        	sta	$64                     ; 0x64 <__rc31+0x35>
    36e3: a6 62        	ldx	$62                     ; 0x62 <__rc31+0x33>
    36e5: 86 6a        	stx	$6a                     ; 0x6a <__rc31+0x3b>
    36e7: a6 63        	ldx	$63                     ; 0x63 <__rc31+0x34>
    36e9: 86 6b        	stx	$6b                     ; 0x6b <__rc31+0x3c>
    36eb: a6 12        	ldx	$12                     ; 0x12 <__rc2>
    36ed: 86 67        	stx	$67                     ; 0x67 <__rc31+0x38>
    36ef: a6 13        	ldx	$13                     ; 0x13 <__rc3>
    36f1: 86 68        	stx	$68                     ; 0x68 <__rc31+0x39>
    36f3: a6 60        	ldx	$60                     ; 0x60 <__rc31+0x31>
    36f5: 86 12        	stx	$12                     ; 0x12 <__rc2>
    36f7: a6 61        	ldx	$61                     ; 0x61 <__rc31+0x32>
    36f9: 86 13        	stx	$13                     ; 0x13 <__rc3>
    36fb: a6 16        	ldx	$16                     ; 0x16 <__rc6>
    36fd: 86 62        	stx	$62                     ; 0x62 <__rc31+0x33>
    36ff: a6 17        	ldx	$17                     ; 0x17 <__rc7>
    3701: 86 63        	stx	$63                     ; 0x63 <__rc31+0x34>
    3703: 20 70 04     	jsr	$470 <_ZN12_GLOBAL__N_19FreeChunk6removeEv>
    3706: a6 63        	ldx	$63                     ; 0x63 <__rc31+0x34>
    3708: 86 17        	stx	$17                     ; 0x17 <__rc7>
    370a: a6 62        	ldx	$62                     ; 0x62 <__rc31+0x33>
    370c: 86 16        	stx	$16                     ; 0x16 <__rc6>
    370e: a6 67        	ldx	$67                     ; 0x67 <__rc31+0x38>
    3710: 86 12        	stx	$12                     ; 0x12 <__rc2>
    3712: a6 68        	ldx	$68                     ; 0x68 <__rc31+0x39>
    3714: 86 13        	stx	$13                     ; 0x13 <__rc3>
    3716: 18           	clc
    3717: a5 64        	lda	$64                     ; 0x64 <__rc31+0x35>
    3719: a6 6b        	ldx	$6b                     ; 0x6b <__rc31+0x3c>
    371b: 86 14        	stx	$14                     ; 0x14 <__rc4>
    371d: 65 14        	adc	$14                     ; 0x14 <__rc4>
    371f: 85 63        	sta	$63                     ; 0x63 <__rc31+0x34>
    3721: a5 69        	lda	$69                     ; 0x69 <__rc31+0x3a>
    3723: a6 6a        	ldx	$6a                     ; 0x6a <__rc31+0x3b>
    3725: 86 14        	stx	$14                     ; 0x14 <__rc4>
    3727: 65 14        	adc	$14                     ; 0x14 <__rc4>
    3729: 85 62        	sta	$62                     ; 0x62 <__rc31+0x33>
    372b: a2 00        	ldx	#$0
    372d: 86 14        	stx	$14                     ; 0x14 <__rc4>
    372f: a2 00        	ldx	#$0
    3731: 86 15        	stx	$15                     ; 0x15 <__rc5>
    3733: a6 13        	ldx	$13                     ; 0x13 <__rc3>
    3735: e4 15        	cpx	$15                     ; 0x15 <__rc5>
    3737: d0 0d        	bne	$3746 <fileClose+0x129>
    3739: a6 12        	ldx	$12                     ; 0x12 <__rc2>
    373b: e4 14        	cpx	$14                     ; 0x14 <__rc4>
    373d: d0 07        	bne	$3746 <fileClose+0x129>
    373f: a2 01        	ldx	#$1
    3741: 8e 07 86     	stx	$8607                   ; 0x8607 <_ZN12_GLOBAL__N_19last_freeE>
    3744: 80 51        	bra	$3797 <fileClose+0x17a>
    3746: b2 12        	lda	($12)                   ; 0x12 <__rc2>
    3748: 85 18        	sta	$18                     ; 0x18 <__rc8>
    374a: a0 01        	ldy	#$1
    374c: b1 12        	lda	($12),y                 ; 0x12 <__rc2>
    374e: a8           	tay
    374f: a9 fe        	lda	#$fe
    3751: 32 12        	and	($12)                   ; 0x12 <__rc2>
    3753: 18           	clc
    3754: 85 67        	sta	$67                     ; 0x67 <__rc31+0x38>
    3756: 65 12        	adc	$12                     ; 0x12 <__rc2>
    3758: 85 14        	sta	$14                     ; 0x14 <__rc4>
    375a: 98           	tya
    375b: 84 64        	sty	$64                     ; 0x64 <__rc31+0x35>
    375d: 65 13        	adc	$13                     ; 0x13 <__rc3>
    375f: c5 17        	cmp	$17                     ; 0x17 <__rc7>
    3761: d0 1b        	bne	$377e <fileClose+0x161>
    3763: a6 14        	ldx	$14                     ; 0x14 <__rc4>
    3765: e4 16        	cpx	$16                     ; 0x16 <__rc6>
    3767: d0 15        	bne	$377e <fileClose+0x161>
    3769: ad 07 86     	lda	$8607                   ; 0x8607 <_ZN12_GLOBAL__N_19last_freeE>
    376c: 29 01        	and	#$1
    376e: d0 16        	bne	$3786 <fileClose+0x169>
    3770: a5 18        	lda	$18                     ; 0x18 <__rc8>
    3772: 09 01        	ora	#$1
    3774: 92 12        	sta	($12)                   ; 0x12 <__rc2>
    3776: a0 01        	ldy	#$1
    3778: a5 64        	lda	$64                     ; 0x64 <__rc31+0x35>
    377a: 91 12        	sta	($12),y                 ; 0x12 <__rc2>
    377c: 80 19        	bra	$3797 <fileClose+0x17a>
    377e: 85 15        	sta	$15                     ; 0x15 <__rc5>
    3780: a9 01        	lda	#$1
    3782: 32 14        	and	($14)                   ; 0x14 <__rc4>
    3784: f0 ea        	beq	$3770 <fileClose+0x153>
    3786: 20 70 04     	jsr	$470 <_ZN12_GLOBAL__N_19FreeChunk6removeEv>
    3789: 18           	clc
    378a: a6 67        	ldx	$67                     ; 0x67 <__rc31+0x38>
    378c: 8a           	txa
    378d: 65 63        	adc	$63                     ; 0x63 <__rc31+0x34>
    378f: 85 63        	sta	$63                     ; 0x63 <__rc31+0x34>
    3791: a5 64        	lda	$64                     ; 0x64 <__rc31+0x35>
    3793: 65 62        	adc	$62                     ; 0x62 <__rc31+0x33>
    3795: 85 62        	sta	$62                     ; 0x62 <__rc31+0x33>
    3797: a6 60        	ldx	$60                     ; 0x60 <__rc31+0x31>
    3799: 86 12        	stx	$12                     ; 0x12 <__rc2>
    379b: a6 61        	ldx	$61                     ; 0x61 <__rc31+0x32>
    379d: 86 13        	stx	$13                     ; 0x13 <__rc3>
    379f: a6 62        	ldx	$62                     ; 0x62 <__rc31+0x33>
    37a1: a5 63        	lda	$63                     ; 0x63 <__rc31+0x34>
    37a3: 20 1c 03     	jsr	$31c <_ZN12_GLOBAL__N_19FreeChunk6insertEPvj>
    37a6: a2 66        	ldx	#$66
    37a8: a0 00        	ldy	#$0
    37aa: 86 12        	stx	$12                     ; 0x12 <__rc2>
    37ac: 84 13        	sty	$13                     ; 0x13 <__rc3>
    37ae: a2 52        	ldx	#$52
    37b0: 86 14        	stx	$14                     ; 0x14 <__rc4>
    37b2: a2 00        	ldx	#$0
    37b4: 86 15        	stx	$15                     ; 0x15 <__rc5>
    37b6: 64 4b        	stz	$4b                     ; 0x4b <kernelEventData>
    37b8: 20 00 ff     	jsr	$ff00 <end_block9+0x787c>
    37bb: 92 12        	sta	($12)                   ; 0x12 <__rc2>
    37bd: a9 00        	lda	#$0
    37bf: 6a           	ror
    37c0: 85 14        	sta	$14                     ; 0x14 <__rc4>
    37c2: a6 4b        	ldx	$4b                     ; 0x4b <kernelEventData>
    37c4: e0 38        	cpx	#$38
    37c6: f0 04        	beq	$37cc <fileClose+0x1af>
    37c8: e0 32        	cpx	#$32
    37ca: d0 ea        	bne	$37b6 <fileClose+0x199>
    37cc: 60           	rts

000037cd <textGotoXY>:
    37cd: 85 53        	sta	$53                     ; 0x53 <_col>
    37cf: 8d 14 d0     	sta	$d014                   ; 0xd014 <end_block9+0x4990>
    37d2: 9c 15 d0     	stz	$d015                   ; 0xd015 <end_block9+0x4991>
    37d5: 86 54        	stx	$54                     ; 0x54 <_row>
    37d7: 8e 16 d0     	stx	$d016                   ; 0xd016 <end_block9+0x4992>
    37da: 9c 17 d0     	stz	$d017                   ; 0xd017 <end_block9+0x4993>
    37dd: 60           	rts

000037de <fileCloseDir>:
    37de: a2 73        	ldx	#$73
    37e0: a0 00        	ldy	#$0
    37e2: 86 14        	stx	$14                     ; 0x14 <__rc4>
    37e4: 84 15        	sty	$15                     ; 0x15 <__rc5>
    37e6: a2 72        	ldx	#$72
    37e8: a0 00        	ldy	#$0
    37ea: b2 12        	lda	($12)                   ; 0x12 <__rc2>
    37ec: f0 20        	beq	$380e <fileCloseDir+0x30>
    37ee: 85 f3        	sta	$f3                     ; 0xf3 <__rc31+0xc4>
    37f0: 86 16        	stx	$16                     ; 0x16 <__rc6>
    37f2: 84 17        	sty	$17                     ; 0x17 <__rc7>
    37f4: a9 52        	lda	#$52
    37f6: 85 18        	sta	$18                     ; 0x18 <__rc8>
    37f8: a9 00        	lda	#$0
    37fa: 85 19        	sta	$19                     ; 0x19 <__rc9>
    37fc: 20 80 ff     	jsr	$ff80 <end_block9+0x78fc>
    37ff: 92 16        	sta	($16)                   ; 0x16 <__rc6>
    3801: a9 00        	lda	#$0
    3803: 6a           	ror
    3804: 85 18        	sta	$18                     ; 0x18 <__rc8>
    3806: a5 52        	lda	$52                     ; 0x52 <kernelError>
    3808: d0 04        	bne	$380e <fileCloseDir+0x30>
    380a: a9 00        	lda	#$0
    380c: 92 12        	sta	($12)                   ; 0x12 <__rc2>
    380e: 64 4b        	stz	$4b                     ; 0x4b <kernelEventData>
    3810: a9 52        	lda	#$52
    3812: 85 16        	sta	$16                     ; 0x16 <__rc6>
    3814: a9 00        	lda	#$0
    3816: 85 17        	sta	$17                     ; 0x17 <__rc7>
    3818: 20 00 ff     	jsr	$ff00 <end_block9+0x787c>
    381b: 92 14        	sta	($14)                   ; 0x14 <__rc4>
    381d: a9 00        	lda	#$0
    381f: 6a           	ror
    3820: 85 16        	sta	$16                     ; 0x16 <__rc6>
    3822: a5 4b        	lda	$4b                     ; 0x4b <kernelEventData>
    3824: c9 46        	cmp	#$46
    3826: d0 c2        	bne	$37ea <fileCloseDir+0xc>
    3828: 60           	rts

00003829 <fileOpenDir>:
    3829: ad 7c 54     	lda	$547c                   ; 0x547c <fpr+0x2>
    382c: a0 00        	ldy	#$0
    382e: a2 7c        	ldx	#$7c
    3830: 86 14        	stx	$14                     ; 0x14 <__rc4>
    3832: a2 54        	ldx	#$54
    3834: 86 15        	stx	$15                     ; 0x15 <__rc5>
    3836: aa           	tax
    3837: f0 4f        	beq	$3888 <fileOpenDir+0x5f>
    3839: 85 18        	sta	$18                     ; 0x18 <__rc8>
    383b: a2 7e        	ldx	#$7e
    383d: 86 12        	stx	$12                     ; 0x12 <__rc2>
    383f: a2 54        	ldx	#$54
    3841: 86 13        	stx	$13                     ; 0x13 <__rc3>
    3843: 64 16        	stz	$16                     ; 0x16 <__rc6>
    3845: 64 17        	stz	$17                     ; 0x17 <__rc7>
    3847: a4 16        	ldy	$16                     ; 0x16 <__rc6>
    3849: a6 17        	ldx	$17                     ; 0x17 <__rc7>
    384b: c8           	iny
    384c: d0 01        	bne	$384f <fileOpenDir+0x26>
    384e: e8           	inx
    384f: a9 7d        	lda	#$7d
    3851: 18           	clc
    3852: 65 16        	adc	$16                     ; 0x16 <__rc6>
    3854: 85 16        	sta	$16                     ; 0x16 <__rc6>
    3856: a9 54        	lda	#$54
    3858: 65 17        	adc	$17                     ; 0x17 <__rc7>
    385a: 85 17        	sta	$17                     ; 0x17 <__rc7>
    385c: b2 16        	lda	($16)                   ; 0x16 <__rc6>
    385e: 84 16        	sty	$16                     ; 0x16 <__rc6>
    3860: 86 17        	stx	$17                     ; 0x17 <__rc7>
    3862: d0 e3        	bne	$3847 <fileOpenDir+0x1e>
    3864: 8a           	txa
    3865: d0 04        	bne	$386b <fileOpenDir+0x42>
    3867: c0 02        	cpy	#$2
    3869: 80 02        	bra	$386d <fileOpenDir+0x44>
    386b: e0 00        	cpx	#$0
    386d: a0 00        	ldy	#$0
    386f: 90 17        	bcc	$3888 <fileOpenDir+0x5f>
    3871: ae 7d 54     	ldx	$547d                   ; 0x547d <fpr+0x3>
    3874: e0 3a        	cpx	#$3a
    3876: d0 10        	bne	$3888 <fileOpenDir+0x5f>
    3878: a5 18        	lda	$18                     ; 0x18 <__rc8>
    387a: c9 30        	cmp	#$30
    387c: 90 12        	bcc	$3890 <fileOpenDir+0x67>
    387e: c9 38        	cmp	#$38
    3880: b0 0e        	bcs	$3890 <fileOpenDir+0x67>
    3882: 18           	clc
    3883: 69 d0        	adc	#$d0
    3885: a8           	tay
    3886: 80 08        	bra	$3890 <fileOpenDir+0x67>
    3888: a2 7c        	ldx	#$7c
    388a: 86 12        	stx	$12                     ; 0x12 <__rc2>
    388c: a2 54        	ldx	#$54
    388e: 86 13        	stx	$13                     ; 0x13 <__rc3>
    3890: a2 00        	ldx	#$0
    3892: 86 14        	stx	$14                     ; 0x14 <__rc4>
    3894: a2 00        	ldx	#$0
    3896: 86 15        	stx	$15                     ; 0x15 <__rc5>
    3898: b6 55        	ldx	$55,y                   ; 0x55 <_dirStream>
    389a: f0 03        	beq	$389f <fileOpenDir+0x76>
    389c: 4c fc 38     	jmp	$38fc <fileOpenDir+0xd3>
    389f: 84 1a        	sty	$1a                     ; 0x1a <__rc10>
    38a1: 84 f3        	sty	$f3                     ; 0xf3 <__rc31+0xc4>
    38a3: a6 12        	ldx	$12                     ; 0x12 <__rc2>
    38a5: a4 13        	ldy	$13                     ; 0x13 <__rc3>
    38a7: 86 fb        	stx	$fb                     ; 0xfb <__rc31+0xcc>
    38a9: 84 fc        	sty	$fc                     ; 0xfc <__rc31+0xcd>
    38ab: b2 12        	lda	($12)                   ; 0x12 <__rc2>
    38ad: f0 2b        	beq	$38da <fileOpenDir+0xb1>
    38af: 64 17        	stz	$17                     ; 0x17 <__rc7>
    38b1: a0 01        	ldy	#$1
    38b3: a9 00        	lda	#$0
    38b5: 64 16        	stz	$16                     ; 0x16 <__rc6>
    38b7: a6 17        	ldx	$17                     ; 0x17 <__rc7>
    38b9: e6 17        	inc	$17                     ; 0x17 <__rc7>
    38bb: d0 02        	bne	$38bf <fileOpenDir+0x96>
    38bd: e6 16        	inc	$16                     ; 0x16 <__rc6>
    38bf: 18           	clc
    38c0: 85 19        	sta	$19                     ; 0x19 <__rc9>
    38c2: 8a           	txa
    38c3: 65 12        	adc	$12                     ; 0x12 <__rc2>
    38c5: 85 18        	sta	$18                     ; 0x18 <__rc8>
    38c7: a5 19        	lda	$19                     ; 0x19 <__rc9>
    38c9: 65 13        	adc	$13                     ; 0x13 <__rc3>
    38cb: 85 19        	sta	$19                     ; 0x19 <__rc9>
    38cd: b1 18        	lda	($18),y                 ; 0x18 <__rc8>
    38cf: aa           	tax
    38d0: a5 16        	lda	$16                     ; 0x16 <__rc6>
    38d2: e0 00        	cpx	#$0
    38d4: d0 e1        	bne	$38b7 <fileOpenDir+0x8e>
    38d6: a6 17        	ldx	$17                     ; 0x17 <__rc7>
    38d8: 80 02        	bra	$38dc <fileOpenDir+0xb3>
    38da: a2 00        	ldx	#$0
    38dc: 86 fd        	stx	$fd                     ; 0xfd <__rc31+0xce>
    38de: a2 72        	ldx	#$72
    38e0: a0 00        	ldy	#$0
    38e2: 86 12        	stx	$12                     ; 0x12 <__rc2>
    38e4: 84 13        	sty	$13                     ; 0x13 <__rc3>
    38e6: a2 52        	ldx	#$52
    38e8: 86 16        	stx	$16                     ; 0x16 <__rc6>
    38ea: a2 00        	ldx	#$0
    38ec: 86 17        	stx	$17                     ; 0x17 <__rc7>
    38ee: 20 78 ff     	jsr	$ff78 <end_block9+0x78f4>
    38f1: 92 12        	sta	($12)                   ; 0x12 <__rc2>
    38f3: a9 00        	lda	#$0
    38f5: 6a           	ror
    38f6: 85 16        	sta	$16                     ; 0x16 <__rc6>
    38f8: a6 52        	ldx	$52                     ; 0x52 <kernelError>
    38fa: f0 09        	beq	$3905 <fileOpenDir+0xdc>
    38fc: a2 00        	ldx	#$0
    38fe: 86 12        	stx	$12                     ; 0x12 <__rc2>
    3900: a2 00        	ldx	#$0
    3902: 86 13        	stx	$13                     ; 0x13 <__rc3>
    3904: 60           	rts
    3905: a9 55        	lda	#$55
    3907: 18           	clc
    3908: 65 1a        	adc	$1a                     ; 0x1a <__rc10>
    390a: 85 12        	sta	$12                     ; 0x12 <__rc2>
    390c: a9 00        	lda	#$0
    390e: 69 00        	adc	#$0
    3910: 85 13        	sta	$13                     ; 0x13 <__rc3>
    3912: a6 72        	ldx	$72                     ; 0x72 <__rc31+0x43>
    3914: 86 1b        	stx	$1b                     ; 0x1b <__rc11>
    3916: a2 73        	ldx	#$73
    3918: a0 00        	ldy	#$0
    391a: 86 16        	stx	$16                     ; 0x16 <__rc6>
    391c: 84 17        	sty	$17                     ; 0x17 <__rc7>
    391e: a2 52        	ldx	#$52
    3920: 86 18        	stx	$18                     ; 0x18 <__rc8>
    3922: a2 00        	ldx	#$0
    3924: 86 19        	stx	$19                     ; 0x19 <__rc9>
    3926: 64 4b        	stz	$4b                     ; 0x4b <kernelEventData>
    3928: 20 00 ff     	jsr	$ff00 <end_block9+0x787c>
    392b: 92 16        	sta	($16)                   ; 0x16 <__rc6>
    392d: a9 00        	lda	#$0
    392f: 6a           	ror
    3930: 85 18        	sta	$18                     ; 0x18 <__rc8>
    3932: a6 4b        	ldx	$4b                     ; 0x4b <kernelEventData>
    3934: e0 48        	cpx	#$48
    3936: f0 c4        	beq	$38fc <fileOpenDir+0xd3>
    3938: e0 3c        	cpx	#$3c
    393a: d0 ea        	bne	$3926 <fileOpenDir+0xfd>
    393c: a6 1a        	ldx	$1a                     ; 0x1a <__rc10>
    393e: a5 1b        	lda	$1b                     ; 0x1b <__rc11>
    3940: 9d 55 00     	sta	$55,x                   ; 0x55 <_dirStream>
    3943: 60           	rts

00003944 <fileRead>:
    3944: 85 16        	sta	$16                     ; 0x16 <__rc6>
    3946: 86 17        	stx	$17                     ; 0x17 <__rc7>
    3948: 64 18        	stz	$18                     ; 0x18 <__rc8>
    394a: a6 12        	ldx	$12                     ; 0x12 <__rc2>
    394c: 86 19        	stx	$19                     ; 0x19 <__rc9>
    394e: a6 13        	ldx	$13                     ; 0x13 <__rc3>
    3950: 86 1a        	stx	$1a                     ; 0x1a <__rc10>
    3952: a2 00        	ldx	#$0
    3954: 86 1b        	stx	$1b                     ; 0x1b <__rc11>
    3956: a2 69        	ldx	#$69
    3958: 86 67        	stx	$67                     ; 0x67 <__rc31+0x38>
    395a: a2 00        	ldx	#$0
    395c: 86 68        	stx	$68                     ; 0x68 <__rc31+0x39>
    395e: a9 6a        	lda	#$6a
    3960: 85 23        	sta	$23                     ; 0x23 <__rc19>
    3962: 64 12        	stz	$12                     ; 0x12 <__rc2>
    3964: a9 00        	lda	#$0
    3966: 85 60        	sta	$60                     ; 0x60 <__rc31+0x31>
    3968: a9 6b        	lda	#$6b
    396a: 85 61        	sta	$61                     ; 0x61 <__rc31+0x32>
    396c: a9 00        	lda	#$0
    396e: 85 62        	sta	$62                     ; 0x62 <__rc31+0x33>
    3970: a9 6c        	lda	#$6c
    3972: 85 63        	sta	$63                     ; 0x63 <__rc31+0x34>
    3974: a9 00        	lda	#$0
    3976: 85 64        	sta	$64                     ; 0x64 <__rc31+0x35>
    3978: a9 6d        	lda	#$6d
    397a: 85 65        	sta	$65                     ; 0x65 <__rc31+0x36>
    397c: a9 00        	lda	#$0
    397e: 85 66        	sta	$66                     ; 0x66 <__rc31+0x37>
    3980: b2 14        	lda	($14)                   ; 0x14 <__rc4>
    3982: a8           	tay
    3983: a6 19        	ldx	$19                     ; 0x19 <__rc9>
    3985: 86 13        	stx	$13                     ; 0x13 <__rc3>
    3987: a5 19        	lda	$19                     ; 0x19 <__rc9>
    3989: a6 1b        	ldx	$1b                     ; 0x1b <__rc11>
    398b: e0 01        	cpx	#$1
    398d: 65 18        	adc	$18                     ; 0x18 <__rc8>
    398f: aa           	tax
    3990: a5 1a        	lda	$1a                     ; 0x1a <__rc10>
    3992: 85 22        	sta	$22                     ; 0x22 <__rc18>
    3994: a5 1a        	lda	$1a                     ; 0x1a <__rc10>
    3996: 65 12        	adc	$12                     ; 0x12 <__rc2>
    3998: c0 00        	cpy	#$0
    399a: d0 03        	bne	$399f <fileRead+0x5b>
    399c: 4c 2b 3a     	jmp	$3a2b <fileRead+0xe7>
    399f: 85 1e        	sta	$1e                     ; 0x1e <__rc14>
    39a1: a5 16        	lda	$16                     ; 0x16 <__rc6>
    39a3: 38           	sec
    39a4: e5 18        	sbc	$18                     ; 0x18 <__rc8>
    39a6: 84 f3        	sty	$f3                     ; 0xf3 <__rc31+0xc4>
    39a8: 85 f4        	sta	$f4                     ; 0xf4 <__rc31+0xc5>
    39aa: a5 61        	lda	$61                     ; 0x61 <__rc31+0x32>
    39ac: 85 1a        	sta	$1a                     ; 0x1a <__rc10>
    39ae: a5 62        	lda	$62                     ; 0x62 <__rc31+0x33>
    39b0: 85 1b        	sta	$1b                     ; 0x1b <__rc11>
    39b2: a9 52        	lda	#$52
    39b4: 85 1c        	sta	$1c                     ; 0x1c <__rc12>
    39b6: a9 00        	lda	#$0
    39b8: 85 1d        	sta	$1d                     ; 0x1d <__rc13>
    39ba: 20 60 ff     	jsr	$ff60 <end_block9+0x78dc>
    39bd: 92 1a        	sta	($1a)                   ; 0x1a <__rc10>
    39bf: a9 00        	lda	#$0
    39c1: 6a           	ror
    39c2: 85 1c        	sta	$1c                     ; 0x1c <__rc12>
    39c4: a4 52        	ldy	$52                     ; 0x52 <kernelError>
    39c6: a9 ff        	lda	#$ff
    39c8: 85 19        	sta	$19                     ; 0x19 <__rc9>
    39ca: 98           	tya
    39cb: f0 03        	beq	$39d0 <fileRead+0x8c>
    39cd: 4c a8 3a     	jmp	$3aa8 <fileRead+0x164>
    39d0: 64 4b        	stz	$4b                     ; 0x4b <kernelEventData>
    39d2: a5 63        	lda	$63                     ; 0x63 <__rc31+0x34>
    39d4: 85 1a        	sta	$1a                     ; 0x1a <__rc10>
    39d6: a5 64        	lda	$64                     ; 0x64 <__rc31+0x35>
    39d8: 85 1b        	sta	$1b                     ; 0x1b <__rc11>
    39da: a9 52        	lda	#$52
    39dc: 85 1c        	sta	$1c                     ; 0x1c <__rc12>
    39de: a9 00        	lda	#$0
    39e0: 85 1d        	sta	$1d                     ; 0x1d <__rc13>
    39e2: 20 00 ff     	jsr	$ff00 <end_block9+0x787c>
    39e5: 92 1a        	sta	($1a)                   ; 0x1a <__rc10>
    39e7: a9 00        	lda	#$0
    39e9: 6a           	ror
    39ea: 85 1c        	sta	$1c                     ; 0x1c <__rc12>
    39ec: a5 4b        	lda	$4b                     ; 0x4b <kernelEventData>
    39ee: c9 38        	cmp	#$38
    39f0: d0 03        	bne	$39f5 <fileRead+0xb1>
    39f2: 4c a8 3a     	jmp	$3aa8 <fileRead+0x164>
    39f5: c9 30        	cmp	#$30
    39f7: d0 03        	bne	$39fc <fileRead+0xb8>
    39f9: 4c b0 3a     	jmp	$3ab0 <fileRead+0x16c>
    39fc: c9 2c        	cmp	#$2c
    39fe: d0 d0        	bne	$39d0 <fileRead+0x8c>
    3a00: 86 fb        	stx	$fb                     ; 0xfb <__rc31+0xcc>
    3a02: a4 1e        	ldy	$1e                     ; 0x1e <__rc14>
    3a04: 84 fc        	sty	$fc                     ; 0xfc <__rc31+0xcd>
    3a06: a5 51        	lda	$51                     ; 0x51 <kernelEventData+0x6>
    3a08: 85 fd        	sta	$fd                     ; 0xfd <__rc31+0xce>
    3a0a: a5 65        	lda	$65                     ; 0x65 <__rc31+0x36>
    3a0c: 85 1a        	sta	$1a                     ; 0x1a <__rc10>
    3a0e: a5 66        	lda	$66                     ; 0x66 <__rc31+0x37>
    3a10: 85 1b        	sta	$1b                     ; 0x1b <__rc11>
    3a12: a9 52        	lda	#$52
    3a14: 85 1c        	sta	$1c                     ; 0x1c <__rc12>
    3a16: a9 00        	lda	#$0
    3a18: 85 1d        	sta	$1d                     ; 0x1d <__rc13>
    3a1a: 20 04 ff     	jsr	$ff04 <end_block9+0x7880>
    3a1d: 92 1a        	sta	($1a)                   ; 0x1a <__rc10>
    3a1f: a9 00        	lda	#$0
    3a21: 6a           	ror
    3a22: 85 1c        	sta	$1c                     ; 0x1c <__rc12>
    3a24: a5 51        	lda	$51                     ; 0x51 <kernelEventData+0x6>
    3a26: d0 4d        	bne	$3a75 <fileRead+0x131>
    3a28: 4c b9 3a     	jmp	$3ab9 <fileRead+0x175>
    3a2b: 86 1a        	stx	$1a                     ; 0x1a <__rc10>
    3a2d: 85 1b        	sta	$1b                     ; 0x1b <__rc11>
    3a2f: 80 0a        	bra	$3a3b <fileRead+0xf7>
    3a31: a5 4b        	lda	$4b                     ; 0x4b <kernelEventData>
    3a33: c9 08        	cmp	#$8
    3a35: d0 04        	bne	$3a3b <fileRead+0xf7>
    3a37: a5 51        	lda	$51                     ; 0x51 <kernelEventData+0x6>
    3a39: f0 34        	beq	$3a6f <fileRead+0x12b>
    3a3b: 64 4b        	stz	$4b                     ; 0x4b <kernelEventData>
    3a3d: a6 67        	ldx	$67                     ; 0x67 <__rc31+0x38>
    3a3f: 86 1e        	stx	$1e                     ; 0x1e <__rc14>
    3a41: a6 68        	ldx	$68                     ; 0x68 <__rc31+0x39>
    3a43: 86 1f        	stx	$1f                     ; 0x1f <__rc15>
    3a45: a9 52        	lda	#$52
    3a47: 85 1c        	sta	$1c                     ; 0x1c <__rc12>
    3a49: a9 00        	lda	#$0
    3a4b: 85 1d        	sta	$1d                     ; 0x1d <__rc13>
    3a4d: 20 00 ff     	jsr	$ff00 <end_block9+0x787c>
    3a50: 92 1e        	sta	($1e)                   ; 0x1e <__rc14>
    3a52: a9 00        	lda	#$0
    3a54: 6a           	ror
    3a55: 85 1c        	sta	$1c                     ; 0x1c <__rc12>
    3a57: a5 52        	lda	$52                     ; 0x52 <kernelError>
    3a59: f0 d6        	beq	$3a31 <fileRead+0xed>
    3a5b: a6 23        	ldx	$23                     ; 0x23 <__rc19>
    3a5d: 86 1e        	stx	$1e                     ; 0x1e <__rc14>
    3a5f: a5 60        	lda	$60                     ; 0x60 <__rc31+0x31>
    3a61: 85 1f        	sta	$1f                     ; 0x1f <__rc15>
    3a63: 20 0c ff     	jsr	$ff0c <end_block9+0x7888>
    3a66: 92 1e        	sta	($1e)                   ; 0x1e <__rc14>
    3a68: a9 00        	lda	#$0
    3a6a: 6a           	ror
    3a6b: 85 1c        	sta	$1c                     ; 0x1c <__rc12>
    3a6d: 80 cc        	bra	$3a3b <fileRead+0xf7>
    3a6f: a5 50        	lda	$50                     ; 0x50 <kernelEventData+0x5>
    3a71: 92 1a        	sta	($1a)                   ; 0x1a <__rc10>
    3a73: a9 01        	lda	#$1
    3a75: a0 00        	ldy	#$0
    3a77: 18           	clc
    3a78: b8           	clv
    3a79: a2 01        	ldx	#$1
    3a7b: 70 02        	bvs	$3a7f <fileRead+0x13b>
    3a7d: a2 00        	ldx	#$0
    3a7f: 86 1b        	stx	$1b                     ; 0x1b <__rc11>
    3a81: 65 18        	adc	$18                     ; 0x18 <__rc8>
    3a83: 85 1c        	sta	$1c                     ; 0x1c <__rc12>
    3a85: 98           	tya
    3a86: 65 12        	adc	$12                     ; 0x12 <__rc2>
    3a88: aa           	tax
    3a89: c5 17        	cmp	$17                     ; 0x17 <__rc7>
    3a8b: d0 06        	bne	$3a93 <fileRead+0x14f>
    3a8d: a4 1c        	ldy	$1c                     ; 0x1c <__rc12>
    3a8f: c4 16        	cpy	$16                     ; 0x16 <__rc6>
    3a91: 80 04        	bra	$3a97 <fileRead+0x153>
    3a93: e4 17        	cpx	$17                     ; 0x17 <__rc7>
    3a95: a4 1c        	ldy	$1c                     ; 0x1c <__rc12>
    3a97: 84 18        	sty	$18                     ; 0x18 <__rc8>
    3a99: 85 12        	sta	$12                     ; 0x12 <__rc2>
    3a9b: a4 13        	ldy	$13                     ; 0x13 <__rc3>
    3a9d: 84 19        	sty	$19                     ; 0x19 <__rc9>
    3a9f: a4 22        	ldy	$22                     ; 0x22 <__rc18>
    3aa1: 84 1a        	sty	$1a                     ; 0x1a <__rc10>
    3aa3: b0 11        	bcs	$3ab6 <fileRead+0x172>
    3aa5: 4c 80 39     	jmp	$3980 <fileRead+0x3c>
    3aa8: a2 ff        	ldx	#$ff
    3aaa: a4 19        	ldy	$19                     ; 0x19 <__rc9>
    3aac: 84 1c        	sty	$1c                     ; 0x1c <__rc12>
    3aae: 80 06        	bra	$3ab6 <fileRead+0x172>
    3ab0: a6 18        	ldx	$18                     ; 0x18 <__rc8>
    3ab2: 86 1c        	stx	$1c                     ; 0x1c <__rc12>
    3ab4: a6 12        	ldx	$12                     ; 0x12 <__rc2>
    3ab6: a5 1c        	lda	$1c                     ; 0x1c <__rc12>
    3ab8: 60           	rts
    3ab9: a9 00        	lda	#$0
    3abb: a0 01        	ldy	#$1
    3abd: 80 b8        	bra	$3a77 <fileRead+0x133>

00003abf <fileReadDir>:
    3abf: b2 12        	lda	($12)                   ; 0x12 <__rc2>
    3ac1: 85 f3        	sta	$f3                     ; 0xf3 <__rc31+0xc4>
    3ac3: a2 72        	ldx	#$72
    3ac5: a0 00        	ldy	#$0
    3ac7: 86 14        	stx	$14                     ; 0x14 <__rc4>
    3ac9: 84 15        	sty	$15                     ; 0x15 <__rc5>
    3acb: a2 52        	ldx	#$52
    3acd: 86 16        	stx	$16                     ; 0x16 <__rc6>
    3acf: a2 00        	ldx	#$0
    3ad1: 86 17        	stx	$17                     ; 0x17 <__rc7>
    3ad3: 20 7c ff     	jsr	$ff7c <end_block9+0x78f8>
    3ad6: 92 14        	sta	($14)                   ; 0x14 <__rc4>
    3ad8: a9 00        	lda	#$0
    3ada: 6a           	ror
    3adb: 85 16        	sta	$16                     ; 0x16 <__rc6>
    3add: a6 52        	ldx	$52                     ; 0x52 <kernelError>
    3adf: a0 00        	ldy	#$0
    3ae1: 84 14        	sty	$14                     ; 0x14 <__rc4>
    3ae3: a0 00        	ldy	#$0
    3ae5: 84 15        	sty	$15                     ; 0x15 <__rc5>
    3ae7: 8a           	txa
    3ae8: f0 09        	beq	$3af3 <fileReadDir+0x34>
    3aea: a6 14        	ldx	$14                     ; 0x14 <__rc4>
    3aec: 86 12        	stx	$12                     ; 0x12 <__rc2>
    3aee: a6 15        	ldx	$15                     ; 0x15 <__rc5>
    3af0: 86 13        	stx	$13                     ; 0x13 <__rc3>
    3af2: 60           	rts
    3af3: a2 73        	ldx	#$73
    3af5: a0 00        	ldy	#$0
    3af7: 86 16        	stx	$16                     ; 0x16 <__rc6>
    3af9: 84 17        	sty	$17                     ; 0x17 <__rc7>
    3afb: a2 75        	ldx	#$75
    3afd: 86 1c        	stx	$1c                     ; 0x1c <__rc12>
    3aff: a0 00        	ldy	#$0
    3b01: 80 20        	bra	$3b23 <fileReadDir+0x64>
    3b03: b2 12        	lda	($12)                   ; 0x12 <__rc2>
    3b05: 85 f3        	sta	$f3                     ; 0xf3 <__rc31+0xc4>
    3b07: a6 1c        	ldx	$1c                     ; 0x1c <__rc12>
    3b09: 86 18        	stx	$18                     ; 0x18 <__rc8>
    3b0b: 84 19        	sty	$19                     ; 0x19 <__rc9>
    3b0d: a2 52        	ldx	#$52
    3b0f: 86 1a        	stx	$1a                     ; 0x1a <__rc10>
    3b11: a2 00        	ldx	#$0
    3b13: 86 1b        	stx	$1b                     ; 0x1b <__rc11>
    3b15: 20 7c ff     	jsr	$ff7c <end_block9+0x78f8>
    3b18: 92 18        	sta	($18)                   ; 0x18 <__rc8>
    3b1a: a9 00        	lda	#$0
    3b1c: 6a           	ror
    3b1d: 85 1a        	sta	$1a                     ; 0x1a <__rc10>
    3b1f: a6 52        	ldx	$52                     ; 0x52 <kernelError>
    3b21: d0 c7        	bne	$3aea <fileReadDir+0x2b>
    3b23: 64 4b        	stz	$4b                     ; 0x4b <kernelEventData>
    3b25: a9 52        	lda	#$52
    3b27: 85 18        	sta	$18                     ; 0x18 <__rc8>
    3b29: a9 00        	lda	#$0
    3b2b: 85 19        	sta	$19                     ; 0x19 <__rc9>
    3b2d: 20 00 ff     	jsr	$ff00 <end_block9+0x787c>
    3b30: 92 16        	sta	($16)                   ; 0x16 <__rc6>
    3b32: a9 00        	lda	#$0
    3b34: 6a           	ror
    3b35: 85 18        	sta	$18                     ; 0x18 <__rc8>
    3b37: a9 c2        	lda	#$c2
    3b39: 18           	clc
    3b3a: 65 4b        	adc	$4b                     ; 0x4b <kernelEventData>
    3b3c: c9 0b        	cmp	#$b
    3b3e: b0 e3        	bcs	$3b23 <fileReadDir+0x64>
    3b40: 0a           	asl
    3b41: aa           	tax
    3b42: 7c 97 50     	jmp	($5097,x)               ; 0x5097 <__set_v+0xc5>
    3b45: 9c 8c 84     	stz	$848c                   ; 0x848c <fileReadDir.fileDirEntS>
    3b48: a2 02        	ldx	#$2
    3b4a: 80 2d        	bra	$3b79 <fileReadDir+0xba>
    3b4c: a2 8c        	ldx	#$8c
    3b4e: a0 84        	ldy	#$84
    3b50: 86 fb        	stx	$fb                     ; 0xfb <__rc31+0xcc>
    3b52: 84 fc        	sty	$fc                     ; 0xfc <__rc31+0xcd>
    3b54: a2 01        	ldx	#$1
    3b56: 86 fd        	stx	$fd                     ; 0xfd <__rc31+0xce>
    3b58: a0 74        	ldy	#$74
    3b5a: a9 00        	lda	#$0
    3b5c: 84 12        	sty	$12                     ; 0x12 <__rc2>
    3b5e: 85 13        	sta	$13                     ; 0x13 <__rc3>
    3b60: a0 52        	ldy	#$52
    3b62: 84 14        	sty	$14                     ; 0x14 <__rc4>
    3b64: a0 00        	ldy	#$0
    3b66: 84 15        	sty	$15                     ; 0x15 <__rc5>
    3b68: 20 08 ff     	jsr	$ff08 <end_block9+0x7884>
    3b6b: 92 12        	sta	($12)                   ; 0x12 <__rc2>
    3b6d: a9 00        	lda	#$0
    3b6f: 6a           	ror
    3b70: 85 14        	sta	$14                     ; 0x14 <__rc4>
    3b72: ac 8c 84     	ldy	$848c                   ; 0x848c <fileReadDir.fileDirEntS>
    3b75: f0 02        	beq	$3b79 <fileReadDir+0xba>
    3b77: a2 00        	ldx	#$0
    3b79: 8e 8d 84     	stx	$848d                   ; 0x848d <fileReadDir.fileDirEntS+0x1>
    3b7c: a6 50        	ldx	$50                     ; 0x50 <kernelEventData+0x5>
    3b7e: f0 24        	beq	$3ba4 <fileReadDir+0xe5>
    3b80: a0 8e        	ldy	#$8e
    3b82: a9 84        	lda	#$84
    3b84: 84 fb        	sty	$fb                     ; 0xfb <__rc31+0xcc>
    3b86: 85 fc        	sta	$fc                     ; 0xfc <__rc31+0xcd>
    3b88: 86 fd        	stx	$fd                     ; 0xfd <__rc31+0xce>
    3b8a: a0 76        	ldy	#$76
    3b8c: a9 00        	lda	#$0
    3b8e: 84 12        	sty	$12                     ; 0x12 <__rc2>
    3b90: 85 13        	sta	$13                     ; 0x13 <__rc3>
    3b92: a0 52        	ldy	#$52
    3b94: 84 14        	sty	$14                     ; 0x14 <__rc4>
    3b96: a0 00        	ldy	#$0
    3b98: 84 15        	sty	$15                     ; 0x15 <__rc5>
    3b9a: 20 04 ff     	jsr	$ff04 <end_block9+0x7880>
    3b9d: 92 12        	sta	($12)                   ; 0x12 <__rc2>
    3b9f: a9 00        	lda	#$0
    3ba1: 6a           	ror
    3ba2: 85 14        	sta	$14                     ; 0x14 <__rc4>
    3ba4: 9e 8e 84     	stz	$848e,x                 ; 0x848e <fileReadDir.fileDirEntS+0x2>
    3ba7: a2 8c        	ldx	#$8c
    3ba9: 86 14        	stx	$14                     ; 0x14 <__rc4>
    3bab: a2 84        	ldx	#$84
    3bad: 86 15        	stx	$15                     ; 0x15 <__rc5>
    3baf: 4c ea 3a     	jmp	$3aea <fileReadDir+0x2b>

00003bb2 <exit>:
    3bb2: 20 1b 03     	jsr	$31b <_fini>
    3bb5: 80 fe        	bra	$3bb5 <exit+0x3>

00003bb7 <_ZN12_GLOBAL__N_15printEPKcP6Status>:
    3bb7: a6 14        	ldx	$14                     ; 0x14 <__rc4>
    3bb9: 86 8e        	stx	$8e                     ; 0x8e <__rc31+0x5f>
    3bbb: a6 15        	ldx	$15                     ; 0x15 <__rc5>
    3bbd: 86 8f        	stx	$8f                     ; 0x8f <__rc31+0x60>
    3bbf: a6 12        	ldx	$12                     ; 0x12 <__rc2>
    3bc1: 86 14        	stx	$14                     ; 0x14 <__rc4>
    3bc3: a6 13        	ldx	$13                     ; 0x13 <__rc3>
    3bc5: 86 15        	stx	$15                     ; 0x15 <__rc5>
    3bc7: e6 14        	inc	$14                     ; 0x14 <__rc4>
    3bc9: d0 02        	bne	$3bcd <_ZN12_GLOBAL__N_15printEPKcP6Status+0x16>
    3bcb: e6 15        	inc	$15                     ; 0x15 <__rc5>
    3bcd: a0 01        	ldy	#$1
    3bcf: b1 12        	lda	($12),y                 ; 0x12 <__rc2>
    3bd1: c9 25        	cmp	#$25
    3bd3: d0 23        	bne	$3bf8 <_ZN12_GLOBAL__N_15printEPKcP6Status+0x41>
    3bd5: a9 25        	lda	#$25
    3bd7: a6 12        	ldx	$12                     ; 0x12 <__rc2>
    3bd9: 86 90        	stx	$90                     ; 0x90 <__rc31+0x61>
    3bdb: a6 13        	ldx	$13                     ; 0x13 <__rc3>
    3bdd: 86 91        	stx	$91                     ; 0x91 <__rc31+0x62>
    3bdf: a6 8e        	ldx	$8e                     ; 0x8e <__rc31+0x5f>
    3be1: 86 12        	stx	$12                     ; 0x12 <__rc2>
    3be3: a6 8f        	ldx	$8f                     ; 0x8f <__rc31+0x60>
    3be5: 86 13        	stx	$13                     ; 0x13 <__rc3>
    3be7: 20 2d 47     	jsr	$472d <_ZN12_GLOBAL__N_13putEcP6Status>
    3bea: a5 90        	lda	$90                     ; 0x90 <__rc31+0x61>
    3bec: 18           	clc
    3bed: 69 02        	adc	#$2
    3bef: 85 12        	sta	$12                     ; 0x12 <__rc2>
    3bf1: a5 91        	lda	$91                     ; 0x91 <__rc31+0x62>
    3bf3: 69 00        	adc	#$0
    3bf5: 85 13        	sta	$13                     ; 0x13 <__rc3>
    3bf7: 60           	rts
    3bf8: a6 8e        	ldx	$8e                     ; 0x8e <__rc31+0x5f>
    3bfa: a5 8e        	lda	$8e                     ; 0x8e <__rc31+0x5f>
    3bfc: 86 17        	stx	$17                     ; 0x17 <__rc7>
    3bfe: 18           	clc
    3bff: 69 0b        	adc	#$b
    3c01: 85 18        	sta	$18                     ; 0x18 <__rc8>
    3c03: a5 8f        	lda	$8f                     ; 0x8f <__rc31+0x60>
    3c05: 69 00        	adc	#$0
    3c07: a2 10        	ldx	#$10
    3c09: 86 95        	stx	$95                     ; 0x95 <__rc31+0x66>
    3c0b: 85 19        	sta	$19                     ; 0x19 <__rc9>
    3c0d: a0 0b        	ldy	#$b
    3c0f: a9 00        	lda	#$0
    3c11: 91 8e        	sta	($8e),y                 ; 0x8e <__rc31+0x5f>
    3c13: 18           	clc
    3c14: a5 17        	lda	$17                     ; 0x17 <__rc7>
    3c16: 69 0d        	adc	#$d
    3c18: a8           	tay
    3c19: a5 8f        	lda	$8f                     ; 0x8f <__rc31+0x60>
    3c1b: 69 00        	adc	#$0
    3c1d: a2 02        	ldx	#$2
    3c1f: 86 1f        	stx	$1f                     ; 0x1f <__rc15>
    3c21: 84 16        	sty	$16                     ; 0x16 <__rc6>
    3c23: a0 0d        	ldy	#$d
    3c25: 85 17        	sta	$17                     ; 0x17 <__rc7>
    3c27: a9 ff        	lda	#$ff
    3c29: 91 8e        	sta	($8e),y                 ; 0x8e <__rc31+0x5f>
    3c2b: a0 01        	ldy	#$1
    3c2d: 91 16        	sta	($16),y                 ; 0x16 <__rc6>
    3c2f: 18           	clc
    3c30: a2 00        	ldx	#$0
    3c32: 86 bb        	stx	$bb                     ; 0xbb <__rc31+0x8c>
    3c34: a6 8e        	ldx	$8e                     ; 0x8e <__rc31+0x5f>
    3c36: 86 16        	stx	$16                     ; 0x16 <__rc6>
    3c38: a6 8f        	ldx	$8f                     ; 0x8f <__rc31+0x60>
    3c3a: 86 17        	stx	$17                     ; 0x17 <__rc7>
    3c3c: e6 16        	inc	$16                     ; 0x16 <__rc6>
    3c3e: d0 02        	bne	$3c42 <_ZN12_GLOBAL__N_15printEPKcP6Status+0x8b>
    3c40: e6 17        	inc	$17                     ; 0x17 <__rc7>
    3c42: a9 00        	lda	#$0
    3c44: 91 8e        	sta	($8e),y                 ; 0x8e <__rc31+0x5f>
    3c46: 91 16        	sta	($16),y                 ; 0x16 <__rc6>
    3c48: 92 8e        	sta	($8e)                   ; 0x8e <__rc31+0x5f>
    3c4a: 91 18        	sta	($18),y                 ; 0x18 <__rc8>
    3c4c: 64 94        	stz	$94                     ; 0x94 <__rc31+0x65>
    3c4e: 80 33        	bra	$3c83 <_ZN12_GLOBAL__N_15printEPKcP6Status+0xcc>
    3c50: a2 02        	ldx	#$2
    3c52: 80 15        	bra	$3c69 <_ZN12_GLOBAL__N_15printEPKcP6Status+0xb2>
    3c54: e0 20        	cpx	#$20
    3c56: f0 15        	beq	$3c6d <_ZN12_GLOBAL__N_15printEPKcP6Status+0xb6>
    3c58: 86 19        	stx	$19                     ; 0x19 <__rc9>
    3c5a: e0 23        	cpx	#$23
    3c5c: f0 03        	beq	$3c61 <_ZN12_GLOBAL__N_15printEPKcP6Status+0xaa>
    3c5e: 4c d2 3c     	jmp	$3cd2 <_ZN12_GLOBAL__N_15printEPKcP6Status+0x11b>
    3c61: a5 94        	lda	$94                     ; 0x94 <__rc31+0x65>
    3c63: a2 04        	ldx	#$4
    3c65: 80 02        	bra	$3c69 <_ZN12_GLOBAL__N_15printEPKcP6Status+0xb2>
    3c67: a2 10        	ldx	#$10
    3c69: 86 18        	stx	$18                     ; 0x18 <__rc8>
    3c6b: 80 06        	bra	$3c73 <_ZN12_GLOBAL__N_15printEPKcP6Status+0xbc>
    3c6d: a2 08        	ldx	#$8
    3c6f: 86 18        	stx	$18                     ; 0x18 <__rc8>
    3c71: a5 94        	lda	$94                     ; 0x94 <__rc31+0x65>
    3c73: 05 18        	ora	$18                     ; 0x18 <__rc8>
    3c75: 85 94        	sta	$94                     ; 0x94 <__rc31+0x65>
    3c77: 91 8e        	sta	($8e),y                 ; 0x8e <__rc31+0x5f>
    3c79: a9 00        	lda	#$0
    3c7b: 91 16        	sta	($16),y                 ; 0x16 <__rc6>
    3c7d: e6 14        	inc	$14                     ; 0x14 <__rc4>
    3c7f: d0 02        	bne	$3c83 <_ZN12_GLOBAL__N_15printEPKcP6Status+0xcc>
    3c81: e6 15        	inc	$15                     ; 0x15 <__rc5>
    3c83: b2 14        	lda	($14)                   ; 0x14 <__rc4>
    3c85: 18           	clc
    3c86: aa           	tax
    3c87: 69 d6        	adc	#$d6
    3c89: c9 07        	cmp	#$7
    3c8b: b0 c7        	bcs	$3c54 <_ZN12_GLOBAL__N_15printEPKcP6Status+0x9d>
    3c8d: 86 19        	stx	$19                     ; 0x19 <__rc9>
    3c8f: 0a           	asl
    3c90: aa           	tax
    3c91: a9 01        	lda	#$1
    3c93: 85 18        	sta	$18                     ; 0x18 <__rc8>
    3c95: a5 94        	lda	$94                     ; 0x94 <__rc31+0x65>
    3c97: 7c ad 50     	jmp	($50ad,x)               ; 0x50ad <__set_v+0xdb>
    3c9a: a0 11        	ldy	#$11
    3c9c: a5 8e        	lda	$8e                     ; 0x8e <__rc31+0x5f>
    3c9e: 18           	clc
    3c9f: 69 11        	adc	#$11
    3ca1: 85 16        	sta	$16                     ; 0x16 <__rc6>
    3ca3: a5 8f        	lda	$8f                     ; 0x8f <__rc31+0x60>
    3ca5: 69 00        	adc	#$0
    3ca7: 85 17        	sta	$17                     ; 0x17 <__rc7>
    3ca9: b1 8e        	lda	($8e),y                 ; 0x8e <__rc31+0x5f>
    3cab: 85 18        	sta	$18                     ; 0x18 <__rc8>
    3cad: 18           	clc
    3cae: 69 02        	adc	#$2
    3cb0: 91 8e        	sta	($8e),y                 ; 0x8e <__rc31+0x5f>
    3cb2: a0 01        	ldy	#$1
    3cb4: b1 16        	lda	($16),y                 ; 0x16 <__rc6>
    3cb6: 85 19        	sta	$19                     ; 0x19 <__rc9>
    3cb8: 69 00        	adc	#$0
    3cba: 91 16        	sta	($16),y                 ; 0x16 <__rc6>
    3cbc: b2 18        	lda	($18)                   ; 0x18 <__rc8>
    3cbe: 85 17        	sta	$17                     ; 0x17 <__rc7>
    3cc0: b1 18        	lda	($18),y                 ; 0x18 <__rc8>
    3cc2: 85 16        	sta	$16                     ; 0x16 <__rc6>
    3cc4: 10 03        	bpl	$3cc9 <_ZN12_GLOBAL__N_15printEPKcP6Status+0x112>
    3cc6: 4c 67 3d     	jmp	$3d67 <_ZN12_GLOBAL__N_15printEPKcP6Status+0x1b0>
    3cc9: a6 17        	ldx	$17                     ; 0x17 <__rc7>
    3ccb: 86 1b        	stx	$1b                     ; 0x1b <__rc11>
    3ccd: 85 1a        	sta	$1a                     ; 0x1a <__rc10>
    3ccf: 4c 90 3d     	jmp	$3d90 <_ZN12_GLOBAL__N_15printEPKcP6Status+0x1d9>
    3cd2: 18           	clc
    3cd3: a5 19        	lda	$19                     ; 0x19 <__rc9>
    3cd5: 69 d0        	adc	#$d0
    3cd7: c9 0a        	cmp	#$a
    3cd9: 90 03        	bcc	$3cde <_ZN12_GLOBAL__N_15printEPKcP6Status+0x127>
    3cdb: 4c 41 3d     	jmp	$3d41 <_ZN12_GLOBAL__N_15printEPKcP6Status+0x18a>
    3cde: a6 19        	ldx	$19                     ; 0x19 <__rc9>
    3ce0: 86 16        	stx	$16                     ; 0x16 <__rc6>
    3ce2: 64 18        	stz	$18                     ; 0x18 <__rc8>
    3ce4: a0 01        	ldy	#$1
    3ce6: 64 17        	stz	$17                     ; 0x17 <__rc7>
    3ce8: 64 19        	stz	$19                     ; 0x19 <__rc9>
    3cea: 06 18        	asl	$18                     ; 0x18 <__rc8>
    3cec: 26 19        	rol	$19                     ; 0x19 <__rc9>
    3cee: a5 18        	lda	$18                     ; 0x18 <__rc8>
    3cf0: 0a           	asl
    3cf1: aa           	tax
    3cf2: a5 19        	lda	$19                     ; 0x19 <__rc9>
    3cf4: 2a           	rol
    3cf5: 86 1a        	stx	$1a                     ; 0x1a <__rc10>
    3cf7: 06 1a        	asl	$1a                     ; 0x1a <__rc10>
    3cf9: 2a           	rol
    3cfa: aa           	tax
    3cfb: a9 00        	lda	#$0
    3cfd: 85 1b        	sta	$1b                     ; 0x1b <__rc11>
    3cff: a5 1a        	lda	$1a                     ; 0x1a <__rc10>
    3d01: 5a           	phy
    3d02: a4 1b        	ldy	$1b                     ; 0x1b <__rc11>
    3d04: c0 01        	cpy	#$1
    3d06: 7a           	ply
    3d07: 65 18        	adc	$18                     ; 0x18 <__rc8>
    3d09: 85 18        	sta	$18                     ; 0x18 <__rc8>
    3d0b: 8a           	txa
    3d0c: 65 19        	adc	$19                     ; 0x19 <__rc9>
    3d0e: 85 19        	sta	$19                     ; 0x19 <__rc9>
    3d10: a5 18        	lda	$18                     ; 0x18 <__rc8>
    3d12: a6 1b        	ldx	$1b                     ; 0x1b <__rc11>
    3d14: e0 01        	cpx	#$1
    3d16: 65 16        	adc	$16                     ; 0x16 <__rc6>
    3d18: 85 16        	sta	$16                     ; 0x16 <__rc6>
    3d1a: a5 19        	lda	$19                     ; 0x19 <__rc9>
    3d1c: 65 17        	adc	$17                     ; 0x17 <__rc7>
    3d1e: aa           	tax
    3d1f: 18           	clc
    3d20: a5 16        	lda	$16                     ; 0x16 <__rc6>
    3d22: 69 d0        	adc	#$d0
    3d24: 85 18        	sta	$18                     ; 0x18 <__rc8>
    3d26: 8a           	txa
    3d27: 69 ff        	adc	#$ff
    3d29: 85 19        	sta	$19                     ; 0x19 <__rc9>
    3d2b: b1 14        	lda	($14),y                 ; 0x14 <__rc4>
    3d2d: 85 16        	sta	$16                     ; 0x16 <__rc6>
    3d2f: 18           	clc
    3d30: 69 d0        	adc	#$d0
    3d32: e6 14        	inc	$14                     ; 0x14 <__rc4>
    3d34: d0 02        	bne	$3d38 <_ZN12_GLOBAL__N_15printEPKcP6Status+0x181>
    3d36: e6 15        	inc	$15                     ; 0x15 <__rc5>
    3d38: c9 0a        	cmp	#$a
    3d3a: 64 17        	stz	$17                     ; 0x17 <__rc7>
    3d3c: b0 07        	bcs	$3d45 <_ZN12_GLOBAL__N_15printEPKcP6Status+0x18e>
    3d3e: 4c ea 3c     	jmp	$3cea <_ZN12_GLOBAL__N_15printEPKcP6Status+0x133>
    3d41: 64 18        	stz	$18                     ; 0x18 <__rc8>
    3d43: 64 19        	stz	$19                     ; 0x19 <__rc9>
    3d45: a5 8e        	lda	$8e                     ; 0x8e <__rc31+0x5f>
    3d47: 18           	clc
    3d48: 69 0b        	adc	#$b
    3d4a: 85 16        	sta	$16                     ; 0x16 <__rc6>
    3d4c: a5 8f        	lda	$8f                     ; 0x8f <__rc31+0x60>
    3d4e: 69 00        	adc	#$0
    3d50: 85 17        	sta	$17                     ; 0x17 <__rc7>
    3d52: a0 0b        	ldy	#$b
    3d54: a5 18        	lda	$18                     ; 0x18 <__rc8>
    3d56: 91 8e        	sta	($8e),y                 ; 0x8e <__rc31+0x5f>
    3d58: a6 18        	ldx	$18                     ; 0x18 <__rc8>
    3d5a: a0 01        	ldy	#$1
    3d5c: a5 19        	lda	$19                     ; 0x19 <__rc9>
    3d5e: 91 16        	sta	($16),y                 ; 0x16 <__rc6>
    3d60: 86 16        	stx	$16                     ; 0x16 <__rc6>
    3d62: 85 17        	sta	$17                     ; 0x17 <__rc7>
    3d64: 4c b9 3d     	jmp	$3db9 <_ZN12_GLOBAL__N_15printEPKcP6Status+0x202>
    3d67: a5 94        	lda	$94                     ; 0x94 <__rc31+0x65>
    3d69: 09 01        	ora	#$1
    3d6b: aa           	tax
    3d6c: a5 8e        	lda	$8e                     ; 0x8e <__rc31+0x5f>
    3d6e: 85 18        	sta	$18                     ; 0x18 <__rc8>
    3d70: a5 8f        	lda	$8f                     ; 0x8f <__rc31+0x60>
    3d72: 85 19        	sta	$19                     ; 0x19 <__rc9>
    3d74: 38           	sec
    3d75: a9 00        	lda	#$0
    3d77: e5 17        	sbc	$17                     ; 0x17 <__rc7>
    3d79: 85 1b        	sta	$1b                     ; 0x1b <__rc11>
    3d7b: a9 00        	lda	#$0
    3d7d: e5 16        	sbc	$16                     ; 0x16 <__rc6>
    3d7f: 85 1a        	sta	$1a                     ; 0x1a <__rc10>
    3d81: e6 18        	inc	$18                     ; 0x18 <__rc8>
    3d83: d0 02        	bne	$3d87 <_ZN12_GLOBAL__N_15printEPKcP6Status+0x1d0>
    3d85: e6 19        	inc	$19                     ; 0x19 <__rc9>
    3d87: 8a           	txa
    3d88: 86 94        	stx	$94                     ; 0x94 <__rc31+0x65>
    3d8a: 91 8e        	sta	($8e),y                 ; 0x8e <__rc31+0x5f>
    3d8c: a9 00        	lda	#$0
    3d8e: 91 18        	sta	($18),y                 ; 0x18 <__rc8>
    3d90: a2 01        	ldx	#$1
    3d92: a5 8e        	lda	$8e                     ; 0x8e <__rc31+0x5f>
    3d94: 18           	clc
    3d95: 69 0b        	adc	#$b
    3d97: 85 16        	sta	$16                     ; 0x16 <__rc6>
    3d99: a5 8f        	lda	$8f                     ; 0x8f <__rc31+0x60>
    3d9b: 69 00        	adc	#$0
    3d9d: 85 17        	sta	$17                     ; 0x17 <__rc7>
    3d9f: a0 0b        	ldy	#$b
    3da1: a5 1b        	lda	$1b                     ; 0x1b <__rc11>
    3da3: 91 8e        	sta	($8e),y                 ; 0x8e <__rc31+0x5f>
    3da5: 85 18        	sta	$18                     ; 0x18 <__rc8>
    3da7: a5 1a        	lda	$1a                     ; 0x1a <__rc10>
    3da9: a0 01        	ldy	#$1
    3dab: 91 16        	sta	($16),y                 ; 0x16 <__rc6>
    3dad: a6 18        	ldx	$18                     ; 0x18 <__rc8>
    3daf: 86 16        	stx	$16                     ; 0x16 <__rc6>
    3db1: 85 17        	sta	$17                     ; 0x17 <__rc7>
    3db3: e6 14        	inc	$14                     ; 0x14 <__rc4>
    3db5: d0 02        	bne	$3db9 <_ZN12_GLOBAL__N_15printEPKcP6Status+0x202>
    3db7: e6 15        	inc	$15                     ; 0x15 <__rc5>
    3db9: b2 14        	lda	($14)                   ; 0x14 <__rc4>
    3dbb: a2 ff        	ldx	#$ff
    3dbd: c9 2e        	cmp	#$2e
    3dbf: f0 03        	beq	$3dc4 <_ZN12_GLOBAL__N_15printEPKcP6Status+0x20d>
    3dc1: 4c 49 3e     	jmp	$3e49 <_ZN12_GLOBAL__N_15printEPKcP6Status+0x292>
    3dc4: a6 14        	ldx	$14                     ; 0x14 <__rc4>
    3dc6: 86 18        	stx	$18                     ; 0x18 <__rc8>
    3dc8: a6 15        	ldx	$15                     ; 0x15 <__rc5>
    3dca: 86 19        	stx	$19                     ; 0x19 <__rc9>
    3dcc: e6 18        	inc	$18                     ; 0x18 <__rc8>
    3dce: d0 02        	bne	$3dd2 <_ZN12_GLOBAL__N_15printEPKcP6Status+0x21b>
    3dd0: e6 19        	inc	$19                     ; 0x19 <__rc9>
    3dd2: a0 01        	ldy	#$1
    3dd4: b1 14        	lda	($14),y                 ; 0x14 <__rc4>
    3dd6: c9 2a        	cmp	#$2a
    3dd8: f0 03        	beq	$3ddd <_ZN12_GLOBAL__N_15printEPKcP6Status+0x226>
    3dda: 4c 50 3e     	jmp	$3e50 <_ZN12_GLOBAL__N_15printEPKcP6Status+0x299>
    3ddd: 84 19        	sty	$19                     ; 0x19 <__rc9>
    3ddf: a0 11        	ldy	#$11
    3de1: b1 8e        	lda	($8e),y                 ; 0x8e <__rc31+0x5f>
    3de3: 85 18        	sta	$18                     ; 0x18 <__rc8>
    3de5: 18           	clc
    3de6: 69 02        	adc	#$2
    3de8: a2 01        	ldx	#$1
    3dea: b0 02        	bcs	$3dee <_ZN12_GLOBAL__N_15printEPKcP6Status+0x237>
    3dec: a2 00        	ldx	#$0
    3dee: 86 1d        	stx	$1d                     ; 0x1d <__rc13>
    3df0: 91 8e        	sta	($8e),y                 ; 0x8e <__rc31+0x5f>
    3df2: a5 8e        	lda	$8e                     ; 0x8e <__rc31+0x5f>
    3df4: 18           	clc
    3df5: 69 11        	adc	#$11
    3df7: 85 1a        	sta	$1a                     ; 0x1a <__rc10>
    3df9: a5 8f        	lda	$8f                     ; 0x8f <__rc31+0x60>
    3dfb: 69 00        	adc	#$0
    3dfd: 85 1b        	sta	$1b                     ; 0x1b <__rc11>
    3dff: a4 19        	ldy	$19                     ; 0x19 <__rc9>
    3e01: b1 1a        	lda	($1a),y                 ; 0x1a <__rc10>
    3e03: 85 19        	sta	$19                     ; 0x19 <__rc9>
    3e05: a6 1d        	ldx	$1d                     ; 0x1d <__rc13>
    3e07: e0 01        	cpx	#$1
    3e09: 69 00        	adc	#$0
    3e0b: 91 1a        	sta	($1a),y                 ; 0x1a <__rc10>
    3e0d: b2 18        	lda	($18)                   ; 0x18 <__rc8>
    3e0f: 85 1b        	sta	$1b                     ; 0x1b <__rc11>
    3e11: 18           	clc
    3e12: a5 8e        	lda	$8e                     ; 0x8e <__rc31+0x5f>
    3e14: 69 0d        	adc	#$d
    3e16: 85 1a        	sta	$1a                     ; 0x1a <__rc10>
    3e18: a5 8f        	lda	$8f                     ; 0x8f <__rc31+0x60>
    3e1a: 69 00        	adc	#$0
    3e1c: aa           	tax
    3e1d: b1 18        	lda	($18),y                 ; 0x18 <__rc8>
    3e1f: 84 1d        	sty	$1d                     ; 0x1d <__rc13>
    3e21: 85 1c        	sta	$1c                     ; 0x1c <__rc12>
    3e23: a4 1a        	ldy	$1a                     ; 0x1a <__rc10>
    3e25: 84 18        	sty	$18                     ; 0x18 <__rc8>
    3e27: 86 19        	stx	$19                     ; 0x19 <__rc9>
    3e29: a5 1b        	lda	$1b                     ; 0x1b <__rc11>
    3e2b: 85 1a        	sta	$1a                     ; 0x1a <__rc10>
    3e2d: a0 0d        	ldy	#$d
    3e2f: 91 8e        	sta	($8e),y                 ; 0x8e <__rc31+0x5f>
    3e31: a5 1c        	lda	$1c                     ; 0x1c <__rc12>
    3e33: 85 1e        	sta	$1e                     ; 0x1e <__rc14>
    3e35: a4 1d        	ldy	$1d                     ; 0x1d <__rc13>
    3e37: 91 18        	sta	($18),y                 ; 0x18 <__rc8>
    3e39: a5 14        	lda	$14                     ; 0x14 <__rc4>
    3e3b: 18           	clc
    3e3c: 69 02        	adc	#$2
    3e3e: 85 18        	sta	$18                     ; 0x18 <__rc8>
    3e40: a5 15        	lda	$15                     ; 0x15 <__rc5>
    3e42: 69 00        	adc	#$0
    3e44: 85 19        	sta	$19                     ; 0x19 <__rc9>
    3e46: 4c 24 3f     	jmp	$3f24 <_ZN12_GLOBAL__N_15printEPKcP6Status+0x36d>
    3e49: 86 1a        	stx	$1a                     ; 0x1a <__rc10>
    3e4b: 86 1b        	stx	$1b                     ; 0x1b <__rc11>
    3e4d: 4c 4e 3f     	jmp	$3f4e <_ZN12_GLOBAL__N_15printEPKcP6Status+0x397>
    3e50: 18           	clc
    3e51: 85 1c        	sta	$1c                     ; 0x1c <__rc12>
    3e53: 69 d0        	adc	#$d0
    3e55: c9 0a        	cmp	#$a
    3e57: 90 03        	bcc	$3e5c <_ZN12_GLOBAL__N_15printEPKcP6Status+0x2a5>
    3e59: 4c 09 3f     	jmp	$3f09 <_ZN12_GLOBAL__N_15printEPKcP6Status+0x352>
    3e5c: 64 1b        	stz	$1b                     ; 0x1b <__rc11>
    3e5e: 64 22        	stz	$22                     ; 0x22 <__rc18>
    3e60: 64 1e        	stz	$1e                     ; 0x1e <__rc14>
    3e62: a2 01        	ldx	#$1
    3e64: 64 1a        	stz	$1a                     ; 0x1a <__rc10>
    3e66: 5a           	phy
    3e67: a4 1a        	ldy	$1a                     ; 0x1a <__rc10>
    3e69: 84 18        	sty	$18                     ; 0x18 <__rc8>
    3e6b: 86 19        	stx	$19                     ; 0x19 <__rc9>
    3e6d: a5 22        	lda	$22                     ; 0x22 <__rc18>
    3e6f: 0a           	asl
    3e70: 85 1d        	sta	$1d                     ; 0x1d <__rc13>
    3e72: 26 1e        	rol	$1e                     ; 0x1e <__rc14>
    3e74: 0a           	asl
    3e75: a4 1e        	ldy	$1e                     ; 0x1e <__rc14>
    3e77: 84 22        	sty	$22                     ; 0x22 <__rc18>
    3e79: 26 22        	rol	$22                     ; 0x22 <__rc18>
    3e7b: 0a           	asl
    3e7c: 26 22        	rol	$22                     ; 0x22 <__rc18>
    3e7e: 18           	clc
    3e7f: a0 01        	ldy	#$1
    3e81: b0 02        	bcs	$3e85 <_ZN12_GLOBAL__N_15printEPKcP6Status+0x2ce>
    3e83: a0 00        	ldy	#$0
    3e85: 84 23        	sty	$23                     ; 0x23 <__rc19>
    3e87: 65 1d        	adc	$1d                     ; 0x1d <__rc13>
    3e89: 85 90        	sta	$90                     ; 0x90 <__rc31+0x61>
    3e8b: a5 22        	lda	$22                     ; 0x22 <__rc18>
    3e8d: 65 1e        	adc	$1e                     ; 0x1e <__rc14>
    3e8f: 85 1d        	sta	$1d                     ; 0x1d <__rc13>
    3e91: a4 23        	ldy	$23                     ; 0x23 <__rc19>
    3e93: c0 01        	cpy	#$1
    3e95: a5 90        	lda	$90                     ; 0x90 <__rc31+0x61>
    3e97: 65 1c        	adc	$1c                     ; 0x1c <__rc12>
    3e99: 85 1c        	sta	$1c                     ; 0x1c <__rc12>
    3e9b: a5 1d        	lda	$1d                     ; 0x1d <__rc13>
    3e9d: 65 1b        	adc	$1b                     ; 0x1b <__rc11>
    3e9f: 85 1b        	sta	$1b                     ; 0x1b <__rc11>
    3ea1: 18           	clc
    3ea2: a5 1c        	lda	$1c                     ; 0x1c <__rc12>
    3ea4: 69 d0        	adc	#$d0
    3ea6: 85 1c        	sta	$1c                     ; 0x1c <__rc12>
    3ea8: a5 1b        	lda	$1b                     ; 0x1b <__rc11>
    3eaa: 69 ff        	adc	#$ff
    3eac: 85 1e        	sta	$1e                     ; 0x1e <__rc14>
    3eae: a4 1c        	ldy	$1c                     ; 0x1c <__rc12>
    3eb0: 84 22        	sty	$22                     ; 0x22 <__rc18>
    3eb2: e8           	inx
    3eb3: d0 02        	bne	$3eb7 <_ZN12_GLOBAL__N_15printEPKcP6Status+0x300>
    3eb5: e6 1a        	inc	$1a                     ; 0x1a <__rc10>
    3eb7: a5 14        	lda	$14                     ; 0x14 <__rc4>
    3eb9: a4 23        	ldy	$23                     ; 0x23 <__rc19>
    3ebb: c0 01        	cpy	#$1
    3ebd: 7a           	ply
    3ebe: 65 19        	adc	$19                     ; 0x19 <__rc9>
    3ec0: 85 1c        	sta	$1c                     ; 0x1c <__rc12>
    3ec2: a5 15        	lda	$15                     ; 0x15 <__rc5>
    3ec4: 65 18        	adc	$18                     ; 0x18 <__rc8>
    3ec6: 85 1d        	sta	$1d                     ; 0x1d <__rc13>
    3ec8: b1 1c        	lda	($1c),y                 ; 0x1c <__rc12>
    3eca: 85 1c        	sta	$1c                     ; 0x1c <__rc12>
    3ecc: 18           	clc
    3ecd: 69 d0        	adc	#$d0
    3ecf: c9 0a        	cmp	#$a
    3ed1: 64 1b        	stz	$1b                     ; 0x1b <__rc11>
    3ed3: b0 03        	bcs	$3ed8 <_ZN12_GLOBAL__N_15printEPKcP6Status+0x321>
    3ed5: 4c 66 3e     	jmp	$3e66 <_ZN12_GLOBAL__N_15printEPKcP6Status+0x2af>
    3ed8: a5 14        	lda	$14                     ; 0x14 <__rc4>
    3eda: 18           	clc
    3edb: 65 19        	adc	$19                     ; 0x19 <__rc9>
    3edd: aa           	tax
    3ede: a5 15        	lda	$15                     ; 0x15 <__rc5>
    3ee0: 65 18        	adc	$18                     ; 0x18 <__rc8>
    3ee2: 86 18        	stx	$18                     ; 0x18 <__rc8>
    3ee4: 85 19        	sta	$19                     ; 0x19 <__rc9>
    3ee6: a5 8e        	lda	$8e                     ; 0x8e <__rc31+0x5f>
    3ee8: 18           	clc
    3ee9: 69 0d        	adc	#$d
    3eeb: 85 14        	sta	$14                     ; 0x14 <__rc4>
    3eed: a5 8f        	lda	$8f                     ; 0x8f <__rc31+0x60>
    3eef: 69 00        	adc	#$0
    3ef1: a0 0d        	ldy	#$d
    3ef3: 85 15        	sta	$15                     ; 0x15 <__rc5>
    3ef5: a5 22        	lda	$22                     ; 0x22 <__rc18>
    3ef7: 85 1a        	sta	$1a                     ; 0x1a <__rc10>
    3ef9: 91 8e        	sta	($8e),y                 ; 0x8e <__rc31+0x5f>
    3efb: a0 01        	ldy	#$1
    3efd: a5 1e        	lda	$1e                     ; 0x1e <__rc14>
    3eff: 91 14        	sta	($14),y                 ; 0x14 <__rc4>
    3f01: e6 18        	inc	$18                     ; 0x18 <__rc8>
    3f03: d0 1f        	bne	$3f24 <_ZN12_GLOBAL__N_15printEPKcP6Status+0x36d>
    3f05: e6 19        	inc	$19                     ; 0x19 <__rc9>
    3f07: 80 1b        	bra	$3f24 <_ZN12_GLOBAL__N_15printEPKcP6Status+0x36d>
    3f09: a0 0d        	ldy	#$d
    3f0b: a5 8e        	lda	$8e                     ; 0x8e <__rc31+0x5f>
    3f0d: 18           	clc
    3f0e: 69 0d        	adc	#$d
    3f10: 85 14        	sta	$14                     ; 0x14 <__rc4>
    3f12: a5 8f        	lda	$8f                     ; 0x8f <__rc31+0x60>
    3f14: 69 00        	adc	#$0
    3f16: 85 15        	sta	$15                     ; 0x15 <__rc5>
    3f18: a9 00        	lda	#$0
    3f1a: 91 8e        	sta	($8e),y                 ; 0x8e <__rc31+0x5f>
    3f1c: a0 01        	ldy	#$1
    3f1e: 64 1a        	stz	$1a                     ; 0x1a <__rc10>
    3f20: 91 14        	sta	($14),y                 ; 0x14 <__rc4>
    3f22: 64 1e        	stz	$1e                     ; 0x1e <__rc14>
    3f24: a5 94        	lda	$94                     ; 0x94 <__rc31+0x65>
    3f26: 29 ef        	and	#$ef
    3f28: a6 8e        	ldx	$8e                     ; 0x8e <__rc31+0x5f>
    3f2a: 86 14        	stx	$14                     ; 0x14 <__rc4>
    3f2c: a6 8f        	ldx	$8f                     ; 0x8f <__rc31+0x60>
    3f2e: 86 15        	stx	$15                     ; 0x15 <__rc5>
    3f30: e6 14        	inc	$14                     ; 0x14 <__rc4>
    3f32: d0 02        	bne	$3f36 <_ZN12_GLOBAL__N_15printEPKcP6Status+0x37f>
    3f34: e6 15        	inc	$15                     ; 0x15 <__rc5>
    3f36: a0 01        	ldy	#$1
    3f38: 85 94        	sta	$94                     ; 0x94 <__rc31+0x65>
    3f3a: 91 8e        	sta	($8e),y                 ; 0x8e <__rc31+0x5f>
    3f3c: a9 00        	lda	#$0
    3f3e: 91 14        	sta	($14),y                 ; 0x14 <__rc4>
    3f40: b2 18        	lda	($18)                   ; 0x18 <__rc8>
    3f42: a6 1e        	ldx	$1e                     ; 0x1e <__rc14>
    3f44: 86 1b        	stx	$1b                     ; 0x1b <__rc11>
    3f46: a6 18        	ldx	$18                     ; 0x18 <__rc8>
    3f48: 86 14        	stx	$14                     ; 0x14 <__rc4>
    3f4a: a6 19        	ldx	$19                     ; 0x19 <__rc9>
    3f4c: 86 15        	stx	$15                     ; 0x15 <__rc5>
    3f4e: a6 14        	ldx	$14                     ; 0x14 <__rc4>
    3f50: 86 18        	stx	$18                     ; 0x18 <__rc8>
    3f52: a6 15        	ldx	$15                     ; 0x15 <__rc5>
    3f54: 86 19        	stx	$19                     ; 0x19 <__rc9>
    3f56: e6 18        	inc	$18                     ; 0x18 <__rc8>
    3f58: d0 02        	bne	$3f5c <_ZN12_GLOBAL__N_15printEPKcP6Status+0x3a5>
    3f5a: e6 19        	inc	$19                     ; 0x19 <__rc9>
    3f5c: 38           	sec
    3f5d: aa           	tax
    3f5e: e9 6c        	sbc	#$6c
    3f60: 50 02        	bvc	$3f64 <_ZN12_GLOBAL__N_15printEPKcP6Status+0x3ad>
    3f62: 49 80        	eor	#$80
    3f64: a8           	tay
    3f65: 10 20        	bpl	$3f87 <_ZN12_GLOBAL__N_15printEPKcP6Status+0x3d0>
    3f67: e0 4c        	cpx	#$4c
    3f69: f0 3a        	beq	$3fa5 <_ZN12_GLOBAL__N_15printEPKcP6Status+0x3ee>
    3f6b: 8a           	txa
    3f6c: e0 68        	cpx	#$68
    3f6e: d0 03        	bne	$3f73 <_ZN12_GLOBAL__N_15printEPKcP6Status+0x3bc>
    3f70: 4c 3b 40     	jmp	$403b <_ZN12_GLOBAL__N_15printEPKcP6Status+0x484>
    3f73: a0 08        	ldy	#$8
    3f75: a6 1f        	ldx	$1f                     ; 0x1f <__rc15>
    3f77: c9 6a        	cmp	#$6a
    3f79: d0 26        	bne	$3fa1 <_ZN12_GLOBAL__N_15printEPKcP6Status+0x3ea>
    3f7b: a6 18        	ldx	$18                     ; 0x18 <__rc8>
    3f7d: 86 14        	stx	$14                     ; 0x14 <__rc4>
    3f7f: a6 19        	ldx	$19                     ; 0x19 <__rc9>
    3f81: 86 15        	stx	$15                     ; 0x15 <__rc5>
    3f83: a2 08        	ldx	#$8
    3f85: 80 46        	bra	$3fcd <_ZN12_GLOBAL__N_15printEPKcP6Status+0x416>
    3f87: e0 6c        	cpx	#$6c
    3f89: d0 03        	bne	$3f8e <_ZN12_GLOBAL__N_15printEPKcP6Status+0x3d7>
    3f8b: 4c 1d 40     	jmp	$401d <_ZN12_GLOBAL__N_15printEPKcP6Status+0x466>
    3f8e: 8a           	txa
    3f8f: e0 74        	cpx	#$74
    3f91: f0 2e        	beq	$3fc1 <_ZN12_GLOBAL__N_15printEPKcP6Status+0x40a>
    3f93: a6 1f        	ldx	$1f                     ; 0x1f <__rc15>
    3f95: c9 7a        	cmp	#$7a
    3f97: d0 08        	bne	$3fa1 <_ZN12_GLOBAL__N_15printEPKcP6Status+0x3ea>
    3f99: a4 18        	ldy	$18                     ; 0x18 <__rc8>
    3f9b: 84 14        	sty	$14                     ; 0x14 <__rc4>
    3f9d: a4 19        	ldy	$19                     ; 0x19 <__rc9>
    3f9f: 84 15        	sty	$15                     ; 0x15 <__rc5>
    3fa1: a0 02        	ldy	#$2
    3fa3: 80 28        	bra	$3fcd <_ZN12_GLOBAL__N_15printEPKcP6Status+0x416>
    3fa5: a5 94        	lda	$94                     ; 0x94 <__rc31+0x65>
    3fa7: 09 40        	ora	#$40
    3fa9: a6 8e        	ldx	$8e                     ; 0x8e <__rc31+0x5f>
    3fab: 86 14        	stx	$14                     ; 0x14 <__rc4>
    3fad: a6 8f        	ldx	$8f                     ; 0x8f <__rc31+0x60>
    3faf: 86 15        	stx	$15                     ; 0x15 <__rc5>
    3fb1: e6 14        	inc	$14                     ; 0x14 <__rc4>
    3fb3: d0 02        	bne	$3fb7 <_ZN12_GLOBAL__N_15printEPKcP6Status+0x400>
    3fb5: e6 15        	inc	$15                     ; 0x15 <__rc5>
    3fb7: a0 01        	ldy	#$1
    3fb9: 85 94        	sta	$94                     ; 0x94 <__rc31+0x65>
    3fbb: 91 8e        	sta	($8e),y                 ; 0x8e <__rc31+0x5f>
    3fbd: a9 00        	lda	#$0
    3fbf: 91 14        	sta	($14),y                 ; 0x14 <__rc4>
    3fc1: a6 18        	ldx	$18                     ; 0x18 <__rc8>
    3fc3: 86 14        	stx	$14                     ; 0x14 <__rc4>
    3fc5: a6 19        	ldx	$19                     ; 0x19 <__rc9>
    3fc7: 86 15        	stx	$15                     ; 0x15 <__rc5>
    3fc9: a0 02        	ldy	#$2
    3fcb: a6 1f        	ldx	$1f                     ; 0x1f <__rc15>
    3fcd: b2 14        	lda	($14)                   ; 0x14 <__rc4>
    3fcf: 5a           	phy
    3fd0: a4 14        	ldy	$14                     ; 0x14 <__rc4>
    3fd2: 84 18        	sty	$18                     ; 0x18 <__rc8>
    3fd4: a4 15        	ldy	$15                     ; 0x15 <__rc5>
    3fd6: 84 19        	sty	$19                     ; 0x19 <__rc9>
    3fd8: 7a           	ply
    3fd9: 86 90        	stx	$90                     ; 0x90 <__rc31+0x61>
    3fdb: 5a           	phy
    3fdc: fa           	plx
    3fdd: 18           	clc
    3fde: a8           	tay
    3fdf: 69 9d        	adc	#$9d
    3fe1: c9 16        	cmp	#$16
    3fe3: 86 96        	stx	$96                     ; 0x96 <__rc31+0x67>
    3fe5: 90 03        	bcc	$3fea <_ZN12_GLOBAL__N_15printEPKcP6Status+0x433>
    3fe7: 4c 5a 40     	jmp	$405a <_ZN12_GLOBAL__N_15printEPKcP6Status+0x4a3>
    3fea: 0a           	asl
    3feb: aa           	tax
    3fec: 7c bb 50     	jmp	($50bb,x)               ; 0x50bb <__set_v+0xe9>
    3fef: a5 1b        	lda	$1b                     ; 0x1b <__rc11>
    3ff1: 85 bc        	sta	$bc                     ; 0xbc <__rc31+0x8d>
    3ff3: a4 1a        	ldy	$1a                     ; 0x1a <__rc10>
    3ff5: 84 bd        	sty	$bd                     ; 0xbd <__rc31+0x8e>
    3ff7: a6 16        	ldx	$16                     ; 0x16 <__rc6>
    3ff9: 86 bf        	stx	$bf                     ; 0xbf <__rc31+0x90>
    3ffb: a6 17        	ldx	$17                     ; 0x17 <__rc7>
    3ffd: 86 be        	stx	$be                     ; 0xbe <__rc31+0x8f>
    3fff: a6 18        	ldx	$18                     ; 0x18 <__rc8>
    4001: 86 12        	stx	$12                     ; 0x12 <__rc2>
    4003: a6 19        	ldx	$19                     ; 0x19 <__rc9>
    4005: 86 13        	stx	$13                     ; 0x13 <__rc3>
    4007: a6 12        	ldx	$12                     ; 0x12 <__rc2>
    4009: 86 b9        	stx	$b9                     ; 0xb9 <__rc31+0x8a>
    400b: a6 13        	ldx	$13                     ; 0x13 <__rc3>
    400d: 86 ba        	stx	$ba                     ; 0xba <__rc31+0x8b>
    400f: a9 0a        	lda	#$a
    4011: aa           	tax
    4012: 86 95        	stx	$95                     ; 0x95 <__rc31+0x66>
    4014: 92 8e        	sta	($8e)                   ; 0x8e <__rc31+0x5f>
    4016: a2 00        	ldx	#$0
    4018: 86 c0        	stx	$c0                     ; 0xc0 <__rc31+0x91>
    401a: 4c 65 42     	jmp	$4265 <_ZN12_GLOBAL__N_15printEPKcP6Status+0x6ae>
    401d: a0 01        	ldy	#$1
    401f: b1 14        	lda	($14),y                 ; 0x14 <__rc4>
    4021: a2 04        	ldx	#$4
    4023: c9 6c        	cmp	#$6c
    4025: d0 2e        	bne	$4055 <_ZN12_GLOBAL__N_15printEPKcP6Status+0x49e>
    4027: a5 14        	lda	$14                     ; 0x14 <__rc4>
    4029: 18           	clc
    402a: 69 02        	adc	#$2
    402c: 85 14        	sta	$14                     ; 0x14 <__rc4>
    402e: a5 15        	lda	$15                     ; 0x15 <__rc5>
    4030: 69 00        	adc	#$0
    4032: 85 15        	sta	$15                     ; 0x15 <__rc5>
    4034: a2 08        	ldx	#$8
    4036: a0 08        	ldy	#$8
    4038: 4c cd 3f     	jmp	$3fcd <_ZN12_GLOBAL__N_15printEPKcP6Status+0x416>
    403b: a0 01        	ldy	#$1
    403d: b1 14        	lda	($14),y                 ; 0x14 <__rc4>
    403f: a2 02        	ldx	#$2
    4041: c9 68        	cmp	#$68
    4043: d0 10        	bne	$4055 <_ZN12_GLOBAL__N_15printEPKcP6Status+0x49e>
    4045: a5 14        	lda	$14                     ; 0x14 <__rc4>
    4047: 18           	clc
    4048: 69 02        	adc	#$2
    404a: 85 14        	sta	$14                     ; 0x14 <__rc4>
    404c: a5 15        	lda	$15                     ; 0x15 <__rc5>
    404e: 69 00        	adc	#$0
    4050: 85 15        	sta	$15                     ; 0x15 <__rc5>
    4052: 4c cb 3f     	jmp	$3fcb <_ZN12_GLOBAL__N_15printEPKcP6Status+0x414>
    4055: 86 90        	stx	$90                     ; 0x90 <__rc31+0x61>
    4057: 4c dd 3f     	jmp	$3fdd <_ZN12_GLOBAL__N_15printEPKcP6Status+0x426>
    405a: c0 58        	cpy	#$58
    405c: f0 03        	beq	$4061 <_ZN12_GLOBAL__N_15printEPKcP6Status+0x4aa>
    405e: 4c fa 46     	jmp	$46fa <_ZN12_GLOBAL__N_15printEPKcP6Status+0xb43>
    4061: a5 1b        	lda	$1b                     ; 0x1b <__rc11>
    4063: 85 bc        	sta	$bc                     ; 0xbc <__rc31+0x8d>
    4065: a4 1a        	ldy	$1a                     ; 0x1a <__rc10>
    4067: 84 bd        	sty	$bd                     ; 0xbd <__rc31+0x8e>
    4069: a6 16        	ldx	$16                     ; 0x16 <__rc6>
    406b: 86 bf        	stx	$bf                     ; 0xbf <__rc31+0x90>
    406d: a6 17        	ldx	$17                     ; 0x17 <__rc7>
    406f: 86 be        	stx	$be                     ; 0xbe <__rc31+0x8f>
    4071: a6 18        	ldx	$18                     ; 0x18 <__rc8>
    4073: 86 12        	stx	$12                     ; 0x12 <__rc2>
    4075: a6 19        	ldx	$19                     ; 0x19 <__rc9>
    4077: 86 13        	stx	$13                     ; 0x13 <__rc3>
    4079: a6 12        	ldx	$12                     ; 0x12 <__rc2>
    407b: 86 b9        	stx	$b9                     ; 0xb9 <__rc31+0x8a>
    407d: a6 13        	ldx	$13                     ; 0x13 <__rc3>
    407f: 86 ba        	stx	$ba                     ; 0xba <__rc31+0x8b>
    4081: a9 10        	lda	#$10
    4083: 4c 45 42     	jmp	$4245 <_ZN12_GLOBAL__N_15printEPKcP6Status+0x68e>
    4086: a5 1b        	lda	$1b                     ; 0x1b <__rc11>
    4088: 85 bc        	sta	$bc                     ; 0xbc <__rc31+0x8d>
    408a: a4 1a        	ldy	$1a                     ; 0x1a <__rc10>
    408c: 84 bd        	sty	$bd                     ; 0xbd <__rc31+0x8e>
    408e: a6 16        	ldx	$16                     ; 0x16 <__rc6>
    4090: 86 bf        	stx	$bf                     ; 0xbf <__rc31+0x90>
    4092: a6 17        	ldx	$17                     ; 0x17 <__rc7>
    4094: 86 be        	stx	$be                     ; 0xbe <__rc31+0x8f>
    4096: a6 18        	ldx	$18                     ; 0x18 <__rc8>
    4098: 86 12        	stx	$12                     ; 0x12 <__rc2>
    409a: a6 19        	ldx	$19                     ; 0x19 <__rc9>
    409c: 86 13        	stx	$13                     ; 0x13 <__rc3>
    409e: a6 12        	ldx	$12                     ; 0x12 <__rc2>
    40a0: 86 b9        	stx	$b9                     ; 0xb9 <__rc31+0x8a>
    40a2: a6 13        	ldx	$13                     ; 0x13 <__rc3>
    40a4: 86 ba        	stx	$ba                     ; 0xba <__rc31+0x8b>
    40a6: a9 10        	lda	#$10
    40a8: 92 8e        	sta	($8e)                   ; 0x8e <__rc31+0x5f>
    40aa: a5 94        	lda	$94                     ; 0x94 <__rc31+0x65>
    40ac: 09 84        	ora	#$84
    40ae: 80 28        	bra	$40d8 <_ZN12_GLOBAL__N_15printEPKcP6Status+0x521>
    40b0: a5 1b        	lda	$1b                     ; 0x1b <__rc11>
    40b2: 85 bc        	sta	$bc                     ; 0xbc <__rc31+0x8d>
    40b4: a4 1a        	ldy	$1a                     ; 0x1a <__rc10>
    40b6: 84 bd        	sty	$bd                     ; 0xbd <__rc31+0x8e>
    40b8: a6 16        	ldx	$16                     ; 0x16 <__rc6>
    40ba: 86 bf        	stx	$bf                     ; 0xbf <__rc31+0x90>
    40bc: a6 17        	ldx	$17                     ; 0x17 <__rc7>
    40be: 86 be        	stx	$be                     ; 0xbe <__rc31+0x8f>
    40c0: a6 18        	ldx	$18                     ; 0x18 <__rc8>
    40c2: 86 12        	stx	$12                     ; 0x12 <__rc2>
    40c4: a6 19        	ldx	$19                     ; 0x19 <__rc9>
    40c6: 86 13        	stx	$13                     ; 0x13 <__rc3>
    40c8: a6 12        	ldx	$12                     ; 0x12 <__rc2>
    40ca: 86 b9        	stx	$b9                     ; 0xb9 <__rc31+0x8a>
    40cc: a6 13        	ldx	$13                     ; 0x13 <__rc3>
    40ce: 86 ba        	stx	$ba                     ; 0xba <__rc31+0x8b>
    40d0: a9 10        	lda	#$10
    40d2: 92 8e        	sta	($8e)                   ; 0x8e <__rc31+0x5f>
    40d4: a5 94        	lda	$94                     ; 0x94 <__rc31+0x65>
    40d6: 09 80        	ora	#$80
    40d8: 85 14        	sta	$14                     ; 0x14 <__rc4>
    40da: a9 00        	lda	#$0
    40dc: 09 01        	ora	#$1
    40de: aa           	tax
    40df: a4 8e        	ldy	$8e                     ; 0x8e <__rc31+0x5f>
    40e1: 84 12        	sty	$12                     ; 0x12 <__rc2>
    40e3: a4 8f        	ldy	$8f                     ; 0x8f <__rc31+0x60>
    40e5: 84 13        	sty	$13                     ; 0x13 <__rc3>
    40e7: e6 12        	inc	$12                     ; 0x12 <__rc2>
    40e9: d0 02        	bne	$40ed <_ZN12_GLOBAL__N_15printEPKcP6Status+0x536>
    40eb: e6 13        	inc	$13                     ; 0x13 <__rc3>
    40ed: a0 01        	ldy	#$1
    40ef: a5 14        	lda	$14                     ; 0x14 <__rc4>
    40f1: 85 94        	sta	$94                     ; 0x94 <__rc31+0x65>
    40f3: 4c 5e 42     	jmp	$425e <_ZN12_GLOBAL__N_15printEPKcP6Status+0x6a7>
    40f6: a4 8e        	ldy	$8e                     ; 0x8e <__rc31+0x5f>
    40f8: a5 8e        	lda	$8e                     ; 0x8e <__rc31+0x5f>
    40fa: 84 16        	sty	$16                     ; 0x16 <__rc6>
    40fc: 18           	clc
    40fd: 69 11        	adc	#$11
    40ff: 85 12        	sta	$12                     ; 0x12 <__rc2>
    4101: a5 8f        	lda	$8f                     ; 0x8f <__rc31+0x60>
    4103: 69 00        	adc	#$0
    4105: 85 13        	sta	$13                     ; 0x13 <__rc3>
    4107: a0 11        	ldy	#$11
    4109: b1 8e        	lda	($8e),y                 ; 0x8e <__rc31+0x5f>
    410b: 85 14        	sta	$14                     ; 0x14 <__rc4>
    410d: 18           	clc
    410e: 69 02        	adc	#$2
    4110: 91 8e        	sta	($8e),y                 ; 0x8e <__rc31+0x5f>
    4112: a0 01        	ldy	#$1
    4114: b1 12        	lda	($12),y                 ; 0x12 <__rc2>
    4116: 85 15        	sta	$15                     ; 0x15 <__rc5>
    4118: 69 00        	adc	#$0
    411a: 18           	clc
    411b: 91 12        	sta	($12),y                 ; 0x12 <__rc2>
    411d: b2 14        	lda	($14)                   ; 0x14 <__rc4>
    411f: 85 12        	sta	$12                     ; 0x12 <__rc2>
    4121: b1 14        	lda	($14),y                 ; 0x14 <__rc4>
    4123: 84 17        	sty	$17                     ; 0x17 <__rc7>
    4125: 85 13        	sta	$13                     ; 0x13 <__rc3>
    4127: a5 16        	lda	$16                     ; 0x16 <__rc6>
    4129: 69 05        	adc	#$5
    412b: 85 14        	sta	$14                     ; 0x14 <__rc4>
    412d: a5 8f        	lda	$8f                     ; 0x8f <__rc31+0x60>
    412f: 69 00        	adc	#$0
    4131: 85 15        	sta	$15                     ; 0x15 <__rc5>
    4133: a0 05        	ldy	#$5
    4135: b1 8e        	lda	($8e),y                 ; 0x8e <__rc31+0x5f>
    4137: 85 16        	sta	$16                     ; 0x16 <__rc6>
    4139: a4 17        	ldy	$17                     ; 0x17 <__rc7>
    413b: b1 14        	lda	($14),y                 ; 0x14 <__rc4>
    413d: 85 14        	sta	$14                     ; 0x14 <__rc4>
    413f: a5 16        	lda	$16                     ; 0x16 <__rc6>
    4141: 92 12        	sta	($12)                   ; 0x12 <__rc2>
    4143: a5 14        	lda	$14                     ; 0x14 <__rc4>
    4145: 91 12        	sta	($12),y                 ; 0x12 <__rc2>
    4147: e6 18        	inc	$18                     ; 0x18 <__rc8>
    4149: d0 02        	bne	$414d <_ZN12_GLOBAL__N_15printEPKcP6Status+0x596>
    414b: e6 19        	inc	$19                     ; 0x19 <__rc9>
    414d: a6 18        	ldx	$18                     ; 0x18 <__rc8>
    414f: 86 12        	stx	$12                     ; 0x12 <__rc2>
    4151: a6 19        	ldx	$19                     ; 0x19 <__rc9>
    4153: 4c 1d 42     	jmp	$421d <_ZN12_GLOBAL__N_15printEPKcP6Status+0x666>
    4156: a0 11        	ldy	#$11
    4158: a5 8e        	lda	$8e                     ; 0x8e <__rc31+0x5f>
    415a: 18           	clc
    415b: 69 11        	adc	#$11
    415d: 85 12        	sta	$12                     ; 0x12 <__rc2>
    415f: a5 8f        	lda	$8f                     ; 0x8f <__rc31+0x60>
    4161: 69 00        	adc	#$0
    4163: 85 13        	sta	$13                     ; 0x13 <__rc3>
    4165: b1 8e        	lda	($8e),y                 ; 0x8e <__rc31+0x5f>
    4167: aa           	tax
    4168: 84 17        	sty	$17                     ; 0x17 <__rc7>
    416a: a0 01        	ldy	#$1
    416c: b1 12        	lda	($12),y                 ; 0x12 <__rc2>
    416e: 86 14        	stx	$14                     ; 0x14 <__rc4>
    4170: 85 15        	sta	$15                     ; 0x15 <__rc5>
    4172: a8           	tay
    4173: 18           	clc
    4174: 8a           	txa
    4175: 69 02        	adc	#$2
    4177: 85 16        	sta	$16                     ; 0x16 <__rc6>
    4179: 98           	tya
    417a: 69 00        	adc	#$0
    417c: 85 1a        	sta	$1a                     ; 0x1a <__rc10>
    417e: a5 16        	lda	$16                     ; 0x16 <__rc6>
    4180: a4 17        	ldy	$17                     ; 0x17 <__rc7>
    4182: 91 8e        	sta	($8e),y                 ; 0x8e <__rc31+0x5f>
    4184: a0 01        	ldy	#$1
    4186: a5 1a        	lda	$1a                     ; 0x1a <__rc10>
    4188: 91 12        	sta	($12),y                 ; 0x12 <__rc2>
    418a: b2 14        	lda	($14)                   ; 0x14 <__rc4>
    418c: 85 12        	sta	$12                     ; 0x12 <__rc2>
    418e: b1 14        	lda	($14),y                 ; 0x14 <__rc4>
    4190: 85 13        	sta	$13                     ; 0x13 <__rc3>
    4192: 4c fe 41     	jmp	$41fe <_ZN12_GLOBAL__N_15printEPKcP6Status+0x647>
    4195: a5 1b        	lda	$1b                     ; 0x1b <__rc11>
    4197: 85 bc        	sta	$bc                     ; 0xbc <__rc31+0x8d>
    4199: a4 1a        	ldy	$1a                     ; 0x1a <__rc10>
    419b: 84 bd        	sty	$bd                     ; 0xbd <__rc31+0x8e>
    419d: a6 16        	ldx	$16                     ; 0x16 <__rc6>
    419f: 86 bf        	stx	$bf                     ; 0xbf <__rc31+0x90>
    41a1: a6 17        	ldx	$17                     ; 0x17 <__rc7>
    41a3: 86 be        	stx	$be                     ; 0xbe <__rc31+0x8f>
    41a5: a6 18        	ldx	$18                     ; 0x18 <__rc8>
    41a7: 86 12        	stx	$12                     ; 0x12 <__rc2>
    41a9: a6 19        	ldx	$19                     ; 0x19 <__rc9>
    41ab: 86 13        	stx	$13                     ; 0x13 <__rc3>
    41ad: a6 12        	ldx	$12                     ; 0x12 <__rc2>
    41af: 86 b9        	stx	$b9                     ; 0xb9 <__rc31+0x8a>
    41b1: a6 13        	ldx	$13                     ; 0x13 <__rc3>
    41b3: 86 ba        	stx	$ba                     ; 0xba <__rc31+0x8b>
    41b5: a9 08        	lda	#$8
    41b7: 4c 42 42     	jmp	$4242 <_ZN12_GLOBAL__N_15printEPKcP6Status+0x68b>
    41ba: a0 11        	ldy	#$11
    41bc: a5 8e        	lda	$8e                     ; 0x8e <__rc31+0x5f>
    41be: 18           	clc
    41bf: 69 11        	adc	#$11
    41c1: 85 12        	sta	$12                     ; 0x12 <__rc2>
    41c3: a5 8f        	lda	$8f                     ; 0x8f <__rc31+0x60>
    41c5: 69 00        	adc	#$0
    41c7: 85 13        	sta	$13                     ; 0x13 <__rc3>
    41c9: b1 8e        	lda	($8e),y                 ; 0x8e <__rc31+0x5f>
    41cb: aa           	tax
    41cc: 84 17        	sty	$17                     ; 0x17 <__rc7>
    41ce: a0 01        	ldy	#$1
    41d0: b1 12        	lda	($12),y                 ; 0x12 <__rc2>
    41d2: 84 1a        	sty	$1a                     ; 0x1a <__rc10>
    41d4: 86 14        	stx	$14                     ; 0x14 <__rc4>
    41d6: 85 15        	sta	$15                     ; 0x15 <__rc5>
    41d8: a8           	tay
    41d9: 18           	clc
    41da: 8a           	txa
    41db: 69 02        	adc	#$2
    41dd: 85 16        	sta	$16                     ; 0x16 <__rc6>
    41df: 98           	tya
    41e0: 69 00        	adc	#$0
    41e2: 85 1b        	sta	$1b                     ; 0x1b <__rc11>
    41e4: a5 16        	lda	$16                     ; 0x16 <__rc6>
    41e6: a4 17        	ldy	$17                     ; 0x17 <__rc7>
    41e8: 91 8e        	sta	($8e),y                 ; 0x8e <__rc31+0x5f>
    41ea: a4 1a        	ldy	$1a                     ; 0x1a <__rc10>
    41ec: a5 1b        	lda	$1b                     ; 0x1b <__rc11>
    41ee: 91 12        	sta	($12),y                 ; 0x12 <__rc2>
    41f0: b2 14        	lda	($14)                   ; 0x14 <__rc4>
    41f2: 85 99        	sta	$99                     ; 0x99 <__rc31+0x6a>
    41f4: 64 9a        	stz	$9a                     ; 0x9a <__rc31+0x6b>
    41f6: a2 99        	ldx	#$99
    41f8: a0 00        	ldy	#$0
    41fa: 86 12        	stx	$12                     ; 0x12 <__rc2>
    41fc: 84 13        	sty	$13                     ; 0x13 <__rc3>
    41fe: a6 18        	ldx	$18                     ; 0x18 <__rc8>
    4200: 86 90        	stx	$90                     ; 0x90 <__rc31+0x61>
    4202: a6 19        	ldx	$19                     ; 0x19 <__rc9>
    4204: 86 91        	stx	$91                     ; 0x91 <__rc31+0x62>
    4206: a6 8e        	ldx	$8e                     ; 0x8e <__rc31+0x5f>
    4208: 86 14        	stx	$14                     ; 0x14 <__rc4>
    420a: a6 8f        	ldx	$8f                     ; 0x8f <__rc31+0x60>
    420c: 86 15        	stx	$15                     ; 0x15 <__rc5>
    420e: 20 04 48     	jsr	$4804 <_ZN12_GLOBAL__N_112print_stringEPKcP6Status>
    4211: e6 90        	inc	$90                     ; 0x90 <__rc31+0x61>
    4213: d0 02        	bne	$4217 <_ZN12_GLOBAL__N_15printEPKcP6Status+0x660>
    4215: e6 91        	inc	$91                     ; 0x91 <__rc31+0x62>
    4217: a6 90        	ldx	$90                     ; 0x90 <__rc31+0x61>
    4219: 86 12        	stx	$12                     ; 0x12 <__rc2>
    421b: a6 91        	ldx	$91                     ; 0x91 <__rc31+0x62>
    421d: 86 13        	stx	$13                     ; 0x13 <__rc3>
    421f: 60           	rts
    4220: a5 1b        	lda	$1b                     ; 0x1b <__rc11>
    4222: 85 bc        	sta	$bc                     ; 0xbc <__rc31+0x8d>
    4224: a4 1a        	ldy	$1a                     ; 0x1a <__rc10>
    4226: 84 bd        	sty	$bd                     ; 0xbd <__rc31+0x8e>
    4228: a6 16        	ldx	$16                     ; 0x16 <__rc6>
    422a: 86 bf        	stx	$bf                     ; 0xbf <__rc31+0x90>
    422c: a6 17        	ldx	$17                     ; 0x17 <__rc7>
    422e: 86 be        	stx	$be                     ; 0xbe <__rc31+0x8f>
    4230: a6 18        	ldx	$18                     ; 0x18 <__rc8>
    4232: 86 12        	stx	$12                     ; 0x12 <__rc2>
    4234: a6 19        	ldx	$19                     ; 0x19 <__rc9>
    4236: 86 13        	stx	$13                     ; 0x13 <__rc3>
    4238: a6 12        	ldx	$12                     ; 0x12 <__rc2>
    423a: 86 b9        	stx	$b9                     ; 0xb9 <__rc31+0x8a>
    423c: a6 13        	ldx	$13                     ; 0x13 <__rc3>
    423e: 86 ba        	stx	$ba                     ; 0xba <__rc31+0x8b>
    4240: a9 0a        	lda	#$a
    4242: aa           	tax
    4243: 86 95        	stx	$95                     ; 0x95 <__rc31+0x66>
    4245: 92 8e        	sta	($8e)                   ; 0x8e <__rc31+0x5f>
    4247: a9 00        	lda	#$0
    4249: 09 01        	ora	#$1
    424b: aa           	tax
    424c: a4 8e        	ldy	$8e                     ; 0x8e <__rc31+0x5f>
    424e: 84 12        	sty	$12                     ; 0x12 <__rc2>
    4250: a4 8f        	ldy	$8f                     ; 0x8f <__rc31+0x60>
    4252: 84 13        	sty	$13                     ; 0x13 <__rc3>
    4254: e6 12        	inc	$12                     ; 0x12 <__rc2>
    4256: d0 02        	bne	$425a <_ZN12_GLOBAL__N_15printEPKcP6Status+0x6a3>
    4258: e6 13        	inc	$13                     ; 0x13 <__rc3>
    425a: a0 01        	ldy	#$1
    425c: a5 94        	lda	$94                     ; 0x94 <__rc31+0x65>
    425e: 91 8e        	sta	($8e),y                 ; 0x8e <__rc31+0x5f>
    4260: 8a           	txa
    4261: 86 c0        	stx	$c0                     ; 0xc0 <__rc31+0x91>
    4263: 91 12        	sta	($12),y                 ; 0x12 <__rc2>
    4265: a2 b0        	ldx	#$b0
    4267: a0 00        	ldy	#$0
    4269: 86 12        	stx	$12                     ; 0x12 <__rc2>
    426b: 84 13        	sty	$13                     ; 0x13 <__rc3>
    426d: e6 12        	inc	$12                     ; 0x12 <__rc2>
    426f: d0 02        	bne	$4273 <_ZN12_GLOBAL__N_15printEPKcP6Status+0x6bc>
    4271: e6 13        	inc	$13                     ; 0x13 <__rc3>
    4273: a0 11        	ldy	#$11
    4275: a2 00        	ldx	#$0
    4277: a5 8e        	lda	$8e                     ; 0x8e <__rc31+0x5f>
    4279: 18           	clc
    427a: 69 11        	adc	#$11
    427c: 85 92        	sta	$92                     ; 0x92 <__rc31+0x63>
    427e: a5 8f        	lda	$8f                     ; 0x8f <__rc31+0x60>
    4280: 69 00        	adc	#$0
    4282: 85 93        	sta	$93                     ; 0x93 <__rc31+0x64>
    4284: b1 8e        	lda	($8e),y                 ; 0x8e <__rc31+0x5f>
    4286: 85 91        	sta	$91                     ; 0x91 <__rc31+0x62>
    4288: a0 01        	ldy	#$1
    428a: b1 92        	lda	($92),y                 ; 0x92 <__rc31+0x63>
    428c: a4 91        	ldy	$91                     ; 0x91 <__rc31+0x62>
    428e: 84 14        	sty	$14                     ; 0x14 <__rc4>
    4290: 85 15        	sta	$15                     ; 0x15 <__rc5>
    4292: 85 98        	sta	$98                     ; 0x98 <__rc31+0x69>
    4294: 64 97        	stz	$97                     ; 0x97 <__rc31+0x68>
    4296: a5 96        	lda	$96                     ; 0x96 <__rc31+0x67>
    4298: a4 96        	ldy	$96                     ; 0x96 <__rc31+0x67>
    429a: 84 c1        	sty	$c1                     ; 0xc1 <__rc31+0x92>
    429c: 20 3f 4e     	jsr	$4e3f <memcpy>
    429f: a2 00        	ldx	#$0
    42a1: 86 18        	stx	$18                     ; 0x18 <__rc8>
    42a3: 18           	clc
    42a4: a5 91        	lda	$91                     ; 0x91 <__rc31+0x62>
    42a6: 65 90        	adc	$90                     ; 0x90 <__rc31+0x61>
    42a8: aa           	tax
    42a9: a5 98        	lda	$98                     ; 0x98 <__rc31+0x69>
    42ab: 69 00        	adc	#$0
    42ad: 85 12        	sta	$12                     ; 0x12 <__rc2>
    42af: a0 11        	ldy	#$11
    42b1: 8a           	txa
    42b2: 91 8e        	sta	($8e),y                 ; 0x8e <__rc31+0x5f>
    42b4: a5 12        	lda	$12                     ; 0x12 <__rc2>
    42b6: a0 01        	ldy	#$1
    42b8: 91 92        	sta	($92),y                 ; 0x92 <__rc31+0x63>
    42ba: a5 c0        	lda	$c0                     ; 0xc0 <__rc31+0x91>
    42bc: 29 01        	and	#$1
    42be: d0 4f        	bne	$430f <_ZN12_GLOBAL__N_15printEPKcP6Status+0x758>
    42c0: a6 c1        	ldx	$c1                     ; 0xc1 <__rc31+0x92>
    42c2: b4 b0        	ldy	$b0,x                   ; 0xb0 <__rc31+0x81>
    42c4: a6 be        	ldx	$be                     ; 0xbe <__rc31+0x8f>
    42c6: 86 12        	stx	$12                     ; 0x12 <__rc2>
    42c8: a6 bf        	ldx	$bf                     ; 0xbf <__rc31+0x90>
    42ca: 86 13        	stx	$13                     ; 0x13 <__rc3>
    42cc: a6 bd        	ldx	$bd                     ; 0xbd <__rc31+0x8e>
    42ce: 86 90        	stx	$90                     ; 0x90 <__rc31+0x61>
    42d0: a6 bc        	ldx	$bc                     ; 0xbc <__rc31+0x8d>
    42d2: 86 91        	stx	$91                     ; 0x91 <__rc31+0x62>
    42d4: 98           	tya
    42d5: 10 48        	bpl	$431f <_ZN12_GLOBAL__N_15printEPKcP6Status+0x768>
    42d7: a2 00        	ldx	#$0
    42d9: 64 14        	stz	$14                     ; 0x14 <__rc4>
    42db: 38           	sec
    42dc: a9 00        	lda	#$0
    42de: f5 b1        	sbc	$b1,x                   ; 0xb1 <__rc31+0x82>
    42e0: a0 01        	ldy	#$1
    42e2: 84 16        	sty	$16                     ; 0x16 <__rc6>
    42e4: 88           	dey
    42e5: b0 02        	bcs	$42e9 <_ZN12_GLOBAL__N_15printEPKcP6Status+0x732>
    42e7: a0 01        	ldy	#$1
    42e9: 38           	sec
    42ea: e5 14        	sbc	$14                     ; 0x14 <__rc4>
    42ec: 85 15        	sta	$15                     ; 0x15 <__rc5>
    42ee: 64 14        	stz	$14                     ; 0x14 <__rc4>
    42f0: b0 04        	bcs	$42f6 <_ZN12_GLOBAL__N_15printEPKcP6Status+0x73f>
    42f2: a5 16        	lda	$16                     ; 0x16 <__rc6>
    42f4: 85 14        	sta	$14                     ; 0x14 <__rc4>
    42f6: 98           	tya
    42f7: 05 14        	ora	$14                     ; 0x14 <__rc4>
    42f9: 85 14        	sta	$14                     ; 0x14 <__rc4>
    42fb: a5 15        	lda	$15                     ; 0x15 <__rc5>
    42fd: 9d b1 00     	sta	$b1,x                   ; 0xb1 <__rc31+0x82>
    4300: e8           	inx
    4301: 86 15        	stx	$15                     ; 0x15 <__rc5>
    4303: a4 96        	ldy	$96                     ; 0x96 <__rc31+0x67>
    4305: c4 15        	cpy	$15                     ; 0x15 <__rc5>
    4307: d0 d2        	bne	$42db <_ZN12_GLOBAL__N_15printEPKcP6Status+0x724>
    4309: a2 01        	ldx	#$1
    430b: 86 18        	stx	$18                     ; 0x18 <__rc8>
    430d: 80 10        	bra	$431f <_ZN12_GLOBAL__N_15printEPKcP6Status+0x768>
    430f: a6 be        	ldx	$be                     ; 0xbe <__rc31+0x8f>
    4311: 86 12        	stx	$12                     ; 0x12 <__rc2>
    4313: a6 bf        	ldx	$bf                     ; 0xbf <__rc31+0x90>
    4315: 86 13        	stx	$13                     ; 0x13 <__rc3>
    4317: a6 bd        	ldx	$bd                     ; 0xbd <__rc31+0x8e>
    4319: 86 90        	stx	$90                     ; 0x90 <__rc31+0x61>
    431b: a6 bc        	ldx	$bc                     ; 0xbc <__rc31+0x8d>
    431d: 86 91        	stx	$91                     ; 0x91 <__rc31+0x62>
    431f: a5 96        	lda	$96                     ; 0x96 <__rc31+0x67>
    4321: 0a           	asl
    4322: 0a           	asl
    4323: 0a           	asl
    4324: 85 14        	sta	$14                     ; 0x14 <__rc4>
    4326: a0 00        	ldy	#$0
    4328: 98           	tya
    4329: f0 50        	beq	$437b <_ZN12_GLOBAL__N_15printEPKcP6Status+0x7c4>
    432b: 84 17        	sty	$17                     ; 0x17 <__rc7>
    432d: 88           	dey
    432e: 84 19        	sty	$19                     ; 0x19 <__rc9>
    4330: a2 00        	ldx	#$0
    4332: 64 15        	stz	$15                     ; 0x15 <__rc5>
    4334: 80 0d        	bra	$4343 <_ZN12_GLOBAL__N_15printEPKcP6Status+0x78c>
    4336: a4 15        	ldy	$15                     ; 0x15 <__rc5>
    4338: 99 9b 00     	sta	$9b,y                   ; 0x9b <__rc31+0x6c>
    433b: a4 19        	ldy	$19                     ; 0x19 <__rc9>
    433d: c4 15        	cpy	$15                     ; 0x15 <__rc5>
    433f: f0 46        	beq	$4387 <_ZN12_GLOBAL__N_15printEPKcP6Status+0x7d0>
    4341: e6 15        	inc	$15                     ; 0x15 <__rc5>
    4343: a4 15        	ldy	$15                     ; 0x15 <__rc5>
    4345: b9 9b 00     	lda	$9b,y                   ; 0x9b <__rc31+0x6c>
    4348: 0a           	asl
    4349: e0 00        	cpx	#$0
    434b: f0 02        	beq	$434f <_ZN12_GLOBAL__N_15printEPKcP6Status+0x798>
    434d: 09 01        	ora	#$1
    434f: a4 95        	ldy	$95                     ; 0x95 <__rc31+0x66>
    4351: 84 16        	sty	$16                     ; 0x16 <__rc6>
    4353: c5 16        	cmp	$16                     ; 0x16 <__rc6>
    4355: a2 01        	ldx	#$1
    4357: b0 02        	bcs	$435b <_ZN12_GLOBAL__N_15printEPKcP6Status+0x7a4>
    4359: a2 00        	ldx	#$0
    435b: 90 d9        	bcc	$4336 <_ZN12_GLOBAL__N_15printEPKcP6Status+0x77f>
    435d: 84 16        	sty	$16                     ; 0x16 <__rc6>
    435f: 38           	sec
    4360: e5 16        	sbc	$16                     ; 0x16 <__rc6>
    4362: a4 15        	ldy	$15                     ; 0x15 <__rc5>
    4364: 99 9b 00     	sta	$9b,y                   ; 0x9b <__rc31+0x6c>
    4367: a4 19        	ldy	$19                     ; 0x19 <__rc9>
    4369: c4 15        	cpy	$15                     ; 0x15 <__rc5>
    436b: d0 d4        	bne	$4341 <_ZN12_GLOBAL__N_15printEPKcP6Status+0x78a>
    436d: a4 17        	ldy	$17                     ; 0x17 <__rc7>
    436f: a6 17        	ldx	$17                     ; 0x17 <__rc7>
    4371: e8           	inx
    4372: a9 01        	lda	#$1
    4374: 99 9b 00     	sta	$9b,y                   ; 0x9b <__rc31+0x6c>
    4377: da           	phx
    4378: 7a           	ply
    4379: 80 0e        	bra	$4389 <_ZN12_GLOBAL__N_15printEPKcP6Status+0x7d2>
    437b: a6 96        	ldx	$96                     ; 0x96 <__rc31+0x67>
    437d: b5 b0        	lda	$b0,x                   ; 0xb0 <__rc31+0x81>
    437f: aa           	tax
    4380: a0 00        	ldy	#$0
    4382: 8a           	txa
    4383: 30 36        	bmi	$43bb <_ZN12_GLOBAL__N_15printEPKcP6Status+0x804>
    4385: 80 3e        	bra	$43c5 <_ZN12_GLOBAL__N_15printEPKcP6Status+0x80e>
    4387: a4 17        	ldy	$17                     ; 0x17 <__rc7>
    4389: a6 96        	ldx	$96                     ; 0x96 <__rc31+0x67>
    438b: b5 b0        	lda	$b0,x                   ; 0xb0 <__rc31+0x81>
    438d: aa           	tax
    438e: 10 35        	bpl	$43c5 <_ZN12_GLOBAL__N_15printEPKcP6Status+0x80e>
    4390: 98           	tya
    4391: f0 26        	beq	$43b9 <_ZN12_GLOBAL__N_15printEPKcP6Status+0x802>
    4393: 84 16        	sty	$16                     ; 0x16 <__rc6>
    4395: a2 00        	ldx	#$0
    4397: a4 95        	ldy	$95                     ; 0x95 <__rc31+0x66>
    4399: b5 9b        	lda	$9b,x                   ; 0x9b <__rc31+0x6c>
    439b: 1a           	inc
    439c: f6 9b        	inc	$9b,x                   ; 0x9b <__rc31+0x6c>
    439e: 84 15        	sty	$15                     ; 0x15 <__rc5>
    43a0: c5 15        	cmp	$15                     ; 0x15 <__rc5>
    43a2: 90 4e        	bcc	$43f2 <_ZN12_GLOBAL__N_15printEPKcP6Status+0x83b>
    43a4: 84 15        	sty	$15                     ; 0x15 <__rc5>
    43a6: 38           	sec
    43a7: e5 15        	sbc	$15                     ; 0x15 <__rc5>
    43a9: 9d 9b 00     	sta	$9b,x                   ; 0x9b <__rc31+0x6c>
    43ac: e8           	inx
    43ad: 86 15        	stx	$15                     ; 0x15 <__rc5>
    43af: a5 16        	lda	$16                     ; 0x16 <__rc6>
    43b1: c5 15        	cmp	$15                     ; 0x15 <__rc5>
    43b3: d0 e4        	bne	$4399 <_ZN12_GLOBAL__N_15printEPKcP6Status+0x7e2>
    43b5: a4 16        	ldy	$16                     ; 0x16 <__rc6>
    43b7: 80 02        	bra	$43bb <_ZN12_GLOBAL__N_15printEPKcP6Status+0x804>
    43b9: a0 00        	ldy	#$0
    43bb: 5a           	phy
    43bc: fa           	plx
    43bd: e8           	inx
    43be: a9 01        	lda	#$1
    43c0: 99 9b 00     	sta	$9b,y                   ; 0x9b <__rc31+0x6c>
    43c3: da           	phx
    43c4: 7a           	ply
    43c5: 84 19        	sty	$19                     ; 0x19 <__rc9>
    43c7: 64 15        	stz	$15                     ; 0x15 <__rc5>
    43c9: a2 00        	ldx	#$0
    43cb: a4 96        	ldy	$96                     ; 0x96 <__rc31+0x67>
    43cd: b5 b1        	lda	$b1,x                   ; 0xb1 <__rc31+0x82>
    43cf: 0a           	asl
    43d0: 64 16        	stz	$16                     ; 0x16 <__rc6>
    43d2: 26 16        	rol	$16                     ; 0x16 <__rc6>
    43d4: 05 15        	ora	$15                     ; 0x15 <__rc5>
    43d6: 9d b1 00     	sta	$b1,x                   ; 0xb1 <__rc31+0x82>
    43d9: e8           	inx
    43da: 86 17        	stx	$17                     ; 0x17 <__rc7>
    43dc: a5 16        	lda	$16                     ; 0x16 <__rc6>
    43de: 85 15        	sta	$15                     ; 0x15 <__rc5>
    43e0: c4 17        	cpy	$17                     ; 0x17 <__rc7>
    43e2: d0 e9        	bne	$43cd <_ZN12_GLOBAL__N_15printEPKcP6Status+0x816>
    43e4: a6 97        	ldx	$97                     ; 0x97 <__rc31+0x68>
    43e6: e8           	inx
    43e7: 86 97        	stx	$97                     ; 0x97 <__rc31+0x68>
    43e9: e4 14        	cpx	$14                     ; 0x14 <__rc4>
    43eb: a4 19        	ldy	$19                     ; 0x19 <__rc9>
    43ed: b0 07        	bcs	$43f6 <_ZN12_GLOBAL__N_15printEPKcP6Status+0x83f>
    43ef: 4c 28 43     	jmp	$4328 <_ZN12_GLOBAL__N_15printEPKcP6Status+0x771>
    43f2: a4 16        	ldy	$16                     ; 0x16 <__rc6>
    43f4: 80 cf        	bra	$43c5 <_ZN12_GLOBAL__N_15printEPKcP6Status+0x80e>
    43f6: a5 94        	lda	$94                     ; 0x94 <__rc31+0x65>
    43f8: a6 91        	ldx	$91                     ; 0x91 <__rc31+0x62>
    43fa: 10 06        	bpl	$4402 <_ZN12_GLOBAL__N_15printEPKcP6Status+0x84b>
    43fc: a2 01        	ldx	#$1
    43fe: 64 91        	stz	$91                     ; 0x91 <__rc31+0x62>
    4400: 86 90        	stx	$90                     ; 0x90 <__rc31+0x61>
    4402: 29 04        	and	#$4
    4404: f0 29        	beq	$442f <_ZN12_GLOBAL__N_15printEPKcP6Status+0x878>
    4406: a6 95        	ldx	$95                     ; 0x95 <__rc31+0x66>
    4408: e0 10        	cpx	#$10
    440a: f0 12        	beq	$441e <_ZN12_GLOBAL__N_15printEPKcP6Status+0x867>
    440c: e0 08        	cpx	#$8
    440e: d0 1f        	bne	$442f <_ZN12_GLOBAL__N_15printEPKcP6Status+0x878>
    4410: a2 00        	ldx	#$0
    4412: e4 91        	cpx	$91                     ; 0x91 <__rc31+0x62>
    4414: f0 03        	beq	$4419 <_ZN12_GLOBAL__N_15printEPKcP6Status+0x862>
    4416: 4c fb 46     	jmp	$46fb <_ZN12_GLOBAL__N_15printEPKcP6Status+0xb44>
    4419: c4 90        	cpy	$90                     ; 0x90 <__rc31+0x61>
    441b: 4c fd 46     	jmp	$46fd <_ZN12_GLOBAL__N_15printEPKcP6Status+0xb46>
    441e: 98           	tya
    441f: f0 0e        	beq	$442f <_ZN12_GLOBAL__N_15printEPKcP6Status+0x878>
    4421: a5 94        	lda	$94                     ; 0x94 <__rc31+0x65>
    4423: 29 80        	and	#$80
    4425: d0 03        	bne	$442a <_ZN12_GLOBAL__N_15printEPKcP6Status+0x873>
    4427: 4c 10 47     	jmp	$4710 <_ZN12_GLOBAL__N_15printEPKcP6Status+0xb59>
    442a: a2 78        	ldx	#$78
    442c: 4c 12 47     	jmp	$4712 <_ZN12_GLOBAL__N_15printEPKcP6Status+0xb5b>
    442f: a5 94        	lda	$94                     ; 0x94 <__rc31+0x65>
    4431: a2 2d        	ldx	#$2d
    4433: e6 18        	inc	$18                     ; 0x18 <__rc8>
    4435: c6 18        	dec	$18                     ; 0x18 <__rc8>
    4437: d0 1a        	bne	$4453 <_ZN12_GLOBAL__N_15printEPKcP6Status+0x89c>
    4439: 85 14        	sta	$14                     ; 0x14 <__rc4>
    443b: 29 02        	and	#$2
    443d: a2 2b        	ldx	#$2b
    443f: c9 00        	cmp	#$0
    4441: d0 10        	bne	$4453 <_ZN12_GLOBAL__N_15printEPKcP6Status+0x89c>
    4443: a5 14        	lda	$14                     ; 0x14 <__rc4>
    4445: 29 08        	and	#$8
    4447: d0 08        	bne	$4451 <_ZN12_GLOBAL__N_15printEPKcP6Status+0x89a>
    4449: a2 01        	ldx	#$1
    444b: 86 97        	stx	$97                     ; 0x97 <__rc31+0x68>
    444d: a9 00        	lda	#$0
    444f: 80 0a        	bra	$445b <_ZN12_GLOBAL__N_15printEPKcP6Status+0x8a4>
    4451: a2 20        	ldx	#$20
    4453: 86 96        	stx	$96                     ; 0x96 <__rc31+0x67>
    4455: a2 00        	ldx	#$0
    4457: 86 97        	stx	$97                     ; 0x97 <__rc31+0x68>
    4459: a9 01        	lda	#$1
    445b: a6 91        	ldx	$91                     ; 0x91 <__rc31+0x62>
    445d: d0 08        	bne	$4467 <_ZN12_GLOBAL__N_15printEPKcP6Status+0x8b0>
    445f: a6 90        	ldx	$90                     ; 0x90 <__rc31+0x61>
    4461: 84 14        	sty	$14                     ; 0x14 <__rc4>
    4463: e4 14        	cpx	$14                     ; 0x14 <__rc4>
    4465: 80 04        	bra	$446b <_ZN12_GLOBAL__N_15printEPKcP6Status+0x8b4>
    4467: a6 91        	ldx	$91                     ; 0x91 <__rc31+0x62>
    4469: e0 00        	cpx	#$0
    446b: a6 90        	ldx	$90                     ; 0x90 <__rc31+0x61>
    446d: 86 14        	stx	$14                     ; 0x14 <__rc4>
    446f: a6 91        	ldx	$91                     ; 0x91 <__rc31+0x62>
    4471: 86 15        	stx	$15                     ; 0x15 <__rc5>
    4473: b0 04        	bcs	$4479 <_ZN12_GLOBAL__N_15printEPKcP6Status+0x8c2>
    4475: 84 14        	sty	$14                     ; 0x14 <__rc4>
    4477: 64 15        	stz	$15                     ; 0x15 <__rc5>
    4479: 18           	clc
    447a: aa           	tax
    447b: 65 14        	adc	$14                     ; 0x14 <__rc4>
    447d: 85 18        	sta	$18                     ; 0x18 <__rc8>
    447f: 85 16        	sta	$16                     ; 0x16 <__rc6>
    4481: a5 15        	lda	$15                     ; 0x15 <__rc5>
    4483: 69 00        	adc	#$0
    4485: 85 17        	sta	$17                     ; 0x17 <__rc7>
    4487: 84 93        	sty	$93                     ; 0x93 <__rc31+0x64>
    4489: c5 12        	cmp	$12                     ; 0x12 <__rc2>
    448b: d0 06        	bne	$4493 <_ZN12_GLOBAL__N_15printEPKcP6Status+0x8dc>
    448d: a4 18        	ldy	$18                     ; 0x18 <__rc8>
    448f: c4 13        	cpy	$13                     ; 0x13 <__rc3>
    4491: 80 02        	bra	$4495 <_ZN12_GLOBAL__N_15printEPKcP6Status+0x8de>
    4493: c5 12        	cmp	$12                     ; 0x12 <__rc2>
    4495: 64 92        	stz	$92                     ; 0x92 <__rc31+0x63>
    4497: 90 05        	bcc	$449e <_ZN12_GLOBAL__N_15printEPKcP6Status+0x8e7>
    4499: 64 94        	stz	$94                     ; 0x94 <__rc31+0x65>
    449b: 4c ef 44     	jmp	$44ef <_ZN12_GLOBAL__N_15printEPKcP6Status+0x938>
    449e: a5 94        	lda	$94                     ; 0x94 <__rc31+0x65>
    44a0: 29 11        	and	#$11
    44a2: f0 0f        	beq	$44b3 <_ZN12_GLOBAL__N_15printEPKcP6Status+0x8fc>
    44a4: a5 13        	lda	$13                     ; 0x13 <__rc3>
    44a6: 38           	sec
    44a7: e5 16        	sbc	$16                     ; 0x16 <__rc6>
    44a9: 85 92        	sta	$92                     ; 0x92 <__rc31+0x63>
    44ab: a5 12        	lda	$12                     ; 0x12 <__rc2>
    44ad: e5 17        	sbc	$17                     ; 0x17 <__rc7>
    44af: 85 94        	sta	$94                     ; 0x94 <__rc31+0x65>
    44b1: 80 3c        	bra	$44ef <_ZN12_GLOBAL__N_15printEPKcP6Status+0x938>
    44b3: 8a           	txa
    44b4: 38           	sec
    44b5: e5 13        	sbc	$13                     ; 0x13 <__rc3>
    44b7: aa           	tax
    44b8: a9 00        	lda	#$0
    44ba: e5 12        	sbc	$12                     ; 0x12 <__rc2>
    44bc: 85 12        	sta	$12                     ; 0x12 <__rc2>
    44be: 18           	clc
    44bf: 8a           	txa
    44c0: 65 14        	adc	$14                     ; 0x14 <__rc4>
    44c2: 85 92        	sta	$92                     ; 0x92 <__rc31+0x63>
    44c4: a5 12        	lda	$12                     ; 0x12 <__rc2>
    44c6: 65 15        	adc	$15                     ; 0x15 <__rc5>
    44c8: 85 94        	sta	$94                     ; 0x94 <__rc31+0x65>
    44ca: a2 20        	ldx	#$20
    44cc: 86 98        	stx	$98                     ; 0x98 <__rc31+0x69>
    44ce: a6 8e        	ldx	$8e                     ; 0x8e <__rc31+0x5f>
    44d0: 86 12        	stx	$12                     ; 0x12 <__rc2>
    44d2: a6 8f        	ldx	$8f                     ; 0x8f <__rc31+0x60>
    44d4: 86 13        	stx	$13                     ; 0x13 <__rc3>
    44d6: a5 98        	lda	$98                     ; 0x98 <__rc31+0x69>
    44d8: 20 2d 47     	jsr	$472d <_ZN12_GLOBAL__N_13putEcP6Status>
    44db: a6 94        	ldx	$94                     ; 0x94 <__rc31+0x65>
    44dd: e6 92        	inc	$92                     ; 0x92 <__rc31+0x63>
    44df: d0 01        	bne	$44e2 <_ZN12_GLOBAL__N_15printEPKcP6Status+0x92b>
    44e1: e8           	inx
    44e2: 86 94        	stx	$94                     ; 0x94 <__rc31+0x65>
    44e4: 8a           	txa
    44e5: d0 e7        	bne	$44ce <_ZN12_GLOBAL__N_15printEPKcP6Status+0x917>
    44e7: a5 92        	lda	$92                     ; 0x92 <__rc31+0x63>
    44e9: d0 e3        	bne	$44ce <_ZN12_GLOBAL__N_15printEPKcP6Status+0x917>
    44eb: 64 94        	stz	$94                     ; 0x94 <__rc31+0x65>
    44ed: 64 92        	stz	$92                     ; 0x92 <__rc31+0x63>
    44ef: a5 97        	lda	$97                     ; 0x97 <__rc31+0x68>
    44f1: d0 0d        	bne	$4500 <_ZN12_GLOBAL__N_15printEPKcP6Status+0x949>
    44f3: a6 8e        	ldx	$8e                     ; 0x8e <__rc31+0x5f>
    44f5: 86 12        	stx	$12                     ; 0x12 <__rc2>
    44f7: a6 8f        	ldx	$8f                     ; 0x8f <__rc31+0x60>
    44f9: 86 13        	stx	$13                     ; 0x13 <__rc3>
    44fb: a5 96        	lda	$96                     ; 0x96 <__rc31+0x67>
    44fd: 20 2d 47     	jsr	$472d <_ZN12_GLOBAL__N_13putEcP6Status>
    4500: a6 bb        	ldx	$bb                     ; 0xbb <__rc31+0x8c>
    4502: f0 0d        	beq	$4511 <_ZN12_GLOBAL__N_15printEPKcP6Status+0x95a>
    4504: a6 8e        	ldx	$8e                     ; 0x8e <__rc31+0x5f>
    4506: 86 12        	stx	$12                     ; 0x12 <__rc2>
    4508: a6 8f        	ldx	$8f                     ; 0x8f <__rc31+0x60>
    450a: 86 13        	stx	$13                     ; 0x13 <__rc3>
    450c: a5 95        	lda	$95                     ; 0x95 <__rc31+0x66>
    450e: 20 2d 47     	jsr	$472d <_ZN12_GLOBAL__N_13putEcP6Status>
    4511: a0 01        	ldy	#$1
    4513: b1 8e        	lda	($8e),y                 ; 0x8e <__rc31+0x5f>
    4515: aa           	tax
    4516: 29 10        	and	#$10
    4518: f0 3a        	beq	$4554 <_ZN12_GLOBAL__N_15printEPKcP6Status+0x99d>
    451a: 8a           	txa
    451b: 29 01        	and	#$1
    451d: a6 93        	ldx	$93                     ; 0x93 <__rc31+0x64>
    451f: a8           	tay
    4520: d0 34        	bne	$4556 <_ZN12_GLOBAL__N_15printEPKcP6Status+0x99f>
    4522: a5 94        	lda	$94                     ; 0x94 <__rc31+0x65>
    4524: d0 07        	bne	$452d <_ZN12_GLOBAL__N_15printEPKcP6Status+0x976>
    4526: a5 92        	lda	$92                     ; 0x92 <__rc31+0x63>
    4528: d0 03        	bne	$452d <_ZN12_GLOBAL__N_15printEPKcP6Status+0x976>
    452a: 4c 26 47     	jmp	$4726 <_ZN12_GLOBAL__N_15printEPKcP6Status+0xb6f>
    452d: a2 30        	ldx	#$30
    452f: 86 95        	stx	$95                     ; 0x95 <__rc31+0x66>
    4531: a6 8e        	ldx	$8e                     ; 0x8e <__rc31+0x5f>
    4533: 86 12        	stx	$12                     ; 0x12 <__rc2>
    4535: a6 8f        	ldx	$8f                     ; 0x8f <__rc31+0x60>
    4537: 86 13        	stx	$13                     ; 0x13 <__rc3>
    4539: a5 95        	lda	$95                     ; 0x95 <__rc31+0x66>
    453b: 20 2d 47     	jsr	$472d <_ZN12_GLOBAL__N_13putEcP6Status>
    453e: a2 ff        	ldx	#$ff
    4540: c6 92        	dec	$92                     ; 0x92 <__rc31+0x63>
    4542: e4 92        	cpx	$92                     ; 0x92 <__rc31+0x63>
    4544: d0 02        	bne	$4548 <_ZN12_GLOBAL__N_15printEPKcP6Status+0x991>
    4546: c6 94        	dec	$94                     ; 0x94 <__rc31+0x65>
    4548: a5 94        	lda	$94                     ; 0x94 <__rc31+0x65>
    454a: d0 e5        	bne	$4531 <_ZN12_GLOBAL__N_15printEPKcP6Status+0x97a>
    454c: a5 92        	lda	$92                     ; 0x92 <__rc31+0x63>
    454e: d0 e1        	bne	$4531 <_ZN12_GLOBAL__N_15printEPKcP6Status+0x97a>
    4550: 64 92        	stz	$92                     ; 0x92 <__rc31+0x63>
    4552: 64 94        	stz	$94                     ; 0x94 <__rc31+0x65>
    4554: a6 93        	ldx	$93                     ; 0x93 <__rc31+0x64>
    4556: a0 00        	ldy	#$0
    4558: c4 91        	cpy	$91                     ; 0x91 <__rc31+0x62>
    455a: d0 06        	bne	$4562 <_ZN12_GLOBAL__N_15printEPKcP6Status+0x9ab>
    455c: e4 90        	cpx	$90                     ; 0x90 <__rc31+0x61>
    455e: 90 06        	bcc	$4566 <_ZN12_GLOBAL__N_15printEPKcP6Status+0x9af>
    4560: 80 33        	bra	$4595 <_ZN12_GLOBAL__N_15printEPKcP6Status+0x9de>
    4562: c4 91        	cpy	$91                     ; 0x91 <__rc31+0x62>
    4564: b0 2f        	bcs	$4595 <_ZN12_GLOBAL__N_15printEPKcP6Status+0x9de>
    4566: a2 30        	ldx	#$30
    4568: 86 95        	stx	$95                     ; 0x95 <__rc31+0x66>
    456a: a2 ff        	ldx	#$ff
    456c: c6 90        	dec	$90                     ; 0x90 <__rc31+0x61>
    456e: e4 90        	cpx	$90                     ; 0x90 <__rc31+0x61>
    4570: d0 02        	bne	$4574 <_ZN12_GLOBAL__N_15printEPKcP6Status+0x9bd>
    4572: c6 91        	dec	$91                     ; 0x91 <__rc31+0x62>
    4574: a6 8e        	ldx	$8e                     ; 0x8e <__rc31+0x5f>
    4576: 86 12        	stx	$12                     ; 0x12 <__rc2>
    4578: a6 8f        	ldx	$8f                     ; 0x8f <__rc31+0x60>
    457a: 86 13        	stx	$13                     ; 0x13 <__rc3>
    457c: a5 95        	lda	$95                     ; 0x95 <__rc31+0x66>
    457e: 20 2d 47     	jsr	$472d <_ZN12_GLOBAL__N_13putEcP6Status>
    4581: a2 00        	ldx	#$0
    4583: e4 91        	cpx	$91                     ; 0x91 <__rc31+0x62>
    4585: d0 08        	bne	$458f <_ZN12_GLOBAL__N_15printEPKcP6Status+0x9d8>
    4587: a6 93        	ldx	$93                     ; 0x93 <__rc31+0x64>
    4589: e4 90        	cpx	$90                     ; 0x90 <__rc31+0x61>
    458b: 90 dd        	bcc	$456a <_ZN12_GLOBAL__N_15printEPKcP6Status+0x9b3>
    458d: 80 06        	bra	$4595 <_ZN12_GLOBAL__N_15printEPKcP6Status+0x9de>
    458f: e4 91        	cpx	$91                     ; 0x91 <__rc31+0x62>
    4591: a6 93        	ldx	$93                     ; 0x93 <__rc31+0x64>
    4593: 90 d5        	bcc	$456a <_ZN12_GLOBAL__N_15printEPKcP6Status+0x9b3>
    4595: a4 92        	ldy	$92                     ; 0x92 <__rc31+0x63>
    4597: 84 93        	sty	$93                     ; 0x93 <__rc31+0x64>
    4599: 8a           	txa
    459a: d0 03        	bne	$459f <_ZN12_GLOBAL__N_15printEPKcP6Status+0x9e8>
    459c: 4c 2f 46     	jmp	$462f <_ZN12_GLOBAL__N_15printEPKcP6Status+0xa78>
    459f: ca           	dex
    45a0: d0 03        	bne	$45a5 <_ZN12_GLOBAL__N_15printEPKcP6Status+0x9ee>
    45a2: 4c 00 46     	jmp	$4600 <_ZN12_GLOBAL__N_15printEPKcP6Status+0xa49>
    45a5: 86 92        	stx	$92                     ; 0x92 <__rc31+0x63>
    45a7: a9 99        	lda	#$99
    45a9: 18           	clc
    45aa: 65 92        	adc	$92                     ; 0x92 <__rc31+0x63>
    45ac: aa           	tax
    45ad: a9 00        	lda	#$0
    45af: 69 00        	adc	#$0
    45b1: 85 12        	sta	$12                     ; 0x12 <__rc2>
    45b3: 18           	clc
    45b4: 8a           	txa
    45b5: 69 02        	adc	#$2
    45b7: 85 90        	sta	$90                     ; 0x90 <__rc31+0x61>
    45b9: a5 12        	lda	$12                     ; 0x12 <__rc2>
    45bb: 69 00        	adc	#$0
    45bd: 85 91        	sta	$91                     ; 0x91 <__rc31+0x62>
    45bf: 80 35        	bra	$45f6 <_ZN12_GLOBAL__N_15printEPKcP6Status+0xa3f>
    45c1: 85 13        	sta	$13                     ; 0x13 <__rc3>
    45c3: a9 80        	lda	#$80
    45c5: a0 01        	ldy	#$1
    45c7: 31 8e        	and	($8e),y                 ; 0x8e <__rc31+0x5f>
    45c9: f0 04        	beq	$45cf <_ZN12_GLOBAL__N_15printEPKcP6Status+0xa18>
    45cb: a2 61        	ldx	#$61
    45cd: 80 02        	bra	$45d1 <_ZN12_GLOBAL__N_15printEPKcP6Status+0xa1a>
    45cf: a2 41        	ldx	#$41
    45d1: 86 12        	stx	$12                     ; 0x12 <__rc2>
    45d3: 18           	clc
    45d4: a5 13        	lda	$13                     ; 0x13 <__rc3>
    45d6: 65 12        	adc	$12                     ; 0x12 <__rc2>
    45d8: 18           	clc
    45d9: 69 f6        	adc	#$f6
    45db: a6 8e        	ldx	$8e                     ; 0x8e <__rc31+0x5f>
    45dd: 86 12        	stx	$12                     ; 0x12 <__rc2>
    45df: a6 8f        	ldx	$8f                     ; 0x8f <__rc31+0x60>
    45e1: 86 13        	stx	$13                     ; 0x13 <__rc3>
    45e3: 20 2d 47     	jsr	$472d <_ZN12_GLOBAL__N_13putEcP6Status>
    45e6: c6 92        	dec	$92                     ; 0x92 <__rc31+0x63>
    45e8: a2 ff        	ldx	#$ff
    45ea: c6 90        	dec	$90                     ; 0x90 <__rc31+0x61>
    45ec: e4 90        	cpx	$90                     ; 0x90 <__rc31+0x61>
    45ee: d0 02        	bne	$45f2 <_ZN12_GLOBAL__N_15printEPKcP6Status+0xa3b>
    45f0: c6 91        	dec	$91                     ; 0x91 <__rc31+0x62>
    45f2: a5 92        	lda	$92                     ; 0x92 <__rc31+0x63>
    45f4: f0 0a        	beq	$4600 <_ZN12_GLOBAL__N_15printEPKcP6Status+0xa49>
    45f6: b2 90        	lda	($90)                   ; 0x90 <__rc31+0x61>
    45f8: c9 0a        	cmp	#$a
    45fa: b0 c5        	bcs	$45c1 <_ZN12_GLOBAL__N_15printEPKcP6Status+0xa0a>
    45fc: 09 30        	ora	#$30
    45fe: 80 db        	bra	$45db <_ZN12_GLOBAL__N_15printEPKcP6Status+0xa24>
    4600: a5 9b        	lda	$9b                     ; 0x9b <__rc31+0x6c>
    4602: c9 0a        	cmp	#$a
    4604: b0 04        	bcs	$460a <_ZN12_GLOBAL__N_15printEPKcP6Status+0xa53>
    4606: 09 30        	ora	#$30
    4608: 80 1a        	bra	$4624 <_ZN12_GLOBAL__N_15printEPKcP6Status+0xa6d>
    460a: 85 13        	sta	$13                     ; 0x13 <__rc3>
    460c: a0 01        	ldy	#$1
    460e: a9 80        	lda	#$80
    4610: 31 8e        	and	($8e),y                 ; 0x8e <__rc31+0x5f>
    4612: f0 04        	beq	$4618 <_ZN12_GLOBAL__N_15printEPKcP6Status+0xa61>
    4614: a2 61        	ldx	#$61
    4616: 80 02        	bra	$461a <_ZN12_GLOBAL__N_15printEPKcP6Status+0xa63>
    4618: a2 41        	ldx	#$41
    461a: 86 12        	stx	$12                     ; 0x12 <__rc2>
    461c: a5 13        	lda	$13                     ; 0x13 <__rc3>
    461e: 18           	clc
    461f: 65 12        	adc	$12                     ; 0x12 <__rc2>
    4621: 18           	clc
    4622: 69 f6        	adc	#$f6
    4624: a6 8e        	ldx	$8e                     ; 0x8e <__rc31+0x5f>
    4626: 86 12        	stx	$12                     ; 0x12 <__rc2>
    4628: a6 8f        	ldx	$8f                     ; 0x8f <__rc31+0x60>
    462a: 86 13        	stx	$13                     ; 0x13 <__rc3>
    462c: 20 2d 47     	jsr	$472d <_ZN12_GLOBAL__N_13putEcP6Status>
    462f: a0 01        	ldy	#$1
    4631: 98           	tya
    4632: 31 8e        	and	($8e),y                 ; 0x8e <__rc31+0x5f>
    4634: f0 2b        	beq	$4661 <_ZN12_GLOBAL__N_15printEPKcP6Status+0xaaa>
    4636: a5 94        	lda	$94                     ; 0x94 <__rc31+0x65>
    4638: d0 04        	bne	$463e <_ZN12_GLOBAL__N_15printEPKcP6Status+0xa87>
    463a: a5 93        	lda	$93                     ; 0x93 <__rc31+0x64>
    463c: f0 23        	beq	$4661 <_ZN12_GLOBAL__N_15printEPKcP6Status+0xaaa>
    463e: a2 20        	ldx	#$20
    4640: 86 90        	stx	$90                     ; 0x90 <__rc31+0x61>
    4642: a6 8e        	ldx	$8e                     ; 0x8e <__rc31+0x5f>
    4644: 86 12        	stx	$12                     ; 0x12 <__rc2>
    4646: a6 8f        	ldx	$8f                     ; 0x8f <__rc31+0x60>
    4648: 86 13        	stx	$13                     ; 0x13 <__rc3>
    464a: a5 90        	lda	$90                     ; 0x90 <__rc31+0x61>
    464c: 20 2d 47     	jsr	$472d <_ZN12_GLOBAL__N_13putEcP6Status>
    464f: a2 ff        	ldx	#$ff
    4651: c6 93        	dec	$93                     ; 0x93 <__rc31+0x64>
    4653: e4 93        	cpx	$93                     ; 0x93 <__rc31+0x64>
    4655: d0 02        	bne	$4659 <_ZN12_GLOBAL__N_15printEPKcP6Status+0xaa2>
    4657: c6 94        	dec	$94                     ; 0x94 <__rc31+0x65>
    4659: a5 94        	lda	$94                     ; 0x94 <__rc31+0x65>
    465b: d0 e5        	bne	$4642 <_ZN12_GLOBAL__N_15printEPKcP6Status+0xa8b>
    465d: a5 93        	lda	$93                     ; 0x93 <__rc31+0x64>
    465f: d0 e1        	bne	$4642 <_ZN12_GLOBAL__N_15printEPKcP6Status+0xa8b>
    4661: a4 8e        	ldy	$8e                     ; 0x8e <__rc31+0x5f>
    4663: 18           	clc
    4664: a5 8e        	lda	$8e                     ; 0x8e <__rc31+0x5f>
    4666: 84 14        	sty	$14                     ; 0x14 <__rc4>
    4668: 69 05        	adc	#$5
    466a: 85 12        	sta	$12                     ; 0x12 <__rc2>
    466c: a5 8f        	lda	$8f                     ; 0x8f <__rc31+0x60>
    466e: 69 00        	adc	#$0
    4670: 18           	clc
    4671: 85 13        	sta	$13                     ; 0x13 <__rc3>
    4673: a0 01        	ldy	#$1
    4675: a5 14        	lda	$14                     ; 0x14 <__rc4>
    4677: 69 03        	adc	#$3
    4679: 85 14        	sta	$14                     ; 0x14 <__rc4>
    467b: a5 8f        	lda	$8f                     ; 0x8f <__rc31+0x60>
    467d: 69 00        	adc	#$0
    467f: aa           	tax
    4680: b1 12        	lda	($12),y                 ; 0x12 <__rc2>
    4682: 84 17        	sty	$17                     ; 0x17 <__rc7>
    4684: 85 15        	sta	$15                     ; 0x15 <__rc5>
    4686: a4 14        	ldy	$14                     ; 0x14 <__rc4>
    4688: 84 12        	sty	$12                     ; 0x12 <__rc2>
    468a: 86 13        	stx	$13                     ; 0x13 <__rc3>
    468c: a0 03        	ldy	#$3
    468e: b1 8e        	lda	($8e),y                 ; 0x8e <__rc31+0x5f>
    4690: 85 16        	sta	$16                     ; 0x16 <__rc6>
    4692: a4 17        	ldy	$17                     ; 0x17 <__rc7>
    4694: b1 12        	lda	($12),y                 ; 0x12 <__rc2>
    4696: 85 17        	sta	$17                     ; 0x17 <__rc7>
    4698: 85 12        	sta	$12                     ; 0x12 <__rc2>
    469a: a4 15        	ldy	$15                     ; 0x15 <__rc5>
    469c: c4 12        	cpy	$12                     ; 0x12 <__rc2>
    469e: d0 0c        	bne	$46ac <_ZN12_GLOBAL__N_15printEPKcP6Status+0xaf5>
    46a0: a6 16        	ldx	$16                     ; 0x16 <__rc6>
    46a2: a0 05        	ldy	#$5
    46a4: b1 8e        	lda	($8e),y                 ; 0x8e <__rc31+0x5f>
    46a6: 86 12        	stx	$12                     ; 0x12 <__rc2>
    46a8: c5 12        	cmp	$12                     ; 0x12 <__rc2>
    46aa: 80 08        	bra	$46b4 <_ZN12_GLOBAL__N_15printEPKcP6Status+0xafd>
    46ac: 84 13        	sty	$13                     ; 0x13 <__rc3>
    46ae: 85 12        	sta	$12                     ; 0x12 <__rc2>
    46b0: a6 13        	ldx	$13                     ; 0x13 <__rc3>
    46b2: e4 12        	cpx	$12                     ; 0x12 <__rc2>
    46b4: a6 b9        	ldx	$b9                     ; 0xb9 <__rc31+0x8a>
    46b6: 86 12        	stx	$12                     ; 0x12 <__rc2>
    46b8: a6 ba        	ldx	$ba                     ; 0xba <__rc31+0x8b>
    46ba: 86 13        	stx	$13                     ; 0x13 <__rc3>
    46bc: 90 36        	bcc	$46f4 <_ZN12_GLOBAL__N_15printEPKcP6Status+0xb3d>
    46be: a6 16        	ldx	$16                     ; 0x16 <__rc6>
    46c0: a5 17        	lda	$17                     ; 0x17 <__rc7>
    46c2: d0 03        	bne	$46c7 <_ZN12_GLOBAL__N_15printEPKcP6Status+0xb10>
    46c4: 8a           	txa
    46c5: f0 2d        	beq	$46f4 <_ZN12_GLOBAL__N_15printEPKcP6Status+0xb3d>
    46c7: a5 8e        	lda	$8e                     ; 0x8e <__rc31+0x5f>
    46c9: 18           	clc
    46ca: 69 09        	adc	#$9
    46cc: 85 14        	sta	$14                     ; 0x14 <__rc4>
    46ce: a5 8f        	lda	$8f                     ; 0x8f <__rc31+0x60>
    46d0: 69 00        	adc	#$0
    46d2: a0 09        	ldy	#$9
    46d4: 85 15        	sta	$15                     ; 0x15 <__rc5>
    46d6: 18           	clc
    46d7: a5 16        	lda	$16                     ; 0x16 <__rc6>
    46d9: 71 8e        	adc	($8e),y                 ; 0x8e <__rc31+0x5f>
    46db: aa           	tax
    46dc: a0 01        	ldy	#$1
    46de: a5 17        	lda	$17                     ; 0x17 <__rc7>
    46e0: 71 14        	adc	($14),y                 ; 0x14 <__rc4>
    46e2: 86 14        	stx	$14                     ; 0x14 <__rc4>
    46e4: 85 15        	sta	$15                     ; 0x15 <__rc5>
    46e6: a2 ff        	ldx	#$ff
    46e8: c6 14        	dec	$14                     ; 0x14 <__rc4>
    46ea: e4 14        	cpx	$14                     ; 0x14 <__rc4>
    46ec: d0 02        	bne	$46f0 <_ZN12_GLOBAL__N_15printEPKcP6Status+0xb39>
    46ee: c6 15        	dec	$15                     ; 0x15 <__rc5>
    46f0: a9 00        	lda	#$0
    46f2: 92 14        	sta	($14)                   ; 0x14 <__rc4>
    46f4: e6 12        	inc	$12                     ; 0x12 <__rc2>
    46f6: d0 02        	bne	$46fa <_ZN12_GLOBAL__N_15printEPKcP6Status+0xb43>
    46f8: e6 13        	inc	$13                     ; 0x13 <__rc3>
    46fa: 60           	rts
    46fb: e4 91        	cpx	$91                     ; 0x91 <__rc31+0x62>
    46fd: a5 94        	lda	$94                     ; 0x94 <__rc31+0x65>
    46ff: b0 03        	bcs	$4704 <_ZN12_GLOBAL__N_15printEPKcP6Status+0xb4d>
    4701: 4c 31 44     	jmp	$4431 <_ZN12_GLOBAL__N_15printEPKcP6Status+0x87a>
    4704: 84 90        	sty	$90                     ; 0x90 <__rc31+0x61>
    4706: e6 90        	inc	$90                     ; 0x90 <__rc31+0x61>
    4708: d0 01        	bne	$470b <_ZN12_GLOBAL__N_15printEPKcP6Status+0xb54>
    470a: e8           	inx
    470b: 86 91        	stx	$91                     ; 0x91 <__rc31+0x62>
    470d: 4c 31 44     	jmp	$4431 <_ZN12_GLOBAL__N_15printEPKcP6Status+0x87a>
    4710: a2 58        	ldx	#$58
    4712: 86 95        	stx	$95                     ; 0x95 <__rc31+0x66>
    4714: 38           	sec
    4715: a2 01        	ldx	#$1
    4717: 86 bb        	stx	$bb                     ; 0xbb <__rc31+0x8c>
    4719: a2 30        	ldx	#$30
    471b: 86 96        	stx	$96                     ; 0x96 <__rc31+0x67>
    471d: a9 02        	lda	#$2
    471f: a2 00        	ldx	#$0
    4721: 86 97        	stx	$97                     ; 0x97 <__rc31+0x68>
    4723: 4c 5b 44     	jmp	$445b <_ZN12_GLOBAL__N_15printEPKcP6Status+0x8a4>
    4726: 64 92        	stz	$92                     ; 0x92 <__rc31+0x63>
    4728: 64 94        	stz	$94                     ; 0x94 <__rc31+0x65>
    472a: 4c 56 45     	jmp	$4556 <_ZN12_GLOBAL__N_15printEPKcP6Status+0x99f>

0000472d <_ZN12_GLOBAL__N_13putEcP6Status>:
    472d: 85 18        	sta	$18                     ; 0x18 <__rc8>
    472f: a6 13        	ldx	$13                     ; 0x13 <__rc3>
    4731: 18           	clc
    4732: a5 12        	lda	$12                     ; 0x12 <__rc2>
    4734: 69 05        	adc	#$5
    4736: a8           	tay
    4737: a5 13        	lda	$13                     ; 0x13 <__rc3>
    4739: 86 15        	stx	$15                     ; 0x15 <__rc5>
    473b: 69 00        	adc	#$0
    473d: 18           	clc
    473e: 84 16        	sty	$16                     ; 0x16 <__rc6>
    4740: a0 05        	ldy	#$5
    4742: 85 17        	sta	$17                     ; 0x17 <__rc7>
    4744: b1 12        	lda	($12),y                 ; 0x12 <__rc2>
    4746: aa           	tax
    4747: a5 12        	lda	$12                     ; 0x12 <__rc2>
    4749: 69 03        	adc	#$3
    474b: 85 14        	sta	$14                     ; 0x14 <__rc4>
    474d: a5 15        	lda	$15                     ; 0x15 <__rc5>
    474f: 69 00        	adc	#$0
    4751: 85 15        	sta	$15                     ; 0x15 <__rc5>
    4753: a0 01        	ldy	#$1
    4755: b1 16        	lda	($16),y                 ; 0x16 <__rc6>
    4757: d1 14        	cmp	($14),y                 ; 0x14 <__rc4>
    4759: d0 11        	bne	$476c <_ZN12_GLOBAL__N_13putEcP6Status+0x3f>
    475b: a0 03        	ldy	#$3
    475d: 85 17        	sta	$17                     ; 0x17 <__rc7>
    475f: b1 12        	lda	($12),y                 ; 0x12 <__rc2>
    4761: 85 14        	sta	$14                     ; 0x14 <__rc4>
    4763: 86 16        	stx	$16                     ; 0x16 <__rc6>
    4765: e4 14        	cpx	$14                     ; 0x14 <__rc4>
    4767: 90 0e        	bcc	$4777 <_ZN12_GLOBAL__N_13putEcP6Status+0x4a>
    4769: 4c d8 47     	jmp	$47d8 <_ZN12_GLOBAL__N_13putEcP6Status+0xab>
    476c: 86 16        	stx	$16                     ; 0x16 <__rc6>
    476e: d1 14        	cmp	($14),y                 ; 0x14 <__rc4>
    4770: 85 17        	sta	$17                     ; 0x17 <__rc7>
    4772: 90 03        	bcc	$4777 <_ZN12_GLOBAL__N_13putEcP6Status+0x4a>
    4774: 4c d8 47     	jmp	$47d8 <_ZN12_GLOBAL__N_13putEcP6Status+0xab>
    4777: a5 12        	lda	$12                     ; 0x12 <__rc2>
    4779: 18           	clc
    477a: 69 0f        	adc	#$f
    477c: 85 14        	sta	$14                     ; 0x14 <__rc4>
    477e: a5 13        	lda	$13                     ; 0x13 <__rc3>
    4780: 69 00        	adc	#$0
    4782: 85 15        	sta	$15                     ; 0x15 <__rc5>
    4784: a0 01        	ldy	#$1
    4786: b1 14        	lda	($14),y                 ; 0x14 <__rc4>
    4788: a2 00        	ldx	#$0
    478a: 86 14        	stx	$14                     ; 0x14 <__rc4>
    478c: a2 00        	ldx	#$0
    478e: 86 15        	stx	$15                     ; 0x15 <__rc5>
    4790: c5 15        	cmp	$15                     ; 0x15 <__rc5>
    4792: d0 2d        	bne	$47c1 <_ZN12_GLOBAL__N_13putEcP6Status+0x94>
    4794: a0 0f        	ldy	#$f
    4796: b1 12        	lda	($12),y                 ; 0x12 <__rc2>
    4798: c5 14        	cmp	$14                     ; 0x14 <__rc4>
    479a: d0 25        	bne	$47c1 <_ZN12_GLOBAL__N_13putEcP6Status+0x94>
    479c: a5 12        	lda	$12                     ; 0x12 <__rc2>
    479e: 18           	clc
    479f: 69 09        	adc	#$9
    47a1: 85 14        	sta	$14                     ; 0x14 <__rc4>
    47a3: a5 13        	lda	$13                     ; 0x13 <__rc3>
    47a5: 69 00        	adc	#$0
    47a7: a0 09        	ldy	#$9
    47a9: 85 15        	sta	$15                     ; 0x15 <__rc5>
    47ab: 18           	clc
    47ac: a5 16        	lda	$16                     ; 0x16 <__rc6>
    47ae: 71 12        	adc	($12),y                 ; 0x12 <__rc2>
    47b0: aa           	tax
    47b1: a0 01        	ldy	#$1
    47b3: a5 17        	lda	$17                     ; 0x17 <__rc7>
    47b5: 71 14        	adc	($14),y                 ; 0x14 <__rc4>
    47b7: 86 14        	stx	$14                     ; 0x14 <__rc4>
    47b9: 85 15        	sta	$15                     ; 0x15 <__rc5>
    47bb: a5 18        	lda	$18                     ; 0x18 <__rc8>
    47bd: 92 14        	sta	($14)                   ; 0x14 <__rc4>
    47bf: 80 17        	bra	$47d8 <_ZN12_GLOBAL__N_13putEcP6Status+0xab>
    47c1: a6 12        	ldx	$12                     ; 0x12 <__rc2>
    47c3: 86 cb        	stx	$cb                     ; 0xcb <__rc31+0x9c>
    47c5: a6 13        	ldx	$13                     ; 0x13 <__rc3>
    47c7: 86 cc        	stx	$cc                     ; 0xcc <__rc31+0x9d>
    47c9: a2 00        	ldx	#$0
    47cb: a5 18        	lda	$18                     ; 0x18 <__rc8>
    47cd: 20 7f 4a     	jsr	$4a7f <putchar>
    47d0: a6 cb        	ldx	$cb                     ; 0xcb <__rc31+0x9c>
    47d2: 86 12        	stx	$12                     ; 0x12 <__rc2>
    47d4: a6 cc        	ldx	$cc                     ; 0xcc <__rc31+0x9d>
    47d6: 86 13        	stx	$13                     ; 0x13 <__rc3>
    47d8: a0 05        	ldy	#$5
    47da: a5 12        	lda	$12                     ; 0x12 <__rc2>
    47dc: 18           	clc
    47dd: 69 05        	adc	#$5
    47df: 85 14        	sta	$14                     ; 0x14 <__rc4>
    47e1: a5 13        	lda	$13                     ; 0x13 <__rc3>
    47e3: 69 00        	adc	#$0
    47e5: 85 15        	sta	$15                     ; 0x15 <__rc5>
    47e7: b1 12        	lda	($12),y                 ; 0x12 <__rc2>
    47e9: aa           	tax
    47ea: 84 16        	sty	$16                     ; 0x16 <__rc6>
    47ec: a0 01        	ldy	#$1
    47ee: b1 14        	lda	($14),y                 ; 0x14 <__rc4>
    47f0: 84 17        	sty	$17                     ; 0x17 <__rc7>
    47f2: e8           	inx
    47f3: d0 01        	bne	$47f6 <_ZN12_GLOBAL__N_13putEcP6Status+0xc9>
    47f5: 1a           	inc
    47f6: 85 18        	sta	$18                     ; 0x18 <__rc8>
    47f8: 8a           	txa
    47f9: a4 16        	ldy	$16                     ; 0x16 <__rc6>
    47fb: 91 12        	sta	($12),y                 ; 0x12 <__rc2>
    47fd: a4 17        	ldy	$17                     ; 0x17 <__rc7>
    47ff: a5 18        	lda	$18                     ; 0x18 <__rc8>
    4801: 91 14        	sta	($14),y                 ; 0x14 <__rc4>
    4803: 60           	rts

00004804 <_ZN12_GLOBAL__N_112print_stringEPKcP6Status>:
    4804: a6 12        	ldx	$12                     ; 0x12 <__rc2>
    4806: 86 c2        	stx	$c2                     ; 0xc2 <__rc31+0x93>
    4808: a6 13        	ldx	$13                     ; 0x13 <__rc3>
    480a: 86 c3        	stx	$c3                     ; 0xc3 <__rc31+0x94>
    480c: a6 14        	ldx	$14                     ; 0x14 <__rc4>
    480e: 86 c4        	stx	$c4                     ; 0xc4 <__rc31+0x95>
    4810: a6 15        	ldx	$15                     ; 0x15 <__rc5>
    4812: 86 c5        	stx	$c5                     ; 0xc5 <__rc31+0x96>
    4814: a5 c4        	lda	$c4                     ; 0xc4 <__rc31+0x95>
    4816: 18           	clc
    4817: 69 0d        	adc	#$d
    4819: 85 12        	sta	$12                     ; 0x12 <__rc2>
    481b: a5 c5        	lda	$c5                     ; 0xc5 <__rc31+0x96>
    481d: 69 00        	adc	#$0
    481f: 85 13        	sta	$13                     ; 0x13 <__rc3>
    4821: a0 01        	ldy	#$1
    4823: b1 12        	lda	($12),y                 ; 0x12 <__rc2>
    4825: 30 14        	bmi	$483b <_ZN12_GLOBAL__N_112print_stringEPKcP6Status+0x37>
    4827: a0 0d        	ldy	#$d
    4829: aa           	tax
    482a: b1 c4        	lda	($c4),y                 ; 0xc4 <__rc31+0x95>
    482c: 86 c7        	stx	$c7                     ; 0xc7 <__rc31+0x98>
    482e: e0 00        	cpx	#$0
    4830: d0 0e        	bne	$4840 <_ZN12_GLOBAL__N_112print_stringEPKcP6Status+0x3c>
    4832: aa           	tax
    4833: d0 0b        	bne	$4840 <_ZN12_GLOBAL__N_112print_stringEPKcP6Status+0x3c>
    4835: 64 c6        	stz	$c6                     ; 0xc6 <__rc31+0x97>
    4837: 64 c7        	stz	$c7                     ; 0xc7 <__rc31+0x98>
    4839: 80 36        	bra	$4871 <_ZN12_GLOBAL__N_112print_stringEPKcP6Status+0x6d>
    483b: a9 ff        	lda	#$ff
    483d: aa           	tax
    483e: 86 c7        	stx	$c7                     ; 0xc7 <__rc31+0x98>
    4840: 85 c6        	sta	$c6                     ; 0xc6 <__rc31+0x97>
    4842: 64 12        	stz	$12                     ; 0x12 <__rc2>
    4844: a4 c2        	ldy	$c2                     ; 0xc2 <__rc31+0x93>
    4846: a6 c3        	ldx	$c3                     ; 0xc3 <__rc31+0x94>
    4848: 86 16        	stx	$16                     ; 0x16 <__rc6>
    484a: 64 13        	stz	$13                     ; 0x13 <__rc3>
    484c: 98           	tya
    484d: 18           	clc
    484e: 65 12        	adc	$12                     ; 0x12 <__rc2>
    4850: 85 14        	sta	$14                     ; 0x14 <__rc4>
    4852: a5 c3        	lda	$c3                     ; 0xc3 <__rc31+0x94>
    4854: 65 13        	adc	$13                     ; 0x13 <__rc3>
    4856: 85 15        	sta	$15                     ; 0x15 <__rc5>
    4858: b2 14        	lda	($14)                   ; 0x14 <__rc4>
    485a: d0 03        	bne	$485f <_ZN12_GLOBAL__N_112print_stringEPKcP6Status+0x5b>
    485c: 4c 08 49     	jmp	$4908 <_ZN12_GLOBAL__N_112print_stringEPKcP6Status+0x104>
    485f: e6 12        	inc	$12                     ; 0x12 <__rc2>
    4861: d0 02        	bne	$4865 <_ZN12_GLOBAL__N_112print_stringEPKcP6Status+0x61>
    4863: e6 13        	inc	$13                     ; 0x13 <__rc3>
    4865: a6 c7        	ldx	$c7                     ; 0xc7 <__rc31+0x98>
    4867: e4 13        	cpx	$13                     ; 0x13 <__rc3>
    4869: d0 e1        	bne	$484c <_ZN12_GLOBAL__N_112print_stringEPKcP6Status+0x48>
    486b: a6 c6        	ldx	$c6                     ; 0xc6 <__rc31+0x97>
    486d: e4 12        	cpx	$12                     ; 0x12 <__rc2>
    486f: d0 db        	bne	$484c <_ZN12_GLOBAL__N_112print_stringEPKcP6Status+0x48>
    4871: a0 01        	ldy	#$1
    4873: b1 c4        	lda	($c4),y                 ; 0xc4 <__rc31+0x95>
    4875: 29 01        	and	#$1
    4877: f0 03        	beq	$487c <_ZN12_GLOBAL__N_112print_stringEPKcP6Status+0x78>
    4879: 4c da 48     	jmp	$48da <_ZN12_GLOBAL__N_112print_stringEPKcP6Status+0xd6>
    487c: a5 c4        	lda	$c4                     ; 0xc4 <__rc31+0x95>
    487e: 18           	clc
    487f: 69 0b        	adc	#$b
    4881: 85 14        	sta	$14                     ; 0x14 <__rc4>
    4883: a5 c5        	lda	$c5                     ; 0xc5 <__rc31+0x96>
    4885: 69 00        	adc	#$0
    4887: 85 15        	sta	$15                     ; 0x15 <__rc5>
    4889: 84 12        	sty	$12                     ; 0x12 <__rc2>
    488b: a0 0b        	ldy	#$b
    488d: b1 c4        	lda	($c4),y                 ; 0xc4 <__rc31+0x95>
    488f: 85 13        	sta	$13                     ; 0x13 <__rc3>
    4891: a4 12        	ldy	$12                     ; 0x12 <__rc2>
    4893: b1 14        	lda	($14),y                 ; 0x14 <__rc4>
    4895: 85 12        	sta	$12                     ; 0x12 <__rc2>
    4897: a6 c7        	ldx	$c7                     ; 0xc7 <__rc31+0x98>
    4899: e4 12        	cpx	$12                     ; 0x12 <__rc2>
    489b: d0 08        	bne	$48a5 <_ZN12_GLOBAL__N_112print_stringEPKcP6Status+0xa1>
    489d: a6 c6        	ldx	$c6                     ; 0xc6 <__rc31+0x97>
    489f: e4 13        	cpx	$13                     ; 0x13 <__rc3>
    48a1: 90 06        	bcc	$48a9 <_ZN12_GLOBAL__N_112print_stringEPKcP6Status+0xa5>
    48a3: 80 35        	bra	$48da <_ZN12_GLOBAL__N_112print_stringEPKcP6Status+0xd6>
    48a5: e4 12        	cpx	$12                     ; 0x12 <__rc2>
    48a7: b0 31        	bcs	$48da <_ZN12_GLOBAL__N_112print_stringEPKcP6Status+0xd6>
    48a9: 38           	sec
    48aa: a5 c6        	lda	$c6                     ; 0xc6 <__rc31+0x97>
    48ac: e5 13        	sbc	$13                     ; 0x13 <__rc3>
    48ae: a8           	tay
    48af: a5 c7        	lda	$c7                     ; 0xc7 <__rc31+0x98>
    48b1: e5 12        	sbc	$12                     ; 0x12 <__rc2>
    48b3: 85 c9        	sta	$c9                     ; 0xc9 <__rc31+0x9a>
    48b5: a2 20        	ldx	#$20
    48b7: 86 ca        	stx	$ca                     ; 0xca <__rc31+0x9b>
    48b9: a6 c4        	ldx	$c4                     ; 0xc4 <__rc31+0x95>
    48bb: 86 12        	stx	$12                     ; 0x12 <__rc2>
    48bd: a6 c5        	ldx	$c5                     ; 0xc5 <__rc31+0x96>
    48bf: 86 13        	stx	$13                     ; 0x13 <__rc3>
    48c1: 84 c8        	sty	$c8                     ; 0xc8 <__rc31+0x99>
    48c3: a5 ca        	lda	$ca                     ; 0xca <__rc31+0x9b>
    48c5: 20 2d 47     	jsr	$472d <_ZN12_GLOBAL__N_13putEcP6Status>
    48c8: a6 c9        	ldx	$c9                     ; 0xc9 <__rc31+0x9a>
    48ca: e6 c8        	inc	$c8                     ; 0xc8 <__rc31+0x99>
    48cc: d0 01        	bne	$48cf <_ZN12_GLOBAL__N_112print_stringEPKcP6Status+0xcb>
    48ce: e8           	inx
    48cf: 86 c9        	stx	$c9                     ; 0xc9 <__rc31+0x9a>
    48d1: a4 c8        	ldy	$c8                     ; 0xc8 <__rc31+0x99>
    48d3: 8a           	txa
    48d4: d0 e3        	bne	$48b9 <_ZN12_GLOBAL__N_112print_stringEPKcP6Status+0xb5>
    48d6: a5 c8        	lda	$c8                     ; 0xc8 <__rc31+0x99>
    48d8: d0 df        	bne	$48b9 <_ZN12_GLOBAL__N_112print_stringEPKcP6Status+0xb5>
    48da: a5 c7        	lda	$c7                     ; 0xc7 <__rc31+0x98>
    48dc: d0 04        	bne	$48e2 <_ZN12_GLOBAL__N_112print_stringEPKcP6Status+0xde>
    48de: a5 c6        	lda	$c6                     ; 0xc6 <__rc31+0x97>
    48e0: f0 25        	beq	$4907 <_ZN12_GLOBAL__N_112print_stringEPKcP6Status+0x103>
    48e2: a2 ff        	ldx	#$ff
    48e4: c6 c6        	dec	$c6                     ; 0xc6 <__rc31+0x97>
    48e6: e4 c6        	cpx	$c6                     ; 0xc6 <__rc31+0x97>
    48e8: d0 02        	bne	$48ec <_ZN12_GLOBAL__N_112print_stringEPKcP6Status+0xe8>
    48ea: c6 c7        	dec	$c7                     ; 0xc7 <__rc31+0x98>
    48ec: b2 c2        	lda	($c2)                   ; 0xc2 <__rc31+0x93>
    48ee: e6 c2        	inc	$c2                     ; 0xc2 <__rc31+0x93>
    48f0: d0 02        	bne	$48f4 <_ZN12_GLOBAL__N_112print_stringEPKcP6Status+0xf0>
    48f2: e6 c3        	inc	$c3                     ; 0xc3 <__rc31+0x94>
    48f4: a6 c4        	ldx	$c4                     ; 0xc4 <__rc31+0x95>
    48f6: 86 12        	stx	$12                     ; 0x12 <__rc2>
    48f8: a6 c5        	ldx	$c5                     ; 0xc5 <__rc31+0x96>
    48fa: 86 13        	stx	$13                     ; 0x13 <__rc3>
    48fc: 20 2d 47     	jsr	$472d <_ZN12_GLOBAL__N_13putEcP6Status>
    48ff: a5 c7        	lda	$c7                     ; 0xc7 <__rc31+0x98>
    4901: d0 df        	bne	$48e2 <_ZN12_GLOBAL__N_112print_stringEPKcP6Status+0xde>
    4903: a5 c6        	lda	$c6                     ; 0xc6 <__rc31+0x97>
    4905: d0 db        	bne	$48e2 <_ZN12_GLOBAL__N_112print_stringEPKcP6Status+0xde>
    4907: 60           	rts
    4908: a6 12        	ldx	$12                     ; 0x12 <__rc2>
    490a: 86 c6        	stx	$c6                     ; 0xc6 <__rc31+0x97>
    490c: a6 13        	ldx	$13                     ; 0x13 <__rc3>
    490e: 86 c7        	stx	$c7                     ; 0xc7 <__rc31+0x98>
    4910: 4c 71 48     	jmp	$4871 <_ZN12_GLOBAL__N_112print_stringEPKcP6Status+0x6d>

00004913 <printf>:
    4913: 18           	clc
    4914: a6 10        	ldx	$10                     ; 0x10 <__rc0>
    4916: a4 11        	ldy	$11                     ; 0x11 <__rc1>
    4918: 86 8c        	stx	$8c                     ; 0x8c <__rc31+0x5d>
    491a: 84 8d        	sty	$8d                     ; 0x8d <__rc31+0x5e>
    491c: a6 8c        	ldx	$8c                     ; 0x8c <__rc31+0x5d>
    491e: a4 8d        	ldy	$8d                     ; 0x8d <__rc31+0x5e>
    4920: 86 77        	stx	$77                     ; 0x77 <__rc31+0x48>
    4922: 84 78        	sty	$78                     ; 0x78 <__rc31+0x49>
    4924: a2 ff        	ldx	#$ff
    4926: 86 7c        	stx	$7c                     ; 0x7c <__rc31+0x4d>
    4928: 86 7d        	stx	$7d                     ; 0x7d <__rc31+0x4e>
    492a: 64 7e        	stz	$7e                     ; 0x7e <__rc31+0x4f>
    492c: 64 7f        	stz	$7f                     ; 0x7f <__rc31+0x50>
    492e: e8           	inx
    492f: 86 14        	stx	$14                     ; 0x14 <__rc4>
    4931: a2 00        	ldx	#$0
    4933: 86 15        	stx	$15                     ; 0x15 <__rc5>
    4935: a6 14        	ldx	$14                     ; 0x14 <__rc4>
    4937: a4 15        	ldy	$15                     ; 0x15 <__rc5>
    4939: 86 82        	stx	$82                     ; 0x82 <__rc31+0x53>
    493b: 84 83        	sty	$83                     ; 0x83 <__rc31+0x54>
    493d: a2 02        	ldx	#$2
    493f: 86 88        	stx	$88                     ; 0x88 <__rc31+0x59>
    4941: 64 89        	stz	$89                     ; 0x89 <__rc31+0x5a>
    4943: a6 77        	ldx	$77                     ; 0x77 <__rc31+0x48>
    4945: a4 78        	ldy	$78                     ; 0x78 <__rc31+0x49>
    4947: 86 8a        	stx	$8a                     ; 0x8a <__rc31+0x5b>
    4949: 84 8b        	sty	$8b                     ; 0x8b <__rc31+0x5c>
    494b: a2 79        	ldx	#$79
    494d: 86 75        	stx	$75                     ; 0x75 <__rc31+0x46>
    494f: a2 00        	ldx	#$0
    4951: 86 76        	stx	$76                     ; 0x76 <__rc31+0x47>
    4953: a6 12        	ldx	$12                     ; 0x12 <__rc2>
    4955: 86 73        	stx	$73                     ; 0x73 <__rc31+0x44>
    4957: a6 13        	ldx	$13                     ; 0x13 <__rc3>
    4959: 86 74        	stx	$74                     ; 0x74 <__rc31+0x45>
    495b: b2 12        	lda	($12)                   ; 0x12 <__rc2>
    495d: a2 00        	ldx	#$0
    495f: c9 25        	cmp	#$25
    4961: f0 1c        	beq	$497f <printf+0x6c>
    4963: a8           	tay
    4964: f0 36        	beq	$499c <printf+0x89>
    4966: 20 7f 4a     	jsr	$4a7f <putchar>
    4969: e6 73        	inc	$73                     ; 0x73 <__rc31+0x44>
    496b: d0 02        	bne	$496f <printf+0x5c>
    496d: e6 74        	inc	$74                     ; 0x74 <__rc31+0x45>
    496f: e6 7e        	inc	$7e                     ; 0x7e <__rc31+0x4f>
    4971: d0 02        	bne	$4975 <printf+0x62>
    4973: e6 7f        	inc	$7f                     ; 0x7f <__rc31+0x50>
    4975: a6 73        	ldx	$73                     ; 0x73 <__rc31+0x44>
    4977: 86 12        	stx	$12                     ; 0x12 <__rc2>
    4979: a6 74        	ldx	$74                     ; 0x74 <__rc31+0x45>
    497b: 86 13        	stx	$13                     ; 0x13 <__rc3>
    497d: 80 d4        	bra	$4953 <printf+0x40>
    497f: a6 75        	ldx	$75                     ; 0x75 <__rc31+0x46>
    4981: 86 14        	stx	$14                     ; 0x14 <__rc4>
    4983: a6 76        	ldx	$76                     ; 0x76 <__rc31+0x47>
    4985: 86 15        	stx	$15                     ; 0x15 <__rc5>
    4987: 20 b7 3b     	jsr	$3bb7 <_ZN12_GLOBAL__N_15printEPKcP6Status>
    498a: a6 13        	ldx	$13                     ; 0x13 <__rc3>
    498c: e4 74        	cpx	$74                     ; 0x74 <__rc31+0x45>
    498e: d0 c3        	bne	$4953 <printf+0x40>
    4990: a6 12        	ldx	$12                     ; 0x12 <__rc2>
    4992: e4 73        	cpx	$73                     ; 0x73 <__rc31+0x44>
    4994: d0 bd        	bne	$4953 <printf+0x40>
    4996: b2 73        	lda	($73)                   ; 0x73 <__rc31+0x44>
    4998: a2 00        	ldx	#$0
    499a: 80 ca        	bra	$4966 <printf+0x53>
    499c: 60           	rts

0000499d <sprintf>:
    499d: a6 12        	ldx	$12                     ; 0x12 <__rc2>
    499f: 86 60        	stx	$60                     ; 0x60 <__rc31+0x31>
    49a1: a6 13        	ldx	$13                     ; 0x13 <__rc3>
    49a3: 86 61        	stx	$61                     ; 0x61 <__rc31+0x32>
    49a5: 18           	clc
    49a6: a6 10        	ldx	$10                     ; 0x10 <__rc0>
    49a8: a4 11        	ldy	$11                     ; 0x11 <__rc1>
    49aa: 86 7b        	stx	$7b                     ; 0x7b <__rc31+0x4c>
    49ac: 84 7c        	sty	$7c                     ; 0x7c <__rc31+0x4d>
    49ae: a6 7b        	ldx	$7b                     ; 0x7b <__rc31+0x4c>
    49b0: a4 7c        	ldy	$7c                     ; 0x7c <__rc31+0x4d>
    49b2: 86 66        	stx	$66                     ; 0x66 <__rc31+0x37>
    49b4: 84 67        	sty	$67                     ; 0x67 <__rc31+0x38>
    49b6: a2 ff        	ldx	#$ff
    49b8: 86 6b        	stx	$6b                     ; 0x6b <__rc31+0x3c>
    49ba: 86 6c        	stx	$6c                     ; 0x6c <__rc31+0x3d>
    49bc: 64 6d        	stz	$6d                     ; 0x6d <__rc31+0x3e>
    49be: 64 6e        	stz	$6e                     ; 0x6e <__rc31+0x3f>
    49c0: a6 60        	ldx	$60                     ; 0x60 <__rc31+0x31>
    49c2: a4 61        	ldy	$61                     ; 0x61 <__rc31+0x32>
    49c4: 86 71        	stx	$71                     ; 0x71 <__rc31+0x42>
    49c6: 84 72        	sty	$72                     ; 0x72 <__rc31+0x43>
    49c8: a2 00        	ldx	#$0
    49ca: 86 12        	stx	$12                     ; 0x12 <__rc2>
    49cc: a2 00        	ldx	#$0
    49ce: 86 13        	stx	$13                     ; 0x13 <__rc3>
    49d0: a6 12        	ldx	$12                     ; 0x12 <__rc2>
    49d2: a4 13        	ldy	$13                     ; 0x13 <__rc3>
    49d4: 86 77        	stx	$77                     ; 0x77 <__rc31+0x48>
    49d6: 84 78        	sty	$78                     ; 0x78 <__rc31+0x49>
    49d8: a6 66        	ldx	$66                     ; 0x66 <__rc31+0x37>
    49da: a4 67        	ldy	$67                     ; 0x67 <__rc31+0x38>
    49dc: 86 79        	stx	$79                     ; 0x79 <__rc31+0x4a>
    49de: 84 7a        	sty	$7a                     ; 0x7a <__rc31+0x4b>
    49e0: a2 ce        	ldx	#$ce
    49e2: 86 12        	stx	$12                     ; 0x12 <__rc2>
    49e4: a2 51        	ldx	#$51
    49e6: 86 13        	stx	$13                     ; 0x13 <__rc3>
    49e8: a2 68        	ldx	#$68
    49ea: 86 64        	stx	$64                     ; 0x64 <__rc31+0x35>
    49ec: a2 00        	ldx	#$0
    49ee: 86 65        	stx	$65                     ; 0x65 <__rc31+0x36>
    49f0: 80 17        	bra	$4a09 <sprintf+0x6c>
    49f2: a6 64        	ldx	$64                     ; 0x64 <__rc31+0x35>
    49f4: 86 14        	stx	$14                     ; 0x14 <__rc4>
    49f6: a6 65        	ldx	$65                     ; 0x65 <__rc31+0x36>
    49f8: 86 15        	stx	$15                     ; 0x15 <__rc5>
    49fa: 20 b7 3b     	jsr	$3bb7 <_ZN12_GLOBAL__N_15printEPKcP6Status>
    49fd: a6 13        	ldx	$13                     ; 0x13 <__rc3>
    49ff: e4 63        	cpx	$63                     ; 0x63 <__rc31+0x34>
    4a01: d0 06        	bne	$4a09 <sprintf+0x6c>
    4a03: a6 12        	ldx	$12                     ; 0x12 <__rc2>
    4a05: e4 62        	cpx	$62                     ; 0x62 <__rc31+0x33>
    4a07: f0 11        	beq	$4a1a <sprintf+0x7d>
    4a09: a6 12        	ldx	$12                     ; 0x12 <__rc2>
    4a0b: 86 62        	stx	$62                     ; 0x62 <__rc31+0x33>
    4a0d: a6 13        	ldx	$13                     ; 0x13 <__rc3>
    4a0f: 86 63        	stx	$63                     ; 0x63 <__rc31+0x34>
    4a11: b2 12        	lda	($12)                   ; 0x12 <__rc2>
    4a13: c9 25        	cmp	#$25
    4a15: f0 db        	beq	$49f2 <sprintf+0x55>
    4a17: aa           	tax
    4a18: f0 43        	beq	$4a5d <sprintf+0xc0>
    4a1a: a6 6d        	ldx	$6d                     ; 0x6d <__rc31+0x3e>
    4a1c: 86 12        	stx	$12                     ; 0x12 <__rc2>
    4a1e: a4 6e        	ldy	$6e                     ; 0x6e <__rc31+0x3f>
    4a20: 84 13        	sty	$13                     ; 0x13 <__rc3>
    4a22: c0 ff        	cpy	#$ff
    4a24: d0 04        	bne	$4a2a <sprintf+0x8d>
    4a26: e0 ff        	cpx	#$ff
    4a28: f0 15        	beq	$4a3f <sprintf+0xa2>
    4a2a: b2 62        	lda	($62)                   ; 0x62 <__rc31+0x33>
    4a2c: 85 16        	sta	$16                     ; 0x16 <__rc6>
    4a2e: a5 60        	lda	$60                     ; 0x60 <__rc31+0x31>
    4a30: 18           	clc
    4a31: 65 12        	adc	$12                     ; 0x12 <__rc2>
    4a33: 85 14        	sta	$14                     ; 0x14 <__rc4>
    4a35: a5 61        	lda	$61                     ; 0x61 <__rc31+0x32>
    4a37: 65 13        	adc	$13                     ; 0x13 <__rc3>
    4a39: 85 15        	sta	$15                     ; 0x15 <__rc5>
    4a3b: a5 16        	lda	$16                     ; 0x16 <__rc6>
    4a3d: 92 14        	sta	($14)                   ; 0x14 <__rc4>
    4a3f: e6 12        	inc	$12                     ; 0x12 <__rc2>
    4a41: d0 02        	bne	$4a45 <sprintf+0xa8>
    4a43: e6 13        	inc	$13                     ; 0x13 <__rc3>
    4a45: a6 12        	ldx	$12                     ; 0x12 <__rc2>
    4a47: a4 13        	ldy	$13                     ; 0x13 <__rc3>
    4a49: 86 6d        	stx	$6d                     ; 0x6d <__rc31+0x3e>
    4a4b: 84 6e        	sty	$6e                     ; 0x6e <__rc31+0x3f>
    4a4d: e6 62        	inc	$62                     ; 0x62 <__rc31+0x33>
    4a4f: d0 02        	bne	$4a53 <sprintf+0xb6>
    4a51: e6 63        	inc	$63                     ; 0x63 <__rc31+0x34>
    4a53: a6 62        	ldx	$62                     ; 0x62 <__rc31+0x33>
    4a55: 86 12        	stx	$12                     ; 0x12 <__rc2>
    4a57: a6 63        	ldx	$63                     ; 0x63 <__rc31+0x34>
    4a59: 86 13        	stx	$13                     ; 0x13 <__rc3>
    4a5b: 80 ac        	bra	$4a09 <sprintf+0x6c>
    4a5d: a6 6d        	ldx	$6d                     ; 0x6d <__rc31+0x3e>
    4a5f: 86 12        	stx	$12                     ; 0x12 <__rc2>
    4a61: a4 6e        	ldy	$6e                     ; 0x6e <__rc31+0x3f>
    4a63: 84 13        	sty	$13                     ; 0x13 <__rc3>
    4a65: c0 ff        	cpy	#$ff
    4a67: d0 04        	bne	$4a6d <sprintf+0xd0>
    4a69: e0 ff        	cpx	#$ff
    4a6b: f0 11        	beq	$4a7e <sprintf+0xe1>
    4a6d: a5 60        	lda	$60                     ; 0x60 <__rc31+0x31>
    4a6f: 18           	clc
    4a70: 65 12        	adc	$12                     ; 0x12 <__rc2>
    4a72: 85 12        	sta	$12                     ; 0x12 <__rc2>
    4a74: a5 61        	lda	$61                     ; 0x61 <__rc31+0x32>
    4a76: 65 13        	adc	$13                     ; 0x13 <__rc3>
    4a78: 85 13        	sta	$13                     ; 0x13 <__rc3>
    4a7a: a9 00        	lda	#$0
    4a7c: 92 12        	sta	($12)                   ; 0x12 <__rc2>
    4a7e: 60           	rts

00004a7f <putchar>:
    4a7f: 86 12        	stx	$12                     ; 0x12 <__rc2>
    4a81: 85 cd        	sta	$cd                     ; 0xcd <__rc31+0x9e>
    4a83: 85 5d        	sta	$5d                     ; 0x5d <__putchar.s>
    4a85: a6 01        	ldx	$1                      ; 0x1 <__data_size+0x1>
    4a87: 86 ce        	stx	$ce                     ; 0xce <__rc31+0x9f>
    4a89: a6 54        	ldx	$54                     ; 0x54 <_row>
    4a8b: a0 50        	ldy	#$50
    4a8d: 8c 00 de     	sty	$de00                   ; 0xde00 <end_block9+0x577c>
    4a90: 9c 01 de     	stz	$de01                   ; 0xde01 <end_block9+0x577d>
    4a93: 8e 02 de     	stx	$de02                   ; 0xde02 <end_block9+0x577e>
    4a96: 9c 03 de     	stz	$de03                   ; 0xde03 <end_block9+0x577f>
    4a99: ae 10 de     	ldx	$de10                   ; 0xde10 <end_block9+0x578c>
    4a9c: 86 13        	stx	$13                     ; 0x13 <__rc3>
    4a9e: ad 11 de     	lda	$de11                   ; 0xde11 <end_block9+0x578d>
    4aa1: ae 12 de     	ldx	$de12                   ; 0xde12 <end_block9+0x578e>
    4aa4: 86 1a        	stx	$1a                     ; 0x1a <__rc10>
    4aa6: ae 13 de     	ldx	$de13                   ; 0xde13 <end_block9+0x578f>
    4aa9: 86 1b        	stx	$1b                     ; 0x1b <__rc11>
    4aab: 9c 08 de     	stz	$de08                   ; 0xde08 <end_block9+0x5784>
    4aae: a2 c0        	ldx	#$c0
    4ab0: 8e 09 de     	stx	$de09                   ; 0xde09 <end_block9+0x5785>
    4ab3: 9c 0a de     	stz	$de0a                   ; 0xde0a <end_block9+0x5786>
    4ab6: 9c 0b de     	stz	$de0b                   ; 0xde0b <end_block9+0x5787>
    4ab9: a6 13        	ldx	$13                     ; 0x13 <__rc3>
    4abb: 8e 0c de     	stx	$de0c                   ; 0xde0c <end_block9+0x5788>
    4abe: 8d 0d de     	sta	$de0d                   ; 0xde0d <end_block9+0x5789>
    4ac1: 64 13        	stz	$13                     ; 0x13 <__rc3>
    4ac3: a2 00        	ldx	#$0
    4ac5: 86 14        	stx	$14                     ; 0x14 <__rc4>
    4ac7: a2 c0        	ldx	#$c0
    4ac9: 86 15        	stx	$15                     ; 0x15 <__rc5>
    4acb: a2 11        	ldx	#$11
    4acd: 86 16        	stx	$16                     ; 0x16 <__rc6>
    4acf: a2 c9        	ldx	#$c9
    4ad1: 86 17        	stx	$17                     ; 0x17 <__rc7>
    4ad3: a2 10        	ldx	#$10
    4ad5: 86 18        	stx	$18                     ; 0x18 <__rc8>
    4ad7: a2 c9        	ldx	#$c9
    4ad9: 86 19        	stx	$19                     ; 0x19 <__rc9>
    4adb: a6 1a        	ldx	$1a                     ; 0x1a <__rc10>
    4add: 8e 0e de     	stx	$de0e                   ; 0xde0e <end_block9+0x578a>
    4ae0: a6 1b        	ldx	$1b                     ; 0x1b <__rc11>
    4ae2: 8e 0f de     	stx	$de0f                   ; 0xde0f <end_block9+0x578b>
    4ae5: ae 18 de     	ldx	$de18                   ; 0xde18 <end_block9+0x5794>
    4ae8: 86 1c        	stx	$1c                     ; 0x1c <__rc12>
    4aea: ad 19 de     	lda	$de19                   ; 0xde19 <end_block9+0x5795>
    4aed: ae 1a de     	ldx	$de1a                   ; 0xde1a <end_block9+0x5796>
    4af0: ae 1b de     	ldx	$de1b                   ; 0xde1b <end_block9+0x5797>
    4af3: 85 1d        	sta	$1d                     ; 0x1d <__rc13>
    4af5: 64 1a        	stz	$1a                     ; 0x1a <__rc10>
    4af7: a2 20        	ldx	#$20
    4af9: 86 d0        	stx	$d0                     ; 0xd0 <__rc31+0xa1>
    4afb: 80 13        	bra	$4b10 <putchar+0x91>
    4afd: a5 1c        	lda	$1c                     ; 0x1c <__rc12>
    4aff: 18           	clc
    4b00: 69 50        	adc	#$50
    4b02: 85 1c        	sta	$1c                     ; 0x1c <__rc12>
    4b04: a5 1d        	lda	$1d                     ; 0x1d <__rc13>
    4b06: 69 00        	adc	#$0
    4b08: 85 1d        	sta	$1d                     ; 0x1d <__rc13>
    4b0a: e6 13        	inc	$13                     ; 0x13 <__rc3>
    4b0c: d0 02        	bne	$4b10 <putchar+0x91>
    4b0e: e6 1a        	inc	$1a                     ; 0x1a <__rc10>
    4b10: a9 5d        	lda	#$5d
    4b12: 18           	clc
    4b13: 65 13        	adc	$13                     ; 0x13 <__rc3>
    4b15: 85 1e        	sta	$1e                     ; 0x1e <__rc14>
    4b17: a9 00        	lda	#$0
    4b19: 65 1a        	adc	$1a                     ; 0x1a <__rc10>
    4b1b: 85 1f        	sta	$1f                     ; 0x1f <__rc15>
    4b1d: b2 1e        	lda	($1e)                   ; 0x1e <__rc14>
    4b1f: c9 0a        	cmp	#$a
    4b21: f0 2a        	beq	$4b4d <putchar+0xce>
    4b23: c9 0d        	cmp	#$d
    4b25: f0 26        	beq	$4b4d <putchar+0xce>
    4b27: aa           	tax
    4b28: d0 03        	bne	$4b2d <putchar+0xae>
    4b2a: 4c 3c 4c     	jmp	$4c3c <putchar+0x1bd>
    4b2d: a2 03        	ldx	#$3
    4b2f: 86 01        	stx	$1                      ; 0x1 <__data_size+0x1>
    4b31: a5 33        	lda	$33                     ; 0x33 <_ccolor>
    4b33: 84 1b        	sty	$1b                     ; 0x1b <__rc11>
    4b35: a4 53        	ldy	$53                     ; 0x53 <_col>
    4b37: 91 1c        	sta	($1c),y                 ; 0x1c <__rc12>
    4b39: ca           	dex
    4b3a: 86 01        	stx	$1                      ; 0x1 <__data_size+0x1>
    4b3c: b2 1e        	lda	($1e)                   ; 0x1e <__rc14>
    4b3e: a4 53        	ldy	$53                     ; 0x53 <_col>
    4b40: 91 1c        	sta	($1c),y                 ; 0x1c <__rc12>
    4b42: a4 1b        	ldy	$1b                     ; 0x1b <__rc11>
    4b44: a6 53        	ldx	$53                     ; 0x53 <_col>
    4b46: e8           	inx
    4b47: e6 53        	inc	$53                     ; 0x53 <_col>
    4b49: e0 50        	cpx	#$50
    4b4b: d0 bd        	bne	$4b0a <putchar+0x8b>
    4b4d: 64 53        	stz	$53                     ; 0x53 <_col>
    4b4f: a6 54        	ldx	$54                     ; 0x54 <_row>
    4b51: e8           	inx
    4b52: e6 54        	inc	$54                     ; 0x54 <_row>
    4b54: e0 1e        	cpx	#$1e
    4b56: f0 03        	beq	$4b5b <putchar+0xdc>
    4b58: 4c fd 4a     	jmp	$4afd <putchar+0x7e>
    4b5b: a2 50        	ldx	#$50
    4b5d: 86 cf        	stx	$cf                     ; 0xcf <__rc31+0xa0>
    4b5f: a2 03        	ldx	#$3
    4b61: 86 01        	stx	$1                      ; 0x1 <__data_size+0x1>
    4b63: a2 01        	ldx	#$1
    4b65: 86 1b        	stx	$1b                     ; 0x1b <__rc11>
    4b67: a2 09        	ldx	#$9
    4b69: a9 10        	lda	#$10
    4b6b: a0 00        	ldy	#$0
    4b6d: 84 1c        	sty	$1c                     ; 0x1c <__rc12>
    4b6f: a0 c0        	ldy	#$c0
    4b71: 84 1d        	sty	$1d                     ; 0x1d <__rc13>
    4b73: 85 1e        	sta	$1e                     ; 0x1e <__rc14>
    4b75: a4 cf        	ldy	$cf                     ; 0xcf <__rc31+0xa0>
    4b77: b1 1c        	lda	($1c),y                 ; 0x1c <__rc12>
    4b79: 92 1c        	sta	($1c)                   ; 0x1c <__rc12>
    4b7b: a9 ff        	lda	#$ff
    4b7d: c6 1e        	dec	$1e                     ; 0x1e <__rc14>
    4b7f: c5 1e        	cmp	$1e                     ; 0x1e <__rc14>
    4b81: d0 01        	bne	$4b84 <putchar+0x105>
    4b83: ca           	dex
    4b84: e6 1c        	inc	$1c                     ; 0x1c <__rc12>
    4b86: d0 02        	bne	$4b8a <putchar+0x10b>
    4b88: e6 1d        	inc	$1d                     ; 0x1d <__rc13>
    4b8a: 8a           	txa
    4b8b: d0 ea        	bne	$4b77 <putchar+0xf8>
    4b8d: a5 1e        	lda	$1e                     ; 0x1e <__rc14>
    4b8f: d0 e6        	bne	$4b77 <putchar+0xf8>
    4b91: a2 50        	ldx	#$50
    4b93: 86 cf        	stx	$cf                     ; 0xcf <__rc31+0xa0>
    4b95: a2 02        	ldx	#$2
    4b97: 86 01        	stx	$1                      ; 0x1 <__data_size+0x1>
    4b99: a2 00        	ldx	#$0
    4b9b: a5 1b        	lda	$1b                     ; 0x1b <__rc11>
    4b9d: d0 c6        	bne	$4b65 <putchar+0xe6>
    4b9f: a2 03        	ldx	#$3
    4ba1: 86 01        	stx	$1                      ; 0x1 <__data_size+0x1>
    4ba3: a5 33        	lda	$33                     ; 0x33 <_ccolor>
    4ba5: a2 50        	ldx	#$50
    4ba7: a0 11        	ldy	#$11
    4ba9: 84 1c        	sty	$1c                     ; 0x1c <__rc12>
    4bab: a0 c9        	ldy	#$c9
    4bad: 84 1d        	sty	$1d                     ; 0x1d <__rc13>
    4baf: a0 10        	ldy	#$10
    4bb1: 84 1e        	sty	$1e                     ; 0x1e <__rc14>
    4bb3: a0 c9        	ldy	#$c9
    4bb5: 84 1f        	sty	$1f                     ; 0x1f <__rc15>
    4bb7: a4 1e        	ldy	$1e                     ; 0x1e <__rc14>
    4bb9: 84 22        	sty	$22                     ; 0x22 <__rc18>
    4bbb: a4 1f        	ldy	$1f                     ; 0x1f <__rc15>
    4bbd: 84 23        	sty	$23                     ; 0x23 <__rc19>
    4bbf: a4 1c        	ldy	$1c                     ; 0x1c <__rc12>
    4bc1: 84 1e        	sty	$1e                     ; 0x1e <__rc14>
    4bc3: a4 1d        	ldy	$1d                     ; 0x1d <__rc13>
    4bc5: 84 1f        	sty	$1f                     ; 0x1f <__rc15>
    4bc7: 92 22        	sta	($22)                   ; 0x22 <__rc18>
    4bc9: e6 1c        	inc	$1c                     ; 0x1c <__rc12>
    4bcb: d0 02        	bne	$4bcf <putchar+0x150>
    4bcd: e6 1d        	inc	$1d                     ; 0x1d <__rc13>
    4bcf: ca           	dex
    4bd0: d0 e5        	bne	$4bb7 <putchar+0x138>
    4bd2: a2 02        	ldx	#$2
    4bd4: 86 01        	stx	$1                      ; 0x1 <__data_size+0x1>
    4bd6: a2 50        	ldx	#$50
    4bd8: a0 11        	ldy	#$11
    4bda: 84 1c        	sty	$1c                     ; 0x1c <__rc12>
    4bdc: a0 c9        	ldy	#$c9
    4bde: 84 1d        	sty	$1d                     ; 0x1d <__rc13>
    4be0: a0 10        	ldy	#$10
    4be2: 84 1e        	sty	$1e                     ; 0x1e <__rc14>
    4be4: a0 c9        	ldy	#$c9
    4be6: 84 1f        	sty	$1f                     ; 0x1f <__rc15>
    4be8: a5 d0        	lda	$d0                     ; 0xd0 <__rc31+0xa1>
    4bea: a4 1e        	ldy	$1e                     ; 0x1e <__rc14>
    4bec: 84 22        	sty	$22                     ; 0x22 <__rc18>
    4bee: a4 1f        	ldy	$1f                     ; 0x1f <__rc15>
    4bf0: 84 23        	sty	$23                     ; 0x23 <__rc19>
    4bf2: a4 1c        	ldy	$1c                     ; 0x1c <__rc12>
    4bf4: 84 1e        	sty	$1e                     ; 0x1e <__rc14>
    4bf6: a4 1d        	ldy	$1d                     ; 0x1d <__rc13>
    4bf8: 84 1f        	sty	$1f                     ; 0x1f <__rc15>
    4bfa: 92 22        	sta	($22)                   ; 0x22 <__rc18>
    4bfc: e6 1c        	inc	$1c                     ; 0x1c <__rc12>
    4bfe: d0 02        	bne	$4c02 <putchar+0x183>
    4c00: e6 1d        	inc	$1d                     ; 0x1d <__rc13>
    4c02: ca           	dex
    4c03: d0 e5        	bne	$4bea <putchar+0x16b>
    4c05: a2 20        	ldx	#$20
    4c07: 86 d0        	stx	$d0                     ; 0xd0 <__rc31+0xa1>
    4c09: c6 54        	dec	$54                     ; 0x54 <_row>
    4c0b: 9c 08 de     	stz	$de08                   ; 0xde08 <end_block9+0x5784>
    4c0e: a2 c0        	ldx	#$c0
    4c10: 8e 09 de     	stx	$de09                   ; 0xde09 <end_block9+0x5785>
    4c13: 9c 0a de     	stz	$de0a                   ; 0xde0a <end_block9+0x5786>
    4c16: 9c 0b de     	stz	$de0b                   ; 0xde0b <end_block9+0x5787>
    4c19: a2 1d        	ldx	#$1d
    4c1b: 8e 0c de     	stx	$de0c                   ; 0xde0c <end_block9+0x5788>
    4c1e: 9c 0d de     	stz	$de0d                   ; 0xde0d <end_block9+0x5789>
    4c21: 9c 0e de     	stz	$de0e                   ; 0xde0e <end_block9+0x578a>
    4c24: 9c 0f de     	stz	$de0f                   ; 0xde0f <end_block9+0x578b>
    4c27: ae 18 de     	ldx	$de18                   ; 0xde18 <end_block9+0x5794>
    4c2a: ac 19 de     	ldy	$de19                   ; 0xde19 <end_block9+0x5795>
    4c2d: ad 1a de     	lda	$de1a                   ; 0xde1a <end_block9+0x5796>
    4c30: ad 1b de     	lda	$de1b                   ; 0xde1b <end_block9+0x5797>
    4c33: 86 1c        	stx	$1c                     ; 0x1c <__rc12>
    4c35: 84 1d        	sty	$1d                     ; 0x1d <__rc13>
    4c37: a4 cf        	ldy	$cf                     ; 0xcf <__rc31+0xa0>
    4c39: 4c 0a 4b     	jmp	$4b0a <putchar+0x8b>
    4c3c: a6 ce        	ldx	$ce                     ; 0xce <__rc31+0x9f>
    4c3e: 86 01        	stx	$1                      ; 0x1 <__data_size+0x1>
    4c40: a6 53        	ldx	$53                     ; 0x53 <_col>
    4c42: a4 54        	ldy	$54                     ; 0x54 <_row>
    4c44: 8e 14 d0     	stx	$d014                   ; 0xd014 <end_block9+0x4990>
    4c47: 9c 15 d0     	stz	$d015                   ; 0xd015 <end_block9+0x4991>
    4c4a: 84 54        	sty	$54                     ; 0x54 <_row>
    4c4c: 8c 16 d0     	sty	$d016                   ; 0xd016 <end_block9+0x4992>
    4c4f: 9c 17 d0     	stz	$d017                   ; 0xd017 <end_block9+0x4993>
    4c52: a6 12        	ldx	$12                     ; 0x12 <__rc2>
    4c54: a5 cd        	lda	$cd                     ; 0xcd <__rc31+0x9e>
    4c56: 60           	rts

00004c57 <malloc>:
    4c57: a8           	tay
    4c58: 8a           	txa
    4c59: a2 00        	ldx	#$0
    4c5b: 86 12        	stx	$12                     ; 0x12 <__rc2>
    4c5d: a2 00        	ldx	#$0
    4c5f: 86 13        	stx	$13                     ; 0x13 <__rc3>
    4c61: aa           	tax
    4c62: d0 07        	bne	$4c6b <malloc+0x14>
    4c64: c0 00        	cpy	#$0
    4c66: d0 03        	bne	$4c6b <malloc+0x14>
    4c68: 4c 6f 4d     	jmp	$4d6f <malloc+0x118>
    4c6b: 84 16        	sty	$16                     ; 0x16 <__rc6>
    4c6d: aa           	tax
    4c6e: d0 0e        	bne	$4c7e <malloc+0x27>
    4c70: a6 16        	ldx	$16                     ; 0x16 <__rc6>
    4c72: e0 07        	cpx	#$7
    4c74: b0 0c        	bcs	$4c82 <malloc+0x2b>
    4c76: a2 08        	ldx	#$8
    4c78: 86 61        	stx	$61                     ; 0x61 <__rc31+0x32>
    4c7a: a9 00        	lda	#$0
    4c7c: 80 31        	bra	$4caf <malloc+0x58>
    4c7e: c9 00        	cmp	#$0
    4c80: 90 f4        	bcc	$4c76 <malloc+0x1f>
    4c82: a8           	tay
    4c83: a5 16        	lda	$16                     ; 0x16 <__rc6>
    4c85: 29 01        	and	#$1
    4c87: a2 02        	ldx	#$2
    4c89: 64 14        	stz	$14                     ; 0x14 <__rc4>
    4c8b: c9 00        	cmp	#$0
    4c8d: f0 02        	beq	$4c91 <malloc+0x3a>
    4c8f: a2 03        	ldx	#$3
    4c91: 86 15        	stx	$15                     ; 0x15 <__rc5>
    4c93: 18           	clc
    4c94: a5 16        	lda	$16                     ; 0x16 <__rc6>
    4c96: 65 15        	adc	$15                     ; 0x15 <__rc5>
    4c98: aa           	tax
    4c99: 98           	tya
    4c9a: 65 14        	adc	$14                     ; 0x14 <__rc4>
    4c9c: 90 03        	bcc	$4ca1 <malloc+0x4a>
    4c9e: 4c 6f 4d     	jmp	$4d6f <malloc+0x118>
    4ca1: 86 14        	stx	$14                     ; 0x14 <__rc4>
    4ca3: 86 61        	stx	$61                     ; 0x61 <__rc31+0x32>
    4ca5: aa           	tax
    4ca6: d0 07        	bne	$4caf <malloc+0x58>
    4ca8: a6 14        	ldx	$14                     ; 0x14 <__rc4>
    4caa: d0 03        	bne	$4caf <malloc+0x58>
    4cac: 4c 6f 4d     	jmp	$4d6f <malloc+0x118>
    4caf: 85 60        	sta	$60                     ; 0x60 <__rc31+0x31>
    4cb1: ad 06 86     	lda	$8606                   ; 0x8606 <_ZN12_GLOBAL__N_111initializedE>
    4cb4: 29 01        	and	#$1
    4cb6: d0 3d        	bne	$4cf5 <malloc+0x9e>
    4cb8: a9 00        	lda	#$0
    4cba: a2 10        	ldx	#$10
    4cbc: a0 84        	ldy	#$84
    4cbe: 84 14        	sty	$14                     ; 0x14 <__rc4>
    4cc0: a0 86        	ldy	#$86
    4cc2: 84 15        	sty	$15                     ; 0x15 <__rc5>
    4cc4: a4 12        	ldy	$12                     ; 0x12 <__rc2>
    4cc6: 84 62        	sty	$62                     ; 0x62 <__rc31+0x33>
    4cc8: a4 13        	ldy	$13                     ; 0x13 <__rc3>
    4cca: 84 63        	sty	$63                     ; 0x63 <__rc31+0x34>
    4ccc: a0 84        	ldy	#$84
    4cce: 84 12        	sty	$12                     ; 0x12 <__rc2>
    4cd0: a0 86        	ldy	#$86
    4cd2: 84 13        	sty	$13                     ; 0x13 <__rc3>
    4cd4: 20 1c 03     	jsr	$31c <_ZN12_GLOBAL__N_19FreeChunk6insertEPvj>
    4cd7: a6 62        	ldx	$62                     ; 0x62 <__rc31+0x33>
    4cd9: 86 12        	stx	$12                     ; 0x12 <__rc2>
    4cdb: a6 63        	ldx	$63                     ; 0x63 <__rc31+0x34>
    4cdd: 86 13        	stx	$13                     ; 0x13 <__rc3>
    4cdf: ae 85 86     	ldx	$8685                   ; 0x8685 <end_block9+0x1>
    4ce2: a9 fe        	lda	#$fe
    4ce4: 2d 84 86     	and	$8684                   ; 0x8684 <end_block9>
    4ce7: 8d 84 86     	sta	$8684                   ; 0x8684 <end_block9>
    4cea: 8e 85 86     	stx	$8685                   ; 0x8685 <end_block9+0x1>
    4ced: a2 01        	ldx	#$1
    4cef: 8e 07 86     	stx	$8607                   ; 0x8607 <_ZN12_GLOBAL__N_19last_freeE>
    4cf2: 8e 06 86     	stx	$8606                   ; 0x8606 <_ZN12_GLOBAL__N_111initializedE>
    4cf5: ae 0a 86     	ldx	$860a                   ; 0x860a <_ZN12_GLOBAL__N_19free_listE>
    4cf8: 86 16        	stx	$16                     ; 0x16 <__rc6>
    4cfa: ac 0b 86     	ldy	$860b                   ; 0x860b <_ZN12_GLOBAL__N_19free_listE+0x1>
    4cfd: 84 17        	sty	$17                     ; 0x17 <__rc7>
    4cff: a9 00        	lda	#$0
    4d01: 85 14        	sta	$14                     ; 0x14 <__rc4>
    4d03: a9 00        	lda	#$0
    4d05: 85 15        	sta	$15                     ; 0x15 <__rc5>
    4d07: c4 15        	cpy	$15                     ; 0x15 <__rc5>
    4d09: d0 07        	bne	$4d12 <malloc+0xbb>
    4d0b: e4 14        	cpx	$14                     ; 0x14 <__rc4>
    4d0d: d0 03        	bne	$4d12 <malloc+0xbb>
    4d0f: 4c 6f 4d     	jmp	$4d6f <malloc+0x118>
    4d12: a2 00        	ldx	#$0
    4d14: a0 10        	ldy	#$10
    4d16: 86 14        	stx	$14                     ; 0x14 <__rc4>
    4d18: 84 15        	sty	$15                     ; 0x15 <__rc5>
    4d1a: 18           	clc
    4d1b: a9 84        	lda	#$84
    4d1d: 65 14        	adc	$14                     ; 0x14 <__rc4>
    4d1f: 85 18        	sta	$18                     ; 0x18 <__rc8>
    4d21: a9 86        	lda	#$86
    4d23: 65 15        	adc	$15                     ; 0x15 <__rc5>
    4d25: 85 64        	sta	$64                     ; 0x64 <__rc31+0x35>
    4d27: a0 01        	ldy	#$1
    4d29: a6 60        	ldx	$60                     ; 0x60 <__rc31+0x31>
    4d2b: 86 19        	stx	$19                     ; 0x19 <__rc9>
    4d2d: a6 16        	ldx	$16                     ; 0x16 <__rc6>
    4d2f: 86 14        	stx	$14                     ; 0x14 <__rc4>
    4d31: a6 17        	ldx	$17                     ; 0x17 <__rc7>
    4d33: 86 15        	stx	$15                     ; 0x15 <__rc5>
    4d35: b1 14        	lda	($14),y                 ; 0x14 <__rc4>
    4d37: c5 19        	cmp	$19                     ; 0x19 <__rc9>
    4d39: d0 0e        	bne	$4d49 <malloc+0xf2>
    4d3b: b2 14        	lda	($14)                   ; 0x14 <__rc4>
    4d3d: 29 fe        	and	#$fe
    4d3f: a6 61        	ldx	$61                     ; 0x61 <__rc31+0x32>
    4d41: 86 1a        	stx	$1a                     ; 0x1a <__rc10>
    4d43: c5 1a        	cmp	$1a                     ; 0x1a <__rc10>
    4d45: b0 29        	bcs	$4d70 <malloc+0x119>
    4d47: 80 04        	bra	$4d4d <malloc+0xf6>
    4d49: c5 19        	cmp	$19                     ; 0x19 <__rc9>
    4d4b: b0 23        	bcs	$4d70 <malloc+0x119>
    4d4d: a5 14        	lda	$14                     ; 0x14 <__rc4>
    4d4f: 18           	clc
    4d50: 69 02        	adc	#$2
    4d52: 85 1a        	sta	$1a                     ; 0x1a <__rc10>
    4d54: a5 15        	lda	$15                     ; 0x15 <__rc5>
    4d56: 69 00        	adc	#$0
    4d58: 85 1b        	sta	$1b                     ; 0x1b <__rc11>
    4d5a: a0 02        	ldy	#$2
    4d5c: b1 14        	lda	($14),y                 ; 0x14 <__rc4>
    4d5e: 85 14        	sta	$14                     ; 0x14 <__rc4>
    4d60: 88           	dey
    4d61: b1 1a        	lda	($1a),y                 ; 0x1a <__rc10>
    4d63: 85 15        	sta	$15                     ; 0x15 <__rc5>
    4d65: c5 17        	cmp	$17                     ; 0x17 <__rc7>
    4d67: d0 cc        	bne	$4d35 <malloc+0xde>
    4d69: a5 14        	lda	$14                     ; 0x14 <__rc4>
    4d6b: c5 16        	cmp	$16                     ; 0x16 <__rc6>
    4d6d: d0 c6        	bne	$4d35 <malloc+0xde>
    4d6f: 60           	rts
    4d70: a6 18        	ldx	$18                     ; 0x18 <__rc8>
    4d72: 86 65        	stx	$65                     ; 0x65 <__rc31+0x36>
    4d74: a6 14        	ldx	$14                     ; 0x14 <__rc4>
    4d76: 86 12        	stx	$12                     ; 0x12 <__rc2>
    4d78: a6 15        	ldx	$15                     ; 0x15 <__rc5>
    4d7a: 86 13        	stx	$13                     ; 0x13 <__rc3>
    4d7c: a6 14        	ldx	$14                     ; 0x14 <__rc4>
    4d7e: 86 62        	stx	$62                     ; 0x62 <__rc31+0x33>
    4d80: a6 15        	ldx	$15                     ; 0x15 <__rc5>
    4d82: 86 63        	stx	$63                     ; 0x63 <__rc31+0x34>
    4d84: 20 70 04     	jsr	$470 <_ZN12_GLOBAL__N_19FreeChunk6removeEv>
    4d87: a6 62        	ldx	$62                     ; 0x62 <__rc31+0x33>
    4d89: 86 12        	stx	$12                     ; 0x12 <__rc2>
    4d8b: a6 63        	ldx	$63                     ; 0x63 <__rc31+0x34>
    4d8d: 86 13        	stx	$13                     ; 0x13 <__rc3>
    4d8f: a0 01        	ldy	#$1
    4d91: b1 12        	lda	($12),y                 ; 0x12 <__rc2>
    4d93: 85 15        	sta	$15                     ; 0x15 <__rc5>
    4d95: a9 fe        	lda	#$fe
    4d97: 32 12        	and	($12)                   ; 0x12 <__rc2>
    4d99: 38           	sec
    4d9a: a6 61        	ldx	$61                     ; 0x61 <__rc31+0x32>
    4d9c: 86 14        	stx	$14                     ; 0x14 <__rc4>
    4d9e: 85 17        	sta	$17                     ; 0x17 <__rc7>
    4da0: e5 14        	sbc	$14                     ; 0x14 <__rc4>
    4da2: a8           	tay
    4da3: a6 60        	ldx	$60                     ; 0x60 <__rc31+0x31>
    4da5: 86 14        	stx	$14                     ; 0x14 <__rc4>
    4da7: a5 15        	lda	$15                     ; 0x15 <__rc5>
    4da9: 85 16        	sta	$16                     ; 0x16 <__rc6>
    4dab: e5 14        	sbc	$14                     ; 0x14 <__rc4>
    4dad: d0 06        	bne	$4db5 <malloc+0x15e>
    4daf: 85 18        	sta	$18                     ; 0x18 <__rc8>
    4db1: c0 08        	cpy	#$8
    4db3: 80 04        	bra	$4db9 <malloc+0x162>
    4db5: 85 18        	sta	$18                     ; 0x18 <__rc8>
    4db7: c9 00        	cmp	#$0
    4db9: a6 65        	ldx	$65                     ; 0x65 <__rc31+0x36>
    4dbb: 86 14        	stx	$14                     ; 0x14 <__rc4>
    4dbd: a6 64        	ldx	$64                     ; 0x64 <__rc31+0x35>
    4dbf: 86 15        	stx	$15                     ; 0x15 <__rc5>
    4dc1: a5 17        	lda	$17                     ; 0x17 <__rc7>
    4dc3: 90 43        	bcc	$4e08 <malloc+0x1b1>
    4dc5: 18           	clc
    4dc6: a6 61        	ldx	$61                     ; 0x61 <__rc31+0x32>
    4dc8: 86 61        	stx	$61                     ; 0x61 <__rc31+0x32>
    4dca: 8a           	txa
    4dcb: 65 12        	adc	$12                     ; 0x12 <__rc2>
    4dcd: 85 12        	sta	$12                     ; 0x12 <__rc2>
    4dcf: a6 60        	ldx	$60                     ; 0x60 <__rc31+0x31>
    4dd1: 86 60        	stx	$60                     ; 0x60 <__rc31+0x31>
    4dd3: a5 60        	lda	$60                     ; 0x60 <__rc31+0x31>
    4dd5: 65 13        	adc	$13                     ; 0x13 <__rc3>
    4dd7: 85 13        	sta	$13                     ; 0x13 <__rc3>
    4dd9: a6 18        	ldx	$18                     ; 0x18 <__rc8>
    4ddb: 98           	tya
    4ddc: 20 1c 03     	jsr	$31c <_ZN12_GLOBAL__N_19FreeChunk6insertEPvj>
    4ddf: a6 62        	ldx	$62                     ; 0x62 <__rc31+0x33>
    4de1: 86 12        	stx	$12                     ; 0x12 <__rc2>
    4de3: a6 63        	ldx	$63                     ; 0x63 <__rc31+0x34>
    4de5: 86 13        	stx	$13                     ; 0x13 <__rc3>
    4de7: a5 61        	lda	$61                     ; 0x61 <__rc31+0x32>
    4de9: 29 fe        	and	#$fe
    4deb: 85 14        	sta	$14                     ; 0x14 <__rc4>
    4ded: a0 01        	ldy	#$1
    4def: 98           	tya
    4df0: 32 12        	and	($12)                   ; 0x12 <__rc2>
    4df2: 05 14        	ora	$14                     ; 0x14 <__rc4>
    4df4: 92 12        	sta	($12)                   ; 0x12 <__rc2>
    4df6: a5 60        	lda	$60                     ; 0x60 <__rc31+0x31>
    4df8: 91 12        	sta	($12),y                 ; 0x12 <__rc2>
    4dfa: a5 14        	lda	$14                     ; 0x14 <__rc4>
    4dfc: a6 60        	ldx	$60                     ; 0x60 <__rc31+0x31>
    4dfe: 86 16        	stx	$16                     ; 0x16 <__rc6>
    4e00: a6 65        	ldx	$65                     ; 0x65 <__rc31+0x36>
    4e02: 86 14        	stx	$14                     ; 0x14 <__rc4>
    4e04: a6 64        	ldx	$64                     ; 0x64 <__rc31+0x35>
    4e06: 86 15        	stx	$15                     ; 0x15 <__rc5>
    4e08: 18           	clc
    4e09: 65 12        	adc	$12                     ; 0x12 <__rc2>
    4e0b: a8           	tay
    4e0c: a5 16        	lda	$16                     ; 0x16 <__rc6>
    4e0e: 65 13        	adc	$13                     ; 0x13 <__rc3>
    4e10: c5 15        	cmp	$15                     ; 0x15 <__rc5>
    4e12: d0 09        	bne	$4e1d <malloc+0x1c6>
    4e14: c4 14        	cpy	$14                     ; 0x14 <__rc4>
    4e16: d0 05        	bne	$4e1d <malloc+0x1c6>
    4e18: 9c 07 86     	stz	$8607                   ; 0x8607 <_ZN12_GLOBAL__N_19last_freeE>
    4e1b: 80 14        	bra	$4e31 <malloc+0x1da>
    4e1d: 84 14        	sty	$14                     ; 0x14 <__rc4>
    4e1f: 85 15        	sta	$15                     ; 0x15 <__rc5>
    4e21: a0 01        	ldy	#$1
    4e23: b1 14        	lda	($14),y                 ; 0x14 <__rc4>
    4e25: 85 16        	sta	$16                     ; 0x16 <__rc6>
    4e27: a9 fe        	lda	#$fe
    4e29: 32 14        	and	($14)                   ; 0x14 <__rc4>
    4e2b: 92 14        	sta	($14)                   ; 0x14 <__rc4>
    4e2d: a5 16        	lda	$16                     ; 0x16 <__rc6>
    4e2f: 91 14        	sta	($14),y                 ; 0x14 <__rc4>
    4e31: a5 12        	lda	$12                     ; 0x12 <__rc2>
    4e33: 18           	clc
    4e34: 69 02        	adc	#$2
    4e36: 85 12        	sta	$12                     ; 0x12 <__rc2>
    4e38: a5 13        	lda	$13                     ; 0x13 <__rc3>
    4e3a: 69 00        	adc	#$0
    4e3c: 85 13        	sta	$13                     ; 0x13 <__rc3>
    4e3e: 60           	rts

00004e3f <memcpy>:
    4e3f: a8           	tay
    4e40: 8a           	txa
    4e41: d0 03        	bne	$4e46 <memcpy+0x7>
    4e43: 98           	tya
    4e44: f0 24        	beq	$4e6a <memcpy+0x2b>
    4e46: a5 12        	lda	$12                     ; 0x12 <__rc2>
    4e48: 85 16        	sta	$16                     ; 0x16 <__rc6>
    4e4a: a5 13        	lda	$13                     ; 0x13 <__rc3>
    4e4c: 85 17        	sta	$17                     ; 0x17 <__rc7>
    4e4e: b2 14        	lda	($14)                   ; 0x14 <__rc4>
    4e50: 92 16        	sta	($16)                   ; 0x16 <__rc6>
    4e52: e6 16        	inc	$16                     ; 0x16 <__rc6>
    4e54: d0 02        	bne	$4e58 <memcpy+0x19>
    4e56: e6 17        	inc	$17                     ; 0x17 <__rc7>
    4e58: e6 14        	inc	$14                     ; 0x14 <__rc4>
    4e5a: d0 02        	bne	$4e5e <memcpy+0x1f>
    4e5c: e6 15        	inc	$15                     ; 0x15 <__rc5>
    4e5e: 88           	dey
    4e5f: c0 ff        	cpy	#$ff
    4e61: d0 01        	bne	$4e64 <memcpy+0x25>
    4e63: ca           	dex
    4e64: 8a           	txa
    4e65: d0 e7        	bne	$4e4e <memcpy+0xf>
    4e67: 98           	tya
    4e68: d0 e4        	bne	$4e4e <memcpy+0xf>
    4e6a: 60           	rts

00004e6b <__memset>:
    4e6b: a4 14        	ldy	$14                     ; 0x14 <__rc4>
    4e6d: d0 04        	bne	$4e73 <__memset+0x8>
    4e6f: e0 00        	cpx	#$0
    4e71: f0 17        	beq	$4e8a <__memset+0x1f>
    4e73: 92 12        	sta	($12)                   ; 0x12 <__rc2>
    4e75: e6 12        	inc	$12                     ; 0x12 <__rc2>
    4e77: d0 02        	bne	$4e7b <__memset+0x10>
    4e79: e6 13        	inc	$13                     ; 0x13 <__rc3>
    4e7b: ca           	dex
    4e7c: e0 ff        	cpx	#$ff
    4e7e: d0 02        	bne	$4e82 <__memset+0x17>
    4e80: c6 14        	dec	$14                     ; 0x14 <__rc4>
    4e82: a4 14        	ldy	$14                     ; 0x14 <__rc4>
    4e84: d0 ed        	bne	$4e73 <__memset+0x8>
    4e86: e0 00        	cpx	#$0
    4e88: d0 e9        	bne	$4e73 <__memset+0x8>
    4e8a: 60           	rts

00004e8b <__udivmodhi4>:
    4e8b: 86 1a        	stx	$1a                     ; 0x1a <__rc10>
    4e8d: 64 16        	stz	$16                     ; 0x16 <__rc6>
    4e8f: a4 13        	ldy	$13                     ; 0x13 <__rc3>
    4e91: d0 04        	bne	$4e97 <__udivmodhi4+0xc>
    4e93: a4 12        	ldy	$12                     ; 0x12 <__rc2>
    4e95: f0 08        	beq	$4e9f <__udivmodhi4+0x14>
    4e97: e4 13        	cpx	$13                     ; 0x13 <__rc3>
    4e99: d0 0f        	bne	$4eaa <__udivmodhi4+0x1f>
    4e9b: c5 12        	cmp	$12                     ; 0x12 <__rc2>
    4e9d: b0 0f        	bcs	$4eae <__udivmodhi4+0x23>
    4e9f: a6 1a        	ldx	$1a                     ; 0x1a <__rc10>
    4ea1: 86 12        	stx	$12                     ; 0x12 <__rc2>
    4ea3: 64 13        	stz	$13                     ; 0x13 <__rc3>
    4ea5: 85 19        	sta	$19                     ; 0x19 <__rc9>
    4ea7: 4c 53 4f     	jmp	$4f53 <__udivmodhi4+0xc8>
    4eaa: e4 13        	cpx	$13                     ; 0x13 <__rc3>
    4eac: 90 f1        	bcc	$4e9f <__udivmodhi4+0x14>
    4eae: a4 13        	ldy	$13                     ; 0x13 <__rc3>
    4eb0: 10 03        	bpl	$4eb5 <__udivmodhi4+0x2a>
    4eb2: 4c 41 4f     	jmp	$4f41 <__udivmodhi4+0xb6>
    4eb5: a2 00        	ldx	#$0
    4eb7: a4 12        	ldy	$12                     ; 0x12 <__rc2>
    4eb9: 84 17        	sty	$17                     ; 0x17 <__rc7>
    4ebb: a4 13        	ldy	$13                     ; 0x13 <__rc3>
    4ebd: 84 18        	sty	$18                     ; 0x18 <__rc8>
    4ebf: 06 17        	asl	$17                     ; 0x17 <__rc7>
    4ec1: 26 18        	rol	$18                     ; 0x18 <__rc8>
    4ec3: a4 1a        	ldy	$1a                     ; 0x1a <__rc10>
    4ec5: c4 18        	cpy	$18                     ; 0x18 <__rc8>
    4ec7: d0 06        	bne	$4ecf <__udivmodhi4+0x44>
    4ec9: c5 17        	cmp	$17                     ; 0x17 <__rc7>
    4ecb: 90 15        	bcc	$4ee2 <__udivmodhi4+0x57>
    4ecd: 80 06        	bra	$4ed5 <__udivmodhi4+0x4a>
    4ecf: a4 1a        	ldy	$1a                     ; 0x1a <__rc10>
    4ed1: c4 18        	cpy	$18                     ; 0x18 <__rc8>
    4ed3: 90 0d        	bcc	$4ee2 <__udivmodhi4+0x57>
    4ed5: e8           	inx
    4ed6: a4 17        	ldy	$17                     ; 0x17 <__rc7>
    4ed8: 84 12        	sty	$12                     ; 0x12 <__rc2>
    4eda: a4 18        	ldy	$18                     ; 0x18 <__rc8>
    4edc: 84 13        	sty	$13                     ; 0x13 <__rc3>
    4ede: 10 df        	bpl	$4ebf <__udivmodhi4+0x34>
    4ee0: 80 08        	bra	$4eea <__udivmodhi4+0x5f>
    4ee2: a4 12        	ldy	$12                     ; 0x12 <__rc2>
    4ee4: 84 17        	sty	$17                     ; 0x17 <__rc7>
    4ee6: a4 13        	ldy	$13                     ; 0x13 <__rc3>
    4ee8: 84 18        	sty	$18                     ; 0x18 <__rc8>
    4eea: 38           	sec
    4eeb: e5 17        	sbc	$17                     ; 0x17 <__rc7>
    4eed: a8           	tay
    4eee: a5 1a        	lda	$1a                     ; 0x1a <__rc10>
    4ef0: e5 18        	sbc	$18                     ; 0x18 <__rc8>
    4ef2: 85 12        	sta	$12                     ; 0x12 <__rc2>
    4ef4: a9 01        	lda	#$1
    4ef6: 85 13        	sta	$13                     ; 0x13 <__rc3>
    4ef8: 8a           	txa
    4ef9: d0 03        	bne	$4efe <__udivmodhi4+0x73>
    4efb: 4c 51 4f     	jmp	$4f51 <__udivmodhi4+0xc6>
    4efe: 64 16        	stz	$16                     ; 0x16 <__rc6>
    4f00: 84 19        	sty	$19                     ; 0x19 <__rc9>
    4f02: 46 18        	lsr	$18                     ; 0x18 <__rc8>
    4f04: 66 17        	ror	$17                     ; 0x17 <__rc7>
    4f06: 06 13        	asl	$13                     ; 0x13 <__rc3>
    4f08: a0 01        	ldy	#$1
    4f0a: b0 02        	bcs	$4f0e <__udivmodhi4+0x83>
    4f0c: a0 00        	ldy	#$0
    4f0e: 84 1a        	sty	$1a                     ; 0x1a <__rc10>
    4f10: a4 12        	ldy	$12                     ; 0x12 <__rc2>
    4f12: c4 18        	cpy	$18                     ; 0x18 <__rc8>
    4f14: d0 25        	bne	$4f3b <__udivmodhi4+0xb0>
    4f16: a4 19        	ldy	$19                     ; 0x19 <__rc9>
    4f18: c4 17        	cpy	$17                     ; 0x17 <__rc7>
    4f1a: 90 14        	bcc	$4f30 <__udivmodhi4+0xa5>
    4f1c: a5 13        	lda	$13                     ; 0x13 <__rc3>
    4f1e: 09 01        	ora	#$1
    4f20: 85 13        	sta	$13                     ; 0x13 <__rc3>
    4f22: 38           	sec
    4f23: a5 19        	lda	$19                     ; 0x19 <__rc9>
    4f25: e5 17        	sbc	$17                     ; 0x17 <__rc7>
    4f27: a8           	tay
    4f28: a5 12        	lda	$12                     ; 0x12 <__rc2>
    4f2a: e5 18        	sbc	$18                     ; 0x18 <__rc8>
    4f2c: 85 12        	sta	$12                     ; 0x12 <__rc2>
    4f2e: 84 19        	sty	$19                     ; 0x19 <__rc9>
    4f30: a4 1a        	ldy	$1a                     ; 0x1a <__rc10>
    4f32: c0 01        	cpy	#$1
    4f34: 26 16        	rol	$16                     ; 0x16 <__rc6>
    4f36: ca           	dex
    4f37: d0 c9        	bne	$4f02 <__udivmodhi4+0x77>
    4f39: 80 18        	bra	$4f53 <__udivmodhi4+0xc8>
    4f3b: c4 18        	cpy	$18                     ; 0x18 <__rc8>
    4f3d: b0 dd        	bcs	$4f1c <__udivmodhi4+0x91>
    4f3f: 80 ef        	bra	$4f30 <__udivmodhi4+0xa5>
    4f41: 38           	sec
    4f42: e5 12        	sbc	$12                     ; 0x12 <__rc2>
    4f44: 85 19        	sta	$19                     ; 0x19 <__rc9>
    4f46: 8a           	txa
    4f47: e5 13        	sbc	$13                     ; 0x13 <__rc3>
    4f49: 85 12        	sta	$12                     ; 0x12 <__rc2>
    4f4b: a9 01        	lda	#$1
    4f4d: 85 13        	sta	$13                     ; 0x13 <__rc3>
    4f4f: 80 02        	bra	$4f53 <__udivmodhi4+0xc8>
    4f51: 84 19        	sty	$19                     ; 0x19 <__rc9>
    4f53: a5 19        	lda	$19                     ; 0x19 <__rc9>
    4f55: 92 14        	sta	($14)                   ; 0x14 <__rc4>
    4f57: a0 01        	ldy	#$1
    4f59: a5 12        	lda	$12                     ; 0x12 <__rc2>
    4f5b: 91 14        	sta	($14),y                 ; 0x14 <__rc4>
    4f5d: a6 16        	ldx	$16                     ; 0x16 <__rc6>
    4f5f: a5 13        	lda	$13                     ; 0x13 <__rc3>
    4f61: 60           	rts

00004f62 <__mulsi3>:
    4f62: a4 17        	ldy	$17                     ; 0x17 <__rc7>
    4f64: d0 0f        	bne	$4f75 <__mulsi3+0x13>
    4f66: a4 16        	ldy	$16                     ; 0x16 <__rc6>
    4f68: d0 0b        	bne	$4f75 <__mulsi3+0x13>
    4f6a: a4 15        	ldy	$15                     ; 0x15 <__rc5>
    4f6c: d0 07        	bne	$4f75 <__mulsi3+0x13>
    4f6e: a4 14        	ldy	$14                     ; 0x14 <__rc4>
    4f70: d0 03        	bne	$4f75 <__mulsi3+0x13>
    4f72: 4c c9 4f     	jmp	$4fc9 <__mulsi3+0x67>
    4f75: 85 18        	sta	$18                     ; 0x18 <__rc8>
    4f77: 86 19        	stx	$19                     ; 0x19 <__rc9>
    4f79: a0 00        	ldy	#$0
    4f7b: a2 00        	ldx	#$0
    4f7d: 64 1a        	stz	$1a                     ; 0x1a <__rc10>
    4f7f: 98           	tya
    4f80: 46 17        	lsr	$17                     ; 0x17 <__rc7>
    4f82: 66 16        	ror	$16                     ; 0x16 <__rc6>
    4f84: 66 15        	ror	$15                     ; 0x15 <__rc5>
    4f86: 66 14        	ror	$14                     ; 0x14 <__rc4>
    4f88: 90 15        	bcc	$4f9f <__mulsi3+0x3d>
    4f8a: 85 1b        	sta	$1b                     ; 0x1b <__rc11>
    4f8c: 98           	tya
    4f8d: 18           	clc
    4f8e: 65 18        	adc	$18                     ; 0x18 <__rc8>
    4f90: a8           	tay
    4f91: 8a           	txa
    4f92: 65 19        	adc	$19                     ; 0x19 <__rc9>
    4f94: aa           	tax
    4f95: a5 1a        	lda	$1a                     ; 0x1a <__rc10>
    4f97: 65 12        	adc	$12                     ; 0x12 <__rc2>
    4f99: 85 1a        	sta	$1a                     ; 0x1a <__rc10>
    4f9b: a5 1b        	lda	$1b                     ; 0x1b <__rc11>
    4f9d: 65 13        	adc	$13                     ; 0x13 <__rc3>
    4f9f: 06 18        	asl	$18                     ; 0x18 <__rc8>
    4fa1: 26 19        	rol	$19                     ; 0x19 <__rc9>
    4fa3: 26 12        	rol	$12                     ; 0x12 <__rc2>
    4fa5: 26 13        	rol	$13                     ; 0x13 <__rc3>
    4fa7: e6 17        	inc	$17                     ; 0x17 <__rc7>
    4fa9: c6 17        	dec	$17                     ; 0x17 <__rc7>
    4fab: d0 d3        	bne	$4f80 <__mulsi3+0x1e>
    4fad: e6 16        	inc	$16                     ; 0x16 <__rc6>
    4faf: c6 16        	dec	$16                     ; 0x16 <__rc6>
    4fb1: d0 cd        	bne	$4f80 <__mulsi3+0x1e>
    4fb3: e6 15        	inc	$15                     ; 0x15 <__rc5>
    4fb5: c6 15        	dec	$15                     ; 0x15 <__rc5>
    4fb7: d0 c7        	bne	$4f80 <__mulsi3+0x1e>
    4fb9: e6 14        	inc	$14                     ; 0x14 <__rc4>
    4fbb: c6 14        	dec	$14                     ; 0x14 <__rc4>
    4fbd: d0 c1        	bne	$4f80 <__mulsi3+0x1e>
    4fbf: 5a           	phy
    4fc0: a4 1a        	ldy	$1a                     ; 0x1a <__rc10>
    4fc2: 84 12        	sty	$12                     ; 0x12 <__rc2>
    4fc4: 7a           	ply
    4fc5: 85 13        	sta	$13                     ; 0x13 <__rc3>
    4fc7: 98           	tya
    4fc8: 60           	rts
    4fc9: a0 00        	ldy	#$0
    4fcb: a2 00        	ldx	#$0
    4fcd: 64 1a        	stz	$1a                     ; 0x1a <__rc10>
    4fcf: 98           	tya
    4fd0: 80 ed        	bra	$4fbf <__mulsi3+0x5d>
