
mandel.elf:	file format elf32-mos

SYMBOL TABLE:
00000000 l    df *ABS*	00000000 zero-bss.c
00000000 l    df *ABS*	00000000 zero-zp-bss.c
00000000 l    df *ABS*	00000000 ld-temp.o
0000033b l     F .text	00000399 f256Init
000030c6 l     O .bss	00000007 kernelEventData
00003093 l     O .rodata	00000030 textColors
000030c3 l     O .bss	00000001 _col
000030c4 l     O .bss	00000001 _row
00000035 l     O .zp.bss	00000001 _MAX_X
00000034 l     O .zp.bss	00000001 _color
00000030 l     O .zp.bss	00000004 _BITMAP_BASE.0
000030c5 l     O .bss	00000001 kernelError
000006da l     F .text	0000036d f256main
00002c06 l     F .text	00000353 __floatunsisf
00002086 l     F .text	00000b80 __divsf3
00000c02 l     F .text	00000bc1 __addsf3
000017ce l     F .text	000008b8 __mulsf3
00002f59 l     F .text	0000013a __gtsf2
000017c3 l     F .text	0000000b __subsf3
00000a6c l     F .text	00000017 __ashlsi3
00000a83 l     F .text	00000017 __lshrsi3
00000a9a l     F .text	00000070 __mulsi3
00000b0a l     F .text	000000f8 __muldi3
00002f59 l     F .text	0000013a __gesf2
000006d4 g     F .text	00000006 main
00010400 g       .palback	00000000 palback_end
00010000 g       .palback	00000000 palback_start
00000311 g       .text	00000000 __after_main
00000300 g       .text	00000000 __do_init_stack
00000308 g       .text	00000000 __do_zero_bss
00000315 g     F .text	00000013 __zero_bss
0000030b g       .text	00000000 __do_zero_zp_bss
00000328 g     F .text	00000013 __zero_zp_bss
00000a47 g     F .text	00000005 exit
00000314 g       .text	00000000 _fini
00000a4c  w    F .text	00000020 __memset
00001000  w      *ABS*	00000000 __heap_default_limit
000030ce g       .noinit	00000000 __heap_start
00000010 g       *ABS*	00000000 __rc0
00000012 g       *ABS*	00000000 __rc2
00000014 g       *ABS*	00000000 __rc4
00000016 g       *ABS*	00000000 __rc6
00000018 g       *ABS*	00000000 __rc8
0000001a g       *ABS*	00000000 __rc10
0000001c g       *ABS*	00000000 __rc12
0000001e g       *ABS*	00000000 __rc14
00000020 g       *ABS*	00000000 __rc16
00000022 g       *ABS*	00000000 __rc18
00000024 g       *ABS*	00000000 __rc20
00000026 g       *ABS*	00000000 __rc22
00000028 g       *ABS*	00000000 __rc24
0000002a g       *ABS*	00000000 __rc26
0000002c g       *ABS*	00000000 __rc28
0000002e g       *ABS*	00000000 __rc30
0000002f g       *ABS*	00000000 __rc31
00000300 g       *ABS*	00000000 __f256_start
0000a000 g       *ABS*	00000000 __stack
0000a000 g       *ABS*	00000000 __SLOT_ADDR
0800a000 g       *ABS*	00000000 __block8_lma
00002000 g       *ABS*	00000000 __BLOCK_SIZE
0900a000 g       *ABS*	00000000 __block9_lma
0a00a000 g       *ABS*	00000000 __block10_lma
0b00a000 g       *ABS*	00000000 __block11_lma
0c00a000 g       *ABS*	00000000 __block12_lma
0d00a000 g       *ABS*	00000000 __block13_lma
0e00a000 g       *ABS*	00000000 __block14_lma
0f00a000 g       *ABS*	00000000 __block15_lma
1000a000 g       *ABS*	00000000 __block16_lma
1100a000 g       *ABS*	00000000 __block17_lma
1200a000 g       *ABS*	00000000 __block18_lma
1300a000 g       *ABS*	00000000 __block19_lma
1400a000 g       *ABS*	00000000 __block20_lma
1500a000 g       *ABS*	00000000 __block21_lma
1600a000 g       *ABS*	00000000 __block22_lma
1700a000 g       *ABS*	00000000 __block23_lma
00010000 g       *ABS*	00000000 __palback_lma
00000400 g       *ABS*	00000000 __palback_size
000030c3 g       .bss	00000000 __bss_start
00010400 g       .palback	00000000 end_palback
00000300 g       .text	00000000 _start
0000002d g       *ABS*	00000000 __rc29
0000002b g       *ABS*	00000000 __rc27
00000029 g       *ABS*	00000000 __rc25
00000027 g       *ABS*	00000000 __rc23
00000025 g       *ABS*	00000000 __rc21
00000023 g       *ABS*	00000000 __rc19
00000021 g       *ABS*	00000000 __rc17
0000001f g       *ABS*	00000000 __rc15
0000001d g       *ABS*	00000000 __rc13
0000001b g       *ABS*	00000000 __rc11
00000019 g       *ABS*	00000000 __rc9
00000017 g       *ABS*	00000000 __rc7
00000015 g       *ABS*	00000000 __rc5
00000013 g       *ABS*	00000000 __rc3
00000011 g       *ABS*	00000000 __rc1
00000030 g       .zp.data	00000000 __zp_data_start
00000300 g       *ABS*	00000000 __zp_data_load_start
00000000 g       *ABS*	00000000 __zp_data_size
00000030 g       .zp.bss	00000000 __zp_bss_start
00000006 g       *ABS*	00000000 __zp_bss_size
00000300 g       .text	00000000 _init
00003093 g       .text	00000000 __init_array_start
00003093 g       .text	00000000 __init_array_end
00003093 g       .text	00000000 __fini_array_start
00003093 g       .text	00000000 __fini_array_end
000030c3 g       .data	00000000 __data_start
000030c3 g       .data	00000000 __data_end
000030c3 g       *ABS*	00000000 __data_load_start
00000000 g       *ABS*	00000000 __data_size
000030cd g       .bss	00000000 __bss_end
0000000a g       *ABS*	00000000 __bss_size
000030cd g       .noinit	00000000 end_block8
000030cd g       .noinit	00000000 end_block9
000030cd g       .noinit	00000000 end_block10
000030cd g       .noinit	00000000 end_block11
000030cd g       .noinit	00000000 end_block12
000030cd g       .noinit	00000000 end_block13
000030cd g       .noinit	00000000 end_block14
000030cd g       .noinit	00000000 end_block15
000030cd g       .noinit	00000000 end_block16
000030cd g       .noinit	00000000 end_block17
000030cd g       .noinit	00000000 end_block18
000030cd g       .noinit	00000000 end_block19
000030cd g       .noinit	00000000 end_block20
000030cd g       .noinit	00000000 end_block21
000030cd g       .noinit	00000000 end_block22
000030cd g       .noinit	00000000 end_block23

Disassembly of section .text:

00000300 <_start>:
     300: a9 00        	lda	#$0
     302: 85 10        	sta	$10                     ; 0x2010 <__mulsf3+0x842>
     304: a9 a0        	lda	#$a0
     306: 85 11        	sta	$11                     ; 0x2011 <__mulsf3+0x843>

00000308 <__do_zero_bss>:
     308: 20 15 03     	jsr	$315 <__zero_bss>

0000030b <__do_zero_zp_bss>:
     30b: 20 28 03     	jsr	$328 <__zero_zp_bss>
     30e: 20 d4 06     	jsr	$6d4 <main>

00000311 <__after_main>:
     311: 4c 47 0a     	jmp	$a47 <exit>

00000314 <_fini>:
     314: 60           	rts

00000315 <__zero_bss>:
     315: a2 0a        	ldx	#$a
     317: a0 00        	ldy	#$0
     319: a9 c3        	lda	#$c3
     31b: 85 12        	sta	$12                     ; 0x2012 <__mulsf3+0x844>
     31d: a9 30        	lda	#$30
     31f: 85 13        	sta	$13                     ; 0x2013 <__mulsf3+0x845>
     321: a9 00        	lda	#$0
     323: 84 14        	sty	$14                     ; 0x2014 <__mulsf3+0x846>
     325: 4c 4c 0a     	jmp	$a4c <__memset>

00000328 <__zero_zp_bss>:
     328: a2 06        	ldx	#$6
     32a: a0 00        	ldy	#$0
     32c: a9 30        	lda	#$30
     32e: 85 12        	sta	$12                     ; 0x2012 <__mulsf3+0x844>
     330: a9 00        	lda	#$0
     332: 85 13        	sta	$13                     ; 0x2013 <__mulsf3+0x845>
     334: a9 00        	lda	#$0
     336: 84 14        	sty	$14                     ; 0x2014 <__mulsf3+0x846>
     338: 4c 4c 0a     	jmp	$a4c <__memset>

0000033b <f256Init>:
     33b: 64 14        	stz	$14                     ; 0x2014 <__mulsf3+0x846>
     33d: a2 00        	ldx	#$0
     33f: 86 12        	stx	$12                     ; 0x2012 <__mulsf3+0x844>
     341: a2 c0        	ldx	#$c0
     343: 86 13        	stx	$13                     ; 0x2013 <__mulsf3+0x845>
     345: 64 01        	stz	$1                      ; 0x2001 <__mulsf3+0x833>
     347: a2 3f        	ldx	#$3f
     349: 8e 00 d0     	stx	$d000                   ; 0xd000 <__heap_start+0x9f32>
     34c: a2 b3        	ldx	#$b3
     34e: 86 00        	stx	$0                      ; 0x2000 <__mulsf3+0x832>
     350: 64 08        	stz	$8                      ; 0x2008 <__mulsf3+0x83a>
     352: a2 01        	ldx	#$1
     354: 86 09        	stx	$9                      ; 0x2009 <__mulsf3+0x83b>
     356: e8           	inx
     357: 86 0a        	stx	$a                      ; 0x200a <__mulsf3+0x83c>
     359: e8           	inx
     35a: 86 0b        	stx	$b                      ; 0x200b <__mulsf3+0x83d>
     35c: e8           	inx
     35d: 86 0c        	stx	$c                      ; 0x200c <__mulsf3+0x83e>
     35f: e8           	inx
     360: 86 0d        	stx	$d                      ; 0x200d <__mulsf3+0x83f>
     362: a2 c6        	ldx	#$c6
     364: a0 30        	ldy	#$30
     366: 86 f0        	stx	$f0                     ; 0x20f0 <__divsf3+0x6a>
     368: 84 f1        	sty	$f1                     ; 0x20f1 <__divsf3+0x6b>
     36a: a2 00        	ldx	#$0
     36c: 86 18        	stx	$18                     ; 0x2018 <__mulsf3+0x84a>
     36e: ca           	dex
     36f: 86 19        	stx	$19                     ; 0x2019 <__mulsf3+0x84b>
     371: 8a           	txa
     372: 0a           	asl
     373: 0a           	asl
     374: 18           	clc
     375: 69 d4        	adc	#$d4
     377: 85 1a        	sta	$1a                     ; 0x201a <__mulsf3+0x84c>
     379: a0 00        	ldy	#$0
     37b: 64 17        	stz	$17                     ; 0x2017 <__mulsf3+0x849>
     37d: 64 16        	stz	$16                     ; 0x2016 <__mulsf3+0x848>
     37f: a6 19        	ldx	$19                     ; 0x2019 <__mulsf3+0x84b>
     381: e0 03        	cpx	#$3
     383: a6 01        	ldx	$1                      ; 0x2001 <__mulsf3+0x833>
     385: 86 1c        	stx	$1c                     ; 0x201c <__mulsf3+0x84e>
     387: a2 d0        	ldx	#$d0
     389: 84 1b        	sty	$1b                     ; 0x201b <__mulsf3+0x84d>
     38b: b0 02        	bcs	$38f <f256Init+0x54>
     38d: a6 1a        	ldx	$1a                     ; 0x201a <__mulsf3+0x84c>
     38f: 86 15        	stx	$15                     ; 0x2015 <__mulsf3+0x847>
     391: a5 17        	lda	$17                     ; 0x2017 <__mulsf3+0x849>
     393: 18           	clc
     394: 65 14        	adc	$14                     ; 0x2014 <__mulsf3+0x846>
     396: a8           	tay
     397: a6 17        	ldx	$17                     ; 0x2017 <__mulsf3+0x849>
     399: a5 16        	lda	$16                     ; 0x2016 <__mulsf3+0x848>
     39b: 85 1d        	sta	$1d                     ; 0x201d <__mulsf3+0x84f>
     39d: a5 16        	lda	$16                     ; 0x2016 <__mulsf3+0x848>
     39f: 65 15        	adc	$15                     ; 0x2015 <__mulsf3+0x847>
     3a1: 84 16        	sty	$16                     ; 0x2016 <__mulsf3+0x848>
     3a3: a0 01        	ldy	#$1
     3a5: 84 01        	sty	$1                      ; 0x2001 <__mulsf3+0x833>
     3a7: 85 17        	sta	$17                     ; 0x2017 <__mulsf3+0x849>
     3a9: a5 1b        	lda	$1b                     ; 0x201b <__mulsf3+0x84d>
     3ab: 92 16        	sta	($16)                   ; 0x2016 <__mulsf3+0x848>
     3ad: 91 16        	sta	($16),y                 ; 0x2016 <__mulsf3+0x848>
     3af: c8           	iny
     3b0: 91 16        	sta	($16),y                 ; 0x2016 <__mulsf3+0x848>
     3b2: 85 15        	sta	$15                     ; 0x2015 <__mulsf3+0x847>
     3b4: c8           	iny
     3b5: a9 ff        	lda	#$ff
     3b7: 91 16        	sta	($16),y                 ; 0x2016 <__mulsf3+0x848>
     3b9: 8a           	txa
     3ba: a6 1c        	ldx	$1c                     ; 0x201c <__mulsf3+0x84e>
     3bc: 86 01        	stx	$1                      ; 0x2001 <__mulsf3+0x833>
     3be: 18           	clc
     3bf: 69 04        	adc	#$4
     3c1: 85 17        	sta	$17                     ; 0x2017 <__mulsf3+0x849>
     3c3: a5 1d        	lda	$1d                     ; 0x201d <__mulsf3+0x84f>
     3c5: 69 00        	adc	#$0
     3c7: e6 15        	inc	$15                     ; 0x2015 <__mulsf3+0x847>
     3c9: a4 15        	ldy	$15                     ; 0x2015 <__mulsf3+0x847>
     3cb: 85 16        	sta	$16                     ; 0x2016 <__mulsf3+0x848>
     3cd: c9 04        	cmp	#$4
     3cf: f0 03        	beq	$3d4 <f256Init+0x99>
     3d1: 4c 7f 03     	jmp	$37f <f256Init+0x44>
     3d4: a5 17        	lda	$17                     ; 0x2017 <__mulsf3+0x849>
     3d6: f0 03        	beq	$3db <f256Init+0xa0>
     3d8: 4c 7f 03     	jmp	$37f <f256Init+0x44>
     3db: a6 18        	ldx	$18                     ; 0x2018 <__mulsf3+0x84a>
     3dd: e8           	inx
     3de: e0 04        	cpx	#$4
     3e0: f0 03        	beq	$3e5 <f256Init+0xaa>
     3e2: 4c 6c 03     	jmp	$36c <f256Init+0x31>
     3e5: ad 02 d0     	lda	$d002                   ; 0xd002 <__heap_start+0x9f34>
     3e8: 29 f0        	and	#$f0
     3ea: 8d 02 d0     	sta	$d002                   ; 0xd002 <__heap_start+0x9f34>
     3ed: ad 02 d0     	lda	$d002                   ; 0xd002 <__heap_start+0x9f34>
     3f0: 29 0f        	and	#$f
     3f2: 09 10        	ora	#$10
     3f4: 8d 02 d0     	sta	$d002                   ; 0xd002 <__heap_start+0x9f34>
     3f7: a2 02        	ldx	#$2
     3f9: 8e 03 d0     	stx	$d003                   ; 0xd003 <__heap_start+0x9f35>
     3fc: ad 01 d0     	lda	$d001                   ; 0xd001 <__heap_start+0x9f33>
     3ff: 29 f9        	and	#$f9
     401: 09 04        	ora	#$4
     403: 8d 01 d0     	sta	$d001                   ; 0xd001 <__heap_start+0x9f33>
     406: 64 14        	stz	$14                     ; 0x2014 <__mulsf3+0x846>
     408: 9c 10 d0     	stz	$d010                   ; 0xd010 <__heap_start+0x9f42>
     40b: a2 00        	ldx	#$0
     40d: 64 15        	stz	$15                     ; 0x2015 <__mulsf3+0x847>
     40f: 86 18        	stx	$18                     ; 0x2018 <__mulsf3+0x84a>
     411: a4 18        	ldy	$18                     ; 0x2018 <__mulsf3+0x84a>
     413: be 93 30     	ldx	$3093,y                 ; 0x3093 <textColors>
     416: 86 19        	stx	$19                     ; 0x2019 <__mulsf3+0x84b>
     418: be 94 30     	ldx	$3094,y                 ; 0x3094 <textColors+0x1>
     41b: 86 1a        	stx	$1a                     ; 0x201a <__mulsf3+0x84c>
     41d: be 95 30     	ldx	$3095,y                 ; 0x3095 <textColors+0x2>
     420: 86 1b        	stx	$1b                     ; 0x201b <__mulsf3+0x84d>
     422: a6 15        	ldx	$15                     ; 0x2015 <__mulsf3+0x847>
     424: 8e 00 de     	stx	$de00                   ; 0xde00 <__heap_start+0xad32>
     427: 86 17        	stx	$17                     ; 0x2017 <__mulsf3+0x849>
     429: 9c 01 de     	stz	$de01                   ; 0xde01 <__heap_start+0xad33>
     42c: a2 04        	ldx	#$4
     42e: 8e 02 de     	stx	$de02                   ; 0xde02 <__heap_start+0xad34>
     431: 9c 03 de     	stz	$de03                   ; 0xde03 <__heap_start+0xad35>
     434: ad 10 de     	lda	$de10                   ; 0xde10 <__heap_start+0xad42>
     437: ac 11 de     	ldy	$de11                   ; 0xde11 <__heap_start+0xad43>
     43a: 84 15        	sty	$15                     ; 0x2015 <__mulsf3+0x847>
     43c: ac 12 de     	ldy	$de12                   ; 0xde12 <__heap_start+0xad44>
     43f: ac 13 de     	ldy	$de13                   ; 0xde13 <__heap_start+0xad45>
     442: 18           	clc
     443: 65 14        	adc	$14                     ; 0x2014 <__mulsf3+0x846>
     445: 85 16        	sta	$16                     ; 0x2016 <__mulsf3+0x848>
     447: a6 17        	ldx	$17                     ; 0x2017 <__mulsf3+0x849>
     449: a9 d8        	lda	#$d8
     44b: 65 15        	adc	$15                     ; 0x2015 <__mulsf3+0x847>
     44d: 85 17        	sta	$17                     ; 0x2017 <__mulsf3+0x849>
     44f: a5 1b        	lda	$1b                     ; 0x201b <__mulsf3+0x84d>
     451: 92 16        	sta	($16)                   ; 0x2016 <__mulsf3+0x848>
     453: a0 01        	ldy	#$1
     455: a5 1a        	lda	$1a                     ; 0x201a <__mulsf3+0x84c>
     457: 91 16        	sta	($16),y                 ; 0x2016 <__mulsf3+0x848>
     459: c8           	iny
     45a: a5 19        	lda	$19                     ; 0x2019 <__mulsf3+0x84b>
     45c: 91 16        	sta	($16),y                 ; 0x2016 <__mulsf3+0x848>
     45e: c8           	iny
     45f: a9 ff        	lda	#$ff
     461: 91 16        	sta	($16),y                 ; 0x2016 <__mulsf3+0x848>
     463: 8e 00 de     	stx	$de00                   ; 0xde00 <__heap_start+0xad32>
     466: 9c 01 de     	stz	$de01                   ; 0xde01 <__heap_start+0xad33>
     469: c8           	iny
     46a: 8c 02 de     	sty	$de02                   ; 0xde02 <__heap_start+0xad34>
     46d: 9c 03 de     	stz	$de03                   ; 0xde03 <__heap_start+0xad35>
     470: ad 10 de     	lda	$de10                   ; 0xde10 <__heap_start+0xad42>
     473: 85 15        	sta	$15                     ; 0x2015 <__mulsf3+0x847>
     475: ad 11 de     	lda	$de11                   ; 0xde11 <__heap_start+0xad43>
     478: 85 16        	sta	$16                     ; 0x2016 <__mulsf3+0x848>
     47a: a9 40        	lda	#$40
     47c: 18           	clc
     47d: 65 15        	adc	$15                     ; 0x2015 <__mulsf3+0x847>
     47f: a8           	tay
     480: a9 d8        	lda	#$d8
     482: 65 16        	adc	$16                     ; 0x2016 <__mulsf3+0x848>
     484: 85 17        	sta	$17                     ; 0x2017 <__mulsf3+0x849>
     486: 84 16        	sty	$16                     ; 0x2016 <__mulsf3+0x848>
     488: ad 12 de     	lda	$de12                   ; 0xde12 <__heap_start+0xad44>
     48b: ad 13 de     	lda	$de13                   ; 0xde13 <__heap_start+0xad45>
     48e: a5 1b        	lda	$1b                     ; 0x201b <__mulsf3+0x84d>
     490: 92 16        	sta	($16)                   ; 0x2016 <__mulsf3+0x848>
     492: a5 1a        	lda	$1a                     ; 0x201a <__mulsf3+0x84c>
     494: a0 01        	ldy	#$1
     496: 91 16        	sta	($16),y                 ; 0x2016 <__mulsf3+0x848>
     498: a5 19        	lda	$19                     ; 0x2019 <__mulsf3+0x84b>
     49a: c8           	iny
     49b: 91 16        	sta	($16),y                 ; 0x2016 <__mulsf3+0x848>
     49d: c8           	iny
     49e: a9 ff        	lda	#$ff
     4a0: 91 16        	sta	($16),y                 ; 0x2016 <__mulsf3+0x848>
     4a2: e8           	inx
     4a3: 86 15        	stx	$15                     ; 0x2015 <__mulsf3+0x847>
     4a5: 18           	clc
     4a6: a5 18        	lda	$18                     ; 0x2018 <__mulsf3+0x84a>
     4a8: 69 03        	adc	#$3
     4aa: aa           	tax
     4ab: c9 30        	cmp	#$30
     4ad: f0 03        	beq	$4b2 <f256Init+0x177>
     4af: 4c 0f 04     	jmp	$40f <f256Init+0xd4>
     4b2: a6 01        	ldx	$1                      ; 0x2001 <__mulsf3+0x833>
     4b4: 86 18        	stx	$18                     ; 0x2018 <__mulsf3+0x84a>
     4b6: a2 50        	ldx	#$50
     4b8: 8e 00 de     	stx	$de00                   ; 0xde00 <__heap_start+0xad32>
     4bb: 9c 01 de     	stz	$de01                   ; 0xde01 <__heap_start+0xad33>
     4be: a2 1e        	ldx	#$1e
     4c0: 8e 02 de     	stx	$de02                   ; 0xde02 <__heap_start+0xad34>
     4c3: 9c 03 de     	stz	$de03                   ; 0xde03 <__heap_start+0xad35>
     4c6: ae 10 de     	ldx	$de10                   ; 0xde10 <__heap_start+0xad42>
     4c9: ac 11 de     	ldy	$de11                   ; 0xde11 <__heap_start+0xad43>
     4cc: ad 12 de     	lda	$de12                   ; 0xde12 <__heap_start+0xad44>
     4cf: ad 13 de     	lda	$de13                   ; 0xde13 <__heap_start+0xad45>
     4d2: a9 02        	lda	#$2
     4d4: 85 01        	sta	$1                      ; 0x2001 <__mulsf3+0x833>
     4d6: e0 01        	cpx	#$1
     4d8: 98           	tya
     4d9: e9 00        	sbc	#$0
     4db: 50 02        	bvc	$4df <f256Init+0x1a4>
     4dd: 49 80        	eor	#$80
     4df: c9 00        	cmp	#$0
     4e1: 30 48        	bmi	$52b <f256Init+0x1f0>
     4e3: a9 20        	lda	#$20
     4e5: 86 19        	stx	$19                     ; 0x2019 <__mulsf3+0x84b>
     4e7: 86 14        	stx	$14                     ; 0x2014 <__mulsf3+0x846>
     4e9: 84 15        	sty	$15                     ; 0x2015 <__mulsf3+0x847>
     4eb: a2 00        	ldx	#$0
     4ed: 86 16        	stx	$16                     ; 0x2016 <__mulsf3+0x848>
     4ef: a2 c0        	ldx	#$c0
     4f1: 86 17        	stx	$17                     ; 0x2017 <__mulsf3+0x849>
     4f3: 92 16        	sta	($16)                   ; 0x2016 <__mulsf3+0x848>
     4f5: e6 16        	inc	$16                     ; 0x2016 <__mulsf3+0x848>
     4f7: d0 02        	bne	$4fb <f256Init+0x1c0>
     4f9: e6 17        	inc	$17                     ; 0x2017 <__mulsf3+0x849>
     4fb: a2 ff        	ldx	#$ff
     4fd: c6 14        	dec	$14                     ; 0x2014 <__mulsf3+0x846>
     4ff: e4 14        	cpx	$14                     ; 0x2014 <__mulsf3+0x846>
     501: d0 02        	bne	$505 <f256Init+0x1ca>
     503: c6 15        	dec	$15                     ; 0x2015 <__mulsf3+0x847>
     505: a6 15        	ldx	$15                     ; 0x2015 <__mulsf3+0x847>
     507: d0 ea        	bne	$4f3 <f256Init+0x1b8>
     509: a6 14        	ldx	$14                     ; 0x2014 <__mulsf3+0x846>
     50b: d0 e6        	bne	$4f3 <f256Init+0x1b8>
     50d: a2 03        	ldx	#$3
     50f: 86 01        	stx	$1                      ; 0x2001 <__mulsf3+0x833>
     511: a6 19        	ldx	$19                     ; 0x2019 <__mulsf3+0x84b>
     513: a9 f0        	lda	#$f0
     515: 92 12        	sta	($12)                   ; 0x2012 <__mulsf3+0x844>
     517: e6 12        	inc	$12                     ; 0x2012 <__mulsf3+0x844>
     519: d0 02        	bne	$51d <f256Init+0x1e2>
     51b: e6 13        	inc	$13                     ; 0x2013 <__mulsf3+0x845>
     51d: ca           	dex
     51e: e0 ff        	cpx	#$ff
     520: d0 01        	bne	$523 <f256Init+0x1e8>
     522: 88           	dey
     523: 98           	tya
     524: d0 ed        	bne	$513 <f256Init+0x1d8>
     526: 8a           	txa
     527: d0 ea        	bne	$513 <f256Init+0x1d8>
     529: 80 04        	bra	$52f <f256Init+0x1f4>
     52b: a2 03        	ldx	#$3
     52d: 86 01        	stx	$1                      ; 0x2001 <__mulsf3+0x833>
     52f: a6 18        	ldx	$18                     ; 0x2018 <__mulsf3+0x84a>
     531: 86 01        	stx	$1                      ; 0x2001 <__mulsf3+0x833>
     533: 9c c3 30     	stz	$30c3                   ; 0x30c3 <_col>
     536: 9c 14 d0     	stz	$d014                   ; 0xd014 <__heap_start+0x9f46>
     539: 9c 15 d0     	stz	$d015                   ; 0xd015 <__heap_start+0x9f47>
     53c: 9c c4 30     	stz	$30c4                   ; 0x30c4 <_row>
     53f: 9c 16 d0     	stz	$d016                   ; 0xd016 <__heap_start+0x9f48>
     542: 9c 17 d0     	stz	$d017                   ; 0xd017 <__heap_start+0x9f49>
     545: a2 01        	ldx	#$1
     547: 86 35        	stx	$35                     ; 0x2035 <__mulsf3+0x867>
     549: a0 40        	ldy	#$40
     54b: 8c 00 de     	sty	$de00                   ; 0xde00 <__heap_start+0xad32>
     54e: 8e 01 de     	stx	$de01                   ; 0xde01 <__heap_start+0xad33>
     551: a2 f0        	ldx	#$f0
     553: 8e 02 de     	stx	$de02                   ; 0xde02 <__heap_start+0xad34>
     556: 9c 03 de     	stz	$de03                   ; 0xde03 <__heap_start+0xad35>
     559: ae 10 de     	ldx	$de10                   ; 0xde10 <__heap_start+0xad42>
     55c: 86 17        	stx	$17                     ; 0x2017 <__mulsf3+0x849>
     55e: ae 11 de     	ldx	$de11                   ; 0xde11 <__heap_start+0xad43>
     561: 86 12        	stx	$12                     ; 0x2012 <__mulsf3+0x844>
     563: ae 12 de     	ldx	$de12                   ; 0xde12 <__heap_start+0xad44>
     566: 86 13        	stx	$13                     ; 0x2013 <__mulsf3+0x845>
     568: ae 13 de     	ldx	$de13                   ; 0xde13 <__heap_start+0xad45>
     56b: 86 14        	stx	$14                     ; 0x2014 <__mulsf3+0x846>
     56d: a2 ff        	ldx	#$ff
     56f: 86 34        	stx	$34                     ; 0x2034 <__mulsf3+0x866>
     571: a6 12        	ldx	$12                     ; 0x2012 <__mulsf3+0x844>
     573: 86 15        	stx	$15                     ; 0x2015 <__mulsf3+0x847>
     575: 06 15        	asl	$15                     ; 0x2015 <__mulsf3+0x847>
     577: a5 13        	lda	$13                     ; 0x2013 <__mulsf3+0x845>
     579: 2a           	rol
     57a: a6 14        	ldx	$14                     ; 0x2014 <__mulsf3+0x846>
     57c: 86 16        	stx	$16                     ; 0x2016 <__mulsf3+0x848>
     57e: 26 16        	rol	$16                     ; 0x2016 <__mulsf3+0x848>
     580: 06 15        	asl	$15                     ; 0x2015 <__mulsf3+0x847>
     582: 2a           	rol
     583: 26 16        	rol	$16                     ; 0x2016 <__mulsf3+0x848>
     585: 06 15        	asl	$15                     ; 0x2015 <__mulsf3+0x847>
     587: 2a           	rol
     588: 26 16        	rol	$16                     ; 0x2016 <__mulsf3+0x848>
     58a: 85 15        	sta	$15                     ; 0x2015 <__mulsf3+0x847>
     58c: 8d 00 de     	sta	$de00                   ; 0xde00 <__heap_start+0xad32>
     58f: a5 16        	lda	$16                     ; 0x2016 <__mulsf3+0x848>
     591: 8d 01 de     	sta	$de01                   ; 0xde01 <__heap_start+0xad33>
     594: 9c 02 de     	stz	$de02                   ; 0xde02 <__heap_start+0xad34>
     597: a2 20        	ldx	#$20
     599: 8e 03 de     	stx	$de03                   ; 0xde03 <__heap_start+0xad35>
     59c: ae 10 de     	ldx	$de10                   ; 0xde10 <__heap_start+0xad42>
     59f: 86 16        	stx	$16                     ; 0x2016 <__mulsf3+0x848>
     5a1: ae 11 de     	ldx	$de11                   ; 0xde11 <__heap_start+0xad43>
     5a4: 86 18        	stx	$18                     ; 0x2018 <__mulsf3+0x84a>
     5a6: ac 12 de     	ldy	$de12                   ; 0xde12 <__heap_start+0xad44>
     5a9: ae 13 de     	ldx	$de13                   ; 0xde13 <__heap_start+0xad45>
     5ac: e4 14        	cpx	$14                     ; 0x2014 <__mulsf3+0x846>
     5ae: d0 14        	bne	$5c4 <f256Init+0x289>
     5b0: c4 13        	cpy	$13                     ; 0x2013 <__mulsf3+0x845>
     5b2: d0 10        	bne	$5c4 <f256Init+0x289>
     5b4: a6 18        	ldx	$18                     ; 0x2018 <__mulsf3+0x84a>
     5b6: e4 12        	cpx	$12                     ; 0x2012 <__mulsf3+0x844>
     5b8: d0 0a        	bne	$5c4 <f256Init+0x289>
     5ba: a6 16        	ldx	$16                     ; 0x2016 <__mulsf3+0x848>
     5bc: e4 17        	cpx	$17                     ; 0x2017 <__mulsf3+0x849>
     5be: d0 04        	bne	$5c4 <f256Init+0x289>
     5c0: a6 15        	ldx	$15                     ; 0x2015 <__mulsf3+0x847>
     5c2: 80 06        	bra	$5ca <f256Init+0x28f>
     5c4: a6 15        	ldx	$15                     ; 0x2015 <__mulsf3+0x847>
     5c6: e8           	inx
     5c7: d0 01        	bne	$5ca <f256Init+0x28f>
     5c9: 1a           	inc
     5ca: 8e 00 de     	stx	$de00                   ; 0xde00 <__heap_start+0xad32>
     5cd: 8d 01 de     	sta	$de01                   ; 0xde01 <__heap_start+0xad33>
     5d0: 9c 02 de     	stz	$de02                   ; 0xde02 <__heap_start+0xad34>
     5d3: a2 20        	ldx	#$20
     5d5: 8e 03 de     	stx	$de03                   ; 0xde03 <__heap_start+0xad35>
     5d8: ae 10 de     	ldx	$de10                   ; 0xde10 <__heap_start+0xad42>
     5db: 86 12        	stx	$12                     ; 0x2012 <__mulsf3+0x844>
     5dd: ae 11 de     	ldx	$de11                   ; 0xde11 <__heap_start+0xad43>
     5e0: 86 13        	stx	$13                     ; 0x2013 <__mulsf3+0x845>
     5e2: ae 12 de     	ldx	$de12                   ; 0xde12 <__heap_start+0xad44>
     5e5: 86 14        	stx	$14                     ; 0x2014 <__mulsf3+0x846>
     5e7: ae 13 de     	ldx	$de13                   ; 0xde13 <__heap_start+0xad45>
     5ea: 86 15        	stx	$15                     ; 0x2015 <__mulsf3+0x847>
     5ec: 38           	sec
     5ed: a9 00        	lda	#$0
     5ef: e5 12        	sbc	$12                     ; 0x2012 <__mulsf3+0x844>
     5f1: 85 16        	sta	$16                     ; 0x2016 <__mulsf3+0x848>
     5f3: a9 00        	lda	#$0
     5f5: e5 13        	sbc	$13                     ; 0x2013 <__mulsf3+0x845>
     5f7: 85 17        	sta	$17                     ; 0x2017 <__mulsf3+0x849>
     5f9: a9 08        	lda	#$8
     5fb: e5 14        	sbc	$14                     ; 0x2014 <__mulsf3+0x846>
     5fd: aa           	tax
     5fe: a9 00        	lda	#$0
     600: e5 15        	sbc	$15                     ; 0x2015 <__mulsf3+0x847>
     602: a8           	tay
     603: a5 17        	lda	$17                     ; 0x2017 <__mulsf3+0x849>
     605: 85 31        	sta	$31                     ; 0x2031 <__mulsf3+0x863>
     607: 86 32        	stx	$32                     ; 0x2032 <__mulsf3+0x864>
     609: 84 33        	sty	$33                     ; 0x2033 <__mulsf3+0x865>
     60b: a5 16        	lda	$16                     ; 0x2016 <__mulsf3+0x848>
     60d: 38           	sec
     60e: e5 12        	sbc	$12                     ; 0x2012 <__mulsf3+0x844>
     610: a8           	tay
     611: a5 17        	lda	$17                     ; 0x2017 <__mulsf3+0x849>
     613: e5 13        	sbc	$13                     ; 0x2013 <__mulsf3+0x845>
     615: 85 15        	sta	$15                     ; 0x2015 <__mulsf3+0x847>
     617: 8a           	txa
     618: e5 14        	sbc	$14                     ; 0x2014 <__mulsf3+0x846>
     61a: aa           	tax
     61b: 98           	tya
     61c: 38           	sec
     61d: e5 12        	sbc	$12                     ; 0x2012 <__mulsf3+0x844>
     61f: 85 12        	sta	$12                     ; 0x2012 <__mulsf3+0x844>
     621: a5 15        	lda	$15                     ; 0x2015 <__mulsf3+0x847>
     623: e5 13        	sbc	$13                     ; 0x2013 <__mulsf3+0x845>
     625: 85 13        	sta	$13                     ; 0x2013 <__mulsf3+0x845>
     627: 8a           	txa
     628: 86 17        	stx	$17                     ; 0x2017 <__mulsf3+0x849>
     62a: e5 14        	sbc	$14                     ; 0x2014 <__mulsf3+0x846>
     62c: a6 16        	ldx	$16                     ; 0x2016 <__mulsf3+0x848>
     62e: 86 30        	stx	$30                     ; 0x2030 <__mulsf3+0x862>
     630: 8e 01 d1     	stx	$d101                   ; 0xd101 <__heap_start+0xa033>
     633: a6 31        	ldx	$31                     ; 0x2031 <__mulsf3+0x863>
     635: 8e 02 d1     	stx	$d102                   ; 0xd102 <__heap_start+0xa034>
     638: a6 32        	ldx	$32                     ; 0x2032 <__mulsf3+0x864>
     63a: 8e 03 d1     	stx	$d103                   ; 0xd103 <__heap_start+0xa035>
     63d: 8c 09 d1     	sty	$d109                   ; 0xd109 <__heap_start+0xa03b>
     640: a6 15        	ldx	$15                     ; 0x2015 <__mulsf3+0x847>
     642: 8e 0a d1     	stx	$d10a                   ; 0xd10a <__heap_start+0xa03c>
     645: a6 17        	ldx	$17                     ; 0x2017 <__mulsf3+0x849>
     647: 8e 0b d1     	stx	$d10b                   ; 0xd10b <__heap_start+0xa03d>
     64a: a6 12        	ldx	$12                     ; 0x2012 <__mulsf3+0x844>
     64c: 8e 11 d1     	stx	$d111                   ; 0xd111 <__heap_start+0xa043>
     64f: a6 13        	ldx	$13                     ; 0x2013 <__mulsf3+0x845>
     651: 8e 12 d1     	stx	$d112                   ; 0xd112 <__heap_start+0xa044>
     654: 8d 13 d1     	sta	$d113                   ; 0xd113 <__heap_start+0xa045>
     657: 9c 00 d1     	stz	$d100                   ; 0xd100 <__heap_start+0xa032>
     65a: 9c 08 d1     	stz	$d108                   ; 0xd108 <__heap_start+0xa03a>
     65d: 9c 10 d1     	stz	$d110                   ; 0xd110 <__heap_start+0xa042>
     660: a2 10        	ldx	#$10
     662: 8e 00 d2     	stx	$d200                   ; 0xd200 <__heap_start+0xa132>
     665: 8e 0c d2     	stx	$d20c                   ; 0xd20c <__heap_start+0xa13e>
     668: 8e 18 d2     	stx	$d218                   ; 0xd218 <__heap_start+0xa14a>
     66b: a0 d9        	ldy	#$d9
     66d: a2 40        	ldx	#$40
     66f: 64 12        	stz	$12                     ; 0x2012 <__mulsf3+0x844>
     671: 84 13        	sty	$13                     ; 0x2013 <__mulsf3+0x845>
     673: a9 00        	lda	#$0
     675: 92 12        	sta	($12)                   ; 0x2012 <__mulsf3+0x844>
     677: ca           	dex
     678: 18           	clc
     679: a5 12        	lda	$12                     ; 0x2012 <__mulsf3+0x844>
     67b: 69 08        	adc	#$8
     67d: 85 12        	sta	$12                     ; 0x2012 <__mulsf3+0x844>
     67f: 98           	tya
     680: 69 00        	adc	#$0
     682: a8           	tay
     683: 8a           	txa
     684: d0 eb        	bne	$671 <f256Init+0x336>
     686: a2 36        	ldx	#$36
     688: a0 00        	ldy	#$0
     68a: 86 fb        	stx	$fb                     ; 0x20fb <__divsf3+0x75>
     68c: 84 fc        	sty	$fc                     ; 0x20fc <__divsf3+0x76>
     68e: a2 08        	ldx	#$8
     690: 86 fd        	stx	$fd                     ; 0x20fd <__divsf3+0x77>
     692: a2 3e        	ldx	#$3e
     694: a0 00        	ldy	#$0
     696: 86 12        	stx	$12                     ; 0x2012 <__mulsf3+0x844>
     698: 84 13        	sty	$13                     ; 0x2013 <__mulsf3+0x845>
     69a: a2 c5        	ldx	#$c5
     69c: 86 14        	stx	$14                     ; 0x2014 <__mulsf3+0x846>
     69e: a2 30        	ldx	#$30
     6a0: 86 15        	stx	$15                     ; 0x2015 <__mulsf3+0x847>
     6a2: 20 dc ff     	jsr	$ffdc <__heap_start+0xcf0e>
     6a5: 92 12        	sta	($12)                   ; 0x2012 <__mulsf3+0x844>
     6a7: a9 00        	lda	#$0
     6a9: 6a           	ror
     6aa: 85 14        	sta	$14                     ; 0x2014 <__mulsf3+0x846>
     6ac: a6 3c        	ldx	$3c                     ; 0x203c <__mulsf3+0x86e>
     6ae: a4 3d        	ldy	$3d                     ; 0x203d <__mulsf3+0x86f>
     6b0: 8e 00 de     	stx	$de00                   ; 0xde00 <__heap_start+0xad32>
     6b3: 9c 01 de     	stz	$de01                   ; 0xde01 <__heap_start+0xad33>
     6b6: 8c 02 de     	sty	$de02                   ; 0xde02 <__heap_start+0xad34>
     6b9: 9c 03 de     	stz	$de03                   ; 0xde03 <__heap_start+0xad35>
     6bc: ae 10 de     	ldx	$de10                   ; 0xde10 <__heap_start+0xad42>
     6bf: ac 11 de     	ldy	$de11                   ; 0xde11 <__heap_start+0xad43>
     6c2: ad 12 de     	lda	$de12                   ; 0xde12 <__heap_start+0xad44>
     6c5: ad 13 de     	lda	$de13                   ; 0xde13 <__heap_start+0xad45>
     6c8: 8e a4 d6     	stx	$d6a4                   ; 0xd6a4 <__heap_start+0xa5d6>
     6cb: 8c a5 d6     	sty	$d6a5                   ; 0xd6a5 <__heap_start+0xa5d7>
     6ce: a2 03        	ldx	#$3
     6d0: 8e a6 d6     	stx	$d6a6                   ; 0xd6a6 <__heap_start+0xa5d8>
     6d3: 60           	rts

000006d4 <main>:
     6d4: 20 3b 03     	jsr	$33b <f256Init>
     6d7: 20 da 06     	jsr	$6da <f256main>

000006da <f256main>:
     6da: 18           	clc
     6db: a5 10        	lda	$10                     ; 0x2010 <__mulsf3+0x842>
     6dd: 69 ef        	adc	#$ef
     6df: 85 10        	sta	$10                     ; 0x2010 <__mulsf3+0x842>
     6e1: a5 11        	lda	$11                     ; 0x2011 <__mulsf3+0x843>
     6e3: 69 ff        	adc	#$ff
     6e5: 85 11        	sta	$11                     ; 0x2011 <__mulsf3+0x843>
     6e7: a2 00        	ldx	#$0
     6e9: 64 01        	stz	$1                      ; 0x2001 <__mulsf3+0x833>
     6eb: a0 0f        	ldy	#$f
     6ed: 8c 00 d0     	sty	$d000                   ; 0xd000 <__heap_start+0x9f32>
     6f0: a0 14        	ldy	#$14
     6f2: 8c 01 d0     	sty	$d001                   ; 0xd001 <__heap_start+0x9f33>
     6f5: a0 10        	ldy	#$10
     6f7: 8c 02 d0     	sty	$d002                   ; 0xd002 <__heap_start+0x9f34>
     6fa: a0 02        	ldy	#$2
     6fc: 8c 03 d0     	sty	$d003                   ; 0xd003 <__heap_start+0x9f35>
     6ff: 9c 0d d0     	stz	$d00d                   ; 0xd00d <__heap_start+0x9f3f>
     702: 9c 0e d0     	stz	$d00e                   ; 0xd00e <__heap_start+0x9f40>
     705: 9c 0f d0     	stz	$d00f                   ; 0xd00f <__heap_start+0x9f41>
     708: 88           	dey
     709: 84 01        	sty	$1                      ; 0x2001 <__mulsf3+0x833>
     70b: a0 d0        	ldy	#$d0
     70d: 86 16        	stx	$16                     ; 0x2016 <__mulsf3+0x848>
     70f: 8a           	txa
     710: 18           	clc
     711: 69 00        	adc	#$0
     713: 85 14        	sta	$14                     ; 0x2014 <__mulsf3+0x846>
     715: 98           	tya
     716: 69 10        	adc	#$10
     718: 85 15        	sta	$15                     ; 0x2015 <__mulsf3+0x847>
     71a: 86 12        	stx	$12                     ; 0x2012 <__mulsf3+0x844>
     71c: 84 13        	sty	$13                     ; 0x2013 <__mulsf3+0x845>
     71e: a6 0f        	ldx	$f                      ; 0x200f <__mulsf3+0x841>
     720: 78           	sei
     721: a9 08        	lda	#$8
     723: 85 0f        	sta	$f                      ; 0x200f <__mulsf3+0x841>
     725: b2 14        	lda	($14)                   ; 0x2014 <__mulsf3+0x846>
     727: 86 0f        	stx	$f                      ; 0x200f <__mulsf3+0x841>
     729: 58           	cli
     72a: 92 12        	sta	($12)                   ; 0x2012 <__mulsf3+0x844>
     72c: a6 16        	ldx	$16                     ; 0x2016 <__mulsf3+0x848>
     72e: e8           	inx
     72f: d0 01        	bne	$732 <f256main+0x58>
     731: c8           	iny
     732: c0 d3        	cpy	#$d3
     734: d0 d7        	bne	$70d <f256main+0x33>
     736: e0 ff        	cpx	#$ff
     738: d0 d3        	bne	$70d <f256main+0x33>
     73a: 64 01        	stz	$1                      ; 0x2001 <__mulsf3+0x833>
     73c: ad 00 d1     	lda	$d100                   ; 0xd100 <__heap_start+0xa032>
     73f: 29 f9        	and	#$f9
     741: 8d 00 d1     	sta	$d100                   ; 0xd100 <__heap_start+0xa032>
     744: a2 01        	ldx	#$1
     746: 8e 00 d1     	stx	$d100                   ; 0xd100 <__heap_start+0xa032>
     749: 9c 08 d1     	stz	$d108                   ; 0xd108 <__heap_start+0xa03a>
     74c: 9c 10 d1     	stz	$d110                   ; 0xd110 <__heap_start+0xa042>
     74f: a0 00        	ldy	#$0
     751: 98           	tya
     752: 64 12        	stz	$12                     ; 0x2012 <__mulsf3+0x844>
     754: 64 13        	stz	$13                     ; 0x2013 <__mulsf3+0x845>
     756: 5a           	phy
     757: a0 00        	ldy	#$0
     759: 91 10        	sta	($10),y                 ; 0x2010 <__mulsf3+0x842>
     75b: 7a           	ply
     75c: aa           	tax
     75d: 98           	tya
     75e: 5a           	phy
     75f: a0 01        	ldy	#$1
     761: 91 10        	sta	($10),y                 ; 0x2010 <__mulsf3+0x842>
     763: 7a           	ply
     764: 98           	tya
     765: 20 06 2c     	jsr	$2c06 <__floatunsisf>
     768: 64 14        	stz	$14                     ; 0x2014 <__mulsf3+0x846>
     76a: 64 15        	stz	$15                     ; 0x2015 <__mulsf3+0x847>
     76c: a0 f0        	ldy	#$f0
     76e: 84 16        	sty	$16                     ; 0x2016 <__mulsf3+0x848>
     770: a0 42        	ldy	#$42
     772: 84 17        	sty	$17                     ; 0x2017 <__mulsf3+0x849>
     774: 20 86 20     	jsr	$2086 <__divsf3>
     777: 64 14        	stz	$14                     ; 0x2014 <__mulsf3+0x846>
     779: 64 15        	stz	$15                     ; 0x2015 <__mulsf3+0x847>
     77b: a0 80        	ldy	#$80
     77d: 84 16        	sty	$16                     ; 0x2016 <__mulsf3+0x848>
     77f: a0 bf        	ldy	#$bf
     781: 84 17        	sty	$17                     ; 0x2017 <__mulsf3+0x849>
     783: 20 02 0c     	jsr	$c02 <__addsf3>
     786: a0 07        	ldy	#$7
     788: 91 10        	sta	($10),y                 ; 0x2010 <__mulsf3+0x842>
     78a: 8a           	txa
     78b: 88           	dey
     78c: 91 10        	sta	($10),y                 ; 0x2010 <__mulsf3+0x842>
     78e: a5 12        	lda	$12                     ; 0x2012 <__mulsf3+0x844>
     790: 88           	dey
     791: 91 10        	sta	($10),y                 ; 0x2010 <__mulsf3+0x842>
     793: a5 13        	lda	$13                     ; 0x2013 <__mulsf3+0x845>
     795: 88           	dey
     796: 91 10        	sta	($10),y                 ; 0x2010 <__mulsf3+0x842>
     798: a0 00        	ldy	#$0
     79a: a2 00        	ldx	#$0
     79c: 64 29        	stz	$29                     ; 0x2029 <__mulsf3+0x85b>
     79e: 64 12        	stz	$12                     ; 0x2012 <__mulsf3+0x844>
     7a0: 64 13        	stz	$13                     ; 0x2013 <__mulsf3+0x845>
     7a2: 8a           	txa
     7a3: 5a           	phy
     7a4: a0 02        	ldy	#$2
     7a6: 91 10        	sta	($10),y                 ; 0x2010 <__mulsf3+0x842>
     7a8: 7a           	ply
     7a9: 98           	tya
     7aa: 5a           	phy
     7ab: a0 03        	ldy	#$3
     7ad: 91 10        	sta	($10),y                 ; 0x2010 <__mulsf3+0x842>
     7af: 7a           	ply
     7b0: 98           	tya
     7b1: 20 06 2c     	jsr	$2c06 <__floatunsisf>
     7b4: a0 fe        	ldy	#$fe
     7b6: 84 14        	sty	$14                     ; 0x2014 <__mulsf3+0x846>
     7b8: a0 54        	ldy	#$54
     7ba: 84 15        	sty	$15                     ; 0x2015 <__mulsf3+0x847>
     7bc: a0 d5        	ldy	#$d5
     7be: 84 16        	sty	$16                     ; 0x2016 <__mulsf3+0x848>
     7c0: a0 42        	ldy	#$42
     7c2: 84 17        	sty	$17                     ; 0x2017 <__mulsf3+0x849>
     7c4: 20 86 20     	jsr	$2086 <__divsf3>
     7c7: 64 14        	stz	$14                     ; 0x2014 <__mulsf3+0x846>
     7c9: 64 15        	stz	$15                     ; 0x2015 <__mulsf3+0x847>
     7cb: 64 16        	stz	$16                     ; 0x2016 <__mulsf3+0x848>
     7cd: 48           	pha
     7ce: a9 00        	lda	#$0
     7d0: a0 10        	ldy	#$10
     7d2: 91 10        	sta	($10),y                 ; 0x2010 <__mulsf3+0x842>
     7d4: 68           	pla
     7d5: a0 c0        	ldy	#$c0
     7d7: 84 17        	sty	$17                     ; 0x2017 <__mulsf3+0x849>
     7d9: 20 02 0c     	jsr	$c02 <__addsf3>
     7dc: a0 0b        	ldy	#$b
     7de: 91 10        	sta	($10),y                 ; 0x2010 <__mulsf3+0x842>
     7e0: 8a           	txa
     7e1: 88           	dey
     7e2: 91 10        	sta	($10),y                 ; 0x2010 <__mulsf3+0x842>
     7e4: a5 12        	lda	$12                     ; 0x2012 <__mulsf3+0x844>
     7e6: 88           	dey
     7e7: 91 10        	sta	($10),y                 ; 0x2010 <__mulsf3+0x842>
     7e9: a5 13        	lda	$13                     ; 0x2013 <__mulsf3+0x845>
     7eb: 88           	dey
     7ec: 91 10        	sta	($10),y                 ; 0x2010 <__mulsf3+0x842>
     7ee: 64 28        	stz	$28                     ; 0x2028 <__mulsf3+0x85a>
     7f0: 64 2d        	stz	$2d                     ; 0x202d <__mulsf3+0x85f>
     7f2: 64 2e        	stz	$2e                     ; 0x202e <__mulsf3+0x860>
     7f4: 64 2f        	stz	$2f                     ; 0x202f <__mulsf3+0x861>
     7f6: 64 25        	stz	$25                     ; 0x2025 <__mulsf3+0x857>
     7f8: 64 24        	stz	$24                     ; 0x2024 <__mulsf3+0x856>
     7fa: 64 26        	stz	$26                     ; 0x2026 <__mulsf3+0x858>
     7fc: 64 27        	stz	$27                     ; 0x2027 <__mulsf3+0x859>
     7fe: a6 26        	ldx	$26                     ; 0x2026 <__mulsf3+0x858>
     800: 86 12        	stx	$12                     ; 0x2012 <__mulsf3+0x844>
     802: a6 27        	ldx	$27                     ; 0x2027 <__mulsf3+0x859>
     804: 86 13        	stx	$13                     ; 0x2013 <__mulsf3+0x845>
     806: a6 25        	ldx	$25                     ; 0x2025 <__mulsf3+0x857>
     808: 86 14        	stx	$14                     ; 0x2014 <__mulsf3+0x846>
     80a: a6 24        	ldx	$24                     ; 0x2024 <__mulsf3+0x856>
     80c: 86 15        	stx	$15                     ; 0x2015 <__mulsf3+0x847>
     80e: a6 26        	ldx	$26                     ; 0x2026 <__mulsf3+0x858>
     810: 86 16        	stx	$16                     ; 0x2016 <__mulsf3+0x848>
     812: a6 27        	ldx	$27                     ; 0x2027 <__mulsf3+0x859>
     814: 86 17        	stx	$17                     ; 0x2017 <__mulsf3+0x849>
     816: a6 24        	ldx	$24                     ; 0x2024 <__mulsf3+0x856>
     818: a5 25        	lda	$25                     ; 0x2025 <__mulsf3+0x857>
     81a: 20 ce 17     	jsr	$17ce <__mulsf3>
     81d: 85 25        	sta	$25                     ; 0x2025 <__mulsf3+0x857>
     81f: 86 24        	stx	$24                     ; 0x2024 <__mulsf3+0x856>
     821: a6 12        	ldx	$12                     ; 0x2012 <__mulsf3+0x844>
     823: 86 27        	stx	$27                     ; 0x2027 <__mulsf3+0x859>
     825: a6 13        	ldx	$13                     ; 0x2013 <__mulsf3+0x845>
     827: 86 2c        	stx	$2c                     ; 0x202c <__mulsf3+0x85e>
     829: a6 2e        	ldx	$2e                     ; 0x202e <__mulsf3+0x860>
     82b: 86 12        	stx	$12                     ; 0x2012 <__mulsf3+0x844>
     82d: a6 2f        	ldx	$2f                     ; 0x202f <__mulsf3+0x861>
     82f: 86 13        	stx	$13                     ; 0x2013 <__mulsf3+0x845>
     831: a6 28        	ldx	$28                     ; 0x2028 <__mulsf3+0x85a>
     833: 86 14        	stx	$14                     ; 0x2014 <__mulsf3+0x846>
     835: a6 2d        	ldx	$2d                     ; 0x202d <__mulsf3+0x85f>
     837: 86 15        	stx	$15                     ; 0x2015 <__mulsf3+0x847>
     839: a6 2e        	ldx	$2e                     ; 0x202e <__mulsf3+0x860>
     83b: 86 16        	stx	$16                     ; 0x2016 <__mulsf3+0x848>
     83d: a6 2f        	ldx	$2f                     ; 0x202f <__mulsf3+0x861>
     83f: 86 17        	stx	$17                     ; 0x2017 <__mulsf3+0x849>
     841: a6 2d        	ldx	$2d                     ; 0x202d <__mulsf3+0x85f>
     843: a5 28        	lda	$28                     ; 0x2028 <__mulsf3+0x85a>
     845: a0 0c        	ldy	#$c
     847: 91 10        	sta	($10),y                 ; 0x2010 <__mulsf3+0x842>
     849: 20 ce 17     	jsr	$17ce <__mulsf3>
     84c: 85 28        	sta	$28                     ; 0x2028 <__mulsf3+0x85a>
     84e: 86 26        	stx	$26                     ; 0x2026 <__mulsf3+0x858>
     850: a4 12        	ldy	$12                     ; 0x2012 <__mulsf3+0x844>
     852: 84 2a        	sty	$2a                     ; 0x202a <__mulsf3+0x85c>
     854: a4 13        	ldy	$13                     ; 0x2013 <__mulsf3+0x845>
     856: 84 2b        	sty	$2b                     ; 0x202b <__mulsf3+0x85d>
     858: 48           	pha
     859: a5 27        	lda	$27                     ; 0x2027 <__mulsf3+0x859>
     85b: a0 0d        	ldy	#$d
     85d: 91 10        	sta	($10),y                 ; 0x2010 <__mulsf3+0x842>
     85f: 68           	pla
     860: a4 27        	ldy	$27                     ; 0x2027 <__mulsf3+0x859>
     862: 84 12        	sty	$12                     ; 0x2012 <__mulsf3+0x844>
     864: a4 2c        	ldy	$2c                     ; 0x202c <__mulsf3+0x85e>
     866: 84 13        	sty	$13                     ; 0x2013 <__mulsf3+0x845>
     868: 85 14        	sta	$14                     ; 0x2014 <__mulsf3+0x846>
     86a: 86 15        	stx	$15                     ; 0x2015 <__mulsf3+0x847>
     86c: a6 2a        	ldx	$2a                     ; 0x202a <__mulsf3+0x85c>
     86e: 86 16        	stx	$16                     ; 0x2016 <__mulsf3+0x848>
     870: a6 2b        	ldx	$2b                     ; 0x202b <__mulsf3+0x85d>
     872: 86 17        	stx	$17                     ; 0x2017 <__mulsf3+0x849>
     874: a5 24        	lda	$24                     ; 0x2024 <__mulsf3+0x856>
     876: a0 0e        	ldy	#$e
     878: 91 10        	sta	($10),y                 ; 0x2010 <__mulsf3+0x842>
     87a: a6 24        	ldx	$24                     ; 0x2024 <__mulsf3+0x856>
     87c: a5 25        	lda	$25                     ; 0x2025 <__mulsf3+0x857>
     87e: c8           	iny
     87f: 91 10        	sta	($10),y                 ; 0x2010 <__mulsf3+0x842>
     881: 20 02 0c     	jsr	$c02 <__addsf3>
     884: 64 14        	stz	$14                     ; 0x2014 <__mulsf3+0x846>
     886: 64 15        	stz	$15                     ; 0x2015 <__mulsf3+0x847>
     888: a0 80        	ldy	#$80
     88a: 84 16        	sty	$16                     ; 0x2016 <__mulsf3+0x848>
     88c: a0 40        	ldy	#$40
     88e: 84 17        	sty	$17                     ; 0x2017 <__mulsf3+0x849>
     890: 20 59 2f     	jsr	$2f59 <__gtsf2>
     893: a8           	tay
     894: 8a           	txa
     895: c0 01        	cpy	#$1
     897: e9 00        	sbc	#$0
     899: a5 12        	lda	$12                     ; 0x2012 <__mulsf3+0x844>
     89b: e9 00        	sbc	#$0
     89d: a5 13        	lda	$13                     ; 0x2013 <__mulsf3+0x845>
     89f: e9 00        	sbc	#$0
     8a1: 50 02        	bvc	$8a5 <f256main+0x1cb>
     8a3: 49 80        	eor	#$80
     8a5: aa           	tax
     8a6: 30 03        	bmi	$8ab <f256main+0x1d1>
     8a8: 4c 61 09     	jmp	$961 <f256main+0x287>
     8ab: a0 0d        	ldy	#$d
     8ad: b1 10        	lda	($10),y                 ; 0x2010 <__mulsf3+0x842>
     8af: 85 12        	sta	$12                     ; 0x2012 <__mulsf3+0x844>
     8b1: a6 2c        	ldx	$2c                     ; 0x202c <__mulsf3+0x85e>
     8b3: 86 13        	stx	$13                     ; 0x2013 <__mulsf3+0x845>
     8b5: a6 28        	ldx	$28                     ; 0x2028 <__mulsf3+0x85a>
     8b7: 86 14        	stx	$14                     ; 0x2014 <__mulsf3+0x846>
     8b9: a6 26        	ldx	$26                     ; 0x2026 <__mulsf3+0x858>
     8bb: 86 15        	stx	$15                     ; 0x2015 <__mulsf3+0x847>
     8bd: a6 2a        	ldx	$2a                     ; 0x202a <__mulsf3+0x85c>
     8bf: 86 16        	stx	$16                     ; 0x2016 <__mulsf3+0x848>
     8c1: a6 2b        	ldx	$2b                     ; 0x202b <__mulsf3+0x85d>
     8c3: 86 17        	stx	$17                     ; 0x2017 <__mulsf3+0x849>
     8c5: c8           	iny
     8c6: b1 10        	lda	($10),y                 ; 0x2010 <__mulsf3+0x842>
     8c8: aa           	tax
     8c9: c8           	iny
     8ca: b1 10        	lda	($10),y                 ; 0x2010 <__mulsf3+0x842>
     8cc: 20 c3 17     	jsr	$17c3 <__subsf3>
     8cf: 85 14        	sta	$14                     ; 0x2014 <__mulsf3+0x846>
     8d1: 86 15        	stx	$15                     ; 0x2015 <__mulsf3+0x847>
     8d3: a6 12        	ldx	$12                     ; 0x2012 <__mulsf3+0x844>
     8d5: a4 13        	ldy	$13                     ; 0x2013 <__mulsf3+0x845>
     8d7: 5a           	phy
     8d8: a0 09        	ldy	#$9
     8da: b1 10        	lda	($10),y                 ; 0x2010 <__mulsf3+0x842>
     8dc: 85 12        	sta	$12                     ; 0x2012 <__mulsf3+0x844>
     8de: 88           	dey
     8df: b1 10        	lda	($10),y                 ; 0x2010 <__mulsf3+0x842>
     8e1: 7a           	ply
     8e2: 85 13        	sta	$13                     ; 0x2013 <__mulsf3+0x845>
     8e4: 86 16        	stx	$16                     ; 0x2016 <__mulsf3+0x848>
     8e6: 84 17        	sty	$17                     ; 0x2017 <__mulsf3+0x849>
     8e8: a0 0a        	ldy	#$a
     8ea: b1 10        	lda	($10),y                 ; 0x2010 <__mulsf3+0x842>
     8ec: aa           	tax
     8ed: c8           	iny
     8ee: b1 10        	lda	($10),y                 ; 0x2010 <__mulsf3+0x842>
     8f0: 20 02 0c     	jsr	$c02 <__addsf3>
     8f3: 85 25        	sta	$25                     ; 0x2025 <__mulsf3+0x857>
     8f5: 86 24        	stx	$24                     ; 0x2024 <__mulsf3+0x856>
     8f7: a6 12        	ldx	$12                     ; 0x2012 <__mulsf3+0x844>
     8f9: 86 26        	stx	$26                     ; 0x2026 <__mulsf3+0x858>
     8fb: a6 13        	ldx	$13                     ; 0x2013 <__mulsf3+0x845>
     8fd: 86 27        	stx	$27                     ; 0x2027 <__mulsf3+0x859>
     8ff: 64 29        	stz	$29                     ; 0x2029 <__mulsf3+0x85b>
     901: 64 14        	stz	$14                     ; 0x2014 <__mulsf3+0x846>
     903: 64 15        	stz	$15                     ; 0x2015 <__mulsf3+0x847>
     905: 64 16        	stz	$16                     ; 0x2016 <__mulsf3+0x848>
     907: a2 40        	ldx	#$40
     909: 86 17        	stx	$17                     ; 0x2017 <__mulsf3+0x849>
     90b: a6 24        	ldx	$24                     ; 0x2024 <__mulsf3+0x856>
     90d: 20 ce 17     	jsr	$17ce <__mulsf3>
     910: 48           	pha
     911: a0 0c        	ldy	#$c
     913: b1 10        	lda	($10),y                 ; 0x2010 <__mulsf3+0x842>
     915: 85 14        	sta	$14                     ; 0x2014 <__mulsf3+0x846>
     917: 68           	pla
     918: a4 2d        	ldy	$2d                     ; 0x202d <__mulsf3+0x85f>
     91a: 84 15        	sty	$15                     ; 0x2015 <__mulsf3+0x847>
     91c: a4 2e        	ldy	$2e                     ; 0x202e <__mulsf3+0x860>
     91e: 84 16        	sty	$16                     ; 0x2016 <__mulsf3+0x848>
     920: a4 2f        	ldy	$2f                     ; 0x202f <__mulsf3+0x861>
     922: 84 17        	sty	$17                     ; 0x2017 <__mulsf3+0x849>
     924: 20 ce 17     	jsr	$17ce <__mulsf3>
     927: 48           	pha
     928: a0 07        	ldy	#$7
     92a: b1 10        	lda	($10),y                 ; 0x2010 <__mulsf3+0x842>
     92c: 85 14        	sta	$14                     ; 0x2014 <__mulsf3+0x846>
     92e: 88           	dey
     92f: b1 10        	lda	($10),y                 ; 0x2010 <__mulsf3+0x842>
     931: 85 15        	sta	$15                     ; 0x2015 <__mulsf3+0x847>
     933: 88           	dey
     934: b1 10        	lda	($10),y                 ; 0x2010 <__mulsf3+0x842>
     936: 85 16        	sta	$16                     ; 0x2016 <__mulsf3+0x848>
     938: 88           	dey
     939: b1 10        	lda	($10),y                 ; 0x2010 <__mulsf3+0x842>
     93b: 85 17        	sta	$17                     ; 0x2017 <__mulsf3+0x849>
     93d: 68           	pla
     93e: 20 02 0c     	jsr	$c02 <__addsf3>
     941: 85 28        	sta	$28                     ; 0x2028 <__mulsf3+0x85a>
     943: 86 2d        	stx	$2d                     ; 0x202d <__mulsf3+0x85f>
     945: a6 12        	ldx	$12                     ; 0x2012 <__mulsf3+0x844>
     947: 86 2e        	stx	$2e                     ; 0x202e <__mulsf3+0x860>
     949: a6 13        	ldx	$13                     ; 0x2013 <__mulsf3+0x845>
     94b: 86 2f        	stx	$2f                     ; 0x202f <__mulsf3+0x861>
     94d: a0 10        	ldy	#$10
     94f: b1 10        	lda	($10),y                 ; 0x2010 <__mulsf3+0x842>
     951: aa           	tax
     952: e8           	inx
     953: 8a           	txa
     954: 91 10        	sta	($10),y                 ; 0x2010 <__mulsf3+0x842>
     956: e0 14        	cpx	#$14
     958: f0 03        	beq	$95d <f256main+0x283>
     95a: 4c fe 07     	jmp	$7fe <f256main+0x124>
     95d: a9 eb        	lda	#$eb
     95f: 80 06        	bra	$967 <f256main+0x28d>
     961: a0 10        	ldy	#$10
     963: b1 10        	lda	($10),y                 ; 0x2010 <__mulsf3+0x842>
     965: 49 ff        	eor	#$ff
     967: 85 34        	sta	$34                     ; 0x2034 <__mulsf3+0x866>
     969: a6 0f        	ldx	$f                      ; 0x200f <__mulsf3+0x841>
     96b: 78           	sei
     96c: a4 30        	ldy	$30                     ; 0x2030 <__mulsf3+0x862>
     96e: 84 13        	sty	$13                     ; 0x2013 <__mulsf3+0x845>
     970: a4 31        	ldy	$31                     ; 0x2031 <__mulsf3+0x863>
     972: 84 14        	sty	$14                     ; 0x2014 <__mulsf3+0x846>
     974: a4 32        	ldy	$32                     ; 0x2032 <__mulsf3+0x864>
     976: 84 12        	sty	$12                     ; 0x2012 <__mulsf3+0x844>
     978: a5 35        	lda	$35                     ; 0x2035 <__mulsf3+0x867>
     97a: 86 15        	stx	$15                     ; 0x2015 <__mulsf3+0x847>
     97c: 29 01        	and	#$1
     97e: f0 06        	beq	$986 <f256main+0x2ac>
     980: a0 40        	ldy	#$40
     982: a9 01        	lda	#$1
     984: 80 03        	bra	$989 <f256main+0x2af>
     986: a0 00        	ldy	#$0
     988: 98           	tya
     989: 48           	pha
     98a: 5a           	phy
     98b: a0 01        	ldy	#$1
     98d: b1 10        	lda	($10),y                 ; 0x2010 <__mulsf3+0x842>
     98f: 8d 00 de     	sta	$de00                   ; 0xde00 <__heap_start+0xad32>
     992: 88           	dey
     993: b1 10        	lda	($10),y                 ; 0x2010 <__mulsf3+0x842>
     995: 7a           	ply
     996: aa           	tax
     997: 68           	pla
     998: 8e 01 de     	stx	$de01                   ; 0xde01 <__heap_start+0xad33>
     99b: 8c 02 de     	sty	$de02                   ; 0xde02 <__heap_start+0xad34>
     99e: 8d 03 de     	sta	$de03                   ; 0xde03 <__heap_start+0xad35>
     9a1: ac 10 de     	ldy	$de10                   ; 0xde10 <__heap_start+0xad42>
     9a4: ad 11 de     	lda	$de11                   ; 0xde11 <__heap_start+0xad43>
     9a7: ae 12 de     	ldx	$de12                   ; 0xde12 <__heap_start+0xad44>
     9aa: 86 17        	stx	$17                     ; 0x2017 <__mulsf3+0x849>
     9ac: ae 13 de     	ldx	$de13                   ; 0xde13 <__heap_start+0xad45>
     9af: 86 16        	stx	$16                     ; 0x2016 <__mulsf3+0x848>
     9b1: 8c 08 de     	sty	$de08                   ; 0xde08 <__heap_start+0xad3a>
     9b4: 8d 09 de     	sta	$de09                   ; 0xde09 <__heap_start+0xad3b>
     9b7: a6 17        	ldx	$17                     ; 0x2017 <__mulsf3+0x849>
     9b9: 8e 0a de     	stx	$de0a                   ; 0xde0a <__heap_start+0xad3c>
     9bc: a6 16        	ldx	$16                     ; 0x2016 <__mulsf3+0x848>
     9be: 8e 0b de     	stx	$de0b                   ; 0xde0b <__heap_start+0xad3d>
     9c1: a0 03        	ldy	#$3
     9c3: b1 10        	lda	($10),y                 ; 0x2010 <__mulsf3+0x842>
     9c5: 8d 0c de     	sta	$de0c                   ; 0xde0c <__heap_start+0xad3e>
     9c8: 85 18        	sta	$18                     ; 0x2018 <__mulsf3+0x84a>
     9ca: 88           	dey
     9cb: b1 10        	lda	($10),y                 ; 0x2010 <__mulsf3+0x842>
     9cd: a8           	tay
     9ce: 8d 0d de     	sta	$de0d                   ; 0xde0d <__heap_start+0xad3f>
     9d1: 9c 0e de     	stz	$de0e                   ; 0xde0e <__heap_start+0xad40>
     9d4: 9c 0f de     	stz	$de0f                   ; 0xde0f <__heap_start+0xad41>
     9d7: ad 18 de     	lda	$de18                   ; 0xde18 <__heap_start+0xad4a>
     9da: ae 19 de     	ldx	$de19                   ; 0xde19 <__heap_start+0xad4b>
     9dd: 18           	clc
     9de: 65 13        	adc	$13                     ; 0x2013 <__mulsf3+0x845>
     9e0: 85 13        	sta	$13                     ; 0x2013 <__mulsf3+0x845>
     9e2: 8a           	txa
     9e3: 65 14        	adc	$14                     ; 0x2014 <__mulsf3+0x846>
     9e5: 85 14        	sta	$14                     ; 0x2014 <__mulsf3+0x846>
     9e7: ad 1a de     	lda	$de1a                   ; 0xde1a <__heap_start+0xad4c>
     9ea: 65 12        	adc	$12                     ; 0x2012 <__mulsf3+0x844>
     9ec: 5a           	phy
     9ed: a6 14        	ldx	$14                     ; 0x2014 <__mulsf3+0x846>
     9ef: 86 12        	stx	$12                     ; 0x2012 <__mulsf3+0x844>
     9f1: 06 12        	asl	$12                     ; 0x2012 <__mulsf3+0x844>
     9f3: 2a           	rol
     9f4: 06 12        	asl	$12                     ; 0x2012 <__mulsf3+0x844>
     9f6: 2a           	rol
     9f7: 06 12        	asl	$12                     ; 0x2012 <__mulsf3+0x844>
     9f9: 2a           	rol
     9fa: ae 1b de     	ldx	$de1b                   ; 0xde1b <__heap_start+0xad4d>
     9fd: 85 0f        	sta	$f                      ; 0x200f <__mulsf3+0x841>
     9ff: a6 34        	ldx	$34                     ; 0x2034 <__mulsf3+0x866>
     a01: a5 14        	lda	$14                     ; 0x2014 <__mulsf3+0x846>
     a03: 09 e0        	ora	#$e0
     a05: a4 13        	ldy	$13                     ; 0x2013 <__mulsf3+0x845>
     a07: 84 12        	sty	$12                     ; 0x2012 <__mulsf3+0x844>
     a09: 7a           	ply
     a0a: 85 13        	sta	$13                     ; 0x2013 <__mulsf3+0x845>
     a0c: 8a           	txa
     a0d: 92 12        	sta	($12)                   ; 0x2012 <__mulsf3+0x844>
     a0f: a6 15        	ldx	$15                     ; 0x2015 <__mulsf3+0x847>
     a11: 86 0f        	stx	$f                      ; 0x200f <__mulsf3+0x841>
     a13: 58           	cli
     a14: 5a           	phy
     a15: fa           	plx
     a16: a4 18        	ldy	$18                     ; 0x2018 <__mulsf3+0x84a>
     a18: c8           	iny
     a19: d0 01        	bne	$a1c <f256main+0x342>
     a1b: e8           	inx
     a1c: e0 01        	cpx	#$1
     a1e: f0 03        	beq	$a23 <f256main+0x349>
     a20: 4c 9c 07     	jmp	$79c <f256main+0xc2>
     a23: c0 40        	cpy	#$40
     a25: f0 03        	beq	$a2a <f256main+0x350>
     a27: 4c 9c 07     	jmp	$79c <f256main+0xc2>
     a2a: a0 00        	ldy	#$0
     a2c: b1 10        	lda	($10),y                 ; 0x2010 <__mulsf3+0x842>
     a2e: aa           	tax
     a2f: c8           	iny
     a30: b1 10        	lda	($10),y                 ; 0x2010 <__mulsf3+0x842>
     a32: a8           	tay
     a33: c8           	iny
     a34: d0 01        	bne	$a37 <f256main+0x35d>
     a36: e8           	inx
     a37: 8a           	txa
     a38: f0 03        	beq	$a3d <f256main+0x363>
     a3a: 4c 52 07     	jmp	$752 <f256main+0x78>
     a3d: 8a           	txa
     a3e: c0 f0        	cpy	#$f0
     a40: f0 03        	beq	$a45 <f256main+0x36b>
     a42: 4c 52 07     	jmp	$752 <f256main+0x78>
     a45: 80 fe        	bra	$a45 <f256main+0x36b>

00000a47 <exit>:
     a47: 20 14 03     	jsr	$314 <_fini>
     a4a: 80 fe        	bra	$a4a <exit+0x3>

00000a4c <__memset>:
     a4c: a4 14        	ldy	$14                     ; 0x2014 <__mulsf3+0x846>
     a4e: d0 04        	bne	$a54 <__memset+0x8>
     a50: e0 00        	cpx	#$0
     a52: f0 17        	beq	$a6b <__memset+0x1f>
     a54: 92 12        	sta	($12)                   ; 0x2012 <__mulsf3+0x844>
     a56: e6 12        	inc	$12                     ; 0x2012 <__mulsf3+0x844>
     a58: d0 02        	bne	$a5c <__memset+0x10>
     a5a: e6 13        	inc	$13                     ; 0x2013 <__mulsf3+0x845>
     a5c: ca           	dex
     a5d: e0 ff        	cpx	#$ff
     a5f: d0 02        	bne	$a63 <__memset+0x17>
     a61: c6 14        	dec	$14                     ; 0x2014 <__mulsf3+0x846>
     a63: a4 14        	ldy	$14                     ; 0x2014 <__mulsf3+0x846>
     a65: d0 ed        	bne	$a54 <__memset+0x8>
     a67: e0 00        	cpx	#$0
     a69: d0 e9        	bne	$a54 <__memset+0x8>
     a6b: 60           	rts

00000a6c <__ashlsi3>:
     a6c: 86 15        	stx	$15                     ; 0x2015 <__mulsf3+0x847>
     a6e: a6 14        	ldx	$14                     ; 0x2014 <__mulsf3+0x846>
     a70: f0 0e        	beq	$a80 <__ashlsi3+0x14>
     a72: a6 14        	ldx	$14                     ; 0x2014 <__mulsf3+0x846>
     a74: ca           	dex
     a75: 0a           	asl
     a76: 26 15        	rol	$15                     ; 0x2015 <__mulsf3+0x847>
     a78: 26 12        	rol	$12                     ; 0x2012 <__mulsf3+0x844>
     a7a: 26 13        	rol	$13                     ; 0x2013 <__mulsf3+0x845>
     a7c: e0 00        	cpx	#$0
     a7e: d0 f4        	bne	$a74 <__ashlsi3+0x8>
     a80: a6 15        	ldx	$15                     ; 0x2015 <__mulsf3+0x847>
     a82: 60           	rts

00000a83 <__lshrsi3>:
     a83: 86 15        	stx	$15                     ; 0x2015 <__mulsf3+0x847>
     a85: a6 14        	ldx	$14                     ; 0x2014 <__mulsf3+0x846>
     a87: f0 0e        	beq	$a97 <__lshrsi3+0x14>
     a89: a6 14        	ldx	$14                     ; 0x2014 <__mulsf3+0x846>
     a8b: ca           	dex
     a8c: 46 13        	lsr	$13                     ; 0x2013 <__mulsf3+0x845>
     a8e: 66 12        	ror	$12                     ; 0x2012 <__mulsf3+0x844>
     a90: 66 15        	ror	$15                     ; 0x2015 <__mulsf3+0x847>
     a92: 6a           	ror
     a93: e0 00        	cpx	#$0
     a95: d0 f4        	bne	$a8b <__lshrsi3+0x8>
     a97: a6 15        	ldx	$15                     ; 0x2015 <__mulsf3+0x847>
     a99: 60           	rts

00000a9a <__mulsi3>:
     a9a: a4 17        	ldy	$17                     ; 0x2017 <__mulsf3+0x849>
     a9c: d0 0f        	bne	$aad <__mulsi3+0x13>
     a9e: a4 16        	ldy	$16                     ; 0x2016 <__mulsf3+0x848>
     aa0: d0 0b        	bne	$aad <__mulsi3+0x13>
     aa2: a4 15        	ldy	$15                     ; 0x2015 <__mulsf3+0x847>
     aa4: d0 07        	bne	$aad <__mulsi3+0x13>
     aa6: a4 14        	ldy	$14                     ; 0x2014 <__mulsf3+0x846>
     aa8: d0 03        	bne	$aad <__mulsi3+0x13>
     aaa: 4c 01 0b     	jmp	$b01 <__mulsi3+0x67>
     aad: 85 18        	sta	$18                     ; 0x2018 <__mulsf3+0x84a>
     aaf: 86 19        	stx	$19                     ; 0x2019 <__mulsf3+0x84b>
     ab1: a0 00        	ldy	#$0
     ab3: a2 00        	ldx	#$0
     ab5: 64 1a        	stz	$1a                     ; 0x201a <__mulsf3+0x84c>
     ab7: 98           	tya
     ab8: 46 17        	lsr	$17                     ; 0x2017 <__mulsf3+0x849>
     aba: 66 16        	ror	$16                     ; 0x2016 <__mulsf3+0x848>
     abc: 66 15        	ror	$15                     ; 0x2015 <__mulsf3+0x847>
     abe: 66 14        	ror	$14                     ; 0x2014 <__mulsf3+0x846>
     ac0: 90 15        	bcc	$ad7 <__mulsi3+0x3d>
     ac2: 85 1b        	sta	$1b                     ; 0x201b <__mulsf3+0x84d>
     ac4: 98           	tya
     ac5: 18           	clc
     ac6: 65 18        	adc	$18                     ; 0x2018 <__mulsf3+0x84a>
     ac8: a8           	tay
     ac9: 8a           	txa
     aca: 65 19        	adc	$19                     ; 0x2019 <__mulsf3+0x84b>
     acc: aa           	tax
     acd: a5 1a        	lda	$1a                     ; 0x201a <__mulsf3+0x84c>
     acf: 65 12        	adc	$12                     ; 0x2012 <__mulsf3+0x844>
     ad1: 85 1a        	sta	$1a                     ; 0x201a <__mulsf3+0x84c>
     ad3: a5 1b        	lda	$1b                     ; 0x201b <__mulsf3+0x84d>
     ad5: 65 13        	adc	$13                     ; 0x2013 <__mulsf3+0x845>
     ad7: 06 18        	asl	$18                     ; 0x2018 <__mulsf3+0x84a>
     ad9: 26 19        	rol	$19                     ; 0x2019 <__mulsf3+0x84b>
     adb: 26 12        	rol	$12                     ; 0x2012 <__mulsf3+0x844>
     add: 26 13        	rol	$13                     ; 0x2013 <__mulsf3+0x845>
     adf: e6 17        	inc	$17                     ; 0x2017 <__mulsf3+0x849>
     ae1: c6 17        	dec	$17                     ; 0x2017 <__mulsf3+0x849>
     ae3: d0 d3        	bne	$ab8 <__mulsi3+0x1e>
     ae5: e6 16        	inc	$16                     ; 0x2016 <__mulsf3+0x848>
     ae7: c6 16        	dec	$16                     ; 0x2016 <__mulsf3+0x848>
     ae9: d0 cd        	bne	$ab8 <__mulsi3+0x1e>
     aeb: e6 15        	inc	$15                     ; 0x2015 <__mulsf3+0x847>
     aed: c6 15        	dec	$15                     ; 0x2015 <__mulsf3+0x847>
     aef: d0 c7        	bne	$ab8 <__mulsi3+0x1e>
     af1: e6 14        	inc	$14                     ; 0x2014 <__mulsf3+0x846>
     af3: c6 14        	dec	$14                     ; 0x2014 <__mulsf3+0x846>
     af5: d0 c1        	bne	$ab8 <__mulsi3+0x1e>
     af7: 5a           	phy
     af8: a4 1a        	ldy	$1a                     ; 0x201a <__mulsf3+0x84c>
     afa: 84 12        	sty	$12                     ; 0x2012 <__mulsf3+0x844>
     afc: 7a           	ply
     afd: 85 13        	sta	$13                     ; 0x2013 <__mulsf3+0x845>
     aff: 98           	tya
     b00: 60           	rts
     b01: a0 00        	ldy	#$0
     b03: a2 00        	ldx	#$0
     b05: 64 1a        	stz	$1a                     ; 0x201a <__mulsf3+0x84c>
     b07: 98           	tya
     b08: 80 ed        	bra	$af7 <__mulsi3+0x5d>

00000b0a <__muldi3>:
     b0a: a4 1f        	ldy	$1f                     ; 0x201f <__mulsf3+0x851>
     b0c: d0 1f        	bne	$b2d <__muldi3+0x23>
     b0e: a4 1e        	ldy	$1e                     ; 0x201e <__mulsf3+0x850>
     b10: d0 1b        	bne	$b2d <__muldi3+0x23>
     b12: a4 1d        	ldy	$1d                     ; 0x201d <__mulsf3+0x84f>
     b14: d0 17        	bne	$b2d <__muldi3+0x23>
     b16: a4 1c        	ldy	$1c                     ; 0x201c <__mulsf3+0x84e>
     b18: d0 13        	bne	$b2d <__muldi3+0x23>
     b1a: a4 1b        	ldy	$1b                     ; 0x201b <__mulsf3+0x84d>
     b1c: d0 0f        	bne	$b2d <__muldi3+0x23>
     b1e: a4 1a        	ldy	$1a                     ; 0x201a <__mulsf3+0x84c>
     b20: d0 0b        	bne	$b2d <__muldi3+0x23>
     b22: a4 19        	ldy	$19                     ; 0x2019 <__mulsf3+0x84b>
     b24: d0 07        	bne	$b2d <__muldi3+0x23>
     b26: a4 18        	ldy	$18                     ; 0x2018 <__mulsf3+0x84a>
     b28: d0 03        	bne	$b2d <__muldi3+0x23>
     b2a: 4c f1 0b     	jmp	$bf1 <__muldi3+0xe7>
     b2d: 85 22        	sta	$22                     ; 0x2022 <__mulsf3+0x854>
     b2f: 86 23        	stx	$23                     ; 0x2023 <__mulsf3+0x855>
     b31: a0 00        	ldy	#$0
     b33: a2 00        	ldx	#$0
     b35: 64 51        	stz	$51                     ; 0x2051 <__mulsf3+0x883>
     b37: 64 52        	stz	$52                     ; 0x2052 <__mulsf3+0x884>
     b39: 64 53        	stz	$53                     ; 0x2053 <__mulsf3+0x885>
     b3b: 64 54        	stz	$54                     ; 0x2054 <__mulsf3+0x886>
     b3d: 64 55        	stz	$55                     ; 0x2055 <__mulsf3+0x887>
     b3f: 98           	tya
     b40: 46 1f        	lsr	$1f                     ; 0x201f <__mulsf3+0x851>
     b42: 66 1e        	ror	$1e                     ; 0x201e <__mulsf3+0x850>
     b44: 66 1d        	ror	$1d                     ; 0x201d <__mulsf3+0x84f>
     b46: 66 1c        	ror	$1c                     ; 0x201c <__mulsf3+0x84e>
     b48: 66 1b        	ror	$1b                     ; 0x201b <__mulsf3+0x84d>
     b4a: 66 1a        	ror	$1a                     ; 0x201a <__mulsf3+0x84c>
     b4c: 66 19        	ror	$19                     ; 0x2019 <__mulsf3+0x84b>
     b4e: 66 18        	ror	$18                     ; 0x2018 <__mulsf3+0x84a>
     b50: 90 2d        	bcc	$b7f <__muldi3+0x75>
     b52: 85 56        	sta	$56                     ; 0x2056 <__mulsf3+0x888>
     b54: 98           	tya
     b55: 18           	clc
     b56: 65 22        	adc	$22                     ; 0x2022 <__mulsf3+0x854>
     b58: a8           	tay
     b59: 8a           	txa
     b5a: 65 23        	adc	$23                     ; 0x2023 <__mulsf3+0x855>
     b5c: aa           	tax
     b5d: a5 51        	lda	$51                     ; 0x2051 <__mulsf3+0x883>
     b5f: 65 12        	adc	$12                     ; 0x2012 <__mulsf3+0x844>
     b61: 85 51        	sta	$51                     ; 0x2051 <__mulsf3+0x883>
     b63: a5 52        	lda	$52                     ; 0x2052 <__mulsf3+0x884>
     b65: 65 13        	adc	$13                     ; 0x2013 <__mulsf3+0x845>
     b67: 85 52        	sta	$52                     ; 0x2052 <__mulsf3+0x884>
     b69: a5 53        	lda	$53                     ; 0x2053 <__mulsf3+0x885>
     b6b: 65 14        	adc	$14                     ; 0x2014 <__mulsf3+0x846>
     b6d: 85 53        	sta	$53                     ; 0x2053 <__mulsf3+0x885>
     b6f: a5 54        	lda	$54                     ; 0x2054 <__mulsf3+0x886>
     b71: 65 15        	adc	$15                     ; 0x2015 <__mulsf3+0x847>
     b73: 85 54        	sta	$54                     ; 0x2054 <__mulsf3+0x886>
     b75: a5 55        	lda	$55                     ; 0x2055 <__mulsf3+0x887>
     b77: 65 16        	adc	$16                     ; 0x2016 <__mulsf3+0x848>
     b79: 85 55        	sta	$55                     ; 0x2055 <__mulsf3+0x887>
     b7b: a5 56        	lda	$56                     ; 0x2056 <__mulsf3+0x888>
     b7d: 65 17        	adc	$17                     ; 0x2017 <__mulsf3+0x849>
     b7f: 06 22        	asl	$22                     ; 0x2022 <__mulsf3+0x854>
     b81: 26 23        	rol	$23                     ; 0x2023 <__mulsf3+0x855>
     b83: 26 12        	rol	$12                     ; 0x2012 <__mulsf3+0x844>
     b85: 26 13        	rol	$13                     ; 0x2013 <__mulsf3+0x845>
     b87: 26 14        	rol	$14                     ; 0x2014 <__mulsf3+0x846>
     b89: 26 15        	rol	$15                     ; 0x2015 <__mulsf3+0x847>
     b8b: 26 16        	rol	$16                     ; 0x2016 <__mulsf3+0x848>
     b8d: 26 17        	rol	$17                     ; 0x2017 <__mulsf3+0x849>
     b8f: e6 1f        	inc	$1f                     ; 0x201f <__mulsf3+0x851>
     b91: c6 1f        	dec	$1f                     ; 0x201f <__mulsf3+0x851>
     b93: f0 03        	beq	$b98 <__muldi3+0x8e>
     b95: 4c 40 0b     	jmp	$b40 <__muldi3+0x36>
     b98: e6 1e        	inc	$1e                     ; 0x201e <__mulsf3+0x850>
     b9a: c6 1e        	dec	$1e                     ; 0x201e <__mulsf3+0x850>
     b9c: f0 03        	beq	$ba1 <__muldi3+0x97>
     b9e: 4c 40 0b     	jmp	$b40 <__muldi3+0x36>
     ba1: e6 1d        	inc	$1d                     ; 0x201d <__mulsf3+0x84f>
     ba3: c6 1d        	dec	$1d                     ; 0x201d <__mulsf3+0x84f>
     ba5: f0 03        	beq	$baa <__muldi3+0xa0>
     ba7: 4c 40 0b     	jmp	$b40 <__muldi3+0x36>
     baa: e6 1c        	inc	$1c                     ; 0x201c <__mulsf3+0x84e>
     bac: c6 1c        	dec	$1c                     ; 0x201c <__mulsf3+0x84e>
     bae: f0 03        	beq	$bb3 <__muldi3+0xa9>
     bb0: 4c 40 0b     	jmp	$b40 <__muldi3+0x36>
     bb3: e6 1b        	inc	$1b                     ; 0x201b <__mulsf3+0x84d>
     bb5: c6 1b        	dec	$1b                     ; 0x201b <__mulsf3+0x84d>
     bb7: f0 03        	beq	$bbc <__muldi3+0xb2>
     bb9: 4c 40 0b     	jmp	$b40 <__muldi3+0x36>
     bbc: e6 1a        	inc	$1a                     ; 0x201a <__mulsf3+0x84c>
     bbe: c6 1a        	dec	$1a                     ; 0x201a <__mulsf3+0x84c>
     bc0: f0 03        	beq	$bc5 <__muldi3+0xbb>
     bc2: 4c 40 0b     	jmp	$b40 <__muldi3+0x36>
     bc5: e6 19        	inc	$19                     ; 0x2019 <__mulsf3+0x84b>
     bc7: c6 19        	dec	$19                     ; 0x2019 <__mulsf3+0x84b>
     bc9: f0 03        	beq	$bce <__muldi3+0xc4>
     bcb: 4c 40 0b     	jmp	$b40 <__muldi3+0x36>
     bce: e6 18        	inc	$18                     ; 0x2018 <__mulsf3+0x84a>
     bd0: c6 18        	dec	$18                     ; 0x2018 <__mulsf3+0x84a>
     bd2: f0 03        	beq	$bd7 <__muldi3+0xcd>
     bd4: 4c 40 0b     	jmp	$b40 <__muldi3+0x36>
     bd7: 5a           	phy
     bd8: a4 51        	ldy	$51                     ; 0x2051 <__mulsf3+0x883>
     bda: 84 12        	sty	$12                     ; 0x2012 <__mulsf3+0x844>
     bdc: a4 52        	ldy	$52                     ; 0x2052 <__mulsf3+0x884>
     bde: 84 13        	sty	$13                     ; 0x2013 <__mulsf3+0x845>
     be0: a4 53        	ldy	$53                     ; 0x2053 <__mulsf3+0x885>
     be2: 84 14        	sty	$14                     ; 0x2014 <__mulsf3+0x846>
     be4: a4 54        	ldy	$54                     ; 0x2054 <__mulsf3+0x886>
     be6: 84 15        	sty	$15                     ; 0x2015 <__mulsf3+0x847>
     be8: a4 55        	ldy	$55                     ; 0x2055 <__mulsf3+0x887>
     bea: 84 16        	sty	$16                     ; 0x2016 <__mulsf3+0x848>
     bec: 7a           	ply
     bed: 85 17        	sta	$17                     ; 0x2017 <__mulsf3+0x849>
     bef: 98           	tya
     bf0: 60           	rts
     bf1: a0 00        	ldy	#$0
     bf3: a2 00        	ldx	#$0
     bf5: 64 51        	stz	$51                     ; 0x2051 <__mulsf3+0x883>
     bf7: 64 52        	stz	$52                     ; 0x2052 <__mulsf3+0x884>
     bf9: 64 53        	stz	$53                     ; 0x2053 <__mulsf3+0x885>
     bfb: 64 54        	stz	$54                     ; 0x2054 <__mulsf3+0x886>
     bfd: 64 55        	stz	$55                     ; 0x2055 <__mulsf3+0x887>
     bff: 98           	tya
     c00: 80 d5        	bra	$bd7 <__muldi3+0xcd>

00000c02 <__addsf3>:
     c02: 85 18        	sta	$18                     ; 0x2018 <__mulsf3+0x84a>
     c04: 86 19        	stx	$19                     ; 0x2019 <__mulsf3+0x84b>
     c06: a6 14        	ldx	$14                     ; 0x2014 <__mulsf3+0x846>
     c08: 86 1d        	stx	$1d                     ; 0x201d <__mulsf3+0x84f>
     c0a: a5 13        	lda	$13                     ; 0x2013 <__mulsf3+0x845>
     c0c: 29 7f        	and	#$7f
     c0e: a8           	tay
     c0f: 18           	clc
     c10: a5 18        	lda	$18                     ; 0x2018 <__mulsf3+0x84a>
     c12: 69 00        	adc	#$0
     c14: aa           	tax
     c15: a5 19        	lda	$19                     ; 0x2019 <__mulsf3+0x84b>
     c17: 69 00        	adc	#$0
     c19: 85 1c        	sta	$1c                     ; 0x201c <__mulsf3+0x84e>
     c1b: a5 12        	lda	$12                     ; 0x2012 <__mulsf3+0x844>
     c1d: 69 80        	adc	#$80
     c1f: 85 1e        	sta	$1e                     ; 0x201e <__mulsf3+0x850>
     c21: 84 1a        	sty	$1a                     ; 0x201a <__mulsf3+0x84c>
     c23: 98           	tya
     c24: 69 80        	adc	#$80
     c26: a8           	tay
     c27: a5 17        	lda	$17                     ; 0x2017 <__mulsf3+0x849>
     c29: 85 38        	sta	$38                     ; 0x2038 <__mulsf3+0x86a>
     c2b: a5 17        	lda	$17                     ; 0x2017 <__mulsf3+0x849>
     c2d: 29 7f        	and	#$7f
     c2f: 85 1b        	sta	$1b                     ; 0x201b <__mulsf3+0x84d>
     c31: 85 14        	sta	$14                     ; 0x2014 <__mulsf3+0x846>
     c33: c0 80        	cpy	#$80
     c35: d0 41        	bne	$c78 <__addsf3+0x76>
     c37: a4 1e        	ldy	$1e                     ; 0x201e <__mulsf3+0x850>
     c39: c0 80        	cpy	#$80
     c3b: d0 3b        	bne	$c78 <__addsf3+0x76>
     c3d: a5 16        	lda	$16                     ; 0x2016 <__mulsf3+0x848>
     c3f: a4 1c        	ldy	$1c                     ; 0x201c <__mulsf3+0x84e>
     c41: f0 03        	beq	$c46 <__addsf3+0x44>
     c43: 4c a5 0c     	jmp	$ca5 <__addsf3+0xa3>
     c46: e0 01        	cpx	#$1
     c48: 90 34        	bcc	$c7e <__addsf3+0x7c>
     c4a: 85 1c        	sta	$1c                     ; 0x201c <__mulsf3+0x84e>
     c4c: 18           	clc
     c4d: a5 1d        	lda	$1d                     ; 0x201d <__mulsf3+0x84f>
     c4f: 69 00        	adc	#$0
     c51: a8           	tay
     c52: a5 15        	lda	$15                     ; 0x2015 <__mulsf3+0x847>
     c54: 69 00        	adc	#$0
     c56: aa           	tax
     c57: a5 1c        	lda	$1c                     ; 0x201c <__mulsf3+0x84e>
     c59: 69 80        	adc	#$80
     c5b: 85 17        	sta	$17                     ; 0x2017 <__mulsf3+0x849>
     c5d: a5 1b        	lda	$1b                     ; 0x201b <__mulsf3+0x84d>
     c5f: 69 80        	adc	#$80
     c61: c9 80        	cmp	#$80
     c63: d0 31        	bne	$c96 <__addsf3+0x94>
     c65: a5 17        	lda	$17                     ; 0x2017 <__mulsf3+0x849>
     c67: c9 80        	cmp	#$80
     c69: d0 2b        	bne	$c96 <__addsf3+0x94>
     c6b: a5 16        	lda	$16                     ; 0x2016 <__mulsf3+0x848>
     c6d: e0 00        	cpx	#$0
     c6f: d0 45        	bne	$cb6 <__addsf3+0xb4>
     c71: c0 01        	cpy	#$1
     c73: 90 4e        	bcc	$cc3 <__addsf3+0xc1>
     c75: 4c 79 0d     	jmp	$d79 <__addsf3+0x177>
     c78: c0 80        	cpy	#$80
     c7a: a5 16        	lda	$16                     ; 0x2016 <__mulsf3+0x848>
     c7c: b0 cc        	bcs	$c4a <__addsf3+0x48>
     c7e: a6 1a        	ldx	$1a                     ; 0x201a <__mulsf3+0x84c>
     c80: e0 7f        	cpx	#$7f
     c82: d0 1b        	bne	$c9f <__addsf3+0x9d>
     c84: a6 12        	ldx	$12                     ; 0x2012 <__mulsf3+0x844>
     c86: e0 80        	cpx	#$80
     c88: d0 24        	bne	$cae <__addsf3+0xac>
     c8a: a6 19        	ldx	$19                     ; 0x2019 <__mulsf3+0x84b>
     c8c: d0 2f        	bne	$cbd <__addsf3+0xbb>
     c8e: a6 18        	ldx	$18                     ; 0x2018 <__mulsf3+0x84a>
     c90: e0 01        	cpx	#$1
     c92: 90 2f        	bcc	$cc3 <__addsf3+0xc1>
     c94: 80 4a        	bra	$ce0 <__addsf3+0xde>
     c96: c9 80        	cmp	#$80
     c98: a5 16        	lda	$16                     ; 0x2016 <__mulsf3+0x848>
     c9a: 90 27        	bcc	$cc3 <__addsf3+0xc1>
     c9c: 4c 79 0d     	jmp	$d79 <__addsf3+0x177>
     c9f: e0 7f        	cpx	#$7f
     ca1: 90 20        	bcc	$cc3 <__addsf3+0xc1>
     ca3: 80 3b        	bra	$ce0 <__addsf3+0xde>
     ca5: a4 1c        	ldy	$1c                     ; 0x201c <__mulsf3+0x84e>
     ca7: c0 00        	cpy	#$0
     ca9: 90 d3        	bcc	$c7e <__addsf3+0x7c>
     cab: 4c 4a 0c     	jmp	$c4a <__addsf3+0x48>
     cae: a6 12        	ldx	$12                     ; 0x2012 <__mulsf3+0x844>
     cb0: e0 80        	cpx	#$80
     cb2: 90 0f        	bcc	$cc3 <__addsf3+0xc1>
     cb4: 80 2a        	bra	$ce0 <__addsf3+0xde>
     cb6: e0 00        	cpx	#$0
     cb8: 90 09        	bcc	$cc3 <__addsf3+0xc1>
     cba: 4c 79 0d     	jmp	$d79 <__addsf3+0x177>
     cbd: a6 19        	ldx	$19                     ; 0x2019 <__mulsf3+0x84b>
     cbf: e0 00        	cpx	#$0
     cc1: b0 1d        	bcs	$ce0 <__addsf3+0xde>
     cc3: a6 1b        	ldx	$1b                     ; 0x201b <__mulsf3+0x84d>
     cc5: e0 7f        	cpx	#$7f
     cc7: d0 20        	bne	$ce9 <__addsf3+0xe7>
     cc9: c9 80        	cmp	#$80
     ccb: f0 03        	beq	$cd0 <__addsf3+0xce>
     ccd: 4c b2 0d     	jmp	$db2 <__addsf3+0x1b0>
     cd0: a6 15        	ldx	$15                     ; 0x2015 <__mulsf3+0x847>
     cd2: f0 03        	beq	$cd7 <__addsf3+0xd5>
     cd4: 4c 05 14     	jmp	$1405 <__addsf3+0x803>
     cd7: a6 1d        	ldx	$1d                     ; 0x201d <__mulsf3+0x84f>
     cd9: e0 01        	cpx	#$1
     cdb: 90 13        	bcc	$cf0 <__addsf3+0xee>
     cdd: 4c b9 0d     	jmp	$db9 <__addsf3+0x1b7>
     ce0: a5 12        	lda	$12                     ; 0x2012 <__mulsf3+0x844>
     ce2: 09 40        	ora	#$40
     ce4: 85 12        	sta	$12                     ; 0x2012 <__mulsf3+0x844>
     ce6: 4c 7b 17     	jmp	$177b <__addsf3+0xb79>
     ce9: e0 7f        	cpx	#$7f
     ceb: 90 03        	bcc	$cf0 <__addsf3+0xee>
     ced: 4c b9 0d     	jmp	$db9 <__addsf3+0x1b7>
     cf0: a6 1a        	ldx	$1a                     ; 0x201a <__mulsf3+0x84c>
     cf2: e0 7f        	cpx	#$7f
     cf4: d0 43        	bne	$d39 <__addsf3+0x137>
     cf6: a6 12        	ldx	$12                     ; 0x2012 <__mulsf3+0x844>
     cf8: e0 80        	cpx	#$80
     cfa: d0 3d        	bne	$d39 <__addsf3+0x137>
     cfc: a6 19        	ldx	$19                     ; 0x2019 <__mulsf3+0x84b>
     cfe: d0 39        	bne	$d39 <__addsf3+0x137>
     d00: a6 18        	ldx	$18                     ; 0x2018 <__mulsf3+0x84a>
     d02: d0 35        	bne	$d39 <__addsf3+0x137>
     d04: a5 38        	lda	$38                     ; 0x2038 <__mulsf3+0x86a>
     d06: 45 13        	eor	$13                     ; 0x2013 <__mulsf3+0x845>
     d08: c9 80        	cmp	#$80
     d0a: f0 03        	beq	$d0f <__addsf3+0x10d>
     d0c: 4c 7b 17     	jmp	$177b <__addsf3+0xb79>
     d0f: a5 16        	lda	$16                     ; 0x2016 <__mulsf3+0x848>
     d11: 45 12        	eor	$12                     ; 0x2012 <__mulsf3+0x844>
     d13: f0 03        	beq	$d18 <__addsf3+0x116>
     d15: 4c 7b 17     	jmp	$177b <__addsf3+0xb79>
     d18: a5 15        	lda	$15                     ; 0x2015 <__mulsf3+0x847>
     d1a: 45 19        	eor	$19                     ; 0x2019 <__mulsf3+0x84b>
     d1c: f0 03        	beq	$d21 <__addsf3+0x11f>
     d1e: 4c 7b 17     	jmp	$177b <__addsf3+0xb79>
     d21: a5 1d        	lda	$1d                     ; 0x201d <__mulsf3+0x84f>
     d23: 45 18        	eor	$18                     ; 0x2018 <__mulsf3+0x84a>
     d25: f0 03        	beq	$d2a <__addsf3+0x128>
     d27: 4c 7b 17     	jmp	$177b <__addsf3+0xb79>
     d2a: a2 c0        	ldx	#$c0
     d2c: a0 7f        	ldy	#$7f
     d2e: 64 18        	stz	$18                     ; 0x2018 <__mulsf3+0x84a>
     d30: 64 19        	stz	$19                     ; 0x2019 <__mulsf3+0x84b>
     d32: 86 12        	stx	$12                     ; 0x2012 <__mulsf3+0x844>
     d34: 84 13        	sty	$13                     ; 0x2013 <__mulsf3+0x845>
     d36: 4c 7b 17     	jmp	$177b <__addsf3+0xb79>
     d39: a6 1b        	ldx	$1b                     ; 0x201b <__mulsf3+0x84d>
     d3b: e0 7f        	cpx	#$7f
     d3d: d0 0f        	bne	$d4e <__addsf3+0x14c>
     d3f: c9 80        	cmp	#$80
     d41: d0 0b        	bne	$d4e <__addsf3+0x14c>
     d43: a6 15        	ldx	$15                     ; 0x2015 <__mulsf3+0x847>
     d45: d0 07        	bne	$d4e <__addsf3+0x14c>
     d47: a6 1d        	ldx	$1d                     ; 0x201d <__mulsf3+0x84f>
     d49: d0 03        	bne	$d4e <__addsf3+0x14c>
     d4b: 4c bb 0d     	jmp	$dbb <__addsf3+0x1b9>
     d4e: a6 1a        	ldx	$1a                     ; 0x201a <__mulsf3+0x84c>
     d50: d0 0f        	bne	$d61 <__addsf3+0x15f>
     d52: a6 12        	ldx	$12                     ; 0x2012 <__mulsf3+0x844>
     d54: d0 0b        	bne	$d61 <__addsf3+0x15f>
     d56: a6 19        	ldx	$19                     ; 0x2019 <__mulsf3+0x84b>
     d58: d0 07        	bne	$d61 <__addsf3+0x15f>
     d5a: a6 18        	ldx	$18                     ; 0x2018 <__mulsf3+0x84a>
     d5c: d0 03        	bne	$d61 <__addsf3+0x15f>
     d5e: 4c 8c 17     	jmp	$178c <__addsf3+0xb8a>
     d61: a6 1d        	ldx	$1d                     ; 0x201d <__mulsf3+0x84f>
     d63: 86 16        	stx	$16                     ; 0x2016 <__mulsf3+0x848>
     d65: a6 15        	ldx	$15                     ; 0x2015 <__mulsf3+0x847>
     d67: a4 14        	ldy	$14                     ; 0x2014 <__mulsf3+0x846>
     d69: d0 0e        	bne	$d79 <__addsf3+0x177>
     d6b: a8           	tay
     d6c: d0 0b        	bne	$d79 <__addsf3+0x177>
     d6e: e0 00        	cpx	#$0
     d70: d0 07        	bne	$d79 <__addsf3+0x177>
     d72: a6 16        	ldx	$16                     ; 0x2016 <__mulsf3+0x848>
     d74: d0 03        	bne	$d79 <__addsf3+0x177>
     d76: 4c 7b 17     	jmp	$177b <__addsf3+0xb79>
     d79: a6 1a        	ldx	$1a                     ; 0x201a <__mulsf3+0x84c>
     d7b: e4 14        	cpx	$14                     ; 0x2014 <__mulsf3+0x846>
     d7d: d0 51        	bne	$dd0 <__addsf3+0x1ce>
     d7f: a6 12        	ldx	$12                     ; 0x2012 <__mulsf3+0x844>
     d81: 85 14        	sta	$14                     ; 0x2014 <__mulsf3+0x846>
     d83: e4 14        	cpx	$14                     ; 0x2014 <__mulsf3+0x846>
     d85: d0 45        	bne	$dcc <__addsf3+0x1ca>
     d87: a6 19        	ldx	$19                     ; 0x2019 <__mulsf3+0x84b>
     d89: e4 15        	cpx	$15                     ; 0x2015 <__mulsf3+0x847>
     d8b: f0 03        	beq	$d90 <__addsf3+0x18e>
     d8d: 4c 11 14     	jmp	$1411 <__addsf3+0x80f>
     d90: a6 18        	ldx	$18                     ; 0x2018 <__mulsf3+0x84a>
     d92: e4 1d        	cpx	$1d                     ; 0x201d <__mulsf3+0x84f>
     d94: b0 3e        	bcs	$dd4 <__addsf3+0x1d2>
     d96: a6 18        	ldx	$18                     ; 0x2018 <__mulsf3+0x84a>
     d98: 86 1c        	stx	$1c                     ; 0x201c <__mulsf3+0x84e>
     d9a: a6 19        	ldx	$19                     ; 0x2019 <__mulsf3+0x84b>
     d9c: 86 16        	stx	$16                     ; 0x2016 <__mulsf3+0x848>
     d9e: a6 12        	ldx	$12                     ; 0x2012 <__mulsf3+0x844>
     da0: 86 14        	stx	$14                     ; 0x2014 <__mulsf3+0x846>
     da2: a6 13        	ldx	$13                     ; 0x2013 <__mulsf3+0x845>
     da4: 86 17        	stx	$17                     ; 0x2017 <__mulsf3+0x849>
     da6: a6 1d        	ldx	$1d                     ; 0x201d <__mulsf3+0x84f>
     da8: 86 18        	stx	$18                     ; 0x2018 <__mulsf3+0x84a>
     daa: a6 15        	ldx	$15                     ; 0x2015 <__mulsf3+0x847>
     dac: 86 19        	stx	$19                     ; 0x2019 <__mulsf3+0x84b>
     dae: a6 38        	ldx	$38                     ; 0x2038 <__mulsf3+0x86a>
     db0: 80 34        	bra	$de6 <__addsf3+0x1e4>
     db2: c9 80        	cmp	#$80
     db4: b0 03        	bcs	$db9 <__addsf3+0x1b7>
     db6: 4c f0 0c     	jmp	$cf0 <__addsf3+0xee>
     db9: 09 40        	ora	#$40
     dbb: a6 1d        	ldx	$1d                     ; 0x201d <__mulsf3+0x84f>
     dbd: 86 18        	stx	$18                     ; 0x2018 <__mulsf3+0x84a>
     dbf: a6 15        	ldx	$15                     ; 0x2015 <__mulsf3+0x847>
     dc1: 86 19        	stx	$19                     ; 0x2019 <__mulsf3+0x84b>
     dc3: 85 12        	sta	$12                     ; 0x2012 <__mulsf3+0x844>
     dc5: a6 38        	ldx	$38                     ; 0x2038 <__mulsf3+0x86a>
     dc7: 86 13        	stx	$13                     ; 0x2013 <__mulsf3+0x845>
     dc9: 4c 7b 17     	jmp	$177b <__addsf3+0xb79>
     dcc: a6 12        	ldx	$12                     ; 0x2012 <__mulsf3+0x844>
     dce: 85 14        	sta	$14                     ; 0x2014 <__mulsf3+0x846>
     dd0: e4 14        	cpx	$14                     ; 0x2014 <__mulsf3+0x846>
     dd2: 90 c2        	bcc	$d96 <__addsf3+0x194>
     dd4: a6 1d        	ldx	$1d                     ; 0x201d <__mulsf3+0x84f>
     dd6: 86 1c        	stx	$1c                     ; 0x201c <__mulsf3+0x84e>
     dd8: a6 15        	ldx	$15                     ; 0x2015 <__mulsf3+0x847>
     dda: 86 16        	stx	$16                     ; 0x2016 <__mulsf3+0x848>
     ddc: 85 14        	sta	$14                     ; 0x2014 <__mulsf3+0x846>
     dde: a6 38        	ldx	$38                     ; 0x2038 <__mulsf3+0x86a>
     de0: 86 17        	stx	$17                     ; 0x2017 <__mulsf3+0x849>
     de2: a5 12        	lda	$12                     ; 0x2012 <__mulsf3+0x844>
     de4: a6 13        	ldx	$13                     ; 0x2013 <__mulsf3+0x845>
     de6: 64 1b        	stz	$1b                     ; 0x201b <__mulsf3+0x84d>
     de8: 85 1a        	sta	$1a                     ; 0x201a <__mulsf3+0x84c>
     dea: 0a           	asl
     deb: 8a           	txa
     dec: 85 3c        	sta	$3c                     ; 0x203c <__mulsf3+0x86e>
     dee: 86 12        	stx	$12                     ; 0x2012 <__mulsf3+0x844>
     df0: 26 12        	rol	$12                     ; 0x2012 <__mulsf3+0x844>
     df2: a6 14        	ldx	$14                     ; 0x2014 <__mulsf3+0x846>
     df4: 86 39        	stx	$39                     ; 0x2039 <__mulsf3+0x86b>
     df6: a5 14        	lda	$14                     ; 0x2014 <__mulsf3+0x846>
     df8: 0a           	asl
     df9: a5 1a        	lda	$1a                     ; 0x201a <__mulsf3+0x84c>
     dfb: 26 17        	rol	$17                     ; 0x2017 <__mulsf3+0x849>
     dfd: 29 7f        	and	#$7f
     dff: a6 12        	ldx	$12                     ; 0x2012 <__mulsf3+0x844>
     e01: f0 0f        	beq	$e12 <__addsf3+0x210>
     e03: 85 3a        	sta	$3a                     ; 0x203a <__mulsf3+0x86c>
     e05: a6 12        	ldx	$12                     ; 0x2012 <__mulsf3+0x844>
     e07: 86 3e        	stx	$3e                     ; 0x203e <__mulsf3+0x870>
     e09: a2 00        	ldx	#$0
     e0b: 86 3b        	stx	$3b                     ; 0x203b <__mulsf3+0x86d>
     e0d: 86 3f        	stx	$3f                     ; 0x203f <__mulsf3+0x871>
     e0f: 4c 13 10     	jmp	$1013 <__addsf3+0x411>
     e12: aa           	tax
     e13: 4a           	lsr
     e14: 85 12        	sta	$12                     ; 0x2012 <__mulsf3+0x844>
     e16: a5 19        	lda	$19                     ; 0x2019 <__mulsf3+0x84b>
     e18: 6a           	ror
     e19: a8           	tay
     e1a: a5 18        	lda	$18                     ; 0x2018 <__mulsf3+0x84a>
     e1c: 6a           	ror
     e1d: 05 18        	ora	$18                     ; 0x2018 <__mulsf3+0x84a>
     e1f: 85 1b        	sta	$1b                     ; 0x201b <__mulsf3+0x84d>
     e21: 98           	tya
     e22: 05 19        	ora	$19                     ; 0x2019 <__mulsf3+0x84b>
     e24: 85 15        	sta	$15                     ; 0x2015 <__mulsf3+0x847>
     e26: 8a           	txa
     e27: 05 12        	ora	$12                     ; 0x2012 <__mulsf3+0x844>
     e29: a8           	tay
     e2a: 4a           	lsr
     e2b: 5a           	phy
     e2c: a4 15        	ldy	$15                     ; 0x2015 <__mulsf3+0x847>
     e2e: 84 12        	sty	$12                     ; 0x2012 <__mulsf3+0x844>
     e30: 66 12        	ror	$12                     ; 0x2012 <__mulsf3+0x844>
     e32: a4 1b        	ldy	$1b                     ; 0x201b <__mulsf3+0x84d>
     e34: 84 14        	sty	$14                     ; 0x2014 <__mulsf3+0x846>
     e36: 7a           	ply
     e37: 66 14        	ror	$14                     ; 0x2014 <__mulsf3+0x846>
     e39: 4a           	lsr
     e3a: 85 1a        	sta	$1a                     ; 0x201a <__mulsf3+0x84c>
     e3c: 66 12        	ror	$12                     ; 0x2012 <__mulsf3+0x844>
     e3e: 66 14        	ror	$14                     ; 0x2014 <__mulsf3+0x846>
     e40: a5 1b        	lda	$1b                     ; 0x201b <__mulsf3+0x84d>
     e42: 05 14        	ora	$14                     ; 0x2014 <__mulsf3+0x846>
     e44: 85 1b        	sta	$1b                     ; 0x201b <__mulsf3+0x84d>
     e46: a5 15        	lda	$15                     ; 0x2015 <__mulsf3+0x847>
     e48: 05 12        	ora	$12                     ; 0x2012 <__mulsf3+0x844>
     e4a: 85 15        	sta	$15                     ; 0x2015 <__mulsf3+0x847>
     e4c: 98           	tya
     e4d: 05 1a        	ora	$1a                     ; 0x201a <__mulsf3+0x84c>
     e4f: a8           	tay
     e50: 4a           	lsr
     e51: 5a           	phy
     e52: a4 15        	ldy	$15                     ; 0x2015 <__mulsf3+0x847>
     e54: 84 12        	sty	$12                     ; 0x2012 <__mulsf3+0x844>
     e56: 66 12        	ror	$12                     ; 0x2012 <__mulsf3+0x844>
     e58: a4 1b        	ldy	$1b                     ; 0x201b <__mulsf3+0x84d>
     e5a: 84 14        	sty	$14                     ; 0x2014 <__mulsf3+0x846>
     e5c: 7a           	ply
     e5d: 66 14        	ror	$14                     ; 0x2014 <__mulsf3+0x846>
     e5f: 4a           	lsr
     e60: 66 12        	ror	$12                     ; 0x2012 <__mulsf3+0x844>
     e62: 66 14        	ror	$14                     ; 0x2014 <__mulsf3+0x846>
     e64: 4a           	lsr
     e65: 66 12        	ror	$12                     ; 0x2012 <__mulsf3+0x844>
     e67: 66 14        	ror	$14                     ; 0x2014 <__mulsf3+0x846>
     e69: 4a           	lsr
     e6a: 85 1a        	sta	$1a                     ; 0x201a <__mulsf3+0x84c>
     e6c: 66 12        	ror	$12                     ; 0x2012 <__mulsf3+0x844>
     e6e: 66 14        	ror	$14                     ; 0x2014 <__mulsf3+0x846>
     e70: a5 1b        	lda	$1b                     ; 0x201b <__mulsf3+0x84d>
     e72: 05 14        	ora	$14                     ; 0x2014 <__mulsf3+0x846>
     e74: 85 14        	sta	$14                     ; 0x2014 <__mulsf3+0x846>
     e76: a5 15        	lda	$15                     ; 0x2015 <__mulsf3+0x847>
     e78: 05 12        	ora	$12                     ; 0x2012 <__mulsf3+0x844>
     e7a: 85 15        	sta	$15                     ; 0x2015 <__mulsf3+0x847>
     e7c: 98           	tya
     e7d: 05 1a        	ora	$1a                     ; 0x201a <__mulsf3+0x84c>
     e7f: a8           	tay
     e80: a5 14        	lda	$14                     ; 0x2014 <__mulsf3+0x846>
     e82: 05 15        	ora	$15                     ; 0x2015 <__mulsf3+0x847>
     e84: 85 14        	sta	$14                     ; 0x2014 <__mulsf3+0x846>
     e86: 84 12        	sty	$12                     ; 0x2012 <__mulsf3+0x844>
     e88: a5 15        	lda	$15                     ; 0x2015 <__mulsf3+0x847>
     e8a: 05 12        	ora	$12                     ; 0x2012 <__mulsf3+0x844>
     e8c: 85 1b        	sta	$1b                     ; 0x201b <__mulsf3+0x84d>
     e8e: a5 14        	lda	$14                     ; 0x2014 <__mulsf3+0x846>
     e90: 05 12        	ora	$12                     ; 0x2012 <__mulsf3+0x844>
     e92: 85 15        	sta	$15                     ; 0x2015 <__mulsf3+0x847>
     e94: 84 1a        	sty	$1a                     ; 0x201a <__mulsf3+0x84c>
     e96: 46 1a        	lsr	$1a                     ; 0x201a <__mulsf3+0x84c>
     e98: 4a           	lsr
     e99: 29 55        	and	#$55
     e9b: 85 12        	sta	$12                     ; 0x2012 <__mulsf3+0x844>
     e9d: a5 1b        	lda	$1b                     ; 0x201b <__mulsf3+0x84d>
     e9f: 4a           	lsr
     ea0: 29 55        	and	#$55
     ea2: 85 14        	sta	$14                     ; 0x2014 <__mulsf3+0x846>
     ea4: a5 1a        	lda	$1a                     ; 0x201a <__mulsf3+0x84c>
     ea6: 29 55        	and	#$55
     ea8: 85 1a        	sta	$1a                     ; 0x201a <__mulsf3+0x84c>
     eaa: 38           	sec
     eab: a5 15        	lda	$15                     ; 0x2015 <__mulsf3+0x847>
     ead: e5 12        	sbc	$12                     ; 0x2012 <__mulsf3+0x844>
     eaf: 85 12        	sta	$12                     ; 0x2012 <__mulsf3+0x844>
     eb1: a5 1b        	lda	$1b                     ; 0x201b <__mulsf3+0x84d>
     eb3: e5 14        	sbc	$14                     ; 0x2014 <__mulsf3+0x846>
     eb5: 85 14        	sta	$14                     ; 0x2014 <__mulsf3+0x846>
     eb7: 98           	tya
     eb8: e5 1a        	sbc	$1a                     ; 0x201a <__mulsf3+0x84c>
     eba: 85 1a        	sta	$1a                     ; 0x201a <__mulsf3+0x84c>
     ebc: a9 00        	lda	#$0
     ebe: e9 00        	sbc	#$0
     ec0: a8           	tay
     ec1: a5 12        	lda	$12                     ; 0x2012 <__mulsf3+0x844>
     ec3: 85 15        	sta	$15                     ; 0x2015 <__mulsf3+0x847>
     ec5: 29 33        	and	#$33
     ec7: 85 12        	sta	$12                     ; 0x2012 <__mulsf3+0x844>
     ec9: a5 14        	lda	$14                     ; 0x2014 <__mulsf3+0x846>
     ecb: 85 1b        	sta	$1b                     ; 0x201b <__mulsf3+0x84d>
     ecd: 29 33        	and	#$33
     ecf: 85 14        	sta	$14                     ; 0x2014 <__mulsf3+0x846>
     ed1: a5 1a        	lda	$1a                     ; 0x201a <__mulsf3+0x84c>
     ed3: 85 1d        	sta	$1d                     ; 0x201d <__mulsf3+0x84f>
     ed5: 29 33        	and	#$33
     ed7: 85 1a        	sta	$1a                     ; 0x201a <__mulsf3+0x84c>
     ed9: 98           	tya
     eda: 4a           	lsr
     edb: 85 1e        	sta	$1e                     ; 0x201e <__mulsf3+0x850>
     edd: 46 1d        	lsr	$1d                     ; 0x201d <__mulsf3+0x84f>
     edf: 46 1b        	lsr	$1b                     ; 0x201b <__mulsf3+0x84d>
     ee1: a5 15        	lda	$15                     ; 0x2015 <__mulsf3+0x847>
     ee3: 4a           	lsr
     ee4: 46 1e        	lsr	$1e                     ; 0x201e <__mulsf3+0x850>
     ee6: 46 1d        	lsr	$1d                     ; 0x201d <__mulsf3+0x84f>
     ee8: 5a           	phy
     ee9: a4 1b        	ldy	$1b                     ; 0x201b <__mulsf3+0x84d>
     eeb: 84 15        	sty	$15                     ; 0x2015 <__mulsf3+0x847>
     eed: 7a           	ply
     eee: 46 15        	lsr	$15                     ; 0x2015 <__mulsf3+0x847>
     ef0: 4a           	lsr
     ef1: 29 33        	and	#$33
     ef3: 85 1f        	sta	$1f                     ; 0x201f <__mulsf3+0x851>
     ef5: a5 15        	lda	$15                     ; 0x2015 <__mulsf3+0x847>
     ef7: 29 33        	and	#$33
     ef9: 85 15        	sta	$15                     ; 0x2015 <__mulsf3+0x847>
     efb: a5 1d        	lda	$1d                     ; 0x201d <__mulsf3+0x84f>
     efd: 29 33        	and	#$33
     eff: 85 1d        	sta	$1d                     ; 0x201d <__mulsf3+0x84f>
     f01: a5 1e        	lda	$1e                     ; 0x201e <__mulsf3+0x850>
     f03: 29 33        	and	#$33
     f05: 85 1e        	sta	$1e                     ; 0x201e <__mulsf3+0x850>
     f07: 98           	tya
     f08: 29 33        	and	#$33
     f0a: 85 1b        	sta	$1b                     ; 0x201b <__mulsf3+0x84d>
     f0c: 18           	clc
     f0d: a5 1f        	lda	$1f                     ; 0x201f <__mulsf3+0x851>
     f0f: 65 12        	adc	$12                     ; 0x2012 <__mulsf3+0x844>
     f11: 85 12        	sta	$12                     ; 0x2012 <__mulsf3+0x844>
     f13: a5 15        	lda	$15                     ; 0x2015 <__mulsf3+0x847>
     f15: 65 14        	adc	$14                     ; 0x2014 <__mulsf3+0x846>
     f17: 85 14        	sta	$14                     ; 0x2014 <__mulsf3+0x846>
     f19: a5 1d        	lda	$1d                     ; 0x201d <__mulsf3+0x84f>
     f1b: 65 1a        	adc	$1a                     ; 0x201a <__mulsf3+0x84c>
     f1d: 85 1a        	sta	$1a                     ; 0x201a <__mulsf3+0x84c>
     f1f: a5 1e        	lda	$1e                     ; 0x201e <__mulsf3+0x850>
     f21: 65 1b        	adc	$1b                     ; 0x201b <__mulsf3+0x84d>
     f23: 85 1b        	sta	$1b                     ; 0x201b <__mulsf3+0x84d>
     f25: 4a           	lsr
     f26: a8           	tay
     f27: a5 1a        	lda	$1a                     ; 0x201a <__mulsf3+0x84c>
     f29: 6a           	ror
     f2a: 5a           	phy
     f2b: a4 14        	ldy	$14                     ; 0x2014 <__mulsf3+0x846>
     f2d: 84 1d        	sty	$1d                     ; 0x201d <__mulsf3+0x84f>
     f2f: 66 1d        	ror	$1d                     ; 0x201d <__mulsf3+0x84f>
     f31: a4 12        	ldy	$12                     ; 0x2012 <__mulsf3+0x844>
     f33: 84 15        	sty	$15                     ; 0x2015 <__mulsf3+0x847>
     f35: 66 15        	ror	$15                     ; 0x2015 <__mulsf3+0x847>
     f37: a4 15        	ldy	$15                     ; 0x2015 <__mulsf3+0x847>
     f39: 84 1e        	sty	$1e                     ; 0x201e <__mulsf3+0x850>
     f3b: 7a           	ply
     f3c: 84 15        	sty	$15                     ; 0x2015 <__mulsf3+0x847>
     f3e: 46 15        	lsr	$15                     ; 0x2015 <__mulsf3+0x847>
     f40: 6a           	ror
     f41: 66 1d        	ror	$1d                     ; 0x201d <__mulsf3+0x84f>
     f43: 66 1e        	ror	$1e                     ; 0x201e <__mulsf3+0x850>
     f45: 46 15        	lsr	$15                     ; 0x2015 <__mulsf3+0x847>
     f47: 6a           	ror
     f48: 66 1d        	ror	$1d                     ; 0x201d <__mulsf3+0x84f>
     f4a: 66 1e        	ror	$1e                     ; 0x201e <__mulsf3+0x850>
     f4c: 46 15        	lsr	$15                     ; 0x2015 <__mulsf3+0x847>
     f4e: 6a           	ror
     f4f: 85 1f        	sta	$1f                     ; 0x201f <__mulsf3+0x851>
     f51: a4 1d        	ldy	$1d                     ; 0x201d <__mulsf3+0x84f>
     f53: 84 22        	sty	$22                     ; 0x2022 <__mulsf3+0x854>
     f55: 66 22        	ror	$22                     ; 0x2022 <__mulsf3+0x854>
     f57: a5 1e        	lda	$1e                     ; 0x201e <__mulsf3+0x850>
     f59: 6a           	ror
     f5a: 18           	clc
     f5b: 65 12        	adc	$12                     ; 0x2012 <__mulsf3+0x844>
     f5d: 85 12        	sta	$12                     ; 0x2012 <__mulsf3+0x844>
     f5f: a5 22        	lda	$22                     ; 0x2022 <__mulsf3+0x854>
     f61: 65 14        	adc	$14                     ; 0x2014 <__mulsf3+0x846>
     f63: a8           	tay
     f64: a5 1f        	lda	$1f                     ; 0x201f <__mulsf3+0x851>
     f66: 65 1a        	adc	$1a                     ; 0x201a <__mulsf3+0x84c>
     f68: 85 1a        	sta	$1a                     ; 0x201a <__mulsf3+0x84c>
     f6a: a5 15        	lda	$15                     ; 0x2015 <__mulsf3+0x847>
     f6c: 65 1b        	adc	$1b                     ; 0x201b <__mulsf3+0x84d>
     f6e: 85 15        	sta	$15                     ; 0x2015 <__mulsf3+0x847>
     f70: a5 12        	lda	$12                     ; 0x2012 <__mulsf3+0x844>
     f72: 29 0f        	and	#$f
     f74: 85 12        	sta	$12                     ; 0x2012 <__mulsf3+0x844>
     f76: 85 1b        	sta	$1b                     ; 0x201b <__mulsf3+0x84d>
     f78: 98           	tya
     f79: 29 0f        	and	#$f
     f7b: 85 14        	sta	$14                     ; 0x2014 <__mulsf3+0x846>
     f7d: a8           	tay
     f7e: a5 1a        	lda	$1a                     ; 0x201a <__mulsf3+0x84c>
     f80: 29 0f        	and	#$f
     f82: 85 1a        	sta	$1a                     ; 0x201a <__mulsf3+0x84c>
     f84: 85 1d        	sta	$1d                     ; 0x201d <__mulsf3+0x84f>
     f86: a5 15        	lda	$15                     ; 0x2015 <__mulsf3+0x847>
     f88: 29 0f        	and	#$f
     f8a: 85 15        	sta	$15                     ; 0x2015 <__mulsf3+0x847>
     f8c: 18           	clc
     f8d: a5 1b        	lda	$1b                     ; 0x201b <__mulsf3+0x84d>
     f8f: 69 00        	adc	#$0
     f91: 85 1b        	sta	$1b                     ; 0x201b <__mulsf3+0x84d>
     f93: 85 1f        	sta	$1f                     ; 0x201f <__mulsf3+0x851>
     f95: 98           	tya
     f96: 65 12        	adc	$12                     ; 0x2012 <__mulsf3+0x844>
     f98: 85 12        	sta	$12                     ; 0x2012 <__mulsf3+0x844>
     f9a: 85 1e        	sta	$1e                     ; 0x201e <__mulsf3+0x850>
     f9c: a5 1d        	lda	$1d                     ; 0x201d <__mulsf3+0x84f>
     f9e: 65 14        	adc	$14                     ; 0x2014 <__mulsf3+0x846>
     fa0: 85 14        	sta	$14                     ; 0x2014 <__mulsf3+0x846>
     fa2: a5 15        	lda	$15                     ; 0x2015 <__mulsf3+0x847>
     fa4: 65 1a        	adc	$1a                     ; 0x201a <__mulsf3+0x84c>
     fa6: a8           	tay
     fa7: 18           	clc
     fa8: a5 1f        	lda	$1f                     ; 0x201f <__mulsf3+0x851>
     faa: 69 00        	adc	#$0
     fac: a5 1e        	lda	$1e                     ; 0x201e <__mulsf3+0x850>
     fae: 69 00        	adc	#$0
     fb0: a5 14        	lda	$14                     ; 0x2014 <__mulsf3+0x846>
     fb2: 65 1b        	adc	$1b                     ; 0x201b <__mulsf3+0x84d>
     fb4: 98           	tya
     fb5: 65 12        	adc	$12                     ; 0x2012 <__mulsf3+0x844>
     fb7: 85 12        	sta	$12                     ; 0x2012 <__mulsf3+0x844>
     fb9: a9 20        	lda	#$20
     fbb: 38           	sec
     fbc: e5 12        	sbc	$12                     ; 0x2012 <__mulsf3+0x844>
     fbe: a8           	tay
     fbf: a9 00        	lda	#$0
     fc1: e9 00        	sbc	#$0
     fc3: 85 36        	sta	$36                     ; 0x2036 <__mulsf3+0x868>
     fc5: 98           	tya
     fc6: 84 37        	sty	$37                     ; 0x2037 <__mulsf3+0x869>
     fc8: 18           	clc
     fc9: 69 f8        	adc	#$f8
     fcb: 85 14        	sta	$14                     ; 0x2014 <__mulsf3+0x846>
     fcd: 86 12        	stx	$12                     ; 0x2012 <__mulsf3+0x844>
     fcf: a6 13        	ldx	$13                     ; 0x2013 <__mulsf3+0x845>
     fd1: 86 3d        	stx	$3d                     ; 0x203d <__mulsf3+0x86f>
     fd3: 64 13        	stz	$13                     ; 0x2013 <__mulsf3+0x845>
     fd5: a6 19        	ldx	$19                     ; 0x2019 <__mulsf3+0x84b>
     fd7: a4 17        	ldy	$17                     ; 0x2017 <__mulsf3+0x849>
     fd9: 84 40        	sty	$40                     ; 0x2040 <__mulsf3+0x872>
     fdb: a5 18        	lda	$18                     ; 0x2018 <__mulsf3+0x84a>
     fdd: a4 1c        	ldy	$1c                     ; 0x201c <__mulsf3+0x84e>
     fdf: 84 41        	sty	$41                     ; 0x2041 <__mulsf3+0x873>
     fe1: a4 16        	ldy	$16                     ; 0x2016 <__mulsf3+0x848>
     fe3: 84 42        	sty	$42                     ; 0x2042 <__mulsf3+0x874>
     fe5: 20 6c 0a     	jsr	$a6c <__ashlsi3>
     fe8: a4 42        	ldy	$42                     ; 0x2042 <__mulsf3+0x874>
     fea: 84 16        	sty	$16                     ; 0x2016 <__mulsf3+0x848>
     fec: a4 41        	ldy	$41                     ; 0x2041 <__mulsf3+0x873>
     fee: 84 1c        	sty	$1c                     ; 0x201c <__mulsf3+0x84e>
     ff0: 85 18        	sta	$18                     ; 0x2018 <__mulsf3+0x84a>
     ff2: a4 40        	ldy	$40                     ; 0x2040 <__mulsf3+0x872>
     ff4: 84 17        	sty	$17                     ; 0x2017 <__mulsf3+0x849>
     ff6: 86 19        	stx	$19                     ; 0x2019 <__mulsf3+0x84b>
     ff8: a6 12        	ldx	$12                     ; 0x2012 <__mulsf3+0x844>
     ffa: 86 3a        	stx	$3a                     ; 0x203a <__mulsf3+0x86c>
     ffc: 64 1b        	stz	$1b                     ; 0x201b <__mulsf3+0x84d>
     ffe: a6 13        	ldx	$13                     ; 0x2013 <__mulsf3+0x845>
    1000: 86 3b        	stx	$3b                     ; 0x203b <__mulsf3+0x86d>
    1002: a6 3d        	ldx	$3d                     ; 0x203d <__mulsf3+0x86f>
    1004: 86 13        	stx	$13                     ; 0x2013 <__mulsf3+0x845>
    1006: a9 09        	lda	#$9
    1008: 38           	sec
    1009: e5 37        	sbc	$37                     ; 0x2037 <__mulsf3+0x869>
    100b: 85 3e        	sta	$3e                     ; 0x203e <__mulsf3+0x870>
    100d: a9 00        	lda	#$0
    100f: e5 36        	sbc	$36                     ; 0x2036 <__mulsf3+0x868>
    1011: 85 3f        	sta	$3f                     ; 0x203f <__mulsf3+0x871>
    1013: a5 39        	lda	$39                     ; 0x2039 <__mulsf3+0x86b>
    1015: 29 7f        	and	#$7f
    1017: a6 17        	ldx	$17                     ; 0x2017 <__mulsf3+0x849>
    1019: f0 0b        	beq	$1026 <__addsf3+0x424>
    101b: a6 17        	ldx	$17                     ; 0x2017 <__mulsf3+0x849>
    101d: 86 1a        	stx	$1a                     ; 0x201a <__mulsf3+0x84c>
    101f: 85 12        	sta	$12                     ; 0x2012 <__mulsf3+0x844>
    1021: a0 00        	ldy	#$0
    1023: 4c 17 12     	jmp	$1217 <__addsf3+0x615>
    1026: aa           	tax
    1027: 4a           	lsr
    1028: 85 12        	sta	$12                     ; 0x2012 <__mulsf3+0x844>
    102a: a5 16        	lda	$16                     ; 0x2016 <__mulsf3+0x848>
    102c: 6a           	ror
    102d: a8           	tay
    102e: a5 1c        	lda	$1c                     ; 0x201c <__mulsf3+0x84e>
    1030: 6a           	ror
    1031: 05 1c        	ora	$1c                     ; 0x201c <__mulsf3+0x84e>
    1033: 85 1a        	sta	$1a                     ; 0x201a <__mulsf3+0x84c>
    1035: 98           	tya
    1036: 05 16        	ora	$16                     ; 0x2016 <__mulsf3+0x848>
    1038: 85 15        	sta	$15                     ; 0x2015 <__mulsf3+0x847>
    103a: 8a           	txa
    103b: 05 12        	ora	$12                     ; 0x2012 <__mulsf3+0x844>
    103d: a8           	tay
    103e: 4a           	lsr
    103f: 5a           	phy
    1040: a4 15        	ldy	$15                     ; 0x2015 <__mulsf3+0x847>
    1042: 84 12        	sty	$12                     ; 0x2012 <__mulsf3+0x844>
    1044: 66 12        	ror	$12                     ; 0x2012 <__mulsf3+0x844>
    1046: a4 1a        	ldy	$1a                     ; 0x201a <__mulsf3+0x84c>
    1048: 84 14        	sty	$14                     ; 0x2014 <__mulsf3+0x846>
    104a: 7a           	ply
    104b: 66 14        	ror	$14                     ; 0x2014 <__mulsf3+0x846>
    104d: 4a           	lsr
    104e: 85 17        	sta	$17                     ; 0x2017 <__mulsf3+0x849>
    1050: 66 12        	ror	$12                     ; 0x2012 <__mulsf3+0x844>
    1052: 66 14        	ror	$14                     ; 0x2014 <__mulsf3+0x846>
    1054: a5 1a        	lda	$1a                     ; 0x201a <__mulsf3+0x84c>
    1056: 05 14        	ora	$14                     ; 0x2014 <__mulsf3+0x846>
    1058: 85 1a        	sta	$1a                     ; 0x201a <__mulsf3+0x84c>
    105a: a5 15        	lda	$15                     ; 0x2015 <__mulsf3+0x847>
    105c: 05 12        	ora	$12                     ; 0x2012 <__mulsf3+0x844>
    105e: 85 15        	sta	$15                     ; 0x2015 <__mulsf3+0x847>
    1060: 98           	tya
    1061: 05 17        	ora	$17                     ; 0x2017 <__mulsf3+0x849>
    1063: a8           	tay
    1064: 4a           	lsr
    1065: 5a           	phy
    1066: a4 15        	ldy	$15                     ; 0x2015 <__mulsf3+0x847>
    1068: 84 12        	sty	$12                     ; 0x2012 <__mulsf3+0x844>
    106a: 66 12        	ror	$12                     ; 0x2012 <__mulsf3+0x844>
    106c: a4 1a        	ldy	$1a                     ; 0x201a <__mulsf3+0x84c>
    106e: 84 14        	sty	$14                     ; 0x2014 <__mulsf3+0x846>
    1070: 7a           	ply
    1071: 66 14        	ror	$14                     ; 0x2014 <__mulsf3+0x846>
    1073: 4a           	lsr
    1074: 66 12        	ror	$12                     ; 0x2012 <__mulsf3+0x844>
    1076: 66 14        	ror	$14                     ; 0x2014 <__mulsf3+0x846>
    1078: 4a           	lsr
    1079: 66 12        	ror	$12                     ; 0x2012 <__mulsf3+0x844>
    107b: 66 14        	ror	$14                     ; 0x2014 <__mulsf3+0x846>
    107d: 4a           	lsr
    107e: 85 17        	sta	$17                     ; 0x2017 <__mulsf3+0x849>
    1080: 66 12        	ror	$12                     ; 0x2012 <__mulsf3+0x844>
    1082: 66 14        	ror	$14                     ; 0x2014 <__mulsf3+0x846>
    1084: a5 1a        	lda	$1a                     ; 0x201a <__mulsf3+0x84c>
    1086: 05 14        	ora	$14                     ; 0x2014 <__mulsf3+0x846>
    1088: 85 14        	sta	$14                     ; 0x2014 <__mulsf3+0x846>
    108a: a5 15        	lda	$15                     ; 0x2015 <__mulsf3+0x847>
    108c: 05 12        	ora	$12                     ; 0x2012 <__mulsf3+0x844>
    108e: 85 15        	sta	$15                     ; 0x2015 <__mulsf3+0x847>
    1090: 98           	tya
    1091: 05 17        	ora	$17                     ; 0x2017 <__mulsf3+0x849>
    1093: a8           	tay
    1094: a5 14        	lda	$14                     ; 0x2014 <__mulsf3+0x846>
    1096: 05 15        	ora	$15                     ; 0x2015 <__mulsf3+0x847>
    1098: 85 14        	sta	$14                     ; 0x2014 <__mulsf3+0x846>
    109a: 84 12        	sty	$12                     ; 0x2012 <__mulsf3+0x844>
    109c: a5 15        	lda	$15                     ; 0x2015 <__mulsf3+0x847>
    109e: 05 12        	ora	$12                     ; 0x2012 <__mulsf3+0x844>
    10a0: 85 1a        	sta	$1a                     ; 0x201a <__mulsf3+0x84c>
    10a2: a5 14        	lda	$14                     ; 0x2014 <__mulsf3+0x846>
    10a4: 05 12        	ora	$12                     ; 0x2012 <__mulsf3+0x844>
    10a6: 85 15        	sta	$15                     ; 0x2015 <__mulsf3+0x847>
    10a8: 84 17        	sty	$17                     ; 0x2017 <__mulsf3+0x849>
    10aa: 46 17        	lsr	$17                     ; 0x2017 <__mulsf3+0x849>
    10ac: 4a           	lsr
    10ad: 29 55        	and	#$55
    10af: 85 12        	sta	$12                     ; 0x2012 <__mulsf3+0x844>
    10b1: a5 1a        	lda	$1a                     ; 0x201a <__mulsf3+0x84c>
    10b3: 4a           	lsr
    10b4: 29 55        	and	#$55
    10b6: 85 14        	sta	$14                     ; 0x2014 <__mulsf3+0x846>
    10b8: a5 17        	lda	$17                     ; 0x2017 <__mulsf3+0x849>
    10ba: 29 55        	and	#$55
    10bc: 85 17        	sta	$17                     ; 0x2017 <__mulsf3+0x849>
    10be: 38           	sec
    10bf: a5 15        	lda	$15                     ; 0x2015 <__mulsf3+0x847>
    10c1: e5 12        	sbc	$12                     ; 0x2012 <__mulsf3+0x844>
    10c3: 85 12        	sta	$12                     ; 0x2012 <__mulsf3+0x844>
    10c5: a5 1a        	lda	$1a                     ; 0x201a <__mulsf3+0x84c>
    10c7: e5 14        	sbc	$14                     ; 0x2014 <__mulsf3+0x846>
    10c9: 85 14        	sta	$14                     ; 0x2014 <__mulsf3+0x846>
    10cb: 98           	tya
    10cc: e5 17        	sbc	$17                     ; 0x2017 <__mulsf3+0x849>
    10ce: 85 17        	sta	$17                     ; 0x2017 <__mulsf3+0x849>
    10d0: a9 00        	lda	#$0
    10d2: e9 00        	sbc	#$0
    10d4: a8           	tay
    10d5: a5 12        	lda	$12                     ; 0x2012 <__mulsf3+0x844>
    10d7: 85 15        	sta	$15                     ; 0x2015 <__mulsf3+0x847>
    10d9: 29 33        	and	#$33
    10db: 85 12        	sta	$12                     ; 0x2012 <__mulsf3+0x844>
    10dd: a5 14        	lda	$14                     ; 0x2014 <__mulsf3+0x846>
    10df: 85 1a        	sta	$1a                     ; 0x201a <__mulsf3+0x84c>
    10e1: 29 33        	and	#$33
    10e3: 85 14        	sta	$14                     ; 0x2014 <__mulsf3+0x846>
    10e5: a5 17        	lda	$17                     ; 0x2017 <__mulsf3+0x849>
    10e7: 85 1b        	sta	$1b                     ; 0x201b <__mulsf3+0x84d>
    10e9: 29 33        	and	#$33
    10eb: 85 17        	sta	$17                     ; 0x2017 <__mulsf3+0x849>
    10ed: 98           	tya
    10ee: 4a           	lsr
    10ef: 85 1d        	sta	$1d                     ; 0x201d <__mulsf3+0x84f>
    10f1: 46 1b        	lsr	$1b                     ; 0x201b <__mulsf3+0x84d>
    10f3: 46 1a        	lsr	$1a                     ; 0x201a <__mulsf3+0x84c>
    10f5: a5 15        	lda	$15                     ; 0x2015 <__mulsf3+0x847>
    10f7: 4a           	lsr
    10f8: 46 1d        	lsr	$1d                     ; 0x201d <__mulsf3+0x84f>
    10fa: 46 1b        	lsr	$1b                     ; 0x201b <__mulsf3+0x84d>
    10fc: 5a           	phy
    10fd: a4 1a        	ldy	$1a                     ; 0x201a <__mulsf3+0x84c>
    10ff: 84 15        	sty	$15                     ; 0x2015 <__mulsf3+0x847>
    1101: 7a           	ply
    1102: 46 15        	lsr	$15                     ; 0x2015 <__mulsf3+0x847>
    1104: 4a           	lsr
    1105: 29 33        	and	#$33
    1107: 85 1e        	sta	$1e                     ; 0x201e <__mulsf3+0x850>
    1109: a5 15        	lda	$15                     ; 0x2015 <__mulsf3+0x847>
    110b: 29 33        	and	#$33
    110d: 85 15        	sta	$15                     ; 0x2015 <__mulsf3+0x847>
    110f: a5 1b        	lda	$1b                     ; 0x201b <__mulsf3+0x84d>
    1111: 29 33        	and	#$33
    1113: 85 1b        	sta	$1b                     ; 0x201b <__mulsf3+0x84d>
    1115: a5 1d        	lda	$1d                     ; 0x201d <__mulsf3+0x84f>
    1117: 29 33        	and	#$33
    1119: 85 1d        	sta	$1d                     ; 0x201d <__mulsf3+0x84f>
    111b: 98           	tya
    111c: 29 33        	and	#$33
    111e: 85 1a        	sta	$1a                     ; 0x201a <__mulsf3+0x84c>
    1120: 18           	clc
    1121: a5 1e        	lda	$1e                     ; 0x201e <__mulsf3+0x850>
    1123: 65 12        	adc	$12                     ; 0x2012 <__mulsf3+0x844>
    1125: 85 12        	sta	$12                     ; 0x2012 <__mulsf3+0x844>
    1127: a5 15        	lda	$15                     ; 0x2015 <__mulsf3+0x847>
    1129: 65 14        	adc	$14                     ; 0x2014 <__mulsf3+0x846>
    112b: 85 14        	sta	$14                     ; 0x2014 <__mulsf3+0x846>
    112d: a5 1b        	lda	$1b                     ; 0x201b <__mulsf3+0x84d>
    112f: 65 17        	adc	$17                     ; 0x2017 <__mulsf3+0x849>
    1131: 85 17        	sta	$17                     ; 0x2017 <__mulsf3+0x849>
    1133: a5 1d        	lda	$1d                     ; 0x201d <__mulsf3+0x84f>
    1135: 65 1a        	adc	$1a                     ; 0x201a <__mulsf3+0x84c>
    1137: 85 1a        	sta	$1a                     ; 0x201a <__mulsf3+0x84c>
    1139: 4a           	lsr
    113a: a8           	tay
    113b: a5 17        	lda	$17                     ; 0x2017 <__mulsf3+0x849>
    113d: 6a           	ror
    113e: 5a           	phy
    113f: a4 14        	ldy	$14                     ; 0x2014 <__mulsf3+0x846>
    1141: 84 1b        	sty	$1b                     ; 0x201b <__mulsf3+0x84d>
    1143: 66 1b        	ror	$1b                     ; 0x201b <__mulsf3+0x84d>
    1145: a4 12        	ldy	$12                     ; 0x2012 <__mulsf3+0x844>
    1147: 84 15        	sty	$15                     ; 0x2015 <__mulsf3+0x847>
    1149: 66 15        	ror	$15                     ; 0x2015 <__mulsf3+0x847>
    114b: a4 15        	ldy	$15                     ; 0x2015 <__mulsf3+0x847>
    114d: 84 1d        	sty	$1d                     ; 0x201d <__mulsf3+0x84f>
    114f: 7a           	ply
    1150: 84 15        	sty	$15                     ; 0x2015 <__mulsf3+0x847>
    1152: 46 15        	lsr	$15                     ; 0x2015 <__mulsf3+0x847>
    1154: 6a           	ror
    1155: 66 1b        	ror	$1b                     ; 0x201b <__mulsf3+0x84d>
    1157: 66 1d        	ror	$1d                     ; 0x201d <__mulsf3+0x84f>
    1159: 46 15        	lsr	$15                     ; 0x2015 <__mulsf3+0x847>
    115b: 6a           	ror
    115c: 66 1b        	ror	$1b                     ; 0x201b <__mulsf3+0x84d>
    115e: 66 1d        	ror	$1d                     ; 0x201d <__mulsf3+0x84f>
    1160: 46 15        	lsr	$15                     ; 0x2015 <__mulsf3+0x847>
    1162: 6a           	ror
    1163: 85 1e        	sta	$1e                     ; 0x201e <__mulsf3+0x850>
    1165: a4 1b        	ldy	$1b                     ; 0x201b <__mulsf3+0x84d>
    1167: 84 1f        	sty	$1f                     ; 0x201f <__mulsf3+0x851>
    1169: 66 1f        	ror	$1f                     ; 0x201f <__mulsf3+0x851>
    116b: a5 1d        	lda	$1d                     ; 0x201d <__mulsf3+0x84f>
    116d: 6a           	ror
    116e: 18           	clc
    116f: 65 12        	adc	$12                     ; 0x2012 <__mulsf3+0x844>
    1171: 85 12        	sta	$12                     ; 0x2012 <__mulsf3+0x844>
    1173: a5 1f        	lda	$1f                     ; 0x201f <__mulsf3+0x851>
    1175: 65 14        	adc	$14                     ; 0x2014 <__mulsf3+0x846>
    1177: a8           	tay
    1178: a5 1e        	lda	$1e                     ; 0x201e <__mulsf3+0x850>
    117a: 65 17        	adc	$17                     ; 0x2017 <__mulsf3+0x849>
    117c: 85 17        	sta	$17                     ; 0x2017 <__mulsf3+0x849>
    117e: a5 15        	lda	$15                     ; 0x2015 <__mulsf3+0x847>
    1180: 65 1a        	adc	$1a                     ; 0x201a <__mulsf3+0x84c>
    1182: 85 15        	sta	$15                     ; 0x2015 <__mulsf3+0x847>
    1184: a5 12        	lda	$12                     ; 0x2012 <__mulsf3+0x844>
    1186: 29 0f        	and	#$f
    1188: 85 12        	sta	$12                     ; 0x2012 <__mulsf3+0x844>
    118a: 85 1a        	sta	$1a                     ; 0x201a <__mulsf3+0x84c>
    118c: 98           	tya
    118d: 29 0f        	and	#$f
    118f: 85 14        	sta	$14                     ; 0x2014 <__mulsf3+0x846>
    1191: a8           	tay
    1192: a5 17        	lda	$17                     ; 0x2017 <__mulsf3+0x849>
    1194: 29 0f        	and	#$f
    1196: 85 17        	sta	$17                     ; 0x2017 <__mulsf3+0x849>
    1198: 85 1b        	sta	$1b                     ; 0x201b <__mulsf3+0x84d>
    119a: a5 15        	lda	$15                     ; 0x2015 <__mulsf3+0x847>
    119c: 29 0f        	and	#$f
    119e: 85 15        	sta	$15                     ; 0x2015 <__mulsf3+0x847>
    11a0: 18           	clc
    11a1: a5 1a        	lda	$1a                     ; 0x201a <__mulsf3+0x84c>
    11a3: 69 00        	adc	#$0
    11a5: 85 1a        	sta	$1a                     ; 0x201a <__mulsf3+0x84c>
    11a7: 85 1e        	sta	$1e                     ; 0x201e <__mulsf3+0x850>
    11a9: 98           	tya
    11aa: 65 12        	adc	$12                     ; 0x2012 <__mulsf3+0x844>
    11ac: 85 12        	sta	$12                     ; 0x2012 <__mulsf3+0x844>
    11ae: 85 1d        	sta	$1d                     ; 0x201d <__mulsf3+0x84f>
    11b0: a5 1b        	lda	$1b                     ; 0x201b <__mulsf3+0x84d>
    11b2: 65 14        	adc	$14                     ; 0x2014 <__mulsf3+0x846>
    11b4: 85 14        	sta	$14                     ; 0x2014 <__mulsf3+0x846>
    11b6: a5 15        	lda	$15                     ; 0x2015 <__mulsf3+0x847>
    11b8: 65 17        	adc	$17                     ; 0x2017 <__mulsf3+0x849>
    11ba: a8           	tay
    11bb: 18           	clc
    11bc: a5 1e        	lda	$1e                     ; 0x201e <__mulsf3+0x850>
    11be: 69 00        	adc	#$0
    11c0: a5 1d        	lda	$1d                     ; 0x201d <__mulsf3+0x84f>
    11c2: 69 00        	adc	#$0
    11c4: a5 14        	lda	$14                     ; 0x2014 <__mulsf3+0x846>
    11c6: 65 1a        	adc	$1a                     ; 0x201a <__mulsf3+0x84c>
    11c8: 98           	tya
    11c9: 65 12        	adc	$12                     ; 0x2012 <__mulsf3+0x844>
    11cb: 85 12        	sta	$12                     ; 0x2012 <__mulsf3+0x844>
    11cd: a9 20        	lda	#$20
    11cf: 38           	sec
    11d0: e5 12        	sbc	$12                     ; 0x2012 <__mulsf3+0x844>
    11d2: a8           	tay
    11d3: a9 00        	lda	#$0
    11d5: e9 00        	sbc	#$0
    11d7: 85 36        	sta	$36                     ; 0x2036 <__mulsf3+0x868>
    11d9: 98           	tya
    11da: 84 37        	sty	$37                     ; 0x2037 <__mulsf3+0x869>
    11dc: 18           	clc
    11dd: 69 f8        	adc	#$f8
    11df: 85 14        	sta	$14                     ; 0x2014 <__mulsf3+0x846>
    11e1: 86 12        	stx	$12                     ; 0x2012 <__mulsf3+0x844>
    11e3: a6 13        	ldx	$13                     ; 0x2013 <__mulsf3+0x845>
    11e5: 86 3d        	stx	$3d                     ; 0x203d <__mulsf3+0x86f>
    11e7: 64 13        	stz	$13                     ; 0x2013 <__mulsf3+0x845>
    11e9: a6 16        	ldx	$16                     ; 0x2016 <__mulsf3+0x848>
    11eb: a5 1c        	lda	$1c                     ; 0x201c <__mulsf3+0x84e>
    11ed: a4 18        	ldy	$18                     ; 0x2018 <__mulsf3+0x84a>
    11ef: 84 39        	sty	$39                     ; 0x2039 <__mulsf3+0x86b>
    11f1: a4 19        	ldy	$19                     ; 0x2019 <__mulsf3+0x84b>
    11f3: 84 40        	sty	$40                     ; 0x2040 <__mulsf3+0x872>
    11f5: 20 6c 0a     	jsr	$a6c <__ashlsi3>
    11f8: a4 40        	ldy	$40                     ; 0x2040 <__mulsf3+0x872>
    11fa: 84 19        	sty	$19                     ; 0x2019 <__mulsf3+0x84b>
    11fc: a4 39        	ldy	$39                     ; 0x2039 <__mulsf3+0x86b>
    11fe: 84 18        	sty	$18                     ; 0x2018 <__mulsf3+0x84a>
    1200: 85 1c        	sta	$1c                     ; 0x201c <__mulsf3+0x84e>
    1202: 86 16        	stx	$16                     ; 0x2016 <__mulsf3+0x848>
    1204: a4 13        	ldy	$13                     ; 0x2013 <__mulsf3+0x845>
    1206: a6 3d        	ldx	$3d                     ; 0x203d <__mulsf3+0x86f>
    1208: 86 13        	stx	$13                     ; 0x2013 <__mulsf3+0x845>
    120a: a9 09        	lda	#$9
    120c: 38           	sec
    120d: e5 37        	sbc	$37                     ; 0x2037 <__mulsf3+0x869>
    120f: 85 1a        	sta	$1a                     ; 0x201a <__mulsf3+0x84c>
    1211: a9 00        	lda	#$0
    1213: e5 36        	sbc	$36                     ; 0x2036 <__mulsf3+0x868>
    1215: 85 1b        	sta	$1b                     ; 0x201b <__mulsf3+0x84d>
    1217: a5 38        	lda	$38                     ; 0x2038 <__mulsf3+0x86a>
    1219: 45 13        	eor	$13                     ; 0x2013 <__mulsf3+0x845>
    121b: 85 40        	sta	$40                     ; 0x2040 <__mulsf3+0x872>
    121d: a6 18        	ldx	$18                     ; 0x2018 <__mulsf3+0x84a>
    121f: 86 17        	stx	$17                     ; 0x2017 <__mulsf3+0x849>
    1221: 06 17        	asl	$17                     ; 0x2017 <__mulsf3+0x849>
    1223: a6 19        	ldx	$19                     ; 0x2019 <__mulsf3+0x84b>
    1225: 86 14        	stx	$14                     ; 0x2014 <__mulsf3+0x846>
    1227: 26 14        	rol	$14                     ; 0x2014 <__mulsf3+0x846>
    1229: a6 3a        	ldx	$3a                     ; 0x203a <__mulsf3+0x86c>
    122b: 86 13        	stx	$13                     ; 0x2013 <__mulsf3+0x845>
    122d: 26 13        	rol	$13                     ; 0x2013 <__mulsf3+0x845>
    122f: a5 3b        	lda	$3b                     ; 0x203b <__mulsf3+0x86d>
    1231: 0a           	asl
    1232: 06 17        	asl	$17                     ; 0x2017 <__mulsf3+0x849>
    1234: 26 14        	rol	$14                     ; 0x2014 <__mulsf3+0x846>
    1236: 26 13        	rol	$13                     ; 0x2013 <__mulsf3+0x845>
    1238: 2a           	rol
    1239: 06 17        	asl	$17                     ; 0x2017 <__mulsf3+0x849>
    123b: 26 14        	rol	$14                     ; 0x2014 <__mulsf3+0x846>
    123d: 26 13        	rol	$13                     ; 0x2013 <__mulsf3+0x845>
    123f: 2a           	rol
    1240: 09 04        	ora	#$4
    1242: 85 3b        	sta	$3b                     ; 0x203b <__mulsf3+0x86d>
    1244: 06 1c        	asl	$1c                     ; 0x201c <__mulsf3+0x84e>
    1246: a6 16        	ldx	$16                     ; 0x2016 <__mulsf3+0x848>
    1248: 86 36        	stx	$36                     ; 0x2036 <__mulsf3+0x868>
    124a: 26 36        	rol	$36                     ; 0x2036 <__mulsf3+0x868>
    124c: 26 12        	rol	$12                     ; 0x2012 <__mulsf3+0x844>
    124e: 98           	tya
    124f: 0a           	asl
    1250: 06 1c        	asl	$1c                     ; 0x201c <__mulsf3+0x84e>
    1252: 26 36        	rol	$36                     ; 0x2036 <__mulsf3+0x868>
    1254: 26 12        	rol	$12                     ; 0x2012 <__mulsf3+0x844>
    1256: 2a           	rol
    1257: 06 1c        	asl	$1c                     ; 0x201c <__mulsf3+0x84e>
    1259: a6 1c        	ldx	$1c                     ; 0x201c <__mulsf3+0x84e>
    125b: 86 3d        	stx	$3d                     ; 0x203d <__mulsf3+0x86f>
    125d: 26 36        	rol	$36                     ; 0x2036 <__mulsf3+0x868>
    125f: 26 12        	rol	$12                     ; 0x2012 <__mulsf3+0x844>
    1261: a6 12        	ldx	$12                     ; 0x2012 <__mulsf3+0x844>
    1263: 86 39        	stx	$39                     ; 0x2039 <__mulsf3+0x86b>
    1265: 2a           	rol
    1266: 09 04        	ora	#$4
    1268: 85 3a        	sta	$3a                     ; 0x203a <__mulsf3+0x86c>
    126a: a4 3f        	ldy	$3f                     ; 0x203f <__mulsf3+0x871>
    126c: c4 1b        	cpy	$1b                     ; 0x201b <__mulsf3+0x84d>
    126e: d0 09        	bne	$1279 <__addsf3+0x677>
    1270: a6 3e        	ldx	$3e                     ; 0x203e <__mulsf3+0x870>
    1272: e4 1a        	cpx	$1a                     ; 0x201a <__mulsf3+0x84c>
    1274: d0 05        	bne	$127b <__addsf3+0x679>
    1276: 4c 07 13     	jmp	$1307 <__addsf3+0x705>
    1279: a6 3e        	ldx	$3e                     ; 0x203e <__mulsf3+0x870>
    127b: 38           	sec
    127c: 8a           	txa
    127d: e5 1a        	sbc	$1a                     ; 0x201a <__mulsf3+0x84c>
    127f: aa           	tax
    1280: 85 15        	sta	$15                     ; 0x2015 <__mulsf3+0x847>
    1282: 98           	tya
    1283: e5 1b        	sbc	$1b                     ; 0x201b <__mulsf3+0x84d>
    1285: d0 12        	bne	$1299 <__addsf3+0x697>
    1287: e0 20        	cpx	#$20
    1289: 90 12        	bcc	$129d <__addsf3+0x69b>
    128b: a2 01        	ldx	#$1
    128d: 86 3d        	stx	$3d                     ; 0x203d <__mulsf3+0x86f>
    128f: 64 36        	stz	$36                     ; 0x2036 <__mulsf3+0x868>
    1291: ca           	dex
    1292: 86 39        	stx	$39                     ; 0x2039 <__mulsf3+0x86b>
    1294: 86 3a        	stx	$3a                     ; 0x203a <__mulsf3+0x86c>
    1296: 4c 07 13     	jmp	$1307 <__addsf3+0x705>
    1299: c9 00        	cmp	#$0
    129b: b0 ee        	bcs	$128b <__addsf3+0x689>
    129d: a6 17        	ldx	$17                     ; 0x2017 <__mulsf3+0x849>
    129f: 86 42        	stx	$42                     ; 0x2042 <__mulsf3+0x874>
    12a1: a6 14        	ldx	$14                     ; 0x2014 <__mulsf3+0x846>
    12a3: 86 43        	stx	$43                     ; 0x2043 <__mulsf3+0x875>
    12a5: a6 13        	ldx	$13                     ; 0x2013 <__mulsf3+0x845>
    12a7: 86 44        	stx	$44                     ; 0x2044 <__mulsf3+0x876>
    12a9: 38           	sec
    12aa: a9 20        	lda	#$20
    12ac: a6 15        	ldx	$15                     ; 0x2015 <__mulsf3+0x847>
    12ae: 86 41        	stx	$41                     ; 0x2041 <__mulsf3+0x873>
    12b0: e5 15        	sbc	$15                     ; 0x2015 <__mulsf3+0x847>
    12b2: a6 39        	ldx	$39                     ; 0x2039 <__mulsf3+0x86b>
    12b4: 86 12        	stx	$12                     ; 0x2012 <__mulsf3+0x844>
    12b6: a6 3a        	ldx	$3a                     ; 0x203a <__mulsf3+0x86c>
    12b8: 86 13        	stx	$13                     ; 0x2013 <__mulsf3+0x845>
    12ba: 85 14        	sta	$14                     ; 0x2014 <__mulsf3+0x846>
    12bc: a6 36        	ldx	$36                     ; 0x2036 <__mulsf3+0x868>
    12be: a5 3d        	lda	$3d                     ; 0x203d <__mulsf3+0x86f>
    12c0: 20 6c 0a     	jsr	$a6c <__ashlsi3>
    12c3: a4 13        	ldy	$13                     ; 0x2013 <__mulsf3+0x845>
    12c5: d0 0f        	bne	$12d6 <__addsf3+0x6d4>
    12c7: a4 12        	ldy	$12                     ; 0x2012 <__mulsf3+0x844>
    12c9: d0 0b        	bne	$12d6 <__addsf3+0x6d4>
    12cb: e0 00        	cpx	#$0
    12cd: d0 07        	bne	$12d6 <__addsf3+0x6d4>
    12cf: aa           	tax
    12d0: d0 04        	bne	$12d6 <__addsf3+0x6d4>
    12d2: 64 37        	stz	$37                     ; 0x2037 <__mulsf3+0x869>
    12d4: 80 04        	bra	$12da <__addsf3+0x6d8>
    12d6: a2 01        	ldx	#$1
    12d8: 86 37        	stx	$37                     ; 0x2037 <__mulsf3+0x869>
    12da: a6 39        	ldx	$39                     ; 0x2039 <__mulsf3+0x86b>
    12dc: 86 12        	stx	$12                     ; 0x2012 <__mulsf3+0x844>
    12de: a6 3a        	ldx	$3a                     ; 0x203a <__mulsf3+0x86c>
    12e0: 86 13        	stx	$13                     ; 0x2013 <__mulsf3+0x845>
    12e2: a6 41        	ldx	$41                     ; 0x2041 <__mulsf3+0x873>
    12e4: 86 14        	stx	$14                     ; 0x2014 <__mulsf3+0x846>
    12e6: a6 36        	ldx	$36                     ; 0x2036 <__mulsf3+0x868>
    12e8: a5 3d        	lda	$3d                     ; 0x203d <__mulsf3+0x86f>
    12ea: 20 83 0a     	jsr	$a83 <__lshrsi3>
    12ed: 86 36        	stx	$36                     ; 0x2036 <__mulsf3+0x868>
    12ef: a6 12        	ldx	$12                     ; 0x2012 <__mulsf3+0x844>
    12f1: 86 39        	stx	$39                     ; 0x2039 <__mulsf3+0x86b>
    12f3: a6 13        	ldx	$13                     ; 0x2013 <__mulsf3+0x845>
    12f5: 86 3a        	stx	$3a                     ; 0x203a <__mulsf3+0x86c>
    12f7: 05 37        	ora	$37                     ; 0x2037 <__mulsf3+0x869>
    12f9: 85 3d        	sta	$3d                     ; 0x203d <__mulsf3+0x86f>
    12fb: a6 44        	ldx	$44                     ; 0x2044 <__mulsf3+0x876>
    12fd: 86 13        	stx	$13                     ; 0x2013 <__mulsf3+0x845>
    12ff: a6 43        	ldx	$43                     ; 0x2043 <__mulsf3+0x875>
    1301: 86 14        	stx	$14                     ; 0x2014 <__mulsf3+0x846>
    1303: a6 42        	ldx	$42                     ; 0x2042 <__mulsf3+0x874>
    1305: 86 17        	stx	$17                     ; 0x2017 <__mulsf3+0x849>
    1307: a5 3c        	lda	$3c                     ; 0x203c <__mulsf3+0x86e>
    1309: 29 80        	and	#$80
    130b: a4 3b        	ldy	$3b                     ; 0x203b <__mulsf3+0x86d>
    130d: a6 40        	ldx	$40                     ; 0x2040 <__mulsf3+0x872>
    130f: 30 38        	bmi	$1349 <__addsf3+0x747>
    1311: 84 12        	sty	$12                     ; 0x2012 <__mulsf3+0x844>
    1313: 85 3c        	sta	$3c                     ; 0x203c <__mulsf3+0x86e>
    1315: 18           	clc
    1316: a5 3d        	lda	$3d                     ; 0x203d <__mulsf3+0x86f>
    1318: 85 15        	sta	$15                     ; 0x2015 <__mulsf3+0x847>
    131a: 65 17        	adc	$17                     ; 0x2017 <__mulsf3+0x849>
    131c: a8           	tay
    131d: a5 36        	lda	$36                     ; 0x2036 <__mulsf3+0x868>
    131f: 65 14        	adc	$14                     ; 0x2014 <__mulsf3+0x846>
    1321: 85 36        	sta	$36                     ; 0x2036 <__mulsf3+0x868>
    1323: a6 39        	ldx	$39                     ; 0x2039 <__mulsf3+0x86b>
    1325: 8a           	txa
    1326: 65 13        	adc	$13                     ; 0x2013 <__mulsf3+0x845>
    1328: 85 14        	sta	$14                     ; 0x2014 <__mulsf3+0x846>
    132a: a6 3a        	ldx	$3a                     ; 0x203a <__mulsf3+0x86c>
    132c: 8a           	txa
    132d: 65 12        	adc	$12                     ; 0x2012 <__mulsf3+0x844>
    132f: 85 13        	sta	$13                     ; 0x2013 <__mulsf3+0x845>
    1331: 29 08        	and	#$8
    1333: f0 03        	beq	$1338 <__addsf3+0x736>
    1335: 4c b6 13     	jmp	$13b6 <__addsf3+0x7b4>
    1338: 84 12        	sty	$12                     ; 0x2012 <__mulsf3+0x844>
    133a: a6 12        	ldx	$12                     ; 0x2012 <__mulsf3+0x844>
    133c: 86 3d        	stx	$3d                     ; 0x203d <__mulsf3+0x86f>
    133e: a6 13        	ldx	$13                     ; 0x2013 <__mulsf3+0x845>
    1340: 86 3a        	stx	$3a                     ; 0x203a <__mulsf3+0x86c>
    1342: a6 14        	ldx	$14                     ; 0x2014 <__mulsf3+0x846>
    1344: 86 39        	stx	$39                     ; 0x2039 <__mulsf3+0x86b>
    1346: 4c e1 13     	jmp	$13e1 <__addsf3+0x7df>
    1349: a6 3a        	ldx	$3a                     ; 0x203a <__mulsf3+0x86c>
    134b: 86 12        	stx	$12                     ; 0x2012 <__mulsf3+0x844>
    134d: c4 12        	cpy	$12                     ; 0x2012 <__mulsf3+0x844>
    134f: d0 29        	bne	$137a <__addsf3+0x778>
    1351: a6 13        	ldx	$13                     ; 0x2013 <__mulsf3+0x845>
    1353: a4 39        	ldy	$39                     ; 0x2039 <__mulsf3+0x86b>
    1355: 84 12        	sty	$12                     ; 0x2012 <__mulsf3+0x844>
    1357: e4 12        	cpx	$12                     ; 0x2012 <__mulsf3+0x844>
    1359: d0 1f        	bne	$137a <__addsf3+0x778>
    135b: a6 14        	ldx	$14                     ; 0x2014 <__mulsf3+0x846>
    135d: a4 36        	ldy	$36                     ; 0x2036 <__mulsf3+0x868>
    135f: 84 12        	sty	$12                     ; 0x2012 <__mulsf3+0x844>
    1361: e4 12        	cpx	$12                     ; 0x2012 <__mulsf3+0x844>
    1363: d0 15        	bne	$137a <__addsf3+0x778>
    1365: a6 17        	ldx	$17                     ; 0x2017 <__mulsf3+0x849>
    1367: a4 3d        	ldy	$3d                     ; 0x203d <__mulsf3+0x86f>
    1369: 84 12        	sty	$12                     ; 0x2012 <__mulsf3+0x844>
    136b: e4 12        	cpx	$12                     ; 0x2012 <__mulsf3+0x844>
    136d: d0 0b        	bne	$137a <__addsf3+0x778>
    136f: 64 12        	stz	$12                     ; 0x2012 <__mulsf3+0x844>
    1371: 64 18        	stz	$18                     ; 0x2018 <__mulsf3+0x84a>
    1373: 64 19        	stz	$19                     ; 0x2019 <__mulsf3+0x84b>
    1375: 64 13        	stz	$13                     ; 0x2013 <__mulsf3+0x845>
    1377: 4c 7b 17     	jmp	$177b <__addsf3+0xb79>
    137a: 85 3c        	sta	$3c                     ; 0x203c <__mulsf3+0x86e>
    137c: 38           	sec
    137d: a6 3d        	ldx	$3d                     ; 0x203d <__mulsf3+0x86f>
    137f: 86 12        	stx	$12                     ; 0x2012 <__mulsf3+0x844>
    1381: a5 17        	lda	$17                     ; 0x2017 <__mulsf3+0x849>
    1383: e5 12        	sbc	$12                     ; 0x2012 <__mulsf3+0x844>
    1385: 85 3d        	sta	$3d                     ; 0x203d <__mulsf3+0x86f>
    1387: a5 14        	lda	$14                     ; 0x2014 <__mulsf3+0x846>
    1389: e5 36        	sbc	$36                     ; 0x2036 <__mulsf3+0x868>
    138b: 85 36        	sta	$36                     ; 0x2036 <__mulsf3+0x868>
    138d: a6 39        	ldx	$39                     ; 0x2039 <__mulsf3+0x86b>
    138f: 86 12        	stx	$12                     ; 0x2012 <__mulsf3+0x844>
    1391: a5 13        	lda	$13                     ; 0x2013 <__mulsf3+0x845>
    1393: e5 12        	sbc	$12                     ; 0x2012 <__mulsf3+0x844>
    1395: a8           	tay
    1396: a6 3a        	ldx	$3a                     ; 0x203a <__mulsf3+0x86c>
    1398: 86 12        	stx	$12                     ; 0x2012 <__mulsf3+0x844>
    139a: a5 3b        	lda	$3b                     ; 0x203b <__mulsf3+0x86d>
    139c: e5 12        	sbc	$12                     ; 0x2012 <__mulsf3+0x844>
    139e: c9 04        	cmp	#$4
    13a0: d0 36        	bne	$13d8 <__addsf3+0x7d6>
    13a2: 85 3a        	sta	$3a                     ; 0x203a <__mulsf3+0x86c>
    13a4: 98           	tya
    13a5: f0 03        	beq	$13aa <__addsf3+0x7a8>
    13a7: 4c 21 14     	jmp	$1421 <__addsf3+0x81f>
    13aa: a6 36        	ldx	$36                     ; 0x2036 <__mulsf3+0x868>
    13ac: f0 03        	beq	$13b1 <__addsf3+0x7af>
    13ae: 4c 80 17     	jmp	$1780 <__addsf3+0xb7e>
    13b1: a6 3d        	ldx	$3d                     ; 0x203d <__mulsf3+0x86f>
    13b3: 4c 82 17     	jmp	$1782 <__addsf3+0xb80>
    13b6: a5 15        	lda	$15                     ; 0x2015 <__mulsf3+0x847>
    13b8: 29 01        	and	#$1
    13ba: 85 12        	sta	$12                     ; 0x2012 <__mulsf3+0x844>
    13bc: a5 13        	lda	$13                     ; 0x2013 <__mulsf3+0x845>
    13be: 4a           	lsr
    13bf: 85 3a        	sta	$3a                     ; 0x203a <__mulsf3+0x86c>
    13c1: a5 14        	lda	$14                     ; 0x2014 <__mulsf3+0x846>
    13c3: 6a           	ror
    13c4: 85 39        	sta	$39                     ; 0x2039 <__mulsf3+0x86b>
    13c6: 66 36        	ror	$36                     ; 0x2036 <__mulsf3+0x868>
    13c8: 98           	tya
    13c9: 6a           	ror
    13ca: 05 12        	ora	$12                     ; 0x2012 <__mulsf3+0x844>
    13cc: 85 3d        	sta	$3d                     ; 0x203d <__mulsf3+0x86f>
    13ce: a6 3e        	ldx	$3e                     ; 0x203e <__mulsf3+0x870>
    13d0: a5 3f        	lda	$3f                     ; 0x203f <__mulsf3+0x871>
    13d2: e8           	inx
    13d3: d0 10        	bne	$13e5 <__addsf3+0x7e3>
    13d5: 1a           	inc
    13d6: 80 0d        	bra	$13e5 <__addsf3+0x7e3>
    13d8: 85 3a        	sta	$3a                     ; 0x203a <__mulsf3+0x86c>
    13da: c9 04        	cmp	#$4
    13dc: 98           	tya
    13dd: 90 46        	bcc	$1425 <__addsf3+0x823>
    13df: 85 39        	sta	$39                     ; 0x2039 <__mulsf3+0x86b>
    13e1: a6 3e        	ldx	$3e                     ; 0x203e <__mulsf3+0x870>
    13e3: a5 3f        	lda	$3f                     ; 0x203f <__mulsf3+0x871>
    13e5: 86 15        	stx	$15                     ; 0x2015 <__mulsf3+0x847>
    13e7: e0 ff        	cpx	#$ff
    13e9: a8           	tay
    13ea: e9 00        	sbc	#$0
    13ec: 50 02        	bvc	$13f0 <__addsf3+0x7ee>
    13ee: 49 80        	eor	#$80
    13f0: aa           	tax
    13f1: 10 03        	bpl	$13f6 <__addsf3+0x7f4>
    13f3: 4c 5d 16     	jmp	$165d <__addsf3+0xa5b>
    13f6: a5 3c        	lda	$3c                     ; 0x203c <__mulsf3+0x86e>
    13f8: 09 7f        	ora	#$7f
    13fa: a2 80        	ldx	#$80
    13fc: 64 18        	stz	$18                     ; 0x2018 <__mulsf3+0x84a>
    13fe: 64 19        	stz	$19                     ; 0x2019 <__mulsf3+0x84b>
    1400: 86 12        	stx	$12                     ; 0x2012 <__mulsf3+0x844>
    1402: 4c 79 17     	jmp	$1779 <__addsf3+0xb77>
    1405: a6 15        	ldx	$15                     ; 0x2015 <__mulsf3+0x847>
    1407: e0 00        	cpx	#$0
    1409: b0 03        	bcs	$140e <__addsf3+0x80c>
    140b: 4c f0 0c     	jmp	$cf0 <__addsf3+0xee>
    140e: 4c b9 0d     	jmp	$db9 <__addsf3+0x1b7>
    1411: a6 15        	ldx	$15                     ; 0x2015 <__mulsf3+0x847>
    1413: 86 16        	stx	$16                     ; 0x2016 <__mulsf3+0x848>
    1415: a6 19        	ldx	$19                     ; 0x2019 <__mulsf3+0x84b>
    1417: e4 16        	cpx	$16                     ; 0x2016 <__mulsf3+0x848>
    1419: b0 03        	bcs	$141e <__addsf3+0x81c>
    141b: 4c 96 0d     	jmp	$d96 <__addsf3+0x194>
    141e: 4c d4 0d     	jmp	$dd4 <__addsf3+0x1d2>
    1421: c9 00        	cmp	#$0
    1423: b0 ba        	bcs	$13df <__addsf3+0x7dd>
    1425: aa           	tax
    1426: a4 3a        	ldy	$3a                     ; 0x203a <__mulsf3+0x86c>
    1428: 98           	tya
    1429: 4a           	lsr
    142a: 85 12        	sta	$12                     ; 0x2012 <__mulsf3+0x844>
    142c: 8a           	txa
    142d: 6a           	ror
    142e: 85 13        	sta	$13                     ; 0x2013 <__mulsf3+0x845>
    1430: a5 36        	lda	$36                     ; 0x2036 <__mulsf3+0x868>
    1432: 6a           	ror
    1433: 85 14        	sta	$14                     ; 0x2014 <__mulsf3+0x846>
    1435: a5 3d        	lda	$3d                     ; 0x203d <__mulsf3+0x86f>
    1437: 85 17        	sta	$17                     ; 0x2017 <__mulsf3+0x849>
    1439: 6a           	ror
    143a: 85 15        	sta	$15                     ; 0x2015 <__mulsf3+0x847>
    143c: a5 17        	lda	$17                     ; 0x2017 <__mulsf3+0x849>
    143e: 05 15        	ora	$15                     ; 0x2015 <__mulsf3+0x847>
    1440: 85 19        	sta	$19                     ; 0x2019 <__mulsf3+0x84b>
    1442: a5 36        	lda	$36                     ; 0x2036 <__mulsf3+0x868>
    1444: 05 14        	ora	$14                     ; 0x2014 <__mulsf3+0x846>
    1446: 85 18        	sta	$18                     ; 0x2018 <__mulsf3+0x84a>
    1448: 8a           	txa
    1449: 05 13        	ora	$13                     ; 0x2013 <__mulsf3+0x845>
    144b: 85 1a        	sta	$1a                     ; 0x201a <__mulsf3+0x84c>
    144d: 98           	tya
    144e: 05 12        	ora	$12                     ; 0x2012 <__mulsf3+0x844>
    1450: 85 1b        	sta	$1b                     ; 0x201b <__mulsf3+0x84d>
    1452: 4a           	lsr
    1453: 5a           	phy
    1454: a4 1a        	ldy	$1a                     ; 0x201a <__mulsf3+0x84c>
    1456: 84 12        	sty	$12                     ; 0x2012 <__mulsf3+0x844>
    1458: 66 12        	ror	$12                     ; 0x2012 <__mulsf3+0x844>
    145a: a4 18        	ldy	$18                     ; 0x2018 <__mulsf3+0x84a>
    145c: 84 13        	sty	$13                     ; 0x2013 <__mulsf3+0x845>
    145e: 66 13        	ror	$13                     ; 0x2013 <__mulsf3+0x845>
    1460: a4 19        	ldy	$19                     ; 0x2019 <__mulsf3+0x84b>
    1462: 84 14        	sty	$14                     ; 0x2014 <__mulsf3+0x846>
    1464: 66 14        	ror	$14                     ; 0x2014 <__mulsf3+0x846>
    1466: 4a           	lsr
    1467: 85 15        	sta	$15                     ; 0x2015 <__mulsf3+0x847>
    1469: 66 12        	ror	$12                     ; 0x2012 <__mulsf3+0x844>
    146b: 66 13        	ror	$13                     ; 0x2013 <__mulsf3+0x845>
    146d: 66 14        	ror	$14                     ; 0x2014 <__mulsf3+0x846>
    146f: a5 19        	lda	$19                     ; 0x2019 <__mulsf3+0x84b>
    1471: 05 14        	ora	$14                     ; 0x2014 <__mulsf3+0x846>
    1473: 85 19        	sta	$19                     ; 0x2019 <__mulsf3+0x84b>
    1475: a5 18        	lda	$18                     ; 0x2018 <__mulsf3+0x84a>
    1477: 05 13        	ora	$13                     ; 0x2013 <__mulsf3+0x845>
    1479: 85 18        	sta	$18                     ; 0x2018 <__mulsf3+0x84a>
    147b: a5 1a        	lda	$1a                     ; 0x201a <__mulsf3+0x84c>
    147d: 05 12        	ora	$12                     ; 0x2012 <__mulsf3+0x844>
    147f: 85 1a        	sta	$1a                     ; 0x201a <__mulsf3+0x84c>
    1481: a5 1b        	lda	$1b                     ; 0x201b <__mulsf3+0x84d>
    1483: 05 15        	ora	$15                     ; 0x2015 <__mulsf3+0x847>
    1485: 85 1b        	sta	$1b                     ; 0x201b <__mulsf3+0x84d>
    1487: 4a           	lsr
    1488: a4 1a        	ldy	$1a                     ; 0x201a <__mulsf3+0x84c>
    148a: 84 12        	sty	$12                     ; 0x2012 <__mulsf3+0x844>
    148c: 66 12        	ror	$12                     ; 0x2012 <__mulsf3+0x844>
    148e: a4 18        	ldy	$18                     ; 0x2018 <__mulsf3+0x84a>
    1490: 84 13        	sty	$13                     ; 0x2013 <__mulsf3+0x845>
    1492: 66 13        	ror	$13                     ; 0x2013 <__mulsf3+0x845>
    1494: a4 19        	ldy	$19                     ; 0x2019 <__mulsf3+0x84b>
    1496: 84 14        	sty	$14                     ; 0x2014 <__mulsf3+0x846>
    1498: 66 14        	ror	$14                     ; 0x2014 <__mulsf3+0x846>
    149a: 4a           	lsr
    149b: 66 12        	ror	$12                     ; 0x2012 <__mulsf3+0x844>
    149d: 66 13        	ror	$13                     ; 0x2013 <__mulsf3+0x845>
    149f: 66 14        	ror	$14                     ; 0x2014 <__mulsf3+0x846>
    14a1: 4a           	lsr
    14a2: 66 12        	ror	$12                     ; 0x2012 <__mulsf3+0x844>
    14a4: 66 13        	ror	$13                     ; 0x2013 <__mulsf3+0x845>
    14a6: 66 14        	ror	$14                     ; 0x2014 <__mulsf3+0x846>
    14a8: 4a           	lsr
    14a9: 85 15        	sta	$15                     ; 0x2015 <__mulsf3+0x847>
    14ab: 66 12        	ror	$12                     ; 0x2012 <__mulsf3+0x844>
    14ad: 66 13        	ror	$13                     ; 0x2013 <__mulsf3+0x845>
    14af: 66 14        	ror	$14                     ; 0x2014 <__mulsf3+0x846>
    14b1: a5 19        	lda	$19                     ; 0x2019 <__mulsf3+0x84b>
    14b3: 05 14        	ora	$14                     ; 0x2014 <__mulsf3+0x846>
    14b5: 85 14        	sta	$14                     ; 0x2014 <__mulsf3+0x846>
    14b7: a5 18        	lda	$18                     ; 0x2018 <__mulsf3+0x84a>
    14b9: 05 13        	ora	$13                     ; 0x2013 <__mulsf3+0x845>
    14bb: 85 13        	sta	$13                     ; 0x2013 <__mulsf3+0x845>
    14bd: a5 1a        	lda	$1a                     ; 0x201a <__mulsf3+0x84c>
    14bf: 05 12        	ora	$12                     ; 0x2012 <__mulsf3+0x844>
    14c1: 85 18        	sta	$18                     ; 0x2018 <__mulsf3+0x84a>
    14c3: a5 1b        	lda	$1b                     ; 0x201b <__mulsf3+0x84d>
    14c5: 05 15        	ora	$15                     ; 0x2015 <__mulsf3+0x847>
    14c7: 85 19        	sta	$19                     ; 0x2019 <__mulsf3+0x84b>
    14c9: a5 14        	lda	$14                     ; 0x2014 <__mulsf3+0x846>
    14cb: 05 13        	ora	$13                     ; 0x2013 <__mulsf3+0x845>
    14cd: 85 15        	sta	$15                     ; 0x2015 <__mulsf3+0x847>
    14cf: a5 13        	lda	$13                     ; 0x2013 <__mulsf3+0x845>
    14d1: 05 18        	ora	$18                     ; 0x2018 <__mulsf3+0x84a>
    14d3: 85 14        	sta	$14                     ; 0x2014 <__mulsf3+0x846>
    14d5: a5 19        	lda	$19                     ; 0x2019 <__mulsf3+0x84b>
    14d7: 85 12        	sta	$12                     ; 0x2012 <__mulsf3+0x844>
    14d9: 85 1a        	sta	$1a                     ; 0x201a <__mulsf3+0x84c>
    14db: a5 18        	lda	$18                     ; 0x2018 <__mulsf3+0x84a>
    14dd: 05 12        	ora	$12                     ; 0x2012 <__mulsf3+0x844>
    14df: 85 13        	sta	$13                     ; 0x2013 <__mulsf3+0x845>
    14e1: 85 1b        	sta	$1b                     ; 0x201b <__mulsf3+0x84d>
    14e3: a5 15        	lda	$15                     ; 0x2015 <__mulsf3+0x847>
    14e5: 05 13        	ora	$13                     ; 0x2013 <__mulsf3+0x845>
    14e7: 85 19        	sta	$19                     ; 0x2019 <__mulsf3+0x84b>
    14e9: a5 14        	lda	$14                     ; 0x2014 <__mulsf3+0x846>
    14eb: 05 12        	ora	$12                     ; 0x2012 <__mulsf3+0x844>
    14ed: 85 18        	sta	$18                     ; 0x2018 <__mulsf3+0x84a>
    14ef: a5 19        	lda	$19                     ; 0x2019 <__mulsf3+0x84b>
    14f1: 4a           	lsr
    14f2: 29 55        	and	#$55
    14f4: 85 12        	sta	$12                     ; 0x2012 <__mulsf3+0x844>
    14f6: a5 18        	lda	$18                     ; 0x2018 <__mulsf3+0x84a>
    14f8: 4a           	lsr
    14f9: 29 55        	and	#$55
    14fb: 85 13        	sta	$13                     ; 0x2013 <__mulsf3+0x845>
    14fd: a5 1b        	lda	$1b                     ; 0x201b <__mulsf3+0x84d>
    14ff: 4a           	lsr
    1500: 29 55        	and	#$55
    1502: 85 14        	sta	$14                     ; 0x2014 <__mulsf3+0x846>
    1504: a5 1a        	lda	$1a                     ; 0x201a <__mulsf3+0x84c>
    1506: 4a           	lsr
    1507: 29 55        	and	#$55
    1509: 85 15        	sta	$15                     ; 0x2015 <__mulsf3+0x847>
    150b: 38           	sec
    150c: a5 19        	lda	$19                     ; 0x2019 <__mulsf3+0x84b>
    150e: e5 12        	sbc	$12                     ; 0x2012 <__mulsf3+0x844>
    1510: 85 12        	sta	$12                     ; 0x2012 <__mulsf3+0x844>
    1512: a5 18        	lda	$18                     ; 0x2018 <__mulsf3+0x84a>
    1514: e5 13        	sbc	$13                     ; 0x2013 <__mulsf3+0x845>
    1516: 85 13        	sta	$13                     ; 0x2013 <__mulsf3+0x845>
    1518: a5 1b        	lda	$1b                     ; 0x201b <__mulsf3+0x84d>
    151a: e5 14        	sbc	$14                     ; 0x2014 <__mulsf3+0x846>
    151c: 85 14        	sta	$14                     ; 0x2014 <__mulsf3+0x846>
    151e: a5 1a        	lda	$1a                     ; 0x201a <__mulsf3+0x84c>
    1520: e5 15        	sbc	$15                     ; 0x2015 <__mulsf3+0x847>
    1522: 85 15        	sta	$15                     ; 0x2015 <__mulsf3+0x847>
    1524: a5 12        	lda	$12                     ; 0x2012 <__mulsf3+0x844>
    1526: 85 18        	sta	$18                     ; 0x2018 <__mulsf3+0x84a>
    1528: 29 33        	and	#$33
    152a: 85 12        	sta	$12                     ; 0x2012 <__mulsf3+0x844>
    152c: a5 13        	lda	$13                     ; 0x2013 <__mulsf3+0x845>
    152e: 85 19        	sta	$19                     ; 0x2019 <__mulsf3+0x84b>
    1530: 29 33        	and	#$33
    1532: 85 13        	sta	$13                     ; 0x2013 <__mulsf3+0x845>
    1534: a5 14        	lda	$14                     ; 0x2014 <__mulsf3+0x846>
    1536: 85 1a        	sta	$1a                     ; 0x201a <__mulsf3+0x84c>
    1538: 29 33        	and	#$33
    153a: 85 14        	sta	$14                     ; 0x2014 <__mulsf3+0x846>
    153c: a5 15        	lda	$15                     ; 0x2015 <__mulsf3+0x847>
    153e: 4a           	lsr
    153f: 85 1b        	sta	$1b                     ; 0x201b <__mulsf3+0x84d>
    1541: 46 1a        	lsr	$1a                     ; 0x201a <__mulsf3+0x84c>
    1543: 46 19        	lsr	$19                     ; 0x2019 <__mulsf3+0x84b>
    1545: a5 18        	lda	$18                     ; 0x2018 <__mulsf3+0x84a>
    1547: 4a           	lsr
    1548: 46 1b        	lsr	$1b                     ; 0x201b <__mulsf3+0x84d>
    154a: 46 1a        	lsr	$1a                     ; 0x201a <__mulsf3+0x84c>
    154c: a4 19        	ldy	$19                     ; 0x2019 <__mulsf3+0x84b>
    154e: 84 18        	sty	$18                     ; 0x2018 <__mulsf3+0x84a>
    1550: 46 18        	lsr	$18                     ; 0x2018 <__mulsf3+0x84a>
    1552: 4a           	lsr
    1553: 29 33        	and	#$33
    1555: 85 1c        	sta	$1c                     ; 0x201c <__mulsf3+0x84e>
    1557: a5 18        	lda	$18                     ; 0x2018 <__mulsf3+0x84a>
    1559: 29 33        	and	#$33
    155b: 85 18        	sta	$18                     ; 0x2018 <__mulsf3+0x84a>
    155d: a5 1a        	lda	$1a                     ; 0x201a <__mulsf3+0x84c>
    155f: 29 33        	and	#$33
    1561: 85 19        	sta	$19                     ; 0x2019 <__mulsf3+0x84b>
    1563: a5 1b        	lda	$1b                     ; 0x201b <__mulsf3+0x84d>
    1565: 29 33        	and	#$33
    1567: 85 1a        	sta	$1a                     ; 0x201a <__mulsf3+0x84c>
    1569: a5 15        	lda	$15                     ; 0x2015 <__mulsf3+0x847>
    156b: 29 33        	and	#$33
    156d: 85 15        	sta	$15                     ; 0x2015 <__mulsf3+0x847>
    156f: 18           	clc
    1570: a5 1c        	lda	$1c                     ; 0x201c <__mulsf3+0x84e>
    1572: 65 12        	adc	$12                     ; 0x2012 <__mulsf3+0x844>
    1574: 85 12        	sta	$12                     ; 0x2012 <__mulsf3+0x844>
    1576: a5 18        	lda	$18                     ; 0x2018 <__mulsf3+0x84a>
    1578: 65 13        	adc	$13                     ; 0x2013 <__mulsf3+0x845>
    157a: 85 13        	sta	$13                     ; 0x2013 <__mulsf3+0x845>
    157c: a5 19        	lda	$19                     ; 0x2019 <__mulsf3+0x84b>
    157e: 65 14        	adc	$14                     ; 0x2014 <__mulsf3+0x846>
    1580: 85 14        	sta	$14                     ; 0x2014 <__mulsf3+0x846>
    1582: a5 1a        	lda	$1a                     ; 0x201a <__mulsf3+0x84c>
    1584: 65 15        	adc	$15                     ; 0x2015 <__mulsf3+0x847>
    1586: 85 15        	sta	$15                     ; 0x2015 <__mulsf3+0x847>
    1588: 4a           	lsr
    1589: 85 18        	sta	$18                     ; 0x2018 <__mulsf3+0x84a>
    158b: a5 14        	lda	$14                     ; 0x2014 <__mulsf3+0x846>
    158d: 6a           	ror
    158e: a4 13        	ldy	$13                     ; 0x2013 <__mulsf3+0x845>
    1590: 84 19        	sty	$19                     ; 0x2019 <__mulsf3+0x84b>
    1592: 66 19        	ror	$19                     ; 0x2019 <__mulsf3+0x84b>
    1594: a4 12        	ldy	$12                     ; 0x2012 <__mulsf3+0x844>
    1596: 84 1a        	sty	$1a                     ; 0x201a <__mulsf3+0x84c>
    1598: 7a           	ply
    1599: 66 1a        	ror	$1a                     ; 0x201a <__mulsf3+0x84c>
    159b: 46 18        	lsr	$18                     ; 0x2018 <__mulsf3+0x84a>
    159d: 6a           	ror
    159e: 66 19        	ror	$19                     ; 0x2019 <__mulsf3+0x84b>
    15a0: 66 1a        	ror	$1a                     ; 0x201a <__mulsf3+0x84c>
    15a2: 46 18        	lsr	$18                     ; 0x2018 <__mulsf3+0x84a>
    15a4: 6a           	ror
    15a5: 66 19        	ror	$19                     ; 0x2019 <__mulsf3+0x84b>
    15a7: 66 1a        	ror	$1a                     ; 0x201a <__mulsf3+0x84c>
    15a9: 46 18        	lsr	$18                     ; 0x2018 <__mulsf3+0x84a>
    15ab: 6a           	ror
    15ac: 85 1b        	sta	$1b                     ; 0x201b <__mulsf3+0x84d>
    15ae: a5 19        	lda	$19                     ; 0x2019 <__mulsf3+0x84b>
    15b0: 85 1c        	sta	$1c                     ; 0x201c <__mulsf3+0x84e>
    15b2: 66 1c        	ror	$1c                     ; 0x201c <__mulsf3+0x84e>
    15b4: a5 1a        	lda	$1a                     ; 0x201a <__mulsf3+0x84c>
    15b6: 6a           	ror
    15b7: 18           	clc
    15b8: 65 12        	adc	$12                     ; 0x2012 <__mulsf3+0x844>
    15ba: 85 12        	sta	$12                     ; 0x2012 <__mulsf3+0x844>
    15bc: a5 1c        	lda	$1c                     ; 0x201c <__mulsf3+0x84e>
    15be: 65 13        	adc	$13                     ; 0x2013 <__mulsf3+0x845>
    15c0: 85 13        	sta	$13                     ; 0x2013 <__mulsf3+0x845>
    15c2: a5 1b        	lda	$1b                     ; 0x201b <__mulsf3+0x84d>
    15c4: 65 14        	adc	$14                     ; 0x2014 <__mulsf3+0x846>
    15c6: 85 14        	sta	$14                     ; 0x2014 <__mulsf3+0x846>
    15c8: a5 18        	lda	$18                     ; 0x2018 <__mulsf3+0x84a>
    15ca: 65 15        	adc	$15                     ; 0x2015 <__mulsf3+0x847>
    15cc: 85 15        	sta	$15                     ; 0x2015 <__mulsf3+0x847>
    15ce: a5 12        	lda	$12                     ; 0x2012 <__mulsf3+0x844>
    15d0: 29 0f        	and	#$f
    15d2: 85 12        	sta	$12                     ; 0x2012 <__mulsf3+0x844>
    15d4: 85 19        	sta	$19                     ; 0x2019 <__mulsf3+0x84b>
    15d6: a5 13        	lda	$13                     ; 0x2013 <__mulsf3+0x845>
    15d8: 29 0f        	and	#$f
    15da: 85 13        	sta	$13                     ; 0x2013 <__mulsf3+0x845>
    15dc: 85 1b        	sta	$1b                     ; 0x201b <__mulsf3+0x84d>
    15de: a5 14        	lda	$14                     ; 0x2014 <__mulsf3+0x846>
    15e0: 29 0f        	and	#$f
    15e2: 85 14        	sta	$14                     ; 0x2014 <__mulsf3+0x846>
    15e4: 85 1a        	sta	$1a                     ; 0x201a <__mulsf3+0x84c>
    15e6: a5 15        	lda	$15                     ; 0x2015 <__mulsf3+0x847>
    15e8: 29 0f        	and	#$f
    15ea: 85 18        	sta	$18                     ; 0x2018 <__mulsf3+0x84a>
    15ec: 18           	clc
    15ed: a5 19        	lda	$19                     ; 0x2019 <__mulsf3+0x84b>
    15ef: 69 00        	adc	#$0
    15f1: 85 15        	sta	$15                     ; 0x2015 <__mulsf3+0x847>
    15f3: 85 1c        	sta	$1c                     ; 0x201c <__mulsf3+0x84e>
    15f5: a5 1b        	lda	$1b                     ; 0x201b <__mulsf3+0x84d>
    15f7: 65 12        	adc	$12                     ; 0x2012 <__mulsf3+0x844>
    15f9: 85 12        	sta	$12                     ; 0x2012 <__mulsf3+0x844>
    15fb: a5 1a        	lda	$1a                     ; 0x201a <__mulsf3+0x84c>
    15fd: 65 13        	adc	$13                     ; 0x2013 <__mulsf3+0x845>
    15ff: 85 19        	sta	$19                     ; 0x2019 <__mulsf3+0x84b>
    1601: a5 18        	lda	$18                     ; 0x2018 <__mulsf3+0x84a>
    1603: 65 14        	adc	$14                     ; 0x2014 <__mulsf3+0x846>
    1605: 85 13        	sta	$13                     ; 0x2013 <__mulsf3+0x845>
    1607: 18           	clc
    1608: a5 1c        	lda	$1c                     ; 0x201c <__mulsf3+0x84e>
    160a: 69 00        	adc	#$0
    160c: a5 12        	lda	$12                     ; 0x2012 <__mulsf3+0x844>
    160e: 69 00        	adc	#$0
    1610: a5 19        	lda	$19                     ; 0x2019 <__mulsf3+0x84b>
    1612: 65 15        	adc	$15                     ; 0x2015 <__mulsf3+0x847>
    1614: a5 13        	lda	$13                     ; 0x2013 <__mulsf3+0x845>
    1616: 65 12        	adc	$12                     ; 0x2012 <__mulsf3+0x844>
    1618: 85 12        	sta	$12                     ; 0x2012 <__mulsf3+0x844>
    161a: a9 20        	lda	#$20
    161c: 38           	sec
    161d: e5 12        	sbc	$12                     ; 0x2012 <__mulsf3+0x844>
    161f: 85 13        	sta	$13                     ; 0x2013 <__mulsf3+0x845>
    1621: a9 00        	lda	#$0
    1623: e9 00        	sbc	#$0
    1625: 85 12        	sta	$12                     ; 0x2012 <__mulsf3+0x844>
    1627: 18           	clc
    1628: a5 13        	lda	$13                     ; 0x2013 <__mulsf3+0x845>
    162a: 69 fb        	adc	#$fb
    162c: 85 37        	sta	$37                     ; 0x2037 <__mulsf3+0x869>
    162e: a5 12        	lda	$12                     ; 0x2012 <__mulsf3+0x844>
    1630: 69 ff        	adc	#$ff
    1632: 85 38        	sta	$38                     ; 0x2038 <__mulsf3+0x86a>
    1634: 86 12        	stx	$12                     ; 0x2012 <__mulsf3+0x844>
    1636: 84 13        	sty	$13                     ; 0x2013 <__mulsf3+0x845>
    1638: a6 37        	ldx	$37                     ; 0x2037 <__mulsf3+0x869>
    163a: 86 14        	stx	$14                     ; 0x2014 <__mulsf3+0x846>
    163c: a6 36        	ldx	$36                     ; 0x2036 <__mulsf3+0x868>
    163e: a5 17        	lda	$17                     ; 0x2017 <__mulsf3+0x849>
    1640: 20 6c 0a     	jsr	$a6c <__ashlsi3>
    1643: 85 3d        	sta	$3d                     ; 0x203d <__mulsf3+0x86f>
    1645: 86 36        	stx	$36                     ; 0x2036 <__mulsf3+0x868>
    1647: a6 12        	ldx	$12                     ; 0x2012 <__mulsf3+0x844>
    1649: 86 39        	stx	$39                     ; 0x2039 <__mulsf3+0x86b>
    164b: a6 13        	ldx	$13                     ; 0x2013 <__mulsf3+0x845>
    164d: 86 3a        	stx	$3a                     ; 0x203a <__mulsf3+0x86c>
    164f: a6 3e        	ldx	$3e                     ; 0x203e <__mulsf3+0x870>
    1651: 8a           	txa
    1652: 38           	sec
    1653: e5 37        	sbc	$37                     ; 0x2037 <__mulsf3+0x869>
    1655: 85 15        	sta	$15                     ; 0x2015 <__mulsf3+0x847>
    1657: a6 3f        	ldx	$3f                     ; 0x203f <__mulsf3+0x871>
    1659: 8a           	txa
    165a: e5 38        	sbc	$38                     ; 0x2038 <__mulsf3+0x86a>
    165c: a8           	tay
    165d: a6 15        	ldx	$15                     ; 0x2015 <__mulsf3+0x847>
    165f: e0 01        	cpx	#$1
    1661: 98           	tya
    1662: e9 00        	sbc	#$0
    1664: 50 02        	bvc	$1668 <__addsf3+0xa66>
    1666: 49 80        	eor	#$80
    1668: aa           	tax
    1669: 30 11        	bmi	$167c <__addsf3+0xa7a>
    166b: a5 39        	lda	$39                     ; 0x2039 <__mulsf3+0x86b>
    166d: 85 14        	sta	$14                     ; 0x2014 <__mulsf3+0x846>
    166f: 84 16        	sty	$16                     ; 0x2016 <__mulsf3+0x848>
    1671: a6 3a        	ldx	$3a                     ; 0x203a <__mulsf3+0x86c>
    1673: 86 13        	stx	$13                     ; 0x2013 <__mulsf3+0x845>
    1675: a6 3d        	ldx	$3d                     ; 0x203d <__mulsf3+0x86f>
    1677: 86 12        	stx	$12                     ; 0x2012 <__mulsf3+0x844>
    1679: 4c d5 16     	jmp	$16d5 <__addsf3+0xad3>
    167c: 38           	sec
    167d: a6 15        	ldx	$15                     ; 0x2015 <__mulsf3+0x847>
    167f: 86 12        	stx	$12                     ; 0x2012 <__mulsf3+0x844>
    1681: a9 01        	lda	#$1
    1683: e5 12        	sbc	$12                     ; 0x2012 <__mulsf3+0x844>
    1685: 85 3b        	sta	$3b                     ; 0x203b <__mulsf3+0x86d>
    1687: a5 15        	lda	$15                     ; 0x2015 <__mulsf3+0x847>
    1689: 18           	clc
    168a: 69 1f        	adc	#$1f
    168c: a6 39        	ldx	$39                     ; 0x2039 <__mulsf3+0x86b>
    168e: 86 12        	stx	$12                     ; 0x2012 <__mulsf3+0x844>
    1690: a6 3a        	ldx	$3a                     ; 0x203a <__mulsf3+0x86c>
    1692: 86 13        	stx	$13                     ; 0x2013 <__mulsf3+0x845>
    1694: 85 14        	sta	$14                     ; 0x2014 <__mulsf3+0x846>
    1696: a6 36        	ldx	$36                     ; 0x2036 <__mulsf3+0x868>
    1698: a5 3d        	lda	$3d                     ; 0x203d <__mulsf3+0x86f>
    169a: 20 6c 0a     	jsr	$a6c <__ashlsi3>
    169d: a4 13        	ldy	$13                     ; 0x2013 <__mulsf3+0x845>
    169f: d0 0f        	bne	$16b0 <__addsf3+0xaae>
    16a1: a4 12        	ldy	$12                     ; 0x2012 <__mulsf3+0x844>
    16a3: d0 0b        	bne	$16b0 <__addsf3+0xaae>
    16a5: e0 00        	cpx	#$0
    16a7: d0 07        	bne	$16b0 <__addsf3+0xaae>
    16a9: aa           	tax
    16aa: d0 04        	bne	$16b0 <__addsf3+0xaae>
    16ac: 64 37        	stz	$37                     ; 0x2037 <__mulsf3+0x869>
    16ae: 80 04        	bra	$16b4 <__addsf3+0xab2>
    16b0: a2 01        	ldx	#$1
    16b2: 86 37        	stx	$37                     ; 0x2037 <__mulsf3+0x869>
    16b4: a6 39        	ldx	$39                     ; 0x2039 <__mulsf3+0x86b>
    16b6: 86 12        	stx	$12                     ; 0x2012 <__mulsf3+0x844>
    16b8: a6 3a        	ldx	$3a                     ; 0x203a <__mulsf3+0x86c>
    16ba: 86 13        	stx	$13                     ; 0x2013 <__mulsf3+0x845>
    16bc: a6 3b        	ldx	$3b                     ; 0x203b <__mulsf3+0x86d>
    16be: 86 14        	stx	$14                     ; 0x2014 <__mulsf3+0x846>
    16c0: a6 36        	ldx	$36                     ; 0x2036 <__mulsf3+0x868>
    16c2: a5 3d        	lda	$3d                     ; 0x203d <__mulsf3+0x86f>
    16c4: 20 83 0a     	jsr	$a83 <__lshrsi3>
    16c7: 86 36        	stx	$36                     ; 0x2036 <__mulsf3+0x868>
    16c9: a6 12        	ldx	$12                     ; 0x2012 <__mulsf3+0x844>
    16cb: 86 14        	stx	$14                     ; 0x2014 <__mulsf3+0x846>
    16cd: 05 37        	ora	$37                     ; 0x2037 <__mulsf3+0x869>
    16cf: 85 12        	sta	$12                     ; 0x2012 <__mulsf3+0x844>
    16d1: 64 15        	stz	$15                     ; 0x2015 <__mulsf3+0x847>
    16d3: 64 16        	stz	$16                     ; 0x2016 <__mulsf3+0x848>
    16d5: 46 13        	lsr	$13                     ; 0x2013 <__mulsf3+0x845>
    16d7: 66 14        	ror	$14                     ; 0x2014 <__mulsf3+0x846>
    16d9: 66 36        	ror	$36                     ; 0x2036 <__mulsf3+0x868>
    16db: a6 12        	ldx	$12                     ; 0x2012 <__mulsf3+0x844>
    16dd: 86 17        	stx	$17                     ; 0x2017 <__mulsf3+0x849>
    16df: a5 12        	lda	$12                     ; 0x2012 <__mulsf3+0x844>
    16e1: 66 17        	ror	$17                     ; 0x2017 <__mulsf3+0x849>
    16e3: 46 13        	lsr	$13                     ; 0x2013 <__mulsf3+0x845>
    16e5: 66 14        	ror	$14                     ; 0x2014 <__mulsf3+0x846>
    16e7: 66 36        	ror	$36                     ; 0x2036 <__mulsf3+0x868>
    16e9: 66 17        	ror	$17                     ; 0x2017 <__mulsf3+0x849>
    16eb: 46 14        	lsr	$14                     ; 0x2014 <__mulsf3+0x846>
    16ed: 66 36        	ror	$36                     ; 0x2036 <__mulsf3+0x868>
    16ef: 29 07        	and	#$7
    16f1: aa           	tax
    16f2: 66 17        	ror	$17                     ; 0x2017 <__mulsf3+0x849>
    16f4: 64 13        	stz	$13                     ; 0x2013 <__mulsf3+0x845>
    16f6: a5 14        	lda	$14                     ; 0x2014 <__mulsf3+0x846>
    16f8: 29 7f        	and	#$7f
    16fa: 85 14        	sta	$14                     ; 0x2014 <__mulsf3+0x846>
    16fc: 46 16        	lsr	$16                     ; 0x2016 <__mulsf3+0x848>
    16fe: 66 15        	ror	$15                     ; 0x2015 <__mulsf3+0x847>
    1700: 64 18        	stz	$18                     ; 0x2018 <__mulsf3+0x84a>
    1702: 66 18        	ror	$18                     ; 0x2018 <__mulsf3+0x84a>
    1704: 64 16        	stz	$16                     ; 0x2016 <__mulsf3+0x848>
    1706: 66 16        	ror	$16                     ; 0x2016 <__mulsf3+0x848>
    1708: 66 13        	ror	$13                     ; 0x2013 <__mulsf3+0x845>
    170a: a4 17        	ldy	$17                     ; 0x2017 <__mulsf3+0x849>
    170c: a5 17        	lda	$17                     ; 0x2017 <__mulsf3+0x849>
    170e: 05 13        	ora	$13                     ; 0x2013 <__mulsf3+0x845>
    1710: 85 17        	sta	$17                     ; 0x2017 <__mulsf3+0x849>
    1712: a5 16        	lda	$16                     ; 0x2016 <__mulsf3+0x848>
    1714: 05 36        	ora	$36                     ; 0x2036 <__mulsf3+0x868>
    1716: 85 16        	sta	$16                     ; 0x2016 <__mulsf3+0x848>
    1718: a5 18        	lda	$18                     ; 0x2018 <__mulsf3+0x84a>
    171a: 05 14        	ora	$14                     ; 0x2014 <__mulsf3+0x846>
    171c: 85 13        	sta	$13                     ; 0x2013 <__mulsf3+0x845>
    171e: a5 3c        	lda	$3c                     ; 0x203c <__mulsf3+0x86e>
    1720: 05 15        	ora	$15                     ; 0x2015 <__mulsf3+0x847>
    1722: e0 05        	cpx	#$5
    1724: 90 19        	bcc	$173f <__addsf3+0xb3d>
    1726: a4 13        	ldy	$13                     ; 0x2013 <__mulsf3+0x845>
    1728: a6 16        	ldx	$16                     ; 0x2016 <__mulsf3+0x848>
    172a: 48           	pha
    172b: a5 17        	lda	$17                     ; 0x2017 <__mulsf3+0x849>
    172d: 85 15        	sta	$15                     ; 0x2015 <__mulsf3+0x847>
    172f: 68           	pla
    1730: e6 15        	inc	$15                     ; 0x2015 <__mulsf3+0x847>
    1732: d0 07        	bne	$173b <__addsf3+0xb39>
    1734: e8           	inx
    1735: d0 04        	bne	$173b <__addsf3+0xb39>
    1737: c8           	iny
    1738: d0 01        	bne	$173b <__addsf3+0xb39>
    173a: 1a           	inc
    173b: 86 14        	stx	$14                     ; 0x2014 <__mulsf3+0x846>
    173d: 80 30        	bra	$176f <__addsf3+0xb6d>
    173f: 86 12        	stx	$12                     ; 0x2012 <__mulsf3+0x844>
    1741: a6 17        	ldx	$17                     ; 0x2017 <__mulsf3+0x849>
    1743: 86 15        	stx	$15                     ; 0x2015 <__mulsf3+0x847>
    1745: a6 16        	ldx	$16                     ; 0x2016 <__mulsf3+0x848>
    1747: 86 14        	stx	$14                     ; 0x2014 <__mulsf3+0x846>
    1749: aa           	tax
    174a: a5 12        	lda	$12                     ; 0x2012 <__mulsf3+0x844>
    174c: c9 04        	cmp	#$4
    174e: d0 1c        	bne	$176c <__addsf3+0xb6a>
    1750: 98           	tya
    1751: 29 01        	and	#$1
    1753: 85 12        	sta	$12                     ; 0x2012 <__mulsf3+0x844>
    1755: 18           	clc
    1756: a5 17        	lda	$17                     ; 0x2017 <__mulsf3+0x849>
    1758: 65 12        	adc	$12                     ; 0x2012 <__mulsf3+0x844>
    175a: 85 15        	sta	$15                     ; 0x2015 <__mulsf3+0x847>
    175c: a5 16        	lda	$16                     ; 0x2016 <__mulsf3+0x848>
    175e: 69 00        	adc	#$0
    1760: 85 14        	sta	$14                     ; 0x2014 <__mulsf3+0x846>
    1762: a5 13        	lda	$13                     ; 0x2013 <__mulsf3+0x845>
    1764: 69 00        	adc	#$0
    1766: a8           	tay
    1767: 8a           	txa
    1768: 69 00        	adc	#$0
    176a: 80 03        	bra	$176f <__addsf3+0xb6d>
    176c: 8a           	txa
    176d: a4 13        	ldy	$13                     ; 0x2013 <__mulsf3+0x845>
    176f: a6 15        	ldx	$15                     ; 0x2015 <__mulsf3+0x847>
    1771: 86 18        	stx	$18                     ; 0x2018 <__mulsf3+0x84a>
    1773: a6 14        	ldx	$14                     ; 0x2014 <__mulsf3+0x846>
    1775: 86 19        	stx	$19                     ; 0x2019 <__mulsf3+0x84b>
    1777: 84 12        	sty	$12                     ; 0x2012 <__mulsf3+0x844>
    1779: 85 13        	sta	$13                     ; 0x2013 <__mulsf3+0x845>
    177b: a6 19        	ldx	$19                     ; 0x2019 <__mulsf3+0x84b>
    177d: a5 18        	lda	$18                     ; 0x2018 <__mulsf3+0x84a>
    177f: 60           	rts
    1780: a6 36        	ldx	$36                     ; 0x2036 <__mulsf3+0x868>
    1782: e0 00        	cpx	#$0
    1784: 90 03        	bcc	$1789 <__addsf3+0xb87>
    1786: 4c df 13     	jmp	$13df <__addsf3+0x7dd>
    1789: 4c 25 14     	jmp	$1425 <__addsf3+0x823>
    178c: a6 15        	ldx	$15                     ; 0x2015 <__mulsf3+0x847>
    178e: a4 1d        	ldy	$1d                     ; 0x201d <__mulsf3+0x84f>
    1790: e6 14        	inc	$14                     ; 0x2014 <__mulsf3+0x846>
    1792: c6 14        	dec	$14                     ; 0x2014 <__mulsf3+0x846>
    1794: d0 10        	bne	$17a6 <__addsf3+0xba4>
    1796: c9 00        	cmp	#$0
    1798: d0 0c        	bne	$17a6 <__addsf3+0xba4>
    179a: e6 15        	inc	$15                     ; 0x2015 <__mulsf3+0x847>
    179c: c6 15        	dec	$15                     ; 0x2015 <__mulsf3+0x847>
    179e: d0 06        	bne	$17a6 <__addsf3+0xba4>
    17a0: e6 1d        	inc	$1d                     ; 0x201d <__mulsf3+0x84f>
    17a2: c6 1d        	dec	$1d                     ; 0x201d <__mulsf3+0x84f>
    17a4: f0 05        	beq	$17ab <__addsf3+0xba9>
    17a6: 84 18        	sty	$18                     ; 0x2018 <__mulsf3+0x84a>
    17a8: 4c c1 0d     	jmp	$dc1 <__addsf3+0x1bf>
    17ab: 85 14        	sta	$14                     ; 0x2014 <__mulsf3+0x846>
    17ad: 98           	tya
    17ae: 25 18        	and	$18                     ; 0x2018 <__mulsf3+0x84a>
    17b0: 85 18        	sta	$18                     ; 0x2018 <__mulsf3+0x84a>
    17b2: 8a           	txa
    17b3: 25 19        	and	$19                     ; 0x2019 <__mulsf3+0x84b>
    17b5: 85 19        	sta	$19                     ; 0x2019 <__mulsf3+0x84b>
    17b7: a5 14        	lda	$14                     ; 0x2014 <__mulsf3+0x846>
    17b9: 25 12        	and	$12                     ; 0x2012 <__mulsf3+0x844>
    17bb: 85 12        	sta	$12                     ; 0x2012 <__mulsf3+0x844>
    17bd: a5 38        	lda	$38                     ; 0x2038 <__mulsf3+0x86a>
    17bf: 25 13        	and	$13                     ; 0x2013 <__mulsf3+0x845>
    17c1: 80 b6        	bra	$1779 <__addsf3+0xb77>

000017c3 <__subsf3>:
    17c3: a8           	tay
    17c4: a5 17        	lda	$17                     ; 0x2017 <__mulsf3+0x849>
    17c6: 49 80        	eor	#$80
    17c8: 85 17        	sta	$17                     ; 0x2017 <__mulsf3+0x849>
    17ca: 98           	tya
    17cb: 4c 02 0c     	jmp	$c02 <__addsf3>

000017ce <__mulsf3>:
    17ce: 85 1b        	sta	$1b                     ; 0x201b <__mulsf3+0x84d>
    17d0: 86 18        	stx	$18                     ; 0x2018 <__mulsf3+0x84a>
    17d2: a6 12        	ldx	$12                     ; 0x2012 <__mulsf3+0x844>
    17d4: 86 19        	stx	$19                     ; 0x2019 <__mulsf3+0x84b>
    17d6: a6 14        	ldx	$14                     ; 0x2014 <__mulsf3+0x846>
    17d8: 86 36        	stx	$36                     ; 0x2036 <__mulsf3+0x868>
    17da: a6 15        	ldx	$15                     ; 0x2015 <__mulsf3+0x847>
    17dc: 86 37        	stx	$37                     ; 0x2037 <__mulsf3+0x869>
    17de: a5 12        	lda	$12                     ; 0x2012 <__mulsf3+0x844>
    17e0: 0a           	asl
    17e1: a6 13        	ldx	$13                     ; 0x2013 <__mulsf3+0x845>
    17e3: 86 14        	stx	$14                     ; 0x2014 <__mulsf3+0x846>
    17e5: 26 14        	rol	$14                     ; 0x2014 <__mulsf3+0x846>
    17e7: a5 16        	lda	$16                     ; 0x2016 <__mulsf3+0x848>
    17e9: a6 17        	ldx	$17                     ; 0x2017 <__mulsf3+0x849>
    17eb: 86 12        	stx	$12                     ; 0x2012 <__mulsf3+0x844>
    17ed: 0a           	asl
    17ee: 26 12        	rol	$12                     ; 0x2012 <__mulsf3+0x844>
    17f0: 18           	clc
    17f1: a6 14        	ldx	$14                     ; 0x2014 <__mulsf3+0x846>
    17f3: 86 3c        	stx	$3c                     ; 0x203c <__mulsf3+0x86e>
    17f5: a5 14        	lda	$14                     ; 0x2014 <__mulsf3+0x846>
    17f7: 69 01        	adc	#$1
    17f9: aa           	tax
    17fa: a9 00        	lda	#$0
    17fc: 69 ff        	adc	#$ff
    17fe: a8           	tay
    17ff: a5 13        	lda	$13                     ; 0x2013 <__mulsf3+0x845>
    1801: 85 15        	sta	$15                     ; 0x2015 <__mulsf3+0x847>
    1803: a5 17        	lda	$17                     ; 0x2017 <__mulsf3+0x849>
    1805: 45 13        	eor	$13                     ; 0x2013 <__mulsf3+0x845>
    1807: 29 80        	and	#$80
    1809: 85 39        	sta	$39                     ; 0x2039 <__mulsf3+0x86b>
    180b: a5 19        	lda	$19                     ; 0x2019 <__mulsf3+0x84b>
    180d: 29 7f        	and	#$7f
    180f: 85 3a        	sta	$3a                     ; 0x203a <__mulsf3+0x86c>
    1811: a5 16        	lda	$16                     ; 0x2016 <__mulsf3+0x848>
    1813: 85 38        	sta	$38                     ; 0x2038 <__mulsf3+0x86a>
    1815: a5 16        	lda	$16                     ; 0x2016 <__mulsf3+0x848>
    1817: 29 7f        	and	#$7f
    1819: 85 3b        	sta	$3b                     ; 0x203b <__mulsf3+0x86d>
    181b: c0 ff        	cpy	#$ff
    181d: d0 04        	bne	$1823 <__mulsf3+0x55>
    181f: e0 02        	cpx	#$2
    1821: 80 02        	bra	$1825 <__mulsf3+0x57>
    1823: c0 ff        	cpy	#$ff
    1825: a6 13        	ldx	$13                     ; 0x2013 <__mulsf3+0x845>
    1827: a5 19        	lda	$19                     ; 0x2019 <__mulsf3+0x84b>
    1829: 90 30        	bcc	$185b <__mulsf3+0x8d>
    182b: 18           	clc
    182c: a5 12        	lda	$12                     ; 0x2012 <__mulsf3+0x844>
    182e: 69 01        	adc	#$1
    1830: a8           	tay
    1831: a2 00        	ldx	#$0
    1833: 8a           	txa
    1834: 69 ff        	adc	#$ff
    1836: c9 ff        	cmp	#$ff
    1838: d0 19        	bne	$1853 <__mulsf3+0x85>
    183a: c0 02        	cpy	#$2
    183c: 90 19        	bcc	$1857 <__mulsf3+0x89>
    183e: a4 1b        	ldy	$1b                     ; 0x201b <__mulsf3+0x84d>
    1840: 84 3f        	sty	$3f                     ; 0x203f <__mulsf3+0x871>
    1842: a4 12        	ldy	$12                     ; 0x2012 <__mulsf3+0x844>
    1844: 84 3e        	sty	$3e                     ; 0x203e <__mulsf3+0x870>
    1846: a0 00        	ldy	#$0
    1848: 84 3d        	sty	$3d                     ; 0x203d <__mulsf3+0x86f>
    184a: 84 40        	sty	$40                     ; 0x2040 <__mulsf3+0x872>
    184c: a4 18        	ldy	$18                     ; 0x2018 <__mulsf3+0x84a>
    184e: 84 14        	sty	$14                     ; 0x2014 <__mulsf3+0x846>
    1850: 4c fc 1d     	jmp	$1dfc <__mulsf3+0x62e>
    1853: c9 ff        	cmp	#$ff
    1855: b0 e7        	bcs	$183e <__mulsf3+0x70>
    1857: a6 13        	ldx	$13                     ; 0x2013 <__mulsf3+0x845>
    1859: a5 19        	lda	$19                     ; 0x2019 <__mulsf3+0x84b>
    185b: 85 14        	sta	$14                     ; 0x2014 <__mulsf3+0x846>
    185d: 8a           	txa
    185e: 29 7f        	and	#$7f
    1860: c9 7f        	cmp	#$7f
    1862: d0 14        	bne	$1878 <__mulsf3+0xaa>
    1864: 85 13        	sta	$13                     ; 0x2013 <__mulsf3+0x845>
    1866: a5 14        	lda	$14                     ; 0x2014 <__mulsf3+0x846>
    1868: c9 80        	cmp	#$80
    186a: d0 42        	bne	$18ae <__mulsf3+0xe0>
    186c: a6 18        	ldx	$18                     ; 0x2018 <__mulsf3+0x84a>
    186e: d0 53        	bne	$18c3 <__mulsf3+0xf5>
    1870: a6 1b        	ldx	$1b                     ; 0x201b <__mulsf3+0x84d>
    1872: e0 01        	cpx	#$1
    1874: 90 0a        	bcc	$1880 <__mulsf3+0xb2>
    1876: 80 3a        	bra	$18b2 <__mulsf3+0xe4>
    1878: 85 13        	sta	$13                     ; 0x2013 <__mulsf3+0x845>
    187a: c9 7f        	cmp	#$7f
    187c: a5 14        	lda	$14                     ; 0x2014 <__mulsf3+0x846>
    187e: b0 32        	bcs	$18b2 <__mulsf3+0xe4>
    1880: a5 17        	lda	$17                     ; 0x2017 <__mulsf3+0x849>
    1882: 29 7f        	and	#$7f
    1884: 85 3d        	sta	$3d                     ; 0x203d <__mulsf3+0x86f>
    1886: c9 7f        	cmp	#$7f
    1888: d0 35        	bne	$18bf <__mulsf3+0xf1>
    188a: a6 16        	ldx	$16                     ; 0x2016 <__mulsf3+0x848>
    188c: e0 80        	cpx	#$80
    188e: d0 3b        	bne	$18cb <__mulsf3+0xfd>
    1890: a5 19        	lda	$19                     ; 0x2019 <__mulsf3+0x84b>
    1892: a6 37        	ldx	$37                     ; 0x2037 <__mulsf3+0x869>
    1894: f0 03        	beq	$1899 <__mulsf3+0xcb>
    1896: 4c 9d 19     	jmp	$199d <__mulsf3+0x1cf>
    1899: a6 36        	ldx	$36                     ; 0x2036 <__mulsf3+0x868>
    189b: e0 01        	cpx	#$1
    189d: 90 32        	bcc	$18d1 <__mulsf3+0x103>
    189f: a5 16        	lda	$16                     ; 0x2016 <__mulsf3+0x848>
    18a1: 09 40        	ora	#$40
    18a3: a6 36        	ldx	$36                     ; 0x2036 <__mulsf3+0x868>
    18a5: 86 14        	stx	$14                     ; 0x2014 <__mulsf3+0x846>
    18a7: a4 37        	ldy	$37                     ; 0x2037 <__mulsf3+0x869>
    18a9: a6 17        	ldx	$17                     ; 0x2017 <__mulsf3+0x849>
    18ab: 4c 7d 20     	jmp	$207d <__mulsf3+0x8af>
    18ae: c9 80        	cmp	#$80
    18b0: 90 ce        	bcc	$1880 <__mulsf3+0xb2>
    18b2: a6 1b        	ldx	$1b                     ; 0x201b <__mulsf3+0x84d>
    18b4: 86 14        	stx	$14                     ; 0x2014 <__mulsf3+0x846>
    18b6: 09 40        	ora	#$40
    18b8: a4 18        	ldy	$18                     ; 0x2018 <__mulsf3+0x84a>
    18ba: a6 15        	ldx	$15                     ; 0x2015 <__mulsf3+0x847>
    18bc: 4c 7d 20     	jmp	$207d <__mulsf3+0x8af>
    18bf: c9 7f        	cmp	#$7f
    18c1: 80 0a        	bra	$18cd <__mulsf3+0xff>
    18c3: a6 18        	ldx	$18                     ; 0x2018 <__mulsf3+0x84a>
    18c5: e0 00        	cpx	#$0
    18c7: 90 b7        	bcc	$1880 <__mulsf3+0xb2>
    18c9: 80 e7        	bra	$18b2 <__mulsf3+0xe4>
    18cb: e0 80        	cpx	#$80
    18cd: a5 19        	lda	$19                     ; 0x2019 <__mulsf3+0x84b>
    18cf: b0 ce        	bcs	$189f <__mulsf3+0xd1>
    18d1: a6 13        	ldx	$13                     ; 0x2013 <__mulsf3+0x845>
    18d3: 86 16        	stx	$16                     ; 0x2016 <__mulsf3+0x848>
    18d5: e0 7f        	cpx	#$7f
    18d7: d0 2c        	bne	$1905 <__mulsf3+0x137>
    18d9: c9 80        	cmp	#$80
    18db: d0 28        	bne	$1905 <__mulsf3+0x137>
    18dd: a6 18        	ldx	$18                     ; 0x2018 <__mulsf3+0x84a>
    18df: d0 24        	bne	$1905 <__mulsf3+0x137>
    18e1: a6 1b        	ldx	$1b                     ; 0x201b <__mulsf3+0x84d>
    18e3: d0 20        	bne	$1905 <__mulsf3+0x137>
    18e5: a6 3d        	ldx	$3d                     ; 0x203d <__mulsf3+0x86f>
    18e7: 86 12        	stx	$12                     ; 0x2012 <__mulsf3+0x844>
    18e9: a5 12        	lda	$12                     ; 0x2012 <__mulsf3+0x844>
    18eb: f0 03        	beq	$18f0 <__mulsf3+0x122>
    18ed: 4c db 1e     	jmp	$1edb <__mulsf3+0x70d>
    18f0: a5 38        	lda	$38                     ; 0x2038 <__mulsf3+0x86a>
    18f2: f0 03        	beq	$18f7 <__mulsf3+0x129>
    18f4: 4c db 1e     	jmp	$1edb <__mulsf3+0x70d>
    18f7: a5 37        	lda	$37                     ; 0x2037 <__mulsf3+0x869>
    18f9: f0 03        	beq	$18fe <__mulsf3+0x130>
    18fb: 4c db 1e     	jmp	$1edb <__mulsf3+0x70d>
    18fe: a5 36        	lda	$36                     ; 0x2036 <__mulsf3+0x868>
    1900: f0 33        	beq	$1935 <__mulsf3+0x167>
    1902: 4c db 1e     	jmp	$1edb <__mulsf3+0x70d>
    1905: a6 3d        	ldx	$3d                     ; 0x203d <__mulsf3+0x86f>
    1907: e0 7f        	cpx	#$7f
    1909: d0 35        	bne	$1940 <__mulsf3+0x172>
    190b: a6 38        	ldx	$38                     ; 0x2038 <__mulsf3+0x86a>
    190d: e0 80        	cpx	#$80
    190f: d0 2f        	bne	$1940 <__mulsf3+0x172>
    1911: a6 37        	ldx	$37                     ; 0x2037 <__mulsf3+0x869>
    1913: d0 2b        	bne	$1940 <__mulsf3+0x172>
    1915: a6 36        	ldx	$36                     ; 0x2036 <__mulsf3+0x868>
    1917: d0 27        	bne	$1940 <__mulsf3+0x172>
    1919: a4 1b        	ldy	$1b                     ; 0x201b <__mulsf3+0x84d>
    191b: a6 16        	ldx	$16                     ; 0x2016 <__mulsf3+0x848>
    191d: f0 03        	beq	$1922 <__mulsf3+0x154>
    191f: 4c db 1e     	jmp	$1edb <__mulsf3+0x70d>
    1922: aa           	tax
    1923: f0 03        	beq	$1928 <__mulsf3+0x15a>
    1925: 4c db 1e     	jmp	$1edb <__mulsf3+0x70d>
    1928: a5 18        	lda	$18                     ; 0x2018 <__mulsf3+0x84a>
    192a: f0 03        	beq	$192f <__mulsf3+0x161>
    192c: 4c db 1e     	jmp	$1edb <__mulsf3+0x70d>
    192f: 98           	tya
    1930: f0 03        	beq	$1935 <__mulsf3+0x167>
    1932: 4c db 1e     	jmp	$1edb <__mulsf3+0x70d>
    1935: a9 c0        	lda	#$c0
    1937: a2 7f        	ldx	#$7f
    1939: 64 14        	stz	$14                     ; 0x2014 <__mulsf3+0x846>
    193b: a0 00        	ldy	#$0
    193d: 4c 7d 20     	jmp	$207d <__mulsf3+0x8af>
    1940: a6 18        	ldx	$18                     ; 0x2018 <__mulsf3+0x84a>
    1942: a4 16        	ldy	$16                     ; 0x2016 <__mulsf3+0x848>
    1944: 84 13        	sty	$13                     ; 0x2013 <__mulsf3+0x845>
    1946: a4 1b        	ldy	$1b                     ; 0x201b <__mulsf3+0x84d>
    1948: 84 14        	sty	$14                     ; 0x2014 <__mulsf3+0x846>
    194a: a4 13        	ldy	$13                     ; 0x2013 <__mulsf3+0x845>
    194c: d0 0d        	bne	$195b <__mulsf3+0x18d>
    194e: a8           	tay
    194f: d0 0a        	bne	$195b <__mulsf3+0x18d>
    1951: 8a           	txa
    1952: d0 07        	bne	$195b <__mulsf3+0x18d>
    1954: a5 14        	lda	$14                     ; 0x2014 <__mulsf3+0x846>
    1956: d0 03        	bne	$195b <__mulsf3+0x18d>
    1958: 4c 3a 1f     	jmp	$1f3a <__mulsf3+0x76c>
    195b: a6 36        	ldx	$36                     ; 0x2036 <__mulsf3+0x868>
    195d: a4 37        	ldy	$37                     ; 0x2037 <__mulsf3+0x869>
    195f: 84 13        	sty	$13                     ; 0x2013 <__mulsf3+0x845>
    1961: a4 38        	ldy	$38                     ; 0x2038 <__mulsf3+0x86a>
    1963: 84 14        	sty	$14                     ; 0x2014 <__mulsf3+0x846>
    1965: a5 3d        	lda	$3d                     ; 0x203d <__mulsf3+0x86f>
    1967: 85 15        	sta	$15                     ; 0x2015 <__mulsf3+0x847>
    1969: a5 15        	lda	$15                     ; 0x2015 <__mulsf3+0x847>
    196b: d0 0e        	bne	$197b <__mulsf3+0x1ad>
    196d: a5 14        	lda	$14                     ; 0x2014 <__mulsf3+0x846>
    196f: d0 0a        	bne	$197b <__mulsf3+0x1ad>
    1971: a5 13        	lda	$13                     ; 0x2013 <__mulsf3+0x845>
    1973: d0 06        	bne	$197b <__mulsf3+0x1ad>
    1975: 8a           	txa
    1976: d0 03        	bne	$197b <__mulsf3+0x1ad>
    1978: 4c 3a 1f     	jmp	$1f3a <__mulsf3+0x76c>
    197b: a5 16        	lda	$16                     ; 0x2016 <__mulsf3+0x848>
    197d: d0 16        	bne	$1995 <__mulsf3+0x1c7>
    197f: a6 19        	ldx	$19                     ; 0x2019 <__mulsf3+0x84b>
    1981: e0 80        	cpx	#$80
    1983: d0 24        	bne	$19a9 <__mulsf3+0x1db>
    1985: a6 18        	ldx	$18                     ; 0x2018 <__mulsf3+0x84a>
    1987: a5 38        	lda	$38                     ; 0x2038 <__mulsf3+0x86a>
    1989: a4 18        	ldy	$18                     ; 0x2018 <__mulsf3+0x84a>
    198b: d0 35        	bne	$19c2 <__mulsf3+0x1f4>
    198d: a4 1b        	ldy	$1b                     ; 0x201b <__mulsf3+0x84d>
    198f: c0 00        	cpy	#$0
    1991: b0 1e        	bcs	$19b1 <__mulsf3+0x1e3>
    1993: 80 31        	bra	$19c6 <__mulsf3+0x1f8>
    1995: a6 16        	ldx	$16                     ; 0x2016 <__mulsf3+0x848>
    1997: e0 00        	cpx	#$0
    1999: b0 12        	bcs	$19ad <__mulsf3+0x1df>
    199b: 80 29        	bra	$19c6 <__mulsf3+0x1f8>
    199d: a6 37        	ldx	$37                     ; 0x2037 <__mulsf3+0x869>
    199f: e0 00        	cpx	#$0
    19a1: 90 03        	bcc	$19a6 <__mulsf3+0x1d8>
    19a3: 4c 9f 18     	jmp	$189f <__mulsf3+0xd1>
    19a6: 4c d1 18     	jmp	$18d1 <__mulsf3+0x103>
    19a9: e0 80        	cpx	#$80
    19ab: 90 19        	bcc	$19c6 <__mulsf3+0x1f8>
    19ad: a6 18        	ldx	$18                     ; 0x2018 <__mulsf3+0x84a>
    19af: a5 38        	lda	$38                     ; 0x2038 <__mulsf3+0x86a>
    19b1: 86 14        	stx	$14                     ; 0x2014 <__mulsf3+0x846>
    19b3: a4 1b        	ldy	$1b                     ; 0x201b <__mulsf3+0x84d>
    19b5: 84 3f        	sty	$3f                     ; 0x203f <__mulsf3+0x871>
    19b7: a2 00        	ldx	#$0
    19b9: a0 00        	ldy	#$0
    19bb: 84 41        	sty	$41                     ; 0x2041 <__mulsf3+0x873>
    19bd: 84 40        	sty	$40                     ; 0x2040 <__mulsf3+0x872>
    19bf: 4c bc 1b     	jmp	$1bbc <__mulsf3+0x3ee>
    19c2: e0 00        	cpx	#$0
    19c4: b0 eb        	bcs	$19b1 <__mulsf3+0x1e3>
    19c6: a6 12        	ldx	$12                     ; 0x2012 <__mulsf3+0x844>
    19c8: 86 3e        	stx	$3e                     ; 0x203e <__mulsf3+0x870>
    19ca: a6 3a        	ldx	$3a                     ; 0x203a <__mulsf3+0x86c>
    19cc: 86 16        	stx	$16                     ; 0x2016 <__mulsf3+0x848>
    19ce: 8a           	txa
    19cf: 4a           	lsr
    19d0: 85 12        	sta	$12                     ; 0x2012 <__mulsf3+0x844>
    19d2: a6 18        	ldx	$18                     ; 0x2018 <__mulsf3+0x84a>
    19d4: a5 18        	lda	$18                     ; 0x2018 <__mulsf3+0x84a>
    19d6: 6a           	ror
    19d7: 85 13        	sta	$13                     ; 0x2013 <__mulsf3+0x845>
    19d9: a5 1b        	lda	$1b                     ; 0x201b <__mulsf3+0x84d>
    19db: 6a           	ror
    19dc: 85 14        	sta	$14                     ; 0x2014 <__mulsf3+0x846>
    19de: a5 1b        	lda	$1b                     ; 0x201b <__mulsf3+0x84d>
    19e0: 05 14        	ora	$14                     ; 0x2014 <__mulsf3+0x846>
    19e2: 85 17        	sta	$17                     ; 0x2017 <__mulsf3+0x849>
    19e4: a5 18        	lda	$18                     ; 0x2018 <__mulsf3+0x84a>
    19e6: 05 13        	ora	$13                     ; 0x2013 <__mulsf3+0x845>
    19e8: 85 15        	sta	$15                     ; 0x2015 <__mulsf3+0x847>
    19ea: a5 16        	lda	$16                     ; 0x2016 <__mulsf3+0x848>
    19ec: 05 12        	ora	$12                     ; 0x2012 <__mulsf3+0x844>
    19ee: 85 18        	sta	$18                     ; 0x2018 <__mulsf3+0x84a>
    19f0: 4a           	lsr
    19f1: a4 15        	ldy	$15                     ; 0x2015 <__mulsf3+0x847>
    19f3: 84 12        	sty	$12                     ; 0x2012 <__mulsf3+0x844>
    19f5: 66 12        	ror	$12                     ; 0x2012 <__mulsf3+0x844>
    19f7: a4 17        	ldy	$17                     ; 0x2017 <__mulsf3+0x849>
    19f9: 84 13        	sty	$13                     ; 0x2013 <__mulsf3+0x845>
    19fb: 66 13        	ror	$13                     ; 0x2013 <__mulsf3+0x845>
    19fd: 4a           	lsr
    19fe: 85 14        	sta	$14                     ; 0x2014 <__mulsf3+0x846>
    1a00: 66 12        	ror	$12                     ; 0x2012 <__mulsf3+0x844>
    1a02: 66 13        	ror	$13                     ; 0x2013 <__mulsf3+0x845>
    1a04: a5 17        	lda	$17                     ; 0x2017 <__mulsf3+0x849>
    1a06: 05 13        	ora	$13                     ; 0x2013 <__mulsf3+0x845>
    1a08: 85 17        	sta	$17                     ; 0x2017 <__mulsf3+0x849>
    1a0a: a5 15        	lda	$15                     ; 0x2015 <__mulsf3+0x847>
    1a0c: 05 12        	ora	$12                     ; 0x2012 <__mulsf3+0x844>
    1a0e: 85 15        	sta	$15                     ; 0x2015 <__mulsf3+0x847>
    1a10: a5 18        	lda	$18                     ; 0x2018 <__mulsf3+0x84a>
    1a12: 05 14        	ora	$14                     ; 0x2014 <__mulsf3+0x846>
    1a14: 85 18        	sta	$18                     ; 0x2018 <__mulsf3+0x84a>
    1a16: 4a           	lsr
    1a17: a4 15        	ldy	$15                     ; 0x2015 <__mulsf3+0x847>
    1a19: 84 12        	sty	$12                     ; 0x2012 <__mulsf3+0x844>
    1a1b: 66 12        	ror	$12                     ; 0x2012 <__mulsf3+0x844>
    1a1d: a4 17        	ldy	$17                     ; 0x2017 <__mulsf3+0x849>
    1a1f: 84 13        	sty	$13                     ; 0x2013 <__mulsf3+0x845>
    1a21: 66 13        	ror	$13                     ; 0x2013 <__mulsf3+0x845>
    1a23: 4a           	lsr
    1a24: 66 12        	ror	$12                     ; 0x2012 <__mulsf3+0x844>
    1a26: 66 13        	ror	$13                     ; 0x2013 <__mulsf3+0x845>
    1a28: 4a           	lsr
    1a29: 66 12        	ror	$12                     ; 0x2012 <__mulsf3+0x844>
    1a2b: 66 13        	ror	$13                     ; 0x2013 <__mulsf3+0x845>
    1a2d: 4a           	lsr
    1a2e: 85 14        	sta	$14                     ; 0x2014 <__mulsf3+0x846>
    1a30: 66 12        	ror	$12                     ; 0x2012 <__mulsf3+0x844>
    1a32: 66 13        	ror	$13                     ; 0x2013 <__mulsf3+0x845>
    1a34: a5 17        	lda	$17                     ; 0x2017 <__mulsf3+0x849>
    1a36: 05 13        	ora	$13                     ; 0x2013 <__mulsf3+0x845>
    1a38: 85 17        	sta	$17                     ; 0x2017 <__mulsf3+0x849>
    1a3a: a5 15        	lda	$15                     ; 0x2015 <__mulsf3+0x847>
    1a3c: 05 12        	ora	$12                     ; 0x2012 <__mulsf3+0x844>
    1a3e: 85 13        	sta	$13                     ; 0x2013 <__mulsf3+0x845>
    1a40: a5 18        	lda	$18                     ; 0x2018 <__mulsf3+0x84a>
    1a42: 05 14        	ora	$14                     ; 0x2014 <__mulsf3+0x846>
    1a44: a8           	tay
    1a45: a5 17        	lda	$17                     ; 0x2017 <__mulsf3+0x849>
    1a47: 05 13        	ora	$13                     ; 0x2013 <__mulsf3+0x845>
    1a49: 85 14        	sta	$14                     ; 0x2014 <__mulsf3+0x846>
    1a4b: 84 12        	sty	$12                     ; 0x2012 <__mulsf3+0x844>
    1a4d: a5 13        	lda	$13                     ; 0x2013 <__mulsf3+0x845>
    1a4f: 05 12        	ora	$12                     ; 0x2012 <__mulsf3+0x844>
    1a51: 85 15        	sta	$15                     ; 0x2015 <__mulsf3+0x847>
    1a53: a5 14        	lda	$14                     ; 0x2014 <__mulsf3+0x846>
    1a55: 05 12        	ora	$12                     ; 0x2012 <__mulsf3+0x844>
    1a57: 85 17        	sta	$17                     ; 0x2017 <__mulsf3+0x849>
    1a59: 84 14        	sty	$14                     ; 0x2014 <__mulsf3+0x846>
    1a5b: 84 18        	sty	$18                     ; 0x2018 <__mulsf3+0x84a>
    1a5d: 46 14        	lsr	$14                     ; 0x2014 <__mulsf3+0x846>
    1a5f: 4a           	lsr
    1a60: 29 55        	and	#$55
    1a62: 85 12        	sta	$12                     ; 0x2012 <__mulsf3+0x844>
    1a64: a5 15        	lda	$15                     ; 0x2015 <__mulsf3+0x847>
    1a66: 4a           	lsr
    1a67: 29 55        	and	#$55
    1a69: 85 13        	sta	$13                     ; 0x2013 <__mulsf3+0x845>
    1a6b: a5 14        	lda	$14                     ; 0x2014 <__mulsf3+0x846>
    1a6d: 29 55        	and	#$55
    1a6f: 85 14        	sta	$14                     ; 0x2014 <__mulsf3+0x846>
    1a71: 38           	sec
    1a72: a5 17        	lda	$17                     ; 0x2017 <__mulsf3+0x849>
    1a74: e5 12        	sbc	$12                     ; 0x2012 <__mulsf3+0x844>
    1a76: a8           	tay
    1a77: a5 15        	lda	$15                     ; 0x2015 <__mulsf3+0x847>
    1a79: e5 13        	sbc	$13                     ; 0x2013 <__mulsf3+0x845>
    1a7b: 85 13        	sta	$13                     ; 0x2013 <__mulsf3+0x845>
    1a7d: a5 18        	lda	$18                     ; 0x2018 <__mulsf3+0x84a>
    1a7f: e5 14        	sbc	$14                     ; 0x2014 <__mulsf3+0x846>
    1a81: 85 14        	sta	$14                     ; 0x2014 <__mulsf3+0x846>
    1a83: a9 00        	lda	#$0
    1a85: e9 00        	sbc	#$0
    1a87: 85 15        	sta	$15                     ; 0x2015 <__mulsf3+0x847>
    1a89: 98           	tya
    1a8a: 29 33        	and	#$33
    1a8c: 85 12        	sta	$12                     ; 0x2012 <__mulsf3+0x844>
    1a8e: a5 13        	lda	$13                     ; 0x2013 <__mulsf3+0x845>
    1a90: 85 18        	sta	$18                     ; 0x2018 <__mulsf3+0x84a>
    1a92: 29 33        	and	#$33
    1a94: 85 13        	sta	$13                     ; 0x2013 <__mulsf3+0x845>
    1a96: a5 14        	lda	$14                     ; 0x2014 <__mulsf3+0x846>
    1a98: 85 19        	sta	$19                     ; 0x2019 <__mulsf3+0x84b>
    1a9a: 29 33        	and	#$33
    1a9c: 85 14        	sta	$14                     ; 0x2014 <__mulsf3+0x846>
    1a9e: a5 15        	lda	$15                     ; 0x2015 <__mulsf3+0x847>
    1aa0: 4a           	lsr
    1aa1: 85 1a        	sta	$1a                     ; 0x201a <__mulsf3+0x84c>
    1aa3: 46 19        	lsr	$19                     ; 0x2019 <__mulsf3+0x84b>
    1aa5: 46 18        	lsr	$18                     ; 0x2018 <__mulsf3+0x84a>
    1aa7: 98           	tya
    1aa8: 4a           	lsr
    1aa9: 46 1a        	lsr	$1a                     ; 0x201a <__mulsf3+0x84c>
    1aab: 46 19        	lsr	$19                     ; 0x2019 <__mulsf3+0x84b>
    1aad: a4 18        	ldy	$18                     ; 0x2018 <__mulsf3+0x84a>
    1aaf: 84 17        	sty	$17                     ; 0x2017 <__mulsf3+0x849>
    1ab1: 46 17        	lsr	$17                     ; 0x2017 <__mulsf3+0x849>
    1ab3: 4a           	lsr
    1ab4: 29 33        	and	#$33
    1ab6: a8           	tay
    1ab7: a5 17        	lda	$17                     ; 0x2017 <__mulsf3+0x849>
    1ab9: 29 33        	and	#$33
    1abb: 85 17        	sta	$17                     ; 0x2017 <__mulsf3+0x849>
    1abd: a5 19        	lda	$19                     ; 0x2019 <__mulsf3+0x84b>
    1abf: 29 33        	and	#$33
    1ac1: 85 18        	sta	$18                     ; 0x2018 <__mulsf3+0x84a>
    1ac3: a5 1a        	lda	$1a                     ; 0x201a <__mulsf3+0x84c>
    1ac5: 29 33        	and	#$33
    1ac7: 85 19        	sta	$19                     ; 0x2019 <__mulsf3+0x84b>
    1ac9: a5 15        	lda	$15                     ; 0x2015 <__mulsf3+0x847>
    1acb: 29 33        	and	#$33
    1acd: 85 15        	sta	$15                     ; 0x2015 <__mulsf3+0x847>
    1acf: 18           	clc
    1ad0: 98           	tya
    1ad1: 65 12        	adc	$12                     ; 0x2012 <__mulsf3+0x844>
    1ad3: 85 12        	sta	$12                     ; 0x2012 <__mulsf3+0x844>
    1ad5: a5 17        	lda	$17                     ; 0x2017 <__mulsf3+0x849>
    1ad7: 65 13        	adc	$13                     ; 0x2013 <__mulsf3+0x845>
    1ad9: 85 13        	sta	$13                     ; 0x2013 <__mulsf3+0x845>
    1adb: a5 18        	lda	$18                     ; 0x2018 <__mulsf3+0x84a>
    1add: 65 14        	adc	$14                     ; 0x2014 <__mulsf3+0x846>
    1adf: 85 14        	sta	$14                     ; 0x2014 <__mulsf3+0x846>
    1ae1: a5 19        	lda	$19                     ; 0x2019 <__mulsf3+0x84b>
    1ae3: 65 15        	adc	$15                     ; 0x2015 <__mulsf3+0x847>
    1ae5: 85 15        	sta	$15                     ; 0x2015 <__mulsf3+0x847>
    1ae7: 4a           	lsr
    1ae8: 85 17        	sta	$17                     ; 0x2017 <__mulsf3+0x849>
    1aea: a5 14        	lda	$14                     ; 0x2014 <__mulsf3+0x846>
    1aec: 6a           	ror
    1aed: a4 13        	ldy	$13                     ; 0x2013 <__mulsf3+0x845>
    1aef: 84 18        	sty	$18                     ; 0x2018 <__mulsf3+0x84a>
    1af1: 66 18        	ror	$18                     ; 0x2018 <__mulsf3+0x84a>
    1af3: a4 12        	ldy	$12                     ; 0x2012 <__mulsf3+0x844>
    1af5: 84 19        	sty	$19                     ; 0x2019 <__mulsf3+0x84b>
    1af7: 66 19        	ror	$19                     ; 0x2019 <__mulsf3+0x84b>
    1af9: 46 17        	lsr	$17                     ; 0x2017 <__mulsf3+0x849>
    1afb: 6a           	ror
    1afc: 66 18        	ror	$18                     ; 0x2018 <__mulsf3+0x84a>
    1afe: 66 19        	ror	$19                     ; 0x2019 <__mulsf3+0x84b>
    1b00: 46 17        	lsr	$17                     ; 0x2017 <__mulsf3+0x849>
    1b02: 6a           	ror
    1b03: 66 18        	ror	$18                     ; 0x2018 <__mulsf3+0x84a>
    1b05: 66 19        	ror	$19                     ; 0x2019 <__mulsf3+0x84b>
    1b07: 46 17        	lsr	$17                     ; 0x2017 <__mulsf3+0x849>
    1b09: 6a           	ror
    1b0a: a8           	tay
    1b0b: a5 18        	lda	$18                     ; 0x2018 <__mulsf3+0x84a>
    1b0d: 85 1a        	sta	$1a                     ; 0x201a <__mulsf3+0x84c>
    1b0f: 66 1a        	ror	$1a                     ; 0x201a <__mulsf3+0x84c>
    1b11: a5 19        	lda	$19                     ; 0x2019 <__mulsf3+0x84b>
    1b13: 6a           	ror
    1b14: 18           	clc
    1b15: 65 12        	adc	$12                     ; 0x2012 <__mulsf3+0x844>
    1b17: 85 12        	sta	$12                     ; 0x2012 <__mulsf3+0x844>
    1b19: a5 1a        	lda	$1a                     ; 0x201a <__mulsf3+0x84c>
    1b1b: 65 13        	adc	$13                     ; 0x2013 <__mulsf3+0x845>
    1b1d: 85 13        	sta	$13                     ; 0x2013 <__mulsf3+0x845>
    1b1f: 98           	tya
    1b20: 65 14        	adc	$14                     ; 0x2014 <__mulsf3+0x846>
    1b22: a8           	tay
    1b23: a5 17        	lda	$17                     ; 0x2017 <__mulsf3+0x849>
    1b25: 65 15        	adc	$15                     ; 0x2015 <__mulsf3+0x847>
    1b27: 85 15        	sta	$15                     ; 0x2015 <__mulsf3+0x847>
    1b29: a5 12        	lda	$12                     ; 0x2012 <__mulsf3+0x844>
    1b2b: 29 0f        	and	#$f
    1b2d: 85 12        	sta	$12                     ; 0x2012 <__mulsf3+0x844>
    1b2f: 85 19        	sta	$19                     ; 0x2019 <__mulsf3+0x84b>
    1b31: a5 13        	lda	$13                     ; 0x2013 <__mulsf3+0x845>
    1b33: 29 0f        	and	#$f
    1b35: 85 13        	sta	$13                     ; 0x2013 <__mulsf3+0x845>
    1b37: 85 18        	sta	$18                     ; 0x2018 <__mulsf3+0x84a>
    1b39: 98           	tya
    1b3a: 29 0f        	and	#$f
    1b3c: 85 14        	sta	$14                     ; 0x2014 <__mulsf3+0x846>
    1b3e: 85 1a        	sta	$1a                     ; 0x201a <__mulsf3+0x84c>
    1b40: a5 15        	lda	$15                     ; 0x2015 <__mulsf3+0x847>
    1b42: 29 0f        	and	#$f
    1b44: 85 17        	sta	$17                     ; 0x2017 <__mulsf3+0x849>
    1b46: 18           	clc
    1b47: a5 19        	lda	$19                     ; 0x2019 <__mulsf3+0x84b>
    1b49: 69 00        	adc	#$0
    1b4b: 85 15        	sta	$15                     ; 0x2015 <__mulsf3+0x847>
    1b4d: 85 19        	sta	$19                     ; 0x2019 <__mulsf3+0x84b>
    1b4f: a5 18        	lda	$18                     ; 0x2018 <__mulsf3+0x84a>
    1b51: 65 12        	adc	$12                     ; 0x2012 <__mulsf3+0x844>
    1b53: 85 12        	sta	$12                     ; 0x2012 <__mulsf3+0x844>
    1b55: a8           	tay
    1b56: a5 1a        	lda	$1a                     ; 0x201a <__mulsf3+0x84c>
    1b58: 65 13        	adc	$13                     ; 0x2013 <__mulsf3+0x845>
    1b5a: 85 18        	sta	$18                     ; 0x2018 <__mulsf3+0x84a>
    1b5c: a5 17        	lda	$17                     ; 0x2017 <__mulsf3+0x849>
    1b5e: 65 14        	adc	$14                     ; 0x2014 <__mulsf3+0x846>
    1b60: 85 13        	sta	$13                     ; 0x2013 <__mulsf3+0x845>
    1b62: 18           	clc
    1b63: a5 19        	lda	$19                     ; 0x2019 <__mulsf3+0x84b>
    1b65: 69 00        	adc	#$0
    1b67: 98           	tya
    1b68: 69 00        	adc	#$0
    1b6a: a5 18        	lda	$18                     ; 0x2018 <__mulsf3+0x84a>
    1b6c: 65 15        	adc	$15                     ; 0x2015 <__mulsf3+0x847>
    1b6e: a5 13        	lda	$13                     ; 0x2013 <__mulsf3+0x845>
    1b70: 65 12        	adc	$12                     ; 0x2012 <__mulsf3+0x844>
    1b72: 85 12        	sta	$12                     ; 0x2012 <__mulsf3+0x844>
    1b74: a9 20        	lda	#$20
    1b76: 38           	sec
    1b77: e5 12        	sbc	$12                     ; 0x2012 <__mulsf3+0x844>
    1b79: a8           	tay
    1b7a: a9 00        	lda	#$0
    1b7c: e9 00        	sbc	#$0
    1b7e: 85 14        	sta	$14                     ; 0x2014 <__mulsf3+0x846>
    1b80: 64 13        	stz	$13                     ; 0x2013 <__mulsf3+0x845>
    1b82: 98           	tya
    1b83: 84 41        	sty	$41                     ; 0x2041 <__mulsf3+0x873>
    1b85: a4 14        	ldy	$14                     ; 0x2014 <__mulsf3+0x846>
    1b87: 84 40        	sty	$40                     ; 0x2040 <__mulsf3+0x872>
    1b89: 18           	clc
    1b8a: 69 f8        	adc	#$f8
    1b8c: 85 14        	sta	$14                     ; 0x2014 <__mulsf3+0x846>
    1b8e: a4 16        	ldy	$16                     ; 0x2016 <__mulsf3+0x848>
    1b90: 84 12        	sty	$12                     ; 0x2012 <__mulsf3+0x844>
    1b92: a5 1b        	lda	$1b                     ; 0x201b <__mulsf3+0x84d>
    1b94: 20 6c 0a     	jsr	$a6c <__ashlsi3>
    1b97: 85 3f        	sta	$3f                     ; 0x203f <__mulsf3+0x871>
    1b99: 86 14        	stx	$14                     ; 0x2014 <__mulsf3+0x846>
    1b9b: a6 12        	ldx	$12                     ; 0x2012 <__mulsf3+0x844>
    1b9d: 86 3a        	stx	$3a                     ; 0x203a <__mulsf3+0x86c>
    1b9f: a6 13        	ldx	$13                     ; 0x2013 <__mulsf3+0x845>
    1ba1: a9 09        	lda	#$9
    1ba3: a4 41        	ldy	$41                     ; 0x2041 <__mulsf3+0x873>
    1ba5: 84 12        	sty	$12                     ; 0x2012 <__mulsf3+0x844>
    1ba7: 38           	sec
    1ba8: e5 12        	sbc	$12                     ; 0x2012 <__mulsf3+0x844>
    1baa: 85 41        	sta	$41                     ; 0x2041 <__mulsf3+0x873>
    1bac: a9 00        	lda	#$0
    1bae: a4 40        	ldy	$40                     ; 0x2040 <__mulsf3+0x872>
    1bb0: 84 12        	sty	$12                     ; 0x2012 <__mulsf3+0x844>
    1bb2: e5 12        	sbc	$12                     ; 0x2012 <__mulsf3+0x844>
    1bb4: 85 40        	sta	$40                     ; 0x2040 <__mulsf3+0x872>
    1bb6: a4 3e        	ldy	$3e                     ; 0x203e <__mulsf3+0x870>
    1bb8: 84 12        	sty	$12                     ; 0x2012 <__mulsf3+0x844>
    1bba: a5 38        	lda	$38                     ; 0x2038 <__mulsf3+0x86a>
    1bbc: a4 3d        	ldy	$3d                     ; 0x203d <__mulsf3+0x86f>
    1bbe: f0 03        	beq	$1bc3 <__mulsf3+0x3f5>
    1bc0: 4c e9 1d     	jmp	$1de9 <__mulsf3+0x61b>
    1bc3: c9 80        	cmp	#$80
    1bc5: d0 0c        	bne	$1bd3 <__mulsf3+0x405>
    1bc7: a5 37        	lda	$37                     ; 0x2037 <__mulsf3+0x869>
    1bc9: f0 03        	beq	$1bce <__mulsf3+0x400>
    1bcb: 4c e7 1d     	jmp	$1de7 <__mulsf3+0x619>
    1bce: a4 36        	ldy	$36                     ; 0x2036 <__mulsf3+0x868>
    1bd0: 4c e9 1d     	jmp	$1de9 <__mulsf3+0x61b>
    1bd3: c9 80        	cmp	#$80
    1bd5: 90 03        	bcc	$1bda <__mulsf3+0x40c>
    1bd7: 4c f0 1d     	jmp	$1df0 <__mulsf3+0x622>
    1bda: a5 14        	lda	$14                     ; 0x2014 <__mulsf3+0x846>
    1bdc: 85 43        	sta	$43                     ; 0x2043 <__mulsf3+0x875>
    1bde: a4 12        	ldy	$12                     ; 0x2012 <__mulsf3+0x844>
    1be0: 84 3e        	sty	$3e                     ; 0x203e <__mulsf3+0x870>
    1be2: 86 42        	stx	$42                     ; 0x2042 <__mulsf3+0x874>
    1be4: a4 3b        	ldy	$3b                     ; 0x203b <__mulsf3+0x86d>
    1be6: 98           	tya
    1be7: 4a           	lsr
    1be8: 85 12        	sta	$12                     ; 0x2012 <__mulsf3+0x844>
    1bea: a6 37        	ldx	$37                     ; 0x2037 <__mulsf3+0x869>
    1bec: a5 37        	lda	$37                     ; 0x2037 <__mulsf3+0x869>
    1bee: 6a           	ror
    1bef: 85 13        	sta	$13                     ; 0x2013 <__mulsf3+0x845>
    1bf1: a5 36        	lda	$36                     ; 0x2036 <__mulsf3+0x868>
    1bf3: 6a           	ror
    1bf4: 85 14        	sta	$14                     ; 0x2014 <__mulsf3+0x846>
    1bf6: a5 36        	lda	$36                     ; 0x2036 <__mulsf3+0x868>
    1bf8: 05 14        	ora	$14                     ; 0x2014 <__mulsf3+0x846>
    1bfa: 85 16        	sta	$16                     ; 0x2016 <__mulsf3+0x848>
    1bfc: a5 37        	lda	$37                     ; 0x2037 <__mulsf3+0x869>
    1bfe: 05 13        	ora	$13                     ; 0x2013 <__mulsf3+0x845>
    1c00: 85 15        	sta	$15                     ; 0x2015 <__mulsf3+0x847>
    1c02: 98           	tya
    1c03: 05 12        	ora	$12                     ; 0x2012 <__mulsf3+0x844>
    1c05: 85 17        	sta	$17                     ; 0x2017 <__mulsf3+0x849>
    1c07: 4a           	lsr
    1c08: 5a           	phy
    1c09: a4 15        	ldy	$15                     ; 0x2015 <__mulsf3+0x847>
    1c0b: 84 12        	sty	$12                     ; 0x2012 <__mulsf3+0x844>
    1c0d: 66 12        	ror	$12                     ; 0x2012 <__mulsf3+0x844>
    1c0f: a4 16        	ldy	$16                     ; 0x2016 <__mulsf3+0x848>
    1c11: 84 13        	sty	$13                     ; 0x2013 <__mulsf3+0x845>
    1c13: 66 13        	ror	$13                     ; 0x2013 <__mulsf3+0x845>
    1c15: 4a           	lsr
    1c16: 85 14        	sta	$14                     ; 0x2014 <__mulsf3+0x846>
    1c18: 66 12        	ror	$12                     ; 0x2012 <__mulsf3+0x844>
    1c1a: 66 13        	ror	$13                     ; 0x2013 <__mulsf3+0x845>
    1c1c: a5 16        	lda	$16                     ; 0x2016 <__mulsf3+0x848>
    1c1e: 05 13        	ora	$13                     ; 0x2013 <__mulsf3+0x845>
    1c20: 85 16        	sta	$16                     ; 0x2016 <__mulsf3+0x848>
    1c22: a5 15        	lda	$15                     ; 0x2015 <__mulsf3+0x847>
    1c24: 05 12        	ora	$12                     ; 0x2012 <__mulsf3+0x844>
    1c26: 85 15        	sta	$15                     ; 0x2015 <__mulsf3+0x847>
    1c28: a5 17        	lda	$17                     ; 0x2017 <__mulsf3+0x849>
    1c2a: 05 14        	ora	$14                     ; 0x2014 <__mulsf3+0x846>
    1c2c: 85 17        	sta	$17                     ; 0x2017 <__mulsf3+0x849>
    1c2e: 4a           	lsr
    1c2f: a4 15        	ldy	$15                     ; 0x2015 <__mulsf3+0x847>
    1c31: 84 12        	sty	$12                     ; 0x2012 <__mulsf3+0x844>
    1c33: 66 12        	ror	$12                     ; 0x2012 <__mulsf3+0x844>
    1c35: a4 16        	ldy	$16                     ; 0x2016 <__mulsf3+0x848>
    1c37: 84 13        	sty	$13                     ; 0x2013 <__mulsf3+0x845>
    1c39: 66 13        	ror	$13                     ; 0x2013 <__mulsf3+0x845>
    1c3b: 4a           	lsr
    1c3c: 66 12        	ror	$12                     ; 0x2012 <__mulsf3+0x844>
    1c3e: 66 13        	ror	$13                     ; 0x2013 <__mulsf3+0x845>
    1c40: 4a           	lsr
    1c41: 66 12        	ror	$12                     ; 0x2012 <__mulsf3+0x844>
    1c43: 66 13        	ror	$13                     ; 0x2013 <__mulsf3+0x845>
    1c45: 4a           	lsr
    1c46: 85 14        	sta	$14                     ; 0x2014 <__mulsf3+0x846>
    1c48: 66 12        	ror	$12                     ; 0x2012 <__mulsf3+0x844>
    1c4a: 66 13        	ror	$13                     ; 0x2013 <__mulsf3+0x845>
    1c4c: a5 16        	lda	$16                     ; 0x2016 <__mulsf3+0x848>
    1c4e: 05 13        	ora	$13                     ; 0x2013 <__mulsf3+0x845>
    1c50: 85 16        	sta	$16                     ; 0x2016 <__mulsf3+0x848>
    1c52: a5 15        	lda	$15                     ; 0x2015 <__mulsf3+0x847>
    1c54: 05 12        	ora	$12                     ; 0x2012 <__mulsf3+0x844>
    1c56: 85 13        	sta	$13                     ; 0x2013 <__mulsf3+0x845>
    1c58: a5 17        	lda	$17                     ; 0x2017 <__mulsf3+0x849>
    1c5a: 05 14        	ora	$14                     ; 0x2014 <__mulsf3+0x846>
    1c5c: 85 17        	sta	$17                     ; 0x2017 <__mulsf3+0x849>
    1c5e: a5 16        	lda	$16                     ; 0x2016 <__mulsf3+0x848>
    1c60: 05 13        	ora	$13                     ; 0x2013 <__mulsf3+0x845>
    1c62: 85 14        	sta	$14                     ; 0x2014 <__mulsf3+0x846>
    1c64: a5 13        	lda	$13                     ; 0x2013 <__mulsf3+0x845>
    1c66: 05 17        	ora	$17                     ; 0x2017 <__mulsf3+0x849>
    1c68: 85 15        	sta	$15                     ; 0x2015 <__mulsf3+0x847>
    1c6a: a5 14        	lda	$14                     ; 0x2014 <__mulsf3+0x846>
    1c6c: 05 17        	ora	$17                     ; 0x2017 <__mulsf3+0x849>
    1c6e: 85 16        	sta	$16                     ; 0x2016 <__mulsf3+0x848>
    1c70: a5 17        	lda	$17                     ; 0x2017 <__mulsf3+0x849>
    1c72: 85 14        	sta	$14                     ; 0x2014 <__mulsf3+0x846>
    1c74: 46 14        	lsr	$14                     ; 0x2014 <__mulsf3+0x846>
    1c76: a5 16        	lda	$16                     ; 0x2016 <__mulsf3+0x848>
    1c78: 4a           	lsr
    1c79: 29 55        	and	#$55
    1c7b: 85 12        	sta	$12                     ; 0x2012 <__mulsf3+0x844>
    1c7d: a5 15        	lda	$15                     ; 0x2015 <__mulsf3+0x847>
    1c7f: 4a           	lsr
    1c80: 29 55        	and	#$55
    1c82: 85 13        	sta	$13                     ; 0x2013 <__mulsf3+0x845>
    1c84: a5 14        	lda	$14                     ; 0x2014 <__mulsf3+0x846>
    1c86: 29 55        	and	#$55
    1c88: 85 14        	sta	$14                     ; 0x2014 <__mulsf3+0x846>
    1c8a: 38           	sec
    1c8b: a5 16        	lda	$16                     ; 0x2016 <__mulsf3+0x848>
    1c8d: e5 12        	sbc	$12                     ; 0x2012 <__mulsf3+0x844>
    1c8f: 85 12        	sta	$12                     ; 0x2012 <__mulsf3+0x844>
    1c91: a5 15        	lda	$15                     ; 0x2015 <__mulsf3+0x847>
    1c93: e5 13        	sbc	$13                     ; 0x2013 <__mulsf3+0x845>
    1c95: 85 13        	sta	$13                     ; 0x2013 <__mulsf3+0x845>
    1c97: a5 17        	lda	$17                     ; 0x2017 <__mulsf3+0x849>
    1c99: e5 14        	sbc	$14                     ; 0x2014 <__mulsf3+0x846>
    1c9b: 85 14        	sta	$14                     ; 0x2014 <__mulsf3+0x846>
    1c9d: a9 00        	lda	#$0
    1c9f: e9 00        	sbc	#$0
    1ca1: 85 15        	sta	$15                     ; 0x2015 <__mulsf3+0x847>
    1ca3: a5 12        	lda	$12                     ; 0x2012 <__mulsf3+0x844>
    1ca5: 85 16        	sta	$16                     ; 0x2016 <__mulsf3+0x848>
    1ca7: 29 33        	and	#$33
    1ca9: 85 12        	sta	$12                     ; 0x2012 <__mulsf3+0x844>
    1cab: a5 13        	lda	$13                     ; 0x2013 <__mulsf3+0x845>
    1cad: 85 17        	sta	$17                     ; 0x2017 <__mulsf3+0x849>
    1caf: 29 33        	and	#$33
    1cb1: 85 13        	sta	$13                     ; 0x2013 <__mulsf3+0x845>
    1cb3: a5 14        	lda	$14                     ; 0x2014 <__mulsf3+0x846>
    1cb5: 85 18        	sta	$18                     ; 0x2018 <__mulsf3+0x84a>
    1cb7: 29 33        	and	#$33
    1cb9: 85 14        	sta	$14                     ; 0x2014 <__mulsf3+0x846>
    1cbb: a5 15        	lda	$15                     ; 0x2015 <__mulsf3+0x847>
    1cbd: 4a           	lsr
    1cbe: 85 19        	sta	$19                     ; 0x2019 <__mulsf3+0x84b>
    1cc0: 46 18        	lsr	$18                     ; 0x2018 <__mulsf3+0x84a>
    1cc2: 46 17        	lsr	$17                     ; 0x2017 <__mulsf3+0x849>
    1cc4: a5 16        	lda	$16                     ; 0x2016 <__mulsf3+0x848>
    1cc6: 4a           	lsr
    1cc7: 46 19        	lsr	$19                     ; 0x2019 <__mulsf3+0x84b>
    1cc9: 46 18        	lsr	$18                     ; 0x2018 <__mulsf3+0x84a>
    1ccb: a4 17        	ldy	$17                     ; 0x2017 <__mulsf3+0x849>
    1ccd: 84 16        	sty	$16                     ; 0x2016 <__mulsf3+0x848>
    1ccf: 46 16        	lsr	$16                     ; 0x2016 <__mulsf3+0x848>
    1cd1: 4a           	lsr
    1cd2: 29 33        	and	#$33
    1cd4: 85 1a        	sta	$1a                     ; 0x201a <__mulsf3+0x84c>
    1cd6: a5 16        	lda	$16                     ; 0x2016 <__mulsf3+0x848>
    1cd8: 29 33        	and	#$33
    1cda: 85 16        	sta	$16                     ; 0x2016 <__mulsf3+0x848>
    1cdc: a5 18        	lda	$18                     ; 0x2018 <__mulsf3+0x84a>
    1cde: 29 33        	and	#$33
    1ce0: 85 17        	sta	$17                     ; 0x2017 <__mulsf3+0x849>
    1ce2: a5 19        	lda	$19                     ; 0x2019 <__mulsf3+0x84b>
    1ce4: 29 33        	and	#$33
    1ce6: 85 18        	sta	$18                     ; 0x2018 <__mulsf3+0x84a>
    1ce8: a5 15        	lda	$15                     ; 0x2015 <__mulsf3+0x847>
    1cea: 29 33        	and	#$33
    1cec: 85 15        	sta	$15                     ; 0x2015 <__mulsf3+0x847>
    1cee: 18           	clc
    1cef: a5 1a        	lda	$1a                     ; 0x201a <__mulsf3+0x84c>
    1cf1: 65 12        	adc	$12                     ; 0x2012 <__mulsf3+0x844>
    1cf3: 85 12        	sta	$12                     ; 0x2012 <__mulsf3+0x844>
    1cf5: a5 16        	lda	$16                     ; 0x2016 <__mulsf3+0x848>
    1cf7: 65 13        	adc	$13                     ; 0x2013 <__mulsf3+0x845>
    1cf9: 85 13        	sta	$13                     ; 0x2013 <__mulsf3+0x845>
    1cfb: a5 17        	lda	$17                     ; 0x2017 <__mulsf3+0x849>
    1cfd: 65 14        	adc	$14                     ; 0x2014 <__mulsf3+0x846>
    1cff: 85 14        	sta	$14                     ; 0x2014 <__mulsf3+0x846>
    1d01: a5 18        	lda	$18                     ; 0x2018 <__mulsf3+0x84a>
    1d03: 65 15        	adc	$15                     ; 0x2015 <__mulsf3+0x847>
    1d05: 85 15        	sta	$15                     ; 0x2015 <__mulsf3+0x847>
    1d07: 4a           	lsr
    1d08: 85 16        	sta	$16                     ; 0x2016 <__mulsf3+0x848>
    1d0a: a5 14        	lda	$14                     ; 0x2014 <__mulsf3+0x846>
    1d0c: 6a           	ror
    1d0d: a4 13        	ldy	$13                     ; 0x2013 <__mulsf3+0x845>
    1d0f: 84 17        	sty	$17                     ; 0x2017 <__mulsf3+0x849>
    1d11: 66 17        	ror	$17                     ; 0x2017 <__mulsf3+0x849>
    1d13: a4 12        	ldy	$12                     ; 0x2012 <__mulsf3+0x844>
    1d15: 84 18        	sty	$18                     ; 0x2018 <__mulsf3+0x84a>
    1d17: 7a           	ply
    1d18: 66 18        	ror	$18                     ; 0x2018 <__mulsf3+0x84a>
    1d1a: 46 16        	lsr	$16                     ; 0x2016 <__mulsf3+0x848>
    1d1c: 6a           	ror
    1d1d: 66 17        	ror	$17                     ; 0x2017 <__mulsf3+0x849>
    1d1f: 66 18        	ror	$18                     ; 0x2018 <__mulsf3+0x84a>
    1d21: 46 16        	lsr	$16                     ; 0x2016 <__mulsf3+0x848>
    1d23: 6a           	ror
    1d24: 66 17        	ror	$17                     ; 0x2017 <__mulsf3+0x849>
    1d26: 66 18        	ror	$18                     ; 0x2018 <__mulsf3+0x84a>
    1d28: 46 16        	lsr	$16                     ; 0x2016 <__mulsf3+0x848>
    1d2a: 6a           	ror
    1d2b: 85 19        	sta	$19                     ; 0x2019 <__mulsf3+0x84b>
    1d2d: a5 17        	lda	$17                     ; 0x2017 <__mulsf3+0x849>
    1d2f: 85 1a        	sta	$1a                     ; 0x201a <__mulsf3+0x84c>
    1d31: 66 1a        	ror	$1a                     ; 0x201a <__mulsf3+0x84c>
    1d33: a5 18        	lda	$18                     ; 0x2018 <__mulsf3+0x84a>
    1d35: 6a           	ror
    1d36: 18           	clc
    1d37: 65 12        	adc	$12                     ; 0x2012 <__mulsf3+0x844>
    1d39: 85 12        	sta	$12                     ; 0x2012 <__mulsf3+0x844>
    1d3b: a5 1a        	lda	$1a                     ; 0x201a <__mulsf3+0x84c>
    1d3d: 65 13        	adc	$13                     ; 0x2013 <__mulsf3+0x845>
    1d3f: 85 13        	sta	$13                     ; 0x2013 <__mulsf3+0x845>
    1d41: a5 19        	lda	$19                     ; 0x2019 <__mulsf3+0x84b>
    1d43: 65 14        	adc	$14                     ; 0x2014 <__mulsf3+0x846>
    1d45: 85 14        	sta	$14                     ; 0x2014 <__mulsf3+0x846>
    1d47: a5 16        	lda	$16                     ; 0x2016 <__mulsf3+0x848>
    1d49: 65 15        	adc	$15                     ; 0x2015 <__mulsf3+0x847>
    1d4b: 85 15        	sta	$15                     ; 0x2015 <__mulsf3+0x847>
    1d4d: a5 12        	lda	$12                     ; 0x2012 <__mulsf3+0x844>
    1d4f: 29 0f        	and	#$f
    1d51: 85 12        	sta	$12                     ; 0x2012 <__mulsf3+0x844>
    1d53: 85 17        	sta	$17                     ; 0x2017 <__mulsf3+0x849>
    1d55: a5 13        	lda	$13                     ; 0x2013 <__mulsf3+0x845>
    1d57: 29 0f        	and	#$f
    1d59: 85 13        	sta	$13                     ; 0x2013 <__mulsf3+0x845>
    1d5b: 85 19        	sta	$19                     ; 0x2019 <__mulsf3+0x84b>
    1d5d: a5 14        	lda	$14                     ; 0x2014 <__mulsf3+0x846>
    1d5f: 29 0f        	and	#$f
    1d61: 85 14        	sta	$14                     ; 0x2014 <__mulsf3+0x846>
    1d63: 85 18        	sta	$18                     ; 0x2018 <__mulsf3+0x84a>
    1d65: a5 15        	lda	$15                     ; 0x2015 <__mulsf3+0x847>
    1d67: 29 0f        	and	#$f
    1d69: 85 16        	sta	$16                     ; 0x2016 <__mulsf3+0x848>
    1d6b: 18           	clc
    1d6c: a5 17        	lda	$17                     ; 0x2017 <__mulsf3+0x849>
    1d6e: 69 00        	adc	#$0
    1d70: 85 15        	sta	$15                     ; 0x2015 <__mulsf3+0x847>
    1d72: 85 1a        	sta	$1a                     ; 0x201a <__mulsf3+0x84c>
    1d74: a5 19        	lda	$19                     ; 0x2019 <__mulsf3+0x84b>
    1d76: 65 12        	adc	$12                     ; 0x2012 <__mulsf3+0x844>
    1d78: 85 12        	sta	$12                     ; 0x2012 <__mulsf3+0x844>
    1d7a: a5 18        	lda	$18                     ; 0x2018 <__mulsf3+0x84a>
    1d7c: 65 13        	adc	$13                     ; 0x2013 <__mulsf3+0x845>
    1d7e: 85 17        	sta	$17                     ; 0x2017 <__mulsf3+0x849>
    1d80: a5 16        	lda	$16                     ; 0x2016 <__mulsf3+0x848>
    1d82: 65 14        	adc	$14                     ; 0x2014 <__mulsf3+0x846>
    1d84: 85 13        	sta	$13                     ; 0x2013 <__mulsf3+0x845>
    1d86: 18           	clc
    1d87: a5 1a        	lda	$1a                     ; 0x201a <__mulsf3+0x84c>
    1d89: 69 00        	adc	#$0
    1d8b: a5 12        	lda	$12                     ; 0x2012 <__mulsf3+0x844>
    1d8d: 69 00        	adc	#$0
    1d8f: a5 17        	lda	$17                     ; 0x2017 <__mulsf3+0x849>
    1d91: 65 15        	adc	$15                     ; 0x2015 <__mulsf3+0x847>
    1d93: a5 13        	lda	$13                     ; 0x2013 <__mulsf3+0x845>
    1d95: 65 12        	adc	$12                     ; 0x2012 <__mulsf3+0x844>
    1d97: 85 12        	sta	$12                     ; 0x2012 <__mulsf3+0x844>
    1d99: a9 20        	lda	#$20
    1d9b: 38           	sec
    1d9c: e5 12        	sbc	$12                     ; 0x2012 <__mulsf3+0x844>
    1d9e: 85 13        	sta	$13                     ; 0x2013 <__mulsf3+0x845>
    1da0: 85 3d        	sta	$3d                     ; 0x203d <__mulsf3+0x86f>
    1da2: a9 00        	lda	#$0
    1da4: e9 00        	sbc	#$0
    1da6: 85 38        	sta	$38                     ; 0x2038 <__mulsf3+0x86a>
    1da8: 18           	clc
    1da9: a5 13        	lda	$13                     ; 0x2013 <__mulsf3+0x845>
    1dab: 69 f8        	adc	#$f8
    1dad: 84 12        	sty	$12                     ; 0x2012 <__mulsf3+0x844>
    1daf: 64 13        	stz	$13                     ; 0x2013 <__mulsf3+0x845>
    1db1: 85 14        	sta	$14                     ; 0x2014 <__mulsf3+0x846>
    1db3: a5 36        	lda	$36                     ; 0x2036 <__mulsf3+0x868>
    1db5: 20 6c 0a     	jsr	$a6c <__ashlsi3>
    1db8: 85 36        	sta	$36                     ; 0x2036 <__mulsf3+0x868>
    1dba: 86 37        	stx	$37                     ; 0x2037 <__mulsf3+0x869>
    1dbc: a6 12        	ldx	$12                     ; 0x2012 <__mulsf3+0x844>
    1dbe: 86 3b        	stx	$3b                     ; 0x203b <__mulsf3+0x86d>
    1dc0: a6 41        	ldx	$41                     ; 0x2041 <__mulsf3+0x873>
    1dc2: 8a           	txa
    1dc3: a6 3d        	ldx	$3d                     ; 0x203d <__mulsf3+0x86f>
    1dc5: 86 12        	stx	$12                     ; 0x2012 <__mulsf3+0x844>
    1dc7: 38           	sec
    1dc8: e5 12        	sbc	$12                     ; 0x2012 <__mulsf3+0x844>
    1dca: aa           	tax
    1dcb: a5 40        	lda	$40                     ; 0x2040 <__mulsf3+0x872>
    1dcd: e5 38        	sbc	$38                     ; 0x2038 <__mulsf3+0x86a>
    1dcf: a8           	tay
    1dd0: 18           	clc
    1dd1: 8a           	txa
    1dd2: 69 09        	adc	#$9
    1dd4: 85 12        	sta	$12                     ; 0x2012 <__mulsf3+0x844>
    1dd6: 98           	tya
    1dd7: 69 00        	adc	#$0
    1dd9: a6 12        	ldx	$12                     ; 0x2012 <__mulsf3+0x844>
    1ddb: 86 3d        	stx	$3d                     ; 0x203d <__mulsf3+0x86f>
    1ddd: 85 40        	sta	$40                     ; 0x2040 <__mulsf3+0x872>
    1ddf: a6 42        	ldx	$42                     ; 0x2042 <__mulsf3+0x874>
    1de1: a5 43        	lda	$43                     ; 0x2043 <__mulsf3+0x875>
    1de3: 85 14        	sta	$14                     ; 0x2014 <__mulsf3+0x846>
    1de5: 80 15        	bra	$1dfc <__mulsf3+0x62e>
    1de7: a4 37        	ldy	$37                     ; 0x2037 <__mulsf3+0x869>
    1de9: c0 00        	cpy	#$0
    1deb: b0 03        	bcs	$1df0 <__mulsf3+0x622>
    1ded: 4c da 1b     	jmp	$1bda <__mulsf3+0x40c>
    1df0: a4 12        	ldy	$12                     ; 0x2012 <__mulsf3+0x844>
    1df2: 84 3e        	sty	$3e                     ; 0x203e <__mulsf3+0x870>
    1df4: a4 41        	ldy	$41                     ; 0x2041 <__mulsf3+0x873>
    1df6: 84 3d        	sty	$3d                     ; 0x203d <__mulsf3+0x86f>
    1df8: a4 40        	ldy	$40                     ; 0x2040 <__mulsf3+0x872>
    1dfa: 84 40        	sty	$40                     ; 0x2040 <__mulsf3+0x872>
    1dfc: a5 3a        	lda	$3a                     ; 0x203a <__mulsf3+0x86c>
    1dfe: 09 80        	ora	#$80
    1e00: 85 1a        	sta	$1a                     ; 0x201a <__mulsf3+0x84c>
    1e02: a5 3b        	lda	$3b                     ; 0x203b <__mulsf3+0x86d>
    1e04: 09 80        	ora	#$80
    1e06: a4 37        	ldy	$37                     ; 0x2037 <__mulsf3+0x869>
    1e08: 84 12        	sty	$12                     ; 0x2012 <__mulsf3+0x844>
    1e0a: 85 13        	sta	$13                     ; 0x2013 <__mulsf3+0x845>
    1e0c: a4 3f        	ldy	$3f                     ; 0x203f <__mulsf3+0x871>
    1e0e: 84 18        	sty	$18                     ; 0x2018 <__mulsf3+0x84a>
    1e10: a4 14        	ldy	$14                     ; 0x2014 <__mulsf3+0x846>
    1e12: 84 19        	sty	$19                     ; 0x2019 <__mulsf3+0x84b>
    1e14: 64 14        	stz	$14                     ; 0x2014 <__mulsf3+0x846>
    1e16: 64 15        	stz	$15                     ; 0x2015 <__mulsf3+0x847>
    1e18: 64 16        	stz	$16                     ; 0x2016 <__mulsf3+0x848>
    1e1a: 64 17        	stz	$17                     ; 0x2017 <__mulsf3+0x849>
    1e1c: 86 1b        	stx	$1b                     ; 0x201b <__mulsf3+0x84d>
    1e1e: 64 1c        	stz	$1c                     ; 0x201c <__mulsf3+0x84e>
    1e20: 64 1d        	stz	$1d                     ; 0x201d <__mulsf3+0x84f>
    1e22: 64 1e        	stz	$1e                     ; 0x201e <__mulsf3+0x850>
    1e24: 64 1f        	stz	$1f                     ; 0x201f <__mulsf3+0x851>
    1e26: a6 36        	ldx	$36                     ; 0x2036 <__mulsf3+0x868>
    1e28: a9 00        	lda	#$0
    1e2a: 20 0a 0b     	jsr	$b0a <__muldi3>
    1e2d: 85 37        	sta	$37                     ; 0x2037 <__mulsf3+0x869>
    1e2f: 86 36        	stx	$36                     ; 0x2036 <__mulsf3+0x868>
    1e31: a6 12        	ldx	$12                     ; 0x2012 <__mulsf3+0x844>
    1e33: 86 38        	stx	$38                     ; 0x2038 <__mulsf3+0x86a>
    1e35: a6 13        	ldx	$13                     ; 0x2013 <__mulsf3+0x845>
    1e37: 86 18        	stx	$18                     ; 0x2018 <__mulsf3+0x84a>
    1e39: a6 3e        	ldx	$3e                     ; 0x203e <__mulsf3+0x870>
    1e3b: 86 12        	stx	$12                     ; 0x2012 <__mulsf3+0x844>
    1e3d: a6 3c        	ldx	$3c                     ; 0x203c <__mulsf3+0x86e>
    1e3f: 8a           	txa
    1e40: 18           	clc
    1e41: 65 12        	adc	$12                     ; 0x2012 <__mulsf3+0x844>
    1e43: a8           	tay
    1e44: a9 00        	lda	#$0
    1e46: 69 00        	adc	#$0
    1e48: 85 13        	sta	$13                     ; 0x2013 <__mulsf3+0x845>
    1e4a: a6 3d        	ldx	$3d                     ; 0x203d <__mulsf3+0x86f>
    1e4c: 86 12        	stx	$12                     ; 0x2012 <__mulsf3+0x844>
    1e4e: 18           	clc
    1e4f: 98           	tya
    1e50: 65 12        	adc	$12                     ; 0x2012 <__mulsf3+0x844>
    1e52: a8           	tay
    1e53: a6 40        	ldx	$40                     ; 0x2040 <__mulsf3+0x872>
    1e55: 86 12        	stx	$12                     ; 0x2012 <__mulsf3+0x844>
    1e57: a5 13        	lda	$13                     ; 0x2013 <__mulsf3+0x845>
    1e59: 65 12        	adc	$12                     ; 0x2012 <__mulsf3+0x844>
    1e5b: 85 12        	sta	$12                     ; 0x2012 <__mulsf3+0x844>
    1e5d: a5 16        	lda	$16                     ; 0x2016 <__mulsf3+0x848>
    1e5f: 29 80        	and	#$80
    1e61: f0 03        	beq	$1e66 <__mulsf3+0x698>
    1e63: 4c b9 1e     	jmp	$1eb9 <__mulsf3+0x6eb>
    1e66: 98           	tya
    1e67: 18           	clc
    1e68: 69 81        	adc	#$81
    1e6a: a8           	tay
    1e6b: a5 12        	lda	$12                     ; 0x2012 <__mulsf3+0x844>
    1e6d: 69 ff        	adc	#$ff
    1e6f: 85 12        	sta	$12                     ; 0x2012 <__mulsf3+0x844>
    1e71: 06 14        	asl	$14                     ; 0x2014 <__mulsf3+0x846>
    1e73: 26 15        	rol	$15                     ; 0x2015 <__mulsf3+0x847>
    1e75: 26 16        	rol	$16                     ; 0x2016 <__mulsf3+0x848>
    1e77: a6 16        	ldx	$16                     ; 0x2016 <__mulsf3+0x848>
    1e79: 86 13        	stx	$13                     ; 0x2013 <__mulsf3+0x845>
    1e7b: 26 17        	rol	$17                     ; 0x2017 <__mulsf3+0x849>
    1e7d: a5 18        	lda	$18                     ; 0x2018 <__mulsf3+0x84a>
    1e7f: 0a           	asl
    1e80: a9 00        	lda	#$0
    1e82: 2a           	rol
    1e83: 85 19        	sta	$19                     ; 0x2019 <__mulsf3+0x84b>
    1e85: 64 1a        	stz	$1a                     ; 0x201a <__mulsf3+0x84c>
    1e87: 26 1a        	rol	$1a                     ; 0x201a <__mulsf3+0x84c>
    1e89: 64 16        	stz	$16                     ; 0x2016 <__mulsf3+0x848>
    1e8b: 26 16        	rol	$16                     ; 0x2016 <__mulsf3+0x848>
    1e8d: a9 00        	lda	#$0
    1e8f: 2a           	rol
    1e90: 85 1b        	sta	$1b                     ; 0x201b <__mulsf3+0x84d>
    1e92: 06 37        	asl	$37                     ; 0x2037 <__mulsf3+0x869>
    1e94: 26 36        	rol	$36                     ; 0x2036 <__mulsf3+0x868>
    1e96: 26 38        	rol	$38                     ; 0x2038 <__mulsf3+0x86a>
    1e98: 26 18        	rol	$18                     ; 0x2018 <__mulsf3+0x84a>
    1e9a: a6 18        	ldx	$18                     ; 0x2018 <__mulsf3+0x84a>
    1e9c: 86 3b        	stx	$3b                     ; 0x203b <__mulsf3+0x86d>
    1e9e: a5 19        	lda	$19                     ; 0x2019 <__mulsf3+0x84b>
    1ea0: 05 14        	ora	$14                     ; 0x2014 <__mulsf3+0x846>
    1ea2: 85 14        	sta	$14                     ; 0x2014 <__mulsf3+0x846>
    1ea4: a5 1a        	lda	$1a                     ; 0x201a <__mulsf3+0x84c>
    1ea6: 05 15        	ora	$15                     ; 0x2015 <__mulsf3+0x847>
    1ea8: 85 15        	sta	$15                     ; 0x2015 <__mulsf3+0x847>
    1eaa: a5 1b        	lda	$1b                     ; 0x201b <__mulsf3+0x84d>
    1eac: 05 17        	ora	$17                     ; 0x2017 <__mulsf3+0x849>
    1eae: 85 17        	sta	$17                     ; 0x2017 <__mulsf3+0x849>
    1eb0: a5 16        	lda	$16                     ; 0x2016 <__mulsf3+0x848>
    1eb2: 05 13        	ora	$13                     ; 0x2013 <__mulsf3+0x845>
    1eb4: 85 3a        	sta	$3a                     ; 0x203a <__mulsf3+0x86c>
    1eb6: 98           	tya
    1eb7: 80 14        	bra	$1ecd <__mulsf3+0x6ff>
    1eb9: a6 16        	ldx	$16                     ; 0x2016 <__mulsf3+0x848>
    1ebb: 86 3a        	stx	$3a                     ; 0x203a <__mulsf3+0x86c>
    1ebd: a6 18        	ldx	$18                     ; 0x2018 <__mulsf3+0x84a>
    1ebf: 86 3b        	stx	$3b                     ; 0x203b <__mulsf3+0x86d>
    1ec1: 98           	tya
    1ec2: 18           	clc
    1ec3: 69 82        	adc	#$82
    1ec5: aa           	tax
    1ec6: a5 12        	lda	$12                     ; 0x2012 <__mulsf3+0x844>
    1ec8: 69 ff        	adc	#$ff
    1eca: 85 12        	sta	$12                     ; 0x2012 <__mulsf3+0x844>
    1ecc: 8a           	txa
    1ecd: a8           	tay
    1ece: c9 ff        	cmp	#$ff
    1ed0: a5 12        	lda	$12                     ; 0x2012 <__mulsf3+0x844>
    1ed2: e9 00        	sbc	#$0
    1ed4: 50 02        	bvc	$1ed8 <__mulsf3+0x70a>
    1ed6: 49 80        	eor	#$80
    1ed8: aa           	tax
    1ed9: 30 0e        	bmi	$1ee9 <__mulsf3+0x71b>
    1edb: a5 39        	lda	$39                     ; 0x2039 <__mulsf3+0x86b>
    1edd: 09 7f        	ora	#$7f
    1edf: 64 14        	stz	$14                     ; 0x2014 <__mulsf3+0x846>
    1ee1: a0 00        	ldy	#$0
    1ee3: aa           	tax
    1ee4: a9 80        	lda	#$80
    1ee6: 4c 7d 20     	jmp	$207d <__mulsf3+0x8af>
    1ee9: c0 01        	cpy	#$1
    1eeb: a5 12        	lda	$12                     ; 0x2012 <__mulsf3+0x844>
    1eed: e9 00        	sbc	#$0
    1eef: 50 02        	bvc	$1ef3 <__mulsf3+0x725>
    1ef1: 49 80        	eor	#$80
    1ef3: aa           	tax
    1ef4: 30 30        	bmi	$1f26 <__mulsf3+0x758>
    1ef6: a5 3a        	lda	$3a                     ; 0x203a <__mulsf3+0x86c>
    1ef8: 29 7f        	and	#$7f
    1efa: 85 13        	sta	$13                     ; 0x2013 <__mulsf3+0x845>
    1efc: 46 12        	lsr	$12                     ; 0x2012 <__mulsf3+0x844>
    1efe: 84 12        	sty	$12                     ; 0x2012 <__mulsf3+0x844>
    1f00: 66 12        	ror	$12                     ; 0x2012 <__mulsf3+0x844>
    1f02: 64 17        	stz	$17                     ; 0x2017 <__mulsf3+0x849>
    1f04: 66 17        	ror	$17                     ; 0x2017 <__mulsf3+0x849>
    1f06: 64 18        	stz	$18                     ; 0x2018 <__mulsf3+0x84a>
    1f08: 66 18        	ror	$18                     ; 0x2018 <__mulsf3+0x84a>
    1f0a: a9 00        	lda	#$0
    1f0c: 6a           	ror
    1f0d: 05 14        	ora	$14                     ; 0x2014 <__mulsf3+0x846>
    1f0f: 85 14        	sta	$14                     ; 0x2014 <__mulsf3+0x846>
    1f11: a5 18        	lda	$18                     ; 0x2018 <__mulsf3+0x84a>
    1f13: 05 15        	ora	$15                     ; 0x2015 <__mulsf3+0x847>
    1f15: 85 15        	sta	$15                     ; 0x2015 <__mulsf3+0x847>
    1f17: a5 17        	lda	$17                     ; 0x2017 <__mulsf3+0x849>
    1f19: 05 13        	ora	$13                     ; 0x2013 <__mulsf3+0x845>
    1f1b: 85 16        	sta	$16                     ; 0x2016 <__mulsf3+0x848>
    1f1d: a6 12        	ldx	$12                     ; 0x2012 <__mulsf3+0x844>
    1f1f: 86 13        	stx	$13                     ; 0x2013 <__mulsf3+0x845>
    1f21: a4 3b        	ldy	$3b                     ; 0x203b <__mulsf3+0x86d>
    1f23: 4c 0d 20     	jmp	$200d <__mulsf3+0x83f>
    1f26: 38           	sec
    1f27: a9 01        	lda	#$1
    1f29: 84 13        	sty	$13                     ; 0x2013 <__mulsf3+0x845>
    1f2b: e5 13        	sbc	$13                     ; 0x2013 <__mulsf3+0x845>
    1f2d: aa           	tax
    1f2e: a9 00        	lda	#$0
    1f30: e5 12        	sbc	$12                     ; 0x2012 <__mulsf3+0x844>
    1f32: d0 10        	bne	$1f44 <__mulsf3+0x776>
    1f34: 86 41        	stx	$41                     ; 0x2041 <__mulsf3+0x873>
    1f36: e0 20        	cpx	#$20
    1f38: 90 10        	bcc	$1f4a <__mulsf3+0x77c>
    1f3a: 64 14        	stz	$14                     ; 0x2014 <__mulsf3+0x846>
    1f3c: a0 00        	ldy	#$0
    1f3e: 98           	tya
    1f3f: a6 39        	ldx	$39                     ; 0x2039 <__mulsf3+0x86b>
    1f41: 4c 7d 20     	jmp	$207d <__mulsf3+0x8af>
    1f44: 86 41        	stx	$41                     ; 0x2041 <__mulsf3+0x873>
    1f46: c9 00        	cmp	#$0
    1f48: b0 f0        	bcs	$1f3a <__mulsf3+0x76c>
    1f4a: a6 17        	ldx	$17                     ; 0x2017 <__mulsf3+0x849>
    1f4c: 86 3f        	stx	$3f                     ; 0x203f <__mulsf3+0x871>
    1f4e: a6 15        	ldx	$15                     ; 0x2015 <__mulsf3+0x847>
    1f50: 86 3e        	stx	$3e                     ; 0x203e <__mulsf3+0x870>
    1f52: a6 14        	ldx	$14                     ; 0x2014 <__mulsf3+0x846>
    1f54: 86 3d        	stx	$3d                     ; 0x203d <__mulsf3+0x86f>
    1f56: 18           	clc
    1f57: 98           	tya
    1f58: 69 1f        	adc	#$1f
    1f5a: a6 38        	ldx	$38                     ; 0x2038 <__mulsf3+0x86a>
    1f5c: 86 12        	stx	$12                     ; 0x2012 <__mulsf3+0x844>
    1f5e: a6 3b        	ldx	$3b                     ; 0x203b <__mulsf3+0x86d>
    1f60: 86 13        	stx	$13                     ; 0x2013 <__mulsf3+0x845>
    1f62: 85 3c        	sta	$3c                     ; 0x203c <__mulsf3+0x86e>
    1f64: 85 14        	sta	$14                     ; 0x2014 <__mulsf3+0x846>
    1f66: a6 36        	ldx	$36                     ; 0x2036 <__mulsf3+0x868>
    1f68: a5 37        	lda	$37                     ; 0x2037 <__mulsf3+0x869>
    1f6a: 20 6c 0a     	jsr	$a6c <__ashlsi3>
    1f6d: a4 13        	ldy	$13                     ; 0x2013 <__mulsf3+0x845>
    1f6f: d0 0f        	bne	$1f80 <__mulsf3+0x7b2>
    1f71: a4 12        	ldy	$12                     ; 0x2012 <__mulsf3+0x844>
    1f73: d0 0b        	bne	$1f80 <__mulsf3+0x7b2>
    1f75: e0 00        	cpx	#$0
    1f77: d0 07        	bne	$1f80 <__mulsf3+0x7b2>
    1f79: aa           	tax
    1f7a: d0 04        	bne	$1f80 <__mulsf3+0x7b2>
    1f7c: a2 00        	ldx	#$0
    1f7e: 80 02        	bra	$1f82 <__mulsf3+0x7b4>
    1f80: a2 01        	ldx	#$1
    1f82: 86 43        	stx	$43                     ; 0x2043 <__mulsf3+0x875>
    1f84: a6 3a        	ldx	$3a                     ; 0x203a <__mulsf3+0x86c>
    1f86: 86 12        	stx	$12                     ; 0x2012 <__mulsf3+0x844>
    1f88: 86 3a        	stx	$3a                     ; 0x203a <__mulsf3+0x86c>
    1f8a: a6 3f        	ldx	$3f                     ; 0x203f <__mulsf3+0x871>
    1f8c: 86 13        	stx	$13                     ; 0x2013 <__mulsf3+0x845>
    1f8e: 86 3f        	stx	$3f                     ; 0x203f <__mulsf3+0x871>
    1f90: a6 3c        	ldx	$3c                     ; 0x203c <__mulsf3+0x86e>
    1f92: 86 14        	stx	$14                     ; 0x2014 <__mulsf3+0x846>
    1f94: a6 3e        	ldx	$3e                     ; 0x203e <__mulsf3+0x870>
    1f96: 86 3e        	stx	$3e                     ; 0x203e <__mulsf3+0x870>
    1f98: a4 3d        	ldy	$3d                     ; 0x203d <__mulsf3+0x86f>
    1f9a: 84 3d        	sty	$3d                     ; 0x203d <__mulsf3+0x86f>
    1f9c: 98           	tya
    1f9d: 20 6c 0a     	jsr	$a6c <__ashlsi3>
    1fa0: 85 42        	sta	$42                     ; 0x2042 <__mulsf3+0x874>
    1fa2: 86 44        	stx	$44                     ; 0x2044 <__mulsf3+0x876>
    1fa4: a6 12        	ldx	$12                     ; 0x2012 <__mulsf3+0x844>
    1fa6: 86 3c        	stx	$3c                     ; 0x203c <__mulsf3+0x86e>
    1fa8: a6 13        	ldx	$13                     ; 0x2013 <__mulsf3+0x845>
    1faa: 86 40        	stx	$40                     ; 0x2040 <__mulsf3+0x872>
    1fac: a6 38        	ldx	$38                     ; 0x2038 <__mulsf3+0x86a>
    1fae: 86 12        	stx	$12                     ; 0x2012 <__mulsf3+0x844>
    1fb0: a6 3b        	ldx	$3b                     ; 0x203b <__mulsf3+0x86d>
    1fb2: 86 13        	stx	$13                     ; 0x2013 <__mulsf3+0x845>
    1fb4: a6 41        	ldx	$41                     ; 0x2041 <__mulsf3+0x873>
    1fb6: 86 38        	stx	$38                     ; 0x2038 <__mulsf3+0x86a>
    1fb8: 86 14        	stx	$14                     ; 0x2014 <__mulsf3+0x846>
    1fba: a6 36        	ldx	$36                     ; 0x2036 <__mulsf3+0x868>
    1fbc: a5 37        	lda	$37                     ; 0x2037 <__mulsf3+0x869>
    1fbe: 20 83 0a     	jsr	$a83 <__lshrsi3>
    1fc1: 85 14        	sta	$14                     ; 0x2014 <__mulsf3+0x846>
    1fc3: 86 16        	stx	$16                     ; 0x2016 <__mulsf3+0x848>
    1fc5: a5 42        	lda	$42                     ; 0x2042 <__mulsf3+0x874>
    1fc7: 05 14        	ora	$14                     ; 0x2014 <__mulsf3+0x846>
    1fc9: 85 14        	sta	$14                     ; 0x2014 <__mulsf3+0x846>
    1fcb: a6 44        	ldx	$44                     ; 0x2044 <__mulsf3+0x876>
    1fcd: 86 15        	stx	$15                     ; 0x2015 <__mulsf3+0x847>
    1fcf: a5 16        	lda	$16                     ; 0x2016 <__mulsf3+0x848>
    1fd1: 05 15        	ora	$15                     ; 0x2015 <__mulsf3+0x847>
    1fd3: 85 36        	sta	$36                     ; 0x2036 <__mulsf3+0x868>
    1fd5: a5 3c        	lda	$3c                     ; 0x203c <__mulsf3+0x86e>
    1fd7: 05 12        	ora	$12                     ; 0x2012 <__mulsf3+0x844>
    1fd9: 85 3c        	sta	$3c                     ; 0x203c <__mulsf3+0x86e>
    1fdb: a6 40        	ldx	$40                     ; 0x2040 <__mulsf3+0x872>
    1fdd: 8a           	txa
    1fde: 05 13        	ora	$13                     ; 0x2013 <__mulsf3+0x845>
    1fe0: 85 40        	sta	$40                     ; 0x2040 <__mulsf3+0x872>
    1fe2: a5 14        	lda	$14                     ; 0x2014 <__mulsf3+0x846>
    1fe4: a6 43        	ldx	$43                     ; 0x2043 <__mulsf3+0x875>
    1fe6: 86 12        	stx	$12                     ; 0x2012 <__mulsf3+0x844>
    1fe8: 05 12        	ora	$12                     ; 0x2012 <__mulsf3+0x844>
    1fea: 85 37        	sta	$37                     ; 0x2037 <__mulsf3+0x869>
    1fec: a6 3a        	ldx	$3a                     ; 0x203a <__mulsf3+0x86c>
    1fee: 86 12        	stx	$12                     ; 0x2012 <__mulsf3+0x844>
    1ff0: a6 3f        	ldx	$3f                     ; 0x203f <__mulsf3+0x871>
    1ff2: 86 13        	stx	$13                     ; 0x2013 <__mulsf3+0x845>
    1ff4: a6 38        	ldx	$38                     ; 0x2038 <__mulsf3+0x86a>
    1ff6: 86 14        	stx	$14                     ; 0x2014 <__mulsf3+0x846>
    1ff8: a6 3e        	ldx	$3e                     ; 0x203e <__mulsf3+0x870>
    1ffa: a5 3d        	lda	$3d                     ; 0x203d <__mulsf3+0x86f>
    1ffc: 20 83 0a     	jsr	$a83 <__lshrsi3>
    1fff: 85 14        	sta	$14                     ; 0x2014 <__mulsf3+0x846>
    2001: 86 15        	stx	$15                     ; 0x2015 <__mulsf3+0x847>
    2003: a6 12        	ldx	$12                     ; 0x2012 <__mulsf3+0x844>
    2005: 86 16        	stx	$16                     ; 0x2016 <__mulsf3+0x848>
    2007: a6 3c        	ldx	$3c                     ; 0x203c <__mulsf3+0x86e>
    2009: 86 38        	stx	$38                     ; 0x2038 <__mulsf3+0x86a>
    200b: a4 40        	ldy	$40                     ; 0x2040 <__mulsf3+0x872>
    200d: a5 39        	lda	$39                     ; 0x2039 <__mulsf3+0x86b>
    200f: 05 13        	ora	$13                     ; 0x2013 <__mulsf3+0x845>
    2011: 85 13        	sta	$13                     ; 0x2013 <__mulsf3+0x845>
    2013: c0 80        	cpy	#$80
    2015: d0 14        	bne	$202b <__mulsf3+0x85d>
    2017: 84 12        	sty	$12                     ; 0x2012 <__mulsf3+0x844>
    2019: a5 16        	lda	$16                     ; 0x2016 <__mulsf3+0x848>
    201b: a6 38        	ldx	$38                     ; 0x2038 <__mulsf3+0x86a>
    201d: d0 43        	bne	$2062 <__mulsf3+0x894>
    201f: a6 36        	ldx	$36                     ; 0x2036 <__mulsf3+0x868>
    2021: d0 43        	bne	$2066 <__mulsf3+0x898>
    2023: a6 37        	ldx	$37                     ; 0x2037 <__mulsf3+0x869>
    2025: e0 01        	cpx	#$1
    2027: 90 0a        	bcc	$2033 <__mulsf3+0x865>
    2029: 80 41        	bra	$206c <__mulsf3+0x89e>
    202b: 84 12        	sty	$12                     ; 0x2012 <__mulsf3+0x844>
    202d: c0 80        	cpy	#$80
    202f: a5 16        	lda	$16                     ; 0x2016 <__mulsf3+0x848>
    2031: b0 39        	bcs	$206c <__mulsf3+0x89e>
    2033: a6 12        	ldx	$12                     ; 0x2012 <__mulsf3+0x844>
    2035: e0 80        	cpx	#$80
    2037: d0 40        	bne	$2079 <__mulsf3+0x8ab>
    2039: a6 38        	ldx	$38                     ; 0x2038 <__mulsf3+0x86a>
    203b: d0 3c        	bne	$2079 <__mulsf3+0x8ab>
    203d: a6 36        	ldx	$36                     ; 0x2036 <__mulsf3+0x868>
    203f: d0 38        	bne	$2079 <__mulsf3+0x8ab>
    2041: a6 37        	ldx	$37                     ; 0x2037 <__mulsf3+0x869>
    2043: d0 34        	bne	$2079 <__mulsf3+0x8ab>
    2045: a5 14        	lda	$14                     ; 0x2014 <__mulsf3+0x846>
    2047: 29 01        	and	#$1
    2049: 18           	clc
    204a: 65 14        	adc	$14                     ; 0x2014 <__mulsf3+0x846>
    204c: 85 14        	sta	$14                     ; 0x2014 <__mulsf3+0x846>
    204e: a5 15        	lda	$15                     ; 0x2015 <__mulsf3+0x847>
    2050: 69 00        	adc	#$0
    2052: 85 15        	sta	$15                     ; 0x2015 <__mulsf3+0x847>
    2054: a5 16        	lda	$16                     ; 0x2016 <__mulsf3+0x848>
    2056: 69 00        	adc	#$0
    2058: aa           	tax
    2059: a5 13        	lda	$13                     ; 0x2013 <__mulsf3+0x845>
    205b: 69 00        	adc	#$0
    205d: 85 13        	sta	$13                     ; 0x2013 <__mulsf3+0x845>
    205f: 8a           	txa
    2060: 80 17        	bra	$2079 <__mulsf3+0x8ab>
    2062: a6 38        	ldx	$38                     ; 0x2038 <__mulsf3+0x86a>
    2064: 80 02        	bra	$2068 <__mulsf3+0x89a>
    2066: a6 36        	ldx	$36                     ; 0x2036 <__mulsf3+0x868>
    2068: e0 00        	cpx	#$0
    206a: 90 c7        	bcc	$2033 <__mulsf3+0x865>
    206c: e6 14        	inc	$14                     ; 0x2014 <__mulsf3+0x846>
    206e: d0 09        	bne	$2079 <__mulsf3+0x8ab>
    2070: e6 15        	inc	$15                     ; 0x2015 <__mulsf3+0x847>
    2072: d0 05        	bne	$2079 <__mulsf3+0x8ab>
    2074: 1a           	inc
    2075: d0 02        	bne	$2079 <__mulsf3+0x8ab>
    2077: e6 13        	inc	$13                     ; 0x2013 <__mulsf3+0x845>
    2079: a4 15        	ldy	$15                     ; 0x2015 <__mulsf3+0x847>
    207b: a6 13        	ldx	$13                     ; 0x2013 <__mulsf3+0x845>
    207d: 85 12        	sta	$12                     ; 0x2012 <__mulsf3+0x844>
    207f: 86 13        	stx	$13                     ; 0x2013 <__mulsf3+0x845>
    2081: 5a           	phy
    2082: fa           	plx
    2083: a5 14        	lda	$14                     ; 0x2014 <__mulsf3+0x846>
    2085: 60           	rts

00002086 <__divsf3>:
    2086: 85 43        	sta	$43                     ; 0x2043 <__mulsf3+0x875>
    2088: 86 42        	stx	$42                     ; 0x2042 <__mulsf3+0x874>
    208a: a6 12        	ldx	$12                     ; 0x2012 <__mulsf3+0x844>
    208c: 86 19        	stx	$19                     ; 0x2019 <__mulsf3+0x84b>
    208e: a6 13        	ldx	$13                     ; 0x2013 <__mulsf3+0x845>
    2090: a4 14        	ldy	$14                     ; 0x2014 <__mulsf3+0x846>
    2092: 5a           	phy
    2093: a4 15        	ldy	$15                     ; 0x2015 <__mulsf3+0x847>
    2095: 84 18        	sty	$18                     ; 0x2018 <__mulsf3+0x84a>
    2097: a5 12        	lda	$12                     ; 0x2012 <__mulsf3+0x844>
    2099: 0a           	asl
    209a: 26 13        	rol	$13                     ; 0x2013 <__mulsf3+0x845>
    209c: a5 16        	lda	$16                     ; 0x2016 <__mulsf3+0x848>
    209e: a4 17        	ldy	$17                     ; 0x2017 <__mulsf3+0x849>
    20a0: 84 12        	sty	$12                     ; 0x2012 <__mulsf3+0x844>
    20a2: 7a           	ply
    20a3: 0a           	asl
    20a4: 26 12        	rol	$12                     ; 0x2012 <__mulsf3+0x844>
    20a6: 18           	clc
    20a7: a5 13        	lda	$13                     ; 0x2013 <__mulsf3+0x845>
    20a9: 85 37        	sta	$37                     ; 0x2037 <__mulsf3+0x869>
    20ab: a5 13        	lda	$13                     ; 0x2013 <__mulsf3+0x845>
    20ad: 69 01        	adc	#$1
    20af: 85 15        	sta	$15                     ; 0x2015 <__mulsf3+0x847>
    20b1: a9 00        	lda	#$0
    20b3: 69 ff        	adc	#$ff
    20b5: 85 1b        	sta	$1b                     ; 0x201b <__mulsf3+0x84d>
    20b7: 86 14        	stx	$14                     ; 0x2014 <__mulsf3+0x846>
    20b9: 86 13        	stx	$13                     ; 0x2013 <__mulsf3+0x845>
    20bb: a5 17        	lda	$17                     ; 0x2017 <__mulsf3+0x849>
    20bd: 45 13        	eor	$13                     ; 0x2013 <__mulsf3+0x845>
    20bf: 29 80        	and	#$80
    20c1: 85 44        	sta	$44                     ; 0x2044 <__mulsf3+0x876>
    20c3: a5 19        	lda	$19                     ; 0x2019 <__mulsf3+0x84b>
    20c5: 29 7f        	and	#$7f
    20c7: 85 36        	sta	$36                     ; 0x2036 <__mulsf3+0x868>
    20c9: a6 16        	ldx	$16                     ; 0x2016 <__mulsf3+0x848>
    20cb: 86 3a        	stx	$3a                     ; 0x203a <__mulsf3+0x86c>
    20cd: a5 16        	lda	$16                     ; 0x2016 <__mulsf3+0x848>
    20cf: 29 7f        	and	#$7f
    20d1: 85 38        	sta	$38                     ; 0x2038 <__mulsf3+0x86a>
    20d3: a6 1b        	ldx	$1b                     ; 0x201b <__mulsf3+0x84d>
    20d5: e0 ff        	cpx	#$ff
    20d7: d0 06        	bne	$20df <__divsf3+0x59>
    20d9: a6 15        	ldx	$15                     ; 0x2015 <__mulsf3+0x847>
    20db: e0 02        	cpx	#$2
    20dd: 80 02        	bra	$20e1 <__divsf3+0x5b>
    20df: e0 ff        	cpx	#$ff
    20e1: a6 14        	ldx	$14                     ; 0x2014 <__mulsf3+0x846>
    20e3: a5 19        	lda	$19                     ; 0x2019 <__mulsf3+0x84b>
    20e5: 90 31        	bcc	$2118 <__divsf3+0x92>
    20e7: 18           	clc
    20e8: a5 12        	lda	$12                     ; 0x2012 <__mulsf3+0x844>
    20ea: 69 01        	adc	#$1
    20ec: aa           	tax
    20ed: a9 00        	lda	#$0
    20ef: 69 ff        	adc	#$ff
    20f1: c9 ff        	cmp	#$ff
    20f3: d0 1b        	bne	$2110 <__divsf3+0x8a>
    20f5: e0 02        	cpx	#$2
    20f7: 90 1b        	bcc	$2114 <__divsf3+0x8e>
    20f9: a6 38        	ldx	$38                     ; 0x2038 <__mulsf3+0x86a>
    20fb: 86 19        	stx	$19                     ; 0x2019 <__mulsf3+0x84b>
    20fd: 84 40        	sty	$40                     ; 0x2040 <__mulsf3+0x872>
    20ff: a6 18        	ldx	$18                     ; 0x2018 <__mulsf3+0x84a>
    2101: 86 45        	stx	$45                     ; 0x2045 <__mulsf3+0x877>
    2103: a2 00        	ldx	#$0
    2105: 86 48        	stx	$48                     ; 0x2048 <__mulsf3+0x87a>
    2107: 64 13        	stz	$13                     ; 0x2013 <__mulsf3+0x845>
    2109: 64 14        	stz	$14                     ; 0x2014 <__mulsf3+0x846>
    210b: 64 15        	stz	$15                     ; 0x2015 <__mulsf3+0x847>
    210d: 4c c1 26     	jmp	$26c1 <__divsf3+0x63b>
    2110: c9 ff        	cmp	#$ff
    2112: b0 e5        	bcs	$20f9 <__divsf3+0x73>
    2114: a6 14        	ldx	$14                     ; 0x2014 <__mulsf3+0x846>
    2116: a5 19        	lda	$19                     ; 0x2019 <__mulsf3+0x84b>
    2118: 85 13        	sta	$13                     ; 0x2013 <__mulsf3+0x845>
    211a: 8a           	txa
    211b: 29 7f        	and	#$7f
    211d: c9 7f        	cmp	#$7f
    211f: d0 14        	bne	$2135 <__divsf3+0xaf>
    2121: 85 15        	sta	$15                     ; 0x2015 <__mulsf3+0x847>
    2123: a5 13        	lda	$13                     ; 0x2013 <__mulsf3+0x845>
    2125: c9 80        	cmp	#$80
    2127: d0 3d        	bne	$2166 <__divsf3+0xe0>
    2129: 84 13        	sty	$13                     ; 0x2013 <__mulsf3+0x845>
    212b: a4 42        	ldy	$42                     ; 0x2042 <__mulsf3+0x874>
    212d: d0 4f        	bne	$217e <__divsf3+0xf8>
    212f: a6 43        	ldx	$43                     ; 0x2043 <__mulsf3+0x875>
    2131: e0 01        	cpx	#$1
    2133: 80 4b        	bra	$2180 <__divsf3+0xfa>
    2135: 85 15        	sta	$15                     ; 0x2015 <__mulsf3+0x847>
    2137: c9 7f        	cmp	#$7f
    2139: a5 13        	lda	$13                     ; 0x2013 <__mulsf3+0x845>
    213b: b0 2d        	bcs	$216a <__divsf3+0xe4>
    213d: a5 17        	lda	$17                     ; 0x2017 <__mulsf3+0x849>
    213f: 29 7f        	and	#$7f
    2141: 85 3b        	sta	$3b                     ; 0x203b <__mulsf3+0x86d>
    2143: c9 7f        	cmp	#$7f
    2145: d0 33        	bne	$217a <__divsf3+0xf4>
    2147: a6 16        	ldx	$16                     ; 0x2016 <__mulsf3+0x848>
    2149: e0 80        	cpx	#$80
    214b: d0 39        	bne	$2186 <__divsf3+0x100>
    214d: a5 18        	lda	$18                     ; 0x2018 <__mulsf3+0x84a>
    214f: f0 03        	beq	$2154 <__divsf3+0xce>
    2151: 4c 3d 22     	jmp	$223d <__divsf3+0x1b7>
    2154: c0 01        	cpy	#$1
    2156: 90 34        	bcc	$218c <__divsf3+0x106>
    2158: 85 15        	sta	$15                     ; 0x2015 <__mulsf3+0x847>
    215a: a5 16        	lda	$16                     ; 0x2016 <__mulsf3+0x848>
    215c: 09 40        	ora	#$40
    215e: 84 18        	sty	$18                     ; 0x2018 <__mulsf3+0x84a>
    2160: a8           	tay
    2161: a5 17        	lda	$17                     ; 0x2017 <__mulsf3+0x849>
    2163: 4c d4 2b     	jmp	$2bd4 <__divsf3+0xb4e>
    2166: c9 80        	cmp	#$80
    2168: 90 d3        	bcc	$213d <__divsf3+0xb7>
    216a: 09 40        	ora	#$40
    216c: a8           	tay
    216d: a6 43        	ldx	$43                     ; 0x2043 <__mulsf3+0x875>
    216f: 86 18        	stx	$18                     ; 0x2018 <__mulsf3+0x84a>
    2171: a6 42        	ldx	$42                     ; 0x2042 <__mulsf3+0x874>
    2173: 86 15        	stx	$15                     ; 0x2015 <__mulsf3+0x847>
    2175: a5 14        	lda	$14                     ; 0x2014 <__mulsf3+0x846>
    2177: 4c d4 2b     	jmp	$2bd4 <__divsf3+0xb4e>
    217a: c9 7f        	cmp	#$7f
    217c: 80 0a        	bra	$2188 <__divsf3+0x102>
    217e: c0 00        	cpy	#$0
    2180: a4 13        	ldy	$13                     ; 0x2013 <__mulsf3+0x845>
    2182: 90 b9        	bcc	$213d <__divsf3+0xb7>
    2184: 80 e4        	bra	$216a <__divsf3+0xe4>
    2186: e0 80        	cpx	#$80
    2188: a5 18        	lda	$18                     ; 0x2018 <__mulsf3+0x84a>
    218a: b0 cc        	bcs	$2158 <__divsf3+0xd2>
    218c: a6 15        	ldx	$15                     ; 0x2015 <__mulsf3+0x847>
    218e: 86 16        	stx	$16                     ; 0x2016 <__mulsf3+0x848>
    2190: e0 7f        	cpx	#$7f
    2192: d0 38        	bne	$21cc <__divsf3+0x146>
    2194: a6 19        	ldx	$19                     ; 0x2019 <__mulsf3+0x84b>
    2196: e0 80        	cpx	#$80
    2198: d0 32        	bne	$21cc <__divsf3+0x146>
    219a: a6 42        	ldx	$42                     ; 0x2042 <__mulsf3+0x874>
    219c: d0 2e        	bne	$21cc <__divsf3+0x146>
    219e: a6 43        	ldx	$43                     ; 0x2043 <__mulsf3+0x875>
    21a0: d0 2a        	bne	$21cc <__divsf3+0x146>
    21a2: a6 3b        	ldx	$3b                     ; 0x203b <__mulsf3+0x86d>
    21a4: e0 7f        	cpx	#$7f
    21a6: f0 03        	beq	$21ab <__divsf3+0x125>
    21a8: 4c 51 2a     	jmp	$2a51 <__divsf3+0x9cb>
    21ab: a5 3a        	lda	$3a                     ; 0x203a <__mulsf3+0x86c>
    21ad: c9 80        	cmp	#$80
    21af: f0 03        	beq	$21b4 <__divsf3+0x12e>
    21b1: 4c 51 2a     	jmp	$2a51 <__divsf3+0x9cb>
    21b4: a5 18        	lda	$18                     ; 0x2018 <__mulsf3+0x84a>
    21b6: f0 03        	beq	$21bb <__divsf3+0x135>
    21b8: 4c 51 2a     	jmp	$2a51 <__divsf3+0x9cb>
    21bb: 98           	tya
    21bc: f0 03        	beq	$21c1 <__divsf3+0x13b>
    21be: 4c 51 2a     	jmp	$2a51 <__divsf3+0x9cb>
    21c1: a0 c0        	ldy	#$c0
    21c3: a9 7f        	lda	#$7f
    21c5: 64 18        	stz	$18                     ; 0x2018 <__mulsf3+0x84a>
    21c7: 64 15        	stz	$15                     ; 0x2015 <__mulsf3+0x847>
    21c9: 4c d4 2b     	jmp	$2bd4 <__divsf3+0xb4e>
    21cc: a6 3b        	ldx	$3b                     ; 0x203b <__mulsf3+0x86d>
    21ce: e0 7f        	cpx	#$7f
    21d0: d0 10        	bne	$21e2 <__divsf3+0x15c>
    21d2: a6 3a        	ldx	$3a                     ; 0x203a <__mulsf3+0x86c>
    21d4: e0 80        	cpx	#$80
    21d6: d0 0a        	bne	$21e2 <__divsf3+0x15c>
    21d8: aa           	tax
    21d9: d0 07        	bne	$21e2 <__divsf3+0x15c>
    21db: c0 00        	cpy	#$0
    21dd: d0 03        	bne	$21e2 <__divsf3+0x15c>
    21df: 4c c7 2a     	jmp	$2ac7 <__divsf3+0xa41>
    21e2: 84 14        	sty	$14                     ; 0x2014 <__mulsf3+0x846>
    21e4: a6 43        	ldx	$43                     ; 0x2043 <__mulsf3+0x875>
    21e6: 86 15        	stx	$15                     ; 0x2015 <__mulsf3+0x847>
    21e8: a6 19        	ldx	$19                     ; 0x2019 <__mulsf3+0x84b>
    21ea: a4 42        	ldy	$42                     ; 0x2042 <__mulsf3+0x874>
    21ec: 84 13        	sty	$13                     ; 0x2013 <__mulsf3+0x845>
    21ee: a4 16        	ldy	$16                     ; 0x2016 <__mulsf3+0x848>
    21f0: d0 0f        	bne	$2201 <__divsf3+0x17b>
    21f2: e0 00        	cpx	#$0
    21f4: d0 0b        	bne	$2201 <__divsf3+0x17b>
    21f6: a6 13        	ldx	$13                     ; 0x2013 <__mulsf3+0x845>
    21f8: d0 07        	bne	$2201 <__divsf3+0x17b>
    21fa: a6 15        	ldx	$15                     ; 0x2015 <__mulsf3+0x847>
    21fc: d0 03        	bne	$2201 <__divsf3+0x17b>
    21fe: 4c e8 2b     	jmp	$2be8 <__divsf3+0xb62>
    2201: a6 14        	ldx	$14                     ; 0x2014 <__mulsf3+0x846>
    2203: 86 13        	stx	$13                     ; 0x2013 <__mulsf3+0x845>
    2205: a6 3a        	ldx	$3a                     ; 0x203a <__mulsf3+0x86c>
    2207: a4 3b        	ldy	$3b                     ; 0x203b <__mulsf3+0x86d>
    2209: d0 0e        	bne	$2219 <__divsf3+0x193>
    220b: e0 00        	cpx	#$0
    220d: d0 0a        	bne	$2219 <__divsf3+0x193>
    220f: aa           	tax
    2210: d0 07        	bne	$2219 <__divsf3+0x193>
    2212: a5 13        	lda	$13                     ; 0x2013 <__mulsf3+0x845>
    2214: d0 03        	bne	$2219 <__divsf3+0x193>
    2216: 4c 51 2a     	jmp	$2a51 <__divsf3+0x9cb>
    2219: a6 14        	ldx	$14                     ; 0x2014 <__mulsf3+0x846>
    221b: 86 17        	stx	$17                     ; 0x2017 <__mulsf3+0x849>
    221d: a5 16        	lda	$16                     ; 0x2016 <__mulsf3+0x848>
    221f: d0 14        	bne	$2235 <__divsf3+0x1af>
    2221: a6 19        	ldx	$19                     ; 0x2019 <__mulsf3+0x84b>
    2223: e0 80        	cpx	#$80
    2225: d0 20        	bne	$2247 <__divsf3+0x1c1>
    2227: a4 42        	ldy	$42                     ; 0x2042 <__mulsf3+0x874>
    2229: a5 3a        	lda	$3a                     ; 0x203a <__mulsf3+0x86c>
    222b: c0 00        	cpy	#$0
    222d: d0 20        	bne	$224f <__divsf3+0x1c9>
    222f: a6 43        	ldx	$43                     ; 0x2043 <__mulsf3+0x875>
    2231: e0 00        	cpx	#$0
    2233: 80 1c        	bra	$2251 <__divsf3+0x1cb>
    2235: a6 16        	ldx	$16                     ; 0x2016 <__mulsf3+0x848>
    2237: e0 00        	cpx	#$0
    2239: b0 10        	bcs	$224b <__divsf3+0x1c5>
    223b: 80 23        	bra	$2260 <__divsf3+0x1da>
    223d: c9 00        	cmp	#$0
    223f: 90 03        	bcc	$2244 <__divsf3+0x1be>
    2241: 4c 58 21     	jmp	$2158 <__divsf3+0xd2>
    2244: 4c 8c 21     	jmp	$218c <__divsf3+0x106>
    2247: e0 80        	cpx	#$80
    2249: 90 15        	bcc	$2260 <__divsf3+0x1da>
    224b: a5 3a        	lda	$3a                     ; 0x203a <__mulsf3+0x86c>
    224d: 80 08        	bra	$2257 <__divsf3+0x1d1>
    224f: c0 00        	cpy	#$0
    2251: a6 14        	ldx	$14                     ; 0x2014 <__mulsf3+0x846>
    2253: 86 17        	stx	$17                     ; 0x2017 <__mulsf3+0x849>
    2255: 90 09        	bcc	$2260 <__divsf3+0x1da>
    2257: 64 13        	stz	$13                     ; 0x2013 <__mulsf3+0x845>
    2259: 64 14        	stz	$14                     ; 0x2014 <__mulsf3+0x846>
    225b: 64 15        	stz	$15                     ; 0x2015 <__mulsf3+0x847>
    225d: 4c 66 24     	jmp	$2466 <__divsf3+0x3e0>
    2260: a6 18        	ldx	$18                     ; 0x2018 <__mulsf3+0x84a>
    2262: 86 45        	stx	$45                     ; 0x2045 <__mulsf3+0x877>
    2264: a4 14        	ldy	$14                     ; 0x2014 <__mulsf3+0x846>
    2266: 84 46        	sty	$46                     ; 0x2046 <__mulsf3+0x878>
    2268: a6 12        	ldx	$12                     ; 0x2012 <__mulsf3+0x844>
    226a: 86 47        	stx	$47                     ; 0x2047 <__mulsf3+0x879>
    226c: a4 36        	ldy	$36                     ; 0x2036 <__mulsf3+0x868>
    226e: a5 36        	lda	$36                     ; 0x2036 <__mulsf3+0x868>
    2270: 4a           	lsr
    2271: 85 12        	sta	$12                     ; 0x2012 <__mulsf3+0x844>
    2273: a6 42        	ldx	$42                     ; 0x2042 <__mulsf3+0x874>
    2275: 8a           	txa
    2276: 6a           	ror
    2277: 85 13        	sta	$13                     ; 0x2013 <__mulsf3+0x845>
    2279: a5 43        	lda	$43                     ; 0x2043 <__mulsf3+0x875>
    227b: 85 36        	sta	$36                     ; 0x2036 <__mulsf3+0x868>
    227d: 6a           	ror
    227e: 85 14        	sta	$14                     ; 0x2014 <__mulsf3+0x846>
    2280: a5 36        	lda	$36                     ; 0x2036 <__mulsf3+0x868>
    2282: 05 14        	ora	$14                     ; 0x2014 <__mulsf3+0x846>
    2284: 85 16        	sta	$16                     ; 0x2016 <__mulsf3+0x848>
    2286: 8a           	txa
    2287: 05 13        	ora	$13                     ; 0x2013 <__mulsf3+0x845>
    2289: 85 15        	sta	$15                     ; 0x2015 <__mulsf3+0x847>
    228b: 98           	tya
    228c: 05 12        	ora	$12                     ; 0x2012 <__mulsf3+0x844>
    228e: 85 17        	sta	$17                     ; 0x2017 <__mulsf3+0x849>
    2290: 4a           	lsr
    2291: 5a           	phy
    2292: a4 15        	ldy	$15                     ; 0x2015 <__mulsf3+0x847>
    2294: 84 12        	sty	$12                     ; 0x2012 <__mulsf3+0x844>
    2296: 66 12        	ror	$12                     ; 0x2012 <__mulsf3+0x844>
    2298: a4 16        	ldy	$16                     ; 0x2016 <__mulsf3+0x848>
    229a: 84 13        	sty	$13                     ; 0x2013 <__mulsf3+0x845>
    229c: 66 13        	ror	$13                     ; 0x2013 <__mulsf3+0x845>
    229e: 4a           	lsr
    229f: 85 14        	sta	$14                     ; 0x2014 <__mulsf3+0x846>
    22a1: 66 12        	ror	$12                     ; 0x2012 <__mulsf3+0x844>
    22a3: 66 13        	ror	$13                     ; 0x2013 <__mulsf3+0x845>
    22a5: a5 16        	lda	$16                     ; 0x2016 <__mulsf3+0x848>
    22a7: 05 13        	ora	$13                     ; 0x2013 <__mulsf3+0x845>
    22a9: 85 16        	sta	$16                     ; 0x2016 <__mulsf3+0x848>
    22ab: a5 15        	lda	$15                     ; 0x2015 <__mulsf3+0x847>
    22ad: 05 12        	ora	$12                     ; 0x2012 <__mulsf3+0x844>
    22af: 85 15        	sta	$15                     ; 0x2015 <__mulsf3+0x847>
    22b1: a5 17        	lda	$17                     ; 0x2017 <__mulsf3+0x849>
    22b3: 05 14        	ora	$14                     ; 0x2014 <__mulsf3+0x846>
    22b5: 85 17        	sta	$17                     ; 0x2017 <__mulsf3+0x849>
    22b7: 4a           	lsr
    22b8: a4 15        	ldy	$15                     ; 0x2015 <__mulsf3+0x847>
    22ba: 84 12        	sty	$12                     ; 0x2012 <__mulsf3+0x844>
    22bc: 66 12        	ror	$12                     ; 0x2012 <__mulsf3+0x844>
    22be: a4 16        	ldy	$16                     ; 0x2016 <__mulsf3+0x848>
    22c0: 84 13        	sty	$13                     ; 0x2013 <__mulsf3+0x845>
    22c2: 66 13        	ror	$13                     ; 0x2013 <__mulsf3+0x845>
    22c4: 4a           	lsr
    22c5: 66 12        	ror	$12                     ; 0x2012 <__mulsf3+0x844>
    22c7: 66 13        	ror	$13                     ; 0x2013 <__mulsf3+0x845>
    22c9: 4a           	lsr
    22ca: 66 12        	ror	$12                     ; 0x2012 <__mulsf3+0x844>
    22cc: 66 13        	ror	$13                     ; 0x2013 <__mulsf3+0x845>
    22ce: 4a           	lsr
    22cf: 85 14        	sta	$14                     ; 0x2014 <__mulsf3+0x846>
    22d1: 66 12        	ror	$12                     ; 0x2012 <__mulsf3+0x844>
    22d3: 66 13        	ror	$13                     ; 0x2013 <__mulsf3+0x845>
    22d5: a5 16        	lda	$16                     ; 0x2016 <__mulsf3+0x848>
    22d7: 05 13        	ora	$13                     ; 0x2013 <__mulsf3+0x845>
    22d9: 85 16        	sta	$16                     ; 0x2016 <__mulsf3+0x848>
    22db: a5 15        	lda	$15                     ; 0x2015 <__mulsf3+0x847>
    22dd: 05 12        	ora	$12                     ; 0x2012 <__mulsf3+0x844>
    22df: 85 13        	sta	$13                     ; 0x2013 <__mulsf3+0x845>
    22e1: a5 17        	lda	$17                     ; 0x2017 <__mulsf3+0x849>
    22e3: 05 14        	ora	$14                     ; 0x2014 <__mulsf3+0x846>
    22e5: 85 17        	sta	$17                     ; 0x2017 <__mulsf3+0x849>
    22e7: a5 16        	lda	$16                     ; 0x2016 <__mulsf3+0x848>
    22e9: 05 13        	ora	$13                     ; 0x2013 <__mulsf3+0x845>
    22eb: 85 14        	sta	$14                     ; 0x2014 <__mulsf3+0x846>
    22ed: a5 13        	lda	$13                     ; 0x2013 <__mulsf3+0x845>
    22ef: 05 17        	ora	$17                     ; 0x2017 <__mulsf3+0x849>
    22f1: 85 15        	sta	$15                     ; 0x2015 <__mulsf3+0x847>
    22f3: a5 14        	lda	$14                     ; 0x2014 <__mulsf3+0x846>
    22f5: 05 17        	ora	$17                     ; 0x2017 <__mulsf3+0x849>
    22f7: 85 16        	sta	$16                     ; 0x2016 <__mulsf3+0x848>
    22f9: a5 17        	lda	$17                     ; 0x2017 <__mulsf3+0x849>
    22fb: 85 14        	sta	$14                     ; 0x2014 <__mulsf3+0x846>
    22fd: 46 14        	lsr	$14                     ; 0x2014 <__mulsf3+0x846>
    22ff: a5 16        	lda	$16                     ; 0x2016 <__mulsf3+0x848>
    2301: 4a           	lsr
    2302: 29 55        	and	#$55
    2304: 85 12        	sta	$12                     ; 0x2012 <__mulsf3+0x844>
    2306: a5 15        	lda	$15                     ; 0x2015 <__mulsf3+0x847>
    2308: 4a           	lsr
    2309: 29 55        	and	#$55
    230b: 85 13        	sta	$13                     ; 0x2013 <__mulsf3+0x845>
    230d: a5 14        	lda	$14                     ; 0x2014 <__mulsf3+0x846>
    230f: 29 55        	and	#$55
    2311: 85 14        	sta	$14                     ; 0x2014 <__mulsf3+0x846>
    2313: 38           	sec
    2314: a5 16        	lda	$16                     ; 0x2016 <__mulsf3+0x848>
    2316: e5 12        	sbc	$12                     ; 0x2012 <__mulsf3+0x844>
    2318: 85 12        	sta	$12                     ; 0x2012 <__mulsf3+0x844>
    231a: a5 15        	lda	$15                     ; 0x2015 <__mulsf3+0x847>
    231c: e5 13        	sbc	$13                     ; 0x2013 <__mulsf3+0x845>
    231e: 85 13        	sta	$13                     ; 0x2013 <__mulsf3+0x845>
    2320: a5 17        	lda	$17                     ; 0x2017 <__mulsf3+0x849>
    2322: e5 14        	sbc	$14                     ; 0x2014 <__mulsf3+0x846>
    2324: 85 14        	sta	$14                     ; 0x2014 <__mulsf3+0x846>
    2326: a9 00        	lda	#$0
    2328: e9 00        	sbc	#$0
    232a: 85 15        	sta	$15                     ; 0x2015 <__mulsf3+0x847>
    232c: a5 12        	lda	$12                     ; 0x2012 <__mulsf3+0x844>
    232e: 85 16        	sta	$16                     ; 0x2016 <__mulsf3+0x848>
    2330: 29 33        	and	#$33
    2332: 85 12        	sta	$12                     ; 0x2012 <__mulsf3+0x844>
    2334: a5 13        	lda	$13                     ; 0x2013 <__mulsf3+0x845>
    2336: 85 17        	sta	$17                     ; 0x2017 <__mulsf3+0x849>
    2338: 29 33        	and	#$33
    233a: 85 13        	sta	$13                     ; 0x2013 <__mulsf3+0x845>
    233c: a5 14        	lda	$14                     ; 0x2014 <__mulsf3+0x846>
    233e: 85 18        	sta	$18                     ; 0x2018 <__mulsf3+0x84a>
    2340: 29 33        	and	#$33
    2342: 85 14        	sta	$14                     ; 0x2014 <__mulsf3+0x846>
    2344: a5 15        	lda	$15                     ; 0x2015 <__mulsf3+0x847>
    2346: 4a           	lsr
    2347: 85 19        	sta	$19                     ; 0x2019 <__mulsf3+0x84b>
    2349: 46 18        	lsr	$18                     ; 0x2018 <__mulsf3+0x84a>
    234b: 46 17        	lsr	$17                     ; 0x2017 <__mulsf3+0x849>
    234d: a5 16        	lda	$16                     ; 0x2016 <__mulsf3+0x848>
    234f: 4a           	lsr
    2350: 46 19        	lsr	$19                     ; 0x2019 <__mulsf3+0x84b>
    2352: 46 18        	lsr	$18                     ; 0x2018 <__mulsf3+0x84a>
    2354: a4 17        	ldy	$17                     ; 0x2017 <__mulsf3+0x849>
    2356: 84 16        	sty	$16                     ; 0x2016 <__mulsf3+0x848>
    2358: 46 16        	lsr	$16                     ; 0x2016 <__mulsf3+0x848>
    235a: 4a           	lsr
    235b: 29 33        	and	#$33
    235d: 85 1a        	sta	$1a                     ; 0x201a <__mulsf3+0x84c>
    235f: a5 16        	lda	$16                     ; 0x2016 <__mulsf3+0x848>
    2361: 29 33        	and	#$33
    2363: 85 16        	sta	$16                     ; 0x2016 <__mulsf3+0x848>
    2365: a5 18        	lda	$18                     ; 0x2018 <__mulsf3+0x84a>
    2367: 29 33        	and	#$33
    2369: 85 17        	sta	$17                     ; 0x2017 <__mulsf3+0x849>
    236b: a5 19        	lda	$19                     ; 0x2019 <__mulsf3+0x84b>
    236d: 29 33        	and	#$33
    236f: 85 18        	sta	$18                     ; 0x2018 <__mulsf3+0x84a>
    2371: a5 15        	lda	$15                     ; 0x2015 <__mulsf3+0x847>
    2373: 29 33        	and	#$33
    2375: 85 15        	sta	$15                     ; 0x2015 <__mulsf3+0x847>
    2377: 18           	clc
    2378: a5 1a        	lda	$1a                     ; 0x201a <__mulsf3+0x84c>
    237a: 65 12        	adc	$12                     ; 0x2012 <__mulsf3+0x844>
    237c: 85 12        	sta	$12                     ; 0x2012 <__mulsf3+0x844>
    237e: a5 16        	lda	$16                     ; 0x2016 <__mulsf3+0x848>
    2380: 65 13        	adc	$13                     ; 0x2013 <__mulsf3+0x845>
    2382: 85 13        	sta	$13                     ; 0x2013 <__mulsf3+0x845>
    2384: a5 17        	lda	$17                     ; 0x2017 <__mulsf3+0x849>
    2386: 65 14        	adc	$14                     ; 0x2014 <__mulsf3+0x846>
    2388: 85 14        	sta	$14                     ; 0x2014 <__mulsf3+0x846>
    238a: a5 18        	lda	$18                     ; 0x2018 <__mulsf3+0x84a>
    238c: 65 15        	adc	$15                     ; 0x2015 <__mulsf3+0x847>
    238e: 85 15        	sta	$15                     ; 0x2015 <__mulsf3+0x847>
    2390: 4a           	lsr
    2391: 85 16        	sta	$16                     ; 0x2016 <__mulsf3+0x848>
    2393: a5 14        	lda	$14                     ; 0x2014 <__mulsf3+0x846>
    2395: 6a           	ror
    2396: a4 13        	ldy	$13                     ; 0x2013 <__mulsf3+0x845>
    2398: 84 17        	sty	$17                     ; 0x2017 <__mulsf3+0x849>
    239a: 66 17        	ror	$17                     ; 0x2017 <__mulsf3+0x849>
    239c: a4 12        	ldy	$12                     ; 0x2012 <__mulsf3+0x844>
    239e: 84 18        	sty	$18                     ; 0x2018 <__mulsf3+0x84a>
    23a0: 7a           	ply
    23a1: 66 18        	ror	$18                     ; 0x2018 <__mulsf3+0x84a>
    23a3: 46 16        	lsr	$16                     ; 0x2016 <__mulsf3+0x848>
    23a5: 6a           	ror
    23a6: 66 17        	ror	$17                     ; 0x2017 <__mulsf3+0x849>
    23a8: 66 18        	ror	$18                     ; 0x2018 <__mulsf3+0x84a>
    23aa: 46 16        	lsr	$16                     ; 0x2016 <__mulsf3+0x848>
    23ac: 6a           	ror
    23ad: 66 17        	ror	$17                     ; 0x2017 <__mulsf3+0x849>
    23af: 66 18        	ror	$18                     ; 0x2018 <__mulsf3+0x84a>
    23b1: 46 16        	lsr	$16                     ; 0x2016 <__mulsf3+0x848>
    23b3: 6a           	ror
    23b4: 85 19        	sta	$19                     ; 0x2019 <__mulsf3+0x84b>
    23b6: a5 17        	lda	$17                     ; 0x2017 <__mulsf3+0x849>
    23b8: 85 1a        	sta	$1a                     ; 0x201a <__mulsf3+0x84c>
    23ba: 66 1a        	ror	$1a                     ; 0x201a <__mulsf3+0x84c>
    23bc: a5 18        	lda	$18                     ; 0x2018 <__mulsf3+0x84a>
    23be: 6a           	ror
    23bf: 18           	clc
    23c0: 65 12        	adc	$12                     ; 0x2012 <__mulsf3+0x844>
    23c2: 85 12        	sta	$12                     ; 0x2012 <__mulsf3+0x844>
    23c4: a5 1a        	lda	$1a                     ; 0x201a <__mulsf3+0x84c>
    23c6: 65 13        	adc	$13                     ; 0x2013 <__mulsf3+0x845>
    23c8: 85 13        	sta	$13                     ; 0x2013 <__mulsf3+0x845>
    23ca: a5 19        	lda	$19                     ; 0x2019 <__mulsf3+0x84b>
    23cc: 65 14        	adc	$14                     ; 0x2014 <__mulsf3+0x846>
    23ce: 85 14        	sta	$14                     ; 0x2014 <__mulsf3+0x846>
    23d0: a5 16        	lda	$16                     ; 0x2016 <__mulsf3+0x848>
    23d2: 65 15        	adc	$15                     ; 0x2015 <__mulsf3+0x847>
    23d4: 85 15        	sta	$15                     ; 0x2015 <__mulsf3+0x847>
    23d6: a5 12        	lda	$12                     ; 0x2012 <__mulsf3+0x844>
    23d8: 29 0f        	and	#$f
    23da: 85 12        	sta	$12                     ; 0x2012 <__mulsf3+0x844>
    23dc: 85 18        	sta	$18                     ; 0x2018 <__mulsf3+0x84a>
    23de: a5 13        	lda	$13                     ; 0x2013 <__mulsf3+0x845>
    23e0: 29 0f        	and	#$f
    23e2: 85 13        	sta	$13                     ; 0x2013 <__mulsf3+0x845>
    23e4: 85 17        	sta	$17                     ; 0x2017 <__mulsf3+0x849>
    23e6: a5 14        	lda	$14                     ; 0x2014 <__mulsf3+0x846>
    23e8: 29 0f        	and	#$f
    23ea: 85 14        	sta	$14                     ; 0x2014 <__mulsf3+0x846>
    23ec: 85 19        	sta	$19                     ; 0x2019 <__mulsf3+0x84b>
    23ee: a5 15        	lda	$15                     ; 0x2015 <__mulsf3+0x847>
    23f0: 29 0f        	and	#$f
    23f2: 85 16        	sta	$16                     ; 0x2016 <__mulsf3+0x848>
    23f4: 18           	clc
    23f5: a5 18        	lda	$18                     ; 0x2018 <__mulsf3+0x84a>
    23f7: 69 00        	adc	#$0
    23f9: 85 15        	sta	$15                     ; 0x2015 <__mulsf3+0x847>
    23fb: 85 1a        	sta	$1a                     ; 0x201a <__mulsf3+0x84c>
    23fd: a5 17        	lda	$17                     ; 0x2017 <__mulsf3+0x849>
    23ff: 65 12        	adc	$12                     ; 0x2012 <__mulsf3+0x844>
    2401: 85 12        	sta	$12                     ; 0x2012 <__mulsf3+0x844>
    2403: 85 18        	sta	$18                     ; 0x2018 <__mulsf3+0x84a>
    2405: a5 19        	lda	$19                     ; 0x2019 <__mulsf3+0x84b>
    2407: 65 13        	adc	$13                     ; 0x2013 <__mulsf3+0x845>
    2409: 85 17        	sta	$17                     ; 0x2017 <__mulsf3+0x849>
    240b: a5 16        	lda	$16                     ; 0x2016 <__mulsf3+0x848>
    240d: 65 14        	adc	$14                     ; 0x2014 <__mulsf3+0x846>
    240f: 85 13        	sta	$13                     ; 0x2013 <__mulsf3+0x845>
    2411: 18           	clc
    2412: a5 1a        	lda	$1a                     ; 0x201a <__mulsf3+0x84c>
    2414: 69 00        	adc	#$0
    2416: a5 18        	lda	$18                     ; 0x2018 <__mulsf3+0x84a>
    2418: 69 00        	adc	#$0
    241a: a5 17        	lda	$17                     ; 0x2017 <__mulsf3+0x849>
    241c: 65 15        	adc	$15                     ; 0x2015 <__mulsf3+0x847>
    241e: a5 13        	lda	$13                     ; 0x2013 <__mulsf3+0x845>
    2420: 65 12        	adc	$12                     ; 0x2012 <__mulsf3+0x844>
    2422: 85 12        	sta	$12                     ; 0x2012 <__mulsf3+0x844>
    2424: a9 20        	lda	#$20
    2426: 38           	sec
    2427: e5 12        	sbc	$12                     ; 0x2012 <__mulsf3+0x844>
    2429: 85 12        	sta	$12                     ; 0x2012 <__mulsf3+0x844>
    242b: a9 00        	lda	#$0
    242d: e9 00        	sbc	#$0
    242f: 85 39        	sta	$39                     ; 0x2039 <__mulsf3+0x86b>
    2431: 64 13        	stz	$13                     ; 0x2013 <__mulsf3+0x845>
    2433: a5 12        	lda	$12                     ; 0x2012 <__mulsf3+0x844>
    2435: 85 3c        	sta	$3c                     ; 0x203c <__mulsf3+0x86e>
    2437: 18           	clc
    2438: 69 f8        	adc	#$f8
    243a: 85 14        	sta	$14                     ; 0x2014 <__mulsf3+0x846>
    243c: 84 12        	sty	$12                     ; 0x2012 <__mulsf3+0x844>
    243e: a5 36        	lda	$36                     ; 0x2036 <__mulsf3+0x868>
    2440: 20 6c 0a     	jsr	$a6c <__ashlsi3>
    2443: 85 43        	sta	$43                     ; 0x2043 <__mulsf3+0x875>
    2445: 86 42        	stx	$42                     ; 0x2042 <__mulsf3+0x874>
    2447: a6 12        	ldx	$12                     ; 0x2012 <__mulsf3+0x844>
    2449: 86 36        	stx	$36                     ; 0x2036 <__mulsf3+0x868>
    244b: a9 09        	lda	#$9
    244d: 38           	sec
    244e: e5 3c        	sbc	$3c                     ; 0x203c <__mulsf3+0x86e>
    2450: 85 14        	sta	$14                     ; 0x2014 <__mulsf3+0x846>
    2452: a9 00        	lda	#$0
    2454: e5 39        	sbc	$39                     ; 0x2039 <__mulsf3+0x86b>
    2456: 85 15        	sta	$15                     ; 0x2015 <__mulsf3+0x847>
    2458: a6 47        	ldx	$47                     ; 0x2047 <__mulsf3+0x879>
    245a: 86 12        	stx	$12                     ; 0x2012 <__mulsf3+0x844>
    245c: a4 46        	ldy	$46                     ; 0x2046 <__mulsf3+0x878>
    245e: 84 17        	sty	$17                     ; 0x2017 <__mulsf3+0x849>
    2460: a6 45        	ldx	$45                     ; 0x2045 <__mulsf3+0x877>
    2462: 86 18        	stx	$18                     ; 0x2018 <__mulsf3+0x84a>
    2464: a5 3a        	lda	$3a                     ; 0x203a <__mulsf3+0x86c>
    2466: a6 3b        	ldx	$3b                     ; 0x203b <__mulsf3+0x86d>
    2468: f0 03        	beq	$246d <__divsf3+0x3e7>
    246a: 4c 9e 26     	jmp	$269e <__divsf3+0x618>
    246d: c9 80        	cmp	#$80
    246f: f0 03        	beq	$2474 <__divsf3+0x3ee>
    2471: 4c a8 26     	jmp	$26a8 <__divsf3+0x622>
    2474: a6 18        	ldx	$18                     ; 0x2018 <__mulsf3+0x84a>
    2476: f0 03        	beq	$247b <__divsf3+0x3f5>
    2478: 4c dd 2b     	jmp	$2bdd <__divsf3+0xb57>
    247b: 86 45        	stx	$45                     ; 0x2045 <__mulsf3+0x877>
    247d: a6 17        	ldx	$17                     ; 0x2017 <__mulsf3+0x849>
    247f: e0 00        	cpx	#$0
    2481: a4 38        	ldy	$38                     ; 0x2038 <__mulsf3+0x86a>
    2483: 84 19        	sty	$19                     ; 0x2019 <__mulsf3+0x84b>
    2485: 90 03        	bcc	$248a <__divsf3+0x404>
    2487: 4c b9 26     	jmp	$26b9 <__divsf3+0x633>
    248a: 86 16        	stx	$16                     ; 0x2016 <__mulsf3+0x848>
    248c: a6 15        	ldx	$15                     ; 0x2015 <__mulsf3+0x847>
    248e: 86 46        	stx	$46                     ; 0x2046 <__mulsf3+0x878>
    2490: a6 14        	ldx	$14                     ; 0x2014 <__mulsf3+0x846>
    2492: 86 49        	stx	$49                     ; 0x2049 <__mulsf3+0x87b>
    2494: a6 12        	ldx	$12                     ; 0x2012 <__mulsf3+0x844>
    2496: 86 47        	stx	$47                     ; 0x2047 <__mulsf3+0x879>
    2498: a6 13        	ldx	$13                     ; 0x2013 <__mulsf3+0x845>
    249a: 86 48        	stx	$48                     ; 0x2048 <__mulsf3+0x87a>
    249c: a4 38        	ldy	$38                     ; 0x2038 <__mulsf3+0x86a>
    249e: a5 38        	lda	$38                     ; 0x2038 <__mulsf3+0x86a>
    24a0: 4a           	lsr
    24a1: 85 12        	sta	$12                     ; 0x2012 <__mulsf3+0x844>
    24a3: a6 45        	ldx	$45                     ; 0x2045 <__mulsf3+0x877>
    24a5: 8a           	txa
    24a6: 6a           	ror
    24a7: 85 13        	sta	$13                     ; 0x2013 <__mulsf3+0x845>
    24a9: a5 16        	lda	$16                     ; 0x2016 <__mulsf3+0x848>
    24ab: 6a           	ror
    24ac: 85 14        	sta	$14                     ; 0x2014 <__mulsf3+0x846>
    24ae: a5 16        	lda	$16                     ; 0x2016 <__mulsf3+0x848>
    24b0: 05 14        	ora	$14                     ; 0x2014 <__mulsf3+0x846>
    24b2: 85 17        	sta	$17                     ; 0x2017 <__mulsf3+0x849>
    24b4: 8a           	txa
    24b5: 05 13        	ora	$13                     ; 0x2013 <__mulsf3+0x845>
    24b7: 85 15        	sta	$15                     ; 0x2015 <__mulsf3+0x847>
    24b9: a5 38        	lda	$38                     ; 0x2038 <__mulsf3+0x86a>
    24bb: 05 12        	ora	$12                     ; 0x2012 <__mulsf3+0x844>
    24bd: 85 18        	sta	$18                     ; 0x2018 <__mulsf3+0x84a>
    24bf: 4a           	lsr
    24c0: 5a           	phy
    24c1: a4 15        	ldy	$15                     ; 0x2015 <__mulsf3+0x847>
    24c3: 84 12        	sty	$12                     ; 0x2012 <__mulsf3+0x844>
    24c5: 66 12        	ror	$12                     ; 0x2012 <__mulsf3+0x844>
    24c7: a4 17        	ldy	$17                     ; 0x2017 <__mulsf3+0x849>
    24c9: 84 13        	sty	$13                     ; 0x2013 <__mulsf3+0x845>
    24cb: 66 13        	ror	$13                     ; 0x2013 <__mulsf3+0x845>
    24cd: 4a           	lsr
    24ce: 85 14        	sta	$14                     ; 0x2014 <__mulsf3+0x846>
    24d0: 66 12        	ror	$12                     ; 0x2012 <__mulsf3+0x844>
    24d2: 66 13        	ror	$13                     ; 0x2013 <__mulsf3+0x845>
    24d4: a5 17        	lda	$17                     ; 0x2017 <__mulsf3+0x849>
    24d6: 05 13        	ora	$13                     ; 0x2013 <__mulsf3+0x845>
    24d8: 85 17        	sta	$17                     ; 0x2017 <__mulsf3+0x849>
    24da: a5 15        	lda	$15                     ; 0x2015 <__mulsf3+0x847>
    24dc: 05 12        	ora	$12                     ; 0x2012 <__mulsf3+0x844>
    24de: 85 15        	sta	$15                     ; 0x2015 <__mulsf3+0x847>
    24e0: a5 18        	lda	$18                     ; 0x2018 <__mulsf3+0x84a>
    24e2: 05 14        	ora	$14                     ; 0x2014 <__mulsf3+0x846>
    24e4: 85 18        	sta	$18                     ; 0x2018 <__mulsf3+0x84a>
    24e6: 4a           	lsr
    24e7: a4 15        	ldy	$15                     ; 0x2015 <__mulsf3+0x847>
    24e9: 84 12        	sty	$12                     ; 0x2012 <__mulsf3+0x844>
    24eb: 66 12        	ror	$12                     ; 0x2012 <__mulsf3+0x844>
    24ed: a4 17        	ldy	$17                     ; 0x2017 <__mulsf3+0x849>
    24ef: 84 13        	sty	$13                     ; 0x2013 <__mulsf3+0x845>
    24f1: 66 13        	ror	$13                     ; 0x2013 <__mulsf3+0x845>
    24f3: 4a           	lsr
    24f4: 66 12        	ror	$12                     ; 0x2012 <__mulsf3+0x844>
    24f6: 66 13        	ror	$13                     ; 0x2013 <__mulsf3+0x845>
    24f8: 4a           	lsr
    24f9: 66 12        	ror	$12                     ; 0x2012 <__mulsf3+0x844>
    24fb: 66 13        	ror	$13                     ; 0x2013 <__mulsf3+0x845>
    24fd: 4a           	lsr
    24fe: 85 14        	sta	$14                     ; 0x2014 <__mulsf3+0x846>
    2500: 66 12        	ror	$12                     ; 0x2012 <__mulsf3+0x844>
    2502: 66 13        	ror	$13                     ; 0x2013 <__mulsf3+0x845>
    2504: a5 17        	lda	$17                     ; 0x2017 <__mulsf3+0x849>
    2506: 05 13        	ora	$13                     ; 0x2013 <__mulsf3+0x845>
    2508: 85 17        	sta	$17                     ; 0x2017 <__mulsf3+0x849>
    250a: a5 15        	lda	$15                     ; 0x2015 <__mulsf3+0x847>
    250c: 05 12        	ora	$12                     ; 0x2012 <__mulsf3+0x844>
    250e: 85 13        	sta	$13                     ; 0x2013 <__mulsf3+0x845>
    2510: a5 18        	lda	$18                     ; 0x2018 <__mulsf3+0x84a>
    2512: 05 14        	ora	$14                     ; 0x2014 <__mulsf3+0x846>
    2514: 85 18        	sta	$18                     ; 0x2018 <__mulsf3+0x84a>
    2516: a5 17        	lda	$17                     ; 0x2017 <__mulsf3+0x849>
    2518: 05 13        	ora	$13                     ; 0x2013 <__mulsf3+0x845>
    251a: 85 14        	sta	$14                     ; 0x2014 <__mulsf3+0x846>
    251c: a5 13        	lda	$13                     ; 0x2013 <__mulsf3+0x845>
    251e: 05 18        	ora	$18                     ; 0x2018 <__mulsf3+0x84a>
    2520: 85 15        	sta	$15                     ; 0x2015 <__mulsf3+0x847>
    2522: a5 14        	lda	$14                     ; 0x2014 <__mulsf3+0x846>
    2524: 05 18        	ora	$18                     ; 0x2018 <__mulsf3+0x84a>
    2526: 85 17        	sta	$17                     ; 0x2017 <__mulsf3+0x849>
    2528: a5 18        	lda	$18                     ; 0x2018 <__mulsf3+0x84a>
    252a: 85 14        	sta	$14                     ; 0x2014 <__mulsf3+0x846>
    252c: 46 14        	lsr	$14                     ; 0x2014 <__mulsf3+0x846>
    252e: a5 17        	lda	$17                     ; 0x2017 <__mulsf3+0x849>
    2530: 4a           	lsr
    2531: 29 55        	and	#$55
    2533: 85 12        	sta	$12                     ; 0x2012 <__mulsf3+0x844>
    2535: a5 15        	lda	$15                     ; 0x2015 <__mulsf3+0x847>
    2537: 4a           	lsr
    2538: 29 55        	and	#$55
    253a: 85 13        	sta	$13                     ; 0x2013 <__mulsf3+0x845>
    253c: a5 14        	lda	$14                     ; 0x2014 <__mulsf3+0x846>
    253e: 29 55        	and	#$55
    2540: 85 14        	sta	$14                     ; 0x2014 <__mulsf3+0x846>
    2542: 38           	sec
    2543: a5 17        	lda	$17                     ; 0x2017 <__mulsf3+0x849>
    2545: e5 12        	sbc	$12                     ; 0x2012 <__mulsf3+0x844>
    2547: 85 12        	sta	$12                     ; 0x2012 <__mulsf3+0x844>
    2549: a5 15        	lda	$15                     ; 0x2015 <__mulsf3+0x847>
    254b: e5 13        	sbc	$13                     ; 0x2013 <__mulsf3+0x845>
    254d: 85 13        	sta	$13                     ; 0x2013 <__mulsf3+0x845>
    254f: a5 18        	lda	$18                     ; 0x2018 <__mulsf3+0x84a>
    2551: e5 14        	sbc	$14                     ; 0x2014 <__mulsf3+0x846>
    2553: 85 14        	sta	$14                     ; 0x2014 <__mulsf3+0x846>
    2555: a9 00        	lda	#$0
    2557: e9 00        	sbc	#$0
    2559: 85 15        	sta	$15                     ; 0x2015 <__mulsf3+0x847>
    255b: a5 12        	lda	$12                     ; 0x2012 <__mulsf3+0x844>
    255d: 85 17        	sta	$17                     ; 0x2017 <__mulsf3+0x849>
    255f: 29 33        	and	#$33
    2561: 85 12        	sta	$12                     ; 0x2012 <__mulsf3+0x844>
    2563: a5 13        	lda	$13                     ; 0x2013 <__mulsf3+0x845>
    2565: 85 18        	sta	$18                     ; 0x2018 <__mulsf3+0x84a>
    2567: 29 33        	and	#$33
    2569: 85 13        	sta	$13                     ; 0x2013 <__mulsf3+0x845>
    256b: a5 14        	lda	$14                     ; 0x2014 <__mulsf3+0x846>
    256d: 85 19        	sta	$19                     ; 0x2019 <__mulsf3+0x84b>
    256f: 29 33        	and	#$33
    2571: 85 14        	sta	$14                     ; 0x2014 <__mulsf3+0x846>
    2573: a5 15        	lda	$15                     ; 0x2015 <__mulsf3+0x847>
    2575: 4a           	lsr
    2576: 85 1a        	sta	$1a                     ; 0x201a <__mulsf3+0x84c>
    2578: 46 19        	lsr	$19                     ; 0x2019 <__mulsf3+0x84b>
    257a: 46 18        	lsr	$18                     ; 0x2018 <__mulsf3+0x84a>
    257c: a5 17        	lda	$17                     ; 0x2017 <__mulsf3+0x849>
    257e: 4a           	lsr
    257f: 46 1a        	lsr	$1a                     ; 0x201a <__mulsf3+0x84c>
    2581: 46 19        	lsr	$19                     ; 0x2019 <__mulsf3+0x84b>
    2583: a4 18        	ldy	$18                     ; 0x2018 <__mulsf3+0x84a>
    2585: 84 17        	sty	$17                     ; 0x2017 <__mulsf3+0x849>
    2587: 46 17        	lsr	$17                     ; 0x2017 <__mulsf3+0x849>
    2589: 4a           	lsr
    258a: 29 33        	and	#$33
    258c: 85 1b        	sta	$1b                     ; 0x201b <__mulsf3+0x84d>
    258e: a5 17        	lda	$17                     ; 0x2017 <__mulsf3+0x849>
    2590: 29 33        	and	#$33
    2592: 85 17        	sta	$17                     ; 0x2017 <__mulsf3+0x849>
    2594: a5 19        	lda	$19                     ; 0x2019 <__mulsf3+0x84b>
    2596: 29 33        	and	#$33
    2598: 85 18        	sta	$18                     ; 0x2018 <__mulsf3+0x84a>
    259a: a5 1a        	lda	$1a                     ; 0x201a <__mulsf3+0x84c>
    259c: 29 33        	and	#$33
    259e: 85 19        	sta	$19                     ; 0x2019 <__mulsf3+0x84b>
    25a0: a5 15        	lda	$15                     ; 0x2015 <__mulsf3+0x847>
    25a2: 29 33        	and	#$33
    25a4: 85 15        	sta	$15                     ; 0x2015 <__mulsf3+0x847>
    25a6: 18           	clc
    25a7: a5 1b        	lda	$1b                     ; 0x201b <__mulsf3+0x84d>
    25a9: 65 12        	adc	$12                     ; 0x2012 <__mulsf3+0x844>
    25ab: 85 12        	sta	$12                     ; 0x2012 <__mulsf3+0x844>
    25ad: a5 17        	lda	$17                     ; 0x2017 <__mulsf3+0x849>
    25af: 65 13        	adc	$13                     ; 0x2013 <__mulsf3+0x845>
    25b1: 85 13        	sta	$13                     ; 0x2013 <__mulsf3+0x845>
    25b3: a5 18        	lda	$18                     ; 0x2018 <__mulsf3+0x84a>
    25b5: 65 14        	adc	$14                     ; 0x2014 <__mulsf3+0x846>
    25b7: 85 14        	sta	$14                     ; 0x2014 <__mulsf3+0x846>
    25b9: a5 19        	lda	$19                     ; 0x2019 <__mulsf3+0x84b>
    25bb: 65 15        	adc	$15                     ; 0x2015 <__mulsf3+0x847>
    25bd: 85 15        	sta	$15                     ; 0x2015 <__mulsf3+0x847>
    25bf: 4a           	lsr
    25c0: 85 17        	sta	$17                     ; 0x2017 <__mulsf3+0x849>
    25c2: a5 14        	lda	$14                     ; 0x2014 <__mulsf3+0x846>
    25c4: 6a           	ror
    25c5: a4 13        	ldy	$13                     ; 0x2013 <__mulsf3+0x845>
    25c7: 84 18        	sty	$18                     ; 0x2018 <__mulsf3+0x84a>
    25c9: 66 18        	ror	$18                     ; 0x2018 <__mulsf3+0x84a>
    25cb: a4 12        	ldy	$12                     ; 0x2012 <__mulsf3+0x844>
    25cd: 84 19        	sty	$19                     ; 0x2019 <__mulsf3+0x84b>
    25cf: 7a           	ply
    25d0: 66 19        	ror	$19                     ; 0x2019 <__mulsf3+0x84b>
    25d2: 46 17        	lsr	$17                     ; 0x2017 <__mulsf3+0x849>
    25d4: 6a           	ror
    25d5: 66 18        	ror	$18                     ; 0x2018 <__mulsf3+0x84a>
    25d7: 66 19        	ror	$19                     ; 0x2019 <__mulsf3+0x84b>
    25d9: 46 17        	lsr	$17                     ; 0x2017 <__mulsf3+0x849>
    25db: 6a           	ror
    25dc: 66 18        	ror	$18                     ; 0x2018 <__mulsf3+0x84a>
    25de: 66 19        	ror	$19                     ; 0x2019 <__mulsf3+0x84b>
    25e0: 46 17        	lsr	$17                     ; 0x2017 <__mulsf3+0x849>
    25e2: 6a           	ror
    25e3: 85 1a        	sta	$1a                     ; 0x201a <__mulsf3+0x84c>
    25e5: a5 18        	lda	$18                     ; 0x2018 <__mulsf3+0x84a>
    25e7: 85 1b        	sta	$1b                     ; 0x201b <__mulsf3+0x84d>
    25e9: 66 1b        	ror	$1b                     ; 0x201b <__mulsf3+0x84d>
    25eb: a5 19        	lda	$19                     ; 0x2019 <__mulsf3+0x84b>
    25ed: 6a           	ror
    25ee: 18           	clc
    25ef: 65 12        	adc	$12                     ; 0x2012 <__mulsf3+0x844>
    25f1: 85 12        	sta	$12                     ; 0x2012 <__mulsf3+0x844>
    25f3: a5 1b        	lda	$1b                     ; 0x201b <__mulsf3+0x84d>
    25f5: 65 13        	adc	$13                     ; 0x2013 <__mulsf3+0x845>
    25f7: 85 13        	sta	$13                     ; 0x2013 <__mulsf3+0x845>
    25f9: a5 1a        	lda	$1a                     ; 0x201a <__mulsf3+0x84c>
    25fb: 65 14        	adc	$14                     ; 0x2014 <__mulsf3+0x846>
    25fd: 85 14        	sta	$14                     ; 0x2014 <__mulsf3+0x846>
    25ff: a5 17        	lda	$17                     ; 0x2017 <__mulsf3+0x849>
    2601: 65 15        	adc	$15                     ; 0x2015 <__mulsf3+0x847>
    2603: 85 15        	sta	$15                     ; 0x2015 <__mulsf3+0x847>
    2605: a5 12        	lda	$12                     ; 0x2012 <__mulsf3+0x844>
    2607: 29 0f        	and	#$f
    2609: 85 12        	sta	$12                     ; 0x2012 <__mulsf3+0x844>
    260b: 85 18        	sta	$18                     ; 0x2018 <__mulsf3+0x84a>
    260d: a5 13        	lda	$13                     ; 0x2013 <__mulsf3+0x845>
    260f: 29 0f        	and	#$f
    2611: 85 13        	sta	$13                     ; 0x2013 <__mulsf3+0x845>
    2613: 85 1a        	sta	$1a                     ; 0x201a <__mulsf3+0x84c>
    2615: a5 14        	lda	$14                     ; 0x2014 <__mulsf3+0x846>
    2617: 29 0f        	and	#$f
    2619: 85 14        	sta	$14                     ; 0x2014 <__mulsf3+0x846>
    261b: 85 19        	sta	$19                     ; 0x2019 <__mulsf3+0x84b>
    261d: a5 15        	lda	$15                     ; 0x2015 <__mulsf3+0x847>
    261f: 29 0f        	and	#$f
    2621: 85 17        	sta	$17                     ; 0x2017 <__mulsf3+0x849>
    2623: 18           	clc
    2624: a5 18        	lda	$18                     ; 0x2018 <__mulsf3+0x84a>
    2626: 69 00        	adc	#$0
    2628: 85 15        	sta	$15                     ; 0x2015 <__mulsf3+0x847>
    262a: 85 1b        	sta	$1b                     ; 0x201b <__mulsf3+0x84d>
    262c: a5 1a        	lda	$1a                     ; 0x201a <__mulsf3+0x84c>
    262e: 65 12        	adc	$12                     ; 0x2012 <__mulsf3+0x844>
    2630: 85 12        	sta	$12                     ; 0x2012 <__mulsf3+0x844>
    2632: a5 19        	lda	$19                     ; 0x2019 <__mulsf3+0x84b>
    2634: 65 13        	adc	$13                     ; 0x2013 <__mulsf3+0x845>
    2636: 85 18        	sta	$18                     ; 0x2018 <__mulsf3+0x84a>
    2638: a5 17        	lda	$17                     ; 0x2017 <__mulsf3+0x849>
    263a: 65 14        	adc	$14                     ; 0x2014 <__mulsf3+0x846>
    263c: 85 13        	sta	$13                     ; 0x2013 <__mulsf3+0x845>
    263e: 18           	clc
    263f: a5 1b        	lda	$1b                     ; 0x201b <__mulsf3+0x84d>
    2641: 69 00        	adc	#$0
    2643: a5 12        	lda	$12                     ; 0x2012 <__mulsf3+0x844>
    2645: 69 00        	adc	#$0
    2647: a5 18        	lda	$18                     ; 0x2018 <__mulsf3+0x84a>
    2649: 65 15        	adc	$15                     ; 0x2015 <__mulsf3+0x847>
    264b: a5 13        	lda	$13                     ; 0x2013 <__mulsf3+0x845>
    264d: 65 12        	adc	$12                     ; 0x2012 <__mulsf3+0x844>
    264f: 85 12        	sta	$12                     ; 0x2012 <__mulsf3+0x844>
    2651: a9 20        	lda	#$20
    2653: 38           	sec
    2654: e5 12        	sbc	$12                     ; 0x2012 <__mulsf3+0x844>
    2656: 85 38        	sta	$38                     ; 0x2038 <__mulsf3+0x86a>
    2658: a9 00        	lda	#$0
    265a: e9 00        	sbc	#$0
    265c: 85 39        	sta	$39                     ; 0x2039 <__mulsf3+0x86b>
    265e: 18           	clc
    265f: a5 38        	lda	$38                     ; 0x2038 <__mulsf3+0x86a>
    2661: 69 f8        	adc	#$f8
    2663: 84 12        	sty	$12                     ; 0x2012 <__mulsf3+0x844>
    2665: 64 13        	stz	$13                     ; 0x2013 <__mulsf3+0x845>
    2667: 85 14        	sta	$14                     ; 0x2014 <__mulsf3+0x846>
    2669: a5 16        	lda	$16                     ; 0x2016 <__mulsf3+0x848>
    266b: 20 6c 0a     	jsr	$a6c <__ashlsi3>
    266e: 85 40        	sta	$40                     ; 0x2040 <__mulsf3+0x872>
    2670: 86 45        	stx	$45                     ; 0x2045 <__mulsf3+0x877>
    2672: a4 12        	ldy	$12                     ; 0x2012 <__mulsf3+0x844>
    2674: a6 49        	ldx	$49                     ; 0x2049 <__mulsf3+0x87b>
    2676: 86 12        	stx	$12                     ; 0x2012 <__mulsf3+0x844>
    2678: 18           	clc
    2679: a5 38        	lda	$38                     ; 0x2038 <__mulsf3+0x86a>
    267b: 65 12        	adc	$12                     ; 0x2012 <__mulsf3+0x844>
    267d: 85 14        	sta	$14                     ; 0x2014 <__mulsf3+0x846>
    267f: a6 46        	ldx	$46                     ; 0x2046 <__mulsf3+0x878>
    2681: 86 12        	stx	$12                     ; 0x2012 <__mulsf3+0x844>
    2683: a5 39        	lda	$39                     ; 0x2039 <__mulsf3+0x86b>
    2685: 65 12        	adc	$12                     ; 0x2012 <__mulsf3+0x844>
    2687: 85 12        	sta	$12                     ; 0x2012 <__mulsf3+0x844>
    2689: 18           	clc
    268a: a5 14        	lda	$14                     ; 0x2014 <__mulsf3+0x846>
    268c: 69 f7        	adc	#$f7
    268e: 85 14        	sta	$14                     ; 0x2014 <__mulsf3+0x846>
    2690: 84 19        	sty	$19                     ; 0x2019 <__mulsf3+0x84b>
    2692: a5 12        	lda	$12                     ; 0x2012 <__mulsf3+0x844>
    2694: 69 ff        	adc	#$ff
    2696: 85 15        	sta	$15                     ; 0x2015 <__mulsf3+0x847>
    2698: a6 47        	ldx	$47                     ; 0x2047 <__mulsf3+0x879>
    269a: 86 12        	stx	$12                     ; 0x2012 <__mulsf3+0x844>
    269c: 80 23        	bra	$26c1 <__divsf3+0x63b>
    269e: a4 3b        	ldy	$3b                     ; 0x203b <__mulsf3+0x86d>
    26a0: a6 18        	ldx	$18                     ; 0x2018 <__mulsf3+0x84a>
    26a2: 86 45        	stx	$45                     ; 0x2045 <__mulsf3+0x877>
    26a4: c0 00        	cpy	#$0
    26a6: 80 06        	bra	$26ae <__divsf3+0x628>
    26a8: a6 18        	ldx	$18                     ; 0x2018 <__mulsf3+0x84a>
    26aa: 86 45        	stx	$45                     ; 0x2045 <__mulsf3+0x877>
    26ac: c9 80        	cmp	#$80
    26ae: a6 38        	ldx	$38                     ; 0x2038 <__mulsf3+0x86a>
    26b0: 86 19        	stx	$19                     ; 0x2019 <__mulsf3+0x84b>
    26b2: a6 17        	ldx	$17                     ; 0x2017 <__mulsf3+0x849>
    26b4: b0 03        	bcs	$26b9 <__divsf3+0x633>
    26b6: 4c 8a 24     	jmp	$248a <__divsf3+0x404>
    26b9: 86 40        	stx	$40                     ; 0x2040 <__mulsf3+0x872>
    26bb: a6 13        	ldx	$13                     ; 0x2013 <__mulsf3+0x845>
    26bd: 86 48        	stx	$48                     ; 0x2048 <__mulsf3+0x87a>
    26bf: 64 13        	stz	$13                     ; 0x2013 <__mulsf3+0x845>
    26c1: a5 19        	lda	$19                     ; 0x2019 <__mulsf3+0x84b>
    26c3: 09 80        	ora	#$80
    26c5: a8           	tay
    26c6: 38           	sec
    26c7: a5 37        	lda	$37                     ; 0x2037 <__mulsf3+0x869>
    26c9: e5 12        	sbc	$12                     ; 0x2012 <__mulsf3+0x844>
    26cb: 85 12        	sta	$12                     ; 0x2012 <__mulsf3+0x844>
    26cd: 84 37        	sty	$37                     ; 0x2037 <__mulsf3+0x869>
    26cf: a9 00        	lda	#$0
    26d1: e9 00        	sbc	#$0
    26d3: 85 17        	sta	$17                     ; 0x2017 <__mulsf3+0x849>
    26d5: 18           	clc
    26d6: a5 12        	lda	$12                     ; 0x2012 <__mulsf3+0x844>
    26d8: 65 14        	adc	$14                     ; 0x2014 <__mulsf3+0x846>
    26da: 85 4a        	sta	$4a                     ; 0x204a <__mulsf3+0x87c>
    26dc: a5 17        	lda	$17                     ; 0x2017 <__mulsf3+0x849>
    26de: 65 15        	adc	$15                     ; 0x2015 <__mulsf3+0x847>
    26e0: 85 4b        	sta	$4b                     ; 0x204b <__mulsf3+0x87d>
    26e2: a5 40        	lda	$40                     ; 0x2040 <__mulsf3+0x872>
    26e4: 85 46        	sta	$46                     ; 0x2046 <__mulsf3+0x878>
    26e6: 06 40        	asl	$40                     ; 0x2040 <__mulsf3+0x872>
    26e8: a6 45        	ldx	$45                     ; 0x2045 <__mulsf3+0x877>
    26ea: 86 38        	stx	$38                     ; 0x2038 <__mulsf3+0x86a>
    26ec: 26 38        	rol	$38                     ; 0x2038 <__mulsf3+0x86a>
    26ee: 84 12        	sty	$12                     ; 0x2012 <__mulsf3+0x844>
    26f0: a6 12        	ldx	$12                     ; 0x2012 <__mulsf3+0x844>
    26f2: 86 49        	stx	$49                     ; 0x2049 <__mulsf3+0x87b>
    26f4: 26 37        	rol	$37                     ; 0x2037 <__mulsf3+0x869>
    26f6: a6 13        	ldx	$13                     ; 0x2013 <__mulsf3+0x845>
    26f8: 86 47        	stx	$47                     ; 0x2047 <__mulsf3+0x879>
    26fa: a5 13        	lda	$13                     ; 0x2013 <__mulsf3+0x845>
    26fc: 2a           	rol
    26fd: 85 50        	sta	$50                     ; 0x2050 <__mulsf3+0x882>
    26ff: 4a           	lsr
    2700: a6 37        	ldx	$37                     ; 0x2037 <__mulsf3+0x869>
    2702: 86 4f        	stx	$4f                     ; 0x204f <__mulsf3+0x881>
    2704: 66 37        	ror	$37                     ; 0x2037 <__mulsf3+0x869>
    2706: a6 38        	ldx	$38                     ; 0x2038 <__mulsf3+0x86a>
    2708: 86 4e        	stx	$4e                     ; 0x204e <__mulsf3+0x880>
    270a: 66 38        	ror	$38                     ; 0x2038 <__mulsf3+0x86a>
    270c: a6 40        	ldx	$40                     ; 0x2040 <__mulsf3+0x872>
    270e: 86 4d        	stx	$4d                     ; 0x204d <__mulsf3+0x87f>
    2710: 66 40        	ror	$40                     ; 0x2040 <__mulsf3+0x872>
    2712: 64 41        	stz	$41                     ; 0x2041 <__mulsf3+0x873>
    2714: 66 41        	ror	$41                     ; 0x2041 <__mulsf3+0x873>
    2716: a9 33        	lda	#$33
    2718: 38           	sec
    2719: e5 41        	sbc	$41                     ; 0x2041 <__mulsf3+0x873>
    271b: 85 39        	sta	$39                     ; 0x2039 <__mulsf3+0x86b>
    271d: a9 f3        	lda	#$f3
    271f: e5 40        	sbc	$40                     ; 0x2040 <__mulsf3+0x872>
    2721: 85 3a        	sta	$3a                     ; 0x203a <__mulsf3+0x86c>
    2723: a9 04        	lda	#$4
    2725: e5 38        	sbc	$38                     ; 0x2038 <__mulsf3+0x86a>
    2727: 85 3b        	sta	$3b                     ; 0x203b <__mulsf3+0x86d>
    2729: a9 75        	lda	#$75
    272b: e5 37        	sbc	$37                     ; 0x2037 <__mulsf3+0x869>
    272d: 85 3c        	sta	$3c                     ; 0x203c <__mulsf3+0x86e>
    272f: a5 36        	lda	$36                     ; 0x2036 <__mulsf3+0x868>
    2731: 09 80        	ora	#$80
    2733: 85 3f        	sta	$3f                     ; 0x203f <__mulsf3+0x871>
    2735: 64 3e        	stz	$3e                     ; 0x203e <__mulsf3+0x870>
    2737: a6 3b        	ldx	$3b                     ; 0x203b <__mulsf3+0x86d>
    2739: 86 12        	stx	$12                     ; 0x2012 <__mulsf3+0x844>
    273b: a6 3c        	ldx	$3c                     ; 0x203c <__mulsf3+0x86e>
    273d: 86 13        	stx	$13                     ; 0x2013 <__mulsf3+0x845>
    273f: 64 14        	stz	$14                     ; 0x2014 <__mulsf3+0x846>
    2741: 64 15        	stz	$15                     ; 0x2015 <__mulsf3+0x847>
    2743: 64 16        	stz	$16                     ; 0x2016 <__mulsf3+0x848>
    2745: 64 17        	stz	$17                     ; 0x2017 <__mulsf3+0x849>
    2747: a6 41        	ldx	$41                     ; 0x2041 <__mulsf3+0x873>
    2749: 86 18        	stx	$18                     ; 0x2018 <__mulsf3+0x84a>
    274b: a6 40        	ldx	$40                     ; 0x2040 <__mulsf3+0x872>
    274d: 86 19        	stx	$19                     ; 0x2019 <__mulsf3+0x84b>
    274f: a6 38        	ldx	$38                     ; 0x2038 <__mulsf3+0x86a>
    2751: 86 1a        	stx	$1a                     ; 0x201a <__mulsf3+0x84c>
    2753: a6 37        	ldx	$37                     ; 0x2037 <__mulsf3+0x869>
    2755: 86 1b        	stx	$1b                     ; 0x201b <__mulsf3+0x84d>
    2757: 64 1c        	stz	$1c                     ; 0x201c <__mulsf3+0x84e>
    2759: 64 1d        	stz	$1d                     ; 0x201d <__mulsf3+0x84f>
    275b: 64 1e        	stz	$1e                     ; 0x201e <__mulsf3+0x850>
    275d: 64 1f        	stz	$1f                     ; 0x201f <__mulsf3+0x851>
    275f: a6 3a        	ldx	$3a                     ; 0x203a <__mulsf3+0x86c>
    2761: a5 39        	lda	$39                     ; 0x2039 <__mulsf3+0x86b>
    2763: 20 0a 0b     	jsr	$b0a <__muldi3>
    2766: a9 00        	lda	#$0
    2768: 38           	sec
    2769: e5 14        	sbc	$14                     ; 0x2014 <__mulsf3+0x846>
    276b: a8           	tay
    276c: a9 00        	lda	#$0
    276e: e5 15        	sbc	$15                     ; 0x2015 <__mulsf3+0x847>
    2770: aa           	tax
    2771: a9 00        	lda	#$0
    2773: e5 16        	sbc	$16                     ; 0x2016 <__mulsf3+0x848>
    2775: 85 12        	sta	$12                     ; 0x2012 <__mulsf3+0x844>
    2777: a9 00        	lda	#$0
    2779: e5 17        	sbc	$17                     ; 0x2017 <__mulsf3+0x849>
    277b: 85 13        	sta	$13                     ; 0x2013 <__mulsf3+0x845>
    277d: a5 39        	lda	$39                     ; 0x2039 <__mulsf3+0x86b>
    277f: 85 18        	sta	$18                     ; 0x2018 <__mulsf3+0x84a>
    2781: a5 3a        	lda	$3a                     ; 0x203a <__mulsf3+0x86c>
    2783: 85 19        	sta	$19                     ; 0x2019 <__mulsf3+0x84b>
    2785: a5 3b        	lda	$3b                     ; 0x203b <__mulsf3+0x86d>
    2787: 85 1a        	sta	$1a                     ; 0x201a <__mulsf3+0x84c>
    2789: a5 3c        	lda	$3c                     ; 0x203c <__mulsf3+0x86e>
    278b: 85 1b        	sta	$1b                     ; 0x201b <__mulsf3+0x84d>
    278d: 64 14        	stz	$14                     ; 0x2014 <__mulsf3+0x846>
    278f: 64 15        	stz	$15                     ; 0x2015 <__mulsf3+0x847>
    2791: 64 16        	stz	$16                     ; 0x2016 <__mulsf3+0x848>
    2793: 64 17        	stz	$17                     ; 0x2017 <__mulsf3+0x849>
    2795: 64 1c        	stz	$1c                     ; 0x201c <__mulsf3+0x84e>
    2797: 64 1d        	stz	$1d                     ; 0x201d <__mulsf3+0x84f>
    2799: 64 1e        	stz	$1e                     ; 0x201e <__mulsf3+0x850>
    279b: 64 1f        	stz	$1f                     ; 0x201f <__mulsf3+0x851>
    279d: 98           	tya
    279e: 20 0a 0b     	jsr	$b0a <__muldi3>
    27a1: a6 14        	ldx	$14                     ; 0x2014 <__mulsf3+0x846>
    27a3: 86 36        	stx	$36                     ; 0x2036 <__mulsf3+0x868>
    27a5: a6 15        	ldx	$15                     ; 0x2015 <__mulsf3+0x847>
    27a7: 86 39        	stx	$39                     ; 0x2039 <__mulsf3+0x86b>
    27a9: a6 16        	ldx	$16                     ; 0x2016 <__mulsf3+0x848>
    27ab: 86 3a        	stx	$3a                     ; 0x203a <__mulsf3+0x86c>
    27ad: a6 17        	ldx	$17                     ; 0x2017 <__mulsf3+0x849>
    27af: 86 3b        	stx	$3b                     ; 0x203b <__mulsf3+0x86d>
    27b1: 06 13        	asl	$13                     ; 0x2013 <__mulsf3+0x845>
    27b3: 26 36        	rol	$36                     ; 0x2036 <__mulsf3+0x868>
    27b5: 26 39        	rol	$39                     ; 0x2039 <__mulsf3+0x86b>
    27b7: 26 3a        	rol	$3a                     ; 0x203a <__mulsf3+0x86c>
    27b9: 26 3b        	rol	$3b                     ; 0x203b <__mulsf3+0x86d>
    27bb: a6 3a        	ldx	$3a                     ; 0x203a <__mulsf3+0x86c>
    27bd: 86 12        	stx	$12                     ; 0x2012 <__mulsf3+0x844>
    27bf: a6 3b        	ldx	$3b                     ; 0x203b <__mulsf3+0x86d>
    27c1: 86 13        	stx	$13                     ; 0x2013 <__mulsf3+0x845>
    27c3: 64 14        	stz	$14                     ; 0x2014 <__mulsf3+0x846>
    27c5: 64 15        	stz	$15                     ; 0x2015 <__mulsf3+0x847>
    27c7: 64 16        	stz	$16                     ; 0x2016 <__mulsf3+0x848>
    27c9: 64 17        	stz	$17                     ; 0x2017 <__mulsf3+0x849>
    27cb: a6 41        	ldx	$41                     ; 0x2041 <__mulsf3+0x873>
    27cd: 86 18        	stx	$18                     ; 0x2018 <__mulsf3+0x84a>
    27cf: a6 40        	ldx	$40                     ; 0x2040 <__mulsf3+0x872>
    27d1: 86 19        	stx	$19                     ; 0x2019 <__mulsf3+0x84b>
    27d3: a6 38        	ldx	$38                     ; 0x2038 <__mulsf3+0x86a>
    27d5: 86 1a        	stx	$1a                     ; 0x201a <__mulsf3+0x84c>
    27d7: a6 37        	ldx	$37                     ; 0x2037 <__mulsf3+0x869>
    27d9: 86 1b        	stx	$1b                     ; 0x201b <__mulsf3+0x84d>
    27db: 64 1c        	stz	$1c                     ; 0x201c <__mulsf3+0x84e>
    27dd: 64 1d        	stz	$1d                     ; 0x201d <__mulsf3+0x84f>
    27df: 64 1e        	stz	$1e                     ; 0x201e <__mulsf3+0x850>
    27e1: 64 1f        	stz	$1f                     ; 0x201f <__mulsf3+0x851>
    27e3: a6 39        	ldx	$39                     ; 0x2039 <__mulsf3+0x86b>
    27e5: a5 36        	lda	$36                     ; 0x2036 <__mulsf3+0x868>
    27e7: 20 0a 0b     	jsr	$b0a <__muldi3>
    27ea: a9 00        	lda	#$0
    27ec: 38           	sec
    27ed: e5 14        	sbc	$14                     ; 0x2014 <__mulsf3+0x846>
    27ef: 85 18        	sta	$18                     ; 0x2018 <__mulsf3+0x84a>
    27f1: a9 00        	lda	#$0
    27f3: e5 15        	sbc	$15                     ; 0x2015 <__mulsf3+0x847>
    27f5: 85 19        	sta	$19                     ; 0x2019 <__mulsf3+0x84b>
    27f7: a9 00        	lda	#$0
    27f9: e5 16        	sbc	$16                     ; 0x2016 <__mulsf3+0x848>
    27fb: 85 1a        	sta	$1a                     ; 0x201a <__mulsf3+0x84c>
    27fd: a9 00        	lda	#$0
    27ff: e5 17        	sbc	$17                     ; 0x2017 <__mulsf3+0x849>
    2801: a6 3a        	ldx	$3a                     ; 0x203a <__mulsf3+0x86c>
    2803: 86 12        	stx	$12                     ; 0x2012 <__mulsf3+0x844>
    2805: a6 3b        	ldx	$3b                     ; 0x203b <__mulsf3+0x86d>
    2807: 86 13        	stx	$13                     ; 0x2013 <__mulsf3+0x845>
    2809: 64 14        	stz	$14                     ; 0x2014 <__mulsf3+0x846>
    280b: 64 15        	stz	$15                     ; 0x2015 <__mulsf3+0x847>
    280d: 64 16        	stz	$16                     ; 0x2016 <__mulsf3+0x848>
    280f: 64 17        	stz	$17                     ; 0x2017 <__mulsf3+0x849>
    2811: 85 1b        	sta	$1b                     ; 0x201b <__mulsf3+0x84d>
    2813: 64 1c        	stz	$1c                     ; 0x201c <__mulsf3+0x84e>
    2815: 64 1d        	stz	$1d                     ; 0x201d <__mulsf3+0x84f>
    2817: 64 1e        	stz	$1e                     ; 0x201e <__mulsf3+0x850>
    2819: 64 1f        	stz	$1f                     ; 0x201f <__mulsf3+0x851>
    281b: a6 39        	ldx	$39                     ; 0x2039 <__mulsf3+0x86b>
    281d: a5 36        	lda	$36                     ; 0x2036 <__mulsf3+0x868>
    281f: 20 0a 0b     	jsr	$b0a <__muldi3>
    2822: a6 14        	ldx	$14                     ; 0x2014 <__mulsf3+0x846>
    2824: 86 36        	stx	$36                     ; 0x2036 <__mulsf3+0x868>
    2826: a6 15        	ldx	$15                     ; 0x2015 <__mulsf3+0x847>
    2828: 86 39        	stx	$39                     ; 0x2039 <__mulsf3+0x86b>
    282a: a6 16        	ldx	$16                     ; 0x2016 <__mulsf3+0x848>
    282c: 86 3a        	stx	$3a                     ; 0x203a <__mulsf3+0x86c>
    282e: a6 17        	ldx	$17                     ; 0x2017 <__mulsf3+0x849>
    2830: 86 3b        	stx	$3b                     ; 0x203b <__mulsf3+0x86d>
    2832: 06 13        	asl	$13                     ; 0x2013 <__mulsf3+0x845>
    2834: 26 36        	rol	$36                     ; 0x2036 <__mulsf3+0x868>
    2836: 26 39        	rol	$39                     ; 0x2039 <__mulsf3+0x86b>
    2838: 26 3a        	rol	$3a                     ; 0x203a <__mulsf3+0x86c>
    283a: 26 3b        	rol	$3b                     ; 0x203b <__mulsf3+0x86d>
    283c: a6 3a        	ldx	$3a                     ; 0x203a <__mulsf3+0x86c>
    283e: 86 12        	stx	$12                     ; 0x2012 <__mulsf3+0x844>
    2840: a6 3b        	ldx	$3b                     ; 0x203b <__mulsf3+0x86d>
    2842: 86 13        	stx	$13                     ; 0x2013 <__mulsf3+0x845>
    2844: 64 14        	stz	$14                     ; 0x2014 <__mulsf3+0x846>
    2846: 64 15        	stz	$15                     ; 0x2015 <__mulsf3+0x847>
    2848: 64 16        	stz	$16                     ; 0x2016 <__mulsf3+0x848>
    284a: 64 17        	stz	$17                     ; 0x2017 <__mulsf3+0x849>
    284c: a6 41        	ldx	$41                     ; 0x2041 <__mulsf3+0x873>
    284e: 86 18        	stx	$18                     ; 0x2018 <__mulsf3+0x84a>
    2850: a6 40        	ldx	$40                     ; 0x2040 <__mulsf3+0x872>
    2852: 86 19        	stx	$19                     ; 0x2019 <__mulsf3+0x84b>
    2854: a6 38        	ldx	$38                     ; 0x2038 <__mulsf3+0x86a>
    2856: 86 1a        	stx	$1a                     ; 0x201a <__mulsf3+0x84c>
    2858: a6 37        	ldx	$37                     ; 0x2037 <__mulsf3+0x869>
    285a: 86 1b        	stx	$1b                     ; 0x201b <__mulsf3+0x84d>
    285c: 64 1c        	stz	$1c                     ; 0x201c <__mulsf3+0x84e>
    285e: 64 1d        	stz	$1d                     ; 0x201d <__mulsf3+0x84f>
    2860: 64 1e        	stz	$1e                     ; 0x201e <__mulsf3+0x850>
    2862: 64 1f        	stz	$1f                     ; 0x201f <__mulsf3+0x851>
    2864: a6 39        	ldx	$39                     ; 0x2039 <__mulsf3+0x86b>
    2866: a5 36        	lda	$36                     ; 0x2036 <__mulsf3+0x868>
    2868: 20 0a 0b     	jsr	$b0a <__muldi3>
    286b: a9 00        	lda	#$0
    286d: 38           	sec
    286e: e5 14        	sbc	$14                     ; 0x2014 <__mulsf3+0x846>
    2870: 85 18        	sta	$18                     ; 0x2018 <__mulsf3+0x84a>
    2872: a9 00        	lda	#$0
    2874: e5 15        	sbc	$15                     ; 0x2015 <__mulsf3+0x847>
    2876: 85 19        	sta	$19                     ; 0x2019 <__mulsf3+0x84b>
    2878: a9 00        	lda	#$0
    287a: e5 16        	sbc	$16                     ; 0x2016 <__mulsf3+0x848>
    287c: 85 1a        	sta	$1a                     ; 0x201a <__mulsf3+0x84c>
    287e: a9 00        	lda	#$0
    2880: e5 17        	sbc	$17                     ; 0x2017 <__mulsf3+0x849>
    2882: a6 3a        	ldx	$3a                     ; 0x203a <__mulsf3+0x86c>
    2884: 86 12        	stx	$12                     ; 0x2012 <__mulsf3+0x844>
    2886: a6 3b        	ldx	$3b                     ; 0x203b <__mulsf3+0x86d>
    2888: 86 13        	stx	$13                     ; 0x2013 <__mulsf3+0x845>
    288a: 64 14        	stz	$14                     ; 0x2014 <__mulsf3+0x846>
    288c: 64 15        	stz	$15                     ; 0x2015 <__mulsf3+0x847>
    288e: 64 16        	stz	$16                     ; 0x2016 <__mulsf3+0x848>
    2890: 64 17        	stz	$17                     ; 0x2017 <__mulsf3+0x849>
    2892: 85 1b        	sta	$1b                     ; 0x201b <__mulsf3+0x84d>
    2894: 64 1c        	stz	$1c                     ; 0x201c <__mulsf3+0x84e>
    2896: 64 1d        	stz	$1d                     ; 0x201d <__mulsf3+0x84f>
    2898: 64 1e        	stz	$1e                     ; 0x201e <__mulsf3+0x850>
    289a: 64 1f        	stz	$1f                     ; 0x201f <__mulsf3+0x851>
    289c: a6 39        	ldx	$39                     ; 0x2039 <__mulsf3+0x86b>
    289e: a5 36        	lda	$36                     ; 0x2036 <__mulsf3+0x868>
    28a0: 20 0a 0b     	jsr	$b0a <__muldi3>
    28a3: a5 14        	lda	$14                     ; 0x2014 <__mulsf3+0x846>
    28a5: 06 13        	asl	$13                     ; 0x2013 <__mulsf3+0x845>
    28a7: 2a           	rol
    28a8: 26 15        	rol	$15                     ; 0x2015 <__mulsf3+0x847>
    28aa: a6 16        	ldx	$16                     ; 0x2016 <__mulsf3+0x848>
    28ac: 86 12        	stx	$12                     ; 0x2012 <__mulsf3+0x844>
    28ae: 26 12        	rol	$12                     ; 0x2012 <__mulsf3+0x844>
    28b0: 26 17        	rol	$17                     ; 0x2017 <__mulsf3+0x849>
    28b2: 18           	clc
    28b3: 69 f4        	adc	#$f4
    28b5: a8           	tay
    28b6: a5 15        	lda	$15                     ; 0x2015 <__mulsf3+0x847>
    28b8: 69 ff        	adc	#$ff
    28ba: 85 22        	sta	$22                     ; 0x2022 <__mulsf3+0x854>
    28bc: a5 12        	lda	$12                     ; 0x2012 <__mulsf3+0x844>
    28be: 69 ff        	adc	#$ff
    28c0: 85 13        	sta	$13                     ; 0x2013 <__mulsf3+0x845>
    28c2: a5 17        	lda	$17                     ; 0x2017 <__mulsf3+0x849>
    28c4: 69 ff        	adc	#$ff
    28c6: a6 43        	ldx	$43                     ; 0x2043 <__mulsf3+0x875>
    28c8: 86 36        	stx	$36                     ; 0x2036 <__mulsf3+0x868>
    28ca: 86 39        	stx	$39                     ; 0x2039 <__mulsf3+0x86b>
    28cc: 06 39        	asl	$39                     ; 0x2039 <__mulsf3+0x86b>
    28ce: a6 42        	ldx	$42                     ; 0x2042 <__mulsf3+0x874>
    28d0: 86 38        	stx	$38                     ; 0x2038 <__mulsf3+0x86a>
    28d2: 86 37        	stx	$37                     ; 0x2037 <__mulsf3+0x869>
    28d4: 26 37        	rol	$37                     ; 0x2037 <__mulsf3+0x869>
    28d6: a6 3f        	ldx	$3f                     ; 0x203f <__mulsf3+0x871>
    28d8: 86 4c        	stx	$4c                     ; 0x204c <__mulsf3+0x87e>
    28da: a6 3f        	ldx	$3f                     ; 0x203f <__mulsf3+0x871>
    28dc: 86 3a        	stx	$3a                     ; 0x203a <__mulsf3+0x86c>
    28de: 26 3a        	rol	$3a                     ; 0x203a <__mulsf3+0x86c>
    28e0: a6 48        	ldx	$48                     ; 0x2048 <__mulsf3+0x87a>
    28e2: 86 3b        	stx	$3b                     ; 0x203b <__mulsf3+0x86d>
    28e4: 26 3b        	rol	$3b                     ; 0x203b <__mulsf3+0x86d>
    28e6: a6 13        	ldx	$13                     ; 0x2013 <__mulsf3+0x845>
    28e8: 86 12        	stx	$12                     ; 0x2012 <__mulsf3+0x844>
    28ea: 85 13        	sta	$13                     ; 0x2013 <__mulsf3+0x845>
    28ec: 64 14        	stz	$14                     ; 0x2014 <__mulsf3+0x846>
    28ee: 64 15        	stz	$15                     ; 0x2015 <__mulsf3+0x847>
    28f0: 64 16        	stz	$16                     ; 0x2016 <__mulsf3+0x848>
    28f2: 64 17        	stz	$17                     ; 0x2017 <__mulsf3+0x849>
    28f4: a6 39        	ldx	$39                     ; 0x2039 <__mulsf3+0x86b>
    28f6: 86 18        	stx	$18                     ; 0x2018 <__mulsf3+0x84a>
    28f8: a6 37        	ldx	$37                     ; 0x2037 <__mulsf3+0x869>
    28fa: 86 19        	stx	$19                     ; 0x2019 <__mulsf3+0x84b>
    28fc: a6 3a        	ldx	$3a                     ; 0x203a <__mulsf3+0x86c>
    28fe: 86 1a        	stx	$1a                     ; 0x201a <__mulsf3+0x84c>
    2900: a6 3b        	ldx	$3b                     ; 0x203b <__mulsf3+0x86d>
    2902: 86 1b        	stx	$1b                     ; 0x201b <__mulsf3+0x84d>
    2904: 64 1c        	stz	$1c                     ; 0x201c <__mulsf3+0x84e>
    2906: 64 1d        	stz	$1d                     ; 0x201d <__mulsf3+0x84f>
    2908: 64 1e        	stz	$1e                     ; 0x201e <__mulsf3+0x850>
    290a: 64 1f        	stz	$1f                     ; 0x201f <__mulsf3+0x851>
    290c: a6 22        	ldx	$22                     ; 0x2022 <__mulsf3+0x854>
    290e: 98           	tya
    290f: 20 0a 0b     	jsr	$b0a <__muldi3>
    2912: a6 16        	ldx	$16                     ; 0x2016 <__mulsf3+0x848>
    2914: 46 38        	lsr	$38                     ; 0x2038 <__mulsf3+0x86a>
    2916: a4 17        	ldy	$17                     ; 0x2017 <__mulsf3+0x849>
    2918: 66 36        	ror	$36                     ; 0x2036 <__mulsf3+0x868>
    291a: 64 40        	stz	$40                     ; 0x2040 <__mulsf3+0x872>
    291c: 66 40        	ror	$40                     ; 0x2040 <__mulsf3+0x872>
    291e: 64 41        	stz	$41                     ; 0x2041 <__mulsf3+0x873>
    2920: 66 41        	ror	$41                     ; 0x2041 <__mulsf3+0x873>
    2922: 66 3e        	ror	$3e                     ; 0x203e <__mulsf3+0x870>
    2924: 86 38        	stx	$38                     ; 0x2038 <__mulsf3+0x86a>
    2926: 84 3f        	sty	$3f                     ; 0x203f <__mulsf3+0x871>
    2928: c0 01        	cpy	#$1
    292a: d0 15        	bne	$2941 <__divsf3+0x8bb>
    292c: 8a           	txa
    292d: d0 16        	bne	$2945 <__divsf3+0x8bf>
    292f: a5 46        	lda	$46                     ; 0x2046 <__mulsf3+0x878>
    2931: 85 18        	sta	$18                     ; 0x2018 <__mulsf3+0x84a>
    2933: a6 45        	ldx	$45                     ; 0x2045 <__mulsf3+0x877>
    2935: a4 15        	ldy	$15                     ; 0x2015 <__mulsf3+0x847>
    2937: f0 03        	beq	$293c <__divsf3+0x8b6>
    2939: 4c c5 29     	jmp	$29c5 <__divsf3+0x93f>
    293c: a4 14        	ldy	$14                     ; 0x2014 <__mulsf3+0x846>
    293e: 4c c7 29     	jmp	$29c7 <__divsf3+0x941>
    2941: c0 01        	cpy	#$1
    2943: 80 02        	bra	$2947 <__divsf3+0x8c1>
    2945: e0 00        	cpx	#$0
    2947: a5 46        	lda	$46                     ; 0x2046 <__mulsf3+0x878>
    2949: 85 18        	sta	$18                     ; 0x2018 <__mulsf3+0x84a>
    294b: a6 45        	ldx	$45                     ; 0x2045 <__mulsf3+0x877>
    294d: b0 03        	bcs	$2952 <__divsf3+0x8cc>
    294f: 4c ce 29     	jmp	$29ce <__divsf3+0x948>
    2952: 18           	clc
    2953: a4 4a        	ldy	$4a                     ; 0x204a <__mulsf3+0x87c>
    2955: 98           	tya
    2956: 69 7f        	adc	#$7f
    2958: 85 3a        	sta	$3a                     ; 0x203a <__mulsf3+0x86c>
    295a: a5 4b        	lda	$4b                     ; 0x204b <__mulsf3+0x87d>
    295c: 69 00        	adc	#$0
    295e: 85 3d        	sta	$3d                     ; 0x203d <__mulsf3+0x86f>
    2960: a4 3f        	ldy	$3f                     ; 0x203f <__mulsf3+0x871>
    2962: 84 13        	sty	$13                     ; 0x2013 <__mulsf3+0x845>
    2964: 46 13        	lsr	$13                     ; 0x2013 <__mulsf3+0x845>
    2966: a4 38        	ldy	$38                     ; 0x2038 <__mulsf3+0x86a>
    2968: 84 12        	sty	$12                     ; 0x2012 <__mulsf3+0x844>
    296a: 66 12        	ror	$12                     ; 0x2012 <__mulsf3+0x844>
    296c: a4 15        	ldy	$15                     ; 0x2015 <__mulsf3+0x847>
    296e: 84 39        	sty	$39                     ; 0x2039 <__mulsf3+0x86b>
    2970: 66 39        	ror	$39                     ; 0x2039 <__mulsf3+0x86b>
    2972: a4 14        	ldy	$14                     ; 0x2014 <__mulsf3+0x846>
    2974: 84 37        	sty	$37                     ; 0x2037 <__mulsf3+0x869>
    2976: 66 37        	ror	$37                     ; 0x2037 <__mulsf3+0x869>
    2978: a4 12        	ldy	$12                     ; 0x2012 <__mulsf3+0x844>
    297a: 84 38        	sty	$38                     ; 0x2038 <__mulsf3+0x86a>
    297c: a4 13        	ldy	$13                     ; 0x2013 <__mulsf3+0x845>
    297e: 84 3f        	sty	$3f                     ; 0x203f <__mulsf3+0x871>
    2980: a4 18        	ldy	$18                     ; 0x2018 <__mulsf3+0x84a>
    2982: 84 14        	sty	$14                     ; 0x2014 <__mulsf3+0x846>
    2984: 86 15        	stx	$15                     ; 0x2015 <__mulsf3+0x847>
    2986: a6 49        	ldx	$49                     ; 0x2049 <__mulsf3+0x87b>
    2988: 86 16        	stx	$16                     ; 0x2016 <__mulsf3+0x848>
    298a: a6 47        	ldx	$47                     ; 0x2047 <__mulsf3+0x879>
    298c: 86 17        	stx	$17                     ; 0x2017 <__mulsf3+0x849>
    298e: a6 39        	ldx	$39                     ; 0x2039 <__mulsf3+0x86b>
    2990: a5 37        	lda	$37                     ; 0x2037 <__mulsf3+0x869>
    2992: 20 9a 0a     	jsr	$a9a <__mulsi3>
    2995: 85 14        	sta	$14                     ; 0x2014 <__mulsf3+0x846>
    2997: 86 15        	stx	$15                     ; 0x2015 <__mulsf3+0x847>
    2999: 38           	sec
    299a: a5 3e        	lda	$3e                     ; 0x203e <__mulsf3+0x870>
    299c: e5 14        	sbc	$14                     ; 0x2014 <__mulsf3+0x846>
    299e: 85 18        	sta	$18                     ; 0x2018 <__mulsf3+0x84a>
    29a0: a5 41        	lda	$41                     ; 0x2041 <__mulsf3+0x873>
    29a2: e5 15        	sbc	$15                     ; 0x2015 <__mulsf3+0x847>
    29a4: 85 1b        	sta	$1b                     ; 0x201b <__mulsf3+0x84d>
    29a6: a5 40        	lda	$40                     ; 0x2040 <__mulsf3+0x872>
    29a8: e5 12        	sbc	$12                     ; 0x2012 <__mulsf3+0x844>
    29aa: 85 1a        	sta	$1a                     ; 0x201a <__mulsf3+0x84c>
    29ac: a5 36        	lda	$36                     ; 0x2036 <__mulsf3+0x868>
    29ae: e5 13        	sbc	$13                     ; 0x2013 <__mulsf3+0x845>
    29b0: 85 19        	sta	$19                     ; 0x2019 <__mulsf3+0x84b>
    29b2: a6 37        	ldx	$37                     ; 0x2037 <__mulsf3+0x869>
    29b4: 86 15        	stx	$15                     ; 0x2015 <__mulsf3+0x847>
    29b6: a6 39        	ldx	$39                     ; 0x2039 <__mulsf3+0x86b>
    29b8: 86 36        	stx	$36                     ; 0x2036 <__mulsf3+0x868>
    29ba: a6 3a        	ldx	$3a                     ; 0x203a <__mulsf3+0x86c>
    29bc: 86 12        	stx	$12                     ; 0x2012 <__mulsf3+0x844>
    29be: a6 48        	ldx	$48                     ; 0x2048 <__mulsf3+0x87a>
    29c0: 86 3c        	stx	$3c                     ; 0x203c <__mulsf3+0x86e>
    29c2: 4c 3c 2a     	jmp	$2a3c <__divsf3+0x9b6>
    29c5: a4 15        	ldy	$15                     ; 0x2015 <__mulsf3+0x847>
    29c7: c0 00        	cpy	#$0
    29c9: 90 03        	bcc	$29ce <__divsf3+0x948>
    29cb: 4c 52 29     	jmp	$2952 <__divsf3+0x8cc>
    29ce: a4 3b        	ldy	$3b                     ; 0x203b <__mulsf3+0x86d>
    29d0: 84 3c        	sty	$3c                     ; 0x203c <__mulsf3+0x86e>
    29d2: a4 3a        	ldy	$3a                     ; 0x203a <__mulsf3+0x86c>
    29d4: 84 3b        	sty	$3b                     ; 0x203b <__mulsf3+0x86d>
    29d6: a4 37        	ldy	$37                     ; 0x2037 <__mulsf3+0x869>
    29d8: 84 3a        	sty	$3a                     ; 0x203a <__mulsf3+0x86c>
    29da: 06 3e        	asl	$3e                     ; 0x203e <__mulsf3+0x870>
    29dc: 26 41        	rol	$41                     ; 0x2041 <__mulsf3+0x873>
    29de: 26 40        	rol	$40                     ; 0x2040 <__mulsf3+0x872>
    29e0: a4 36        	ldy	$36                     ; 0x2036 <__mulsf3+0x868>
    29e2: 84 3d        	sty	$3d                     ; 0x203d <__mulsf3+0x86f>
    29e4: 26 3d        	rol	$3d                     ; 0x203d <__mulsf3+0x86f>
    29e6: a4 49        	ldy	$49                     ; 0x2049 <__mulsf3+0x87b>
    29e8: 84 12        	sty	$12                     ; 0x2012 <__mulsf3+0x844>
    29ea: a4 47        	ldy	$47                     ; 0x2047 <__mulsf3+0x879>
    29ec: 84 13        	sty	$13                     ; 0x2013 <__mulsf3+0x845>
    29ee: a4 14        	ldy	$14                     ; 0x2014 <__mulsf3+0x846>
    29f0: 84 37        	sty	$37                     ; 0x2037 <__mulsf3+0x869>
    29f2: a4 15        	ldy	$15                     ; 0x2015 <__mulsf3+0x847>
    29f4: 84 36        	sty	$36                     ; 0x2036 <__mulsf3+0x868>
    29f6: a4 38        	ldy	$38                     ; 0x2038 <__mulsf3+0x86a>
    29f8: 84 16        	sty	$16                     ; 0x2016 <__mulsf3+0x848>
    29fa: a4 3f        	ldy	$3f                     ; 0x203f <__mulsf3+0x871>
    29fc: 84 17        	sty	$17                     ; 0x2017 <__mulsf3+0x849>
    29fe: 20 9a 0a     	jsr	$a9a <__mulsi3>
    2a01: 85 14        	sta	$14                     ; 0x2014 <__mulsf3+0x846>
    2a03: 86 15        	stx	$15                     ; 0x2015 <__mulsf3+0x847>
    2a05: 38           	sec
    2a06: a5 3e        	lda	$3e                     ; 0x203e <__mulsf3+0x870>
    2a08: e5 14        	sbc	$14                     ; 0x2014 <__mulsf3+0x846>
    2a0a: 85 18        	sta	$18                     ; 0x2018 <__mulsf3+0x84a>
    2a0c: a5 41        	lda	$41                     ; 0x2041 <__mulsf3+0x873>
    2a0e: e5 15        	sbc	$15                     ; 0x2015 <__mulsf3+0x847>
    2a10: 85 1b        	sta	$1b                     ; 0x201b <__mulsf3+0x84d>
    2a12: a5 40        	lda	$40                     ; 0x2040 <__mulsf3+0x872>
    2a14: e5 12        	sbc	$12                     ; 0x2012 <__mulsf3+0x844>
    2a16: 85 1a        	sta	$1a                     ; 0x201a <__mulsf3+0x84c>
    2a18: a5 3d        	lda	$3d                     ; 0x203d <__mulsf3+0x86f>
    2a1a: e5 13        	sbc	$13                     ; 0x2013 <__mulsf3+0x845>
    2a1c: 85 19        	sta	$19                     ; 0x2019 <__mulsf3+0x84b>
    2a1e: a5 4a        	lda	$4a                     ; 0x204a <__mulsf3+0x87c>
    2a20: 18           	clc
    2a21: 69 7e        	adc	#$7e
    2a23: a8           	tay
    2a24: a5 4b        	lda	$4b                     ; 0x204b <__mulsf3+0x87d>
    2a26: 69 00        	adc	#$0
    2a28: 85 3d        	sta	$3d                     ; 0x203d <__mulsf3+0x86f>
    2a2a: a6 37        	ldx	$37                     ; 0x2037 <__mulsf3+0x869>
    2a2c: 86 15        	stx	$15                     ; 0x2015 <__mulsf3+0x847>
    2a2e: a6 39        	ldx	$39                     ; 0x2039 <__mulsf3+0x86b>
    2a30: 86 43        	stx	$43                     ; 0x2043 <__mulsf3+0x875>
    2a32: a6 3a        	ldx	$3a                     ; 0x203a <__mulsf3+0x86c>
    2a34: 86 42        	stx	$42                     ; 0x2042 <__mulsf3+0x874>
    2a36: 84 12        	sty	$12                     ; 0x2012 <__mulsf3+0x844>
    2a38: a6 3b        	ldx	$3b                     ; 0x203b <__mulsf3+0x86d>
    2a3a: 86 4c        	stx	$4c                     ; 0x204c <__mulsf3+0x87e>
    2a3c: a6 12        	ldx	$12                     ; 0x2012 <__mulsf3+0x844>
    2a3e: e0 ff        	cpx	#$ff
    2a40: a6 3d        	ldx	$3d                     ; 0x203d <__mulsf3+0x86f>
    2a42: 86 14        	stx	$14                     ; 0x2014 <__mulsf3+0x846>
    2a44: a5 3d        	lda	$3d                     ; 0x203d <__mulsf3+0x86f>
    2a46: e9 00        	sbc	#$0
    2a48: 50 02        	bvc	$2a4c <__divsf3+0x9c6>
    2a4a: 49 80        	eor	#$80
    2a4c: a4 46        	ldy	$46                     ; 0x2046 <__mulsf3+0x878>
    2a4e: aa           	tax
    2a4f: 30 0d        	bmi	$2a5e <__divsf3+0x9d8>
    2a51: a5 44        	lda	$44                     ; 0x2044 <__mulsf3+0x876>
    2a53: 09 7f        	ora	#$7f
    2a55: 64 18        	stz	$18                     ; 0x2018 <__mulsf3+0x84a>
    2a57: 64 15        	stz	$15                     ; 0x2015 <__mulsf3+0x847>
    2a59: a0 80        	ldy	#$80
    2a5b: 4c d4 2b     	jmp	$2bd4 <__divsf3+0xb4e>
    2a5e: a6 12        	ldx	$12                     ; 0x2012 <__mulsf3+0x844>
    2a60: e0 01        	cpx	#$1
    2a62: a5 3d        	lda	$3d                     ; 0x203d <__mulsf3+0x86f>
    2a64: e9 00        	sbc	#$0
    2a66: 50 02        	bvc	$2a6a <__divsf3+0x9e4>
    2a68: 49 80        	eor	#$80
    2a6a: a6 45        	ldx	$45                     ; 0x2045 <__mulsf3+0x877>
    2a6c: 86 1c        	stx	$1c                     ; 0x201c <__mulsf3+0x84e>
    2a6e: a6 47        	ldx	$47                     ; 0x2047 <__mulsf3+0x879>
    2a70: c9 00        	cmp	#$0
    2a72: 30 44        	bmi	$2ab8 <__divsf3+0xa32>
    2a74: a5 38        	lda	$38                     ; 0x2038 <__mulsf3+0x86a>
    2a76: 29 7f        	and	#$7f
    2a78: 85 17        	sta	$17                     ; 0x2017 <__mulsf3+0x849>
    2a7a: 46 14        	lsr	$14                     ; 0x2014 <__mulsf3+0x846>
    2a7c: 66 12        	ror	$12                     ; 0x2012 <__mulsf3+0x844>
    2a7e: 5a           	phy
    2a7f: a4 12        	ldy	$12                     ; 0x2012 <__mulsf3+0x844>
    2a81: 84 37        	sty	$37                     ; 0x2037 <__mulsf3+0x869>
    2a83: 64 1d        	stz	$1d                     ; 0x201d <__mulsf3+0x84f>
    2a85: 66 1d        	ror	$1d                     ; 0x201d <__mulsf3+0x84f>
    2a87: 64 1f        	stz	$1f                     ; 0x201f <__mulsf3+0x851>
    2a89: 66 1f        	ror	$1f                     ; 0x201f <__mulsf3+0x851>
    2a8b: a9 00        	lda	#$0
    2a8d: 6a           	ror
    2a8e: a4 18        	ldy	$18                     ; 0x2018 <__mulsf3+0x84a>
    2a90: 84 14        	sty	$14                     ; 0x2014 <__mulsf3+0x846>
    2a92: 06 14        	asl	$14                     ; 0x2014 <__mulsf3+0x846>
    2a94: a4 1b        	ldy	$1b                     ; 0x201b <__mulsf3+0x84d>
    2a96: 84 12        	sty	$12                     ; 0x2012 <__mulsf3+0x844>
    2a98: 26 12        	rol	$12                     ; 0x2012 <__mulsf3+0x844>
    2a9a: a4 1a        	ldy	$1a                     ; 0x201a <__mulsf3+0x84c>
    2a9c: 84 13        	sty	$13                     ; 0x2013 <__mulsf3+0x845>
    2a9e: 7a           	ply
    2a9f: 26 13        	rol	$13                     ; 0x2013 <__mulsf3+0x845>
    2aa1: 26 19        	rol	$19                     ; 0x2019 <__mulsf3+0x84b>
    2aa3: 05 15        	ora	$15                     ; 0x2015 <__mulsf3+0x847>
    2aa5: 85 15        	sta	$15                     ; 0x2015 <__mulsf3+0x847>
    2aa7: a5 1f        	lda	$1f                     ; 0x201f <__mulsf3+0x851>
    2aa9: 05 36        	ora	$36                     ; 0x2036 <__mulsf3+0x868>
    2aab: 85 16        	sta	$16                     ; 0x2016 <__mulsf3+0x848>
    2aad: a5 1d        	lda	$1d                     ; 0x201d <__mulsf3+0x84f>
    2aaf: 05 17        	ora	$17                     ; 0x2017 <__mulsf3+0x849>
    2ab1: 85 42        	sta	$42                     ; 0x2042 <__mulsf3+0x874>
    2ab3: a5 15        	lda	$15                     ; 0x2015 <__mulsf3+0x847>
    2ab5: 4c 71 2b     	jmp	$2b71 <__divsf3+0xaeb>
    2ab8: a6 12        	ldx	$12                     ; 0x2012 <__mulsf3+0x844>
    2aba: e0 e9        	cpx	#$e9
    2abc: a5 3d        	lda	$3d                     ; 0x203d <__mulsf3+0x86f>
    2abe: e9 ff        	sbc	#$ff
    2ac0: 50 02        	bvc	$2ac4 <__divsf3+0xa3e>
    2ac2: 49 80        	eor	#$80
    2ac4: aa           	tax
    2ac5: 10 0b        	bpl	$2ad2 <__divsf3+0xa4c>
    2ac7: 64 18        	stz	$18                     ; 0x2018 <__mulsf3+0x84a>
    2ac9: 64 15        	stz	$15                     ; 0x2015 <__mulsf3+0x847>
    2acb: a0 00        	ldy	#$0
    2acd: a5 44        	lda	$44                     ; 0x2044 <__mulsf3+0x876>
    2acf: 4c d4 2b     	jmp	$2bd4 <__divsf3+0xb4e>
    2ad2: 18           	clc
    2ad3: a5 12        	lda	$12                     ; 0x2012 <__mulsf3+0x844>
    2ad5: 69 17        	adc	#$17
    2ad7: 85 37        	sta	$37                     ; 0x2037 <__mulsf3+0x869>
    2ad9: a9 01        	lda	#$1
    2adb: 38           	sec
    2adc: e5 12        	sbc	$12                     ; 0x2012 <__mulsf3+0x844>
    2ade: a6 38        	ldx	$38                     ; 0x2038 <__mulsf3+0x86a>
    2ae0: 86 12        	stx	$12                     ; 0x2012 <__mulsf3+0x844>
    2ae2: a6 3f        	ldx	$3f                     ; 0x203f <__mulsf3+0x871>
    2ae4: 86 13        	stx	$13                     ; 0x2013 <__mulsf3+0x845>
    2ae6: 85 14        	sta	$14                     ; 0x2014 <__mulsf3+0x846>
    2ae8: a6 36        	ldx	$36                     ; 0x2036 <__mulsf3+0x868>
    2aea: a5 15        	lda	$15                     ; 0x2015 <__mulsf3+0x847>
    2aec: 20 83 0a     	jsr	$a83 <__lshrsi3>
    2aef: 85 38        	sta	$38                     ; 0x2038 <__mulsf3+0x86a>
    2af1: 86 39        	stx	$39                     ; 0x2039 <__mulsf3+0x86b>
    2af3: a6 12        	ldx	$12                     ; 0x2012 <__mulsf3+0x844>
    2af5: 86 3e        	stx	$3e                     ; 0x203e <__mulsf3+0x870>
    2af7: a6 13        	ldx	$13                     ; 0x2013 <__mulsf3+0x845>
    2af9: 86 36        	stx	$36                     ; 0x2036 <__mulsf3+0x868>
    2afb: a6 4c        	ldx	$4c                     ; 0x204c <__mulsf3+0x87e>
    2afd: 86 12        	stx	$12                     ; 0x2012 <__mulsf3+0x844>
    2aff: a6 3c        	ldx	$3c                     ; 0x203c <__mulsf3+0x86e>
    2b01: 86 13        	stx	$13                     ; 0x2013 <__mulsf3+0x845>
    2b03: a6 37        	ldx	$37                     ; 0x2037 <__mulsf3+0x869>
    2b05: 86 14        	stx	$14                     ; 0x2014 <__mulsf3+0x846>
    2b07: a6 42        	ldx	$42                     ; 0x2042 <__mulsf3+0x874>
    2b09: a5 43        	lda	$43                     ; 0x2043 <__mulsf3+0x875>
    2b0b: 20 6c 0a     	jsr	$a6c <__ashlsi3>
    2b0e: 85 3c        	sta	$3c                     ; 0x203c <__mulsf3+0x86e>
    2b10: 86 3b        	stx	$3b                     ; 0x203b <__mulsf3+0x86d>
    2b12: a6 12        	ldx	$12                     ; 0x2012 <__mulsf3+0x844>
    2b14: 86 3a        	stx	$3a                     ; 0x203a <__mulsf3+0x86c>
    2b16: a6 13        	ldx	$13                     ; 0x2013 <__mulsf3+0x845>
    2b18: 86 3d        	stx	$3d                     ; 0x203d <__mulsf3+0x86f>
    2b1a: a6 4f        	ldx	$4f                     ; 0x204f <__mulsf3+0x881>
    2b1c: 86 12        	stx	$12                     ; 0x2012 <__mulsf3+0x844>
    2b1e: a6 50        	ldx	$50                     ; 0x2050 <__mulsf3+0x882>
    2b20: 86 13        	stx	$13                     ; 0x2013 <__mulsf3+0x845>
    2b22: a6 38        	ldx	$38                     ; 0x2038 <__mulsf3+0x86a>
    2b24: 86 14        	stx	$14                     ; 0x2014 <__mulsf3+0x846>
    2b26: a6 39        	ldx	$39                     ; 0x2039 <__mulsf3+0x86b>
    2b28: 86 15        	stx	$15                     ; 0x2015 <__mulsf3+0x847>
    2b2a: a6 3e        	ldx	$3e                     ; 0x203e <__mulsf3+0x870>
    2b2c: 86 42        	stx	$42                     ; 0x2042 <__mulsf3+0x874>
    2b2e: a6 3e        	ldx	$3e                     ; 0x203e <__mulsf3+0x870>
    2b30: 86 16        	stx	$16                     ; 0x2016 <__mulsf3+0x848>
    2b32: a6 36        	ldx	$36                     ; 0x2036 <__mulsf3+0x868>
    2b34: 86 37        	stx	$37                     ; 0x2037 <__mulsf3+0x869>
    2b36: a6 36        	ldx	$36                     ; 0x2036 <__mulsf3+0x868>
    2b38: 86 17        	stx	$17                     ; 0x2017 <__mulsf3+0x849>
    2b3a: a6 4e        	ldx	$4e                     ; 0x204e <__mulsf3+0x880>
    2b3c: a5 4d        	lda	$4d                     ; 0x204d <__mulsf3+0x87f>
    2b3e: 20 9a 0a     	jsr	$a9a <__mulsi3>
    2b41: a4 46        	ldy	$46                     ; 0x2046 <__mulsf3+0x878>
    2b43: 85 14        	sta	$14                     ; 0x2014 <__mulsf3+0x846>
    2b45: 86 15        	stx	$15                     ; 0x2015 <__mulsf3+0x847>
    2b47: 38           	sec
    2b48: a5 3c        	lda	$3c                     ; 0x203c <__mulsf3+0x86e>
    2b4a: e5 14        	sbc	$14                     ; 0x2014 <__mulsf3+0x846>
    2b4c: 85 14        	sta	$14                     ; 0x2014 <__mulsf3+0x846>
    2b4e: a5 3b        	lda	$3b                     ; 0x203b <__mulsf3+0x86d>
    2b50: e5 15        	sbc	$15                     ; 0x2015 <__mulsf3+0x847>
    2b52: aa           	tax
    2b53: a5 3a        	lda	$3a                     ; 0x203a <__mulsf3+0x86c>
    2b55: e5 12        	sbc	$12                     ; 0x2012 <__mulsf3+0x844>
    2b57: 85 15        	sta	$15                     ; 0x2015 <__mulsf3+0x847>
    2b59: a5 3d        	lda	$3d                     ; 0x203d <__mulsf3+0x86f>
    2b5b: e5 13        	sbc	$13                     ; 0x2013 <__mulsf3+0x845>
    2b5d: 85 19        	sta	$19                     ; 0x2019 <__mulsf3+0x84b>
    2b5f: 86 12        	stx	$12                     ; 0x2012 <__mulsf3+0x844>
    2b61: a6 15        	ldx	$15                     ; 0x2015 <__mulsf3+0x847>
    2b63: 86 13        	stx	$13                     ; 0x2013 <__mulsf3+0x845>
    2b65: a5 38        	lda	$38                     ; 0x2038 <__mulsf3+0x86a>
    2b67: a6 39        	ldx	$39                     ; 0x2039 <__mulsf3+0x86b>
    2b69: 86 16        	stx	$16                     ; 0x2016 <__mulsf3+0x848>
    2b6b: a6 45        	ldx	$45                     ; 0x2045 <__mulsf3+0x877>
    2b6d: 86 1c        	stx	$1c                     ; 0x201c <__mulsf3+0x84e>
    2b6f: a6 47        	ldx	$47                     ; 0x2047 <__mulsf3+0x879>
    2b71: 85 15        	sta	$15                     ; 0x2015 <__mulsf3+0x847>
    2b73: 29 01        	and	#$1
    2b75: 18           	clc
    2b76: 65 14        	adc	$14                     ; 0x2014 <__mulsf3+0x846>
    2b78: 85 17        	sta	$17                     ; 0x2017 <__mulsf3+0x849>
    2b7a: 64 14        	stz	$14                     ; 0x2014 <__mulsf3+0x846>
    2b7c: a9 00        	lda	#$0
    2b7e: 65 12        	adc	$12                     ; 0x2012 <__mulsf3+0x844>
    2b80: 85 18        	sta	$18                     ; 0x2018 <__mulsf3+0x84a>
    2b82: a9 00        	lda	#$0
    2b84: 65 13        	adc	$13                     ; 0x2013 <__mulsf3+0x845>
    2b86: 85 13        	sta	$13                     ; 0x2013 <__mulsf3+0x845>
    2b88: a5 19        	lda	$19                     ; 0x2019 <__mulsf3+0x84b>
    2b8a: 65 14        	adc	$14                     ; 0x2014 <__mulsf3+0x846>
    2b8c: 85 12        	sta	$12                     ; 0x2012 <__mulsf3+0x844>
    2b8e: e4 12        	cpx	$12                     ; 0x2012 <__mulsf3+0x844>
    2b90: d0 18        	bne	$2baa <__divsf3+0xb24>
    2b92: a6 49        	ldx	$49                     ; 0x2049 <__mulsf3+0x87b>
    2b94: e4 13        	cpx	$13                     ; 0x2013 <__mulsf3+0x845>
    2b96: d0 0a        	bne	$2ba2 <__divsf3+0xb1c>
    2b98: a6 1c        	ldx	$1c                     ; 0x201c <__mulsf3+0x84e>
    2b9a: e4 18        	cpx	$18                     ; 0x2018 <__mulsf3+0x84a>
    2b9c: d0 08        	bne	$2ba6 <__divsf3+0xb20>
    2b9e: c4 17        	cpy	$17                     ; 0x2017 <__mulsf3+0x849>
    2ba0: 80 0a        	bra	$2bac <__divsf3+0xb26>
    2ba2: a4 13        	ldy	$13                     ; 0x2013 <__mulsf3+0x845>
    2ba4: 80 02        	bra	$2ba8 <__divsf3+0xb22>
    2ba6: a4 18        	ldy	$18                     ; 0x2018 <__mulsf3+0x84a>
    2ba8: 84 12        	sty	$12                     ; 0x2012 <__mulsf3+0x844>
    2baa: e4 12        	cpx	$12                     ; 0x2012 <__mulsf3+0x844>
    2bac: 64 12        	stz	$12                     ; 0x2012 <__mulsf3+0x844>
    2bae: a5 42        	lda	$42                     ; 0x2042 <__mulsf3+0x874>
    2bb0: 85 13        	sta	$13                     ; 0x2013 <__mulsf3+0x845>
    2bb2: b0 04        	bcs	$2bb8 <__divsf3+0xb32>
    2bb4: a2 01        	ldx	#$1
    2bb6: 86 12        	stx	$12                     ; 0x2012 <__mulsf3+0x844>
    2bb8: a5 15        	lda	$15                     ; 0x2015 <__mulsf3+0x847>
    2bba: 18           	clc
    2bbb: 65 12        	adc	$12                     ; 0x2012 <__mulsf3+0x844>
    2bbd: 85 18        	sta	$18                     ; 0x2018 <__mulsf3+0x84a>
    2bbf: a5 16        	lda	$16                     ; 0x2016 <__mulsf3+0x848>
    2bc1: 69 00        	adc	#$0
    2bc3: 85 15        	sta	$15                     ; 0x2015 <__mulsf3+0x847>
    2bc5: a5 13        	lda	$13                     ; 0x2013 <__mulsf3+0x845>
    2bc7: 69 00        	adc	#$0
    2bc9: a8           	tay
    2bca: a5 37        	lda	$37                     ; 0x2037 <__mulsf3+0x869>
    2bcc: 69 00        	adc	#$0
    2bce: a6 44        	ldx	$44                     ; 0x2044 <__mulsf3+0x876>
    2bd0: 86 12        	stx	$12                     ; 0x2012 <__mulsf3+0x844>
    2bd2: 05 12        	ora	$12                     ; 0x2012 <__mulsf3+0x844>
    2bd4: 84 12        	sty	$12                     ; 0x2012 <__mulsf3+0x844>
    2bd6: 85 13        	sta	$13                     ; 0x2013 <__mulsf3+0x845>
    2bd8: a6 15        	ldx	$15                     ; 0x2015 <__mulsf3+0x847>
    2bda: a5 18        	lda	$18                     ; 0x2018 <__mulsf3+0x84a>
    2bdc: 60           	rts
    2bdd: 86 45        	stx	$45                     ; 0x2045 <__mulsf3+0x877>
    2bdf: a4 38        	ldy	$38                     ; 0x2038 <__mulsf3+0x86a>
    2be1: 84 19        	sty	$19                     ; 0x2019 <__mulsf3+0x84b>
    2be3: e0 00        	cpx	#$0
    2be5: 4c b2 26     	jmp	$26b2 <__divsf3+0x62c>
    2be8: a6 3b        	ldx	$3b                     ; 0x203b <__mulsf3+0x86d>
    2bea: f0 03        	beq	$2bef <__divsf3+0xb69>
    2bec: 4c c7 2a     	jmp	$2ac7 <__divsf3+0xa41>
    2bef: a6 3a        	ldx	$3a                     ; 0x203a <__mulsf3+0x86c>
    2bf1: f0 03        	beq	$2bf6 <__divsf3+0xb70>
    2bf3: 4c c7 2a     	jmp	$2ac7 <__divsf3+0xa41>
    2bf6: aa           	tax
    2bf7: f0 03        	beq	$2bfc <__divsf3+0xb76>
    2bf9: 4c c7 2a     	jmp	$2ac7 <__divsf3+0xa41>
    2bfc: a5 14        	lda	$14                     ; 0x2014 <__mulsf3+0x846>
    2bfe: f0 03        	beq	$2c03 <__divsf3+0xb7d>
    2c00: 4c c7 2a     	jmp	$2ac7 <__divsf3+0xa41>
    2c03: 4c c1 21     	jmp	$21c1 <__divsf3+0x13b>

00002c06 <__floatunsisf>:
    2c06: 85 15        	sta	$15                     ; 0x2015 <__mulsf3+0x847>
    2c08: 86 16        	stx	$16                     ; 0x2016 <__mulsf3+0x848>
    2c0a: a5 13        	lda	$13                     ; 0x2013 <__mulsf3+0x845>
    2c0c: d0 0f        	bne	$2c1d <__floatunsisf+0x17>
    2c0e: a5 12        	lda	$12                     ; 0x2012 <__mulsf3+0x844>
    2c10: d0 0b        	bne	$2c1d <__floatunsisf+0x17>
    2c12: a5 16        	lda	$16                     ; 0x2016 <__mulsf3+0x848>
    2c14: d0 07        	bne	$2c1d <__floatunsisf+0x17>
    2c16: a5 15        	lda	$15                     ; 0x2015 <__mulsf3+0x847>
    2c18: d0 03        	bne	$2c1d <__floatunsisf+0x17>
    2c1a: 4c 4f 2f     	jmp	$2f4f <__floatunsisf+0x349>
    2c1d: a5 13        	lda	$13                     ; 0x2013 <__mulsf3+0x845>
    2c1f: 4a           	lsr
    2c20: 85 18        	sta	$18                     ; 0x2018 <__mulsf3+0x84a>
    2c22: a5 12        	lda	$12                     ; 0x2012 <__mulsf3+0x844>
    2c24: 6a           	ror
    2c25: 85 17        	sta	$17                     ; 0x2017 <__mulsf3+0x849>
    2c27: 86 19        	stx	$19                     ; 0x2019 <__mulsf3+0x84b>
    2c29: 66 19        	ror	$19                     ; 0x2019 <__mulsf3+0x84b>
    2c2b: a5 15        	lda	$15                     ; 0x2015 <__mulsf3+0x847>
    2c2d: 6a           	ror
    2c2e: 05 15        	ora	$15                     ; 0x2015 <__mulsf3+0x847>
    2c30: a8           	tay
    2c31: a5 19        	lda	$19                     ; 0x2019 <__mulsf3+0x84b>
    2c33: 05 16        	ora	$16                     ; 0x2016 <__mulsf3+0x848>
    2c35: aa           	tax
    2c36: a5 17        	lda	$17                     ; 0x2017 <__mulsf3+0x849>
    2c38: 05 12        	ora	$12                     ; 0x2012 <__mulsf3+0x844>
    2c3a: 85 1a        	sta	$1a                     ; 0x201a <__mulsf3+0x84c>
    2c3c: a5 18        	lda	$18                     ; 0x2018 <__mulsf3+0x84a>
    2c3e: 05 13        	ora	$13                     ; 0x2013 <__mulsf3+0x845>
    2c40: 85 1b        	sta	$1b                     ; 0x201b <__mulsf3+0x84d>
    2c42: 4a           	lsr
    2c43: 5a           	phy
    2c44: a4 1a        	ldy	$1a                     ; 0x201a <__mulsf3+0x84c>
    2c46: 84 14        	sty	$14                     ; 0x2014 <__mulsf3+0x846>
    2c48: 7a           	ply
    2c49: 66 14        	ror	$14                     ; 0x2014 <__mulsf3+0x846>
    2c4b: 86 17        	stx	$17                     ; 0x2017 <__mulsf3+0x849>
    2c4d: 66 17        	ror	$17                     ; 0x2017 <__mulsf3+0x849>
    2c4f: 84 18        	sty	$18                     ; 0x2018 <__mulsf3+0x84a>
    2c51: 66 18        	ror	$18                     ; 0x2018 <__mulsf3+0x84a>
    2c53: 4a           	lsr
    2c54: 85 19        	sta	$19                     ; 0x2019 <__mulsf3+0x84b>
    2c56: 66 14        	ror	$14                     ; 0x2014 <__mulsf3+0x846>
    2c58: 66 17        	ror	$17                     ; 0x2017 <__mulsf3+0x849>
    2c5a: 66 18        	ror	$18                     ; 0x2018 <__mulsf3+0x84a>
    2c5c: 98           	tya
    2c5d: 05 18        	ora	$18                     ; 0x2018 <__mulsf3+0x84a>
    2c5f: a8           	tay
    2c60: 8a           	txa
    2c61: 05 17        	ora	$17                     ; 0x2017 <__mulsf3+0x849>
    2c63: aa           	tax
    2c64: a5 1a        	lda	$1a                     ; 0x201a <__mulsf3+0x84c>
    2c66: 05 14        	ora	$14                     ; 0x2014 <__mulsf3+0x846>
    2c68: 85 1a        	sta	$1a                     ; 0x201a <__mulsf3+0x84c>
    2c6a: a5 1b        	lda	$1b                     ; 0x201b <__mulsf3+0x84d>
    2c6c: 05 19        	ora	$19                     ; 0x2019 <__mulsf3+0x84b>
    2c6e: 85 1b        	sta	$1b                     ; 0x201b <__mulsf3+0x84d>
    2c70: 4a           	lsr
    2c71: 5a           	phy
    2c72: a4 1a        	ldy	$1a                     ; 0x201a <__mulsf3+0x84c>
    2c74: 84 14        	sty	$14                     ; 0x2014 <__mulsf3+0x846>
    2c76: 7a           	ply
    2c77: 66 14        	ror	$14                     ; 0x2014 <__mulsf3+0x846>
    2c79: 86 17        	stx	$17                     ; 0x2017 <__mulsf3+0x849>
    2c7b: 66 17        	ror	$17                     ; 0x2017 <__mulsf3+0x849>
    2c7d: 84 18        	sty	$18                     ; 0x2018 <__mulsf3+0x84a>
    2c7f: 66 18        	ror	$18                     ; 0x2018 <__mulsf3+0x84a>
    2c81: 4a           	lsr
    2c82: 66 14        	ror	$14                     ; 0x2014 <__mulsf3+0x846>
    2c84: 66 17        	ror	$17                     ; 0x2017 <__mulsf3+0x849>
    2c86: 66 18        	ror	$18                     ; 0x2018 <__mulsf3+0x84a>
    2c88: 4a           	lsr
    2c89: 66 14        	ror	$14                     ; 0x2014 <__mulsf3+0x846>
    2c8b: 66 17        	ror	$17                     ; 0x2017 <__mulsf3+0x849>
    2c8d: 66 18        	ror	$18                     ; 0x2018 <__mulsf3+0x84a>
    2c8f: 4a           	lsr
    2c90: 85 19        	sta	$19                     ; 0x2019 <__mulsf3+0x84b>
    2c92: 66 14        	ror	$14                     ; 0x2014 <__mulsf3+0x846>
    2c94: 66 17        	ror	$17                     ; 0x2017 <__mulsf3+0x849>
    2c96: 66 18        	ror	$18                     ; 0x2018 <__mulsf3+0x84a>
    2c98: 98           	tya
    2c99: 05 18        	ora	$18                     ; 0x2018 <__mulsf3+0x84a>
    2c9b: 85 18        	sta	$18                     ; 0x2018 <__mulsf3+0x84a>
    2c9d: 8a           	txa
    2c9e: 05 17        	ora	$17                     ; 0x2017 <__mulsf3+0x849>
    2ca0: aa           	tax
    2ca1: a5 1a        	lda	$1a                     ; 0x201a <__mulsf3+0x84c>
    2ca3: 05 14        	ora	$14                     ; 0x2014 <__mulsf3+0x846>
    2ca5: a8           	tay
    2ca6: a5 1b        	lda	$1b                     ; 0x201b <__mulsf3+0x84d>
    2ca8: 05 19        	ora	$19                     ; 0x2019 <__mulsf3+0x84b>
    2caa: 85 17        	sta	$17                     ; 0x2017 <__mulsf3+0x849>
    2cac: 86 14        	stx	$14                     ; 0x2014 <__mulsf3+0x846>
    2cae: a5 18        	lda	$18                     ; 0x2018 <__mulsf3+0x84a>
    2cb0: 05 14        	ora	$14                     ; 0x2014 <__mulsf3+0x846>
    2cb2: 85 19        	sta	$19                     ; 0x2019 <__mulsf3+0x84b>
    2cb4: 84 14        	sty	$14                     ; 0x2014 <__mulsf3+0x846>
    2cb6: 8a           	txa
    2cb7: 05 14        	ora	$14                     ; 0x2014 <__mulsf3+0x846>
    2cb9: 85 18        	sta	$18                     ; 0x2018 <__mulsf3+0x84a>
    2cbb: a6 17        	ldx	$17                     ; 0x2017 <__mulsf3+0x849>
    2cbd: 86 14        	stx	$14                     ; 0x2014 <__mulsf3+0x846>
    2cbf: 86 1a        	stx	$1a                     ; 0x201a <__mulsf3+0x84c>
    2cc1: 98           	tya
    2cc2: 05 14        	ora	$14                     ; 0x2014 <__mulsf3+0x846>
    2cc4: 85 17        	sta	$17                     ; 0x2017 <__mulsf3+0x849>
    2cc6: 85 1b        	sta	$1b                     ; 0x201b <__mulsf3+0x84d>
    2cc8: a5 19        	lda	$19                     ; 0x2019 <__mulsf3+0x84b>
    2cca: 05 17        	ora	$17                     ; 0x2017 <__mulsf3+0x849>
    2ccc: a8           	tay
    2ccd: a5 18        	lda	$18                     ; 0x2018 <__mulsf3+0x84a>
    2ccf: 05 14        	ora	$14                     ; 0x2014 <__mulsf3+0x846>
    2cd1: aa           	tax
    2cd2: 98           	tya
    2cd3: 4a           	lsr
    2cd4: 29 55        	and	#$55
    2cd6: 85 14        	sta	$14                     ; 0x2014 <__mulsf3+0x846>
    2cd8: 8a           	txa
    2cd9: 4a           	lsr
    2cda: 29 55        	and	#$55
    2cdc: 85 17        	sta	$17                     ; 0x2017 <__mulsf3+0x849>
    2cde: a5 1b        	lda	$1b                     ; 0x201b <__mulsf3+0x84d>
    2ce0: 4a           	lsr
    2ce1: 29 55        	and	#$55
    2ce3: 85 18        	sta	$18                     ; 0x2018 <__mulsf3+0x84a>
    2ce5: a5 1a        	lda	$1a                     ; 0x201a <__mulsf3+0x84c>
    2ce7: 4a           	lsr
    2ce8: 29 55        	and	#$55
    2cea: 85 19        	sta	$19                     ; 0x2019 <__mulsf3+0x84b>
    2cec: 38           	sec
    2ced: 98           	tya
    2cee: e5 14        	sbc	$14                     ; 0x2014 <__mulsf3+0x846>
    2cf0: 85 14        	sta	$14                     ; 0x2014 <__mulsf3+0x846>
    2cf2: 8a           	txa
    2cf3: e5 17        	sbc	$17                     ; 0x2017 <__mulsf3+0x849>
    2cf5: aa           	tax
    2cf6: a5 1b        	lda	$1b                     ; 0x201b <__mulsf3+0x84d>
    2cf8: e5 18        	sbc	$18                     ; 0x2018 <__mulsf3+0x84a>
    2cfa: 85 18        	sta	$18                     ; 0x2018 <__mulsf3+0x84a>
    2cfc: a5 1a        	lda	$1a                     ; 0x201a <__mulsf3+0x84c>
    2cfe: e5 19        	sbc	$19                     ; 0x2019 <__mulsf3+0x84b>
    2d00: a8           	tay
    2d01: a5 14        	lda	$14                     ; 0x2014 <__mulsf3+0x846>
    2d03: 85 19        	sta	$19                     ; 0x2019 <__mulsf3+0x84b>
    2d05: 29 33        	and	#$33
    2d07: 85 14        	sta	$14                     ; 0x2014 <__mulsf3+0x846>
    2d09: 8a           	txa
    2d0a: 29 33        	and	#$33
    2d0c: 85 17        	sta	$17                     ; 0x2017 <__mulsf3+0x849>
    2d0e: a5 18        	lda	$18                     ; 0x2018 <__mulsf3+0x84a>
    2d10: 85 1a        	sta	$1a                     ; 0x201a <__mulsf3+0x84c>
    2d12: 29 33        	and	#$33
    2d14: 85 18        	sta	$18                     ; 0x2018 <__mulsf3+0x84a>
    2d16: 98           	tya
    2d17: 4a           	lsr
    2d18: 85 1c        	sta	$1c                     ; 0x201c <__mulsf3+0x84e>
    2d1a: a5 1a        	lda	$1a                     ; 0x201a <__mulsf3+0x84c>
    2d1c: 4a           	lsr
    2d1d: 85 1b        	sta	$1b                     ; 0x201b <__mulsf3+0x84d>
    2d1f: 8a           	txa
    2d20: 4a           	lsr
    2d21: 85 1a        	sta	$1a                     ; 0x201a <__mulsf3+0x84c>
    2d23: a5 19        	lda	$19                     ; 0x2019 <__mulsf3+0x84b>
    2d25: 4a           	lsr
    2d26: 46 1c        	lsr	$1c                     ; 0x201c <__mulsf3+0x84e>
    2d28: 46 1b        	lsr	$1b                     ; 0x201b <__mulsf3+0x84d>
    2d2a: a6 1a        	ldx	$1a                     ; 0x201a <__mulsf3+0x84c>
    2d2c: 86 19        	stx	$19                     ; 0x2019 <__mulsf3+0x84b>
    2d2e: 46 19        	lsr	$19                     ; 0x2019 <__mulsf3+0x84b>
    2d30: 4a           	lsr
    2d31: 29 33        	and	#$33
    2d33: 85 1d        	sta	$1d                     ; 0x201d <__mulsf3+0x84f>
    2d35: a5 19        	lda	$19                     ; 0x2019 <__mulsf3+0x84b>
    2d37: 29 33        	and	#$33
    2d39: aa           	tax
    2d3a: a5 1b        	lda	$1b                     ; 0x201b <__mulsf3+0x84d>
    2d3c: 29 33        	and	#$33
    2d3e: 85 1a        	sta	$1a                     ; 0x201a <__mulsf3+0x84c>
    2d40: a5 1c        	lda	$1c                     ; 0x201c <__mulsf3+0x84e>
    2d42: 29 33        	and	#$33
    2d44: 85 1b        	sta	$1b                     ; 0x201b <__mulsf3+0x84d>
    2d46: 98           	tya
    2d47: 29 33        	and	#$33
    2d49: 85 19        	sta	$19                     ; 0x2019 <__mulsf3+0x84b>
    2d4b: 18           	clc
    2d4c: a5 1d        	lda	$1d                     ; 0x201d <__mulsf3+0x84f>
    2d4e: 65 14        	adc	$14                     ; 0x2014 <__mulsf3+0x846>
    2d50: 85 14        	sta	$14                     ; 0x2014 <__mulsf3+0x846>
    2d52: 8a           	txa
    2d53: 65 17        	adc	$17                     ; 0x2017 <__mulsf3+0x849>
    2d55: 85 17        	sta	$17                     ; 0x2017 <__mulsf3+0x849>
    2d57: a5 1a        	lda	$1a                     ; 0x201a <__mulsf3+0x84c>
    2d59: 65 18        	adc	$18                     ; 0x2018 <__mulsf3+0x84a>
    2d5b: 85 18        	sta	$18                     ; 0x2018 <__mulsf3+0x84a>
    2d5d: a5 1b        	lda	$1b                     ; 0x201b <__mulsf3+0x84d>
    2d5f: 65 19        	adc	$19                     ; 0x2019 <__mulsf3+0x84b>
    2d61: 85 19        	sta	$19                     ; 0x2019 <__mulsf3+0x84b>
    2d63: 4a           	lsr
    2d64: aa           	tax
    2d65: a5 18        	lda	$18                     ; 0x2018 <__mulsf3+0x84a>
    2d67: 6a           	ror
    2d68: a4 17        	ldy	$17                     ; 0x2017 <__mulsf3+0x849>
    2d6a: 84 1b        	sty	$1b                     ; 0x201b <__mulsf3+0x84d>
    2d6c: 66 1b        	ror	$1b                     ; 0x201b <__mulsf3+0x84d>
    2d6e: a4 14        	ldy	$14                     ; 0x2014 <__mulsf3+0x846>
    2d70: 84 1c        	sty	$1c                     ; 0x201c <__mulsf3+0x84e>
    2d72: 66 1c        	ror	$1c                     ; 0x201c <__mulsf3+0x84e>
    2d74: 86 1a        	stx	$1a                     ; 0x201a <__mulsf3+0x84c>
    2d76: 46 1a        	lsr	$1a                     ; 0x201a <__mulsf3+0x84c>
    2d78: 6a           	ror
    2d79: 66 1b        	ror	$1b                     ; 0x201b <__mulsf3+0x84d>
    2d7b: 66 1c        	ror	$1c                     ; 0x201c <__mulsf3+0x84e>
    2d7d: 46 1a        	lsr	$1a                     ; 0x201a <__mulsf3+0x84c>
    2d7f: 6a           	ror
    2d80: 66 1b        	ror	$1b                     ; 0x201b <__mulsf3+0x84d>
    2d82: 66 1c        	ror	$1c                     ; 0x201c <__mulsf3+0x84e>
    2d84: 46 1a        	lsr	$1a                     ; 0x201a <__mulsf3+0x84c>
    2d86: 6a           	ror
    2d87: 85 1d        	sta	$1d                     ; 0x201d <__mulsf3+0x84f>
    2d89: a6 1b        	ldx	$1b                     ; 0x201b <__mulsf3+0x84d>
    2d8b: 86 1e        	stx	$1e                     ; 0x201e <__mulsf3+0x850>
    2d8d: 66 1e        	ror	$1e                     ; 0x201e <__mulsf3+0x850>
    2d8f: a5 1c        	lda	$1c                     ; 0x201c <__mulsf3+0x84e>
    2d91: 6a           	ror
    2d92: 18           	clc
    2d93: 65 14        	adc	$14                     ; 0x2014 <__mulsf3+0x846>
    2d95: a8           	tay
    2d96: a5 1e        	lda	$1e                     ; 0x201e <__mulsf3+0x850>
    2d98: 65 17        	adc	$17                     ; 0x2017 <__mulsf3+0x849>
    2d9a: aa           	tax
    2d9b: a5 1d        	lda	$1d                     ; 0x201d <__mulsf3+0x84f>
    2d9d: 65 18        	adc	$18                     ; 0x2018 <__mulsf3+0x84a>
    2d9f: 85 18        	sta	$18                     ; 0x2018 <__mulsf3+0x84a>
    2da1: a5 1a        	lda	$1a                     ; 0x201a <__mulsf3+0x84c>
    2da3: 65 19        	adc	$19                     ; 0x2019 <__mulsf3+0x84b>
    2da5: 85 19        	sta	$19                     ; 0x2019 <__mulsf3+0x84b>
    2da7: 98           	tya
    2da8: 29 0f        	and	#$f
    2daa: 85 14        	sta	$14                     ; 0x2014 <__mulsf3+0x846>
    2dac: 85 1a        	sta	$1a                     ; 0x201a <__mulsf3+0x84c>
    2dae: 8a           	txa
    2daf: 29 0f        	and	#$f
    2db1: 85 17        	sta	$17                     ; 0x2017 <__mulsf3+0x849>
    2db3: a8           	tay
    2db4: a5 18        	lda	$18                     ; 0x2018 <__mulsf3+0x84a>
    2db6: 29 0f        	and	#$f
    2db8: 85 18        	sta	$18                     ; 0x2018 <__mulsf3+0x84a>
    2dba: aa           	tax
    2dbb: a5 19        	lda	$19                     ; 0x2019 <__mulsf3+0x84b>
    2dbd: 29 0f        	and	#$f
    2dbf: 85 19        	sta	$19                     ; 0x2019 <__mulsf3+0x84b>
    2dc1: 18           	clc
    2dc2: a5 1a        	lda	$1a                     ; 0x201a <__mulsf3+0x84c>
    2dc4: 69 00        	adc	#$0
    2dc6: 85 1b        	sta	$1b                     ; 0x201b <__mulsf3+0x84d>
    2dc8: 98           	tya
    2dc9: 65 14        	adc	$14                     ; 0x2014 <__mulsf3+0x846>
    2dcb: a8           	tay
    2dcc: 8a           	txa
    2dcd: 65 17        	adc	$17                     ; 0x2017 <__mulsf3+0x849>
    2dcf: 85 1a        	sta	$1a                     ; 0x201a <__mulsf3+0x84c>
    2dd1: a5 19        	lda	$19                     ; 0x2019 <__mulsf3+0x84b>
    2dd3: 65 18        	adc	$18                     ; 0x2018 <__mulsf3+0x84a>
    2dd5: aa           	tax
    2dd6: a5 1b        	lda	$1b                     ; 0x201b <__mulsf3+0x84d>
    2dd8: 85 14        	sta	$14                     ; 0x2014 <__mulsf3+0x846>
    2dda: 18           	clc
    2ddb: 69 00        	adc	#$0
    2ddd: 98           	tya
    2dde: 84 17        	sty	$17                     ; 0x2017 <__mulsf3+0x849>
    2de0: 69 00        	adc	#$0
    2de2: a5 1a        	lda	$1a                     ; 0x201a <__mulsf3+0x84c>
    2de4: 65 14        	adc	$14                     ; 0x2014 <__mulsf3+0x846>
    2de6: 8a           	txa
    2de7: 65 17        	adc	$17                     ; 0x2017 <__mulsf3+0x849>
    2de9: 85 14        	sta	$14                     ; 0x2014 <__mulsf3+0x846>
    2deb: a9 20        	lda	#$20
    2ded: 38           	sec
    2dee: e5 14        	sbc	$14                     ; 0x2014 <__mulsf3+0x846>
    2df0: 85 14        	sta	$14                     ; 0x2014 <__mulsf3+0x846>
    2df2: 85 19        	sta	$19                     ; 0x2019 <__mulsf3+0x84b>
    2df4: a9 00        	lda	#$0
    2df6: e9 00        	sbc	#$0
    2df8: 85 18        	sta	$18                     ; 0x2018 <__mulsf3+0x84a>
    2dfa: 85 36        	sta	$36                     ; 0x2036 <__mulsf3+0x868>
    2dfc: a6 19        	ldx	$19                     ; 0x2019 <__mulsf3+0x84b>
    2dfe: 86 38        	stx	$38                     ; 0x2038 <__mulsf3+0x86a>
    2e00: a5 19        	lda	$19                     ; 0x2019 <__mulsf3+0x84b>
    2e02: 49 1f        	eor	#$1f
    2e04: 85 17        	sta	$17                     ; 0x2017 <__mulsf3+0x849>
    2e06: a6 36        	ldx	$36                     ; 0x2036 <__mulsf3+0x868>
    2e08: f0 03        	beq	$2e0d <__floatunsisf+0x207>
    2e0a: 4c 82 2e     	jmp	$2e82 <__floatunsisf+0x27c>
    2e0d: c9 18        	cmp	#$18
    2e0f: b0 03        	bcs	$2e14 <__floatunsisf+0x20e>
    2e11: 4c 8b 2e     	jmp	$2e8b <__floatunsisf+0x285>
    2e14: 38           	sec
    2e15: a9 08        	lda	#$8
    2e17: a6 14        	ldx	$14                     ; 0x2014 <__mulsf3+0x846>
    2e19: 86 37        	stx	$37                     ; 0x2037 <__mulsf3+0x869>
    2e1b: e5 14        	sbc	$14                     ; 0x2014 <__mulsf3+0x846>
    2e1d: a6 12        	ldx	$12                     ; 0x2012 <__mulsf3+0x844>
    2e1f: 86 3d        	stx	$3d                     ; 0x203d <__mulsf3+0x86f>
    2e21: a6 13        	ldx	$13                     ; 0x2013 <__mulsf3+0x845>
    2e23: 86 3f        	stx	$3f                     ; 0x203f <__mulsf3+0x871>
    2e25: 85 14        	sta	$14                     ; 0x2014 <__mulsf3+0x846>
    2e27: a6 16        	ldx	$16                     ; 0x2016 <__mulsf3+0x848>
    2e29: a5 15        	lda	$15                     ; 0x2015 <__mulsf3+0x847>
    2e2b: a4 15        	ldy	$15                     ; 0x2015 <__mulsf3+0x847>
    2e2d: 84 3e        	sty	$3e                     ; 0x203e <__mulsf3+0x870>
    2e2f: a4 16        	ldy	$16                     ; 0x2016 <__mulsf3+0x848>
    2e31: 84 40        	sty	$40                     ; 0x2040 <__mulsf3+0x872>
    2e33: 20 83 0a     	jsr	$a83 <__lshrsi3>
    2e36: 85 3a        	sta	$3a                     ; 0x203a <__mulsf3+0x86c>
    2e38: 86 39        	stx	$39                     ; 0x2039 <__mulsf3+0x86b>
    2e3a: a5 12        	lda	$12                     ; 0x2012 <__mulsf3+0x844>
    2e3c: a6 13        	ldx	$13                     ; 0x2013 <__mulsf3+0x845>
    2e3e: 86 3c        	stx	$3c                     ; 0x203c <__mulsf3+0x86e>
    2e40: 49 80        	eor	#$80
    2e42: 85 3b        	sta	$3b                     ; 0x203b <__mulsf3+0x86d>
    2e44: a5 38        	lda	$38                     ; 0x2038 <__mulsf3+0x86a>
    2e46: 18           	clc
    2e47: 69 18        	adc	#$18
    2e49: a6 3d        	ldx	$3d                     ; 0x203d <__mulsf3+0x86f>
    2e4b: 86 12        	stx	$12                     ; 0x2012 <__mulsf3+0x844>
    2e4d: a6 3f        	ldx	$3f                     ; 0x203f <__mulsf3+0x871>
    2e4f: 86 13        	stx	$13                     ; 0x2013 <__mulsf3+0x845>
    2e51: 85 14        	sta	$14                     ; 0x2014 <__mulsf3+0x846>
    2e53: a6 40        	ldx	$40                     ; 0x2040 <__mulsf3+0x872>
    2e55: a5 3e        	lda	$3e                     ; 0x203e <__mulsf3+0x870>
    2e57: 20 6c 0a     	jsr	$a6c <__ashlsi3>
    2e5a: 85 15        	sta	$15                     ; 0x2015 <__mulsf3+0x847>
    2e5c: 86 16        	stx	$16                     ; 0x2016 <__mulsf3+0x848>
    2e5e: a6 12        	ldx	$12                     ; 0x2012 <__mulsf3+0x844>
    2e60: a4 13        	ldy	$13                     ; 0x2013 <__mulsf3+0x845>
    2e62: c0 80        	cpy	#$80
    2e64: d0 4e        	bne	$2eb4 <__floatunsisf+0x2ae>
    2e66: a5 36        	lda	$36                     ; 0x2036 <__mulsf3+0x868>
    2e68: 85 12        	sta	$12                     ; 0x2012 <__mulsf3+0x844>
    2e6a: 8a           	txa
    2e6b: d0 4f        	bne	$2ebc <__floatunsisf+0x2b6>
    2e6d: a5 37        	lda	$37                     ; 0x2037 <__mulsf3+0x869>
    2e6f: 85 13        	sta	$13                     ; 0x2013 <__mulsf3+0x845>
    2e71: a5 3a        	lda	$3a                     ; 0x203a <__mulsf3+0x86c>
    2e73: 85 14        	sta	$14                     ; 0x2014 <__mulsf3+0x846>
    2e75: a5 16        	lda	$16                     ; 0x2016 <__mulsf3+0x848>
    2e77: f0 03        	beq	$2e7c <__floatunsisf+0x276>
    2e79: 4c 48 2f     	jmp	$2f48 <__floatunsisf+0x342>
    2e7c: a5 15        	lda	$15                     ; 0x2015 <__mulsf3+0x847>
    2e7e: c9 01        	cmp	#$1
    2e80: 80 44        	bra	$2ec6 <__floatunsisf+0x2c0>
    2e82: a6 18        	ldx	$18                     ; 0x2018 <__mulsf3+0x84a>
    2e84: e0 00        	cpx	#$0
    2e86: 90 03        	bcc	$2e8b <__floatunsisf+0x285>
    2e88: 4c 14 2e     	jmp	$2e14 <__floatunsisf+0x20e>
    2e8b: a6 14        	ldx	$14                     ; 0x2014 <__mulsf3+0x846>
    2e8d: 86 37        	stx	$37                     ; 0x2037 <__mulsf3+0x869>
    2e8f: 38           	sec
    2e90: a9 17        	lda	#$17
    2e92: e5 17        	sbc	$17                     ; 0x2017 <__mulsf3+0x849>
    2e94: 85 14        	sta	$14                     ; 0x2014 <__mulsf3+0x846>
    2e96: a6 16        	ldx	$16                     ; 0x2016 <__mulsf3+0x848>
    2e98: a5 15        	lda	$15                     ; 0x2015 <__mulsf3+0x847>
    2e9a: 20 6c 0a     	jsr	$a6c <__ashlsi3>
    2e9d: 85 14        	sta	$14                     ; 0x2014 <__mulsf3+0x846>
    2e9f: 86 17        	stx	$17                     ; 0x2017 <__mulsf3+0x849>
    2ea1: a5 12        	lda	$12                     ; 0x2012 <__mulsf3+0x844>
    2ea3: a6 13        	ldx	$13                     ; 0x2013 <__mulsf3+0x845>
    2ea5: 86 15        	stx	$15                     ; 0x2015 <__mulsf3+0x847>
    2ea7: 49 80        	eor	#$80
    2ea9: a6 36        	ldx	$36                     ; 0x2036 <__mulsf3+0x868>
    2eab: 86 12        	stx	$12                     ; 0x2012 <__mulsf3+0x844>
    2ead: a6 37        	ldx	$37                     ; 0x2037 <__mulsf3+0x869>
    2eaf: 86 13        	stx	$13                     ; 0x2013 <__mulsf3+0x845>
    2eb1: 4c 17 2f     	jmp	$2f17 <__floatunsisf+0x311>
    2eb4: c0 80        	cpy	#$80
    2eb6: a5 36        	lda	$36                     ; 0x2036 <__mulsf3+0x868>
    2eb8: 85 12        	sta	$12                     ; 0x2012 <__mulsf3+0x844>
    2eba: 80 02        	bra	$2ebe <__floatunsisf+0x2b8>
    2ebc: e0 00        	cpx	#$0
    2ebe: a5 37        	lda	$37                     ; 0x2037 <__mulsf3+0x869>
    2ec0: 85 13        	sta	$13                     ; 0x2013 <__mulsf3+0x845>
    2ec2: a5 3a        	lda	$3a                     ; 0x203a <__mulsf3+0x86c>
    2ec4: 85 14        	sta	$14                     ; 0x2014 <__mulsf3+0x846>
    2ec6: a5 39        	lda	$39                     ; 0x2039 <__mulsf3+0x86b>
    2ec8: 85 17        	sta	$17                     ; 0x2017 <__mulsf3+0x849>
    2eca: b0 30        	bcs	$2efc <__floatunsisf+0x2f6>
    2ecc: c0 80        	cpy	#$80
    2ece: d0 41        	bne	$2f11 <__floatunsisf+0x30b>
    2ed0: 8a           	txa
    2ed1: d0 3e        	bne	$2f11 <__floatunsisf+0x30b>
    2ed3: a5 16        	lda	$16                     ; 0x2016 <__mulsf3+0x848>
    2ed5: d0 3a        	bne	$2f11 <__floatunsisf+0x30b>
    2ed7: a5 15        	lda	$15                     ; 0x2015 <__mulsf3+0x847>
    2ed9: d0 36        	bne	$2f11 <__floatunsisf+0x30b>
    2edb: a5 14        	lda	$14                     ; 0x2014 <__mulsf3+0x846>
    2edd: 29 01        	and	#$1
    2edf: 18           	clc
    2ee0: 65 14        	adc	$14                     ; 0x2014 <__mulsf3+0x846>
    2ee2: a8           	tay
    2ee3: a6 39        	ldx	$39                     ; 0x2039 <__mulsf3+0x86b>
    2ee5: 8a           	txa
    2ee6: 69 00        	adc	#$0
    2ee8: 85 17        	sta	$17                     ; 0x2017 <__mulsf3+0x849>
    2eea: a5 3b        	lda	$3b                     ; 0x203b <__mulsf3+0x86d>
    2eec: 69 00        	adc	#$0
    2eee: 85 16        	sta	$16                     ; 0x2016 <__mulsf3+0x848>
    2ef0: a5 3c        	lda	$3c                     ; 0x203c <__mulsf3+0x86e>
    2ef2: 69 00        	adc	#$0
    2ef4: 85 15        	sta	$15                     ; 0x2015 <__mulsf3+0x847>
    2ef6: a5 16        	lda	$16                     ; 0x2016 <__mulsf3+0x848>
    2ef8: 84 14        	sty	$14                     ; 0x2014 <__mulsf3+0x846>
    2efa: 80 1b        	bra	$2f17 <__floatunsisf+0x311>
    2efc: a5 3b        	lda	$3b                     ; 0x203b <__mulsf3+0x86d>
    2efe: a6 3c        	ldx	$3c                     ; 0x203c <__mulsf3+0x86e>
    2f00: 86 15        	stx	$15                     ; 0x2015 <__mulsf3+0x847>
    2f02: e6 14        	inc	$14                     ; 0x2014 <__mulsf3+0x846>
    2f04: d0 09        	bne	$2f0f <__floatunsisf+0x309>
    2f06: e6 17        	inc	$17                     ; 0x2017 <__mulsf3+0x849>
    2f08: d0 05        	bne	$2f0f <__floatunsisf+0x309>
    2f0a: 1a           	inc
    2f0b: d0 02        	bne	$2f0f <__floatunsisf+0x309>
    2f0d: e6 15        	inc	$15                     ; 0x2015 <__mulsf3+0x847>
    2f0f: 80 06        	bra	$2f17 <__floatunsisf+0x311>
    2f11: a5 3b        	lda	$3b                     ; 0x203b <__mulsf3+0x86d>
    2f13: a6 3c        	ldx	$3c                     ; 0x203c <__mulsf3+0x86e>
    2f15: 86 15        	stx	$15                     ; 0x2015 <__mulsf3+0x847>
    2f17: 85 16        	sta	$16                     ; 0x2016 <__mulsf3+0x848>
    2f19: 38           	sec
    2f1a: a9 9e        	lda	#$9e
    2f1c: e5 13        	sbc	$13                     ; 0x2013 <__mulsf3+0x845>
    2f1e: 85 13        	sta	$13                     ; 0x2013 <__mulsf3+0x845>
    2f20: a9 00        	lda	#$0
    2f22: e5 12        	sbc	$12                     ; 0x2012 <__mulsf3+0x844>
    2f24: 4a           	lsr
    2f25: 66 13        	ror	$13                     ; 0x2013 <__mulsf3+0x845>
    2f27: 64 18        	stz	$18                     ; 0x2018 <__mulsf3+0x84a>
    2f29: 66 18        	ror	$18                     ; 0x2018 <__mulsf3+0x84a>
    2f2b: a9 00        	lda	#$0
    2f2d: 6a           	ror
    2f2e: aa           	tax
    2f2f: a9 00        	lda	#$0
    2f31: 6a           	ror
    2f32: 18           	clc
    2f33: 65 14        	adc	$14                     ; 0x2014 <__mulsf3+0x846>
    2f35: a8           	tay
    2f36: 8a           	txa
    2f37: 65 17        	adc	$17                     ; 0x2017 <__mulsf3+0x849>
    2f39: aa           	tax
    2f3a: a5 18        	lda	$18                     ; 0x2018 <__mulsf3+0x84a>
    2f3c: 65 16        	adc	$16                     ; 0x2016 <__mulsf3+0x848>
    2f3e: 85 12        	sta	$12                     ; 0x2012 <__mulsf3+0x844>
    2f40: a5 13        	lda	$13                     ; 0x2013 <__mulsf3+0x845>
    2f42: 65 15        	adc	$15                     ; 0x2015 <__mulsf3+0x847>
    2f44: 85 13        	sta	$13                     ; 0x2013 <__mulsf3+0x845>
    2f46: 98           	tya
    2f47: 60           	rts
    2f48: a5 16        	lda	$16                     ; 0x2016 <__mulsf3+0x848>
    2f4a: c9 00        	cmp	#$0
    2f4c: 4c c6 2e     	jmp	$2ec6 <__floatunsisf+0x2c0>
    2f4f: a0 00        	ldy	#$0
    2f51: a2 00        	ldx	#$0
    2f53: 64 12        	stz	$12                     ; 0x2012 <__mulsf3+0x844>
    2f55: 64 13        	stz	$13                     ; 0x2013 <__mulsf3+0x845>
    2f57: 80 ed        	bra	$2f46 <__floatunsisf+0x340>

00002f59 <__gtsf2>:
    2f59: a8           	tay
    2f5a: 86 18        	stx	$18                     ; 0x2018 <__mulsf3+0x84a>
    2f5c: a6 12        	ldx	$12                     ; 0x2012 <__mulsf3+0x844>
    2f5e: a5 13        	lda	$13                     ; 0x2013 <__mulsf3+0x845>
    2f60: 85 19        	sta	$19                     ; 0x2019 <__mulsf3+0x84b>
    2f62: 29 7f        	and	#$7f
    2f64: 85 12        	sta	$12                     ; 0x2012 <__mulsf3+0x844>
    2f66: c9 7f        	cmp	#$7f
    2f68: d0 0e        	bne	$2f78 <__gtsf2+0x1f>
    2f6a: e0 80        	cpx	#$80
    2f6c: d0 10        	bne	$2f7e <__gtsf2+0x25>
    2f6e: a5 18        	lda	$18                     ; 0x2018 <__mulsf3+0x84a>
    2f70: d0 12        	bne	$2f84 <__gtsf2+0x2b>
    2f72: c0 01        	cpy	#$1
    2f74: 90 14        	bcc	$2f8a <__gtsf2+0x31>
    2f76: 80 44        	bra	$2fbc <__gtsf2+0x63>
    2f78: c9 7f        	cmp	#$7f
    2f7a: 90 0e        	bcc	$2f8a <__gtsf2+0x31>
    2f7c: 80 3e        	bra	$2fbc <__gtsf2+0x63>
    2f7e: e0 80        	cpx	#$80
    2f80: 90 08        	bcc	$2f8a <__gtsf2+0x31>
    2f82: 80 38        	bra	$2fbc <__gtsf2+0x63>
    2f84: a5 18        	lda	$18                     ; 0x2018 <__mulsf3+0x84a>
    2f86: c9 00        	cmp	#$0
    2f88: b0 32        	bcs	$2fbc <__gtsf2+0x63>
    2f8a: a5 17        	lda	$17                     ; 0x2017 <__mulsf3+0x849>
    2f8c: 29 7f        	and	#$7f
    2f8e: 84 1b        	sty	$1b                     ; 0x201b <__mulsf3+0x84d>
    2f90: a4 18        	ldy	$18                     ; 0x2018 <__mulsf3+0x84a>
    2f92: c9 7f        	cmp	#$7f
    2f94: d0 16        	bne	$2fac <__gtsf2+0x53>
    2f96: 85 18        	sta	$18                     ; 0x2018 <__mulsf3+0x84a>
    2f98: 86 13        	stx	$13                     ; 0x2013 <__mulsf3+0x845>
    2f9a: a6 16        	ldx	$16                     ; 0x2016 <__mulsf3+0x848>
    2f9c: e0 80        	cpx	#$80
    2f9e: d0 12        	bne	$2fb2 <__gtsf2+0x59>
    2fa0: a5 1b        	lda	$1b                     ; 0x201b <__mulsf3+0x84d>
    2fa2: a6 15        	ldx	$15                     ; 0x2015 <__mulsf3+0x847>
    2fa4: d0 23        	bne	$2fc9 <__gtsf2+0x70>
    2fa6: a6 14        	ldx	$14                     ; 0x2014 <__mulsf3+0x846>
    2fa8: e0 01        	cpx	#$1
    2faa: 80 21        	bra	$2fcd <__gtsf2+0x74>
    2fac: 85 18        	sta	$18                     ; 0x2018 <__mulsf3+0x84a>
    2fae: c9 7f        	cmp	#$7f
    2fb0: 80 06        	bra	$2fb8 <__gtsf2+0x5f>
    2fb2: a6 16        	ldx	$16                     ; 0x2016 <__mulsf3+0x848>
    2fb4: e0 80        	cpx	#$80
    2fb6: a6 13        	ldx	$13                     ; 0x2013 <__mulsf3+0x845>
    2fb8: a5 1b        	lda	$1b                     ; 0x201b <__mulsf3+0x84d>
    2fba: 90 15        	bcc	$2fd1 <__gtsf2+0x78>
    2fbc: a2 ff        	ldx	#$ff
    2fbe: 86 36        	stx	$36                     ; 0x2036 <__mulsf3+0x868>
    2fc0: 8a           	txa
    2fc1: a8           	tay
    2fc2: 85 12        	sta	$12                     ; 0x2012 <__mulsf3+0x844>
    2fc4: 84 13        	sty	$13                     ; 0x2013 <__mulsf3+0x845>
    2fc6: a5 36        	lda	$36                     ; 0x2036 <__mulsf3+0x868>
    2fc8: 60           	rts
    2fc9: a6 15        	ldx	$15                     ; 0x2015 <__mulsf3+0x847>
    2fcb: e0 00        	cpx	#$0
    2fcd: a6 13        	ldx	$13                     ; 0x2013 <__mulsf3+0x845>
    2fcf: b0 eb        	bcs	$2fbc <__gtsf2+0x63>
    2fd1: 05 14        	ora	$14                     ; 0x2014 <__mulsf3+0x846>
    2fd3: 85 13        	sta	$13                     ; 0x2013 <__mulsf3+0x845>
    2fd5: 98           	tya
    2fd6: 05 15        	ora	$15                     ; 0x2015 <__mulsf3+0x847>
    2fd8: 85 1a        	sta	$1a                     ; 0x201a <__mulsf3+0x84c>
    2fda: 8a           	txa
    2fdb: 05 16        	ora	$16                     ; 0x2016 <__mulsf3+0x848>
    2fdd: 85 1c        	sta	$1c                     ; 0x201c <__mulsf3+0x84e>
    2fdf: a5 18        	lda	$18                     ; 0x2018 <__mulsf3+0x84a>
    2fe1: 05 12        	ora	$12                     ; 0x2012 <__mulsf3+0x844>
    2fe3: d0 0f        	bne	$2ff4 <__gtsf2+0x9b>
    2fe5: a5 1c        	lda	$1c                     ; 0x201c <__mulsf3+0x84e>
    2fe7: d0 0b        	bne	$2ff4 <__gtsf2+0x9b>
    2fe9: a5 1a        	lda	$1a                     ; 0x201a <__mulsf3+0x84c>
    2feb: d0 07        	bne	$2ff4 <__gtsf2+0x9b>
    2fed: a5 13        	lda	$13                     ; 0x2013 <__mulsf3+0x845>
    2fef: d0 03        	bne	$2ff4 <__gtsf2+0x9b>
    2ff1: 4c 8d 30     	jmp	$308d <__gtsf2+0x134>
    2ff4: a5 19        	lda	$19                     ; 0x2019 <__mulsf3+0x84b>
    2ff6: 85 1a        	sta	$1a                     ; 0x201a <__mulsf3+0x84c>
    2ff8: a5 19        	lda	$19                     ; 0x2019 <__mulsf3+0x84b>
    2ffa: 25 17        	and	$17                     ; 0x2017 <__mulsf3+0x849>
    2ffc: 30 1a        	bmi	$3018 <__gtsf2+0xbf>
    2ffe: a5 1b        	lda	$1b                     ; 0x201b <__mulsf3+0x84d>
    3000: 85 12        	sta	$12                     ; 0x2012 <__mulsf3+0x844>
    3002: c5 14        	cmp	$14                     ; 0x2014 <__mulsf3+0x846>
    3004: 98           	tya
    3005: e5 15        	sbc	$15                     ; 0x2015 <__mulsf3+0x847>
    3007: 86 18        	stx	$18                     ; 0x2018 <__mulsf3+0x84a>
    3009: 8a           	txa
    300a: e5 16        	sbc	$16                     ; 0x2016 <__mulsf3+0x848>
    300c: a5 19        	lda	$19                     ; 0x2019 <__mulsf3+0x84b>
    300e: e5 17        	sbc	$17                     ; 0x2017 <__mulsf3+0x849>
    3010: 85 1a        	sta	$1a                     ; 0x201a <__mulsf3+0x84c>
    3012: 50 30        	bvc	$3044 <__gtsf2+0xeb>
    3014: 84 13        	sty	$13                     ; 0x2013 <__mulsf3+0x845>
    3016: 80 22        	bra	$303a <__gtsf2+0xe1>
    3018: 86 13        	stx	$13                     ; 0x2013 <__mulsf3+0x845>
    301a: a6 14        	ldx	$14                     ; 0x2014 <__mulsf3+0x846>
    301c: e4 1b        	cpx	$1b                     ; 0x201b <__mulsf3+0x84d>
    301e: a5 15        	lda	$15                     ; 0x2015 <__mulsf3+0x847>
    3020: 84 12        	sty	$12                     ; 0x2012 <__mulsf3+0x844>
    3022: e5 12        	sbc	$12                     ; 0x2012 <__mulsf3+0x844>
    3024: a5 16        	lda	$16                     ; 0x2016 <__mulsf3+0x848>
    3026: a6 13        	ldx	$13                     ; 0x2013 <__mulsf3+0x845>
    3028: 86 18        	stx	$18                     ; 0x2018 <__mulsf3+0x84a>
    302a: e5 13        	sbc	$13                     ; 0x2013 <__mulsf3+0x845>
    302c: a5 17        	lda	$17                     ; 0x2017 <__mulsf3+0x849>
    302e: e5 1a        	sbc	$1a                     ; 0x201a <__mulsf3+0x84c>
    3030: 85 1a        	sta	$1a                     ; 0x201a <__mulsf3+0x84c>
    3032: 50 14        	bvc	$3048 <__gtsf2+0xef>
    3034: 84 13        	sty	$13                     ; 0x2013 <__mulsf3+0x845>
    3036: a6 1b        	ldx	$1b                     ; 0x201b <__mulsf3+0x84d>
    3038: 86 12        	stx	$12                     ; 0x2012 <__mulsf3+0x844>
    303a: a2 ff        	ldx	#$ff
    303c: 86 36        	stx	$36                     ; 0x2036 <__mulsf3+0x868>
    303e: 49 80        	eor	#$80
    3040: 85 1a        	sta	$1a                     ; 0x201a <__mulsf3+0x84c>
    3042: 80 0e        	bra	$3052 <__gtsf2+0xf9>
    3044: 84 13        	sty	$13                     ; 0x2013 <__mulsf3+0x845>
    3046: 80 06        	bra	$304e <__gtsf2+0xf5>
    3048: 84 13        	sty	$13                     ; 0x2013 <__mulsf3+0x845>
    304a: a6 1b        	ldx	$1b                     ; 0x201b <__mulsf3+0x84d>
    304c: 86 12        	stx	$12                     ; 0x2012 <__mulsf3+0x844>
    304e: a2 ff        	ldx	#$ff
    3050: 86 36        	stx	$36                     ; 0x2036 <__mulsf3+0x868>
    3052: a9 ff        	lda	#$ff
    3054: a8           	tay
    3055: e6 1a        	inc	$1a                     ; 0x201a <__mulsf3+0x84c>
    3057: c6 1a        	dec	$1a                     ; 0x201a <__mulsf3+0x84c>
    3059: 10 03        	bpl	$305e <__gtsf2+0x105>
    305b: 4c c2 2f     	jmp	$2fc2 <__gtsf2+0x69>
    305e: a9 00        	lda	#$0
    3060: a4 19        	ldy	$19                     ; 0x2019 <__mulsf3+0x84b>
    3062: c4 17        	cpy	$17                     ; 0x2017 <__mulsf3+0x849>
    3064: d0 16        	bne	$307c <__gtsf2+0x123>
    3066: a4 18        	ldy	$18                     ; 0x2018 <__mulsf3+0x84a>
    3068: c4 16        	cpy	$16                     ; 0x2016 <__mulsf3+0x848>
    306a: d0 10        	bne	$307c <__gtsf2+0x123>
    306c: a6 13        	ldx	$13                     ; 0x2013 <__mulsf3+0x845>
    306e: e4 15        	cpx	$15                     ; 0x2015 <__mulsf3+0x847>
    3070: d0 0a        	bne	$307c <__gtsf2+0x123>
    3072: a9 01        	lda	#$1
    3074: a6 12        	ldx	$12                     ; 0x2012 <__mulsf3+0x844>
    3076: e4 14        	cpx	$14                     ; 0x2014 <__mulsf3+0x846>
    3078: f0 02        	beq	$307c <__gtsf2+0x123>
    307a: a9 00        	lda	#$0
    307c: a2 00        	ldx	#$0
    307e: a0 00        	ldy	#$0
    3080: c9 00        	cmp	#$0
    3082: d0 02        	bne	$3086 <__gtsf2+0x12d>
    3084: a0 01        	ldy	#$1
    3086: 84 36        	sty	$36                     ; 0x2036 <__mulsf3+0x868>
    3088: a9 00        	lda	#$0
    308a: 4c c1 2f     	jmp	$2fc1 <__gtsf2+0x68>
    308d: a2 00        	ldx	#$0
    308f: 86 36        	stx	$36                     ; 0x2036 <__mulsf3+0x868>
    3091: 80 f5        	bra	$3088 <__gtsf2+0x12f>
