
andy.elf:	file format elf32-mos

SYMBOL TABLE:
00000000 l    df *ABS*	00000000 zero-bss.c
00000000 l    df *ABS*	00000000 zero-zp-bss.c
00000000 l    df *ABS*	00000000 copy-zp-data.c
00000000 l    df *ABS*	00000000 ld-temp.o
00000385 l     F .text	000001bd f256Init
00000060 l     O .zp.bss	00000007 kernelEventData
00000542 l     F .text	000000e0 graphicsReset
00000622 l     F .text	00000157 textReset
0000006d l     O .zp.bss	00000001 _MAX_X
0000006c l     O .zp.bss	00000001 _color
00000068 l     O .zp.bss	00000004 _BITMAP_BASE.0
00000067 l     O .zp.bss	00000001 kernelError
00000030 l     O .zp.data	00000030 textColors
00000fe8 l     O .bss	00000001 _col
00000fe9 l     O .bss	00000001 _row
0000077f l     F .text	00000818 f256main
00000779 g     F .text	00000006 main
00000344 g       .text	00000000 __after_main
00000330 g       .text	00000000 __do_init_stack
0000033e g       .text	00000000 __do_copy_zp_data
0000036e g     F .text	00000017 __copy_zp_data
00000338 g       .text	00000000 __do_zero_bss
00000348 g     F .text	00000013 __zero_bss
0000033b g       .text	00000000 __do_zero_zp_bss
0000035b g     F .text	00000013 __zero_zp_bss
00000f97 g     F .text	00000005 exit
00000347 g       .text	00000000 _fini
00000fc8  w    F .text	00000020 __memset
00001000  w      *ABS*	00000000 __heap_default_limit
00000fea g       .noinit	00000000 __heap_start
00000f9c  w    F .text	0000002c memcpy
00000010 g       *ABS*	00000000 __rc0
00000012 g       *ABS*	00000000 __rc2
00000014 g       *ABS*	00000000 __rc4
00000016 g       *ABS*	00000000 __rc6
00000018 g       *ABS*	00000000 __rc8
0000001a g       *ABS*	00000000 __rc10
0000001c g       *ABS*	00000000 __rc12
0000001e g       *ABS*	00000000 __rc14
00000020 g       *ABS*	00000000 __rc16
00000022 g       *ABS*	00000000 __rc18
00000024 g       *ABS*	00000000 __rc20
00000026 g       *ABS*	00000000 __rc22
00000028 g       *ABS*	00000000 __rc24
0000002a g       *ABS*	00000000 __rc26
0000002c g       *ABS*	00000000 __rc28
0000002e g       *ABS*	00000000 __rc30
0000002f g       *ABS*	00000000 __rc31
00000300 g       *ABS*	00000000 __f256_start
0000c000 g       *ABS*	00000000 __stack
0000c000 g       *ABS*	00000000 __SLOT_ADDR
0800c000 g       *ABS*	00000000 __block8_lma
00002000 g       *ABS*	00000000 __BLOCK_SIZE
0900c000 g       *ABS*	00000000 __block9_lma
0a00c000 g       *ABS*	00000000 __block10_lma
0b00c000 g       *ABS*	00000000 __block11_lma
0c00c000 g       *ABS*	00000000 __block12_lma
0d00c000 g       *ABS*	00000000 __block13_lma
0e00c000 g       *ABS*	00000000 __block14_lma
0f00c000 g       *ABS*	00000000 __block15_lma
1000c000 g       *ABS*	00000000 __block16_lma
1100c000 g       *ABS*	00000000 __block17_lma
1200c000 g       *ABS*	00000000 __block18_lma
1300c000 g       *ABS*	00000000 __block19_lma
1400c000 g       *ABS*	00000000 __block20_lma
1500c000 g       *ABS*	00000000 __block21_lma
1600c000 g       *ABS*	00000000 __block22_lma
1700c000 g       *ABS*	00000000 __block23_lma
00000fe8 g       .bss	00000000 __bss_start
00000330 g       .text	00000000 _start
0000002d g       *ABS*	00000000 __rc29
0000002b g       *ABS*	00000000 __rc27
00000029 g       *ABS*	00000000 __rc25
00000027 g       *ABS*	00000000 __rc23
00000025 g       *ABS*	00000000 __rc21
00000023 g       *ABS*	00000000 __rc19
00000021 g       *ABS*	00000000 __rc17
0000001f g       *ABS*	00000000 __rc15
0000001d g       *ABS*	00000000 __rc13
0000001b g       *ABS*	00000000 __rc11
00000019 g       *ABS*	00000000 __rc9
00000017 g       *ABS*	00000000 __rc7
00000015 g       *ABS*	00000000 __rc5
00000013 g       *ABS*	00000000 __rc3
00000011 g       *ABS*	00000000 __rc1
00000030 g       .zp.data	00000000 __zp_data_start
00000300 g       *ABS*	00000000 __zp_data_load_start
00000030 g       *ABS*	00000000 __zp_data_size
00000060 g       .zp.bss	00000000 __zp_bss_start
0000000e g       *ABS*	00000000 __zp_bss_size
00000330 g       .text	00000000 _init
00000fe8 g       .text	00000000 __init_array_start
00000fe8 g       .text	00000000 __init_array_end
00000fe8 g       .text	00000000 __fini_array_start
00000fe8 g       .text	00000000 __fini_array_end
00000fe8 g       .data	00000000 __data_start
00000fe8 g       .data	00000000 __data_end
00000fe8 g       *ABS*	00000000 __data_load_start
00000000 g       *ABS*	00000000 __data_size
00000fea g       .bss	00000000 __bss_end
00000002 g       *ABS*	00000000 __bss_size
00000fea g       .noinit	00000000 end_block8
00000fea g       .noinit	00000000 end_block9
00000fea g       .noinit	00000000 end_block10
00000fea g       .noinit	00000000 end_block11
00000fea g       .noinit	00000000 end_block12
00000fea g       .noinit	00000000 end_block13
00000fea g       .noinit	00000000 end_block14
00000fea g       .noinit	00000000 end_block15
00000fea g       .noinit	00000000 end_block16
00000fea g       .noinit	00000000 end_block17
00000fea g       .noinit	00000000 end_block18
00000fea g       .noinit	00000000 end_block19
00000fea g       .noinit	00000000 end_block20
00000fea g       .noinit	00000000 end_block21
00000fea g       .noinit	00000000 end_block22
00000fea g       .noinit	00000000 end_block23

Disassembly of section .text:

00000330 <_start>:
     330: a9 00        	lda	#$0
     332: 85 10        	sta	$10                     ; 0x2010 <end_block9+0x1026>
     334: a9 c0        	lda	#$c0
     336: 85 11        	sta	$11                     ; 0x2011 <end_block9+0x1027>

00000338 <__do_zero_bss>:
     338: 20 48 03     	jsr	$348 <__zero_bss>

0000033b <__do_zero_zp_bss>:
     33b: 20 5b 03     	jsr	$35b <__zero_zp_bss>

0000033e <__do_copy_zp_data>:
     33e: 20 6e 03     	jsr	$36e <__copy_zp_data>
     341: 20 79 07     	jsr	$779 <main>

00000344 <__after_main>:
     344: 4c 97 0f     	jmp	$f97 <exit>

00000347 <_fini>:
     347: 60           	rts

00000348 <__zero_bss>:
     348: a2 02        	ldx	#$2
     34a: a0 00        	ldy	#$0
     34c: a9 e8        	lda	#$e8
     34e: 85 12        	sta	$12                     ; 0x2012 <end_block9+0x1028>
     350: a9 0f        	lda	#$f
     352: 85 13        	sta	$13                     ; 0x2013 <end_block9+0x1029>
     354: a9 00        	lda	#$0
     356: 84 14        	sty	$14                     ; 0x2014 <end_block9+0x102a>
     358: 4c c8 0f     	jmp	$fc8 <__memset>

0000035b <__zero_zp_bss>:
     35b: a2 0e        	ldx	#$e
     35d: a0 00        	ldy	#$0
     35f: a9 60        	lda	#$60
     361: 85 12        	sta	$12                     ; 0x2012 <end_block9+0x1028>
     363: a9 00        	lda	#$0
     365: 85 13        	sta	$13                     ; 0x2013 <end_block9+0x1029>
     367: a9 00        	lda	#$0
     369: 84 14        	sty	$14                     ; 0x2014 <end_block9+0x102a>
     36b: 4c c8 0f     	jmp	$fc8 <__memset>

0000036e <__copy_zp_data>:
     36e: a9 30        	lda	#$30
     370: a2 00        	ldx	#$0
     372: a0 30        	ldy	#$30
     374: 84 12        	sty	$12                     ; 0x2012 <end_block9+0x1028>
     376: a0 00        	ldy	#$0
     378: 84 13        	sty	$13                     ; 0x2013 <end_block9+0x1029>
     37a: a0 00        	ldy	#$0
     37c: 84 14        	sty	$14                     ; 0x2014 <end_block9+0x102a>
     37e: a0 03        	ldy	#$3
     380: 84 15        	sty	$15                     ; 0x2015 <end_block9+0x102b>
     382: 4c 9c 0f     	jmp	$f9c <memcpy>

00000385 <f256Init>:
     385: 64 01        	stz	$1                      ; 0x2001 <end_block9+0x1017>
     387: a2 3f        	ldx	#$3f
     389: 8e 00 d0     	stx	$d000                   ; 0xd000 <end_block9+0xc016>
     38c: a2 b3        	ldx	#$b3
     38e: 86 00        	stx	$0                      ; 0x2000 <end_block9+0x1016>
     390: 64 08        	stz	$8                      ; 0x2008 <end_block9+0x101e>
     392: a2 01        	ldx	#$1
     394: 86 09        	stx	$9                      ; 0x2009 <end_block9+0x101f>
     396: e8           	inx
     397: 86 0a        	stx	$a                      ; 0x200a <end_block9+0x1020>
     399: e8           	inx
     39a: 86 0b        	stx	$b                      ; 0x200b <end_block9+0x1021>
     39c: e8           	inx
     39d: 86 0c        	stx	$c                      ; 0x200c <end_block9+0x1022>
     39f: e8           	inx
     3a0: 86 0d        	stx	$d                      ; 0x200d <end_block9+0x1023>
     3a2: a2 60        	ldx	#$60
     3a4: a0 00        	ldy	#$0
     3a6: 86 f0        	stx	$f0                     ; 0x20f0 <end_block9+0x1106>
     3a8: 84 f1        	sty	$f1                     ; 0x20f1 <end_block9+0x1107>
     3aa: 20 42 05     	jsr	$542 <graphicsReset>
     3ad: 20 22 06     	jsr	$622 <textReset>
     3b0: a0 01        	ldy	#$1
     3b2: 84 6d        	sty	$6d                     ; 0x206d <end_block9+0x1083>
     3b4: a2 40        	ldx	#$40
     3b6: 8e 00 de     	stx	$de00                   ; 0xde00 <end_block9+0xce16>
     3b9: 8c 01 de     	sty	$de01                   ; 0xde01 <end_block9+0xce17>
     3bc: a2 f0        	ldx	#$f0
     3be: 8e 02 de     	stx	$de02                   ; 0xde02 <end_block9+0xce18>
     3c1: 9c 03 de     	stz	$de03                   ; 0xde03 <end_block9+0xce19>
     3c4: ae 10 de     	ldx	$de10                   ; 0xde10 <end_block9+0xce26>
     3c7: 86 17        	stx	$17                     ; 0x2017 <end_block9+0x102d>
     3c9: ae 11 de     	ldx	$de11                   ; 0xde11 <end_block9+0xce27>
     3cc: 86 12        	stx	$12                     ; 0x2012 <end_block9+0x1028>
     3ce: ae 12 de     	ldx	$de12                   ; 0xde12 <end_block9+0xce28>
     3d1: 86 13        	stx	$13                     ; 0x2013 <end_block9+0x1029>
     3d3: ae 13 de     	ldx	$de13                   ; 0xde13 <end_block9+0xce29>
     3d6: 86 14        	stx	$14                     ; 0x2014 <end_block9+0x102a>
     3d8: a2 ff        	ldx	#$ff
     3da: 86 6c        	stx	$6c                     ; 0x206c <end_block9+0x1082>
     3dc: a6 12        	ldx	$12                     ; 0x2012 <end_block9+0x1028>
     3de: 86 15        	stx	$15                     ; 0x2015 <end_block9+0x102b>
     3e0: 06 15        	asl	$15                     ; 0x2015 <end_block9+0x102b>
     3e2: a5 13        	lda	$13                     ; 0x2013 <end_block9+0x1029>
     3e4: 2a           	rol
     3e5: a6 14        	ldx	$14                     ; 0x2014 <end_block9+0x102a>
     3e7: 86 16        	stx	$16                     ; 0x2016 <end_block9+0x102c>
     3e9: 26 16        	rol	$16                     ; 0x2016 <end_block9+0x102c>
     3eb: 06 15        	asl	$15                     ; 0x2015 <end_block9+0x102b>
     3ed: 2a           	rol
     3ee: 26 16        	rol	$16                     ; 0x2016 <end_block9+0x102c>
     3f0: 06 15        	asl	$15                     ; 0x2015 <end_block9+0x102b>
     3f2: 2a           	rol
     3f3: 26 16        	rol	$16                     ; 0x2016 <end_block9+0x102c>
     3f5: 85 15        	sta	$15                     ; 0x2015 <end_block9+0x102b>
     3f7: 8d 00 de     	sta	$de00                   ; 0xde00 <end_block9+0xce16>
     3fa: a5 16        	lda	$16                     ; 0x2016 <end_block9+0x102c>
     3fc: 8d 01 de     	sta	$de01                   ; 0xde01 <end_block9+0xce17>
     3ff: 9c 02 de     	stz	$de02                   ; 0xde02 <end_block9+0xce18>
     402: a2 20        	ldx	#$20
     404: 8e 03 de     	stx	$de03                   ; 0xde03 <end_block9+0xce19>
     407: ae 10 de     	ldx	$de10                   ; 0xde10 <end_block9+0xce26>
     40a: 86 16        	stx	$16                     ; 0x2016 <end_block9+0x102c>
     40c: ae 11 de     	ldx	$de11                   ; 0xde11 <end_block9+0xce27>
     40f: 86 18        	stx	$18                     ; 0x2018 <end_block9+0x102e>
     411: ac 12 de     	ldy	$de12                   ; 0xde12 <end_block9+0xce28>
     414: ae 13 de     	ldx	$de13                   ; 0xde13 <end_block9+0xce29>
     417: e4 14        	cpx	$14                     ; 0x2014 <end_block9+0x102a>
     419: d0 14        	bne	$42f <f256Init+0xaa>
     41b: c4 13        	cpy	$13                     ; 0x2013 <end_block9+0x1029>
     41d: d0 10        	bne	$42f <f256Init+0xaa>
     41f: a6 18        	ldx	$18                     ; 0x2018 <end_block9+0x102e>
     421: e4 12        	cpx	$12                     ; 0x2012 <end_block9+0x1028>
     423: d0 0a        	bne	$42f <f256Init+0xaa>
     425: a6 16        	ldx	$16                     ; 0x2016 <end_block9+0x102c>
     427: e4 17        	cpx	$17                     ; 0x2017 <end_block9+0x102d>
     429: d0 04        	bne	$42f <f256Init+0xaa>
     42b: a6 15        	ldx	$15                     ; 0x2015 <end_block9+0x102b>
     42d: 80 06        	bra	$435 <f256Init+0xb0>
     42f: a6 15        	ldx	$15                     ; 0x2015 <end_block9+0x102b>
     431: e8           	inx
     432: d0 01        	bne	$435 <f256Init+0xb0>
     434: 1a           	inc
     435: 8e 00 de     	stx	$de00                   ; 0xde00 <end_block9+0xce16>
     438: 8d 01 de     	sta	$de01                   ; 0xde01 <end_block9+0xce17>
     43b: 9c 02 de     	stz	$de02                   ; 0xde02 <end_block9+0xce18>
     43e: a2 20        	ldx	#$20
     440: 8e 03 de     	stx	$de03                   ; 0xde03 <end_block9+0xce19>
     443: ae 10 de     	ldx	$de10                   ; 0xde10 <end_block9+0xce26>
     446: 86 12        	stx	$12                     ; 0x2012 <end_block9+0x1028>
     448: ae 11 de     	ldx	$de11                   ; 0xde11 <end_block9+0xce27>
     44b: 86 13        	stx	$13                     ; 0x2013 <end_block9+0x1029>
     44d: ae 12 de     	ldx	$de12                   ; 0xde12 <end_block9+0xce28>
     450: 86 14        	stx	$14                     ; 0x2014 <end_block9+0x102a>
     452: ae 13 de     	ldx	$de13                   ; 0xde13 <end_block9+0xce29>
     455: 86 15        	stx	$15                     ; 0x2015 <end_block9+0x102b>
     457: 38           	sec
     458: a9 00        	lda	#$0
     45a: e5 12        	sbc	$12                     ; 0x2012 <end_block9+0x1028>
     45c: 85 17        	sta	$17                     ; 0x2017 <end_block9+0x102d>
     45e: a9 00        	lda	#$0
     460: e5 13        	sbc	$13                     ; 0x2013 <end_block9+0x1029>
     462: aa           	tax
     463: a9 08        	lda	#$8
     465: e5 14        	sbc	$14                     ; 0x2014 <end_block9+0x102a>
     467: 85 16        	sta	$16                     ; 0x2016 <end_block9+0x102c>
     469: a9 00        	lda	#$0
     46b: e5 15        	sbc	$15                     ; 0x2015 <end_block9+0x102b>
     46d: 86 69        	stx	$69                     ; 0x2069 <end_block9+0x107f>
     46f: a4 16        	ldy	$16                     ; 0x2016 <end_block9+0x102c>
     471: 84 6a        	sty	$6a                     ; 0x206a <end_block9+0x1080>
     473: 85 6b        	sta	$6b                     ; 0x206b <end_block9+0x1081>
     475: a5 17        	lda	$17                     ; 0x2017 <end_block9+0x102d>
     477: 38           	sec
     478: e5 12        	sbc	$12                     ; 0x2012 <end_block9+0x1028>
     47a: a8           	tay
     47b: 8a           	txa
     47c: e5 13        	sbc	$13                     ; 0x2013 <end_block9+0x1029>
     47e: 85 18        	sta	$18                     ; 0x2018 <end_block9+0x102e>
     480: a5 16        	lda	$16                     ; 0x2016 <end_block9+0x102c>
     482: e5 14        	sbc	$14                     ; 0x2014 <end_block9+0x102a>
     484: 85 15        	sta	$15                     ; 0x2015 <end_block9+0x102b>
     486: 98           	tya
     487: 84 16        	sty	$16                     ; 0x2016 <end_block9+0x102c>
     489: 38           	sec
     48a: e5 12        	sbc	$12                     ; 0x2012 <end_block9+0x1028>
     48c: 85 12        	sta	$12                     ; 0x2012 <end_block9+0x1028>
     48e: a5 18        	lda	$18                     ; 0x2018 <end_block9+0x102e>
     490: e5 13        	sbc	$13                     ; 0x2013 <end_block9+0x1029>
     492: 85 13        	sta	$13                     ; 0x2013 <end_block9+0x1029>
     494: a4 15        	ldy	$15                     ; 0x2015 <end_block9+0x102b>
     496: a5 15        	lda	$15                     ; 0x2015 <end_block9+0x102b>
     498: e5 14        	sbc	$14                     ; 0x2014 <end_block9+0x102a>
     49a: a6 17        	ldx	$17                     ; 0x2017 <end_block9+0x102d>
     49c: 86 68        	stx	$68                     ; 0x2068 <end_block9+0x107e>
     49e: 8e 01 d1     	stx	$d101                   ; 0xd101 <end_block9+0xc117>
     4a1: a6 69        	ldx	$69                     ; 0x2069 <end_block9+0x107f>
     4a3: 8e 02 d1     	stx	$d102                   ; 0xd102 <end_block9+0xc118>
     4a6: a6 6a        	ldx	$6a                     ; 0x206a <end_block9+0x1080>
     4a8: 8e 03 d1     	stx	$d103                   ; 0xd103 <end_block9+0xc119>
     4ab: a6 16        	ldx	$16                     ; 0x2016 <end_block9+0x102c>
     4ad: 8e 09 d1     	stx	$d109                   ; 0xd109 <end_block9+0xc11f>
     4b0: a6 18        	ldx	$18                     ; 0x2018 <end_block9+0x102e>
     4b2: 8e 0a d1     	stx	$d10a                   ; 0xd10a <end_block9+0xc120>
     4b5: 8c 0b d1     	sty	$d10b                   ; 0xd10b <end_block9+0xc121>
     4b8: a6 12        	ldx	$12                     ; 0x2012 <end_block9+0x1028>
     4ba: 8e 11 d1     	stx	$d111                   ; 0xd111 <end_block9+0xc127>
     4bd: a6 13        	ldx	$13                     ; 0x2013 <end_block9+0x1029>
     4bf: 8e 12 d1     	stx	$d112                   ; 0xd112 <end_block9+0xc128>
     4c2: 8d 13 d1     	sta	$d113                   ; 0xd113 <end_block9+0xc129>
     4c5: 9c 00 d1     	stz	$d100                   ; 0xd100 <end_block9+0xc116>
     4c8: 9c 08 d1     	stz	$d108                   ; 0xd108 <end_block9+0xc11e>
     4cb: 9c 10 d1     	stz	$d110                   ; 0xd110 <end_block9+0xc126>
     4ce: a2 10        	ldx	#$10
     4d0: 8e 00 d2     	stx	$d200                   ; 0xd200 <end_block9+0xc216>
     4d3: 8e 0c d2     	stx	$d20c                   ; 0xd20c <end_block9+0xc222>
     4d6: 8e 18 d2     	stx	$d218                   ; 0xd218 <end_block9+0xc22e>
     4d9: a0 d9        	ldy	#$d9
     4db: a2 40        	ldx	#$40
     4dd: 64 12        	stz	$12                     ; 0x2012 <end_block9+0x1028>
     4df: 84 13        	sty	$13                     ; 0x2013 <end_block9+0x1029>
     4e1: a9 00        	lda	#$0
     4e3: 92 12        	sta	($12)                   ; 0x2012 <end_block9+0x1028>
     4e5: ca           	dex
     4e6: 18           	clc
     4e7: a5 12        	lda	$12                     ; 0x2012 <end_block9+0x1028>
     4e9: 69 08        	adc	#$8
     4eb: 85 12        	sta	$12                     ; 0x2012 <end_block9+0x1028>
     4ed: 98           	tya
     4ee: 69 00        	adc	#$0
     4f0: a8           	tay
     4f1: 8a           	txa
     4f2: d0 eb        	bne	$4df <f256Init+0x15a>
     4f4: a2 6e        	ldx	#$6e
     4f6: a0 00        	ldy	#$0
     4f8: 86 fb        	stx	$fb                     ; 0x20fb <end_block9+0x1111>
     4fa: 84 fc        	sty	$fc                     ; 0x20fc <end_block9+0x1112>
     4fc: a2 08        	ldx	#$8
     4fe: 86 fd        	stx	$fd                     ; 0x20fd <end_block9+0x1113>
     500: a2 76        	ldx	#$76
     502: a0 00        	ldy	#$0
     504: 86 12        	stx	$12                     ; 0x2012 <end_block9+0x1028>
     506: 84 13        	sty	$13                     ; 0x2013 <end_block9+0x1029>
     508: a2 67        	ldx	#$67
     50a: 86 14        	stx	$14                     ; 0x2014 <end_block9+0x102a>
     50c: a2 00        	ldx	#$0
     50e: 86 15        	stx	$15                     ; 0x2015 <end_block9+0x102b>
     510: 20 dc ff     	jsr	$ffdc <end_block9+0xeff2>
     513: 92 12        	sta	($12)                   ; 0x2012 <end_block9+0x1028>
     515: a9 00        	lda	#$0
     517: 6a           	ror
     518: 85 14        	sta	$14                     ; 0x2014 <end_block9+0x102a>
     51a: a6 74        	ldx	$74                     ; 0x2074 <end_block9+0x108a>
     51c: a4 75        	ldy	$75                     ; 0x2075 <end_block9+0x108b>
     51e: 8e 00 de     	stx	$de00                   ; 0xde00 <end_block9+0xce16>
     521: 9c 01 de     	stz	$de01                   ; 0xde01 <end_block9+0xce17>
     524: 8c 02 de     	sty	$de02                   ; 0xde02 <end_block9+0xce18>
     527: 9c 03 de     	stz	$de03                   ; 0xde03 <end_block9+0xce19>
     52a: ae 10 de     	ldx	$de10                   ; 0xde10 <end_block9+0xce26>
     52d: ac 11 de     	ldy	$de11                   ; 0xde11 <end_block9+0xce27>
     530: ad 12 de     	lda	$de12                   ; 0xde12 <end_block9+0xce28>
     533: ad 13 de     	lda	$de13                   ; 0xde13 <end_block9+0xce29>
     536: 8e a4 d6     	stx	$d6a4                   ; 0xd6a4 <end_block9+0xc6ba>
     539: 8c a5 d6     	sty	$d6a5                   ; 0xd6a5 <end_block9+0xc6bb>
     53c: a2 03        	ldx	#$3
     53e: 8e a6 d6     	stx	$d6a6                   ; 0xd6a6 <end_block9+0xc6bc>
     541: 60           	rts

00000542 <graphicsReset>:
     542: a9 00        	lda	#$0
     544: aa           	tax
     545: 86 18        	stx	$18                     ; 0x2018 <end_block9+0x102e>
     547: a2 d0        	ldx	#$d0
     549: 86 19        	stx	$19                     ; 0x2019 <end_block9+0x102f>
     54b: aa           	tax
     54c: 86 16        	stx	$16                     ; 0x2016 <end_block9+0x102c>
     54e: a2 d4        	ldx	#$d4
     550: 86 17        	stx	$17                     ; 0x2017 <end_block9+0x102d>
     552: aa           	tax
     553: 86 14        	stx	$14                     ; 0x2014 <end_block9+0x102a>
     555: a2 d8        	ldx	#$d8
     557: 86 15        	stx	$15                     ; 0x2015 <end_block9+0x102b>
     559: aa           	tax
     55a: 86 12        	stx	$12                     ; 0x2012 <end_block9+0x1028>
     55c: a2 dc        	ldx	#$dc
     55e: 86 13        	stx	$13                     ; 0x2013 <end_block9+0x1029>
     560: a6 01        	ldx	$1                      ; 0x2001 <end_block9+0x1017>
     562: a0 01        	ldy	#$1
     564: 84 01        	sty	$1                      ; 0x2001 <end_block9+0x1017>
     566: 92 18        	sta	($18)                   ; 0x2018 <end_block9+0x102e>
     568: 91 18        	sta	($18),y                 ; 0x2018 <end_block9+0x102e>
     56a: c8           	iny
     56b: 91 18        	sta	($18),y                 ; 0x2018 <end_block9+0x102e>
     56d: c8           	iny
     56e: 85 1a        	sta	$1a                     ; 0x201a <end_block9+0x1030>
     570: a9 ff        	lda	#$ff
     572: 91 18        	sta	($18),y                 ; 0x2018 <end_block9+0x102e>
     574: 86 01        	stx	$1                      ; 0x2001 <end_block9+0x1017>
     576: a5 18        	lda	$18                     ; 0x2018 <end_block9+0x102e>
     578: 18           	clc
     579: 69 04        	adc	#$4
     57b: 85 18        	sta	$18                     ; 0x2018 <end_block9+0x102e>
     57d: a5 19        	lda	$19                     ; 0x2019 <end_block9+0x102f>
     57f: 69 00        	adc	#$0
     581: e6 1a        	inc	$1a                     ; 0x201a <end_block9+0x1030>
     583: 85 19        	sta	$19                     ; 0x2019 <end_block9+0x102f>
     585: a5 1a        	lda	$1a                     ; 0x201a <end_block9+0x1030>
     587: d0 d7        	bne	$560 <graphicsReset+0x1e>
     589: a9 00        	lda	#$0
     58b: a6 01        	ldx	$1                      ; 0x2001 <end_block9+0x1017>
     58d: a0 01        	ldy	#$1
     58f: 84 01        	sty	$1                      ; 0x2001 <end_block9+0x1017>
     591: 92 16        	sta	($16)                   ; 0x2016 <end_block9+0x102c>
     593: 91 16        	sta	($16),y                 ; 0x2016 <end_block9+0x102c>
     595: c8           	iny
     596: 91 16        	sta	($16),y                 ; 0x2016 <end_block9+0x102c>
     598: c8           	iny
     599: 85 18        	sta	$18                     ; 0x2018 <end_block9+0x102e>
     59b: a9 ff        	lda	#$ff
     59d: 91 16        	sta	($16),y                 ; 0x2016 <end_block9+0x102c>
     59f: 86 01        	stx	$1                      ; 0x2001 <end_block9+0x1017>
     5a1: a5 16        	lda	$16                     ; 0x2016 <end_block9+0x102c>
     5a3: 18           	clc
     5a4: 69 04        	adc	#$4
     5a6: 85 16        	sta	$16                     ; 0x2016 <end_block9+0x102c>
     5a8: a5 17        	lda	$17                     ; 0x2017 <end_block9+0x102d>
     5aa: 69 00        	adc	#$0
     5ac: e6 18        	inc	$18                     ; 0x2018 <end_block9+0x102e>
     5ae: 85 17        	sta	$17                     ; 0x2017 <end_block9+0x102d>
     5b0: a5 18        	lda	$18                     ; 0x2018 <end_block9+0x102e>
     5b2: d0 d7        	bne	$58b <graphicsReset+0x49>
     5b4: a9 00        	lda	#$0
     5b6: a6 01        	ldx	$1                      ; 0x2001 <end_block9+0x1017>
     5b8: a0 01        	ldy	#$1
     5ba: 84 01        	sty	$1                      ; 0x2001 <end_block9+0x1017>
     5bc: 92 14        	sta	($14)                   ; 0x2014 <end_block9+0x102a>
     5be: 91 14        	sta	($14),y                 ; 0x2014 <end_block9+0x102a>
     5c0: c8           	iny
     5c1: 91 14        	sta	($14),y                 ; 0x2014 <end_block9+0x102a>
     5c3: c8           	iny
     5c4: 85 16        	sta	$16                     ; 0x2016 <end_block9+0x102c>
     5c6: a9 ff        	lda	#$ff
     5c8: 91 14        	sta	($14),y                 ; 0x2014 <end_block9+0x102a>
     5ca: 86 01        	stx	$1                      ; 0x2001 <end_block9+0x1017>
     5cc: a5 14        	lda	$14                     ; 0x2014 <end_block9+0x102a>
     5ce: 18           	clc
     5cf: 69 04        	adc	#$4
     5d1: 85 14        	sta	$14                     ; 0x2014 <end_block9+0x102a>
     5d3: a5 15        	lda	$15                     ; 0x2015 <end_block9+0x102b>
     5d5: 69 00        	adc	#$0
     5d7: e6 16        	inc	$16                     ; 0x2016 <end_block9+0x102c>
     5d9: 85 15        	sta	$15                     ; 0x2015 <end_block9+0x102b>
     5db: a5 16        	lda	$16                     ; 0x2016 <end_block9+0x102c>
     5dd: d0 d7        	bne	$5b6 <graphicsReset+0x74>
     5df: a9 00        	lda	#$0
     5e1: a6 01        	ldx	$1                      ; 0x2001 <end_block9+0x1017>
     5e3: a0 01        	ldy	#$1
     5e5: 84 01        	sty	$1                      ; 0x2001 <end_block9+0x1017>
     5e7: 92 12        	sta	($12)                   ; 0x2012 <end_block9+0x1028>
     5e9: 91 12        	sta	($12),y                 ; 0x2012 <end_block9+0x1028>
     5eb: c8           	iny
     5ec: 91 12        	sta	($12),y                 ; 0x2012 <end_block9+0x1028>
     5ee: c8           	iny
     5ef: 85 14        	sta	$14                     ; 0x2014 <end_block9+0x102a>
     5f1: a9 ff        	lda	#$ff
     5f3: 91 12        	sta	($12),y                 ; 0x2012 <end_block9+0x1028>
     5f5: 86 01        	stx	$1                      ; 0x2001 <end_block9+0x1017>
     5f7: a5 12        	lda	$12                     ; 0x2012 <end_block9+0x1028>
     5f9: 18           	clc
     5fa: 69 04        	adc	#$4
     5fc: 85 12        	sta	$12                     ; 0x2012 <end_block9+0x1028>
     5fe: a5 13        	lda	$13                     ; 0x2013 <end_block9+0x1029>
     600: 69 00        	adc	#$0
     602: e6 14        	inc	$14                     ; 0x2014 <end_block9+0x102a>
     604: 85 13        	sta	$13                     ; 0x2013 <end_block9+0x1029>
     606: a5 14        	lda	$14                     ; 0x2014 <end_block9+0x102a>
     608: d0 d7        	bne	$5e1 <graphicsReset+0x9f>
     60a: ad 02 d0     	lda	$d002                   ; 0xd002 <end_block9+0xc018>
     60d: 29 f0        	and	#$f0
     60f: 8d 02 d0     	sta	$d002                   ; 0xd002 <end_block9+0xc018>
     612: ad 02 d0     	lda	$d002                   ; 0xd002 <end_block9+0xc018>
     615: 29 0f        	and	#$f
     617: 09 10        	ora	#$10
     619: 8d 02 d0     	sta	$d002                   ; 0xd002 <end_block9+0xc018>
     61c: a2 02        	ldx	#$2
     61e: 8e 03 d0     	stx	$d003                   ; 0xd003 <end_block9+0xc019>
     621: 60           	rts

00000622 <textReset>:
     622: 64 14        	stz	$14                     ; 0x2014 <end_block9+0x102a>
     624: a2 00        	ldx	#$0
     626: 86 12        	stx	$12                     ; 0x2012 <end_block9+0x1028>
     628: a2 c0        	ldx	#$c0
     62a: 86 13        	stx	$13                     ; 0x2013 <end_block9+0x1029>
     62c: ad 01 d0     	lda	$d001                   ; 0xd001 <end_block9+0xc017>
     62f: 29 f9        	and	#$f9
     631: 09 04        	ora	#$4
     633: 8d 01 d0     	sta	$d001                   ; 0xd001 <end_block9+0xc017>
     636: 9c 10 d0     	stz	$d010                   ; 0xd010 <end_block9+0xc026>
     639: a2 00        	ldx	#$0
     63b: 64 15        	stz	$15                     ; 0x2015 <end_block9+0x102b>
     63d: 86 18        	stx	$18                     ; 0x2018 <end_block9+0x102e>
     63f: a4 18        	ldy	$18                     ; 0x2018 <end_block9+0x102e>
     641: b6 30        	ldx	$30,y                   ; 0x2030 <end_block9+0x1046>
     643: 86 19        	stx	$19                     ; 0x2019 <end_block9+0x102f>
     645: b6 31        	ldx	$31,y                   ; 0x2031 <end_block9+0x1047>
     647: 86 1a        	stx	$1a                     ; 0x201a <end_block9+0x1030>
     649: b6 32        	ldx	$32,y                   ; 0x2032 <end_block9+0x1048>
     64b: 86 1b        	stx	$1b                     ; 0x201b <end_block9+0x1031>
     64d: a6 15        	ldx	$15                     ; 0x2015 <end_block9+0x102b>
     64f: 8e 00 de     	stx	$de00                   ; 0xde00 <end_block9+0xce16>
     652: 86 17        	stx	$17                     ; 0x2017 <end_block9+0x102d>
     654: 9c 01 de     	stz	$de01                   ; 0xde01 <end_block9+0xce17>
     657: a2 04        	ldx	#$4
     659: 8e 02 de     	stx	$de02                   ; 0xde02 <end_block9+0xce18>
     65c: 9c 03 de     	stz	$de03                   ; 0xde03 <end_block9+0xce19>
     65f: ad 10 de     	lda	$de10                   ; 0xde10 <end_block9+0xce26>
     662: ac 11 de     	ldy	$de11                   ; 0xde11 <end_block9+0xce27>
     665: 84 15        	sty	$15                     ; 0x2015 <end_block9+0x102b>
     667: ac 12 de     	ldy	$de12                   ; 0xde12 <end_block9+0xce28>
     66a: ac 13 de     	ldy	$de13                   ; 0xde13 <end_block9+0xce29>
     66d: 18           	clc
     66e: 65 14        	adc	$14                     ; 0x2014 <end_block9+0x102a>
     670: 85 16        	sta	$16                     ; 0x2016 <end_block9+0x102c>
     672: a6 17        	ldx	$17                     ; 0x2017 <end_block9+0x102d>
     674: a9 d8        	lda	#$d8
     676: 65 15        	adc	$15                     ; 0x2015 <end_block9+0x102b>
     678: 85 17        	sta	$17                     ; 0x2017 <end_block9+0x102d>
     67a: a5 1b        	lda	$1b                     ; 0x201b <end_block9+0x1031>
     67c: 92 16        	sta	($16)                   ; 0x2016 <end_block9+0x102c>
     67e: a0 01        	ldy	#$1
     680: a5 1a        	lda	$1a                     ; 0x201a <end_block9+0x1030>
     682: 91 16        	sta	($16),y                 ; 0x2016 <end_block9+0x102c>
     684: c8           	iny
     685: a5 19        	lda	$19                     ; 0x2019 <end_block9+0x102f>
     687: 91 16        	sta	($16),y                 ; 0x2016 <end_block9+0x102c>
     689: c8           	iny
     68a: a9 ff        	lda	#$ff
     68c: 91 16        	sta	($16),y                 ; 0x2016 <end_block9+0x102c>
     68e: 8e 00 de     	stx	$de00                   ; 0xde00 <end_block9+0xce16>
     691: 9c 01 de     	stz	$de01                   ; 0xde01 <end_block9+0xce17>
     694: c8           	iny
     695: 8c 02 de     	sty	$de02                   ; 0xde02 <end_block9+0xce18>
     698: 9c 03 de     	stz	$de03                   ; 0xde03 <end_block9+0xce19>
     69b: ad 10 de     	lda	$de10                   ; 0xde10 <end_block9+0xce26>
     69e: 85 15        	sta	$15                     ; 0x2015 <end_block9+0x102b>
     6a0: ad 11 de     	lda	$de11                   ; 0xde11 <end_block9+0xce27>
     6a3: 85 16        	sta	$16                     ; 0x2016 <end_block9+0x102c>
     6a5: a9 40        	lda	#$40
     6a7: 18           	clc
     6a8: 65 15        	adc	$15                     ; 0x2015 <end_block9+0x102b>
     6aa: a8           	tay
     6ab: a9 d8        	lda	#$d8
     6ad: 65 16        	adc	$16                     ; 0x2016 <end_block9+0x102c>
     6af: 85 17        	sta	$17                     ; 0x2017 <end_block9+0x102d>
     6b1: 84 16        	sty	$16                     ; 0x2016 <end_block9+0x102c>
     6b3: ad 12 de     	lda	$de12                   ; 0xde12 <end_block9+0xce28>
     6b6: ad 13 de     	lda	$de13                   ; 0xde13 <end_block9+0xce29>
     6b9: a5 1b        	lda	$1b                     ; 0x201b <end_block9+0x1031>
     6bb: 92 16        	sta	($16)                   ; 0x2016 <end_block9+0x102c>
     6bd: a5 1a        	lda	$1a                     ; 0x201a <end_block9+0x1030>
     6bf: a0 01        	ldy	#$1
     6c1: 91 16        	sta	($16),y                 ; 0x2016 <end_block9+0x102c>
     6c3: a5 19        	lda	$19                     ; 0x2019 <end_block9+0x102f>
     6c5: c8           	iny
     6c6: 91 16        	sta	($16),y                 ; 0x2016 <end_block9+0x102c>
     6c8: c8           	iny
     6c9: a9 ff        	lda	#$ff
     6cb: 91 16        	sta	($16),y                 ; 0x2016 <end_block9+0x102c>
     6cd: e8           	inx
     6ce: 86 15        	stx	$15                     ; 0x2015 <end_block9+0x102b>
     6d0: 18           	clc
     6d1: a5 18        	lda	$18                     ; 0x2018 <end_block9+0x102e>
     6d3: 69 03        	adc	#$3
     6d5: aa           	tax
     6d6: c9 30        	cmp	#$30
     6d8: f0 03        	beq	$6dd <textReset+0xbb>
     6da: 4c 3d 06     	jmp	$63d <textReset+0x1b>
     6dd: a6 01        	ldx	$1                      ; 0x2001 <end_block9+0x1017>
     6df: 86 18        	stx	$18                     ; 0x2018 <end_block9+0x102e>
     6e1: a2 50        	ldx	#$50
     6e3: 8e 00 de     	stx	$de00                   ; 0xde00 <end_block9+0xce16>
     6e6: 9c 01 de     	stz	$de01                   ; 0xde01 <end_block9+0xce17>
     6e9: a2 1e        	ldx	#$1e
     6eb: 8e 02 de     	stx	$de02                   ; 0xde02 <end_block9+0xce18>
     6ee: 9c 03 de     	stz	$de03                   ; 0xde03 <end_block9+0xce19>
     6f1: ae 10 de     	ldx	$de10                   ; 0xde10 <end_block9+0xce26>
     6f4: ac 11 de     	ldy	$de11                   ; 0xde11 <end_block9+0xce27>
     6f7: ad 12 de     	lda	$de12                   ; 0xde12 <end_block9+0xce28>
     6fa: ad 13 de     	lda	$de13                   ; 0xde13 <end_block9+0xce29>
     6fd: a9 02        	lda	#$2
     6ff: 85 01        	sta	$1                      ; 0x2001 <end_block9+0x1017>
     701: e0 01        	cpx	#$1
     703: 98           	tya
     704: e9 00        	sbc	#$0
     706: 50 02        	bvc	$70a <textReset+0xe8>
     708: 49 80        	eor	#$80
     70a: c9 00        	cmp	#$0
     70c: 30 50        	bmi	$75e <textReset+0x13c>
     70e: a9 20        	lda	#$20
     710: 86 19        	stx	$19                     ; 0x2019 <end_block9+0x102f>
     712: 86 14        	stx	$14                     ; 0x2014 <end_block9+0x102a>
     714: 84 15        	sty	$15                     ; 0x2015 <end_block9+0x102b>
     716: a2 00        	ldx	#$0
     718: 86 16        	stx	$16                     ; 0x2016 <end_block9+0x102c>
     71a: a2 c0        	ldx	#$c0
     71c: 86 17        	stx	$17                     ; 0x2017 <end_block9+0x102d>
     71e: 80 04        	bra	$724 <textReset+0x102>
     720: a6 15        	ldx	$15                     ; 0x2015 <end_block9+0x102b>
     722: f0 14        	beq	$738 <textReset+0x116>
     724: 92 16        	sta	($16)                   ; 0x2016 <end_block9+0x102c>
     726: e6 16        	inc	$16                     ; 0x2016 <end_block9+0x102c>
     728: d0 02        	bne	$72c <textReset+0x10a>
     72a: e6 17        	inc	$17                     ; 0x2017 <end_block9+0x102d>
     72c: a2 ff        	ldx	#$ff
     72e: c6 14        	dec	$14                     ; 0x2014 <end_block9+0x102a>
     730: e4 14        	cpx	$14                     ; 0x2014 <end_block9+0x102a>
     732: d0 ec        	bne	$720 <textReset+0xfe>
     734: c6 15        	dec	$15                     ; 0x2015 <end_block9+0x102b>
     736: 80 e8        	bra	$720 <textReset+0xfe>
     738: a6 14        	ldx	$14                     ; 0x2014 <end_block9+0x102a>
     73a: d0 e8        	bne	$724 <textReset+0x102>
     73c: a2 03        	ldx	#$3
     73e: 86 01        	stx	$1                      ; 0x2001 <end_block9+0x1017>
     740: a6 19        	ldx	$19                     ; 0x2019 <end_block9+0x102f>
     742: 80 03        	bra	$747 <textReset+0x125>
     744: 98           	tya
     745: f0 12        	beq	$759 <textReset+0x137>
     747: a9 f0        	lda	#$f0
     749: 92 12        	sta	($12)                   ; 0x2012 <end_block9+0x1028>
     74b: e6 12        	inc	$12                     ; 0x2012 <end_block9+0x1028>
     74d: d0 02        	bne	$751 <textReset+0x12f>
     74f: e6 13        	inc	$13                     ; 0x2013 <end_block9+0x1029>
     751: ca           	dex
     752: e0 ff        	cpx	#$ff
     754: d0 ee        	bne	$744 <textReset+0x122>
     756: 88           	dey
     757: 80 eb        	bra	$744 <textReset+0x122>
     759: 8a           	txa
     75a: d0 eb        	bne	$747 <textReset+0x125>
     75c: 80 04        	bra	$762 <textReset+0x140>
     75e: a2 03        	ldx	#$3
     760: 86 01        	stx	$1                      ; 0x2001 <end_block9+0x1017>
     762: a6 18        	ldx	$18                     ; 0x2018 <end_block9+0x102e>
     764: 86 01        	stx	$1                      ; 0x2001 <end_block9+0x1017>
     766: 9c e8 0f     	stz	$fe8                    ; 0xfe8 <_col>
     769: 9c 14 d0     	stz	$d014                   ; 0xd014 <end_block9+0xc02a>
     76c: 9c 15 d0     	stz	$d015                   ; 0xd015 <end_block9+0xc02b>
     76f: 9c e9 0f     	stz	$fe9                    ; 0xfe9 <_row>
     772: 9c 16 d0     	stz	$d016                   ; 0xd016 <end_block9+0xc02c>
     775: 9c 17 d0     	stz	$d017                   ; 0xd017 <end_block9+0xc02d>
     778: 60           	rts

00000779 <main>:
     779: 20 85 03     	jsr	$385 <f256Init>
     77c: 20 7f 07     	jsr	$77f <f256main>

0000077f <f256main>:
     77f: 18           	clc
     780: a5 10        	lda	$10                     ; 0x2010 <end_block9+0x1026>
     782: 69 f2        	adc	#$f2
     784: 85 10        	sta	$10                     ; 0x2010 <end_block9+0x1026>
     786: a5 11        	lda	$11                     ; 0x2011 <end_block9+0x1027>
     788: 69 ff        	adc	#$ff
     78a: 85 11        	sta	$11                     ; 0x2011 <end_block9+0x1027>
     78c: 20 22 06     	jsr	$622 <textReset>
     78f: 20 42 05     	jsr	$542 <graphicsReset>
     792: a2 01        	ldx	#$1
     794: 86 6d        	stx	$6d                     ; 0x206d <end_block9+0x1083>
     796: a0 40        	ldy	#$40
     798: 8c 00 de     	sty	$de00                   ; 0xde00 <end_block9+0xce16>
     79b: 8e 01 de     	stx	$de01                   ; 0xde01 <end_block9+0xce17>
     79e: a2 f0        	ldx	#$f0
     7a0: 8e 02 de     	stx	$de02                   ; 0xde02 <end_block9+0xce18>
     7a3: 9c 03 de     	stz	$de03                   ; 0xde03 <end_block9+0xce19>
     7a6: ae 10 de     	ldx	$de10                   ; 0xde10 <end_block9+0xce26>
     7a9: 86 17        	stx	$17                     ; 0x2017 <end_block9+0x102d>
     7ab: ae 11 de     	ldx	$de11                   ; 0xde11 <end_block9+0xce27>
     7ae: 86 12        	stx	$12                     ; 0x2012 <end_block9+0x1028>
     7b0: ae 12 de     	ldx	$de12                   ; 0xde12 <end_block9+0xce28>
     7b3: 86 13        	stx	$13                     ; 0x2013 <end_block9+0x1029>
     7b5: ae 13 de     	ldx	$de13                   ; 0xde13 <end_block9+0xce29>
     7b8: 86 14        	stx	$14                     ; 0x2014 <end_block9+0x102a>
     7ba: a2 ff        	ldx	#$ff
     7bc: 86 6c        	stx	$6c                     ; 0x206c <end_block9+0x1082>
     7be: a6 12        	ldx	$12                     ; 0x2012 <end_block9+0x1028>
     7c0: 86 15        	stx	$15                     ; 0x2015 <end_block9+0x102b>
     7c2: 06 15        	asl	$15                     ; 0x2015 <end_block9+0x102b>
     7c4: a5 13        	lda	$13                     ; 0x2013 <end_block9+0x1029>
     7c6: 2a           	rol
     7c7: a6 14        	ldx	$14                     ; 0x2014 <end_block9+0x102a>
     7c9: 86 16        	stx	$16                     ; 0x2016 <end_block9+0x102c>
     7cb: 26 16        	rol	$16                     ; 0x2016 <end_block9+0x102c>
     7cd: 06 15        	asl	$15                     ; 0x2015 <end_block9+0x102b>
     7cf: 2a           	rol
     7d0: 26 16        	rol	$16                     ; 0x2016 <end_block9+0x102c>
     7d2: 06 15        	asl	$15                     ; 0x2015 <end_block9+0x102b>
     7d4: 2a           	rol
     7d5: 26 16        	rol	$16                     ; 0x2016 <end_block9+0x102c>
     7d7: 85 15        	sta	$15                     ; 0x2015 <end_block9+0x102b>
     7d9: 8d 00 de     	sta	$de00                   ; 0xde00 <end_block9+0xce16>
     7dc: a5 16        	lda	$16                     ; 0x2016 <end_block9+0x102c>
     7de: 8d 01 de     	sta	$de01                   ; 0xde01 <end_block9+0xce17>
     7e1: 9c 02 de     	stz	$de02                   ; 0xde02 <end_block9+0xce18>
     7e4: a2 20        	ldx	#$20
     7e6: 8e 03 de     	stx	$de03                   ; 0xde03 <end_block9+0xce19>
     7e9: ae 10 de     	ldx	$de10                   ; 0xde10 <end_block9+0xce26>
     7ec: 86 16        	stx	$16                     ; 0x2016 <end_block9+0x102c>
     7ee: ae 11 de     	ldx	$de11                   ; 0xde11 <end_block9+0xce27>
     7f1: 86 18        	stx	$18                     ; 0x2018 <end_block9+0x102e>
     7f3: ac 12 de     	ldy	$de12                   ; 0xde12 <end_block9+0xce28>
     7f6: ae 13 de     	ldx	$de13                   ; 0xde13 <end_block9+0xce29>
     7f9: e4 14        	cpx	$14                     ; 0x2014 <end_block9+0x102a>
     7fb: d0 14        	bne	$811 <f256main+0x92>
     7fd: c4 13        	cpy	$13                     ; 0x2013 <end_block9+0x1029>
     7ff: d0 10        	bne	$811 <f256main+0x92>
     801: a6 18        	ldx	$18                     ; 0x2018 <end_block9+0x102e>
     803: e4 12        	cpx	$12                     ; 0x2012 <end_block9+0x1028>
     805: d0 0a        	bne	$811 <f256main+0x92>
     807: a6 16        	ldx	$16                     ; 0x2016 <end_block9+0x102c>
     809: e4 17        	cpx	$17                     ; 0x2017 <end_block9+0x102d>
     80b: d0 04        	bne	$811 <f256main+0x92>
     80d: a6 15        	ldx	$15                     ; 0x2015 <end_block9+0x102b>
     80f: 80 06        	bra	$817 <f256main+0x98>
     811: a6 15        	ldx	$15                     ; 0x2015 <end_block9+0x102b>
     813: e8           	inx
     814: d0 01        	bne	$817 <f256main+0x98>
     816: 1a           	inc
     817: 8e 00 de     	stx	$de00                   ; 0xde00 <end_block9+0xce16>
     81a: 8d 01 de     	sta	$de01                   ; 0xde01 <end_block9+0xce17>
     81d: 9c 02 de     	stz	$de02                   ; 0xde02 <end_block9+0xce18>
     820: a2 20        	ldx	#$20
     822: 8e 03 de     	stx	$de03                   ; 0xde03 <end_block9+0xce19>
     825: ae 10 de     	ldx	$de10                   ; 0xde10 <end_block9+0xce26>
     828: 86 12        	stx	$12                     ; 0x2012 <end_block9+0x1028>
     82a: ae 11 de     	ldx	$de11                   ; 0xde11 <end_block9+0xce27>
     82d: 86 13        	stx	$13                     ; 0x2013 <end_block9+0x1029>
     82f: ae 12 de     	ldx	$de12                   ; 0xde12 <end_block9+0xce28>
     832: 86 14        	stx	$14                     ; 0x2014 <end_block9+0x102a>
     834: ae 13 de     	ldx	$de13                   ; 0xde13 <end_block9+0xce29>
     837: 86 15        	stx	$15                     ; 0x2015 <end_block9+0x102b>
     839: a9 00        	lda	#$0
     83b: 38           	sec
     83c: e5 12        	sbc	$12                     ; 0x2012 <end_block9+0x1028>
     83e: 85 17        	sta	$17                     ; 0x2017 <end_block9+0x102d>
     840: a9 00        	lda	#$0
     842: e5 13        	sbc	$13                     ; 0x2013 <end_block9+0x1029>
     844: aa           	tax
     845: a9 08        	lda	#$8
     847: e5 14        	sbc	$14                     ; 0x2014 <end_block9+0x102a>
     849: 85 16        	sta	$16                     ; 0x2016 <end_block9+0x102c>
     84b: a9 00        	lda	#$0
     84d: e5 15        	sbc	$15                     ; 0x2015 <end_block9+0x102b>
     84f: 86 69        	stx	$69                     ; 0x2069 <end_block9+0x107f>
     851: a4 16        	ldy	$16                     ; 0x2016 <end_block9+0x102c>
     853: 84 6a        	sty	$6a                     ; 0x206a <end_block9+0x1080>
     855: 85 6b        	sta	$6b                     ; 0x206b <end_block9+0x1081>
     857: a5 17        	lda	$17                     ; 0x2017 <end_block9+0x102d>
     859: 38           	sec
     85a: e5 12        	sbc	$12                     ; 0x2012 <end_block9+0x1028>
     85c: a8           	tay
     85d: 8a           	txa
     85e: e5 13        	sbc	$13                     ; 0x2013 <end_block9+0x1029>
     860: 85 1a        	sta	$1a                     ; 0x201a <end_block9+0x1030>
     862: a5 16        	lda	$16                     ; 0x2016 <end_block9+0x102c>
     864: e5 14        	sbc	$14                     ; 0x2014 <end_block9+0x102a>
     866: 85 15        	sta	$15                     ; 0x2015 <end_block9+0x102b>
     868: 98           	tya
     869: 84 19        	sty	$19                     ; 0x2019 <end_block9+0x102f>
     86b: 38           	sec
     86c: e5 12        	sbc	$12                     ; 0x2012 <end_block9+0x1028>
     86e: 85 16        	sta	$16                     ; 0x2016 <end_block9+0x102c>
     870: a5 1a        	lda	$1a                     ; 0x201a <end_block9+0x1030>
     872: e5 13        	sbc	$13                     ; 0x2013 <end_block9+0x1029>
     874: 85 18        	sta	$18                     ; 0x2018 <end_block9+0x102e>
     876: a4 15        	ldy	$15                     ; 0x2015 <end_block9+0x102b>
     878: a5 15        	lda	$15                     ; 0x2015 <end_block9+0x102b>
     87a: e5 14        	sbc	$14                     ; 0x2014 <end_block9+0x102a>
     87c: a6 17        	ldx	$17                     ; 0x2017 <end_block9+0x102d>
     87e: 86 68        	stx	$68                     ; 0x2068 <end_block9+0x107e>
     880: 8e 01 d1     	stx	$d101                   ; 0xd101 <end_block9+0xc117>
     883: a6 69        	ldx	$69                     ; 0x2069 <end_block9+0x107f>
     885: 8e 02 d1     	stx	$d102                   ; 0xd102 <end_block9+0xc118>
     888: a6 6a        	ldx	$6a                     ; 0x206a <end_block9+0x1080>
     88a: 8e 03 d1     	stx	$d103                   ; 0xd103 <end_block9+0xc119>
     88d: a6 19        	ldx	$19                     ; 0x2019 <end_block9+0x102f>
     88f: 8e 09 d1     	stx	$d109                   ; 0xd109 <end_block9+0xc11f>
     892: a2 00        	ldx	#$0
     894: 86 12        	stx	$12                     ; 0x2012 <end_block9+0x1028>
     896: a2 e0        	ldx	#$e0
     898: 86 13        	stx	$13                     ; 0x2013 <end_block9+0x1029>
     89a: a6 1a        	ldx	$1a                     ; 0x201a <end_block9+0x1030>
     89c: 8e 0a d1     	stx	$d10a                   ; 0xd10a <end_block9+0xc120>
     89f: 64 1a        	stz	$1a                     ; 0x201a <end_block9+0x1030>
     8a1: 8c 0b d1     	sty	$d10b                   ; 0xd10b <end_block9+0xc121>
     8a4: a6 16        	ldx	$16                     ; 0x2016 <end_block9+0x102c>
     8a6: 8e 11 d1     	stx	$d111                   ; 0xd111 <end_block9+0xc127>
     8a9: a6 18        	ldx	$18                     ; 0x2018 <end_block9+0x102e>
     8ab: 8e 12 d1     	stx	$d112                   ; 0xd112 <end_block9+0xc128>
     8ae: 8d 13 d1     	sta	$d113                   ; 0xd113 <end_block9+0xc129>
     8b1: 9c 00 d1     	stz	$d100                   ; 0xd100 <end_block9+0xc116>
     8b4: 9c 08 d1     	stz	$d108                   ; 0xd108 <end_block9+0xc11e>
     8b7: 9c 10 d1     	stz	$d110                   ; 0xd110 <end_block9+0xc126>
     8ba: 18           	clc
     8bb: a5 10        	lda	$10                     ; 0x2010 <end_block9+0x1026>
     8bd: 69 02        	adc	#$2
     8bf: 85 14        	sta	$14                     ; 0x2014 <end_block9+0x102a>
     8c1: a5 11        	lda	$11                     ; 0x2011 <end_block9+0x1027>
     8c3: 69 00        	adc	#$0
     8c5: 85 15        	sta	$15                     ; 0x2015 <end_block9+0x102b>
     8c7: a6 14        	ldx	$14                     ; 0x2014 <end_block9+0x102a>
     8c9: 86 fb        	stx	$fb                     ; 0x20fb <end_block9+0x1111>
     8cb: 85 fc        	sta	$fc                     ; 0x20fc <end_block9+0x1112>
     8cd: a2 08        	ldx	#$8
     8cf: 86 fd        	stx	$fd                     ; 0x20fd <end_block9+0x1113>
     8d1: 18           	clc
     8d2: a5 10        	lda	$10                     ; 0x2010 <end_block9+0x1026>
     8d4: 69 01        	adc	#$1
     8d6: 85 16        	sta	$16                     ; 0x2016 <end_block9+0x102c>
     8d8: a5 11        	lda	$11                     ; 0x2011 <end_block9+0x1027>
     8da: 69 00        	adc	#$0
     8dc: 85 17        	sta	$17                     ; 0x2017 <end_block9+0x102d>
     8de: a2 67        	ldx	#$67
     8e0: 86 18        	stx	$18                     ; 0x2018 <end_block9+0x102e>
     8e2: a2 00        	ldx	#$0
     8e4: 86 19        	stx	$19                     ; 0x2019 <end_block9+0x102f>
     8e6: a0 06        	ldy	#$6
     8e8: 20 dc ff     	jsr	$ffdc <end_block9+0xeff2>
     8eb: 92 16        	sta	($16)                   ; 0x2016 <end_block9+0x102c>
     8ed: a9 00        	lda	#$0
     8ef: 6a           	ror
     8f0: 85 18        	sta	$18                     ; 0x2018 <end_block9+0x102e>
     8f2: b1 14        	lda	($14),y                 ; 0x2014 <end_block9+0x102a>
     8f4: 85 16        	sta	$16                     ; 0x2016 <end_block9+0x102c>
     8f6: c8           	iny
     8f7: b1 14        	lda	($14),y                 ; 0x2014 <end_block9+0x102a>
     8f9: a6 16        	ldx	$16                     ; 0x2016 <end_block9+0x102c>
     8fb: 8e 00 de     	stx	$de00                   ; 0xde00 <end_block9+0xce16>
     8fe: 9c 01 de     	stz	$de01                   ; 0xde01 <end_block9+0xce17>
     901: 8d 02 de     	sta	$de02                   ; 0xde02 <end_block9+0xce18>
     904: 9c 03 de     	stz	$de03                   ; 0xde03 <end_block9+0xce19>
     907: ae 10 de     	ldx	$de10                   ; 0xde10 <end_block9+0xce26>
     90a: ac 11 de     	ldy	$de11                   ; 0xde11 <end_block9+0xce27>
     90d: ad 12 de     	lda	$de12                   ; 0xde12 <end_block9+0xce28>
     910: ad 13 de     	lda	$de13                   ; 0xde13 <end_block9+0xce29>
     913: 8e a4 d6     	stx	$d6a4                   ; 0xd6a4 <end_block9+0xc6ba>
     916: 8c a5 d6     	sty	$d6a5                   ; 0xd6a5 <end_block9+0xc6bb>
     919: a2 03        	ldx	#$3
     91b: 8e a6 d6     	stx	$d6a6                   ; 0xd6a6 <end_block9+0xc6bc>
     91e: a2 30        	ldx	#$30
     920: 86 14        	stx	$14                     ; 0x2014 <end_block9+0x102a>
     922: a2 00        	ldx	#$0
     924: 86 15        	stx	$15                     ; 0x2015 <end_block9+0x102b>
     926: b2 14        	lda	($14)                   ; 0x2014 <end_block9+0x102a>
     928: 85 17        	sta	$17                     ; 0x2017 <end_block9+0x102d>
     92a: a0 01        	ldy	#$1
     92c: b1 14        	lda	($14),y                 ; 0x2014 <end_block9+0x102a>
     92e: 85 16        	sta	$16                     ; 0x2016 <end_block9+0x102c>
     930: c8           	iny
     931: b1 14        	lda	($14),y                 ; 0x2014 <end_block9+0x102a>
     933: a6 01        	ldx	$1                      ; 0x2001 <end_block9+0x1017>
     935: 88           	dey
     936: 84 01        	sty	$1                      ; 0x2001 <end_block9+0x1017>
     938: a4 1a        	ldy	$1a                     ; 0x201a <end_block9+0x1030>
     93a: 99 00 d0     	sta	$d000,y                 ; 0xd000 <end_block9+0xc016>
     93d: a5 16        	lda	$16                     ; 0x2016 <end_block9+0x102c>
     93f: 99 01 d0     	sta	$d001,y                 ; 0xd001 <end_block9+0xc017>
     942: a5 17        	lda	$17                     ; 0x2017 <end_block9+0x102d>
     944: 99 02 d0     	sta	$d002,y                 ; 0xd002 <end_block9+0xc018>
     947: a9 ff        	lda	#$ff
     949: 99 03 d0     	sta	$d003,y                 ; 0xd003 <end_block9+0xc019>
     94c: 86 01        	stx	$1                      ; 0x2001 <end_block9+0x1017>
     94e: 18           	clc
     94f: a5 1a        	lda	$1a                     ; 0x201a <end_block9+0x1030>
     951: 69 04        	adc	#$4
     953: aa           	tax
     954: a5 14        	lda	$14                     ; 0x2014 <end_block9+0x102a>
     956: 18           	clc
     957: 69 03        	adc	#$3
     959: 85 14        	sta	$14                     ; 0x2014 <end_block9+0x102a>
     95b: a5 15        	lda	$15                     ; 0x2015 <end_block9+0x102b>
     95d: 69 00        	adc	#$0
     95f: 85 15        	sta	$15                     ; 0x2015 <end_block9+0x102b>
     961: 86 1a        	stx	$1a                     ; 0x201a <end_block9+0x1030>
     963: e0 40        	cpx	#$40
     965: d0 bf        	bne	$926 <f256main+0x1a7>
     967: a0 00        	ldy	#$0
     969: 64 6c        	stz	$6c                     ; 0x206c <end_block9+0x1082>
     96b: a6 69        	ldx	$69                     ; 0x2069 <end_block9+0x107f>
     96d: 86 14        	stx	$14                     ; 0x2014 <end_block9+0x102a>
     96f: a5 6a        	lda	$6a                     ; 0x206a <end_block9+0x1080>
     971: 06 14        	asl	$14                     ; 0x2014 <end_block9+0x102a>
     973: 2a           	rol
     974: 06 14        	asl	$14                     ; 0x2014 <end_block9+0x102a>
     976: 2a           	rol
     977: 06 14        	asl	$14                     ; 0x2014 <end_block9+0x102a>
     979: 2a           	rol
     97a: a6 0f        	ldx	$f                      ; 0x200f <end_block9+0x1025>
     97c: 86 17        	stx	$17                     ; 0x2017 <end_block9+0x102d>
     97e: 78           	sei
     97f: 85 18        	sta	$18                     ; 0x2018 <end_block9+0x102e>
     981: 85 0f        	sta	$f                      ; 0x200f <end_block9+0x1025>
     983: a5 6c        	lda	$6c                     ; 0x206c <end_block9+0x1082>
     985: a2 20        	ldx	#$20
     987: 5a           	phy
     988: a0 00        	ldy	#$0
     98a: 84 14        	sty	$14                     ; 0x2014 <end_block9+0x102a>
     98c: a0 e0        	ldy	#$e0
     98e: 84 15        	sty	$15                     ; 0x2015 <end_block9+0x102b>
     990: 7a           	ply
     991: 86 16        	stx	$16                     ; 0x2016 <end_block9+0x102c>
     993: 80 04        	bra	$999 <f256main+0x21a>
     995: a6 16        	ldx	$16                     ; 0x2016 <end_block9+0x102c>
     997: f0 11        	beq	$9aa <f256main+0x22b>
     999: 92 14        	sta	($14)                   ; 0x2014 <end_block9+0x102a>
     99b: 88           	dey
     99c: c0 ff        	cpy	#$ff
     99e: d0 02        	bne	$9a2 <f256main+0x223>
     9a0: c6 16        	dec	$16                     ; 0x2016 <end_block9+0x102c>
     9a2: e6 14        	inc	$14                     ; 0x2014 <end_block9+0x102a>
     9a4: d0 ef        	bne	$995 <f256main+0x216>
     9a6: e6 15        	inc	$15                     ; 0x2015 <end_block9+0x102b>
     9a8: 80 eb        	bra	$995 <f256main+0x216>
     9aa: c0 00        	cpy	#$0
     9ac: d0 eb        	bne	$999 <f256main+0x21a>
     9ae: a6 18        	ldx	$18                     ; 0x2018 <end_block9+0x102e>
     9b0: e8           	inx
     9b1: 86 0f        	stx	$f                      ; 0x200f <end_block9+0x1025>
     9b3: a5 6c        	lda	$6c                     ; 0x206c <end_block9+0x1082>
     9b5: a2 20        	ldx	#$20
     9b7: a0 00        	ldy	#$0
     9b9: 48           	pha
     9ba: 98           	tya
     9bb: 85 14        	sta	$14                     ; 0x2014 <end_block9+0x102a>
     9bd: a9 e0        	lda	#$e0
     9bf: 85 15        	sta	$15                     ; 0x2015 <end_block9+0x102b>
     9c1: 68           	pla
     9c2: 86 16        	stx	$16                     ; 0x2016 <end_block9+0x102c>
     9c4: 80 04        	bra	$9ca <f256main+0x24b>
     9c6: a6 16        	ldx	$16                     ; 0x2016 <end_block9+0x102c>
     9c8: f0 11        	beq	$9db <f256main+0x25c>
     9ca: 92 14        	sta	($14)                   ; 0x2014 <end_block9+0x102a>
     9cc: 88           	dey
     9cd: c0 ff        	cpy	#$ff
     9cf: d0 02        	bne	$9d3 <f256main+0x254>
     9d1: c6 16        	dec	$16                     ; 0x2016 <end_block9+0x102c>
     9d3: e6 14        	inc	$14                     ; 0x2014 <end_block9+0x102a>
     9d5: d0 ef        	bne	$9c6 <f256main+0x247>
     9d7: e6 15        	inc	$15                     ; 0x2015 <end_block9+0x102b>
     9d9: 80 eb        	bra	$9c6 <f256main+0x247>
     9db: c0 00        	cpy	#$0
     9dd: d0 eb        	bne	$9ca <f256main+0x24b>
     9df: 18           	clc
     9e0: a5 18        	lda	$18                     ; 0x2018 <end_block9+0x102e>
     9e2: 69 02        	adc	#$2
     9e4: 85 0f        	sta	$f                      ; 0x200f <end_block9+0x1025>
     9e6: a5 6c        	lda	$6c                     ; 0x206c <end_block9+0x1082>
     9e8: a2 20        	ldx	#$20
     9ea: a0 00        	ldy	#$0
     9ec: 48           	pha
     9ed: 98           	tya
     9ee: 85 14        	sta	$14                     ; 0x2014 <end_block9+0x102a>
     9f0: a9 e0        	lda	#$e0
     9f2: 85 15        	sta	$15                     ; 0x2015 <end_block9+0x102b>
     9f4: 68           	pla
     9f5: 86 16        	stx	$16                     ; 0x2016 <end_block9+0x102c>
     9f7: 80 04        	bra	$9fd <f256main+0x27e>
     9f9: a6 16        	ldx	$16                     ; 0x2016 <end_block9+0x102c>
     9fb: f0 11        	beq	$a0e <f256main+0x28f>
     9fd: 92 14        	sta	($14)                   ; 0x2014 <end_block9+0x102a>
     9ff: 88           	dey
     a00: c0 ff        	cpy	#$ff
     a02: d0 02        	bne	$a06 <f256main+0x287>
     a04: c6 16        	dec	$16                     ; 0x2016 <end_block9+0x102c>
     a06: e6 14        	inc	$14                     ; 0x2014 <end_block9+0x102a>
     a08: d0 ef        	bne	$9f9 <f256main+0x27a>
     a0a: e6 15        	inc	$15                     ; 0x2015 <end_block9+0x102b>
     a0c: 80 eb        	bra	$9f9 <f256main+0x27a>
     a0e: c0 00        	cpy	#$0
     a10: d0 eb        	bne	$9fd <f256main+0x27e>
     a12: 18           	clc
     a13: a5 18        	lda	$18                     ; 0x2018 <end_block9+0x102e>
     a15: 69 03        	adc	#$3
     a17: 85 0f        	sta	$f                      ; 0x200f <end_block9+0x1025>
     a19: a5 6c        	lda	$6c                     ; 0x206c <end_block9+0x1082>
     a1b: a2 20        	ldx	#$20
     a1d: a0 00        	ldy	#$0
     a1f: 48           	pha
     a20: 98           	tya
     a21: 85 14        	sta	$14                     ; 0x2014 <end_block9+0x102a>
     a23: a9 e0        	lda	#$e0
     a25: 85 15        	sta	$15                     ; 0x2015 <end_block9+0x102b>
     a27: 68           	pla
     a28: 86 16        	stx	$16                     ; 0x2016 <end_block9+0x102c>
     a2a: 80 04        	bra	$a30 <f256main+0x2b1>
     a2c: a6 16        	ldx	$16                     ; 0x2016 <end_block9+0x102c>
     a2e: f0 11        	beq	$a41 <f256main+0x2c2>
     a30: 92 14        	sta	($14)                   ; 0x2014 <end_block9+0x102a>
     a32: 88           	dey
     a33: c0 ff        	cpy	#$ff
     a35: d0 02        	bne	$a39 <f256main+0x2ba>
     a37: c6 16        	dec	$16                     ; 0x2016 <end_block9+0x102c>
     a39: e6 14        	inc	$14                     ; 0x2014 <end_block9+0x102a>
     a3b: d0 ef        	bne	$a2c <f256main+0x2ad>
     a3d: e6 15        	inc	$15                     ; 0x2015 <end_block9+0x102b>
     a3f: 80 eb        	bra	$a2c <f256main+0x2ad>
     a41: c0 00        	cpy	#$0
     a43: d0 eb        	bne	$a30 <f256main+0x2b1>
     a45: 18           	clc
     a46: a5 18        	lda	$18                     ; 0x2018 <end_block9+0x102e>
     a48: 69 04        	adc	#$4
     a4a: 85 0f        	sta	$f                      ; 0x200f <end_block9+0x1025>
     a4c: a5 6c        	lda	$6c                     ; 0x206c <end_block9+0x1082>
     a4e: a2 20        	ldx	#$20
     a50: a0 00        	ldy	#$0
     a52: 48           	pha
     a53: 98           	tya
     a54: 85 14        	sta	$14                     ; 0x2014 <end_block9+0x102a>
     a56: a9 e0        	lda	#$e0
     a58: 85 15        	sta	$15                     ; 0x2015 <end_block9+0x102b>
     a5a: 68           	pla
     a5b: 86 16        	stx	$16                     ; 0x2016 <end_block9+0x102c>
     a5d: 80 04        	bra	$a63 <f256main+0x2e4>
     a5f: a6 16        	ldx	$16                     ; 0x2016 <end_block9+0x102c>
     a61: f0 11        	beq	$a74 <f256main+0x2f5>
     a63: 92 14        	sta	($14)                   ; 0x2014 <end_block9+0x102a>
     a65: 88           	dey
     a66: c0 ff        	cpy	#$ff
     a68: d0 02        	bne	$a6c <f256main+0x2ed>
     a6a: c6 16        	dec	$16                     ; 0x2016 <end_block9+0x102c>
     a6c: e6 14        	inc	$14                     ; 0x2014 <end_block9+0x102a>
     a6e: d0 ef        	bne	$a5f <f256main+0x2e0>
     a70: e6 15        	inc	$15                     ; 0x2015 <end_block9+0x102b>
     a72: 80 eb        	bra	$a5f <f256main+0x2e0>
     a74: c0 00        	cpy	#$0
     a76: d0 eb        	bne	$a63 <f256main+0x2e4>
     a78: 18           	clc
     a79: a5 18        	lda	$18                     ; 0x2018 <end_block9+0x102e>
     a7b: 69 05        	adc	#$5
     a7d: 85 0f        	sta	$f                      ; 0x200f <end_block9+0x1025>
     a7f: a5 6c        	lda	$6c                     ; 0x206c <end_block9+0x1082>
     a81: a2 20        	ldx	#$20
     a83: a0 00        	ldy	#$0
     a85: 48           	pha
     a86: 98           	tya
     a87: 85 14        	sta	$14                     ; 0x2014 <end_block9+0x102a>
     a89: a9 e0        	lda	#$e0
     a8b: 85 15        	sta	$15                     ; 0x2015 <end_block9+0x102b>
     a8d: 68           	pla
     a8e: 86 16        	stx	$16                     ; 0x2016 <end_block9+0x102c>
     a90: 80 04        	bra	$a96 <f256main+0x317>
     a92: a6 16        	ldx	$16                     ; 0x2016 <end_block9+0x102c>
     a94: f0 11        	beq	$aa7 <f256main+0x328>
     a96: 92 14        	sta	($14)                   ; 0x2014 <end_block9+0x102a>
     a98: 88           	dey
     a99: c0 ff        	cpy	#$ff
     a9b: d0 02        	bne	$a9f <f256main+0x320>
     a9d: c6 16        	dec	$16                     ; 0x2016 <end_block9+0x102c>
     a9f: e6 14        	inc	$14                     ; 0x2014 <end_block9+0x102a>
     aa1: d0 ef        	bne	$a92 <f256main+0x313>
     aa3: e6 15        	inc	$15                     ; 0x2015 <end_block9+0x102b>
     aa5: 80 eb        	bra	$a92 <f256main+0x313>
     aa7: c0 00        	cpy	#$0
     aa9: d0 eb        	bne	$a96 <f256main+0x317>
     aab: 18           	clc
     aac: a5 18        	lda	$18                     ; 0x2018 <end_block9+0x102e>
     aae: 69 06        	adc	#$6
     ab0: 85 0f        	sta	$f                      ; 0x200f <end_block9+0x1025>
     ab2: a5 6c        	lda	$6c                     ; 0x206c <end_block9+0x1082>
     ab4: a2 20        	ldx	#$20
     ab6: a0 00        	ldy	#$0
     ab8: 48           	pha
     ab9: 98           	tya
     aba: 85 14        	sta	$14                     ; 0x2014 <end_block9+0x102a>
     abc: a9 e0        	lda	#$e0
     abe: 85 15        	sta	$15                     ; 0x2015 <end_block9+0x102b>
     ac0: 68           	pla
     ac1: 86 16        	stx	$16                     ; 0x2016 <end_block9+0x102c>
     ac3: 80 04        	bra	$ac9 <f256main+0x34a>
     ac5: a6 16        	ldx	$16                     ; 0x2016 <end_block9+0x102c>
     ac7: f0 11        	beq	$ada <f256main+0x35b>
     ac9: 92 14        	sta	($14)                   ; 0x2014 <end_block9+0x102a>
     acb: 88           	dey
     acc: c0 ff        	cpy	#$ff
     ace: d0 02        	bne	$ad2 <f256main+0x353>
     ad0: c6 16        	dec	$16                     ; 0x2016 <end_block9+0x102c>
     ad2: e6 14        	inc	$14                     ; 0x2014 <end_block9+0x102a>
     ad4: d0 ef        	bne	$ac5 <f256main+0x346>
     ad6: e6 15        	inc	$15                     ; 0x2015 <end_block9+0x102b>
     ad8: 80 eb        	bra	$ac5 <f256main+0x346>
     ada: c0 00        	cpy	#$0
     adc: d0 eb        	bne	$ac9 <f256main+0x34a>
     ade: 18           	clc
     adf: a5 18        	lda	$18                     ; 0x2018 <end_block9+0x102e>
     ae1: 69 07        	adc	#$7
     ae3: 85 0f        	sta	$f                      ; 0x200f <end_block9+0x1025>
     ae5: a5 6c        	lda	$6c                     ; 0x206c <end_block9+0x1082>
     ae7: a2 20        	ldx	#$20
     ae9: a0 00        	ldy	#$0
     aeb: 48           	pha
     aec: 98           	tya
     aed: 85 14        	sta	$14                     ; 0x2014 <end_block9+0x102a>
     aef: a9 e0        	lda	#$e0
     af1: 85 15        	sta	$15                     ; 0x2015 <end_block9+0x102b>
     af3: 68           	pla
     af4: 86 16        	stx	$16                     ; 0x2016 <end_block9+0x102c>
     af6: 80 04        	bra	$afc <f256main+0x37d>
     af8: a6 16        	ldx	$16                     ; 0x2016 <end_block9+0x102c>
     afa: f0 11        	beq	$b0d <f256main+0x38e>
     afc: 92 14        	sta	($14)                   ; 0x2014 <end_block9+0x102a>
     afe: 88           	dey
     aff: c0 ff        	cpy	#$ff
     b01: d0 02        	bne	$b05 <f256main+0x386>
     b03: c6 16        	dec	$16                     ; 0x2016 <end_block9+0x102c>
     b05: e6 14        	inc	$14                     ; 0x2014 <end_block9+0x102a>
     b07: d0 ef        	bne	$af8 <f256main+0x379>
     b09: e6 15        	inc	$15                     ; 0x2015 <end_block9+0x102b>
     b0b: 80 eb        	bra	$af8 <f256main+0x379>
     b0d: c0 00        	cpy	#$0
     b0f: d0 eb        	bne	$afc <f256main+0x37d>
     b11: 18           	clc
     b12: a5 18        	lda	$18                     ; 0x2018 <end_block9+0x102e>
     b14: 69 08        	adc	#$8
     b16: 85 0f        	sta	$f                      ; 0x200f <end_block9+0x1025>
     b18: a5 6c        	lda	$6c                     ; 0x206c <end_block9+0x1082>
     b1a: a2 20        	ldx	#$20
     b1c: a0 00        	ldy	#$0
     b1e: 48           	pha
     b1f: 98           	tya
     b20: 85 14        	sta	$14                     ; 0x2014 <end_block9+0x102a>
     b22: a9 e0        	lda	#$e0
     b24: 85 15        	sta	$15                     ; 0x2015 <end_block9+0x102b>
     b26: 68           	pla
     b27: 86 16        	stx	$16                     ; 0x2016 <end_block9+0x102c>
     b29: 80 04        	bra	$b2f <f256main+0x3b0>
     b2b: a6 16        	ldx	$16                     ; 0x2016 <end_block9+0x102c>
     b2d: f0 11        	beq	$b40 <f256main+0x3c1>
     b2f: 92 14        	sta	($14)                   ; 0x2014 <end_block9+0x102a>
     b31: 88           	dey
     b32: c0 ff        	cpy	#$ff
     b34: d0 02        	bne	$b38 <f256main+0x3b9>
     b36: c6 16        	dec	$16                     ; 0x2016 <end_block9+0x102c>
     b38: e6 14        	inc	$14                     ; 0x2014 <end_block9+0x102a>
     b3a: d0 ef        	bne	$b2b <f256main+0x3ac>
     b3c: e6 15        	inc	$15                     ; 0x2015 <end_block9+0x102b>
     b3e: 80 eb        	bra	$b2b <f256main+0x3ac>
     b40: c0 00        	cpy	#$0
     b42: d0 eb        	bne	$b2f <f256main+0x3b0>
     b44: 18           	clc
     b45: a5 18        	lda	$18                     ; 0x2018 <end_block9+0x102e>
     b47: 69 09        	adc	#$9
     b49: 85 0f        	sta	$f                      ; 0x200f <end_block9+0x1025>
     b4b: a5 6c        	lda	$6c                     ; 0x206c <end_block9+0x1082>
     b4d: a2 14        	ldx	#$14
     b4f: a0 00        	ldy	#$0
     b51: 86 14        	stx	$14                     ; 0x2014 <end_block9+0x102a>
     b53: 80 04        	bra	$b59 <f256main+0x3da>
     b55: a6 14        	ldx	$14                     ; 0x2014 <end_block9+0x102a>
     b57: f0 11        	beq	$b6a <f256main+0x3eb>
     b59: 92 12        	sta	($12)                   ; 0x2012 <end_block9+0x1028>
     b5b: 88           	dey
     b5c: c0 ff        	cpy	#$ff
     b5e: d0 02        	bne	$b62 <f256main+0x3e3>
     b60: c6 14        	dec	$14                     ; 0x2014 <end_block9+0x102a>
     b62: e6 12        	inc	$12                     ; 0x2012 <end_block9+0x1028>
     b64: d0 ef        	bne	$b55 <f256main+0x3d6>
     b66: e6 13        	inc	$13                     ; 0x2013 <end_block9+0x1029>
     b68: 80 eb        	bra	$b55 <f256main+0x3d6>
     b6a: c0 00        	cpy	#$0
     b6c: d0 eb        	bne	$b59 <f256main+0x3da>
     b6e: a6 17        	ldx	$17                     ; 0x2017 <end_block9+0x102d>
     b70: 86 0f        	stx	$f                      ; 0x200f <end_block9+0x1025>
     b72: 58           	cli
     b73: a2 01        	ldx	#$1
     b75: 8e 00 d1     	stx	$d100                   ; 0xd100 <end_block9+0xc116>
     b78: a2 0f        	ldx	#$f
     b7a: 86 6c        	stx	$6c                     ; 0x206c <end_block9+0x1082>
     b7c: 18           	clc
     b7d: a5 10        	lda	$10                     ; 0x2010 <end_block9+0x1026>
     b7f: 69 0b        	adc	#$b
     b81: 85 12        	sta	$12                     ; 0x2012 <end_block9+0x1028>
     b83: a5 11        	lda	$11                     ; 0x2011 <end_block9+0x1027>
     b85: 69 00        	adc	#$0
     b87: 85 13        	sta	$13                     ; 0x2013 <end_block9+0x1029>
     b89: a2 67        	ldx	#$67
     b8b: 86 14        	stx	$14                     ; 0x2014 <end_block9+0x102a>
     b8d: a2 00        	ldx	#$0
     b8f: 86 15        	stx	$15                     ; 0x2015 <end_block9+0x102b>
     b91: 80 17        	bra	$baa <f256main+0x42b>
     b93: 18           	clc
     b94: a5 10        	lda	$10                     ; 0x2010 <end_block9+0x1026>
     b96: 69 0a        	adc	#$a
     b98: 85 16        	sta	$16                     ; 0x2016 <end_block9+0x102c>
     b9a: a5 11        	lda	$11                     ; 0x2011 <end_block9+0x1027>
     b9c: 69 00        	adc	#$0
     b9e: 85 17        	sta	$17                     ; 0x2017 <end_block9+0x102d>
     ba0: 20 0c ff     	jsr	$ff0c <end_block9+0xef22>
     ba3: 92 16        	sta	($16)                   ; 0x2016 <end_block9+0x102c>
     ba5: a9 00        	lda	#$0
     ba7: 6a           	ror
     ba8: 85 14        	sta	$14                     ; 0x2014 <end_block9+0x102a>
     baa: 64 60        	stz	$60                     ; 0x2060 <end_block9+0x1076>
     bac: 20 00 ff     	jsr	$ff00 <end_block9+0xef16>
     baf: 92 12        	sta	($12)                   ; 0x2012 <end_block9+0x1028>
     bb1: a9 00        	lda	#$0
     bb3: 6a           	ror
     bb4: 85 14        	sta	$14                     ; 0x2014 <end_block9+0x102a>
     bb6: a6 67        	ldx	$67                     ; 0x2067 <end_block9+0x107d>
     bb8: d0 d9        	bne	$b93 <f256main+0x414>
     bba: a6 60        	ldx	$60                     ; 0x2060 <end_block9+0x1076>
     bbc: e0 08        	cpx	#$8
     bbe: d0 ea        	bne	$baa <f256main+0x42b>
     bc0: a6 66        	ldx	$66                     ; 0x2066 <end_block9+0x107c>
     bc2: d0 e6        	bne	$baa <f256main+0x42b>
     bc4: a6 0f        	ldx	$f                      ; 0x200f <end_block9+0x1025>
     bc6: 86 15        	stx	$15                     ; 0x2015 <end_block9+0x102b>
     bc8: 78           	sei
     bc9: a2 9f        	ldx	#$9f
     bcb: 8a           	txa
     bcc: a0 00        	ldy	#$0
     bce: 91 10        	sta	($10),y                 ; 0x2010 <end_block9+0x1026>
     bd0: a2 00        	ldx	#$0
     bd2: 64 19        	stz	$19                     ; 0x2019 <end_block9+0x102f>
     bd4: a0 00        	ldy	#$0
     bd6: 64 17        	stz	$17                     ; 0x2017 <end_block9+0x102d>
     bd8: 64 1a        	stz	$1a                     ; 0x201a <end_block9+0x1030>
     bda: 86 18        	stx	$18                     ; 0x2018 <end_block9+0x102e>
     bdc: a6 68        	ldx	$68                     ; 0x2068 <end_block9+0x107e>
     bde: 86 12        	stx	$12                     ; 0x2012 <end_block9+0x1028>
     be0: a6 69        	ldx	$69                     ; 0x2069 <end_block9+0x107f>
     be2: 86 13        	stx	$13                     ; 0x2013 <end_block9+0x1029>
     be4: a6 6a        	ldx	$6a                     ; 0x206a <end_block9+0x1080>
     be6: 86 14        	stx	$14                     ; 0x2014 <end_block9+0x102a>
     be8: a5 6d        	lda	$6d                     ; 0x206d <end_block9+0x1083>
     bea: 29 01        	and	#$1
     bec: f0 06        	beq	$bf4 <f256main+0x475>
     bee: a2 01        	ldx	#$1
     bf0: a9 40        	lda	#$40
     bf2: 80 03        	bra	$bf7 <f256main+0x478>
     bf4: a9 00        	lda	#$0
     bf6: aa           	tax
     bf7: 8c 00 de     	sty	$de00                   ; 0xde00 <end_block9+0xce16>
     bfa: 84 1b        	sty	$1b                     ; 0x201b <end_block9+0x1031>
     bfc: a4 17        	ldy	$17                     ; 0x2017 <end_block9+0x102d>
     bfe: 8c 01 de     	sty	$de01                   ; 0xde01 <end_block9+0xce17>
     c01: 8d 02 de     	sta	$de02                   ; 0xde02 <end_block9+0xce18>
     c04: 8e 03 de     	stx	$de03                   ; 0xde03 <end_block9+0xce19>
     c07: ae 10 de     	ldx	$de10                   ; 0xde10 <end_block9+0xce26>
     c0a: 86 1c        	stx	$1c                     ; 0x201c <end_block9+0x1032>
     c0c: ad 11 de     	lda	$de11                   ; 0xde11 <end_block9+0xce27>
     c0f: a6 1b        	ldx	$1b                     ; 0x201b <end_block9+0x1031>
     c11: 86 16        	stx	$16                     ; 0x2016 <end_block9+0x102c>
     c13: ac 12 de     	ldy	$de12                   ; 0xde12 <end_block9+0xce28>
     c16: ae 13 de     	ldx	$de13                   ; 0xde13 <end_block9+0xce29>
     c19: 86 1b        	stx	$1b                     ; 0x201b <end_block9+0x1031>
     c1b: a6 1c        	ldx	$1c                     ; 0x201c <end_block9+0x1032>
     c1d: 8e 08 de     	stx	$de08                   ; 0xde08 <end_block9+0xce1e>
     c20: 8d 09 de     	sta	$de09                   ; 0xde09 <end_block9+0xce1f>
     c23: 8c 0a de     	sty	$de0a                   ; 0xde0a <end_block9+0xce20>
     c26: a6 1b        	ldx	$1b                     ; 0x201b <end_block9+0x1031>
     c28: 8e 0b de     	stx	$de0b                   ; 0xde0b <end_block9+0xce21>
     c2b: a6 18        	ldx	$18                     ; 0x2018 <end_block9+0x102e>
     c2d: 8e 0c de     	stx	$de0c                   ; 0xde0c <end_block9+0xce22>
     c30: a6 19        	ldx	$19                     ; 0x2019 <end_block9+0x102f>
     c32: 8e 0d de     	stx	$de0d                   ; 0xde0d <end_block9+0xce23>
     c35: 9c 0e de     	stz	$de0e                   ; 0xde0e <end_block9+0xce24>
     c38: 9c 0f de     	stz	$de0f                   ; 0xde0f <end_block9+0xce25>
     c3b: ad 18 de     	lda	$de18                   ; 0xde18 <end_block9+0xce2e>
     c3e: ac 19 de     	ldy	$de19                   ; 0xde19 <end_block9+0xce2f>
     c41: ae 1a de     	ldx	$de1a                   ; 0xde1a <end_block9+0xce30>
     c44: 86 1c        	stx	$1c                     ; 0x201c <end_block9+0x1032>
     c46: ae 1b de     	ldx	$de1b                   ; 0xde1b <end_block9+0xce31>
     c49: 18           	clc
     c4a: 65 12        	adc	$12                     ; 0x2012 <end_block9+0x1028>
     c4c: aa           	tax
     c4d: 98           	tya
     c4e: 65 13        	adc	$13                     ; 0x2013 <end_block9+0x1029>
     c50: a8           	tay
     c51: a5 1c        	lda	$1c                     ; 0x201c <end_block9+0x1032>
     c53: 65 14        	adc	$14                     ; 0x2014 <end_block9+0x102a>
     c55: 85 13        	sta	$13                     ; 0x2013 <end_block9+0x1029>
     c57: 98           	tya
     c58: 84 12        	sty	$12                     ; 0x2012 <end_block9+0x1028>
     c5a: 06 12        	asl	$12                     ; 0x2012 <end_block9+0x1028>
     c5c: 26 13        	rol	$13                     ; 0x2013 <end_block9+0x1029>
     c5e: 06 12        	asl	$12                     ; 0x2012 <end_block9+0x1028>
     c60: 26 13        	rol	$13                     ; 0x2013 <end_block9+0x1029>
     c62: 06 12        	asl	$12                     ; 0x2012 <end_block9+0x1028>
     c64: 26 13        	rol	$13                     ; 0x2013 <end_block9+0x1029>
     c66: a4 13        	ldy	$13                     ; 0x2013 <end_block9+0x1029>
     c68: 84 0f        	sty	$f                      ; 0x200f <end_block9+0x1025>
     c6a: a4 6c        	ldy	$6c                     ; 0x206c <end_block9+0x1082>
     c6c: 09 e0        	ora	#$e0
     c6e: 86 12        	stx	$12                     ; 0x2012 <end_block9+0x1028>
     c70: 85 13        	sta	$13                     ; 0x2013 <end_block9+0x1029>
     c72: 98           	tya
     c73: 92 12        	sta	($12)                   ; 0x2012 <end_block9+0x1028>
     c75: a5 1a        	lda	$1a                     ; 0x201a <end_block9+0x1030>
     c77: 30 21        	bmi	$c9a <f256main+0x51b>
     c79: a6 16        	ldx	$16                     ; 0x2016 <end_block9+0x102c>
     c7b: a4 17        	ldy	$17                     ; 0x2017 <end_block9+0x102d>
     c7d: e8           	inx
     c7e: d0 01        	bne	$c81 <f256main+0x502>
     c80: c8           	iny
     c81: 18           	clc
     c82: 5a           	phy
     c83: a0 00        	ldy	#$0
     c85: b1 10        	lda	($10),y                 ; 0x2010 <end_block9+0x1026>
     c87: 7a           	ply
     c88: 69 82        	adc	#$82
     c8a: 85 12        	sta	$12                     ; 0x2012 <end_block9+0x1028>
     c8c: a5 1a        	lda	$1a                     ; 0x201a <end_block9+0x1030>
     c8e: 69 fd        	adc	#$fd
     c90: 85 1a        	sta	$1a                     ; 0x201a <end_block9+0x1030>
     c92: a5 12        	lda	$12                     ; 0x2012 <end_block9+0x1028>
     c94: 86 16        	stx	$16                     ; 0x2016 <end_block9+0x102c>
     c96: 84 17        	sty	$17                     ; 0x2017 <end_block9+0x102d>
     c98: 80 04        	bra	$c9e <f256main+0x51f>
     c9a: a0 00        	ldy	#$0
     c9c: b1 10        	lda	($10),y                 ; 0x2010 <end_block9+0x1026>
     c9e: 18           	clc
     c9f: 69 de        	adc	#$de
     ca1: a0 00        	ldy	#$0
     ca3: 91 10        	sta	($10),y                 ; 0x2010 <end_block9+0x1026>
     ca5: a5 1a        	lda	$1a                     ; 0x201a <end_block9+0x1030>
     ca7: 69 01        	adc	#$1
     ca9: 85 1a        	sta	$1a                     ; 0x201a <end_block9+0x1030>
     cab: a6 18        	ldx	$18                     ; 0x2018 <end_block9+0x102e>
     cad: a4 19        	ldy	$19                     ; 0x2019 <end_block9+0x102f>
     caf: e8           	inx
     cb0: d0 01        	bne	$cb3 <f256main+0x534>
     cb2: c8           	iny
     cb3: 98           	tya
     cb4: a4 16        	ldy	$16                     ; 0x2016 <end_block9+0x102c>
     cb6: 85 19        	sta	$19                     ; 0x2019 <end_block9+0x102f>
     cb8: c9 01        	cmp	#$1
     cba: f0 03        	beq	$cbf <f256main+0x540>
     cbc: 4c da 0b     	jmp	$bda <f256main+0x45b>
     cbf: e0 3f        	cpx	#$3f
     cc1: f0 03        	beq	$cc6 <f256main+0x547>
     cc3: 4c da 0b     	jmp	$bda <f256main+0x45b>
     cc6: a6 68        	ldx	$68                     ; 0x2068 <end_block9+0x107e>
     cc8: 86 12        	stx	$12                     ; 0x2012 <end_block9+0x1028>
     cca: a6 69        	ldx	$69                     ; 0x2069 <end_block9+0x107f>
     ccc: 86 13        	stx	$13                     ; 0x2013 <end_block9+0x1029>
     cce: a6 6a        	ldx	$6a                     ; 0x206a <end_block9+0x1080>
     cd0: 86 14        	stx	$14                     ; 0x2014 <end_block9+0x102a>
     cd2: a5 6d        	lda	$6d                     ; 0x206d <end_block9+0x1083>
     cd4: 29 01        	and	#$1
     cd6: a0 40        	ldy	#$40
     cd8: a2 01        	ldx	#$1
     cda: c9 00        	cmp	#$0
     cdc: d0 04        	bne	$ce2 <f256main+0x563>
     cde: a0 00        	ldy	#$0
     ce0: a2 00        	ldx	#$0
     ce2: a5 16        	lda	$16                     ; 0x2016 <end_block9+0x102c>
     ce4: 8d 00 de     	sta	$de00                   ; 0xde00 <end_block9+0xce16>
     ce7: a5 17        	lda	$17                     ; 0x2017 <end_block9+0x102d>
     ce9: 8d 01 de     	sta	$de01                   ; 0xde01 <end_block9+0xce17>
     cec: 8c 02 de     	sty	$de02                   ; 0xde02 <end_block9+0xce18>
     cef: 8e 03 de     	stx	$de03                   ; 0xde03 <end_block9+0xce19>
     cf2: ae 10 de     	ldx	$de10                   ; 0xde10 <end_block9+0xce26>
     cf5: 86 17        	stx	$17                     ; 0x2017 <end_block9+0x102d>
     cf7: ac 11 de     	ldy	$de11                   ; 0xde11 <end_block9+0xce27>
     cfa: ad 12 de     	lda	$de12                   ; 0xde12 <end_block9+0xce28>
     cfd: ae 13 de     	ldx	$de13                   ; 0xde13 <end_block9+0xce29>
     d00: 86 16        	stx	$16                     ; 0x2016 <end_block9+0x102c>
     d02: a6 17        	ldx	$17                     ; 0x2017 <end_block9+0x102d>
     d04: 8e 08 de     	stx	$de08                   ; 0xde08 <end_block9+0xce1e>
     d07: 8c 09 de     	sty	$de09                   ; 0xde09 <end_block9+0xce1f>
     d0a: 8d 0a de     	sta	$de0a                   ; 0xde0a <end_block9+0xce20>
     d0d: a6 16        	ldx	$16                     ; 0x2016 <end_block9+0x102c>
     d0f: 8e 0b de     	stx	$de0b                   ; 0xde0b <end_block9+0xce21>
     d12: a2 3f        	ldx	#$3f
     d14: 8e 0c de     	stx	$de0c                   ; 0xde0c <end_block9+0xce22>
     d17: a2 01        	ldx	#$1
     d19: 8e 0d de     	stx	$de0d                   ; 0xde0d <end_block9+0xce23>
     d1c: 9c 0e de     	stz	$de0e                   ; 0xde0e <end_block9+0xce24>
     d1f: 9c 0f de     	stz	$de0f                   ; 0xde0f <end_block9+0xce25>
     d22: ad 18 de     	lda	$de18                   ; 0xde18 <end_block9+0xce2e>
     d25: ae 19 de     	ldx	$de19                   ; 0xde19 <end_block9+0xce2f>
     d28: ac 1a de     	ldy	$de1a                   ; 0xde1a <end_block9+0xce30>
     d2b: 18           	clc
     d2c: 65 12        	adc	$12                     ; 0x2012 <end_block9+0x1028>
     d2e: 85 16        	sta	$16                     ; 0x2016 <end_block9+0x102c>
     d30: 8a           	txa
     d31: 65 13        	adc	$13                     ; 0x2013 <end_block9+0x1029>
     d33: aa           	tax
     d34: 98           	tya
     d35: 65 14        	adc	$14                     ; 0x2014 <end_block9+0x102a>
     d37: 85 13        	sta	$13                     ; 0x2013 <end_block9+0x1029>
     d39: 8a           	txa
     d3a: 86 12        	stx	$12                     ; 0x2012 <end_block9+0x1028>
     d3c: 06 12        	asl	$12                     ; 0x2012 <end_block9+0x1028>
     d3e: 26 13        	rol	$13                     ; 0x2013 <end_block9+0x1029>
     d40: 06 12        	asl	$12                     ; 0x2012 <end_block9+0x1028>
     d42: 26 13        	rol	$13                     ; 0x2013 <end_block9+0x1029>
     d44: 06 12        	asl	$12                     ; 0x2012 <end_block9+0x1028>
     d46: 26 13        	rol	$13                     ; 0x2013 <end_block9+0x1029>
     d48: a4 13        	ldy	$13                     ; 0x2013 <end_block9+0x1029>
     d4a: ae 1b de     	ldx	$de1b                   ; 0xde1b <end_block9+0xce31>
     d4d: 84 0f        	sty	$f                      ; 0x200f <end_block9+0x1025>
     d4f: a6 6c        	ldx	$6c                     ; 0x206c <end_block9+0x1082>
     d51: 09 e0        	ora	#$e0
     d53: a4 16        	ldy	$16                     ; 0x2016 <end_block9+0x102c>
     d55: 84 12        	sty	$12                     ; 0x2012 <end_block9+0x1028>
     d57: 85 13        	sta	$13                     ; 0x2013 <end_block9+0x1029>
     d59: 8a           	txa
     d5a: 92 12        	sta	($12)                   ; 0x2012 <end_block9+0x1028>
     d5c: a6 15        	ldx	$15                     ; 0x2015 <end_block9+0x102b>
     d5e: 86 0f        	stx	$f                      ; 0x200f <end_block9+0x1025>
     d60: 58           	cli
     d61: a6 0f        	ldx	$f                      ; 0x200f <end_block9+0x1025>
     d63: 86 15        	stx	$15                     ; 0x2015 <end_block9+0x102b>
     d65: 78           	sei
     d66: a0 ef        	ldy	#$ef
     d68: a2 9f        	ldx	#$9f
     d6a: 8a           	txa
     d6b: 5a           	phy
     d6c: a0 00        	ldy	#$0
     d6e: 91 10        	sta	($10),y                 ; 0x2010 <end_block9+0x1026>
     d70: 7a           	ply
     d71: a2 00        	ldx	#$0
     d73: 64 1a        	stz	$1a                     ; 0x201a <end_block9+0x1030>
     d75: 64 12        	stz	$12                     ; 0x2012 <end_block9+0x1028>
     d77: 64 18        	stz	$18                     ; 0x2018 <end_block9+0x102e>
     d79: 86 17        	stx	$17                     ; 0x2017 <end_block9+0x102d>
     d7b: a6 12        	ldx	$12                     ; 0x2012 <end_block9+0x1028>
     d7d: 86 16        	stx	$16                     ; 0x2016 <end_block9+0x102c>
     d7f: a6 68        	ldx	$68                     ; 0x2068 <end_block9+0x107e>
     d81: 86 12        	stx	$12                     ; 0x2012 <end_block9+0x1028>
     d83: a6 69        	ldx	$69                     ; 0x2069 <end_block9+0x107f>
     d85: 86 13        	stx	$13                     ; 0x2013 <end_block9+0x1029>
     d87: a6 6a        	ldx	$6a                     ; 0x206a <end_block9+0x1080>
     d89: 86 14        	stx	$14                     ; 0x2014 <end_block9+0x102a>
     d8b: a5 6d        	lda	$6d                     ; 0x206d <end_block9+0x1083>
     d8d: 29 01        	and	#$1
     d8f: f0 06        	beq	$d97 <f256main+0x618>
     d91: a2 01        	ldx	#$1
     d93: a9 40        	lda	#$40
     d95: 80 03        	bra	$d9a <f256main+0x61b>
     d97: a9 00        	lda	#$0
     d99: aa           	tax
     d9a: 8c 00 de     	sty	$de00                   ; 0xde00 <end_block9+0xce16>
     d9d: 84 1b        	sty	$1b                     ; 0x201b <end_block9+0x1031>
     d9f: a4 16        	ldy	$16                     ; 0x2016 <end_block9+0x102c>
     da1: 84 19        	sty	$19                     ; 0x2019 <end_block9+0x102f>
     da3: 8c 01 de     	sty	$de01                   ; 0xde01 <end_block9+0xce17>
     da6: 8d 02 de     	sta	$de02                   ; 0xde02 <end_block9+0xce18>
     da9: 8e 03 de     	stx	$de03                   ; 0xde03 <end_block9+0xce19>
     dac: ae 10 de     	ldx	$de10                   ; 0xde10 <end_block9+0xce26>
     daf: 86 1c        	stx	$1c                     ; 0x201c <end_block9+0x1032>
     db1: ad 11 de     	lda	$de11                   ; 0xde11 <end_block9+0xce27>
     db4: a6 1b        	ldx	$1b                     ; 0x201b <end_block9+0x1031>
     db6: 86 16        	stx	$16                     ; 0x2016 <end_block9+0x102c>
     db8: ac 12 de     	ldy	$de12                   ; 0xde12 <end_block9+0xce28>
     dbb: ae 13 de     	ldx	$de13                   ; 0xde13 <end_block9+0xce29>
     dbe: 86 1b        	stx	$1b                     ; 0x201b <end_block9+0x1031>
     dc0: a6 1c        	ldx	$1c                     ; 0x201c <end_block9+0x1032>
     dc2: 8e 08 de     	stx	$de08                   ; 0xde08 <end_block9+0xce1e>
     dc5: 8d 09 de     	sta	$de09                   ; 0xde09 <end_block9+0xce1f>
     dc8: 8c 0a de     	sty	$de0a                   ; 0xde0a <end_block9+0xce20>
     dcb: a6 1b        	ldx	$1b                     ; 0x201b <end_block9+0x1031>
     dcd: 8e 0b de     	stx	$de0b                   ; 0xde0b <end_block9+0xce21>
     dd0: a6 17        	ldx	$17                     ; 0x2017 <end_block9+0x102d>
     dd2: 86 1c        	stx	$1c                     ; 0x201c <end_block9+0x1032>
     dd4: 8e 0c de     	stx	$de0c                   ; 0xde0c <end_block9+0xce22>
     dd7: a6 1a        	ldx	$1a                     ; 0x201a <end_block9+0x1030>
     dd9: 8e 0d de     	stx	$de0d                   ; 0xde0d <end_block9+0xce23>
     ddc: 9c 0e de     	stz	$de0e                   ; 0xde0e <end_block9+0xce24>
     ddf: 9c 0f de     	stz	$de0f                   ; 0xde0f <end_block9+0xce25>
     de2: ad 18 de     	lda	$de18                   ; 0xde18 <end_block9+0xce2e>
     de5: ac 19 de     	ldy	$de19                   ; 0xde19 <end_block9+0xce2f>
     de8: ae 1a de     	ldx	$de1a                   ; 0xde1a <end_block9+0xce30>
     deb: 86 1d        	stx	$1d                     ; 0x201d <end_block9+0x1033>
     ded: ae 1b de     	ldx	$de1b                   ; 0xde1b <end_block9+0xce31>
     df0: 18           	clc
     df1: 65 12        	adc	$12                     ; 0x2012 <end_block9+0x1028>
     df3: aa           	tax
     df4: 98           	tya
     df5: 65 13        	adc	$13                     ; 0x2013 <end_block9+0x1029>
     df7: a8           	tay
     df8: a5 1d        	lda	$1d                     ; 0x201d <end_block9+0x1033>
     dfa: 65 14        	adc	$14                     ; 0x2014 <end_block9+0x102a>
     dfc: 85 13        	sta	$13                     ; 0x2013 <end_block9+0x1029>
     dfe: 98           	tya
     dff: 84 12        	sty	$12                     ; 0x2012 <end_block9+0x1028>
     e01: 06 12        	asl	$12                     ; 0x2012 <end_block9+0x1028>
     e03: 26 13        	rol	$13                     ; 0x2013 <end_block9+0x1029>
     e05: 06 12        	asl	$12                     ; 0x2012 <end_block9+0x1028>
     e07: 26 13        	rol	$13                     ; 0x2013 <end_block9+0x1029>
     e09: 06 12        	asl	$12                     ; 0x2012 <end_block9+0x1028>
     e0b: 26 13        	rol	$13                     ; 0x2013 <end_block9+0x1029>
     e0d: a4 13        	ldy	$13                     ; 0x2013 <end_block9+0x1029>
     e0f: 84 0f        	sty	$f                      ; 0x200f <end_block9+0x1025>
     e11: a4 6c        	ldy	$6c                     ; 0x206c <end_block9+0x1082>
     e13: 09 e0        	ora	#$e0
     e15: 86 12        	stx	$12                     ; 0x2012 <end_block9+0x1028>
     e17: 85 13        	sta	$13                     ; 0x2013 <end_block9+0x1029>
     e19: 98           	tya
     e1a: 92 12        	sta	($12)                   ; 0x2012 <end_block9+0x1028>
     e1c: a6 18        	ldx	$18                     ; 0x2018 <end_block9+0x102e>
     e1e: 86 14        	stx	$14                     ; 0x2014 <end_block9+0x102a>
     e20: 30 23        	bmi	$e45 <f256main+0x6c6>
     e22: a6 16        	ldx	$16                     ; 0x2016 <end_block9+0x102c>
     e24: a4 19        	ldy	$19                     ; 0x2019 <end_block9+0x102f>
     e26: ca           	dex
     e27: e0 ff        	cpx	#$ff
     e29: d0 01        	bne	$e2c <f256main+0x6ad>
     e2b: 88           	dey
     e2c: 18           	clc
     e2d: 5a           	phy
     e2e: a0 00        	ldy	#$0
     e30: b1 10        	lda	($10),y                 ; 0x2010 <end_block9+0x1026>
     e32: 7a           	ply
     e33: 69 82        	adc	#$82
     e35: 85 12        	sta	$12                     ; 0x2012 <end_block9+0x1028>
     e37: a5 18        	lda	$18                     ; 0x2018 <end_block9+0x102e>
     e39: 69 fd        	adc	#$fd
     e3b: 85 14        	sta	$14                     ; 0x2014 <end_block9+0x102a>
     e3d: a5 12        	lda	$12                     ; 0x2012 <end_block9+0x1028>
     e3f: 86 16        	stx	$16                     ; 0x2016 <end_block9+0x102c>
     e41: 84 12        	sty	$12                     ; 0x2012 <end_block9+0x1028>
     e43: 80 0c        	bra	$e51 <f256main+0x6d2>
     e45: a6 19        	ldx	$19                     ; 0x2019 <end_block9+0x102f>
     e47: 86 12        	stx	$12                     ; 0x2012 <end_block9+0x1028>
     e49: a0 00        	ldy	#$0
     e4b: b1 10        	lda	($10),y                 ; 0x2010 <end_block9+0x1026>
     e4d: a6 1c        	ldx	$1c                     ; 0x201c <end_block9+0x1032>
     e4f: 86 17        	stx	$17                     ; 0x2017 <end_block9+0x102d>
     e51: 18           	clc
     e52: 69 de        	adc	#$de
     e54: a0 00        	ldy	#$0
     e56: 91 10        	sta	($10),y                 ; 0x2010 <end_block9+0x1026>
     e58: a5 14        	lda	$14                     ; 0x2014 <end_block9+0x102a>
     e5a: 69 01        	adc	#$1
     e5c: 85 18        	sta	$18                     ; 0x2018 <end_block9+0x102e>
     e5e: a6 17        	ldx	$17                     ; 0x2017 <end_block9+0x102d>
     e60: a4 1a        	ldy	$1a                     ; 0x201a <end_block9+0x1030>
     e62: e8           	inx
     e63: d0 01        	bne	$e66 <f256main+0x6e7>
     e65: c8           	iny
     e66: 98           	tya
     e67: a4 16        	ldy	$16                     ; 0x2016 <end_block9+0x102c>
     e69: 85 1a        	sta	$1a                     ; 0x201a <end_block9+0x1030>
     e6b: c9 01        	cmp	#$1
     e6d: f0 03        	beq	$e72 <f256main+0x6f3>
     e6f: 4c 79 0d     	jmp	$d79 <f256main+0x5fa>
     e72: e0 3f        	cpx	#$3f
     e74: f0 03        	beq	$e79 <f256main+0x6fa>
     e76: 4c 79 0d     	jmp	$d79 <f256main+0x5fa>
     e79: a6 12        	ldx	$12                     ; 0x2012 <end_block9+0x1028>
     e7b: 86 17        	stx	$17                     ; 0x2017 <end_block9+0x102d>
     e7d: a6 68        	ldx	$68                     ; 0x2068 <end_block9+0x107e>
     e7f: 86 12        	stx	$12                     ; 0x2012 <end_block9+0x1028>
     e81: a6 69        	ldx	$69                     ; 0x2069 <end_block9+0x107f>
     e83: 86 13        	stx	$13                     ; 0x2013 <end_block9+0x1029>
     e85: a6 6a        	ldx	$6a                     ; 0x206a <end_block9+0x1080>
     e87: 86 14        	stx	$14                     ; 0x2014 <end_block9+0x102a>
     e89: a5 6d        	lda	$6d                     ; 0x206d <end_block9+0x1083>
     e8b: 29 01        	and	#$1
     e8d: a0 40        	ldy	#$40
     e8f: a2 01        	ldx	#$1
     e91: c9 00        	cmp	#$0
     e93: d0 04        	bne	$e99 <f256main+0x71a>
     e95: a0 00        	ldy	#$0
     e97: a2 00        	ldx	#$0
     e99: a5 16        	lda	$16                     ; 0x2016 <end_block9+0x102c>
     e9b: 8d 00 de     	sta	$de00                   ; 0xde00 <end_block9+0xce16>
     e9e: a5 17        	lda	$17                     ; 0x2017 <end_block9+0x102d>
     ea0: 8d 01 de     	sta	$de01                   ; 0xde01 <end_block9+0xce17>
     ea3: 8c 02 de     	sty	$de02                   ; 0xde02 <end_block9+0xce18>
     ea6: 8e 03 de     	stx	$de03                   ; 0xde03 <end_block9+0xce19>
     ea9: ae 10 de     	ldx	$de10                   ; 0xde10 <end_block9+0xce26>
     eac: 86 17        	stx	$17                     ; 0x2017 <end_block9+0x102d>
     eae: ac 11 de     	ldy	$de11                   ; 0xde11 <end_block9+0xce27>
     eb1: ad 12 de     	lda	$de12                   ; 0xde12 <end_block9+0xce28>
     eb4: ae 13 de     	ldx	$de13                   ; 0xde13 <end_block9+0xce29>
     eb7: 86 16        	stx	$16                     ; 0x2016 <end_block9+0x102c>
     eb9: a6 17        	ldx	$17                     ; 0x2017 <end_block9+0x102d>
     ebb: 8e 08 de     	stx	$de08                   ; 0xde08 <end_block9+0xce1e>
     ebe: 8c 09 de     	sty	$de09                   ; 0xde09 <end_block9+0xce1f>
     ec1: 8d 0a de     	sta	$de0a                   ; 0xde0a <end_block9+0xce20>
     ec4: a6 16        	ldx	$16                     ; 0x2016 <end_block9+0x102c>
     ec6: 8e 0b de     	stx	$de0b                   ; 0xde0b <end_block9+0xce21>
     ec9: a2 3f        	ldx	#$3f
     ecb: 8e 0c de     	stx	$de0c                   ; 0xde0c <end_block9+0xce22>
     ece: a2 01        	ldx	#$1
     ed0: 8e 0d de     	stx	$de0d                   ; 0xde0d <end_block9+0xce23>
     ed3: 9c 0e de     	stz	$de0e                   ; 0xde0e <end_block9+0xce24>
     ed6: 9c 0f de     	stz	$de0f                   ; 0xde0f <end_block9+0xce25>
     ed9: ad 18 de     	lda	$de18                   ; 0xde18 <end_block9+0xce2e>
     edc: ac 19 de     	ldy	$de19                   ; 0xde19 <end_block9+0xce2f>
     edf: ae 1a de     	ldx	$de1a                   ; 0xde1a <end_block9+0xce30>
     ee2: 86 17        	stx	$17                     ; 0x2017 <end_block9+0x102d>
     ee4: ae 1b de     	ldx	$de1b                   ; 0xde1b <end_block9+0xce31>
     ee7: 18           	clc
     ee8: 65 12        	adc	$12                     ; 0x2012 <end_block9+0x1028>
     eea: aa           	tax
     eeb: 98           	tya
     eec: 65 13        	adc	$13                     ; 0x2013 <end_block9+0x1029>
     eee: a8           	tay
     eef: a5 17        	lda	$17                     ; 0x2017 <end_block9+0x102d>
     ef1: 65 14        	adc	$14                     ; 0x2014 <end_block9+0x102a>
     ef3: 85 13        	sta	$13                     ; 0x2013 <end_block9+0x1029>
     ef5: 98           	tya
     ef6: 84 12        	sty	$12                     ; 0x2012 <end_block9+0x1028>
     ef8: 06 12        	asl	$12                     ; 0x2012 <end_block9+0x1028>
     efa: 26 13        	rol	$13                     ; 0x2013 <end_block9+0x1029>
     efc: 06 12        	asl	$12                     ; 0x2012 <end_block9+0x1028>
     efe: 26 13        	rol	$13                     ; 0x2013 <end_block9+0x1029>
     f00: 06 12        	asl	$12                     ; 0x2012 <end_block9+0x1028>
     f02: 26 13        	rol	$13                     ; 0x2013 <end_block9+0x1029>
     f04: a4 13        	ldy	$13                     ; 0x2013 <end_block9+0x1029>
     f06: 84 0f        	sty	$f                      ; 0x200f <end_block9+0x1025>
     f08: a4 6c        	ldy	$6c                     ; 0x206c <end_block9+0x1082>
     f0a: 09 e0        	ora	#$e0
     f0c: 86 12        	stx	$12                     ; 0x2012 <end_block9+0x1028>
     f0e: 85 13        	sta	$13                     ; 0x2013 <end_block9+0x1029>
     f10: 98           	tya
     f11: 92 12        	sta	($12)                   ; 0x2012 <end_block9+0x1028>
     f13: a6 15        	ldx	$15                     ; 0x2015 <end_block9+0x102b>
     f15: 86 0f        	stx	$f                      ; 0x200f <end_block9+0x1025>
     f17: 58           	cli
     f18: a2 67        	ldx	#$67
     f1a: 86 12        	stx	$12                     ; 0x2012 <end_block9+0x1028>
     f1c: a2 00        	ldx	#$0
     f1e: 86 13        	stx	$13                     ; 0x2013 <end_block9+0x1029>
     f20: 80 17        	bra	$f39 <f256main+0x7ba>
     f22: 18           	clc
     f23: a5 10        	lda	$10                     ; 0x2010 <end_block9+0x1026>
     f25: 69 0c        	adc	#$c
     f27: 85 14        	sta	$14                     ; 0x2014 <end_block9+0x102a>
     f29: a5 11        	lda	$11                     ; 0x2011 <end_block9+0x1027>
     f2b: 69 00        	adc	#$0
     f2d: 85 15        	sta	$15                     ; 0x2015 <end_block9+0x102b>
     f2f: 20 0c ff     	jsr	$ff0c <end_block9+0xef22>
     f32: 92 14        	sta	($14)                   ; 0x2014 <end_block9+0x102a>
     f34: a9 00        	lda	#$0
     f36: 6a           	ror
     f37: 85 12        	sta	$12                     ; 0x2012 <end_block9+0x1028>
     f39: 64 60        	stz	$60                     ; 0x2060 <end_block9+0x1076>
     f3b: 18           	clc
     f3c: a5 10        	lda	$10                     ; 0x2010 <end_block9+0x1026>
     f3e: 69 0d        	adc	#$d
     f40: 85 14        	sta	$14                     ; 0x2014 <end_block9+0x102a>
     f42: a5 11        	lda	$11                     ; 0x2011 <end_block9+0x1027>
     f44: 69 00        	adc	#$0
     f46: 85 15        	sta	$15                     ; 0x2015 <end_block9+0x102b>
     f48: 20 00 ff     	jsr	$ff00 <end_block9+0xef16>
     f4b: 92 14        	sta	($14)                   ; 0x2014 <end_block9+0x102a>
     f4d: a9 00        	lda	#$0
     f4f: 6a           	ror
     f50: 85 12        	sta	$12                     ; 0x2012 <end_block9+0x1028>
     f52: a6 67        	ldx	$67                     ; 0x2067 <end_block9+0x107d>
     f54: d0 cc        	bne	$f22 <f256main+0x7a3>
     f56: a6 60        	ldx	$60                     ; 0x2060 <end_block9+0x1076>
     f58: e0 08        	cpx	#$8
     f5a: d0 dd        	bne	$f39 <f256main+0x7ba>
     f5c: a6 66        	ldx	$66                     ; 0x2066 <end_block9+0x107c>
     f5e: d0 d9        	bne	$f39 <f256main+0x7ba>
     f60: a9 00        	lda	#$0
     f62: a2 01        	ldx	#$1
     f64: a8           	tay
     f65: 80 27        	bra	$f8e <f256main+0x80f>
     f67: a0 00        	ldy	#$0
     f69: 8e a6 d6     	stx	$d6a6                   ; 0xd6a6 <end_block9+0xc6bc>
     f6c: ad a4 d6     	lda	$d6a4                   ; 0xd6a4 <end_block9+0xc6ba>
     f6f: ad a5 d6     	lda	$d6a5                   ; 0xd6a5 <end_block9+0xc6bb>
     f72: 8e a6 d6     	stx	$d6a6                   ; 0xd6a6 <end_block9+0xc6bc>
     f75: ad a4 d6     	lda	$d6a4                   ; 0xd6a4 <end_block9+0xc6ba>
     f78: ad a5 d6     	lda	$d6a5                   ; 0xd6a5 <end_block9+0xc6bb>
     f7b: 8e a6 d6     	stx	$d6a6                   ; 0xd6a6 <end_block9+0xc6bc>
     f7e: ad a4 d6     	lda	$d6a4                   ; 0xd6a4 <end_block9+0xc6ba>
     f81: ad a5 d6     	lda	$d6a5                   ; 0xd6a5 <end_block9+0xc6bb>
     f84: 8e a6 d6     	stx	$d6a6                   ; 0xd6a6 <end_block9+0xc6bc>
     f87: ad a4 d6     	lda	$d6a4                   ; 0xd6a4 <end_block9+0xc6ba>
     f8a: ad a5 d6     	lda	$d6a5                   ; 0xd6a5 <end_block9+0xc6bb>
     f8d: 98           	tya
     f8e: c8           	iny
     f8f: 85 6c        	sta	$6c                     ; 0x206c <end_block9+0x1082>
     f91: c0 10        	cpy	#$10
     f93: d0 d4        	bne	$f69 <f256main+0x7ea>
     f95: 80 d0        	bra	$f67 <f256main+0x7e8>

00000f97 <exit>:
     f97: 20 47 03     	jsr	$347 <_fini>
     f9a: 80 fe        	bra	$f9a <exit+0x3>

00000f9c <memcpy>:
     f9c: a8           	tay
     f9d: 8a           	txa
     f9e: d0 03        	bne	$fa3 <memcpy+0x7>
     fa0: 98           	tya
     fa1: f0 24        	beq	$fc7 <memcpy+0x2b>
     fa3: a5 12        	lda	$12                     ; 0x2012 <end_block9+0x1028>
     fa5: 85 16        	sta	$16                     ; 0x2016 <end_block9+0x102c>
     fa7: a5 13        	lda	$13                     ; 0x2013 <end_block9+0x1029>
     fa9: 85 17        	sta	$17                     ; 0x2017 <end_block9+0x102d>
     fab: b2 14        	lda	($14)                   ; 0x2014 <end_block9+0x102a>
     fad: 92 16        	sta	($16)                   ; 0x2016 <end_block9+0x102c>
     faf: e6 16        	inc	$16                     ; 0x2016 <end_block9+0x102c>
     fb1: d0 02        	bne	$fb5 <memcpy+0x19>
     fb3: e6 17        	inc	$17                     ; 0x2017 <end_block9+0x102d>
     fb5: e6 14        	inc	$14                     ; 0x2014 <end_block9+0x102a>
     fb7: d0 02        	bne	$fbb <memcpy+0x1f>
     fb9: e6 15        	inc	$15                     ; 0x2015 <end_block9+0x102b>
     fbb: 88           	dey
     fbc: c0 ff        	cpy	#$ff
     fbe: d0 01        	bne	$fc1 <memcpy+0x25>
     fc0: ca           	dex
     fc1: 8a           	txa
     fc2: d0 e7        	bne	$fab <memcpy+0xf>
     fc4: 98           	tya
     fc5: d0 e4        	bne	$fab <memcpy+0xf>
     fc7: 60           	rts

00000fc8 <__memset>:
     fc8: a4 14        	ldy	$14                     ; 0x2014 <end_block9+0x102a>
     fca: d0 04        	bne	$fd0 <__memset+0x8>
     fcc: e0 00        	cpx	#$0
     fce: f0 17        	beq	$fe7 <__memset+0x1f>
     fd0: 92 12        	sta	($12)                   ; 0x2012 <end_block9+0x1028>
     fd2: e6 12        	inc	$12                     ; 0x2012 <end_block9+0x1028>
     fd4: d0 02        	bne	$fd8 <__memset+0x10>
     fd6: e6 13        	inc	$13                     ; 0x2013 <end_block9+0x1029>
     fd8: ca           	dex
     fd9: e0 ff        	cpx	#$ff
     fdb: d0 02        	bne	$fdf <__memset+0x17>
     fdd: c6 14        	dec	$14                     ; 0x2014 <end_block9+0x102a>
     fdf: a4 14        	ldy	$14                     ; 0x2014 <end_block9+0x102a>
     fe1: d0 ed        	bne	$fd0 <__memset+0x8>
     fe3: e0 00        	cpx	#$0
     fe5: d0 e9        	bne	$fd0 <__memset+0x8>
     fe7: 60           	rts
