
sidtweak.elf:	file format elf32-mos

SYMBOL TABLE:
00000000 l    df *ABS*	00000000 zero-bss.c
00000000 l    df *ABS*	00000000 zero-zp-bss.c
00000000 l    df *ABS*	00000000 copy-zp-data.c
00000000 l    df *ABS*	00000000 ld-temp.o
00000038 l     O .zp.bss	00000007 kernelEventData
00000030 l     O .zp.data	00000001 _ccolor
000039e7 l     O .rodata	00000030 textColors
0000003f l     O .zp.bss	00000001 _col
00000040 l     O .zp.bss	00000001 _row
00003a28 l     O .bss	00000004 _BITMAP_BASE.0
00003a2c l     O .bss	00000004 _BITMAP_BASE.1
00003a30 l     O .bss	00000004 _BITMAP_BASE.2
00003a27 l     O .bss	00000001 kernelError
00003a35 l     O .bss	00000070 sid_fields
00001fe2 l     F .text	0000036f textPrint
00002805 l     F .text	00000c2c printf
00002351 l     F .text	000002c8 updateValues
00000043 l     O .zp.bss	00000001 exitCode
00000044 l     O .zp.bss	00000001 indexUI
0000347d l     F .text	0000000b __ashlqi3
00003a17 l     O .rodata	00000010 navWSJumps
00003a34 l     O .bss	00000001 shiftTog
00000032 l     O .zp.bss	00000006 polySIDBuffer
0000368f l     O .rodata	00000006 sidChoiceToVoice
00003987 l     O .rodata	00000060 sidLow
0000379e l     O .rodata	00000060 sidHigh
00000031 l     O .zp.bss	00000001 chipAct.0
00003695 l     O .rodata	00000058 noteColors
0000261e l     F .text	000000db _ZN12_GLOBAL__N_13putEcP6Status
00000041 l     O .zp.bss	00000002 __putchar.s
000026f9 l     F .text	0000010c _ZN12_GLOBAL__N_112print_stringEPKcP6Status
00000356 g     F .text	00001c8c main
000303fc g       .pianopal	00000000 pianopal_end
00043000 g       .keys	00000000 keys_end
00030000 g       .pianopal	00000000 pianopal_start
00030400 g       .keys	00000000 keys_start
00000315 g       .text	00000000 __after_main
00000301 g       .text	00000000 __do_init_stack
0000030f g       .text	00000000 __do_copy_zp_data
0000033f g     F .text	00000017 __copy_zp_data
00000309 g       .text	00000000 __do_zero_bss
00000319 g     F .text	00000013 __zero_bss
0000030c g       .text	00000000 __do_zero_zp_bss
0000032c g     F .text	00000013 __zero_zp_bss
00002619 g     F .text	00000005 exit
00000318 g       .text	00000000 _fini
00003488 g       .rodata	00000000 __set_v
0000345d  w    F .text	00000020 __memset
00001000  w      *ABS*	00000000 __heap_default_limit
00003aa6 g       .noinit	00000000 __heap_start
00003431  w    F .text	0000002c memcpy
00000010 g       *ABS*	00000000 __rc0
00000012 g       *ABS*	00000000 __rc2
00000014 g       *ABS*	00000000 __rc4
00000016 g       *ABS*	00000000 __rc6
00000018 g       *ABS*	00000000 __rc8
0000001a g       *ABS*	00000000 __rc10
0000001c g       *ABS*	00000000 __rc12
0000001e g       *ABS*	00000000 __rc14
00000020 g       *ABS*	00000000 __rc16
00000022 g       *ABS*	00000000 __rc18
00000024 g       *ABS*	00000000 __rc20
00000026 g       *ABS*	00000000 __rc22
00000028 g       *ABS*	00000000 __rc24
0000002a g       *ABS*	00000000 __rc26
0000002c g       *ABS*	00000000 __rc28
0000002e g       *ABS*	00000000 __rc30
0000002f g       *ABS*	00000000 __rc31
00000300 g       *ABS*	00000000 __f256_start
0000c000 g       *ABS*	00000000 __stack
0000c000 g       *ABS*	00000000 __SLOT_ADDR
0800c000 g       *ABS*	00000000 __block8_lma
00002000 g       *ABS*	00000000 __BLOCK_SIZE
0900c000 g       *ABS*	00000000 __block9_lma
0a00c000 g       *ABS*	00000000 __block10_lma
0b00c000 g       *ABS*	00000000 __block11_lma
0c00c000 g       *ABS*	00000000 __block12_lma
0d00c000 g       *ABS*	00000000 __block13_lma
0e00c000 g       *ABS*	00000000 __block14_lma
0f00c000 g       *ABS*	00000000 __block15_lma
1000c000 g       *ABS*	00000000 __block16_lma
1100c000 g       *ABS*	00000000 __block17_lma
1200c000 g       *ABS*	00000000 __block18_lma
1300c000 g       *ABS*	00000000 __block19_lma
1400c000 g       *ABS*	00000000 __block20_lma
1500c000 g       *ABS*	00000000 __block21_lma
1600c000 g       *ABS*	00000000 __block22_lma
1700c000 g       *ABS*	00000000 __block23_lma
00030000 g       *ABS*	00000000 __pianopal_lma
000003fc g       *ABS*	00000000 __pianopal_size
00030400 g       *ABS*	00000000 __keys_lma
00012c00 g       *ABS*	00000000 __keys_size
00003a27 g       .bss	00000000 __bss_start
000303fc g       .pianopal	00000000 end_pianopal
00043000 g       .keys	00000000 end_keys
00000301 g       .text	00000000 _start
0000002d g       *ABS*	00000000 __rc29
0000002b g       *ABS*	00000000 __rc27
00000029 g       *ABS*	00000000 __rc25
00000027 g       *ABS*	00000000 __rc23
00000025 g       *ABS*	00000000 __rc21
00000023 g       *ABS*	00000000 __rc19
00000021 g       *ABS*	00000000 __rc17
0000001f g       *ABS*	00000000 __rc15
0000001d g       *ABS*	00000000 __rc13
0000001b g       *ABS*	00000000 __rc11
00000019 g       *ABS*	00000000 __rc9
00000017 g       *ABS*	00000000 __rc7
00000015 g       *ABS*	00000000 __rc5
00000013 g       *ABS*	00000000 __rc3
00000011 g       *ABS*	00000000 __rc1
00000030 g       .zp.data	00000000 __zp_data_start
00000300 g       *ABS*	00000000 __zp_data_load_start
00000001 g       *ABS*	00000000 __zp_data_size
00000031 g       .zp.bss	00000000 __zp_bss_start
00000014 g       *ABS*	00000000 __zp_bss_size
00000301 g       .text	00000000 _init
00003488 g       .text	00000000 __init_array_start
00003488 g       .text	00000000 __init_array_end
00003488 g       .text	00000000 __fini_array_start
00003488 g       .text	00000000 __fini_array_end
00003a27 g       .data	00000000 __data_start
00003a27 g       .data	00000000 __data_end
00003a27 g       *ABS*	00000000 __data_load_start
00000000 g       *ABS*	00000000 __data_size
00003aa5 g       .bss	00000000 __bss_end
0000007e g       *ABS*	00000000 __bss_size
00003aa5 g       .noinit	00000000 end_block8
00003aa5 g       .noinit	00000000 end_block9
00003aa5 g       .noinit	00000000 end_block10
00003aa5 g       .noinit	00000000 end_block11
00003aa5 g       .noinit	00000000 end_block12
00003aa5 g       .noinit	00000000 end_block13
00003aa5 g       .noinit	00000000 end_block14
00003aa5 g       .noinit	00000000 end_block15
00003aa5 g       .noinit	00000000 end_block16
00003aa5 g       .noinit	00000000 end_block17
00003aa5 g       .noinit	00000000 end_block18
00003aa5 g       .noinit	00000000 end_block19
00003aa5 g       .noinit	00000000 end_block20
00003aa5 g       .noinit	00000000 end_block21
00003aa5 g       .noinit	00000000 end_block22
00003aa5 g       .noinit	00000000 end_block23

Disassembly of section .text:

00000301 <_start>:
     301: a9 00        	lda	#$0
     303: 85 10        	sta	$10                     ; 0x2010 <textPrint+0x2e>
     305: a9 c0        	lda	#$c0
     307: 85 11        	sta	$11                     ; 0x2011 <textPrint+0x2f>

00000309 <__do_zero_bss>:
     309: 20 19 03     	jsr	$319 <__zero_bss>

0000030c <__do_zero_zp_bss>:
     30c: 20 2c 03     	jsr	$32c <__zero_zp_bss>

0000030f <__do_copy_zp_data>:
     30f: 20 3f 03     	jsr	$33f <__copy_zp_data>
     312: 20 56 03     	jsr	$356 <main>

00000315 <__after_main>:
     315: 4c 19 26     	jmp	$2619 <exit>

00000318 <_fini>:
     318: 60           	rts

00000319 <__zero_bss>:
     319: a2 7e        	ldx	#$7e
     31b: a0 00        	ldy	#$0
     31d: a9 27        	lda	#$27
     31f: 85 12        	sta	$12                     ; 0x2012 <textPrint+0x30>
     321: a9 3a        	lda	#$3a
     323: 85 13        	sta	$13                     ; 0x2013 <textPrint+0x31>
     325: a9 00        	lda	#$0
     327: 84 14        	sty	$14                     ; 0x2014 <textPrint+0x32>
     329: 4c 5d 34     	jmp	$345d <__memset>

0000032c <__zero_zp_bss>:
     32c: a2 14        	ldx	#$14
     32e: a0 00        	ldy	#$0
     330: a9 31        	lda	#$31
     332: 85 12        	sta	$12                     ; 0x2012 <textPrint+0x30>
     334: a9 00        	lda	#$0
     336: 85 13        	sta	$13                     ; 0x2013 <textPrint+0x31>
     338: a9 00        	lda	#$0
     33a: 84 14        	sty	$14                     ; 0x2014 <textPrint+0x32>
     33c: 4c 5d 34     	jmp	$345d <__memset>

0000033f <__copy_zp_data>:
     33f: a9 01        	lda	#$1
     341: a2 00        	ldx	#$0
     343: a0 30        	ldy	#$30
     345: 84 12        	sty	$12                     ; 0x2012 <textPrint+0x30>
     347: a0 00        	ldy	#$0
     349: 84 13        	sty	$13                     ; 0x2013 <textPrint+0x31>
     34b: a0 00        	ldy	#$0
     34d: 84 14        	sty	$14                     ; 0x2014 <textPrint+0x32>
     34f: a0 03        	ldy	#$3
     351: 84 15        	sty	$15                     ; 0x2015 <textPrint+0x33>
     353: 4c 31 34     	jmp	$3431 <memcpy>

00000356 <main>:
     356: 18           	clc
     357: a5 10        	lda	$10                     ; 0x2010 <textPrint+0x2e>
     359: 69 ef        	adc	#$ef
     35b: 85 10        	sta	$10                     ; 0x2010 <textPrint+0x2e>
     35d: a5 11        	lda	$11                     ; 0x2011 <textPrint+0x2f>
     35f: 69 ff        	adc	#$ff
     361: 85 11        	sta	$11                     ; 0x2011 <textPrint+0x2f>
     363: a6 24        	ldx	$24                     ; 0x2024 <textPrint+0x42>
     365: da           	phx
     366: a6 25        	ldx	$25                     ; 0x2025 <textPrint+0x43>
     368: da           	phx
     369: a6 26        	ldx	$26                     ; 0x2026 <textPrint+0x44>
     36b: da           	phx
     36c: a6 27        	ldx	$27                     ; 0x2027 <textPrint+0x45>
     36e: da           	phx
     36f: a5 28        	lda	$28                     ; 0x2028 <textPrint+0x46>
     371: a0 02        	ldy	#$2
     373: 91 10        	sta	($10),y                 ; 0x2010 <textPrint+0x2e>
     375: 64 1c        	stz	$1c                     ; 0x201c <textPrint+0x3a>
     377: a2 00        	ldx	#$0
     379: 86 1a        	stx	$1a                     ; 0x201a <textPrint+0x38>
     37b: a2 d0        	ldx	#$d0
     37d: 86 1b        	stx	$1b                     ; 0x201b <textPrint+0x39>
     37f: a2 00        	ldx	#$0
     381: 86 16        	stx	$16                     ; 0x2016 <textPrint+0x34>
     383: a2 d8        	ldx	#$d8
     385: 86 17        	stx	$17                     ; 0x2017 <textPrint+0x35>
     387: a2 00        	ldx	#$0
     389: 86 18        	stx	$18                     ; 0x2018 <textPrint+0x36>
     38b: a2 d4        	ldx	#$d4
     38d: 86 19        	stx	$19                     ; 0x2019 <textPrint+0x37>
     38f: a2 00        	ldx	#$0
     391: 86 14        	stx	$14                     ; 0x2014 <textPrint+0x32>
     393: a2 dc        	ldx	#$dc
     395: 86 15        	stx	$15                     ; 0x2015 <textPrint+0x33>
     397: a2 00        	ldx	#$0
     399: 86 12        	stx	$12                     ; 0x2012 <textPrint+0x30>
     39b: a2 c0        	ldx	#$c0
     39d: 86 13        	stx	$13                     ; 0x2013 <textPrint+0x31>
     39f: 64 01        	stz	$1                      ; 0x2001 <textPrint+0x1f>
     3a1: a2 3f        	ldx	#$3f
     3a3: 8e 00 d0     	stx	$d000                   ; 0xd000 <__heap_start+0x955a>
     3a6: a2 b3        	ldx	#$b3
     3a8: 86 00        	stx	$0                      ; 0x2000 <textPrint+0x1e>
     3aa: 64 08        	stz	$8                      ; 0x2008 <textPrint+0x26>
     3ac: a2 01        	ldx	#$1
     3ae: 86 09        	stx	$9                      ; 0x2009 <textPrint+0x27>
     3b0: e8           	inx
     3b1: 86 0a        	stx	$a                      ; 0x200a <textPrint+0x28>
     3b3: e8           	inx
     3b4: 86 0b        	stx	$b                      ; 0x200b <textPrint+0x29>
     3b6: e8           	inx
     3b7: 86 0c        	stx	$c                      ; 0x200c <textPrint+0x2a>
     3b9: e8           	inx
     3ba: 86 0d        	stx	$d                      ; 0x200d <textPrint+0x2b>
     3bc: a2 38        	ldx	#$38
     3be: a9 00        	lda	#$0
     3c0: 86 f0        	stx	$f0                     ; 0x20f0 <textPrint+0x10e>
     3c2: 85 f1        	sta	$f1                     ; 0x20f1 <textPrint+0x10f>
     3c4: a6 01        	ldx	$1                      ; 0x2001 <textPrint+0x1f>
     3c6: a0 01        	ldy	#$1
     3c8: 84 01        	sty	$1                      ; 0x2001 <textPrint+0x1f>
     3ca: a5 1c        	lda	$1c                     ; 0x201c <textPrint+0x3a>
     3cc: 92 1a        	sta	($1a)                   ; 0x201a <textPrint+0x38>
     3ce: 91 1a        	sta	($1a),y                 ; 0x201a <textPrint+0x38>
     3d0: c8           	iny
     3d1: 91 1a        	sta	($1a),y                 ; 0x201a <textPrint+0x38>
     3d3: c8           	iny
     3d4: a9 ff        	lda	#$ff
     3d6: 91 1a        	sta	($1a),y                 ; 0x201a <textPrint+0x38>
     3d8: 86 01        	stx	$1                      ; 0x2001 <textPrint+0x1f>
     3da: a5 1a        	lda	$1a                     ; 0x201a <textPrint+0x38>
     3dc: 18           	clc
     3dd: 69 04        	adc	#$4
     3df: 85 1a        	sta	$1a                     ; 0x201a <textPrint+0x38>
     3e1: a5 1b        	lda	$1b                     ; 0x201b <textPrint+0x39>
     3e3: 69 00        	adc	#$0
     3e5: e6 1c        	inc	$1c                     ; 0x201c <textPrint+0x3a>
     3e7: 85 1b        	sta	$1b                     ; 0x201b <textPrint+0x39>
     3e9: d0 d9        	bne	$3c4 <main+0x6e>
     3eb: a9 00        	lda	#$0
     3ed: a6 01        	ldx	$1                      ; 0x2001 <textPrint+0x1f>
     3ef: a0 01        	ldy	#$1
     3f1: 84 01        	sty	$1                      ; 0x2001 <textPrint+0x1f>
     3f3: 92 18        	sta	($18)                   ; 0x2018 <textPrint+0x36>
     3f5: 91 18        	sta	($18),y                 ; 0x2018 <textPrint+0x36>
     3f7: c8           	iny
     3f8: 91 18        	sta	($18),y                 ; 0x2018 <textPrint+0x36>
     3fa: c8           	iny
     3fb: 85 1a        	sta	$1a                     ; 0x201a <textPrint+0x38>
     3fd: a9 ff        	lda	#$ff
     3ff: 91 18        	sta	($18),y                 ; 0x2018 <textPrint+0x36>
     401: 86 01        	stx	$1                      ; 0x2001 <textPrint+0x1f>
     403: a5 18        	lda	$18                     ; 0x2018 <textPrint+0x36>
     405: 18           	clc
     406: 69 04        	adc	#$4
     408: 85 18        	sta	$18                     ; 0x2018 <textPrint+0x36>
     40a: a5 19        	lda	$19                     ; 0x2019 <textPrint+0x37>
     40c: 69 00        	adc	#$0
     40e: e6 1a        	inc	$1a                     ; 0x201a <textPrint+0x38>
     410: 85 19        	sta	$19                     ; 0x2019 <textPrint+0x37>
     412: a5 1a        	lda	$1a                     ; 0x201a <textPrint+0x38>
     414: d0 d7        	bne	$3ed <main+0x97>
     416: a9 00        	lda	#$0
     418: a6 01        	ldx	$1                      ; 0x2001 <textPrint+0x1f>
     41a: a0 01        	ldy	#$1
     41c: 84 01        	sty	$1                      ; 0x2001 <textPrint+0x1f>
     41e: 92 16        	sta	($16)                   ; 0x2016 <textPrint+0x34>
     420: 91 16        	sta	($16),y                 ; 0x2016 <textPrint+0x34>
     422: c8           	iny
     423: 91 16        	sta	($16),y                 ; 0x2016 <textPrint+0x34>
     425: c8           	iny
     426: 85 18        	sta	$18                     ; 0x2018 <textPrint+0x36>
     428: a9 ff        	lda	#$ff
     42a: 91 16        	sta	($16),y                 ; 0x2016 <textPrint+0x34>
     42c: 86 01        	stx	$1                      ; 0x2001 <textPrint+0x1f>
     42e: a5 16        	lda	$16                     ; 0x2016 <textPrint+0x34>
     430: 18           	clc
     431: 69 04        	adc	#$4
     433: 85 16        	sta	$16                     ; 0x2016 <textPrint+0x34>
     435: a5 17        	lda	$17                     ; 0x2017 <textPrint+0x35>
     437: 69 00        	adc	#$0
     439: e6 18        	inc	$18                     ; 0x2018 <textPrint+0x36>
     43b: 85 17        	sta	$17                     ; 0x2017 <textPrint+0x35>
     43d: a5 18        	lda	$18                     ; 0x2018 <textPrint+0x36>
     43f: d0 d7        	bne	$418 <main+0xc2>
     441: a9 00        	lda	#$0
     443: a6 01        	ldx	$1                      ; 0x2001 <textPrint+0x1f>
     445: a0 01        	ldy	#$1
     447: 84 01        	sty	$1                      ; 0x2001 <textPrint+0x1f>
     449: 92 14        	sta	($14)                   ; 0x2014 <textPrint+0x32>
     44b: 91 14        	sta	($14),y                 ; 0x2014 <textPrint+0x32>
     44d: c8           	iny
     44e: 91 14        	sta	($14),y                 ; 0x2014 <textPrint+0x32>
     450: c8           	iny
     451: 85 16        	sta	$16                     ; 0x2016 <textPrint+0x34>
     453: a9 ff        	lda	#$ff
     455: 91 14        	sta	($14),y                 ; 0x2014 <textPrint+0x32>
     457: 86 01        	stx	$1                      ; 0x2001 <textPrint+0x1f>
     459: a5 14        	lda	$14                     ; 0x2014 <textPrint+0x32>
     45b: 18           	clc
     45c: 69 04        	adc	#$4
     45e: 85 14        	sta	$14                     ; 0x2014 <textPrint+0x32>
     460: a5 15        	lda	$15                     ; 0x2015 <textPrint+0x33>
     462: 69 00        	adc	#$0
     464: e6 16        	inc	$16                     ; 0x2016 <textPrint+0x34>
     466: 85 15        	sta	$15                     ; 0x2015 <textPrint+0x33>
     468: a5 16        	lda	$16                     ; 0x2016 <textPrint+0x34>
     46a: d0 d7        	bne	$443 <main+0xed>
     46c: ad 02 d0     	lda	$d002                   ; 0xd002 <__heap_start+0x955c>
     46f: a2 f0        	ldx	#$f0
     471: 29 f0        	and	#$f0
     473: 8d 02 d0     	sta	$d002                   ; 0xd002 <__heap_start+0x955c>
     476: ad 02 d0     	lda	$d002                   ; 0xd002 <__heap_start+0x955c>
     479: 29 0f        	and	#$f
     47b: 09 10        	ora	#$10
     47d: 8d 02 d0     	sta	$d002                   ; 0xd002 <__heap_start+0x955c>
     480: a0 02        	ldy	#$2
     482: 8c 03 d0     	sty	$d003                   ; 0xd003 <__heap_start+0x955d>
     485: 86 30        	stx	$30                     ; 0x2030 <textPrint+0x4e>
     487: ad 01 d0     	lda	$d001                   ; 0xd001 <__heap_start+0x955b>
     48a: 29 f9        	and	#$f9
     48c: 09 04        	ora	#$4
     48e: 8d 01 d0     	sta	$d001                   ; 0xd001 <__heap_start+0x955b>
     491: 64 14        	stz	$14                     ; 0x2014 <textPrint+0x32>
     493: 9c 10 d0     	stz	$d010                   ; 0xd010 <__heap_start+0x956a>
     496: a2 00        	ldx	#$0
     498: 64 15        	stz	$15                     ; 0x2015 <textPrint+0x33>
     49a: 86 18        	stx	$18                     ; 0x2018 <textPrint+0x36>
     49c: a4 18        	ldy	$18                     ; 0x2018 <textPrint+0x36>
     49e: be e7 39     	ldx	$39e7,y                 ; 0x39e7 <textColors>
     4a1: 86 19        	stx	$19                     ; 0x2019 <textPrint+0x37>
     4a3: be e8 39     	ldx	$39e8,y                 ; 0x39e8 <textColors+0x1>
     4a6: 86 1a        	stx	$1a                     ; 0x201a <textPrint+0x38>
     4a8: be e9 39     	ldx	$39e9,y                 ; 0x39e9 <textColors+0x2>
     4ab: 86 1b        	stx	$1b                     ; 0x201b <textPrint+0x39>
     4ad: a6 15        	ldx	$15                     ; 0x2015 <textPrint+0x33>
     4af: 8e 00 de     	stx	$de00                   ; 0xde00 <__heap_start+0xa35a>
     4b2: 86 17        	stx	$17                     ; 0x2017 <textPrint+0x35>
     4b4: 9c 01 de     	stz	$de01                   ; 0xde01 <__heap_start+0xa35b>
     4b7: a2 04        	ldx	#$4
     4b9: 8e 02 de     	stx	$de02                   ; 0xde02 <__heap_start+0xa35c>
     4bc: 9c 03 de     	stz	$de03                   ; 0xde03 <__heap_start+0xa35d>
     4bf: ad 10 de     	lda	$de10                   ; 0xde10 <__heap_start+0xa36a>
     4c2: ac 11 de     	ldy	$de11                   ; 0xde11 <__heap_start+0xa36b>
     4c5: 84 15        	sty	$15                     ; 0x2015 <textPrint+0x33>
     4c7: ac 12 de     	ldy	$de12                   ; 0xde12 <__heap_start+0xa36c>
     4ca: ac 13 de     	ldy	$de13                   ; 0xde13 <__heap_start+0xa36d>
     4cd: 18           	clc
     4ce: 65 14        	adc	$14                     ; 0x2014 <textPrint+0x32>
     4d0: 85 16        	sta	$16                     ; 0x2016 <textPrint+0x34>
     4d2: a6 17        	ldx	$17                     ; 0x2017 <textPrint+0x35>
     4d4: a9 d8        	lda	#$d8
     4d6: 65 15        	adc	$15                     ; 0x2015 <textPrint+0x33>
     4d8: 85 17        	sta	$17                     ; 0x2017 <textPrint+0x35>
     4da: a5 1b        	lda	$1b                     ; 0x201b <textPrint+0x39>
     4dc: 92 16        	sta	($16)                   ; 0x2016 <textPrint+0x34>
     4de: a0 01        	ldy	#$1
     4e0: a5 1a        	lda	$1a                     ; 0x201a <textPrint+0x38>
     4e2: 91 16        	sta	($16),y                 ; 0x2016 <textPrint+0x34>
     4e4: c8           	iny
     4e5: a5 19        	lda	$19                     ; 0x2019 <textPrint+0x37>
     4e7: 91 16        	sta	($16),y                 ; 0x2016 <textPrint+0x34>
     4e9: c8           	iny
     4ea: a9 ff        	lda	#$ff
     4ec: 91 16        	sta	($16),y                 ; 0x2016 <textPrint+0x34>
     4ee: 8e 00 de     	stx	$de00                   ; 0xde00 <__heap_start+0xa35a>
     4f1: 9c 01 de     	stz	$de01                   ; 0xde01 <__heap_start+0xa35b>
     4f4: c8           	iny
     4f5: 8c 02 de     	sty	$de02                   ; 0xde02 <__heap_start+0xa35c>
     4f8: 9c 03 de     	stz	$de03                   ; 0xde03 <__heap_start+0xa35d>
     4fb: ad 10 de     	lda	$de10                   ; 0xde10 <__heap_start+0xa36a>
     4fe: 85 15        	sta	$15                     ; 0x2015 <textPrint+0x33>
     500: ad 11 de     	lda	$de11                   ; 0xde11 <__heap_start+0xa36b>
     503: 85 16        	sta	$16                     ; 0x2016 <textPrint+0x34>
     505: a9 40        	lda	#$40
     507: 18           	clc
     508: 65 15        	adc	$15                     ; 0x2015 <textPrint+0x33>
     50a: a8           	tay
     50b: a9 d8        	lda	#$d8
     50d: 65 16        	adc	$16                     ; 0x2016 <textPrint+0x34>
     50f: 85 17        	sta	$17                     ; 0x2017 <textPrint+0x35>
     511: 84 16        	sty	$16                     ; 0x2016 <textPrint+0x34>
     513: ad 12 de     	lda	$de12                   ; 0xde12 <__heap_start+0xa36c>
     516: ad 13 de     	lda	$de13                   ; 0xde13 <__heap_start+0xa36d>
     519: a5 1b        	lda	$1b                     ; 0x201b <textPrint+0x39>
     51b: 92 16        	sta	($16)                   ; 0x2016 <textPrint+0x34>
     51d: a5 1a        	lda	$1a                     ; 0x201a <textPrint+0x38>
     51f: a0 01        	ldy	#$1
     521: 91 16        	sta	($16),y                 ; 0x2016 <textPrint+0x34>
     523: a5 19        	lda	$19                     ; 0x2019 <textPrint+0x37>
     525: c8           	iny
     526: 91 16        	sta	($16),y                 ; 0x2016 <textPrint+0x34>
     528: c8           	iny
     529: a9 ff        	lda	#$ff
     52b: 91 16        	sta	($16),y                 ; 0x2016 <textPrint+0x34>
     52d: e8           	inx
     52e: 86 15        	stx	$15                     ; 0x2015 <textPrint+0x33>
     530: 18           	clc
     531: a5 18        	lda	$18                     ; 0x2018 <textPrint+0x36>
     533: 69 03        	adc	#$3
     535: aa           	tax
     536: c9 30        	cmp	#$30
     538: f0 03        	beq	$53d <main+0x1e7>
     53a: 4c 9a 04     	jmp	$49a <main+0x144>
     53d: a6 01        	ldx	$1                      ; 0x2001 <textPrint+0x1f>
     53f: 86 18        	stx	$18                     ; 0x2018 <textPrint+0x36>
     541: a2 50        	ldx	#$50
     543: 8e 00 de     	stx	$de00                   ; 0xde00 <__heap_start+0xa35a>
     546: 9c 01 de     	stz	$de01                   ; 0xde01 <__heap_start+0xa35b>
     549: a2 1e        	ldx	#$1e
     54b: 8e 02 de     	stx	$de02                   ; 0xde02 <__heap_start+0xa35c>
     54e: 9c 03 de     	stz	$de03                   ; 0xde03 <__heap_start+0xa35d>
     551: ae 10 de     	ldx	$de10                   ; 0xde10 <__heap_start+0xa36a>
     554: ac 11 de     	ldy	$de11                   ; 0xde11 <__heap_start+0xa36b>
     557: ad 12 de     	lda	$de12                   ; 0xde12 <__heap_start+0xa36c>
     55a: ad 13 de     	lda	$de13                   ; 0xde13 <__heap_start+0xa36d>
     55d: a9 02        	lda	#$2
     55f: 85 01        	sta	$1                      ; 0x2001 <textPrint+0x1f>
     561: e0 01        	cpx	#$1
     563: 98           	tya
     564: e9 00        	sbc	#$0
     566: 50 02        	bvc	$56a <main+0x214>
     568: 49 80        	eor	#$80
     56a: c9 00        	cmp	#$0
     56c: 10 03        	bpl	$571 <main+0x21b>
     56e: 4c cc 05     	jmp	$5cc <main+0x276>
     571: a9 20        	lda	#$20
     573: 86 19        	stx	$19                     ; 0x2019 <textPrint+0x37>
     575: 86 14        	stx	$14                     ; 0x2014 <textPrint+0x32>
     577: 84 15        	sty	$15                     ; 0x2015 <textPrint+0x33>
     579: a2 00        	ldx	#$0
     57b: 86 16        	stx	$16                     ; 0x2016 <textPrint+0x34>
     57d: a2 c0        	ldx	#$c0
     57f: 86 17        	stx	$17                     ; 0x2017 <textPrint+0x35>
     581: 80 04        	bra	$587 <main+0x231>
     583: a6 15        	ldx	$15                     ; 0x2015 <textPrint+0x33>
     585: f0 14        	beq	$59b <main+0x245>
     587: 92 16        	sta	($16)                   ; 0x2016 <textPrint+0x34>
     589: e6 16        	inc	$16                     ; 0x2016 <textPrint+0x34>
     58b: d0 02        	bne	$58f <main+0x239>
     58d: e6 17        	inc	$17                     ; 0x2017 <textPrint+0x35>
     58f: a2 ff        	ldx	#$ff
     591: c6 14        	dec	$14                     ; 0x2014 <textPrint+0x32>
     593: e4 14        	cpx	$14                     ; 0x2014 <textPrint+0x32>
     595: d0 ec        	bne	$583 <main+0x22d>
     597: c6 15        	dec	$15                     ; 0x2015 <textPrint+0x33>
     599: 80 e8        	bra	$583 <main+0x22d>
     59b: a6 14        	ldx	$14                     ; 0x2014 <textPrint+0x32>
     59d: d0 e8        	bne	$587 <main+0x231>
     59f: a2 03        	ldx	#$3
     5a1: 86 01        	stx	$1                      ; 0x2001 <textPrint+0x1f>
     5a3: a6 30        	ldx	$30                     ; 0x2030 <textPrint+0x4e>
     5a5: 86 14        	stx	$14                     ; 0x2014 <textPrint+0x32>
     5a7: a6 19        	ldx	$19                     ; 0x2019 <textPrint+0x37>
     5a9: 80 03        	bra	$5ae <main+0x258>
     5ab: 98           	tya
     5ac: f0 19        	beq	$5c7 <main+0x271>
     5ae: a5 14        	lda	$14                     ; 0x2014 <textPrint+0x32>
     5b0: 92 12        	sta	($12)                   ; 0x2012 <textPrint+0x30>
     5b2: e6 12        	inc	$12                     ; 0x2012 <textPrint+0x30>
     5b4: f0 07        	beq	$5bd <main+0x267>
     5b6: ca           	dex
     5b7: e0 ff        	cpx	#$ff
     5b9: d0 f0        	bne	$5ab <main+0x255>
     5bb: 80 07        	bra	$5c4 <main+0x26e>
     5bd: e6 13        	inc	$13                     ; 0x2013 <textPrint+0x31>
     5bf: ca           	dex
     5c0: e0 ff        	cpx	#$ff
     5c2: d0 e7        	bne	$5ab <main+0x255>
     5c4: 88           	dey
     5c5: 80 e4        	bra	$5ab <main+0x255>
     5c7: 8a           	txa
     5c8: d0 e4        	bne	$5ae <main+0x258>
     5ca: 80 04        	bra	$5d0 <main+0x27a>
     5cc: a2 03        	ldx	#$3
     5ce: 86 01        	stx	$1                      ; 0x2001 <textPrint+0x1f>
     5d0: a6 18        	ldx	$18                     ; 0x2018 <textPrint+0x36>
     5d2: 86 01        	stx	$1                      ; 0x2001 <textPrint+0x1f>
     5d4: 64 3f        	stz	$3f                     ; 0x203f <textPrint+0x5d>
     5d6: 9c 14 d0     	stz	$d014                   ; 0xd014 <__heap_start+0x956e>
     5d9: 9c 15 d0     	stz	$d015                   ; 0xd015 <__heap_start+0x956f>
     5dc: 64 40        	stz	$40                     ; 0x2040 <textPrint+0x5e>
     5de: 9c 16 d0     	stz	$d016                   ; 0xd016 <__heap_start+0x9570>
     5e1: 9c 17 d0     	stz	$d017                   ; 0xd017 <__heap_start+0x9571>
     5e4: a2 40        	ldx	#$40
     5e6: 8e 00 de     	stx	$de00                   ; 0xde00 <__heap_start+0xa35a>
     5e9: a2 01        	ldx	#$1
     5eb: 8e 01 de     	stx	$de01                   ; 0xde01 <__heap_start+0xa35b>
     5ee: a2 f0        	ldx	#$f0
     5f0: 8e 02 de     	stx	$de02                   ; 0xde02 <__heap_start+0xa35c>
     5f3: 9c 03 de     	stz	$de03                   ; 0xde03 <__heap_start+0xa35d>
     5f6: ae 10 de     	ldx	$de10                   ; 0xde10 <__heap_start+0xa36a>
     5f9: 86 17        	stx	$17                     ; 0x2017 <textPrint+0x35>
     5fb: ae 11 de     	ldx	$de11                   ; 0xde11 <__heap_start+0xa36b>
     5fe: 86 12        	stx	$12                     ; 0x2012 <textPrint+0x30>
     600: ae 12 de     	ldx	$de12                   ; 0xde12 <__heap_start+0xa36c>
     603: 86 13        	stx	$13                     ; 0x2013 <textPrint+0x31>
     605: ae 13 de     	ldx	$de13                   ; 0xde13 <__heap_start+0xa36d>
     608: 86 14        	stx	$14                     ; 0x2014 <textPrint+0x32>
     60a: a4 12        	ldy	$12                     ; 0x2012 <textPrint+0x30>
     60c: 84 15        	sty	$15                     ; 0x2015 <textPrint+0x33>
     60e: 06 15        	asl	$15                     ; 0x2015 <textPrint+0x33>
     610: a5 13        	lda	$13                     ; 0x2013 <textPrint+0x31>
     612: 2a           	rol
     613: 86 16        	stx	$16                     ; 0x2016 <textPrint+0x34>
     615: 26 16        	rol	$16                     ; 0x2016 <textPrint+0x34>
     617: 06 15        	asl	$15                     ; 0x2015 <textPrint+0x33>
     619: 2a           	rol
     61a: 26 16        	rol	$16                     ; 0x2016 <textPrint+0x34>
     61c: 06 15        	asl	$15                     ; 0x2015 <textPrint+0x33>
     61e: 2a           	rol
     61f: 26 16        	rol	$16                     ; 0x2016 <textPrint+0x34>
     621: 85 15        	sta	$15                     ; 0x2015 <textPrint+0x33>
     623: 8d 00 de     	sta	$de00                   ; 0xde00 <__heap_start+0xa35a>
     626: a5 16        	lda	$16                     ; 0x2016 <textPrint+0x34>
     628: 8d 01 de     	sta	$de01                   ; 0xde01 <__heap_start+0xa35b>
     62b: 9c 02 de     	stz	$de02                   ; 0xde02 <__heap_start+0xa35c>
     62e: a2 20        	ldx	#$20
     630: 8e 03 de     	stx	$de03                   ; 0xde03 <__heap_start+0xa35d>
     633: ae 10 de     	ldx	$de10                   ; 0xde10 <__heap_start+0xa36a>
     636: 86 16        	stx	$16                     ; 0x2016 <textPrint+0x34>
     638: ae 11 de     	ldx	$de11                   ; 0xde11 <__heap_start+0xa36b>
     63b: 86 18        	stx	$18                     ; 0x2018 <textPrint+0x36>
     63d: ac 12 de     	ldy	$de12                   ; 0xde12 <__heap_start+0xa36c>
     640: ae 13 de     	ldx	$de13                   ; 0xde13 <__heap_start+0xa36d>
     643: e4 14        	cpx	$14                     ; 0x2014 <textPrint+0x32>
     645: d0 14        	bne	$65b <main+0x305>
     647: c4 13        	cpy	$13                     ; 0x2013 <textPrint+0x31>
     649: d0 10        	bne	$65b <main+0x305>
     64b: a6 18        	ldx	$18                     ; 0x2018 <textPrint+0x36>
     64d: e4 12        	cpx	$12                     ; 0x2012 <textPrint+0x30>
     64f: d0 0a        	bne	$65b <main+0x305>
     651: a6 16        	ldx	$16                     ; 0x2016 <textPrint+0x34>
     653: e4 17        	cpx	$17                     ; 0x2017 <textPrint+0x35>
     655: d0 04        	bne	$65b <main+0x305>
     657: a6 15        	ldx	$15                     ; 0x2015 <textPrint+0x33>
     659: 80 06        	bra	$661 <main+0x30b>
     65b: a6 15        	ldx	$15                     ; 0x2015 <textPrint+0x33>
     65d: e8           	inx
     65e: d0 01        	bne	$661 <main+0x30b>
     660: 1a           	inc
     661: 8e 00 de     	stx	$de00                   ; 0xde00 <__heap_start+0xa35a>
     664: 8d 01 de     	sta	$de01                   ; 0xde01 <__heap_start+0xa35b>
     667: 9c 02 de     	stz	$de02                   ; 0xde02 <__heap_start+0xa35c>
     66a: a2 20        	ldx	#$20
     66c: 8e 03 de     	stx	$de03                   ; 0xde03 <__heap_start+0xa35d>
     66f: ae 10 de     	ldx	$de10                   ; 0xde10 <__heap_start+0xa36a>
     672: 86 12        	stx	$12                     ; 0x2012 <textPrint+0x30>
     674: ae 11 de     	ldx	$de11                   ; 0xde11 <__heap_start+0xa36b>
     677: 86 13        	stx	$13                     ; 0x2013 <textPrint+0x31>
     679: ae 12 de     	ldx	$de12                   ; 0xde12 <__heap_start+0xa36c>
     67c: 86 14        	stx	$14                     ; 0x2014 <textPrint+0x32>
     67e: ae 13 de     	ldx	$de13                   ; 0xde13 <__heap_start+0xa36d>
     681: 86 15        	stx	$15                     ; 0x2015 <textPrint+0x33>
     683: a9 00        	lda	#$0
     685: 38           	sec
     686: e5 12        	sbc	$12                     ; 0x2012 <textPrint+0x30>
     688: 85 19        	sta	$19                     ; 0x2019 <textPrint+0x37>
     68a: a9 00        	lda	#$0
     68c: e5 13        	sbc	$13                     ; 0x2013 <textPrint+0x31>
     68e: aa           	tax
     68f: a9 08        	lda	#$8
     691: e5 14        	sbc	$14                     ; 0x2014 <textPrint+0x32>
     693: 85 16        	sta	$16                     ; 0x2016 <textPrint+0x34>
     695: a9 00        	lda	#$0
     697: e5 15        	sbc	$15                     ; 0x2015 <textPrint+0x33>
     699: 8e 29 3a     	stx	$3a29                   ; 0x3a29 <_BITMAP_BASE.0+0x1>
     69c: a4 16        	ldy	$16                     ; 0x2016 <textPrint+0x34>
     69e: 8c 2a 3a     	sty	$3a2a                   ; 0x3a2a <_BITMAP_BASE.0+0x2>
     6a1: 8d 2b 3a     	sta	$3a2b                   ; 0x3a2b <_BITMAP_BASE.0+0x3>
     6a4: a8           	tay
     6a5: a5 19        	lda	$19                     ; 0x2019 <textPrint+0x37>
     6a7: 38           	sec
     6a8: e5 12        	sbc	$12                     ; 0x2012 <textPrint+0x30>
     6aa: 85 18        	sta	$18                     ; 0x2018 <textPrint+0x36>
     6ac: 8a           	txa
     6ad: e5 13        	sbc	$13                     ; 0x2013 <textPrint+0x31>
     6af: 85 1a        	sta	$1a                     ; 0x201a <textPrint+0x38>
     6b1: a5 16        	lda	$16                     ; 0x2016 <textPrint+0x34>
     6b3: e5 14        	sbc	$14                     ; 0x2014 <textPrint+0x32>
     6b5: 85 16        	sta	$16                     ; 0x2016 <textPrint+0x34>
     6b7: 98           	tya
     6b8: e5 15        	sbc	$15                     ; 0x2015 <textPrint+0x33>
     6ba: 85 17        	sta	$17                     ; 0x2017 <textPrint+0x35>
     6bc: 38           	sec
     6bd: a4 18        	ldy	$18                     ; 0x2018 <textPrint+0x36>
     6bf: 8c 2c 3a     	sty	$3a2c                   ; 0x3a2c <_BITMAP_BASE.1>
     6c2: a6 1a        	ldx	$1a                     ; 0x201a <textPrint+0x38>
     6c4: 8e 2d 3a     	stx	$3a2d                   ; 0x3a2d <_BITMAP_BASE.1+0x1>
     6c7: a4 16        	ldy	$16                     ; 0x2016 <textPrint+0x34>
     6c9: 8c 2e 3a     	sty	$3a2e                   ; 0x3a2e <_BITMAP_BASE.1+0x2>
     6cc: 8d 2f 3a     	sta	$3a2f                   ; 0x3a2f <_BITMAP_BASE.1+0x3>
     6cf: a5 18        	lda	$18                     ; 0x2018 <textPrint+0x36>
     6d1: e5 12        	sbc	$12                     ; 0x2012 <textPrint+0x30>
     6d3: 85 18        	sta	$18                     ; 0x2018 <textPrint+0x36>
     6d5: a5 1a        	lda	$1a                     ; 0x201a <textPrint+0x38>
     6d7: e5 13        	sbc	$13                     ; 0x2013 <textPrint+0x31>
     6d9: a8           	tay
     6da: a5 16        	lda	$16                     ; 0x2016 <textPrint+0x34>
     6dc: e5 14        	sbc	$14                     ; 0x2014 <textPrint+0x32>
     6de: 85 12        	sta	$12                     ; 0x2012 <textPrint+0x30>
     6e0: a5 17        	lda	$17                     ; 0x2017 <textPrint+0x35>
     6e2: e5 15        	sbc	$15                     ; 0x2015 <textPrint+0x33>
     6e4: a6 18        	ldx	$18                     ; 0x2018 <textPrint+0x36>
     6e6: 8e 30 3a     	stx	$3a30                   ; 0x3a30 <_BITMAP_BASE.2>
     6e9: 8c 31 3a     	sty	$3a31                   ; 0x3a31 <_BITMAP_BASE.2+0x1>
     6ec: a6 19        	ldx	$19                     ; 0x2019 <textPrint+0x37>
     6ee: 8e 28 3a     	stx	$3a28                   ; 0x3a28 <_BITMAP_BASE.0>
     6f1: a4 12        	ldy	$12                     ; 0x2012 <textPrint+0x30>
     6f3: 8c 32 3a     	sty	$3a32                   ; 0x3a32 <_BITMAP_BASE.2+0x2>
     6f6: 8d 33 3a     	sta	$3a33                   ; 0x3a33 <_BITMAP_BASE.2+0x3>
     6f9: 8e 01 d1     	stx	$d101                   ; 0xd101 <__heap_start+0x965b>
     6fc: ae 29 3a     	ldx	$3a29                   ; 0x3a29 <_BITMAP_BASE.0+0x1>
     6ff: 8e 02 d1     	stx	$d102                   ; 0xd102 <__heap_start+0x965c>
     702: ae 2a 3a     	ldx	$3a2a                   ; 0x3a2a <_BITMAP_BASE.0+0x2>
     705: 8e 03 d1     	stx	$d103                   ; 0xd103 <__heap_start+0x965d>
     708: ae 2c 3a     	ldx	$3a2c                   ; 0x3a2c <_BITMAP_BASE.1>
     70b: 8e 09 d1     	stx	$d109                   ; 0xd109 <__heap_start+0x9663>
     70e: ae 2d 3a     	ldx	$3a2d                   ; 0x3a2d <_BITMAP_BASE.1+0x1>
     711: 8e 0a d1     	stx	$d10a                   ; 0xd10a <__heap_start+0x9664>
     714: ae 2e 3a     	ldx	$3a2e                   ; 0x3a2e <_BITMAP_BASE.1+0x2>
     717: 8e 0b d1     	stx	$d10b                   ; 0xd10b <__heap_start+0x9665>
     71a: ae 30 3a     	ldx	$3a30                   ; 0x3a30 <_BITMAP_BASE.2>
     71d: 8e 11 d1     	stx	$d111                   ; 0xd111 <__heap_start+0x966b>
     720: ae 31 3a     	ldx	$3a31                   ; 0x3a31 <_BITMAP_BASE.2+0x1>
     723: 8e 12 d1     	stx	$d112                   ; 0xd112 <__heap_start+0x966c>
     726: ae 32 3a     	ldx	$3a32                   ; 0x3a32 <_BITMAP_BASE.2+0x2>
     729: 8e 13 d1     	stx	$d113                   ; 0xd113 <__heap_start+0x966d>
     72c: 9c 00 d1     	stz	$d100                   ; 0xd100 <__heap_start+0x965a>
     72f: 9c 08 d1     	stz	$d108                   ; 0xd108 <__heap_start+0x9662>
     732: 9c 10 d1     	stz	$d110                   ; 0xd110 <__heap_start+0x966a>
     735: a2 10        	ldx	#$10
     737: 8e 00 d2     	stx	$d200                   ; 0xd200 <__heap_start+0x975a>
     73a: 8e 0c d2     	stx	$d20c                   ; 0xd20c <__heap_start+0x9766>
     73d: 8e 18 d2     	stx	$d218                   ; 0xd218 <__heap_start+0x9772>
     740: a0 d9        	ldy	#$d9
     742: a2 40        	ldx	#$40
     744: 64 12        	stz	$12                     ; 0x2012 <textPrint+0x30>
     746: 84 13        	sty	$13                     ; 0x2013 <textPrint+0x31>
     748: a9 00        	lda	#$0
     74a: 92 12        	sta	($12)                   ; 0x2012 <textPrint+0x30>
     74c: ca           	dex
     74d: 18           	clc
     74e: a5 12        	lda	$12                     ; 0x2012 <textPrint+0x30>
     750: 69 08        	adc	#$8
     752: 85 12        	sta	$12                     ; 0x2012 <textPrint+0x30>
     754: 98           	tya
     755: 69 00        	adc	#$0
     757: a8           	tay
     758: 8a           	txa
     759: d0 eb        	bne	$746 <main+0x3f0>
     75b: 18           	clc
     75c: a5 10        	lda	$10                     ; 0x2010 <textPrint+0x2e>
     75e: 69 08        	adc	#$8
     760: 85 12        	sta	$12                     ; 0x2012 <textPrint+0x30>
     762: a5 11        	lda	$11                     ; 0x2011 <textPrint+0x2f>
     764: 69 00        	adc	#$0
     766: 85 13        	sta	$13                     ; 0x2013 <textPrint+0x31>
     768: a6 12        	ldx	$12                     ; 0x2012 <textPrint+0x30>
     76a: 86 fb        	stx	$fb                     ; 0x20fb <textPrint+0x119>
     76c: 85 fc        	sta	$fc                     ; 0x20fc <textPrint+0x11a>
     76e: a2 08        	ldx	#$8
     770: 86 fd        	stx	$fd                     ; 0x20fd <textPrint+0x11b>
     772: 18           	clc
     773: a5 10        	lda	$10                     ; 0x2010 <textPrint+0x2e>
     775: 69 07        	adc	#$7
     777: 85 14        	sta	$14                     ; 0x2014 <textPrint+0x32>
     779: a5 11        	lda	$11                     ; 0x2011 <textPrint+0x2f>
     77b: 69 00        	adc	#$0
     77d: 85 15        	sta	$15                     ; 0x2015 <textPrint+0x33>
     77f: a2 27        	ldx	#$27
     781: 86 16        	stx	$16                     ; 0x2016 <textPrint+0x34>
     783: a2 3a        	ldx	#$3a
     785: 86 17        	stx	$17                     ; 0x2017 <textPrint+0x35>
     787: a0 06        	ldy	#$6
     789: 20 dc ff     	jsr	$ffdc <__heap_start+0xc536>
     78c: 92 14        	sta	($14)                   ; 0x2014 <textPrint+0x32>
     78e: a9 00        	lda	#$0
     790: 6a           	ror
     791: 85 16        	sta	$16                     ; 0x2016 <textPrint+0x34>
     793: b1 12        	lda	($12),y                 ; 0x2012 <textPrint+0x30>
     795: 85 14        	sta	$14                     ; 0x2014 <textPrint+0x32>
     797: c8           	iny
     798: b1 12        	lda	($12),y                 ; 0x2012 <textPrint+0x30>
     79a: a6 14        	ldx	$14                     ; 0x2014 <textPrint+0x32>
     79c: 8e 00 de     	stx	$de00                   ; 0xde00 <__heap_start+0xa35a>
     79f: 9c 01 de     	stz	$de01                   ; 0xde01 <__heap_start+0xa35b>
     7a2: 8d 02 de     	sta	$de02                   ; 0xde02 <__heap_start+0xa35c>
     7a5: 9c 03 de     	stz	$de03                   ; 0xde03 <__heap_start+0xa35d>
     7a8: ae 10 de     	ldx	$de10                   ; 0xde10 <__heap_start+0xa36a>
     7ab: ac 11 de     	ldy	$de11                   ; 0xde11 <__heap_start+0xa36b>
     7ae: ad 12 de     	lda	$de12                   ; 0xde12 <__heap_start+0xa36c>
     7b1: ad 13 de     	lda	$de13                   ; 0xde13 <__heap_start+0xa36d>
     7b4: 8e a4 d6     	stx	$d6a4                   ; 0xd6a4 <__heap_start+0x9bfe>
     7b7: 8c a5 d6     	sty	$d6a5                   ; 0xd6a5 <__heap_start+0x9bff>
     7ba: a2 03        	ldx	#$3
     7bc: 8e a6 d6     	stx	$d6a6                   ; 0xd6a6 <__heap_start+0x9c00>
     7bf: a2 00        	ldx	#$0
     7c1: 64 01        	stz	$1                      ; 0x2001 <textPrint+0x1f>
     7c3: a0 3f        	ldy	#$3f
     7c5: 8c 00 d0     	sty	$d000                   ; 0xd000 <__heap_start+0x955a>
     7c8: a0 04        	ldy	#$4
     7ca: 8c 01 d0     	sty	$d001                   ; 0xd001 <__heap_start+0x955b>
     7cd: 9c 0d d0     	stz	$d00d                   ; 0xd00d <__heap_start+0x9567>
     7d0: 9c 0e d0     	stz	$d00e                   ; 0xd00e <__heap_start+0x9568>
     7d3: 9c 0f d0     	stz	$d00f                   ; 0xd00f <__heap_start+0x9569>
     7d6: a0 01        	ldy	#$1
     7d8: 84 01        	sty	$1                      ; 0x2001 <textPrint+0x1f>
     7da: a0 d0        	ldy	#$d0
     7dc: 86 16        	stx	$16                     ; 0x2016 <textPrint+0x34>
     7de: 8a           	txa
     7df: 18           	clc
     7e0: 69 00        	adc	#$0
     7e2: 85 14        	sta	$14                     ; 0x2014 <textPrint+0x32>
     7e4: 98           	tya
     7e5: 69 10        	adc	#$10
     7e7: 85 15        	sta	$15                     ; 0x2015 <textPrint+0x33>
     7e9: 86 12        	stx	$12                     ; 0x2012 <textPrint+0x30>
     7eb: 84 13        	sty	$13                     ; 0x2013 <textPrint+0x31>
     7ed: a6 0f        	ldx	$f                      ; 0x200f <textPrint+0x2d>
     7ef: 78           	sei
     7f0: a9 18        	lda	#$18
     7f2: 85 0f        	sta	$f                      ; 0x200f <textPrint+0x2d>
     7f4: b2 14        	lda	($14)                   ; 0x2014 <textPrint+0x32>
     7f6: 86 0f        	stx	$f                      ; 0x200f <textPrint+0x2d>
     7f8: 58           	cli
     7f9: 92 12        	sta	($12)                   ; 0x2012 <textPrint+0x30>
     7fb: a6 16        	ldx	$16                     ; 0x2016 <textPrint+0x34>
     7fd: e8           	inx
     7fe: f0 06        	beq	$806 <main+0x4b0>
     800: c0 d3        	cpy	#$d3
     802: d0 d8        	bne	$7dc <main+0x486>
     804: 80 05        	bra	$80b <main+0x4b5>
     806: c8           	iny
     807: c0 d3        	cpy	#$d3
     809: d0 d1        	bne	$7dc <main+0x486>
     80b: e0 ff        	cpx	#$ff
     80d: d0 cd        	bne	$7dc <main+0x486>
     80f: 64 01        	stz	$1                      ; 0x2001 <textPrint+0x1f>
     811: a2 40        	ldx	#$40
     813: 8e 00 de     	stx	$de00                   ; 0xde00 <__heap_start+0xa35a>
     816: a2 01        	ldx	#$1
     818: 8e 01 de     	stx	$de01                   ; 0xde01 <__heap_start+0xa35b>
     81b: a2 f0        	ldx	#$f0
     81d: 8e 02 de     	stx	$de02                   ; 0xde02 <__heap_start+0xa35c>
     820: 9c 03 de     	stz	$de03                   ; 0xde03 <__heap_start+0xa35d>
     823: ae 10 de     	ldx	$de10                   ; 0xde10 <__heap_start+0xa36a>
     826: 86 17        	stx	$17                     ; 0x2017 <textPrint+0x35>
     828: ae 11 de     	ldx	$de11                   ; 0xde11 <__heap_start+0xa36b>
     82b: 86 12        	stx	$12                     ; 0x2012 <textPrint+0x30>
     82d: ae 12 de     	ldx	$de12                   ; 0xde12 <__heap_start+0xa36c>
     830: 86 13        	stx	$13                     ; 0x2013 <textPrint+0x31>
     832: ae 13 de     	ldx	$de13                   ; 0xde13 <__heap_start+0xa36d>
     835: 86 14        	stx	$14                     ; 0x2014 <textPrint+0x32>
     837: a4 12        	ldy	$12                     ; 0x2012 <textPrint+0x30>
     839: 84 15        	sty	$15                     ; 0x2015 <textPrint+0x33>
     83b: 06 15        	asl	$15                     ; 0x2015 <textPrint+0x33>
     83d: a5 13        	lda	$13                     ; 0x2013 <textPrint+0x31>
     83f: 2a           	rol
     840: 86 16        	stx	$16                     ; 0x2016 <textPrint+0x34>
     842: 26 16        	rol	$16                     ; 0x2016 <textPrint+0x34>
     844: 06 15        	asl	$15                     ; 0x2015 <textPrint+0x33>
     846: 2a           	rol
     847: 26 16        	rol	$16                     ; 0x2016 <textPrint+0x34>
     849: 06 15        	asl	$15                     ; 0x2015 <textPrint+0x33>
     84b: 2a           	rol
     84c: 26 16        	rol	$16                     ; 0x2016 <textPrint+0x34>
     84e: 85 15        	sta	$15                     ; 0x2015 <textPrint+0x33>
     850: 8d 00 de     	sta	$de00                   ; 0xde00 <__heap_start+0xa35a>
     853: a5 16        	lda	$16                     ; 0x2016 <textPrint+0x34>
     855: 8d 01 de     	sta	$de01                   ; 0xde01 <__heap_start+0xa35b>
     858: 9c 02 de     	stz	$de02                   ; 0xde02 <__heap_start+0xa35c>
     85b: a2 20        	ldx	#$20
     85d: 8e 03 de     	stx	$de03                   ; 0xde03 <__heap_start+0xa35d>
     860: ae 10 de     	ldx	$de10                   ; 0xde10 <__heap_start+0xa36a>
     863: 86 16        	stx	$16                     ; 0x2016 <textPrint+0x34>
     865: ae 11 de     	ldx	$de11                   ; 0xde11 <__heap_start+0xa36b>
     868: 86 18        	stx	$18                     ; 0x2018 <textPrint+0x36>
     86a: ac 12 de     	ldy	$de12                   ; 0xde12 <__heap_start+0xa36c>
     86d: ae 13 de     	ldx	$de13                   ; 0xde13 <__heap_start+0xa36d>
     870: e4 14        	cpx	$14                     ; 0x2014 <textPrint+0x32>
     872: d0 14        	bne	$888 <main+0x532>
     874: c4 13        	cpy	$13                     ; 0x2013 <textPrint+0x31>
     876: d0 10        	bne	$888 <main+0x532>
     878: a6 18        	ldx	$18                     ; 0x2018 <textPrint+0x36>
     87a: e4 12        	cpx	$12                     ; 0x2012 <textPrint+0x30>
     87c: d0 0a        	bne	$888 <main+0x532>
     87e: a6 16        	ldx	$16                     ; 0x2016 <textPrint+0x34>
     880: e4 17        	cpx	$17                     ; 0x2017 <textPrint+0x35>
     882: d0 04        	bne	$888 <main+0x532>
     884: a6 15        	ldx	$15                     ; 0x2015 <textPrint+0x33>
     886: 80 06        	bra	$88e <main+0x538>
     888: a6 15        	ldx	$15                     ; 0x2015 <textPrint+0x33>
     88a: e8           	inx
     88b: d0 01        	bne	$88e <main+0x538>
     88d: 1a           	inc
     88e: 8e 00 de     	stx	$de00                   ; 0xde00 <__heap_start+0xa35a>
     891: 8d 01 de     	sta	$de01                   ; 0xde01 <__heap_start+0xa35b>
     894: 9c 02 de     	stz	$de02                   ; 0xde02 <__heap_start+0xa35c>
     897: a2 20        	ldx	#$20
     899: 8e 03 de     	stx	$de03                   ; 0xde03 <__heap_start+0xa35d>
     89c: ae 10 de     	ldx	$de10                   ; 0xde10 <__heap_start+0xa36a>
     89f: 86 12        	stx	$12                     ; 0x2012 <textPrint+0x30>
     8a1: ae 11 de     	ldx	$de11                   ; 0xde11 <__heap_start+0xa36b>
     8a4: 86 13        	stx	$13                     ; 0x2013 <textPrint+0x31>
     8a6: ae 12 de     	ldx	$de12                   ; 0xde12 <__heap_start+0xa36c>
     8a9: 86 14        	stx	$14                     ; 0x2014 <textPrint+0x32>
     8ab: ae 13 de     	ldx	$de13                   ; 0xde13 <__heap_start+0xa36d>
     8ae: 86 15        	stx	$15                     ; 0x2015 <textPrint+0x33>
     8b0: 38           	sec
     8b1: a9 00        	lda	#$0
     8b3: e5 12        	sbc	$12                     ; 0x2012 <textPrint+0x30>
     8b5: 85 17        	sta	$17                     ; 0x2017 <textPrint+0x35>
     8b7: a9 00        	lda	#$0
     8b9: e5 13        	sbc	$13                     ; 0x2013 <textPrint+0x31>
     8bb: a8           	tay
     8bc: a9 08        	lda	#$8
     8be: e5 14        	sbc	$14                     ; 0x2014 <textPrint+0x32>
     8c0: aa           	tax
     8c1: a9 00        	lda	#$0
     8c3: e5 15        	sbc	$15                     ; 0x2015 <textPrint+0x33>
     8c5: 85 18        	sta	$18                     ; 0x2018 <textPrint+0x36>
     8c7: 8c 29 3a     	sty	$3a29                   ; 0x3a29 <_BITMAP_BASE.0+0x1>
     8ca: 8e 2a 3a     	stx	$3a2a                   ; 0x3a2a <_BITMAP_BASE.0+0x2>
     8cd: 8d 2b 3a     	sta	$3a2b                   ; 0x3a2b <_BITMAP_BASE.0+0x3>
     8d0: a5 17        	lda	$17                     ; 0x2017 <textPrint+0x35>
     8d2: 38           	sec
     8d3: e5 12        	sbc	$12                     ; 0x2012 <textPrint+0x30>
     8d5: 85 19        	sta	$19                     ; 0x2019 <textPrint+0x37>
     8d7: 98           	tya
     8d8: e5 13        	sbc	$13                     ; 0x2013 <textPrint+0x31>
     8da: 85 16        	sta	$16                     ; 0x2016 <textPrint+0x34>
     8dc: 8a           	txa
     8dd: e5 14        	sbc	$14                     ; 0x2014 <textPrint+0x32>
     8df: 85 1a        	sta	$1a                     ; 0x201a <textPrint+0x38>
     8e1: a5 18        	lda	$18                     ; 0x2018 <textPrint+0x36>
     8e3: e5 15        	sbc	$15                     ; 0x2015 <textPrint+0x33>
     8e5: aa           	tax
     8e6: a4 19        	ldy	$19                     ; 0x2019 <textPrint+0x37>
     8e8: 8c 2c 3a     	sty	$3a2c                   ; 0x3a2c <_BITMAP_BASE.1>
     8eb: a4 16        	ldy	$16                     ; 0x2016 <textPrint+0x34>
     8ed: 8c 2d 3a     	sty	$3a2d                   ; 0x3a2d <_BITMAP_BASE.1+0x1>
     8f0: a4 1a        	ldy	$1a                     ; 0x201a <textPrint+0x38>
     8f2: 8c 2e 3a     	sty	$3a2e                   ; 0x3a2e <_BITMAP_BASE.1+0x2>
     8f5: 8d 2f 3a     	sta	$3a2f                   ; 0x3a2f <_BITMAP_BASE.1+0x3>
     8f8: 38           	sec
     8f9: a5 19        	lda	$19                     ; 0x2019 <textPrint+0x37>
     8fb: e5 12        	sbc	$12                     ; 0x2012 <textPrint+0x30>
     8fd: 85 18        	sta	$18                     ; 0x2018 <textPrint+0x36>
     8ff: a5 16        	lda	$16                     ; 0x2016 <textPrint+0x34>
     901: e5 13        	sbc	$13                     ; 0x2013 <textPrint+0x31>
     903: 85 12        	sta	$12                     ; 0x2012 <textPrint+0x30>
     905: a5 1a        	lda	$1a                     ; 0x201a <textPrint+0x38>
     907: e5 14        	sbc	$14                     ; 0x2014 <textPrint+0x32>
     909: 85 13        	sta	$13                     ; 0x2013 <textPrint+0x31>
     90b: 8a           	txa
     90c: e5 15        	sbc	$15                     ; 0x2015 <textPrint+0x33>
     90e: a6 18        	ldx	$18                     ; 0x2018 <textPrint+0x36>
     910: 8e 30 3a     	stx	$3a30                   ; 0x3a30 <_BITMAP_BASE.2>
     913: a6 17        	ldx	$17                     ; 0x2017 <textPrint+0x35>
     915: 8e 28 3a     	stx	$3a28                   ; 0x3a28 <_BITMAP_BASE.0>
     918: a4 12        	ldy	$12                     ; 0x2012 <textPrint+0x30>
     91a: 8c 31 3a     	sty	$3a31                   ; 0x3a31 <_BITMAP_BASE.2+0x1>
     91d: a4 13        	ldy	$13                     ; 0x2013 <textPrint+0x31>
     91f: 8c 32 3a     	sty	$3a32                   ; 0x3a32 <_BITMAP_BASE.2+0x2>
     922: 8d 33 3a     	sta	$3a33                   ; 0x3a33 <_BITMAP_BASE.2+0x3>
     925: 8e 01 d1     	stx	$d101                   ; 0xd101 <__heap_start+0x965b>
     928: ae 29 3a     	ldx	$3a29                   ; 0x3a29 <_BITMAP_BASE.0+0x1>
     92b: 8e 02 d1     	stx	$d102                   ; 0xd102 <__heap_start+0x965c>
     92e: ae 2a 3a     	ldx	$3a2a                   ; 0x3a2a <_BITMAP_BASE.0+0x2>
     931: 8e 03 d1     	stx	$d103                   ; 0xd103 <__heap_start+0x965d>
     934: ae 2c 3a     	ldx	$3a2c                   ; 0x3a2c <_BITMAP_BASE.1>
     937: 8e 09 d1     	stx	$d109                   ; 0xd109 <__heap_start+0x9663>
     93a: ae 2d 3a     	ldx	$3a2d                   ; 0x3a2d <_BITMAP_BASE.1+0x1>
     93d: 8e 0a d1     	stx	$d10a                   ; 0xd10a <__heap_start+0x9664>
     940: ae 2e 3a     	ldx	$3a2e                   ; 0x3a2e <_BITMAP_BASE.1+0x2>
     943: 8e 0b d1     	stx	$d10b                   ; 0xd10b <__heap_start+0x9665>
     946: ae 30 3a     	ldx	$3a30                   ; 0x3a30 <_BITMAP_BASE.2>
     949: 8e 11 d1     	stx	$d111                   ; 0xd111 <__heap_start+0x966b>
     94c: ae 31 3a     	ldx	$3a31                   ; 0x3a31 <_BITMAP_BASE.2+0x1>
     94f: 8e 12 d1     	stx	$d112                   ; 0xd112 <__heap_start+0x966c>
     952: ae 32 3a     	ldx	$3a32                   ; 0x3a32 <_BITMAP_BASE.2+0x2>
     955: 8e 13 d1     	stx	$d113                   ; 0xd113 <__heap_start+0x966d>
     958: 9c 00 d1     	stz	$d100                   ; 0xd100 <__heap_start+0x965a>
     95b: 9c 08 d1     	stz	$d108                   ; 0xd108 <__heap_start+0x9662>
     95e: 9c 10 d1     	stz	$d110                   ; 0xd110 <__heap_start+0x966a>
     961: 9c 28 3a     	stz	$3a28                   ; 0x3a28 <_BITMAP_BASE.0>
     964: a2 04        	ldx	#$4
     966: 8e 29 3a     	stx	$3a29                   ; 0x3a29 <_BITMAP_BASE.0+0x1>
     969: a0 03        	ldy	#$3
     96b: 8c 2a 3a     	sty	$3a2a                   ; 0x3a2a <_BITMAP_BASE.0+0x2>
     96e: 9c 2b 3a     	stz	$3a2b                   ; 0x3a2b <_BITMAP_BASE.0+0x3>
     971: 9c 01 d1     	stz	$d101                   ; 0xd101 <__heap_start+0x965b>
     974: 8e 02 d1     	stx	$d102                   ; 0xd102 <__heap_start+0x965c>
     977: 8c 03 d1     	sty	$d103                   ; 0xd103 <__heap_start+0x965d>
     97a: a2 01        	ldx	#$1
     97c: 8e 00 d1     	stx	$d100                   ; 0xd100 <__heap_start+0x965a>
     97f: a6 02        	ldx	$2                      ; 0x2002 <textPrint+0x20>
     981: 86 12        	stx	$12                     ; 0x2012 <textPrint+0x30>
     983: a6 03        	ldx	$3                      ; 0x2003 <textPrint+0x21>
     985: 86 13        	stx	$13                     ; 0x2013 <textPrint+0x31>
     987: a0 08        	ldy	#$8
     989: a9 00        	lda	#$0
     98b: 91 12        	sta	($12),y                 ; 0x2012 <textPrint+0x30>
     98d: 64 01        	stz	$1                      ; 0x2001 <textPrint+0x1f>
     98f: a9 0f        	lda	#$f
     991: 92 12        	sta	($12)                   ; 0x2012 <textPrint+0x30>
     993: a9 ff        	lda	#$ff
     995: a0 01        	ldy	#$1
     997: 91 12        	sta	($12),y                 ; 0x2012 <textPrint+0x30>
     999: a9 07        	lda	#$7
     99b: c8           	iny
     99c: 91 12        	sta	($12),y                 ; 0x2012 <textPrint+0x30>
     99e: a9 09        	lda	#$9
     9a0: c8           	iny
     9a1: 91 12        	sta	($12),y                 ; 0x2012 <textPrint+0x30>
     9a3: c8           	iny
     9a4: a9 00        	lda	#$0
     9a6: 91 12        	sta	($12),y                 ; 0x2012 <textPrint+0x30>
     9a8: c8           	iny
     9a9: a9 20        	lda	#$20
     9ab: 91 12        	sta	($12),y                 ; 0x2012 <textPrint+0x30>
     9ad: c8           	iny
     9ae: a9 00        	lda	#$0
     9b0: 91 12        	sta	($12),y                 ; 0x2012 <textPrint+0x30>
     9b2: c8           	iny
     9b3: 91 12        	sta	($12),y                 ; 0x2012 <textPrint+0x30>
     9b5: ad 01 d0     	lda	$d001                   ; 0xd001 <__heap_start+0x955b>
     9b8: 09 10        	ora	#$10
     9ba: 8d 01 d0     	sta	$d001                   ; 0xd001 <__heap_start+0x955b>
     9bd: 9c 00 d4     	stz	$d400                   ; 0xd400 <__heap_start+0x995a>
     9c0: 9c 00 d5     	stz	$d500                   ; 0xd500 <__heap_start+0x9a5a>
     9c3: 9c 01 d4     	stz	$d401                   ; 0xd401 <__heap_start+0x995b>
     9c6: 9c 01 d5     	stz	$d501                   ; 0xd501 <__heap_start+0x9a5b>
     9c9: 9c 02 d4     	stz	$d402                   ; 0xd402 <__heap_start+0x995c>
     9cc: 9c 02 d5     	stz	$d502                   ; 0xd502 <__heap_start+0x9a5c>
     9cf: 9c 03 d4     	stz	$d403                   ; 0xd403 <__heap_start+0x995d>
     9d2: 9c 03 d5     	stz	$d503                   ; 0xd503 <__heap_start+0x9a5d>
     9d5: 9c 04 d4     	stz	$d404                   ; 0xd404 <__heap_start+0x995e>
     9d8: 9c 04 d5     	stz	$d504                   ; 0xd504 <__heap_start+0x9a5e>
     9db: 9c 05 d4     	stz	$d405                   ; 0xd405 <__heap_start+0x995f>
     9de: 9c 05 d5     	stz	$d505                   ; 0xd505 <__heap_start+0x9a5f>
     9e1: 9c 06 d4     	stz	$d406                   ; 0xd406 <__heap_start+0x9960>
     9e4: 9c 06 d5     	stz	$d506                   ; 0xd506 <__heap_start+0x9a60>
     9e7: 9c 07 d4     	stz	$d407                   ; 0xd407 <__heap_start+0x9961>
     9ea: 9c 07 d5     	stz	$d507                   ; 0xd507 <__heap_start+0x9a61>
     9ed: 9c 08 d4     	stz	$d408                   ; 0xd408 <__heap_start+0x9962>
     9f0: 9c 08 d5     	stz	$d508                   ; 0xd508 <__heap_start+0x9a62>
     9f3: 9c 09 d4     	stz	$d409                   ; 0xd409 <__heap_start+0x9963>
     9f6: 9c 09 d5     	stz	$d509                   ; 0xd509 <__heap_start+0x9a63>
     9f9: 9c 0a d4     	stz	$d40a                   ; 0xd40a <__heap_start+0x9964>
     9fc: 9c 0a d5     	stz	$d50a                   ; 0xd50a <__heap_start+0x9a64>
     9ff: 9c 0b d4     	stz	$d40b                   ; 0xd40b <__heap_start+0x9965>
     a02: 9c 0b d5     	stz	$d50b                   ; 0xd50b <__heap_start+0x9a65>
     a05: 9c 0c d4     	stz	$d40c                   ; 0xd40c <__heap_start+0x9966>
     a08: 9c 0c d5     	stz	$d50c                   ; 0xd50c <__heap_start+0x9a66>
     a0b: 9c 0d d4     	stz	$d40d                   ; 0xd40d <__heap_start+0x9967>
     a0e: 9c 0d d5     	stz	$d50d                   ; 0xd50d <__heap_start+0x9a67>
     a11: 9c 0e d4     	stz	$d40e                   ; 0xd40e <__heap_start+0x9968>
     a14: 9c 0e d5     	stz	$d50e                   ; 0xd50e <__heap_start+0x9a68>
     a17: 9c 0f d4     	stz	$d40f                   ; 0xd40f <__heap_start+0x9969>
     a1a: 9c 0f d5     	stz	$d50f                   ; 0xd50f <__heap_start+0x9a69>
     a1d: 9c 10 d4     	stz	$d410                   ; 0xd410 <__heap_start+0x996a>
     a20: 9c 10 d5     	stz	$d510                   ; 0xd510 <__heap_start+0x9a6a>
     a23: 9c 11 d4     	stz	$d411                   ; 0xd411 <__heap_start+0x996b>
     a26: 9c 11 d5     	stz	$d511                   ; 0xd511 <__heap_start+0x9a6b>
     a29: 9c 12 d4     	stz	$d412                   ; 0xd412 <__heap_start+0x996c>
     a2c: 9c 12 d5     	stz	$d512                   ; 0xd512 <__heap_start+0x9a6c>
     a2f: 9c 13 d4     	stz	$d413                   ; 0xd413 <__heap_start+0x996d>
     a32: 9c 13 d5     	stz	$d513                   ; 0xd513 <__heap_start+0x9a6d>
     a35: 9c 14 d4     	stz	$d414                   ; 0xd414 <__heap_start+0x996e>
     a38: 9c 14 d5     	stz	$d514                   ; 0xd514 <__heap_start+0x9a6e>
     a3b: 9c 15 d4     	stz	$d415                   ; 0xd415 <__heap_start+0x996f>
     a3e: 9c 15 d5     	stz	$d515                   ; 0xd515 <__heap_start+0x9a6f>
     a41: 9c 16 d4     	stz	$d416                   ; 0xd416 <__heap_start+0x9970>
     a44: 9c 16 d5     	stz	$d516                   ; 0xd516 <__heap_start+0x9a70>
     a47: 9c 17 d4     	stz	$d417                   ; 0xd417 <__heap_start+0x9971>
     a4a: 9c 17 d5     	stz	$d517                   ; 0xd517 <__heap_start+0x9a71>
     a4d: 9c 18 d4     	stz	$d418                   ; 0xd418 <__heap_start+0x9972>
     a50: 9c 18 d5     	stz	$d518                   ; 0xd518 <__heap_start+0x9a72>
     a53: ad a1 d6     	lda	$d6a1                   ; 0xd6a1 <__heap_start+0x9bfb>
     a56: 29 f7        	and	#$f7
     a58: 8d a1 d6     	sta	$d6a1                   ; 0xd6a1 <__heap_start+0x9bfb>
     a5b: a2 ff        	ldx	#$ff
     a5d: 8e 02 d4     	stx	$d402                   ; 0xd402 <__heap_start+0x995c>
     a60: 8c 03 d4     	sty	$d403                   ; 0xd403 <__heap_start+0x995d>
     a63: a2 09        	ldx	#$9
     a65: 8e 05 d4     	stx	$d405                   ; 0xd405 <__heap_start+0x995f>
     a68: 9c 06 d4     	stz	$d406                   ; 0xd406 <__heap_start+0x9960>
     a6b: a9 20        	lda	#$20
     a6d: 8d 04 d4     	sta	$d404                   ; 0xd404 <__heap_start+0x995e>
     a70: a9 ff        	lda	#$ff
     a72: 8d 02 d5     	sta	$d502                   ; 0xd502 <__heap_start+0x9a5c>
     a75: 8c 03 d5     	sty	$d503                   ; 0xd503 <__heap_start+0x9a5d>
     a78: 8e 05 d5     	stx	$d505                   ; 0xd505 <__heap_start+0x9a5f>
     a7b: 9c 06 d5     	stz	$d506                   ; 0xd506 <__heap_start+0x9a60>
     a7e: a9 20        	lda	#$20
     a80: 8d 04 d5     	sta	$d504                   ; 0xd504 <__heap_start+0x9a5e>
     a83: a9 ff        	lda	#$ff
     a85: 8d 09 d4     	sta	$d409                   ; 0xd409 <__heap_start+0x9963>
     a88: 8c 0a d4     	sty	$d40a                   ; 0xd40a <__heap_start+0x9964>
     a8b: 8e 0c d4     	stx	$d40c                   ; 0xd40c <__heap_start+0x9966>
     a8e: 9c 0d d4     	stz	$d40d                   ; 0xd40d <__heap_start+0x9967>
     a91: a9 20        	lda	#$20
     a93: 8d 0b d4     	sta	$d40b                   ; 0xd40b <__heap_start+0x9965>
     a96: a9 ff        	lda	#$ff
     a98: 8d 09 d5     	sta	$d509                   ; 0xd509 <__heap_start+0x9a63>
     a9b: 8c 0a d5     	sty	$d50a                   ; 0xd50a <__heap_start+0x9a64>
     a9e: 8e 0c d5     	stx	$d50c                   ; 0xd50c <__heap_start+0x9a66>
     aa1: 9c 0d d5     	stz	$d50d                   ; 0xd50d <__heap_start+0x9a67>
     aa4: a9 20        	lda	#$20
     aa6: 8d 0b d5     	sta	$d50b                   ; 0xd50b <__heap_start+0x9a65>
     aa9: a9 ff        	lda	#$ff
     aab: 8d 10 d4     	sta	$d410                   ; 0xd410 <__heap_start+0x996a>
     aae: 8c 11 d4     	sty	$d411                   ; 0xd411 <__heap_start+0x996b>
     ab1: 8e 13 d4     	stx	$d413                   ; 0xd413 <__heap_start+0x996d>
     ab4: 9c 14 d4     	stz	$d414                   ; 0xd414 <__heap_start+0x996e>
     ab7: a9 20        	lda	#$20
     ab9: 8d 12 d4     	sta	$d412                   ; 0xd412 <__heap_start+0x996c>
     abc: a9 ff        	lda	#$ff
     abe: 8d 10 d5     	sta	$d510                   ; 0xd510 <__heap_start+0x9a6a>
     ac1: 8c 11 d5     	sty	$d511                   ; 0xd511 <__heap_start+0x9a6b>
     ac4: 8e 13 d5     	stx	$d513                   ; 0xd513 <__heap_start+0x9a6d>
     ac7: 9c 14 d5     	stz	$d514                   ; 0xd514 <__heap_start+0x9a6e>
     aca: a2 20        	ldx	#$20
     acc: 8e 12 d5     	stx	$d512                   ; 0xd512 <__heap_start+0x9a6c>
     acf: 9c 14 d4     	stz	$d414                   ; 0xd414 <__heap_start+0x996e>
     ad2: 9c 15 d4     	stz	$d415                   ; 0xd415 <__heap_start+0x996f>
     ad5: 9c 17 d4     	stz	$d417                   ; 0xd417 <__heap_start+0x9971>
     ad8: a2 0f        	ldx	#$f
     ada: 8e 18 d4     	stx	$d418                   ; 0xd418 <__heap_start+0x9972>
     add: 9c 14 d5     	stz	$d514                   ; 0xd514 <__heap_start+0x9a6e>
     ae0: 9c 15 d5     	stz	$d515                   ; 0xd515 <__heap_start+0x9a6f>
     ae3: 9c 17 d5     	stz	$d517                   ; 0xd517 <__heap_start+0x9a71>
     ae6: 8e 18 d5     	stx	$d518                   ; 0xd518 <__heap_start+0x9a72>
     ae9: a6 02        	ldx	$2                      ; 0x2002 <textPrint+0x20>
     aeb: 18           	clc
     aec: 8a           	txa
     aed: 86 12        	stx	$12                     ; 0x2012 <textPrint+0x30>
     aef: 69 07        	adc	#$7
     af1: aa           	tax
     af2: a4 03        	ldy	$3                      ; 0x2003 <textPrint+0x21>
     af4: 98           	tya
     af5: 69 00        	adc	#$0
     af7: 8e 36 3a     	stx	$3a36                   ; 0x3a36 <sid_fields+0x1>
     afa: 8e 3d 3a     	stx	$3a3d                   ; 0x3a3d <sid_fields+0x8>
     afd: 8d 37 3a     	sta	$3a37                   ; 0x3a37 <sid_fields+0x2>
     b00: 8d 3e 3a     	sta	$3a3e                   ; 0x3a3e <sid_fields+0x9>
     b03: 18           	clc
     b04: a5 12        	lda	$12                     ; 0x2012 <textPrint+0x30>
     b06: 69 06        	adc	#$6
     b08: aa           	tax
     b09: 98           	tya
     b0a: 69 00        	adc	#$0
     b0c: 8e 44 3a     	stx	$3a44                   ; 0x3a44 <sid_fields+0xf>
     b0f: 8d 45 3a     	sta	$3a45                   ; 0x3a45 <sid_fields+0x10>
     b12: 18           	clc
     b13: a5 12        	lda	$12                     ; 0x2012 <textPrint+0x30>
     b15: 69 08        	adc	#$8
     b17: aa           	tax
     b18: 98           	tya
     b19: 69 00        	adc	#$0
     b1b: 8e 4b 3a     	stx	$3a4b                   ; 0x3a4b <sid_fields+0x16>
     b1e: 8e 52 3a     	stx	$3a52                   ; 0x3a52 <sid_fields+0x1d>
     b21: 8d 4c 3a     	sta	$3a4c                   ; 0x3a4c <sid_fields+0x17>
     b24: 8d 53 3a     	sta	$3a53                   ; 0x3a53 <sid_fields+0x1e>
     b27: 18           	clc
     b28: a5 12        	lda	$12                     ; 0x2012 <textPrint+0x30>
     b2a: 69 05        	adc	#$5
     b2c: aa           	tax
     b2d: 98           	tya
     b2e: 69 00        	adc	#$0
     b30: 8e 67 3a     	stx	$3a67                   ; 0x3a67 <sid_fields+0x32>
     b33: 8e 6e 3a     	stx	$3a6e                   ; 0x3a6e <sid_fields+0x39>
     b36: 8d 68 3a     	sta	$3a68                   ; 0x3a68 <sid_fields+0x33>
     b39: 8d 6f 3a     	sta	$3a6f                   ; 0x3a6f <sid_fields+0x3a>
     b3c: 18           	clc
     b3d: a5 12        	lda	$12                     ; 0x2012 <textPrint+0x30>
     b3f: 69 03        	adc	#$3
     b41: aa           	tax
     b42: 98           	tya
     b43: 69 00        	adc	#$0
     b45: 8e 75 3a     	stx	$3a75                   ; 0x3a75 <sid_fields+0x40>
     b48: 8e 7c 3a     	stx	$3a7c                   ; 0x3a7c <sid_fields+0x47>
     b4b: 8d 76 3a     	sta	$3a76                   ; 0x3a76 <sid_fields+0x41>
     b4e: 8d 7d 3a     	sta	$3a7d                   ; 0x3a7d <sid_fields+0x48>
     b51: 18           	clc
     b52: a5 12        	lda	$12                     ; 0x2012 <textPrint+0x30>
     b54: 69 04        	adc	#$4
     b56: aa           	tax
     b57: 98           	tya
     b58: 69 00        	adc	#$0
     b5a: 8e 83 3a     	stx	$3a83                   ; 0x3a83 <sid_fields+0x4e>
     b5d: 8e 8a 3a     	stx	$3a8a                   ; 0x3a8a <sid_fields+0x55>
     b60: 8d 84 3a     	sta	$3a84                   ; 0x3a84 <sid_fields+0x4f>
     b63: 8d 8b 3a     	sta	$3a8b                   ; 0x3a8b <sid_fields+0x56>
     b66: a5 12        	lda	$12                     ; 0x2012 <textPrint+0x30>
     b68: 84 13        	sty	$13                     ; 0x2013 <textPrint+0x31>
     b6a: 8d 59 3a     	sta	$3a59                   ; 0x3a59 <sid_fields+0x24>
     b6d: 8c 5a 3a     	sty	$3a5a                   ; 0x3a5a <sid_fields+0x25>
     b70: 8d 60 3a     	sta	$3a60                   ; 0x3a60 <sid_fields+0x2b>
     b73: 8c 61 3a     	sty	$3a61                   ; 0x3a61 <sid_fields+0x2c>
     b76: 18           	clc
     b77: 69 02        	adc	#$2
     b79: 85 14        	sta	$14                     ; 0x2014 <textPrint+0x32>
     b7b: 98           	tya
     b7c: 69 00        	adc	#$0
     b7e: a6 14        	ldx	$14                     ; 0x2014 <textPrint+0x32>
     b80: 8e 91 3a     	stx	$3a91                   ; 0x3a91 <sid_fields+0x5c>
     b83: 8d 92 3a     	sta	$3a92                   ; 0x3a92 <sid_fields+0x5d>
     b86: a2 21        	ldx	#$21
     b88: 8e 3a 3a     	stx	$3a3a                   ; 0x3a3a <sid_fields+0x5>
     b8b: 8e 4f 3a     	stx	$3a4f                   ; 0x3a4f <sid_fields+0x1a>
     b8e: 8e 56 3a     	stx	$3a56                   ; 0x3a56 <sid_fields+0x21>
     b91: 8e 5d 3a     	stx	$3a5d                   ; 0x3a5d <sid_fields+0x28>
     b94: 8e 64 3a     	stx	$3a64                   ; 0x3a64 <sid_fields+0x2f>
     b97: 8e 6b 3a     	stx	$3a6b                   ; 0x3a6b <sid_fields+0x36>
     b9a: 8e 72 3a     	stx	$3a72                   ; 0x3a72 <sid_fields+0x3d>
     b9d: 8e 79 3a     	stx	$3a79                   ; 0x3a79 <sid_fields+0x44>
     ba0: 8e 80 3a     	stx	$3a80                   ; 0x3a80 <sid_fields+0x4b>
     ba3: 8e 87 3a     	stx	$3a87                   ; 0x3a87 <sid_fields+0x52>
     ba6: 8e 8e 3a     	stx	$3a8e                   ; 0x3a8e <sid_fields+0x59>
     ba9: 8e 95 3a     	stx	$3a95                   ; 0x3a95 <sid_fields+0x60>
     bac: e8           	inx
     bad: 8e 41 3a     	stx	$3a41                   ; 0x3a41 <sid_fields+0xc>
     bb0: 8e 9c 3a     	stx	$3a9c                   ; 0x3a9c <sid_fields+0x67>
     bb3: e6 12        	inc	$12                     ; 0x2012 <textPrint+0x30>
     bb5: d0 02        	bne	$bb9 <main+0x863>
     bb7: e6 13        	inc	$13                     ; 0x2013 <textPrint+0x31>
     bb9: a6 12        	ldx	$12                     ; 0x2012 <textPrint+0x30>
     bbb: 8e 98 3a     	stx	$3a98                   ; 0x3a98 <sid_fields+0x63>
     bbe: 8e 9f 3a     	stx	$3a9f                   ; 0x3a9f <sid_fields+0x6a>
     bc1: a6 13        	ldx	$13                     ; 0x2013 <textPrint+0x31>
     bc3: 8e 99 3a     	stx	$3a99                   ; 0x3a99 <sid_fields+0x64>
     bc6: 8e a0 3a     	stx	$3aa0                   ; 0x3aa0 <sid_fields+0x6b>
     bc9: a2 23        	ldx	#$23
     bcb: 8e 48 3a     	stx	$3a48                   ; 0x3a48 <sid_fields+0x13>
     bce: 8e a3 3a     	stx	$3aa3                   ; 0x3aa3 <sid_fields+0x6e>
     bd1: 9c 35 3a     	stz	$3a35                   ; 0x3a35 <sid_fields>
     bd4: a2 01        	ldx	#$1
     bd6: 8e 38 3a     	stx	$3a38                   ; 0x3a38 <sid_fields+0x3>
     bd9: 8e 39 3a     	stx	$3a39                   ; 0x3a39 <sid_fields+0x4>
     bdc: a0 03        	ldy	#$3
     bde: 8c 3b 3a     	sty	$3a3b                   ; 0x3a3b <sid_fields+0x6>
     be1: 9c 3c 3a     	stz	$3a3c                   ; 0x3a3c <sid_fields+0x7>
     be4: 9c 3f 3a     	stz	$3a3f                   ; 0x3a3f <sid_fields+0xa>
     be7: 8e 40 3a     	stx	$3a40                   ; 0x3a40 <sid_fields+0xb>
     bea: 8c 42 3a     	sty	$3a42                   ; 0x3a42 <sid_fields+0xd>
     bed: 9c 43 3a     	stz	$3a43                   ; 0x3a43 <sid_fields+0xe>
     bf0: 9c 46 3a     	stz	$3a46                   ; 0x3a46 <sid_fields+0x11>
     bf3: 8e 47 3a     	stx	$3a47                   ; 0x3a47 <sid_fields+0x12>
     bf6: 8c 49 3a     	sty	$3a49                   ; 0x3a49 <sid_fields+0x14>
     bf9: 9c 4a 3a     	stz	$3a4a                   ; 0x3a4a <sid_fields+0x15>
     bfc: 8e 4d 3a     	stx	$3a4d                   ; 0x3a4d <sid_fields+0x18>
     bff: 8e 4e 3a     	stx	$3a4e                   ; 0x3a4e <sid_fields+0x19>
     c02: c8           	iny
     c03: 8c 50 3a     	sty	$3a50                   ; 0x3a50 <sid_fields+0x1b>
     c06: 9c 51 3a     	stz	$3a51                   ; 0x3a51 <sid_fields+0x1c>
     c09: 9c 54 3a     	stz	$3a54                   ; 0x3a54 <sid_fields+0x1f>
     c0c: 8e 55 3a     	stx	$3a55                   ; 0x3a55 <sid_fields+0x20>
     c0f: c8           	iny
     c10: 8c 57 3a     	sty	$3a57                   ; 0x3a57 <sid_fields+0x22>
     c13: 9c 58 3a     	stz	$3a58                   ; 0x3a58 <sid_fields+0x23>
     c16: 8e 5b 3a     	stx	$3a5b                   ; 0x3a5b <sid_fields+0x26>
     c19: 8e 5c 3a     	stx	$3a5c                   ; 0x3a5c <sid_fields+0x27>
     c1c: a9 06        	lda	#$6
     c1e: 8d 5e 3a     	sta	$3a5e                   ; 0x3a5e <sid_fields+0x29>
     c21: a0 0c        	ldy	#$c
     c23: 8c 5f 3a     	sty	$3a5f                   ; 0x3a5f <sid_fields+0x2a>
     c26: 9c 62 3a     	stz	$3a62                   ; 0x3a62 <sid_fields+0x2d>
     c29: 8e 63 3a     	stx	$3a63                   ; 0x3a63 <sid_fields+0x2e>
     c2c: 1a           	inc
     c2d: 8d 65 3a     	sta	$3a65                   ; 0x3a65 <sid_fields+0x30>
     c30: 8e 66 3a     	stx	$3a66                   ; 0x3a66 <sid_fields+0x31>
     c33: 8e 69 3a     	stx	$3a69                   ; 0x3a69 <sid_fields+0x34>
     c36: 8e 6a 3a     	stx	$3a6a                   ; 0x3a6a <sid_fields+0x35>
     c39: a9 0a        	lda	#$a
     c3b: 8d 6c 3a     	sta	$3a6c                   ; 0x3a6c <sid_fields+0x37>
     c3e: 9c 6d 3a     	stz	$3a6d                   ; 0x3a6d <sid_fields+0x38>
     c41: 9c 70 3a     	stz	$3a70                   ; 0x3a70 <sid_fields+0x3b>
     c44: 8e 71 3a     	stx	$3a71                   ; 0x3a71 <sid_fields+0x3c>
     c47: 1a           	inc
     c48: 8d 73 3a     	sta	$3a73                   ; 0x3a73 <sid_fields+0x3e>
     c4b: 8e 74 3a     	stx	$3a74                   ; 0x3a74 <sid_fields+0x3f>
     c4e: 8e 77 3a     	stx	$3a77                   ; 0x3a77 <sid_fields+0x42>
     c51: 8e 78 3a     	stx	$3a78                   ; 0x3a78 <sid_fields+0x43>
     c54: 8c 7a 3a     	sty	$3a7a                   ; 0x3a7a <sid_fields+0x45>
     c57: a0 09        	ldy	#$9
     c59: 8c 7b 3a     	sty	$3a7b                   ; 0x3a7b <sid_fields+0x46>
     c5c: 9c 7e 3a     	stz	$3a7e                   ; 0x3a7e <sid_fields+0x49>
     c5f: 8e 7f 3a     	stx	$3a7f                   ; 0x3a7f <sid_fields+0x4a>
     c62: a0 0d        	ldy	#$d
     c64: 8c 81 3a     	sty	$3a81                   ; 0x3a81 <sid_fields+0x4c>
     c67: a0 05        	ldy	#$5
     c69: 8c 82 3a     	sty	$3a82                   ; 0x3a82 <sid_fields+0x4d>
     c6c: 8e 85 3a     	stx	$3a85                   ; 0x3a85 <sid_fields+0x50>
     c6f: 8e 86 3a     	stx	$3a86                   ; 0x3a86 <sid_fields+0x51>
     c72: a0 0e        	ldy	#$e
     c74: 8c 88 3a     	sty	$3a88                   ; 0x3a88 <sid_fields+0x53>
     c77: a0 03        	ldy	#$3
     c79: 8c 89 3a     	sty	$3a89                   ; 0x3a89 <sid_fields+0x54>
     c7c: 9c 8c 3a     	stz	$3a8c                   ; 0x3a8c <sid_fields+0x57>
     c7f: 8e 8d 3a     	stx	$3a8d                   ; 0x3a8d <sid_fields+0x58>
     c82: a0 0f        	ldy	#$f
     c84: 8c 8f 3a     	sty	$3a8f                   ; 0x3a8f <sid_fields+0x5a>
     c87: a9 07        	lda	#$7
     c89: 8d 90 3a     	sta	$3a90                   ; 0x3a90 <sid_fields+0x5b>
     c8c: 9c 93 3a     	stz	$3a93                   ; 0x3a93 <sid_fields+0x5e>
     c8f: 8e 94 3a     	stx	$3a94                   ; 0x3a94 <sid_fields+0x5f>
     c92: a9 10        	lda	#$10
     c94: 8d 96 3a     	sta	$3a96                   ; 0x3a96 <sid_fields+0x61>
     c97: 8c 97 3a     	sty	$3a97                   ; 0x3a97 <sid_fields+0x62>
     c9a: 8e 9a 3a     	stx	$3a9a                   ; 0x3a9a <sid_fields+0x65>
     c9d: 8e 9b 3a     	stx	$3a9b                   ; 0x3a9b <sid_fields+0x66>
     ca0: 8d 9d 3a     	sta	$3a9d                   ; 0x3a9d <sid_fields+0x68>
     ca3: 8c 9e 3a     	sty	$3a9e                   ; 0x3a9e <sid_fields+0x69>
     ca6: 9c a1 3a     	stz	$3aa1                   ; 0x3aa1 <sid_fields+0x6c>
     ca9: 8e a2 3a     	stx	$3aa2                   ; 0x3aa2 <sid_fields+0x6d>
     cac: 8d a4 3a     	sta	$3aa4                   ; 0x3aa4 <sid_fields+0x6f>
     caf: 64 3f        	stz	$3f                     ; 0x203f <textPrint+0x5d>
     cb1: 9c 14 d0     	stz	$d014                   ; 0xd014 <__heap_start+0x956e>
     cb4: 9c 15 d0     	stz	$d015                   ; 0xd015 <__heap_start+0x956f>
     cb7: 64 40        	stz	$40                     ; 0x2040 <textPrint+0x5e>
     cb9: 9c 16 d0     	stz	$d016                   ; 0xd016 <__heap_start+0x9570>
     cbc: 9c 17 d0     	stz	$d017                   ; 0xd017 <__heap_start+0x9571>
     cbf: a2 f4        	ldx	#$f4
     cc1: 86 30        	stx	$30                     ; 0x2030 <textPrint+0x4e>
     cc3: a2 73        	ldx	#$73
     cc5: 86 12        	stx	$12                     ; 0x2012 <textPrint+0x30>
     cc7: a2 38        	ldx	#$38
     cc9: 86 13        	stx	$13                     ; 0x2013 <textPrint+0x31>
     ccb: 20 e2 1f     	jsr	$1fe2 <textPrint>
     cce: 64 3f        	stz	$3f                     ; 0x203f <textPrint+0x5d>
     cd0: 9c 14 d0     	stz	$d014                   ; 0xd014 <__heap_start+0x956e>
     cd3: 9c 15 d0     	stz	$d015                   ; 0xd015 <__heap_start+0x956f>
     cd6: a2 15        	ldx	#$15
     cd8: 86 40        	stx	$40                     ; 0x2040 <textPrint+0x5e>
     cda: 8e 16 d0     	stx	$d016                   ; 0xd016 <__heap_start+0x9570>
     cdd: 9c 17 d0     	stz	$d017                   ; 0xd017 <__heap_start+0x9571>
     ce0: a2 e1        	ldx	#$e1
     ce2: 86 12        	stx	$12                     ; 0x2012 <textPrint+0x30>
     ce4: a2 38        	ldx	#$38
     ce6: 86 13        	stx	$13                     ; 0x2013 <textPrint+0x31>
     ce8: 20 e2 1f     	jsr	$1fe2 <textPrint>
     ceb: a2 f0        	ldx	#$f0
     ced: 86 30        	stx	$30                     ; 0x2030 <textPrint+0x4e>
     cef: a2 b0        	ldx	#$b0
     cf1: 86 12        	stx	$12                     ; 0x2012 <textPrint+0x30>
     cf3: a2 38        	ldx	#$38
     cf5: 86 13        	stx	$13                     ; 0x2013 <textPrint+0x31>
     cf7: 20 e2 1f     	jsr	$1fe2 <textPrint>
     cfa: a2 f4        	ldx	#$f4
     cfc: 86 30        	stx	$30                     ; 0x2030 <textPrint+0x4e>
     cfe: a2 79        	ldx	#$79
     d00: 86 12        	stx	$12                     ; 0x2012 <textPrint+0x30>
     d02: a2 37        	ldx	#$37
     d04: 86 13        	stx	$13                     ; 0x2013 <textPrint+0x31>
     d06: 20 e2 1f     	jsr	$1fe2 <textPrint>
     d09: a2 f0        	ldx	#$f0
     d0b: 86 30        	stx	$30                     ; 0x2030 <textPrint+0x4e>
     d0d: a2 ed        	ldx	#$ed
     d0f: 86 12        	stx	$12                     ; 0x2012 <textPrint+0x30>
     d11: a2 36        	ldx	#$36
     d13: 86 13        	stx	$13                     ; 0x2013 <textPrint+0x31>
     d15: 20 e2 1f     	jsr	$1fe2 <textPrint>
     d18: a2 f4        	ldx	#$f4
     d1a: 86 30        	stx	$30                     ; 0x2030 <textPrint+0x4e>
     d1c: a2 d7        	ldx	#$d7
     d1e: 86 12        	stx	$12                     ; 0x2012 <textPrint+0x30>
     d20: a2 38        	ldx	#$38
     d22: 86 13        	stx	$13                     ; 0x2013 <textPrint+0x31>
     d24: 20 e2 1f     	jsr	$1fe2 <textPrint>
     d27: a2 f0        	ldx	#$f0
     d29: 86 30        	stx	$30                     ; 0x2030 <textPrint+0x4e>
     d2b: a2 45        	ldx	#$45
     d2d: 86 12        	stx	$12                     ; 0x2012 <textPrint+0x30>
     d2f: a2 38        	ldx	#$38
     d31: 86 13        	stx	$13                     ; 0x2013 <textPrint+0x31>
     d33: 20 e2 1f     	jsr	$1fe2 <textPrint>
     d36: a2 f4        	ldx	#$f4
     d38: 86 30        	stx	$30                     ; 0x2030 <textPrint+0x4e>
     d3a: a2 54        	ldx	#$54
     d3c: 86 12        	stx	$12                     ; 0x2012 <textPrint+0x30>
     d3e: a2 37        	ldx	#$37
     d40: 86 13        	stx	$13                     ; 0x2013 <textPrint+0x31>
     d42: 20 e2 1f     	jsr	$1fe2 <textPrint>
     d45: a2 f0        	ldx	#$f0
     d47: 86 30        	stx	$30                     ; 0x2030 <textPrint+0x4e>
     d49: a2 4c        	ldx	#$4c
     d4b: 86 12        	stx	$12                     ; 0x2012 <textPrint+0x30>
     d4d: a2 38        	ldx	#$38
     d4f: 86 13        	stx	$13                     ; 0x2013 <textPrint+0x31>
     d51: 20 e2 1f     	jsr	$1fe2 <textPrint>
     d54: a2 f4        	ldx	#$f4
     d56: 86 30        	stx	$30                     ; 0x2030 <textPrint+0x4e>
     d58: a2 dc        	ldx	#$dc
     d5a: 86 12        	stx	$12                     ; 0x2012 <textPrint+0x30>
     d5c: a2 38        	ldx	#$38
     d5e: 86 13        	stx	$13                     ; 0x2013 <textPrint+0x31>
     d60: 20 e2 1f     	jsr	$1fe2 <textPrint>
     d63: a2 f0        	ldx	#$f0
     d65: 86 30        	stx	$30                     ; 0x2030 <textPrint+0x4e>
     d67: a2 a4        	ldx	#$a4
     d69: 86 12        	stx	$12                     ; 0x2012 <textPrint+0x30>
     d6b: a2 38        	ldx	#$38
     d6d: 86 13        	stx	$13                     ; 0x2013 <textPrint+0x31>
     d6f: 20 e2 1f     	jsr	$1fe2 <textPrint>
     d72: a2 fa        	ldx	#$fa
     d74: 86 30        	stx	$30                     ; 0x2030 <textPrint+0x4e>
     d76: a2 01        	ldx	#$1
     d78: 86 3f        	stx	$3f                     ; 0x203f <textPrint+0x5d>
     d7a: 8e 14 d0     	stx	$d014                   ; 0xd014 <__heap_start+0x956e>
     d7d: 9c 15 d0     	stz	$d015                   ; 0xd015 <__heap_start+0x956f>
     d80: e8           	inx
     d81: 86 40        	stx	$40                     ; 0x2040 <textPrint+0x5e>
     d83: 8e 16 d0     	stx	$d016                   ; 0xd016 <__heap_start+0x9570>
     d86: 9c 17 d0     	stz	$d017                   ; 0xd017 <__heap_start+0x9571>
     d89: a2 53        	ldx	#$53
     d8b: 86 12        	stx	$12                     ; 0x2012 <textPrint+0x30>
     d8d: a2 38        	ldx	#$38
     d8f: 86 13        	stx	$13                     ; 0x2013 <textPrint+0x31>
     d91: 20 05 28     	jsr	$2805 <printf>
     d94: a2 a0        	ldx	#$a0
     d96: 86 30        	stx	$30                     ; 0x2030 <textPrint+0x4e>
     d98: a2 01        	ldx	#$1
     d9a: 86 3f        	stx	$3f                     ; 0x203f <textPrint+0x5d>
     d9c: 8e 14 d0     	stx	$d014                   ; 0xd014 <__heap_start+0x956e>
     d9f: 9c 15 d0     	stz	$d015                   ; 0xd015 <__heap_start+0x956f>
     da2: a2 03        	ldx	#$3
     da4: 86 40        	stx	$40                     ; 0x2040 <textPrint+0x5e>
     da6: 8e 16 d0     	stx	$d016                   ; 0xd016 <__heap_start+0x9570>
     da9: 9c 17 d0     	stz	$d017                   ; 0xd017 <__heap_start+0x9571>
     dac: a2 e7        	ldx	#$e7
     dae: 86 12        	stx	$12                     ; 0x2012 <textPrint+0x30>
     db0: a2 38        	ldx	#$38
     db2: 86 13        	stx	$13                     ; 0x2013 <textPrint+0x31>
     db4: 20 05 28     	jsr	$2805 <printf>
     db7: a2 01        	ldx	#$1
     db9: 86 3f        	stx	$3f                     ; 0x203f <textPrint+0x5d>
     dbb: 8e 14 d0     	stx	$d014                   ; 0xd014 <__heap_start+0x956e>
     dbe: 9c 15 d0     	stz	$d015                   ; 0xd015 <__heap_start+0x956f>
     dc1: a2 04        	ldx	#$4
     dc3: 86 40        	stx	$40                     ; 0x2040 <textPrint+0x5e>
     dc5: 8e 16 d0     	stx	$d016                   ; 0xd016 <__heap_start+0x9570>
     dc8: 9c 17 d0     	stz	$d017                   ; 0xd017 <__heap_start+0x9571>
     dcb: a2 14        	ldx	#$14
     dcd: 86 12        	stx	$12                     ; 0x2012 <textPrint+0x30>
     dcf: a2 37        	ldx	#$37
     dd1: 86 13        	stx	$13                     ; 0x2013 <textPrint+0x31>
     dd3: 20 05 28     	jsr	$2805 <printf>
     dd6: a2 01        	ldx	#$1
     dd8: 86 3f        	stx	$3f                     ; 0x203f <textPrint+0x5d>
     dda: 8e 14 d0     	stx	$d014                   ; 0xd014 <__heap_start+0x956e>
     ddd: 9c 15 d0     	stz	$d015                   ; 0xd015 <__heap_start+0x956f>
     de0: a2 05        	ldx	#$5
     de2: 86 40        	stx	$40                     ; 0x2040 <textPrint+0x5e>
     de4: 8e 16 d0     	stx	$d016                   ; 0xd016 <__heap_start+0x9570>
     de7: 9c 17 d0     	stz	$d017                   ; 0xd017 <__heap_start+0x9571>
     dea: a2 b7        	ldx	#$b7
     dec: 86 12        	stx	$12                     ; 0x2012 <textPrint+0x30>
     dee: a2 38        	ldx	#$38
     df0: 86 13        	stx	$13                     ; 0x2013 <textPrint+0x31>
     df2: 20 05 28     	jsr	$2805 <printf>
     df5: a2 01        	ldx	#$1
     df7: 86 3f        	stx	$3f                     ; 0x203f <textPrint+0x5d>
     df9: 8e 14 d0     	stx	$d014                   ; 0xd014 <__heap_start+0x956e>
     dfc: 9c 15 d0     	stz	$d015                   ; 0xd015 <__heap_start+0x956f>
     dff: a2 06        	ldx	#$6
     e01: 86 40        	stx	$40                     ; 0x2040 <textPrint+0x5e>
     e03: 8e 16 d0     	stx	$d016                   ; 0xd016 <__heap_start+0x9570>
     e06: 9c 17 d0     	stz	$d017                   ; 0xd017 <__heap_start+0x9571>
     e09: a2 fe        	ldx	#$fe
     e0b: 86 12        	stx	$12                     ; 0x2012 <textPrint+0x30>
     e0d: a2 37        	ldx	#$37
     e0f: 86 13        	stx	$13                     ; 0x2013 <textPrint+0x31>
     e11: 20 05 28     	jsr	$2805 <printf>
     e14: a2 01        	ldx	#$1
     e16: 86 3f        	stx	$3f                     ; 0x203f <textPrint+0x5d>
     e18: 8e 14 d0     	stx	$d014                   ; 0xd014 <__heap_start+0x956e>
     e1b: 9c 15 d0     	stz	$d015                   ; 0xd015 <__heap_start+0x956f>
     e1e: a2 07        	ldx	#$7
     e20: 86 40        	stx	$40                     ; 0x2040 <textPrint+0x5e>
     e22: 8e 16 d0     	stx	$d016                   ; 0xd016 <__heap_start+0x9570>
     e25: 9c 17 d0     	stz	$d017                   ; 0xd017 <__heap_start+0x9571>
     e28: a2 25        	ldx	#$25
     e2a: 86 12        	stx	$12                     ; 0x2012 <textPrint+0x30>
     e2c: a2 38        	ldx	#$38
     e2e: 86 13        	stx	$13                     ; 0x2013 <textPrint+0x31>
     e30: 20 05 28     	jsr	$2805 <printf>
     e33: a2 fa        	ldx	#$fa
     e35: 86 30        	stx	$30                     ; 0x2030 <textPrint+0x4e>
     e37: a2 01        	ldx	#$1
     e39: 86 3f        	stx	$3f                     ; 0x203f <textPrint+0x5d>
     e3b: 8e 14 d0     	stx	$d014                   ; 0xd014 <__heap_start+0x956e>
     e3e: 9c 15 d0     	stz	$d015                   ; 0xd015 <__heap_start+0x956f>
     e41: a2 09        	ldx	#$9
     e43: 86 40        	stx	$40                     ; 0x2040 <textPrint+0x5e>
     e45: 8e 16 d0     	stx	$d016                   ; 0xd016 <__heap_start+0x9570>
     e48: 9c 17 d0     	stz	$d017                   ; 0xd017 <__heap_start+0x9571>
     e4b: a2 84        	ldx	#$84
     e4d: 86 12        	stx	$12                     ; 0x2012 <textPrint+0x30>
     e4f: a2 38        	ldx	#$38
     e51: 86 13        	stx	$13                     ; 0x2013 <textPrint+0x31>
     e53: 20 05 28     	jsr	$2805 <printf>
     e56: a2 a0        	ldx	#$a0
     e58: 86 30        	stx	$30                     ; 0x2030 <textPrint+0x4e>
     e5a: a2 01        	ldx	#$1
     e5c: 86 3f        	stx	$3f                     ; 0x203f <textPrint+0x5d>
     e5e: 8e 14 d0     	stx	$d014                   ; 0xd014 <__heap_start+0x956e>
     e61: 9c 15 d0     	stz	$d015                   ; 0xd015 <__heap_start+0x956f>
     e64: a2 0a        	ldx	#$a
     e66: 86 40        	stx	$40                     ; 0x2040 <textPrint+0x5e>
     e68: 8e 16 d0     	stx	$d016                   ; 0xd016 <__heap_start+0x9570>
     e6b: 9c 17 d0     	stz	$d017                   ; 0xd017 <__heap_start+0x9571>
     e6e: a2 27        	ldx	#$27
     e70: 86 12        	stx	$12                     ; 0x2012 <textPrint+0x30>
     e72: a2 39        	ldx	#$39
     e74: 86 13        	stx	$13                     ; 0x2013 <textPrint+0x31>
     e76: 20 05 28     	jsr	$2805 <printf>
     e79: a2 01        	ldx	#$1
     e7b: 86 3f        	stx	$3f                     ; 0x203f <textPrint+0x5d>
     e7d: 8e 14 d0     	stx	$d014                   ; 0xd014 <__heap_start+0x956e>
     e80: 9c 15 d0     	stz	$d015                   ; 0xd015 <__heap_start+0x956f>
     e83: a2 0b        	ldx	#$b
     e85: 86 40        	stx	$40                     ; 0x2040 <textPrint+0x5e>
     e87: 8e 16 d0     	stx	$d016                   ; 0xd016 <__heap_start+0x9570>
     e8a: 9c 17 d0     	stz	$d017                   ; 0xd017 <__heap_start+0x9571>
     e8d: a2 67        	ldx	#$67
     e8f: 86 12        	stx	$12                     ; 0x2012 <textPrint+0x30>
     e91: a2 39        	ldx	#$39
     e93: 86 13        	stx	$13                     ; 0x2013 <textPrint+0x31>
     e95: 20 05 28     	jsr	$2805 <printf>
     e98: a2 01        	ldx	#$1
     e9a: 86 3f        	stx	$3f                     ; 0x203f <textPrint+0x5d>
     e9c: 8e 14 d0     	stx	$d014                   ; 0xd014 <__heap_start+0x956e>
     e9f: 9c 15 d0     	stz	$d015                   ; 0xd015 <__heap_start+0x956f>
     ea2: a2 0c        	ldx	#$c
     ea4: 86 40        	stx	$40                     ; 0x2040 <textPrint+0x5e>
     ea6: 8e 16 d0     	stx	$d016                   ; 0xd016 <__heap_start+0x9570>
     ea9: 9c 17 d0     	stz	$d017                   ; 0xd017 <__heap_start+0x9571>
     eac: a2 f4        	ldx	#$f4
     eae: 86 12        	stx	$12                     ; 0x2012 <textPrint+0x30>
     eb0: a2 36        	ldx	#$36
     eb2: 86 13        	stx	$13                     ; 0x2013 <textPrint+0x31>
     eb4: 20 05 28     	jsr	$2805 <printf>
     eb7: a2 01        	ldx	#$1
     eb9: 86 3f        	stx	$3f                     ; 0x203f <textPrint+0x5d>
     ebb: 8e 14 d0     	stx	$d014                   ; 0xd014 <__heap_start+0x956e>
     ebe: 9c 15 d0     	stz	$d015                   ; 0xd015 <__heap_start+0x956f>
     ec1: a2 0d        	ldx	#$d
     ec3: 86 40        	stx	$40                     ; 0x2040 <textPrint+0x5e>
     ec5: 8e 16 d0     	stx	$d016                   ; 0xd016 <__heap_start+0x9570>
     ec8: 9c 17 d0     	stz	$d017                   ; 0xd017 <__heap_start+0x9571>
     ecb: a2 07        	ldx	#$7
     ecd: 86 12        	stx	$12                     ; 0x2012 <textPrint+0x30>
     ecf: a2 39        	ldx	#$39
     ed1: 86 13        	stx	$13                     ; 0x2013 <textPrint+0x31>
     ed3: 20 05 28     	jsr	$2805 <printf>
     ed6: a2 01        	ldx	#$1
     ed8: 86 3f        	stx	$3f                     ; 0x203f <textPrint+0x5d>
     eda: 8e 14 d0     	stx	$d014                   ; 0xd014 <__heap_start+0x956e>
     edd: 9c 15 d0     	stz	$d015                   ; 0xd015 <__heap_start+0x956f>
     ee0: a2 0e        	ldx	#$e
     ee2: 86 40        	stx	$40                     ; 0x2040 <textPrint+0x5e>
     ee4: 8e 16 d0     	stx	$d016                   ; 0xd016 <__heap_start+0x9570>
     ee7: 9c 17 d0     	stz	$d017                   ; 0xd017 <__heap_start+0x9571>
     eea: a2 47        	ldx	#$47
     eec: 86 12        	stx	$12                     ; 0x2012 <textPrint+0x30>
     eee: a2 39        	ldx	#$39
     ef0: 86 13        	stx	$13                     ; 0x2013 <textPrint+0x31>
     ef2: 20 05 28     	jsr	$2805 <printf>
     ef5: a2 01        	ldx	#$1
     ef7: 86 3f        	stx	$3f                     ; 0x203f <textPrint+0x5d>
     ef9: 8e 14 d0     	stx	$d014                   ; 0xd014 <__heap_start+0x956e>
     efc: 9c 15 d0     	stz	$d015                   ; 0xd015 <__heap_start+0x956f>
     eff: a2 0f        	ldx	#$f
     f01: 86 40        	stx	$40                     ; 0x2040 <textPrint+0x5e>
     f03: 8e 16 d0     	stx	$d016                   ; 0xd016 <__heap_start+0x9570>
     f06: 9c 17 d0     	stz	$d017                   ; 0xd017 <__heap_start+0x9571>
     f09: a2 34        	ldx	#$34
     f0b: 86 12        	stx	$12                     ; 0x2012 <textPrint+0x30>
     f0d: a2 37        	ldx	#$37
     f0f: 86 13        	stx	$13                     ; 0x2013 <textPrint+0x31>
     f11: 20 05 28     	jsr	$2805 <printf>
     f14: a2 01        	ldx	#$1
     f16: 86 3f        	stx	$3f                     ; 0x203f <textPrint+0x5d>
     f18: 8e 14 d0     	stx	$d014                   ; 0xd014 <__heap_start+0x956e>
     f1b: 9c 15 d0     	stz	$d015                   ; 0xd015 <__heap_start+0x956f>
     f1e: a2 10        	ldx	#$10
     f20: 86 40        	stx	$40                     ; 0x2040 <textPrint+0x5e>
     f22: 8e 16 d0     	stx	$d016                   ; 0xd016 <__heap_start+0x9570>
     f25: 9c 17 d0     	stz	$d017                   ; 0xd017 <__heap_start+0x9571>
     f28: a2 7e        	ldx	#$7e
     f2a: 86 12        	stx	$12                     ; 0x2012 <textPrint+0x30>
     f2c: a2 37        	ldx	#$37
     f2e: 86 13        	stx	$13                     ; 0x2013 <textPrint+0x31>
     f30: 20 05 28     	jsr	$2805 <printf>
     f33: a2 fa        	ldx	#$fa
     f35: 86 30        	stx	$30                     ; 0x2030 <textPrint+0x4e>
     f37: a2 01        	ldx	#$1
     f39: 86 3f        	stx	$3f                     ; 0x203f <textPrint+0x5d>
     f3b: 8e 14 d0     	stx	$d014                   ; 0xd014 <__heap_start+0x956e>
     f3e: 9c 15 d0     	stz	$d015                   ; 0xd015 <__heap_start+0x956f>
     f41: a2 12        	ldx	#$12
     f43: 86 40        	stx	$40                     ; 0x2040 <textPrint+0x5e>
     f45: 8e 16 d0     	stx	$d016                   ; 0xd016 <__heap_start+0x9570>
     f48: 9c 17 d0     	stz	$d017                   ; 0xd017 <__heap_start+0x9571>
     f4b: a2 59        	ldx	#$59
     f4d: 86 12        	stx	$12                     ; 0x2012 <textPrint+0x30>
     f4f: a2 37        	ldx	#$37
     f51: 86 13        	stx	$13                     ; 0x2013 <textPrint+0x31>
     f53: 20 05 28     	jsr	$2805 <printf>
     f56: 20 51 23     	jsr	$2351 <updateValues>
     f59: a5 43        	lda	$43                     ; 0x2043 <textPrint+0x61>
     f5b: 29 01        	and	#$1
     f5d: d0 03        	bne	$f62 <main+0xc0c>
     f5f: 4c cd 10     	jmp	$10cd <main+0xd77>
     f62: 9c 00 d4     	stz	$d400                   ; 0xd400 <__heap_start+0x995a>
     f65: 9c 00 d5     	stz	$d500                   ; 0xd500 <__heap_start+0x9a5a>
     f68: 9c 01 d4     	stz	$d401                   ; 0xd401 <__heap_start+0x995b>
     f6b: 9c 01 d5     	stz	$d501                   ; 0xd501 <__heap_start+0x9a5b>
     f6e: 9c 02 d4     	stz	$d402                   ; 0xd402 <__heap_start+0x995c>
     f71: 9c 02 d5     	stz	$d502                   ; 0xd502 <__heap_start+0x9a5c>
     f74: 9c 03 d4     	stz	$d403                   ; 0xd403 <__heap_start+0x995d>
     f77: 9c 03 d5     	stz	$d503                   ; 0xd503 <__heap_start+0x9a5d>
     f7a: 9c 04 d4     	stz	$d404                   ; 0xd404 <__heap_start+0x995e>
     f7d: 9c 04 d5     	stz	$d504                   ; 0xd504 <__heap_start+0x9a5e>
     f80: 9c 05 d4     	stz	$d405                   ; 0xd405 <__heap_start+0x995f>
     f83: 9c 05 d5     	stz	$d505                   ; 0xd505 <__heap_start+0x9a5f>
     f86: 9c 06 d4     	stz	$d406                   ; 0xd406 <__heap_start+0x9960>
     f89: 9c 06 d5     	stz	$d506                   ; 0xd506 <__heap_start+0x9a60>
     f8c: 9c 07 d4     	stz	$d407                   ; 0xd407 <__heap_start+0x9961>
     f8f: 9c 07 d5     	stz	$d507                   ; 0xd507 <__heap_start+0x9a61>
     f92: 9c 08 d4     	stz	$d408                   ; 0xd408 <__heap_start+0x9962>
     f95: 9c 08 d5     	stz	$d508                   ; 0xd508 <__heap_start+0x9a62>
     f98: 9c 09 d4     	stz	$d409                   ; 0xd409 <__heap_start+0x9963>
     f9b: 9c 09 d5     	stz	$d509                   ; 0xd509 <__heap_start+0x9a63>
     f9e: 9c 0a d4     	stz	$d40a                   ; 0xd40a <__heap_start+0x9964>
     fa1: 9c 0a d5     	stz	$d50a                   ; 0xd50a <__heap_start+0x9a64>
     fa4: 9c 0b d4     	stz	$d40b                   ; 0xd40b <__heap_start+0x9965>
     fa7: 9c 0b d5     	stz	$d50b                   ; 0xd50b <__heap_start+0x9a65>
     faa: 9c 0c d4     	stz	$d40c                   ; 0xd40c <__heap_start+0x9966>
     fad: 9c 0c d5     	stz	$d50c                   ; 0xd50c <__heap_start+0x9a66>
     fb0: 9c 0d d4     	stz	$d40d                   ; 0xd40d <__heap_start+0x9967>
     fb3: 9c 0d d5     	stz	$d50d                   ; 0xd50d <__heap_start+0x9a67>
     fb6: 9c 0e d4     	stz	$d40e                   ; 0xd40e <__heap_start+0x9968>
     fb9: 9c 0e d5     	stz	$d50e                   ; 0xd50e <__heap_start+0x9a68>
     fbc: 9c 0f d4     	stz	$d40f                   ; 0xd40f <__heap_start+0x9969>
     fbf: 9c 0f d5     	stz	$d50f                   ; 0xd50f <__heap_start+0x9a69>
     fc2: 9c 10 d4     	stz	$d410                   ; 0xd410 <__heap_start+0x996a>
     fc5: 9c 10 d5     	stz	$d510                   ; 0xd510 <__heap_start+0x9a6a>
     fc8: 9c 11 d4     	stz	$d411                   ; 0xd411 <__heap_start+0x996b>
     fcb: 9c 11 d5     	stz	$d511                   ; 0xd511 <__heap_start+0x9a6b>
     fce: 9c 12 d4     	stz	$d412                   ; 0xd412 <__heap_start+0x996c>
     fd1: 9c 12 d5     	stz	$d512                   ; 0xd512 <__heap_start+0x9a6c>
     fd4: 9c 13 d4     	stz	$d413                   ; 0xd413 <__heap_start+0x996d>
     fd7: 9c 13 d5     	stz	$d513                   ; 0xd513 <__heap_start+0x9a6d>
     fda: 9c 14 d4     	stz	$d414                   ; 0xd414 <__heap_start+0x996e>
     fdd: 9c 14 d5     	stz	$d514                   ; 0xd514 <__heap_start+0x9a6e>
     fe0: 9c 15 d4     	stz	$d415                   ; 0xd415 <__heap_start+0x996f>
     fe3: 9c 15 d5     	stz	$d515                   ; 0xd515 <__heap_start+0x9a6f>
     fe6: 9c 16 d4     	stz	$d416                   ; 0xd416 <__heap_start+0x9970>
     fe9: 9c 16 d5     	stz	$d516                   ; 0xd516 <__heap_start+0x9a70>
     fec: 9c 17 d4     	stz	$d417                   ; 0xd417 <__heap_start+0x9971>
     fef: 9c 17 d5     	stz	$d517                   ; 0xd517 <__heap_start+0x9a71>
     ff2: 9c 18 d4     	stz	$d418                   ; 0xd418 <__heap_start+0x9972>
     ff5: 9c 18 d5     	stz	$d518                   ; 0xd518 <__heap_start+0x9a72>
     ff8: ad a1 d6     	lda	$d6a1                   ; 0xd6a1 <__heap_start+0x9bfb>
     ffb: 29 f7        	and	#$f7
     ffd: 8d a1 d6     	sta	$d6a1                   ; 0xd6a1 <__heap_start+0x9bfb>
    1000: a9 ff        	lda	#$ff
    1002: 8d 02 d4     	sta	$d402                   ; 0xd402 <__heap_start+0x995c>
    1005: a2 07        	ldx	#$7
    1007: 8e 03 d4     	stx	$d403                   ; 0xd403 <__heap_start+0x995d>
    100a: a0 09        	ldy	#$9
    100c: 8c 05 d4     	sty	$d405                   ; 0xd405 <__heap_start+0x995f>
    100f: 9c 06 d4     	stz	$d406                   ; 0xd406 <__heap_start+0x9960>
    1012: a2 20        	ldx	#$20
    1014: 8e 04 d4     	stx	$d404                   ; 0xd404 <__heap_start+0x995e>
    1017: 8d 02 d5     	sta	$d502                   ; 0xd502 <__heap_start+0x9a5c>
    101a: a2 07        	ldx	#$7
    101c: 8e 03 d5     	stx	$d503                   ; 0xd503 <__heap_start+0x9a5d>
    101f: 8c 05 d5     	sty	$d505                   ; 0xd505 <__heap_start+0x9a5f>
    1022: 9c 06 d5     	stz	$d506                   ; 0xd506 <__heap_start+0x9a60>
    1025: a2 20        	ldx	#$20
    1027: 8e 04 d5     	stx	$d504                   ; 0xd504 <__heap_start+0x9a5e>
    102a: 8d 09 d4     	sta	$d409                   ; 0xd409 <__heap_start+0x9963>
    102d: a2 07        	ldx	#$7
    102f: 8e 0a d4     	stx	$d40a                   ; 0xd40a <__heap_start+0x9964>
    1032: 8c 0c d4     	sty	$d40c                   ; 0xd40c <__heap_start+0x9966>
    1035: 9c 0d d4     	stz	$d40d                   ; 0xd40d <__heap_start+0x9967>
    1038: a2 20        	ldx	#$20
    103a: 8e 0b d4     	stx	$d40b                   ; 0xd40b <__heap_start+0x9965>
    103d: 8d 09 d5     	sta	$d509                   ; 0xd509 <__heap_start+0x9a63>
    1040: a2 07        	ldx	#$7
    1042: 8e 0a d5     	stx	$d50a                   ; 0xd50a <__heap_start+0x9a64>
    1045: 8c 0c d5     	sty	$d50c                   ; 0xd50c <__heap_start+0x9a66>
    1048: 9c 0d d5     	stz	$d50d                   ; 0xd50d <__heap_start+0x9a67>
    104b: a2 20        	ldx	#$20
    104d: 8e 0b d5     	stx	$d50b                   ; 0xd50b <__heap_start+0x9a65>
    1050: 8d 10 d4     	sta	$d410                   ; 0xd410 <__heap_start+0x996a>
    1053: a2 07        	ldx	#$7
    1055: 8e 11 d4     	stx	$d411                   ; 0xd411 <__heap_start+0x996b>
    1058: 8c 13 d4     	sty	$d413                   ; 0xd413 <__heap_start+0x996d>
    105b: 9c 14 d4     	stz	$d414                   ; 0xd414 <__heap_start+0x996e>
    105e: a2 20        	ldx	#$20
    1060: 8e 12 d4     	stx	$d412                   ; 0xd412 <__heap_start+0x996c>
    1063: 8d 10 d5     	sta	$d510                   ; 0xd510 <__heap_start+0x9a6a>
    1066: a9 07        	lda	#$7
    1068: 8d 11 d5     	sta	$d511                   ; 0xd511 <__heap_start+0x9a6b>
    106b: 8c 13 d5     	sty	$d513                   ; 0xd513 <__heap_start+0x9a6d>
    106e: 9c 14 d5     	stz	$d514                   ; 0xd514 <__heap_start+0x9a6e>
    1071: 8e 12 d5     	stx	$d512                   ; 0xd512 <__heap_start+0x9a6c>
    1074: 9c 14 d4     	stz	$d414                   ; 0xd414 <__heap_start+0x996e>
    1077: 9c 15 d4     	stz	$d415                   ; 0xd415 <__heap_start+0x996f>
    107a: 9c 17 d4     	stz	$d417                   ; 0xd417 <__heap_start+0x9971>
    107d: a2 0f        	ldx	#$f
    107f: 8e 18 d4     	stx	$d418                   ; 0xd418 <__heap_start+0x9972>
    1082: 9c 14 d5     	stz	$d514                   ; 0xd514 <__heap_start+0x9a6e>
    1085: 9c 15 d5     	stz	$d515                   ; 0xd515 <__heap_start+0x9a6f>
    1088: 9c 17 d5     	stz	$d517                   ; 0xd517 <__heap_start+0x9a71>
    108b: 8e 18 d5     	stx	$d518                   ; 0xd518 <__heap_start+0x9a72>
    108e: 78           	sei
    108f: 85 0f        	sta	$f                      ; 0x200f <textPrint+0x2d>
    1091: a2 de        	ldx	#$de
    1093: 8e a2 d6     	stx	$d6a2                   ; 0xd6a2 <__heap_start+0x9bfc>
    1096: a2 ad        	ldx	#$ad
    1098: 8e a3 d6     	stx	$d6a3                   ; 0xd6a3 <__heap_start+0x9bfd>
    109b: a2 f0        	ldx	#$f0
    109d: 8e a0 d6     	stx	$d6a0                   ; 0xd6a0 <__heap_start+0x9bfa>
    10a0: 9c a0 d6     	stz	$d6a0                   ; 0xd6a0 <__heap_start+0x9bfa>
    10a3: 6c fc ff     	jmp	($fffc)                 ; 0xfffc <__heap_start+0xc556>
    10a6: a2 00        	ldx	#$0
    10a8: 8a           	txa
    10a9: 85 20        	sta	$20                     ; 0x2020 <textPrint+0x3e>
    10ab: a0 02        	ldy	#$2
    10ad: b1 10        	lda	($10),y                 ; 0x2010 <textPrint+0x2e>
    10af: 85 28        	sta	$28                     ; 0x2028 <textPrint+0x46>
    10b1: 7a           	ply
    10b2: 84 27        	sty	$27                     ; 0x2027 <textPrint+0x45>
    10b4: 7a           	ply
    10b5: 84 26        	sty	$26                     ; 0x2026 <textPrint+0x44>
    10b7: 7a           	ply
    10b8: 84 25        	sty	$25                     ; 0x2025 <textPrint+0x43>
    10ba: 7a           	ply
    10bb: 84 24        	sty	$24                     ; 0x2024 <textPrint+0x42>
    10bd: 18           	clc
    10be: a5 10        	lda	$10                     ; 0x2010 <textPrint+0x2e>
    10c0: 69 11        	adc	#$11
    10c2: 85 10        	sta	$10                     ; 0x2010 <textPrint+0x2e>
    10c4: a5 11        	lda	$11                     ; 0x2011 <textPrint+0x2f>
    10c6: 69 00        	adc	#$0
    10c8: 85 11        	sta	$11                     ; 0x2011 <textPrint+0x2f>
    10ca: a5 20        	lda	$20                     ; 0x2020 <textPrint+0x3e>
    10cc: 60           	rts
    10cd: a2 90        	ldx	#$90
    10cf: 8a           	txa
    10d0: a0 03        	ldy	#$3
    10d2: 91 10        	sta	($10),y                 ; 0x2010 <textPrint+0x2e>
    10d4: a2 27        	ldx	#$27
    10d6: 86 24        	stx	$24                     ; 0x2024 <textPrint+0x42>
    10d8: a2 3a        	ldx	#$3a
    10da: 86 25        	stx	$25                     ; 0x2025 <textPrint+0x43>
    10dc: 64 27        	stz	$27                     ; 0x2027 <textPrint+0x45>
    10de: 64 26        	stz	$26                     ; 0x2026 <textPrint+0x44>
    10e0: 64 12        	stz	$12                     ; 0x2012 <textPrint+0x30>
    10e2: a9 00        	lda	#$0
    10e4: a0 05        	ldy	#$5
    10e6: 91 10        	sta	($10),y                 ; 0x2010 <textPrint+0x2e>
    10e8: a8           	tay
    10e9: 4c 81 15     	jmp	$1581 <main+0x122b>
    10ec: a6 44        	ldx	$44                     ; 0x2044 <textPrint+0x62>
    10ee: d0 03        	bne	$10f3 <main+0xd9d>
    10f0: 4c 1b 1e     	jmp	$1e1b <main+0x1ac5>
    10f3: 86 12        	stx	$12                     ; 0x2012 <textPrint+0x30>
    10f5: ca           	dex
    10f6: 4c a4 14     	jmp	$14a4 <main+0x114e>
    10f9: a5 44        	lda	$44                     ; 0x2044 <textPrint+0x62>
    10fb: 64 13        	stz	$13                     ; 0x2013 <textPrint+0x31>
    10fd: 0a           	asl
    10fe: 26 13        	rol	$13                     ; 0x2013 <textPrint+0x31>
    1100: 0a           	asl
    1101: 26 13        	rol	$13                     ; 0x2013 <textPrint+0x31>
    1103: 0a           	asl
    1104: 26 13        	rol	$13                     ; 0x2013 <textPrint+0x31>
    1106: 38           	sec
    1107: e5 44        	sbc	$44                     ; 0x2044 <textPrint+0x62>
    1109: 85 12        	sta	$12                     ; 0x2012 <textPrint+0x30>
    110b: a5 13        	lda	$13                     ; 0x2013 <textPrint+0x31>
    110d: e9 00        	sbc	#$0
    110f: 85 13        	sta	$13                     ; 0x2013 <textPrint+0x31>
    1111: a9 35        	lda	#$35
    1113: 18           	clc
    1114: 65 12        	adc	$12                     ; 0x2012 <textPrint+0x30>
    1116: 85 12        	sta	$12                     ; 0x2012 <textPrint+0x30>
    1118: a9 3a        	lda	#$3a
    111a: 65 13        	adc	$13                     ; 0x2013 <textPrint+0x31>
    111c: 85 13        	sta	$13                     ; 0x2013 <textPrint+0x31>
    111e: a9 04        	lda	#$4
    1120: 4c 89 13     	jmp	$1389 <main+0x1033>
    1123: a5 44        	lda	$44                     ; 0x2044 <textPrint+0x62>
    1125: 0a           	asl
    1126: aa           	tax
    1127: a9 00        	lda	#$0
    1129: 2a           	rol
    112a: 86 12        	stx	$12                     ; 0x2012 <textPrint+0x30>
    112c: 06 12        	asl	$12                     ; 0x2012 <textPrint+0x30>
    112e: 2a           	rol
    112f: 06 12        	asl	$12                     ; 0x2012 <textPrint+0x30>
    1131: 2a           	rol
    1132: aa           	tax
    1133: 38           	sec
    1134: a5 12        	lda	$12                     ; 0x2012 <textPrint+0x30>
    1136: e5 44        	sbc	$44                     ; 0x2044 <textPrint+0x62>
    1138: 85 12        	sta	$12                     ; 0x2012 <textPrint+0x30>
    113a: 8a           	txa
    113b: e9 00        	sbc	#$0
    113d: 85 13        	sta	$13                     ; 0x2013 <textPrint+0x31>
    113f: a9 35        	lda	#$35
    1141: 18           	clc
    1142: 65 12        	adc	$12                     ; 0x2012 <textPrint+0x30>
    1144: 85 12        	sta	$12                     ; 0x2012 <textPrint+0x30>
    1146: a9 3a        	lda	#$3a
    1148: 65 13        	adc	$13                     ; 0x2013 <textPrint+0x31>
    114a: 85 13        	sta	$13                     ; 0x2013 <textPrint+0x31>
    114c: a9 00        	lda	#$0
    114e: 4c 89 13     	jmp	$1389 <main+0x1033>
    1151: a0 01        	ldy	#$1
    1153: 8c a6 d6     	sty	$d6a6                   ; 0xd6a6 <__heap_start+0x9c00>
    1156: ad a4 d6     	lda	$d6a4                   ; 0xd6a4 <__heap_start+0x9bfe>
    1159: ae a5 d6     	ldx	$d6a5                   ; 0xd6a5 <__heap_start+0x9bff>
    115c: 29 07        	and	#$7
    115e: 8d 35 3a     	sta	$3a35                   ; 0x3a35 <sid_fields>
    1161: 8c a6 d6     	sty	$d6a6                   ; 0xd6a6 <__heap_start+0x9c00>
    1164: ad a4 d6     	lda	$d6a4                   ; 0xd6a4 <__heap_start+0x9bfe>
    1167: ae a5 d6     	ldx	$d6a5                   ; 0xd6a5 <__heap_start+0x9bff>
    116a: 29 0f        	and	#$f
    116c: 8d 3c 3a     	sta	$3a3c                   ; 0x3a3c <sid_fields+0x7>
    116f: 8c a6 d6     	sty	$d6a6                   ; 0xd6a6 <__heap_start+0x9c00>
    1172: ad a4 d6     	lda	$d6a4                   ; 0xd6a4 <__heap_start+0x9bfe>
    1175: ae a5 d6     	ldx	$d6a5                   ; 0xd6a5 <__heap_start+0x9bff>
    1178: 29 0f        	and	#$f
    117a: 8d 43 3a     	sta	$3a43                   ; 0x3a43 <sid_fields+0xe>
    117d: 8c a6 d6     	sty	$d6a6                   ; 0xd6a6 <__heap_start+0x9c00>
    1180: ad a4 d6     	lda	$d6a4                   ; 0xd6a4 <__heap_start+0x9bfe>
    1183: ae a5 d6     	ldx	$d6a5                   ; 0xd6a5 <__heap_start+0x9bff>
    1186: 29 0f        	and	#$f
    1188: 8d 4a 3a     	sta	$3a4a                   ; 0x3a4a <sid_fields+0x15>
    118b: 8c a6 d6     	sty	$d6a6                   ; 0xd6a6 <__heap_start+0x9c00>
    118e: ad a4 d6     	lda	$d6a4                   ; 0xd6a4 <__heap_start+0x9bfe>
    1191: ae a5 d6     	ldx	$d6a5                   ; 0xd6a5 <__heap_start+0x9bff>
    1194: 29 0f        	and	#$f
    1196: 8d 51 3a     	sta	$3a51                   ; 0x3a51 <sid_fields+0x1c>
    1199: 8c a6 d6     	sty	$d6a6                   ; 0xd6a6 <__heap_start+0x9c00>
    119c: ad a4 d6     	lda	$d6a4                   ; 0xd6a4 <__heap_start+0x9bfe>
    119f: ae a5 d6     	ldx	$d6a5                   ; 0xd6a5 <__heap_start+0x9bff>
    11a2: 29 0f        	and	#$f
    11a4: 8d 58 3a     	sta	$3a58                   ; 0x3a58 <sid_fields+0x23>
    11a7: 8c a6 d6     	sty	$d6a6                   ; 0xd6a6 <__heap_start+0x9c00>
    11aa: ad a4 d6     	lda	$d6a4                   ; 0xd6a4 <__heap_start+0x9bfe>
    11ad: ae a5 d6     	ldx	$d6a5                   ; 0xd6a5 <__heap_start+0x9bff>
    11b0: 29 03        	and	#$3
    11b2: aa           	tax
    11b3: 98           	tya
    11b4: 20 7d 34     	jsr	$347d <__ashlqi3>
    11b7: 8d 66 3a     	sta	$3a66                   ; 0x3a66 <sid_fields+0x31>
    11ba: a0 01        	ldy	#$1
    11bc: 8c a6 d6     	sty	$d6a6                   ; 0xd6a6 <__heap_start+0x9c00>
    11bf: ad a4 d6     	lda	$d6a4                   ; 0xd6a4 <__heap_start+0x9bfe>
    11c2: ae a5 d6     	ldx	$d6a5                   ; 0xd6a5 <__heap_start+0x9bff>
    11c5: 29 0f        	and	#$f
    11c7: 8d 6d 3a     	sta	$3a6d                   ; 0x3a6d <sid_fields+0x38>
    11ca: 8c a6 d6     	sty	$d6a6                   ; 0xd6a6 <__heap_start+0x9c00>
    11cd: ad a4 d6     	lda	$d6a4                   ; 0xd6a4 <__heap_start+0x9bfe>
    11d0: ae a5 d6     	ldx	$d6a5                   ; 0xd6a5 <__heap_start+0x9bff>
    11d3: 29 0f        	and	#$f
    11d5: 8d 74 3a     	sta	$3a74                   ; 0x3a74 <sid_fields+0x3f>
    11d8: 8c a6 d6     	sty	$d6a6                   ; 0xd6a6 <__heap_start+0x9c00>
    11db: ad a4 d6     	lda	$d6a4                   ; 0xd6a4 <__heap_start+0x9bfe>
    11de: ae a5 d6     	ldx	$d6a5                   ; 0xd6a5 <__heap_start+0x9bff>
    11e1: 29 0f        	and	#$f
    11e3: 8d 7b 3a     	sta	$3a7b                   ; 0x3a7b <sid_fields+0x46>
    11e6: 8c a6 d6     	sty	$d6a6                   ; 0xd6a6 <__heap_start+0x9c00>
    11e9: ad a4 d6     	lda	$d6a4                   ; 0xd6a4 <__heap_start+0x9bfe>
    11ec: ae a5 d6     	ldx	$d6a5                   ; 0xd6a5 <__heap_start+0x9bff>
    11ef: 29 0f        	and	#$f
    11f1: 8d 82 3a     	sta	$3a82                   ; 0x3a82 <sid_fields+0x4d>
    11f4: 8c a6 d6     	sty	$d6a6                   ; 0xd6a6 <__heap_start+0x9c00>
    11f7: ad a4 d6     	lda	$d6a4                   ; 0xd6a4 <__heap_start+0x9bfe>
    11fa: ae a5 d6     	ldx	$d6a5                   ; 0xd6a5 <__heap_start+0x9bff>
    11fd: 29 0f        	and	#$f
    11ff: 8d 89 3a     	sta	$3a89                   ; 0x3a89 <sid_fields+0x54>
    1202: 8c a6 d6     	sty	$d6a6                   ; 0xd6a6 <__heap_start+0x9c00>
    1205: ad a4 d6     	lda	$d6a4                   ; 0xd6a4 <__heap_start+0x9bfe>
    1208: ae a5 d6     	ldx	$d6a5                   ; 0xd6a5 <__heap_start+0x9bff>
    120b: 29 0f        	and	#$f
    120d: 8d 90 3a     	sta	$3a90                   ; 0x3a90 <sid_fields+0x5b>
    1210: 8c a6 d6     	sty	$d6a6                   ; 0xd6a6 <__heap_start+0x9c00>
    1213: ad a4 d6     	lda	$d6a4                   ; 0xd6a4 <__heap_start+0x9bfe>
    1216: ae a5 d6     	ldx	$d6a5                   ; 0xd6a5 <__heap_start+0x9bff>
    1219: 29 0f        	and	#$f
    121b: 8d 97 3a     	sta	$3a97                   ; 0x3a97 <sid_fields+0x62>
    121e: 8c a6 d6     	sty	$d6a6                   ; 0xd6a6 <__heap_start+0x9c00>
    1221: ad a4 d6     	lda	$d6a4                   ; 0xd6a4 <__heap_start+0x9bfe>
    1224: ae a5 d6     	ldx	$d6a5                   ; 0xd6a5 <__heap_start+0x9bff>
    1227: 29 0f        	and	#$f
    1229: 8d 9e 3a     	sta	$3a9e                   ; 0x3a9e <sid_fields+0x69>
    122c: a2 01        	ldx	#$1
    122e: 8e 39 3a     	stx	$3a39                   ; 0x3a39 <sid_fields+0x4>
    1231: 8e 40 3a     	stx	$3a40                   ; 0x3a40 <sid_fields+0xb>
    1234: 8e 47 3a     	stx	$3a47                   ; 0x3a47 <sid_fields+0x12>
    1237: 8e 4e 3a     	stx	$3a4e                   ; 0x3a4e <sid_fields+0x19>
    123a: 8e 55 3a     	stx	$3a55                   ; 0x3a55 <sid_fields+0x20>
    123d: 8e 5c 3a     	stx	$3a5c                   ; 0x3a5c <sid_fields+0x27>
    1240: 8e 63 3a     	stx	$3a63                   ; 0x3a63 <sid_fields+0x2e>
    1243: 8e 6a 3a     	stx	$3a6a                   ; 0x3a6a <sid_fields+0x35>
    1246: 8e 71 3a     	stx	$3a71                   ; 0x3a71 <sid_fields+0x3c>
    1249: 8e 78 3a     	stx	$3a78                   ; 0x3a78 <sid_fields+0x43>
    124c: 8e 7f 3a     	stx	$3a7f                   ; 0x3a7f <sid_fields+0x4a>
    124f: 8e 86 3a     	stx	$3a86                   ; 0x3a86 <sid_fields+0x51>
    1252: 8e 8d 3a     	stx	$3a8d                   ; 0x3a8d <sid_fields+0x58>
    1255: 8e 94 3a     	stx	$3a94                   ; 0x3a94 <sid_fields+0x5f>
    1258: 8e 9b 3a     	stx	$3a9b                   ; 0x3a9b <sid_fields+0x66>
    125b: 8e a2 3a     	stx	$3aa2                   ; 0x3aa2 <sid_fields+0x6d>
    125e: 4c 91 13     	jmp	$1391 <main+0x103b>
    1261: a6 44        	ldx	$44                     ; 0x2044 <textPrint+0x62>
    1263: 86 12        	stx	$12                     ; 0x2012 <textPrint+0x30>
    1265: 64 14        	stz	$14                     ; 0x2014 <textPrint+0x32>
    1267: 8a           	txa
    1268: 0a           	asl
    1269: 26 14        	rol	$14                     ; 0x2014 <textPrint+0x32>
    126b: 0a           	asl
    126c: 26 14        	rol	$14                     ; 0x2014 <textPrint+0x32>
    126e: 0a           	asl
    126f: 26 14        	rol	$14                     ; 0x2014 <textPrint+0x32>
    1271: 38           	sec
    1272: e5 12        	sbc	$12                     ; 0x2012 <textPrint+0x30>
    1274: 85 16        	sta	$16                     ; 0x2016 <textPrint+0x34>
    1276: 85 13        	sta	$13                     ; 0x2013 <textPrint+0x31>
    1278: a5 14        	lda	$14                     ; 0x2014 <textPrint+0x32>
    127a: e9 00        	sbc	#$0
    127c: a8           	tay
    127d: 85 14        	sta	$14                     ; 0x2014 <textPrint+0x32>
    127f: a9 35        	lda	#$35
    1281: 18           	clc
    1282: 65 13        	adc	$13                     ; 0x2013 <textPrint+0x31>
    1284: aa           	tax
    1285: a9 3a        	lda	#$3a
    1287: 65 14        	adc	$14                     ; 0x2014 <textPrint+0x32>
    1289: 86 14        	stx	$14                     ; 0x2014 <textPrint+0x32>
    128b: 85 15        	sta	$15                     ; 0x2015 <textPrint+0x33>
    128d: a9 08        	lda	#$8
    128f: 92 14        	sta	($14)                   ; 0x2014 <textPrint+0x32>
    1291: a5 12        	lda	$12                     ; 0x2012 <textPrint+0x30>
    1293: f0 03        	beq	$1298 <main+0xf42>
    1295: 4c f4 19     	jmp	$19f4 <main+0x169e>
    1298: 4c ef 19     	jmp	$19ef <main+0x1699>
    129b: a6 44        	ldx	$44                     ; 0x2044 <textPrint+0x62>
    129d: e0 0f        	cpx	#$f
    129f: f0 03        	beq	$12a4 <main+0xf4e>
    12a1: 4c a1 14     	jmp	$14a1 <main+0x114b>
    12a4: a2 e0        	ldx	#$e0
    12a6: 86 30        	stx	$30                     ; 0x2030 <textPrint+0x4e>
    12a8: ae a3 3a     	ldx	$3aa3                   ; 0x3aa3 <sid_fields+0x6e>
    12ab: ac a4 3a     	ldy	$3aa4                   ; 0x3aa4 <sid_fields+0x6f>
    12ae: 86 3f        	stx	$3f                     ; 0x203f <textPrint+0x5d>
    12b0: 8e 14 d0     	stx	$d014                   ; 0xd014 <__heap_start+0x956e>
    12b3: 9c 15 d0     	stz	$d015                   ; 0xd015 <__heap_start+0x956f>
    12b6: 84 40        	sty	$40                     ; 0x2040 <textPrint+0x5e>
    12b8: 8c 16 d0     	sty	$d016                   ; 0xd016 <__heap_start+0x9570>
    12bb: 9c 17 d0     	stz	$d017                   ; 0xd017 <__heap_start+0x9571>
    12be: ad 9e 3a     	lda	$3a9e                   ; 0x3a9e <sid_fields+0x69>
    12c1: 92 10        	sta	($10)                   ; 0x2010 <textPrint+0x2e>
    12c3: a0 01        	ldy	#$1
    12c5: a9 00        	lda	#$0
    12c7: 91 10        	sta	($10),y                 ; 0x2010 <textPrint+0x2e>
    12c9: a2 1e        	ldx	#$1e
    12cb: 86 12        	stx	$12                     ; 0x2012 <textPrint+0x30>
    12cd: a2 38        	ldx	#$38
    12cf: 86 13        	stx	$13                     ; 0x2013 <textPrint+0x31>
    12d1: 20 05 28     	jsr	$2805 <printf>
    12d4: a2 f4        	ldx	#$f4
    12d6: 86 30        	stx	$30                     ; 0x2030 <textPrint+0x4e>
    12d8: ae 3a 3a     	ldx	$3a3a                   ; 0x3a3a <sid_fields+0x5>
    12db: ac 3b 3a     	ldy	$3a3b                   ; 0x3a3b <sid_fields+0x6>
    12de: 86 3f        	stx	$3f                     ; 0x203f <textPrint+0x5d>
    12e0: 8e 14 d0     	stx	$d014                   ; 0xd014 <__heap_start+0x956e>
    12e3: 9c 15 d0     	stz	$d015                   ; 0xd015 <__heap_start+0x956f>
    12e6: 84 40        	sty	$40                     ; 0x2040 <textPrint+0x5e>
    12e8: 8c 16 d0     	sty	$d016                   ; 0xd016 <__heap_start+0x9570>
    12eb: 9c 17 d0     	stz	$d017                   ; 0xd017 <__heap_start+0x9571>
    12ee: ad 35 3a     	lda	$3a35                   ; 0x3a35 <sid_fields>
    12f1: 92 10        	sta	($10)                   ; 0x2010 <textPrint+0x2e>
    12f3: a9 00        	lda	#$0
    12f5: a0 01        	ldy	#$1
    12f7: 91 10        	sta	($10),y                 ; 0x2010 <textPrint+0x2e>
    12f9: a2 1e        	ldx	#$1e
    12fb: 86 12        	stx	$12                     ; 0x2012 <textPrint+0x30>
    12fd: a2 38        	ldx	#$38
    12ff: 86 13        	stx	$13                     ; 0x2013 <textPrint+0x31>
    1301: 20 05 28     	jsr	$2805 <printf>
    1304: 64 44        	stz	$44                     ; 0x2044 <textPrint+0x62>
    1306: a4 28        	ldy	$28                     ; 0x2028 <textPrint+0x46>
    1308: 4c 6e 15     	jmp	$156e <main+0x1218>
    130b: a5 44        	lda	$44                     ; 0x2044 <textPrint+0x62>
    130d: 64 13        	stz	$13                     ; 0x2013 <textPrint+0x31>
    130f: 0a           	asl
    1310: 26 13        	rol	$13                     ; 0x2013 <textPrint+0x31>
    1312: 0a           	asl
    1313: 26 13        	rol	$13                     ; 0x2013 <textPrint+0x31>
    1315: 0a           	asl
    1316: 26 13        	rol	$13                     ; 0x2013 <textPrint+0x31>
    1318: 38           	sec
    1319: e5 44        	sbc	$44                     ; 0x2044 <textPrint+0x62>
    131b: 85 12        	sta	$12                     ; 0x2012 <textPrint+0x30>
    131d: a5 13        	lda	$13                     ; 0x2013 <textPrint+0x31>
    131f: e9 00        	sbc	#$0
    1321: 85 13        	sta	$13                     ; 0x2013 <textPrint+0x31>
    1323: a9 35        	lda	#$35
    1325: 18           	clc
    1326: 65 12        	adc	$12                     ; 0x2012 <textPrint+0x30>
    1328: 85 12        	sta	$12                     ; 0x2012 <textPrint+0x30>
    132a: a9 3a        	lda	#$3a
    132c: 65 13        	adc	$13                     ; 0x2013 <textPrint+0x31>
    132e: 85 13        	sta	$13                     ; 0x2013 <textPrint+0x31>
    1330: a9 02        	lda	#$2
    1332: 4c 89 13     	jmp	$1389 <main+0x1033>
    1335: a5 44        	lda	$44                     ; 0x2044 <textPrint+0x62>
    1337: 64 13        	stz	$13                     ; 0x2013 <textPrint+0x31>
    1339: 0a           	asl
    133a: 26 13        	rol	$13                     ; 0x2013 <textPrint+0x31>
    133c: 0a           	asl
    133d: 26 13        	rol	$13                     ; 0x2013 <textPrint+0x31>
    133f: 0a           	asl
    1340: 26 13        	rol	$13                     ; 0x2013 <textPrint+0x31>
    1342: 38           	sec
    1343: e5 44        	sbc	$44                     ; 0x2044 <textPrint+0x62>
    1345: 85 12        	sta	$12                     ; 0x2012 <textPrint+0x30>
    1347: a5 13        	lda	$13                     ; 0x2013 <textPrint+0x31>
    1349: e9 00        	sbc	#$0
    134b: 85 13        	sta	$13                     ; 0x2013 <textPrint+0x31>
    134d: a9 35        	lda	#$35
    134f: 18           	clc
    1350: 65 12        	adc	$12                     ; 0x2012 <textPrint+0x30>
    1352: 85 12        	sta	$12                     ; 0x2012 <textPrint+0x30>
    1354: a9 3a        	lda	#$3a
    1356: 65 13        	adc	$13                     ; 0x2013 <textPrint+0x31>
    1358: 85 13        	sta	$13                     ; 0x2013 <textPrint+0x31>
    135a: a9 01        	lda	#$1
    135c: 92 12        	sta	($12)                   ; 0x2012 <textPrint+0x30>
    135e: a0 04        	ldy	#$4
    1360: 80 2d        	bra	$138f <main+0x1039>
    1362: a5 44        	lda	$44                     ; 0x2044 <textPrint+0x62>
    1364: 64 13        	stz	$13                     ; 0x2013 <textPrint+0x31>
    1366: 0a           	asl
    1367: 26 13        	rol	$13                     ; 0x2013 <textPrint+0x31>
    1369: 0a           	asl
    136a: 26 13        	rol	$13                     ; 0x2013 <textPrint+0x31>
    136c: 0a           	asl
    136d: 26 13        	rol	$13                     ; 0x2013 <textPrint+0x31>
    136f: 38           	sec
    1370: e5 44        	sbc	$44                     ; 0x2044 <textPrint+0x62>
    1372: 85 12        	sta	$12                     ; 0x2012 <textPrint+0x30>
    1374: a5 13        	lda	$13                     ; 0x2013 <textPrint+0x31>
    1376: e9 00        	sbc	#$0
    1378: 85 13        	sta	$13                     ; 0x2013 <textPrint+0x31>
    137a: a9 35        	lda	#$35
    137c: 18           	clc
    137d: 65 12        	adc	$12                     ; 0x2012 <textPrint+0x30>
    137f: 85 12        	sta	$12                     ; 0x2012 <textPrint+0x30>
    1381: a9 3a        	lda	#$3a
    1383: 65 13        	adc	$13                     ; 0x2013 <textPrint+0x31>
    1385: 85 13        	sta	$13                     ; 0x2013 <textPrint+0x31>
    1387: a9 03        	lda	#$3
    1389: 92 12        	sta	($12)                   ; 0x2012 <textPrint+0x30>
    138b: a0 04        	ldy	#$4
    138d: a9 01        	lda	#$1
    138f: 91 12        	sta	($12),y                 ; 0x2012 <textPrint+0x30>
    1391: 20 51 23     	jsr	$2351 <updateValues>
    1394: a4 28        	ldy	$28                     ; 0x2028 <textPrint+0x46>
    1396: 4c 6e 15     	jmp	$156e <main+0x1218>
    1399: a6 44        	ldx	$44                     ; 0x2044 <textPrint+0x62>
    139b: 86 12        	stx	$12                     ; 0x2012 <textPrint+0x30>
    139d: 64 14        	stz	$14                     ; 0x2014 <textPrint+0x32>
    139f: 8a           	txa
    13a0: 0a           	asl
    13a1: 26 14        	rol	$14                     ; 0x2014 <textPrint+0x32>
    13a3: 0a           	asl
    13a4: 26 14        	rol	$14                     ; 0x2014 <textPrint+0x32>
    13a6: 0a           	asl
    13a7: 26 14        	rol	$14                     ; 0x2014 <textPrint+0x32>
    13a9: 38           	sec
    13aa: e5 12        	sbc	$12                     ; 0x2012 <textPrint+0x30>
    13ac: 85 16        	sta	$16                     ; 0x2016 <textPrint+0x34>
    13ae: 85 13        	sta	$13                     ; 0x2013 <textPrint+0x31>
    13b0: a5 14        	lda	$14                     ; 0x2014 <textPrint+0x32>
    13b2: e9 00        	sbc	#$0
    13b4: a8           	tay
    13b5: 85 14        	sta	$14                     ; 0x2014 <textPrint+0x32>
    13b7: a9 35        	lda	#$35
    13b9: 18           	clc
    13ba: 65 13        	adc	$13                     ; 0x2013 <textPrint+0x31>
    13bc: aa           	tax
    13bd: a9 3a        	lda	#$3a
    13bf: 65 14        	adc	$14                     ; 0x2014 <textPrint+0x32>
    13c1: 86 14        	stx	$14                     ; 0x2014 <textPrint+0x32>
    13c3: 85 15        	sta	$15                     ; 0x2015 <textPrint+0x33>
    13c5: a9 0f        	lda	#$f
    13c7: 92 14        	sta	($14)                   ; 0x2014 <textPrint+0x32>
    13c9: a5 12        	lda	$12                     ; 0x2012 <textPrint+0x30>
    13cb: f0 03        	beq	$13d0 <main+0x107a>
    13cd: 4c f4 19     	jmp	$19f4 <main+0x169e>
    13d0: 4c ef 19     	jmp	$19ef <main+0x1699>
    13d3: a6 44        	ldx	$44                     ; 0x2044 <textPrint+0x62>
    13d5: 86 12        	stx	$12                     ; 0x2012 <textPrint+0x30>
    13d7: 64 14        	stz	$14                     ; 0x2014 <textPrint+0x32>
    13d9: 8a           	txa
    13da: 0a           	asl
    13db: 26 14        	rol	$14                     ; 0x2014 <textPrint+0x32>
    13dd: 0a           	asl
    13de: 26 14        	rol	$14                     ; 0x2014 <textPrint+0x32>
    13e0: 0a           	asl
    13e1: 26 14        	rol	$14                     ; 0x2014 <textPrint+0x32>
    13e3: 38           	sec
    13e4: e5 12        	sbc	$12                     ; 0x2012 <textPrint+0x30>
    13e6: 85 16        	sta	$16                     ; 0x2016 <textPrint+0x34>
    13e8: 85 13        	sta	$13                     ; 0x2013 <textPrint+0x31>
    13ea: a5 14        	lda	$14                     ; 0x2014 <textPrint+0x32>
    13ec: e9 00        	sbc	#$0
    13ee: a8           	tay
    13ef: 85 14        	sta	$14                     ; 0x2014 <textPrint+0x32>
    13f1: a9 35        	lda	#$35
    13f3: 18           	clc
    13f4: 65 13        	adc	$13                     ; 0x2013 <textPrint+0x31>
    13f6: aa           	tax
    13f7: a9 3a        	lda	#$3a
    13f9: 65 14        	adc	$14                     ; 0x2014 <textPrint+0x32>
    13fb: 86 14        	stx	$14                     ; 0x2014 <textPrint+0x32>
    13fd: 85 15        	sta	$15                     ; 0x2015 <textPrint+0x33>
    13ff: a9 0d        	lda	#$d
    1401: 92 14        	sta	($14)                   ; 0x2014 <textPrint+0x32>
    1403: a5 12        	lda	$12                     ; 0x2012 <textPrint+0x30>
    1405: f0 03        	beq	$140a <main+0x10b4>
    1407: 4c f4 19     	jmp	$19f4 <main+0x169e>
    140a: 4c ef 19     	jmp	$19ef <main+0x1699>
    140d: 91 10        	sta	($10),y                 ; 0x2010 <textPrint+0x2e>
    140f: a2 1e        	ldx	#$1e
    1411: 86 12        	stx	$12                     ; 0x2012 <textPrint+0x30>
    1413: a2 38        	ldx	#$38
    1415: 86 13        	stx	$13                     ; 0x2013 <textPrint+0x31>
    1417: 20 05 28     	jsr	$2805 <printf>
    141a: a2 0f        	ldx	#$f
    141c: 4c 63 15     	jmp	$1563 <main+0x120d>
    141f: 86 12        	stx	$12                     ; 0x2012 <textPrint+0x30>
    1421: a9 0f        	lda	#$f
    1423: 3d 17 3a     	and	$3a17,x                 ; 0x3a17 <navWSJumps>
    1426: 18           	clc
    1427: 65 12        	adc	$12                     ; 0x2012 <textPrint+0x30>
    1429: c9 10        	cmp	#$10
    142b: 90 03        	bcc	$1430 <main+0x10da>
    142d: 4c 76 1e     	jmp	$1e76 <main+0x1b20>
    1430: a0 04        	ldy	#$4
    1432: 91 10        	sta	($10),y                 ; 0x2010 <textPrint+0x2e>
    1434: a2 e0        	ldx	#$e0
    1436: 86 30        	stx	$30                     ; 0x2030 <textPrint+0x4e>
    1438: a5 12        	lda	$12                     ; 0x2012 <textPrint+0x30>
    143a: 0a           	asl
    143b: aa           	tax
    143c: a9 00        	lda	#$0
    143e: 2a           	rol
    143f: 86 13        	stx	$13                     ; 0x2013 <textPrint+0x31>
    1441: 06 13        	asl	$13                     ; 0x2013 <textPrint+0x31>
    1443: 2a           	rol
    1444: 06 13        	asl	$13                     ; 0x2013 <textPrint+0x31>
    1446: 2a           	rol
    1447: aa           	tax
    1448: 38           	sec
    1449: a5 13        	lda	$13                     ; 0x2013 <textPrint+0x31>
    144b: e5 12        	sbc	$12                     ; 0x2012 <textPrint+0x30>
    144d: 85 12        	sta	$12                     ; 0x2012 <textPrint+0x30>
    144f: 8a           	txa
    1450: e9 00        	sbc	#$0
    1452: 85 13        	sta	$13                     ; 0x2013 <textPrint+0x31>
    1454: a9 35        	lda	#$35
    1456: 18           	clc
    1457: 65 12        	adc	$12                     ; 0x2012 <textPrint+0x30>
    1459: 85 12        	sta	$12                     ; 0x2012 <textPrint+0x30>
    145b: a9 3a        	lda	#$3a
    145d: 65 13        	adc	$13                     ; 0x2013 <textPrint+0x31>
    145f: 85 13        	sta	$13                     ; 0x2013 <textPrint+0x31>
    1461: c8           	iny
    1462: b1 12        	lda	($12),y                 ; 0x2012 <textPrint+0x30>
    1464: 85 14        	sta	$14                     ; 0x2014 <textPrint+0x32>
    1466: c8           	iny
    1467: b1 12        	lda	($12),y                 ; 0x2012 <textPrint+0x30>
    1469: a4 14        	ldy	$14                     ; 0x2014 <textPrint+0x32>
    146b: 84 3f        	sty	$3f                     ; 0x203f <textPrint+0x5d>
    146d: 8c 14 d0     	sty	$d014                   ; 0xd014 <__heap_start+0x956e>
    1470: 9c 15 d0     	stz	$d015                   ; 0xd015 <__heap_start+0x956f>
    1473: 85 40        	sta	$40                     ; 0x2040 <textPrint+0x5e>
    1475: 8d 16 d0     	sta	$d016                   ; 0xd016 <__heap_start+0x9570>
    1478: 9c 17 d0     	stz	$d017                   ; 0xd017 <__heap_start+0x9571>
    147b: b2 12        	lda	($12)                   ; 0x2012 <textPrint+0x30>
    147d: 92 10        	sta	($10)                   ; 0x2010 <textPrint+0x2e>
    147f: a0 01        	ldy	#$1
    1481: 4c f2 14     	jmp	$14f2 <main+0x119c>
    1484: b2 12        	lda	($12)                   ; 0x2012 <textPrint+0x30>
    1486: 92 10        	sta	($10)                   ; 0x2010 <textPrint+0x2e>
    1488: a0 01        	ldy	#$1
    148a: a9 00        	lda	#$0
    148c: 91 10        	sta	($10),y                 ; 0x2010 <textPrint+0x2e>
    148e: a2 1e        	ldx	#$1e
    1490: 86 12        	stx	$12                     ; 0x2012 <textPrint+0x30>
    1492: a2 38        	ldx	#$38
    1494: 4c 59 15     	jmp	$1559 <main+0x1203>
    1497: e0 0f        	cpx	#$f
    1499: f0 03        	beq	$149e <main+0x1148>
    149b: 4c da 1e     	jmp	$1eda <main+0x1b84>
    149e: 4c 7b 1e     	jmp	$1e7b <main+0x1b25>
    14a1: 86 12        	stx	$12                     ; 0x2012 <textPrint+0x30>
    14a3: e8           	inx
    14a4: 8a           	txa
    14a5: a0 04        	ldy	#$4
    14a7: 91 10        	sta	($10),y                 ; 0x2010 <textPrint+0x2e>
    14a9: a2 e0        	ldx	#$e0
    14ab: 86 30        	stx	$30                     ; 0x2030 <textPrint+0x4e>
    14ad: a5 12        	lda	$12                     ; 0x2012 <textPrint+0x30>
    14af: 0a           	asl
    14b0: 64 13        	stz	$13                     ; 0x2013 <textPrint+0x31>
    14b2: 26 13        	rol	$13                     ; 0x2013 <textPrint+0x31>
    14b4: 0a           	asl
    14b5: 26 13        	rol	$13                     ; 0x2013 <textPrint+0x31>
    14b7: 0a           	asl
    14b8: 26 13        	rol	$13                     ; 0x2013 <textPrint+0x31>
    14ba: 38           	sec
    14bb: e5 12        	sbc	$12                     ; 0x2012 <textPrint+0x30>
    14bd: 85 12        	sta	$12                     ; 0x2012 <textPrint+0x30>
    14bf: a5 13        	lda	$13                     ; 0x2013 <textPrint+0x31>
    14c1: e9 00        	sbc	#$0
    14c3: 85 13        	sta	$13                     ; 0x2013 <textPrint+0x31>
    14c5: a9 35        	lda	#$35
    14c7: 18           	clc
    14c8: 65 12        	adc	$12                     ; 0x2012 <textPrint+0x30>
    14ca: 85 12        	sta	$12                     ; 0x2012 <textPrint+0x30>
    14cc: a9 3a        	lda	#$3a
    14ce: 65 13        	adc	$13                     ; 0x2013 <textPrint+0x31>
    14d0: 85 13        	sta	$13                     ; 0x2013 <textPrint+0x31>
    14d2: c8           	iny
    14d3: b1 12        	lda	($12),y                 ; 0x2012 <textPrint+0x30>
    14d5: 85 14        	sta	$14                     ; 0x2014 <textPrint+0x32>
    14d7: c8           	iny
    14d8: b1 12        	lda	($12),y                 ; 0x2012 <textPrint+0x30>
    14da: a4 14        	ldy	$14                     ; 0x2014 <textPrint+0x32>
    14dc: 84 3f        	sty	$3f                     ; 0x203f <textPrint+0x5d>
    14de: 8c 14 d0     	sty	$d014                   ; 0xd014 <__heap_start+0x956e>
    14e1: a0 01        	ldy	#$1
    14e3: 9c 15 d0     	stz	$d015                   ; 0xd015 <__heap_start+0x956f>
    14e6: 85 40        	sta	$40                     ; 0x2040 <textPrint+0x5e>
    14e8: 8d 16 d0     	sta	$d016                   ; 0xd016 <__heap_start+0x9570>
    14eb: 9c 17 d0     	stz	$d017                   ; 0xd017 <__heap_start+0x9571>
    14ee: b2 12        	lda	($12)                   ; 0x2012 <textPrint+0x30>
    14f0: 92 10        	sta	($10)                   ; 0x2010 <textPrint+0x2e>
    14f2: a9 00        	lda	#$0
    14f4: 91 10        	sta	($10),y                 ; 0x2010 <textPrint+0x2e>
    14f6: a2 1e        	ldx	#$1e
    14f8: 86 12        	stx	$12                     ; 0x2012 <textPrint+0x30>
    14fa: a2 38        	ldx	#$38
    14fc: 86 13        	stx	$13                     ; 0x2013 <textPrint+0x31>
    14fe: 20 05 28     	jsr	$2805 <printf>
    1501: a2 f4        	ldx	#$f4
    1503: 86 30        	stx	$30                     ; 0x2030 <textPrint+0x4e>
    1505: a0 04        	ldy	#$4
    1507: b1 10        	lda	($10),y                 ; 0x2010 <textPrint+0x2e>
    1509: aa           	tax
    150a: 0a           	asl
    150b: 64 13        	stz	$13                     ; 0x2013 <textPrint+0x31>
    150d: 26 13        	rol	$13                     ; 0x2013 <textPrint+0x31>
    150f: 0a           	asl
    1510: 26 13        	rol	$13                     ; 0x2013 <textPrint+0x31>
    1512: 0a           	asl
    1513: 26 13        	rol	$13                     ; 0x2013 <textPrint+0x31>
    1515: 86 12        	stx	$12                     ; 0x2012 <textPrint+0x30>
    1517: 38           	sec
    1518: e5 12        	sbc	$12                     ; 0x2012 <textPrint+0x30>
    151a: 85 12        	sta	$12                     ; 0x2012 <textPrint+0x30>
    151c: a5 13        	lda	$13                     ; 0x2013 <textPrint+0x31>
    151e: e9 00        	sbc	#$0
    1520: 85 13        	sta	$13                     ; 0x2013 <textPrint+0x31>
    1522: 18           	clc
    1523: a9 35        	lda	#$35
    1525: 65 12        	adc	$12                     ; 0x2012 <textPrint+0x30>
    1527: 85 12        	sta	$12                     ; 0x2012 <textPrint+0x30>
    1529: a9 3a        	lda	#$3a
    152b: 65 13        	adc	$13                     ; 0x2013 <textPrint+0x31>
    152d: 85 13        	sta	$13                     ; 0x2013 <textPrint+0x31>
    152f: c8           	iny
    1530: b1 12        	lda	($12),y                 ; 0x2012 <textPrint+0x30>
    1532: 85 14        	sta	$14                     ; 0x2014 <textPrint+0x32>
    1534: c8           	iny
    1535: b1 12        	lda	($12),y                 ; 0x2012 <textPrint+0x30>
    1537: a4 14        	ldy	$14                     ; 0x2014 <textPrint+0x32>
    1539: 84 3f        	sty	$3f                     ; 0x203f <textPrint+0x5d>
    153b: 8c 14 d0     	sty	$d014                   ; 0xd014 <__heap_start+0x956e>
    153e: 9c 15 d0     	stz	$d015                   ; 0xd015 <__heap_start+0x956f>
    1541: 85 40        	sta	$40                     ; 0x2040 <textPrint+0x5e>
    1543: 8d 16 d0     	sta	$d016                   ; 0xd016 <__heap_start+0x9570>
    1546: 9c 17 d0     	stz	$d017                   ; 0xd017 <__heap_start+0x9571>
    1549: b2 12        	lda	($12)                   ; 0x2012 <textPrint+0x30>
    154b: 92 10        	sta	($10)                   ; 0x2010 <textPrint+0x2e>
    154d: a9 00        	lda	#$0
    154f: a0 01        	ldy	#$1
    1551: 91 10        	sta	($10),y                 ; 0x2010 <textPrint+0x2e>
    1553: a2 1e        	ldx	#$1e
    1555: 86 12        	stx	$12                     ; 0x2012 <textPrint+0x30>
    1557: a2 38        	ldx	#$38
    1559: 86 13        	stx	$13                     ; 0x2013 <textPrint+0x31>
    155b: 20 05 28     	jsr	$2805 <printf>
    155e: a0 04        	ldy	#$4
    1560: b1 10        	lda	($10),y                 ; 0x2010 <textPrint+0x2e>
    1562: aa           	tax
    1563: 86 44        	stx	$44                     ; 0x2044 <textPrint+0x62>
    1565: a4 28        	ldy	$28                     ; 0x2028 <textPrint+0x46>
    1567: 80 05        	bra	$156e <main+0x1218>
    1569: a2 01        	ldx	#$1
    156b: 8e 34 3a     	stx	$3a34                   ; 0x3a34 <shiftTog>
    156e: a5 43        	lda	$43                     ; 0x2043 <textPrint+0x61>
    1570: 29 01        	and	#$1
    1572: 48           	pha
    1573: 5a           	phy
    1574: a0 06        	ldy	#$6
    1576: b1 10        	lda	($10),y                 ; 0x2010 <textPrint+0x2e>
    1578: 7a           	ply
    1579: 85 12        	sta	$12                     ; 0x2012 <textPrint+0x30>
    157b: 68           	pla
    157c: f0 03        	beq	$1581 <main+0x122b>
    157e: 4c 62 0f     	jmp	$f62 <main+0xc0c>
    1581: ad a0 dd     	lda	$dda0                   ; 0xdda0 <__heap_start+0xa2fa>
    1584: 29 02        	and	#$2
    1586: f0 03        	beq	$158b <main+0x1235>
    1588: 4c 26 19     	jmp	$1926 <main+0x15d0>
    158b: a5 12        	lda	$12                     ; 0x2012 <textPrint+0x30>
    158d: 5a           	phy
    158e: a0 06        	ldy	#$6
    1590: 91 10        	sta	($10),y                 ; 0x2010 <textPrint+0x2e>
    1592: 7a           	ply
    1593: ae a2 dd     	ldx	$dda2                   ; 0xdda2 <__heap_start+0xa2fc>
    1596: ad a3 dd     	lda	$dda3                   ; 0xdda3 <__heap_start+0xa2fd>
    1599: 29 0f        	and	#$f
    159b: d0 07        	bne	$15a4 <main+0x124e>
    159d: e0 00        	cpx	#$0
    159f: d0 03        	bne	$15a4 <main+0x124e>
    15a1: 4c 2e 19     	jmp	$192e <main+0x15d8>
    15a4: 85 18        	sta	$18                     ; 0x2018 <textPrint+0x36>
    15a6: 86 17        	stx	$17                     ; 0x2017 <textPrint+0x35>
    15a8: a6 26        	ldx	$26                     ; 0x2026 <textPrint+0x44>
    15aa: 98           	tya
    15ab: 4c 5f 17     	jmp	$175f <main+0x1409>
    15ae: a4 15        	ldy	$15                     ; 0x2015 <textPrint+0x33>
    15b0: c0 00        	cpy	#$0
    15b2: b0 03        	bcs	$15b7 <main+0x1261>
    15b4: 4c e9 18     	jmp	$18e9 <main+0x1593>
    15b7: a0 01        	ldy	#$1
    15b9: a6 01        	ldx	$1                      ; 0x2001 <textPrint+0x1f>
    15bb: 86 15        	stx	$15                     ; 0x2015 <textPrint+0x33>
    15bd: 84 01        	sty	$1                      ; 0x2001 <textPrint+0x1f>
    15bf: 64 12        	stz	$12                     ; 0x2012 <textPrint+0x30>
    15c1: a2 ff        	ldx	#$ff
    15c3: 64 19        	stz	$19                     ; 0x2019 <textPrint+0x37>
    15c5: 80 0e        	bra	$15d5 <main+0x127f>
    15c7: a2 00        	ldx	#$0
    15c9: 0a           	asl
    15ca: 8a           	txa
    15cb: 2a           	rol
    15cc: a6 01        	ldx	$1                      ; 0x2001 <textPrint+0x1f>
    15ce: 86 15        	stx	$15                     ; 0x2015 <textPrint+0x33>
    15d0: 84 01        	sty	$1                      ; 0x2001 <textPrint+0x1f>
    15d2: aa           	tax
    15d3: 85 19        	sta	$19                     ; 0x2019 <textPrint+0x37>
    15d5: a5 14        	lda	$14                     ; 0x2014 <textPrint+0x32>
    15d7: 0a           	asl
    15d8: 26 12        	rol	$12                     ; 0x2012 <textPrint+0x30>
    15da: 0a           	asl
    15db: 85 13        	sta	$13                     ; 0x2013 <textPrint+0x31>
    15dd: 26 12        	rol	$12                     ; 0x2012 <textPrint+0x30>
    15df: a9 00        	lda	#$0
    15e1: 18           	clc
    15e2: 65 13        	adc	$13                     ; 0x2013 <textPrint+0x31>
    15e4: 85 13        	sta	$13                     ; 0x2013 <textPrint+0x31>
    15e6: a9 d0        	lda	#$d0
    15e8: 65 12        	adc	$12                     ; 0x2012 <textPrint+0x30>
    15ea: 5a           	phy
    15eb: a4 13        	ldy	$13                     ; 0x2013 <textPrint+0x31>
    15ed: 84 12        	sty	$12                     ; 0x2012 <textPrint+0x30>
    15ef: 7a           	ply
    15f0: 85 13        	sta	$13                     ; 0x2013 <textPrint+0x31>
    15f2: 8a           	txa
    15f3: 92 12        	sta	($12)                   ; 0x2012 <textPrint+0x30>
    15f5: a5 19        	lda	$19                     ; 0x2019 <textPrint+0x37>
    15f7: 91 12        	sta	($12),y                 ; 0x2012 <textPrint+0x30>
    15f9: a0 02        	ldy	#$2
    15fb: 8a           	txa
    15fc: 91 12        	sta	($12),y                 ; 0x2012 <textPrint+0x30>
    15fe: a9 ff        	lda	#$ff
    1600: c8           	iny
    1601: 91 12        	sta	($12),y                 ; 0x2012 <textPrint+0x30>
    1603: a6 15        	ldx	$15                     ; 0x2015 <textPrint+0x33>
    1605: 86 01        	stx	$1                      ; 0x2001 <textPrint+0x1f>
    1607: a6 16        	ldx	$16                     ; 0x2016 <textPrint+0x34>
    1609: 86 26        	stx	$26                     ; 0x2026 <textPrint+0x44>
    160b: a6 16        	ldx	$16                     ; 0x2016 <textPrint+0x34>
    160d: 86 27        	stx	$27                     ; 0x2027 <textPrint+0x45>
    160f: 64 12        	stz	$12                     ; 0x2012 <textPrint+0x30>
    1611: 1a           	inc
    1612: a0 05        	ldy	#$5
    1614: 91 10        	sta	($10),y                 ; 0x2010 <textPrint+0x2e>
    1616: 1a           	inc
    1617: 4c 25 17     	jmp	$1725 <main+0x13cf>
    161a: a2 01        	ldx	#$1
    161c: 8a           	txa
    161d: a0 05        	ldy	#$5
    161f: 91 10        	sta	($10),y                 ; 0x2010 <textPrint+0x2e>
    1621: a6 16        	ldx	$16                     ; 0x2016 <textPrint+0x34>
    1623: 86 26        	stx	$26                     ; 0x2026 <textPrint+0x44>
    1625: a5 16        	lda	$16                     ; 0x2016 <textPrint+0x34>
    1627: a0 03        	ldy	#$3
    1629: 91 10        	sta	($10),y                 ; 0x2010 <textPrint+0x2e>
    162b: 64 12        	stz	$12                     ; 0x2012 <textPrint+0x30>
    162d: a9 00        	lda	#$0
    162f: a0 06        	ldy	#$6
    1631: 91 10        	sta	($10),y                 ; 0x2010 <textPrint+0x2e>
    1633: 4c 23 17     	jmp	$1723 <main+0x13cd>
    1636: a5 16        	lda	$16                     ; 0x2016 <textPrint+0x34>
    1638: 10 03        	bpl	$163d <main+0x12e7>
    163a: 4c ab 16     	jmp	$16ab <main+0x1355>
    163d: 5a           	phy
    163e: a0 03        	ldy	#$3
    1640: b1 10        	lda	($10),y                 ; 0x2010 <textPrint+0x2e>
    1642: 7a           	ply
    1643: 29 f0        	and	#$f0
    1645: c9 80        	cmp	#$80
    1647: f0 07        	beq	$1650 <main+0x12fa>
    1649: c9 90        	cmp	#$90
    164b: f0 03        	beq	$1650 <main+0x12fa>
    164d: 4c 35 17     	jmp	$1735 <main+0x13df>
    1650: a4 16        	ldy	$16                     ; 0x2016 <textPrint+0x34>
    1652: a5 16        	lda	$16                     ; 0x2016 <textPrint+0x34>
    1654: 29 7f        	and	#$7f
    1656: 84 27        	sty	$27                     ; 0x2027 <textPrint+0x45>
    1658: 85 26        	sta	$26                     ; 0x2026 <textPrint+0x44>
    165a: 64 12        	stz	$12                     ; 0x2012 <textPrint+0x30>
    165c: a9 00        	lda	#$0
    165e: a0 05        	ldy	#$5
    1660: 91 10        	sta	($10),y                 ; 0x2010 <textPrint+0x2e>
    1662: 1a           	inc
    1663: aa           	tax
    1664: 48           	pha
    1665: 8a           	txa
    1666: c8           	iny
    1667: 91 10        	sta	($10),y                 ; 0x2010 <textPrint+0x2e>
    1669: 68           	pla
    166a: 4c 25 17     	jmp	$1725 <main+0x13cf>
    166d: a2 01        	ldx	#$1
    166f: a0 d4        	ldy	#$d4
    1671: 80 44        	bra	$16b7 <main+0x1361>
    1673: a4 35        	ldy	$35                     ; 0x2035 <textPrint+0x53>
    1675: a9 03        	lda	#$3
    1677: 86 12        	stx	$12                     ; 0x2012 <textPrint+0x30>
    1679: 85 13        	sta	$13                     ; 0x2013 <textPrint+0x31>
    167b: c4 12        	cpy	$12                     ; 0x2012 <textPrint+0x30>
    167d: f0 1b        	beq	$169a <main+0x1344>
    167f: a4 36        	ldy	$36                     ; 0x2036 <textPrint+0x54>
    1681: a9 04        	lda	#$4
    1683: 86 12        	stx	$12                     ; 0x2012 <textPrint+0x30>
    1685: 85 13        	sta	$13                     ; 0x2013 <textPrint+0x31>
    1687: c4 12        	cpy	$12                     ; 0x2012 <textPrint+0x30>
    1689: f0 0f        	beq	$169a <main+0x1344>
    168b: a4 37        	ldy	$37                     ; 0x2037 <textPrint+0x55>
    168d: a9 05        	lda	#$5
    168f: 86 12        	stx	$12                     ; 0x2012 <textPrint+0x30>
    1691: 85 13        	sta	$13                     ; 0x2013 <textPrint+0x31>
    1693: c4 12        	cpy	$12                     ; 0x2012 <textPrint+0x30>
    1695: f0 03        	beq	$169a <main+0x1344>
    1697: 4c 42 17     	jmp	$1742 <main+0x13ec>
    169a: 64 12        	stz	$12                     ; 0x2012 <textPrint+0x30>
    169c: a2 d5        	ldx	#$d5
    169e: 4c 44 18     	jmp	$1844 <main+0x14ee>
    16a1: a2 02        	ldx	#$2
    16a3: a0 d4        	ldy	#$d4
    16a5: 80 10        	bra	$16b7 <main+0x1361>
    16a7: a2 03        	ldx	#$3
    16a9: 80 0a        	bra	$16b5 <main+0x135f>
    16ab: 98           	tya
    16ac: a6 16        	ldx	$16                     ; 0x2016 <textPrint+0x34>
    16ae: 86 26        	stx	$26                     ; 0x2026 <textPrint+0x44>
    16b0: 4c 25 17     	jmp	$1725 <main+0x13cf>
    16b3: a2 04        	ldx	#$4
    16b5: a0 d5        	ldy	#$d5
    16b7: 98           	tya
    16b8: a0 04        	ldy	#$4
    16ba: 91 10        	sta	($10),y                 ; 0x2010 <textPrint+0x2e>
    16bc: da           	phx
    16bd: 7a           	ply
    16be: bd 8f 36     	lda	$368f,x                 ; 0x368f <sidChoiceToVoice>
    16c1: aa           	tax
    16c2: 84 1a        	sty	$1a                     ; 0x201a <textPrint+0x38>
    16c4: a4 27        	ldy	$27                     ; 0x2027 <textPrint+0x45>
    16c6: b9 7c 39     	lda	$397c,y                 ; 0x397c <sidHigh+0x1de>
    16c9: 85 14        	sta	$14                     ; 0x2014 <textPrint+0x32>
    16cb: 86 12        	stx	$12                     ; 0x2012 <textPrint+0x30>
    16cd: 86 1b        	stx	$1b                     ; 0x201b <textPrint+0x39>
    16cf: 5a           	phy
    16d0: a0 04        	ldy	#$4
    16d2: b1 10        	lda	($10),y                 ; 0x2010 <textPrint+0x2e>
    16d4: 7a           	ply
    16d5: 85 15        	sta	$15                     ; 0x2015 <textPrint+0x33>
    16d7: 85 13        	sta	$13                     ; 0x2013 <textPrint+0x31>
    16d9: a5 14        	lda	$14                     ; 0x2014 <textPrint+0x32>
    16db: 92 12        	sta	($12)                   ; 0x2012 <textPrint+0x30>
    16dd: be 93 37     	ldx	$3793,y                 ; 0x3793 <noteColors+0xfe>
    16e0: 86 13        	stx	$13                     ; 0x2013 <textPrint+0x31>
    16e2: a4 1b        	ldy	$1b                     ; 0x201b <textPrint+0x39>
    16e4: a6 15        	ldx	$15                     ; 0x2015 <textPrint+0x33>
    16e6: 86 12        	stx	$12                     ; 0x2012 <textPrint+0x30>
    16e8: a6 15        	ldx	$15                     ; 0x2015 <textPrint+0x33>
    16ea: c8           	iny
    16eb: d0 02        	bne	$16ef <main+0x1399>
    16ed: e6 12        	inc	$12                     ; 0x2012 <textPrint+0x30>
    16ef: 84 14        	sty	$14                     ; 0x2014 <textPrint+0x32>
    16f1: a4 12        	ldy	$12                     ; 0x2012 <textPrint+0x30>
    16f3: 84 15        	sty	$15                     ; 0x2015 <textPrint+0x33>
    16f5: a5 13        	lda	$13                     ; 0x2013 <textPrint+0x31>
    16f7: 92 14        	sta	($14)                   ; 0x2014 <textPrint+0x32>
    16f9: 18           	clc
    16fa: a5 1b        	lda	$1b                     ; 0x201b <textPrint+0x39>
    16fc: 69 04        	adc	#$4
    16fe: 85 12        	sta	$12                     ; 0x2012 <textPrint+0x30>
    1700: 8a           	txa
    1701: 69 00        	adc	#$0
    1703: 85 13        	sta	$13                     ; 0x2013 <textPrint+0x31>
    1705: ad 66 3a     	lda	$3a66                   ; 0x3a66 <sid_fields+0x31>
    1708: 0a           	asl
    1709: 0a           	asl
    170a: 0a           	asl
    170b: 0a           	asl
    170c: 0d 6d 3a     	ora	$3a6d                   ; 0x3a6d <sid_fields+0x38>
    170f: 09 01        	ora	#$1
    1711: 92 12        	sta	($12)                   ; 0x2012 <textPrint+0x30>
    1713: a5 27        	lda	$27                     ; 0x2027 <textPrint+0x45>
    1715: a6 1a        	ldx	$1a                     ; 0x201a <textPrint+0x38>
    1717: 9d 32 00     	sta	$32,x                   ; 0x32 <polySIDBuffer>
    171a: a6 16        	ldx	$16                     ; 0x2016 <textPrint+0x34>
    171c: 86 26        	stx	$26                     ; 0x2026 <textPrint+0x44>
    171e: a4 31        	ldy	$31                     ; 0x2031 <textPrint+0x4f>
    1720: c8           	iny
    1721: 84 31        	sty	$31                     ; 0x2031 <textPrint+0x4f>
    1723: a9 00        	lda	#$0
    1725: a6 18        	ldx	$18                     ; 0x2018 <textPrint+0x36>
    1727: 86 12        	stx	$12                     ; 0x2012 <textPrint+0x30>
    1729: a0 ff        	ldy	#$ff
    172b: c6 17        	dec	$17                     ; 0x2017 <textPrint+0x35>
    172d: c4 17        	cpy	$17                     ; 0x2017 <textPrint+0x35>
    172f: d0 1c        	bne	$174d <main+0x13f7>
    1731: c6 12        	dec	$12                     ; 0x2012 <textPrint+0x30>
    1733: 80 18        	bra	$174d <main+0x13f7>
    1735: 98           	tya
    1736: 09 01        	ora	#$1
    1738: a6 16        	ldx	$16                     ; 0x2016 <textPrint+0x34>
    173a: 86 27        	stx	$27                     ; 0x2027 <textPrint+0x45>
    173c: a6 16        	ldx	$16                     ; 0x2016 <textPrint+0x34>
    173e: 86 26        	stx	$26                     ; 0x2026 <textPrint+0x44>
    1740: 80 e3        	bra	$1725 <main+0x13cf>
    1742: a2 d4        	ldx	#$d4
    1744: a0 ff        	ldy	#$ff
    1746: 84 13        	sty	$13                     ; 0x2013 <textPrint+0x31>
    1748: 84 12        	sty	$12                     ; 0x2012 <textPrint+0x30>
    174a: 4c 44 18     	jmp	$1844 <main+0x14ee>
    174d: a6 26        	ldx	$26                     ; 0x2026 <textPrint+0x44>
    174f: a8           	tay
    1750: 5a           	phy
    1751: a4 12        	ldy	$12                     ; 0x2012 <textPrint+0x30>
    1753: 84 18        	sty	$18                     ; 0x2018 <textPrint+0x36>
    1755: 7a           	ply
    1756: e6 12        	inc	$12                     ; 0x2012 <textPrint+0x30>
    1758: c6 12        	dec	$12                     ; 0x2012 <textPrint+0x30>
    175a: d0 03        	bne	$175f <main+0x1409>
    175c: 4c 1d 19     	jmp	$191d <main+0x15c7>
    175f: ac a1 dd     	ldy	$dda1                   ; 0xdda1 <__heap_start+0xa2fb>
    1762: 84 16        	sty	$16                     ; 0x2016 <textPrint+0x34>
    1764: c0 fe        	cpy	#$fe
    1766: d0 04        	bne	$176c <main+0x1416>
    1768: 84 26        	sty	$26                     ; 0x2026 <textPrint+0x44>
    176a: 80 b9        	bra	$1725 <main+0x13cf>
    176c: 48           	pha
    176d: a0 06        	ldy	#$6
    176f: b1 10        	lda	($10),y                 ; 0x2010 <textPrint+0x2e>
    1771: a8           	tay
    1772: 68           	pla
    1773: f0 20        	beq	$1795 <main+0x143f>
    1775: c0 01        	cpy	#$1
    1777: f0 03        	beq	$177c <main+0x1426>
    1779: 4c d6 17     	jmp	$17d6 <main+0x1480>
    177c: a8           	tay
    177d: f0 03        	beq	$1782 <main+0x142c>
    177f: 4c 15 18     	jmp	$1815 <main+0x14bf>
    1782: a0 05        	ldy	#$5
    1784: b1 10        	lda	($10),y                 ; 0x2010 <textPrint+0x2e>
    1786: a8           	tay
    1787: f0 03        	beq	$178c <main+0x1436>
    1789: 4c 0a 19     	jmp	$190a <main+0x15b4>
    178c: e0 00        	cpx	#$0
    178e: a6 27        	ldx	$27                     ; 0x2027 <textPrint+0x45>
    1790: b0 4a        	bcs	$17dc <main+0x1486>
    1792: 4c 1b 18     	jmp	$181b <main+0x14c5>
    1795: 48           	pha
    1796: a0 05        	ldy	#$5
    1798: b1 10        	lda	($10),y                 ; 0x2010 <textPrint+0x2e>
    179a: 85 12        	sta	$12                     ; 0x2012 <textPrint+0x30>
    179c: 68           	pla
    179d: a4 12        	ldy	$12                     ; 0x2012 <textPrint+0x30>
    179f: d0 03        	bne	$17a4 <main+0x144e>
    17a1: 4c ba 18     	jmp	$18ba <main+0x1564>
    17a4: 85 15        	sta	$15                     ; 0x2015 <textPrint+0x33>
    17a6: a5 16        	lda	$16                     ; 0x2016 <textPrint+0x34>
    17a8: 48           	pha
    17a9: a0 06        	ldy	#$6
    17ab: b1 10        	lda	($10),y                 ; 0x2010 <textPrint+0x2e>
    17ad: a8           	tay
    17ae: 68           	pla
    17af: 18           	clc
    17b0: 69 ec        	adc	#$ec
    17b2: 85 14        	sta	$14                     ; 0x2014 <textPrint+0x32>
    17b4: c0 01        	cpy	#$1
    17b6: f0 03        	beq	$17bb <main+0x1465>
    17b8: 4c e2 18     	jmp	$18e2 <main+0x158c>
    17bb: a5 15        	lda	$15                     ; 0x2015 <textPrint+0x33>
    17bd: f0 03        	beq	$17c2 <main+0x146c>
    17bf: 4c ae 15     	jmp	$15ae <main+0x1258>
    17c2: a0 05        	ldy	#$5
    17c4: b1 10        	lda	($10),y                 ; 0x2010 <textPrint+0x2e>
    17c6: a8           	tay
    17c7: f0 03        	beq	$17cc <main+0x1476>
    17c9: 4c b0 15     	jmp	$15b0 <main+0x125a>
    17cc: e0 00        	cpx	#$0
    17ce: 90 03        	bcc	$17d3 <main+0x147d>
    17d0: 4c b7 15     	jmp	$15b7 <main+0x1261>
    17d3: 4c e9 18     	jmp	$18e9 <main+0x1593>
    17d6: c0 01        	cpy	#$1
    17d8: a6 27        	ldx	$27                     ; 0x2027 <textPrint+0x45>
    17da: 90 3f        	bcc	$181b <main+0x14c5>
    17dc: 8a           	txa
    17dd: d0 03        	bne	$17e2 <main+0x148c>
    17df: 4c b1 18     	jmp	$18b1 <main+0x155b>
    17e2: a4 32        	ldy	$32                     ; 0x2032 <textPrint+0x50>
    17e4: d0 03        	bne	$17e9 <main+0x1493>
    17e6: 4c 16 19     	jmp	$1916 <main+0x15c0>
    17e9: a4 33        	ldy	$33                     ; 0x2033 <textPrint+0x51>
    17eb: d0 03        	bne	$17f0 <main+0x149a>
    17ed: 4c 6d 16     	jmp	$166d <main+0x1317>
    17f0: a4 34        	ldy	$34                     ; 0x2034 <textPrint+0x52>
    17f2: d0 03        	bne	$17f7 <main+0x14a1>
    17f4: 4c a1 16     	jmp	$16a1 <main+0x134b>
    17f7: a4 35        	ldy	$35                     ; 0x2035 <textPrint+0x53>
    17f9: d0 03        	bne	$17fe <main+0x14a8>
    17fb: 4c a7 16     	jmp	$16a7 <main+0x1351>
    17fe: a4 36        	ldy	$36                     ; 0x2036 <textPrint+0x54>
    1800: d0 03        	bne	$1805 <main+0x14af>
    1802: 4c b3 16     	jmp	$16b3 <main+0x135d>
    1805: a6 16        	ldx	$16                     ; 0x2016 <textPrint+0x34>
    1807: 86 26        	stx	$26                     ; 0x2026 <textPrint+0x44>
    1809: a4 37        	ldy	$37                     ; 0x2037 <textPrint+0x55>
    180b: f0 03        	beq	$1810 <main+0x14ba>
    180d: 4c 1e 17     	jmp	$171e <main+0x13c8>
    1810: a2 05        	ldx	#$5
    1812: 4c b5 16     	jmp	$16b5 <main+0x135f>
    1815: c9 00        	cmp	#$0
    1817: a6 27        	ldx	$27                     ; 0x2027 <textPrint+0x45>
    1819: b0 c1        	bcs	$17dc <main+0x1486>
    181b: a4 32        	ldy	$32                     ; 0x2032 <textPrint+0x50>
    181d: 64 12        	stz	$12                     ; 0x2012 <textPrint+0x30>
    181f: 86 14        	stx	$14                     ; 0x2014 <textPrint+0x32>
    1821: 64 13        	stz	$13                     ; 0x2013 <textPrint+0x31>
    1823: c4 14        	cpy	$14                     ; 0x2014 <textPrint+0x32>
    1825: f0 1b        	beq	$1842 <main+0x14ec>
    1827: a4 33        	ldy	$33                     ; 0x2033 <textPrint+0x51>
    1829: a9 01        	lda	#$1
    182b: 86 14        	stx	$14                     ; 0x2014 <textPrint+0x32>
    182d: 85 13        	sta	$13                     ; 0x2013 <textPrint+0x31>
    182f: c4 14        	cpy	$14                     ; 0x2014 <textPrint+0x32>
    1831: f0 0f        	beq	$1842 <main+0x14ec>
    1833: a4 34        	ldy	$34                     ; 0x2034 <textPrint+0x52>
    1835: a9 02        	lda	#$2
    1837: 86 14        	stx	$14                     ; 0x2014 <textPrint+0x32>
    1839: 85 13        	sta	$13                     ; 0x2013 <textPrint+0x31>
    183b: c4 14        	cpy	$14                     ; 0x2014 <textPrint+0x32>
    183d: f0 03        	beq	$1842 <main+0x14ec>
    183f: 4c 73 16     	jmp	$1673 <main+0x131d>
    1842: a2 d4        	ldx	#$d4
    1844: a9 8f        	lda	#$8f
    1846: 18           	clc
    1847: 65 13        	adc	$13                     ; 0x2013 <textPrint+0x31>
    1849: 85 14        	sta	$14                     ; 0x2014 <textPrint+0x32>
    184b: a9 36        	lda	#$36
    184d: 65 12        	adc	$12                     ; 0x2012 <textPrint+0x30>
    184f: 85 15        	sta	$15                     ; 0x2015 <textPrint+0x33>
    1851: b2 14        	lda	($14)                   ; 0x2014 <textPrint+0x32>
    1853: 85 14        	sta	$14                     ; 0x2014 <textPrint+0x32>
    1855: a9 32        	lda	#$32
    1857: 18           	clc
    1858: 65 13        	adc	$13                     ; 0x2013 <textPrint+0x31>
    185a: a8           	tay
    185b: a9 00        	lda	#$0
    185d: 65 12        	adc	$12                     ; 0x2012 <textPrint+0x30>
    185f: 84 12        	sty	$12                     ; 0x2012 <textPrint+0x30>
    1861: 85 13        	sta	$13                     ; 0x2013 <textPrint+0x31>
    1863: a9 00        	lda	#$0
    1865: 92 12        	sta	($12)                   ; 0x2012 <textPrint+0x30>
    1867: a4 27        	ldy	$27                     ; 0x2027 <textPrint+0x45>
    1869: b9 7c 39     	lda	$397c,y                 ; 0x397c <sidHigh+0x1de>
    186c: 5a           	phy
    186d: a4 14        	ldy	$14                     ; 0x2014 <textPrint+0x32>
    186f: 84 12        	sty	$12                     ; 0x2012 <textPrint+0x30>
    1871: 7a           	ply
    1872: 86 13        	stx	$13                     ; 0x2013 <textPrint+0x31>
    1874: 92 12        	sta	($12)                   ; 0x2012 <textPrint+0x30>
    1876: b9 93 37     	lda	$3793,y                 ; 0x3793 <noteColors+0xfe>
    1879: a8           	tay
    187a: 84 15        	sty	$15                     ; 0x2015 <textPrint+0x33>
    187c: da           	phx
    187d: 7a           	ply
    187e: a5 14        	lda	$14                     ; 0x2014 <textPrint+0x32>
    1880: 1a           	inc
    1881: d0 01        	bne	$1884 <main+0x152e>
    1883: c8           	iny
    1884: 85 12        	sta	$12                     ; 0x2012 <textPrint+0x30>
    1886: 84 13        	sty	$13                     ; 0x2013 <textPrint+0x31>
    1888: a5 15        	lda	$15                     ; 0x2015 <textPrint+0x33>
    188a: 92 12        	sta	($12)                   ; 0x2012 <textPrint+0x30>
    188c: 18           	clc
    188d: a5 14        	lda	$14                     ; 0x2014 <textPrint+0x32>
    188f: 69 04        	adc	#$4
    1891: 85 12        	sta	$12                     ; 0x2012 <textPrint+0x30>
    1893: 8a           	txa
    1894: 69 00        	adc	#$0
    1896: 85 13        	sta	$13                     ; 0x2013 <textPrint+0x31>
    1898: ad 66 3a     	lda	$3a66                   ; 0x3a66 <sid_fields+0x31>
    189b: 0a           	asl
    189c: 0a           	asl
    189d: 0a           	asl
    189e: 0a           	asl
    189f: 85 14        	sta	$14                     ; 0x2014 <textPrint+0x32>
    18a1: a9 fe        	lda	#$fe
    18a3: 2d 6d 3a     	and	$3a6d                   ; 0x3a6d <sid_fields+0x38>
    18a6: 05 14        	ora	$14                     ; 0x2014 <textPrint+0x32>
    18a8: 92 12        	sta	($12)                   ; 0x2012 <textPrint+0x30>
    18aa: a4 31        	ldy	$31                     ; 0x2031 <textPrint+0x4f>
    18ac: f0 03        	beq	$18b1 <main+0x155b>
    18ae: 88           	dey
    18af: 84 31        	sty	$31                     ; 0x2031 <textPrint+0x4f>
    18b1: a9 00        	lda	#$0
    18b3: a6 16        	ldx	$16                     ; 0x2016 <textPrint+0x34>
    18b5: 86 26        	stx	$26                     ; 0x2026 <textPrint+0x44>
    18b7: 4c 25 17     	jmp	$1725 <main+0x13cf>
    18ba: a8           	tay
    18bb: a5 16        	lda	$16                     ; 0x2016 <textPrint+0x34>
    18bd: 29 f0        	and	#$f0
    18bf: c9 80        	cmp	#$80
    18c1: d0 03        	bne	$18c6 <main+0x1570>
    18c3: 4c 1a 16     	jmp	$161a <main+0x12c4>
    18c6: c9 90        	cmp	#$90
    18c8: f0 03        	beq	$18cd <main+0x1577>
    18ca: 4c 36 16     	jmp	$1636 <main+0x12e0>
    18cd: a2 01        	ldx	#$1
    18cf: 8a           	txa
    18d0: a0 05        	ldy	#$5
    18d2: 91 10        	sta	($10),y                 ; 0x2010 <textPrint+0x2e>
    18d4: a4 16        	ldy	$16                     ; 0x2016 <textPrint+0x34>
    18d6: 84 26        	sty	$26                     ; 0x2026 <textPrint+0x44>
    18d8: a5 16        	lda	$16                     ; 0x2016 <textPrint+0x34>
    18da: a0 03        	ldy	#$3
    18dc: 91 10        	sta	($10),y                 ; 0x2010 <textPrint+0x2e>
    18de: 8a           	txa
    18df: 4c 2f 16     	jmp	$162f <main+0x12d9>
    18e2: c0 01        	cpy	#$1
    18e4: 90 03        	bcc	$18e9 <main+0x1593>
    18e6: 4c b7 15     	jmp	$15b7 <main+0x1261>
    18e9: a4 14        	ldy	$14                     ; 0x2014 <textPrint+0x32>
    18eb: 64 12        	stz	$12                     ; 0x2012 <textPrint+0x30>
    18ed: b9 94 36     	lda	$3694,y                 ; 0x3694 <sidChoiceToVoice+0x5>
    18f0: a8           	tay
    18f1: a9 00        	lda	#$0
    18f3: c0 00        	cpy	#$0
    18f5: f0 02        	beq	$18f9 <main+0x15a3>
    18f7: a9 01        	lda	#$1
    18f9: 4a           	lsr
    18fa: a9 00        	lda	#$0
    18fc: 6a           	ror
    18fd: a0 01        	ldy	#$1
    18ff: aa           	tax
    1900: 30 03        	bmi	$1905 <main+0x15af>
    1902: 4c c7 15     	jmp	$15c7 <main+0x1271>
    1905: a2 ff        	ldx	#$ff
    1907: 4c c9 15     	jmp	$15c9 <main+0x1273>
    190a: c0 00        	cpy	#$0
    190c: a6 27        	ldx	$27                     ; 0x2027 <textPrint+0x45>
    190e: 90 03        	bcc	$1913 <main+0x15bd>
    1910: 4c dc 17     	jmp	$17dc <main+0x1486>
    1913: 4c 1b 18     	jmp	$181b <main+0x14c5>
    1916: a2 00        	ldx	#$0
    1918: a0 d4        	ldy	#$d4
    191a: 4c b7 16     	jmp	$16b7 <main+0x1361>
    191d: e6 17        	inc	$17                     ; 0x2017 <textPrint+0x35>
    191f: c6 17        	dec	$17                     ; 0x2017 <textPrint+0x35>
    1921: f0 0b        	beq	$192e <main+0x15d8>
    1923: 4c 5f 17     	jmp	$175f <main+0x1409>
    1926: a5 12        	lda	$12                     ; 0x2012 <textPrint+0x30>
    1928: 5a           	phy
    1929: a0 06        	ldy	#$6
    192b: 91 10        	sta	($10),y                 ; 0x2010 <textPrint+0x2e>
    192d: 7a           	ply
    192e: 64 38        	stz	$38                     ; 0x2038 <textPrint+0x56>
    1930: 18           	clc
    1931: a5 10        	lda	$10                     ; 0x2010 <textPrint+0x2e>
    1933: 69 10        	adc	#$10
    1935: 85 12        	sta	$12                     ; 0x2012 <textPrint+0x30>
    1937: a5 11        	lda	$11                     ; 0x2011 <textPrint+0x2f>
    1939: 69 00        	adc	#$0
    193b: 85 13        	sta	$13                     ; 0x2013 <textPrint+0x31>
    193d: 20 00 ff     	jsr	$ff00 <__heap_start+0xc45a>
    1940: 92 12        	sta	($12)                   ; 0x2012 <textPrint+0x30>
    1942: a9 00        	lda	#$0
    1944: 6a           	ror
    1945: 85 24        	sta	$24                     ; 0x2024 <textPrint+0x42>
    1947: a6 38        	ldx	$38                     ; 0x2038 <textPrint+0x56>
    1949: e0 0a        	cpx	#$a
    194b: d0 03        	bne	$1950 <main+0x15fa>
    194d: 4c ac 19     	jmp	$19ac <main+0x1656>
    1950: e0 08        	cpx	#$8
    1952: f0 03        	beq	$1957 <main+0x1601>
    1954: 4c 6e 15     	jmp	$156e <main+0x1218>
    1957: a9 7f        	lda	#$7f
    1959: 18           	clc
    195a: 65 3c        	adc	$3c                     ; 0x203c <textPrint+0x5a>
    195c: c9 e6        	cmp	#$e6
    195e: 90 03        	bcc	$1963 <main+0x160d>
    1960: 4c 6e 15     	jmp	$156e <main+0x1218>
    1963: aa           	tax
    1964: 84 28        	sty	$28                     ; 0x2028 <textPrint+0x46>
    1966: bc 89 34     	ldy	$3489,x                 ; 0x3489 <__set_v+0x1>
    1969: bd 6f 35     	lda	$356f,x                 ; 0x356f <__set_v+0xe7>
    196c: aa           	tax
    196d: 84 12        	sty	$12                     ; 0x2012 <textPrint+0x30>
    196f: a4 28        	ldy	$28                     ; 0x2028 <textPrint+0x46>
    1971: 86 13        	stx	$13                     ; 0x2013 <textPrint+0x31>
    1973: 6c 12 00     	jmp	($12)                   ; 0x12 <__rc2>
    1976: a6 44        	ldx	$44                     ; 0x2044 <textPrint+0x62>
    1978: 86 12        	stx	$12                     ; 0x2012 <textPrint+0x30>
    197a: 64 14        	stz	$14                     ; 0x2014 <textPrint+0x32>
    197c: 8a           	txa
    197d: 0a           	asl
    197e: 26 14        	rol	$14                     ; 0x2014 <textPrint+0x32>
    1980: 0a           	asl
    1981: 26 14        	rol	$14                     ; 0x2014 <textPrint+0x32>
    1983: 0a           	asl
    1984: 26 14        	rol	$14                     ; 0x2014 <textPrint+0x32>
    1986: 38           	sec
    1987: e5 12        	sbc	$12                     ; 0x2012 <textPrint+0x30>
    1989: 85 16        	sta	$16                     ; 0x2016 <textPrint+0x34>
    198b: 85 13        	sta	$13                     ; 0x2013 <textPrint+0x31>
    198d: a5 14        	lda	$14                     ; 0x2014 <textPrint+0x32>
    198f: e9 00        	sbc	#$0
    1991: a8           	tay
    1992: 85 14        	sta	$14                     ; 0x2014 <textPrint+0x32>
    1994: a9 35        	lda	#$35
    1996: 18           	clc
    1997: 65 13        	adc	$13                     ; 0x2013 <textPrint+0x31>
    1999: aa           	tax
    199a: a9 3a        	lda	#$3a
    199c: 65 14        	adc	$14                     ; 0x2014 <textPrint+0x32>
    199e: 86 14        	stx	$14                     ; 0x2014 <textPrint+0x32>
    19a0: 85 15        	sta	$15                     ; 0x2015 <textPrint+0x33>
    19a2: a9 0c        	lda	#$c
    19a4: 92 14        	sta	($14)                   ; 0x2014 <textPrint+0x32>
    19a6: a5 12        	lda	$12                     ; 0x2012 <textPrint+0x30>
    19a8: d0 4a        	bne	$19f4 <main+0x169e>
    19aa: 80 43        	bra	$19ef <main+0x1699>
    19ac: a6 3c        	ldx	$3c                     ; 0x203c <textPrint+0x5a>
    19ae: e0 02        	cpx	#$2
    19b0: 90 03        	bcc	$19b5 <main+0x165f>
    19b2: 4c 6e 15     	jmp	$156e <main+0x1218>
    19b5: 9c 34 3a     	stz	$3a34                   ; 0x3a34 <shiftTog>
    19b8: 4c 6e 15     	jmp	$156e <main+0x1218>
    19bb: a6 44        	ldx	$44                     ; 0x2044 <textPrint+0x62>
    19bd: 86 12        	stx	$12                     ; 0x2012 <textPrint+0x30>
    19bf: 64 14        	stz	$14                     ; 0x2014 <textPrint+0x32>
    19c1: 8a           	txa
    19c2: 0a           	asl
    19c3: 26 14        	rol	$14                     ; 0x2014 <textPrint+0x32>
    19c5: 0a           	asl
    19c6: 26 14        	rol	$14                     ; 0x2014 <textPrint+0x32>
    19c8: 0a           	asl
    19c9: 26 14        	rol	$14                     ; 0x2014 <textPrint+0x32>
    19cb: 38           	sec
    19cc: e5 12        	sbc	$12                     ; 0x2012 <textPrint+0x30>
    19ce: 85 16        	sta	$16                     ; 0x2016 <textPrint+0x34>
    19d0: 85 13        	sta	$13                     ; 0x2013 <textPrint+0x31>
    19d2: a5 14        	lda	$14                     ; 0x2014 <textPrint+0x32>
    19d4: e9 00        	sbc	#$0
    19d6: a8           	tay
    19d7: 85 14        	sta	$14                     ; 0x2014 <textPrint+0x32>
    19d9: a9 35        	lda	#$35
    19db: 18           	clc
    19dc: 65 13        	adc	$13                     ; 0x2013 <textPrint+0x31>
    19de: aa           	tax
    19df: a9 3a        	lda	#$3a
    19e1: 65 14        	adc	$14                     ; 0x2014 <textPrint+0x32>
    19e3: 86 14        	stx	$14                     ; 0x2014 <textPrint+0x32>
    19e5: 85 15        	sta	$15                     ; 0x2015 <textPrint+0x33>
    19e7: a9 0e        	lda	#$e
    19e9: 92 14        	sta	($14)                   ; 0x2014 <textPrint+0x32>
    19eb: a5 12        	lda	$12                     ; 0x2012 <textPrint+0x30>
    19ed: d0 05        	bne	$19f4 <main+0x169e>
    19ef: a2 07        	ldx	#$7
    19f1: 8e 35 3a     	stx	$3a35                   ; 0x3a35 <sid_fields>
    19f4: 84 13        	sty	$13                     ; 0x2013 <textPrint+0x31>
    19f6: a9 35        	lda	#$35
    19f8: 18           	clc
    19f9: 65 16        	adc	$16                     ; 0x2016 <textPrint+0x34>
    19fb: 85 12        	sta	$12                     ; 0x2012 <textPrint+0x30>
    19fd: a9 3a        	lda	#$3a
    19ff: 65 13        	adc	$13                     ; 0x2013 <textPrint+0x31>
    1a01: 85 13        	sta	$13                     ; 0x2013 <textPrint+0x31>
    1a03: 4c 8b 13     	jmp	$138b <main+0x1035>
    1a06: a6 44        	ldx	$44                     ; 0x2044 <textPrint+0x62>
    1a08: 86 12        	stx	$12                     ; 0x2012 <textPrint+0x30>
    1a0a: 64 14        	stz	$14                     ; 0x2014 <textPrint+0x32>
    1a0c: 8a           	txa
    1a0d: 0a           	asl
    1a0e: 26 14        	rol	$14                     ; 0x2014 <textPrint+0x32>
    1a10: 0a           	asl
    1a11: 26 14        	rol	$14                     ; 0x2014 <textPrint+0x32>
    1a13: 0a           	asl
    1a14: 26 14        	rol	$14                     ; 0x2014 <textPrint+0x32>
    1a16: 38           	sec
    1a17: e5 12        	sbc	$12                     ; 0x2012 <textPrint+0x30>
    1a19: 85 16        	sta	$16                     ; 0x2016 <textPrint+0x34>
    1a1b: 85 13        	sta	$13                     ; 0x2013 <textPrint+0x31>
    1a1d: a5 14        	lda	$14                     ; 0x2014 <textPrint+0x32>
    1a1f: e9 00        	sbc	#$0
    1a21: a8           	tay
    1a22: 85 14        	sta	$14                     ; 0x2014 <textPrint+0x32>
    1a24: a9 35        	lda	#$35
    1a26: 18           	clc
    1a27: 65 13        	adc	$13                     ; 0x2013 <textPrint+0x31>
    1a29: aa           	tax
    1a2a: a9 3a        	lda	#$3a
    1a2c: 65 14        	adc	$14                     ; 0x2014 <textPrint+0x32>
    1a2e: 86 14        	stx	$14                     ; 0x2014 <textPrint+0x32>
    1a30: 85 15        	sta	$15                     ; 0x2015 <textPrint+0x33>
    1a32: a9 0a        	lda	#$a
    1a34: 92 14        	sta	($14)                   ; 0x2014 <textPrint+0x32>
    1a36: a5 12        	lda	$12                     ; 0x2012 <textPrint+0x30>
    1a38: d0 ba        	bne	$19f4 <main+0x169e>
    1a3a: 80 b3        	bra	$19ef <main+0x1699>
    1a3c: a6 44        	ldx	$44                     ; 0x2044 <textPrint+0x62>
    1a3e: 86 12        	stx	$12                     ; 0x2012 <textPrint+0x30>
    1a40: 64 14        	stz	$14                     ; 0x2014 <textPrint+0x32>
    1a42: 8a           	txa
    1a43: 0a           	asl
    1a44: 26 14        	rol	$14                     ; 0x2014 <textPrint+0x32>
    1a46: 0a           	asl
    1a47: 26 14        	rol	$14                     ; 0x2014 <textPrint+0x32>
    1a49: 0a           	asl
    1a4a: 26 14        	rol	$14                     ; 0x2014 <textPrint+0x32>
    1a4c: 38           	sec
    1a4d: e5 12        	sbc	$12                     ; 0x2012 <textPrint+0x30>
    1a4f: 85 16        	sta	$16                     ; 0x2016 <textPrint+0x34>
    1a51: 85 13        	sta	$13                     ; 0x2013 <textPrint+0x31>
    1a53: a5 14        	lda	$14                     ; 0x2014 <textPrint+0x32>
    1a55: e9 00        	sbc	#$0
    1a57: a8           	tay
    1a58: 85 14        	sta	$14                     ; 0x2014 <textPrint+0x32>
    1a5a: a9 35        	lda	#$35
    1a5c: 18           	clc
    1a5d: 65 13        	adc	$13                     ; 0x2013 <textPrint+0x31>
    1a5f: aa           	tax
    1a60: a9 3a        	lda	#$3a
    1a62: 65 14        	adc	$14                     ; 0x2014 <textPrint+0x32>
    1a64: 86 14        	stx	$14                     ; 0x2014 <textPrint+0x32>
    1a66: 85 15        	sta	$15                     ; 0x2015 <textPrint+0x33>
    1a68: a9 09        	lda	#$9
    1a6a: 92 14        	sta	($14)                   ; 0x2014 <textPrint+0x32>
    1a6c: a5 12        	lda	$12                     ; 0x2012 <textPrint+0x30>
    1a6e: f0 03        	beq	$1a73 <main+0x171d>
    1a70: 4c f4 19     	jmp	$19f4 <main+0x169e>
    1a73: 4c ef 19     	jmp	$19ef <main+0x1699>
    1a76: a5 44        	lda	$44                     ; 0x2044 <textPrint+0x62>
    1a78: 64 13        	stz	$13                     ; 0x2013 <textPrint+0x31>
    1a7a: 0a           	asl
    1a7b: 26 13        	rol	$13                     ; 0x2013 <textPrint+0x31>
    1a7d: 0a           	asl
    1a7e: 26 13        	rol	$13                     ; 0x2013 <textPrint+0x31>
    1a80: 0a           	asl
    1a81: 26 13        	rol	$13                     ; 0x2013 <textPrint+0x31>
    1a83: 38           	sec
    1a84: e5 44        	sbc	$44                     ; 0x2044 <textPrint+0x62>
    1a86: 85 12        	sta	$12                     ; 0x2012 <textPrint+0x30>
    1a88: a5 13        	lda	$13                     ; 0x2013 <textPrint+0x31>
    1a8a: e9 00        	sbc	#$0
    1a8c: 85 13        	sta	$13                     ; 0x2013 <textPrint+0x31>
    1a8e: a9 35        	lda	#$35
    1a90: 18           	clc
    1a91: 65 12        	adc	$12                     ; 0x2012 <textPrint+0x30>
    1a93: 85 12        	sta	$12                     ; 0x2012 <textPrint+0x30>
    1a95: a9 3a        	lda	#$3a
    1a97: 65 13        	adc	$13                     ; 0x2013 <textPrint+0x31>
    1a99: 85 13        	sta	$13                     ; 0x2013 <textPrint+0x31>
    1a9b: a9 06        	lda	#$6
    1a9d: 4c 89 13     	jmp	$1389 <main+0x1033>
    1aa0: a6 44        	ldx	$44                     ; 0x2044 <textPrint+0x62>
    1aa2: 86 12        	stx	$12                     ; 0x2012 <textPrint+0x30>
    1aa4: 64 14        	stz	$14                     ; 0x2014 <textPrint+0x32>
    1aa6: 8a           	txa
    1aa7: 0a           	asl
    1aa8: 26 14        	rol	$14                     ; 0x2014 <textPrint+0x32>
    1aaa: 0a           	asl
    1aab: 26 14        	rol	$14                     ; 0x2014 <textPrint+0x32>
    1aad: 0a           	asl
    1aae: 26 14        	rol	$14                     ; 0x2014 <textPrint+0x32>
    1ab0: 38           	sec
    1ab1: e5 12        	sbc	$12                     ; 0x2012 <textPrint+0x30>
    1ab3: 85 16        	sta	$16                     ; 0x2016 <textPrint+0x34>
    1ab5: 85 13        	sta	$13                     ; 0x2013 <textPrint+0x31>
    1ab7: a5 14        	lda	$14                     ; 0x2014 <textPrint+0x32>
    1ab9: e9 00        	sbc	#$0
    1abb: a8           	tay
    1abc: 85 14        	sta	$14                     ; 0x2014 <textPrint+0x32>
    1abe: a9 35        	lda	#$35
    1ac0: 18           	clc
    1ac1: 65 13        	adc	$13                     ; 0x2013 <textPrint+0x31>
    1ac3: aa           	tax
    1ac4: a9 3a        	lda	#$3a
    1ac6: 65 14        	adc	$14                     ; 0x2014 <textPrint+0x32>
    1ac8: 86 14        	stx	$14                     ; 0x2014 <textPrint+0x32>
    1aca: 85 15        	sta	$15                     ; 0x2015 <textPrint+0x33>
    1acc: a9 0b        	lda	#$b
    1ace: 92 14        	sta	($14)                   ; 0x2014 <textPrint+0x32>
    1ad0: a5 12        	lda	$12                     ; 0x2012 <textPrint+0x30>
    1ad2: f0 03        	beq	$1ad7 <main+0x1781>
    1ad4: 4c f4 19     	jmp	$19f4 <main+0x169e>
    1ad7: 4c ef 19     	jmp	$19ef <main+0x1699>
    1ada: a5 44        	lda	$44                     ; 0x2044 <textPrint+0x62>
    1adc: 64 13        	stz	$13                     ; 0x2013 <textPrint+0x31>
    1ade: 0a           	asl
    1adf: 26 13        	rol	$13                     ; 0x2013 <textPrint+0x31>
    1ae1: 0a           	asl
    1ae2: 26 13        	rol	$13                     ; 0x2013 <textPrint+0x31>
    1ae4: 0a           	asl
    1ae5: 26 13        	rol	$13                     ; 0x2013 <textPrint+0x31>
    1ae7: 38           	sec
    1ae8: e5 44        	sbc	$44                     ; 0x2044 <textPrint+0x62>
    1aea: 85 12        	sta	$12                     ; 0x2012 <textPrint+0x30>
    1aec: a5 13        	lda	$13                     ; 0x2013 <textPrint+0x31>
    1aee: e9 00        	sbc	#$0
    1af0: 85 13        	sta	$13                     ; 0x2013 <textPrint+0x31>
    1af2: a9 35        	lda	#$35
    1af4: 18           	clc
    1af5: 65 12        	adc	$12                     ; 0x2012 <textPrint+0x30>
    1af7: 85 12        	sta	$12                     ; 0x2012 <textPrint+0x30>
    1af9: a9 3a        	lda	#$3a
    1afb: 65 13        	adc	$13                     ; 0x2013 <textPrint+0x31>
    1afd: 85 13        	sta	$13                     ; 0x2013 <textPrint+0x31>
    1aff: a9 07        	lda	#$7
    1b01: 4c 89 13     	jmp	$1389 <main+0x1033>
    1b04: a5 44        	lda	$44                     ; 0x2044 <textPrint+0x62>
    1b06: 64 13        	stz	$13                     ; 0x2013 <textPrint+0x31>
    1b08: 0a           	asl
    1b09: 26 13        	rol	$13                     ; 0x2013 <textPrint+0x31>
    1b0b: 0a           	asl
    1b0c: 26 13        	rol	$13                     ; 0x2013 <textPrint+0x31>
    1b0e: 0a           	asl
    1b0f: 26 13        	rol	$13                     ; 0x2013 <textPrint+0x31>
    1b11: 38           	sec
    1b12: e5 44        	sbc	$44                     ; 0x2044 <textPrint+0x62>
    1b14: 85 12        	sta	$12                     ; 0x2012 <textPrint+0x30>
    1b16: a5 13        	lda	$13                     ; 0x2013 <textPrint+0x31>
    1b18: e9 00        	sbc	#$0
    1b1a: 85 13        	sta	$13                     ; 0x2013 <textPrint+0x31>
    1b1c: a9 35        	lda	#$35
    1b1e: 18           	clc
    1b1f: 65 12        	adc	$12                     ; 0x2012 <textPrint+0x30>
    1b21: 85 12        	sta	$12                     ; 0x2012 <textPrint+0x30>
    1b23: a9 3a        	lda	#$3a
    1b25: 65 13        	adc	$13                     ; 0x2013 <textPrint+0x31>
    1b27: 85 13        	sta	$13                     ; 0x2013 <textPrint+0x31>
    1b29: a9 05        	lda	#$5
    1b2b: 4c 89 13     	jmp	$1389 <main+0x1033>
    1b2e: a6 44        	ldx	$44                     ; 0x2044 <textPrint+0x62>
    1b30: e0 0f        	cpx	#$f
    1b32: f0 03        	beq	$1b37 <main+0x17e1>
    1b34: 4c 1f 14     	jmp	$141f <main+0x10c9>
    1b37: a2 e0        	ldx	#$e0
    1b39: 86 30        	stx	$30                     ; 0x2030 <textPrint+0x4e>
    1b3b: ae a3 3a     	ldx	$3aa3                   ; 0x3aa3 <sid_fields+0x6e>
    1b3e: ac a4 3a     	ldy	$3aa4                   ; 0x3aa4 <sid_fields+0x6f>
    1b41: 86 3f        	stx	$3f                     ; 0x203f <textPrint+0x5d>
    1b43: 8e 14 d0     	stx	$d014                   ; 0xd014 <__heap_start+0x956e>
    1b46: 9c 15 d0     	stz	$d015                   ; 0xd015 <__heap_start+0x956f>
    1b49: 84 40        	sty	$40                     ; 0x2040 <textPrint+0x5e>
    1b4b: 8c 16 d0     	sty	$d016                   ; 0xd016 <__heap_start+0x9570>
    1b4e: 9c 17 d0     	stz	$d017                   ; 0xd017 <__heap_start+0x9571>
    1b51: ad 9e 3a     	lda	$3a9e                   ; 0x3a9e <sid_fields+0x69>
    1b54: 92 10        	sta	($10)                   ; 0x2010 <textPrint+0x2e>
    1b56: a0 01        	ldy	#$1
    1b58: a9 00        	lda	#$0
    1b5a: 91 10        	sta	($10),y                 ; 0x2010 <textPrint+0x2e>
    1b5c: a2 1e        	ldx	#$1e
    1b5e: 86 12        	stx	$12                     ; 0x2012 <textPrint+0x30>
    1b60: a2 38        	ldx	#$38
    1b62: 86 13        	stx	$13                     ; 0x2013 <textPrint+0x31>
    1b64: 20 05 28     	jsr	$2805 <printf>
    1b67: a2 f4        	ldx	#$f4
    1b69: 86 30        	stx	$30                     ; 0x2030 <textPrint+0x4e>
    1b6b: ae 3a 3a     	ldx	$3a3a                   ; 0x3a3a <sid_fields+0x5>
    1b6e: ac 3b 3a     	ldy	$3a3b                   ; 0x3a3b <sid_fields+0x6>
    1b71: 86 3f        	stx	$3f                     ; 0x203f <textPrint+0x5d>
    1b73: 8e 14 d0     	stx	$d014                   ; 0xd014 <__heap_start+0x956e>
    1b76: 9c 15 d0     	stz	$d015                   ; 0xd015 <__heap_start+0x956f>
    1b79: 84 40        	sty	$40                     ; 0x2040 <textPrint+0x5e>
    1b7b: 8c 16 d0     	sty	$d016                   ; 0xd016 <__heap_start+0x9570>
    1b7e: 9c 17 d0     	stz	$d017                   ; 0xd017 <__heap_start+0x9571>
    1b81: ad 35 3a     	lda	$3a35                   ; 0x3a35 <sid_fields>
    1b84: 92 10        	sta	($10)                   ; 0x2010 <textPrint+0x2e>
    1b86: a0 01        	ldy	#$1
    1b88: a9 00        	lda	#$0
    1b8a: 91 10        	sta	($10),y                 ; 0x2010 <textPrint+0x2e>
    1b8c: a2 1e        	ldx	#$1e
    1b8e: 86 12        	stx	$12                     ; 0x2012 <textPrint+0x30>
    1b90: a2 38        	ldx	#$38
    1b92: 86 13        	stx	$13                     ; 0x2013 <textPrint+0x31>
    1b94: 20 05 28     	jsr	$2805 <printf>
    1b97: a4 28        	ldy	$28                     ; 0x2028 <textPrint+0x46>
    1b99: 64 44        	stz	$44                     ; 0x2044 <textPrint+0x62>
    1b9b: 4c 6e 15     	jmp	$156e <main+0x1218>
    1b9e: a6 44        	ldx	$44                     ; 0x2044 <textPrint+0x62>
    1ba0: 86 12        	stx	$12                     ; 0x2012 <textPrint+0x30>
    1ba2: d0 03        	bne	$1ba7 <main+0x1851>
    1ba4: 4c f5 1d     	jmp	$1df5 <main+0x1a9f>
    1ba7: 64 13        	stz	$13                     ; 0x2013 <textPrint+0x31>
    1ba9: a5 12        	lda	$12                     ; 0x2012 <textPrint+0x30>
    1bab: 0a           	asl
    1bac: 64 15        	stz	$15                     ; 0x2015 <textPrint+0x33>
    1bae: 26 15        	rol	$15                     ; 0x2015 <textPrint+0x33>
    1bb0: 0a           	asl
    1bb1: 26 15        	rol	$15                     ; 0x2015 <textPrint+0x33>
    1bb3: 0a           	asl
    1bb4: 26 15        	rol	$15                     ; 0x2015 <textPrint+0x33>
    1bb6: 38           	sec
    1bb7: e5 12        	sbc	$12                     ; 0x2012 <textPrint+0x30>
    1bb9: 85 14        	sta	$14                     ; 0x2014 <textPrint+0x32>
    1bbb: a5 15        	lda	$15                     ; 0x2015 <textPrint+0x33>
    1bbd: e9 00        	sbc	#$0
    1bbf: 85 15        	sta	$15                     ; 0x2015 <textPrint+0x33>
    1bc1: a9 35        	lda	#$35
    1bc3: 18           	clc
    1bc4: 65 14        	adc	$14                     ; 0x2014 <textPrint+0x32>
    1bc6: 85 14        	sta	$14                     ; 0x2014 <textPrint+0x32>
    1bc8: a9 3a        	lda	#$3a
    1bca: 65 15        	adc	$15                     ; 0x2015 <textPrint+0x33>
    1bcc: 85 15        	sta	$15                     ; 0x2015 <textPrint+0x33>
    1bce: b2 14        	lda	($14)                   ; 0x2014 <textPrint+0x32>
    1bd0: d0 03        	bne	$1bd5 <main+0x187f>
    1bd2: 4c 71 1e     	jmp	$1e71 <main+0x1b1b>
    1bd5: 3a           	dec
    1bd6: 92 14        	sta	($14)                   ; 0x2014 <textPrint+0x32>
    1bd8: a5 12        	lda	$12                     ; 0x2012 <textPrint+0x30>
    1bda: 0a           	asl
    1bdb: 64 14        	stz	$14                     ; 0x2014 <textPrint+0x32>
    1bdd: 26 14        	rol	$14                     ; 0x2014 <textPrint+0x32>
    1bdf: 0a           	asl
    1be0: 26 14        	rol	$14                     ; 0x2014 <textPrint+0x32>
    1be2: 0a           	asl
    1be3: 26 14        	rol	$14                     ; 0x2014 <textPrint+0x32>
    1be5: 38           	sec
    1be6: e5 12        	sbc	$12                     ; 0x2012 <textPrint+0x30>
    1be8: 85 12        	sta	$12                     ; 0x2012 <textPrint+0x30>
    1bea: a5 14        	lda	$14                     ; 0x2014 <textPrint+0x32>
    1bec: e5 13        	sbc	$13                     ; 0x2013 <textPrint+0x31>
    1bee: 80 4b        	bra	$1c3b <main+0x18e5>
    1bf0: a6 44        	ldx	$44                     ; 0x2044 <textPrint+0x62>
    1bf2: 86 12        	stx	$12                     ; 0x2012 <textPrint+0x30>
    1bf4: 64 14        	stz	$14                     ; 0x2014 <textPrint+0x32>
    1bf6: 8a           	txa
    1bf7: 0a           	asl
    1bf8: 26 14        	rol	$14                     ; 0x2014 <textPrint+0x32>
    1bfa: 0a           	asl
    1bfb: 26 14        	rol	$14                     ; 0x2014 <textPrint+0x32>
    1bfd: 0a           	asl
    1bfe: 26 14        	rol	$14                     ; 0x2014 <textPrint+0x32>
    1c00: 38           	sec
    1c01: 85 16        	sta	$16                     ; 0x2016 <textPrint+0x34>
    1c03: e5 12        	sbc	$12                     ; 0x2012 <textPrint+0x30>
    1c05: 85 13        	sta	$13                     ; 0x2013 <textPrint+0x31>
    1c07: a4 14        	ldy	$14                     ; 0x2014 <textPrint+0x32>
    1c09: a5 14        	lda	$14                     ; 0x2014 <textPrint+0x32>
    1c0b: e9 00        	sbc	#$0
    1c0d: 85 14        	sta	$14                     ; 0x2014 <textPrint+0x32>
    1c0f: a9 35        	lda	#$35
    1c11: 18           	clc
    1c12: 65 13        	adc	$13                     ; 0x2013 <textPrint+0x31>
    1c14: aa           	tax
    1c15: a9 3a        	lda	#$3a
    1c17: 65 14        	adc	$14                     ; 0x2014 <textPrint+0x32>
    1c19: 86 14        	stx	$14                     ; 0x2014 <textPrint+0x32>
    1c1b: 85 15        	sta	$15                     ; 0x2015 <textPrint+0x33>
    1c1d: b2 14        	lda	($14)                   ; 0x2014 <textPrint+0x32>
    1c1f: 1a           	inc
    1c20: 92 14        	sta	($14)                   ; 0x2014 <textPrint+0x32>
    1c22: a6 12        	ldx	$12                     ; 0x2012 <textPrint+0x30>
    1c24: d0 03        	bne	$1c29 <main+0x18d3>
    1c26: 4c 09 1e     	jmp	$1e09 <main+0x1ab3>
    1c29: c9 10        	cmp	#$10
    1c2b: 90 04        	bcc	$1c31 <main+0x18db>
    1c2d: a9 00        	lda	#$0
    1c2f: 92 14        	sta	($14)                   ; 0x2014 <textPrint+0x32>
    1c31: 38           	sec
    1c32: a5 16        	lda	$16                     ; 0x2016 <textPrint+0x34>
    1c34: e5 12        	sbc	$12                     ; 0x2012 <textPrint+0x30>
    1c36: 85 12        	sta	$12                     ; 0x2012 <textPrint+0x30>
    1c38: 98           	tya
    1c39: e9 00        	sbc	#$0
    1c3b: 85 13        	sta	$13                     ; 0x2013 <textPrint+0x31>
    1c3d: a9 35        	lda	#$35
    1c3f: 18           	clc
    1c40: 65 12        	adc	$12                     ; 0x2012 <textPrint+0x30>
    1c42: 4c fb 19     	jmp	$19fb <main+0x16a5>
    1c45: a6 44        	ldx	$44                     ; 0x2044 <textPrint+0x62>
    1c47: 86 12        	stx	$12                     ; 0x2012 <textPrint+0x30>
    1c49: bd 17 3a     	lda	$3a17,x                 ; 0x3a17 <navWSJumps>
    1c4c: 4a           	lsr
    1c4d: 4a           	lsr
    1c4e: 4a           	lsr
    1c4f: 4a           	lsr
    1c50: 85 13        	sta	$13                     ; 0x2013 <textPrint+0x31>
    1c52: 38           	sec
    1c53: 8a           	txa
    1c54: e5 13        	sbc	$13                     ; 0x2013 <textPrint+0x31>
    1c56: c9 10        	cmp	#$10
    1c58: 90 03        	bcc	$1c5d <main+0x1907>
    1c5a: 18           	clc
    1c5b: 69 10        	adc	#$10
    1c5d: 85 24        	sta	$24                     ; 0x2024 <textPrint+0x42>
    1c5f: a2 e0        	ldx	#$e0
    1c61: 86 30        	stx	$30                     ; 0x2030 <textPrint+0x4e>
    1c63: a5 12        	lda	$12                     ; 0x2012 <textPrint+0x30>
    1c65: 0a           	asl
    1c66: 64 13        	stz	$13                     ; 0x2013 <textPrint+0x31>
    1c68: 26 13        	rol	$13                     ; 0x2013 <textPrint+0x31>
    1c6a: 0a           	asl
    1c6b: 26 13        	rol	$13                     ; 0x2013 <textPrint+0x31>
    1c6d: 0a           	asl
    1c6e: 26 13        	rol	$13                     ; 0x2013 <textPrint+0x31>
    1c70: 38           	sec
    1c71: e5 12        	sbc	$12                     ; 0x2012 <textPrint+0x30>
    1c73: 85 12        	sta	$12                     ; 0x2012 <textPrint+0x30>
    1c75: a5 13        	lda	$13                     ; 0x2013 <textPrint+0x31>
    1c77: e9 00        	sbc	#$0
    1c79: 85 13        	sta	$13                     ; 0x2013 <textPrint+0x31>
    1c7b: a9 35        	lda	#$35
    1c7d: 18           	clc
    1c7e: 65 12        	adc	$12                     ; 0x2012 <textPrint+0x30>
    1c80: 85 12        	sta	$12                     ; 0x2012 <textPrint+0x30>
    1c82: a9 3a        	lda	#$3a
    1c84: 65 13        	adc	$13                     ; 0x2013 <textPrint+0x31>
    1c86: 85 13        	sta	$13                     ; 0x2013 <textPrint+0x31>
    1c88: a0 05        	ldy	#$5
    1c8a: b1 12        	lda	($12),y                 ; 0x2012 <textPrint+0x30>
    1c8c: 85 14        	sta	$14                     ; 0x2014 <textPrint+0x32>
    1c8e: c8           	iny
    1c8f: b1 12        	lda	($12),y                 ; 0x2012 <textPrint+0x30>
    1c91: a4 14        	ldy	$14                     ; 0x2014 <textPrint+0x32>
    1c93: 84 3f        	sty	$3f                     ; 0x203f <textPrint+0x5d>
    1c95: 8c 14 d0     	sty	$d014                   ; 0xd014 <__heap_start+0x956e>
    1c98: a0 01        	ldy	#$1
    1c9a: 9c 15 d0     	stz	$d015                   ; 0xd015 <__heap_start+0x956f>
    1c9d: 85 40        	sta	$40                     ; 0x2040 <textPrint+0x5e>
    1c9f: 8d 16 d0     	sta	$d016                   ; 0xd016 <__heap_start+0x9570>
    1ca2: 9c 17 d0     	stz	$d017                   ; 0xd017 <__heap_start+0x9571>
    1ca5: b2 12        	lda	($12)                   ; 0x2012 <textPrint+0x30>
    1ca7: 92 10        	sta	($10)                   ; 0x2010 <textPrint+0x2e>
    1ca9: a9 00        	lda	#$0
    1cab: 91 10        	sta	($10),y                 ; 0x2010 <textPrint+0x2e>
    1cad: a2 1e        	ldx	#$1e
    1caf: 86 12        	stx	$12                     ; 0x2012 <textPrint+0x30>
    1cb1: a2 38        	ldx	#$38
    1cb3: 86 13        	stx	$13                     ; 0x2013 <textPrint+0x31>
    1cb5: 20 05 28     	jsr	$2805 <printf>
    1cb8: a2 f4        	ldx	#$f4
    1cba: 86 30        	stx	$30                     ; 0x2030 <textPrint+0x4e>
    1cbc: a5 24        	lda	$24                     ; 0x2024 <textPrint+0x42>
    1cbe: 0a           	asl
    1cbf: 64 13        	stz	$13                     ; 0x2013 <textPrint+0x31>
    1cc1: 26 13        	rol	$13                     ; 0x2013 <textPrint+0x31>
    1cc3: 0a           	asl
    1cc4: 26 13        	rol	$13                     ; 0x2013 <textPrint+0x31>
    1cc6: 0a           	asl
    1cc7: 26 13        	rol	$13                     ; 0x2013 <textPrint+0x31>
    1cc9: 38           	sec
    1cca: e5 24        	sbc	$24                     ; 0x2024 <textPrint+0x42>
    1ccc: 85 12        	sta	$12                     ; 0x2012 <textPrint+0x30>
    1cce: a5 13        	lda	$13                     ; 0x2013 <textPrint+0x31>
    1cd0: e9 00        	sbc	#$0
    1cd2: 85 13        	sta	$13                     ; 0x2013 <textPrint+0x31>
    1cd4: 18           	clc
    1cd5: a9 35        	lda	#$35
    1cd7: 65 12        	adc	$12                     ; 0x2012 <textPrint+0x30>
    1cd9: 85 12        	sta	$12                     ; 0x2012 <textPrint+0x30>
    1cdb: a9 3a        	lda	#$3a
    1cdd: 65 13        	adc	$13                     ; 0x2013 <textPrint+0x31>
    1cdf: 85 13        	sta	$13                     ; 0x2013 <textPrint+0x31>
    1ce1: a0 05        	ldy	#$5
    1ce3: b1 12        	lda	($12),y                 ; 0x2012 <textPrint+0x30>
    1ce5: 85 14        	sta	$14                     ; 0x2014 <textPrint+0x32>
    1ce7: c8           	iny
    1ce8: b1 12        	lda	($12),y                 ; 0x2012 <textPrint+0x30>
    1cea: a4 14        	ldy	$14                     ; 0x2014 <textPrint+0x32>
    1cec: 84 3f        	sty	$3f                     ; 0x203f <textPrint+0x5d>
    1cee: 8c 14 d0     	sty	$d014                   ; 0xd014 <__heap_start+0x956e>
    1cf1: 9c 15 d0     	stz	$d015                   ; 0xd015 <__heap_start+0x956f>
    1cf4: 85 40        	sta	$40                     ; 0x2040 <textPrint+0x5e>
    1cf6: 8d 16 d0     	sta	$d016                   ; 0xd016 <__heap_start+0x9570>
    1cf9: 9c 17 d0     	stz	$d017                   ; 0xd017 <__heap_start+0x9571>
    1cfc: b2 12        	lda	($12)                   ; 0x2012 <textPrint+0x30>
    1cfe: 92 10        	sta	($10)                   ; 0x2010 <textPrint+0x2e>
    1d00: a9 00        	lda	#$0
    1d02: a0 01        	ldy	#$1
    1d04: 91 10        	sta	($10),y                 ; 0x2010 <textPrint+0x2e>
    1d06: a2 1e        	ldx	#$1e
    1d08: 86 12        	stx	$12                     ; 0x2012 <textPrint+0x30>
    1d0a: a2 38        	ldx	#$38
    1d0c: 86 13        	stx	$13                     ; 0x2013 <textPrint+0x31>
    1d0e: 20 05 28     	jsr	$2805 <printf>
    1d11: a6 24        	ldx	$24                     ; 0x2024 <textPrint+0x42>
    1d13: 86 44        	stx	$44                     ; 0x2044 <textPrint+0x62>
    1d15: a4 28        	ldy	$28                     ; 0x2028 <textPrint+0x46>
    1d17: a2 27        	ldx	#$27
    1d19: 86 24        	stx	$24                     ; 0x2024 <textPrint+0x42>
    1d1b: a2 3a        	ldx	#$3a
    1d1d: 86 25        	stx	$25                     ; 0x2025 <textPrint+0x43>
    1d1f: 4c 6e 15     	jmp	$156e <main+0x1218>
    1d22: ad 34 3a     	lda	$3a34                   ; 0x3a34 <shiftTog>
    1d25: 29 01        	and	#$1
    1d27: 85 14        	sta	$14                     ; 0x2014 <textPrint+0x32>
    1d29: a6 44        	ldx	$44                     ; 0x2044 <textPrint+0x62>
    1d2b: 86 12        	stx	$12                     ; 0x2012 <textPrint+0x30>
    1d2d: 64 13        	stz	$13                     ; 0x2013 <textPrint+0x31>
    1d2f: 8a           	txa
    1d30: 0a           	asl
    1d31: 26 13        	rol	$13                     ; 0x2013 <textPrint+0x31>
    1d33: 0a           	asl
    1d34: 26 13        	rol	$13                     ; 0x2013 <textPrint+0x31>
    1d36: 0a           	asl
    1d37: 26 13        	rol	$13                     ; 0x2013 <textPrint+0x31>
    1d39: a4 13        	ldy	$13                     ; 0x2013 <textPrint+0x31>
    1d3b: e6 14        	inc	$14                     ; 0x2014 <textPrint+0x32>
    1d3d: c6 14        	dec	$14                     ; 0x2014 <textPrint+0x32>
    1d3f: d0 03        	bne	$1d44 <main+0x19ee>
    1d41: 4c 97 14     	jmp	$1497 <main+0x1141>
    1d44: e6 12        	inc	$12                     ; 0x2012 <textPrint+0x30>
    1d46: c6 12        	dec	$12                     ; 0x2012 <textPrint+0x30>
    1d48: d0 03        	bne	$1d4d <main+0x19f7>
    1d4a: 4c 85 1f     	jmp	$1f85 <main+0x1c2f>
    1d4d: ca           	dex
    1d4e: 48           	pha
    1d4f: 8a           	txa
    1d50: 5a           	phy
    1d51: a0 04        	ldy	#$4
    1d53: 91 10        	sta	($10),y                 ; 0x2010 <textPrint+0x2e>
    1d55: 7a           	ply
    1d56: 68           	pla
    1d57: a2 e0        	ldx	#$e0
    1d59: 86 30        	stx	$30                     ; 0x2030 <textPrint+0x4e>
    1d5b: 38           	sec
    1d5c: e5 12        	sbc	$12                     ; 0x2012 <textPrint+0x30>
    1d5e: 85 12        	sta	$12                     ; 0x2012 <textPrint+0x30>
    1d60: 98           	tya
    1d61: e9 00        	sbc	#$0
    1d63: 85 13        	sta	$13                     ; 0x2013 <textPrint+0x31>
    1d65: a9 35        	lda	#$35
    1d67: 18           	clc
    1d68: 65 12        	adc	$12                     ; 0x2012 <textPrint+0x30>
    1d6a: 85 12        	sta	$12                     ; 0x2012 <textPrint+0x30>
    1d6c: a9 3a        	lda	#$3a
    1d6e: 65 13        	adc	$13                     ; 0x2013 <textPrint+0x31>
    1d70: 85 13        	sta	$13                     ; 0x2013 <textPrint+0x31>
    1d72: a0 05        	ldy	#$5
    1d74: b1 12        	lda	($12),y                 ; 0x2012 <textPrint+0x30>
    1d76: 85 14        	sta	$14                     ; 0x2014 <textPrint+0x32>
    1d78: c8           	iny
    1d79: b1 12        	lda	($12),y                 ; 0x2012 <textPrint+0x30>
    1d7b: a4 14        	ldy	$14                     ; 0x2014 <textPrint+0x32>
    1d7d: 84 3f        	sty	$3f                     ; 0x203f <textPrint+0x5d>
    1d7f: 8c 14 d0     	sty	$d014                   ; 0xd014 <__heap_start+0x956e>
    1d82: 9c 15 d0     	stz	$d015                   ; 0xd015 <__heap_start+0x956f>
    1d85: 85 40        	sta	$40                     ; 0x2040 <textPrint+0x5e>
    1d87: 8d 16 d0     	sta	$d016                   ; 0xd016 <__heap_start+0x9570>
    1d8a: 9c 17 d0     	stz	$d017                   ; 0xd017 <__heap_start+0x9571>
    1d8d: b2 12        	lda	($12)                   ; 0x2012 <textPrint+0x30>
    1d8f: 92 10        	sta	($10)                   ; 0x2010 <textPrint+0x2e>
    1d91: a0 01        	ldy	#$1
    1d93: a9 00        	lda	#$0
    1d95: 91 10        	sta	($10),y                 ; 0x2010 <textPrint+0x2e>
    1d97: a2 1e        	ldx	#$1e
    1d99: 86 12        	stx	$12                     ; 0x2012 <textPrint+0x30>
    1d9b: a2 38        	ldx	#$38
    1d9d: 86 13        	stx	$13                     ; 0x2013 <textPrint+0x31>
    1d9f: 20 05 28     	jsr	$2805 <printf>
    1da2: a2 f4        	ldx	#$f4
    1da4: 86 30        	stx	$30                     ; 0x2030 <textPrint+0x4e>
    1da6: a0 04        	ldy	#$4
    1da8: b1 10        	lda	($10),y                 ; 0x2010 <textPrint+0x2e>
    1daa: aa           	tax
    1dab: 0a           	asl
    1dac: 64 13        	stz	$13                     ; 0x2013 <textPrint+0x31>
    1dae: 26 13        	rol	$13                     ; 0x2013 <textPrint+0x31>
    1db0: 0a           	asl
    1db1: 26 13        	rol	$13                     ; 0x2013 <textPrint+0x31>
    1db3: 0a           	asl
    1db4: 26 13        	rol	$13                     ; 0x2013 <textPrint+0x31>
    1db6: 86 12        	stx	$12                     ; 0x2012 <textPrint+0x30>
    1db8: 38           	sec
    1db9: e5 12        	sbc	$12                     ; 0x2012 <textPrint+0x30>
    1dbb: 85 12        	sta	$12                     ; 0x2012 <textPrint+0x30>
    1dbd: a5 13        	lda	$13                     ; 0x2013 <textPrint+0x31>
    1dbf: e9 00        	sbc	#$0
    1dc1: 85 13        	sta	$13                     ; 0x2013 <textPrint+0x31>
    1dc3: 18           	clc
    1dc4: a9 35        	lda	#$35
    1dc6: 65 12        	adc	$12                     ; 0x2012 <textPrint+0x30>
    1dc8: 85 12        	sta	$12                     ; 0x2012 <textPrint+0x30>
    1dca: a9 3a        	lda	#$3a
    1dcc: 65 13        	adc	$13                     ; 0x2013 <textPrint+0x31>
    1dce: 85 13        	sta	$13                     ; 0x2013 <textPrint+0x31>
    1dd0: c8           	iny
    1dd1: b1 12        	lda	($12),y                 ; 0x2012 <textPrint+0x30>
    1dd3: 85 14        	sta	$14                     ; 0x2014 <textPrint+0x32>
    1dd5: c8           	iny
    1dd6: b1 12        	lda	($12),y                 ; 0x2012 <textPrint+0x30>
    1dd8: a4 14        	ldy	$14                     ; 0x2014 <textPrint+0x32>
    1dda: 84 3f        	sty	$3f                     ; 0x203f <textPrint+0x5d>
    1ddc: 8c 14 d0     	sty	$d014                   ; 0xd014 <__heap_start+0x956e>
    1ddf: 9c 15 d0     	stz	$d015                   ; 0xd015 <__heap_start+0x956f>
    1de2: 85 40        	sta	$40                     ; 0x2040 <textPrint+0x5e>
    1de4: 8d 16 d0     	sta	$d016                   ; 0xd016 <__heap_start+0x9570>
    1de7: 9c 17 d0     	stz	$d017                   ; 0xd017 <__heap_start+0x9571>
    1dea: b2 12        	lda	($12)                   ; 0x2012 <textPrint+0x30>
    1dec: 92 10        	sta	($10)                   ; 0x2010 <textPrint+0x2e>
    1dee: a0 01        	ldy	#$1
    1df0: a9 00        	lda	#$0
    1df2: 4c 51 15     	jmp	$1551 <main+0x11fb>
    1df5: ae 35 3a     	ldx	$3a35                   ; 0x3a35 <sid_fields>
    1df8: f0 03        	beq	$1dfd <main+0x1aa7>
    1dfa: 4c a7 1b     	jmp	$1ba7 <main+0x1851>
    1dfd: a2 07        	ldx	#$7
    1dff: 8e 35 3a     	stx	$3a35                   ; 0x3a35 <sid_fields>
    1e02: 64 12        	stz	$12                     ; 0x2012 <textPrint+0x30>
    1e04: 64 13        	stz	$13                     ; 0x2013 <textPrint+0x31>
    1e06: 4c d8 1b     	jmp	$1bd8 <main+0x1882>
    1e09: ae 35 3a     	ldx	$3a35                   ; 0x3a35 <sid_fields>
    1e0c: e0 08        	cpx	#$8
    1e0e: b0 03        	bcs	$1e13 <main+0x1abd>
    1e10: 4c 29 1c     	jmp	$1c29 <main+0x18d3>
    1e13: 9c 35 3a     	stz	$3a35                   ; 0x3a35 <sid_fields>
    1e16: b2 14        	lda	($14)                   ; 0x2014 <textPrint+0x32>
    1e18: 4c 29 1c     	jmp	$1c29 <main+0x18d3>
    1e1b: a2 e0        	ldx	#$e0
    1e1d: 86 30        	stx	$30                     ; 0x2030 <textPrint+0x4e>
    1e1f: ae 3a 3a     	ldx	$3a3a                   ; 0x3a3a <sid_fields+0x5>
    1e22: ac 3b 3a     	ldy	$3a3b                   ; 0x3a3b <sid_fields+0x6>
    1e25: 86 3f        	stx	$3f                     ; 0x203f <textPrint+0x5d>
    1e27: 8e 14 d0     	stx	$d014                   ; 0xd014 <__heap_start+0x956e>
    1e2a: 9c 15 d0     	stz	$d015                   ; 0xd015 <__heap_start+0x956f>
    1e2d: 84 40        	sty	$40                     ; 0x2040 <textPrint+0x5e>
    1e2f: 8c 16 d0     	sty	$d016                   ; 0xd016 <__heap_start+0x9570>
    1e32: 9c 17 d0     	stz	$d017                   ; 0xd017 <__heap_start+0x9571>
    1e35: ad 35 3a     	lda	$3a35                   ; 0x3a35 <sid_fields>
    1e38: 92 10        	sta	($10)                   ; 0x2010 <textPrint+0x2e>
    1e3a: a0 01        	ldy	#$1
    1e3c: a9 00        	lda	#$0
    1e3e: 91 10        	sta	($10),y                 ; 0x2010 <textPrint+0x2e>
    1e40: a2 1e        	ldx	#$1e
    1e42: 86 12        	stx	$12                     ; 0x2012 <textPrint+0x30>
    1e44: a2 38        	ldx	#$38
    1e46: 86 13        	stx	$13                     ; 0x2013 <textPrint+0x31>
    1e48: 20 05 28     	jsr	$2805 <printf>
    1e4b: a2 f4        	ldx	#$f4
    1e4d: 86 30        	stx	$30                     ; 0x2030 <textPrint+0x4e>
    1e4f: ae a3 3a     	ldx	$3aa3                   ; 0x3aa3 <sid_fields+0x6e>
    1e52: ac a4 3a     	ldy	$3aa4                   ; 0x3aa4 <sid_fields+0x6f>
    1e55: 86 3f        	stx	$3f                     ; 0x203f <textPrint+0x5d>
    1e57: 8e 14 d0     	stx	$d014                   ; 0xd014 <__heap_start+0x956e>
    1e5a: 9c 15 d0     	stz	$d015                   ; 0xd015 <__heap_start+0x956f>
    1e5d: 84 40        	sty	$40                     ; 0x2040 <textPrint+0x5e>
    1e5f: 8c 16 d0     	sty	$d016                   ; 0xd016 <__heap_start+0x9570>
    1e62: 9c 17 d0     	stz	$d017                   ; 0xd017 <__heap_start+0x9571>
    1e65: ad 9e 3a     	lda	$3a9e                   ; 0x3a9e <sid_fields+0x69>
    1e68: 92 10        	sta	($10)                   ; 0x2010 <textPrint+0x2e>
    1e6a: a9 00        	lda	#$0
    1e6c: a0 01        	ldy	#$1
    1e6e: 4c 0d 14     	jmp	$140d <main+0x10b7>
    1e71: a9 0f        	lda	#$f
    1e73: 4c d6 1b     	jmp	$1bd6 <main+0x1880>
    1e76: a9 00        	lda	#$0
    1e78: 4c 30 14     	jmp	$1430 <main+0x10da>
    1e7b: a2 e0        	ldx	#$e0
    1e7d: 86 30        	stx	$30                     ; 0x2030 <textPrint+0x4e>
    1e7f: ae a3 3a     	ldx	$3aa3                   ; 0x3aa3 <sid_fields+0x6e>
    1e82: ac a4 3a     	ldy	$3aa4                   ; 0x3aa4 <sid_fields+0x6f>
    1e85: 86 3f        	stx	$3f                     ; 0x203f <textPrint+0x5d>
    1e87: 8e 14 d0     	stx	$d014                   ; 0xd014 <__heap_start+0x956e>
    1e8a: 64 12        	stz	$12                     ; 0x2012 <textPrint+0x30>
    1e8c: a9 00        	lda	#$0
    1e8e: 5a           	phy
    1e8f: a0 04        	ldy	#$4
    1e91: 91 10        	sta	($10),y                 ; 0x2010 <textPrint+0x2e>
    1e93: 7a           	ply
    1e94: 9c 15 d0     	stz	$d015                   ; 0xd015 <__heap_start+0x956f>
    1e97: 84 40        	sty	$40                     ; 0x2040 <textPrint+0x5e>
    1e99: 8c 16 d0     	sty	$d016                   ; 0xd016 <__heap_start+0x9570>
    1e9c: 9c 17 d0     	stz	$d017                   ; 0xd017 <__heap_start+0x9571>
    1e9f: ad 9e 3a     	lda	$3a9e                   ; 0x3a9e <sid_fields+0x69>
    1ea2: 92 10        	sta	($10)                   ; 0x2010 <textPrint+0x2e>
    1ea4: a0 01        	ldy	#$1
    1ea6: a9 00        	lda	#$0
    1ea8: 91 10        	sta	($10),y                 ; 0x2010 <textPrint+0x2e>
    1eaa: a2 1e        	ldx	#$1e
    1eac: 86 12        	stx	$12                     ; 0x2012 <textPrint+0x30>
    1eae: a2 38        	ldx	#$38
    1eb0: 86 13        	stx	$13                     ; 0x2013 <textPrint+0x31>
    1eb2: 20 05 28     	jsr	$2805 <printf>
    1eb5: a2 f4        	ldx	#$f4
    1eb7: 86 30        	stx	$30                     ; 0x2030 <textPrint+0x4e>
    1eb9: ae 3a 3a     	ldx	$3a3a                   ; 0x3a3a <sid_fields+0x5>
    1ebc: ac 3b 3a     	ldy	$3a3b                   ; 0x3a3b <sid_fields+0x6>
    1ebf: 86 3f        	stx	$3f                     ; 0x203f <textPrint+0x5d>
    1ec1: 8e 14 d0     	stx	$d014                   ; 0xd014 <__heap_start+0x956e>
    1ec4: 9c 15 d0     	stz	$d015                   ; 0xd015 <__heap_start+0x956f>
    1ec7: 84 40        	sty	$40                     ; 0x2040 <textPrint+0x5e>
    1ec9: 8c 16 d0     	sty	$d016                   ; 0xd016 <__heap_start+0x9570>
    1ecc: 9c 17 d0     	stz	$d017                   ; 0xd017 <__heap_start+0x9571>
    1ecf: a2 35        	ldx	#$35
    1ed1: 86 12        	stx	$12                     ; 0x2012 <textPrint+0x30>
    1ed3: a2 3a        	ldx	#$3a
    1ed5: 86 13        	stx	$13                     ; 0x2013 <textPrint+0x31>
    1ed7: 4c 84 14     	jmp	$1484 <main+0x112e>
    1eda: a2 e0        	ldx	#$e0
    1edc: 86 30        	stx	$30                     ; 0x2030 <textPrint+0x4e>
    1ede: 38           	sec
    1edf: e5 12        	sbc	$12                     ; 0x2012 <textPrint+0x30>
    1ee1: e6 12        	inc	$12                     ; 0x2012 <textPrint+0x30>
    1ee3: 85 13        	sta	$13                     ; 0x2013 <textPrint+0x31>
    1ee5: 98           	tya
    1ee6: e9 00        	sbc	#$0
    1ee8: 85 14        	sta	$14                     ; 0x2014 <textPrint+0x32>
    1eea: a9 35        	lda	#$35
    1eec: 18           	clc
    1eed: 65 13        	adc	$13                     ; 0x2013 <textPrint+0x31>
    1eef: aa           	tax
    1ef0: a9 3a        	lda	#$3a
    1ef2: 65 14        	adc	$14                     ; 0x2014 <textPrint+0x32>
    1ef4: 86 14        	stx	$14                     ; 0x2014 <textPrint+0x32>
    1ef6: 85 15        	sta	$15                     ; 0x2015 <textPrint+0x33>
    1ef8: a0 05        	ldy	#$5
    1efa: b1 14        	lda	($14),y                 ; 0x2014 <textPrint+0x32>
    1efc: 85 13        	sta	$13                     ; 0x2013 <textPrint+0x31>
    1efe: c8           	iny
    1eff: b1 14        	lda	($14),y                 ; 0x2014 <textPrint+0x32>
    1f01: a4 13        	ldy	$13                     ; 0x2013 <textPrint+0x31>
    1f03: 84 3f        	sty	$3f                     ; 0x203f <textPrint+0x5d>
    1f05: 8c 14 d0     	sty	$d014                   ; 0xd014 <__heap_start+0x956e>
    1f08: 9c 15 d0     	stz	$d015                   ; 0xd015 <__heap_start+0x956f>
    1f0b: 85 40        	sta	$40                     ; 0x2040 <textPrint+0x5e>
    1f0d: 8d 16 d0     	sta	$d016                   ; 0xd016 <__heap_start+0x9570>
    1f10: 9c 17 d0     	stz	$d017                   ; 0xd017 <__heap_start+0x9571>
    1f13: b2 14        	lda	($14)                   ; 0x2014 <textPrint+0x32>
    1f15: 92 10        	sta	($10)                   ; 0x2010 <textPrint+0x2e>
    1f17: a0 01        	ldy	#$1
    1f19: a9 00        	lda	#$0
    1f1b: 91 10        	sta	($10),y                 ; 0x2010 <textPrint+0x2e>
    1f1d: 64 24        	stz	$24                     ; 0x2024 <textPrint+0x42>
    1f1f: a6 12        	ldx	$12                     ; 0x2012 <textPrint+0x30>
    1f21: 86 25        	stx	$25                     ; 0x2025 <textPrint+0x43>
    1f23: a2 1e        	ldx	#$1e
    1f25: 86 12        	stx	$12                     ; 0x2012 <textPrint+0x30>
    1f27: a2 38        	ldx	#$38
    1f29: 86 13        	stx	$13                     ; 0x2013 <textPrint+0x31>
    1f2b: 20 05 28     	jsr	$2805 <printf>
    1f2e: a2 f4        	ldx	#$f4
    1f30: 86 30        	stx	$30                     ; 0x2030 <textPrint+0x4e>
    1f32: a5 25        	lda	$25                     ; 0x2025 <textPrint+0x43>
    1f34: a6 25        	ldx	$25                     ; 0x2025 <textPrint+0x43>
    1f36: 86 14        	stx	$14                     ; 0x2014 <textPrint+0x32>
    1f38: 0a           	asl
    1f39: 26 24        	rol	$24                     ; 0x2024 <textPrint+0x42>
    1f3b: 0a           	asl
    1f3c: 26 24        	rol	$24                     ; 0x2024 <textPrint+0x42>
    1f3e: 0a           	asl
    1f3f: 26 24        	rol	$24                     ; 0x2024 <textPrint+0x42>
    1f41: 38           	sec
    1f42: e5 25        	sbc	$25                     ; 0x2025 <textPrint+0x43>
    1f44: 85 12        	sta	$12                     ; 0x2012 <textPrint+0x30>
    1f46: a5 24        	lda	$24                     ; 0x2024 <textPrint+0x42>
    1f48: a2 27        	ldx	#$27
    1f4a: 86 24        	stx	$24                     ; 0x2024 <textPrint+0x42>
    1f4c: a2 3a        	ldx	#$3a
    1f4e: 86 25        	stx	$25                     ; 0x2025 <textPrint+0x43>
    1f50: e9 00        	sbc	#$0
    1f52: 85 13        	sta	$13                     ; 0x2013 <textPrint+0x31>
    1f54: 18           	clc
    1f55: a9 35        	lda	#$35
    1f57: 65 12        	adc	$12                     ; 0x2012 <textPrint+0x30>
    1f59: 85 12        	sta	$12                     ; 0x2012 <textPrint+0x30>
    1f5b: a9 3a        	lda	#$3a
    1f5d: 65 13        	adc	$13                     ; 0x2013 <textPrint+0x31>
    1f5f: 85 13        	sta	$13                     ; 0x2013 <textPrint+0x31>
    1f61: a0 05        	ldy	#$5
    1f63: b1 12        	lda	($12),y                 ; 0x2012 <textPrint+0x30>
    1f65: 85 15        	sta	$15                     ; 0x2015 <textPrint+0x33>
    1f67: c8           	iny
    1f68: b1 12        	lda	($12),y                 ; 0x2012 <textPrint+0x30>
    1f6a: a4 15        	ldy	$15                     ; 0x2015 <textPrint+0x33>
    1f6c: 84 3f        	sty	$3f                     ; 0x203f <textPrint+0x5d>
    1f6e: 8c 14 d0     	sty	$d014                   ; 0xd014 <__heap_start+0x956e>
    1f71: 9c 15 d0     	stz	$d015                   ; 0xd015 <__heap_start+0x956f>
    1f74: 85 40        	sta	$40                     ; 0x2040 <textPrint+0x5e>
    1f76: 8d 16 d0     	sta	$d016                   ; 0xd016 <__heap_start+0x9570>
    1f79: 9c 17 d0     	stz	$d017                   ; 0xd017 <__heap_start+0x9571>
    1f7c: a5 14        	lda	$14                     ; 0x2014 <textPrint+0x32>
    1f7e: a0 04        	ldy	#$4
    1f80: 91 10        	sta	($10),y                 ; 0x2010 <textPrint+0x2e>
    1f82: 4c 84 14     	jmp	$1484 <main+0x112e>
    1f85: a2 e0        	ldx	#$e0
    1f87: 86 30        	stx	$30                     ; 0x2030 <textPrint+0x4e>
    1f89: ae 3a 3a     	ldx	$3a3a                   ; 0x3a3a <sid_fields+0x5>
    1f8c: ac 3b 3a     	ldy	$3a3b                   ; 0x3a3b <sid_fields+0x6>
    1f8f: 86 3f        	stx	$3f                     ; 0x203f <textPrint+0x5d>
    1f91: 8e 14 d0     	stx	$d014                   ; 0xd014 <__heap_start+0x956e>
    1f94: 9c 15 d0     	stz	$d015                   ; 0xd015 <__heap_start+0x956f>
    1f97: 84 40        	sty	$40                     ; 0x2040 <textPrint+0x5e>
    1f99: 8c 16 d0     	sty	$d016                   ; 0xd016 <__heap_start+0x9570>
    1f9c: 9c 17 d0     	stz	$d017                   ; 0xd017 <__heap_start+0x9571>
    1f9f: ad 35 3a     	lda	$3a35                   ; 0x3a35 <sid_fields>
    1fa2: 92 10        	sta	($10)                   ; 0x2010 <textPrint+0x2e>
    1fa4: a0 01        	ldy	#$1
    1fa6: a9 00        	lda	#$0
    1fa8: 91 10        	sta	($10),y                 ; 0x2010 <textPrint+0x2e>
    1faa: a2 1e        	ldx	#$1e
    1fac: 86 12        	stx	$12                     ; 0x2012 <textPrint+0x30>
    1fae: a2 38        	ldx	#$38
    1fb0: 86 13        	stx	$13                     ; 0x2013 <textPrint+0x31>
    1fb2: 20 05 28     	jsr	$2805 <printf>
    1fb5: a2 f4        	ldx	#$f4
    1fb7: 86 30        	stx	$30                     ; 0x2030 <textPrint+0x4e>
    1fb9: ae a3 3a     	ldx	$3aa3                   ; 0x3aa3 <sid_fields+0x6e>
    1fbc: ac a4 3a     	ldy	$3aa4                   ; 0x3aa4 <sid_fields+0x6f>
    1fbf: 86 3f        	stx	$3f                     ; 0x203f <textPrint+0x5d>
    1fc1: 8e 14 d0     	stx	$d014                   ; 0xd014 <__heap_start+0x956e>
    1fc4: 9c 15 d0     	stz	$d015                   ; 0xd015 <__heap_start+0x956f>
    1fc7: 84 40        	sty	$40                     ; 0x2040 <textPrint+0x5e>
    1fc9: 8c 16 d0     	sty	$d016                   ; 0xd016 <__heap_start+0x9570>
    1fcc: 9c 17 d0     	stz	$d017                   ; 0xd017 <__heap_start+0x9571>
    1fcf: ad 9e 3a     	lda	$3a9e                   ; 0x3a9e <sid_fields+0x69>
    1fd2: 92 10        	sta	($10)                   ; 0x2010 <textPrint+0x2e>
    1fd4: a0 01        	ldy	#$1
    1fd6: a9 00        	lda	#$0
    1fd8: 4c 0d 14     	jmp	$140d <main+0x10b7>
    1fdb: a2 01        	ldx	#$1
    1fdd: 86 43        	stx	$43                     ; 0x2043 <textPrint+0x61>
    1fdf: 4c 62 0f     	jmp	$f62 <main+0xc0c>

00001fe2 <textPrint>:
    1fe2: a6 01        	ldx	$1                      ; 0x2001 <textPrint+0x1f>
    1fe4: 86 1c        	stx	$1c                     ; 0x201c <textPrint+0x3a>
    1fe6: a6 40        	ldx	$40                     ; 0x2040 <textPrint+0x5e>
    1fe8: a0 50        	ldy	#$50
    1fea: 8c 00 de     	sty	$de00                   ; 0xde00 <__heap_start+0xa35a>
    1fed: 9c 01 de     	stz	$de01                   ; 0xde01 <__heap_start+0xa35b>
    1ff0: 8e 02 de     	stx	$de02                   ; 0xde02 <__heap_start+0xa35c>
    1ff3: 9c 03 de     	stz	$de03                   ; 0xde03 <__heap_start+0xa35d>
    1ff6: ae 10 de     	ldx	$de10                   ; 0xde10 <__heap_start+0xa36a>
    1ff9: ac 11 de     	ldy	$de11                   ; 0xde11 <__heap_start+0xa36b>
    1ffc: 84 15        	sty	$15                     ; 0x2015 <textPrint+0x33>
    1ffe: ad 12 de     	lda	$de12                   ; 0xde12 <__heap_start+0xa36c>
    2001: ac 13 de     	ldy	$de13                   ; 0xde13 <__heap_start+0xa36d>
    2004: 84 18        	sty	$18                     ; 0x2018 <textPrint+0x36>
    2006: 9c 08 de     	stz	$de08                   ; 0xde08 <__heap_start+0xa362>
    2009: a0 c0        	ldy	#$c0
    200b: 8c 09 de     	sty	$de09                   ; 0xde09 <__heap_start+0xa363>
    200e: 9c 0a de     	stz	$de0a                   ; 0xde0a <__heap_start+0xa364>
    2011: 9c 0b de     	stz	$de0b                   ; 0xde0b <__heap_start+0xa365>
    2014: 8e 0c de     	stx	$de0c                   ; 0xde0c <__heap_start+0xa366>
    2017: 64 14        	stz	$14                     ; 0x2014 <textPrint+0x32>
    2019: a2 00        	ldx	#$0
    201b: 86 16        	stx	$16                     ; 0x2016 <textPrint+0x34>
    201d: a2 c0        	ldx	#$c0
    201f: 86 17        	stx	$17                     ; 0x2017 <textPrint+0x35>
    2021: a6 15        	ldx	$15                     ; 0x2015 <textPrint+0x33>
    2023: 8e 0d de     	stx	$de0d                   ; 0xde0d <__heap_start+0xa367>
    2026: 8d 0e de     	sta	$de0e                   ; 0xde0e <__heap_start+0xa368>
    2029: a6 18        	ldx	$18                     ; 0x2018 <textPrint+0x36>
    202b: 8e 0f de     	stx	$de0f                   ; 0xde0f <__heap_start+0xa369>
    202e: ac 18 de     	ldy	$de18                   ; 0xde18 <__heap_start+0xa372>
    2031: ad 19 de     	lda	$de19                   ; 0xde19 <__heap_start+0xa373>
    2034: ae 1a de     	ldx	$de1a                   ; 0xde1a <__heap_start+0xa374>
    2037: ae 1b de     	ldx	$de1b                   ; 0xde1b <__heap_start+0xa375>
    203a: 84 18        	sty	$18                     ; 0x2018 <textPrint+0x36>
    203c: 85 19        	sta	$19                     ; 0x2019 <textPrint+0x37>
    203e: 64 15        	stz	$15                     ; 0x2015 <textPrint+0x33>
    2040: a2 20        	ldx	#$20
    2042: 4c da 22     	jmp	$22da <textPrint+0x2f8>
    2045: a5 1a        	lda	$1a                     ; 0x201a <textPrint+0x38>
    2047: f0 1c        	beq	$2065 <textPrint+0x83>
    2049: b1 18        	lda	($18),y                 ; 0x2018 <textPrint+0x36>
    204b: 92 18        	sta	($18)                   ; 0x2018 <textPrint+0x36>
    204d: a9 ff        	lda	#$ff
    204f: c6 1b        	dec	$1b                     ; 0x201b <textPrint+0x39>
    2051: c5 1b        	cmp	$1b                     ; 0x201b <textPrint+0x39>
    2053: f0 06        	beq	$205b <textPrint+0x79>
    2055: e6 18        	inc	$18                     ; 0x2018 <textPrint+0x36>
    2057: d0 ec        	bne	$2045 <textPrint+0x63>
    2059: 80 06        	bra	$2061 <textPrint+0x7f>
    205b: c6 1a        	dec	$1a                     ; 0x201a <textPrint+0x38>
    205d: e6 18        	inc	$18                     ; 0x2018 <textPrint+0x36>
    205f: d0 e4        	bne	$2045 <textPrint+0x63>
    2061: e6 19        	inc	$19                     ; 0x2019 <textPrint+0x37>
    2063: 80 e0        	bra	$2045 <textPrint+0x63>
    2065: a5 1b        	lda	$1b                     ; 0x201b <textPrint+0x39>
    2067: d0 e0        	bne	$2049 <textPrint+0x67>
    2069: a9 02        	lda	#$2
    206b: 85 01        	sta	$1                      ; 0x2001 <textPrint+0x1f>
    206d: a9 10        	lda	#$10
    206f: 5a           	phy
    2070: a0 00        	ldy	#$0
    2072: 84 18        	sty	$18                     ; 0x2018 <textPrint+0x36>
    2074: a0 c0        	ldy	#$c0
    2076: 84 19        	sty	$19                     ; 0x2019 <textPrint+0x37>
    2078: 7a           	ply
    2079: 85 1b        	sta	$1b                     ; 0x201b <textPrint+0x39>
    207b: a9 09        	lda	#$9
    207d: 85 1a        	sta	$1a                     ; 0x201a <textPrint+0x38>
    207f: 80 04        	bra	$2085 <textPrint+0xa3>
    2081: a5 1a        	lda	$1a                     ; 0x201a <textPrint+0x38>
    2083: f0 1c        	beq	$20a1 <textPrint+0xbf>
    2085: b1 18        	lda	($18),y                 ; 0x2018 <textPrint+0x36>
    2087: 92 18        	sta	($18)                   ; 0x2018 <textPrint+0x36>
    2089: a9 ff        	lda	#$ff
    208b: c6 1b        	dec	$1b                     ; 0x201b <textPrint+0x39>
    208d: c5 1b        	cmp	$1b                     ; 0x201b <textPrint+0x39>
    208f: f0 06        	beq	$2097 <textPrint+0xb5>
    2091: e6 18        	inc	$18                     ; 0x2018 <textPrint+0x36>
    2093: d0 ec        	bne	$2081 <textPrint+0x9f>
    2095: 80 06        	bra	$209d <textPrint+0xbb>
    2097: c6 1a        	dec	$1a                     ; 0x201a <textPrint+0x38>
    2099: e6 18        	inc	$18                     ; 0x2018 <textPrint+0x36>
    209b: d0 e4        	bne	$2081 <textPrint+0x9f>
    209d: e6 19        	inc	$19                     ; 0x2019 <textPrint+0x37>
    209f: 80 e0        	bra	$2081 <textPrint+0x9f>
    20a1: a5 1b        	lda	$1b                     ; 0x201b <textPrint+0x39>
    20a3: d0 e0        	bne	$2085 <textPrint+0xa3>
    20a5: a0 02        	ldy	#$2
    20a7: 84 01        	sty	$1                      ; 0x2001 <textPrint+0x1f>
    20a9: c8           	iny
    20aa: 84 01        	sty	$1                      ; 0x2001 <textPrint+0x1f>
    20ac: a5 30        	lda	$30                     ; 0x2030 <textPrint+0x4e>
    20ae: 8d 10 c9     	sta	$c910                   ; 0xc910 <__heap_start+0x8e6a>
    20b1: 8d 11 c9     	sta	$c911                   ; 0xc911 <__heap_start+0x8e6b>
    20b4: 8d 12 c9     	sta	$c912                   ; 0xc912 <__heap_start+0x8e6c>
    20b7: 8d 13 c9     	sta	$c913                   ; 0xc913 <__heap_start+0x8e6d>
    20ba: 8d 14 c9     	sta	$c914                   ; 0xc914 <__heap_start+0x8e6e>
    20bd: 8d 15 c9     	sta	$c915                   ; 0xc915 <__heap_start+0x8e6f>
    20c0: 8d 16 c9     	sta	$c916                   ; 0xc916 <__heap_start+0x8e70>
    20c3: 8d 17 c9     	sta	$c917                   ; 0xc917 <__heap_start+0x8e71>
    20c6: 8d 18 c9     	sta	$c918                   ; 0xc918 <__heap_start+0x8e72>
    20c9: 8d 19 c9     	sta	$c919                   ; 0xc919 <__heap_start+0x8e73>
    20cc: 8d 1a c9     	sta	$c91a                   ; 0xc91a <__heap_start+0x8e74>
    20cf: 8d 1b c9     	sta	$c91b                   ; 0xc91b <__heap_start+0x8e75>
    20d2: 8d 1c c9     	sta	$c91c                   ; 0xc91c <__heap_start+0x8e76>
    20d5: 8d 1d c9     	sta	$c91d                   ; 0xc91d <__heap_start+0x8e77>
    20d8: 8d 1e c9     	sta	$c91e                   ; 0xc91e <__heap_start+0x8e78>
    20db: 8d 1f c9     	sta	$c91f                   ; 0xc91f <__heap_start+0x8e79>
    20de: 8d 20 c9     	sta	$c920                   ; 0xc920 <__heap_start+0x8e7a>
    20e1: 8d 21 c9     	sta	$c921                   ; 0xc921 <__heap_start+0x8e7b>
    20e4: 8d 22 c9     	sta	$c922                   ; 0xc922 <__heap_start+0x8e7c>
    20e7: 8d 23 c9     	sta	$c923                   ; 0xc923 <__heap_start+0x8e7d>
    20ea: 8d 24 c9     	sta	$c924                   ; 0xc924 <__heap_start+0x8e7e>
    20ed: 8d 25 c9     	sta	$c925                   ; 0xc925 <__heap_start+0x8e7f>
    20f0: 8d 26 c9     	sta	$c926                   ; 0xc926 <__heap_start+0x8e80>
    20f3: 8d 27 c9     	sta	$c927                   ; 0xc927 <__heap_start+0x8e81>
    20f6: 8d 28 c9     	sta	$c928                   ; 0xc928 <__heap_start+0x8e82>
    20f9: 8d 29 c9     	sta	$c929                   ; 0xc929 <__heap_start+0x8e83>
    20fc: 8d 2a c9     	sta	$c92a                   ; 0xc92a <__heap_start+0x8e84>
    20ff: 8d 2b c9     	sta	$c92b                   ; 0xc92b <__heap_start+0x8e85>
    2102: 8d 2c c9     	sta	$c92c                   ; 0xc92c <__heap_start+0x8e86>
    2105: 8d 2d c9     	sta	$c92d                   ; 0xc92d <__heap_start+0x8e87>
    2108: 8d 2e c9     	sta	$c92e                   ; 0xc92e <__heap_start+0x8e88>
    210b: 8d 2f c9     	sta	$c92f                   ; 0xc92f <__heap_start+0x8e89>
    210e: 8d 30 c9     	sta	$c930                   ; 0xc930 <__heap_start+0x8e8a>
    2111: 8d 31 c9     	sta	$c931                   ; 0xc931 <__heap_start+0x8e8b>
    2114: 8d 32 c9     	sta	$c932                   ; 0xc932 <__heap_start+0x8e8c>
    2117: 8d 33 c9     	sta	$c933                   ; 0xc933 <__heap_start+0x8e8d>
    211a: 8d 34 c9     	sta	$c934                   ; 0xc934 <__heap_start+0x8e8e>
    211d: 8d 35 c9     	sta	$c935                   ; 0xc935 <__heap_start+0x8e8f>
    2120: 8d 36 c9     	sta	$c936                   ; 0xc936 <__heap_start+0x8e90>
    2123: 8d 37 c9     	sta	$c937                   ; 0xc937 <__heap_start+0x8e91>
    2126: 8d 38 c9     	sta	$c938                   ; 0xc938 <__heap_start+0x8e92>
    2129: 8d 39 c9     	sta	$c939                   ; 0xc939 <__heap_start+0x8e93>
    212c: 8d 3a c9     	sta	$c93a                   ; 0xc93a <__heap_start+0x8e94>
    212f: 8d 3b c9     	sta	$c93b                   ; 0xc93b <__heap_start+0x8e95>
    2132: 8d 3c c9     	sta	$c93c                   ; 0xc93c <__heap_start+0x8e96>
    2135: 8d 3d c9     	sta	$c93d                   ; 0xc93d <__heap_start+0x8e97>
    2138: 8d 3e c9     	sta	$c93e                   ; 0xc93e <__heap_start+0x8e98>
    213b: 8d 3f c9     	sta	$c93f                   ; 0xc93f <__heap_start+0x8e99>
    213e: 8d 40 c9     	sta	$c940                   ; 0xc940 <__heap_start+0x8e9a>
    2141: 8d 41 c9     	sta	$c941                   ; 0xc941 <__heap_start+0x8e9b>
    2144: 8d 42 c9     	sta	$c942                   ; 0xc942 <__heap_start+0x8e9c>
    2147: 8d 43 c9     	sta	$c943                   ; 0xc943 <__heap_start+0x8e9d>
    214a: 8d 44 c9     	sta	$c944                   ; 0xc944 <__heap_start+0x8e9e>
    214d: 8d 45 c9     	sta	$c945                   ; 0xc945 <__heap_start+0x8e9f>
    2150: 8d 46 c9     	sta	$c946                   ; 0xc946 <__heap_start+0x8ea0>
    2153: 8d 47 c9     	sta	$c947                   ; 0xc947 <__heap_start+0x8ea1>
    2156: 8d 48 c9     	sta	$c948                   ; 0xc948 <__heap_start+0x8ea2>
    2159: 8d 49 c9     	sta	$c949                   ; 0xc949 <__heap_start+0x8ea3>
    215c: 8d 4a c9     	sta	$c94a                   ; 0xc94a <__heap_start+0x8ea4>
    215f: 8d 4b c9     	sta	$c94b                   ; 0xc94b <__heap_start+0x8ea5>
    2162: 8d 4c c9     	sta	$c94c                   ; 0xc94c <__heap_start+0x8ea6>
    2165: 8d 4d c9     	sta	$c94d                   ; 0xc94d <__heap_start+0x8ea7>
    2168: 8d 4e c9     	sta	$c94e                   ; 0xc94e <__heap_start+0x8ea8>
    216b: 8d 4f c9     	sta	$c94f                   ; 0xc94f <__heap_start+0x8ea9>
    216e: 8d 50 c9     	sta	$c950                   ; 0xc950 <__heap_start+0x8eaa>
    2171: 8d 51 c9     	sta	$c951                   ; 0xc951 <__heap_start+0x8eab>
    2174: 8d 52 c9     	sta	$c952                   ; 0xc952 <__heap_start+0x8eac>
    2177: 8d 53 c9     	sta	$c953                   ; 0xc953 <__heap_start+0x8ead>
    217a: 8d 54 c9     	sta	$c954                   ; 0xc954 <__heap_start+0x8eae>
    217d: 8d 55 c9     	sta	$c955                   ; 0xc955 <__heap_start+0x8eaf>
    2180: 8d 56 c9     	sta	$c956                   ; 0xc956 <__heap_start+0x8eb0>
    2183: 8d 57 c9     	sta	$c957                   ; 0xc957 <__heap_start+0x8eb1>
    2186: 8d 58 c9     	sta	$c958                   ; 0xc958 <__heap_start+0x8eb2>
    2189: 8d 59 c9     	sta	$c959                   ; 0xc959 <__heap_start+0x8eb3>
    218c: 8d 5a c9     	sta	$c95a                   ; 0xc95a <__heap_start+0x8eb4>
    218f: 8d 5b c9     	sta	$c95b                   ; 0xc95b <__heap_start+0x8eb5>
    2192: 8d 5c c9     	sta	$c95c                   ; 0xc95c <__heap_start+0x8eb6>
    2195: 8d 5d c9     	sta	$c95d                   ; 0xc95d <__heap_start+0x8eb7>
    2198: 8d 5e c9     	sta	$c95e                   ; 0xc95e <__heap_start+0x8eb8>
    219b: 8d 5f c9     	sta	$c95f                   ; 0xc95f <__heap_start+0x8eb9>
    219e: 88           	dey
    219f: 84 01        	sty	$1                      ; 0x2001 <textPrint+0x1f>
    21a1: 8e 10 c9     	stx	$c910                   ; 0xc910 <__heap_start+0x8e6a>
    21a4: 8e 11 c9     	stx	$c911                   ; 0xc911 <__heap_start+0x8e6b>
    21a7: 8e 12 c9     	stx	$c912                   ; 0xc912 <__heap_start+0x8e6c>
    21aa: 8e 13 c9     	stx	$c913                   ; 0xc913 <__heap_start+0x8e6d>
    21ad: 8e 14 c9     	stx	$c914                   ; 0xc914 <__heap_start+0x8e6e>
    21b0: 8e 15 c9     	stx	$c915                   ; 0xc915 <__heap_start+0x8e6f>
    21b3: 8e 16 c9     	stx	$c916                   ; 0xc916 <__heap_start+0x8e70>
    21b6: 8e 17 c9     	stx	$c917                   ; 0xc917 <__heap_start+0x8e71>
    21b9: 8e 18 c9     	stx	$c918                   ; 0xc918 <__heap_start+0x8e72>
    21bc: 8e 19 c9     	stx	$c919                   ; 0xc919 <__heap_start+0x8e73>
    21bf: 8e 1a c9     	stx	$c91a                   ; 0xc91a <__heap_start+0x8e74>
    21c2: 8e 1b c9     	stx	$c91b                   ; 0xc91b <__heap_start+0x8e75>
    21c5: 8e 1c c9     	stx	$c91c                   ; 0xc91c <__heap_start+0x8e76>
    21c8: 8e 1d c9     	stx	$c91d                   ; 0xc91d <__heap_start+0x8e77>
    21cb: 8e 1e c9     	stx	$c91e                   ; 0xc91e <__heap_start+0x8e78>
    21ce: 8e 1f c9     	stx	$c91f                   ; 0xc91f <__heap_start+0x8e79>
    21d1: 8e 20 c9     	stx	$c920                   ; 0xc920 <__heap_start+0x8e7a>
    21d4: 8e 21 c9     	stx	$c921                   ; 0xc921 <__heap_start+0x8e7b>
    21d7: 8e 22 c9     	stx	$c922                   ; 0xc922 <__heap_start+0x8e7c>
    21da: 8e 23 c9     	stx	$c923                   ; 0xc923 <__heap_start+0x8e7d>
    21dd: 8e 24 c9     	stx	$c924                   ; 0xc924 <__heap_start+0x8e7e>
    21e0: 8e 25 c9     	stx	$c925                   ; 0xc925 <__heap_start+0x8e7f>
    21e3: 8e 26 c9     	stx	$c926                   ; 0xc926 <__heap_start+0x8e80>
    21e6: 8e 27 c9     	stx	$c927                   ; 0xc927 <__heap_start+0x8e81>
    21e9: 8e 28 c9     	stx	$c928                   ; 0xc928 <__heap_start+0x8e82>
    21ec: 8e 29 c9     	stx	$c929                   ; 0xc929 <__heap_start+0x8e83>
    21ef: 8e 2a c9     	stx	$c92a                   ; 0xc92a <__heap_start+0x8e84>
    21f2: 8e 2b c9     	stx	$c92b                   ; 0xc92b <__heap_start+0x8e85>
    21f5: 8e 2c c9     	stx	$c92c                   ; 0xc92c <__heap_start+0x8e86>
    21f8: 8e 2d c9     	stx	$c92d                   ; 0xc92d <__heap_start+0x8e87>
    21fb: 8e 2e c9     	stx	$c92e                   ; 0xc92e <__heap_start+0x8e88>
    21fe: 8e 2f c9     	stx	$c92f                   ; 0xc92f <__heap_start+0x8e89>
    2201: 8e 30 c9     	stx	$c930                   ; 0xc930 <__heap_start+0x8e8a>
    2204: 8e 31 c9     	stx	$c931                   ; 0xc931 <__heap_start+0x8e8b>
    2207: 8e 32 c9     	stx	$c932                   ; 0xc932 <__heap_start+0x8e8c>
    220a: 8e 33 c9     	stx	$c933                   ; 0xc933 <__heap_start+0x8e8d>
    220d: 8e 34 c9     	stx	$c934                   ; 0xc934 <__heap_start+0x8e8e>
    2210: 8e 35 c9     	stx	$c935                   ; 0xc935 <__heap_start+0x8e8f>
    2213: 8e 36 c9     	stx	$c936                   ; 0xc936 <__heap_start+0x8e90>
    2216: 8e 37 c9     	stx	$c937                   ; 0xc937 <__heap_start+0x8e91>
    2219: 8e 38 c9     	stx	$c938                   ; 0xc938 <__heap_start+0x8e92>
    221c: 8e 39 c9     	stx	$c939                   ; 0xc939 <__heap_start+0x8e93>
    221f: 8e 3a c9     	stx	$c93a                   ; 0xc93a <__heap_start+0x8e94>
    2222: 8e 3b c9     	stx	$c93b                   ; 0xc93b <__heap_start+0x8e95>
    2225: 8e 3c c9     	stx	$c93c                   ; 0xc93c <__heap_start+0x8e96>
    2228: 8e 3d c9     	stx	$c93d                   ; 0xc93d <__heap_start+0x8e97>
    222b: 8e 3e c9     	stx	$c93e                   ; 0xc93e <__heap_start+0x8e98>
    222e: 8e 3f c9     	stx	$c93f                   ; 0xc93f <__heap_start+0x8e99>
    2231: 8e 40 c9     	stx	$c940                   ; 0xc940 <__heap_start+0x8e9a>
    2234: 8e 41 c9     	stx	$c941                   ; 0xc941 <__heap_start+0x8e9b>
    2237: 8e 42 c9     	stx	$c942                   ; 0xc942 <__heap_start+0x8e9c>
    223a: 8e 43 c9     	stx	$c943                   ; 0xc943 <__heap_start+0x8e9d>
    223d: 8e 44 c9     	stx	$c944                   ; 0xc944 <__heap_start+0x8e9e>
    2240: 8e 45 c9     	stx	$c945                   ; 0xc945 <__heap_start+0x8e9f>
    2243: 8e 46 c9     	stx	$c946                   ; 0xc946 <__heap_start+0x8ea0>
    2246: 8e 47 c9     	stx	$c947                   ; 0xc947 <__heap_start+0x8ea1>
    2249: 8e 48 c9     	stx	$c948                   ; 0xc948 <__heap_start+0x8ea2>
    224c: 8e 49 c9     	stx	$c949                   ; 0xc949 <__heap_start+0x8ea3>
    224f: 8e 4a c9     	stx	$c94a                   ; 0xc94a <__heap_start+0x8ea4>
    2252: 8e 4b c9     	stx	$c94b                   ; 0xc94b <__heap_start+0x8ea5>
    2255: 8e 4c c9     	stx	$c94c                   ; 0xc94c <__heap_start+0x8ea6>
    2258: 8e 4d c9     	stx	$c94d                   ; 0xc94d <__heap_start+0x8ea7>
    225b: 8e 4e c9     	stx	$c94e                   ; 0xc94e <__heap_start+0x8ea8>
    225e: 8e 4f c9     	stx	$c94f                   ; 0xc94f <__heap_start+0x8ea9>
    2261: 8e 50 c9     	stx	$c950                   ; 0xc950 <__heap_start+0x8eaa>
    2264: 8e 51 c9     	stx	$c951                   ; 0xc951 <__heap_start+0x8eab>
    2267: 8e 52 c9     	stx	$c952                   ; 0xc952 <__heap_start+0x8eac>
    226a: 8e 53 c9     	stx	$c953                   ; 0xc953 <__heap_start+0x8ead>
    226d: 8e 54 c9     	stx	$c954                   ; 0xc954 <__heap_start+0x8eae>
    2270: 8e 55 c9     	stx	$c955                   ; 0xc955 <__heap_start+0x8eaf>
    2273: 8e 56 c9     	stx	$c956                   ; 0xc956 <__heap_start+0x8eb0>
    2276: 8e 57 c9     	stx	$c957                   ; 0xc957 <__heap_start+0x8eb1>
    2279: 8e 58 c9     	stx	$c958                   ; 0xc958 <__heap_start+0x8eb2>
    227c: 8e 59 c9     	stx	$c959                   ; 0xc959 <__heap_start+0x8eb3>
    227f: 8e 5a c9     	stx	$c95a                   ; 0xc95a <__heap_start+0x8eb4>
    2282: 8e 5b c9     	stx	$c95b                   ; 0xc95b <__heap_start+0x8eb5>
    2285: 8e 5c c9     	stx	$c95c                   ; 0xc95c <__heap_start+0x8eb6>
    2288: 8e 5d c9     	stx	$c95d                   ; 0xc95d <__heap_start+0x8eb7>
    228b: 8e 5e c9     	stx	$c95e                   ; 0xc95e <__heap_start+0x8eb8>
    228e: 8e 5f c9     	stx	$c95f                   ; 0xc95f <__heap_start+0x8eb9>
    2291: c6 40        	dec	$40                     ; 0x2040 <textPrint+0x5e>
    2293: 9c 08 de     	stz	$de08                   ; 0xde08 <__heap_start+0xa362>
    2296: a0 c0        	ldy	#$c0
    2298: 8c 09 de     	sty	$de09                   ; 0xde09 <__heap_start+0xa363>
    229b: 9c 0a de     	stz	$de0a                   ; 0xde0a <__heap_start+0xa364>
    229e: 9c 0b de     	stz	$de0b                   ; 0xde0b <__heap_start+0xa365>
    22a1: a0 1d        	ldy	#$1d
    22a3: 8c 0c de     	sty	$de0c                   ; 0xde0c <__heap_start+0xa366>
    22a6: 9c 0d de     	stz	$de0d                   ; 0xde0d <__heap_start+0xa367>
    22a9: 9c 0e de     	stz	$de0e                   ; 0xde0e <__heap_start+0xa368>
    22ac: 9c 0f de     	stz	$de0f                   ; 0xde0f <__heap_start+0xa369>
    22af: ac 18 de     	ldy	$de18                   ; 0xde18 <__heap_start+0xa372>
    22b2: ad 19 de     	lda	$de19                   ; 0xde19 <__heap_start+0xa373>
    22b5: 85 19        	sta	$19                     ; 0x2019 <textPrint+0x37>
    22b7: ad 1a de     	lda	$de1a                   ; 0xde1a <__heap_start+0xa374>
    22ba: 84 18        	sty	$18                     ; 0x2018 <textPrint+0x36>
    22bc: ac 1b de     	ldy	$de1b                   ; 0xde1b <__heap_start+0xa375>
    22bf: e6 14        	inc	$14                     ; 0x2014 <textPrint+0x32>
    22c1: d0 02        	bne	$22c5 <textPrint+0x2e3>
    22c3: e6 15        	inc	$15                     ; 0x2015 <textPrint+0x33>
    22c5: 80 13        	bra	$22da <textPrint+0x2f8>
    22c7: a5 18        	lda	$18                     ; 0x2018 <textPrint+0x36>
    22c9: 18           	clc
    22ca: 69 50        	adc	#$50
    22cc: 85 18        	sta	$18                     ; 0x2018 <textPrint+0x36>
    22ce: a5 19        	lda	$19                     ; 0x2019 <textPrint+0x37>
    22d0: 69 00        	adc	#$0
    22d2: 85 19        	sta	$19                     ; 0x2019 <textPrint+0x37>
    22d4: e6 14        	inc	$14                     ; 0x2014 <textPrint+0x32>
    22d6: d0 02        	bne	$22da <textPrint+0x2f8>
    22d8: e6 15        	inc	$15                     ; 0x2015 <textPrint+0x33>
    22da: a5 12        	lda	$12                     ; 0x2012 <textPrint+0x30>
    22dc: 18           	clc
    22dd: 65 14        	adc	$14                     ; 0x2014 <textPrint+0x32>
    22df: 85 1a        	sta	$1a                     ; 0x201a <textPrint+0x38>
    22e1: a5 13        	lda	$13                     ; 0x2013 <textPrint+0x31>
    22e3: 65 15        	adc	$15                     ; 0x2015 <textPrint+0x33>
    22e5: 85 1b        	sta	$1b                     ; 0x201b <textPrint+0x39>
    22e7: b2 1a        	lda	($1a)                   ; 0x201a <textPrint+0x38>
    22e9: c9 0a        	cmp	#$a
    22eb: f0 24        	beq	$2311 <textPrint+0x32f>
    22ed: c9 0d        	cmp	#$d
    22ef: f0 20        	beq	$2311 <textPrint+0x32f>
    22f1: a8           	tay
    22f2: f0 46        	beq	$233a <textPrint+0x358>
    22f4: a0 03        	ldy	#$3
    22f6: 84 01        	sty	$1                      ; 0x2001 <textPrint+0x1f>
    22f8: a5 30        	lda	$30                     ; 0x2030 <textPrint+0x4e>
    22fa: a4 3f        	ldy	$3f                     ; 0x203f <textPrint+0x5d>
    22fc: 91 18        	sta	($18),y                 ; 0x2018 <textPrint+0x36>
    22fe: a0 02        	ldy	#$2
    2300: 84 01        	sty	$1                      ; 0x2001 <textPrint+0x1f>
    2302: b2 1a        	lda	($1a)                   ; 0x201a <textPrint+0x38>
    2304: a4 3f        	ldy	$3f                     ; 0x203f <textPrint+0x5d>
    2306: 91 18        	sta	($18),y                 ; 0x2018 <textPrint+0x36>
    2308: a4 3f        	ldy	$3f                     ; 0x203f <textPrint+0x5d>
    230a: c8           	iny
    230b: e6 3f        	inc	$3f                     ; 0x203f <textPrint+0x5d>
    230d: c0 50        	cpy	#$50
    230f: d0 c3        	bne	$22d4 <textPrint+0x2f2>
    2311: 64 3f        	stz	$3f                     ; 0x203f <textPrint+0x5d>
    2313: a4 40        	ldy	$40                     ; 0x2040 <textPrint+0x5e>
    2315: c8           	iny
    2316: e6 40        	inc	$40                     ; 0x2040 <textPrint+0x5e>
    2318: c0 1e        	cpy	#$1e
    231a: f0 03        	beq	$231f <textPrint+0x33d>
    231c: 4c c7 22     	jmp	$22c7 <textPrint+0x2e5>
    231f: a0 03        	ldy	#$3
    2321: 84 01        	sty	$1                      ; 0x2001 <textPrint+0x1f>
    2323: a0 09        	ldy	#$9
    2325: a9 10        	lda	#$10
    2327: 5a           	phy
    2328: a0 00        	ldy	#$0
    232a: 84 18        	sty	$18                     ; 0x2018 <textPrint+0x36>
    232c: a0 c0        	ldy	#$c0
    232e: 84 19        	sty	$19                     ; 0x2019 <textPrint+0x37>
    2330: 7a           	ply
    2331: 85 1b        	sta	$1b                     ; 0x201b <textPrint+0x39>
    2333: 84 1a        	sty	$1a                     ; 0x201a <textPrint+0x38>
    2335: a0 50        	ldy	#$50
    2337: 4c 49 20     	jmp	$2049 <textPrint+0x67>
    233a: a6 1c        	ldx	$1c                     ; 0x201c <textPrint+0x3a>
    233c: 86 01        	stx	$1                      ; 0x2001 <textPrint+0x1f>
    233e: a6 3f        	ldx	$3f                     ; 0x203f <textPrint+0x5d>
    2340: a4 40        	ldy	$40                     ; 0x2040 <textPrint+0x5e>
    2342: 8e 14 d0     	stx	$d014                   ; 0xd014 <__heap_start+0x956e>
    2345: 9c 15 d0     	stz	$d015                   ; 0xd015 <__heap_start+0x956f>
    2348: 84 40        	sty	$40                     ; 0x2040 <textPrint+0x5e>
    234a: 8c 16 d0     	sty	$d016                   ; 0xd016 <__heap_start+0x9570>
    234d: 9c 17 d0     	stz	$d017                   ; 0xd017 <__heap_start+0x9571>
    2350: 60           	rts

00002351 <updateValues>:
    2351: 18           	clc
    2352: a5 10        	lda	$10                     ; 0x2010 <textPrint+0x2e>
    2354: 69 fe        	adc	#$fe
    2356: 85 10        	sta	$10                     ; 0x2010 <textPrint+0x2e>
    2358: a5 11        	lda	$11                     ; 0x2011 <textPrint+0x2f>
    235a: 69 ff        	adc	#$ff
    235c: 85 11        	sta	$11                     ; 0x2011 <textPrint+0x2f>
    235e: ae 1a d0     	ldx	$d01a                   ; 0xd01a <__heap_start+0x9574>
    2361: ac 1b d0     	ldy	$d01b                   ; 0xd01b <__heap_start+0x9575>
    2364: c0 01        	cpy	#$1
    2366: d0 f6        	bne	$235e <updateValues+0xd>
    2368: e0 e2        	cpx	#$e2
    236a: d0 f2        	bne	$235e <updateValues+0xd>
    236c: a6 44        	ldx	$44                     ; 0x2044 <textPrint+0x62>
    236e: 86 12        	stx	$12                     ; 0x2012 <textPrint+0x30>
    2370: a9 00        	lda	#$0
    2372: a8           	tay
    2373: a2 f4        	ldx	#$f4
    2375: c4 12        	cpy	$12                     ; 0x2012 <textPrint+0x30>
    2377: f0 02        	beq	$237b <updateValues+0x2a>
    2379: a2 e0        	ldx	#$e0
    237b: 86 30        	stx	$30                     ; 0x2030 <textPrint+0x4e>
    237d: aa           	tax
    237e: 48           	pha
    237f: bd 39 3a     	lda	$3a39,x                 ; 0x3a39 <sid_fields+0x4>
    2382: aa           	tax
    2383: 68           	pla
    2384: e0 00        	cpx	#$0
    2386: d0 03        	bne	$238b <updateValues+0x3a>
    2388: 4c f5 23     	jmp	$23f5 <updateValues+0xa4>
    238b: 84 46        	sty	$46                     ; 0x2046 <textPrint+0x64>
    238d: 85 45        	sta	$45                     ; 0x2045 <textPrint+0x63>
    238f: a8           	tay
    2390: be 3a 3a     	ldx	$3a3a,y                 ; 0x3a3a <sid_fields+0x5>
    2393: b9 3b 3a     	lda	$3a3b,y                 ; 0x3a3b <sid_fields+0x6>
    2396: 86 3f        	stx	$3f                     ; 0x203f <textPrint+0x5d>
    2398: 8e 14 d0     	stx	$d014                   ; 0xd014 <__heap_start+0x956e>
    239b: 9c 15 d0     	stz	$d015                   ; 0xd015 <__heap_start+0x956f>
    239e: 85 40        	sta	$40                     ; 0x2040 <textPrint+0x5e>
    23a0: 8d 16 d0     	sta	$d016                   ; 0xd016 <__heap_start+0x9570>
    23a3: 9c 17 d0     	stz	$d017                   ; 0xd017 <__heap_start+0x9571>
    23a6: b9 35 3a     	lda	$3a35,y                 ; 0x3a35 <sid_fields>
    23a9: 84 47        	sty	$47                     ; 0x2047 <textPrint+0x65>
    23ab: 92 10        	sta	($10)                   ; 0x2010 <textPrint+0x2e>
    23ad: a9 00        	lda	#$0
    23af: a0 01        	ldy	#$1
    23b1: 91 10        	sta	($10),y                 ; 0x2010 <textPrint+0x2e>
    23b3: a2 1e        	ldx	#$1e
    23b5: 86 12        	stx	$12                     ; 0x2012 <textPrint+0x30>
    23b7: a2 38        	ldx	#$38
    23b9: 86 13        	stx	$13                     ; 0x2013 <textPrint+0x31>
    23bb: 20 05 28     	jsr	$2805 <printf>
    23be: a6 47        	ldx	$47                     ; 0x2047 <textPrint+0x65>
    23c0: bd 35 3a     	lda	$3a35,x                 ; 0x3a35 <sid_fields>
    23c3: 48           	pha
    23c4: bd 38 3a     	lda	$3a38,x                 ; 0x3a38 <sid_fields+0x3>
    23c7: aa           	tax
    23c8: 68           	pla
    23c9: e0 00        	cpx	#$0
    23cb: f0 04        	beq	$23d1 <updateValues+0x80>
    23cd: 0a           	asl
    23ce: 0a           	asl
    23cf: 0a           	asl
    23d0: 0a           	asl
    23d1: a6 44        	ldx	$44                     ; 0x2044 <textPrint+0x62>
    23d3: 86 15        	stx	$15                     ; 0x2015 <textPrint+0x33>
    23d5: a4 45        	ldy	$45                     ; 0x2045 <textPrint+0x63>
    23d7: be 36 3a     	ldx	$3a36,y                 ; 0x3a36 <sid_fields+0x1>
    23da: 48           	pha
    23db: b9 37 3a     	lda	$3a37,y                 ; 0x3a37 <sid_fields+0x2>
    23de: a8           	tay
    23df: 68           	pla
    23e0: 86 12        	stx	$12                     ; 0x2012 <textPrint+0x30>
    23e2: 84 13        	sty	$13                     ; 0x2013 <textPrint+0x31>
    23e4: 12 12        	ora	($12)                   ; 0x2012 <textPrint+0x30>
    23e6: 92 12        	sta	($12)                   ; 0x2012 <textPrint+0x30>
    23e8: a5 45        	lda	$45                     ; 0x2045 <textPrint+0x63>
    23ea: a6 45        	ldx	$45                     ; 0x2045 <textPrint+0x63>
    23ec: 9e 39 3a     	stz	$3a39,x                 ; 0x3a39 <sid_fields+0x4>
    23ef: a6 15        	ldx	$15                     ; 0x2015 <textPrint+0x33>
    23f1: 86 12        	stx	$12                     ; 0x2012 <textPrint+0x30>
    23f3: a4 46        	ldy	$46                     ; 0x2046 <textPrint+0x64>
    23f5: c8           	iny
    23f6: 18           	clc
    23f7: 69 07        	adc	#$7
    23f9: c9 70        	cmp	#$70
    23fb: f0 03        	beq	$2400 <updateValues+0xaf>
    23fd: 4c 73 23     	jmp	$2373 <updateValues+0x22>
    2400: a2 21        	ldx	#$21
    2402: 86 3f        	stx	$3f                     ; 0x203f <textPrint+0x5d>
    2404: 8e 14 d0     	stx	$d014                   ; 0xd014 <__heap_start+0x956e>
    2407: 9c 15 d0     	stz	$d015                   ; 0xd015 <__heap_start+0x956f>
    240a: a2 12        	ldx	#$12
    240c: 86 40        	stx	$40                     ; 0x2040 <textPrint+0x5e>
    240e: 8e 16 d0     	stx	$d016                   ; 0xd016 <__heap_start+0x9570>
    2411: 9c 17 d0     	stz	$d017                   ; 0xd017 <__heap_start+0x9571>
    2414: ae 58 3a     	ldx	$3a58                   ; 0x3a58 <sid_fields+0x23>
    2417: a0 23        	ldy	#$23
    2419: 84 12        	sty	$12                     ; 0x2012 <textPrint+0x30>
    241b: a0 38        	ldy	#$38
    241d: 84 13        	sty	$13                     ; 0x2013 <textPrint+0x31>
    241f: 8a           	txa
    2420: 10 08        	bpl	$242a <updateValues+0xd9>
    2422: a2 82        	ldx	#$82
    2424: 86 12        	stx	$12                     ; 0x2012 <textPrint+0x30>
    2426: a2 38        	ldx	#$38
    2428: 86 13        	stx	$13                     ; 0x2013 <textPrint+0x31>
    242a: 20 e2 1f     	jsr	$1fe2 <textPrint>
    242d: ad 97 3a     	lda	$3a97                   ; 0x3a97 <sid_fields+0x62>
    2430: 0a           	asl
    2431: 0a           	asl
    2432: 0a           	asl
    2433: 0a           	asl
    2434: 0d 9e 3a     	ora	$3a9e                   ; 0x3a9e <sid_fields+0x69>
    2437: 8d 02 d4     	sta	$d402                   ; 0xd402 <__heap_start+0x995c>
    243a: ae 90 3a     	ldx	$3a90                   ; 0x3a90 <sid_fields+0x5b>
    243d: 8e 03 d4     	stx	$d403                   ; 0xd403 <__heap_start+0x995d>
    2440: ad 74 3a     	lda	$3a74                   ; 0x3a74 <sid_fields+0x3f>
    2443: 0a           	asl
    2444: 0a           	asl
    2445: 0a           	asl
    2446: 0a           	asl
    2447: 0d 7b 3a     	ora	$3a7b                   ; 0x3a7b <sid_fields+0x46>
    244a: 8d 05 d4     	sta	$d405                   ; 0xd405 <__heap_start+0x995f>
    244d: ad 82 3a     	lda	$3a82                   ; 0x3a82 <sid_fields+0x4d>
    2450: 0a           	asl
    2451: 0a           	asl
    2452: 0a           	asl
    2453: 0a           	asl
    2454: 0d 89 3a     	ora	$3a89                   ; 0x3a89 <sid_fields+0x54>
    2457: 8d 06 d4     	sta	$d406                   ; 0xd406 <__heap_start+0x9960>
    245a: a9 0e        	lda	#$e
    245c: 2d 6d 3a     	and	$3a6d                   ; 0x3a6d <sid_fields+0x38>
    245f: 85 12        	sta	$12                     ; 0x2012 <textPrint+0x30>
    2461: ad 66 3a     	lda	$3a66                   ; 0x3a66 <sid_fields+0x31>
    2464: 0a           	asl
    2465: 0a           	asl
    2466: 0a           	asl
    2467: 0a           	asl
    2468: 05 12        	ora	$12                     ; 0x2012 <textPrint+0x30>
    246a: 8d 04 d4     	sta	$d404                   ; 0xd404 <__heap_start+0x995e>
    246d: ad 97 3a     	lda	$3a97                   ; 0x3a97 <sid_fields+0x62>
    2470: 0a           	asl
    2471: 0a           	asl
    2472: 0a           	asl
    2473: 0a           	asl
    2474: 0d 9e 3a     	ora	$3a9e                   ; 0x3a9e <sid_fields+0x69>
    2477: 8d 09 d4     	sta	$d409                   ; 0xd409 <__heap_start+0x9963>
    247a: ae 90 3a     	ldx	$3a90                   ; 0x3a90 <sid_fields+0x5b>
    247d: 8e 0a d4     	stx	$d40a                   ; 0xd40a <__heap_start+0x9964>
    2480: ad 74 3a     	lda	$3a74                   ; 0x3a74 <sid_fields+0x3f>
    2483: 0a           	asl
    2484: 0a           	asl
    2485: 0a           	asl
    2486: 0a           	asl
    2487: 0d 7b 3a     	ora	$3a7b                   ; 0x3a7b <sid_fields+0x46>
    248a: 8d 0c d4     	sta	$d40c                   ; 0xd40c <__heap_start+0x9966>
    248d: ad 82 3a     	lda	$3a82                   ; 0x3a82 <sid_fields+0x4d>
    2490: 0a           	asl
    2491: 0a           	asl
    2492: 0a           	asl
    2493: 0a           	asl
    2494: 0d 89 3a     	ora	$3a89                   ; 0x3a89 <sid_fields+0x54>
    2497: 8d 0d d4     	sta	$d40d                   ; 0xd40d <__heap_start+0x9967>
    249a: a9 0e        	lda	#$e
    249c: 2d 6d 3a     	and	$3a6d                   ; 0x3a6d <sid_fields+0x38>
    249f: 85 12        	sta	$12                     ; 0x2012 <textPrint+0x30>
    24a1: ad 66 3a     	lda	$3a66                   ; 0x3a66 <sid_fields+0x31>
    24a4: 0a           	asl
    24a5: 0a           	asl
    24a6: 0a           	asl
    24a7: 0a           	asl
    24a8: 05 12        	ora	$12                     ; 0x2012 <textPrint+0x30>
    24aa: 8d 0b d4     	sta	$d40b                   ; 0xd40b <__heap_start+0x9965>
    24ad: ad 97 3a     	lda	$3a97                   ; 0x3a97 <sid_fields+0x62>
    24b0: 0a           	asl
    24b1: 0a           	asl
    24b2: 0a           	asl
    24b3: 0a           	asl
    24b4: 0d 9e 3a     	ora	$3a9e                   ; 0x3a9e <sid_fields+0x69>
    24b7: 8d 10 d4     	sta	$d410                   ; 0xd410 <__heap_start+0x996a>
    24ba: ae 90 3a     	ldx	$3a90                   ; 0x3a90 <sid_fields+0x5b>
    24bd: 8e 11 d4     	stx	$d411                   ; 0xd411 <__heap_start+0x996b>
    24c0: ad 74 3a     	lda	$3a74                   ; 0x3a74 <sid_fields+0x3f>
    24c3: 0a           	asl
    24c4: 0a           	asl
    24c5: 0a           	asl
    24c6: 0a           	asl
    24c7: 0d 7b 3a     	ora	$3a7b                   ; 0x3a7b <sid_fields+0x46>
    24ca: 8d 13 d4     	sta	$d413                   ; 0xd413 <__heap_start+0x996d>
    24cd: ad 82 3a     	lda	$3a82                   ; 0x3a82 <sid_fields+0x4d>
    24d0: 0a           	asl
    24d1: 0a           	asl
    24d2: 0a           	asl
    24d3: 0a           	asl
    24d4: 0d 89 3a     	ora	$3a89                   ; 0x3a89 <sid_fields+0x54>
    24d7: 8d 14 d4     	sta	$d414                   ; 0xd414 <__heap_start+0x996e>
    24da: a9 0e        	lda	#$e
    24dc: 2d 6d 3a     	and	$3a6d                   ; 0x3a6d <sid_fields+0x38>
    24df: 85 12        	sta	$12                     ; 0x2012 <textPrint+0x30>
    24e1: ad 66 3a     	lda	$3a66                   ; 0x3a66 <sid_fields+0x31>
    24e4: 0a           	asl
    24e5: 0a           	asl
    24e6: 0a           	asl
    24e7: 0a           	asl
    24e8: 05 12        	ora	$12                     ; 0x2012 <textPrint+0x30>
    24ea: 8d 12 d4     	sta	$d412                   ; 0xd412 <__heap_start+0x996c>
    24ed: ad 97 3a     	lda	$3a97                   ; 0x3a97 <sid_fields+0x62>
    24f0: 0a           	asl
    24f1: 0a           	asl
    24f2: 0a           	asl
    24f3: 0a           	asl
    24f4: 0d 9e 3a     	ora	$3a9e                   ; 0x3a9e <sid_fields+0x69>
    24f7: 8d 02 d5     	sta	$d502                   ; 0xd502 <__heap_start+0x9a5c>
    24fa: ae 90 3a     	ldx	$3a90                   ; 0x3a90 <sid_fields+0x5b>
    24fd: 8e 03 d5     	stx	$d503                   ; 0xd503 <__heap_start+0x9a5d>
    2500: ad 74 3a     	lda	$3a74                   ; 0x3a74 <sid_fields+0x3f>
    2503: 0a           	asl
    2504: 0a           	asl
    2505: 0a           	asl
    2506: 0a           	asl
    2507: 0d 7b 3a     	ora	$3a7b                   ; 0x3a7b <sid_fields+0x46>
    250a: 8d 05 d5     	sta	$d505                   ; 0xd505 <__heap_start+0x9a5f>
    250d: ad 82 3a     	lda	$3a82                   ; 0x3a82 <sid_fields+0x4d>
    2510: 0a           	asl
    2511: 0a           	asl
    2512: 0a           	asl
    2513: 0a           	asl
    2514: 0d 89 3a     	ora	$3a89                   ; 0x3a89 <sid_fields+0x54>
    2517: 8d 06 d5     	sta	$d506                   ; 0xd506 <__heap_start+0x9a60>
    251a: a9 0e        	lda	#$e
    251c: 2d 6d 3a     	and	$3a6d                   ; 0x3a6d <sid_fields+0x38>
    251f: 85 12        	sta	$12                     ; 0x2012 <textPrint+0x30>
    2521: ad 66 3a     	lda	$3a66                   ; 0x3a66 <sid_fields+0x31>
    2524: 0a           	asl
    2525: 0a           	asl
    2526: 0a           	asl
    2527: 0a           	asl
    2528: 05 12        	ora	$12                     ; 0x2012 <textPrint+0x30>
    252a: 8d 04 d5     	sta	$d504                   ; 0xd504 <__heap_start+0x9a5e>
    252d: ad 97 3a     	lda	$3a97                   ; 0x3a97 <sid_fields+0x62>
    2530: 0a           	asl
    2531: 0a           	asl
    2532: 0a           	asl
    2533: 0a           	asl
    2534: 0d 9e 3a     	ora	$3a9e                   ; 0x3a9e <sid_fields+0x69>
    2537: 8d 09 d5     	sta	$d509                   ; 0xd509 <__heap_start+0x9a63>
    253a: ae 90 3a     	ldx	$3a90                   ; 0x3a90 <sid_fields+0x5b>
    253d: 8e 0a d5     	stx	$d50a                   ; 0xd50a <__heap_start+0x9a64>
    2540: ad 74 3a     	lda	$3a74                   ; 0x3a74 <sid_fields+0x3f>
    2543: 0a           	asl
    2544: 0a           	asl
    2545: 0a           	asl
    2546: 0a           	asl
    2547: 0d 7b 3a     	ora	$3a7b                   ; 0x3a7b <sid_fields+0x46>
    254a: 8d 0c d5     	sta	$d50c                   ; 0xd50c <__heap_start+0x9a66>
    254d: ad 82 3a     	lda	$3a82                   ; 0x3a82 <sid_fields+0x4d>
    2550: 0a           	asl
    2551: 0a           	asl
    2552: 0a           	asl
    2553: 0a           	asl
    2554: 0d 89 3a     	ora	$3a89                   ; 0x3a89 <sid_fields+0x54>
    2557: 8d 0d d5     	sta	$d50d                   ; 0xd50d <__heap_start+0x9a67>
    255a: a9 0e        	lda	#$e
    255c: 2d 6d 3a     	and	$3a6d                   ; 0x3a6d <sid_fields+0x38>
    255f: 85 12        	sta	$12                     ; 0x2012 <textPrint+0x30>
    2561: ad 66 3a     	lda	$3a66                   ; 0x3a66 <sid_fields+0x31>
    2564: 0a           	asl
    2565: 0a           	asl
    2566: 0a           	asl
    2567: 0a           	asl
    2568: 05 12        	ora	$12                     ; 0x2012 <textPrint+0x30>
    256a: 8d 0b d5     	sta	$d50b                   ; 0xd50b <__heap_start+0x9a65>
    256d: ad 97 3a     	lda	$3a97                   ; 0x3a97 <sid_fields+0x62>
    2570: 0a           	asl
    2571: 0a           	asl
    2572: 0a           	asl
    2573: 0a           	asl
    2574: 0d 9e 3a     	ora	$3a9e                   ; 0x3a9e <sid_fields+0x69>
    2577: 8d 10 d5     	sta	$d510                   ; 0xd510 <__heap_start+0x9a6a>
    257a: ae 90 3a     	ldx	$3a90                   ; 0x3a90 <sid_fields+0x5b>
    257d: 8e 11 d5     	stx	$d511                   ; 0xd511 <__heap_start+0x9a6b>
    2580: ad 74 3a     	lda	$3a74                   ; 0x3a74 <sid_fields+0x3f>
    2583: 0a           	asl
    2584: 0a           	asl
    2585: 0a           	asl
    2586: 0a           	asl
    2587: 0d 7b 3a     	ora	$3a7b                   ; 0x3a7b <sid_fields+0x46>
    258a: 8d 13 d5     	sta	$d513                   ; 0xd513 <__heap_start+0x9a6d>
    258d: ad 82 3a     	lda	$3a82                   ; 0x3a82 <sid_fields+0x4d>
    2590: 0a           	asl
    2591: 0a           	asl
    2592: 0a           	asl
    2593: 0a           	asl
    2594: 0d 89 3a     	ora	$3a89                   ; 0x3a89 <sid_fields+0x54>
    2597: 8d 14 d5     	sta	$d514                   ; 0xd514 <__heap_start+0x9a6e>
    259a: a9 0e        	lda	#$e
    259c: 2d 6d 3a     	and	$3a6d                   ; 0x3a6d <sid_fields+0x38>
    259f: 85 12        	sta	$12                     ; 0x2012 <textPrint+0x30>
    25a1: ad 66 3a     	lda	$3a66                   ; 0x3a66 <sid_fields+0x31>
    25a4: 0a           	asl
    25a5: 0a           	asl
    25a6: 0a           	asl
    25a7: 0a           	asl
    25a8: 05 12        	ora	$12                     ; 0x2012 <textPrint+0x30>
    25aa: 8d 12 d5     	sta	$d512                   ; 0xd512 <__heap_start+0x9a6c>
    25ad: a9 07        	lda	#$7
    25af: 2d 43 3a     	and	$3a43                   ; 0x3a43 <sid_fields+0xe>
    25b2: 8d 14 d4     	sta	$d414                   ; 0xd414 <__heap_start+0x996e>
    25b5: ad 35 3a     	lda	$3a35                   ; 0x3a35 <sid_fields>
    25b8: 0a           	asl
    25b9: 0a           	asl
    25ba: 0a           	asl
    25bb: 0a           	asl
    25bc: 0d 3c 3a     	ora	$3a3c                   ; 0x3a3c <sid_fields+0x7>
    25bf: 8d 15 d4     	sta	$d415                   ; 0xd415 <__heap_start+0x996f>
    25c2: ad 4a 3a     	lda	$3a4a                   ; 0x3a4a <sid_fields+0x15>
    25c5: 0a           	asl
    25c6: 0a           	asl
    25c7: 0a           	asl
    25c8: 0a           	asl
    25c9: 0d 51 3a     	ora	$3a51                   ; 0x3a51 <sid_fields+0x1c>
    25cc: 8d 17 d4     	sta	$d417                   ; 0xd417 <__heap_start+0x9971>
    25cf: ad 58 3a     	lda	$3a58                   ; 0x3a58 <sid_fields+0x23>
    25d2: 0a           	asl
    25d3: 0a           	asl
    25d4: 0a           	asl
    25d5: 0a           	asl
    25d6: 0d 5f 3a     	ora	$3a5f                   ; 0x3a5f <sid_fields+0x2a>
    25d9: 8d 18 d4     	sta	$d418                   ; 0xd418 <__heap_start+0x9972>
    25dc: a9 07        	lda	#$7
    25de: 2d 43 3a     	and	$3a43                   ; 0x3a43 <sid_fields+0xe>
    25e1: 8d 14 d5     	sta	$d514                   ; 0xd514 <__heap_start+0x9a6e>
    25e4: ad 35 3a     	lda	$3a35                   ; 0x3a35 <sid_fields>
    25e7: 0a           	asl
    25e8: 0a           	asl
    25e9: 0a           	asl
    25ea: 0a           	asl
    25eb: 0d 3c 3a     	ora	$3a3c                   ; 0x3a3c <sid_fields+0x7>
    25ee: 8d 15 d5     	sta	$d515                   ; 0xd515 <__heap_start+0x9a6f>
    25f1: ad 4a 3a     	lda	$3a4a                   ; 0x3a4a <sid_fields+0x15>
    25f4: 0a           	asl
    25f5: 0a           	asl
    25f6: 0a           	asl
    25f7: 0a           	asl
    25f8: 0d 51 3a     	ora	$3a51                   ; 0x3a51 <sid_fields+0x1c>
    25fb: 8d 17 d5     	sta	$d517                   ; 0xd517 <__heap_start+0x9a71>
    25fe: ad 58 3a     	lda	$3a58                   ; 0x3a58 <sid_fields+0x23>
    2601: 0a           	asl
    2602: 0a           	asl
    2603: 0a           	asl
    2604: 0a           	asl
    2605: 0d 5f 3a     	ora	$3a5f                   ; 0x3a5f <sid_fields+0x2a>
    2608: 8d 18 d5     	sta	$d518                   ; 0xd518 <__heap_start+0x9a72>
    260b: 18           	clc
    260c: a5 10        	lda	$10                     ; 0x2010 <textPrint+0x2e>
    260e: 69 02        	adc	#$2
    2610: 85 10        	sta	$10                     ; 0x2010 <textPrint+0x2e>
    2612: a5 11        	lda	$11                     ; 0x2011 <textPrint+0x2f>
    2614: 69 00        	adc	#$0
    2616: 85 11        	sta	$11                     ; 0x2011 <textPrint+0x2f>
    2618: 60           	rts

00002619 <exit>:
    2619: 20 18 03     	jsr	$318 <_fini>
    261c: 80 fe        	bra	$261c <exit+0x3>

0000261e <_ZN12_GLOBAL__N_13putEcP6Status>:
    261e: 85 18        	sta	$18                     ; 0x2018 <textPrint+0x36>
    2620: a6 13        	ldx	$13                     ; 0x2013 <textPrint+0x31>
    2622: 18           	clc
    2623: a5 12        	lda	$12                     ; 0x2012 <textPrint+0x30>
    2625: 69 05        	adc	#$5
    2627: a8           	tay
    2628: a5 13        	lda	$13                     ; 0x2013 <textPrint+0x31>
    262a: 86 15        	stx	$15                     ; 0x2015 <textPrint+0x33>
    262c: 69 00        	adc	#$0
    262e: 18           	clc
    262f: 84 16        	sty	$16                     ; 0x2016 <textPrint+0x34>
    2631: a0 05        	ldy	#$5
    2633: 85 17        	sta	$17                     ; 0x2017 <textPrint+0x35>
    2635: b1 12        	lda	($12),y                 ; 0x2012 <textPrint+0x30>
    2637: aa           	tax
    2638: a5 12        	lda	$12                     ; 0x2012 <textPrint+0x30>
    263a: 69 03        	adc	#$3
    263c: 85 14        	sta	$14                     ; 0x2014 <textPrint+0x32>
    263e: a5 15        	lda	$15                     ; 0x2015 <textPrint+0x33>
    2640: 69 00        	adc	#$0
    2642: 85 15        	sta	$15                     ; 0x2015 <textPrint+0x33>
    2644: a0 01        	ldy	#$1
    2646: b1 16        	lda	($16),y                 ; 0x2016 <textPrint+0x34>
    2648: d1 14        	cmp	($14),y                 ; 0x2014 <textPrint+0x32>
    264a: d0 11        	bne	$265d <_ZN12_GLOBAL__N_13putEcP6Status+0x3f>
    264c: a0 03        	ldy	#$3
    264e: 85 17        	sta	$17                     ; 0x2017 <textPrint+0x35>
    2650: b1 12        	lda	($12),y                 ; 0x2012 <textPrint+0x30>
    2652: 85 14        	sta	$14                     ; 0x2014 <textPrint+0x32>
    2654: 86 16        	stx	$16                     ; 0x2016 <textPrint+0x34>
    2656: e4 14        	cpx	$14                     ; 0x2014 <textPrint+0x32>
    2658: 90 0e        	bcc	$2668 <_ZN12_GLOBAL__N_13putEcP6Status+0x4a>
    265a: 4c d1 26     	jmp	$26d1 <_ZN12_GLOBAL__N_13putEcP6Status+0xb3>
    265d: 86 16        	stx	$16                     ; 0x2016 <textPrint+0x34>
    265f: d1 14        	cmp	($14),y                 ; 0x2014 <textPrint+0x32>
    2661: 85 17        	sta	$17                     ; 0x2017 <textPrint+0x35>
    2663: 90 03        	bcc	$2668 <_ZN12_GLOBAL__N_13putEcP6Status+0x4a>
    2665: 4c d1 26     	jmp	$26d1 <_ZN12_GLOBAL__N_13putEcP6Status+0xb3>
    2668: a5 12        	lda	$12                     ; 0x2012 <textPrint+0x30>
    266a: 18           	clc
    266b: 69 0f        	adc	#$f
    266d: 85 14        	sta	$14                     ; 0x2014 <textPrint+0x32>
    266f: a5 13        	lda	$13                     ; 0x2013 <textPrint+0x31>
    2671: 69 00        	adc	#$0
    2673: 85 15        	sta	$15                     ; 0x2015 <textPrint+0x33>
    2675: a0 01        	ldy	#$1
    2677: b1 14        	lda	($14),y                 ; 0x2014 <textPrint+0x32>
    2679: a2 00        	ldx	#$0
    267b: 86 14        	stx	$14                     ; 0x2014 <textPrint+0x32>
    267d: a2 00        	ldx	#$0
    267f: 86 15        	stx	$15                     ; 0x2015 <textPrint+0x33>
    2681: c5 15        	cmp	$15                     ; 0x2015 <textPrint+0x33>
    2683: d0 2d        	bne	$26b2 <_ZN12_GLOBAL__N_13putEcP6Status+0x94>
    2685: a0 0f        	ldy	#$f
    2687: b1 12        	lda	($12),y                 ; 0x2012 <textPrint+0x30>
    2689: c5 14        	cmp	$14                     ; 0x2014 <textPrint+0x32>
    268b: d0 25        	bne	$26b2 <_ZN12_GLOBAL__N_13putEcP6Status+0x94>
    268d: a5 12        	lda	$12                     ; 0x2012 <textPrint+0x30>
    268f: 18           	clc
    2690: 69 09        	adc	#$9
    2692: 85 14        	sta	$14                     ; 0x2014 <textPrint+0x32>
    2694: a5 13        	lda	$13                     ; 0x2013 <textPrint+0x31>
    2696: 69 00        	adc	#$0
    2698: a0 09        	ldy	#$9
    269a: 85 15        	sta	$15                     ; 0x2015 <textPrint+0x33>
    269c: 18           	clc
    269d: a5 16        	lda	$16                     ; 0x2016 <textPrint+0x34>
    269f: 71 12        	adc	($12),y                 ; 0x2012 <textPrint+0x30>
    26a1: aa           	tax
    26a2: a0 01        	ldy	#$1
    26a4: a5 17        	lda	$17                     ; 0x2017 <textPrint+0x35>
    26a6: 71 14        	adc	($14),y                 ; 0x2014 <textPrint+0x32>
    26a8: 86 14        	stx	$14                     ; 0x2014 <textPrint+0x32>
    26aa: 85 15        	sta	$15                     ; 0x2015 <textPrint+0x33>
    26ac: a5 18        	lda	$18                     ; 0x2018 <textPrint+0x36>
    26ae: 92 14        	sta	($14)                   ; 0x2014 <textPrint+0x32>
    26b0: 80 1f        	bra	$26d1 <_ZN12_GLOBAL__N_13putEcP6Status+0xb3>
    26b2: a6 12        	ldx	$12                     ; 0x2012 <textPrint+0x30>
    26b4: 86 9d        	stx	$9d                     ; 0x209d <textPrint+0xbb>
    26b6: a6 13        	ldx	$13                     ; 0x2013 <textPrint+0x31>
    26b8: 86 9e        	stx	$9e                     ; 0x209e <textPrint+0xbc>
    26ba: a5 18        	lda	$18                     ; 0x2018 <textPrint+0x36>
    26bc: 85 41        	sta	$41                     ; 0x2041 <textPrint+0x5f>
    26be: a2 41        	ldx	#$41
    26c0: 86 12        	stx	$12                     ; 0x2012 <textPrint+0x30>
    26c2: a2 00        	ldx	#$0
    26c4: 86 13        	stx	$13                     ; 0x2013 <textPrint+0x31>
    26c6: 20 e2 1f     	jsr	$1fe2 <textPrint>
    26c9: a6 9d        	ldx	$9d                     ; 0x209d <textPrint+0xbb>
    26cb: 86 12        	stx	$12                     ; 0x2012 <textPrint+0x30>
    26cd: a6 9e        	ldx	$9e                     ; 0x209e <textPrint+0xbc>
    26cf: 86 13        	stx	$13                     ; 0x2013 <textPrint+0x31>
    26d1: a0 05        	ldy	#$5
    26d3: a5 12        	lda	$12                     ; 0x2012 <textPrint+0x30>
    26d5: 18           	clc
    26d6: 69 05        	adc	#$5
    26d8: 85 14        	sta	$14                     ; 0x2014 <textPrint+0x32>
    26da: a5 13        	lda	$13                     ; 0x2013 <textPrint+0x31>
    26dc: 69 00        	adc	#$0
    26de: 85 15        	sta	$15                     ; 0x2015 <textPrint+0x33>
    26e0: b1 12        	lda	($12),y                 ; 0x2012 <textPrint+0x30>
    26e2: aa           	tax
    26e3: a0 01        	ldy	#$1
    26e5: b1 14        	lda	($14),y                 ; 0x2014 <textPrint+0x32>
    26e7: e8           	inx
    26e8: d0 01        	bne	$26eb <_ZN12_GLOBAL__N_13putEcP6Status+0xcd>
    26ea: 1a           	inc
    26eb: 85 16        	sta	$16                     ; 0x2016 <textPrint+0x34>
    26ed: 8a           	txa
    26ee: a0 05        	ldy	#$5
    26f0: 91 12        	sta	($12),y                 ; 0x2012 <textPrint+0x30>
    26f2: a0 01        	ldy	#$1
    26f4: a5 16        	lda	$16                     ; 0x2016 <textPrint+0x34>
    26f6: 91 14        	sta	($14),y                 ; 0x2014 <textPrint+0x32>
    26f8: 60           	rts

000026f9 <_ZN12_GLOBAL__N_112print_stringEPKcP6Status>:
    26f9: a6 12        	ldx	$12                     ; 0x2012 <textPrint+0x30>
    26fb: 86 95        	stx	$95                     ; 0x2095 <textPrint+0xb3>
    26fd: a6 13        	ldx	$13                     ; 0x2013 <textPrint+0x31>
    26ff: 86 96        	stx	$96                     ; 0x2096 <textPrint+0xb4>
    2701: a6 14        	ldx	$14                     ; 0x2014 <textPrint+0x32>
    2703: 86 97        	stx	$97                     ; 0x2097 <textPrint+0xb5>
    2705: a6 15        	ldx	$15                     ; 0x2015 <textPrint+0x33>
    2707: 86 98        	stx	$98                     ; 0x2098 <textPrint+0xb6>
    2709: a5 97        	lda	$97                     ; 0x2097 <textPrint+0xb5>
    270b: 18           	clc
    270c: 69 0d        	adc	#$d
    270e: 85 12        	sta	$12                     ; 0x2012 <textPrint+0x30>
    2710: a5 98        	lda	$98                     ; 0x2098 <textPrint+0xb6>
    2712: 69 00        	adc	#$0
    2714: 85 13        	sta	$13                     ; 0x2013 <textPrint+0x31>
    2716: a0 01        	ldy	#$1
    2718: b1 12        	lda	($12),y                 ; 0x2012 <textPrint+0x30>
    271a: 30 16        	bmi	$2732 <_ZN12_GLOBAL__N_112print_stringEPKcP6Status+0x39>
    271c: a0 0d        	ldy	#$d
    271e: 85 12        	sta	$12                     ; 0x2012 <textPrint+0x30>
    2720: b1 97        	lda	($97),y                 ; 0x2097 <textPrint+0xb5>
    2722: a6 12        	ldx	$12                     ; 0x2012 <textPrint+0x30>
    2724: 86 9c        	stx	$9c                     ; 0x209c <textPrint+0xba>
    2726: d0 0f        	bne	$2737 <_ZN12_GLOBAL__N_112print_stringEPKcP6Status+0x3e>
    2728: aa           	tax
    2729: d0 0c        	bne	$2737 <_ZN12_GLOBAL__N_112print_stringEPKcP6Status+0x3e>
    272b: 64 99        	stz	$99                     ; 0x2099 <textPrint+0xb7>
    272d: a2 00        	ldx	#$0
    272f: 4c 00 28     	jmp	$2800 <_ZN12_GLOBAL__N_112print_stringEPKcP6Status+0x107>
    2732: a9 ff        	lda	#$ff
    2734: aa           	tax
    2735: 86 9c        	stx	$9c                     ; 0x209c <textPrint+0xba>
    2737: 85 99        	sta	$99                     ; 0x2099 <textPrint+0xb7>
    2739: 64 12        	stz	$12                     ; 0x2012 <textPrint+0x30>
    273b: a4 95        	ldy	$95                     ; 0x2095 <textPrint+0xb3>
    273d: a6 96        	ldx	$96                     ; 0x2096 <textPrint+0xb4>
    273f: 86 16        	stx	$16                     ; 0x2016 <textPrint+0x34>
    2741: 64 13        	stz	$13                     ; 0x2013 <textPrint+0x31>
    2743: 98           	tya
    2744: 18           	clc
    2745: 65 12        	adc	$12                     ; 0x2012 <textPrint+0x30>
    2747: 85 14        	sta	$14                     ; 0x2014 <textPrint+0x32>
    2749: a5 96        	lda	$96                     ; 0x2096 <textPrint+0xb4>
    274b: 65 13        	adc	$13                     ; 0x2013 <textPrint+0x31>
    274d: 85 15        	sta	$15                     ; 0x2015 <textPrint+0x33>
    274f: b2 14        	lda	($14)                   ; 0x2014 <textPrint+0x32>
    2751: d0 03        	bne	$2756 <_ZN12_GLOBAL__N_112print_stringEPKcP6Status+0x5d>
    2753: 4c fa 27     	jmp	$27fa <_ZN12_GLOBAL__N_112print_stringEPKcP6Status+0x101>
    2756: e6 12        	inc	$12                     ; 0x2012 <textPrint+0x30>
    2758: d0 02        	bne	$275c <_ZN12_GLOBAL__N_112print_stringEPKcP6Status+0x63>
    275a: e6 13        	inc	$13                     ; 0x2013 <textPrint+0x31>
    275c: a6 9c        	ldx	$9c                     ; 0x209c <textPrint+0xba>
    275e: e4 13        	cpx	$13                     ; 0x2013 <textPrint+0x31>
    2760: d0 e1        	bne	$2743 <_ZN12_GLOBAL__N_112print_stringEPKcP6Status+0x4a>
    2762: a6 99        	ldx	$99                     ; 0x2099 <textPrint+0xb7>
    2764: e4 12        	cpx	$12                     ; 0x2012 <textPrint+0x30>
    2766: d0 db        	bne	$2743 <_ZN12_GLOBAL__N_112print_stringEPKcP6Status+0x4a>
    2768: a0 01        	ldy	#$1
    276a: b1 97        	lda	($97),y                 ; 0x2097 <textPrint+0xb5>
    276c: 29 01        	and	#$1
    276e: f0 03        	beq	$2773 <_ZN12_GLOBAL__N_112print_stringEPKcP6Status+0x7a>
    2770: 4c cb 27     	jmp	$27cb <_ZN12_GLOBAL__N_112print_stringEPKcP6Status+0xd2>
    2773: a5 97        	lda	$97                     ; 0x2097 <textPrint+0xb5>
    2775: 18           	clc
    2776: 69 0b        	adc	#$b
    2778: 85 14        	sta	$14                     ; 0x2014 <textPrint+0x32>
    277a: a5 98        	lda	$98                     ; 0x2098 <textPrint+0xb6>
    277c: 69 00        	adc	#$0
    277e: 85 15        	sta	$15                     ; 0x2015 <textPrint+0x33>
    2780: a0 0b        	ldy	#$b
    2782: b1 97        	lda	($97),y                 ; 0x2097 <textPrint+0xb5>
    2784: 85 13        	sta	$13                     ; 0x2013 <textPrint+0x31>
    2786: a0 01        	ldy	#$1
    2788: b1 14        	lda	($14),y                 ; 0x2014 <textPrint+0x32>
    278a: 85 12        	sta	$12                     ; 0x2012 <textPrint+0x30>
    278c: a6 9c        	ldx	$9c                     ; 0x209c <textPrint+0xba>
    278e: e4 12        	cpx	$12                     ; 0x2012 <textPrint+0x30>
    2790: d0 08        	bne	$279a <_ZN12_GLOBAL__N_112print_stringEPKcP6Status+0xa1>
    2792: a6 99        	ldx	$99                     ; 0x2099 <textPrint+0xb7>
    2794: e4 13        	cpx	$13                     ; 0x2013 <textPrint+0x31>
    2796: 90 06        	bcc	$279e <_ZN12_GLOBAL__N_112print_stringEPKcP6Status+0xa5>
    2798: 80 31        	bra	$27cb <_ZN12_GLOBAL__N_112print_stringEPKcP6Status+0xd2>
    279a: e4 12        	cpx	$12                     ; 0x2012 <textPrint+0x30>
    279c: b0 2d        	bcs	$27cb <_ZN12_GLOBAL__N_112print_stringEPKcP6Status+0xd2>
    279e: 38           	sec
    279f: a5 99        	lda	$99                     ; 0x2099 <textPrint+0xb7>
    27a1: e5 13        	sbc	$13                     ; 0x2013 <textPrint+0x31>
    27a3: a8           	tay
    27a4: a5 9c        	lda	$9c                     ; 0x209c <textPrint+0xba>
    27a6: e5 12        	sbc	$12                     ; 0x2012 <textPrint+0x30>
    27a8: 85 9b        	sta	$9b                     ; 0x209b <textPrint+0xb9>
    27aa: a6 97        	ldx	$97                     ; 0x2097 <textPrint+0xb5>
    27ac: 86 12        	stx	$12                     ; 0x2012 <textPrint+0x30>
    27ae: a6 98        	ldx	$98                     ; 0x2098 <textPrint+0xb6>
    27b0: 86 13        	stx	$13                     ; 0x2013 <textPrint+0x31>
    27b2: 84 9a        	sty	$9a                     ; 0x209a <textPrint+0xb8>
    27b4: a9 20        	lda	#$20
    27b6: 20 1e 26     	jsr	$261e <_ZN12_GLOBAL__N_13putEcP6Status>
    27b9: a6 9b        	ldx	$9b                     ; 0x209b <textPrint+0xb9>
    27bb: e6 9a        	inc	$9a                     ; 0x209a <textPrint+0xb8>
    27bd: d0 01        	bne	$27c0 <_ZN12_GLOBAL__N_112print_stringEPKcP6Status+0xc7>
    27bf: e8           	inx
    27c0: 86 9b        	stx	$9b                     ; 0x209b <textPrint+0xb9>
    27c2: a4 9a        	ldy	$9a                     ; 0x209a <textPrint+0xb8>
    27c4: 8a           	txa
    27c5: d0 e3        	bne	$27aa <_ZN12_GLOBAL__N_112print_stringEPKcP6Status+0xb1>
    27c7: a5 9a        	lda	$9a                     ; 0x209a <textPrint+0xb8>
    27c9: d0 df        	bne	$27aa <_ZN12_GLOBAL__N_112print_stringEPKcP6Status+0xb1>
    27cb: a4 9c        	ldy	$9c                     ; 0x209c <textPrint+0xba>
    27cd: d0 04        	bne	$27d3 <_ZN12_GLOBAL__N_112print_stringEPKcP6Status+0xda>
    27cf: a5 99        	lda	$99                     ; 0x2099 <textPrint+0xb7>
    27d1: f0 26        	beq	$27f9 <_ZN12_GLOBAL__N_112print_stringEPKcP6Status+0x100>
    27d3: a2 ff        	ldx	#$ff
    27d5: c6 99        	dec	$99                     ; 0x2099 <textPrint+0xb7>
    27d7: e4 99        	cpx	$99                     ; 0x2099 <textPrint+0xb7>
    27d9: d0 01        	bne	$27dc <_ZN12_GLOBAL__N_112print_stringEPKcP6Status+0xe3>
    27db: 88           	dey
    27dc: 84 9a        	sty	$9a                     ; 0x209a <textPrint+0xb8>
    27de: b2 95        	lda	($95)                   ; 0x2095 <textPrint+0xb3>
    27e0: e6 95        	inc	$95                     ; 0x2095 <textPrint+0xb3>
    27e2: d0 02        	bne	$27e6 <_ZN12_GLOBAL__N_112print_stringEPKcP6Status+0xed>
    27e4: e6 96        	inc	$96                     ; 0x2096 <textPrint+0xb4>
    27e6: a6 97        	ldx	$97                     ; 0x2097 <textPrint+0xb5>
    27e8: 86 12        	stx	$12                     ; 0x2012 <textPrint+0x30>
    27ea: a6 98        	ldx	$98                     ; 0x2098 <textPrint+0xb6>
    27ec: 86 13        	stx	$13                     ; 0x2013 <textPrint+0x31>
    27ee: 20 1e 26     	jsr	$261e <_ZN12_GLOBAL__N_13putEcP6Status>
    27f1: a4 9a        	ldy	$9a                     ; 0x209a <textPrint+0xb8>
    27f3: d0 de        	bne	$27d3 <_ZN12_GLOBAL__N_112print_stringEPKcP6Status+0xda>
    27f5: a5 99        	lda	$99                     ; 0x2099 <textPrint+0xb7>
    27f7: d0 da        	bne	$27d3 <_ZN12_GLOBAL__N_112print_stringEPKcP6Status+0xda>
    27f9: 60           	rts
    27fa: a6 12        	ldx	$12                     ; 0x2012 <textPrint+0x30>
    27fc: 86 99        	stx	$99                     ; 0x2099 <textPrint+0xb7>
    27fe: a6 13        	ldx	$13                     ; 0x2013 <textPrint+0x31>
    2800: 86 9c        	stx	$9c                     ; 0x209c <textPrint+0xba>
    2802: 4c 68 27     	jmp	$2768 <_ZN12_GLOBAL__N_112print_stringEPKcP6Status+0x6f>

00002805 <printf>:
    2805: a6 12        	ldx	$12                     ; 0x2012 <textPrint+0x30>
    2807: 86 4a        	stx	$4a                     ; 0x204a <textPrint+0x68>
    2809: a6 13        	ldx	$13                     ; 0x2013 <textPrint+0x31>
    280b: 86 4b        	stx	$4b                     ; 0x204b <textPrint+0x69>
    280d: 18           	clc
    280e: a6 10        	ldx	$10                     ; 0x2010 <textPrint+0x2e>
    2810: a4 11        	ldy	$11                     ; 0x2011 <textPrint+0x2f>
    2812: 86 8b        	stx	$8b                     ; 0x208b <textPrint+0xa9>
    2814: 84 8c        	sty	$8c                     ; 0x208c <textPrint+0xaa>
    2816: a6 8b        	ldx	$8b                     ; 0x208b <textPrint+0xa9>
    2818: a4 8c        	ldy	$8c                     ; 0x208c <textPrint+0xaa>
    281a: 86 76        	stx	$76                     ; 0x2076 <textPrint+0x94>
    281c: 84 77        	sty	$77                     ; 0x2077 <textPrint+0x95>
    281e: a2 ff        	ldx	#$ff
    2820: 86 7b        	stx	$7b                     ; 0x207b <textPrint+0x99>
    2822: 86 7c        	stx	$7c                     ; 0x207c <textPrint+0x9a>
    2824: 64 7d        	stz	$7d                     ; 0x207d <textPrint+0x9b>
    2826: 64 7e        	stz	$7e                     ; 0x207e <textPrint+0x9c>
    2828: e8           	inx
    2829: 86 4c        	stx	$4c                     ; 0x204c <textPrint+0x6a>
    282b: a2 00        	ldx	#$0
    282d: 86 4d        	stx	$4d                     ; 0x204d <textPrint+0x6b>
    282f: a6 4c        	ldx	$4c                     ; 0x204c <textPrint+0x6a>
    2831: a4 4d        	ldy	$4d                     ; 0x204d <textPrint+0x6b>
    2833: 86 81        	stx	$81                     ; 0x2081 <textPrint+0x9f>
    2835: 84 82        	sty	$82                     ; 0x2082 <textPrint+0xa0>
    2837: a2 02        	ldx	#$2
    2839: 86 87        	stx	$87                     ; 0x2087 <textPrint+0xa5>
    283b: 64 88        	stz	$88                     ; 0x2088 <textPrint+0xa6>
    283d: a6 76        	ldx	$76                     ; 0x2076 <textPrint+0x94>
    283f: a4 77        	ldy	$77                     ; 0x2077 <textPrint+0x95>
    2841: 86 89        	stx	$89                     ; 0x2089 <textPrint+0xa7>
    2843: 84 8a        	sty	$8a                     ; 0x208a <textPrint+0xa8>
    2845: a2 6d        	ldx	#$6d
    2847: a0 00        	ldy	#$0
    2849: 86 12        	stx	$12                     ; 0x2012 <textPrint+0x30>
    284b: 84 13        	sty	$13                     ; 0x2013 <textPrint+0x31>
    284d: a0 01        	ldy	#$1
    284f: a9 54        	lda	#$54
    2851: 18           	clc
    2852: 69 02        	adc	#$2
    2854: 85 93        	sta	$93                     ; 0x2093 <textPrint+0xb1>
    2856: a9 00        	lda	#$0
    2858: 69 00        	adc	#$0
    285a: 85 94        	sta	$94                     ; 0x2094 <textPrint+0xb2>
    285c: e6 12        	inc	$12                     ; 0x2012 <textPrint+0x30>
    285e: d0 02        	bne	$2862 <printf+0x5d>
    2860: e6 13        	inc	$13                     ; 0x2013 <textPrint+0x31>
    2862: a6 12        	ldx	$12                     ; 0x2012 <textPrint+0x30>
    2864: 86 8f        	stx	$8f                     ; 0x208f <textPrint+0xad>
    2866: a6 13        	ldx	$13                     ; 0x2013 <textPrint+0x31>
    2868: 86 90        	stx	$90                     ; 0x2090 <textPrint+0xae>
    286a: a6 4a        	ldx	$4a                     ; 0x204a <textPrint+0x68>
    286c: 86 4e        	stx	$4e                     ; 0x204e <textPrint+0x6c>
    286e: a6 4b        	ldx	$4b                     ; 0x204b <textPrint+0x69>
    2870: 86 4f        	stx	$4f                     ; 0x204f <textPrint+0x6d>
    2872: b2 4a        	lda	($4a)                   ; 0x204a <textPrint+0x68>
    2874: c9 25        	cmp	#$25
    2876: f0 2b        	beq	$28a3 <printf+0x9e>
    2878: aa           	tax
    2879: d0 03        	bne	$287e <printf+0x79>
    287b: 4c 30 34     	jmp	$3430 <printf+0xc2b>
    287e: 85 41        	sta	$41                     ; 0x2041 <textPrint+0x5f>
    2880: a2 41        	ldx	#$41
    2882: 86 12        	stx	$12                     ; 0x2012 <textPrint+0x30>
    2884: a2 00        	ldx	#$0
    2886: 86 13        	stx	$13                     ; 0x2013 <textPrint+0x31>
    2888: 20 e2 1f     	jsr	$1fe2 <textPrint>
    288b: a0 01        	ldy	#$1
    288d: e6 4e        	inc	$4e                     ; 0x204e <textPrint+0x6c>
    288f: d0 02        	bne	$2893 <printf+0x8e>
    2891: e6 4f        	inc	$4f                     ; 0x204f <textPrint+0x6d>
    2893: e6 7d        	inc	$7d                     ; 0x207d <textPrint+0x9b>
    2895: d0 02        	bne	$2899 <printf+0x94>
    2897: e6 7e        	inc	$7e                     ; 0x207e <textPrint+0x9c>
    2899: a6 4e        	ldx	$4e                     ; 0x204e <textPrint+0x6c>
    289b: 86 4a        	stx	$4a                     ; 0x204a <textPrint+0x68>
    289d: a6 4f        	ldx	$4f                     ; 0x204f <textPrint+0x6d>
    289f: 86 4b        	stx	$4b                     ; 0x204b <textPrint+0x69>
    28a1: 80 c7        	bra	$286a <printf+0x65>
    28a3: a6 4a        	ldx	$4a                     ; 0x204a <textPrint+0x68>
    28a5: 86 12        	stx	$12                     ; 0x2012 <textPrint+0x30>
    28a7: a6 4b        	ldx	$4b                     ; 0x204b <textPrint+0x69>
    28a9: 86 13        	stx	$13                     ; 0x2013 <textPrint+0x31>
    28ab: e6 12        	inc	$12                     ; 0x2012 <textPrint+0x30>
    28ad: d0 02        	bne	$28b1 <printf+0xac>
    28af: e6 13        	inc	$13                     ; 0x2013 <textPrint+0x31>
    28b1: b1 4e        	lda	($4e),y                 ; 0x204e <textPrint+0x6c>
    28b3: c9 25        	cmp	#$25
    28b5: d0 16        	bne	$28cd <printf+0xc8>
    28b7: a4 7d        	ldy	$7d                     ; 0x207d <textPrint+0x9b>
    28b9: a5 7e        	lda	$7e                     ; 0x207e <textPrint+0x9c>
    28bb: c5 7c        	cmp	$7c                     ; 0x207c <textPrint+0x9a>
    28bd: f0 03        	beq	$28c2 <printf+0xbd>
    28bf: 4c d4 29     	jmp	$29d4 <printf+0x1cf>
    28c2: a6 7b        	ldx	$7b                     ; 0x207b <textPrint+0x99>
    28c4: 86 12        	stx	$12                     ; 0x2012 <textPrint+0x30>
    28c6: 84 13        	sty	$13                     ; 0x2013 <textPrint+0x31>
    28c8: c4 12        	cpy	$12                     ; 0x2012 <textPrint+0x30>
    28ca: 4c d8 29     	jmp	$29d8 <printf+0x1d3>
    28cd: 64 79        	stz	$79                     ; 0x2079 <textPrint+0x97>
    28cf: 64 7a        	stz	$7a                     ; 0x207a <textPrint+0x98>
    28d1: 64 78        	stz	$78                     ; 0x2078 <textPrint+0x96>
    28d3: 64 83        	stz	$83                     ; 0x2083 <textPrint+0xa1>
    28d5: 64 84        	stz	$84                     ; 0x2084 <textPrint+0xa2>
    28d7: a2 ff        	ldx	#$ff
    28d9: 86 85        	stx	$85                     ; 0x2085 <textPrint+0xa3>
    28db: 86 86        	stx	$86                     ; 0x2086 <textPrint+0xa4>
    28dd: 64 49        	stz	$49                     ; 0x2049 <textPrint+0x67>
    28df: 80 33        	bra	$2914 <printf+0x10f>
    28e1: a2 02        	ldx	#$2
    28e3: 80 15        	bra	$28fa <printf+0xf5>
    28e5: e0 20        	cpx	#$20
    28e7: f0 15        	beq	$28fe <printf+0xf9>
    28e9: 86 15        	stx	$15                     ; 0x2015 <textPrint+0x33>
    28eb: e0 23        	cpx	#$23
    28ed: f0 03        	beq	$28f2 <printf+0xed>
    28ef: 4c 71 29     	jmp	$2971 <printf+0x16c>
    28f2: a5 49        	lda	$49                     ; 0x2049 <textPrint+0x67>
    28f4: a2 04        	ldx	#$4
    28f6: 80 02        	bra	$28fa <printf+0xf5>
    28f8: a2 10        	ldx	#$10
    28fa: 86 14        	stx	$14                     ; 0x2014 <textPrint+0x32>
    28fc: 80 06        	bra	$2904 <printf+0xff>
    28fe: a2 08        	ldx	#$8
    2900: 86 14        	stx	$14                     ; 0x2014 <textPrint+0x32>
    2902: a5 49        	lda	$49                     ; 0x2049 <textPrint+0x67>
    2904: 05 14        	ora	$14                     ; 0x2014 <textPrint+0x32>
    2906: 85 49        	sta	$49                     ; 0x2049 <textPrint+0x67>
    2908: 85 79        	sta	$79                     ; 0x2079 <textPrint+0x97>
    290a: a2 00        	ldx	#$0
    290c: 86 7a        	stx	$7a                     ; 0x207a <textPrint+0x98>
    290e: e6 12        	inc	$12                     ; 0x2012 <textPrint+0x30>
    2910: d0 02        	bne	$2914 <printf+0x10f>
    2912: e6 13        	inc	$13                     ; 0x2013 <textPrint+0x31>
    2914: b2 12        	lda	($12)                   ; 0x2012 <textPrint+0x30>
    2916: aa           	tax
    2917: 18           	clc
    2918: 69 d6        	adc	#$d6
    291a: c9 07        	cmp	#$7
    291c: b0 c7        	bcs	$28e5 <printf+0xe0>
    291e: 86 15        	stx	$15                     ; 0x2015 <textPrint+0x33>
    2920: 0a           	asl
    2921: aa           	tax
    2922: a0 01        	ldy	#$1
    2924: 84 14        	sty	$14                     ; 0x2014 <textPrint+0x32>
    2926: a5 49        	lda	$49                     ; 0x2049 <textPrint+0x67>
    2928: 7c 55 36     	jmp	($3655,x)               ; 0x3655 <__set_v+0x1cd>
    292b: a5 89        	lda	$89                     ; 0x2089 <textPrint+0xa7>
    292d: a6 8a        	ldx	$8a                     ; 0x208a <textPrint+0xa8>
    292f: 85 16        	sta	$16                     ; 0x2016 <textPrint+0x34>
    2931: 86 17        	stx	$17                     ; 0x2017 <textPrint+0x35>
    2933: 18           	clc
    2934: 69 02        	adc	#$2
    2936: a8           	tay
    2937: 8a           	txa
    2938: 69 00        	adc	#$0
    293a: 84 89        	sty	$89                     ; 0x2089 <textPrint+0xa7>
    293c: 85 8a        	sta	$8a                     ; 0x208a <textPrint+0xa8>
    293e: b2 16        	lda	($16)                   ; 0x2016 <textPrint+0x34>
    2940: 85 15        	sta	$15                     ; 0x2015 <textPrint+0x33>
    2942: a0 01        	ldy	#$1
    2944: b1 16        	lda	($16),y                 ; 0x2016 <textPrint+0x34>
    2946: 85 14        	sta	$14                     ; 0x2014 <textPrint+0x32>
    2948: 10 15        	bpl	$295f <printf+0x15a>
    294a: a5 49        	lda	$49                     ; 0x2049 <textPrint+0x67>
    294c: 09 01        	ora	#$1
    294e: 85 49        	sta	$49                     ; 0x2049 <textPrint+0x67>
    2950: 85 79        	sta	$79                     ; 0x2079 <textPrint+0x97>
    2952: a2 00        	ldx	#$0
    2954: 86 7a        	stx	$7a                     ; 0x207a <textPrint+0x98>
    2956: 8a           	txa
    2957: 38           	sec
    2958: e5 15        	sbc	$15                     ; 0x2015 <textPrint+0x33>
    295a: 85 15        	sta	$15                     ; 0x2015 <textPrint+0x33>
    295c: 8a           	txa
    295d: e5 14        	sbc	$14                     ; 0x2014 <textPrint+0x32>
    295f: a6 15        	ldx	$15                     ; 0x2015 <textPrint+0x33>
    2961: 86 83        	stx	$83                     ; 0x2083 <textPrint+0xa1>
    2963: 85 84        	sta	$84                     ; 0x2084 <textPrint+0xa2>
    2965: e6 12        	inc	$12                     ; 0x2012 <textPrint+0x30>
    2967: f0 03        	beq	$296c <printf+0x167>
    2969: 4c 30 2a     	jmp	$2a30 <printf+0x22b>
    296c: e6 13        	inc	$13                     ; 0x2013 <textPrint+0x31>
    296e: 4c 30 2a     	jmp	$2a30 <printf+0x22b>
    2971: a5 15        	lda	$15                     ; 0x2015 <textPrint+0x33>
    2973: 18           	clc
    2974: 69 d0        	adc	#$d0
    2976: c9 0a        	cmp	#$a
    2978: 90 03        	bcc	$297d <printf+0x178>
    297a: 4c 22 2a     	jmp	$2a22 <printf+0x21d>
    297d: a6 15        	ldx	$15                     ; 0x2015 <textPrint+0x33>
    297f: 86 14        	stx	$14                     ; 0x2014 <textPrint+0x32>
    2981: 64 16        	stz	$16                     ; 0x2016 <textPrint+0x34>
    2983: 64 15        	stz	$15                     ; 0x2015 <textPrint+0x33>
    2985: 64 17        	stz	$17                     ; 0x2017 <textPrint+0x35>
    2987: a0 01        	ldy	#$1
    2989: 06 16        	asl	$16                     ; 0x2016 <textPrint+0x34>
    298b: 26 17        	rol	$17                     ; 0x2017 <textPrint+0x35>
    298d: a5 16        	lda	$16                     ; 0x2016 <textPrint+0x34>
    298f: 0a           	asl
    2990: aa           	tax
    2991: a5 17        	lda	$17                     ; 0x2017 <textPrint+0x35>
    2993: 2a           	rol
    2994: 86 18        	stx	$18                     ; 0x2018 <textPrint+0x36>
    2996: 06 18        	asl	$18                     ; 0x2018 <textPrint+0x36>
    2998: 2a           	rol
    2999: aa           	tax
    299a: a5 18        	lda	$18                     ; 0x2018 <textPrint+0x36>
    299c: 18           	clc
    299d: 65 16        	adc	$16                     ; 0x2016 <textPrint+0x34>
    299f: 85 16        	sta	$16                     ; 0x2016 <textPrint+0x34>
    29a1: 8a           	txa
    29a2: 65 17        	adc	$17                     ; 0x2017 <textPrint+0x35>
    29a4: 85 17        	sta	$17                     ; 0x2017 <textPrint+0x35>
    29a6: a5 16        	lda	$16                     ; 0x2016 <textPrint+0x34>
    29a8: 18           	clc
    29a9: 65 14        	adc	$14                     ; 0x2014 <textPrint+0x32>
    29ab: 85 14        	sta	$14                     ; 0x2014 <textPrint+0x32>
    29ad: a5 17        	lda	$17                     ; 0x2017 <textPrint+0x35>
    29af: 65 15        	adc	$15                     ; 0x2015 <textPrint+0x33>
    29b1: aa           	tax
    29b2: 18           	clc
    29b3: a5 14        	lda	$14                     ; 0x2014 <textPrint+0x32>
    29b5: 69 d0        	adc	#$d0
    29b7: 85 16        	sta	$16                     ; 0x2016 <textPrint+0x34>
    29b9: 8a           	txa
    29ba: 69 ff        	adc	#$ff
    29bc: 85 17        	sta	$17                     ; 0x2017 <textPrint+0x35>
    29be: b1 12        	lda	($12),y                 ; 0x2012 <textPrint+0x30>
    29c0: 85 14        	sta	$14                     ; 0x2014 <textPrint+0x32>
    29c2: 18           	clc
    29c3: 69 d0        	adc	#$d0
    29c5: e6 12        	inc	$12                     ; 0x2012 <textPrint+0x30>
    29c7: d0 02        	bne	$29cb <printf+0x1c6>
    29c9: e6 13        	inc	$13                     ; 0x2013 <textPrint+0x31>
    29cb: c9 0a        	cmp	#$a
    29cd: 64 15        	stz	$15                     ; 0x2015 <textPrint+0x33>
    29cf: 90 b8        	bcc	$2989 <printf+0x184>
    29d1: 4c 28 2a     	jmp	$2a28 <printf+0x223>
    29d4: 84 13        	sty	$13                     ; 0x2013 <textPrint+0x31>
    29d6: c5 7c        	cmp	$7c                     ; 0x207c <textPrint+0x9a>
    29d8: a0 01        	ldy	#$1
    29da: b0 30        	bcs	$2a0c <printf+0x207>
    29dc: a6 88        	ldx	$88                     ; 0x2088 <textPrint+0xa6>
    29de: e4 4d        	cpx	$4d                     ; 0x204d <textPrint+0x6b>
    29e0: d0 19        	bne	$29fb <printf+0x1f6>
    29e2: a6 87        	ldx	$87                     ; 0x2087 <textPrint+0xa5>
    29e4: e4 4c        	cpx	$4c                     ; 0x204c <textPrint+0x6a>
    29e6: d0 13        	bne	$29fb <printf+0x1f6>
    29e8: 18           	clc
    29e9: aa           	tax
    29ea: a5 13        	lda	$13                     ; 0x2013 <textPrint+0x31>
    29ec: 65 81        	adc	$81                     ; 0x2081 <textPrint+0x9f>
    29ee: 85 12        	sta	$12                     ; 0x2012 <textPrint+0x30>
    29f0: 8a           	txa
    29f1: 65 82        	adc	$82                     ; 0x2082 <textPrint+0xa0>
    29f3: 85 13        	sta	$13                     ; 0x2013 <textPrint+0x31>
    29f5: a9 25        	lda	#$25
    29f7: 92 12        	sta	($12)                   ; 0x2012 <textPrint+0x30>
    29f9: 80 11        	bra	$2a0c <printf+0x207>
    29fb: a2 25        	ldx	#$25
    29fd: 86 41        	stx	$41                     ; 0x2041 <textPrint+0x5f>
    29ff: a2 41        	ldx	#$41
    2a01: 86 12        	stx	$12                     ; 0x2012 <textPrint+0x30>
    2a03: a2 00        	ldx	#$0
    2a05: 86 13        	stx	$13                     ; 0x2013 <textPrint+0x31>
    2a07: 20 e2 1f     	jsr	$1fe2 <textPrint>
    2a0a: a0 01        	ldy	#$1
    2a0c: e6 7d        	inc	$7d                     ; 0x207d <textPrint+0x9b>
    2a0e: d0 02        	bne	$2a12 <printf+0x20d>
    2a10: e6 7e        	inc	$7e                     ; 0x207e <textPrint+0x9c>
    2a12: a5 4e        	lda	$4e                     ; 0x204e <textPrint+0x6c>
    2a14: 18           	clc
    2a15: 69 02        	adc	#$2
    2a17: 85 4a        	sta	$4a                     ; 0x204a <textPrint+0x68>
    2a19: a5 4f        	lda	$4f                     ; 0x204f <textPrint+0x6d>
    2a1b: 69 00        	adc	#$0
    2a1d: 85 4b        	sta	$4b                     ; 0x204b <textPrint+0x69>
    2a1f: 4c 6a 28     	jmp	$286a <printf+0x65>
    2a22: 64 16        	stz	$16                     ; 0x2016 <textPrint+0x34>
    2a24: 64 17        	stz	$17                     ; 0x2017 <textPrint+0x35>
    2a26: a0 01        	ldy	#$1
    2a28: a6 16        	ldx	$16                     ; 0x2016 <textPrint+0x34>
    2a2a: 86 83        	stx	$83                     ; 0x2083 <textPrint+0xa1>
    2a2c: a5 17        	lda	$17                     ; 0x2017 <textPrint+0x35>
    2a2e: 85 84        	sta	$84                     ; 0x2084 <textPrint+0xa2>
    2a30: 86 52        	stx	$52                     ; 0x2052 <textPrint+0x70>
    2a32: 85 50        	sta	$50                     ; 0x2050 <textPrint+0x6e>
    2a34: b2 12        	lda	($12)                   ; 0x2012 <textPrint+0x30>
    2a36: a2 ff        	ldx	#$ff
    2a38: c9 2e        	cmp	#$2e
    2a3a: d0 39        	bne	$2a75 <printf+0x270>
    2a3c: b1 12        	lda	($12),y                 ; 0x2012 <textPrint+0x30>
    2a3e: c9 2a        	cmp	#$2a
    2a40: d0 38        	bne	$2a7a <printf+0x275>
    2a42: a5 89        	lda	$89                     ; 0x2089 <textPrint+0xa7>
    2a44: a6 8a        	ldx	$8a                     ; 0x208a <textPrint+0xa8>
    2a46: 85 14        	sta	$14                     ; 0x2014 <textPrint+0x32>
    2a48: 86 15        	stx	$15                     ; 0x2015 <textPrint+0x33>
    2a4a: 18           	clc
    2a4b: 69 02        	adc	#$2
    2a4d: 85 16        	sta	$16                     ; 0x2016 <textPrint+0x34>
    2a4f: 8a           	txa
    2a50: 69 00        	adc	#$0
    2a52: a6 16        	ldx	$16                     ; 0x2016 <textPrint+0x34>
    2a54: 86 89        	stx	$89                     ; 0x2089 <textPrint+0xa7>
    2a56: 85 8a        	sta	$8a                     ; 0x208a <textPrint+0xa8>
    2a58: a5 12        	lda	$12                     ; 0x2012 <textPrint+0x30>
    2a5a: 18           	clc
    2a5b: 69 02        	adc	#$2
    2a5d: 85 12        	sta	$12                     ; 0x2012 <textPrint+0x30>
    2a5f: a5 13        	lda	$13                     ; 0x2013 <textPrint+0x31>
    2a61: 69 00        	adc	#$0
    2a63: 85 13        	sta	$13                     ; 0x2013 <textPrint+0x31>
    2a65: b2 14        	lda	($14)                   ; 0x2014 <textPrint+0x32>
    2a67: aa           	tax
    2a68: b1 14        	lda	($14),y                 ; 0x2014 <textPrint+0x32>
    2a6a: 86 18        	stx	$18                     ; 0x2018 <textPrint+0x36>
    2a6c: 86 85        	stx	$85                     ; 0x2085 <textPrint+0xa3>
    2a6e: 85 19        	sta	$19                     ; 0x2019 <textPrint+0x37>
    2a70: 85 86        	sta	$86                     ; 0x2086 <textPrint+0xa4>
    2a72: 4c 25 2b     	jmp	$2b25 <printf+0x320>
    2a75: 86 18        	stx	$18                     ; 0x2018 <textPrint+0x36>
    2a77: 4c 35 2b     	jmp	$2b35 <printf+0x330>
    2a7a: 85 17        	sta	$17                     ; 0x2017 <textPrint+0x35>
    2a7c: 18           	clc
    2a7d: 69 d0        	adc	#$d0
    2a7f: c9 0a        	cmp	#$a
    2a81: 90 03        	bcc	$2a86 <printf+0x281>
    2a83: 4c 17 2b     	jmp	$2b17 <printf+0x312>
    2a86: 64 16        	stz	$16                     ; 0x2016 <textPrint+0x34>
    2a88: a2 01        	ldx	#$1
    2a8a: 64 18        	stz	$18                     ; 0x2018 <textPrint+0x36>
    2a8c: 64 19        	stz	$19                     ; 0x2019 <textPrint+0x37>
    2a8e: a0 01        	ldy	#$1
    2a90: 64 1a        	stz	$1a                     ; 0x201a <textPrint+0x38>
    2a92: 5a           	phy
    2a93: a4 1a        	ldy	$1a                     ; 0x201a <textPrint+0x38>
    2a95: 84 14        	sty	$14                     ; 0x2014 <textPrint+0x32>
    2a97: 86 15        	stx	$15                     ; 0x2015 <textPrint+0x33>
    2a99: 06 18        	asl	$18                     ; 0x2018 <textPrint+0x36>
    2a9b: 26 19        	rol	$19                     ; 0x2019 <textPrint+0x37>
    2a9d: a5 18        	lda	$18                     ; 0x2018 <textPrint+0x36>
    2a9f: 0a           	asl
    2aa0: 85 1d        	sta	$1d                     ; 0x201d <textPrint+0x3b>
    2aa2: a5 19        	lda	$19                     ; 0x2019 <textPrint+0x37>
    2aa4: 2a           	rol
    2aa5: 06 1d        	asl	$1d                     ; 0x201d <textPrint+0x3b>
    2aa7: 2a           	rol
    2aa8: 85 1e        	sta	$1e                     ; 0x201e <textPrint+0x3c>
    2aaa: a5 1d        	lda	$1d                     ; 0x201d <textPrint+0x3b>
    2aac: 18           	clc
    2aad: 65 18        	adc	$18                     ; 0x2018 <textPrint+0x36>
    2aaf: 85 18        	sta	$18                     ; 0x2018 <textPrint+0x36>
    2ab1: a5 1e        	lda	$1e                     ; 0x201e <textPrint+0x3c>
    2ab3: 65 19        	adc	$19                     ; 0x2019 <textPrint+0x37>
    2ab5: 85 19        	sta	$19                     ; 0x2019 <textPrint+0x37>
    2ab7: a5 18        	lda	$18                     ; 0x2018 <textPrint+0x36>
    2ab9: 18           	clc
    2aba: 65 17        	adc	$17                     ; 0x2017 <textPrint+0x35>
    2abc: 85 17        	sta	$17                     ; 0x2017 <textPrint+0x35>
    2abe: a5 19        	lda	$19                     ; 0x2019 <textPrint+0x37>
    2ac0: 65 16        	adc	$16                     ; 0x2016 <textPrint+0x34>
    2ac2: 85 16        	sta	$16                     ; 0x2016 <textPrint+0x34>
    2ac4: 18           	clc
    2ac5: a5 17        	lda	$17                     ; 0x2017 <textPrint+0x35>
    2ac7: 69 d0        	adc	#$d0
    2ac9: 85 18        	sta	$18                     ; 0x2018 <textPrint+0x36>
    2acb: a5 16        	lda	$16                     ; 0x2016 <textPrint+0x34>
    2acd: 69 ff        	adc	#$ff
    2acf: 85 19        	sta	$19                     ; 0x2019 <textPrint+0x37>
    2ad1: e8           	inx
    2ad2: d0 02        	bne	$2ad6 <printf+0x2d1>
    2ad4: e6 1a        	inc	$1a                     ; 0x201a <textPrint+0x38>
    2ad6: a5 12        	lda	$12                     ; 0x2012 <textPrint+0x30>
    2ad8: 18           	clc
    2ad9: 65 15        	adc	$15                     ; 0x2015 <textPrint+0x33>
    2adb: 85 1d        	sta	$1d                     ; 0x201d <textPrint+0x3b>
    2add: a5 13        	lda	$13                     ; 0x2013 <textPrint+0x31>
    2adf: 65 14        	adc	$14                     ; 0x2014 <textPrint+0x32>
    2ae1: a4 1d        	ldy	$1d                     ; 0x201d <textPrint+0x3b>
    2ae3: 84 16        	sty	$16                     ; 0x2016 <textPrint+0x34>
    2ae5: 7a           	ply
    2ae6: 85 17        	sta	$17                     ; 0x2017 <textPrint+0x35>
    2ae8: b1 16        	lda	($16),y                 ; 0x2016 <textPrint+0x34>
    2aea: 85 17        	sta	$17                     ; 0x2017 <textPrint+0x35>
    2aec: 18           	clc
    2aed: 69 d0        	adc	#$d0
    2aef: c9 0a        	cmp	#$a
    2af1: 64 16        	stz	$16                     ; 0x2016 <textPrint+0x34>
    2af3: b0 03        	bcs	$2af8 <printf+0x2f3>
    2af5: 4c 92 2a     	jmp	$2a92 <printf+0x28d>
    2af8: a5 12        	lda	$12                     ; 0x2012 <textPrint+0x30>
    2afa: 18           	clc
    2afb: 65 15        	adc	$15                     ; 0x2015 <textPrint+0x33>
    2afd: 85 12        	sta	$12                     ; 0x2012 <textPrint+0x30>
    2aff: a5 13        	lda	$13                     ; 0x2013 <textPrint+0x31>
    2b01: 65 14        	adc	$14                     ; 0x2014 <textPrint+0x32>
    2b03: 85 13        	sta	$13                     ; 0x2013 <textPrint+0x31>
    2b05: e6 12        	inc	$12                     ; 0x2012 <textPrint+0x30>
    2b07: d0 02        	bne	$2b0b <printf+0x306>
    2b09: e6 13        	inc	$13                     ; 0x2013 <textPrint+0x31>
    2b0b: a6 18        	ldx	$18                     ; 0x2018 <textPrint+0x36>
    2b0d: 86 85        	stx	$85                     ; 0x2085 <textPrint+0xa3>
    2b0f: a6 19        	ldx	$19                     ; 0x2019 <textPrint+0x37>
    2b11: 86 86        	stx	$86                     ; 0x2086 <textPrint+0xa4>
    2b13: a0 01        	ldy	#$1
    2b15: 80 0e        	bra	$2b25 <printf+0x320>
    2b17: e6 12        	inc	$12                     ; 0x2012 <textPrint+0x30>
    2b19: d0 02        	bne	$2b1d <printf+0x318>
    2b1b: e6 13        	inc	$13                     ; 0x2013 <textPrint+0x31>
    2b1d: 64 18        	stz	$18                     ; 0x2018 <textPrint+0x36>
    2b1f: 64 85        	stz	$85                     ; 0x2085 <textPrint+0xa3>
    2b21: 64 86        	stz	$86                     ; 0x2086 <textPrint+0xa4>
    2b23: 64 19        	stz	$19                     ; 0x2019 <textPrint+0x37>
    2b25: a5 49        	lda	$49                     ; 0x2049 <textPrint+0x67>
    2b27: 29 ef        	and	#$ef
    2b29: 85 49        	sta	$49                     ; 0x2049 <textPrint+0x67>
    2b2b: 85 79        	sta	$79                     ; 0x2079 <textPrint+0x97>
    2b2d: a2 00        	ldx	#$0
    2b2f: 86 7a        	stx	$7a                     ; 0x207a <textPrint+0x98>
    2b31: b2 12        	lda	($12)                   ; 0x2012 <textPrint+0x30>
    2b33: a6 19        	ldx	$19                     ; 0x2019 <textPrint+0x37>
    2b35: 86 15        	stx	$15                     ; 0x2015 <textPrint+0x33>
    2b37: a6 12        	ldx	$12                     ; 0x2012 <textPrint+0x30>
    2b39: 86 4a        	stx	$4a                     ; 0x204a <textPrint+0x68>
    2b3b: a6 13        	ldx	$13                     ; 0x2013 <textPrint+0x31>
    2b3d: 86 4b        	stx	$4b                     ; 0x204b <textPrint+0x69>
    2b3f: e6 4a        	inc	$4a                     ; 0x204a <textPrint+0x68>
    2b41: d0 02        	bne	$2b45 <printf+0x340>
    2b43: e6 4b        	inc	$4b                     ; 0x204b <textPrint+0x69>
    2b45: 85 14        	sta	$14                     ; 0x2014 <textPrint+0x32>
    2b47: 38           	sec
    2b48: e9 6c        	sbc	#$6c
    2b4a: 50 02        	bvc	$2b4e <printf+0x349>
    2b4c: 49 80        	eor	#$80
    2b4e: aa           	tax
    2b4f: 10 1d        	bpl	$2b6e <printf+0x369>
    2b51: a5 14        	lda	$14                     ; 0x2014 <textPrint+0x32>
    2b53: c9 4c        	cmp	#$4c
    2b55: f0 27        	beq	$2b7e <printf+0x379>
    2b57: c9 68        	cmp	#$68
    2b59: d0 03        	bne	$2b5e <printf+0x359>
    2b5b: 4c e5 2b     	jmp	$2be5 <printf+0x3e0>
    2b5e: a2 08        	ldx	#$8
    2b60: c9 6a        	cmp	#$6a
    2b62: d0 2e        	bne	$2b92 <printf+0x38d>
    2b64: a5 4a        	lda	$4a                     ; 0x204a <textPrint+0x68>
    2b66: 85 12        	sta	$12                     ; 0x2012 <textPrint+0x30>
    2b68: a5 4b        	lda	$4b                     ; 0x204b <textPrint+0x69>
    2b6a: 85 13        	sta	$13                     ; 0x2013 <textPrint+0x31>
    2b6c: 80 43        	bra	$2bb1 <printf+0x3ac>
    2b6e: a6 14        	ldx	$14                     ; 0x2014 <textPrint+0x32>
    2b70: e0 6c        	cpx	#$6c
    2b72: f0 23        	beq	$2b97 <printf+0x392>
    2b74: e0 74        	cpx	#$74
    2b76: f0 12        	beq	$2b8a <printf+0x385>
    2b78: e0 7a        	cpx	#$7a
    2b7a: f0 0e        	beq	$2b8a <printf+0x385>
    2b7c: 80 14        	bra	$2b92 <printf+0x38d>
    2b7e: a5 49        	lda	$49                     ; 0x2049 <textPrint+0x67>
    2b80: 09 40        	ora	#$40
    2b82: 85 49        	sta	$49                     ; 0x2049 <textPrint+0x67>
    2b84: 85 79        	sta	$79                     ; 0x2079 <textPrint+0x97>
    2b86: a2 00        	ldx	#$0
    2b88: 86 7a        	stx	$7a                     ; 0x207a <textPrint+0x98>
    2b8a: a6 4a        	ldx	$4a                     ; 0x204a <textPrint+0x68>
    2b8c: 86 12        	stx	$12                     ; 0x2012 <textPrint+0x30>
    2b8e: a6 4b        	ldx	$4b                     ; 0x204b <textPrint+0x69>
    2b90: 86 13        	stx	$13                     ; 0x2013 <textPrint+0x31>
    2b92: a2 02        	ldx	#$2
    2b94: 8a           	txa
    2b95: 80 1c        	bra	$2bb3 <printf+0x3ae>
    2b97: b1 12        	lda	($12),y                 ; 0x2012 <textPrint+0x30>
    2b99: a2 04        	ldx	#$4
    2b9b: c9 6c        	cmp	#$6c
    2b9d: f0 03        	beq	$2ba2 <printf+0x39d>
    2b9f: 4c f4 2e     	jmp	$2ef4 <printf+0x6ef>
    2ba2: a5 12        	lda	$12                     ; 0x2012 <textPrint+0x30>
    2ba4: 18           	clc
    2ba5: 69 02        	adc	#$2
    2ba7: 85 12        	sta	$12                     ; 0x2012 <textPrint+0x30>
    2ba9: a5 13        	lda	$13                     ; 0x2013 <textPrint+0x31>
    2bab: 69 00        	adc	#$0
    2bad: 85 13        	sta	$13                     ; 0x2013 <textPrint+0x31>
    2baf: a2 08        	ldx	#$8
    2bb1: a9 08        	lda	#$8
    2bb3: 85 8e        	sta	$8e                     ; 0x208e <textPrint+0xac>
    2bb5: b2 12        	lda	($12)                   ; 0x2012 <textPrint+0x30>
    2bb7: 5a           	phy
    2bb8: a4 12        	ldy	$12                     ; 0x2012 <textPrint+0x30>
    2bba: 84 4a        	sty	$4a                     ; 0x204a <textPrint+0x68>
    2bbc: a4 13        	ldy	$13                     ; 0x2013 <textPrint+0x31>
    2bbe: 84 4b        	sty	$4b                     ; 0x204b <textPrint+0x69>
    2bc0: 7a           	ply
    2bc1: 86 4c        	stx	$4c                     ; 0x204c <textPrint+0x6a>
    2bc3: aa           	tax
    2bc4: 18           	clc
    2bc5: 69 9d        	adc	#$9d
    2bc7: c9 16        	cmp	#$16
    2bc9: b0 39        	bcs	$2c04 <printf+0x3ff>
    2bcb: 0a           	asl
    2bcc: aa           	tax
    2bcd: 7c 63 36     	jmp	($3663,x)               ; 0x3663 <__set_v+0x1db>
    2bd0: a6 15        	ldx	$15                     ; 0x2015 <textPrint+0x33>
    2bd2: 86 91        	stx	$91                     ; 0x2091 <textPrint+0xaf>
    2bd4: a6 18        	ldx	$18                     ; 0x2018 <textPrint+0x36>
    2bd6: 86 92        	stx	$92                     ; 0x2092 <textPrint+0xb0>
    2bd8: a0 0a        	ldy	#$a
    2bda: a2 0a        	ldx	#$a
    2bdc: 86 8d        	stx	$8d                     ; 0x208d <textPrint+0xab>
    2bde: 84 78        	sty	$78                     ; 0x2078 <textPrint+0x96>
    2be0: 64 53        	stz	$53                     ; 0x2053 <textPrint+0x71>
    2be2: 4c 04 2d     	jmp	$2d04 <printf+0x4ff>
    2be5: b1 12        	lda	($12),y                 ; 0x2012 <textPrint+0x30>
    2be7: a2 02        	ldx	#$2
    2be9: c9 68        	cmp	#$68
    2beb: f0 03        	beq	$2bf0 <printf+0x3eb>
    2bed: 4c fa 2e     	jmp	$2efa <printf+0x6f5>
    2bf0: a5 12        	lda	$12                     ; 0x2012 <textPrint+0x30>
    2bf2: 18           	clc
    2bf3: 69 02        	adc	#$2
    2bf5: 85 12        	sta	$12                     ; 0x2012 <textPrint+0x30>
    2bf7: a5 13        	lda	$13                     ; 0x2013 <textPrint+0x31>
    2bf9: 69 00        	adc	#$0
    2bfb: 85 13        	sta	$13                     ; 0x2013 <textPrint+0x31>
    2bfd: a2 01        	ldx	#$1
    2bff: 86 8e        	stx	$8e                     ; 0x208e <textPrint+0xac>
    2c01: e8           	inx
    2c02: 80 b1        	bra	$2bb5 <printf+0x3b0>
    2c04: e0 58        	cpx	#$58
    2c06: f0 03        	beq	$2c0b <printf+0x406>
    2c08: 4c ec 33     	jmp	$33ec <printf+0xbe7>
    2c0b: a6 15        	ldx	$15                     ; 0x2015 <textPrint+0x33>
    2c0d: 86 91        	stx	$91                     ; 0x2091 <textPrint+0xaf>
    2c0f: a6 18        	ldx	$18                     ; 0x2018 <textPrint+0x36>
    2c11: 86 92        	stx	$92                     ; 0x2092 <textPrint+0xb0>
    2c13: a2 10        	ldx	#$10
    2c15: 86 78        	stx	$78                     ; 0x2078 <textPrint+0x96>
    2c17: a9 00        	lda	#$0
    2c19: 09 01        	ora	#$1
    2c1b: a6 49        	ldx	$49                     ; 0x2049 <textPrint+0x67>
    2c1d: 80 29        	bra	$2c48 <printf+0x443>
    2c1f: a6 15        	ldx	$15                     ; 0x2015 <textPrint+0x33>
    2c21: 86 91        	stx	$91                     ; 0x2091 <textPrint+0xaf>
    2c23: a6 18        	ldx	$18                     ; 0x2018 <textPrint+0x36>
    2c25: 86 92        	stx	$92                     ; 0x2092 <textPrint+0xb0>
    2c27: a2 10        	ldx	#$10
    2c29: 86 78        	stx	$78                     ; 0x2078 <textPrint+0x96>
    2c2b: a5 49        	lda	$49                     ; 0x2049 <textPrint+0x67>
    2c2d: 09 84        	ora	#$84
    2c2f: 80 10        	bra	$2c41 <printf+0x43c>
    2c31: a6 15        	ldx	$15                     ; 0x2015 <textPrint+0x33>
    2c33: 86 91        	stx	$91                     ; 0x2091 <textPrint+0xaf>
    2c35: a6 18        	ldx	$18                     ; 0x2018 <textPrint+0x36>
    2c37: 86 92        	stx	$92                     ; 0x2092 <textPrint+0xb0>
    2c39: a2 10        	ldx	#$10
    2c3b: 86 78        	stx	$78                     ; 0x2078 <textPrint+0x96>
    2c3d: a5 49        	lda	$49                     ; 0x2049 <textPrint+0x67>
    2c3f: 09 80        	ora	#$80
    2c41: aa           	tax
    2c42: a9 00        	lda	#$0
    2c44: 09 01        	ora	#$1
    2c46: 86 49        	stx	$49                     ; 0x2049 <textPrint+0x67>
    2c48: 86 79        	stx	$79                     ; 0x2079 <textPrint+0x97>
    2c4a: 85 53        	sta	$53                     ; 0x2053 <textPrint+0x71>
    2c4c: 85 7a        	sta	$7a                     ; 0x207a <textPrint+0x98>
    2c4e: a2 10        	ldx	#$10
    2c50: 86 8d        	stx	$8d                     ; 0x208d <textPrint+0xab>
    2c52: 4c 04 2d     	jmp	$2d04 <printf+0x4ff>
    2c55: a5 89        	lda	$89                     ; 0x2089 <textPrint+0xa7>
    2c57: a6 8a        	ldx	$8a                     ; 0x208a <textPrint+0xa8>
    2c59: 85 12        	sta	$12                     ; 0x2012 <textPrint+0x30>
    2c5b: 86 13        	stx	$13                     ; 0x2013 <textPrint+0x31>
    2c5d: 18           	clc
    2c5e: 69 02        	adc	#$2
    2c60: 85 14        	sta	$14                     ; 0x2014 <textPrint+0x32>
    2c62: 8a           	txa
    2c63: 69 00        	adc	#$0
    2c65: a6 14        	ldx	$14                     ; 0x2014 <textPrint+0x32>
    2c67: 86 89        	stx	$89                     ; 0x2089 <textPrint+0xa7>
    2c69: 85 8a        	sta	$8a                     ; 0x208a <textPrint+0xa8>
    2c6b: b2 12        	lda	($12)                   ; 0x2012 <textPrint+0x30>
    2c6d: aa           	tax
    2c6e: b1 12        	lda	($12),y                 ; 0x2012 <textPrint+0x30>
    2c70: 86 12        	stx	$12                     ; 0x2012 <textPrint+0x30>
    2c72: 85 13        	sta	$13                     ; 0x2013 <textPrint+0x31>
    2c74: a5 7d        	lda	$7d                     ; 0x207d <textPrint+0x9b>
    2c76: a6 7e        	ldx	$7e                     ; 0x207e <textPrint+0x9c>
    2c78: 92 12        	sta	($12)                   ; 0x2012 <textPrint+0x30>
    2c7a: 8a           	txa
    2c7b: 91 12        	sta	($12),y                 ; 0x2012 <textPrint+0x30>
    2c7d: 4c dd 2c     	jmp	$2cdd <printf+0x4d8>
    2c80: a5 89        	lda	$89                     ; 0x2089 <textPrint+0xa7>
    2c82: a6 8a        	ldx	$8a                     ; 0x208a <textPrint+0xa8>
    2c84: 85 12        	sta	$12                     ; 0x2012 <textPrint+0x30>
    2c86: 86 13        	stx	$13                     ; 0x2013 <textPrint+0x31>
    2c88: 18           	clc
    2c89: 69 02        	adc	#$2
    2c8b: 85 14        	sta	$14                     ; 0x2014 <textPrint+0x32>
    2c8d: 8a           	txa
    2c8e: 69 00        	adc	#$0
    2c90: a6 14        	ldx	$14                     ; 0x2014 <textPrint+0x32>
    2c92: 86 89        	stx	$89                     ; 0x2089 <textPrint+0xa7>
    2c94: 85 8a        	sta	$8a                     ; 0x208a <textPrint+0xa8>
    2c96: b2 12        	lda	($12)                   ; 0x2012 <textPrint+0x30>
    2c98: aa           	tax
    2c99: b1 12        	lda	($12),y                 ; 0x2012 <textPrint+0x30>
    2c9b: 86 12        	stx	$12                     ; 0x2012 <textPrint+0x30>
    2c9d: 85 13        	sta	$13                     ; 0x2013 <textPrint+0x31>
    2c9f: 80 2f        	bra	$2cd0 <printf+0x4cb>
    2ca1: a6 15        	ldx	$15                     ; 0x2015 <textPrint+0x33>
    2ca3: 86 91        	stx	$91                     ; 0x2091 <textPrint+0xaf>
    2ca5: a6 18        	ldx	$18                     ; 0x2018 <textPrint+0x36>
    2ca7: 86 92        	stx	$92                     ; 0x2092 <textPrint+0xb0>
    2ca9: a0 08        	ldy	#$8
    2cab: a2 08        	ldx	#$8
    2cad: 80 45        	bra	$2cf4 <printf+0x4ef>
    2caf: a5 89        	lda	$89                     ; 0x2089 <textPrint+0xa7>
    2cb1: a6 8a        	ldx	$8a                     ; 0x208a <textPrint+0xa8>
    2cb3: 85 12        	sta	$12                     ; 0x2012 <textPrint+0x30>
    2cb5: 86 13        	stx	$13                     ; 0x2013 <textPrint+0x31>
    2cb7: 18           	clc
    2cb8: 69 02        	adc	#$2
    2cba: a8           	tay
    2cbb: 8a           	txa
    2cbc: 69 00        	adc	#$0
    2cbe: 84 89        	sty	$89                     ; 0x2089 <textPrint+0xa7>
    2cc0: 85 8a        	sta	$8a                     ; 0x208a <textPrint+0xa8>
    2cc2: b2 12        	lda	($12)                   ; 0x2012 <textPrint+0x30>
    2cc4: 85 6b        	sta	$6b                     ; 0x206b <textPrint+0x89>
    2cc6: 64 6c        	stz	$6c                     ; 0x206c <textPrint+0x8a>
    2cc8: a2 6b        	ldx	#$6b
    2cca: 86 12        	stx	$12                     ; 0x2012 <textPrint+0x30>
    2ccc: a2 00        	ldx	#$0
    2cce: 86 13        	stx	$13                     ; 0x2013 <textPrint+0x31>
    2cd0: a2 78        	ldx	#$78
    2cd2: 86 14        	stx	$14                     ; 0x2014 <textPrint+0x32>
    2cd4: a2 00        	ldx	#$0
    2cd6: 86 15        	stx	$15                     ; 0x2015 <textPrint+0x33>
    2cd8: 20 f9 26     	jsr	$26f9 <_ZN12_GLOBAL__N_112print_stringEPKcP6Status>
    2cdb: a0 01        	ldy	#$1
    2cdd: a2 00        	ldx	#$0
    2cdf: 86 4c        	stx	$4c                     ; 0x204c <textPrint+0x6a>
    2ce1: a2 00        	ldx	#$0
    2ce3: 86 4d        	stx	$4d                     ; 0x204d <textPrint+0x6b>
    2ce5: 4c d4 33     	jmp	$33d4 <printf+0xbcf>
    2ce8: a6 15        	ldx	$15                     ; 0x2015 <textPrint+0x33>
    2cea: 86 91        	stx	$91                     ; 0x2091 <textPrint+0xaf>
    2cec: a6 18        	ldx	$18                     ; 0x2018 <textPrint+0x36>
    2cee: 86 92        	stx	$92                     ; 0x2092 <textPrint+0xb0>
    2cf0: a0 0a        	ldy	#$a
    2cf2: a2 0a        	ldx	#$a
    2cf4: 86 8d        	stx	$8d                     ; 0x208d <textPrint+0xab>
    2cf6: 84 78        	sty	$78                     ; 0x2078 <textPrint+0x96>
    2cf8: a9 00        	lda	#$0
    2cfa: 09 01        	ora	#$1
    2cfc: a6 49        	ldx	$49                     ; 0x2049 <textPrint+0x67>
    2cfe: 86 79        	stx	$79                     ; 0x2079 <textPrint+0x97>
    2d00: 85 53        	sta	$53                     ; 0x2053 <textPrint+0x71>
    2d02: 85 7a        	sta	$7a                     ; 0x207a <textPrint+0x98>
    2d04: a5 8e        	lda	$8e                     ; 0x208e <textPrint+0xac>
    2d06: 85 6d        	sta	$6d                     ; 0x206d <textPrint+0x8b>
    2d08: a4 89        	ldy	$89                     ; 0x2089 <textPrint+0xa7>
    2d0a: a6 8a        	ldx	$8a                     ; 0x208a <textPrint+0xa8>
    2d0c: 86 51        	stx	$51                     ; 0x2051 <textPrint+0x6f>
    2d0e: 84 14        	sty	$14                     ; 0x2014 <textPrint+0x32>
    2d10: 84 48        	sty	$48                     ; 0x2048 <textPrint+0x66>
    2d12: 86 15        	stx	$15                     ; 0x2015 <textPrint+0x33>
    2d14: a6 8f        	ldx	$8f                     ; 0x208f <textPrint+0xad>
    2d16: 86 12        	stx	$12                     ; 0x2012 <textPrint+0x30>
    2d18: a6 90        	ldx	$90                     ; 0x2090 <textPrint+0xae>
    2d1a: 86 13        	stx	$13                     ; 0x2013 <textPrint+0x31>
    2d1c: a2 00        	ldx	#$0
    2d1e: 85 4d        	sta	$4d                     ; 0x204d <textPrint+0x6b>
    2d20: 20 31 34     	jsr	$3431 <memcpy>
    2d23: 18           	clc
    2d24: a5 48        	lda	$48                     ; 0x2048 <textPrint+0x66>
    2d26: 65 4c        	adc	$4c                     ; 0x204c <textPrint+0x6a>
    2d28: aa           	tax
    2d29: a5 51        	lda	$51                     ; 0x2051 <textPrint+0x6f>
    2d2b: 69 00        	adc	#$0
    2d2d: 86 89        	stx	$89                     ; 0x2089 <textPrint+0xa7>
    2d2f: 85 8a        	sta	$8a                     ; 0x208a <textPrint+0xa8>
    2d31: a5 53        	lda	$53                     ; 0x2053 <textPrint+0x71>
    2d33: 29 01        	and	#$1
    2d35: b8           	clv
    2d36: f0 03        	beq	$2d3b <printf+0x536>
    2d38: 4c 8f 2d     	jmp	$2d8f <printf+0x58a>
    2d3b: a6 4d        	ldx	$4d                     ; 0x204d <textPrint+0x6b>
    2d3d: b5 6d        	lda	$6d,x                   ; 0x206d <textPrint+0x8b>
    2d3f: aa           	tax
    2d40: a0 01        	ldy	#$1
    2d42: a5 50        	lda	$50                     ; 0x2050 <textPrint+0x6e>
    2d44: 85 1a        	sta	$1a                     ; 0x201a <textPrint+0x38>
    2d46: a5 92        	lda	$92                     ; 0x2092 <textPrint+0xb0>
    2d48: 85 50        	sta	$50                     ; 0x2050 <textPrint+0x6e>
    2d4a: a9 00        	lda	#$0
    2d4c: 85 4c        	sta	$4c                     ; 0x204c <textPrint+0x6a>
    2d4e: a9 00        	lda	#$0
    2d50: 85 4d        	sta	$4d                     ; 0x204d <textPrint+0x6b>
    2d52: a5 91        	lda	$91                     ; 0x2091 <textPrint+0xaf>
    2d54: 85 51        	sta	$51                     ; 0x2051 <textPrint+0x6f>
    2d56: 8a           	txa
    2d57: 10 4c        	bpl	$2da5 <printf+0x5a0>
    2d59: a2 00        	ldx	#$0
    2d5b: 64 12        	stz	$12                     ; 0x2012 <textPrint+0x30>
    2d5d: a9 00        	lda	#$0
    2d5f: 38           	sec
    2d60: f5 6e        	sbc	$6e,x                   ; 0x206e <textPrint+0x8c>
    2d62: a0 00        	ldy	#$0
    2d64: b0 02        	bcs	$2d68 <printf+0x563>
    2d66: a0 01        	ldy	#$1
    2d68: 38           	sec
    2d69: e5 12        	sbc	$12                     ; 0x2012 <textPrint+0x30>
    2d6b: 85 13        	sta	$13                     ; 0x2013 <textPrint+0x31>
    2d6d: 64 12        	stz	$12                     ; 0x2012 <textPrint+0x30>
    2d6f: b0 04        	bcs	$2d75 <printf+0x570>
    2d71: a9 01        	lda	#$1
    2d73: 85 12        	sta	$12                     ; 0x2012 <textPrint+0x30>
    2d75: 98           	tya
    2d76: 05 12        	ora	$12                     ; 0x2012 <textPrint+0x30>
    2d78: 85 12        	sta	$12                     ; 0x2012 <textPrint+0x30>
    2d7a: a5 13        	lda	$13                     ; 0x2013 <textPrint+0x31>
    2d7c: 9d 6e 00     	sta	$6e,x                   ; 0x6e <__rc31+0x3f>
    2d7f: e8           	inx
    2d80: 86 13        	stx	$13                     ; 0x2013 <textPrint+0x31>
    2d82: a4 8e        	ldy	$8e                     ; 0x208e <textPrint+0xac>
    2d84: c4 13        	cpy	$13                     ; 0x2013 <textPrint+0x31>
    2d86: d0 d5        	bne	$2d5d <printf+0x558>
    2d88: 2c 88 34     	bit	$3488                   ; 0x3488 <__set_v>
    2d8b: a0 01        	ldy	#$1
    2d8d: 80 16        	bra	$2da5 <printf+0x5a0>
    2d8f: a0 01        	ldy	#$1
    2d91: a6 50        	ldx	$50                     ; 0x2050 <textPrint+0x6e>
    2d93: 86 1a        	stx	$1a                     ; 0x201a <textPrint+0x38>
    2d95: a6 92        	ldx	$92                     ; 0x2092 <textPrint+0xb0>
    2d97: 86 50        	stx	$50                     ; 0x2050 <textPrint+0x6e>
    2d99: a2 00        	ldx	#$0
    2d9b: 86 4c        	stx	$4c                     ; 0x204c <textPrint+0x6a>
    2d9d: a2 00        	ldx	#$0
    2d9f: 86 4d        	stx	$4d                     ; 0x204d <textPrint+0x6b>
    2da1: a6 91        	ldx	$91                     ; 0x2091 <textPrint+0xaf>
    2da3: 86 51        	stx	$51                     ; 0x2051 <textPrint+0x6f>
    2da5: a2 01        	ldx	#$1
    2da7: 70 02        	bvs	$2dab <printf+0x5a6>
    2da9: a2 00        	ldx	#$0
    2dab: 86 16        	stx	$16                     ; 0x2016 <textPrint+0x34>
    2dad: a5 8e        	lda	$8e                     ; 0x208e <textPrint+0xac>
    2daf: 0a           	asl
    2db0: 0a           	asl
    2db1: 0a           	asl
    2db2: 85 12        	sta	$12                     ; 0x2012 <textPrint+0x30>
    2db4: a2 00        	ldx	#$0
    2db6: 8a           	txa
    2db7: e0 00        	cpx	#$0
    2db9: d0 03        	bne	$2dbe <printf+0x5b9>
    2dbb: 4c 43 2e     	jmp	$2e43 <printf+0x63e>
    2dbe: 85 17        	sta	$17                     ; 0x2017 <textPrint+0x35>
    2dc0: 86 48        	stx	$48                     ; 0x2048 <textPrint+0x66>
    2dc2: ca           	dex
    2dc3: 86 15        	stx	$15                     ; 0x2015 <textPrint+0x33>
    2dc5: a2 00        	ldx	#$0
    2dc7: 64 13        	stz	$13                     ; 0x2013 <textPrint+0x31>
    2dc9: 80 0d        	bra	$2dd8 <printf+0x5d3>
    2dcb: a4 13        	ldy	$13                     ; 0x2013 <textPrint+0x31>
    2dcd: 99 56 00     	sta	$56,y                   ; 0x56 <__rc31+0x27>
    2dd0: a4 15        	ldy	$15                     ; 0x2015 <textPrint+0x33>
    2dd2: c4 13        	cpy	$13                     ; 0x2013 <textPrint+0x31>
    2dd4: f0 38        	beq	$2e0e <printf+0x609>
    2dd6: e6 13        	inc	$13                     ; 0x2013 <textPrint+0x31>
    2dd8: a4 13        	ldy	$13                     ; 0x2013 <textPrint+0x31>
    2dda: b9 56 00     	lda	$56,y                   ; 0x56 <__rc31+0x27>
    2ddd: 0a           	asl
    2dde: e0 00        	cpx	#$0
    2de0: f0 02        	beq	$2de4 <printf+0x5df>
    2de2: 09 01        	ora	#$1
    2de4: a4 8d        	ldy	$8d                     ; 0x208d <textPrint+0xab>
    2de6: 84 14        	sty	$14                     ; 0x2014 <textPrint+0x32>
    2de8: c5 14        	cmp	$14                     ; 0x2014 <textPrint+0x32>
    2dea: a2 01        	ldx	#$1
    2dec: b0 02        	bcs	$2df0 <printf+0x5eb>
    2dee: a2 00        	ldx	#$0
    2df0: 90 d9        	bcc	$2dcb <printf+0x5c6>
    2df2: 84 14        	sty	$14                     ; 0x2014 <textPrint+0x32>
    2df4: 38           	sec
    2df5: e5 14        	sbc	$14                     ; 0x2014 <textPrint+0x32>
    2df7: a4 13        	ldy	$13                     ; 0x2013 <textPrint+0x31>
    2df9: 99 56 00     	sta	$56,y                   ; 0x56 <__rc31+0x27>
    2dfc: a4 15        	ldy	$15                     ; 0x2015 <textPrint+0x33>
    2dfe: c4 13        	cpy	$13                     ; 0x2013 <textPrint+0x31>
    2e00: d0 d4        	bne	$2dd6 <printf+0x5d1>
    2e02: a4 48        	ldy	$48                     ; 0x2048 <textPrint+0x66>
    2e04: a6 48        	ldx	$48                     ; 0x2048 <textPrint+0x66>
    2e06: e8           	inx
    2e07: a9 01        	lda	#$1
    2e09: 99 56 00     	sta	$56,y                   ; 0x56 <__rc31+0x27>
    2e0c: 86 48        	stx	$48                     ; 0x2048 <textPrint+0x66>
    2e0e: a6 8e        	ldx	$8e                     ; 0x208e <textPrint+0xac>
    2e10: b5 6d        	lda	$6d,x                   ; 0x206d <textPrint+0x8b>
    2e12: aa           	tax
    2e13: a0 01        	ldy	#$1
    2e15: 8a           	txa
    2e16: 10 47        	bpl	$2e5f <printf+0x65a>
    2e18: a5 48        	lda	$48                     ; 0x2048 <textPrint+0x66>
    2e1a: f0 34        	beq	$2e50 <printf+0x64b>
    2e1c: a2 00        	ldx	#$0
    2e1e: a4 8d        	ldy	$8d                     ; 0x208d <textPrint+0xab>
    2e20: 84 14        	sty	$14                     ; 0x2014 <textPrint+0x32>
    2e22: b5 56        	lda	$56,x                   ; 0x2056 <textPrint+0x74>
    2e24: 1a           	inc
    2e25: f6 56        	inc	$56,x                   ; 0x2056 <textPrint+0x74>
    2e27: c5 14        	cmp	$14                     ; 0x2014 <textPrint+0x32>
    2e29: b0 03        	bcs	$2e2e <printf+0x629>
    2e2b: 4c 8a 2e     	jmp	$2e8a <printf+0x685>
    2e2e: a4 14        	ldy	$14                     ; 0x2014 <textPrint+0x32>
    2e30: 84 13        	sty	$13                     ; 0x2013 <textPrint+0x31>
    2e32: 38           	sec
    2e33: e5 13        	sbc	$13                     ; 0x2013 <textPrint+0x31>
    2e35: 9d 56 00     	sta	$56,x                   ; 0x56 <__rc31+0x27>
    2e38: e8           	inx
    2e39: 86 13        	stx	$13                     ; 0x2013 <textPrint+0x31>
    2e3b: a4 48        	ldy	$48                     ; 0x2048 <textPrint+0x66>
    2e3d: c4 13        	cpy	$13                     ; 0x2013 <textPrint+0x31>
    2e3f: d0 e1        	bne	$2e22 <printf+0x61d>
    2e41: 80 0f        	bra	$2e52 <printf+0x64d>
    2e43: 85 17        	sta	$17                     ; 0x2017 <textPrint+0x35>
    2e45: a6 8e        	ldx	$8e                     ; 0x208e <textPrint+0xac>
    2e47: b5 6d        	lda	$6d,x                   ; 0x206d <textPrint+0x8b>
    2e49: aa           	tax
    2e4a: 64 48        	stz	$48                     ; 0x2048 <textPrint+0x66>
    2e4c: 30 04        	bmi	$2e52 <printf+0x64d>
    2e4e: 80 0f        	bra	$2e5f <printf+0x65a>
    2e50: 64 48        	stz	$48                     ; 0x2048 <textPrint+0x66>
    2e52: a4 48        	ldy	$48                     ; 0x2048 <textPrint+0x66>
    2e54: a6 48        	ldx	$48                     ; 0x2048 <textPrint+0x66>
    2e56: e8           	inx
    2e57: a9 01        	lda	#$1
    2e59: 99 56 00     	sta	$56,y                   ; 0x56 <__rc31+0x27>
    2e5c: a8           	tay
    2e5d: 86 48        	stx	$48                     ; 0x2048 <textPrint+0x66>
    2e5f: a2 01        	ldx	#$1
    2e61: 64 13        	stz	$13                     ; 0x2013 <textPrint+0x31>
    2e63: a5 8e        	lda	$8e                     ; 0x208e <textPrint+0xac>
    2e65: 85 14        	sta	$14                     ; 0x2014 <textPrint+0x32>
    2e67: b5 6d        	lda	$6d,x                   ; 0x206d <textPrint+0x8b>
    2e69: 0a           	asl
    2e6a: 64 15        	stz	$15                     ; 0x2015 <textPrint+0x33>
    2e6c: 26 15        	rol	$15                     ; 0x2015 <textPrint+0x33>
    2e6e: 05 13        	ora	$13                     ; 0x2013 <textPrint+0x31>
    2e70: 9d 6d 00     	sta	$6d,x                   ; 0x6d <__rc31+0x3e>
    2e73: e8           	inx
    2e74: c6 14        	dec	$14                     ; 0x2014 <textPrint+0x32>
    2e76: a5 15        	lda	$15                     ; 0x2015 <textPrint+0x33>
    2e78: 85 13        	sta	$13                     ; 0x2013 <textPrint+0x31>
    2e7a: a5 14        	lda	$14                     ; 0x2014 <textPrint+0x32>
    2e7c: d0 e9        	bne	$2e67 <printf+0x662>
    2e7e: a5 17        	lda	$17                     ; 0x2017 <textPrint+0x35>
    2e80: 1a           	inc
    2e81: c5 12        	cmp	$12                     ; 0x2012 <textPrint+0x30>
    2e83: a6 48        	ldx	$48                     ; 0x2048 <textPrint+0x66>
    2e85: b0 07        	bcs	$2e8e <printf+0x689>
    2e87: 4c b7 2d     	jmp	$2db7 <printf+0x5b2>
    2e8a: a0 01        	ldy	#$1
    2e8c: 80 d1        	bra	$2e5f <printf+0x65a>
    2e8e: a5 49        	lda	$49                     ; 0x2049 <textPrint+0x67>
    2e90: e6 51        	inc	$51                     ; 0x2051 <textPrint+0x6f>
    2e92: c6 51        	dec	$51                     ; 0x2051 <textPrint+0x6f>
    2e94: 10 08        	bpl	$2e9e <printf+0x699>
    2e96: a2 01        	ldx	#$1
    2e98: 64 51        	stz	$51                     ; 0x2051 <textPrint+0x6f>
    2e9a: 86 50        	stx	$50                     ; 0x2050 <textPrint+0x6e>
    2e9c: a6 48        	ldx	$48                     ; 0x2048 <textPrint+0x66>
    2e9e: 29 04        	and	#$4
    2ea0: f0 2b        	beq	$2ecd <printf+0x6c8>
    2ea2: a5 8d        	lda	$8d                     ; 0x208d <textPrint+0xab>
    2ea4: c9 10        	cmp	#$10
    2ea6: f0 14        	beq	$2ebc <printf+0x6b7>
    2ea8: c9 08        	cmp	#$8
    2eaa: d0 21        	bne	$2ecd <printf+0x6c8>
    2eac: a2 00        	ldx	#$0
    2eae: e4 51        	cpx	$51                     ; 0x2051 <textPrint+0x6f>
    2eb0: f0 03        	beq	$2eb5 <printf+0x6b0>
    2eb2: 4c f9 33     	jmp	$33f9 <printf+0xbf4>
    2eb5: a6 48        	ldx	$48                     ; 0x2048 <textPrint+0x66>
    2eb7: e4 50        	cpx	$50                     ; 0x2050 <textPrint+0x6e>
    2eb9: 4c fb 33     	jmp	$33fb <printf+0xbf6>
    2ebc: 8a           	txa
    2ebd: f0 0e        	beq	$2ecd <printf+0x6c8>
    2ebf: a5 49        	lda	$49                     ; 0x2049 <textPrint+0x67>
    2ec1: 29 80        	and	#$80
    2ec3: d0 03        	bne	$2ec8 <printf+0x6c3>
    2ec5: 4c 14 34     	jmp	$3414 <printf+0xc0f>
    2ec8: a2 78        	ldx	#$78
    2eca: 4c 16 34     	jmp	$3416 <printf+0xc11>
    2ecd: a6 49        	ldx	$49                     ; 0x2049 <textPrint+0x67>
    2ecf: a9 2d        	lda	#$2d
    2ed1: 85 91        	sta	$91                     ; 0x2091 <textPrint+0xaf>
    2ed3: a5 16        	lda	$16                     ; 0x2016 <textPrint+0x34>
    2ed5: d0 32        	bne	$2f09 <printf+0x704>
    2ed7: 86 12        	stx	$12                     ; 0x2012 <textPrint+0x30>
    2ed9: 8a           	txa
    2eda: 29 02        	and	#$2
    2edc: a2 2b        	ldx	#$2b
    2ede: 86 91        	stx	$91                     ; 0x2091 <textPrint+0xaf>
    2ee0: aa           	tax
    2ee1: d0 26        	bne	$2f09 <printf+0x704>
    2ee3: a5 12        	lda	$12                     ; 0x2012 <textPrint+0x30>
    2ee5: 29 08        	and	#$8
    2ee7: d0 1c        	bne	$2f05 <printf+0x700>
    2ee9: a2 01        	ldx	#$1
    2eeb: 86 8e        	stx	$8e                     ; 0x208e <textPrint+0xac>
    2eed: a9 00        	lda	#$0
    2eef: aa           	tax
    2ef0: 86 8d        	stx	$8d                     ; 0x208d <textPrint+0xab>
    2ef2: 80 1c        	bra	$2f10 <printf+0x70b>
    2ef4: 85 12        	sta	$12                     ; 0x2012 <textPrint+0x30>
    2ef6: a9 04        	lda	#$4
    2ef8: 80 04        	bra	$2efe <printf+0x6f9>
    2efa: 85 12        	sta	$12                     ; 0x2012 <textPrint+0x30>
    2efc: a9 02        	lda	#$2
    2efe: 85 8e        	sta	$8e                     ; 0x208e <textPrint+0xac>
    2f00: a5 12        	lda	$12                     ; 0x2012 <textPrint+0x30>
    2f02: 4c c1 2b     	jmp	$2bc1 <printf+0x3bc>
    2f05: a2 20        	ldx	#$20
    2f07: 86 91        	stx	$91                     ; 0x2091 <textPrint+0xaf>
    2f09: a2 00        	ldx	#$0
    2f0b: 86 8e        	stx	$8e                     ; 0x208e <textPrint+0xac>
    2f0d: 86 8d        	stx	$8d                     ; 0x208d <textPrint+0xab>
    2f0f: 98           	tya
    2f10: a6 51        	ldx	$51                     ; 0x2051 <textPrint+0x6f>
    2f12: d0 35        	bne	$2f49 <printf+0x744>
    2f14: a6 50        	ldx	$50                     ; 0x2050 <textPrint+0x6e>
    2f16: a4 48        	ldy	$48                     ; 0x2048 <textPrint+0x66>
    2f18: 84 12        	sty	$12                     ; 0x2012 <textPrint+0x30>
    2f1a: e4 12        	cpx	$12                     ; 0x2012 <textPrint+0x30>
    2f1c: a6 50        	ldx	$50                     ; 0x2050 <textPrint+0x6e>
    2f1e: 86 12        	stx	$12                     ; 0x2012 <textPrint+0x30>
    2f20: a6 51        	ldx	$51                     ; 0x2051 <textPrint+0x6f>
    2f22: 86 13        	stx	$13                     ; 0x2013 <textPrint+0x31>
    2f24: b0 04        	bcs	$2f2a <printf+0x725>
    2f26: 84 12        	sty	$12                     ; 0x2012 <textPrint+0x30>
    2f28: 64 13        	stz	$13                     ; 0x2013 <textPrint+0x31>
    2f2a: 85 18        	sta	$18                     ; 0x2018 <textPrint+0x36>
    2f2c: 18           	clc
    2f2d: 65 12        	adc	$12                     ; 0x2012 <textPrint+0x30>
    2f2f: 85 16        	sta	$16                     ; 0x2016 <textPrint+0x34>
    2f31: 85 14        	sta	$14                     ; 0x2014 <textPrint+0x32>
    2f33: a5 13        	lda	$13                     ; 0x2013 <textPrint+0x31>
    2f35: 69 00        	adc	#$0
    2f37: 85 15        	sta	$15                     ; 0x2015 <textPrint+0x33>
    2f39: c5 1a        	cmp	$1a                     ; 0x201a <textPrint+0x38>
    2f3b: d0 1e        	bne	$2f5b <printf+0x756>
    2f3d: a6 1a        	ldx	$1a                     ; 0x201a <textPrint+0x38>
    2f3f: 86 17        	stx	$17                     ; 0x2017 <textPrint+0x35>
    2f41: a6 52        	ldx	$52                     ; 0x2052 <textPrint+0x70>
    2f43: a5 16        	lda	$16                     ; 0x2016 <textPrint+0x34>
    2f45: c5 52        	cmp	$52                     ; 0x2052 <textPrint+0x70>
    2f47: 80 1c        	bra	$2f65 <printf+0x760>
    2f49: a6 51        	ldx	$51                     ; 0x2051 <textPrint+0x6f>
    2f4b: e0 00        	cpx	#$0
    2f4d: a6 50        	ldx	$50                     ; 0x2050 <textPrint+0x6e>
    2f4f: 86 12        	stx	$12                     ; 0x2012 <textPrint+0x30>
    2f51: a6 51        	ldx	$51                     ; 0x2051 <textPrint+0x6f>
    2f53: 86 13        	stx	$13                     ; 0x2013 <textPrint+0x31>
    2f55: a4 48        	ldy	$48                     ; 0x2048 <textPrint+0x66>
    2f57: 90 cd        	bcc	$2f26 <printf+0x721>
    2f59: 80 cf        	bra	$2f2a <printf+0x725>
    2f5b: a6 52        	ldx	$52                     ; 0x2052 <textPrint+0x70>
    2f5d: 5a           	phy
    2f5e: a4 1a        	ldy	$1a                     ; 0x201a <textPrint+0x38>
    2f60: 84 17        	sty	$17                     ; 0x2017 <textPrint+0x35>
    2f62: 7a           	ply
    2f63: c5 1a        	cmp	$1a                     ; 0x201a <textPrint+0x38>
    2f65: 64 53        	stz	$53                     ; 0x2053 <textPrint+0x71>
    2f67: 64 52        	stz	$52                     ; 0x2052 <textPrint+0x70>
    2f69: 90 03        	bcc	$2f6e <printf+0x769>
    2f6b: 4c 0f 30     	jmp	$300f <printf+0x80a>
    2f6e: a5 49        	lda	$49                     ; 0x2049 <textPrint+0x67>
    2f70: 29 11        	and	#$11
    2f72: 86 16        	stx	$16                     ; 0x2016 <textPrint+0x34>
    2f74: f0 0f        	beq	$2f85 <printf+0x780>
    2f76: 8a           	txa
    2f77: 38           	sec
    2f78: e5 14        	sbc	$14                     ; 0x2014 <textPrint+0x32>
    2f7a: 85 53        	sta	$53                     ; 0x2053 <textPrint+0x71>
    2f7c: a5 1a        	lda	$1a                     ; 0x201a <textPrint+0x38>
    2f7e: e5 15        	sbc	$15                     ; 0x2015 <textPrint+0x33>
    2f80: 85 52        	sta	$52                     ; 0x2052 <textPrint+0x70>
    2f82: 4c 0f 30     	jmp	$300f <printf+0x80a>
    2f85: a6 7d        	ldx	$7d                     ; 0x207d <textPrint+0x9b>
    2f87: 86 14        	stx	$14                     ; 0x2014 <textPrint+0x32>
    2f89: 38           	sec
    2f8a: a5 18        	lda	$18                     ; 0x2018 <textPrint+0x36>
    2f8c: e5 16        	sbc	$16                     ; 0x2016 <textPrint+0x34>
    2f8e: aa           	tax
    2f8f: a9 00        	lda	#$0
    2f91: e5 17        	sbc	$17                     ; 0x2017 <textPrint+0x35>
    2f93: a8           	tay
    2f94: 18           	clc
    2f95: 8a           	txa
    2f96: 65 12        	adc	$12                     ; 0x2012 <textPrint+0x30>
    2f98: 85 49        	sta	$49                     ; 0x2049 <textPrint+0x67>
    2f9a: 98           	tya
    2f9b: 65 13        	adc	$13                     ; 0x2013 <textPrint+0x31>
    2f9d: a4 7e        	ldy	$7e                     ; 0x207e <textPrint+0x9c>
    2f9f: 4c f3 2f     	jmp	$2ff3 <printf+0x7ee>
    2fa2: c4 7c        	cpy	$7c                     ; 0x207c <textPrint+0x9a>
    2fa4: b0 2f        	bcs	$2fd5 <printf+0x7d0>
    2fa6: a6 88        	ldx	$88                     ; 0x2088 <textPrint+0xa6>
    2fa8: e4 4d        	cpx	$4d                     ; 0x204d <textPrint+0x6b>
    2faa: d0 18        	bne	$2fc4 <printf+0x7bf>
    2fac: a6 87        	ldx	$87                     ; 0x2087 <textPrint+0xa5>
    2fae: e4 4c        	cpx	$4c                     ; 0x204c <textPrint+0x6a>
    2fb0: d0 12        	bne	$2fc4 <printf+0x7bf>
    2fb2: 18           	clc
    2fb3: a5 14        	lda	$14                     ; 0x2014 <textPrint+0x32>
    2fb5: 65 81        	adc	$81                     ; 0x2081 <textPrint+0x9f>
    2fb7: 85 12        	sta	$12                     ; 0x2012 <textPrint+0x30>
    2fb9: 98           	tya
    2fba: 65 82        	adc	$82                     ; 0x2082 <textPrint+0xa0>
    2fbc: 85 13        	sta	$13                     ; 0x2013 <textPrint+0x31>
    2fbe: a9 20        	lda	#$20
    2fc0: 92 12        	sta	($12)                   ; 0x2012 <textPrint+0x30>
    2fc2: 80 0f        	bra	$2fd3 <printf+0x7ce>
    2fc4: a2 20        	ldx	#$20
    2fc6: 86 41        	stx	$41                     ; 0x2041 <textPrint+0x5f>
    2fc8: a2 41        	ldx	#$41
    2fca: 86 12        	stx	$12                     ; 0x2012 <textPrint+0x30>
    2fcc: a2 00        	ldx	#$0
    2fce: 86 13        	stx	$13                     ; 0x2013 <textPrint+0x31>
    2fd0: 20 e2 1f     	jsr	$1fe2 <textPrint>
    2fd3: a5 52        	lda	$52                     ; 0x2052 <textPrint+0x70>
    2fd5: a6 7d        	ldx	$7d                     ; 0x207d <textPrint+0x9b>
    2fd7: a4 7e        	ldy	$7e                     ; 0x207e <textPrint+0x9c>
    2fd9: e8           	inx
    2fda: d0 01        	bne	$2fdd <printf+0x7d8>
    2fdc: c8           	iny
    2fdd: 86 14        	stx	$14                     ; 0x2014 <textPrint+0x32>
    2fdf: 86 7d        	stx	$7d                     ; 0x207d <textPrint+0x9b>
    2fe1: 84 7e        	sty	$7e                     ; 0x207e <textPrint+0x9c>
    2fe3: a6 49        	ldx	$49                     ; 0x2049 <textPrint+0x67>
    2fe5: e8           	inx
    2fe6: d0 01        	bne	$2fe9 <printf+0x7e4>
    2fe8: 1a           	inc
    2fe9: 86 49        	stx	$49                     ; 0x2049 <textPrint+0x67>
    2feb: c9 00        	cmp	#$0
    2fed: d0 04        	bne	$2ff3 <printf+0x7ee>
    2fef: e0 00        	cpx	#$0
    2ff1: f0 16        	beq	$3009 <printf+0x804>
    2ff3: 85 52        	sta	$52                     ; 0x2052 <textPrint+0x70>
    2ff5: c4 7c        	cpy	$7c                     ; 0x207c <textPrint+0x9a>
    2ff7: f0 03        	beq	$2ffc <printf+0x7f7>
    2ff9: 4c a2 2f     	jmp	$2fa2 <printf+0x79d>
    2ffc: a6 7b        	ldx	$7b                     ; 0x207b <textPrint+0x99>
    2ffe: 86 12        	stx	$12                     ; 0x2012 <textPrint+0x30>
    3000: a6 14        	ldx	$14                     ; 0x2014 <textPrint+0x32>
    3002: e4 12        	cpx	$12                     ; 0x2012 <textPrint+0x30>
    3004: b0 cf        	bcs	$2fd5 <printf+0x7d0>
    3006: 4c a6 2f     	jmp	$2fa6 <printf+0x7a1>
    3009: 64 53        	stz	$53                     ; 0x2053 <textPrint+0x71>
    300b: 64 52        	stz	$52                     ; 0x2052 <textPrint+0x70>
    300d: a4 48        	ldy	$48                     ; 0x2048 <textPrint+0x66>
    300f: a6 8e        	ldx	$8e                     ; 0x208e <textPrint+0xac>
    3011: f0 03        	beq	$3016 <printf+0x811>
    3013: 4c 6d 30     	jmp	$306d <printf+0x868>
    3016: a6 7d        	ldx	$7d                     ; 0x207d <textPrint+0x9b>
    3018: a5 7e        	lda	$7e                     ; 0x207e <textPrint+0x9c>
    301a: c5 7c        	cmp	$7c                     ; 0x207c <textPrint+0x9a>
    301c: d0 10        	bne	$302e <printf+0x829>
    301e: 86 13        	stx	$13                     ; 0x2013 <textPrint+0x31>
    3020: a6 7b        	ldx	$7b                     ; 0x207b <textPrint+0x99>
    3022: 86 12        	stx	$12                     ; 0x2012 <textPrint+0x30>
    3024: a4 48        	ldy	$48                     ; 0x2048 <textPrint+0x66>
    3026: a6 13        	ldx	$13                     ; 0x2013 <textPrint+0x31>
    3028: e4 12        	cpx	$12                     ; 0x2012 <textPrint+0x30>
    302a: 90 08        	bcc	$3034 <printf+0x82f>
    302c: 80 39        	bra	$3067 <printf+0x862>
    302e: 86 13        	stx	$13                     ; 0x2013 <textPrint+0x31>
    3030: c5 7c        	cmp	$7c                     ; 0x207c <textPrint+0x9a>
    3032: b0 33        	bcs	$3067 <printf+0x862>
    3034: a6 88        	ldx	$88                     ; 0x2088 <textPrint+0xa6>
    3036: e4 4d        	cpx	$4d                     ; 0x204d <textPrint+0x6b>
    3038: d0 1c        	bne	$3056 <printf+0x851>
    303a: a6 87        	ldx	$87                     ; 0x2087 <textPrint+0xa5>
    303c: e4 4c        	cpx	$4c                     ; 0x204c <textPrint+0x6a>
    303e: d0 16        	bne	$3056 <printf+0x851>
    3040: 18           	clc
    3041: 85 12        	sta	$12                     ; 0x2012 <textPrint+0x30>
    3043: a5 13        	lda	$13                     ; 0x2013 <textPrint+0x31>
    3045: 65 81        	adc	$81                     ; 0x2081 <textPrint+0x9f>
    3047: aa           	tax
    3048: a5 12        	lda	$12                     ; 0x2012 <textPrint+0x30>
    304a: 65 82        	adc	$82                     ; 0x2082 <textPrint+0xa0>
    304c: 86 12        	stx	$12                     ; 0x2012 <textPrint+0x30>
    304e: 85 13        	sta	$13                     ; 0x2013 <textPrint+0x31>
    3050: a5 91        	lda	$91                     ; 0x2091 <textPrint+0xaf>
    3052: 92 12        	sta	($12)                   ; 0x2012 <textPrint+0x30>
    3054: 80 0f        	bra	$3065 <printf+0x860>
    3056: a6 91        	ldx	$91                     ; 0x2091 <textPrint+0xaf>
    3058: 86 41        	stx	$41                     ; 0x2041 <textPrint+0x5f>
    305a: a2 41        	ldx	#$41
    305c: 86 12        	stx	$12                     ; 0x2012 <textPrint+0x30>
    305e: a2 00        	ldx	#$0
    3060: 86 13        	stx	$13                     ; 0x2013 <textPrint+0x31>
    3062: 20 e2 1f     	jsr	$1fe2 <textPrint>
    3065: a4 48        	ldy	$48                     ; 0x2048 <textPrint+0x66>
    3067: e6 7d        	inc	$7d                     ; 0x207d <textPrint+0x9b>
    3069: d0 02        	bne	$306d <printf+0x868>
    306b: e6 7e        	inc	$7e                     ; 0x207e <textPrint+0x9c>
    306d: a6 8d        	ldx	$8d                     ; 0x208d <textPrint+0xab>
    306f: d0 03        	bne	$3074 <printf+0x86f>
    3071: 4c cb 30     	jmp	$30cb <printf+0x8c6>
    3074: a6 7d        	ldx	$7d                     ; 0x207d <textPrint+0x9b>
    3076: a5 7e        	lda	$7e                     ; 0x207e <textPrint+0x9c>
    3078: c5 7c        	cmp	$7c                     ; 0x207c <textPrint+0x9a>
    307a: d0 10        	bne	$308c <printf+0x887>
    307c: 86 13        	stx	$13                     ; 0x2013 <textPrint+0x31>
    307e: a6 7b        	ldx	$7b                     ; 0x207b <textPrint+0x99>
    3080: 86 12        	stx	$12                     ; 0x2012 <textPrint+0x30>
    3082: a4 48        	ldy	$48                     ; 0x2048 <textPrint+0x66>
    3084: a6 13        	ldx	$13                     ; 0x2013 <textPrint+0x31>
    3086: e4 12        	cpx	$12                     ; 0x2012 <textPrint+0x30>
    3088: 90 08        	bcc	$3092 <printf+0x88d>
    308a: 80 39        	bra	$30c5 <printf+0x8c0>
    308c: 86 13        	stx	$13                     ; 0x2013 <textPrint+0x31>
    308e: c5 7c        	cmp	$7c                     ; 0x207c <textPrint+0x9a>
    3090: b0 33        	bcs	$30c5 <printf+0x8c0>
    3092: a6 88        	ldx	$88                     ; 0x2088 <textPrint+0xa6>
    3094: e4 4d        	cpx	$4d                     ; 0x204d <textPrint+0x6b>
    3096: d0 1c        	bne	$30b4 <printf+0x8af>
    3098: a6 87        	ldx	$87                     ; 0x2087 <textPrint+0xa5>
    309a: e4 4c        	cpx	$4c                     ; 0x204c <textPrint+0x6a>
    309c: d0 16        	bne	$30b4 <printf+0x8af>
    309e: 18           	clc
    309f: 85 12        	sta	$12                     ; 0x2012 <textPrint+0x30>
    30a1: a5 13        	lda	$13                     ; 0x2013 <textPrint+0x31>
    30a3: 65 81        	adc	$81                     ; 0x2081 <textPrint+0x9f>
    30a5: aa           	tax
    30a6: a5 12        	lda	$12                     ; 0x2012 <textPrint+0x30>
    30a8: 65 82        	adc	$82                     ; 0x2082 <textPrint+0xa0>
    30aa: 86 12        	stx	$12                     ; 0x2012 <textPrint+0x30>
    30ac: 85 13        	sta	$13                     ; 0x2013 <textPrint+0x31>
    30ae: a5 92        	lda	$92                     ; 0x2092 <textPrint+0xb0>
    30b0: 92 12        	sta	($12)                   ; 0x2012 <textPrint+0x30>
    30b2: 80 0f        	bra	$30c3 <printf+0x8be>
    30b4: a6 92        	ldx	$92                     ; 0x2092 <textPrint+0xb0>
    30b6: 86 41        	stx	$41                     ; 0x2041 <textPrint+0x5f>
    30b8: a2 41        	ldx	#$41
    30ba: 86 12        	stx	$12                     ; 0x2012 <textPrint+0x30>
    30bc: a2 00        	ldx	#$0
    30be: 86 13        	stx	$13                     ; 0x2013 <textPrint+0x31>
    30c0: 20 e2 1f     	jsr	$1fe2 <textPrint>
    30c3: a4 48        	ldy	$48                     ; 0x2048 <textPrint+0x66>
    30c5: e6 7d        	inc	$7d                     ; 0x207d <textPrint+0x9b>
    30c7: d0 02        	bne	$30cb <printf+0x8c6>
    30c9: e6 7e        	inc	$7e                     ; 0x207e <textPrint+0x9c>
    30cb: a9 10        	lda	#$10
    30cd: 25 79        	and	$79                     ; 0x2079 <textPrint+0x97>
    30cf: d0 03        	bne	$30d4 <printf+0x8cf>
    30d1: 4c 65 31     	jmp	$3165 <printf+0x960>
    30d4: a5 79        	lda	$79                     ; 0x2079 <textPrint+0x97>
    30d6: 29 01        	and	#$1
    30d8: f0 03        	beq	$30dd <printf+0x8d8>
    30da: 4c 65 31     	jmp	$3165 <printf+0x960>
    30dd: a6 53        	ldx	$53                     ; 0x2053 <textPrint+0x71>
    30df: a5 52        	lda	$52                     ; 0x2052 <textPrint+0x70>
    30e1: d0 06        	bne	$30e9 <printf+0x8e4>
    30e3: 8a           	txa
    30e4: d0 03        	bne	$30e9 <printf+0x8e4>
    30e6: 4c 29 34     	jmp	$3429 <printf+0xc24>
    30e9: a6 7d        	ldx	$7d                     ; 0x207d <textPrint+0x9b>
    30eb: 86 13        	stx	$13                     ; 0x2013 <textPrint+0x31>
    30ed: a5 7e        	lda	$7e                     ; 0x207e <textPrint+0x9c>
    30ef: 4c 4b 31     	jmp	$314b <printf+0x946>
    30f2: c5 7c        	cmp	$7c                     ; 0x207c <textPrint+0x9a>
    30f4: b0 2e        	bcs	$3124 <printf+0x91f>
    30f6: a6 88        	ldx	$88                     ; 0x2088 <textPrint+0xa6>
    30f8: e4 4d        	cpx	$4d                     ; 0x204d <textPrint+0x6b>
    30fa: d0 19        	bne	$3115 <printf+0x910>
    30fc: a6 87        	ldx	$87                     ; 0x2087 <textPrint+0xa5>
    30fe: e4 4c        	cpx	$4c                     ; 0x204c <textPrint+0x6a>
    3100: d0 13        	bne	$3115 <printf+0x910>
    3102: 18           	clc
    3103: aa           	tax
    3104: a5 13        	lda	$13                     ; 0x2013 <textPrint+0x31>
    3106: 65 81        	adc	$81                     ; 0x2081 <textPrint+0x9f>
    3108: 85 12        	sta	$12                     ; 0x2012 <textPrint+0x30>
    310a: 8a           	txa
    310b: 65 82        	adc	$82                     ; 0x2082 <textPrint+0xa0>
    310d: 85 13        	sta	$13                     ; 0x2013 <textPrint+0x31>
    310f: a9 30        	lda	#$30
    3111: 92 12        	sta	($12)                   ; 0x2012 <textPrint+0x30>
    3113: 80 0f        	bra	$3124 <printf+0x91f>
    3115: a2 30        	ldx	#$30
    3117: 86 41        	stx	$41                     ; 0x2041 <textPrint+0x5f>
    3119: a2 41        	ldx	#$41
    311b: 86 12        	stx	$12                     ; 0x2012 <textPrint+0x30>
    311d: a2 00        	ldx	#$0
    311f: 86 13        	stx	$13                     ; 0x2013 <textPrint+0x31>
    3121: 20 e2 1f     	jsr	$1fe2 <textPrint>
    3124: a6 7d        	ldx	$7d                     ; 0x207d <textPrint+0x9b>
    3126: a5 7e        	lda	$7e                     ; 0x207e <textPrint+0x9c>
    3128: e8           	inx
    3129: d0 01        	bne	$312c <printf+0x927>
    312b: 1a           	inc
    312c: 86 13        	stx	$13                     ; 0x2013 <textPrint+0x31>
    312e: 86 7d        	stx	$7d                     ; 0x207d <textPrint+0x9b>
    3130: 85 7e        	sta	$7e                     ; 0x207e <textPrint+0x9c>
    3132: a4 53        	ldy	$53                     ; 0x2053 <textPrint+0x71>
    3134: a6 52        	ldx	$52                     ; 0x2052 <textPrint+0x70>
    3136: 86 12        	stx	$12                     ; 0x2012 <textPrint+0x30>
    3138: 88           	dey
    3139: c0 ff        	cpy	#$ff
    313b: d0 02        	bne	$313f <printf+0x93a>
    313d: c6 12        	dec	$12                     ; 0x2012 <textPrint+0x30>
    313f: 84 53        	sty	$53                     ; 0x2053 <textPrint+0x71>
    3141: a6 12        	ldx	$12                     ; 0x2012 <textPrint+0x30>
    3143: 86 52        	stx	$52                     ; 0x2052 <textPrint+0x70>
    3145: d0 04        	bne	$314b <printf+0x946>
    3147: c0 00        	cpy	#$0
    3149: f0 14        	beq	$315f <printf+0x95a>
    314b: c5 7c        	cmp	$7c                     ; 0x207c <textPrint+0x9a>
    314d: f0 03        	beq	$3152 <printf+0x94d>
    314f: 4c f2 30     	jmp	$30f2 <printf+0x8ed>
    3152: a6 7b        	ldx	$7b                     ; 0x207b <textPrint+0x99>
    3154: 86 12        	stx	$12                     ; 0x2012 <textPrint+0x30>
    3156: a6 13        	ldx	$13                     ; 0x2013 <textPrint+0x31>
    3158: e4 12        	cpx	$12                     ; 0x2012 <textPrint+0x30>
    315a: b0 c8        	bcs	$3124 <printf+0x91f>
    315c: 4c f6 30     	jmp	$30f6 <printf+0x8f1>
    315f: 64 53        	stz	$53                     ; 0x2053 <textPrint+0x71>
    3161: 64 52        	stz	$52                     ; 0x2052 <textPrint+0x70>
    3163: a4 48        	ldy	$48                     ; 0x2048 <textPrint+0x66>
    3165: a2 00        	ldx	#$0
    3167: e4 51        	cpx	$51                     ; 0x2051 <textPrint+0x6f>
    3169: d0 07        	bne	$3172 <printf+0x96d>
    316b: c4 50        	cpy	$50                     ; 0x2050 <textPrint+0x6e>
    316d: 90 0a        	bcc	$3179 <printf+0x974>
    316f: 4c f1 31     	jmp	$31f1 <printf+0x9ec>
    3172: e4 51        	cpx	$51                     ; 0x2051 <textPrint+0x6f>
    3174: 90 03        	bcc	$3179 <printf+0x974>
    3176: 4c f1 31     	jmp	$31f1 <printf+0x9ec>
    3179: a6 7d        	ldx	$7d                     ; 0x207d <textPrint+0x9b>
    317b: 86 13        	stx	$13                     ; 0x2013 <textPrint+0x31>
    317d: a5 7e        	lda	$7e                     ; 0x207e <textPrint+0x9c>
    317f: a2 ff        	ldx	#$ff
    3181: c6 50        	dec	$50                     ; 0x2050 <textPrint+0x6e>
    3183: e4 50        	cpx	$50                     ; 0x2050 <textPrint+0x6e>
    3185: d0 02        	bne	$3189 <printf+0x984>
    3187: c6 51        	dec	$51                     ; 0x2051 <textPrint+0x6f>
    3189: c5 7c        	cmp	$7c                     ; 0x207c <textPrint+0x9a>
    318b: d0 0c        	bne	$3199 <printf+0x994>
    318d: a6 7b        	ldx	$7b                     ; 0x207b <textPrint+0x99>
    318f: 86 12        	stx	$12                     ; 0x2012 <textPrint+0x30>
    3191: a6 13        	ldx	$13                     ; 0x2013 <textPrint+0x31>
    3193: e4 12        	cpx	$12                     ; 0x2012 <textPrint+0x30>
    3195: 90 06        	bcc	$319d <printf+0x998>
    3197: 80 32        	bra	$31cb <printf+0x9c6>
    3199: c5 7c        	cmp	$7c                     ; 0x207c <textPrint+0x9a>
    319b: b0 2e        	bcs	$31cb <printf+0x9c6>
    319d: a6 88        	ldx	$88                     ; 0x2088 <textPrint+0xa6>
    319f: e4 4d        	cpx	$4d                     ; 0x204d <textPrint+0x6b>
    31a1: d0 19        	bne	$31bc <printf+0x9b7>
    31a3: a6 87        	ldx	$87                     ; 0x2087 <textPrint+0xa5>
    31a5: e4 4c        	cpx	$4c                     ; 0x204c <textPrint+0x6a>
    31a7: d0 13        	bne	$31bc <printf+0x9b7>
    31a9: 18           	clc
    31aa: aa           	tax
    31ab: a5 13        	lda	$13                     ; 0x2013 <textPrint+0x31>
    31ad: 65 81        	adc	$81                     ; 0x2081 <textPrint+0x9f>
    31af: 85 12        	sta	$12                     ; 0x2012 <textPrint+0x30>
    31b1: 8a           	txa
    31b2: 65 82        	adc	$82                     ; 0x2082 <textPrint+0xa0>
    31b4: 85 13        	sta	$13                     ; 0x2013 <textPrint+0x31>
    31b6: a9 30        	lda	#$30
    31b8: 92 12        	sta	($12)                   ; 0x2012 <textPrint+0x30>
    31ba: 80 0f        	bra	$31cb <printf+0x9c6>
    31bc: a2 30        	ldx	#$30
    31be: 86 41        	stx	$41                     ; 0x2041 <textPrint+0x5f>
    31c0: a2 41        	ldx	#$41
    31c2: 86 12        	stx	$12                     ; 0x2012 <textPrint+0x30>
    31c4: a2 00        	ldx	#$0
    31c6: 86 13        	stx	$13                     ; 0x2013 <textPrint+0x31>
    31c8: 20 e2 1f     	jsr	$1fe2 <textPrint>
    31cb: a6 7d        	ldx	$7d                     ; 0x207d <textPrint+0x9b>
    31cd: a5 7e        	lda	$7e                     ; 0x207e <textPrint+0x9c>
    31cf: e8           	inx
    31d0: d0 01        	bne	$31d3 <printf+0x9ce>
    31d2: 1a           	inc
    31d3: 86 13        	stx	$13                     ; 0x2013 <textPrint+0x31>
    31d5: 86 7d        	stx	$7d                     ; 0x207d <textPrint+0x9b>
    31d7: 85 7e        	sta	$7e                     ; 0x207e <textPrint+0x9c>
    31d9: a2 00        	ldx	#$0
    31db: e4 51        	cpx	$51                     ; 0x2051 <textPrint+0x6f>
    31dd: d0 09        	bne	$31e8 <printf+0x9e3>
    31df: a4 48        	ldy	$48                     ; 0x2048 <textPrint+0x66>
    31e1: c4 50        	cpy	$50                     ; 0x2050 <textPrint+0x6e>
    31e3: b0 0c        	bcs	$31f1 <printf+0x9ec>
    31e5: 4c 7f 31     	jmp	$317f <printf+0x97a>
    31e8: e4 51        	cpx	$51                     ; 0x2051 <textPrint+0x6f>
    31ea: a4 48        	ldy	$48                     ; 0x2048 <textPrint+0x66>
    31ec: b0 03        	bcs	$31f1 <printf+0x9ec>
    31ee: 4c 7f 31     	jmp	$317f <printf+0x97a>
    31f1: 98           	tya
    31f2: d0 03        	bne	$31f7 <printf+0x9f2>
    31f4: 4c fa 32     	jmp	$32fa <printf+0xaf5>
    31f7: 88           	dey
    31f8: d0 03        	bne	$31fd <printf+0x9f8>
    31fa: 4c 8f 32     	jmp	$328f <printf+0xa8a>
    31fd: 84 50        	sty	$50                     ; 0x2050 <textPrint+0x6e>
    31ff: a6 93        	ldx	$93                     ; 0x2093 <textPrint+0xb1>
    3201: 8a           	txa
    3202: 18           	clc
    3203: 65 50        	adc	$50                     ; 0x2050 <textPrint+0x6e>
    3205: 85 48        	sta	$48                     ; 0x2048 <textPrint+0x66>
    3207: a5 94        	lda	$94                     ; 0x2094 <textPrint+0xb2>
    3209: 69 00        	adc	#$0
    320b: 85 49        	sta	$49                     ; 0x2049 <textPrint+0x67>
    320d: 4c 81 32     	jmp	$3281 <printf+0xa7c>
    3210: a8           	tay
    3211: a9 80        	lda	#$80
    3213: 25 79        	and	$79                     ; 0x2079 <textPrint+0x97>
    3215: f0 04        	beq	$321b <printf+0xa16>
    3217: a2 61        	ldx	#$61
    3219: 80 02        	bra	$321d <printf+0xa18>
    321b: a2 41        	ldx	#$41
    321d: 86 12        	stx	$12                     ; 0x2012 <textPrint+0x30>
    321f: 18           	clc
    3220: 98           	tya
    3221: 65 12        	adc	$12                     ; 0x2012 <textPrint+0x30>
    3223: 18           	clc
    3224: 69 f6        	adc	#$f6
    3226: a4 7d        	ldy	$7d                     ; 0x207d <textPrint+0x9b>
    3228: a6 7e        	ldx	$7e                     ; 0x207e <textPrint+0x9c>
    322a: e4 7c        	cpx	$7c                     ; 0x207c <textPrint+0x9a>
    322c: d0 0c        	bne	$323a <printf+0xa35>
    322e: 86 14        	stx	$14                     ; 0x2014 <textPrint+0x32>
    3230: a6 7b        	ldx	$7b                     ; 0x207b <textPrint+0x99>
    3232: 86 12        	stx	$12                     ; 0x2012 <textPrint+0x30>
    3234: c4 12        	cpy	$12                     ; 0x2012 <textPrint+0x30>
    3236: 90 08        	bcc	$3240 <printf+0xa3b>
    3238: 80 31        	bra	$326b <printf+0xa66>
    323a: 86 14        	stx	$14                     ; 0x2014 <textPrint+0x32>
    323c: e4 7c        	cpx	$7c                     ; 0x207c <textPrint+0x9a>
    323e: b0 2b        	bcs	$326b <printf+0xa66>
    3240: a6 88        	ldx	$88                     ; 0x2088 <textPrint+0xa6>
    3242: e4 4d        	cpx	$4d                     ; 0x204d <textPrint+0x6b>
    3244: d0 18        	bne	$325e <printf+0xa59>
    3246: a6 87        	ldx	$87                     ; 0x2087 <textPrint+0xa5>
    3248: e4 4c        	cpx	$4c                     ; 0x204c <textPrint+0x6a>
    324a: d0 12        	bne	$325e <printf+0xa59>
    324c: 18           	clc
    324d: aa           	tax
    324e: 98           	tya
    324f: 65 81        	adc	$81                     ; 0x2081 <textPrint+0x9f>
    3251: 85 12        	sta	$12                     ; 0x2012 <textPrint+0x30>
    3253: a5 14        	lda	$14                     ; 0x2014 <textPrint+0x32>
    3255: 65 82        	adc	$82                     ; 0x2082 <textPrint+0xa0>
    3257: 85 13        	sta	$13                     ; 0x2013 <textPrint+0x31>
    3259: 8a           	txa
    325a: 92 12        	sta	($12)                   ; 0x2012 <textPrint+0x30>
    325c: 80 0d        	bra	$326b <printf+0xa66>
    325e: 85 41        	sta	$41                     ; 0x2041 <textPrint+0x5f>
    3260: a2 41        	ldx	#$41
    3262: 86 12        	stx	$12                     ; 0x2012 <textPrint+0x30>
    3264: a2 00        	ldx	#$0
    3266: 86 13        	stx	$13                     ; 0x2013 <textPrint+0x31>
    3268: 20 e2 1f     	jsr	$1fe2 <textPrint>
    326b: e6 7d        	inc	$7d                     ; 0x207d <textPrint+0x9b>
    326d: d0 02        	bne	$3271 <printf+0xa6c>
    326f: e6 7e        	inc	$7e                     ; 0x207e <textPrint+0x9c>
    3271: c6 50        	dec	$50                     ; 0x2050 <textPrint+0x6e>
    3273: a2 ff        	ldx	#$ff
    3275: c6 48        	dec	$48                     ; 0x2048 <textPrint+0x66>
    3277: e4 48        	cpx	$48                     ; 0x2048 <textPrint+0x66>
    3279: d0 02        	bne	$327d <printf+0xa78>
    327b: c6 49        	dec	$49                     ; 0x2049 <textPrint+0x67>
    327d: a5 50        	lda	$50                     ; 0x2050 <textPrint+0x6e>
    327f: f0 0e        	beq	$328f <printf+0xa8a>
    3281: b2 48        	lda	($48)                   ; 0x2048 <textPrint+0x66>
    3283: c9 0a        	cmp	#$a
    3285: 90 03        	bcc	$328a <printf+0xa85>
    3287: 4c 10 32     	jmp	$3210 <printf+0xa0b>
    328a: 09 30        	ora	#$30
    328c: 4c 26 32     	jmp	$3226 <printf+0xa21>
    328f: a5 56        	lda	$56                     ; 0x2056 <textPrint+0x74>
    3291: c9 0a        	cmp	#$a
    3293: b0 04        	bcs	$3299 <printf+0xa94>
    3295: 09 30        	ora	#$30
    3297: 80 16        	bra	$32af <printf+0xaaa>
    3299: a8           	tay
    329a: a9 80        	lda	#$80
    329c: 25 79        	and	$79                     ; 0x2079 <textPrint+0x97>
    329e: f0 04        	beq	$32a4 <printf+0xa9f>
    32a0: a2 61        	ldx	#$61
    32a2: 80 02        	bra	$32a6 <printf+0xaa1>
    32a4: a2 41        	ldx	#$41
    32a6: 86 12        	stx	$12                     ; 0x2012 <textPrint+0x30>
    32a8: 18           	clc
    32a9: 98           	tya
    32aa: 65 12        	adc	$12                     ; 0x2012 <textPrint+0x30>
    32ac: 18           	clc
    32ad: 69 f6        	adc	#$f6
    32af: a4 7d        	ldy	$7d                     ; 0x207d <textPrint+0x9b>
    32b1: a6 7e        	ldx	$7e                     ; 0x207e <textPrint+0x9c>
    32b3: e4 7c        	cpx	$7c                     ; 0x207c <textPrint+0x9a>
    32b5: d0 0c        	bne	$32c3 <printf+0xabe>
    32b7: 86 14        	stx	$14                     ; 0x2014 <textPrint+0x32>
    32b9: a6 7b        	ldx	$7b                     ; 0x207b <textPrint+0x99>
    32bb: 86 12        	stx	$12                     ; 0x2012 <textPrint+0x30>
    32bd: c4 12        	cpy	$12                     ; 0x2012 <textPrint+0x30>
    32bf: 90 08        	bcc	$32c9 <printf+0xac4>
    32c1: 80 31        	bra	$32f4 <printf+0xaef>
    32c3: 86 14        	stx	$14                     ; 0x2014 <textPrint+0x32>
    32c5: e4 7c        	cpx	$7c                     ; 0x207c <textPrint+0x9a>
    32c7: b0 2b        	bcs	$32f4 <printf+0xaef>
    32c9: a6 88        	ldx	$88                     ; 0x2088 <textPrint+0xa6>
    32cb: e4 4d        	cpx	$4d                     ; 0x204d <textPrint+0x6b>
    32cd: d0 18        	bne	$32e7 <printf+0xae2>
    32cf: a6 87        	ldx	$87                     ; 0x2087 <textPrint+0xa5>
    32d1: e4 4c        	cpx	$4c                     ; 0x204c <textPrint+0x6a>
    32d3: d0 12        	bne	$32e7 <printf+0xae2>
    32d5: 18           	clc
    32d6: aa           	tax
    32d7: 98           	tya
    32d8: 65 81        	adc	$81                     ; 0x2081 <textPrint+0x9f>
    32da: 85 12        	sta	$12                     ; 0x2012 <textPrint+0x30>
    32dc: a5 14        	lda	$14                     ; 0x2014 <textPrint+0x32>
    32de: 65 82        	adc	$82                     ; 0x2082 <textPrint+0xa0>
    32e0: 85 13        	sta	$13                     ; 0x2013 <textPrint+0x31>
    32e2: 8a           	txa
    32e3: 92 12        	sta	($12)                   ; 0x2012 <textPrint+0x30>
    32e5: 80 0d        	bra	$32f4 <printf+0xaef>
    32e7: 85 41        	sta	$41                     ; 0x2041 <textPrint+0x5f>
    32e9: a2 41        	ldx	#$41
    32eb: 86 12        	stx	$12                     ; 0x2012 <textPrint+0x30>
    32ed: a2 00        	ldx	#$0
    32ef: 86 13        	stx	$13                     ; 0x2013 <textPrint+0x31>
    32f1: 20 e2 1f     	jsr	$1fe2 <textPrint>
    32f4: e6 7d        	inc	$7d                     ; 0x207d <textPrint+0x9b>
    32f6: d0 02        	bne	$32fa <printf+0xaf5>
    32f8: e6 7e        	inc	$7e                     ; 0x207e <textPrint+0x9c>
    32fa: a5 79        	lda	$79                     ; 0x2079 <textPrint+0x97>
    32fc: 29 01        	and	#$1
    32fe: d0 1e        	bne	$331e <printf+0xb19>
    3300: a6 7d        	ldx	$7d                     ; 0x207d <textPrint+0x9b>
    3302: 86 14        	stx	$14                     ; 0x2014 <textPrint+0x32>
    3304: a5 7e        	lda	$7e                     ; 0x207e <textPrint+0x9c>
    3306: a4 7b        	ldy	$7b                     ; 0x207b <textPrint+0x99>
    3308: a6 7c        	ldx	$7c                     ; 0x207c <textPrint+0x9a>
    330a: 86 12        	stx	$12                     ; 0x2012 <textPrint+0x30>
    330c: 86 13        	stx	$13                     ; 0x2013 <textPrint+0x31>
    330e: c5 12        	cmp	$12                     ; 0x2012 <textPrint+0x30>
    3310: f0 03        	beq	$3315 <printf+0xb10>
    3312: 4c ab 33     	jmp	$33ab <printf+0xba6>
    3315: 84 12        	sty	$12                     ; 0x2012 <textPrint+0x30>
    3317: a6 14        	ldx	$14                     ; 0x2014 <textPrint+0x32>
    3319: e4 12        	cpx	$12                     ; 0x2012 <textPrint+0x30>
    331b: 4c af 33     	jmp	$33af <printf+0xbaa>
    331e: a6 7d        	ldx	$7d                     ; 0x207d <textPrint+0x9b>
    3320: 86 14        	stx	$14                     ; 0x2014 <textPrint+0x32>
    3322: a5 7e        	lda	$7e                     ; 0x207e <textPrint+0x9c>
    3324: a6 53        	ldx	$53                     ; 0x2053 <textPrint+0x71>
    3326: a4 52        	ldy	$52                     ; 0x2052 <textPrint+0x70>
    3328: f0 03        	beq	$332d <printf+0xb28>
    332a: 4c 97 33     	jmp	$3397 <printf+0xb92>
    332d: e0 00        	cpx	#$0
    332f: f0 d5        	beq	$3306 <printf+0xb01>
    3331: 4c 97 33     	jmp	$3397 <printf+0xb92>
    3334: c5 7c        	cmp	$7c                     ; 0x207c <textPrint+0x9a>
    3336: b0 2e        	bcs	$3366 <printf+0xb61>
    3338: a6 88        	ldx	$88                     ; 0x2088 <textPrint+0xa6>
    333a: e4 4d        	cpx	$4d                     ; 0x204d <textPrint+0x6b>
    333c: d0 19        	bne	$3357 <printf+0xb52>
    333e: a6 87        	ldx	$87                     ; 0x2087 <textPrint+0xa5>
    3340: e4 4c        	cpx	$4c                     ; 0x204c <textPrint+0x6a>
    3342: d0 13        	bne	$3357 <printf+0xb52>
    3344: 18           	clc
    3345: aa           	tax
    3346: a5 14        	lda	$14                     ; 0x2014 <textPrint+0x32>
    3348: 65 81        	adc	$81                     ; 0x2081 <textPrint+0x9f>
    334a: 85 12        	sta	$12                     ; 0x2012 <textPrint+0x30>
    334c: 8a           	txa
    334d: 65 82        	adc	$82                     ; 0x2082 <textPrint+0xa0>
    334f: 85 13        	sta	$13                     ; 0x2013 <textPrint+0x31>
    3351: a9 20        	lda	#$20
    3353: 92 12        	sta	($12)                   ; 0x2012 <textPrint+0x30>
    3355: 80 0f        	bra	$3366 <printf+0xb61>
    3357: a2 20        	ldx	#$20
    3359: 86 41        	stx	$41                     ; 0x2041 <textPrint+0x5f>
    335b: a2 41        	ldx	#$41
    335d: 86 12        	stx	$12                     ; 0x2012 <textPrint+0x30>
    335f: a2 00        	ldx	#$0
    3361: 86 13        	stx	$13                     ; 0x2013 <textPrint+0x31>
    3363: 20 e2 1f     	jsr	$1fe2 <textPrint>
    3366: a6 7d        	ldx	$7d                     ; 0x207d <textPrint+0x9b>
    3368: a5 7e        	lda	$7e                     ; 0x207e <textPrint+0x9c>
    336a: e8           	inx
    336b: d0 01        	bne	$336e <printf+0xb69>
    336d: 1a           	inc
    336e: 86 14        	stx	$14                     ; 0x2014 <textPrint+0x32>
    3370: 86 7d        	stx	$7d                     ; 0x207d <textPrint+0x9b>
    3372: 85 7e        	sta	$7e                     ; 0x207e <textPrint+0x9c>
    3374: a6 53        	ldx	$53                     ; 0x2053 <textPrint+0x71>
    3376: 86 12        	stx	$12                     ; 0x2012 <textPrint+0x30>
    3378: a6 52        	ldx	$52                     ; 0x2052 <textPrint+0x70>
    337a: 86 13        	stx	$13                     ; 0x2013 <textPrint+0x31>
    337c: a2 ff        	ldx	#$ff
    337e: c6 12        	dec	$12                     ; 0x2012 <textPrint+0x30>
    3380: e4 12        	cpx	$12                     ; 0x2012 <textPrint+0x30>
    3382: d0 02        	bne	$3386 <printf+0xb81>
    3384: c6 13        	dec	$13                     ; 0x2013 <textPrint+0x31>
    3386: a6 12        	ldx	$12                     ; 0x2012 <textPrint+0x30>
    3388: 86 53        	stx	$53                     ; 0x2053 <textPrint+0x71>
    338a: a6 13        	ldx	$13                     ; 0x2013 <textPrint+0x31>
    338c: 86 52        	stx	$52                     ; 0x2052 <textPrint+0x70>
    338e: d0 07        	bne	$3397 <printf+0xb92>
    3390: a6 12        	ldx	$12                     ; 0x2012 <textPrint+0x30>
    3392: d0 03        	bne	$3397 <printf+0xb92>
    3394: 4c 06 33     	jmp	$3306 <printf+0xb01>
    3397: c5 7c        	cmp	$7c                     ; 0x207c <textPrint+0x9a>
    3399: f0 03        	beq	$339e <printf+0xb99>
    339b: 4c 34 33     	jmp	$3334 <printf+0xb2f>
    339e: a6 7b        	ldx	$7b                     ; 0x207b <textPrint+0x99>
    33a0: 86 12        	stx	$12                     ; 0x2012 <textPrint+0x30>
    33a2: a6 14        	ldx	$14                     ; 0x2014 <textPrint+0x32>
    33a4: e4 12        	cpx	$12                     ; 0x2012 <textPrint+0x30>
    33a6: b0 be        	bcs	$3366 <printf+0xb61>
    33a8: 4c 38 33     	jmp	$3338 <printf+0xb33>
    33ab: 86 12        	stx	$12                     ; 0x2012 <textPrint+0x30>
    33ad: c5 12        	cmp	$12                     ; 0x2012 <textPrint+0x30>
    33af: 98           	tya
    33b0: a0 01        	ldy	#$1
    33b2: 90 20        	bcc	$33d4 <printf+0xbcf>
    33b4: a6 13        	ldx	$13                     ; 0x2013 <textPrint+0x31>
    33b6: d0 03        	bne	$33bb <printf+0xbb6>
    33b8: aa           	tax
    33b9: f0 19        	beq	$33d4 <printf+0xbcf>
    33bb: 18           	clc
    33bc: 65 81        	adc	$81                     ; 0x2081 <textPrint+0x9f>
    33be: 85 12        	sta	$12                     ; 0x2012 <textPrint+0x30>
    33c0: a5 13        	lda	$13                     ; 0x2013 <textPrint+0x31>
    33c2: 65 82        	adc	$82                     ; 0x2082 <textPrint+0xa0>
    33c4: 85 13        	sta	$13                     ; 0x2013 <textPrint+0x31>
    33c6: a2 ff        	ldx	#$ff
    33c8: c6 12        	dec	$12                     ; 0x2012 <textPrint+0x30>
    33ca: e4 12        	cpx	$12                     ; 0x2012 <textPrint+0x30>
    33cc: d0 02        	bne	$33d0 <printf+0xbcb>
    33ce: c6 13        	dec	$13                     ; 0x2013 <textPrint+0x31>
    33d0: a9 00        	lda	#$0
    33d2: 92 12        	sta	($12)                   ; 0x2012 <textPrint+0x30>
    33d4: e6 4a        	inc	$4a                     ; 0x204a <textPrint+0x68>
    33d6: d0 02        	bne	$33da <printf+0xbd5>
    33d8: e6 4b        	inc	$4b                     ; 0x204b <textPrint+0x69>
    33da: a6 4b        	ldx	$4b                     ; 0x204b <textPrint+0x69>
    33dc: e4 4f        	cpx	$4f                     ; 0x204f <textPrint+0x6d>
    33de: f0 03        	beq	$33e3 <printf+0xbde>
    33e0: 4c 6a 28     	jmp	$286a <printf+0x65>
    33e3: a6 4a        	ldx	$4a                     ; 0x204a <textPrint+0x68>
    33e5: e4 4e        	cpx	$4e                     ; 0x204e <textPrint+0x6c>
    33e7: f0 03        	beq	$33ec <printf+0xbe7>
    33e9: 4c 6a 28     	jmp	$286a <printf+0x65>
    33ec: b2 4e        	lda	($4e)                   ; 0x204e <textPrint+0x6c>
    33ee: a2 00        	ldx	#$0
    33f0: 86 4c        	stx	$4c                     ; 0x204c <textPrint+0x6a>
    33f2: a2 00        	ldx	#$0
    33f4: 86 4d        	stx	$4d                     ; 0x204d <textPrint+0x6b>
    33f6: 4c 7e 28     	jmp	$287e <printf+0x79>
    33f9: e4 51        	cpx	$51                     ; 0x2051 <textPrint+0x6f>
    33fb: a6 49        	ldx	$49                     ; 0x2049 <textPrint+0x67>
    33fd: b0 03        	bcs	$3402 <printf+0xbfd>
    33ff: 4c cf 2e     	jmp	$2ecf <printf+0x6ca>
    3402: a5 48        	lda	$48                     ; 0x2048 <textPrint+0x66>
    3404: 85 50        	sta	$50                     ; 0x2050 <textPrint+0x6e>
    3406: 64 51        	stz	$51                     ; 0x2051 <textPrint+0x6f>
    3408: e6 50        	inc	$50                     ; 0x2050 <textPrint+0x6e>
    340a: f0 03        	beq	$340f <printf+0xc0a>
    340c: 4c cf 2e     	jmp	$2ecf <printf+0x6ca>
    340f: e6 51        	inc	$51                     ; 0x2051 <textPrint+0x6f>
    3411: 4c cf 2e     	jmp	$2ecf <printf+0x6ca>
    3414: a2 58        	ldx	#$58
    3416: 86 92        	stx	$92                     ; 0x2092 <textPrint+0xb0>
    3418: a2 01        	ldx	#$1
    341a: 86 8d        	stx	$8d                     ; 0x208d <textPrint+0xab>
    341c: a2 30        	ldx	#$30
    341e: 86 91        	stx	$91                     ; 0x2091 <textPrint+0xaf>
    3420: a9 02        	lda	#$2
    3422: a2 00        	ldx	#$0
    3424: 86 8e        	stx	$8e                     ; 0x208e <textPrint+0xac>
    3426: 4c 10 2f     	jmp	$2f10 <printf+0x70b>
    3429: 64 53        	stz	$53                     ; 0x2053 <textPrint+0x71>
    342b: 64 52        	stz	$52                     ; 0x2052 <textPrint+0x70>
    342d: 4c 65 31     	jmp	$3165 <printf+0x960>
    3430: 60           	rts

00003431 <memcpy>:
    3431: a8           	tay
    3432: 8a           	txa
    3433: d0 03        	bne	$3438 <memcpy+0x7>
    3435: 98           	tya
    3436: f0 24        	beq	$345c <memcpy+0x2b>
    3438: a5 12        	lda	$12                     ; 0x2012 <textPrint+0x30>
    343a: 85 16        	sta	$16                     ; 0x2016 <textPrint+0x34>
    343c: a5 13        	lda	$13                     ; 0x2013 <textPrint+0x31>
    343e: 85 17        	sta	$17                     ; 0x2017 <textPrint+0x35>
    3440: b2 14        	lda	($14)                   ; 0x2014 <textPrint+0x32>
    3442: 92 16        	sta	($16)                   ; 0x2016 <textPrint+0x34>
    3444: e6 16        	inc	$16                     ; 0x2016 <textPrint+0x34>
    3446: d0 02        	bne	$344a <memcpy+0x19>
    3448: e6 17        	inc	$17                     ; 0x2017 <textPrint+0x35>
    344a: e6 14        	inc	$14                     ; 0x2014 <textPrint+0x32>
    344c: d0 02        	bne	$3450 <memcpy+0x1f>
    344e: e6 15        	inc	$15                     ; 0x2015 <textPrint+0x33>
    3450: 88           	dey
    3451: c0 ff        	cpy	#$ff
    3453: d0 01        	bne	$3456 <memcpy+0x25>
    3455: ca           	dex
    3456: 8a           	txa
    3457: d0 e7        	bne	$3440 <memcpy+0xf>
    3459: 98           	tya
    345a: d0 e4        	bne	$3440 <memcpy+0xf>
    345c: 60           	rts

0000345d <__memset>:
    345d: a4 14        	ldy	$14                     ; 0x2014 <textPrint+0x32>
    345f: d0 04        	bne	$3465 <__memset+0x8>
    3461: e0 00        	cpx	#$0
    3463: f0 17        	beq	$347c <__memset+0x1f>
    3465: 92 12        	sta	($12)                   ; 0x2012 <textPrint+0x30>
    3467: e6 12        	inc	$12                     ; 0x2012 <textPrint+0x30>
    3469: d0 02        	bne	$346d <__memset+0x10>
    346b: e6 13        	inc	$13                     ; 0x2013 <textPrint+0x31>
    346d: ca           	dex
    346e: e0 ff        	cpx	#$ff
    3470: d0 02        	bne	$3474 <__memset+0x17>
    3472: c6 14        	dec	$14                     ; 0x2014 <textPrint+0x32>
    3474: a4 14        	ldy	$14                     ; 0x2014 <textPrint+0x32>
    3476: d0 ed        	bne	$3465 <__memset+0x8>
    3478: e0 00        	cpx	#$0
    347a: d0 e9        	bne	$3465 <__memset+0x8>
    347c: 60           	rts

0000347d <__ashlqi3>:
    347d: e0 00        	cpx	#$0
    347f: f0 06        	beq	$3487 <__ashlqi3+0xa>
    3481: ca           	dex
    3482: 0a           	asl
    3483: e0 00        	cpx	#$0
    3485: d0 fa        	bne	$3481 <__ashlqi3+0x4>
    3487: 60           	rts
