
sidtweak.elf:	file format elf32-mos

SYMBOL TABLE:
00000000 l    df *ABS*	00000000 zero-bss.c
00000000 l    df *ABS*	00000000 zero-zp-bss.c
00000000 l    df *ABS*	00000000 copy-zp-data.c
00000000 l    df *ABS*	00000000 ld-temp.o
0000265c l     O .bss	00000007 kernelEventData
00000096 l     O .zp.data	00000001 _ccolor
0000262c l     O .rodata	00000030 textColors
0000009e l     O .zp.bss	00000001 _col
0000009f l     O .zp.bss	00000001 _row
00002664 l     O .bss	00000004 _BITMAP_BASE.0
00002663 l     O .bss	00000001 kernelError
000012c8 l     F .text	000001e7 textPrint
0000169b l     F .text	00000c46 printf
000000a0 l     O .zp.bss	00000002 __putchar.s
00000098 l     O .zp.bss	00000006 polySIDBuffer
00000030 l     O .zp.data	00000006 sidChoiceToVoice
00000036 l     O .zp.data	00000060 sidLow
00002489 l     O .rodata	00000060 sidHigh
00000097 l     O .zp.bss	00000001 chipAct.0
00002368 l     O .rodata	00000058 noteColors
000014b4 l     F .text	000000db _ZN12_GLOBAL__N_13putEcP6Status
0000158f l     F .text	0000010c _ZN12_GLOBAL__N_112print_stringEPKcP6Status
000003bc g     F .text	00000f0c main
000303fc g       .pianopal	00000000 pianopal_end
00043000 g       .keys	00000000 keys_end
00030000 g       .pianopal	00000000 pianopal_start
00030400 g       .keys	00000000 keys_start
0000037b g       .text	00000000 __after_main
00000367 g       .text	00000000 __do_init_stack
00000375 g       .text	00000000 __do_copy_zp_data
000003a5 g     F .text	00000017 __copy_zp_data
0000036f g       .text	00000000 __do_zero_bss
0000037f g     F .text	00000013 __zero_bss
00000372 g       .text	00000000 __do_zero_zp_bss
00000392 g     F .text	00000013 __zero_zp_bss
000014af g     F .text	00000005 exit
0000037e g       .text	00000000 _fini
0000232d g       .rodata	00000000 __set_v
0000230d  w    F .text	00000020 __memset
00001000  w      *ABS*	00000000 __heap_default_limit
00002670 g       .noinit	00000000 __heap_start
000022e1  w    F .text	0000002c memcpy
00000010 g       *ABS*	00000000 __rc0
00000012 g       *ABS*	00000000 __rc2
00000014 g       *ABS*	00000000 __rc4
00000016 g       *ABS*	00000000 __rc6
00000018 g       *ABS*	00000000 __rc8
0000001a g       *ABS*	00000000 __rc10
0000001c g       *ABS*	00000000 __rc12
0000001e g       *ABS*	00000000 __rc14
00000020 g       *ABS*	00000000 __rc16
00000022 g       *ABS*	00000000 __rc18
00000024 g       *ABS*	00000000 __rc20
00000026 g       *ABS*	00000000 __rc22
00000028 g       *ABS*	00000000 __rc24
0000002a g       *ABS*	00000000 __rc26
0000002c g       *ABS*	00000000 __rc28
0000002e g       *ABS*	00000000 __rc30
0000002f g       *ABS*	00000000 __rc31
00000300 g       *ABS*	00000000 __f256_start
0000c000 g       *ABS*	00000000 __stack
0000c000 g       *ABS*	00000000 __SLOT_ADDR
0800c000 g       *ABS*	00000000 __block8_lma
00002000 g       *ABS*	00000000 __BLOCK_SIZE
0900c000 g       *ABS*	00000000 __block9_lma
0a00c000 g       *ABS*	00000000 __block10_lma
0b00c000 g       *ABS*	00000000 __block11_lma
0c00c000 g       *ABS*	00000000 __block12_lma
0d00c000 g       *ABS*	00000000 __block13_lma
0e00c000 g       *ABS*	00000000 __block14_lma
0f00c000 g       *ABS*	00000000 __block15_lma
1000c000 g       *ABS*	00000000 __block16_lma
1100c000 g       *ABS*	00000000 __block17_lma
1200c000 g       *ABS*	00000000 __block18_lma
1300c000 g       *ABS*	00000000 __block19_lma
1400c000 g       *ABS*	00000000 __block20_lma
1500c000 g       *ABS*	00000000 __block21_lma
1600c000 g       *ABS*	00000000 __block22_lma
1700c000 g       *ABS*	00000000 __block23_lma
00030000 g       *ABS*	00000000 __pianopal_lma
000003fc g       *ABS*	00000000 __pianopal_size
00030400 g       *ABS*	00000000 __keys_lma
00012c00 g       *ABS*	00000000 __keys_size
0000265c g       .bss	00000000 __bss_start
000303fc g       .pianopal	00000000 end_pianopal
00043000 g       .keys	00000000 end_keys
00000367 g       .text	00000000 _start
0000002d g       *ABS*	00000000 __rc29
0000002b g       *ABS*	00000000 __rc27
00000029 g       *ABS*	00000000 __rc25
00000027 g       *ABS*	00000000 __rc23
00000025 g       *ABS*	00000000 __rc21
00000023 g       *ABS*	00000000 __rc19
00000021 g       *ABS*	00000000 __rc17
0000001f g       *ABS*	00000000 __rc15
0000001d g       *ABS*	00000000 __rc13
0000001b g       *ABS*	00000000 __rc11
00000019 g       *ABS*	00000000 __rc9
00000017 g       *ABS*	00000000 __rc7
00000015 g       *ABS*	00000000 __rc5
00000013 g       *ABS*	00000000 __rc3
00000011 g       *ABS*	00000000 __rc1
00000030 g       .zp.data	00000000 __zp_data_start
00000300 g       *ABS*	00000000 __zp_data_load_start
00000067 g       *ABS*	00000000 __zp_data_size
00000097 g       .zp.bss	00000000 __zp_bss_start
0000000b g       *ABS*	00000000 __zp_bss_size
00000367 g       .text	00000000 _init
0000232d g       .text	00000000 __init_array_start
0000232d g       .text	00000000 __init_array_end
0000232d g       .text	00000000 __fini_array_start
0000232d g       .text	00000000 __fini_array_end
0000265c g       .data	00000000 __data_start
0000265c g       .data	00000000 __data_end
0000265c g       *ABS*	00000000 __data_load_start
00000000 g       *ABS*	00000000 __data_size
00002668 g       .bss	00000000 __bss_end
0000000c g       *ABS*	00000000 __bss_size
00002670 g       .noinit	00000000 end_block8
00002670 g       .noinit	00000000 end_block9
00002670 g       .noinit	00000000 end_block10
00002670 g       .noinit	00000000 end_block11
00002670 g       .noinit	00000000 end_block12
00002670 g       .noinit	00000000 end_block13
00002670 g       .noinit	00000000 end_block14
00002670 g       .noinit	00000000 end_block15
00002670 g       .noinit	00000000 end_block16
00002670 g       .noinit	00000000 end_block17
00002670 g       .noinit	00000000 end_block18
00002670 g       .noinit	00000000 end_block19
00002670 g       .noinit	00000000 end_block20
00002670 g       .noinit	00000000 end_block21
00002670 g       .noinit	00000000 end_block22
00002670 g       .noinit	00000000 end_block23

Disassembly of section .text:

00000367 <_start>:
     367: a9 00        	lda	#$0
     369: 85 10        	sta	$10                     ; 0x2010 <printf+0x975>
     36b: a9 c0        	lda	#$c0
     36d: 85 11        	sta	$11                     ; 0x2011 <printf+0x976>

0000036f <__do_zero_bss>:
     36f: 20 7f 03     	jsr	$37f <__zero_bss>

00000372 <__do_zero_zp_bss>:
     372: 20 92 03     	jsr	$392 <__zero_zp_bss>

00000375 <__do_copy_zp_data>:
     375: 20 a5 03     	jsr	$3a5 <__copy_zp_data>
     378: 20 bc 03     	jsr	$3bc <main>

0000037b <__after_main>:
     37b: 4c af 14     	jmp	$14af <exit>

0000037e <_fini>:
     37e: 60           	rts

0000037f <__zero_bss>:
     37f: a2 0c        	ldx	#$c
     381: a0 00        	ldy	#$0
     383: a9 5c        	lda	#$5c
     385: 85 12        	sta	$12                     ; 0x2012 <printf+0x977>
     387: a9 26        	lda	#$26
     389: 85 13        	sta	$13                     ; 0x2013 <printf+0x978>
     38b: a9 00        	lda	#$0
     38d: 84 14        	sty	$14                     ; 0x2014 <printf+0x979>
     38f: 4c 0d 23     	jmp	$230d <__memset>

00000392 <__zero_zp_bss>:
     392: a2 0b        	ldx	#$b
     394: a0 00        	ldy	#$0
     396: a9 97        	lda	#$97
     398: 85 12        	sta	$12                     ; 0x2012 <printf+0x977>
     39a: a9 00        	lda	#$0
     39c: 85 13        	sta	$13                     ; 0x2013 <printf+0x978>
     39e: a9 00        	lda	#$0
     3a0: 84 14        	sty	$14                     ; 0x2014 <printf+0x979>
     3a2: 4c 0d 23     	jmp	$230d <__memset>

000003a5 <__copy_zp_data>:
     3a5: a9 67        	lda	#$67
     3a7: a2 00        	ldx	#$0
     3a9: a0 30        	ldy	#$30
     3ab: 84 12        	sty	$12                     ; 0x2012 <printf+0x977>
     3ad: a0 00        	ldy	#$0
     3af: 84 13        	sty	$13                     ; 0x2013 <printf+0x978>
     3b1: a0 00        	ldy	#$0
     3b3: 84 14        	sty	$14                     ; 0x2014 <printf+0x979>
     3b5: a0 03        	ldy	#$3
     3b7: 84 15        	sty	$15                     ; 0x2015 <printf+0x97a>
     3b9: 4c e1 22     	jmp	$22e1 <memcpy>

000003bc <main>:
     3bc: 18           	clc
     3bd: a5 10        	lda	$10                     ; 0x2010 <printf+0x975>
     3bf: 69 ef        	adc	#$ef
     3c1: 85 10        	sta	$10                     ; 0x2010 <printf+0x975>
     3c3: a5 11        	lda	$11                     ; 0x2011 <printf+0x976>
     3c5: 69 ff        	adc	#$ff
     3c7: 85 11        	sta	$11                     ; 0x2011 <printf+0x976>
     3c9: 64 1c        	stz	$1c                     ; 0x201c <printf+0x981>
     3cb: a2 00        	ldx	#$0
     3cd: 86 1a        	stx	$1a                     ; 0x201a <printf+0x97f>
     3cf: a2 d0        	ldx	#$d0
     3d1: 86 1b        	stx	$1b                     ; 0x201b <printf+0x980>
     3d3: a2 00        	ldx	#$0
     3d5: 86 16        	stx	$16                     ; 0x2016 <printf+0x97b>
     3d7: a2 d8        	ldx	#$d8
     3d9: 86 17        	stx	$17                     ; 0x2017 <printf+0x97c>
     3db: a2 00        	ldx	#$0
     3dd: 86 18        	stx	$18                     ; 0x2018 <printf+0x97d>
     3df: a2 d4        	ldx	#$d4
     3e1: 86 19        	stx	$19                     ; 0x2019 <printf+0x97e>
     3e3: a2 00        	ldx	#$0
     3e5: 86 14        	stx	$14                     ; 0x2014 <printf+0x979>
     3e7: a2 dc        	ldx	#$dc
     3e9: 86 15        	stx	$15                     ; 0x2015 <printf+0x97a>
     3eb: a2 00        	ldx	#$0
     3ed: 86 12        	stx	$12                     ; 0x2012 <printf+0x977>
     3ef: a2 c0        	ldx	#$c0
     3f1: 86 13        	stx	$13                     ; 0x2013 <printf+0x978>
     3f3: 64 01        	stz	$1                      ; 0x2001 <printf+0x966>
     3f5: a2 3f        	ldx	#$3f
     3f7: 8e 00 d0     	stx	$d000                   ; 0xd000 <end_block9+0xa990>
     3fa: a2 b3        	ldx	#$b3
     3fc: 86 00        	stx	$0                      ; 0x2000 <printf+0x965>
     3fe: 64 08        	stz	$8                      ; 0x2008 <printf+0x96d>
     400: a2 01        	ldx	#$1
     402: 86 09        	stx	$9                      ; 0x2009 <printf+0x96e>
     404: e8           	inx
     405: 86 0a        	stx	$a                      ; 0x200a <printf+0x96f>
     407: e8           	inx
     408: 86 0b        	stx	$b                      ; 0x200b <printf+0x970>
     40a: e8           	inx
     40b: 86 0c        	stx	$c                      ; 0x200c <printf+0x971>
     40d: e8           	inx
     40e: 86 0d        	stx	$d                      ; 0x200d <printf+0x972>
     410: a2 5c        	ldx	#$5c
     412: a9 26        	lda	#$26
     414: 86 f0        	stx	$f0                     ; 0x20f0 <printf+0xa55>
     416: 85 f1        	sta	$f1                     ; 0x20f1 <printf+0xa56>
     418: a6 01        	ldx	$1                      ; 0x2001 <printf+0x966>
     41a: a0 01        	ldy	#$1
     41c: 84 01        	sty	$1                      ; 0x2001 <printf+0x966>
     41e: a5 1c        	lda	$1c                     ; 0x201c <printf+0x981>
     420: 92 1a        	sta	($1a)                   ; 0x201a <printf+0x97f>
     422: 91 1a        	sta	($1a),y                 ; 0x201a <printf+0x97f>
     424: c8           	iny
     425: 91 1a        	sta	($1a),y                 ; 0x201a <printf+0x97f>
     427: c8           	iny
     428: a9 ff        	lda	#$ff
     42a: 91 1a        	sta	($1a),y                 ; 0x201a <printf+0x97f>
     42c: 86 01        	stx	$1                      ; 0x2001 <printf+0x966>
     42e: a5 1a        	lda	$1a                     ; 0x201a <printf+0x97f>
     430: 18           	clc
     431: 69 04        	adc	#$4
     433: 85 1a        	sta	$1a                     ; 0x201a <printf+0x97f>
     435: a5 1b        	lda	$1b                     ; 0x201b <printf+0x980>
     437: 69 00        	adc	#$0
     439: e6 1c        	inc	$1c                     ; 0x201c <printf+0x981>
     43b: 85 1b        	sta	$1b                     ; 0x201b <printf+0x980>
     43d: d0 d9        	bne	$418 <main+0x5c>
     43f: a9 00        	lda	#$0
     441: a6 01        	ldx	$1                      ; 0x2001 <printf+0x966>
     443: a0 01        	ldy	#$1
     445: 84 01        	sty	$1                      ; 0x2001 <printf+0x966>
     447: 92 18        	sta	($18)                   ; 0x2018 <printf+0x97d>
     449: 91 18        	sta	($18),y                 ; 0x2018 <printf+0x97d>
     44b: c8           	iny
     44c: 91 18        	sta	($18),y                 ; 0x2018 <printf+0x97d>
     44e: c8           	iny
     44f: 85 1a        	sta	$1a                     ; 0x201a <printf+0x97f>
     451: a9 ff        	lda	#$ff
     453: 91 18        	sta	($18),y                 ; 0x2018 <printf+0x97d>
     455: 86 01        	stx	$1                      ; 0x2001 <printf+0x966>
     457: a5 18        	lda	$18                     ; 0x2018 <printf+0x97d>
     459: 18           	clc
     45a: 69 04        	adc	#$4
     45c: 85 18        	sta	$18                     ; 0x2018 <printf+0x97d>
     45e: a5 19        	lda	$19                     ; 0x2019 <printf+0x97e>
     460: 69 00        	adc	#$0
     462: e6 1a        	inc	$1a                     ; 0x201a <printf+0x97f>
     464: 85 19        	sta	$19                     ; 0x2019 <printf+0x97e>
     466: a5 1a        	lda	$1a                     ; 0x201a <printf+0x97f>
     468: d0 d7        	bne	$441 <main+0x85>
     46a: a9 00        	lda	#$0
     46c: a6 01        	ldx	$1                      ; 0x2001 <printf+0x966>
     46e: a0 01        	ldy	#$1
     470: 84 01        	sty	$1                      ; 0x2001 <printf+0x966>
     472: 92 16        	sta	($16)                   ; 0x2016 <printf+0x97b>
     474: 91 16        	sta	($16),y                 ; 0x2016 <printf+0x97b>
     476: c8           	iny
     477: 91 16        	sta	($16),y                 ; 0x2016 <printf+0x97b>
     479: c8           	iny
     47a: 85 18        	sta	$18                     ; 0x2018 <printf+0x97d>
     47c: a9 ff        	lda	#$ff
     47e: 91 16        	sta	($16),y                 ; 0x2016 <printf+0x97b>
     480: 86 01        	stx	$1                      ; 0x2001 <printf+0x966>
     482: a5 16        	lda	$16                     ; 0x2016 <printf+0x97b>
     484: 18           	clc
     485: 69 04        	adc	#$4
     487: 85 16        	sta	$16                     ; 0x2016 <printf+0x97b>
     489: a5 17        	lda	$17                     ; 0x2017 <printf+0x97c>
     48b: 69 00        	adc	#$0
     48d: e6 18        	inc	$18                     ; 0x2018 <printf+0x97d>
     48f: 85 17        	sta	$17                     ; 0x2017 <printf+0x97c>
     491: a5 18        	lda	$18                     ; 0x2018 <printf+0x97d>
     493: d0 d7        	bne	$46c <main+0xb0>
     495: a9 00        	lda	#$0
     497: a6 01        	ldx	$1                      ; 0x2001 <printf+0x966>
     499: a0 01        	ldy	#$1
     49b: 84 01        	sty	$1                      ; 0x2001 <printf+0x966>
     49d: 92 14        	sta	($14)                   ; 0x2014 <printf+0x979>
     49f: 91 14        	sta	($14),y                 ; 0x2014 <printf+0x979>
     4a1: c8           	iny
     4a2: 91 14        	sta	($14),y                 ; 0x2014 <printf+0x979>
     4a4: c8           	iny
     4a5: 85 16        	sta	$16                     ; 0x2016 <printf+0x97b>
     4a7: a9 ff        	lda	#$ff
     4a9: 91 14        	sta	($14),y                 ; 0x2014 <printf+0x979>
     4ab: 86 01        	stx	$1                      ; 0x2001 <printf+0x966>
     4ad: a5 14        	lda	$14                     ; 0x2014 <printf+0x979>
     4af: 18           	clc
     4b0: 69 04        	adc	#$4
     4b2: 85 14        	sta	$14                     ; 0x2014 <printf+0x979>
     4b4: a5 15        	lda	$15                     ; 0x2015 <printf+0x97a>
     4b6: 69 00        	adc	#$0
     4b8: e6 16        	inc	$16                     ; 0x2016 <printf+0x97b>
     4ba: 85 15        	sta	$15                     ; 0x2015 <printf+0x97a>
     4bc: a5 16        	lda	$16                     ; 0x2016 <printf+0x97b>
     4be: d0 d7        	bne	$497 <main+0xdb>
     4c0: ad 02 d0     	lda	$d002                   ; 0xd002 <end_block9+0xa992>
     4c3: a2 f0        	ldx	#$f0
     4c5: 29 f0        	and	#$f0
     4c7: 8d 02 d0     	sta	$d002                   ; 0xd002 <end_block9+0xa992>
     4ca: ad 02 d0     	lda	$d002                   ; 0xd002 <end_block9+0xa992>
     4cd: 29 0f        	and	#$f
     4cf: 09 10        	ora	#$10
     4d1: 8d 02 d0     	sta	$d002                   ; 0xd002 <end_block9+0xa992>
     4d4: a0 02        	ldy	#$2
     4d6: 8c 03 d0     	sty	$d003                   ; 0xd003 <end_block9+0xa993>
     4d9: 86 96        	stx	$96                     ; 0x2096 <printf+0x9fb>
     4db: ad 01 d0     	lda	$d001                   ; 0xd001 <end_block9+0xa991>
     4de: 29 f9        	and	#$f9
     4e0: 09 04        	ora	#$4
     4e2: 8d 01 d0     	sta	$d001                   ; 0xd001 <end_block9+0xa991>
     4e5: 64 14        	stz	$14                     ; 0x2014 <printf+0x979>
     4e7: 9c 10 d0     	stz	$d010                   ; 0xd010 <end_block9+0xa9a0>
     4ea: a2 00        	ldx	#$0
     4ec: 64 15        	stz	$15                     ; 0x2015 <printf+0x97a>
     4ee: 86 18        	stx	$18                     ; 0x2018 <printf+0x97d>
     4f0: a4 18        	ldy	$18                     ; 0x2018 <printf+0x97d>
     4f2: be 2c 26     	ldx	$262c,y                 ; 0x262c <textColors>
     4f5: 86 19        	stx	$19                     ; 0x2019 <printf+0x97e>
     4f7: be 2d 26     	ldx	$262d,y                 ; 0x262d <textColors+0x1>
     4fa: 86 1a        	stx	$1a                     ; 0x201a <printf+0x97f>
     4fc: be 2e 26     	ldx	$262e,y                 ; 0x262e <textColors+0x2>
     4ff: 86 1b        	stx	$1b                     ; 0x201b <printf+0x980>
     501: a6 15        	ldx	$15                     ; 0x2015 <printf+0x97a>
     503: 8e 00 de     	stx	$de00                   ; 0xde00 <end_block9+0xb790>
     506: 86 17        	stx	$17                     ; 0x2017 <printf+0x97c>
     508: 9c 01 de     	stz	$de01                   ; 0xde01 <end_block9+0xb791>
     50b: a2 04        	ldx	#$4
     50d: 8e 02 de     	stx	$de02                   ; 0xde02 <end_block9+0xb792>
     510: 9c 03 de     	stz	$de03                   ; 0xde03 <end_block9+0xb793>
     513: ad 10 de     	lda	$de10                   ; 0xde10 <end_block9+0xb7a0>
     516: ac 11 de     	ldy	$de11                   ; 0xde11 <end_block9+0xb7a1>
     519: 84 15        	sty	$15                     ; 0x2015 <printf+0x97a>
     51b: ac 12 de     	ldy	$de12                   ; 0xde12 <end_block9+0xb7a2>
     51e: ac 13 de     	ldy	$de13                   ; 0xde13 <end_block9+0xb7a3>
     521: 18           	clc
     522: 65 14        	adc	$14                     ; 0x2014 <printf+0x979>
     524: 85 16        	sta	$16                     ; 0x2016 <printf+0x97b>
     526: a6 17        	ldx	$17                     ; 0x2017 <printf+0x97c>
     528: a9 d8        	lda	#$d8
     52a: 65 15        	adc	$15                     ; 0x2015 <printf+0x97a>
     52c: 85 17        	sta	$17                     ; 0x2017 <printf+0x97c>
     52e: a5 1b        	lda	$1b                     ; 0x201b <printf+0x980>
     530: 92 16        	sta	($16)                   ; 0x2016 <printf+0x97b>
     532: a0 01        	ldy	#$1
     534: a5 1a        	lda	$1a                     ; 0x201a <printf+0x97f>
     536: 91 16        	sta	($16),y                 ; 0x2016 <printf+0x97b>
     538: c8           	iny
     539: a5 19        	lda	$19                     ; 0x2019 <printf+0x97e>
     53b: 91 16        	sta	($16),y                 ; 0x2016 <printf+0x97b>
     53d: c8           	iny
     53e: a9 ff        	lda	#$ff
     540: 91 16        	sta	($16),y                 ; 0x2016 <printf+0x97b>
     542: 8e 00 de     	stx	$de00                   ; 0xde00 <end_block9+0xb790>
     545: 9c 01 de     	stz	$de01                   ; 0xde01 <end_block9+0xb791>
     548: c8           	iny
     549: 8c 02 de     	sty	$de02                   ; 0xde02 <end_block9+0xb792>
     54c: 9c 03 de     	stz	$de03                   ; 0xde03 <end_block9+0xb793>
     54f: ad 10 de     	lda	$de10                   ; 0xde10 <end_block9+0xb7a0>
     552: 85 15        	sta	$15                     ; 0x2015 <printf+0x97a>
     554: ad 11 de     	lda	$de11                   ; 0xde11 <end_block9+0xb7a1>
     557: 85 16        	sta	$16                     ; 0x2016 <printf+0x97b>
     559: a9 40        	lda	#$40
     55b: 18           	clc
     55c: 65 15        	adc	$15                     ; 0x2015 <printf+0x97a>
     55e: a8           	tay
     55f: a9 d8        	lda	#$d8
     561: 65 16        	adc	$16                     ; 0x2016 <printf+0x97b>
     563: 85 17        	sta	$17                     ; 0x2017 <printf+0x97c>
     565: 84 16        	sty	$16                     ; 0x2016 <printf+0x97b>
     567: ad 12 de     	lda	$de12                   ; 0xde12 <end_block9+0xb7a2>
     56a: ad 13 de     	lda	$de13                   ; 0xde13 <end_block9+0xb7a3>
     56d: a5 1b        	lda	$1b                     ; 0x201b <printf+0x980>
     56f: 92 16        	sta	($16)                   ; 0x2016 <printf+0x97b>
     571: a5 1a        	lda	$1a                     ; 0x201a <printf+0x97f>
     573: a0 01        	ldy	#$1
     575: 91 16        	sta	($16),y                 ; 0x2016 <printf+0x97b>
     577: a5 19        	lda	$19                     ; 0x2019 <printf+0x97e>
     579: c8           	iny
     57a: 91 16        	sta	($16),y                 ; 0x2016 <printf+0x97b>
     57c: c8           	iny
     57d: a9 ff        	lda	#$ff
     57f: 91 16        	sta	($16),y                 ; 0x2016 <printf+0x97b>
     581: e8           	inx
     582: 86 15        	stx	$15                     ; 0x2015 <printf+0x97a>
     584: 18           	clc
     585: a5 18        	lda	$18                     ; 0x2018 <printf+0x97d>
     587: 69 03        	adc	#$3
     589: aa           	tax
     58a: c9 30        	cmp	#$30
     58c: f0 03        	beq	$591 <main+0x1d5>
     58e: 4c ee 04     	jmp	$4ee <main+0x132>
     591: a6 01        	ldx	$1                      ; 0x2001 <printf+0x966>
     593: 86 18        	stx	$18                     ; 0x2018 <printf+0x97d>
     595: a2 50        	ldx	#$50
     597: 8e 00 de     	stx	$de00                   ; 0xde00 <end_block9+0xb790>
     59a: 9c 01 de     	stz	$de01                   ; 0xde01 <end_block9+0xb791>
     59d: a2 1e        	ldx	#$1e
     59f: 8e 02 de     	stx	$de02                   ; 0xde02 <end_block9+0xb792>
     5a2: 9c 03 de     	stz	$de03                   ; 0xde03 <end_block9+0xb793>
     5a5: ae 10 de     	ldx	$de10                   ; 0xde10 <end_block9+0xb7a0>
     5a8: ac 11 de     	ldy	$de11                   ; 0xde11 <end_block9+0xb7a1>
     5ab: ad 12 de     	lda	$de12                   ; 0xde12 <end_block9+0xb7a2>
     5ae: ad 13 de     	lda	$de13                   ; 0xde13 <end_block9+0xb7a3>
     5b1: a9 02        	lda	#$2
     5b3: 85 01        	sta	$1                      ; 0x2001 <printf+0x966>
     5b5: e0 01        	cpx	#$1
     5b7: 98           	tya
     5b8: e9 00        	sbc	#$0
     5ba: 50 02        	bvc	$5be <main+0x202>
     5bc: 49 80        	eor	#$80
     5be: c9 00        	cmp	#$0
     5c0: 10 03        	bpl	$5c5 <main+0x209>
     5c2: 4c 19 06     	jmp	$619 <main+0x25d>
     5c5: a9 20        	lda	#$20
     5c7: 86 19        	stx	$19                     ; 0x2019 <printf+0x97e>
     5c9: 86 14        	stx	$14                     ; 0x2014 <printf+0x979>
     5cb: 84 15        	sty	$15                     ; 0x2015 <printf+0x97a>
     5cd: a2 00        	ldx	#$0
     5cf: 86 16        	stx	$16                     ; 0x2016 <printf+0x97b>
     5d1: a2 c0        	ldx	#$c0
     5d3: 86 17        	stx	$17                     ; 0x2017 <printf+0x97c>
     5d5: 80 04        	bra	$5db <main+0x21f>
     5d7: a6 15        	ldx	$15                     ; 0x2015 <printf+0x97a>
     5d9: f0 14        	beq	$5ef <main+0x233>
     5db: 92 16        	sta	($16)                   ; 0x2016 <printf+0x97b>
     5dd: e6 16        	inc	$16                     ; 0x2016 <printf+0x97b>
     5df: d0 02        	bne	$5e3 <main+0x227>
     5e1: e6 17        	inc	$17                     ; 0x2017 <printf+0x97c>
     5e3: a2 ff        	ldx	#$ff
     5e5: c6 14        	dec	$14                     ; 0x2014 <printf+0x979>
     5e7: e4 14        	cpx	$14                     ; 0x2014 <printf+0x979>
     5e9: d0 ec        	bne	$5d7 <main+0x21b>
     5eb: c6 15        	dec	$15                     ; 0x2015 <printf+0x97a>
     5ed: 80 e8        	bra	$5d7 <main+0x21b>
     5ef: a6 14        	ldx	$14                     ; 0x2014 <printf+0x979>
     5f1: d0 e8        	bne	$5db <main+0x21f>
     5f3: a2 03        	ldx	#$3
     5f5: 86 01        	stx	$1                      ; 0x2001 <printf+0x966>
     5f7: a6 96        	ldx	$96                     ; 0x2096 <printf+0x9fb>
     5f9: 86 14        	stx	$14                     ; 0x2014 <printf+0x979>
     5fb: a6 19        	ldx	$19                     ; 0x2019 <printf+0x97e>
     5fd: 80 03        	bra	$602 <main+0x246>
     5ff: 98           	tya
     600: f0 12        	beq	$614 <main+0x258>
     602: a5 14        	lda	$14                     ; 0x2014 <printf+0x979>
     604: 92 12        	sta	($12)                   ; 0x2012 <printf+0x977>
     606: e6 12        	inc	$12                     ; 0x2012 <printf+0x977>
     608: d0 02        	bne	$60c <main+0x250>
     60a: e6 13        	inc	$13                     ; 0x2013 <printf+0x978>
     60c: ca           	dex
     60d: e0 ff        	cpx	#$ff
     60f: d0 ee        	bne	$5ff <main+0x243>
     611: 88           	dey
     612: 80 eb        	bra	$5ff <main+0x243>
     614: 8a           	txa
     615: d0 eb        	bne	$602 <main+0x246>
     617: 80 04        	bra	$61d <main+0x261>
     619: a2 03        	ldx	#$3
     61b: 86 01        	stx	$1                      ; 0x2001 <printf+0x966>
     61d: a6 18        	ldx	$18                     ; 0x2018 <printf+0x97d>
     61f: 86 01        	stx	$1                      ; 0x2001 <printf+0x966>
     621: 64 9e        	stz	$9e                     ; 0x209e <printf+0xa03>
     623: 9c 14 d0     	stz	$d014                   ; 0xd014 <end_block9+0xa9a4>
     626: 9c 15 d0     	stz	$d015                   ; 0xd015 <end_block9+0xa9a5>
     629: 64 9f        	stz	$9f                     ; 0x209f <printf+0xa04>
     62b: 9c 16 d0     	stz	$d016                   ; 0xd016 <end_block9+0xa9a6>
     62e: 9c 17 d0     	stz	$d017                   ; 0xd017 <end_block9+0xa9a7>
     631: a2 40        	ldx	#$40
     633: 8e 00 de     	stx	$de00                   ; 0xde00 <end_block9+0xb790>
     636: a2 01        	ldx	#$1
     638: 8e 01 de     	stx	$de01                   ; 0xde01 <end_block9+0xb791>
     63b: a2 f0        	ldx	#$f0
     63d: 8e 02 de     	stx	$de02                   ; 0xde02 <end_block9+0xb792>
     640: 9c 03 de     	stz	$de03                   ; 0xde03 <end_block9+0xb793>
     643: ae 10 de     	ldx	$de10                   ; 0xde10 <end_block9+0xb7a0>
     646: 86 17        	stx	$17                     ; 0x2017 <printf+0x97c>
     648: ae 11 de     	ldx	$de11                   ; 0xde11 <end_block9+0xb7a1>
     64b: 86 12        	stx	$12                     ; 0x2012 <printf+0x977>
     64d: ae 12 de     	ldx	$de12                   ; 0xde12 <end_block9+0xb7a2>
     650: 86 13        	stx	$13                     ; 0x2013 <printf+0x978>
     652: ae 13 de     	ldx	$de13                   ; 0xde13 <end_block9+0xb7a3>
     655: 86 14        	stx	$14                     ; 0x2014 <printf+0x979>
     657: a4 12        	ldy	$12                     ; 0x2012 <printf+0x977>
     659: 84 15        	sty	$15                     ; 0x2015 <printf+0x97a>
     65b: 06 15        	asl	$15                     ; 0x2015 <printf+0x97a>
     65d: a5 13        	lda	$13                     ; 0x2013 <printf+0x978>
     65f: 2a           	rol
     660: 86 16        	stx	$16                     ; 0x2016 <printf+0x97b>
     662: 26 16        	rol	$16                     ; 0x2016 <printf+0x97b>
     664: 06 15        	asl	$15                     ; 0x2015 <printf+0x97a>
     666: 2a           	rol
     667: 26 16        	rol	$16                     ; 0x2016 <printf+0x97b>
     669: 06 15        	asl	$15                     ; 0x2015 <printf+0x97a>
     66b: 2a           	rol
     66c: 26 16        	rol	$16                     ; 0x2016 <printf+0x97b>
     66e: 85 15        	sta	$15                     ; 0x2015 <printf+0x97a>
     670: 8d 00 de     	sta	$de00                   ; 0xde00 <end_block9+0xb790>
     673: a5 16        	lda	$16                     ; 0x2016 <printf+0x97b>
     675: 8d 01 de     	sta	$de01                   ; 0xde01 <end_block9+0xb791>
     678: 9c 02 de     	stz	$de02                   ; 0xde02 <end_block9+0xb792>
     67b: a2 20        	ldx	#$20
     67d: 8e 03 de     	stx	$de03                   ; 0xde03 <end_block9+0xb793>
     680: ae 10 de     	ldx	$de10                   ; 0xde10 <end_block9+0xb7a0>
     683: 86 16        	stx	$16                     ; 0x2016 <printf+0x97b>
     685: ae 11 de     	ldx	$de11                   ; 0xde11 <end_block9+0xb7a1>
     688: 86 18        	stx	$18                     ; 0x2018 <printf+0x97d>
     68a: ac 12 de     	ldy	$de12                   ; 0xde12 <end_block9+0xb7a2>
     68d: ae 13 de     	ldx	$de13                   ; 0xde13 <end_block9+0xb7a3>
     690: e4 14        	cpx	$14                     ; 0x2014 <printf+0x979>
     692: d0 14        	bne	$6a8 <main+0x2ec>
     694: c4 13        	cpy	$13                     ; 0x2013 <printf+0x978>
     696: d0 10        	bne	$6a8 <main+0x2ec>
     698: a6 18        	ldx	$18                     ; 0x2018 <printf+0x97d>
     69a: e4 12        	cpx	$12                     ; 0x2012 <printf+0x977>
     69c: d0 0a        	bne	$6a8 <main+0x2ec>
     69e: a6 16        	ldx	$16                     ; 0x2016 <printf+0x97b>
     6a0: e4 17        	cpx	$17                     ; 0x2017 <printf+0x97c>
     6a2: d0 04        	bne	$6a8 <main+0x2ec>
     6a4: a6 15        	ldx	$15                     ; 0x2015 <printf+0x97a>
     6a6: 80 06        	bra	$6ae <main+0x2f2>
     6a8: a6 15        	ldx	$15                     ; 0x2015 <printf+0x97a>
     6aa: e8           	inx
     6ab: d0 01        	bne	$6ae <main+0x2f2>
     6ad: 1a           	inc
     6ae: 8e 00 de     	stx	$de00                   ; 0xde00 <end_block9+0xb790>
     6b1: 8d 01 de     	sta	$de01                   ; 0xde01 <end_block9+0xb791>
     6b4: 9c 02 de     	stz	$de02                   ; 0xde02 <end_block9+0xb792>
     6b7: a2 20        	ldx	#$20
     6b9: 8e 03 de     	stx	$de03                   ; 0xde03 <end_block9+0xb793>
     6bc: ae 10 de     	ldx	$de10                   ; 0xde10 <end_block9+0xb7a0>
     6bf: 86 12        	stx	$12                     ; 0x2012 <printf+0x977>
     6c1: ae 11 de     	ldx	$de11                   ; 0xde11 <end_block9+0xb7a1>
     6c4: 86 13        	stx	$13                     ; 0x2013 <printf+0x978>
     6c6: ae 12 de     	ldx	$de12                   ; 0xde12 <end_block9+0xb7a2>
     6c9: 86 14        	stx	$14                     ; 0x2014 <printf+0x979>
     6cb: ae 13 de     	ldx	$de13                   ; 0xde13 <end_block9+0xb7a3>
     6ce: 86 15        	stx	$15                     ; 0x2015 <printf+0x97a>
     6d0: a9 00        	lda	#$0
     6d2: 38           	sec
     6d3: e5 12        	sbc	$12                     ; 0x2012 <printf+0x977>
     6d5: 85 16        	sta	$16                     ; 0x2016 <printf+0x97b>
     6d7: a9 00        	lda	#$0
     6d9: e5 13        	sbc	$13                     ; 0x2013 <printf+0x978>
     6db: 85 17        	sta	$17                     ; 0x2017 <printf+0x97c>
     6dd: a9 08        	lda	#$8
     6df: e5 14        	sbc	$14                     ; 0x2014 <printf+0x979>
     6e1: aa           	tax
     6e2: a9 00        	lda	#$0
     6e4: e5 15        	sbc	$15                     ; 0x2015 <printf+0x97a>
     6e6: a8           	tay
     6e7: a5 17        	lda	$17                     ; 0x2017 <printf+0x97c>
     6e9: 8d 65 26     	sta	$2665                   ; 0x2665 <_BITMAP_BASE.0+0x1>
     6ec: 8e 66 26     	stx	$2666                   ; 0x2666 <_BITMAP_BASE.0+0x2>
     6ef: 8c 67 26     	sty	$2667                   ; 0x2667 <_BITMAP_BASE.0+0x3>
     6f2: a5 16        	lda	$16                     ; 0x2016 <printf+0x97b>
     6f4: 38           	sec
     6f5: e5 12        	sbc	$12                     ; 0x2012 <printf+0x977>
     6f7: a8           	tay
     6f8: a5 17        	lda	$17                     ; 0x2017 <printf+0x97c>
     6fa: e5 13        	sbc	$13                     ; 0x2013 <printf+0x978>
     6fc: 85 15        	sta	$15                     ; 0x2015 <printf+0x97a>
     6fe: 8a           	txa
     6ff: e5 14        	sbc	$14                     ; 0x2014 <printf+0x979>
     701: aa           	tax
     702: 98           	tya
     703: 38           	sec
     704: e5 12        	sbc	$12                     ; 0x2012 <printf+0x977>
     706: 85 12        	sta	$12                     ; 0x2012 <printf+0x977>
     708: a5 15        	lda	$15                     ; 0x2015 <printf+0x97a>
     70a: e5 13        	sbc	$13                     ; 0x2013 <printf+0x978>
     70c: 85 13        	sta	$13                     ; 0x2013 <printf+0x978>
     70e: 8a           	txa
     70f: 86 17        	stx	$17                     ; 0x2017 <printf+0x97c>
     711: e5 14        	sbc	$14                     ; 0x2014 <printf+0x979>
     713: a6 16        	ldx	$16                     ; 0x2016 <printf+0x97b>
     715: 8e 64 26     	stx	$2664                   ; 0x2664 <_BITMAP_BASE.0>
     718: 8e 01 d1     	stx	$d101                   ; 0xd101 <end_block9+0xaa91>
     71b: ae 65 26     	ldx	$2665                   ; 0x2665 <_BITMAP_BASE.0+0x1>
     71e: 8e 02 d1     	stx	$d102                   ; 0xd102 <end_block9+0xaa92>
     721: ae 66 26     	ldx	$2666                   ; 0x2666 <_BITMAP_BASE.0+0x2>
     724: 8e 03 d1     	stx	$d103                   ; 0xd103 <end_block9+0xaa93>
     727: 8c 09 d1     	sty	$d109                   ; 0xd109 <end_block9+0xaa99>
     72a: a6 15        	ldx	$15                     ; 0x2015 <printf+0x97a>
     72c: 8e 0a d1     	stx	$d10a                   ; 0xd10a <end_block9+0xaa9a>
     72f: a6 17        	ldx	$17                     ; 0x2017 <printf+0x97c>
     731: 8e 0b d1     	stx	$d10b                   ; 0xd10b <end_block9+0xaa9b>
     734: a6 12        	ldx	$12                     ; 0x2012 <printf+0x977>
     736: 8e 11 d1     	stx	$d111                   ; 0xd111 <end_block9+0xaaa1>
     739: a6 13        	ldx	$13                     ; 0x2013 <printf+0x978>
     73b: 8e 12 d1     	stx	$d112                   ; 0xd112 <end_block9+0xaaa2>
     73e: 8d 13 d1     	sta	$d113                   ; 0xd113 <end_block9+0xaaa3>
     741: 9c 00 d1     	stz	$d100                   ; 0xd100 <end_block9+0xaa90>
     744: 9c 08 d1     	stz	$d108                   ; 0xd108 <end_block9+0xaa98>
     747: 9c 10 d1     	stz	$d110                   ; 0xd110 <end_block9+0xaaa0>
     74a: a2 10        	ldx	#$10
     74c: 8e 00 d2     	stx	$d200                   ; 0xd200 <end_block9+0xab90>
     74f: 8e 0c d2     	stx	$d20c                   ; 0xd20c <end_block9+0xab9c>
     752: 8e 18 d2     	stx	$d218                   ; 0xd218 <end_block9+0xaba8>
     755: a0 d9        	ldy	#$d9
     757: a2 40        	ldx	#$40
     759: 64 12        	stz	$12                     ; 0x2012 <printf+0x977>
     75b: 84 13        	sty	$13                     ; 0x2013 <printf+0x978>
     75d: a9 00        	lda	#$0
     75f: 92 12        	sta	($12)                   ; 0x2012 <printf+0x977>
     761: ca           	dex
     762: 18           	clc
     763: a5 12        	lda	$12                     ; 0x2012 <printf+0x977>
     765: 69 08        	adc	#$8
     767: 85 12        	sta	$12                     ; 0x2012 <printf+0x977>
     769: 98           	tya
     76a: 69 00        	adc	#$0
     76c: a8           	tay
     76d: 8a           	txa
     76e: d0 eb        	bne	$75b <main+0x39f>
     770: 18           	clc
     771: a5 10        	lda	$10                     ; 0x2010 <printf+0x975>
     773: 69 09        	adc	#$9
     775: 85 12        	sta	$12                     ; 0x2012 <printf+0x977>
     777: a5 11        	lda	$11                     ; 0x2011 <printf+0x976>
     779: 69 00        	adc	#$0
     77b: 85 13        	sta	$13                     ; 0x2013 <printf+0x978>
     77d: a6 12        	ldx	$12                     ; 0x2012 <printf+0x977>
     77f: 86 fb        	stx	$fb                     ; 0x20fb <printf+0xa60>
     781: 85 fc        	sta	$fc                     ; 0x20fc <printf+0xa61>
     783: a2 08        	ldx	#$8
     785: 86 fd        	stx	$fd                     ; 0x20fd <printf+0xa62>
     787: 18           	clc
     788: a5 10        	lda	$10                     ; 0x2010 <printf+0x975>
     78a: 69 08        	adc	#$8
     78c: 85 14        	sta	$14                     ; 0x2014 <printf+0x979>
     78e: a5 11        	lda	$11                     ; 0x2011 <printf+0x976>
     790: 69 00        	adc	#$0
     792: 85 15        	sta	$15                     ; 0x2015 <printf+0x97a>
     794: a2 63        	ldx	#$63
     796: 86 16        	stx	$16                     ; 0x2016 <printf+0x97b>
     798: a2 26        	ldx	#$26
     79a: 86 17        	stx	$17                     ; 0x2017 <printf+0x97c>
     79c: a0 06        	ldy	#$6
     79e: 20 dc ff     	jsr	$ffdc <end_block9+0xd96c>
     7a1: 92 14        	sta	($14)                   ; 0x2014 <printf+0x979>
     7a3: a9 00        	lda	#$0
     7a5: 6a           	ror
     7a6: 85 16        	sta	$16                     ; 0x2016 <printf+0x97b>
     7a8: b1 12        	lda	($12),y                 ; 0x2012 <printf+0x977>
     7aa: 85 14        	sta	$14                     ; 0x2014 <printf+0x979>
     7ac: c8           	iny
     7ad: b1 12        	lda	($12),y                 ; 0x2012 <printf+0x977>
     7af: a6 14        	ldx	$14                     ; 0x2014 <printf+0x979>
     7b1: 8e 00 de     	stx	$de00                   ; 0xde00 <end_block9+0xb790>
     7b4: 9c 01 de     	stz	$de01                   ; 0xde01 <end_block9+0xb791>
     7b7: 8d 02 de     	sta	$de02                   ; 0xde02 <end_block9+0xb792>
     7ba: 9c 03 de     	stz	$de03                   ; 0xde03 <end_block9+0xb793>
     7bd: ae 10 de     	ldx	$de10                   ; 0xde10 <end_block9+0xb7a0>
     7c0: ac 11 de     	ldy	$de11                   ; 0xde11 <end_block9+0xb7a1>
     7c3: ad 12 de     	lda	$de12                   ; 0xde12 <end_block9+0xb7a2>
     7c6: ad 13 de     	lda	$de13                   ; 0xde13 <end_block9+0xb7a3>
     7c9: 8e a4 d6     	stx	$d6a4                   ; 0xd6a4 <end_block9+0xb034>
     7cc: 8c a5 d6     	sty	$d6a5                   ; 0xd6a5 <end_block9+0xb035>
     7cf: a2 03        	ldx	#$3
     7d1: 8e a6 d6     	stx	$d6a6                   ; 0xd6a6 <end_block9+0xb036>
     7d4: a2 00        	ldx	#$0
     7d6: 64 01        	stz	$1                      ; 0x2001 <printf+0x966>
     7d8: a0 3f        	ldy	#$3f
     7da: 8c 00 d0     	sty	$d000                   ; 0xd000 <end_block9+0xa990>
     7dd: a0 04        	ldy	#$4
     7df: 8c 01 d0     	sty	$d001                   ; 0xd001 <end_block9+0xa991>
     7e2: 9c 0d d0     	stz	$d00d                   ; 0xd00d <end_block9+0xa99d>
     7e5: 9c 0e d0     	stz	$d00e                   ; 0xd00e <end_block9+0xa99e>
     7e8: 9c 0f d0     	stz	$d00f                   ; 0xd00f <end_block9+0xa99f>
     7eb: a0 01        	ldy	#$1
     7ed: 84 01        	sty	$1                      ; 0x2001 <printf+0x966>
     7ef: a0 d0        	ldy	#$d0
     7f1: 86 16        	stx	$16                     ; 0x2016 <printf+0x97b>
     7f3: 8a           	txa
     7f4: 18           	clc
     7f5: 69 00        	adc	#$0
     7f7: 85 14        	sta	$14                     ; 0x2014 <printf+0x979>
     7f9: 98           	tya
     7fa: 69 10        	adc	#$10
     7fc: 85 15        	sta	$15                     ; 0x2015 <printf+0x97a>
     7fe: 86 12        	stx	$12                     ; 0x2012 <printf+0x977>
     800: 84 13        	sty	$13                     ; 0x2013 <printf+0x978>
     802: a6 0f        	ldx	$f                      ; 0x200f <printf+0x974>
     804: 78           	sei
     805: a9 18        	lda	#$18
     807: 85 0f        	sta	$f                      ; 0x200f <printf+0x974>
     809: b2 14        	lda	($14)                   ; 0x2014 <printf+0x979>
     80b: 86 0f        	stx	$f                      ; 0x200f <printf+0x974>
     80d: 58           	cli
     80e: 92 12        	sta	($12)                   ; 0x2012 <printf+0x977>
     810: a6 16        	ldx	$16                     ; 0x2016 <printf+0x97b>
     812: e8           	inx
     813: f0 06        	beq	$81b <main+0x45f>
     815: c0 d3        	cpy	#$d3
     817: d0 d8        	bne	$7f1 <main+0x435>
     819: 80 05        	bra	$820 <main+0x464>
     81b: c8           	iny
     81c: c0 d3        	cpy	#$d3
     81e: d0 d1        	bne	$7f1 <main+0x435>
     820: e0 ff        	cpx	#$ff
     822: d0 cd        	bne	$7f1 <main+0x435>
     824: 64 01        	stz	$1                      ; 0x2001 <printf+0x966>
     826: a2 40        	ldx	#$40
     828: 8e 00 de     	stx	$de00                   ; 0xde00 <end_block9+0xb790>
     82b: a2 01        	ldx	#$1
     82d: 8e 01 de     	stx	$de01                   ; 0xde01 <end_block9+0xb791>
     830: a2 f0        	ldx	#$f0
     832: 8e 02 de     	stx	$de02                   ; 0xde02 <end_block9+0xb792>
     835: 9c 03 de     	stz	$de03                   ; 0xde03 <end_block9+0xb793>
     838: ae 10 de     	ldx	$de10                   ; 0xde10 <end_block9+0xb7a0>
     83b: 86 17        	stx	$17                     ; 0x2017 <printf+0x97c>
     83d: ae 11 de     	ldx	$de11                   ; 0xde11 <end_block9+0xb7a1>
     840: 86 12        	stx	$12                     ; 0x2012 <printf+0x977>
     842: ae 12 de     	ldx	$de12                   ; 0xde12 <end_block9+0xb7a2>
     845: 86 13        	stx	$13                     ; 0x2013 <printf+0x978>
     847: ae 13 de     	ldx	$de13                   ; 0xde13 <end_block9+0xb7a3>
     84a: 86 14        	stx	$14                     ; 0x2014 <printf+0x979>
     84c: a4 12        	ldy	$12                     ; 0x2012 <printf+0x977>
     84e: 84 15        	sty	$15                     ; 0x2015 <printf+0x97a>
     850: 06 15        	asl	$15                     ; 0x2015 <printf+0x97a>
     852: a5 13        	lda	$13                     ; 0x2013 <printf+0x978>
     854: 2a           	rol
     855: 86 16        	stx	$16                     ; 0x2016 <printf+0x97b>
     857: 26 16        	rol	$16                     ; 0x2016 <printf+0x97b>
     859: 06 15        	asl	$15                     ; 0x2015 <printf+0x97a>
     85b: 2a           	rol
     85c: 26 16        	rol	$16                     ; 0x2016 <printf+0x97b>
     85e: 06 15        	asl	$15                     ; 0x2015 <printf+0x97a>
     860: 2a           	rol
     861: 26 16        	rol	$16                     ; 0x2016 <printf+0x97b>
     863: 85 15        	sta	$15                     ; 0x2015 <printf+0x97a>
     865: 8d 00 de     	sta	$de00                   ; 0xde00 <end_block9+0xb790>
     868: a5 16        	lda	$16                     ; 0x2016 <printf+0x97b>
     86a: 8d 01 de     	sta	$de01                   ; 0xde01 <end_block9+0xb791>
     86d: 9c 02 de     	stz	$de02                   ; 0xde02 <end_block9+0xb792>
     870: a2 20        	ldx	#$20
     872: 8e 03 de     	stx	$de03                   ; 0xde03 <end_block9+0xb793>
     875: ae 10 de     	ldx	$de10                   ; 0xde10 <end_block9+0xb7a0>
     878: 86 16        	stx	$16                     ; 0x2016 <printf+0x97b>
     87a: ae 11 de     	ldx	$de11                   ; 0xde11 <end_block9+0xb7a1>
     87d: 86 18        	stx	$18                     ; 0x2018 <printf+0x97d>
     87f: ac 12 de     	ldy	$de12                   ; 0xde12 <end_block9+0xb7a2>
     882: ae 13 de     	ldx	$de13                   ; 0xde13 <end_block9+0xb7a3>
     885: e4 14        	cpx	$14                     ; 0x2014 <printf+0x979>
     887: d0 14        	bne	$89d <main+0x4e1>
     889: c4 13        	cpy	$13                     ; 0x2013 <printf+0x978>
     88b: d0 10        	bne	$89d <main+0x4e1>
     88d: a6 18        	ldx	$18                     ; 0x2018 <printf+0x97d>
     88f: e4 12        	cpx	$12                     ; 0x2012 <printf+0x977>
     891: d0 0a        	bne	$89d <main+0x4e1>
     893: a6 16        	ldx	$16                     ; 0x2016 <printf+0x97b>
     895: e4 17        	cpx	$17                     ; 0x2017 <printf+0x97c>
     897: d0 04        	bne	$89d <main+0x4e1>
     899: a6 15        	ldx	$15                     ; 0x2015 <printf+0x97a>
     89b: 80 06        	bra	$8a3 <main+0x4e7>
     89d: a6 15        	ldx	$15                     ; 0x2015 <printf+0x97a>
     89f: e8           	inx
     8a0: d0 01        	bne	$8a3 <main+0x4e7>
     8a2: 1a           	inc
     8a3: 8e 00 de     	stx	$de00                   ; 0xde00 <end_block9+0xb790>
     8a6: 8d 01 de     	sta	$de01                   ; 0xde01 <end_block9+0xb791>
     8a9: 9c 02 de     	stz	$de02                   ; 0xde02 <end_block9+0xb792>
     8ac: a2 20        	ldx	#$20
     8ae: 8e 03 de     	stx	$de03                   ; 0xde03 <end_block9+0xb793>
     8b1: ae 10 de     	ldx	$de10                   ; 0xde10 <end_block9+0xb7a0>
     8b4: 86 12        	stx	$12                     ; 0x2012 <printf+0x977>
     8b6: ae 11 de     	ldx	$de11                   ; 0xde11 <end_block9+0xb7a1>
     8b9: 86 13        	stx	$13                     ; 0x2013 <printf+0x978>
     8bb: ae 12 de     	ldx	$de12                   ; 0xde12 <end_block9+0xb7a2>
     8be: 86 14        	stx	$14                     ; 0x2014 <printf+0x979>
     8c0: ae 13 de     	ldx	$de13                   ; 0xde13 <end_block9+0xb7a3>
     8c3: 86 15        	stx	$15                     ; 0x2015 <printf+0x97a>
     8c5: 38           	sec
     8c6: a9 00        	lda	#$0
     8c8: e5 12        	sbc	$12                     ; 0x2012 <printf+0x977>
     8ca: 85 16        	sta	$16                     ; 0x2016 <printf+0x97b>
     8cc: a9 00        	lda	#$0
     8ce: e5 13        	sbc	$13                     ; 0x2013 <printf+0x978>
     8d0: 85 17        	sta	$17                     ; 0x2017 <printf+0x97c>
     8d2: a9 08        	lda	#$8
     8d4: e5 14        	sbc	$14                     ; 0x2014 <printf+0x979>
     8d6: aa           	tax
     8d7: a9 00        	lda	#$0
     8d9: e5 15        	sbc	$15                     ; 0x2015 <printf+0x97a>
     8db: a4 17        	ldy	$17                     ; 0x2017 <printf+0x97c>
     8dd: 8c 65 26     	sty	$2665                   ; 0x2665 <_BITMAP_BASE.0+0x1>
     8e0: 8e 66 26     	stx	$2666                   ; 0x2666 <_BITMAP_BASE.0+0x2>
     8e3: 8d 67 26     	sta	$2667                   ; 0x2667 <_BITMAP_BASE.0+0x3>
     8e6: a5 16        	lda	$16                     ; 0x2016 <printf+0x97b>
     8e8: 38           	sec
     8e9: e5 12        	sbc	$12                     ; 0x2012 <printf+0x977>
     8eb: a8           	tay
     8ec: a5 17        	lda	$17                     ; 0x2017 <printf+0x97c>
     8ee: e5 13        	sbc	$13                     ; 0x2013 <printf+0x978>
     8f0: 85 15        	sta	$15                     ; 0x2015 <printf+0x97a>
     8f2: 8a           	txa
     8f3: e5 14        	sbc	$14                     ; 0x2014 <printf+0x979>
     8f5: aa           	tax
     8f6: 38           	sec
     8f7: 98           	tya
     8f8: e5 12        	sbc	$12                     ; 0x2012 <printf+0x977>
     8fa: 85 12        	sta	$12                     ; 0x2012 <printf+0x977>
     8fc: a5 15        	lda	$15                     ; 0x2015 <printf+0x97a>
     8fe: e5 13        	sbc	$13                     ; 0x2013 <printf+0x978>
     900: 85 13        	sta	$13                     ; 0x2013 <printf+0x978>
     902: 8a           	txa
     903: 86 17        	stx	$17                     ; 0x2017 <printf+0x97c>
     905: e5 14        	sbc	$14                     ; 0x2014 <printf+0x979>
     907: a6 16        	ldx	$16                     ; 0x2016 <printf+0x97b>
     909: 8e 64 26     	stx	$2664                   ; 0x2664 <_BITMAP_BASE.0>
     90c: 8e 01 d1     	stx	$d101                   ; 0xd101 <end_block9+0xaa91>
     90f: ae 65 26     	ldx	$2665                   ; 0x2665 <_BITMAP_BASE.0+0x1>
     912: 8e 02 d1     	stx	$d102                   ; 0xd102 <end_block9+0xaa92>
     915: ae 66 26     	ldx	$2666                   ; 0x2666 <_BITMAP_BASE.0+0x2>
     918: 8e 03 d1     	stx	$d103                   ; 0xd103 <end_block9+0xaa93>
     91b: 8c 09 d1     	sty	$d109                   ; 0xd109 <end_block9+0xaa99>
     91e: a6 15        	ldx	$15                     ; 0x2015 <printf+0x97a>
     920: 8e 0a d1     	stx	$d10a                   ; 0xd10a <end_block9+0xaa9a>
     923: a6 17        	ldx	$17                     ; 0x2017 <printf+0x97c>
     925: 8e 0b d1     	stx	$d10b                   ; 0xd10b <end_block9+0xaa9b>
     928: a6 12        	ldx	$12                     ; 0x2012 <printf+0x977>
     92a: 8e 11 d1     	stx	$d111                   ; 0xd111 <end_block9+0xaaa1>
     92d: a6 13        	ldx	$13                     ; 0x2013 <printf+0x978>
     92f: 8e 12 d1     	stx	$d112                   ; 0xd112 <end_block9+0xaaa2>
     932: 8d 13 d1     	sta	$d113                   ; 0xd113 <end_block9+0xaaa3>
     935: 9c 00 d1     	stz	$d100                   ; 0xd100 <end_block9+0xaa90>
     938: 9c 08 d1     	stz	$d108                   ; 0xd108 <end_block9+0xaa98>
     93b: 9c 10 d1     	stz	$d110                   ; 0xd110 <end_block9+0xaaa0>
     93e: 9c 64 26     	stz	$2664                   ; 0x2664 <_BITMAP_BASE.0>
     941: a2 04        	ldx	#$4
     943: 8e 65 26     	stx	$2665                   ; 0x2665 <_BITMAP_BASE.0+0x1>
     946: a0 03        	ldy	#$3
     948: 8c 66 26     	sty	$2666                   ; 0x2666 <_BITMAP_BASE.0+0x2>
     94b: 9c 67 26     	stz	$2667                   ; 0x2667 <_BITMAP_BASE.0+0x3>
     94e: 9c 01 d1     	stz	$d101                   ; 0xd101 <end_block9+0xaa91>
     951: 8e 02 d1     	stx	$d102                   ; 0xd102 <end_block9+0xaa92>
     954: 8c 03 d1     	sty	$d103                   ; 0xd103 <end_block9+0xaa93>
     957: a2 01        	ldx	#$1
     959: 8e 00 d1     	stx	$d100                   ; 0xd100 <end_block9+0xaa90>
     95c: a6 02        	ldx	$2                      ; 0x2002 <printf+0x967>
     95e: 86 12        	stx	$12                     ; 0x2012 <printf+0x977>
     960: a6 03        	ldx	$3                      ; 0x2003 <printf+0x968>
     962: 86 13        	stx	$13                     ; 0x2013 <printf+0x978>
     964: a9 ff        	lda	#$ff
     966: a0 01        	ldy	#$1
     968: 91 12        	sta	($12),y                 ; 0x2012 <printf+0x977>
     96a: c8           	iny
     96b: a9 07        	lda	#$7
     96d: 91 12        	sta	($12),y                 ; 0x2012 <printf+0x977>
     96f: a9 09        	lda	#$9
     971: c8           	iny
     972: 91 12        	sta	($12),y                 ; 0x2012 <printf+0x977>
     974: a0 05        	ldy	#$5
     976: a9 20        	lda	#$20
     978: 91 12        	sta	($12),y                 ; 0x2012 <printf+0x977>
     97a: a9 00        	lda	#$0
     97c: 88           	dey
     97d: 91 12        	sta	($12),y                 ; 0x2012 <printf+0x977>
     97f: a0 06        	ldy	#$6
     981: 91 12        	sta	($12),y                 ; 0x2012 <printf+0x977>
     983: c8           	iny
     984: 91 12        	sta	($12),y                 ; 0x2012 <printf+0x977>
     986: c8           	iny
     987: 91 12        	sta	($12),y                 ; 0x2012 <printf+0x977>
     989: 64 01        	stz	$1                      ; 0x2001 <printf+0x966>
     98b: a9 0f        	lda	#$f
     98d: 92 12        	sta	($12)                   ; 0x2012 <printf+0x977>
     98f: 64 9e        	stz	$9e                     ; 0x209e <printf+0xa03>
     991: 9c 14 d0     	stz	$d014                   ; 0xd014 <end_block9+0xa9a4>
     994: 9c 15 d0     	stz	$d015                   ; 0xd015 <end_block9+0xa9a5>
     997: 64 9f        	stz	$9f                     ; 0x209f <printf+0xa04>
     999: 9c 16 d0     	stz	$d016                   ; 0xd016 <end_block9+0xa9a6>
     99c: 9c 17 d0     	stz	$d017                   ; 0xd017 <end_block9+0xa9a7>
     99f: a2 f3        	ldx	#$f3
     9a1: 86 96        	stx	$96                     ; 0x2096 <printf+0x9fb>
     9a3: a2 2e        	ldx	#$2e
     9a5: 86 12        	stx	$12                     ; 0x2012 <printf+0x977>
     9a7: a2 25        	ldx	#$25
     9a9: 86 13        	stx	$13                     ; 0x2013 <printf+0x978>
     9ab: 20 c8 12     	jsr	$12c8 <textPrint>
     9ae: a2 d4        	ldx	#$d4
     9b0: a0 00        	ldy	#$0
     9b2: 18           	clc
     9b3: 98           	tya
     9b4: 69 00        	adc	#$0
     9b6: 85 14        	sta	$14                     ; 0x2014 <printf+0x979>
     9b8: 8a           	txa
     9b9: 69 01        	adc	#$1
     9bb: 85 15        	sta	$15                     ; 0x2015 <printf+0x97a>
     9bd: 84 12        	sty	$12                     ; 0x2012 <printf+0x977>
     9bf: 86 13        	stx	$13                     ; 0x2013 <printf+0x978>
     9c1: a9 00        	lda	#$0
     9c3: 92 12        	sta	($12)                   ; 0x2012 <printf+0x977>
     9c5: 5a           	phy
     9c6: a4 14        	ldy	$14                     ; 0x2014 <printf+0x979>
     9c8: 84 12        	sty	$12                     ; 0x2012 <printf+0x977>
     9ca: a4 15        	ldy	$15                     ; 0x2015 <printf+0x97a>
     9cc: 84 13        	sty	$13                     ; 0x2013 <printf+0x978>
     9ce: 7a           	ply
     9cf: 92 12        	sta	($12)                   ; 0x2012 <printf+0x977>
     9d1: c8           	iny
     9d2: d0 01        	bne	$9d5 <main+0x619>
     9d4: e8           	inx
     9d5: c0 19        	cpy	#$19
     9d7: d0 d9        	bne	$9b2 <main+0x5f6>
     9d9: ad a1 d6     	lda	$d6a1                   ; 0xd6a1 <end_block9+0xb031>
     9dc: 29 f7        	and	#$f7
     9de: 8d a1 d6     	sta	$d6a1                   ; 0xd6a1 <end_block9+0xb031>
     9e1: a2 ff        	ldx	#$ff
     9e3: 8e 02 d4     	stx	$d402                   ; 0xd402 <end_block9+0xad92>
     9e6: a2 07        	ldx	#$7
     9e8: 8e 03 d4     	stx	$d403                   ; 0xd403 <end_block9+0xad93>
     9eb: a2 09        	ldx	#$9
     9ed: 8e 05 d4     	stx	$d405                   ; 0xd405 <end_block9+0xad95>
     9f0: 9c 06 d4     	stz	$d406                   ; 0xd406 <end_block9+0xad96>
     9f3: a0 20        	ldy	#$20
     9f5: 8c 04 d4     	sty	$d404                   ; 0xd404 <end_block9+0xad94>
     9f8: a9 ff        	lda	#$ff
     9fa: 8d 02 d5     	sta	$d502                   ; 0xd502 <end_block9+0xae92>
     9fd: a9 07        	lda	#$7
     9ff: 8d 03 d5     	sta	$d503                   ; 0xd503 <end_block9+0xae93>
     a02: 8e 05 d5     	stx	$d505                   ; 0xd505 <end_block9+0xae95>
     a05: 9c 06 d5     	stz	$d506                   ; 0xd506 <end_block9+0xae96>
     a08: 8c 04 d5     	sty	$d504                   ; 0xd504 <end_block9+0xae94>
     a0b: a9 ff        	lda	#$ff
     a0d: 8d 09 d4     	sta	$d409                   ; 0xd409 <end_block9+0xad99>
     a10: a9 07        	lda	#$7
     a12: 8d 0a d4     	sta	$d40a                   ; 0xd40a <end_block9+0xad9a>
     a15: 8e 0c d4     	stx	$d40c                   ; 0xd40c <end_block9+0xad9c>
     a18: 9c 0d d4     	stz	$d40d                   ; 0xd40d <end_block9+0xad9d>
     a1b: 8c 0b d4     	sty	$d40b                   ; 0xd40b <end_block9+0xad9b>
     a1e: a9 ff        	lda	#$ff
     a20: 8d 09 d5     	sta	$d509                   ; 0xd509 <end_block9+0xae99>
     a23: a9 07        	lda	#$7
     a25: 8d 0a d5     	sta	$d50a                   ; 0xd50a <end_block9+0xae9a>
     a28: 8e 0c d5     	stx	$d50c                   ; 0xd50c <end_block9+0xae9c>
     a2b: 9c 0d d5     	stz	$d50d                   ; 0xd50d <end_block9+0xae9d>
     a2e: 8c 0b d5     	sty	$d50b                   ; 0xd50b <end_block9+0xae9b>
     a31: a9 ff        	lda	#$ff
     a33: 8d 10 d4     	sta	$d410                   ; 0xd410 <end_block9+0xada0>
     a36: a9 07        	lda	#$7
     a38: 8d 11 d4     	sta	$d411                   ; 0xd411 <end_block9+0xada1>
     a3b: 8e 13 d4     	stx	$d413                   ; 0xd413 <end_block9+0xada3>
     a3e: 9c 14 d4     	stz	$d414                   ; 0xd414 <end_block9+0xada4>
     a41: 8c 12 d4     	sty	$d412                   ; 0xd412 <end_block9+0xada2>
     a44: a9 ff        	lda	#$ff
     a46: 8d 10 d5     	sta	$d510                   ; 0xd510 <end_block9+0xaea0>
     a49: a9 07        	lda	#$7
     a4b: 8d 11 d5     	sta	$d511                   ; 0xd511 <end_block9+0xaea1>
     a4e: 8e 13 d5     	stx	$d513                   ; 0xd513 <end_block9+0xaea3>
     a51: 9c 14 d5     	stz	$d514                   ; 0xd514 <end_block9+0xaea4>
     a54: 8c 12 d5     	sty	$d512                   ; 0xd512 <end_block9+0xaea2>
     a57: 9c 14 d4     	stz	$d414                   ; 0xd414 <end_block9+0xada4>
     a5a: 9c 15 d4     	stz	$d415                   ; 0xd415 <end_block9+0xada5>
     a5d: 9c 17 d4     	stz	$d417                   ; 0xd417 <end_block9+0xada7>
     a60: a2 0f        	ldx	#$f
     a62: 8e 18 d4     	stx	$d418                   ; 0xd418 <end_block9+0xada8>
     a65: 9c 14 d5     	stz	$d514                   ; 0xd514 <end_block9+0xaea4>
     a68: 9c 15 d5     	stz	$d515                   ; 0xd515 <end_block9+0xaea5>
     a6b: 9c 17 d5     	stz	$d517                   ; 0xd517 <end_block9+0xaea7>
     a6e: 8e 18 d5     	stx	$d518                   ; 0xd518 <end_block9+0xaea8>
     a71: 64 9e        	stz	$9e                     ; 0x209e <printf+0xa03>
     a73: 9c 14 d0     	stz	$d014                   ; 0xd014 <end_block9+0xa9a4>
     a76: 9c 15 d0     	stz	$d015                   ; 0xd015 <end_block9+0xa9a5>
     a79: 64 9f        	stz	$9f                     ; 0x209f <printf+0xa04>
     a7b: 9c 16 d0     	stz	$d016                   ; 0xd016 <end_block9+0xa9a6>
     a7e: 9c 17 d0     	stz	$d017                   ; 0xd017 <end_block9+0xa9a7>
     a81: a2 e0        	ldx	#$e0
     a83: 86 96        	stx	$96                     ; 0x2096 <printf+0x9fb>
     a85: a2 2e        	ldx	#$2e
     a87: 86 12        	stx	$12                     ; 0x2012 <printf+0x977>
     a89: a2 25        	ldx	#$25
     a8b: 86 13        	stx	$13                     ; 0x2013 <printf+0x978>
     a8d: 20 9b 16     	jsr	$169b <printf>
     a90: a2 bf        	ldx	#$bf
     a92: 86 96        	stx	$96                     ; 0x2096 <printf+0x9fb>
     a94: a2 01        	ldx	#$1
     a96: 86 9e        	stx	$9e                     ; 0x209e <printf+0xa03>
     a98: 8e 14 d0     	stx	$d014                   ; 0xd014 <end_block9+0xa9a4>
     a9b: 9c 15 d0     	stz	$d015                   ; 0xd015 <end_block9+0xa9a5>
     a9e: e8           	inx
     a9f: 86 9f        	stx	$9f                     ; 0x209f <printf+0xa04>
     aa1: 8e 16 d0     	stx	$d016                   ; 0xd016 <end_block9+0xa9a6>
     aa4: 9c 17 d0     	stz	$d017                   ; 0xd017 <end_block9+0xa9a7>
     aa7: a2 0e        	ldx	#$e
     aa9: 86 12        	stx	$12                     ; 0x2012 <printf+0x977>
     aab: a2 25        	ldx	#$25
     aad: 86 13        	stx	$13                     ; 0x2013 <printf+0x978>
     aaf: 20 9b 16     	jsr	$169b <printf>
     ab2: a2 ff        	ldx	#$ff
     ab4: 86 96        	stx	$96                     ; 0x2096 <printf+0x9fb>
     ab6: a2 01        	ldx	#$1
     ab8: 86 9e        	stx	$9e                     ; 0x209e <printf+0xa03>
     aba: 8e 14 d0     	stx	$d014                   ; 0xd014 <end_block9+0xa9a4>
     abd: 9c 15 d0     	stz	$d015                   ; 0xd015 <end_block9+0xa9a5>
     ac0: a2 03        	ldx	#$3
     ac2: 86 9f        	stx	$9f                     ; 0x209f <printf+0xa04>
     ac4: 8e 16 d0     	stx	$d016                   ; 0xd016 <end_block9+0xa9a6>
     ac7: 9c 17 d0     	stz	$d017                   ; 0xd017 <end_block9+0xa9a7>
     aca: a2 49        	ldx	#$49
     acc: 86 12        	stx	$12                     ; 0x2012 <printf+0x977>
     ace: a2 24        	ldx	#$24
     ad0: 86 13        	stx	$13                     ; 0x2013 <printf+0x978>
     ad2: 20 9b 16     	jsr	$169b <printf>
     ad5: a2 01        	ldx	#$1
     ad7: 86 9e        	stx	$9e                     ; 0x209e <printf+0xa03>
     ad9: 8e 14 d0     	stx	$d014                   ; 0xd014 <end_block9+0xa9a4>
     adc: 9c 15 d0     	stz	$d015                   ; 0xd015 <end_block9+0xa9a5>
     adf: a2 04        	ldx	#$4
     ae1: 86 9f        	stx	$9f                     ; 0x209f <printf+0xa04>
     ae3: 8e 16 d0     	stx	$d016                   ; 0xd016 <end_block9+0xa9a6>
     ae6: 9c 17 d0     	stz	$d017                   ; 0xd017 <end_block9+0xa9a7>
     ae9: a2 e0        	ldx	#$e0
     aeb: 86 12        	stx	$12                     ; 0x2012 <printf+0x977>
     aed: a2 23        	ldx	#$23
     aef: 86 13        	stx	$13                     ; 0x2013 <printf+0x978>
     af1: 20 9b 16     	jsr	$169b <printf>
     af4: a2 01        	ldx	#$1
     af6: 86 9e        	stx	$9e                     ; 0x209e <printf+0xa03>
     af8: 8e 14 d0     	stx	$d014                   ; 0xd014 <end_block9+0xa9a4>
     afb: 9c 15 d0     	stz	$d015                   ; 0xd015 <end_block9+0xa9a5>
     afe: a2 05        	ldx	#$5
     b00: 86 9f        	stx	$9f                     ; 0x209f <printf+0xa04>
     b02: 8e 16 d0     	stx	$d016                   ; 0xd016 <end_block9+0xa9a6>
     b05: 9c 17 d0     	stz	$d017                   ; 0xd017 <end_block9+0xa9a7>
     b08: a2 5d        	ldx	#$5d
     b0a: 86 12        	stx	$12                     ; 0x2012 <printf+0x977>
     b0c: a2 25        	ldx	#$25
     b0e: 86 13        	stx	$13                     ; 0x2013 <printf+0x978>
     b10: 20 9b 16     	jsr	$169b <printf>
     b13: a2 01        	ldx	#$1
     b15: 86 9e        	stx	$9e                     ; 0x209e <printf+0xa03>
     b17: 8e 14 d0     	stx	$d014                   ; 0xd014 <end_block9+0xa9a4>
     b1a: 9c 15 d0     	stz	$d015                   ; 0xd015 <end_block9+0xa9a5>
     b1d: a2 06        	ldx	#$6
     b1f: 86 9f        	stx	$9f                     ; 0x209f <printf+0xa04>
     b21: 8e 16 d0     	stx	$d016                   ; 0xd016 <end_block9+0xa9a6>
     b24: 9c 17 d0     	stz	$d017                   ; 0xd017 <end_block9+0xa9a7>
     b27: a2 7d        	ldx	#$7d
     b29: 86 12        	stx	$12                     ; 0x2012 <printf+0x977>
     b2b: a2 25        	ldx	#$25
     b2d: 86 13        	stx	$13                     ; 0x2013 <printf+0x978>
     b2f: 20 9b 16     	jsr	$169b <printf>
     b32: a2 01        	ldx	#$1
     b34: 86 9e        	stx	$9e                     ; 0x209e <printf+0xa03>
     b36: 8e 14 d0     	stx	$d014                   ; 0xd014 <end_block9+0xa9a4>
     b39: 9c 15 d0     	stz	$d015                   ; 0xd015 <end_block9+0xa9a5>
     b3c: a2 07        	ldx	#$7
     b3e: 86 9f        	stx	$9f                     ; 0x209f <printf+0xa04>
     b40: 8e 16 d0     	stx	$d016                   ; 0xd016 <end_block9+0xa9a6>
     b43: 9c 17 d0     	stz	$d017                   ; 0xd017 <end_block9+0xa9a7>
     b46: a2 ee        	ldx	#$ee
     b48: 86 12        	stx	$12                     ; 0x2012 <printf+0x977>
     b4a: a2 24        	ldx	#$24
     b4c: 86 13        	stx	$13                     ; 0x2013 <printf+0x978>
     b4e: 20 9b 16     	jsr	$169b <printf>
     b51: a2 01        	ldx	#$1
     b53: 86 9e        	stx	$9e                     ; 0x209e <printf+0xa03>
     b55: 8e 14 d0     	stx	$d014                   ; 0xd014 <end_block9+0xa9a4>
     b58: 9c 15 d0     	stz	$d015                   ; 0xd015 <end_block9+0xa9a5>
     b5b: a2 08        	ldx	#$8
     b5d: 86 9f        	stx	$9f                     ; 0x209f <printf+0xa04>
     b5f: 8e 16 d0     	stx	$d016                   ; 0xd016 <end_block9+0xa9a6>
     b62: 9c 17 d0     	stz	$d017                   ; 0xd017 <end_block9+0xa9a7>
     b65: a2 0b        	ldx	#$b
     b67: 86 12        	stx	$12                     ; 0x2012 <printf+0x977>
     b69: a2 26        	ldx	#$26
     b6b: 86 13        	stx	$13                     ; 0x2013 <printf+0x978>
     b6d: 20 9b 16     	jsr	$169b <printf>
     b70: a2 bf        	ldx	#$bf
     b72: 86 96        	stx	$96                     ; 0x2096 <printf+0x9fb>
     b74: a2 01        	ldx	#$1
     b76: 86 9e        	stx	$9e                     ; 0x209e <printf+0xa03>
     b78: 8e 14 d0     	stx	$d014                   ; 0xd014 <end_block9+0xa9a4>
     b7b: 9c 15 d0     	stz	$d015                   ; 0xd015 <end_block9+0xa9a5>
     b7e: a2 0a        	ldx	#$a
     b80: 86 9f        	stx	$9f                     ; 0x209f <printf+0xa04>
     b82: 8e 16 d0     	stx	$d016                   ; 0xd016 <end_block9+0xa9a6>
     b85: 9c 17 d0     	stz	$d017                   ; 0xd017 <end_block9+0xa9a7>
     b88: a2 3d        	ldx	#$3d
     b8a: 86 12        	stx	$12                     ; 0x2012 <printf+0x977>
     b8c: a2 25        	ldx	#$25
     b8e: 86 13        	stx	$13                     ; 0x2013 <printf+0x978>
     b90: 20 9b 16     	jsr	$169b <printf>
     b93: a2 ff        	ldx	#$ff
     b95: 86 96        	stx	$96                     ; 0x2096 <printf+0x9fb>
     b97: a2 01        	ldx	#$1
     b99: 86 9e        	stx	$9e                     ; 0x209e <printf+0xa03>
     b9b: 8e 14 d0     	stx	$d014                   ; 0xd014 <end_block9+0xa9a4>
     b9e: 9c 15 d0     	stz	$d015                   ; 0xd015 <end_block9+0xa9a5>
     ba1: a2 0b        	ldx	#$b
     ba3: 86 9f        	stx	$9f                     ; 0x209f <printf+0xa04>
     ba5: 8e 16 d0     	stx	$d016                   ; 0xd016 <end_block9+0xa9a6>
     ba8: 9c 17 d0     	stz	$d017                   ; 0xd017 <end_block9+0xa9a7>
     bab: a2 bd        	ldx	#$bd
     bad: 86 12        	stx	$12                     ; 0x2012 <printf+0x977>
     baf: a2 25        	ldx	#$25
     bb1: 86 13        	stx	$13                     ; 0x2013 <printf+0x978>
     bb3: 20 9b 16     	jsr	$169b <printf>
     bb6: a2 01        	ldx	#$1
     bb8: 86 9e        	stx	$9e                     ; 0x209e <printf+0xa03>
     bba: 8e 14 d0     	stx	$d014                   ; 0xd014 <end_block9+0xa9a4>
     bbd: 9c 15 d0     	stz	$d015                   ; 0xd015 <end_block9+0xa9a5>
     bc0: a2 0c        	ldx	#$c
     bc2: 86 9f        	stx	$9f                     ; 0x209f <printf+0xa04>
     bc4: 8e 16 d0     	stx	$d016                   ; 0xd016 <end_block9+0xa9a6>
     bc7: 9c 17 d0     	stz	$d017                   ; 0xd017 <end_block9+0xa9a7>
     bca: a2 c0        	ldx	#$c0
     bcc: 86 12        	stx	$12                     ; 0x2012 <printf+0x977>
     bce: a2 23        	ldx	#$23
     bd0: 86 13        	stx	$13                     ; 0x2013 <printf+0x978>
     bd2: 20 9b 16     	jsr	$169b <printf>
     bd5: a2 01        	ldx	#$1
     bd7: 86 9e        	stx	$9e                     ; 0x209e <printf+0xa03>
     bd9: 8e 14 d0     	stx	$d014                   ; 0xd014 <end_block9+0xa9a4>
     bdc: 9c 15 d0     	stz	$d015                   ; 0xd015 <end_block9+0xa9a5>
     bdf: a2 0d        	ldx	#$d
     be1: 86 9f        	stx	$9f                     ; 0x209f <printf+0xa04>
     be3: 8e 16 d0     	stx	$d016                   ; 0xd016 <end_block9+0xa9a6>
     be6: 9c 17 d0     	stz	$d017                   ; 0xd017 <end_block9+0xa9a7>
     be9: a2 9d        	ldx	#$9d
     beb: 86 12        	stx	$12                     ; 0x2012 <printf+0x977>
     bed: a2 25        	ldx	#$25
     bef: 86 13        	stx	$13                     ; 0x2013 <printf+0x978>
     bf1: 20 9b 16     	jsr	$169b <printf>
     bf4: a2 01        	ldx	#$1
     bf6: 86 9e        	stx	$9e                     ; 0x209e <printf+0xa03>
     bf8: 8e 14 d0     	stx	$d014                   ; 0xd014 <end_block9+0xa9a4>
     bfb: 9c 15 d0     	stz	$d015                   ; 0xd015 <end_block9+0xa9a5>
     bfe: a2 0e        	ldx	#$e
     c00: 86 9f        	stx	$9f                     ; 0x209f <printf+0xa04>
     c02: 8e 16 d0     	stx	$d016                   ; 0xd016 <end_block9+0xa9a6>
     c05: 9c 17 d0     	stz	$d017                   ; 0xd017 <end_block9+0xa9a7>
     c08: a2 dd        	ldx	#$dd
     c0a: 86 12        	stx	$12                     ; 0x2012 <printf+0x977>
     c0c: a2 25        	ldx	#$25
     c0e: 86 13        	stx	$13                     ; 0x2013 <printf+0x978>
     c10: 20 9b 16     	jsr	$169b <printf>
     c13: a2 01        	ldx	#$1
     c15: 86 9e        	stx	$9e                     ; 0x209e <printf+0xa03>
     c17: 8e 14 d0     	stx	$d014                   ; 0xd014 <end_block9+0xa9a4>
     c1a: 9c 15 d0     	stz	$d015                   ; 0xd015 <end_block9+0xa9a5>
     c1d: a2 0f        	ldx	#$f
     c1f: 86 9f        	stx	$9f                     ; 0x209f <printf+0xa04>
     c21: 8e 16 d0     	stx	$d016                   ; 0xd016 <end_block9+0xa9a6>
     c24: 9c 17 d0     	stz	$d017                   ; 0xd017 <end_block9+0xa9a7>
     c27: a2 00        	ldx	#$0
     c29: 86 12        	stx	$12                     ; 0x2012 <printf+0x977>
     c2b: a2 24        	ldx	#$24
     c2d: 86 13        	stx	$13                     ; 0x2013 <printf+0x978>
     c2f: 20 9b 16     	jsr	$169b <printf>
     c32: a2 01        	ldx	#$1
     c34: 86 9e        	stx	$9e                     ; 0x209e <printf+0xa03>
     c36: 8e 14 d0     	stx	$d014                   ; 0xd014 <end_block9+0xa9a4>
     c39: 9c 15 d0     	stz	$d015                   ; 0xd015 <end_block9+0xa9a5>
     c3c: a2 10        	ldx	#$10
     c3e: 86 9f        	stx	$9f                     ; 0x209f <printf+0xa04>
     c40: 8e 16 d0     	stx	$d016                   ; 0xd016 <end_block9+0xa9a6>
     c43: 9c 17 d0     	stz	$d017                   ; 0xd017 <end_block9+0xa9a7>
     c46: a2 69        	ldx	#$69
     c48: 86 12        	stx	$12                     ; 0x2012 <printf+0x977>
     c4a: a2 24        	ldx	#$24
     c4c: 86 13        	stx	$13                     ; 0x2013 <printf+0x978>
     c4e: 20 9b 16     	jsr	$169b <printf>
     c51: a2 bf        	ldx	#$bf
     c53: 86 96        	stx	$96                     ; 0x2096 <printf+0x9fb>
     c55: a2 01        	ldx	#$1
     c57: 86 9e        	stx	$9e                     ; 0x209e <printf+0xa03>
     c59: 8e 14 d0     	stx	$d014                   ; 0xd014 <end_block9+0xa9a4>
     c5c: 9c 15 d0     	stz	$d015                   ; 0xd015 <end_block9+0xa9a5>
     c5f: a2 12        	ldx	#$12
     c61: 86 9f        	stx	$9f                     ; 0x209f <printf+0xa04>
     c63: 8e 16 d0     	stx	$d016                   ; 0xd016 <end_block9+0xa9a6>
     c66: 9c 17 d0     	stz	$d017                   ; 0xd017 <end_block9+0xa9a7>
     c69: a2 20        	ldx	#$20
     c6b: 86 12        	stx	$12                     ; 0x2012 <printf+0x977>
     c6d: a2 24        	ldx	#$24
     c6f: 86 13        	stx	$13                     ; 0x2013 <printf+0x978>
     c71: 20 9b 16     	jsr	$169b <printf>
     c74: a2 e0        	ldx	#$e0
     c76: 86 96        	stx	$96                     ; 0x2096 <printf+0x9fb>
     c78: a2 21        	ldx	#$21
     c7a: 86 9e        	stx	$9e                     ; 0x209e <printf+0xa03>
     c7c: 8e 14 d0     	stx	$d014                   ; 0xd014 <end_block9+0xa9a4>
     c7f: 9c 15 d0     	stz	$d015                   ; 0xd015 <end_block9+0xa9a5>
     c82: a2 03        	ldx	#$3
     c84: 86 9f        	stx	$9f                     ; 0x209f <printf+0xa04>
     c86: 8e 16 d0     	stx	$d016                   ; 0xd016 <end_block9+0xa9a6>
     c89: 9c 17 d0     	stz	$d017                   ; 0xd017 <end_block9+0xa9a7>
     c8c: a6 02        	ldx	$2                      ; 0x2002 <printf+0x967>
     c8e: a4 03        	ldy	$3                      ; 0x2003 <printf+0x968>
     c90: 86 12        	stx	$12                     ; 0x2012 <printf+0x977>
     c92: 84 13        	sty	$13                     ; 0x2013 <printf+0x978>
     c94: a0 07        	ldy	#$7
     c96: b1 12        	lda	($12),y                 ; 0x2012 <printf+0x977>
     c98: 85 14        	sta	$14                     ; 0x2014 <printf+0x979>
     c9a: a9 0f        	lda	#$f
     c9c: 88           	dey
     c9d: 31 12        	and	($12),y                 ; 0x2012 <printf+0x977>
     c9f: aa           	tax
     ca0: a5 14        	lda	$14                     ; 0x2014 <printf+0x979>
     ca2: 92 10        	sta	($10)                   ; 0x2010 <printf+0x975>
     ca4: a0 01        	ldy	#$1
     ca6: a9 00        	lda	#$0
     ca8: 91 10        	sta	($10),y                 ; 0x2010 <printf+0x975>
     caa: c8           	iny
     cab: 8a           	txa
     cac: 91 10        	sta	($10),y                 ; 0x2010 <printf+0x975>
     cae: c8           	iny
     caf: a9 00        	lda	#$0
     cb1: 91 10        	sta	($10),y                 ; 0x2010 <printf+0x975>
     cb3: a2 fd        	ldx	#$fd
     cb5: 86 12        	stx	$12                     ; 0x2012 <printf+0x977>
     cb7: a2 25        	ldx	#$25
     cb9: 86 13        	stx	$13                     ; 0x2013 <printf+0x978>
     cbb: 20 9b 16     	jsr	$169b <printf>
     cbe: a2 21        	ldx	#$21
     cc0: 86 9e        	stx	$9e                     ; 0x209e <printf+0xa03>
     cc2: 8e 14 d0     	stx	$d014                   ; 0xd014 <end_block9+0xa9a4>
     cc5: 9c 15 d0     	stz	$d015                   ; 0xd015 <end_block9+0xa9a5>
     cc8: a2 04        	ldx	#$4
     cca: 86 9f        	stx	$9f                     ; 0x209f <printf+0xa04>
     ccc: 8e 16 d0     	stx	$d016                   ; 0xd016 <end_block9+0xa9a6>
     ccf: 9c 17 d0     	stz	$d017                   ; 0xd017 <end_block9+0xa9a7>
     cd2: a6 02        	ldx	$2                      ; 0x2002 <printf+0x967>
     cd4: a4 03        	ldy	$3                      ; 0x2003 <printf+0x968>
     cd6: 86 12        	stx	$12                     ; 0x2012 <printf+0x977>
     cd8: 84 13        	sty	$13                     ; 0x2013 <printf+0x978>
     cda: a0 08        	ldy	#$8
     cdc: b1 12        	lda	($12),y                 ; 0x2012 <printf+0x977>
     cde: 4a           	lsr
     cdf: 4a           	lsr
     ce0: 4a           	lsr
     ce1: 4a           	lsr
     ce2: 92 10        	sta	($10)                   ; 0x2010 <printf+0x975>
     ce4: a0 01        	ldy	#$1
     ce6: a9 00        	lda	#$0
     ce8: 91 10        	sta	($10),y                 ; 0x2010 <printf+0x975>
     cea: a2 e9        	ldx	#$e9
     cec: 86 12        	stx	$12                     ; 0x2012 <printf+0x977>
     cee: a2 24        	ldx	#$24
     cf0: 86 13        	stx	$13                     ; 0x2013 <printf+0x978>
     cf2: 20 9b 16     	jsr	$169b <printf>
     cf5: a2 21        	ldx	#$21
     cf7: 86 9e        	stx	$9e                     ; 0x209e <printf+0xa03>
     cf9: 8e 14 d0     	stx	$d014                   ; 0xd014 <end_block9+0xa9a4>
     cfc: 9c 15 d0     	stz	$d015                   ; 0xd015 <end_block9+0xa9a5>
     cff: a2 05        	ldx	#$5
     d01: 86 9f        	stx	$9f                     ; 0x209f <printf+0xa04>
     d03: 8e 16 d0     	stx	$d016                   ; 0xd016 <end_block9+0xa9a6>
     d06: 9c 17 d0     	stz	$d017                   ; 0xd017 <end_block9+0xa9a7>
     d09: a6 02        	ldx	$2                      ; 0x2002 <printf+0x967>
     d0b: a4 03        	ldy	$3                      ; 0x2003 <printf+0x968>
     d0d: 86 12        	stx	$12                     ; 0x2012 <printf+0x977>
     d0f: 84 13        	sty	$13                     ; 0x2013 <printf+0x978>
     d11: a9 0f        	lda	#$f
     d13: a0 08        	ldy	#$8
     d15: 31 12        	and	($12),y                 ; 0x2012 <printf+0x977>
     d17: 92 10        	sta	($10)                   ; 0x2010 <printf+0x975>
     d19: a0 01        	ldy	#$1
     d1b: a9 00        	lda	#$0
     d1d: 91 10        	sta	($10),y                 ; 0x2010 <printf+0x975>
     d1f: a2 e9        	ldx	#$e9
     d21: 86 12        	stx	$12                     ; 0x2012 <printf+0x977>
     d23: a2 24        	ldx	#$24
     d25: 86 13        	stx	$13                     ; 0x2013 <printf+0x978>
     d27: 20 9b 16     	jsr	$169b <printf>
     d2a: a2 21        	ldx	#$21
     d2c: 86 9e        	stx	$9e                     ; 0x209e <printf+0xa03>
     d2e: 8e 14 d0     	stx	$d014                   ; 0xd014 <end_block9+0xa9a4>
     d31: 9c 15 d0     	stz	$d015                   ; 0xd015 <end_block9+0xa9a5>
     d34: a2 06        	ldx	#$6
     d36: 86 9f        	stx	$9f                     ; 0x209f <printf+0xa04>
     d38: 8e 16 d0     	stx	$d016                   ; 0xd016 <end_block9+0xa9a6>
     d3b: 9c 17 d0     	stz	$d017                   ; 0xd017 <end_block9+0xa9a7>
     d3e: a6 02        	ldx	$2                      ; 0x2002 <printf+0x967>
     d40: a4 03        	ldy	$3                      ; 0x2003 <printf+0x968>
     d42: 86 12        	stx	$12                     ; 0x2012 <printf+0x977>
     d44: 84 13        	sty	$13                     ; 0x2013 <printf+0x978>
     d46: b2 12        	lda	($12)                   ; 0x2012 <printf+0x977>
     d48: 4a           	lsr
     d49: 4a           	lsr
     d4a: 4a           	lsr
     d4b: 4a           	lsr
     d4c: 92 10        	sta	($10)                   ; 0x2010 <printf+0x975>
     d4e: a0 01        	ldy	#$1
     d50: a9 00        	lda	#$0
     d52: 91 10        	sta	($10),y                 ; 0x2010 <printf+0x975>
     d54: a2 e9        	ldx	#$e9
     d56: 86 12        	stx	$12                     ; 0x2012 <printf+0x977>
     d58: a2 24        	ldx	#$24
     d5a: 86 13        	stx	$13                     ; 0x2013 <printf+0x978>
     d5c: 20 9b 16     	jsr	$169b <printf>
     d5f: a2 21        	ldx	#$21
     d61: 86 9e        	stx	$9e                     ; 0x209e <printf+0xa03>
     d63: 8e 14 d0     	stx	$d014                   ; 0xd014 <end_block9+0xa9a4>
     d66: 9c 15 d0     	stz	$d015                   ; 0xd015 <end_block9+0xa9a5>
     d69: a2 07        	ldx	#$7
     d6b: 86 9f        	stx	$9f                     ; 0x209f <printf+0xa04>
     d6d: 8e 16 d0     	stx	$d016                   ; 0xd016 <end_block9+0xa9a6>
     d70: 9c 17 d0     	stz	$d017                   ; 0xd017 <end_block9+0xa9a7>
     d73: a6 02        	ldx	$2                      ; 0x2002 <printf+0x967>
     d75: a4 03        	ldy	$3                      ; 0x2003 <printf+0x968>
     d77: 86 12        	stx	$12                     ; 0x2012 <printf+0x977>
     d79: 84 13        	sty	$13                     ; 0x2013 <printf+0x978>
     d7b: a9 0f        	lda	#$f
     d7d: 32 12        	and	($12)                   ; 0x2012 <printf+0x977>
     d7f: 92 10        	sta	($10)                   ; 0x2010 <printf+0x975>
     d81: a0 01        	ldy	#$1
     d83: a9 00        	lda	#$0
     d85: 91 10        	sta	($10),y                 ; 0x2010 <printf+0x975>
     d87: a2 e9        	ldx	#$e9
     d89: 86 12        	stx	$12                     ; 0x2012 <printf+0x977>
     d8b: a2 24        	ldx	#$24
     d8d: 86 13        	stx	$13                     ; 0x2013 <printf+0x978>
     d8f: 20 9b 16     	jsr	$169b <printf>
     d92: a2 21        	ldx	#$21
     d94: 86 9e        	stx	$9e                     ; 0x209e <printf+0xa03>
     d96: 8e 14 d0     	stx	$d014                   ; 0xd014 <end_block9+0xa9a4>
     d99: 9c 15 d0     	stz	$d015                   ; 0xd015 <end_block9+0xa9a5>
     d9c: a2 08        	ldx	#$8
     d9e: 86 9f        	stx	$9f                     ; 0x209f <printf+0xa04>
     da0: 8e 16 d0     	stx	$d016                   ; 0xd016 <end_block9+0xa9a6>
     da3: 9c 17 d0     	stz	$d017                   ; 0xd017 <end_block9+0xa9a7>
     da6: a2 4e        	ldx	#$4e
     da8: 86 a0        	stx	$a0                     ; 0x20a0 <printf+0xa05>
     daa: a2 a0        	ldx	#$a0
     dac: 86 12        	stx	$12                     ; 0x2012 <printf+0x977>
     dae: a2 00        	ldx	#$0
     db0: 86 13        	stx	$13                     ; 0x2013 <printf+0x978>
     db2: 20 c8 12     	jsr	$12c8 <textPrint>
     db5: a2 21        	ldx	#$21
     db7: 86 9e        	stx	$9e                     ; 0x209e <printf+0xa03>
     db9: 8e 14 d0     	stx	$d014                   ; 0xd014 <end_block9+0xa9a4>
     dbc: 9c 15 d0     	stz	$d015                   ; 0xd015 <end_block9+0xa9a5>
     dbf: a2 0b        	ldx	#$b
     dc1: 86 9f        	stx	$9f                     ; 0x209f <printf+0xa04>
     dc3: 8e 16 d0     	stx	$d016                   ; 0xd016 <end_block9+0xa9a6>
     dc6: 9c 17 d0     	stz	$d017                   ; 0xd017 <end_block9+0xa9a7>
     dc9: a6 02        	ldx	$2                      ; 0x2002 <printf+0x967>
     dcb: a4 03        	ldy	$3                      ; 0x2003 <printf+0x968>
     dcd: 86 12        	stx	$12                     ; 0x2012 <printf+0x977>
     dcf: 84 13        	sty	$13                     ; 0x2013 <printf+0x978>
     dd1: a0 05        	ldy	#$5
     dd3: b1 12        	lda	($12),y                 ; 0x2012 <printf+0x977>
     dd5: 92 10        	sta	($10)                   ; 0x2010 <printf+0x975>
     dd7: a0 01        	ldy	#$1
     dd9: a9 00        	lda	#$0
     ddb: 91 10        	sta	($10),y                 ; 0x2010 <printf+0x975>
     ddd: a2 06        	ldx	#$6
     ddf: 86 12        	stx	$12                     ; 0x2012 <printf+0x977>
     de1: a2 26        	ldx	#$26
     de3: 86 13        	stx	$13                     ; 0x2013 <printf+0x978>
     de5: 20 9b 16     	jsr	$169b <printf>
     de8: a2 21        	ldx	#$21
     dea: 86 9e        	stx	$9e                     ; 0x209e <printf+0xa03>
     dec: 8e 14 d0     	stx	$d014                   ; 0xd014 <end_block9+0xa9a4>
     def: 9c 15 d0     	stz	$d015                   ; 0xd015 <end_block9+0xa9a5>
     df2: a2 0c        	ldx	#$c
     df4: 86 9f        	stx	$9f                     ; 0x209f <printf+0xa04>
     df6: 8e 16 d0     	stx	$d016                   ; 0xd016 <end_block9+0xa9a6>
     df9: 9c 17 d0     	stz	$d017                   ; 0xd017 <end_block9+0xa9a7>
     dfc: a6 02        	ldx	$2                      ; 0x2002 <printf+0x967>
     dfe: a4 03        	ldy	$3                      ; 0x2003 <printf+0x968>
     e00: 86 12        	stx	$12                     ; 0x2012 <printf+0x977>
     e02: 84 13        	sty	$13                     ; 0x2013 <printf+0x978>
     e04: a0 03        	ldy	#$3
     e06: b1 12        	lda	($12),y                 ; 0x2012 <printf+0x977>
     e08: 4a           	lsr
     e09: 4a           	lsr
     e0a: 4a           	lsr
     e0b: 4a           	lsr
     e0c: 92 10        	sta	($10)                   ; 0x2010 <printf+0x975>
     e0e: a0 01        	ldy	#$1
     e10: a9 00        	lda	#$0
     e12: 91 10        	sta	($10),y                 ; 0x2010 <printf+0x975>
     e14: a2 e9        	ldx	#$e9
     e16: 86 12        	stx	$12                     ; 0x2012 <printf+0x977>
     e18: a2 24        	ldx	#$24
     e1a: 86 13        	stx	$13                     ; 0x2013 <printf+0x978>
     e1c: 20 9b 16     	jsr	$169b <printf>
     e1f: a2 21        	ldx	#$21
     e21: 86 9e        	stx	$9e                     ; 0x209e <printf+0xa03>
     e23: 8e 14 d0     	stx	$d014                   ; 0xd014 <end_block9+0xa9a4>
     e26: 9c 15 d0     	stz	$d015                   ; 0xd015 <end_block9+0xa9a5>
     e29: a2 0d        	ldx	#$d
     e2b: 86 9f        	stx	$9f                     ; 0x209f <printf+0xa04>
     e2d: 8e 16 d0     	stx	$d016                   ; 0xd016 <end_block9+0xa9a6>
     e30: 9c 17 d0     	stz	$d017                   ; 0xd017 <end_block9+0xa9a7>
     e33: a6 02        	ldx	$2                      ; 0x2002 <printf+0x967>
     e35: a4 03        	ldy	$3                      ; 0x2003 <printf+0x968>
     e37: 86 12        	stx	$12                     ; 0x2012 <printf+0x977>
     e39: 84 13        	sty	$13                     ; 0x2013 <printf+0x978>
     e3b: a9 0f        	lda	#$f
     e3d: a0 03        	ldy	#$3
     e3f: 31 12        	and	($12),y                 ; 0x2012 <printf+0x977>
     e41: 92 10        	sta	($10)                   ; 0x2010 <printf+0x975>
     e43: a0 01        	ldy	#$1
     e45: a9 00        	lda	#$0
     e47: 91 10        	sta	($10),y                 ; 0x2010 <printf+0x975>
     e49: a2 e9        	ldx	#$e9
     e4b: 86 12        	stx	$12                     ; 0x2012 <printf+0x977>
     e4d: a2 24        	ldx	#$24
     e4f: 86 13        	stx	$13                     ; 0x2013 <printf+0x978>
     e51: 20 9b 16     	jsr	$169b <printf>
     e54: a2 21        	ldx	#$21
     e56: 86 9e        	stx	$9e                     ; 0x209e <printf+0xa03>
     e58: 8e 14 d0     	stx	$d014                   ; 0xd014 <end_block9+0xa9a4>
     e5b: 9c 15 d0     	stz	$d015                   ; 0xd015 <end_block9+0xa9a5>
     e5e: a2 0e        	ldx	#$e
     e60: 86 9f        	stx	$9f                     ; 0x209f <printf+0xa04>
     e62: 8e 16 d0     	stx	$d016                   ; 0xd016 <end_block9+0xa9a6>
     e65: 9c 17 d0     	stz	$d017                   ; 0xd017 <end_block9+0xa9a7>
     e68: a6 02        	ldx	$2                      ; 0x2002 <printf+0x967>
     e6a: a4 03        	ldy	$3                      ; 0x2003 <printf+0x968>
     e6c: 86 12        	stx	$12                     ; 0x2012 <printf+0x977>
     e6e: 84 13        	sty	$13                     ; 0x2013 <printf+0x978>
     e70: a0 04        	ldy	#$4
     e72: b1 12        	lda	($12),y                 ; 0x2012 <printf+0x977>
     e74: 4a           	lsr
     e75: 4a           	lsr
     e76: 4a           	lsr
     e77: 4a           	lsr
     e78: 92 10        	sta	($10)                   ; 0x2010 <printf+0x975>
     e7a: a0 01        	ldy	#$1
     e7c: a9 00        	lda	#$0
     e7e: 91 10        	sta	($10),y                 ; 0x2010 <printf+0x975>
     e80: a2 e9        	ldx	#$e9
     e82: 86 12        	stx	$12                     ; 0x2012 <printf+0x977>
     e84: a2 24        	ldx	#$24
     e86: 86 13        	stx	$13                     ; 0x2013 <printf+0x978>
     e88: 20 9b 16     	jsr	$169b <printf>
     e8b: a2 21        	ldx	#$21
     e8d: 86 9e        	stx	$9e                     ; 0x209e <printf+0xa03>
     e8f: 8e 14 d0     	stx	$d014                   ; 0xd014 <end_block9+0xa9a4>
     e92: 9c 15 d0     	stz	$d015                   ; 0xd015 <end_block9+0xa9a5>
     e95: a2 0f        	ldx	#$f
     e97: 86 9f        	stx	$9f                     ; 0x209f <printf+0xa04>
     e99: 8e 16 d0     	stx	$d016                   ; 0xd016 <end_block9+0xa9a6>
     e9c: 9c 17 d0     	stz	$d017                   ; 0xd017 <end_block9+0xa9a7>
     e9f: a6 02        	ldx	$2                      ; 0x2002 <printf+0x967>
     ea1: a4 03        	ldy	$3                      ; 0x2003 <printf+0x968>
     ea3: 86 12        	stx	$12                     ; 0x2012 <printf+0x977>
     ea5: 84 13        	sty	$13                     ; 0x2013 <printf+0x978>
     ea7: a9 0f        	lda	#$f
     ea9: a0 04        	ldy	#$4
     eab: 31 12        	and	($12),y                 ; 0x2012 <printf+0x977>
     ead: 92 10        	sta	($10)                   ; 0x2010 <printf+0x975>
     eaf: a0 01        	ldy	#$1
     eb1: a9 00        	lda	#$0
     eb3: 91 10        	sta	($10),y                 ; 0x2010 <printf+0x975>
     eb5: a2 e9        	ldx	#$e9
     eb7: 86 12        	stx	$12                     ; 0x2012 <printf+0x977>
     eb9: a2 24        	ldx	#$24
     ebb: 86 13        	stx	$13                     ; 0x2013 <printf+0x978>
     ebd: 20 9b 16     	jsr	$169b <printf>
     ec0: a2 21        	ldx	#$21
     ec2: 86 9e        	stx	$9e                     ; 0x209e <printf+0xa03>
     ec4: 8e 14 d0     	stx	$d014                   ; 0xd014 <end_block9+0xa9a4>
     ec7: 9c 15 d0     	stz	$d015                   ; 0xd015 <end_block9+0xa9a5>
     eca: a2 10        	ldx	#$10
     ecc: 86 9f        	stx	$9f                     ; 0x209f <printf+0xa04>
     ece: 8e 16 d0     	stx	$d016                   ; 0xd016 <end_block9+0xa9a6>
     ed1: 9c 17 d0     	stz	$d017                   ; 0xd017 <end_block9+0xa9a7>
     ed4: a6 02        	ldx	$2                      ; 0x2002 <printf+0x967>
     ed6: a4 03        	ldy	$3                      ; 0x2003 <printf+0x968>
     ed8: 86 12        	stx	$12                     ; 0x2012 <printf+0x977>
     eda: 84 13        	sty	$13                     ; 0x2013 <printf+0x978>
     edc: a0 02        	ldy	#$2
     ede: a9 0f        	lda	#$f
     ee0: 31 12        	and	($12),y                 ; 0x2012 <printf+0x977>
     ee2: 85 14        	sta	$14                     ; 0x2014 <printf+0x979>
     ee4: 88           	dey
     ee5: b1 12        	lda	($12),y                 ; 0x2012 <printf+0x977>
     ee7: 85 12        	sta	$12                     ; 0x2012 <printf+0x977>
     ee9: a5 14        	lda	$14                     ; 0x2014 <printf+0x979>
     eeb: 92 10        	sta	($10)                   ; 0x2010 <printf+0x975>
     eed: a9 00        	lda	#$0
     eef: 91 10        	sta	($10),y                 ; 0x2010 <printf+0x975>
     ef1: c8           	iny
     ef2: a5 12        	lda	$12                     ; 0x2012 <printf+0x977>
     ef4: 91 10        	sta	($10),y                 ; 0x2010 <printf+0x975>
     ef6: c8           	iny
     ef7: a9 00        	lda	#$0
     ef9: 91 10        	sta	($10),y                 ; 0x2010 <printf+0x975>
     efb: a2 40        	ldx	#$40
     efd: 86 12        	stx	$12                     ; 0x2012 <printf+0x977>
     eff: a2 24        	ldx	#$24
     f01: 86 13        	stx	$13                     ; 0x2013 <printf+0x978>
     f03: 20 9b 16     	jsr	$169b <printf>
     f06: a2 bf        	ldx	#$bf
     f08: 86 96        	stx	$96                     ; 0x2096 <printf+0x9fb>
     f0a: a2 21        	ldx	#$21
     f0c: 86 9e        	stx	$9e                     ; 0x209e <printf+0xa03>
     f0e: 8e 14 d0     	stx	$d014                   ; 0xd014 <end_block9+0xa9a4>
     f11: 9c 15 d0     	stz	$d015                   ; 0xd015 <end_block9+0xa9a5>
     f14: a2 12        	ldx	#$12
     f16: 86 9f        	stx	$9f                     ; 0x209f <printf+0xa04>
     f18: 8e 16 d0     	stx	$d016                   ; 0xd016 <end_block9+0xa9a6>
     f1b: 9c 17 d0     	stz	$d017                   ; 0xd017 <end_block9+0xa9a7>
     f1e: a2 36        	ldx	#$36
     f20: 86 a0        	stx	$a0                     ; 0x20a0 <printf+0xa05>
     f22: a2 a0        	ldx	#$a0
     f24: 86 12        	stx	$12                     ; 0x2012 <printf+0x977>
     f26: a2 00        	ldx	#$0
     f28: 86 13        	stx	$13                     ; 0x2013 <printf+0x978>
     f2a: 20 c8 12     	jsr	$12c8 <textPrint>
     f2d: a2 90        	ldx	#$90
     f2f: 8a           	txa
     f30: a0 04        	ldy	#$4
     f32: 91 10        	sta	($10),y                 ; 0x2010 <printf+0x975>
     f34: 64 1a        	stz	$1a                     ; 0x201a <printf+0x97f>
     f36: 64 13        	stz	$13                     ; 0x2013 <printf+0x978>
     f38: 64 12        	stz	$12                     ; 0x2012 <printf+0x977>
     f3a: a9 00        	lda	#$0
     f3c: a0 06        	ldy	#$6
     f3e: 91 10        	sta	($10),y                 ; 0x2010 <printf+0x975>
     f40: aa           	tax
     f41: c8           	iny
     f42: 91 10        	sta	($10),y                 ; 0x2010 <printf+0x975>
     f44: 4c a9 12     	jmp	$12a9 <main+0xeed>
     f47: a6 13        	ldx	$13                     ; 0x2013 <printf+0x978>
     f49: e0 00        	cpx	#$0
     f4b: b0 03        	bcs	$f50 <main+0xb94>
     f4d: 4c 68 12     	jmp	$1268 <main+0xeac>
     f50: a0 01        	ldy	#$1
     f52: a6 01        	ldx	$1                      ; 0x2001 <printf+0x966>
     f54: 86 17        	stx	$17                     ; 0x2017 <printf+0x97c>
     f56: 84 01        	sty	$1                      ; 0x2001 <printf+0x966>
     f58: 64 13        	stz	$13                     ; 0x2013 <printf+0x978>
     f5a: a2 ff        	ldx	#$ff
     f5c: 64 1a        	stz	$1a                     ; 0x201a <printf+0x97f>
     f5e: 80 0e        	bra	$f6e <main+0xbb2>
     f60: a2 00        	ldx	#$0
     f62: 0a           	asl
     f63: 8a           	txa
     f64: 2a           	rol
     f65: a6 01        	ldx	$1                      ; 0x2001 <printf+0x966>
     f67: 86 17        	stx	$17                     ; 0x2017 <printf+0x97c>
     f69: 84 01        	sty	$1                      ; 0x2001 <printf+0x966>
     f6b: aa           	tax
     f6c: 85 1a        	sta	$1a                     ; 0x201a <printf+0x97f>
     f6e: a5 16        	lda	$16                     ; 0x2016 <printf+0x97b>
     f70: 0a           	asl
     f71: 26 13        	rol	$13                     ; 0x2013 <printf+0x978>
     f73: 0a           	asl
     f74: 85 14        	sta	$14                     ; 0x2014 <printf+0x979>
     f76: 26 13        	rol	$13                     ; 0x2013 <printf+0x978>
     f78: a9 00        	lda	#$0
     f7a: 18           	clc
     f7b: 65 14        	adc	$14                     ; 0x2014 <printf+0x979>
     f7d: 85 14        	sta	$14                     ; 0x2014 <printf+0x979>
     f7f: a9 d0        	lda	#$d0
     f81: 65 13        	adc	$13                     ; 0x2013 <printf+0x978>
     f83: 85 15        	sta	$15                     ; 0x2015 <printf+0x97a>
     f85: 8a           	txa
     f86: 92 14        	sta	($14)                   ; 0x2014 <printf+0x979>
     f88: a5 1a        	lda	$1a                     ; 0x201a <printf+0x97f>
     f8a: 91 14        	sta	($14),y                 ; 0x2014 <printf+0x979>
     f8c: a0 02        	ldy	#$2
     f8e: 8a           	txa
     f8f: 91 14        	sta	($14),y                 ; 0x2014 <printf+0x979>
     f91: a9 ff        	lda	#$ff
     f93: c8           	iny
     f94: 91 14        	sta	($14),y                 ; 0x2014 <printf+0x979>
     f96: a6 17        	ldx	$17                     ; 0x2017 <printf+0x97c>
     f98: 86 01        	stx	$1                      ; 0x2001 <printf+0x966>
     f9a: a6 18        	ldx	$18                     ; 0x2018 <printf+0x97d>
     f9c: 86 1a        	stx	$1a                     ; 0x201a <printf+0x97f>
     f9e: 64 13        	stz	$13                     ; 0x2013 <printf+0x978>
     fa0: 1a           	inc
     fa1: a0 06        	ldy	#$6
     fa3: 91 10        	sta	($10),y                 ; 0x2010 <printf+0x975>
     fa5: a2 01        	ldx	#$1
     fa7: 80 46        	bra	$fef <main+0xc33>
     fa9: a0 01        	ldy	#$1
     fab: 98           	tya
     fac: a0 06        	ldy	#$6
     fae: 91 10        	sta	($10),y                 ; 0x2010 <printf+0x975>
     fb0: a4 18        	ldy	$18                     ; 0x2018 <printf+0x97d>
     fb2: 98           	tya
     fb3: a0 04        	ldy	#$4
     fb5: 91 10        	sta	($10),y                 ; 0x2010 <printf+0x975>
     fb7: 64 13        	stz	$13                     ; 0x2013 <printf+0x978>
     fb9: a9 00        	lda	#$0
     fbb: 80 2e        	bra	$feb <main+0xc2f>
     fbd: a5 18        	lda	$18                     ; 0x2018 <printf+0x97d>
     fbf: 10 03        	bpl	$fc4 <main+0xc08>
     fc1: 4c 3e 10     	jmp	$103e <main+0xc82>
     fc4: a6 18        	ldx	$18                     ; 0x2018 <printf+0x97d>
     fc6: a0 04        	ldy	#$4
     fc8: b1 10        	lda	($10),y                 ; 0x2010 <printf+0x975>
     fca: 29 f0        	and	#$f0
     fcc: c9 80        	cmp	#$80
     fce: f0 07        	beq	$fd7 <main+0xc1b>
     fd0: c9 90        	cmp	#$90
     fd2: f0 03        	beq	$fd7 <main+0xc1b>
     fd4: 4c b2 10     	jmp	$10b2 <main+0xcf6>
     fd7: 8a           	txa
     fd8: 29 7f        	and	#$7f
     fda: 86 1a        	stx	$1a                     ; 0x201a <printf+0x97f>
     fdc: 85 18        	sta	$18                     ; 0x2018 <printf+0x97d>
     fde: 64 13        	stz	$13                     ; 0x2013 <printf+0x978>
     fe0: a9 00        	lda	#$0
     fe2: a0 06        	ldy	#$6
     fe4: 91 10        	sta	($10),y                 ; 0x2010 <printf+0x975>
     fe6: a2 01        	ldx	#$1
     fe8: a0 01        	ldy	#$1
     fea: 98           	tya
     feb: a0 07        	ldy	#$7
     fed: 91 10        	sta	($10),y                 ; 0x2010 <printf+0x975>
     fef: a5 19        	lda	$19                     ; 0x2019 <printf+0x97e>
     ff1: a0 ff        	ldy	#$ff
     ff3: c6 12        	dec	$12                     ; 0x2012 <printf+0x977>
     ff5: c4 12        	cpy	$12                     ; 0x2012 <printf+0x977>
     ff7: f0 03        	beq	$ffc <main+0xc40>
     ff9: 4c c5 10     	jmp	$10c5 <main+0xd09>
     ffc: 3a           	dec
     ffd: 4c c5 10     	jmp	$10c5 <main+0xd09>
    1000: a2 01        	ldx	#$1
    1002: a0 d4        	ldy	#$d4
    1004: 80 40        	bra	$1046 <main+0xc8a>
    1006: a6 9b        	ldx	$9b                     ; 0x209b <printf+0xa00>
    1008: a0 03        	ldy	#$3
    100a: 85 13        	sta	$13                     ; 0x2013 <printf+0x978>
    100c: 84 14        	sty	$14                     ; 0x2014 <printf+0x979>
    100e: e4 13        	cpx	$13                     ; 0x2013 <printf+0x978>
    1010: f0 1b        	beq	$102d <main+0xc71>
    1012: a6 9c        	ldx	$9c                     ; 0x209c <printf+0xa01>
    1014: a0 04        	ldy	#$4
    1016: 85 13        	sta	$13                     ; 0x2013 <printf+0x978>
    1018: 84 14        	sty	$14                     ; 0x2014 <printf+0x979>
    101a: e4 13        	cpx	$13                     ; 0x2013 <printf+0x978>
    101c: f0 0f        	beq	$102d <main+0xc71>
    101e: a6 9d        	ldx	$9d                     ; 0x209d <printf+0xa02>
    1020: a0 05        	ldy	#$5
    1022: 85 13        	sta	$13                     ; 0x2013 <printf+0x978>
    1024: 84 14        	sty	$14                     ; 0x2014 <printf+0x979>
    1026: e4 13        	cpx	$13                     ; 0x2013 <printf+0x978>
    1028: f0 03        	beq	$102d <main+0xc71>
    102a: 4c ba 10     	jmp	$10ba <main+0xcfe>
    102d: 64 13        	stz	$13                     ; 0x2013 <printf+0x978>
    102f: a0 d5        	ldy	#$d5
    1031: 4c cc 11     	jmp	$11cc <main+0xe10>
    1034: a2 02        	ldx	#$2
    1036: a0 d4        	ldy	#$d4
    1038: 80 0c        	bra	$1046 <main+0xc8a>
    103a: a2 03        	ldx	#$3
    103c: 80 06        	bra	$1044 <main+0xc88>
    103e: a6 16        	ldx	$16                     ; 0x2016 <printf+0x97b>
    1040: 80 ad        	bra	$fef <main+0xc33>
    1042: a2 04        	ldx	#$4
    1044: a0 d5        	ldy	#$d5
    1046: 98           	tya
    1047: a0 05        	ldy	#$5
    1049: 91 10        	sta	($10),y                 ; 0x2010 <printf+0x975>
    104b: da           	phx
    104c: 7a           	ply
    104d: b5 30        	lda	$30,x                   ; 0x2030 <printf+0x995>
    104f: aa           	tax
    1050: 84 1c        	sty	$1c                     ; 0x201c <printf+0x981>
    1052: a4 1a        	ldy	$1a                     ; 0x201a <printf+0x97f>
    1054: b9 2b 00     	lda	$2b,y                   ; 0x2b <__rc27>
    1057: 85 13        	sta	$13                     ; 0x2013 <printf+0x978>
    1059: 86 14        	stx	$14                     ; 0x2014 <printf+0x979>
    105b: 86 16        	stx	$16                     ; 0x2016 <printf+0x97b>
    105d: 5a           	phy
    105e: a0 05        	ldy	#$5
    1060: b1 10        	lda	($10),y                 ; 0x2010 <printf+0x975>
    1062: 7a           	ply
    1063: 85 1d        	sta	$1d                     ; 0x201d <printf+0x982>
    1065: 85 15        	sta	$15                     ; 0x2015 <printf+0x97a>
    1067: a5 13        	lda	$13                     ; 0x2013 <printf+0x978>
    1069: 92 14        	sta	($14)                   ; 0x2014 <printf+0x979>
    106b: be 7e 24     	ldx	$247e,y                 ; 0x247e <noteColors+0x116>
    106e: a4 16        	ldy	$16                     ; 0x2016 <printf+0x97b>
    1070: a5 1d        	lda	$1d                     ; 0x201d <printf+0x982>
    1072: 85 13        	sta	$13                     ; 0x2013 <printf+0x978>
    1074: c8           	iny
    1075: d0 02        	bne	$1079 <main+0xcbd>
    1077: e6 13        	inc	$13                     ; 0x2013 <printf+0x978>
    1079: 84 14        	sty	$14                     ; 0x2014 <printf+0x979>
    107b: a4 13        	ldy	$13                     ; 0x2013 <printf+0x978>
    107d: 84 15        	sty	$15                     ; 0x2015 <printf+0x97a>
    107f: 8a           	txa
    1080: 92 14        	sta	($14)                   ; 0x2014 <printf+0x979>
    1082: 18           	clc
    1083: a5 16        	lda	$16                     ; 0x2016 <printf+0x97b>
    1085: 69 04        	adc	#$4
    1087: 85 14        	sta	$14                     ; 0x2014 <printf+0x979>
    1089: a5 1d        	lda	$1d                     ; 0x201d <printf+0x982>
    108b: 69 00        	adc	#$0
    108d: 85 15        	sta	$15                     ; 0x2015 <printf+0x97a>
    108f: a4 02        	ldy	$2                      ; 0x2002 <printf+0x967>
    1091: 84 16        	sty	$16                     ; 0x2016 <printf+0x97b>
    1093: a4 03        	ldy	$3                      ; 0x2003 <printf+0x968>
    1095: 84 17        	sty	$17                     ; 0x2017 <printf+0x97c>
    1097: a9 01        	lda	#$1
    1099: a0 05        	ldy	#$5
    109b: 11 16        	ora	($16),y                 ; 0x2016 <printf+0x97b>
    109d: 92 14        	sta	($14)                   ; 0x2014 <printf+0x979>
    109f: a5 1a        	lda	$1a                     ; 0x201a <printf+0x97f>
    10a1: a6 1c        	ldx	$1c                     ; 0x201c <printf+0x981>
    10a3: 9d 98 00     	sta	$98,x                   ; 0x98 <polySIDBuffer>
    10a6: a5 19        	lda	$19                     ; 0x2019 <printf+0x97e>
    10a8: a6 97        	ldx	$97                     ; 0x2097 <printf+0x9fc>
    10aa: e8           	inx
    10ab: 86 97        	stx	$97                     ; 0x2097 <printf+0x9fc>
    10ad: a2 00        	ldx	#$0
    10af: 4c f1 0f     	jmp	$ff1 <main+0xc35>
    10b2: a5 16        	lda	$16                     ; 0x2016 <printf+0x97b>
    10b4: 09 01        	ora	#$1
    10b6: 86 1a        	stx	$1a                     ; 0x201a <printf+0x97f>
    10b8: 80 2c        	bra	$10e6 <main+0xd2a>
    10ba: a0 d4        	ldy	#$d4
    10bc: a2 ff        	ldx	#$ff
    10be: 86 14        	stx	$14                     ; 0x2014 <printf+0x979>
    10c0: 86 13        	stx	$13                     ; 0x2013 <printf+0x978>
    10c2: 4c cc 11     	jmp	$11cc <main+0xe10>
    10c5: a4 18        	ldy	$18                     ; 0x2018 <printf+0x97d>
    10c7: 84 13        	sty	$13                     ; 0x2013 <printf+0x978>
    10c9: a4 18        	ldy	$18                     ; 0x2018 <printf+0x97d>
    10cb: 85 14        	sta	$14                     ; 0x2014 <printf+0x979>
    10cd: 8a           	txa
    10ce: 5a           	phy
    10cf: a4 14        	ldy	$14                     ; 0x2014 <printf+0x979>
    10d1: 84 19        	sty	$19                     ; 0x2019 <printf+0x97e>
    10d3: 7a           	ply
    10d4: e6 14        	inc	$14                     ; 0x2014 <printf+0x979>
    10d6: c6 14        	dec	$14                     ; 0x2014 <printf+0x979>
    10d8: d0 03        	bne	$10dd <main+0xd21>
    10da: 4c a0 12     	jmp	$12a0 <main+0xee4>
    10dd: ae a1 dd     	ldx	$dda1                   ; 0xdda1 <end_block9+0xb731>
    10e0: 86 18        	stx	$18                     ; 0x2018 <printf+0x97d>
    10e2: e0 fe        	cpx	#$fe
    10e4: d0 04        	bne	$10ea <main+0xd2e>
    10e6: aa           	tax
    10e7: 4c ef 0f     	jmp	$fef <main+0xc33>
    10ea: c9 00        	cmp	#$0
    10ec: f0 2b        	beq	$1119 <main+0xd5d>
    10ee: 48           	pha
    10ef: 5a           	phy
    10f0: a0 07        	ldy	#$7
    10f2: b1 10        	lda	($10),y                 ; 0x2010 <printf+0x975>
    10f4: 7a           	ply
    10f5: aa           	tax
    10f6: 68           	pla
    10f7: e0 01        	cpx	#$1
    10f9: f0 03        	beq	$10fe <main+0xd42>
    10fb: 4c 5f 11     	jmp	$115f <main+0xda3>
    10fe: aa           	tax
    10ff: f0 03        	beq	$1104 <main+0xd48>
    1101: 4c 9b 11     	jmp	$119b <main+0xddf>
    1104: 5a           	phy
    1105: a0 06        	ldy	#$6
    1107: b1 10        	lda	($10),y                 ; 0x2010 <printf+0x975>
    1109: 7a           	ply
    110a: aa           	tax
    110b: f0 03        	beq	$1110 <main+0xd54>
    110d: 4c 8d 12     	jmp	$128d <main+0xed1>
    1110: c0 00        	cpy	#$0
    1112: a5 19        	lda	$19                     ; 0x2019 <printf+0x97e>
    1114: b0 4f        	bcs	$1165 <main+0xda9>
    1116: 4c a1 11     	jmp	$11a1 <main+0xde5>
    1119: 48           	pha
    111a: 5a           	phy
    111b: a0 06        	ldy	#$6
    111d: b1 10        	lda	($10),y                 ; 0x2010 <printf+0x975>
    111f: 7a           	ply
    1120: 85 13        	sta	$13                     ; 0x2013 <printf+0x978>
    1122: 68           	pla
    1123: e6 13        	inc	$13                     ; 0x2013 <printf+0x978>
    1125: c6 13        	dec	$13                     ; 0x2013 <printf+0x978>
    1127: d0 03        	bne	$112c <main+0xd70>
    1129: 4c 3b 12     	jmp	$123b <main+0xe7f>
    112c: 85 13        	sta	$13                     ; 0x2013 <printf+0x978>
    112e: 8a           	txa
    112f: 18           	clc
    1130: 69 ec        	adc	#$ec
    1132: 85 16        	sta	$16                     ; 0x2016 <printf+0x97b>
    1134: 5a           	phy
    1135: a0 07        	ldy	#$7
    1137: b1 10        	lda	($10),y                 ; 0x2010 <printf+0x975>
    1139: 7a           	ply
    113a: aa           	tax
    113b: c9 01        	cmp	#$1
    113d: f0 03        	beq	$1142 <main+0xd86>
    113f: 4c 61 12     	jmp	$1261 <main+0xea5>
    1142: a5 13        	lda	$13                     ; 0x2013 <printf+0x978>
    1144: f0 03        	beq	$1149 <main+0xd8d>
    1146: 4c 47 0f     	jmp	$f47 <main+0xb8b>
    1149: 5a           	phy
    114a: a0 06        	ldy	#$6
    114c: b1 10        	lda	($10),y                 ; 0x2010 <printf+0x975>
    114e: 7a           	ply
    114f: aa           	tax
    1150: f0 03        	beq	$1155 <main+0xd99>
    1152: 4c 49 0f     	jmp	$f49 <main+0xb8d>
    1155: c0 00        	cpy	#$0
    1157: 90 03        	bcc	$115c <main+0xda0>
    1159: 4c 50 0f     	jmp	$f50 <main+0xb94>
    115c: 4c 68 12     	jmp	$1268 <main+0xeac>
    115f: e0 01        	cpx	#$1
    1161: a5 19        	lda	$19                     ; 0x2019 <printf+0x97e>
    1163: 90 3c        	bcc	$11a1 <main+0xde5>
    1165: a6 1a        	ldx	$1a                     ; 0x201a <printf+0x97f>
    1167: d0 03        	bne	$116c <main+0xdb0>
    1169: 4c 88 12     	jmp	$1288 <main+0xecc>
    116c: a6 98        	ldx	$98                     ; 0x2098 <printf+0x9fd>
    116e: d0 03        	bne	$1173 <main+0xdb7>
    1170: 4c 99 12     	jmp	$1299 <main+0xedd>
    1173: a6 99        	ldx	$99                     ; 0x2099 <printf+0x9fe>
    1175: d0 03        	bne	$117a <main+0xdbe>
    1177: 4c 00 10     	jmp	$1000 <main+0xc44>
    117a: a6 9a        	ldx	$9a                     ; 0x209a <printf+0x9ff>
    117c: d0 03        	bne	$1181 <main+0xdc5>
    117e: 4c 34 10     	jmp	$1034 <main+0xc78>
    1181: a6 9b        	ldx	$9b                     ; 0x209b <printf+0xa00>
    1183: d0 03        	bne	$1188 <main+0xdcc>
    1185: 4c 3a 10     	jmp	$103a <main+0xc7e>
    1188: a6 9c        	ldx	$9c                     ; 0x209c <printf+0xa01>
    118a: d0 03        	bne	$118f <main+0xdd3>
    118c: 4c 42 10     	jmp	$1042 <main+0xc86>
    118f: a6 9d        	ldx	$9d                     ; 0x209d <printf+0xa02>
    1191: f0 03        	beq	$1196 <main+0xdda>
    1193: 4c a8 10     	jmp	$10a8 <main+0xcec>
    1196: a2 05        	ldx	#$5
    1198: 4c 44 10     	jmp	$1044 <main+0xc88>
    119b: c9 00        	cmp	#$0
    119d: a5 19        	lda	$19                     ; 0x2019 <printf+0x97e>
    119f: b0 c4        	bcs	$1165 <main+0xda9>
    11a1: a6 98        	ldx	$98                     ; 0x2098 <printf+0x9fd>
    11a3: 64 13        	stz	$13                     ; 0x2013 <printf+0x978>
    11a5: a5 1a        	lda	$1a                     ; 0x201a <printf+0x97f>
    11a7: 85 15        	sta	$15                     ; 0x2015 <printf+0x97a>
    11a9: 64 14        	stz	$14                     ; 0x2014 <printf+0x979>
    11ab: e4 15        	cpx	$15                     ; 0x2015 <printf+0x97a>
    11ad: f0 1b        	beq	$11ca <main+0xe0e>
    11af: a6 99        	ldx	$99                     ; 0x2099 <printf+0x9fe>
    11b1: a0 01        	ldy	#$1
    11b3: 85 15        	sta	$15                     ; 0x2015 <printf+0x97a>
    11b5: 84 14        	sty	$14                     ; 0x2014 <printf+0x979>
    11b7: e4 15        	cpx	$15                     ; 0x2015 <printf+0x97a>
    11b9: f0 0f        	beq	$11ca <main+0xe0e>
    11bb: a6 9a        	ldx	$9a                     ; 0x209a <printf+0x9ff>
    11bd: a0 02        	ldy	#$2
    11bf: 85 15        	sta	$15                     ; 0x2015 <printf+0x97a>
    11c1: 84 14        	sty	$14                     ; 0x2014 <printf+0x979>
    11c3: e4 15        	cpx	$15                     ; 0x2015 <printf+0x97a>
    11c5: f0 03        	beq	$11ca <main+0xe0e>
    11c7: 4c 06 10     	jmp	$1006 <main+0xc4a>
    11ca: a0 d4        	ldy	#$d4
    11cc: a9 30        	lda	#$30
    11ce: 18           	clc
    11cf: 65 14        	adc	$14                     ; 0x2014 <printf+0x979>
    11d1: 85 16        	sta	$16                     ; 0x2016 <printf+0x97b>
    11d3: a9 00        	lda	#$0
    11d5: 65 13        	adc	$13                     ; 0x2013 <printf+0x978>
    11d7: 85 17        	sta	$17                     ; 0x2017 <printf+0x97c>
    11d9: b2 16        	lda	($16)                   ; 0x2016 <printf+0x97b>
    11db: 85 16        	sta	$16                     ; 0x2016 <printf+0x97b>
    11dd: a9 98        	lda	#$98
    11df: 18           	clc
    11e0: 65 14        	adc	$14                     ; 0x2014 <printf+0x979>
    11e2: 85 14        	sta	$14                     ; 0x2014 <printf+0x979>
    11e4: a9 00        	lda	#$0
    11e6: 65 13        	adc	$13                     ; 0x2013 <printf+0x978>
    11e8: 85 15        	sta	$15                     ; 0x2015 <printf+0x97a>
    11ea: a9 00        	lda	#$0
    11ec: 92 14        	sta	($14)                   ; 0x2014 <printf+0x979>
    11ee: a6 1a        	ldx	$1a                     ; 0x201a <printf+0x97f>
    11f0: b5 2b        	lda	$2b,x                   ; 0x202b <printf+0x990>
    11f2: 5a           	phy
    11f3: a4 16        	ldy	$16                     ; 0x2016 <printf+0x97b>
    11f5: 84 14        	sty	$14                     ; 0x2014 <printf+0x979>
    11f7: 7a           	ply
    11f8: 84 15        	sty	$15                     ; 0x2015 <printf+0x97a>
    11fa: 92 14        	sta	($14)                   ; 0x2014 <printf+0x979>
    11fc: bd 7e 24     	lda	$247e,x                 ; 0x247e <noteColors+0x116>
    11ff: aa           	tax
    1200: 86 17        	stx	$17                     ; 0x2017 <printf+0x97c>
    1202: a6 16        	ldx	$16                     ; 0x2016 <printf+0x97b>
    1204: 84 13        	sty	$13                     ; 0x2013 <printf+0x978>
    1206: e8           	inx
    1207: d0 01        	bne	$120a <main+0xe4e>
    1209: c8           	iny
    120a: 86 14        	stx	$14                     ; 0x2014 <printf+0x979>
    120c: 84 15        	sty	$15                     ; 0x2015 <printf+0x97a>
    120e: a5 17        	lda	$17                     ; 0x2017 <printf+0x97c>
    1210: 92 14        	sta	($14)                   ; 0x2014 <printf+0x979>
    1212: 18           	clc
    1213: a5 16        	lda	$16                     ; 0x2016 <printf+0x97b>
    1215: 69 04        	adc	#$4
    1217: 85 14        	sta	$14                     ; 0x2014 <printf+0x979>
    1219: a5 13        	lda	$13                     ; 0x2013 <printf+0x978>
    121b: 69 00        	adc	#$0
    121d: 85 15        	sta	$15                     ; 0x2015 <printf+0x97a>
    121f: a6 02        	ldx	$2                      ; 0x2002 <printf+0x967>
    1221: a4 03        	ldy	$3                      ; 0x2003 <printf+0x968>
    1223: 86 16        	stx	$16                     ; 0x2016 <printf+0x97b>
    1225: 84 17        	sty	$17                     ; 0x2017 <printf+0x97c>
    1227: a9 fe        	lda	#$fe
    1229: a0 05        	ldy	#$5
    122b: 31 16        	and	($16),y                 ; 0x2016 <printf+0x97b>
    122d: 92 14        	sta	($14)                   ; 0x2014 <printf+0x979>
    122f: a6 97        	ldx	$97                     ; 0x2097 <printf+0x9fc>
    1231: f0 03        	beq	$1236 <main+0xe7a>
    1233: ca           	dex
    1234: 86 97        	stx	$97                     ; 0x2097 <printf+0x9fc>
    1236: a2 00        	ldx	#$0
    1238: 4c ef 0f     	jmp	$fef <main+0xc33>
    123b: 85 16        	sta	$16                     ; 0x2016 <printf+0x97b>
    123d: 8a           	txa
    123e: a2 00        	ldx	#$0
    1240: 29 f0        	and	#$f0
    1242: c9 80        	cmp	#$80
    1244: d0 03        	bne	$1249 <main+0xe8d>
    1246: 4c a9 0f     	jmp	$fa9 <main+0xbed>
    1249: c9 90        	cmp	#$90
    124b: f0 03        	beq	$1250 <main+0xe94>
    124d: 4c bd 0f     	jmp	$fbd <main+0xc01>
    1250: a0 01        	ldy	#$1
    1252: 98           	tya
    1253: a0 06        	ldy	#$6
    1255: 91 10        	sta	($10),y                 ; 0x2010 <printf+0x975>
    1257: a4 18        	ldy	$18                     ; 0x2018 <printf+0x97d>
    1259: 98           	tya
    125a: a0 04        	ldy	#$4
    125c: 91 10        	sta	($10),y                 ; 0x2010 <printf+0x975>
    125e: 4c e8 0f     	jmp	$fe8 <main+0xc2c>
    1261: e0 01        	cpx	#$1
    1263: 90 03        	bcc	$1268 <main+0xeac>
    1265: 4c 50 0f     	jmp	$f50 <main+0xb94>
    1268: a6 16        	ldx	$16                     ; 0x2016 <printf+0x97b>
    126a: 64 13        	stz	$13                     ; 0x2013 <printf+0x978>
    126c: bd 67 23     	lda	$2367,x                 ; 0x2367 <__set_v+0x3a>
    126f: aa           	tax
    1270: a9 00        	lda	#$0
    1272: a0 01        	ldy	#$1
    1274: e0 00        	cpx	#$0
    1276: f0 02        	beq	$127a <main+0xebe>
    1278: a9 01        	lda	#$1
    127a: 4a           	lsr
    127b: a9 00        	lda	#$0
    127d: 6a           	ror
    127e: 30 03        	bmi	$1283 <main+0xec7>
    1280: 4c 60 0f     	jmp	$f60 <main+0xba4>
    1283: a2 ff        	ldx	#$ff
    1285: 4c 62 0f     	jmp	$f62 <main+0xba6>
    1288: a2 00        	ldx	#$0
    128a: 4c f1 0f     	jmp	$ff1 <main+0xc35>
    128d: e0 00        	cpx	#$0
    128f: a5 19        	lda	$19                     ; 0x2019 <printf+0x97e>
    1291: 90 03        	bcc	$1296 <main+0xeda>
    1293: 4c 65 11     	jmp	$1165 <main+0xda9>
    1296: 4c a1 11     	jmp	$11a1 <main+0xde5>
    1299: a2 00        	ldx	#$0
    129b: a0 d4        	ldy	#$d4
    129d: 4c 46 10     	jmp	$1046 <main+0xc8a>
    12a0: e6 12        	inc	$12                     ; 0x2012 <printf+0x977>
    12a2: c6 12        	dec	$12                     ; 0x2012 <printf+0x977>
    12a4: f0 03        	beq	$12a9 <main+0xeed>
    12a6: 4c dd 10     	jmp	$10dd <main+0xd21>
    12a9: ad a0 dd     	lda	$dda0                   ; 0xdda0 <end_block9+0xb730>
    12ac: 29 02        	and	#$2
    12ae: d0 f9        	bne	$12a9 <main+0xeed>
    12b0: ac a2 dd     	ldy	$dda2                   ; 0xdda2 <end_block9+0xb732>
    12b3: ad a3 dd     	lda	$dda3                   ; 0xdda3 <end_block9+0xb733>
    12b6: 29 0f        	and	#$f
    12b8: d0 04        	bne	$12be <main+0xf02>
    12ba: c0 00        	cpy	#$0
    12bc: f0 eb        	beq	$12a9 <main+0xeed>
    12be: 85 19        	sta	$19                     ; 0x2019 <printf+0x97e>
    12c0: 84 12        	sty	$12                     ; 0x2012 <printf+0x977>
    12c2: a4 13        	ldy	$13                     ; 0x2013 <printf+0x978>
    12c4: 8a           	txa
    12c5: 4c dd 10     	jmp	$10dd <main+0xd21>

000012c8 <textPrint>:
    12c8: a6 01        	ldx	$1                      ; 0x2001 <printf+0x966>
    12ca: 86 ef        	stx	$ef                     ; 0x20ef <printf+0xa54>
    12cc: a6 9f        	ldx	$9f                     ; 0x209f <printf+0xa04>
    12ce: a0 50        	ldy	#$50
    12d0: 8c 00 de     	sty	$de00                   ; 0xde00 <end_block9+0xb790>
    12d3: 9c 01 de     	stz	$de01                   ; 0xde01 <end_block9+0xb791>
    12d6: 8e 02 de     	stx	$de02                   ; 0xde02 <end_block9+0xb792>
    12d9: 9c 03 de     	stz	$de03                   ; 0xde03 <end_block9+0xb793>
    12dc: ae 10 de     	ldx	$de10                   ; 0xde10 <end_block9+0xb7a0>
    12df: ac 11 de     	ldy	$de11                   ; 0xde11 <end_block9+0xb7a1>
    12e2: 84 15        	sty	$15                     ; 0x2015 <printf+0x97a>
    12e4: ad 12 de     	lda	$de12                   ; 0xde12 <end_block9+0xb7a2>
    12e7: ac 13 de     	ldy	$de13                   ; 0xde13 <end_block9+0xb7a3>
    12ea: 84 1c        	sty	$1c                     ; 0x201c <printf+0x981>
    12ec: 9c 08 de     	stz	$de08                   ; 0xde08 <end_block9+0xb798>
    12ef: a0 c0        	ldy	#$c0
    12f1: 8c 09 de     	sty	$de09                   ; 0xde09 <end_block9+0xb799>
    12f4: 9c 0a de     	stz	$de0a                   ; 0xde0a <end_block9+0xb79a>
    12f7: 9c 0b de     	stz	$de0b                   ; 0xde0b <end_block9+0xb79b>
    12fa: 8e 0c de     	stx	$de0c                   ; 0xde0c <end_block9+0xb79c>
    12fd: 64 14        	stz	$14                     ; 0x2014 <printf+0x979>
    12ff: a2 00        	ldx	#$0
    1301: 86 16        	stx	$16                     ; 0x2016 <printf+0x97b>
    1303: a2 c0        	ldx	#$c0
    1305: 86 17        	stx	$17                     ; 0x2017 <printf+0x97c>
    1307: a2 11        	ldx	#$11
    1309: 86 18        	stx	$18                     ; 0x2018 <printf+0x97d>
    130b: a2 c9        	ldx	#$c9
    130d: 86 19        	stx	$19                     ; 0x2019 <printf+0x97e>
    130f: a2 10        	ldx	#$10
    1311: 86 1a        	stx	$1a                     ; 0x201a <printf+0x97f>
    1313: a2 c9        	ldx	#$c9
    1315: 86 1b        	stx	$1b                     ; 0x201b <printf+0x980>
    1317: a6 15        	ldx	$15                     ; 0x2015 <printf+0x97a>
    1319: 8e 0d de     	stx	$de0d                   ; 0xde0d <end_block9+0xb79d>
    131c: 8d 0e de     	sta	$de0e                   ; 0xde0e <end_block9+0xb79e>
    131f: a6 1c        	ldx	$1c                     ; 0x201c <printf+0x981>
    1321: 8e 0f de     	stx	$de0f                   ; 0xde0f <end_block9+0xb79f>
    1324: ac 18 de     	ldy	$de18                   ; 0xde18 <end_block9+0xb7a8>
    1327: ad 19 de     	lda	$de19                   ; 0xde19 <end_block9+0xb7a9>
    132a: ae 1a de     	ldx	$de1a                   ; 0xde1a <end_block9+0xb7aa>
    132d: ae 1b de     	ldx	$de1b                   ; 0xde1b <end_block9+0xb7ab>
    1330: 84 1c        	sty	$1c                     ; 0x201c <printf+0x981>
    1332: 85 1d        	sta	$1d                     ; 0x201d <printf+0x982>
    1334: 64 15        	stz	$15                     ; 0x2015 <printf+0x97a>
    1336: 4c 3d 14     	jmp	$143d <textPrint+0x175>
    1339: 8a           	txa
    133a: f0 15        	beq	$1351 <textPrint+0x89>
    133c: b1 1c        	lda	($1c),y                 ; 0x201c <printf+0x981>
    133e: 92 1c        	sta	($1c)                   ; 0x201c <printf+0x981>
    1340: a9 ff        	lda	#$ff
    1342: c6 1e        	dec	$1e                     ; 0x201e <printf+0x983>
    1344: c5 1e        	cmp	$1e                     ; 0x201e <printf+0x983>
    1346: d0 01        	bne	$1349 <textPrint+0x81>
    1348: ca           	dex
    1349: e6 1c        	inc	$1c                     ; 0x201c <printf+0x981>
    134b: d0 ec        	bne	$1339 <textPrint+0x71>
    134d: e6 1d        	inc	$1d                     ; 0x201d <printf+0x982>
    134f: 80 e8        	bra	$1339 <textPrint+0x71>
    1351: a5 1e        	lda	$1e                     ; 0x201e <printf+0x983>
    1353: d0 e7        	bne	$133c <textPrint+0x74>
    1355: a2 02        	ldx	#$2
    1357: 86 01        	stx	$1                      ; 0x2001 <printf+0x966>
    1359: a2 09        	ldx	#$9
    135b: a9 10        	lda	#$10
    135d: 5a           	phy
    135e: a0 00        	ldy	#$0
    1360: 84 1c        	sty	$1c                     ; 0x201c <printf+0x981>
    1362: a0 c0        	ldy	#$c0
    1364: 84 1d        	sty	$1d                     ; 0x201d <printf+0x982>
    1366: 7a           	ply
    1367: 85 1e        	sta	$1e                     ; 0x201e <printf+0x983>
    1369: 80 03        	bra	$136e <textPrint+0xa6>
    136b: 8a           	txa
    136c: f0 15        	beq	$1383 <textPrint+0xbb>
    136e: b1 1c        	lda	($1c),y                 ; 0x201c <printf+0x981>
    1370: 92 1c        	sta	($1c)                   ; 0x201c <printf+0x981>
    1372: a9 ff        	lda	#$ff
    1374: c6 1e        	dec	$1e                     ; 0x201e <printf+0x983>
    1376: c5 1e        	cmp	$1e                     ; 0x201e <printf+0x983>
    1378: d0 01        	bne	$137b <textPrint+0xb3>
    137a: ca           	dex
    137b: e6 1c        	inc	$1c                     ; 0x201c <printf+0x981>
    137d: d0 ec        	bne	$136b <textPrint+0xa3>
    137f: e6 1d        	inc	$1d                     ; 0x201d <printf+0x982>
    1381: 80 e8        	bra	$136b <textPrint+0xa3>
    1383: a5 1e        	lda	$1e                     ; 0x201e <printf+0x983>
    1385: d0 e7        	bne	$136e <textPrint+0xa6>
    1387: a2 02        	ldx	#$2
    1389: 86 01        	stx	$1                      ; 0x2001 <printf+0x966>
    138b: e8           	inx
    138c: 86 01        	stx	$1                      ; 0x2001 <printf+0x966>
    138e: a5 96        	lda	$96                     ; 0x2096 <printf+0x9fb>
    1390: a2 50        	ldx	#$50
    1392: a0 11        	ldy	#$11
    1394: 84 1c        	sty	$1c                     ; 0x201c <printf+0x981>
    1396: a0 c9        	ldy	#$c9
    1398: 84 1d        	sty	$1d                     ; 0x201d <printf+0x982>
    139a: a0 10        	ldy	#$10
    139c: 84 1e        	sty	$1e                     ; 0x201e <printf+0x983>
    139e: a0 c9        	ldy	#$c9
    13a0: 84 1f        	sty	$1f                     ; 0x201f <printf+0x984>
    13a2: a4 1c        	ldy	$1c                     ; 0x201c <printf+0x981>
    13a4: 84 22        	sty	$22                     ; 0x2022 <printf+0x987>
    13a6: a4 1d        	ldy	$1d                     ; 0x201d <printf+0x982>
    13a8: 84 23        	sty	$23                     ; 0x2023 <printf+0x988>
    13aa: 92 1e        	sta	($1e)                   ; 0x201e <printf+0x983>
    13ac: e6 1c        	inc	$1c                     ; 0x201c <printf+0x981>
    13ae: d0 02        	bne	$13b2 <textPrint+0xea>
    13b0: e6 1d        	inc	$1d                     ; 0x201d <printf+0x982>
    13b2: ca           	dex
    13b3: a4 22        	ldy	$22                     ; 0x2022 <printf+0x987>
    13b5: 84 1e        	sty	$1e                     ; 0x201e <printf+0x983>
    13b7: a4 23        	ldy	$23                     ; 0x2023 <printf+0x988>
    13b9: 84 1f        	sty	$1f                     ; 0x201f <printf+0x984>
    13bb: e0 00        	cpx	#$0
    13bd: d0 e3        	bne	$13a2 <textPrint+0xda>
    13bf: a2 02        	ldx	#$2
    13c1: 86 01        	stx	$1                      ; 0x2001 <printf+0x966>
    13c3: a2 50        	ldx	#$50
    13c5: a0 11        	ldy	#$11
    13c7: 84 1c        	sty	$1c                     ; 0x201c <printf+0x981>
    13c9: a0 c9        	ldy	#$c9
    13cb: 84 1d        	sty	$1d                     ; 0x201d <printf+0x982>
    13cd: a0 10        	ldy	#$10
    13cf: 84 1e        	sty	$1e                     ; 0x201e <printf+0x983>
    13d1: a0 c9        	ldy	#$c9
    13d3: 84 1f        	sty	$1f                     ; 0x201f <printf+0x984>
    13d5: a9 20        	lda	#$20
    13d7: a4 1c        	ldy	$1c                     ; 0x201c <printf+0x981>
    13d9: 84 22        	sty	$22                     ; 0x2022 <printf+0x987>
    13db: a4 1d        	ldy	$1d                     ; 0x201d <printf+0x982>
    13dd: 84 23        	sty	$23                     ; 0x2023 <printf+0x988>
    13df: 92 1e        	sta	($1e)                   ; 0x201e <printf+0x983>
    13e1: e6 1c        	inc	$1c                     ; 0x201c <printf+0x981>
    13e3: d0 02        	bne	$13e7 <textPrint+0x11f>
    13e5: e6 1d        	inc	$1d                     ; 0x201d <printf+0x982>
    13e7: ca           	dex
    13e8: a4 22        	ldy	$22                     ; 0x2022 <printf+0x987>
    13ea: 84 1e        	sty	$1e                     ; 0x201e <printf+0x983>
    13ec: a4 23        	ldy	$23                     ; 0x2023 <printf+0x988>
    13ee: 84 1f        	sty	$1f                     ; 0x201f <printf+0x984>
    13f0: e0 00        	cpx	#$0
    13f2: d0 e3        	bne	$13d7 <textPrint+0x10f>
    13f4: c6 9f        	dec	$9f                     ; 0x209f <printf+0xa04>
    13f6: 9c 08 de     	stz	$de08                   ; 0xde08 <end_block9+0xb798>
    13f9: a2 c0        	ldx	#$c0
    13fb: 8e 09 de     	stx	$de09                   ; 0xde09 <end_block9+0xb799>
    13fe: 9c 0a de     	stz	$de0a                   ; 0xde0a <end_block9+0xb79a>
    1401: 9c 0b de     	stz	$de0b                   ; 0xde0b <end_block9+0xb79b>
    1404: a2 1d        	ldx	#$1d
    1406: 8e 0c de     	stx	$de0c                   ; 0xde0c <end_block9+0xb79c>
    1409: 9c 0d de     	stz	$de0d                   ; 0xde0d <end_block9+0xb79d>
    140c: 9c 0e de     	stz	$de0e                   ; 0xde0e <end_block9+0xb79e>
    140f: 9c 0f de     	stz	$de0f                   ; 0xde0f <end_block9+0xb79f>
    1412: ae 18 de     	ldx	$de18                   ; 0xde18 <end_block9+0xb7a8>
    1415: ac 19 de     	ldy	$de19                   ; 0xde19 <end_block9+0xb7a9>
    1418: ad 1a de     	lda	$de1a                   ; 0xde1a <end_block9+0xb7aa>
    141b: ad 1b de     	lda	$de1b                   ; 0xde1b <end_block9+0xb7ab>
    141e: 86 1c        	stx	$1c                     ; 0x201c <printf+0x981>
    1420: 84 1d        	sty	$1d                     ; 0x201d <printf+0x982>
    1422: e6 14        	inc	$14                     ; 0x2014 <printf+0x979>
    1424: d0 02        	bne	$1428 <textPrint+0x160>
    1426: e6 15        	inc	$15                     ; 0x2015 <printf+0x97a>
    1428: 80 13        	bra	$143d <textPrint+0x175>
    142a: a5 1c        	lda	$1c                     ; 0x201c <printf+0x981>
    142c: 18           	clc
    142d: 69 50        	adc	#$50
    142f: 85 1c        	sta	$1c                     ; 0x201c <printf+0x981>
    1431: a5 1d        	lda	$1d                     ; 0x201d <printf+0x982>
    1433: 69 00        	adc	#$0
    1435: 85 1d        	sta	$1d                     ; 0x201d <printf+0x982>
    1437: e6 14        	inc	$14                     ; 0x2014 <printf+0x979>
    1439: d0 02        	bne	$143d <textPrint+0x175>
    143b: e6 15        	inc	$15                     ; 0x2015 <printf+0x97a>
    143d: a5 12        	lda	$12                     ; 0x2012 <printf+0x977>
    143f: 18           	clc
    1440: 65 14        	adc	$14                     ; 0x2014 <printf+0x979>
    1442: 85 1e        	sta	$1e                     ; 0x201e <printf+0x983>
    1444: a5 13        	lda	$13                     ; 0x2013 <printf+0x978>
    1446: 65 15        	adc	$15                     ; 0x2015 <printf+0x97a>
    1448: 85 1f        	sta	$1f                     ; 0x201f <printf+0x984>
    144a: b2 1e        	lda	($1e)                   ; 0x201e <printf+0x983>
    144c: c9 0a        	cmp	#$a
    144e: f0 23        	beq	$1473 <textPrint+0x1ab>
    1450: c9 0d        	cmp	#$d
    1452: f0 1f        	beq	$1473 <textPrint+0x1ab>
    1454: aa           	tax
    1455: f0 41        	beq	$1498 <textPrint+0x1d0>
    1457: a2 03        	ldx	#$3
    1459: 86 01        	stx	$1                      ; 0x2001 <printf+0x966>
    145b: a5 96        	lda	$96                     ; 0x2096 <printf+0x9fb>
    145d: a4 9e        	ldy	$9e                     ; 0x209e <printf+0xa03>
    145f: 91 1c        	sta	($1c),y                 ; 0x201c <printf+0x981>
    1461: ca           	dex
    1462: 86 01        	stx	$1                      ; 0x2001 <printf+0x966>
    1464: b2 1e        	lda	($1e)                   ; 0x201e <printf+0x983>
    1466: a4 9e        	ldy	$9e                     ; 0x209e <printf+0xa03>
    1468: 91 1c        	sta	($1c),y                 ; 0x201c <printf+0x981>
    146a: a6 9e        	ldx	$9e                     ; 0x209e <printf+0xa03>
    146c: e8           	inx
    146d: e6 9e        	inc	$9e                     ; 0x209e <printf+0xa03>
    146f: e0 50        	cpx	#$50
    1471: d0 c4        	bne	$1437 <textPrint+0x16f>
    1473: 64 9e        	stz	$9e                     ; 0x209e <printf+0xa03>
    1475: a6 9f        	ldx	$9f                     ; 0x209f <printf+0xa04>
    1477: e8           	inx
    1478: e6 9f        	inc	$9f                     ; 0x209f <printf+0xa04>
    147a: e0 1e        	cpx	#$1e
    147c: f0 03        	beq	$1481 <textPrint+0x1b9>
    147e: 4c 2a 14     	jmp	$142a <textPrint+0x162>
    1481: a2 03        	ldx	#$3
    1483: 86 01        	stx	$1                      ; 0x2001 <printf+0x966>
    1485: a2 09        	ldx	#$9
    1487: a9 10        	lda	#$10
    1489: a0 00        	ldy	#$0
    148b: 84 1c        	sty	$1c                     ; 0x201c <printf+0x981>
    148d: a0 c0        	ldy	#$c0
    148f: 84 1d        	sty	$1d                     ; 0x201d <printf+0x982>
    1491: a0 50        	ldy	#$50
    1493: 85 1e        	sta	$1e                     ; 0x201e <printf+0x983>
    1495: 4c 3c 13     	jmp	$133c <textPrint+0x74>
    1498: a6 ef        	ldx	$ef                     ; 0x20ef <printf+0xa54>
    149a: 86 01        	stx	$1                      ; 0x2001 <printf+0x966>
    149c: a6 9e        	ldx	$9e                     ; 0x209e <printf+0xa03>
    149e: a4 9f        	ldy	$9f                     ; 0x209f <printf+0xa04>
    14a0: 8e 14 d0     	stx	$d014                   ; 0xd014 <end_block9+0xa9a4>
    14a3: 9c 15 d0     	stz	$d015                   ; 0xd015 <end_block9+0xa9a5>
    14a6: 84 9f        	sty	$9f                     ; 0x209f <printf+0xa04>
    14a8: 8c 16 d0     	sty	$d016                   ; 0xd016 <end_block9+0xa9a6>
    14ab: 9c 17 d0     	stz	$d017                   ; 0xd017 <end_block9+0xa9a7>
    14ae: 60           	rts

000014af <exit>:
    14af: 20 7e 03     	jsr	$37e <_fini>
    14b2: 80 fe        	bra	$14b2 <exit+0x3>

000014b4 <_ZN12_GLOBAL__N_13putEcP6Status>:
    14b4: 85 18        	sta	$18                     ; 0x2018 <printf+0x97d>
    14b6: a6 13        	ldx	$13                     ; 0x2013 <printf+0x978>
    14b8: 18           	clc
    14b9: a5 12        	lda	$12                     ; 0x2012 <printf+0x977>
    14bb: 69 05        	adc	#$5
    14bd: a8           	tay
    14be: a5 13        	lda	$13                     ; 0x2013 <printf+0x978>
    14c0: 86 15        	stx	$15                     ; 0x2015 <printf+0x97a>
    14c2: 69 00        	adc	#$0
    14c4: 18           	clc
    14c5: 84 16        	sty	$16                     ; 0x2016 <printf+0x97b>
    14c7: a0 05        	ldy	#$5
    14c9: 85 17        	sta	$17                     ; 0x2017 <printf+0x97c>
    14cb: b1 12        	lda	($12),y                 ; 0x2012 <printf+0x977>
    14cd: aa           	tax
    14ce: a5 12        	lda	$12                     ; 0x2012 <printf+0x977>
    14d0: 69 03        	adc	#$3
    14d2: 85 14        	sta	$14                     ; 0x2014 <printf+0x979>
    14d4: a5 15        	lda	$15                     ; 0x2015 <printf+0x97a>
    14d6: 69 00        	adc	#$0
    14d8: 85 15        	sta	$15                     ; 0x2015 <printf+0x97a>
    14da: a0 01        	ldy	#$1
    14dc: b1 16        	lda	($16),y                 ; 0x2016 <printf+0x97b>
    14de: d1 14        	cmp	($14),y                 ; 0x2014 <printf+0x979>
    14e0: d0 11        	bne	$14f3 <_ZN12_GLOBAL__N_13putEcP6Status+0x3f>
    14e2: a0 03        	ldy	#$3
    14e4: 85 17        	sta	$17                     ; 0x2017 <printf+0x97c>
    14e6: b1 12        	lda	($12),y                 ; 0x2012 <printf+0x977>
    14e8: 85 14        	sta	$14                     ; 0x2014 <printf+0x979>
    14ea: 86 16        	stx	$16                     ; 0x2016 <printf+0x97b>
    14ec: e4 14        	cpx	$14                     ; 0x2014 <printf+0x979>
    14ee: 90 0e        	bcc	$14fe <_ZN12_GLOBAL__N_13putEcP6Status+0x4a>
    14f0: 4c 67 15     	jmp	$1567 <_ZN12_GLOBAL__N_13putEcP6Status+0xb3>
    14f3: 86 16        	stx	$16                     ; 0x2016 <printf+0x97b>
    14f5: d1 14        	cmp	($14),y                 ; 0x2014 <printf+0x979>
    14f7: 85 17        	sta	$17                     ; 0x2017 <printf+0x97c>
    14f9: 90 03        	bcc	$14fe <_ZN12_GLOBAL__N_13putEcP6Status+0x4a>
    14fb: 4c 67 15     	jmp	$1567 <_ZN12_GLOBAL__N_13putEcP6Status+0xb3>
    14fe: a5 12        	lda	$12                     ; 0x2012 <printf+0x977>
    1500: 18           	clc
    1501: 69 0f        	adc	#$f
    1503: 85 14        	sta	$14                     ; 0x2014 <printf+0x979>
    1505: a5 13        	lda	$13                     ; 0x2013 <printf+0x978>
    1507: 69 00        	adc	#$0
    1509: 85 15        	sta	$15                     ; 0x2015 <printf+0x97a>
    150b: a0 01        	ldy	#$1
    150d: b1 14        	lda	($14),y                 ; 0x2014 <printf+0x979>
    150f: a2 00        	ldx	#$0
    1511: 86 14        	stx	$14                     ; 0x2014 <printf+0x979>
    1513: a2 00        	ldx	#$0
    1515: 86 15        	stx	$15                     ; 0x2015 <printf+0x97a>
    1517: c5 15        	cmp	$15                     ; 0x2015 <printf+0x97a>
    1519: d0 2d        	bne	$1548 <_ZN12_GLOBAL__N_13putEcP6Status+0x94>
    151b: a0 0f        	ldy	#$f
    151d: b1 12        	lda	($12),y                 ; 0x2012 <printf+0x977>
    151f: c5 14        	cmp	$14                     ; 0x2014 <printf+0x979>
    1521: d0 25        	bne	$1548 <_ZN12_GLOBAL__N_13putEcP6Status+0x94>
    1523: a5 12        	lda	$12                     ; 0x2012 <printf+0x977>
    1525: 18           	clc
    1526: 69 09        	adc	#$9
    1528: 85 14        	sta	$14                     ; 0x2014 <printf+0x979>
    152a: a5 13        	lda	$13                     ; 0x2013 <printf+0x978>
    152c: 69 00        	adc	#$0
    152e: a0 09        	ldy	#$9
    1530: 85 15        	sta	$15                     ; 0x2015 <printf+0x97a>
    1532: 18           	clc
    1533: a5 16        	lda	$16                     ; 0x2016 <printf+0x97b>
    1535: 71 12        	adc	($12),y                 ; 0x2012 <printf+0x977>
    1537: aa           	tax
    1538: a0 01        	ldy	#$1
    153a: a5 17        	lda	$17                     ; 0x2017 <printf+0x97c>
    153c: 71 14        	adc	($14),y                 ; 0x2014 <printf+0x979>
    153e: 86 14        	stx	$14                     ; 0x2014 <printf+0x979>
    1540: 85 15        	sta	$15                     ; 0x2015 <printf+0x97a>
    1542: a5 18        	lda	$18                     ; 0x2018 <printf+0x97d>
    1544: 92 14        	sta	($14)                   ; 0x2014 <printf+0x979>
    1546: 80 1f        	bra	$1567 <_ZN12_GLOBAL__N_13putEcP6Status+0xb3>
    1548: a6 12        	ldx	$12                     ; 0x2012 <printf+0x977>
    154a: 86 ed        	stx	$ed                     ; 0x20ed <printf+0xa52>
    154c: a6 13        	ldx	$13                     ; 0x2013 <printf+0x978>
    154e: 86 ee        	stx	$ee                     ; 0x20ee <printf+0xa53>
    1550: a5 18        	lda	$18                     ; 0x2018 <printf+0x97d>
    1552: 85 a0        	sta	$a0                     ; 0x20a0 <printf+0xa05>
    1554: a2 a0        	ldx	#$a0
    1556: 86 12        	stx	$12                     ; 0x2012 <printf+0x977>
    1558: a2 00        	ldx	#$0
    155a: 86 13        	stx	$13                     ; 0x2013 <printf+0x978>
    155c: 20 c8 12     	jsr	$12c8 <textPrint>
    155f: a6 ed        	ldx	$ed                     ; 0x20ed <printf+0xa52>
    1561: 86 12        	stx	$12                     ; 0x2012 <printf+0x977>
    1563: a6 ee        	ldx	$ee                     ; 0x20ee <printf+0xa53>
    1565: 86 13        	stx	$13                     ; 0x2013 <printf+0x978>
    1567: a0 05        	ldy	#$5
    1569: a5 12        	lda	$12                     ; 0x2012 <printf+0x977>
    156b: 18           	clc
    156c: 69 05        	adc	#$5
    156e: 85 14        	sta	$14                     ; 0x2014 <printf+0x979>
    1570: a5 13        	lda	$13                     ; 0x2013 <printf+0x978>
    1572: 69 00        	adc	#$0
    1574: 85 15        	sta	$15                     ; 0x2015 <printf+0x97a>
    1576: b1 12        	lda	($12),y                 ; 0x2012 <printf+0x977>
    1578: aa           	tax
    1579: a0 01        	ldy	#$1
    157b: b1 14        	lda	($14),y                 ; 0x2014 <printf+0x979>
    157d: e8           	inx
    157e: d0 01        	bne	$1581 <_ZN12_GLOBAL__N_13putEcP6Status+0xcd>
    1580: 1a           	inc
    1581: 85 16        	sta	$16                     ; 0x2016 <printf+0x97b>
    1583: 8a           	txa
    1584: a0 05        	ldy	#$5
    1586: 91 12        	sta	($12),y                 ; 0x2012 <printf+0x977>
    1588: a0 01        	ldy	#$1
    158a: a5 16        	lda	$16                     ; 0x2016 <printf+0x97b>
    158c: 91 14        	sta	($14),y                 ; 0x2014 <printf+0x979>
    158e: 60           	rts

0000158f <_ZN12_GLOBAL__N_112print_stringEPKcP6Status>:
    158f: a6 12        	ldx	$12                     ; 0x2012 <printf+0x977>
    1591: 86 e5        	stx	$e5                     ; 0x20e5 <printf+0xa4a>
    1593: a6 13        	ldx	$13                     ; 0x2013 <printf+0x978>
    1595: 86 e6        	stx	$e6                     ; 0x20e6 <printf+0xa4b>
    1597: a6 14        	ldx	$14                     ; 0x2014 <printf+0x979>
    1599: 86 e7        	stx	$e7                     ; 0x20e7 <printf+0xa4c>
    159b: a6 15        	ldx	$15                     ; 0x2015 <printf+0x97a>
    159d: 86 e8        	stx	$e8                     ; 0x20e8 <printf+0xa4d>
    159f: a5 e7        	lda	$e7                     ; 0x20e7 <printf+0xa4c>
    15a1: 18           	clc
    15a2: 69 0d        	adc	#$d
    15a4: 85 12        	sta	$12                     ; 0x2012 <printf+0x977>
    15a6: a5 e8        	lda	$e8                     ; 0x20e8 <printf+0xa4d>
    15a8: 69 00        	adc	#$0
    15aa: 85 13        	sta	$13                     ; 0x2013 <printf+0x978>
    15ac: a0 01        	ldy	#$1
    15ae: b1 12        	lda	($12),y                 ; 0x2012 <printf+0x977>
    15b0: 30 16        	bmi	$15c8 <_ZN12_GLOBAL__N_112print_stringEPKcP6Status+0x39>
    15b2: a0 0d        	ldy	#$d
    15b4: 85 12        	sta	$12                     ; 0x2012 <printf+0x977>
    15b6: b1 e7        	lda	($e7),y                 ; 0x20e7 <printf+0xa4c>
    15b8: a6 12        	ldx	$12                     ; 0x2012 <printf+0x977>
    15ba: 86 ec        	stx	$ec                     ; 0x20ec <printf+0xa51>
    15bc: d0 0f        	bne	$15cd <_ZN12_GLOBAL__N_112print_stringEPKcP6Status+0x3e>
    15be: aa           	tax
    15bf: d0 0c        	bne	$15cd <_ZN12_GLOBAL__N_112print_stringEPKcP6Status+0x3e>
    15c1: 64 e9        	stz	$e9                     ; 0x20e9 <printf+0xa4e>
    15c3: a2 00        	ldx	#$0
    15c5: 4c 96 16     	jmp	$1696 <_ZN12_GLOBAL__N_112print_stringEPKcP6Status+0x107>
    15c8: a9 ff        	lda	#$ff
    15ca: aa           	tax
    15cb: 86 ec        	stx	$ec                     ; 0x20ec <printf+0xa51>
    15cd: 85 e9        	sta	$e9                     ; 0x20e9 <printf+0xa4e>
    15cf: 64 12        	stz	$12                     ; 0x2012 <printf+0x977>
    15d1: a4 e5        	ldy	$e5                     ; 0x20e5 <printf+0xa4a>
    15d3: a6 e6        	ldx	$e6                     ; 0x20e6 <printf+0xa4b>
    15d5: 86 16        	stx	$16                     ; 0x2016 <printf+0x97b>
    15d7: 64 13        	stz	$13                     ; 0x2013 <printf+0x978>
    15d9: 98           	tya
    15da: 18           	clc
    15db: 65 12        	adc	$12                     ; 0x2012 <printf+0x977>
    15dd: 85 14        	sta	$14                     ; 0x2014 <printf+0x979>
    15df: a5 e6        	lda	$e6                     ; 0x20e6 <printf+0xa4b>
    15e1: 65 13        	adc	$13                     ; 0x2013 <printf+0x978>
    15e3: 85 15        	sta	$15                     ; 0x2015 <printf+0x97a>
    15e5: b2 14        	lda	($14)                   ; 0x2014 <printf+0x979>
    15e7: d0 03        	bne	$15ec <_ZN12_GLOBAL__N_112print_stringEPKcP6Status+0x5d>
    15e9: 4c 90 16     	jmp	$1690 <_ZN12_GLOBAL__N_112print_stringEPKcP6Status+0x101>
    15ec: e6 12        	inc	$12                     ; 0x2012 <printf+0x977>
    15ee: d0 02        	bne	$15f2 <_ZN12_GLOBAL__N_112print_stringEPKcP6Status+0x63>
    15f0: e6 13        	inc	$13                     ; 0x2013 <printf+0x978>
    15f2: a6 ec        	ldx	$ec                     ; 0x20ec <printf+0xa51>
    15f4: e4 13        	cpx	$13                     ; 0x2013 <printf+0x978>
    15f6: d0 e1        	bne	$15d9 <_ZN12_GLOBAL__N_112print_stringEPKcP6Status+0x4a>
    15f8: a6 e9        	ldx	$e9                     ; 0x20e9 <printf+0xa4e>
    15fa: e4 12        	cpx	$12                     ; 0x2012 <printf+0x977>
    15fc: d0 db        	bne	$15d9 <_ZN12_GLOBAL__N_112print_stringEPKcP6Status+0x4a>
    15fe: a0 01        	ldy	#$1
    1600: b1 e7        	lda	($e7),y                 ; 0x20e7 <printf+0xa4c>
    1602: 29 01        	and	#$1
    1604: f0 03        	beq	$1609 <_ZN12_GLOBAL__N_112print_stringEPKcP6Status+0x7a>
    1606: 4c 61 16     	jmp	$1661 <_ZN12_GLOBAL__N_112print_stringEPKcP6Status+0xd2>
    1609: a5 e7        	lda	$e7                     ; 0x20e7 <printf+0xa4c>
    160b: 18           	clc
    160c: 69 0b        	adc	#$b
    160e: 85 14        	sta	$14                     ; 0x2014 <printf+0x979>
    1610: a5 e8        	lda	$e8                     ; 0x20e8 <printf+0xa4d>
    1612: 69 00        	adc	#$0
    1614: 85 15        	sta	$15                     ; 0x2015 <printf+0x97a>
    1616: a0 0b        	ldy	#$b
    1618: b1 e7        	lda	($e7),y                 ; 0x20e7 <printf+0xa4c>
    161a: 85 13        	sta	$13                     ; 0x2013 <printf+0x978>
    161c: a0 01        	ldy	#$1
    161e: b1 14        	lda	($14),y                 ; 0x2014 <printf+0x979>
    1620: 85 12        	sta	$12                     ; 0x2012 <printf+0x977>
    1622: a6 ec        	ldx	$ec                     ; 0x20ec <printf+0xa51>
    1624: e4 12        	cpx	$12                     ; 0x2012 <printf+0x977>
    1626: d0 08        	bne	$1630 <_ZN12_GLOBAL__N_112print_stringEPKcP6Status+0xa1>
    1628: a6 e9        	ldx	$e9                     ; 0x20e9 <printf+0xa4e>
    162a: e4 13        	cpx	$13                     ; 0x2013 <printf+0x978>
    162c: 90 06        	bcc	$1634 <_ZN12_GLOBAL__N_112print_stringEPKcP6Status+0xa5>
    162e: 80 31        	bra	$1661 <_ZN12_GLOBAL__N_112print_stringEPKcP6Status+0xd2>
    1630: e4 12        	cpx	$12                     ; 0x2012 <printf+0x977>
    1632: b0 2d        	bcs	$1661 <_ZN12_GLOBAL__N_112print_stringEPKcP6Status+0xd2>
    1634: 38           	sec
    1635: a5 e9        	lda	$e9                     ; 0x20e9 <printf+0xa4e>
    1637: e5 13        	sbc	$13                     ; 0x2013 <printf+0x978>
    1639: a8           	tay
    163a: a5 ec        	lda	$ec                     ; 0x20ec <printf+0xa51>
    163c: e5 12        	sbc	$12                     ; 0x2012 <printf+0x977>
    163e: 85 eb        	sta	$eb                     ; 0x20eb <printf+0xa50>
    1640: a6 e7        	ldx	$e7                     ; 0x20e7 <printf+0xa4c>
    1642: 86 12        	stx	$12                     ; 0x2012 <printf+0x977>
    1644: a6 e8        	ldx	$e8                     ; 0x20e8 <printf+0xa4d>
    1646: 86 13        	stx	$13                     ; 0x2013 <printf+0x978>
    1648: 84 ea        	sty	$ea                     ; 0x20ea <printf+0xa4f>
    164a: a9 20        	lda	#$20
    164c: 20 b4 14     	jsr	$14b4 <_ZN12_GLOBAL__N_13putEcP6Status>
    164f: a6 eb        	ldx	$eb                     ; 0x20eb <printf+0xa50>
    1651: e6 ea        	inc	$ea                     ; 0x20ea <printf+0xa4f>
    1653: d0 01        	bne	$1656 <_ZN12_GLOBAL__N_112print_stringEPKcP6Status+0xc7>
    1655: e8           	inx
    1656: 86 eb        	stx	$eb                     ; 0x20eb <printf+0xa50>
    1658: a4 ea        	ldy	$ea                     ; 0x20ea <printf+0xa4f>
    165a: 8a           	txa
    165b: d0 e3        	bne	$1640 <_ZN12_GLOBAL__N_112print_stringEPKcP6Status+0xb1>
    165d: a5 ea        	lda	$ea                     ; 0x20ea <printf+0xa4f>
    165f: d0 df        	bne	$1640 <_ZN12_GLOBAL__N_112print_stringEPKcP6Status+0xb1>
    1661: a4 ec        	ldy	$ec                     ; 0x20ec <printf+0xa51>
    1663: d0 04        	bne	$1669 <_ZN12_GLOBAL__N_112print_stringEPKcP6Status+0xda>
    1665: a5 e9        	lda	$e9                     ; 0x20e9 <printf+0xa4e>
    1667: f0 26        	beq	$168f <_ZN12_GLOBAL__N_112print_stringEPKcP6Status+0x100>
    1669: a2 ff        	ldx	#$ff
    166b: c6 e9        	dec	$e9                     ; 0x20e9 <printf+0xa4e>
    166d: e4 e9        	cpx	$e9                     ; 0x20e9 <printf+0xa4e>
    166f: d0 01        	bne	$1672 <_ZN12_GLOBAL__N_112print_stringEPKcP6Status+0xe3>
    1671: 88           	dey
    1672: 84 ea        	sty	$ea                     ; 0x20ea <printf+0xa4f>
    1674: b2 e5        	lda	($e5)                   ; 0x20e5 <printf+0xa4a>
    1676: e6 e5        	inc	$e5                     ; 0x20e5 <printf+0xa4a>
    1678: d0 02        	bne	$167c <_ZN12_GLOBAL__N_112print_stringEPKcP6Status+0xed>
    167a: e6 e6        	inc	$e6                     ; 0x20e6 <printf+0xa4b>
    167c: a6 e7        	ldx	$e7                     ; 0x20e7 <printf+0xa4c>
    167e: 86 12        	stx	$12                     ; 0x2012 <printf+0x977>
    1680: a6 e8        	ldx	$e8                     ; 0x20e8 <printf+0xa4d>
    1682: 86 13        	stx	$13                     ; 0x2013 <printf+0x978>
    1684: 20 b4 14     	jsr	$14b4 <_ZN12_GLOBAL__N_13putEcP6Status>
    1687: a4 ea        	ldy	$ea                     ; 0x20ea <printf+0xa4f>
    1689: d0 de        	bne	$1669 <_ZN12_GLOBAL__N_112print_stringEPKcP6Status+0xda>
    168b: a5 e9        	lda	$e9                     ; 0x20e9 <printf+0xa4e>
    168d: d0 da        	bne	$1669 <_ZN12_GLOBAL__N_112print_stringEPKcP6Status+0xda>
    168f: 60           	rts
    1690: a6 12        	ldx	$12                     ; 0x2012 <printf+0x977>
    1692: 86 e9        	stx	$e9                     ; 0x20e9 <printf+0xa4e>
    1694: a6 13        	ldx	$13                     ; 0x2013 <printf+0x978>
    1696: 86 ec        	stx	$ec                     ; 0x20ec <printf+0xa51>
    1698: 4c fe 15     	jmp	$15fe <_ZN12_GLOBAL__N_112print_stringEPKcP6Status+0x6f>

0000169b <printf>:
    169b: a6 24        	ldx	$24                     ; 0x2024 <printf+0x989>
    169d: da           	phx
    169e: a6 25        	ldx	$25                     ; 0x2025 <printf+0x98a>
    16a0: da           	phx
    16a1: a6 12        	ldx	$12                     ; 0x2012 <printf+0x977>
    16a3: 86 a2        	stx	$a2                     ; 0x20a2 <printf+0xa07>
    16a5: a6 13        	ldx	$13                     ; 0x2013 <printf+0x978>
    16a7: 86 a3        	stx	$a3                     ; 0x20a3 <printf+0xa08>
    16a9: 18           	clc
    16aa: a6 10        	ldx	$10                     ; 0x2010 <printf+0x975>
    16ac: a4 11        	ldy	$11                     ; 0x2011 <printf+0x976>
    16ae: 8e 6c 26     	stx	$266c                   ; 0x266c <__data_load_start+0x10>
    16b1: 8c 6d 26     	sty	$266d                   ; 0x266d <__data_load_start+0x11>
    16b4: ae 6c 26     	ldx	$266c                   ; 0x266c <__data_load_start+0x10>
    16b7: ac 6d 26     	ldy	$266d                   ; 0x266d <__data_load_start+0x11>
    16ba: 8e 6a 26     	stx	$266a                   ; 0x266a <__data_load_start+0xe>
    16bd: 8c 6b 26     	sty	$266b                   ; 0x266b <__data_load_start+0xf>
    16c0: a2 ff        	ldx	#$ff
    16c2: 86 cf        	stx	$cf                     ; 0x20cf <printf+0xa34>
    16c4: 86 d0        	stx	$d0                     ; 0x20d0 <printf+0xa35>
    16c6: 64 d1        	stz	$d1                     ; 0x20d1 <printf+0xa36>
    16c8: 64 d2        	stz	$d2                     ; 0x20d2 <printf+0xa37>
    16ca: e8           	inx
    16cb: 86 a4        	stx	$a4                     ; 0x20a4 <printf+0xa09>
    16cd: a2 00        	ldx	#$0
    16cf: 86 a5        	stx	$a5                     ; 0x20a5 <printf+0xa0a>
    16d1: a6 a4        	ldx	$a4                     ; 0x20a4 <printf+0xa09>
    16d3: a4 a5        	ldy	$a5                     ; 0x20a5 <printf+0xa0a>
    16d5: 86 d5        	stx	$d5                     ; 0x20d5 <printf+0xa3a>
    16d7: 84 d6        	sty	$d6                     ; 0x20d6 <printf+0xa3b>
    16d9: a2 02        	ldx	#$2
    16db: 86 db        	stx	$db                     ; 0x20db <printf+0xa40>
    16dd: 64 dc        	stz	$dc                     ; 0x20dc <printf+0xa41>
    16df: ae 6a 26     	ldx	$266a                   ; 0x266a <__data_load_start+0xe>
    16e2: ac 6b 26     	ldy	$266b                   ; 0x266b <__data_load_start+0xf>
    16e5: 86 dd        	stx	$dd                     ; 0x20dd <printf+0xa42>
    16e7: 84 de        	sty	$de                     ; 0x20de <printf+0xa43>
    16e9: a2 c3        	ldx	#$c3
    16eb: a0 00        	ldy	#$0
    16ed: 86 12        	stx	$12                     ; 0x2012 <printf+0x977>
    16ef: 84 13        	sty	$13                     ; 0x2013 <printf+0x978>
    16f1: a0 01        	ldy	#$1
    16f3: a9 ac        	lda	#$ac
    16f5: 18           	clc
    16f6: 69 02        	adc	#$2
    16f8: 8d 6e 26     	sta	$266e                   ; 0x266e <__data_load_start+0x12>
    16fb: a9 00        	lda	#$0
    16fd: 69 00        	adc	#$0
    16ff: 8d 6f 26     	sta	$266f                   ; 0x266f <__data_load_start+0x13>
    1702: e6 12        	inc	$12                     ; 0x2012 <printf+0x977>
    1704: d0 02        	bne	$1708 <printf+0x6d>
    1706: e6 13        	inc	$13                     ; 0x2013 <printf+0x978>
    1708: a6 12        	ldx	$12                     ; 0x2012 <printf+0x977>
    170a: 86 e1        	stx	$e1                     ; 0x20e1 <printf+0xa46>
    170c: a6 13        	ldx	$13                     ; 0x2013 <printf+0x978>
    170e: 86 e2        	stx	$e2                     ; 0x20e2 <printf+0xa47>
    1710: a6 a2        	ldx	$a2                     ; 0x20a2 <printf+0xa07>
    1712: 86 a6        	stx	$a6                     ; 0x20a6 <printf+0xa0b>
    1714: a6 a3        	ldx	$a3                     ; 0x20a3 <printf+0xa08>
    1716: 86 a7        	stx	$a7                     ; 0x20a7 <printf+0xa0c>
    1718: b2 a2        	lda	($a2)                   ; 0x20a2 <printf+0xa07>
    171a: c9 25        	cmp	#$25
    171c: f0 2b        	beq	$1749 <printf+0xae>
    171e: aa           	tax
    171f: d0 03        	bne	$1724 <printf+0x89>
    1721: 4c da 22     	jmp	$22da <printf+0xc3f>
    1724: 85 a0        	sta	$a0                     ; 0x20a0 <printf+0xa05>
    1726: a2 a0        	ldx	#$a0
    1728: 86 12        	stx	$12                     ; 0x2012 <printf+0x977>
    172a: a2 00        	ldx	#$0
    172c: 86 13        	stx	$13                     ; 0x2013 <printf+0x978>
    172e: 20 c8 12     	jsr	$12c8 <textPrint>
    1731: a0 01        	ldy	#$1
    1733: e6 a6        	inc	$a6                     ; 0x20a6 <printf+0xa0b>
    1735: d0 02        	bne	$1739 <printf+0x9e>
    1737: e6 a7        	inc	$a7                     ; 0x20a7 <printf+0xa0c>
    1739: e6 d1        	inc	$d1                     ; 0x20d1 <printf+0xa36>
    173b: d0 02        	bne	$173f <printf+0xa4>
    173d: e6 d2        	inc	$d2                     ; 0x20d2 <printf+0xa37>
    173f: a6 a6        	ldx	$a6                     ; 0x20a6 <printf+0xa0b>
    1741: 86 a2        	stx	$a2                     ; 0x20a2 <printf+0xa07>
    1743: a6 a7        	ldx	$a7                     ; 0x20a7 <printf+0xa0c>
    1745: 86 a3        	stx	$a3                     ; 0x20a3 <printf+0xa08>
    1747: 80 c7        	bra	$1710 <printf+0x75>
    1749: a6 a2        	ldx	$a2                     ; 0x20a2 <printf+0xa07>
    174b: 86 12        	stx	$12                     ; 0x2012 <printf+0x977>
    174d: a6 a3        	ldx	$a3                     ; 0x20a3 <printf+0xa08>
    174f: 86 13        	stx	$13                     ; 0x2013 <printf+0x978>
    1751: e6 12        	inc	$12                     ; 0x2012 <printf+0x977>
    1753: d0 02        	bne	$1757 <printf+0xbc>
    1755: e6 13        	inc	$13                     ; 0x2013 <printf+0x978>
    1757: b1 a6        	lda	($a6),y                 ; 0x20a6 <printf+0xa0b>
    1759: c9 25        	cmp	#$25
    175b: d0 16        	bne	$1773 <printf+0xd8>
    175d: a4 d1        	ldy	$d1                     ; 0x20d1 <printf+0xa36>
    175f: a5 d2        	lda	$d2                     ; 0x20d2 <printf+0xa37>
    1761: c5 d0        	cmp	$d0                     ; 0x20d0 <printf+0xa35>
    1763: f0 03        	beq	$1768 <printf+0xcd>
    1765: 4c 7a 18     	jmp	$187a <printf+0x1df>
    1768: a6 cf        	ldx	$cf                     ; 0x20cf <printf+0xa34>
    176a: 86 12        	stx	$12                     ; 0x2012 <printf+0x977>
    176c: 84 13        	sty	$13                     ; 0x2013 <printf+0x978>
    176e: c4 12        	cpy	$12                     ; 0x2012 <printf+0x977>
    1770: 4c 7e 18     	jmp	$187e <printf+0x1e3>
    1773: 64 cd        	stz	$cd                     ; 0x20cd <printf+0xa32>
    1775: 64 ce        	stz	$ce                     ; 0x20ce <printf+0xa33>
    1777: 64 cc        	stz	$cc                     ; 0x20cc <printf+0xa31>
    1779: 64 d7        	stz	$d7                     ; 0x20d7 <printf+0xa3c>
    177b: 64 d8        	stz	$d8                     ; 0x20d8 <printf+0xa3d>
    177d: a2 ff        	ldx	#$ff
    177f: 86 d9        	stx	$d9                     ; 0x20d9 <printf+0xa3e>
    1781: 86 da        	stx	$da                     ; 0x20da <printf+0xa3f>
    1783: 64 25        	stz	$25                     ; 0x2025 <printf+0x98a>
    1785: 80 33        	bra	$17ba <printf+0x11f>
    1787: a2 02        	ldx	#$2
    1789: 80 15        	bra	$17a0 <printf+0x105>
    178b: e0 20        	cpx	#$20
    178d: f0 15        	beq	$17a4 <printf+0x109>
    178f: 86 15        	stx	$15                     ; 0x2015 <printf+0x97a>
    1791: e0 23        	cpx	#$23
    1793: f0 03        	beq	$1798 <printf+0xfd>
    1795: 4c 17 18     	jmp	$1817 <printf+0x17c>
    1798: a5 25        	lda	$25                     ; 0x2025 <printf+0x98a>
    179a: a2 04        	ldx	#$4
    179c: 80 02        	bra	$17a0 <printf+0x105>
    179e: a2 10        	ldx	#$10
    17a0: 86 14        	stx	$14                     ; 0x2014 <printf+0x979>
    17a2: 80 06        	bra	$17aa <printf+0x10f>
    17a4: a2 08        	ldx	#$8
    17a6: 86 14        	stx	$14                     ; 0x2014 <printf+0x979>
    17a8: a5 25        	lda	$25                     ; 0x2025 <printf+0x98a>
    17aa: 05 14        	ora	$14                     ; 0x2014 <printf+0x979>
    17ac: 85 25        	sta	$25                     ; 0x2025 <printf+0x98a>
    17ae: 85 cd        	sta	$cd                     ; 0x20cd <printf+0xa32>
    17b0: a2 00        	ldx	#$0
    17b2: 86 ce        	stx	$ce                     ; 0x20ce <printf+0xa33>
    17b4: e6 12        	inc	$12                     ; 0x2012 <printf+0x977>
    17b6: d0 02        	bne	$17ba <printf+0x11f>
    17b8: e6 13        	inc	$13                     ; 0x2013 <printf+0x978>
    17ba: b2 12        	lda	($12)                   ; 0x2012 <printf+0x977>
    17bc: aa           	tax
    17bd: 18           	clc
    17be: 69 d6        	adc	#$d6
    17c0: c9 07        	cmp	#$7
    17c2: b0 c7        	bcs	$178b <printf+0xf0>
    17c4: 86 15        	stx	$15                     ; 0x2015 <printf+0x97a>
    17c6: 0a           	asl
    17c7: aa           	tax
    17c8: a0 01        	ldy	#$1
    17ca: 84 14        	sty	$14                     ; 0x2014 <printf+0x979>
    17cc: a5 25        	lda	$25                     ; 0x2025 <printf+0x98a>
    17ce: 7c 2e 23     	jmp	($232e,x)               ; 0x232e <__set_v+0x1>
    17d1: a5 dd        	lda	$dd                     ; 0x20dd <printf+0xa42>
    17d3: a6 de        	ldx	$de                     ; 0x20de <printf+0xa43>
    17d5: 85 16        	sta	$16                     ; 0x2016 <printf+0x97b>
    17d7: 86 17        	stx	$17                     ; 0x2017 <printf+0x97c>
    17d9: 18           	clc
    17da: 69 02        	adc	#$2
    17dc: a8           	tay
    17dd: 8a           	txa
    17de: 69 00        	adc	#$0
    17e0: 84 dd        	sty	$dd                     ; 0x20dd <printf+0xa42>
    17e2: 85 de        	sta	$de                     ; 0x20de <printf+0xa43>
    17e4: b2 16        	lda	($16)                   ; 0x2016 <printf+0x97b>
    17e6: 85 15        	sta	$15                     ; 0x2015 <printf+0x97a>
    17e8: a0 01        	ldy	#$1
    17ea: b1 16        	lda	($16),y                 ; 0x2016 <printf+0x97b>
    17ec: 85 14        	sta	$14                     ; 0x2014 <printf+0x979>
    17ee: 10 15        	bpl	$1805 <printf+0x16a>
    17f0: a5 25        	lda	$25                     ; 0x2025 <printf+0x98a>
    17f2: 09 01        	ora	#$1
    17f4: 85 25        	sta	$25                     ; 0x2025 <printf+0x98a>
    17f6: 85 cd        	sta	$cd                     ; 0x20cd <printf+0xa32>
    17f8: a2 00        	ldx	#$0
    17fa: 86 ce        	stx	$ce                     ; 0x20ce <printf+0xa33>
    17fc: 8a           	txa
    17fd: 38           	sec
    17fe: e5 15        	sbc	$15                     ; 0x2015 <printf+0x97a>
    1800: 85 15        	sta	$15                     ; 0x2015 <printf+0x97a>
    1802: 8a           	txa
    1803: e5 14        	sbc	$14                     ; 0x2014 <printf+0x979>
    1805: a6 15        	ldx	$15                     ; 0x2015 <printf+0x97a>
    1807: 86 d7        	stx	$d7                     ; 0x20d7 <printf+0xa3c>
    1809: 85 d8        	sta	$d8                     ; 0x20d8 <printf+0xa3d>
    180b: e6 12        	inc	$12                     ; 0x2012 <printf+0x977>
    180d: f0 03        	beq	$1812 <printf+0x177>
    180f: 4c d6 18     	jmp	$18d6 <printf+0x23b>
    1812: e6 13        	inc	$13                     ; 0x2013 <printf+0x978>
    1814: 4c d6 18     	jmp	$18d6 <printf+0x23b>
    1817: a5 15        	lda	$15                     ; 0x2015 <printf+0x97a>
    1819: 18           	clc
    181a: 69 d0        	adc	#$d0
    181c: c9 0a        	cmp	#$a
    181e: 90 03        	bcc	$1823 <printf+0x188>
    1820: 4c c8 18     	jmp	$18c8 <printf+0x22d>
    1823: a6 15        	ldx	$15                     ; 0x2015 <printf+0x97a>
    1825: 86 14        	stx	$14                     ; 0x2014 <printf+0x979>
    1827: 64 16        	stz	$16                     ; 0x2016 <printf+0x97b>
    1829: 64 15        	stz	$15                     ; 0x2015 <printf+0x97a>
    182b: 64 17        	stz	$17                     ; 0x2017 <printf+0x97c>
    182d: a0 01        	ldy	#$1
    182f: 06 16        	asl	$16                     ; 0x2016 <printf+0x97b>
    1831: 26 17        	rol	$17                     ; 0x2017 <printf+0x97c>
    1833: a5 16        	lda	$16                     ; 0x2016 <printf+0x97b>
    1835: 0a           	asl
    1836: aa           	tax
    1837: a5 17        	lda	$17                     ; 0x2017 <printf+0x97c>
    1839: 2a           	rol
    183a: 86 18        	stx	$18                     ; 0x2018 <printf+0x97d>
    183c: 06 18        	asl	$18                     ; 0x2018 <printf+0x97d>
    183e: 2a           	rol
    183f: aa           	tax
    1840: a5 18        	lda	$18                     ; 0x2018 <printf+0x97d>
    1842: 18           	clc
    1843: 65 16        	adc	$16                     ; 0x2016 <printf+0x97b>
    1845: 85 16        	sta	$16                     ; 0x2016 <printf+0x97b>
    1847: 8a           	txa
    1848: 65 17        	adc	$17                     ; 0x2017 <printf+0x97c>
    184a: 85 17        	sta	$17                     ; 0x2017 <printf+0x97c>
    184c: a5 16        	lda	$16                     ; 0x2016 <printf+0x97b>
    184e: 18           	clc
    184f: 65 14        	adc	$14                     ; 0x2014 <printf+0x979>
    1851: 85 14        	sta	$14                     ; 0x2014 <printf+0x979>
    1853: a5 17        	lda	$17                     ; 0x2017 <printf+0x97c>
    1855: 65 15        	adc	$15                     ; 0x2015 <printf+0x97a>
    1857: aa           	tax
    1858: 18           	clc
    1859: a5 14        	lda	$14                     ; 0x2014 <printf+0x979>
    185b: 69 d0        	adc	#$d0
    185d: 85 16        	sta	$16                     ; 0x2016 <printf+0x97b>
    185f: 8a           	txa
    1860: 69 ff        	adc	#$ff
    1862: 85 17        	sta	$17                     ; 0x2017 <printf+0x97c>
    1864: b1 12        	lda	($12),y                 ; 0x2012 <printf+0x977>
    1866: 85 14        	sta	$14                     ; 0x2014 <printf+0x979>
    1868: 18           	clc
    1869: 69 d0        	adc	#$d0
    186b: e6 12        	inc	$12                     ; 0x2012 <printf+0x977>
    186d: d0 02        	bne	$1871 <printf+0x1d6>
    186f: e6 13        	inc	$13                     ; 0x2013 <printf+0x978>
    1871: c9 0a        	cmp	#$a
    1873: 64 15        	stz	$15                     ; 0x2015 <printf+0x97a>
    1875: 90 b8        	bcc	$182f <printf+0x194>
    1877: 4c ce 18     	jmp	$18ce <printf+0x233>
    187a: 84 13        	sty	$13                     ; 0x2013 <printf+0x978>
    187c: c5 d0        	cmp	$d0                     ; 0x20d0 <printf+0xa35>
    187e: a0 01        	ldy	#$1
    1880: b0 30        	bcs	$18b2 <printf+0x217>
    1882: a6 dc        	ldx	$dc                     ; 0x20dc <printf+0xa41>
    1884: e4 a5        	cpx	$a5                     ; 0x20a5 <printf+0xa0a>
    1886: d0 19        	bne	$18a1 <printf+0x206>
    1888: a6 db        	ldx	$db                     ; 0x20db <printf+0xa40>
    188a: e4 a4        	cpx	$a4                     ; 0x20a4 <printf+0xa09>
    188c: d0 13        	bne	$18a1 <printf+0x206>
    188e: 18           	clc
    188f: aa           	tax
    1890: a5 13        	lda	$13                     ; 0x2013 <printf+0x978>
    1892: 65 d5        	adc	$d5                     ; 0x20d5 <printf+0xa3a>
    1894: 85 12        	sta	$12                     ; 0x2012 <printf+0x977>
    1896: 8a           	txa
    1897: 65 d6        	adc	$d6                     ; 0x20d6 <printf+0xa3b>
    1899: 85 13        	sta	$13                     ; 0x2013 <printf+0x978>
    189b: a9 25        	lda	#$25
    189d: 92 12        	sta	($12)                   ; 0x2012 <printf+0x977>
    189f: 80 11        	bra	$18b2 <printf+0x217>
    18a1: a2 25        	ldx	#$25
    18a3: 86 a0        	stx	$a0                     ; 0x20a0 <printf+0xa05>
    18a5: a2 a0        	ldx	#$a0
    18a7: 86 12        	stx	$12                     ; 0x2012 <printf+0x977>
    18a9: a2 00        	ldx	#$0
    18ab: 86 13        	stx	$13                     ; 0x2013 <printf+0x978>
    18ad: 20 c8 12     	jsr	$12c8 <textPrint>
    18b0: a0 01        	ldy	#$1
    18b2: e6 d1        	inc	$d1                     ; 0x20d1 <printf+0xa36>
    18b4: d0 02        	bne	$18b8 <printf+0x21d>
    18b6: e6 d2        	inc	$d2                     ; 0x20d2 <printf+0xa37>
    18b8: a5 a6        	lda	$a6                     ; 0x20a6 <printf+0xa0b>
    18ba: 18           	clc
    18bb: 69 02        	adc	#$2
    18bd: 85 a2        	sta	$a2                     ; 0x20a2 <printf+0xa07>
    18bf: a5 a7        	lda	$a7                     ; 0x20a7 <printf+0xa0c>
    18c1: 69 00        	adc	#$0
    18c3: 85 a3        	sta	$a3                     ; 0x20a3 <printf+0xa08>
    18c5: 4c 10 17     	jmp	$1710 <printf+0x75>
    18c8: 64 16        	stz	$16                     ; 0x2016 <printf+0x97b>
    18ca: 64 17        	stz	$17                     ; 0x2017 <printf+0x97c>
    18cc: a0 01        	ldy	#$1
    18ce: a6 16        	ldx	$16                     ; 0x2016 <printf+0x97b>
    18d0: 86 d7        	stx	$d7                     ; 0x20d7 <printf+0xa3c>
    18d2: a5 17        	lda	$17                     ; 0x2017 <printf+0x97c>
    18d4: 85 d8        	sta	$d8                     ; 0x20d8 <printf+0xa3d>
    18d6: 86 aa        	stx	$aa                     ; 0x20aa <printf+0xa0f>
    18d8: 85 a8        	sta	$a8                     ; 0x20a8 <printf+0xa0d>
    18da: b2 12        	lda	($12)                   ; 0x2012 <printf+0x977>
    18dc: a2 ff        	ldx	#$ff
    18de: c9 2e        	cmp	#$2e
    18e0: d0 39        	bne	$191b <printf+0x280>
    18e2: b1 12        	lda	($12),y                 ; 0x2012 <printf+0x977>
    18e4: c9 2a        	cmp	#$2a
    18e6: d0 38        	bne	$1920 <printf+0x285>
    18e8: a5 dd        	lda	$dd                     ; 0x20dd <printf+0xa42>
    18ea: a6 de        	ldx	$de                     ; 0x20de <printf+0xa43>
    18ec: 85 14        	sta	$14                     ; 0x2014 <printf+0x979>
    18ee: 86 15        	stx	$15                     ; 0x2015 <printf+0x97a>
    18f0: 18           	clc
    18f1: 69 02        	adc	#$2
    18f3: 85 16        	sta	$16                     ; 0x2016 <printf+0x97b>
    18f5: 8a           	txa
    18f6: 69 00        	adc	#$0
    18f8: a6 16        	ldx	$16                     ; 0x2016 <printf+0x97b>
    18fa: 86 dd        	stx	$dd                     ; 0x20dd <printf+0xa42>
    18fc: 85 de        	sta	$de                     ; 0x20de <printf+0xa43>
    18fe: a5 12        	lda	$12                     ; 0x2012 <printf+0x977>
    1900: 18           	clc
    1901: 69 02        	adc	#$2
    1903: 85 12        	sta	$12                     ; 0x2012 <printf+0x977>
    1905: a5 13        	lda	$13                     ; 0x2013 <printf+0x978>
    1907: 69 00        	adc	#$0
    1909: 85 13        	sta	$13                     ; 0x2013 <printf+0x978>
    190b: b2 14        	lda	($14)                   ; 0x2014 <printf+0x979>
    190d: aa           	tax
    190e: b1 14        	lda	($14),y                 ; 0x2014 <printf+0x979>
    1910: 86 18        	stx	$18                     ; 0x2018 <printf+0x97d>
    1912: 86 d9        	stx	$d9                     ; 0x20d9 <printf+0xa3e>
    1914: 85 19        	sta	$19                     ; 0x2019 <printf+0x97e>
    1916: 85 da        	sta	$da                     ; 0x20da <printf+0xa3f>
    1918: 4c cb 19     	jmp	$19cb <printf+0x330>
    191b: 86 18        	stx	$18                     ; 0x2018 <printf+0x97d>
    191d: 4c db 19     	jmp	$19db <printf+0x340>
    1920: 85 17        	sta	$17                     ; 0x2017 <printf+0x97c>
    1922: 18           	clc
    1923: 69 d0        	adc	#$d0
    1925: c9 0a        	cmp	#$a
    1927: 90 03        	bcc	$192c <printf+0x291>
    1929: 4c bd 19     	jmp	$19bd <printf+0x322>
    192c: 64 16        	stz	$16                     ; 0x2016 <printf+0x97b>
    192e: a2 01        	ldx	#$1
    1930: 64 18        	stz	$18                     ; 0x2018 <printf+0x97d>
    1932: 64 19        	stz	$19                     ; 0x2019 <printf+0x97e>
    1934: a0 01        	ldy	#$1
    1936: 64 1a        	stz	$1a                     ; 0x201a <printf+0x97f>
    1938: 5a           	phy
    1939: a4 1a        	ldy	$1a                     ; 0x201a <printf+0x97f>
    193b: 84 14        	sty	$14                     ; 0x2014 <printf+0x979>
    193d: 86 15        	stx	$15                     ; 0x2015 <printf+0x97a>
    193f: 06 18        	asl	$18                     ; 0x2018 <printf+0x97d>
    1941: 26 19        	rol	$19                     ; 0x2019 <printf+0x97e>
    1943: a5 18        	lda	$18                     ; 0x2018 <printf+0x97d>
    1945: 0a           	asl
    1946: 85 1d        	sta	$1d                     ; 0x201d <printf+0x982>
    1948: a5 19        	lda	$19                     ; 0x2019 <printf+0x97e>
    194a: 2a           	rol
    194b: 06 1d        	asl	$1d                     ; 0x201d <printf+0x982>
    194d: 2a           	rol
    194e: 85 1e        	sta	$1e                     ; 0x201e <printf+0x983>
    1950: a5 1d        	lda	$1d                     ; 0x201d <printf+0x982>
    1952: 18           	clc
    1953: 65 18        	adc	$18                     ; 0x2018 <printf+0x97d>
    1955: 85 18        	sta	$18                     ; 0x2018 <printf+0x97d>
    1957: a5 1e        	lda	$1e                     ; 0x201e <printf+0x983>
    1959: 65 19        	adc	$19                     ; 0x2019 <printf+0x97e>
    195b: 85 19        	sta	$19                     ; 0x2019 <printf+0x97e>
    195d: a5 18        	lda	$18                     ; 0x2018 <printf+0x97d>
    195f: 18           	clc
    1960: 65 17        	adc	$17                     ; 0x2017 <printf+0x97c>
    1962: 85 17        	sta	$17                     ; 0x2017 <printf+0x97c>
    1964: a5 19        	lda	$19                     ; 0x2019 <printf+0x97e>
    1966: 65 16        	adc	$16                     ; 0x2016 <printf+0x97b>
    1968: 85 16        	sta	$16                     ; 0x2016 <printf+0x97b>
    196a: 18           	clc
    196b: a5 17        	lda	$17                     ; 0x2017 <printf+0x97c>
    196d: 69 d0        	adc	#$d0
    196f: 85 18        	sta	$18                     ; 0x2018 <printf+0x97d>
    1971: a5 16        	lda	$16                     ; 0x2016 <printf+0x97b>
    1973: 69 ff        	adc	#$ff
    1975: 85 19        	sta	$19                     ; 0x2019 <printf+0x97e>
    1977: e8           	inx
    1978: d0 02        	bne	$197c <printf+0x2e1>
    197a: e6 1a        	inc	$1a                     ; 0x201a <printf+0x97f>
    197c: a5 12        	lda	$12                     ; 0x2012 <printf+0x977>
    197e: 18           	clc
    197f: 65 15        	adc	$15                     ; 0x2015 <printf+0x97a>
    1981: 85 1d        	sta	$1d                     ; 0x201d <printf+0x982>
    1983: a5 13        	lda	$13                     ; 0x2013 <printf+0x978>
    1985: 65 14        	adc	$14                     ; 0x2014 <printf+0x979>
    1987: a4 1d        	ldy	$1d                     ; 0x201d <printf+0x982>
    1989: 84 16        	sty	$16                     ; 0x2016 <printf+0x97b>
    198b: 7a           	ply
    198c: 85 17        	sta	$17                     ; 0x2017 <printf+0x97c>
    198e: b1 16        	lda	($16),y                 ; 0x2016 <printf+0x97b>
    1990: 85 17        	sta	$17                     ; 0x2017 <printf+0x97c>
    1992: 18           	clc
    1993: 69 d0        	adc	#$d0
    1995: c9 0a        	cmp	#$a
    1997: 64 16        	stz	$16                     ; 0x2016 <printf+0x97b>
    1999: b0 03        	bcs	$199e <printf+0x303>
    199b: 4c 38 19     	jmp	$1938 <printf+0x29d>
    199e: a5 12        	lda	$12                     ; 0x2012 <printf+0x977>
    19a0: 18           	clc
    19a1: 65 15        	adc	$15                     ; 0x2015 <printf+0x97a>
    19a3: 85 12        	sta	$12                     ; 0x2012 <printf+0x977>
    19a5: a5 13        	lda	$13                     ; 0x2013 <printf+0x978>
    19a7: 65 14        	adc	$14                     ; 0x2014 <printf+0x979>
    19a9: 85 13        	sta	$13                     ; 0x2013 <printf+0x978>
    19ab: e6 12        	inc	$12                     ; 0x2012 <printf+0x977>
    19ad: d0 02        	bne	$19b1 <printf+0x316>
    19af: e6 13        	inc	$13                     ; 0x2013 <printf+0x978>
    19b1: a6 18        	ldx	$18                     ; 0x2018 <printf+0x97d>
    19b3: 86 d9        	stx	$d9                     ; 0x20d9 <printf+0xa3e>
    19b5: a6 19        	ldx	$19                     ; 0x2019 <printf+0x97e>
    19b7: 86 da        	stx	$da                     ; 0x20da <printf+0xa3f>
    19b9: a0 01        	ldy	#$1
    19bb: 80 0e        	bra	$19cb <printf+0x330>
    19bd: e6 12        	inc	$12                     ; 0x2012 <printf+0x977>
    19bf: d0 02        	bne	$19c3 <printf+0x328>
    19c1: e6 13        	inc	$13                     ; 0x2013 <printf+0x978>
    19c3: 64 18        	stz	$18                     ; 0x2018 <printf+0x97d>
    19c5: 64 d9        	stz	$d9                     ; 0x20d9 <printf+0xa3e>
    19c7: 64 da        	stz	$da                     ; 0x20da <printf+0xa3f>
    19c9: 64 19        	stz	$19                     ; 0x2019 <printf+0x97e>
    19cb: a5 25        	lda	$25                     ; 0x2025 <printf+0x98a>
    19cd: 29 ef        	and	#$ef
    19cf: 85 25        	sta	$25                     ; 0x2025 <printf+0x98a>
    19d1: 85 cd        	sta	$cd                     ; 0x20cd <printf+0xa32>
    19d3: a2 00        	ldx	#$0
    19d5: 86 ce        	stx	$ce                     ; 0x20ce <printf+0xa33>
    19d7: b2 12        	lda	($12)                   ; 0x2012 <printf+0x977>
    19d9: a6 19        	ldx	$19                     ; 0x2019 <printf+0x97e>
    19db: 86 15        	stx	$15                     ; 0x2015 <printf+0x97a>
    19dd: a6 12        	ldx	$12                     ; 0x2012 <printf+0x977>
    19df: 86 a2        	stx	$a2                     ; 0x20a2 <printf+0xa07>
    19e1: a6 13        	ldx	$13                     ; 0x2013 <printf+0x978>
    19e3: 86 a3        	stx	$a3                     ; 0x20a3 <printf+0xa08>
    19e5: e6 a2        	inc	$a2                     ; 0x20a2 <printf+0xa07>
    19e7: d0 02        	bne	$19eb <printf+0x350>
    19e9: e6 a3        	inc	$a3                     ; 0x20a3 <printf+0xa08>
    19eb: 85 14        	sta	$14                     ; 0x2014 <printf+0x979>
    19ed: 38           	sec
    19ee: e9 6c        	sbc	#$6c
    19f0: 50 02        	bvc	$19f4 <printf+0x359>
    19f2: 49 80        	eor	#$80
    19f4: aa           	tax
    19f5: 10 1d        	bpl	$1a14 <printf+0x379>
    19f7: a5 14        	lda	$14                     ; 0x2014 <printf+0x979>
    19f9: c9 4c        	cmp	#$4c
    19fb: f0 27        	beq	$1a24 <printf+0x389>
    19fd: c9 68        	cmp	#$68
    19ff: d0 03        	bne	$1a04 <printf+0x369>
    1a01: 4c 8b 1a     	jmp	$1a8b <printf+0x3f0>
    1a04: a2 08        	ldx	#$8
    1a06: c9 6a        	cmp	#$6a
    1a08: d0 2e        	bne	$1a38 <printf+0x39d>
    1a0a: a5 a2        	lda	$a2                     ; 0x20a2 <printf+0xa07>
    1a0c: 85 12        	sta	$12                     ; 0x2012 <printf+0x977>
    1a0e: a5 a3        	lda	$a3                     ; 0x20a3 <printf+0xa08>
    1a10: 85 13        	sta	$13                     ; 0x2013 <printf+0x978>
    1a12: 80 43        	bra	$1a57 <printf+0x3bc>
    1a14: a6 14        	ldx	$14                     ; 0x2014 <printf+0x979>
    1a16: e0 6c        	cpx	#$6c
    1a18: f0 23        	beq	$1a3d <printf+0x3a2>
    1a1a: e0 74        	cpx	#$74
    1a1c: f0 12        	beq	$1a30 <printf+0x395>
    1a1e: e0 7a        	cpx	#$7a
    1a20: f0 0e        	beq	$1a30 <printf+0x395>
    1a22: 80 14        	bra	$1a38 <printf+0x39d>
    1a24: a5 25        	lda	$25                     ; 0x2025 <printf+0x98a>
    1a26: 09 40        	ora	#$40
    1a28: 85 25        	sta	$25                     ; 0x2025 <printf+0x98a>
    1a2a: 85 cd        	sta	$cd                     ; 0x20cd <printf+0xa32>
    1a2c: a2 00        	ldx	#$0
    1a2e: 86 ce        	stx	$ce                     ; 0x20ce <printf+0xa33>
    1a30: a6 a2        	ldx	$a2                     ; 0x20a2 <printf+0xa07>
    1a32: 86 12        	stx	$12                     ; 0x2012 <printf+0x977>
    1a34: a6 a3        	ldx	$a3                     ; 0x20a3 <printf+0xa08>
    1a36: 86 13        	stx	$13                     ; 0x2013 <printf+0x978>
    1a38: a2 02        	ldx	#$2
    1a3a: 8a           	txa
    1a3b: 80 1c        	bra	$1a59 <printf+0x3be>
    1a3d: b1 12        	lda	($12),y                 ; 0x2012 <printf+0x977>
    1a3f: a2 04        	ldx	#$4
    1a41: c9 6c        	cmp	#$6c
    1a43: f0 03        	beq	$1a48 <printf+0x3ad>
    1a45: 4c 9c 1d     	jmp	$1d9c <printf+0x701>
    1a48: a5 12        	lda	$12                     ; 0x2012 <printf+0x977>
    1a4a: 18           	clc
    1a4b: 69 02        	adc	#$2
    1a4d: 85 12        	sta	$12                     ; 0x2012 <printf+0x977>
    1a4f: a5 13        	lda	$13                     ; 0x2013 <printf+0x978>
    1a51: 69 00        	adc	#$0
    1a53: 85 13        	sta	$13                     ; 0x2013 <printf+0x978>
    1a55: a2 08        	ldx	#$8
    1a57: a9 08        	lda	#$8
    1a59: 85 e0        	sta	$e0                     ; 0x20e0 <printf+0xa45>
    1a5b: b2 12        	lda	($12)                   ; 0x2012 <printf+0x977>
    1a5d: 5a           	phy
    1a5e: a4 12        	ldy	$12                     ; 0x2012 <printf+0x977>
    1a60: 84 a2        	sty	$a2                     ; 0x20a2 <printf+0xa07>
    1a62: a4 13        	ldy	$13                     ; 0x2013 <printf+0x978>
    1a64: 84 a3        	sty	$a3                     ; 0x20a3 <printf+0xa08>
    1a66: 7a           	ply
    1a67: 86 a4        	stx	$a4                     ; 0x20a4 <printf+0xa09>
    1a69: aa           	tax
    1a6a: 18           	clc
    1a6b: 69 9d        	adc	#$9d
    1a6d: c9 16        	cmp	#$16
    1a6f: b0 39        	bcs	$1aaa <printf+0x40f>
    1a71: 0a           	asl
    1a72: aa           	tax
    1a73: 7c 3c 23     	jmp	($233c,x)               ; 0x233c <__set_v+0xf>
    1a76: a6 15        	ldx	$15                     ; 0x2015 <printf+0x97a>
    1a78: 86 e3        	stx	$e3                     ; 0x20e3 <printf+0xa48>
    1a7a: a6 18        	ldx	$18                     ; 0x2018 <printf+0x97d>
    1a7c: 86 e4        	stx	$e4                     ; 0x20e4 <printf+0xa49>
    1a7e: a0 0a        	ldy	#$a
    1a80: a2 0a        	ldx	#$a
    1a82: 86 df        	stx	$df                     ; 0x20df <printf+0xa44>
    1a84: 84 cc        	sty	$cc                     ; 0x20cc <printf+0xa31>
    1a86: 64 ab        	stz	$ab                     ; 0x20ab <printf+0xa10>
    1a88: 4c ac 1b     	jmp	$1bac <printf+0x511>
    1a8b: b1 12        	lda	($12),y                 ; 0x2012 <printf+0x977>
    1a8d: a2 02        	ldx	#$2
    1a8f: c9 68        	cmp	#$68
    1a91: f0 03        	beq	$1a96 <printf+0x3fb>
    1a93: 4c a2 1d     	jmp	$1da2 <printf+0x707>
    1a96: a5 12        	lda	$12                     ; 0x2012 <printf+0x977>
    1a98: 18           	clc
    1a99: 69 02        	adc	#$2
    1a9b: 85 12        	sta	$12                     ; 0x2012 <printf+0x977>
    1a9d: a5 13        	lda	$13                     ; 0x2013 <printf+0x978>
    1a9f: 69 00        	adc	#$0
    1aa1: 85 13        	sta	$13                     ; 0x2013 <printf+0x978>
    1aa3: a2 01        	ldx	#$1
    1aa5: 86 e0        	stx	$e0                     ; 0x20e0 <printf+0xa45>
    1aa7: e8           	inx
    1aa8: 80 b1        	bra	$1a5b <printf+0x3c0>
    1aaa: e0 58        	cpx	#$58
    1aac: f0 03        	beq	$1ab1 <printf+0x416>
    1aae: 4c 96 22     	jmp	$2296 <printf+0xbfb>
    1ab1: a6 15        	ldx	$15                     ; 0x2015 <printf+0x97a>
    1ab3: 86 e3        	stx	$e3                     ; 0x20e3 <printf+0xa48>
    1ab5: a6 18        	ldx	$18                     ; 0x2018 <printf+0x97d>
    1ab7: 86 e4        	stx	$e4                     ; 0x20e4 <printf+0xa49>
    1ab9: a2 10        	ldx	#$10
    1abb: 86 cc        	stx	$cc                     ; 0x20cc <printf+0xa31>
    1abd: a9 00        	lda	#$0
    1abf: 09 01        	ora	#$1
    1ac1: a6 25        	ldx	$25                     ; 0x2025 <printf+0x98a>
    1ac3: 80 29        	bra	$1aee <printf+0x453>
    1ac5: a6 15        	ldx	$15                     ; 0x2015 <printf+0x97a>
    1ac7: 86 e3        	stx	$e3                     ; 0x20e3 <printf+0xa48>
    1ac9: a6 18        	ldx	$18                     ; 0x2018 <printf+0x97d>
    1acb: 86 e4        	stx	$e4                     ; 0x20e4 <printf+0xa49>
    1acd: a2 10        	ldx	#$10
    1acf: 86 cc        	stx	$cc                     ; 0x20cc <printf+0xa31>
    1ad1: a5 25        	lda	$25                     ; 0x2025 <printf+0x98a>
    1ad3: 09 84        	ora	#$84
    1ad5: 80 10        	bra	$1ae7 <printf+0x44c>
    1ad7: a6 15        	ldx	$15                     ; 0x2015 <printf+0x97a>
    1ad9: 86 e3        	stx	$e3                     ; 0x20e3 <printf+0xa48>
    1adb: a6 18        	ldx	$18                     ; 0x2018 <printf+0x97d>
    1add: 86 e4        	stx	$e4                     ; 0x20e4 <printf+0xa49>
    1adf: a2 10        	ldx	#$10
    1ae1: 86 cc        	stx	$cc                     ; 0x20cc <printf+0xa31>
    1ae3: a5 25        	lda	$25                     ; 0x2025 <printf+0x98a>
    1ae5: 09 80        	ora	#$80
    1ae7: aa           	tax
    1ae8: a9 00        	lda	#$0
    1aea: 09 01        	ora	#$1
    1aec: 86 25        	stx	$25                     ; 0x2025 <printf+0x98a>
    1aee: 86 cd        	stx	$cd                     ; 0x20cd <printf+0xa32>
    1af0: 85 ab        	sta	$ab                     ; 0x20ab <printf+0xa10>
    1af2: 85 ce        	sta	$ce                     ; 0x20ce <printf+0xa33>
    1af4: a2 10        	ldx	#$10
    1af6: 86 df        	stx	$df                     ; 0x20df <printf+0xa44>
    1af8: 4c ac 1b     	jmp	$1bac <printf+0x511>
    1afb: a5 dd        	lda	$dd                     ; 0x20dd <printf+0xa42>
    1afd: a6 de        	ldx	$de                     ; 0x20de <printf+0xa43>
    1aff: 85 12        	sta	$12                     ; 0x2012 <printf+0x977>
    1b01: 86 13        	stx	$13                     ; 0x2013 <printf+0x978>
    1b03: 18           	clc
    1b04: 69 02        	adc	#$2
    1b06: 85 14        	sta	$14                     ; 0x2014 <printf+0x979>
    1b08: 8a           	txa
    1b09: 69 00        	adc	#$0
    1b0b: a6 14        	ldx	$14                     ; 0x2014 <printf+0x979>
    1b0d: 86 dd        	stx	$dd                     ; 0x20dd <printf+0xa42>
    1b0f: 85 de        	sta	$de                     ; 0x20de <printf+0xa43>
    1b11: b2 12        	lda	($12)                   ; 0x2012 <printf+0x977>
    1b13: aa           	tax
    1b14: b1 12        	lda	($12),y                 ; 0x2012 <printf+0x977>
    1b16: 86 12        	stx	$12                     ; 0x2012 <printf+0x977>
    1b18: 85 13        	sta	$13                     ; 0x2013 <printf+0x978>
    1b1a: a5 d1        	lda	$d1                     ; 0x20d1 <printf+0xa36>
    1b1c: a6 d2        	ldx	$d2                     ; 0x20d2 <printf+0xa37>
    1b1e: 92 12        	sta	($12)                   ; 0x2012 <printf+0x977>
    1b20: 8a           	txa
    1b21: 91 12        	sta	($12),y                 ; 0x2012 <printf+0x977>
    1b23: 4c 85 1b     	jmp	$1b85 <printf+0x4ea>
    1b26: a5 dd        	lda	$dd                     ; 0x20dd <printf+0xa42>
    1b28: a6 de        	ldx	$de                     ; 0x20de <printf+0xa43>
    1b2a: 85 12        	sta	$12                     ; 0x2012 <printf+0x977>
    1b2c: 86 13        	stx	$13                     ; 0x2013 <printf+0x978>
    1b2e: 18           	clc
    1b2f: 69 02        	adc	#$2
    1b31: 85 14        	sta	$14                     ; 0x2014 <printf+0x979>
    1b33: 8a           	txa
    1b34: 69 00        	adc	#$0
    1b36: a6 14        	ldx	$14                     ; 0x2014 <printf+0x979>
    1b38: 86 dd        	stx	$dd                     ; 0x20dd <printf+0xa42>
    1b3a: 85 de        	sta	$de                     ; 0x20de <printf+0xa43>
    1b3c: b2 12        	lda	($12)                   ; 0x2012 <printf+0x977>
    1b3e: aa           	tax
    1b3f: b1 12        	lda	($12),y                 ; 0x2012 <printf+0x977>
    1b41: 86 12        	stx	$12                     ; 0x2012 <printf+0x977>
    1b43: 85 13        	sta	$13                     ; 0x2013 <printf+0x978>
    1b45: 80 31        	bra	$1b78 <printf+0x4dd>
    1b47: a6 15        	ldx	$15                     ; 0x2015 <printf+0x97a>
    1b49: 86 e3        	stx	$e3                     ; 0x20e3 <printf+0xa48>
    1b4b: a6 18        	ldx	$18                     ; 0x2018 <printf+0x97d>
    1b4d: 86 e4        	stx	$e4                     ; 0x20e4 <printf+0xa49>
    1b4f: a0 08        	ldy	#$8
    1b51: a2 08        	ldx	#$8
    1b53: 80 47        	bra	$1b9c <printf+0x501>
    1b55: a5 dd        	lda	$dd                     ; 0x20dd <printf+0xa42>
    1b57: a6 de        	ldx	$de                     ; 0x20de <printf+0xa43>
    1b59: 85 12        	sta	$12                     ; 0x2012 <printf+0x977>
    1b5b: 86 13        	stx	$13                     ; 0x2013 <printf+0x978>
    1b5d: 18           	clc
    1b5e: 69 02        	adc	#$2
    1b60: a8           	tay
    1b61: 8a           	txa
    1b62: 69 00        	adc	#$0
    1b64: 84 dd        	sty	$dd                     ; 0x20dd <printf+0xa42>
    1b66: 85 de        	sta	$de                     ; 0x20de <printf+0xa43>
    1b68: b2 12        	lda	($12)                   ; 0x2012 <printf+0x977>
    1b6a: 8d 68 26     	sta	$2668                   ; 0x2668 <__data_load_start+0xc>
    1b6d: 9c 69 26     	stz	$2669                   ; 0x2669 <__data_load_start+0xd>
    1b70: a2 68        	ldx	#$68
    1b72: 86 12        	stx	$12                     ; 0x2012 <printf+0x977>
    1b74: a2 26        	ldx	#$26
    1b76: 86 13        	stx	$13                     ; 0x2013 <printf+0x978>
    1b78: a2 cc        	ldx	#$cc
    1b7a: 86 14        	stx	$14                     ; 0x2014 <printf+0x979>
    1b7c: a2 00        	ldx	#$0
    1b7e: 86 15        	stx	$15                     ; 0x2015 <printf+0x97a>
    1b80: 20 8f 15     	jsr	$158f <_ZN12_GLOBAL__N_112print_stringEPKcP6Status>
    1b83: a0 01        	ldy	#$1
    1b85: a2 00        	ldx	#$0
    1b87: 86 a4        	stx	$a4                     ; 0x20a4 <printf+0xa09>
    1b89: a2 00        	ldx	#$0
    1b8b: 86 a5        	stx	$a5                     ; 0x20a5 <printf+0xa0a>
    1b8d: 4c 7e 22     	jmp	$227e <printf+0xbe3>
    1b90: a6 15        	ldx	$15                     ; 0x2015 <printf+0x97a>
    1b92: 86 e3        	stx	$e3                     ; 0x20e3 <printf+0xa48>
    1b94: a6 18        	ldx	$18                     ; 0x2018 <printf+0x97d>
    1b96: 86 e4        	stx	$e4                     ; 0x20e4 <printf+0xa49>
    1b98: a0 0a        	ldy	#$a
    1b9a: a2 0a        	ldx	#$a
    1b9c: 86 df        	stx	$df                     ; 0x20df <printf+0xa44>
    1b9e: 84 cc        	sty	$cc                     ; 0x20cc <printf+0xa31>
    1ba0: a9 00        	lda	#$0
    1ba2: 09 01        	ora	#$1
    1ba4: a6 25        	ldx	$25                     ; 0x2025 <printf+0x98a>
    1ba6: 86 cd        	stx	$cd                     ; 0x20cd <printf+0xa32>
    1ba8: 85 ab        	sta	$ab                     ; 0x20ab <printf+0xa10>
    1baa: 85 ce        	sta	$ce                     ; 0x20ce <printf+0xa33>
    1bac: a5 e0        	lda	$e0                     ; 0x20e0 <printf+0xa45>
    1bae: 85 c3        	sta	$c3                     ; 0x20c3 <printf+0xa28>
    1bb0: a4 dd        	ldy	$dd                     ; 0x20dd <printf+0xa42>
    1bb2: a6 de        	ldx	$de                     ; 0x20de <printf+0xa43>
    1bb4: 86 a9        	stx	$a9                     ; 0x20a9 <printf+0xa0e>
    1bb6: 84 14        	sty	$14                     ; 0x2014 <printf+0x979>
    1bb8: 84 24        	sty	$24                     ; 0x2024 <printf+0x989>
    1bba: 86 15        	stx	$15                     ; 0x2015 <printf+0x97a>
    1bbc: a6 e1        	ldx	$e1                     ; 0x20e1 <printf+0xa46>
    1bbe: 86 12        	stx	$12                     ; 0x2012 <printf+0x977>
    1bc0: a6 e2        	ldx	$e2                     ; 0x20e2 <printf+0xa47>
    1bc2: 86 13        	stx	$13                     ; 0x2013 <printf+0x978>
    1bc4: a2 00        	ldx	#$0
    1bc6: 85 a5        	sta	$a5                     ; 0x20a5 <printf+0xa0a>
    1bc8: 20 e1 22     	jsr	$22e1 <memcpy>
    1bcb: 18           	clc
    1bcc: a5 24        	lda	$24                     ; 0x2024 <printf+0x989>
    1bce: 65 a4        	adc	$a4                     ; 0x20a4 <printf+0xa09>
    1bd0: aa           	tax
    1bd1: a5 a9        	lda	$a9                     ; 0x20a9 <printf+0xa0e>
    1bd3: 69 00        	adc	#$0
    1bd5: 86 dd        	stx	$dd                     ; 0x20dd <printf+0xa42>
    1bd7: 85 de        	sta	$de                     ; 0x20de <printf+0xa43>
    1bd9: a5 ab        	lda	$ab                     ; 0x20ab <printf+0xa10>
    1bdb: 29 01        	and	#$1
    1bdd: b8           	clv
    1bde: f0 03        	beq	$1be3 <printf+0x548>
    1be0: 4c 37 1c     	jmp	$1c37 <printf+0x59c>
    1be3: a6 a5        	ldx	$a5                     ; 0x20a5 <printf+0xa0a>
    1be5: b5 c3        	lda	$c3,x                   ; 0x20c3 <printf+0xa28>
    1be7: aa           	tax
    1be8: a0 01        	ldy	#$1
    1bea: a5 a8        	lda	$a8                     ; 0x20a8 <printf+0xa0d>
    1bec: 85 1a        	sta	$1a                     ; 0x201a <printf+0x97f>
    1bee: a5 e4        	lda	$e4                     ; 0x20e4 <printf+0xa49>
    1bf0: 85 a8        	sta	$a8                     ; 0x20a8 <printf+0xa0d>
    1bf2: a9 00        	lda	#$0
    1bf4: 85 a4        	sta	$a4                     ; 0x20a4 <printf+0xa09>
    1bf6: a9 00        	lda	#$0
    1bf8: 85 a5        	sta	$a5                     ; 0x20a5 <printf+0xa0a>
    1bfa: a5 e3        	lda	$e3                     ; 0x20e3 <printf+0xa48>
    1bfc: 85 a9        	sta	$a9                     ; 0x20a9 <printf+0xa0e>
    1bfe: 8a           	txa
    1bff: 10 4c        	bpl	$1c4d <printf+0x5b2>
    1c01: a2 00        	ldx	#$0
    1c03: 64 12        	stz	$12                     ; 0x2012 <printf+0x977>
    1c05: a9 00        	lda	#$0
    1c07: 38           	sec
    1c08: f5 c4        	sbc	$c4,x                   ; 0x20c4 <printf+0xa29>
    1c0a: a0 00        	ldy	#$0
    1c0c: b0 02        	bcs	$1c10 <printf+0x575>
    1c0e: a0 01        	ldy	#$1
    1c10: 38           	sec
    1c11: e5 12        	sbc	$12                     ; 0x2012 <printf+0x977>
    1c13: 85 13        	sta	$13                     ; 0x2013 <printf+0x978>
    1c15: 64 12        	stz	$12                     ; 0x2012 <printf+0x977>
    1c17: b0 04        	bcs	$1c1d <printf+0x582>
    1c19: a9 01        	lda	#$1
    1c1b: 85 12        	sta	$12                     ; 0x2012 <printf+0x977>
    1c1d: 98           	tya
    1c1e: 05 12        	ora	$12                     ; 0x2012 <printf+0x977>
    1c20: 85 12        	sta	$12                     ; 0x2012 <printf+0x977>
    1c22: a5 13        	lda	$13                     ; 0x2013 <printf+0x978>
    1c24: 9d c4 00     	sta	$c4,x                   ; 0xc4 <__zp_data_size+0x5d>
    1c27: e8           	inx
    1c28: 86 13        	stx	$13                     ; 0x2013 <printf+0x978>
    1c2a: a4 e0        	ldy	$e0                     ; 0x20e0 <printf+0xa45>
    1c2c: c4 13        	cpy	$13                     ; 0x2013 <printf+0x978>
    1c2e: d0 d5        	bne	$1c05 <printf+0x56a>
    1c30: 2c 2d 23     	bit	$232d                   ; 0x232d <__set_v>
    1c33: a0 01        	ldy	#$1
    1c35: 80 16        	bra	$1c4d <printf+0x5b2>
    1c37: a0 01        	ldy	#$1
    1c39: a6 a8        	ldx	$a8                     ; 0x20a8 <printf+0xa0d>
    1c3b: 86 1a        	stx	$1a                     ; 0x201a <printf+0x97f>
    1c3d: a6 e4        	ldx	$e4                     ; 0x20e4 <printf+0xa49>
    1c3f: 86 a8        	stx	$a8                     ; 0x20a8 <printf+0xa0d>
    1c41: a2 00        	ldx	#$0
    1c43: 86 a4        	stx	$a4                     ; 0x20a4 <printf+0xa09>
    1c45: a2 00        	ldx	#$0
    1c47: 86 a5        	stx	$a5                     ; 0x20a5 <printf+0xa0a>
    1c49: a6 e3        	ldx	$e3                     ; 0x20e3 <printf+0xa48>
    1c4b: 86 a9        	stx	$a9                     ; 0x20a9 <printf+0xa0e>
    1c4d: a2 01        	ldx	#$1
    1c4f: 70 02        	bvs	$1c53 <printf+0x5b8>
    1c51: a2 00        	ldx	#$0
    1c53: 86 16        	stx	$16                     ; 0x2016 <printf+0x97b>
    1c55: a5 e0        	lda	$e0                     ; 0x20e0 <printf+0xa45>
    1c57: 0a           	asl
    1c58: 0a           	asl
    1c59: 0a           	asl
    1c5a: 85 12        	sta	$12                     ; 0x2012 <printf+0x977>
    1c5c: a2 00        	ldx	#$0
    1c5e: 8a           	txa
    1c5f: e0 00        	cpx	#$0
    1c61: d0 03        	bne	$1c66 <printf+0x5cb>
    1c63: 4c eb 1c     	jmp	$1ceb <printf+0x650>
    1c66: 85 17        	sta	$17                     ; 0x2017 <printf+0x97c>
    1c68: 86 24        	stx	$24                     ; 0x2024 <printf+0x989>
    1c6a: ca           	dex
    1c6b: 86 15        	stx	$15                     ; 0x2015 <printf+0x97a>
    1c6d: a2 00        	ldx	#$0
    1c6f: 64 13        	stz	$13                     ; 0x2013 <printf+0x978>
    1c71: 80 0d        	bra	$1c80 <printf+0x5e5>
    1c73: a4 13        	ldy	$13                     ; 0x2013 <printf+0x978>
    1c75: 99 ae 00     	sta	$ae,y                   ; 0xae <__zp_data_size+0x47>
    1c78: a4 15        	ldy	$15                     ; 0x2015 <printf+0x97a>
    1c7a: c4 13        	cpy	$13                     ; 0x2013 <printf+0x978>
    1c7c: f0 38        	beq	$1cb6 <printf+0x61b>
    1c7e: e6 13        	inc	$13                     ; 0x2013 <printf+0x978>
    1c80: a4 13        	ldy	$13                     ; 0x2013 <printf+0x978>
    1c82: b9 ae 00     	lda	$ae,y                   ; 0xae <__zp_data_size+0x47>
    1c85: 0a           	asl
    1c86: e0 00        	cpx	#$0
    1c88: f0 02        	beq	$1c8c <printf+0x5f1>
    1c8a: 09 01        	ora	#$1
    1c8c: a4 df        	ldy	$df                     ; 0x20df <printf+0xa44>
    1c8e: 84 14        	sty	$14                     ; 0x2014 <printf+0x979>
    1c90: c5 14        	cmp	$14                     ; 0x2014 <printf+0x979>
    1c92: a2 01        	ldx	#$1
    1c94: b0 02        	bcs	$1c98 <printf+0x5fd>
    1c96: a2 00        	ldx	#$0
    1c98: 90 d9        	bcc	$1c73 <printf+0x5d8>
    1c9a: 84 14        	sty	$14                     ; 0x2014 <printf+0x979>
    1c9c: 38           	sec
    1c9d: e5 14        	sbc	$14                     ; 0x2014 <printf+0x979>
    1c9f: a4 13        	ldy	$13                     ; 0x2013 <printf+0x978>
    1ca1: 99 ae 00     	sta	$ae,y                   ; 0xae <__zp_data_size+0x47>
    1ca4: a4 15        	ldy	$15                     ; 0x2015 <printf+0x97a>
    1ca6: c4 13        	cpy	$13                     ; 0x2013 <printf+0x978>
    1ca8: d0 d4        	bne	$1c7e <printf+0x5e3>
    1caa: a4 24        	ldy	$24                     ; 0x2024 <printf+0x989>
    1cac: a6 24        	ldx	$24                     ; 0x2024 <printf+0x989>
    1cae: e8           	inx
    1caf: a9 01        	lda	#$1
    1cb1: 99 ae 00     	sta	$ae,y                   ; 0xae <__zp_data_size+0x47>
    1cb4: 86 24        	stx	$24                     ; 0x2024 <printf+0x989>
    1cb6: a6 e0        	ldx	$e0                     ; 0x20e0 <printf+0xa45>
    1cb8: b5 c3        	lda	$c3,x                   ; 0x20c3 <printf+0xa28>
    1cba: aa           	tax
    1cbb: a0 01        	ldy	#$1
    1cbd: 8a           	txa
    1cbe: 10 47        	bpl	$1d07 <printf+0x66c>
    1cc0: a5 24        	lda	$24                     ; 0x2024 <printf+0x989>
    1cc2: f0 34        	beq	$1cf8 <printf+0x65d>
    1cc4: a2 00        	ldx	#$0
    1cc6: a4 df        	ldy	$df                     ; 0x20df <printf+0xa44>
    1cc8: 84 14        	sty	$14                     ; 0x2014 <printf+0x979>
    1cca: b5 ae        	lda	$ae,x                   ; 0x20ae <printf+0xa13>
    1ccc: 1a           	inc
    1ccd: f6 ae        	inc	$ae,x                   ; 0x20ae <printf+0xa13>
    1ccf: c5 14        	cmp	$14                     ; 0x2014 <printf+0x979>
    1cd1: b0 03        	bcs	$1cd6 <printf+0x63b>
    1cd3: 4c 32 1d     	jmp	$1d32 <printf+0x697>
    1cd6: a4 14        	ldy	$14                     ; 0x2014 <printf+0x979>
    1cd8: 84 13        	sty	$13                     ; 0x2013 <printf+0x978>
    1cda: 38           	sec
    1cdb: e5 13        	sbc	$13                     ; 0x2013 <printf+0x978>
    1cdd: 9d ae 00     	sta	$ae,x                   ; 0xae <__zp_data_size+0x47>
    1ce0: e8           	inx
    1ce1: 86 13        	stx	$13                     ; 0x2013 <printf+0x978>
    1ce3: a4 24        	ldy	$24                     ; 0x2024 <printf+0x989>
    1ce5: c4 13        	cpy	$13                     ; 0x2013 <printf+0x978>
    1ce7: d0 e1        	bne	$1cca <printf+0x62f>
    1ce9: 80 0f        	bra	$1cfa <printf+0x65f>
    1ceb: 85 17        	sta	$17                     ; 0x2017 <printf+0x97c>
    1ced: a6 e0        	ldx	$e0                     ; 0x20e0 <printf+0xa45>
    1cef: b5 c3        	lda	$c3,x                   ; 0x20c3 <printf+0xa28>
    1cf1: aa           	tax
    1cf2: 64 24        	stz	$24                     ; 0x2024 <printf+0x989>
    1cf4: 30 04        	bmi	$1cfa <printf+0x65f>
    1cf6: 80 0f        	bra	$1d07 <printf+0x66c>
    1cf8: 64 24        	stz	$24                     ; 0x2024 <printf+0x989>
    1cfa: a4 24        	ldy	$24                     ; 0x2024 <printf+0x989>
    1cfc: a6 24        	ldx	$24                     ; 0x2024 <printf+0x989>
    1cfe: e8           	inx
    1cff: a9 01        	lda	#$1
    1d01: 99 ae 00     	sta	$ae,y                   ; 0xae <__zp_data_size+0x47>
    1d04: a8           	tay
    1d05: 86 24        	stx	$24                     ; 0x2024 <printf+0x989>
    1d07: a2 01        	ldx	#$1
    1d09: 64 13        	stz	$13                     ; 0x2013 <printf+0x978>
    1d0b: a5 e0        	lda	$e0                     ; 0x20e0 <printf+0xa45>
    1d0d: 85 14        	sta	$14                     ; 0x2014 <printf+0x979>
    1d0f: b5 c3        	lda	$c3,x                   ; 0x20c3 <printf+0xa28>
    1d11: 0a           	asl
    1d12: 64 15        	stz	$15                     ; 0x2015 <printf+0x97a>
    1d14: 26 15        	rol	$15                     ; 0x2015 <printf+0x97a>
    1d16: 05 13        	ora	$13                     ; 0x2013 <printf+0x978>
    1d18: 9d c3 00     	sta	$c3,x                   ; 0xc3 <__zp_data_size+0x5c>
    1d1b: e8           	inx
    1d1c: c6 14        	dec	$14                     ; 0x2014 <printf+0x979>
    1d1e: a5 15        	lda	$15                     ; 0x2015 <printf+0x97a>
    1d20: 85 13        	sta	$13                     ; 0x2013 <printf+0x978>
    1d22: a5 14        	lda	$14                     ; 0x2014 <printf+0x979>
    1d24: d0 e9        	bne	$1d0f <printf+0x674>
    1d26: a5 17        	lda	$17                     ; 0x2017 <printf+0x97c>
    1d28: 1a           	inc
    1d29: c5 12        	cmp	$12                     ; 0x2012 <printf+0x977>
    1d2b: a6 24        	ldx	$24                     ; 0x2024 <printf+0x989>
    1d2d: b0 07        	bcs	$1d36 <printf+0x69b>
    1d2f: 4c 5f 1c     	jmp	$1c5f <printf+0x5c4>
    1d32: a0 01        	ldy	#$1
    1d34: 80 d1        	bra	$1d07 <printf+0x66c>
    1d36: a5 25        	lda	$25                     ; 0x2025 <printf+0x98a>
    1d38: e6 a9        	inc	$a9                     ; 0x20a9 <printf+0xa0e>
    1d3a: c6 a9        	dec	$a9                     ; 0x20a9 <printf+0xa0e>
    1d3c: 10 08        	bpl	$1d46 <printf+0x6ab>
    1d3e: a2 01        	ldx	#$1
    1d40: 64 a9        	stz	$a9                     ; 0x20a9 <printf+0xa0e>
    1d42: 86 a8        	stx	$a8                     ; 0x20a8 <printf+0xa0d>
    1d44: a6 24        	ldx	$24                     ; 0x2024 <printf+0x989>
    1d46: 29 04        	and	#$4
    1d48: f0 2b        	beq	$1d75 <printf+0x6da>
    1d4a: a5 df        	lda	$df                     ; 0x20df <printf+0xa44>
    1d4c: c9 10        	cmp	#$10
    1d4e: f0 14        	beq	$1d64 <printf+0x6c9>
    1d50: c9 08        	cmp	#$8
    1d52: d0 21        	bne	$1d75 <printf+0x6da>
    1d54: a2 00        	ldx	#$0
    1d56: e4 a9        	cpx	$a9                     ; 0x20a9 <printf+0xa0e>
    1d58: f0 03        	beq	$1d5d <printf+0x6c2>
    1d5a: 4c a3 22     	jmp	$22a3 <printf+0xc08>
    1d5d: a6 24        	ldx	$24                     ; 0x2024 <printf+0x989>
    1d5f: e4 a8        	cpx	$a8                     ; 0x20a8 <printf+0xa0d>
    1d61: 4c a5 22     	jmp	$22a5 <printf+0xc0a>
    1d64: 8a           	txa
    1d65: f0 0e        	beq	$1d75 <printf+0x6da>
    1d67: a5 25        	lda	$25                     ; 0x2025 <printf+0x98a>
    1d69: 29 80        	and	#$80
    1d6b: d0 03        	bne	$1d70 <printf+0x6d5>
    1d6d: 4c be 22     	jmp	$22be <printf+0xc23>
    1d70: a2 78        	ldx	#$78
    1d72: 4c c0 22     	jmp	$22c0 <printf+0xc25>
    1d75: a6 25        	ldx	$25                     ; 0x2025 <printf+0x98a>
    1d77: a9 2d        	lda	#$2d
    1d79: 85 e3        	sta	$e3                     ; 0x20e3 <printf+0xa48>
    1d7b: a5 16        	lda	$16                     ; 0x2016 <printf+0x97b>
    1d7d: d0 32        	bne	$1db1 <printf+0x716>
    1d7f: 86 12        	stx	$12                     ; 0x2012 <printf+0x977>
    1d81: 8a           	txa
    1d82: 29 02        	and	#$2
    1d84: a2 2b        	ldx	#$2b
    1d86: 86 e3        	stx	$e3                     ; 0x20e3 <printf+0xa48>
    1d88: aa           	tax
    1d89: d0 26        	bne	$1db1 <printf+0x716>
    1d8b: a5 12        	lda	$12                     ; 0x2012 <printf+0x977>
    1d8d: 29 08        	and	#$8
    1d8f: d0 1c        	bne	$1dad <printf+0x712>
    1d91: a2 01        	ldx	#$1
    1d93: 86 e0        	stx	$e0                     ; 0x20e0 <printf+0xa45>
    1d95: a9 00        	lda	#$0
    1d97: aa           	tax
    1d98: 86 df        	stx	$df                     ; 0x20df <printf+0xa44>
    1d9a: 80 1c        	bra	$1db8 <printf+0x71d>
    1d9c: 85 12        	sta	$12                     ; 0x2012 <printf+0x977>
    1d9e: a9 04        	lda	#$4
    1da0: 80 04        	bra	$1da6 <printf+0x70b>
    1da2: 85 12        	sta	$12                     ; 0x2012 <printf+0x977>
    1da4: a9 02        	lda	#$2
    1da6: 85 e0        	sta	$e0                     ; 0x20e0 <printf+0xa45>
    1da8: a5 12        	lda	$12                     ; 0x2012 <printf+0x977>
    1daa: 4c 67 1a     	jmp	$1a67 <printf+0x3cc>
    1dad: a2 20        	ldx	#$20
    1daf: 86 e3        	stx	$e3                     ; 0x20e3 <printf+0xa48>
    1db1: a2 00        	ldx	#$0
    1db3: 86 e0        	stx	$e0                     ; 0x20e0 <printf+0xa45>
    1db5: 86 df        	stx	$df                     ; 0x20df <printf+0xa44>
    1db7: 98           	tya
    1db8: a6 a9        	ldx	$a9                     ; 0x20a9 <printf+0xa0e>
    1dba: d0 35        	bne	$1df1 <printf+0x756>
    1dbc: a6 a8        	ldx	$a8                     ; 0x20a8 <printf+0xa0d>
    1dbe: a4 24        	ldy	$24                     ; 0x2024 <printf+0x989>
    1dc0: 84 12        	sty	$12                     ; 0x2012 <printf+0x977>
    1dc2: e4 12        	cpx	$12                     ; 0x2012 <printf+0x977>
    1dc4: a6 a8        	ldx	$a8                     ; 0x20a8 <printf+0xa0d>
    1dc6: 86 12        	stx	$12                     ; 0x2012 <printf+0x977>
    1dc8: a6 a9        	ldx	$a9                     ; 0x20a9 <printf+0xa0e>
    1dca: 86 13        	stx	$13                     ; 0x2013 <printf+0x978>
    1dcc: b0 04        	bcs	$1dd2 <printf+0x737>
    1dce: 84 12        	sty	$12                     ; 0x2012 <printf+0x977>
    1dd0: 64 13        	stz	$13                     ; 0x2013 <printf+0x978>
    1dd2: 85 18        	sta	$18                     ; 0x2018 <printf+0x97d>
    1dd4: 18           	clc
    1dd5: 65 12        	adc	$12                     ; 0x2012 <printf+0x977>
    1dd7: 85 16        	sta	$16                     ; 0x2016 <printf+0x97b>
    1dd9: 85 14        	sta	$14                     ; 0x2014 <printf+0x979>
    1ddb: a5 13        	lda	$13                     ; 0x2013 <printf+0x978>
    1ddd: 69 00        	adc	#$0
    1ddf: 85 15        	sta	$15                     ; 0x2015 <printf+0x97a>
    1de1: c5 1a        	cmp	$1a                     ; 0x201a <printf+0x97f>
    1de3: d0 1e        	bne	$1e03 <printf+0x768>
    1de5: a6 1a        	ldx	$1a                     ; 0x201a <printf+0x97f>
    1de7: 86 17        	stx	$17                     ; 0x2017 <printf+0x97c>
    1de9: a6 aa        	ldx	$aa                     ; 0x20aa <printf+0xa0f>
    1deb: a5 16        	lda	$16                     ; 0x2016 <printf+0x97b>
    1ded: c5 aa        	cmp	$aa                     ; 0x20aa <printf+0xa0f>
    1def: 80 1c        	bra	$1e0d <printf+0x772>
    1df1: a6 a9        	ldx	$a9                     ; 0x20a9 <printf+0xa0e>
    1df3: e0 00        	cpx	#$0
    1df5: a6 a8        	ldx	$a8                     ; 0x20a8 <printf+0xa0d>
    1df7: 86 12        	stx	$12                     ; 0x2012 <printf+0x977>
    1df9: a6 a9        	ldx	$a9                     ; 0x20a9 <printf+0xa0e>
    1dfb: 86 13        	stx	$13                     ; 0x2013 <printf+0x978>
    1dfd: a4 24        	ldy	$24                     ; 0x2024 <printf+0x989>
    1dff: 90 cd        	bcc	$1dce <printf+0x733>
    1e01: 80 cf        	bra	$1dd2 <printf+0x737>
    1e03: a6 aa        	ldx	$aa                     ; 0x20aa <printf+0xa0f>
    1e05: 5a           	phy
    1e06: a4 1a        	ldy	$1a                     ; 0x201a <printf+0x97f>
    1e08: 84 17        	sty	$17                     ; 0x2017 <printf+0x97c>
    1e0a: 7a           	ply
    1e0b: c5 1a        	cmp	$1a                     ; 0x201a <printf+0x97f>
    1e0d: 64 ab        	stz	$ab                     ; 0x20ab <printf+0xa10>
    1e0f: 64 aa        	stz	$aa                     ; 0x20aa <printf+0xa0f>
    1e11: 90 03        	bcc	$1e16 <printf+0x77b>
    1e13: 4c b7 1e     	jmp	$1eb7 <printf+0x81c>
    1e16: a5 25        	lda	$25                     ; 0x2025 <printf+0x98a>
    1e18: 29 11        	and	#$11
    1e1a: 86 16        	stx	$16                     ; 0x2016 <printf+0x97b>
    1e1c: f0 0f        	beq	$1e2d <printf+0x792>
    1e1e: 8a           	txa
    1e1f: 38           	sec
    1e20: e5 14        	sbc	$14                     ; 0x2014 <printf+0x979>
    1e22: 85 ab        	sta	$ab                     ; 0x20ab <printf+0xa10>
    1e24: a5 1a        	lda	$1a                     ; 0x201a <printf+0x97f>
    1e26: e5 15        	sbc	$15                     ; 0x2015 <printf+0x97a>
    1e28: 85 aa        	sta	$aa                     ; 0x20aa <printf+0xa0f>
    1e2a: 4c b7 1e     	jmp	$1eb7 <printf+0x81c>
    1e2d: a6 d1        	ldx	$d1                     ; 0x20d1 <printf+0xa36>
    1e2f: 86 14        	stx	$14                     ; 0x2014 <printf+0x979>
    1e31: 38           	sec
    1e32: a5 18        	lda	$18                     ; 0x2018 <printf+0x97d>
    1e34: e5 16        	sbc	$16                     ; 0x2016 <printf+0x97b>
    1e36: aa           	tax
    1e37: a9 00        	lda	#$0
    1e39: e5 17        	sbc	$17                     ; 0x2017 <printf+0x97c>
    1e3b: a8           	tay
    1e3c: 18           	clc
    1e3d: 8a           	txa
    1e3e: 65 12        	adc	$12                     ; 0x2012 <printf+0x977>
    1e40: 85 25        	sta	$25                     ; 0x2025 <printf+0x98a>
    1e42: 98           	tya
    1e43: 65 13        	adc	$13                     ; 0x2013 <printf+0x978>
    1e45: a4 d2        	ldy	$d2                     ; 0x20d2 <printf+0xa37>
    1e47: 4c 9b 1e     	jmp	$1e9b <printf+0x800>
    1e4a: c4 d0        	cpy	$d0                     ; 0x20d0 <printf+0xa35>
    1e4c: b0 2f        	bcs	$1e7d <printf+0x7e2>
    1e4e: a6 dc        	ldx	$dc                     ; 0x20dc <printf+0xa41>
    1e50: e4 a5        	cpx	$a5                     ; 0x20a5 <printf+0xa0a>
    1e52: d0 18        	bne	$1e6c <printf+0x7d1>
    1e54: a6 db        	ldx	$db                     ; 0x20db <printf+0xa40>
    1e56: e4 a4        	cpx	$a4                     ; 0x20a4 <printf+0xa09>
    1e58: d0 12        	bne	$1e6c <printf+0x7d1>
    1e5a: 18           	clc
    1e5b: a5 14        	lda	$14                     ; 0x2014 <printf+0x979>
    1e5d: 65 d5        	adc	$d5                     ; 0x20d5 <printf+0xa3a>
    1e5f: 85 12        	sta	$12                     ; 0x2012 <printf+0x977>
    1e61: 98           	tya
    1e62: 65 d6        	adc	$d6                     ; 0x20d6 <printf+0xa3b>
    1e64: 85 13        	sta	$13                     ; 0x2013 <printf+0x978>
    1e66: a9 20        	lda	#$20
    1e68: 92 12        	sta	($12)                   ; 0x2012 <printf+0x977>
    1e6a: 80 0f        	bra	$1e7b <printf+0x7e0>
    1e6c: a2 20        	ldx	#$20
    1e6e: 86 a0        	stx	$a0                     ; 0x20a0 <printf+0xa05>
    1e70: a2 a0        	ldx	#$a0
    1e72: 86 12        	stx	$12                     ; 0x2012 <printf+0x977>
    1e74: a2 00        	ldx	#$0
    1e76: 86 13        	stx	$13                     ; 0x2013 <printf+0x978>
    1e78: 20 c8 12     	jsr	$12c8 <textPrint>
    1e7b: a5 aa        	lda	$aa                     ; 0x20aa <printf+0xa0f>
    1e7d: a6 d1        	ldx	$d1                     ; 0x20d1 <printf+0xa36>
    1e7f: a4 d2        	ldy	$d2                     ; 0x20d2 <printf+0xa37>
    1e81: e8           	inx
    1e82: d0 01        	bne	$1e85 <printf+0x7ea>
    1e84: c8           	iny
    1e85: 86 14        	stx	$14                     ; 0x2014 <printf+0x979>
    1e87: 86 d1        	stx	$d1                     ; 0x20d1 <printf+0xa36>
    1e89: 84 d2        	sty	$d2                     ; 0x20d2 <printf+0xa37>
    1e8b: a6 25        	ldx	$25                     ; 0x2025 <printf+0x98a>
    1e8d: e8           	inx
    1e8e: d0 01        	bne	$1e91 <printf+0x7f6>
    1e90: 1a           	inc
    1e91: 86 25        	stx	$25                     ; 0x2025 <printf+0x98a>
    1e93: c9 00        	cmp	#$0
    1e95: d0 04        	bne	$1e9b <printf+0x800>
    1e97: e0 00        	cpx	#$0
    1e99: f0 16        	beq	$1eb1 <printf+0x816>
    1e9b: 85 aa        	sta	$aa                     ; 0x20aa <printf+0xa0f>
    1e9d: c4 d0        	cpy	$d0                     ; 0x20d0 <printf+0xa35>
    1e9f: f0 03        	beq	$1ea4 <printf+0x809>
    1ea1: 4c 4a 1e     	jmp	$1e4a <printf+0x7af>
    1ea4: a6 cf        	ldx	$cf                     ; 0x20cf <printf+0xa34>
    1ea6: 86 12        	stx	$12                     ; 0x2012 <printf+0x977>
    1ea8: a6 14        	ldx	$14                     ; 0x2014 <printf+0x979>
    1eaa: e4 12        	cpx	$12                     ; 0x2012 <printf+0x977>
    1eac: b0 cf        	bcs	$1e7d <printf+0x7e2>
    1eae: 4c 4e 1e     	jmp	$1e4e <printf+0x7b3>
    1eb1: 64 ab        	stz	$ab                     ; 0x20ab <printf+0xa10>
    1eb3: 64 aa        	stz	$aa                     ; 0x20aa <printf+0xa0f>
    1eb5: a4 24        	ldy	$24                     ; 0x2024 <printf+0x989>
    1eb7: a6 e0        	ldx	$e0                     ; 0x20e0 <printf+0xa45>
    1eb9: f0 03        	beq	$1ebe <printf+0x823>
    1ebb: 4c 15 1f     	jmp	$1f15 <printf+0x87a>
    1ebe: a6 d1        	ldx	$d1                     ; 0x20d1 <printf+0xa36>
    1ec0: a5 d2        	lda	$d2                     ; 0x20d2 <printf+0xa37>
    1ec2: c5 d0        	cmp	$d0                     ; 0x20d0 <printf+0xa35>
    1ec4: d0 10        	bne	$1ed6 <printf+0x83b>
    1ec6: 86 13        	stx	$13                     ; 0x2013 <printf+0x978>
    1ec8: a6 cf        	ldx	$cf                     ; 0x20cf <printf+0xa34>
    1eca: 86 12        	stx	$12                     ; 0x2012 <printf+0x977>
    1ecc: a4 24        	ldy	$24                     ; 0x2024 <printf+0x989>
    1ece: a6 13        	ldx	$13                     ; 0x2013 <printf+0x978>
    1ed0: e4 12        	cpx	$12                     ; 0x2012 <printf+0x977>
    1ed2: 90 08        	bcc	$1edc <printf+0x841>
    1ed4: 80 39        	bra	$1f0f <printf+0x874>
    1ed6: 86 13        	stx	$13                     ; 0x2013 <printf+0x978>
    1ed8: c5 d0        	cmp	$d0                     ; 0x20d0 <printf+0xa35>
    1eda: b0 33        	bcs	$1f0f <printf+0x874>
    1edc: a6 dc        	ldx	$dc                     ; 0x20dc <printf+0xa41>
    1ede: e4 a5        	cpx	$a5                     ; 0x20a5 <printf+0xa0a>
    1ee0: d0 1c        	bne	$1efe <printf+0x863>
    1ee2: a6 db        	ldx	$db                     ; 0x20db <printf+0xa40>
    1ee4: e4 a4        	cpx	$a4                     ; 0x20a4 <printf+0xa09>
    1ee6: d0 16        	bne	$1efe <printf+0x863>
    1ee8: 18           	clc
    1ee9: 85 12        	sta	$12                     ; 0x2012 <printf+0x977>
    1eeb: a5 13        	lda	$13                     ; 0x2013 <printf+0x978>
    1eed: 65 d5        	adc	$d5                     ; 0x20d5 <printf+0xa3a>
    1eef: aa           	tax
    1ef0: a5 12        	lda	$12                     ; 0x2012 <printf+0x977>
    1ef2: 65 d6        	adc	$d6                     ; 0x20d6 <printf+0xa3b>
    1ef4: 86 12        	stx	$12                     ; 0x2012 <printf+0x977>
    1ef6: 85 13        	sta	$13                     ; 0x2013 <printf+0x978>
    1ef8: a5 e3        	lda	$e3                     ; 0x20e3 <printf+0xa48>
    1efa: 92 12        	sta	($12)                   ; 0x2012 <printf+0x977>
    1efc: 80 0f        	bra	$1f0d <printf+0x872>
    1efe: a6 e3        	ldx	$e3                     ; 0x20e3 <printf+0xa48>
    1f00: 86 a0        	stx	$a0                     ; 0x20a0 <printf+0xa05>
    1f02: a2 a0        	ldx	#$a0
    1f04: 86 12        	stx	$12                     ; 0x2012 <printf+0x977>
    1f06: a2 00        	ldx	#$0
    1f08: 86 13        	stx	$13                     ; 0x2013 <printf+0x978>
    1f0a: 20 c8 12     	jsr	$12c8 <textPrint>
    1f0d: a4 24        	ldy	$24                     ; 0x2024 <printf+0x989>
    1f0f: e6 d1        	inc	$d1                     ; 0x20d1 <printf+0xa36>
    1f11: d0 02        	bne	$1f15 <printf+0x87a>
    1f13: e6 d2        	inc	$d2                     ; 0x20d2 <printf+0xa37>
    1f15: a6 df        	ldx	$df                     ; 0x20df <printf+0xa44>
    1f17: d0 03        	bne	$1f1c <printf+0x881>
    1f19: 4c 73 1f     	jmp	$1f73 <printf+0x8d8>
    1f1c: a6 d1        	ldx	$d1                     ; 0x20d1 <printf+0xa36>
    1f1e: a5 d2        	lda	$d2                     ; 0x20d2 <printf+0xa37>
    1f20: c5 d0        	cmp	$d0                     ; 0x20d0 <printf+0xa35>
    1f22: d0 10        	bne	$1f34 <printf+0x899>
    1f24: 86 13        	stx	$13                     ; 0x2013 <printf+0x978>
    1f26: a6 cf        	ldx	$cf                     ; 0x20cf <printf+0xa34>
    1f28: 86 12        	stx	$12                     ; 0x2012 <printf+0x977>
    1f2a: a4 24        	ldy	$24                     ; 0x2024 <printf+0x989>
    1f2c: a6 13        	ldx	$13                     ; 0x2013 <printf+0x978>
    1f2e: e4 12        	cpx	$12                     ; 0x2012 <printf+0x977>
    1f30: 90 08        	bcc	$1f3a <printf+0x89f>
    1f32: 80 39        	bra	$1f6d <printf+0x8d2>
    1f34: 86 13        	stx	$13                     ; 0x2013 <printf+0x978>
    1f36: c5 d0        	cmp	$d0                     ; 0x20d0 <printf+0xa35>
    1f38: b0 33        	bcs	$1f6d <printf+0x8d2>
    1f3a: a6 dc        	ldx	$dc                     ; 0x20dc <printf+0xa41>
    1f3c: e4 a5        	cpx	$a5                     ; 0x20a5 <printf+0xa0a>
    1f3e: d0 1c        	bne	$1f5c <printf+0x8c1>
    1f40: a6 db        	ldx	$db                     ; 0x20db <printf+0xa40>
    1f42: e4 a4        	cpx	$a4                     ; 0x20a4 <printf+0xa09>
    1f44: d0 16        	bne	$1f5c <printf+0x8c1>
    1f46: 18           	clc
    1f47: 85 12        	sta	$12                     ; 0x2012 <printf+0x977>
    1f49: a5 13        	lda	$13                     ; 0x2013 <printf+0x978>
    1f4b: 65 d5        	adc	$d5                     ; 0x20d5 <printf+0xa3a>
    1f4d: aa           	tax
    1f4e: a5 12        	lda	$12                     ; 0x2012 <printf+0x977>
    1f50: 65 d6        	adc	$d6                     ; 0x20d6 <printf+0xa3b>
    1f52: 86 12        	stx	$12                     ; 0x2012 <printf+0x977>
    1f54: 85 13        	sta	$13                     ; 0x2013 <printf+0x978>
    1f56: a5 e4        	lda	$e4                     ; 0x20e4 <printf+0xa49>
    1f58: 92 12        	sta	($12)                   ; 0x2012 <printf+0x977>
    1f5a: 80 0f        	bra	$1f6b <printf+0x8d0>
    1f5c: a6 e4        	ldx	$e4                     ; 0x20e4 <printf+0xa49>
    1f5e: 86 a0        	stx	$a0                     ; 0x20a0 <printf+0xa05>
    1f60: a2 a0        	ldx	#$a0
    1f62: 86 12        	stx	$12                     ; 0x2012 <printf+0x977>
    1f64: a2 00        	ldx	#$0
    1f66: 86 13        	stx	$13                     ; 0x2013 <printf+0x978>
    1f68: 20 c8 12     	jsr	$12c8 <textPrint>
    1f6b: a4 24        	ldy	$24                     ; 0x2024 <printf+0x989>
    1f6d: e6 d1        	inc	$d1                     ; 0x20d1 <printf+0xa36>
    1f6f: d0 02        	bne	$1f73 <printf+0x8d8>
    1f71: e6 d2        	inc	$d2                     ; 0x20d2 <printf+0xa37>
    1f73: a9 10        	lda	#$10
    1f75: 25 cd        	and	$cd                     ; 0x20cd <printf+0xa32>
    1f77: d0 03        	bne	$1f7c <printf+0x8e1>
    1f79: 4c 0d 20     	jmp	$200d <printf+0x972>
    1f7c: a5 cd        	lda	$cd                     ; 0x20cd <printf+0xa32>
    1f7e: 29 01        	and	#$1
    1f80: f0 03        	beq	$1f85 <printf+0x8ea>
    1f82: 4c 0d 20     	jmp	$200d <printf+0x972>
    1f85: a6 ab        	ldx	$ab                     ; 0x20ab <printf+0xa10>
    1f87: a5 aa        	lda	$aa                     ; 0x20aa <printf+0xa0f>
    1f89: d0 06        	bne	$1f91 <printf+0x8f6>
    1f8b: 8a           	txa
    1f8c: d0 03        	bne	$1f91 <printf+0x8f6>
    1f8e: 4c d3 22     	jmp	$22d3 <printf+0xc38>
    1f91: a6 d1        	ldx	$d1                     ; 0x20d1 <printf+0xa36>
    1f93: 86 13        	stx	$13                     ; 0x2013 <printf+0x978>
    1f95: a5 d2        	lda	$d2                     ; 0x20d2 <printf+0xa37>
    1f97: 4c f3 1f     	jmp	$1ff3 <printf+0x958>
    1f9a: c5 d0        	cmp	$d0                     ; 0x20d0 <printf+0xa35>
    1f9c: b0 2e        	bcs	$1fcc <printf+0x931>
    1f9e: a6 dc        	ldx	$dc                     ; 0x20dc <printf+0xa41>
    1fa0: e4 a5        	cpx	$a5                     ; 0x20a5 <printf+0xa0a>
    1fa2: d0 19        	bne	$1fbd <printf+0x922>
    1fa4: a6 db        	ldx	$db                     ; 0x20db <printf+0xa40>
    1fa6: e4 a4        	cpx	$a4                     ; 0x20a4 <printf+0xa09>
    1fa8: d0 13        	bne	$1fbd <printf+0x922>
    1faa: 18           	clc
    1fab: aa           	tax
    1fac: a5 13        	lda	$13                     ; 0x2013 <printf+0x978>
    1fae: 65 d5        	adc	$d5                     ; 0x20d5 <printf+0xa3a>
    1fb0: 85 12        	sta	$12                     ; 0x2012 <printf+0x977>
    1fb2: 8a           	txa
    1fb3: 65 d6        	adc	$d6                     ; 0x20d6 <printf+0xa3b>
    1fb5: 85 13        	sta	$13                     ; 0x2013 <printf+0x978>
    1fb7: a9 30        	lda	#$30
    1fb9: 92 12        	sta	($12)                   ; 0x2012 <printf+0x977>
    1fbb: 80 0f        	bra	$1fcc <printf+0x931>
    1fbd: a2 30        	ldx	#$30
    1fbf: 86 a0        	stx	$a0                     ; 0x20a0 <printf+0xa05>
    1fc1: a2 a0        	ldx	#$a0
    1fc3: 86 12        	stx	$12                     ; 0x2012 <printf+0x977>
    1fc5: a2 00        	ldx	#$0
    1fc7: 86 13        	stx	$13                     ; 0x2013 <printf+0x978>
    1fc9: 20 c8 12     	jsr	$12c8 <textPrint>
    1fcc: a6 d1        	ldx	$d1                     ; 0x20d1 <printf+0xa36>
    1fce: a5 d2        	lda	$d2                     ; 0x20d2 <printf+0xa37>
    1fd0: e8           	inx
    1fd1: d0 01        	bne	$1fd4 <printf+0x939>
    1fd3: 1a           	inc
    1fd4: 86 13        	stx	$13                     ; 0x2013 <printf+0x978>
    1fd6: 86 d1        	stx	$d1                     ; 0x20d1 <printf+0xa36>
    1fd8: 85 d2        	sta	$d2                     ; 0x20d2 <printf+0xa37>
    1fda: a4 ab        	ldy	$ab                     ; 0x20ab <printf+0xa10>
    1fdc: a6 aa        	ldx	$aa                     ; 0x20aa <printf+0xa0f>
    1fde: 86 12        	stx	$12                     ; 0x2012 <printf+0x977>
    1fe0: 88           	dey
    1fe1: c0 ff        	cpy	#$ff
    1fe3: d0 02        	bne	$1fe7 <printf+0x94c>
    1fe5: c6 12        	dec	$12                     ; 0x2012 <printf+0x977>
    1fe7: 84 ab        	sty	$ab                     ; 0x20ab <printf+0xa10>
    1fe9: a6 12        	ldx	$12                     ; 0x2012 <printf+0x977>
    1feb: 86 aa        	stx	$aa                     ; 0x20aa <printf+0xa0f>
    1fed: d0 04        	bne	$1ff3 <printf+0x958>
    1fef: c0 00        	cpy	#$0
    1ff1: f0 14        	beq	$2007 <printf+0x96c>
    1ff3: c5 d0        	cmp	$d0                     ; 0x20d0 <printf+0xa35>
    1ff5: f0 03        	beq	$1ffa <printf+0x95f>
    1ff7: 4c 9a 1f     	jmp	$1f9a <printf+0x8ff>
    1ffa: a6 cf        	ldx	$cf                     ; 0x20cf <printf+0xa34>
    1ffc: 86 12        	stx	$12                     ; 0x2012 <printf+0x977>
    1ffe: a6 13        	ldx	$13                     ; 0x2013 <printf+0x978>
    2000: e4 12        	cpx	$12                     ; 0x2012 <printf+0x977>
    2002: b0 c8        	bcs	$1fcc <printf+0x931>
    2004: 4c 9e 1f     	jmp	$1f9e <printf+0x903>
    2007: 64 ab        	stz	$ab                     ; 0x20ab <printf+0xa10>
    2009: 64 aa        	stz	$aa                     ; 0x20aa <printf+0xa0f>
    200b: a4 24        	ldy	$24                     ; 0x2024 <printf+0x989>
    200d: a2 00        	ldx	#$0
    200f: e4 a9        	cpx	$a9                     ; 0x20a9 <printf+0xa0e>
    2011: d0 07        	bne	$201a <printf+0x97f>
    2013: c4 a8        	cpy	$a8                     ; 0x20a8 <printf+0xa0d>
    2015: 90 0a        	bcc	$2021 <printf+0x986>
    2017: 4c 99 20     	jmp	$2099 <printf+0x9fe>
    201a: e4 a9        	cpx	$a9                     ; 0x20a9 <printf+0xa0e>
    201c: 90 03        	bcc	$2021 <printf+0x986>
    201e: 4c 99 20     	jmp	$2099 <printf+0x9fe>
    2021: a6 d1        	ldx	$d1                     ; 0x20d1 <printf+0xa36>
    2023: 86 13        	stx	$13                     ; 0x2013 <printf+0x978>
    2025: a5 d2        	lda	$d2                     ; 0x20d2 <printf+0xa37>
    2027: a2 ff        	ldx	#$ff
    2029: c6 a8        	dec	$a8                     ; 0x20a8 <printf+0xa0d>
    202b: e4 a8        	cpx	$a8                     ; 0x20a8 <printf+0xa0d>
    202d: d0 02        	bne	$2031 <printf+0x996>
    202f: c6 a9        	dec	$a9                     ; 0x20a9 <printf+0xa0e>
    2031: c5 d0        	cmp	$d0                     ; 0x20d0 <printf+0xa35>
    2033: d0 0c        	bne	$2041 <printf+0x9a6>
    2035: a6 cf        	ldx	$cf                     ; 0x20cf <printf+0xa34>
    2037: 86 12        	stx	$12                     ; 0x2012 <printf+0x977>
    2039: a6 13        	ldx	$13                     ; 0x2013 <printf+0x978>
    203b: e4 12        	cpx	$12                     ; 0x2012 <printf+0x977>
    203d: 90 06        	bcc	$2045 <printf+0x9aa>
    203f: 80 32        	bra	$2073 <printf+0x9d8>
    2041: c5 d0        	cmp	$d0                     ; 0x20d0 <printf+0xa35>
    2043: b0 2e        	bcs	$2073 <printf+0x9d8>
    2045: a6 dc        	ldx	$dc                     ; 0x20dc <printf+0xa41>
    2047: e4 a5        	cpx	$a5                     ; 0x20a5 <printf+0xa0a>
    2049: d0 19        	bne	$2064 <printf+0x9c9>
    204b: a6 db        	ldx	$db                     ; 0x20db <printf+0xa40>
    204d: e4 a4        	cpx	$a4                     ; 0x20a4 <printf+0xa09>
    204f: d0 13        	bne	$2064 <printf+0x9c9>
    2051: 18           	clc
    2052: aa           	tax
    2053: a5 13        	lda	$13                     ; 0x2013 <printf+0x978>
    2055: 65 d5        	adc	$d5                     ; 0x20d5 <printf+0xa3a>
    2057: 85 12        	sta	$12                     ; 0x2012 <printf+0x977>
    2059: 8a           	txa
    205a: 65 d6        	adc	$d6                     ; 0x20d6 <printf+0xa3b>
    205c: 85 13        	sta	$13                     ; 0x2013 <printf+0x978>
    205e: a9 30        	lda	#$30
    2060: 92 12        	sta	($12)                   ; 0x2012 <printf+0x977>
    2062: 80 0f        	bra	$2073 <printf+0x9d8>
    2064: a2 30        	ldx	#$30
    2066: 86 a0        	stx	$a0                     ; 0x20a0 <printf+0xa05>
    2068: a2 a0        	ldx	#$a0
    206a: 86 12        	stx	$12                     ; 0x2012 <printf+0x977>
    206c: a2 00        	ldx	#$0
    206e: 86 13        	stx	$13                     ; 0x2013 <printf+0x978>
    2070: 20 c8 12     	jsr	$12c8 <textPrint>
    2073: a6 d1        	ldx	$d1                     ; 0x20d1 <printf+0xa36>
    2075: a5 d2        	lda	$d2                     ; 0x20d2 <printf+0xa37>
    2077: e8           	inx
    2078: d0 01        	bne	$207b <printf+0x9e0>
    207a: 1a           	inc
    207b: 86 13        	stx	$13                     ; 0x2013 <printf+0x978>
    207d: 86 d1        	stx	$d1                     ; 0x20d1 <printf+0xa36>
    207f: 85 d2        	sta	$d2                     ; 0x20d2 <printf+0xa37>
    2081: a2 00        	ldx	#$0
    2083: e4 a9        	cpx	$a9                     ; 0x20a9 <printf+0xa0e>
    2085: d0 09        	bne	$2090 <printf+0x9f5>
    2087: a4 24        	ldy	$24                     ; 0x2024 <printf+0x989>
    2089: c4 a8        	cpy	$a8                     ; 0x20a8 <printf+0xa0d>
    208b: b0 0c        	bcs	$2099 <printf+0x9fe>
    208d: 4c 27 20     	jmp	$2027 <printf+0x98c>
    2090: e4 a9        	cpx	$a9                     ; 0x20a9 <printf+0xa0e>
    2092: a4 24        	ldy	$24                     ; 0x2024 <printf+0x989>
    2094: b0 03        	bcs	$2099 <printf+0x9fe>
    2096: 4c 27 20     	jmp	$2027 <printf+0x98c>
    2099: 98           	tya
    209a: d0 03        	bne	$209f <printf+0xa04>
    209c: 4c a4 21     	jmp	$21a4 <printf+0xb09>
    209f: 88           	dey
    20a0: d0 03        	bne	$20a5 <printf+0xa0a>
    20a2: 4c 39 21     	jmp	$2139 <printf+0xa9e>
    20a5: 84 a8        	sty	$a8                     ; 0x20a8 <printf+0xa0d>
    20a7: ae 6e 26     	ldx	$266e                   ; 0x266e <__data_load_start+0x12>
    20aa: 8a           	txa
    20ab: 18           	clc
    20ac: 65 a8        	adc	$a8                     ; 0x20a8 <printf+0xa0d>
    20ae: 85 24        	sta	$24                     ; 0x2024 <printf+0x989>
    20b0: ad 6f 26     	lda	$266f                   ; 0x266f <__data_load_start+0x13>
    20b3: 69 00        	adc	#$0
    20b5: 85 25        	sta	$25                     ; 0x2025 <printf+0x98a>
    20b7: 4c 2b 21     	jmp	$212b <printf+0xa90>
    20ba: a8           	tay
    20bb: a9 80        	lda	#$80
    20bd: 25 cd        	and	$cd                     ; 0x20cd <printf+0xa32>
    20bf: f0 04        	beq	$20c5 <printf+0xa2a>
    20c1: a2 61        	ldx	#$61
    20c3: 80 02        	bra	$20c7 <printf+0xa2c>
    20c5: a2 41        	ldx	#$41
    20c7: 86 12        	stx	$12                     ; 0x2012 <printf+0x977>
    20c9: 18           	clc
    20ca: 98           	tya
    20cb: 65 12        	adc	$12                     ; 0x2012 <printf+0x977>
    20cd: 18           	clc
    20ce: 69 f6        	adc	#$f6
    20d0: a4 d1        	ldy	$d1                     ; 0x20d1 <printf+0xa36>
    20d2: a6 d2        	ldx	$d2                     ; 0x20d2 <printf+0xa37>
    20d4: e4 d0        	cpx	$d0                     ; 0x20d0 <printf+0xa35>
    20d6: d0 0c        	bne	$20e4 <printf+0xa49>
    20d8: 86 14        	stx	$14                     ; 0x2014 <printf+0x979>
    20da: a6 cf        	ldx	$cf                     ; 0x20cf <printf+0xa34>
    20dc: 86 12        	stx	$12                     ; 0x2012 <printf+0x977>
    20de: c4 12        	cpy	$12                     ; 0x2012 <printf+0x977>
    20e0: 90 08        	bcc	$20ea <printf+0xa4f>
    20e2: 80 31        	bra	$2115 <printf+0xa7a>
    20e4: 86 14        	stx	$14                     ; 0x2014 <printf+0x979>
    20e6: e4 d0        	cpx	$d0                     ; 0x20d0 <printf+0xa35>
    20e8: b0 2b        	bcs	$2115 <printf+0xa7a>
    20ea: a6 dc        	ldx	$dc                     ; 0x20dc <printf+0xa41>
    20ec: e4 a5        	cpx	$a5                     ; 0x20a5 <printf+0xa0a>
    20ee: d0 18        	bne	$2108 <printf+0xa6d>
    20f0: a6 db        	ldx	$db                     ; 0x20db <printf+0xa40>
    20f2: e4 a4        	cpx	$a4                     ; 0x20a4 <printf+0xa09>
    20f4: d0 12        	bne	$2108 <printf+0xa6d>
    20f6: 18           	clc
    20f7: aa           	tax
    20f8: 98           	tya
    20f9: 65 d5        	adc	$d5                     ; 0x20d5 <printf+0xa3a>
    20fb: 85 12        	sta	$12                     ; 0x2012 <printf+0x977>
    20fd: a5 14        	lda	$14                     ; 0x2014 <printf+0x979>
    20ff: 65 d6        	adc	$d6                     ; 0x20d6 <printf+0xa3b>
    2101: 85 13        	sta	$13                     ; 0x2013 <printf+0x978>
    2103: 8a           	txa
    2104: 92 12        	sta	($12)                   ; 0x2012 <printf+0x977>
    2106: 80 0d        	bra	$2115 <printf+0xa7a>
    2108: 85 a0        	sta	$a0                     ; 0x20a0 <printf+0xa05>
    210a: a2 a0        	ldx	#$a0
    210c: 86 12        	stx	$12                     ; 0x2012 <printf+0x977>
    210e: a2 00        	ldx	#$0
    2110: 86 13        	stx	$13                     ; 0x2013 <printf+0x978>
    2112: 20 c8 12     	jsr	$12c8 <textPrint>
    2115: e6 d1        	inc	$d1                     ; 0x20d1 <printf+0xa36>
    2117: d0 02        	bne	$211b <printf+0xa80>
    2119: e6 d2        	inc	$d2                     ; 0x20d2 <printf+0xa37>
    211b: c6 a8        	dec	$a8                     ; 0x20a8 <printf+0xa0d>
    211d: a2 ff        	ldx	#$ff
    211f: c6 24        	dec	$24                     ; 0x2024 <printf+0x989>
    2121: e4 24        	cpx	$24                     ; 0x2024 <printf+0x989>
    2123: d0 02        	bne	$2127 <printf+0xa8c>
    2125: c6 25        	dec	$25                     ; 0x2025 <printf+0x98a>
    2127: a5 a8        	lda	$a8                     ; 0x20a8 <printf+0xa0d>
    2129: f0 0e        	beq	$2139 <printf+0xa9e>
    212b: b2 24        	lda	($24)                   ; 0x2024 <printf+0x989>
    212d: c9 0a        	cmp	#$a
    212f: 90 03        	bcc	$2134 <printf+0xa99>
    2131: 4c ba 20     	jmp	$20ba <printf+0xa1f>
    2134: 09 30        	ora	#$30
    2136: 4c d0 20     	jmp	$20d0 <printf+0xa35>
    2139: a5 ae        	lda	$ae                     ; 0x20ae <printf+0xa13>
    213b: c9 0a        	cmp	#$a
    213d: b0 04        	bcs	$2143 <printf+0xaa8>
    213f: 09 30        	ora	#$30
    2141: 80 16        	bra	$2159 <printf+0xabe>
    2143: a8           	tay
    2144: a9 80        	lda	#$80
    2146: 25 cd        	and	$cd                     ; 0x20cd <printf+0xa32>
    2148: f0 04        	beq	$214e <printf+0xab3>
    214a: a2 61        	ldx	#$61
    214c: 80 02        	bra	$2150 <printf+0xab5>
    214e: a2 41        	ldx	#$41
    2150: 86 12        	stx	$12                     ; 0x2012 <printf+0x977>
    2152: 18           	clc
    2153: 98           	tya
    2154: 65 12        	adc	$12                     ; 0x2012 <printf+0x977>
    2156: 18           	clc
    2157: 69 f6        	adc	#$f6
    2159: a4 d1        	ldy	$d1                     ; 0x20d1 <printf+0xa36>
    215b: a6 d2        	ldx	$d2                     ; 0x20d2 <printf+0xa37>
    215d: e4 d0        	cpx	$d0                     ; 0x20d0 <printf+0xa35>
    215f: d0 0c        	bne	$216d <printf+0xad2>
    2161: 86 14        	stx	$14                     ; 0x2014 <printf+0x979>
    2163: a6 cf        	ldx	$cf                     ; 0x20cf <printf+0xa34>
    2165: 86 12        	stx	$12                     ; 0x2012 <printf+0x977>
    2167: c4 12        	cpy	$12                     ; 0x2012 <printf+0x977>
    2169: 90 08        	bcc	$2173 <printf+0xad8>
    216b: 80 31        	bra	$219e <printf+0xb03>
    216d: 86 14        	stx	$14                     ; 0x2014 <printf+0x979>
    216f: e4 d0        	cpx	$d0                     ; 0x20d0 <printf+0xa35>
    2171: b0 2b        	bcs	$219e <printf+0xb03>
    2173: a6 dc        	ldx	$dc                     ; 0x20dc <printf+0xa41>
    2175: e4 a5        	cpx	$a5                     ; 0x20a5 <printf+0xa0a>
    2177: d0 18        	bne	$2191 <printf+0xaf6>
    2179: a6 db        	ldx	$db                     ; 0x20db <printf+0xa40>
    217b: e4 a4        	cpx	$a4                     ; 0x20a4 <printf+0xa09>
    217d: d0 12        	bne	$2191 <printf+0xaf6>
    217f: 18           	clc
    2180: aa           	tax
    2181: 98           	tya
    2182: 65 d5        	adc	$d5                     ; 0x20d5 <printf+0xa3a>
    2184: 85 12        	sta	$12                     ; 0x2012 <printf+0x977>
    2186: a5 14        	lda	$14                     ; 0x2014 <printf+0x979>
    2188: 65 d6        	adc	$d6                     ; 0x20d6 <printf+0xa3b>
    218a: 85 13        	sta	$13                     ; 0x2013 <printf+0x978>
    218c: 8a           	txa
    218d: 92 12        	sta	($12)                   ; 0x2012 <printf+0x977>
    218f: 80 0d        	bra	$219e <printf+0xb03>
    2191: 85 a0        	sta	$a0                     ; 0x20a0 <printf+0xa05>
    2193: a2 a0        	ldx	#$a0
    2195: 86 12        	stx	$12                     ; 0x2012 <printf+0x977>
    2197: a2 00        	ldx	#$0
    2199: 86 13        	stx	$13                     ; 0x2013 <printf+0x978>
    219b: 20 c8 12     	jsr	$12c8 <textPrint>
    219e: e6 d1        	inc	$d1                     ; 0x20d1 <printf+0xa36>
    21a0: d0 02        	bne	$21a4 <printf+0xb09>
    21a2: e6 d2        	inc	$d2                     ; 0x20d2 <printf+0xa37>
    21a4: a5 cd        	lda	$cd                     ; 0x20cd <printf+0xa32>
    21a6: 29 01        	and	#$1
    21a8: d0 1e        	bne	$21c8 <printf+0xb2d>
    21aa: a6 d1        	ldx	$d1                     ; 0x20d1 <printf+0xa36>
    21ac: 86 14        	stx	$14                     ; 0x2014 <printf+0x979>
    21ae: a5 d2        	lda	$d2                     ; 0x20d2 <printf+0xa37>
    21b0: a4 cf        	ldy	$cf                     ; 0x20cf <printf+0xa34>
    21b2: a6 d0        	ldx	$d0                     ; 0x20d0 <printf+0xa35>
    21b4: 86 12        	stx	$12                     ; 0x2012 <printf+0x977>
    21b6: 86 13        	stx	$13                     ; 0x2013 <printf+0x978>
    21b8: c5 12        	cmp	$12                     ; 0x2012 <printf+0x977>
    21ba: f0 03        	beq	$21bf <printf+0xb24>
    21bc: 4c 55 22     	jmp	$2255 <printf+0xbba>
    21bf: 84 12        	sty	$12                     ; 0x2012 <printf+0x977>
    21c1: a6 14        	ldx	$14                     ; 0x2014 <printf+0x979>
    21c3: e4 12        	cpx	$12                     ; 0x2012 <printf+0x977>
    21c5: 4c 59 22     	jmp	$2259 <printf+0xbbe>
    21c8: a6 d1        	ldx	$d1                     ; 0x20d1 <printf+0xa36>
    21ca: 86 14        	stx	$14                     ; 0x2014 <printf+0x979>
    21cc: a5 d2        	lda	$d2                     ; 0x20d2 <printf+0xa37>
    21ce: a6 ab        	ldx	$ab                     ; 0x20ab <printf+0xa10>
    21d0: a4 aa        	ldy	$aa                     ; 0x20aa <printf+0xa0f>
    21d2: f0 03        	beq	$21d7 <printf+0xb3c>
    21d4: 4c 41 22     	jmp	$2241 <printf+0xba6>
    21d7: e0 00        	cpx	#$0
    21d9: f0 d5        	beq	$21b0 <printf+0xb15>
    21db: 4c 41 22     	jmp	$2241 <printf+0xba6>
    21de: c5 d0        	cmp	$d0                     ; 0x20d0 <printf+0xa35>
    21e0: b0 2e        	bcs	$2210 <printf+0xb75>
    21e2: a6 dc        	ldx	$dc                     ; 0x20dc <printf+0xa41>
    21e4: e4 a5        	cpx	$a5                     ; 0x20a5 <printf+0xa0a>
    21e6: d0 19        	bne	$2201 <printf+0xb66>
    21e8: a6 db        	ldx	$db                     ; 0x20db <printf+0xa40>
    21ea: e4 a4        	cpx	$a4                     ; 0x20a4 <printf+0xa09>
    21ec: d0 13        	bne	$2201 <printf+0xb66>
    21ee: 18           	clc
    21ef: aa           	tax
    21f0: a5 14        	lda	$14                     ; 0x2014 <printf+0x979>
    21f2: 65 d5        	adc	$d5                     ; 0x20d5 <printf+0xa3a>
    21f4: 85 12        	sta	$12                     ; 0x2012 <printf+0x977>
    21f6: 8a           	txa
    21f7: 65 d6        	adc	$d6                     ; 0x20d6 <printf+0xa3b>
    21f9: 85 13        	sta	$13                     ; 0x2013 <printf+0x978>
    21fb: a9 20        	lda	#$20
    21fd: 92 12        	sta	($12)                   ; 0x2012 <printf+0x977>
    21ff: 80 0f        	bra	$2210 <printf+0xb75>
    2201: a2 20        	ldx	#$20
    2203: 86 a0        	stx	$a0                     ; 0x20a0 <printf+0xa05>
    2205: a2 a0        	ldx	#$a0
    2207: 86 12        	stx	$12                     ; 0x2012 <printf+0x977>
    2209: a2 00        	ldx	#$0
    220b: 86 13        	stx	$13                     ; 0x2013 <printf+0x978>
    220d: 20 c8 12     	jsr	$12c8 <textPrint>
    2210: a6 d1        	ldx	$d1                     ; 0x20d1 <printf+0xa36>
    2212: a5 d2        	lda	$d2                     ; 0x20d2 <printf+0xa37>
    2214: e8           	inx
    2215: d0 01        	bne	$2218 <printf+0xb7d>
    2217: 1a           	inc
    2218: 86 14        	stx	$14                     ; 0x2014 <printf+0x979>
    221a: 86 d1        	stx	$d1                     ; 0x20d1 <printf+0xa36>
    221c: 85 d2        	sta	$d2                     ; 0x20d2 <printf+0xa37>
    221e: a6 ab        	ldx	$ab                     ; 0x20ab <printf+0xa10>
    2220: 86 12        	stx	$12                     ; 0x2012 <printf+0x977>
    2222: a6 aa        	ldx	$aa                     ; 0x20aa <printf+0xa0f>
    2224: 86 13        	stx	$13                     ; 0x2013 <printf+0x978>
    2226: a2 ff        	ldx	#$ff
    2228: c6 12        	dec	$12                     ; 0x2012 <printf+0x977>
    222a: e4 12        	cpx	$12                     ; 0x2012 <printf+0x977>
    222c: d0 02        	bne	$2230 <printf+0xb95>
    222e: c6 13        	dec	$13                     ; 0x2013 <printf+0x978>
    2230: a6 12        	ldx	$12                     ; 0x2012 <printf+0x977>
    2232: 86 ab        	stx	$ab                     ; 0x20ab <printf+0xa10>
    2234: a6 13        	ldx	$13                     ; 0x2013 <printf+0x978>
    2236: 86 aa        	stx	$aa                     ; 0x20aa <printf+0xa0f>
    2238: d0 07        	bne	$2241 <printf+0xba6>
    223a: a6 12        	ldx	$12                     ; 0x2012 <printf+0x977>
    223c: d0 03        	bne	$2241 <printf+0xba6>
    223e: 4c b0 21     	jmp	$21b0 <printf+0xb15>
    2241: c5 d0        	cmp	$d0                     ; 0x20d0 <printf+0xa35>
    2243: f0 03        	beq	$2248 <printf+0xbad>
    2245: 4c de 21     	jmp	$21de <printf+0xb43>
    2248: a6 cf        	ldx	$cf                     ; 0x20cf <printf+0xa34>
    224a: 86 12        	stx	$12                     ; 0x2012 <printf+0x977>
    224c: a6 14        	ldx	$14                     ; 0x2014 <printf+0x979>
    224e: e4 12        	cpx	$12                     ; 0x2012 <printf+0x977>
    2250: b0 be        	bcs	$2210 <printf+0xb75>
    2252: 4c e2 21     	jmp	$21e2 <printf+0xb47>
    2255: 86 12        	stx	$12                     ; 0x2012 <printf+0x977>
    2257: c5 12        	cmp	$12                     ; 0x2012 <printf+0x977>
    2259: 98           	tya
    225a: a0 01        	ldy	#$1
    225c: 90 20        	bcc	$227e <printf+0xbe3>
    225e: a6 13        	ldx	$13                     ; 0x2013 <printf+0x978>
    2260: d0 03        	bne	$2265 <printf+0xbca>
    2262: aa           	tax
    2263: f0 19        	beq	$227e <printf+0xbe3>
    2265: 18           	clc
    2266: 65 d5        	adc	$d5                     ; 0x20d5 <printf+0xa3a>
    2268: 85 12        	sta	$12                     ; 0x2012 <printf+0x977>
    226a: a5 13        	lda	$13                     ; 0x2013 <printf+0x978>
    226c: 65 d6        	adc	$d6                     ; 0x20d6 <printf+0xa3b>
    226e: 85 13        	sta	$13                     ; 0x2013 <printf+0x978>
    2270: a2 ff        	ldx	#$ff
    2272: c6 12        	dec	$12                     ; 0x2012 <printf+0x977>
    2274: e4 12        	cpx	$12                     ; 0x2012 <printf+0x977>
    2276: d0 02        	bne	$227a <printf+0xbdf>
    2278: c6 13        	dec	$13                     ; 0x2013 <printf+0x978>
    227a: a9 00        	lda	#$0
    227c: 92 12        	sta	($12)                   ; 0x2012 <printf+0x977>
    227e: e6 a2        	inc	$a2                     ; 0x20a2 <printf+0xa07>
    2280: d0 02        	bne	$2284 <printf+0xbe9>
    2282: e6 a3        	inc	$a3                     ; 0x20a3 <printf+0xa08>
    2284: a6 a3        	ldx	$a3                     ; 0x20a3 <printf+0xa08>
    2286: e4 a7        	cpx	$a7                     ; 0x20a7 <printf+0xa0c>
    2288: f0 03        	beq	$228d <printf+0xbf2>
    228a: 4c 10 17     	jmp	$1710 <printf+0x75>
    228d: a6 a2        	ldx	$a2                     ; 0x20a2 <printf+0xa07>
    228f: e4 a6        	cpx	$a6                     ; 0x20a6 <printf+0xa0b>
    2291: f0 03        	beq	$2296 <printf+0xbfb>
    2293: 4c 10 17     	jmp	$1710 <printf+0x75>
    2296: b2 a6        	lda	($a6)                   ; 0x20a6 <printf+0xa0b>
    2298: a2 00        	ldx	#$0
    229a: 86 a4        	stx	$a4                     ; 0x20a4 <printf+0xa09>
    229c: a2 00        	ldx	#$0
    229e: 86 a5        	stx	$a5                     ; 0x20a5 <printf+0xa0a>
    22a0: 4c 24 17     	jmp	$1724 <printf+0x89>
    22a3: e4 a9        	cpx	$a9                     ; 0x20a9 <printf+0xa0e>
    22a5: a6 25        	ldx	$25                     ; 0x2025 <printf+0x98a>
    22a7: b0 03        	bcs	$22ac <printf+0xc11>
    22a9: 4c 77 1d     	jmp	$1d77 <printf+0x6dc>
    22ac: a5 24        	lda	$24                     ; 0x2024 <printf+0x989>
    22ae: 85 a8        	sta	$a8                     ; 0x20a8 <printf+0xa0d>
    22b0: 64 a9        	stz	$a9                     ; 0x20a9 <printf+0xa0e>
    22b2: e6 a8        	inc	$a8                     ; 0x20a8 <printf+0xa0d>
    22b4: f0 03        	beq	$22b9 <printf+0xc1e>
    22b6: 4c 77 1d     	jmp	$1d77 <printf+0x6dc>
    22b9: e6 a9        	inc	$a9                     ; 0x20a9 <printf+0xa0e>
    22bb: 4c 77 1d     	jmp	$1d77 <printf+0x6dc>
    22be: a2 58        	ldx	#$58
    22c0: 86 e4        	stx	$e4                     ; 0x20e4 <printf+0xa49>
    22c2: a2 01        	ldx	#$1
    22c4: 86 df        	stx	$df                     ; 0x20df <printf+0xa44>
    22c6: a2 30        	ldx	#$30
    22c8: 86 e3        	stx	$e3                     ; 0x20e3 <printf+0xa48>
    22ca: a9 02        	lda	#$2
    22cc: a2 00        	ldx	#$0
    22ce: 86 e0        	stx	$e0                     ; 0x20e0 <printf+0xa45>
    22d0: 4c b8 1d     	jmp	$1db8 <printf+0x71d>
    22d3: 64 ab        	stz	$ab                     ; 0x20ab <printf+0xa10>
    22d5: 64 aa        	stz	$aa                     ; 0x20aa <printf+0xa0f>
    22d7: 4c 0d 20     	jmp	$200d <printf+0x972>
    22da: fa           	plx
    22db: 86 25        	stx	$25                     ; 0x2025 <printf+0x98a>
    22dd: fa           	plx
    22de: 86 24        	stx	$24                     ; 0x2024 <printf+0x989>
    22e0: 60           	rts

000022e1 <memcpy>:
    22e1: a8           	tay
    22e2: 8a           	txa
    22e3: d0 03        	bne	$22e8 <memcpy+0x7>
    22e5: 98           	tya
    22e6: f0 24        	beq	$230c <memcpy+0x2b>
    22e8: a5 12        	lda	$12                     ; 0x2012 <printf+0x977>
    22ea: 85 16        	sta	$16                     ; 0x2016 <printf+0x97b>
    22ec: a5 13        	lda	$13                     ; 0x2013 <printf+0x978>
    22ee: 85 17        	sta	$17                     ; 0x2017 <printf+0x97c>
    22f0: b2 14        	lda	($14)                   ; 0x2014 <printf+0x979>
    22f2: 92 16        	sta	($16)                   ; 0x2016 <printf+0x97b>
    22f4: e6 16        	inc	$16                     ; 0x2016 <printf+0x97b>
    22f6: d0 02        	bne	$22fa <memcpy+0x19>
    22f8: e6 17        	inc	$17                     ; 0x2017 <printf+0x97c>
    22fa: e6 14        	inc	$14                     ; 0x2014 <printf+0x979>
    22fc: d0 02        	bne	$2300 <memcpy+0x1f>
    22fe: e6 15        	inc	$15                     ; 0x2015 <printf+0x97a>
    2300: 88           	dey
    2301: c0 ff        	cpy	#$ff
    2303: d0 01        	bne	$2306 <memcpy+0x25>
    2305: ca           	dex
    2306: 8a           	txa
    2307: d0 e7        	bne	$22f0 <memcpy+0xf>
    2309: 98           	tya
    230a: d0 e4        	bne	$22f0 <memcpy+0xf>
    230c: 60           	rts

0000230d <__memset>:
    230d: a4 14        	ldy	$14                     ; 0x2014 <printf+0x979>
    230f: d0 04        	bne	$2315 <__memset+0x8>
    2311: e0 00        	cpx	#$0
    2313: f0 17        	beq	$232c <__memset+0x1f>
    2315: 92 12        	sta	($12)                   ; 0x2012 <printf+0x977>
    2317: e6 12        	inc	$12                     ; 0x2012 <printf+0x977>
    2319: d0 02        	bne	$231d <__memset+0x10>
    231b: e6 13        	inc	$13                     ; 0x2013 <printf+0x978>
    231d: ca           	dex
    231e: e0 ff        	cpx	#$ff
    2320: d0 02        	bne	$2324 <__memset+0x17>
    2322: c6 14        	dec	$14                     ; 0x2014 <printf+0x979>
    2324: a4 14        	ldy	$14                     ; 0x2014 <printf+0x979>
    2326: d0 ed        	bne	$2315 <__memset+0x8>
    2328: e0 00        	cpx	#$0
    232a: d0 e9        	bne	$2315 <__memset+0x8>
    232c: 60           	rts
