
fileWrite.elf:	file format elf32-mos

SYMBOL TABLE:
00000000 l    df *ABS*	00000000 zero-bss.c
00000000 l    df *ABS*	00000000 zero-zp-bss.c
00000000 l    df *ABS*	00000000 ld-temp.o
00000035 l     O .zp.bss	00000007 kernelEventData
00002e82 l     O .rodata	00000030 textColors
00000030 l     O .zp.bss	00000001 _col
00000031 l     O .zp.bss	00000001 _row
00003003 l     O .bss	00000004 _BITMAP_BASE.0
00003007 l     O .bss	00000004 _BITMAP_BASE.1
0000300b l     O .bss	00000004 _BITMAP_BASE.2
0000300f l     O .bss	00000008 _dirStream
00000034 l     O .zp.bss	00000001 kernelError
00002025 l     F .text	00000bd9 printf
0000155e l     F .text	00000378 fileOpen
000018d6 l     F .text	00000483 fileWrite
0000003c l     O .zp.bss	00000002 _ZN12_GLOBAL__N_19free_sizeE
0000003e l     O .zp.bss	00000002 _ZN12_GLOBAL__N_19free_listE
0000311a l     O .bss	00000001 _ZN12_GLOBAL__N_19last_freeE
00001d59 l     F .text	000000e8 fileReadDir
00003119 l     O .bss	00000001 _ZN12_GLOBAL__N_111initializedE
0000044c l     F .text	000000d7 _ZN12_GLOBAL__N_19FreeChunk6removeEv
00000316 l     F .text	00000135 _ZN12_GLOBAL__N_19FreeChunk6insertEPvj
00000032 l     O .zp.bss	00000002 __putchar.s
00003017 l     O .bss	00000102 fileReadDir.fileDirEntS
00001e46 l     F .text	000000d3 _ZN12_GLOBAL__N_13putEcP6Status
00002bfe l     F .text	000001e7 putchar
00001f19 l     F .text	0000010c _ZN12_GLOBAL__N_112print_stringEPKcP6Status
00000549 g     F .text	00001015 main
00000311 g       .text	00000000 __after_main
00000300 g       .text	00000000 __do_init_stack
00000308 g       .text	00000000 __do_zero_bss
00000523 g     F .text	00000013 __zero_bss
0000030b g       .text	00000000 __do_zero_zp_bss
00000536 g     F .text	00000013 __zero_zp_bss
00001e41 g     F .text	00000005 exit
00000314 g       .text	00000000 _fini
00002e31 g       .rodata	00000000 __set_v
00002e11  w    F .text	00000020 __memset
00001000  w      *ABS*	00000000 __heap_default_limit
0000311c g       .noinit	00000000 __heap_start
00002de5  w    F .text	0000002c memcpy
00000010 g       *ABS*	00000000 __rc0
00000012 g       *ABS*	00000000 __rc2
00000014 g       *ABS*	00000000 __rc4
00000016 g       *ABS*	00000000 __rc6
00000018 g       *ABS*	00000000 __rc8
0000001a g       *ABS*	00000000 __rc10
0000001c g       *ABS*	00000000 __rc12
0000001e g       *ABS*	00000000 __rc14
00000020 g       *ABS*	00000000 __rc16
00000022 g       *ABS*	00000000 __rc18
00000024 g       *ABS*	00000000 __rc20
00000026 g       *ABS*	00000000 __rc22
00000028 g       *ABS*	00000000 __rc24
0000002a g       *ABS*	00000000 __rc26
0000002c g       *ABS*	00000000 __rc28
0000002e g       *ABS*	00000000 __rc30
0000002f g       *ABS*	00000000 __rc31
00000300 g       *ABS*	00000000 __f256_start
0000c000 g       *ABS*	00000000 __stack
0000c000 g       *ABS*	00000000 __SLOT_ADDR
0800c000 g       *ABS*	00000000 __block8_lma
00002000 g       *ABS*	00000000 __BLOCK_SIZE
0900c000 g       *ABS*	00000000 __block9_lma
0a00c000 g       *ABS*	00000000 __block10_lma
0b00c000 g       *ABS*	00000000 __block11_lma
0c00c000 g       *ABS*	00000000 __block12_lma
0d00c000 g       *ABS*	00000000 __block13_lma
0e00c000 g       *ABS*	00000000 __block14_lma
0f00c000 g       *ABS*	00000000 __block15_lma
1000c000 g       *ABS*	00000000 __block16_lma
1100c000 g       *ABS*	00000000 __block17_lma
1200c000 g       *ABS*	00000000 __block18_lma
1300c000 g       *ABS*	00000000 __block19_lma
1400c000 g       *ABS*	00000000 __block20_lma
1500c000 g       *ABS*	00000000 __block21_lma
1600c000 g       *ABS*	00000000 __block22_lma
1700c000 g       *ABS*	00000000 __block23_lma
00003003 g       .bss	00000000 __bss_start
00000300 g       .text	00000000 _start
0000002d g       *ABS*	00000000 __rc29
0000002b g       *ABS*	00000000 __rc27
00000029 g       *ABS*	00000000 __rc25
00000027 g       *ABS*	00000000 __rc23
00000025 g       *ABS*	00000000 __rc21
00000023 g       *ABS*	00000000 __rc19
00000021 g       *ABS*	00000000 __rc17
0000001f g       *ABS*	00000000 __rc15
0000001d g       *ABS*	00000000 __rc13
0000001b g       *ABS*	00000000 __rc11
00000019 g       *ABS*	00000000 __rc9
00000017 g       *ABS*	00000000 __rc7
00000015 g       *ABS*	00000000 __rc5
00000013 g       *ABS*	00000000 __rc3
00000011 g       *ABS*	00000000 __rc1
00000030 g       .zp.data	00000000 __zp_data_start
00000300 g       *ABS*	00000000 __zp_data_load_start
00000000 g       *ABS*	00000000 __zp_data_size
00000030 g       .zp.bss	00000000 __zp_bss_start
00000010 g       *ABS*	00000000 __zp_bss_size
00000300 g       .text	00000000 _init
00002e31 g       .text	00000000 __init_array_start
00002e31 g       .text	00000000 __init_array_end
00002e31 g       .text	00000000 __fini_array_start
00002e31 g       .text	00000000 __fini_array_end
00003003 g       .data	00000000 __data_start
00003003 g       .data	00000000 __data_end
00003003 g       *ABS*	00000000 __data_load_start
00000000 g       *ABS*	00000000 __data_size
0000311b g       .bss	00000000 __bss_end
00000118 g       *ABS*	00000000 __bss_size
0000311b g       .noinit	00000000 end_block8
0000311b g       .noinit	00000000 end_block9
0000311b g       .noinit	00000000 end_block10
0000311b g       .noinit	00000000 end_block11
0000311b g       .noinit	00000000 end_block12
0000311b g       .noinit	00000000 end_block13
0000311b g       .noinit	00000000 end_block14
0000311b g       .noinit	00000000 end_block15
0000311b g       .noinit	00000000 end_block16
0000311b g       .noinit	00000000 end_block17
0000311b g       .noinit	00000000 end_block18
0000311b g       .noinit	00000000 end_block19
0000311b g       .noinit	00000000 end_block20
0000311b g       .noinit	00000000 end_block21
0000311b g       .noinit	00000000 end_block22
0000311b g       .noinit	00000000 end_block23

Disassembly of section .text:

00000300 <_start>:
     300: a9 00        	lda	#$0
     302: 85 10        	sta	$10                     ; 0x2010 <_ZN12_GLOBAL__N_112print_stringEPKcP6Status+0xf7>
     304: a9 c0        	lda	#$c0
     306: 85 11        	sta	$11                     ; 0x2011 <_ZN12_GLOBAL__N_112print_stringEPKcP6Status+0xf8>

00000308 <__do_zero_bss>:
     308: 20 23 05     	jsr	$523 <__zero_bss>

0000030b <__do_zero_zp_bss>:
     30b: 20 36 05     	jsr	$536 <__zero_zp_bss>
     30e: 20 49 05     	jsr	$549 <main>

00000311 <__after_main>:
     311: 4c 41 1e     	jmp	$1e41 <exit>

00000314 <_fini>:
     314: 60           	rts
     315: 00           	brk

00000316 <_ZN12_GLOBAL__N_19FreeChunk6insertEPvj>:
     316: 85 16        	sta	$16                     ; 0x2016 <_ZN12_GLOBAL__N_112print_stringEPKcP6Status+0xfd>
     318: 29 fe        	and	#$fe
     31a: 85 14        	sta	$14                     ; 0x2014 <_ZN12_GLOBAL__N_112print_stringEPKcP6Status+0xfb>
     31c: a0 01        	ldy	#$1
     31e: 98           	tya
     31f: 32 12        	and	($12)                   ; 0x2012 <_ZN12_GLOBAL__N_112print_stringEPKcP6Status+0xf9>
     321: 05 14        	ora	$14                     ; 0x2014 <_ZN12_GLOBAL__N_112print_stringEPKcP6Status+0xfb>
     323: 92 12        	sta	($12)                   ; 0x2012 <_ZN12_GLOBAL__N_112print_stringEPKcP6Status+0xf9>
     325: a5 12        	lda	$12                     ; 0x2012 <_ZN12_GLOBAL__N_112print_stringEPKcP6Status+0xf9>
     327: 18           	clc
     328: 65 14        	adc	$14                     ; 0x2014 <_ZN12_GLOBAL__N_112print_stringEPKcP6Status+0xfb>
     32a: 85 15        	sta	$15                     ; 0x2015 <_ZN12_GLOBAL__N_112print_stringEPKcP6Status+0xfc>
     32c: 8a           	txa
     32d: 65 13        	adc	$13                     ; 0x2013 <_ZN12_GLOBAL__N_112print_stringEPKcP6Status+0xfa>
     32f: 85 14        	sta	$14                     ; 0x2014 <_ZN12_GLOBAL__N_112print_stringEPKcP6Status+0xfb>
     331: 18           	clc
     332: a5 15        	lda	$15                     ; 0x2015 <_ZN12_GLOBAL__N_112print_stringEPKcP6Status+0xfc>
     334: 69 fe        	adc	#$fe
     336: 85 17        	sta	$17                     ; 0x2017 <_ZN12_GLOBAL__N_112print_stringEPKcP6Status+0xfe>
     338: a5 14        	lda	$14                     ; 0x2014 <_ZN12_GLOBAL__N_112print_stringEPKcP6Status+0xfb>
     33a: 69 ff        	adc	#$ff
     33c: 85 15        	sta	$15                     ; 0x2015 <_ZN12_GLOBAL__N_112print_stringEPKcP6Status+0xfc>
     33e: a5 17        	lda	$17                     ; 0x2017 <_ZN12_GLOBAL__N_112print_stringEPKcP6Status+0xfe>
     340: 85 14        	sta	$14                     ; 0x2014 <_ZN12_GLOBAL__N_112print_stringEPKcP6Status+0xfb>
     342: 8a           	txa
     343: 91 12        	sta	($12),y                 ; 0x2012 <_ZN12_GLOBAL__N_112print_stringEPKcP6Status+0xf9>
     345: a5 16        	lda	$16                     ; 0x2016 <_ZN12_GLOBAL__N_112print_stringEPKcP6Status+0xfd>
     347: 92 14        	sta	($14)                   ; 0x2014 <_ZN12_GLOBAL__N_112print_stringEPKcP6Status+0xfb>
     349: 8a           	txa
     34a: 91 14        	sta	($14),y                 ; 0x2014 <_ZN12_GLOBAL__N_112print_stringEPKcP6Status+0xfb>
     34c: b1 12        	lda	($12),y                 ; 0x2012 <_ZN12_GLOBAL__N_112print_stringEPKcP6Status+0xf9>
     34e: 85 14        	sta	$14                     ; 0x2014 <_ZN12_GLOBAL__N_112print_stringEPKcP6Status+0xfb>
     350: a9 fe        	lda	#$fe
     352: 32 12        	and	($12)                   ; 0x2012 <_ZN12_GLOBAL__N_112print_stringEPKcP6Status+0xf9>
     354: 18           	clc
     355: 65 3c        	adc	$3c                     ; 0x203c <printf+0x17>
     357: aa           	tax
     358: a5 14        	lda	$14                     ; 0x2014 <_ZN12_GLOBAL__N_112print_stringEPKcP6Status+0xfb>
     35a: 65 3d        	adc	$3d                     ; 0x203d <printf+0x18>
     35c: a8           	tay
     35d: 18           	clc
     35e: 8a           	txa
     35f: 69 fe        	adc	#$fe
     361: aa           	tax
     362: 98           	tya
     363: 69 ff        	adc	#$ff
     365: 86 3c        	stx	$3c                     ; 0x203c <printf+0x17>
     367: 85 3d        	sta	$3d                     ; 0x203d <printf+0x18>
     369: a6 3e        	ldx	$3e                     ; 0x203e <printf+0x19>
     36b: 86 16        	stx	$16                     ; 0x2016 <_ZN12_GLOBAL__N_112print_stringEPKcP6Status+0xfd>
     36d: a4 3f        	ldy	$3f                     ; 0x203f <printf+0x1a>
     36f: a2 00        	ldx	#$0
     371: 86 14        	stx	$14                     ; 0x2014 <_ZN12_GLOBAL__N_112print_stringEPKcP6Status+0xfb>
     373: a2 00        	ldx	#$0
     375: 86 15        	stx	$15                     ; 0x2015 <_ZN12_GLOBAL__N_112print_stringEPKcP6Status+0xfc>
     377: c4 15        	cpy	$15                     ; 0x2015 <_ZN12_GLOBAL__N_112print_stringEPKcP6Status+0xfc>
     379: d0 3c        	bne	$3b7 <_ZN12_GLOBAL__N_19FreeChunk6insertEPvj+0xa1>
     37b: a6 16        	ldx	$16                     ; 0x2016 <_ZN12_GLOBAL__N_112print_stringEPKcP6Status+0xfd>
     37d: e4 14        	cpx	$14                     ; 0x2014 <_ZN12_GLOBAL__N_112print_stringEPKcP6Status+0xfb>
     37f: d0 36        	bne	$3b7 <_ZN12_GLOBAL__N_19FreeChunk6insertEPvj+0xa1>
     381: a0 04        	ldy	#$4
     383: a5 12        	lda	$12                     ; 0x2012 <_ZN12_GLOBAL__N_112print_stringEPKcP6Status+0xf9>
     385: 18           	clc
     386: 69 04        	adc	#$4
     388: 85 14        	sta	$14                     ; 0x2014 <_ZN12_GLOBAL__N_112print_stringEPKcP6Status+0xfb>
     38a: a5 13        	lda	$13                     ; 0x2013 <_ZN12_GLOBAL__N_112print_stringEPKcP6Status+0xfa>
     38c: 69 00        	adc	#$0
     38e: 18           	clc
     38f: 85 15        	sta	$15                     ; 0x2015 <_ZN12_GLOBAL__N_112print_stringEPKcP6Status+0xfc>
     391: a5 12        	lda	$12                     ; 0x2012 <_ZN12_GLOBAL__N_112print_stringEPKcP6Status+0xf9>
     393: 91 12        	sta	($12),y                 ; 0x2012 <_ZN12_GLOBAL__N_112print_stringEPKcP6Status+0xf9>
     395: a0 02        	ldy	#$2
     397: 85 17        	sta	$17                     ; 0x2017 <_ZN12_GLOBAL__N_112print_stringEPKcP6Status+0xfe>
     399: 69 02        	adc	#$2
     39b: 85 16        	sta	$16                     ; 0x2016 <_ZN12_GLOBAL__N_112print_stringEPKcP6Status+0xfd>
     39d: a5 17        	lda	$17                     ; 0x2017 <_ZN12_GLOBAL__N_112print_stringEPKcP6Status+0xfe>
     39f: 91 12        	sta	($12),y                 ; 0x2012 <_ZN12_GLOBAL__N_112print_stringEPKcP6Status+0xf9>
     3a1: a5 13        	lda	$13                     ; 0x2013 <_ZN12_GLOBAL__N_112print_stringEPKcP6Status+0xfa>
     3a3: 69 00        	adc	#$0
     3a5: 85 17        	sta	$17                     ; 0x2017 <_ZN12_GLOBAL__N_112print_stringEPKcP6Status+0xfe>
     3a7: 88           	dey
     3a8: a5 13        	lda	$13                     ; 0x2013 <_ZN12_GLOBAL__N_112print_stringEPKcP6Status+0xfa>
     3aa: 91 14        	sta	($14),y                 ; 0x2014 <_ZN12_GLOBAL__N_112print_stringEPKcP6Status+0xfb>
     3ac: 91 16        	sta	($16),y                 ; 0x2016 <_ZN12_GLOBAL__N_112print_stringEPKcP6Status+0xfd>
     3ae: a6 12        	ldx	$12                     ; 0x2012 <_ZN12_GLOBAL__N_112print_stringEPKcP6Status+0xf9>
     3b0: 86 3e        	stx	$3e                     ; 0x203e <printf+0x19>
     3b2: a6 13        	ldx	$13                     ; 0x2013 <_ZN12_GLOBAL__N_112print_stringEPKcP6Status+0xfa>
     3b4: 86 3f        	stx	$3f                     ; 0x203f <printf+0x1a>
     3b6: 60           	rts
     3b7: a6 12        	ldx	$12                     ; 0x2012 <_ZN12_GLOBAL__N_112print_stringEPKcP6Status+0xf9>
     3b9: a5 12        	lda	$12                     ; 0x2012 <_ZN12_GLOBAL__N_112print_stringEPKcP6Status+0xf9>
     3bb: 18           	clc
     3bc: 69 02        	adc	#$2
     3be: 85 14        	sta	$14                     ; 0x2014 <_ZN12_GLOBAL__N_112print_stringEPKcP6Status+0xfb>
     3c0: 84 18        	sty	$18                     ; 0x2018 <_ZN12_GLOBAL__N_112print_stringEPKcP6Status+0xff>
     3c2: a5 13        	lda	$13                     ; 0x2013 <_ZN12_GLOBAL__N_112print_stringEPKcP6Status+0xfa>
     3c4: 69 00        	adc	#$0
     3c6: 85 15        	sta	$15                     ; 0x2015 <_ZN12_GLOBAL__N_112print_stringEPKcP6Status+0xfc>
     3c8: a5 16        	lda	$16                     ; 0x2016 <_ZN12_GLOBAL__N_112print_stringEPKcP6Status+0xfd>
     3ca: 84 17        	sty	$17                     ; 0x2017 <_ZN12_GLOBAL__N_112print_stringEPKcP6Status+0xfe>
     3cc: a0 02        	ldy	#$2
     3ce: 91 12        	sta	($12),y                 ; 0x2012 <_ZN12_GLOBAL__N_112print_stringEPKcP6Status+0xf9>
     3d0: 85 19        	sta	$19                     ; 0x2019 <_ZN12_GLOBAL__N_112print_stringEPKcP6Status+0x100>
     3d2: 88           	dey
     3d3: a5 18        	lda	$18                     ; 0x2018 <_ZN12_GLOBAL__N_112print_stringEPKcP6Status+0xff>
     3d5: 91 14        	sta	($14),y                 ; 0x2014 <_ZN12_GLOBAL__N_112print_stringEPKcP6Status+0xfb>
     3d7: 18           	clc
     3d8: a5 19        	lda	$19                     ; 0x2019 <_ZN12_GLOBAL__N_112print_stringEPKcP6Status+0x100>
     3da: 69 04        	adc	#$4
     3dc: a8           	tay
     3dd: a5 18        	lda	$18                     ; 0x2018 <_ZN12_GLOBAL__N_112print_stringEPKcP6Status+0xff>
     3df: 69 00        	adc	#$0
     3e1: 85 19        	sta	$19                     ; 0x2019 <_ZN12_GLOBAL__N_112print_stringEPKcP6Status+0x100>
     3e3: 84 18        	sty	$18                     ; 0x2018 <_ZN12_GLOBAL__N_112print_stringEPKcP6Status+0xff>
     3e5: 8a           	txa
     3e6: 18           	clc
     3e7: 69 04        	adc	#$4
     3e9: 85 1a        	sta	$1a                     ; 0x201a <_ZN12_GLOBAL__N_112print_stringEPKcP6Status+0x101>
     3eb: a5 13        	lda	$13                     ; 0x2013 <_ZN12_GLOBAL__N_112print_stringEPKcP6Status+0xfa>
     3ed: 69 00        	adc	#$0
     3ef: 85 1b        	sta	$1b                     ; 0x201b <_ZN12_GLOBAL__N_112print_stringEPKcP6Status+0x102>
     3f1: a0 04        	ldy	#$4
     3f3: b1 16        	lda	($16),y                 ; 0x2016 <_ZN12_GLOBAL__N_112print_stringEPKcP6Status+0xfd>
     3f5: 85 16        	sta	$16                     ; 0x2016 <_ZN12_GLOBAL__N_112print_stringEPKcP6Status+0xfd>
     3f7: 85 1d        	sta	$1d                     ; 0x201d <_ZN12_GLOBAL__N_112print_stringEPKcP6Status+0x104>
     3f9: a0 01        	ldy	#$1
     3fb: b1 18        	lda	($18),y                 ; 0x2018 <_ZN12_GLOBAL__N_112print_stringEPKcP6Status+0xff>
     3fd: 85 17        	sta	$17                     ; 0x2017 <_ZN12_GLOBAL__N_112print_stringEPKcP6Status+0xfe>
     3ff: 85 19        	sta	$19                     ; 0x2019 <_ZN12_GLOBAL__N_112print_stringEPKcP6Status+0x100>
     401: a0 04        	ldy	#$4
     403: a5 1d        	lda	$1d                     ; 0x201d <_ZN12_GLOBAL__N_112print_stringEPKcP6Status+0x104>
     405: 91 12        	sta	($12),y                 ; 0x2012 <_ZN12_GLOBAL__N_112print_stringEPKcP6Status+0xf9>
     407: a5 19        	lda	$19                     ; 0x2019 <_ZN12_GLOBAL__N_112print_stringEPKcP6Status+0x100>
     409: a0 01        	ldy	#$1
     40b: 91 1a        	sta	($1a),y                 ; 0x201a <_ZN12_GLOBAL__N_112print_stringEPKcP6Status+0x101>
     40d: 18           	clc
     40e: a5 1d        	lda	$1d                     ; 0x201d <_ZN12_GLOBAL__N_112print_stringEPKcP6Status+0x104>
     410: 69 02        	adc	#$2
     412: 85 18        	sta	$18                     ; 0x2018 <_ZN12_GLOBAL__N_112print_stringEPKcP6Status+0xff>
     414: a5 19        	lda	$19                     ; 0x2019 <_ZN12_GLOBAL__N_112print_stringEPKcP6Status+0x100>
     416: 69 00        	adc	#$0
     418: 85 19        	sta	$19                     ; 0x2019 <_ZN12_GLOBAL__N_112print_stringEPKcP6Status+0x100>
     41a: 8a           	txa
     41b: c8           	iny
     41c: 91 16        	sta	($16),y                 ; 0x2016 <_ZN12_GLOBAL__N_112print_stringEPKcP6Status+0xfd>
     41e: a5 13        	lda	$13                     ; 0x2013 <_ZN12_GLOBAL__N_112print_stringEPKcP6Status+0xfa>
     420: 88           	dey
     421: 91 18        	sta	($18),y                 ; 0x2018 <_ZN12_GLOBAL__N_112print_stringEPKcP6Status+0xff>
     423: c8           	iny
     424: b1 12        	lda	($12),y                 ; 0x2012 <_ZN12_GLOBAL__N_112print_stringEPKcP6Status+0xf9>
     426: 85 16        	sta	$16                     ; 0x2016 <_ZN12_GLOBAL__N_112print_stringEPKcP6Status+0xfd>
     428: 85 18        	sta	$18                     ; 0x2018 <_ZN12_GLOBAL__N_112print_stringEPKcP6Status+0xff>
     42a: 88           	dey
     42b: b1 14        	lda	($14),y                 ; 0x2014 <_ZN12_GLOBAL__N_112print_stringEPKcP6Status+0xfb>
     42d: 85 17        	sta	$17                     ; 0x2017 <_ZN12_GLOBAL__N_112print_stringEPKcP6Status+0xfe>
     42f: 85 14        	sta	$14                     ; 0x2014 <_ZN12_GLOBAL__N_112print_stringEPKcP6Status+0xfb>
     431: 8a           	txa
     432: a0 04        	ldy	#$4
     434: 91 16        	sta	($16),y                 ; 0x2016 <_ZN12_GLOBAL__N_112print_stringEPKcP6Status+0xfd>
     436: 18           	clc
     437: a5 18        	lda	$18                     ; 0x2018 <_ZN12_GLOBAL__N_112print_stringEPKcP6Status+0xff>
     439: 69 04        	adc	#$4
     43b: a8           	tay
     43c: a5 14        	lda	$14                     ; 0x2014 <_ZN12_GLOBAL__N_112print_stringEPKcP6Status+0xfb>
     43e: 69 00        	adc	#$0
     440: 84 14        	sty	$14                     ; 0x2014 <_ZN12_GLOBAL__N_112print_stringEPKcP6Status+0xfb>
     442: 85 15        	sta	$15                     ; 0x2015 <_ZN12_GLOBAL__N_112print_stringEPKcP6Status+0xfc>
     444: a5 13        	lda	$13                     ; 0x2013 <_ZN12_GLOBAL__N_112print_stringEPKcP6Status+0xfa>
     446: a0 01        	ldy	#$1
     448: 91 14        	sta	($14),y                 ; 0x2014 <_ZN12_GLOBAL__N_112print_stringEPKcP6Status+0xfb>
     44a: 60           	rts
     44b: 00           	brk

0000044c <_ZN12_GLOBAL__N_19FreeChunk6removeEv>:
     44c: a0 01        	ldy	#$1
     44e: a9 fe        	lda	#$fe
     450: 32 12        	and	($12)                   ; 0x2012 <_ZN12_GLOBAL__N_112print_stringEPKcP6Status+0xf9>
     452: 85 14        	sta	$14                     ; 0x2014 <_ZN12_GLOBAL__N_112print_stringEPKcP6Status+0xfb>
     454: a5 3c        	lda	$3c                     ; 0x203c <printf+0x17>
     456: a6 3d        	ldx	$3d                     ; 0x203d <printf+0x18>
     458: 86 15        	stx	$15                     ; 0x2015 <_ZN12_GLOBAL__N_112print_stringEPKcP6Status+0xfc>
     45a: 38           	sec
     45b: e5 14        	sbc	$14                     ; 0x2014 <_ZN12_GLOBAL__N_112print_stringEPKcP6Status+0xfb>
     45d: aa           	tax
     45e: a5 15        	lda	$15                     ; 0x2015 <_ZN12_GLOBAL__N_112print_stringEPKcP6Status+0xfc>
     460: f1 12        	sbc	($12),y                 ; 0x2012 <_ZN12_GLOBAL__N_112print_stringEPKcP6Status+0xf9>
     462: 85 14        	sta	$14                     ; 0x2014 <_ZN12_GLOBAL__N_112print_stringEPKcP6Status+0xfb>
     464: 18           	clc
     465: 8a           	txa
     466: 69 02        	adc	#$2
     468: 85 15        	sta	$15                     ; 0x2015 <_ZN12_GLOBAL__N_112print_stringEPKcP6Status+0xfc>
     46a: a5 14        	lda	$14                     ; 0x2014 <_ZN12_GLOBAL__N_112print_stringEPKcP6Status+0xfb>
     46c: 69 00        	adc	#$0
     46e: a6 15        	ldx	$15                     ; 0x2015 <_ZN12_GLOBAL__N_112print_stringEPKcP6Status+0xfc>
     470: 86 3c        	stx	$3c                     ; 0x203c <printf+0x17>
     472: 85 3d        	sta	$3d                     ; 0x203d <printf+0x18>
     474: a5 12        	lda	$12                     ; 0x2012 <_ZN12_GLOBAL__N_112print_stringEPKcP6Status+0xf9>
     476: 18           	clc
     477: 69 02        	adc	#$2
     479: 85 14        	sta	$14                     ; 0x2014 <_ZN12_GLOBAL__N_112print_stringEPKcP6Status+0xfb>
     47b: a5 13        	lda	$13                     ; 0x2013 <_ZN12_GLOBAL__N_112print_stringEPKcP6Status+0xfa>
     47d: 69 00        	adc	#$0
     47f: c8           	iny
     480: 85 15        	sta	$15                     ; 0x2015 <_ZN12_GLOBAL__N_112print_stringEPKcP6Status+0xfc>
     482: b1 12        	lda	($12),y                 ; 0x2012 <_ZN12_GLOBAL__N_112print_stringEPKcP6Status+0xf9>
     484: aa           	tax
     485: 88           	dey
     486: b1 14        	lda	($14),y                 ; 0x2014 <_ZN12_GLOBAL__N_112print_stringEPKcP6Status+0xfb>
     488: 85 19        	sta	$19                     ; 0x2019 <_ZN12_GLOBAL__N_112print_stringEPKcP6Status+0x100>
     48a: c5 13        	cmp	$13                     ; 0x2013 <_ZN12_GLOBAL__N_112print_stringEPKcP6Status+0xfa>
     48c: d0 0f        	bne	$49d <_ZN12_GLOBAL__N_19FreeChunk6removeEv+0x51>
     48e: e4 12        	cpx	$12                     ; 0x2012 <_ZN12_GLOBAL__N_112print_stringEPKcP6Status+0xf9>
     490: d0 0b        	bne	$49d <_ZN12_GLOBAL__N_19FreeChunk6removeEv+0x51>
     492: a2 00        	ldx	#$0
     494: 86 14        	stx	$14                     ; 0x2014 <_ZN12_GLOBAL__N_112print_stringEPKcP6Status+0xfb>
     496: a2 00        	ldx	#$0
     498: 86 15        	stx	$15                     ; 0x2015 <_ZN12_GLOBAL__N_112print_stringEPKcP6Status+0xfc>
     49a: 4c 1a 05     	jmp	$51a <_ZN12_GLOBAL__N_19FreeChunk6removeEv+0xce>
     49d: 86 18        	stx	$18                     ; 0x2018 <_ZN12_GLOBAL__N_112print_stringEPKcP6Status+0xff>
     49f: a6 12        	ldx	$12                     ; 0x2012 <_ZN12_GLOBAL__N_112print_stringEPKcP6Status+0xf9>
     4a1: a5 12        	lda	$12                     ; 0x2012 <_ZN12_GLOBAL__N_112print_stringEPKcP6Status+0xf9>
     4a3: 86 1b        	stx	$1b                     ; 0x201b <_ZN12_GLOBAL__N_112print_stringEPKcP6Status+0x102>
     4a5: 18           	clc
     4a6: 69 04        	adc	#$4
     4a8: 85 14        	sta	$14                     ; 0x2014 <_ZN12_GLOBAL__N_112print_stringEPKcP6Status+0xfb>
     4aa: a5 13        	lda	$13                     ; 0x2013 <_ZN12_GLOBAL__N_112print_stringEPKcP6Status+0xfa>
     4ac: 69 00        	adc	#$0
     4ae: a0 04        	ldy	#$4
     4b0: 85 15        	sta	$15                     ; 0x2015 <_ZN12_GLOBAL__N_112print_stringEPKcP6Status+0xfc>
     4b2: b1 12        	lda	($12),y                 ; 0x2012 <_ZN12_GLOBAL__N_112print_stringEPKcP6Status+0xf9>
     4b4: 85 1c        	sta	$1c                     ; 0x201c <_ZN12_GLOBAL__N_112print_stringEPKcP6Status+0x103>
     4b6: 18           	clc
     4b7: 69 02        	adc	#$2
     4b9: 85 16        	sta	$16                     ; 0x2016 <_ZN12_GLOBAL__N_112print_stringEPKcP6Status+0xfd>
     4bb: a0 01        	ldy	#$1
     4bd: b1 14        	lda	($14),y                 ; 0x2014 <_ZN12_GLOBAL__N_112print_stringEPKcP6Status+0xfb>
     4bf: aa           	tax
     4c0: 69 00        	adc	#$0
     4c2: a4 16        	ldy	$16                     ; 0x2016 <_ZN12_GLOBAL__N_112print_stringEPKcP6Status+0xfd>
     4c4: 84 14        	sty	$14                     ; 0x2014 <_ZN12_GLOBAL__N_112print_stringEPKcP6Status+0xfb>
     4c6: 85 15        	sta	$15                     ; 0x2015 <_ZN12_GLOBAL__N_112print_stringEPKcP6Status+0xfc>
     4c8: a4 1c        	ldy	$1c                     ; 0x201c <_ZN12_GLOBAL__N_112print_stringEPKcP6Status+0x103>
     4ca: 84 16        	sty	$16                     ; 0x2016 <_ZN12_GLOBAL__N_112print_stringEPKcP6Status+0xfd>
     4cc: 86 17        	stx	$17                     ; 0x2017 <_ZN12_GLOBAL__N_112print_stringEPKcP6Status+0xfe>
     4ce: a0 02        	ldy	#$2
     4d0: a5 18        	lda	$18                     ; 0x2018 <_ZN12_GLOBAL__N_112print_stringEPKcP6Status+0xff>
     4d2: 91 16        	sta	($16),y                 ; 0x2016 <_ZN12_GLOBAL__N_112print_stringEPKcP6Status+0xfd>
     4d4: a5 19        	lda	$19                     ; 0x2019 <_ZN12_GLOBAL__N_112print_stringEPKcP6Status+0x100>
     4d6: 88           	dey
     4d7: 91 14        	sta	($14),y                 ; 0x2014 <_ZN12_GLOBAL__N_112print_stringEPKcP6Status+0xfb>
     4d9: 18           	clc
     4da: a5 1b        	lda	$1b                     ; 0x201b <_ZN12_GLOBAL__N_112print_stringEPKcP6Status+0x102>
     4dc: 69 02        	adc	#$2
     4de: 85 14        	sta	$14                     ; 0x2014 <_ZN12_GLOBAL__N_112print_stringEPKcP6Status+0xfb>
     4e0: a5 13        	lda	$13                     ; 0x2013 <_ZN12_GLOBAL__N_112print_stringEPKcP6Status+0xfa>
     4e2: 69 00        	adc	#$0
     4e4: 85 15        	sta	$15                     ; 0x2015 <_ZN12_GLOBAL__N_112print_stringEPKcP6Status+0xfc>
     4e6: c8           	iny
     4e7: b1 12        	lda	($12),y                 ; 0x2012 <_ZN12_GLOBAL__N_112print_stringEPKcP6Status+0xf9>
     4e9: 85 16        	sta	$16                     ; 0x2016 <_ZN12_GLOBAL__N_112print_stringEPKcP6Status+0xfd>
     4eb: 88           	dey
     4ec: b1 14        	lda	($14),y                 ; 0x2014 <_ZN12_GLOBAL__N_112print_stringEPKcP6Status+0xfb>
     4ee: a4 16        	ldy	$16                     ; 0x2016 <_ZN12_GLOBAL__N_112print_stringEPKcP6Status+0xfd>
     4f0: 84 14        	sty	$14                     ; 0x2014 <_ZN12_GLOBAL__N_112print_stringEPKcP6Status+0xfb>
     4f2: 85 15        	sta	$15                     ; 0x2015 <_ZN12_GLOBAL__N_112print_stringEPKcP6Status+0xfc>
     4f4: 85 17        	sta	$17                     ; 0x2017 <_ZN12_GLOBAL__N_112print_stringEPKcP6Status+0xfe>
     4f6: a0 04        	ldy	#$4
     4f8: a5 1c        	lda	$1c                     ; 0x201c <_ZN12_GLOBAL__N_112print_stringEPKcP6Status+0x103>
     4fa: 91 14        	sta	($14),y                 ; 0x2014 <_ZN12_GLOBAL__N_112print_stringEPKcP6Status+0xfb>
     4fc: 18           	clc
     4fd: a5 16        	lda	$16                     ; 0x2016 <_ZN12_GLOBAL__N_112print_stringEPKcP6Status+0xfd>
     4ff: 69 04        	adc	#$4
     501: 85 16        	sta	$16                     ; 0x2016 <_ZN12_GLOBAL__N_112print_stringEPKcP6Status+0xfd>
     503: a5 17        	lda	$17                     ; 0x2017 <_ZN12_GLOBAL__N_112print_stringEPKcP6Status+0xfe>
     505: 69 00        	adc	#$0
     507: 85 17        	sta	$17                     ; 0x2017 <_ZN12_GLOBAL__N_112print_stringEPKcP6Status+0xfe>
     509: 8a           	txa
     50a: a0 01        	ldy	#$1
     50c: 91 16        	sta	($16),y                 ; 0x2016 <_ZN12_GLOBAL__N_112print_stringEPKcP6Status+0xfd>
     50e: a6 3f        	ldx	$3f                     ; 0x203f <printf+0x1a>
     510: e4 13        	cpx	$13                     ; 0x2013 <_ZN12_GLOBAL__N_112print_stringEPKcP6Status+0xfa>
     512: d0 0e        	bne	$522 <_ZN12_GLOBAL__N_19FreeChunk6removeEv+0xd6>
     514: a6 3e        	ldx	$3e                     ; 0x203e <printf+0x19>
     516: e4 12        	cpx	$12                     ; 0x2012 <_ZN12_GLOBAL__N_112print_stringEPKcP6Status+0xf9>
     518: d0 08        	bne	$522 <_ZN12_GLOBAL__N_19FreeChunk6removeEv+0xd6>
     51a: a6 14        	ldx	$14                     ; 0x2014 <_ZN12_GLOBAL__N_112print_stringEPKcP6Status+0xfb>
     51c: a4 15        	ldy	$15                     ; 0x2015 <_ZN12_GLOBAL__N_112print_stringEPKcP6Status+0xfc>
     51e: 86 3e        	stx	$3e                     ; 0x203e <printf+0x19>
     520: 84 3f        	sty	$3f                     ; 0x203f <printf+0x1a>
     522: 60           	rts

00000523 <__zero_bss>:
     523: a2 18        	ldx	#$18
     525: a0 01        	ldy	#$1
     527: a9 03        	lda	#$3
     529: 85 12        	sta	$12                     ; 0x2012 <_ZN12_GLOBAL__N_112print_stringEPKcP6Status+0xf9>
     52b: a9 30        	lda	#$30
     52d: 85 13        	sta	$13                     ; 0x2013 <_ZN12_GLOBAL__N_112print_stringEPKcP6Status+0xfa>
     52f: a9 00        	lda	#$0
     531: 84 14        	sty	$14                     ; 0x2014 <_ZN12_GLOBAL__N_112print_stringEPKcP6Status+0xfb>
     533: 4c 11 2e     	jmp	$2e11 <__memset>

00000536 <__zero_zp_bss>:
     536: a2 10        	ldx	#$10
     538: a0 00        	ldy	#$0
     53a: a9 30        	lda	#$30
     53c: 85 12        	sta	$12                     ; 0x2012 <_ZN12_GLOBAL__N_112print_stringEPKcP6Status+0xf9>
     53e: a9 00        	lda	#$0
     540: 85 13        	sta	$13                     ; 0x2013 <_ZN12_GLOBAL__N_112print_stringEPKcP6Status+0xfa>
     542: a9 00        	lda	#$0
     544: 84 14        	sty	$14                     ; 0x2014 <_ZN12_GLOBAL__N_112print_stringEPKcP6Status+0xfb>
     546: 4c 11 2e     	jmp	$2e11 <__memset>

00000549 <main>:
     549: 18           	clc
     54a: a5 10        	lda	$10                     ; 0x2010 <_ZN12_GLOBAL__N_112print_stringEPKcP6Status+0xf7>
     54c: 69 d6        	adc	#$d6
     54e: 85 10        	sta	$10                     ; 0x2010 <_ZN12_GLOBAL__N_112print_stringEPKcP6Status+0xf7>
     550: a5 11        	lda	$11                     ; 0x2011 <_ZN12_GLOBAL__N_112print_stringEPKcP6Status+0xf8>
     552: 69 ff        	adc	#$ff
     554: 85 11        	sta	$11                     ; 0x2011 <_ZN12_GLOBAL__N_112print_stringEPKcP6Status+0xf8>
     556: a6 24        	ldx	$24                     ; 0x2024 <_ZN12_GLOBAL__N_112print_stringEPKcP6Status+0x10b>
     558: da           	phx
     559: a6 25        	ldx	$25                     ; 0x2025 <printf>
     55b: da           	phx
     55c: a6 26        	ldx	$26                     ; 0x2026 <printf+0x1>
     55e: da           	phx
     55f: a6 27        	ldx	$27                     ; 0x2027 <printf+0x2>
     561: da           	phx
     562: a5 28        	lda	$28                     ; 0x2028 <printf+0x3>
     564: a0 09        	ldy	#$9
     566: 91 10        	sta	($10),y                 ; 0x2010 <_ZN12_GLOBAL__N_112print_stringEPKcP6Status+0xf7>
     568: a5 29        	lda	$29                     ; 0x2029 <printf+0x4>
     56a: 88           	dey
     56b: 91 10        	sta	($10),y                 ; 0x2010 <_ZN12_GLOBAL__N_112print_stringEPKcP6Status+0xf7>
     56d: a5 2a        	lda	$2a                     ; 0x202a <printf+0x5>
     56f: 88           	dey
     570: 91 10        	sta	($10),y                 ; 0x2010 <_ZN12_GLOBAL__N_112print_stringEPKcP6Status+0xf7>
     572: a5 2b        	lda	$2b                     ; 0x202b <printf+0x6>
     574: 88           	dey
     575: 91 10        	sta	($10),y                 ; 0x2010 <_ZN12_GLOBAL__N_112print_stringEPKcP6Status+0xf7>
     577: a5 2c        	lda	$2c                     ; 0x202c <printf+0x7>
     579: 88           	dey
     57a: 91 10        	sta	($10),y                 ; 0x2010 <_ZN12_GLOBAL__N_112print_stringEPKcP6Status+0xf7>
     57c: a5 2d        	lda	$2d                     ; 0x202d <printf+0x8>
     57e: 88           	dey
     57f: 91 10        	sta	($10),y                 ; 0x2010 <_ZN12_GLOBAL__N_112print_stringEPKcP6Status+0xf7>
     581: a5 2e        	lda	$2e                     ; 0x202e <printf+0x9>
     583: 88           	dey
     584: 91 10        	sta	($10),y                 ; 0x2010 <_ZN12_GLOBAL__N_112print_stringEPKcP6Status+0xf7>
     586: a5 2f        	lda	$2f                     ; 0x202f <printf+0xa>
     588: 88           	dey
     589: 91 10        	sta	($10),y                 ; 0x2010 <_ZN12_GLOBAL__N_112print_stringEPKcP6Status+0xf7>
     58b: 64 1c        	stz	$1c                     ; 0x201c <_ZN12_GLOBAL__N_112print_stringEPKcP6Status+0x103>
     58d: a2 00        	ldx	#$0
     58f: 86 1a        	stx	$1a                     ; 0x201a <_ZN12_GLOBAL__N_112print_stringEPKcP6Status+0x101>
     591: a2 d0        	ldx	#$d0
     593: 86 1b        	stx	$1b                     ; 0x201b <_ZN12_GLOBAL__N_112print_stringEPKcP6Status+0x102>
     595: a2 00        	ldx	#$0
     597: 86 24        	stx	$24                     ; 0x2024 <_ZN12_GLOBAL__N_112print_stringEPKcP6Status+0x10b>
     599: a2 00        	ldx	#$0
     59b: 86 25        	stx	$25                     ; 0x2025 <printf>
     59d: a2 00        	ldx	#$0
     59f: 86 16        	stx	$16                     ; 0x2016 <_ZN12_GLOBAL__N_112print_stringEPKcP6Status+0xfd>
     5a1: a2 d8        	ldx	#$d8
     5a3: 86 17        	stx	$17                     ; 0x2017 <_ZN12_GLOBAL__N_112print_stringEPKcP6Status+0xfe>
     5a5: a2 00        	ldx	#$0
     5a7: a0 10        	ldy	#$10
     5a9: a9 1c        	lda	#$1c
     5ab: 86 12        	stx	$12                     ; 0x2012 <_ZN12_GLOBAL__N_112print_stringEPKcP6Status+0xf9>
     5ad: 84 13        	sty	$13                     ; 0x2013 <_ZN12_GLOBAL__N_112print_stringEPKcP6Status+0xfa>
     5af: 18           	clc
     5b0: 65 12        	adc	$12                     ; 0x2012 <_ZN12_GLOBAL__N_112print_stringEPKcP6Status+0xf9>
     5b2: 85 2e        	sta	$2e                     ; 0x202e <printf+0x9>
     5b4: a9 31        	lda	#$31
     5b6: 65 13        	adc	$13                     ; 0x2013 <_ZN12_GLOBAL__N_112print_stringEPKcP6Status+0xfa>
     5b8: 85 2f        	sta	$2f                     ; 0x202f <printf+0xa>
     5ba: 38           	sec
     5bb: a9 01        	lda	#$1
     5bd: a0 0a        	ldy	#$a
     5bf: 91 10        	sta	($10),y                 ; 0x2010 <_ZN12_GLOBAL__N_112print_stringEPKcP6Status+0xf7>
     5c1: a2 00        	ldx	#$0
     5c3: 86 18        	stx	$18                     ; 0x2018 <_ZN12_GLOBAL__N_112print_stringEPKcP6Status+0xff>
     5c5: a2 d4        	ldx	#$d4
     5c7: 86 19        	stx	$19                     ; 0x2019 <_ZN12_GLOBAL__N_112print_stringEPKcP6Status+0x100>
     5c9: a2 00        	ldx	#$0
     5cb: 86 14        	stx	$14                     ; 0x2014 <_ZN12_GLOBAL__N_112print_stringEPKcP6Status+0xfb>
     5cd: a2 dc        	ldx	#$dc
     5cf: 86 15        	stx	$15                     ; 0x2015 <_ZN12_GLOBAL__N_112print_stringEPKcP6Status+0xfc>
     5d1: a2 00        	ldx	#$0
     5d3: 86 12        	stx	$12                     ; 0x2012 <_ZN12_GLOBAL__N_112print_stringEPKcP6Status+0xf9>
     5d5: a2 c0        	ldx	#$c0
     5d7: 86 13        	stx	$13                     ; 0x2013 <_ZN12_GLOBAL__N_112print_stringEPKcP6Status+0xfa>
     5d9: 64 01        	stz	$1                      ; 0x2001 <_ZN12_GLOBAL__N_112print_stringEPKcP6Status+0xe8>
     5db: a2 3f        	ldx	#$3f
     5dd: 8e 00 d0     	stx	$d000                   ; 0xd000 <__heap_start+0x9ee4>
     5e0: a2 b3        	ldx	#$b3
     5e2: 86 00        	stx	$0                      ; 0x2000 <_ZN12_GLOBAL__N_112print_stringEPKcP6Status+0xe7>
     5e4: 64 08        	stz	$8                      ; 0x2008 <_ZN12_GLOBAL__N_112print_stringEPKcP6Status+0xef>
     5e6: aa           	tax
     5e7: 86 09        	stx	$9                      ; 0x2009 <_ZN12_GLOBAL__N_112print_stringEPKcP6Status+0xf0>
     5e9: e8           	inx
     5ea: 86 0a        	stx	$a                      ; 0x200a <_ZN12_GLOBAL__N_112print_stringEPKcP6Status+0xf1>
     5ec: e8           	inx
     5ed: 86 0b        	stx	$b                      ; 0x200b <_ZN12_GLOBAL__N_112print_stringEPKcP6Status+0xf2>
     5ef: e8           	inx
     5f0: 86 0c        	stx	$c                      ; 0x200c <_ZN12_GLOBAL__N_112print_stringEPKcP6Status+0xf3>
     5f2: e8           	inx
     5f3: 86 0d        	stx	$d                      ; 0x200d <_ZN12_GLOBAL__N_112print_stringEPKcP6Status+0xf4>
     5f5: a2 35        	ldx	#$35
     5f7: 86 f0        	stx	$f0                     ; 0x20f0 <printf+0xcb>
     5f9: a2 00        	ldx	#$0
     5fb: 86 f1        	stx	$f1                     ; 0x20f1 <printf+0xcc>
     5fd: a6 01        	ldx	$1                      ; 0x2001 <_ZN12_GLOBAL__N_112print_stringEPKcP6Status+0xe8>
     5ff: a0 01        	ldy	#$1
     601: 84 01        	sty	$1                      ; 0x2001 <_ZN12_GLOBAL__N_112print_stringEPKcP6Status+0xe8>
     603: a5 1c        	lda	$1c                     ; 0x201c <_ZN12_GLOBAL__N_112print_stringEPKcP6Status+0x103>
     605: 92 1a        	sta	($1a)                   ; 0x201a <_ZN12_GLOBAL__N_112print_stringEPKcP6Status+0x101>
     607: 91 1a        	sta	($1a),y                 ; 0x201a <_ZN12_GLOBAL__N_112print_stringEPKcP6Status+0x101>
     609: c8           	iny
     60a: 91 1a        	sta	($1a),y                 ; 0x201a <_ZN12_GLOBAL__N_112print_stringEPKcP6Status+0x101>
     60c: c8           	iny
     60d: a9 ff        	lda	#$ff
     60f: 91 1a        	sta	($1a),y                 ; 0x201a <_ZN12_GLOBAL__N_112print_stringEPKcP6Status+0x101>
     611: 86 01        	stx	$1                      ; 0x2001 <_ZN12_GLOBAL__N_112print_stringEPKcP6Status+0xe8>
     613: a5 1a        	lda	$1a                     ; 0x201a <_ZN12_GLOBAL__N_112print_stringEPKcP6Status+0x101>
     615: 18           	clc
     616: 69 04        	adc	#$4
     618: 85 1a        	sta	$1a                     ; 0x201a <_ZN12_GLOBAL__N_112print_stringEPKcP6Status+0x101>
     61a: a5 1b        	lda	$1b                     ; 0x201b <_ZN12_GLOBAL__N_112print_stringEPKcP6Status+0x102>
     61c: 69 00        	adc	#$0
     61e: e6 1c        	inc	$1c                     ; 0x201c <_ZN12_GLOBAL__N_112print_stringEPKcP6Status+0x103>
     620: 85 1b        	sta	$1b                     ; 0x201b <_ZN12_GLOBAL__N_112print_stringEPKcP6Status+0x102>
     622: d0 d9        	bne	$5fd <main+0xb4>
     624: a9 00        	lda	#$0
     626: a6 01        	ldx	$1                      ; 0x2001 <_ZN12_GLOBAL__N_112print_stringEPKcP6Status+0xe8>
     628: a0 01        	ldy	#$1
     62a: 84 01        	sty	$1                      ; 0x2001 <_ZN12_GLOBAL__N_112print_stringEPKcP6Status+0xe8>
     62c: 92 18        	sta	($18)                   ; 0x2018 <_ZN12_GLOBAL__N_112print_stringEPKcP6Status+0xff>
     62e: 91 18        	sta	($18),y                 ; 0x2018 <_ZN12_GLOBAL__N_112print_stringEPKcP6Status+0xff>
     630: c8           	iny
     631: 91 18        	sta	($18),y                 ; 0x2018 <_ZN12_GLOBAL__N_112print_stringEPKcP6Status+0xff>
     633: c8           	iny
     634: 85 1a        	sta	$1a                     ; 0x201a <_ZN12_GLOBAL__N_112print_stringEPKcP6Status+0x101>
     636: a9 ff        	lda	#$ff
     638: 91 18        	sta	($18),y                 ; 0x2018 <_ZN12_GLOBAL__N_112print_stringEPKcP6Status+0xff>
     63a: 86 01        	stx	$1                      ; 0x2001 <_ZN12_GLOBAL__N_112print_stringEPKcP6Status+0xe8>
     63c: a5 18        	lda	$18                     ; 0x2018 <_ZN12_GLOBAL__N_112print_stringEPKcP6Status+0xff>
     63e: 18           	clc
     63f: 69 04        	adc	#$4
     641: 85 18        	sta	$18                     ; 0x2018 <_ZN12_GLOBAL__N_112print_stringEPKcP6Status+0xff>
     643: a5 19        	lda	$19                     ; 0x2019 <_ZN12_GLOBAL__N_112print_stringEPKcP6Status+0x100>
     645: 69 00        	adc	#$0
     647: e6 1a        	inc	$1a                     ; 0x201a <_ZN12_GLOBAL__N_112print_stringEPKcP6Status+0x101>
     649: 85 19        	sta	$19                     ; 0x2019 <_ZN12_GLOBAL__N_112print_stringEPKcP6Status+0x100>
     64b: a5 1a        	lda	$1a                     ; 0x201a <_ZN12_GLOBAL__N_112print_stringEPKcP6Status+0x101>
     64d: d0 d7        	bne	$626 <main+0xdd>
     64f: a9 00        	lda	#$0
     651: a6 01        	ldx	$1                      ; 0x2001 <_ZN12_GLOBAL__N_112print_stringEPKcP6Status+0xe8>
     653: a0 01        	ldy	#$1
     655: 84 01        	sty	$1                      ; 0x2001 <_ZN12_GLOBAL__N_112print_stringEPKcP6Status+0xe8>
     657: 92 16        	sta	($16)                   ; 0x2016 <_ZN12_GLOBAL__N_112print_stringEPKcP6Status+0xfd>
     659: 91 16        	sta	($16),y                 ; 0x2016 <_ZN12_GLOBAL__N_112print_stringEPKcP6Status+0xfd>
     65b: c8           	iny
     65c: 91 16        	sta	($16),y                 ; 0x2016 <_ZN12_GLOBAL__N_112print_stringEPKcP6Status+0xfd>
     65e: c8           	iny
     65f: 85 18        	sta	$18                     ; 0x2018 <_ZN12_GLOBAL__N_112print_stringEPKcP6Status+0xff>
     661: a9 ff        	lda	#$ff
     663: 91 16        	sta	($16),y                 ; 0x2016 <_ZN12_GLOBAL__N_112print_stringEPKcP6Status+0xfd>
     665: 86 01        	stx	$1                      ; 0x2001 <_ZN12_GLOBAL__N_112print_stringEPKcP6Status+0xe8>
     667: a5 16        	lda	$16                     ; 0x2016 <_ZN12_GLOBAL__N_112print_stringEPKcP6Status+0xfd>
     669: 18           	clc
     66a: 69 04        	adc	#$4
     66c: 85 16        	sta	$16                     ; 0x2016 <_ZN12_GLOBAL__N_112print_stringEPKcP6Status+0xfd>
     66e: a5 17        	lda	$17                     ; 0x2017 <_ZN12_GLOBAL__N_112print_stringEPKcP6Status+0xfe>
     670: 69 00        	adc	#$0
     672: e6 18        	inc	$18                     ; 0x2018 <_ZN12_GLOBAL__N_112print_stringEPKcP6Status+0xff>
     674: 85 17        	sta	$17                     ; 0x2017 <_ZN12_GLOBAL__N_112print_stringEPKcP6Status+0xfe>
     676: a5 18        	lda	$18                     ; 0x2018 <_ZN12_GLOBAL__N_112print_stringEPKcP6Status+0xff>
     678: d0 d7        	bne	$651 <main+0x108>
     67a: a9 00        	lda	#$0
     67c: a6 01        	ldx	$1                      ; 0x2001 <_ZN12_GLOBAL__N_112print_stringEPKcP6Status+0xe8>
     67e: a0 01        	ldy	#$1
     680: 84 01        	sty	$1                      ; 0x2001 <_ZN12_GLOBAL__N_112print_stringEPKcP6Status+0xe8>
     682: 92 14        	sta	($14)                   ; 0x2014 <_ZN12_GLOBAL__N_112print_stringEPKcP6Status+0xfb>
     684: 91 14        	sta	($14),y                 ; 0x2014 <_ZN12_GLOBAL__N_112print_stringEPKcP6Status+0xfb>
     686: c8           	iny
     687: 91 14        	sta	($14),y                 ; 0x2014 <_ZN12_GLOBAL__N_112print_stringEPKcP6Status+0xfb>
     689: c8           	iny
     68a: 85 16        	sta	$16                     ; 0x2016 <_ZN12_GLOBAL__N_112print_stringEPKcP6Status+0xfd>
     68c: a9 ff        	lda	#$ff
     68e: 91 14        	sta	($14),y                 ; 0x2014 <_ZN12_GLOBAL__N_112print_stringEPKcP6Status+0xfb>
     690: 86 01        	stx	$1                      ; 0x2001 <_ZN12_GLOBAL__N_112print_stringEPKcP6Status+0xe8>
     692: a5 14        	lda	$14                     ; 0x2014 <_ZN12_GLOBAL__N_112print_stringEPKcP6Status+0xfb>
     694: 18           	clc
     695: 69 04        	adc	#$4
     697: 85 14        	sta	$14                     ; 0x2014 <_ZN12_GLOBAL__N_112print_stringEPKcP6Status+0xfb>
     699: a5 15        	lda	$15                     ; 0x2015 <_ZN12_GLOBAL__N_112print_stringEPKcP6Status+0xfc>
     69b: 69 00        	adc	#$0
     69d: e6 16        	inc	$16                     ; 0x2016 <_ZN12_GLOBAL__N_112print_stringEPKcP6Status+0xfd>
     69f: 85 15        	sta	$15                     ; 0x2015 <_ZN12_GLOBAL__N_112print_stringEPKcP6Status+0xfc>
     6a1: a5 16        	lda	$16                     ; 0x2016 <_ZN12_GLOBAL__N_112print_stringEPKcP6Status+0xfd>
     6a3: d0 d7        	bne	$67c <main+0x133>
     6a5: ad 02 d0     	lda	$d002                   ; 0xd002 <__heap_start+0x9ee6>
     6a8: 29 f0        	and	#$f0
     6aa: 8d 02 d0     	sta	$d002                   ; 0xd002 <__heap_start+0x9ee6>
     6ad: ad 02 d0     	lda	$d002                   ; 0xd002 <__heap_start+0x9ee6>
     6b0: 29 0f        	and	#$f
     6b2: 09 10        	ora	#$10
     6b4: 8d 02 d0     	sta	$d002                   ; 0xd002 <__heap_start+0x9ee6>
     6b7: a2 02        	ldx	#$2
     6b9: 8e 03 d0     	stx	$d003                   ; 0xd003 <__heap_start+0x9ee7>
     6bc: ad 01 d0     	lda	$d001                   ; 0xd001 <__heap_start+0x9ee5>
     6bf: 29 f9        	and	#$f9
     6c1: 09 04        	ora	#$4
     6c3: 8d 01 d0     	sta	$d001                   ; 0xd001 <__heap_start+0x9ee5>
     6c6: 64 14        	stz	$14                     ; 0x2014 <_ZN12_GLOBAL__N_112print_stringEPKcP6Status+0xfb>
     6c8: 9c 10 d0     	stz	$d010                   ; 0xd010 <__heap_start+0x9ef4>
     6cb: a2 00        	ldx	#$0
     6cd: 64 15        	stz	$15                     ; 0x2015 <_ZN12_GLOBAL__N_112print_stringEPKcP6Status+0xfc>
     6cf: 86 18        	stx	$18                     ; 0x2018 <_ZN12_GLOBAL__N_112print_stringEPKcP6Status+0xff>
     6d1: a4 18        	ldy	$18                     ; 0x2018 <_ZN12_GLOBAL__N_112print_stringEPKcP6Status+0xff>
     6d3: be 82 2e     	ldx	$2e82,y                 ; 0x2e82 <textColors>
     6d6: 86 19        	stx	$19                     ; 0x2019 <_ZN12_GLOBAL__N_112print_stringEPKcP6Status+0x100>
     6d8: be 83 2e     	ldx	$2e83,y                 ; 0x2e83 <textColors+0x1>
     6db: 86 1a        	stx	$1a                     ; 0x201a <_ZN12_GLOBAL__N_112print_stringEPKcP6Status+0x101>
     6dd: be 84 2e     	ldx	$2e84,y                 ; 0x2e84 <textColors+0x2>
     6e0: 86 1b        	stx	$1b                     ; 0x201b <_ZN12_GLOBAL__N_112print_stringEPKcP6Status+0x102>
     6e2: a6 15        	ldx	$15                     ; 0x2015 <_ZN12_GLOBAL__N_112print_stringEPKcP6Status+0xfc>
     6e4: 8e 00 de     	stx	$de00                   ; 0xde00 <__heap_start+0xace4>
     6e7: 86 17        	stx	$17                     ; 0x2017 <_ZN12_GLOBAL__N_112print_stringEPKcP6Status+0xfe>
     6e9: 9c 01 de     	stz	$de01                   ; 0xde01 <__heap_start+0xace5>
     6ec: a2 04        	ldx	#$4
     6ee: 8e 02 de     	stx	$de02                   ; 0xde02 <__heap_start+0xace6>
     6f1: 9c 03 de     	stz	$de03                   ; 0xde03 <__heap_start+0xace7>
     6f4: ad 10 de     	lda	$de10                   ; 0xde10 <__heap_start+0xacf4>
     6f7: ac 11 de     	ldy	$de11                   ; 0xde11 <__heap_start+0xacf5>
     6fa: 84 15        	sty	$15                     ; 0x2015 <_ZN12_GLOBAL__N_112print_stringEPKcP6Status+0xfc>
     6fc: ac 12 de     	ldy	$de12                   ; 0xde12 <__heap_start+0xacf6>
     6ff: ac 13 de     	ldy	$de13                   ; 0xde13 <__heap_start+0xacf7>
     702: 18           	clc
     703: 65 14        	adc	$14                     ; 0x2014 <_ZN12_GLOBAL__N_112print_stringEPKcP6Status+0xfb>
     705: 85 16        	sta	$16                     ; 0x2016 <_ZN12_GLOBAL__N_112print_stringEPKcP6Status+0xfd>
     707: a6 17        	ldx	$17                     ; 0x2017 <_ZN12_GLOBAL__N_112print_stringEPKcP6Status+0xfe>
     709: a9 d8        	lda	#$d8
     70b: 65 15        	adc	$15                     ; 0x2015 <_ZN12_GLOBAL__N_112print_stringEPKcP6Status+0xfc>
     70d: 85 17        	sta	$17                     ; 0x2017 <_ZN12_GLOBAL__N_112print_stringEPKcP6Status+0xfe>
     70f: a5 1b        	lda	$1b                     ; 0x201b <_ZN12_GLOBAL__N_112print_stringEPKcP6Status+0x102>
     711: 92 16        	sta	($16)                   ; 0x2016 <_ZN12_GLOBAL__N_112print_stringEPKcP6Status+0xfd>
     713: a0 01        	ldy	#$1
     715: a5 1a        	lda	$1a                     ; 0x201a <_ZN12_GLOBAL__N_112print_stringEPKcP6Status+0x101>
     717: 91 16        	sta	($16),y                 ; 0x2016 <_ZN12_GLOBAL__N_112print_stringEPKcP6Status+0xfd>
     719: c8           	iny
     71a: a5 19        	lda	$19                     ; 0x2019 <_ZN12_GLOBAL__N_112print_stringEPKcP6Status+0x100>
     71c: 91 16        	sta	($16),y                 ; 0x2016 <_ZN12_GLOBAL__N_112print_stringEPKcP6Status+0xfd>
     71e: c8           	iny
     71f: a9 ff        	lda	#$ff
     721: 91 16        	sta	($16),y                 ; 0x2016 <_ZN12_GLOBAL__N_112print_stringEPKcP6Status+0xfd>
     723: 8e 00 de     	stx	$de00                   ; 0xde00 <__heap_start+0xace4>
     726: 9c 01 de     	stz	$de01                   ; 0xde01 <__heap_start+0xace5>
     729: c8           	iny
     72a: 8c 02 de     	sty	$de02                   ; 0xde02 <__heap_start+0xace6>
     72d: 9c 03 de     	stz	$de03                   ; 0xde03 <__heap_start+0xace7>
     730: ad 10 de     	lda	$de10                   ; 0xde10 <__heap_start+0xacf4>
     733: 85 15        	sta	$15                     ; 0x2015 <_ZN12_GLOBAL__N_112print_stringEPKcP6Status+0xfc>
     735: ad 11 de     	lda	$de11                   ; 0xde11 <__heap_start+0xacf5>
     738: 85 16        	sta	$16                     ; 0x2016 <_ZN12_GLOBAL__N_112print_stringEPKcP6Status+0xfd>
     73a: a9 40        	lda	#$40
     73c: 18           	clc
     73d: 65 15        	adc	$15                     ; 0x2015 <_ZN12_GLOBAL__N_112print_stringEPKcP6Status+0xfc>
     73f: a8           	tay
     740: a9 d8        	lda	#$d8
     742: 65 16        	adc	$16                     ; 0x2016 <_ZN12_GLOBAL__N_112print_stringEPKcP6Status+0xfd>
     744: 85 17        	sta	$17                     ; 0x2017 <_ZN12_GLOBAL__N_112print_stringEPKcP6Status+0xfe>
     746: 84 16        	sty	$16                     ; 0x2016 <_ZN12_GLOBAL__N_112print_stringEPKcP6Status+0xfd>
     748: ad 12 de     	lda	$de12                   ; 0xde12 <__heap_start+0xacf6>
     74b: ad 13 de     	lda	$de13                   ; 0xde13 <__heap_start+0xacf7>
     74e: a5 1b        	lda	$1b                     ; 0x201b <_ZN12_GLOBAL__N_112print_stringEPKcP6Status+0x102>
     750: 92 16        	sta	($16)                   ; 0x2016 <_ZN12_GLOBAL__N_112print_stringEPKcP6Status+0xfd>
     752: a5 1a        	lda	$1a                     ; 0x201a <_ZN12_GLOBAL__N_112print_stringEPKcP6Status+0x101>
     754: a0 01        	ldy	#$1
     756: 91 16        	sta	($16),y                 ; 0x2016 <_ZN12_GLOBAL__N_112print_stringEPKcP6Status+0xfd>
     758: a5 19        	lda	$19                     ; 0x2019 <_ZN12_GLOBAL__N_112print_stringEPKcP6Status+0x100>
     75a: c8           	iny
     75b: 91 16        	sta	($16),y                 ; 0x2016 <_ZN12_GLOBAL__N_112print_stringEPKcP6Status+0xfd>
     75d: c8           	iny
     75e: a9 ff        	lda	#$ff
     760: 91 16        	sta	($16),y                 ; 0x2016 <_ZN12_GLOBAL__N_112print_stringEPKcP6Status+0xfd>
     762: e8           	inx
     763: 86 15        	stx	$15                     ; 0x2015 <_ZN12_GLOBAL__N_112print_stringEPKcP6Status+0xfc>
     765: 18           	clc
     766: a5 18        	lda	$18                     ; 0x2018 <_ZN12_GLOBAL__N_112print_stringEPKcP6Status+0xff>
     768: 69 03        	adc	#$3
     76a: aa           	tax
     76b: c9 30        	cmp	#$30
     76d: f0 03        	beq	$772 <main+0x229>
     76f: 4c cf 06     	jmp	$6cf <main+0x186>
     772: a6 01        	ldx	$1                      ; 0x2001 <_ZN12_GLOBAL__N_112print_stringEPKcP6Status+0xe8>
     774: 86 18        	stx	$18                     ; 0x2018 <_ZN12_GLOBAL__N_112print_stringEPKcP6Status+0xff>
     776: a2 50        	ldx	#$50
     778: 8e 00 de     	stx	$de00                   ; 0xde00 <__heap_start+0xace4>
     77b: 9c 01 de     	stz	$de01                   ; 0xde01 <__heap_start+0xace5>
     77e: a2 1e        	ldx	#$1e
     780: 8e 02 de     	stx	$de02                   ; 0xde02 <__heap_start+0xace6>
     783: 9c 03 de     	stz	$de03                   ; 0xde03 <__heap_start+0xace7>
     786: ae 10 de     	ldx	$de10                   ; 0xde10 <__heap_start+0xacf4>
     789: ac 11 de     	ldy	$de11                   ; 0xde11 <__heap_start+0xacf5>
     78c: ad 12 de     	lda	$de12                   ; 0xde12 <__heap_start+0xacf6>
     78f: ad 13 de     	lda	$de13                   ; 0xde13 <__heap_start+0xacf7>
     792: a9 02        	lda	#$2
     794: 85 01        	sta	$1                      ; 0x2001 <_ZN12_GLOBAL__N_112print_stringEPKcP6Status+0xe8>
     796: e0 01        	cpx	#$1
     798: 98           	tya
     799: e9 00        	sbc	#$0
     79b: 50 02        	bvc	$79f <main+0x256>
     79d: 49 80        	eor	#$80
     79f: c9 00        	cmp	#$0
     7a1: 10 03        	bpl	$7a6 <main+0x25d>
     7a3: 4c fd 07     	jmp	$7fd <main+0x2b4>
     7a6: a9 20        	lda	#$20
     7a8: 86 19        	stx	$19                     ; 0x2019 <_ZN12_GLOBAL__N_112print_stringEPKcP6Status+0x100>
     7aa: 86 14        	stx	$14                     ; 0x2014 <_ZN12_GLOBAL__N_112print_stringEPKcP6Status+0xfb>
     7ac: 84 15        	sty	$15                     ; 0x2015 <_ZN12_GLOBAL__N_112print_stringEPKcP6Status+0xfc>
     7ae: a2 00        	ldx	#$0
     7b0: 86 16        	stx	$16                     ; 0x2016 <_ZN12_GLOBAL__N_112print_stringEPKcP6Status+0xfd>
     7b2: a2 c0        	ldx	#$c0
     7b4: 86 17        	stx	$17                     ; 0x2017 <_ZN12_GLOBAL__N_112print_stringEPKcP6Status+0xfe>
     7b6: 80 04        	bra	$7bc <main+0x273>
     7b8: a6 15        	ldx	$15                     ; 0x2015 <_ZN12_GLOBAL__N_112print_stringEPKcP6Status+0xfc>
     7ba: f0 14        	beq	$7d0 <main+0x287>
     7bc: 92 16        	sta	($16)                   ; 0x2016 <_ZN12_GLOBAL__N_112print_stringEPKcP6Status+0xfd>
     7be: e6 16        	inc	$16                     ; 0x2016 <_ZN12_GLOBAL__N_112print_stringEPKcP6Status+0xfd>
     7c0: d0 02        	bne	$7c4 <main+0x27b>
     7c2: e6 17        	inc	$17                     ; 0x2017 <_ZN12_GLOBAL__N_112print_stringEPKcP6Status+0xfe>
     7c4: a2 ff        	ldx	#$ff
     7c6: c6 14        	dec	$14                     ; 0x2014 <_ZN12_GLOBAL__N_112print_stringEPKcP6Status+0xfb>
     7c8: e4 14        	cpx	$14                     ; 0x2014 <_ZN12_GLOBAL__N_112print_stringEPKcP6Status+0xfb>
     7ca: d0 ec        	bne	$7b8 <main+0x26f>
     7cc: c6 15        	dec	$15                     ; 0x2015 <_ZN12_GLOBAL__N_112print_stringEPKcP6Status+0xfc>
     7ce: 80 e8        	bra	$7b8 <main+0x26f>
     7d0: a6 14        	ldx	$14                     ; 0x2014 <_ZN12_GLOBAL__N_112print_stringEPKcP6Status+0xfb>
     7d2: d0 e8        	bne	$7bc <main+0x273>
     7d4: a2 03        	ldx	#$3
     7d6: 86 01        	stx	$1                      ; 0x2001 <_ZN12_GLOBAL__N_112print_stringEPKcP6Status+0xe8>
     7d8: a6 19        	ldx	$19                     ; 0x2019 <_ZN12_GLOBAL__N_112print_stringEPKcP6Status+0x100>
     7da: 80 03        	bra	$7df <main+0x296>
     7dc: 98           	tya
     7dd: f0 19        	beq	$7f8 <main+0x2af>
     7df: a9 f0        	lda	#$f0
     7e1: 92 12        	sta	($12)                   ; 0x2012 <_ZN12_GLOBAL__N_112print_stringEPKcP6Status+0xf9>
     7e3: e6 12        	inc	$12                     ; 0x2012 <_ZN12_GLOBAL__N_112print_stringEPKcP6Status+0xf9>
     7e5: f0 07        	beq	$7ee <main+0x2a5>
     7e7: ca           	dex
     7e8: e0 ff        	cpx	#$ff
     7ea: d0 f0        	bne	$7dc <main+0x293>
     7ec: 80 07        	bra	$7f5 <main+0x2ac>
     7ee: e6 13        	inc	$13                     ; 0x2013 <_ZN12_GLOBAL__N_112print_stringEPKcP6Status+0xfa>
     7f0: ca           	dex
     7f1: e0 ff        	cpx	#$ff
     7f3: d0 e7        	bne	$7dc <main+0x293>
     7f5: 88           	dey
     7f6: 80 e4        	bra	$7dc <main+0x293>
     7f8: 8a           	txa
     7f9: d0 e4        	bne	$7df <main+0x296>
     7fb: 80 04        	bra	$801 <main+0x2b8>
     7fd: a2 03        	ldx	#$3
     7ff: 86 01        	stx	$1                      ; 0x2001 <_ZN12_GLOBAL__N_112print_stringEPKcP6Status+0xe8>
     801: a6 18        	ldx	$18                     ; 0x2018 <_ZN12_GLOBAL__N_112print_stringEPKcP6Status+0xff>
     803: 86 01        	stx	$1                      ; 0x2001 <_ZN12_GLOBAL__N_112print_stringEPKcP6Status+0xe8>
     805: 64 30        	stz	$30                     ; 0x2030 <printf+0xb>
     807: 9c 14 d0     	stz	$d014                   ; 0xd014 <__heap_start+0x9ef8>
     80a: 9c 15 d0     	stz	$d015                   ; 0xd015 <__heap_start+0x9ef9>
     80d: 64 31        	stz	$31                     ; 0x2031 <printf+0xc>
     80f: 9c 16 d0     	stz	$d016                   ; 0xd016 <__heap_start+0x9efa>
     812: 9c 17 d0     	stz	$d017                   ; 0xd017 <__heap_start+0x9efb>
     815: a2 40        	ldx	#$40
     817: 8e 00 de     	stx	$de00                   ; 0xde00 <__heap_start+0xace4>
     81a: a2 01        	ldx	#$1
     81c: 8e 01 de     	stx	$de01                   ; 0xde01 <__heap_start+0xace5>
     81f: a2 f0        	ldx	#$f0
     821: 8e 02 de     	stx	$de02                   ; 0xde02 <__heap_start+0xace6>
     824: 9c 03 de     	stz	$de03                   ; 0xde03 <__heap_start+0xace7>
     827: ae 10 de     	ldx	$de10                   ; 0xde10 <__heap_start+0xacf4>
     82a: 86 17        	stx	$17                     ; 0x2017 <_ZN12_GLOBAL__N_112print_stringEPKcP6Status+0xfe>
     82c: ae 11 de     	ldx	$de11                   ; 0xde11 <__heap_start+0xacf5>
     82f: 86 12        	stx	$12                     ; 0x2012 <_ZN12_GLOBAL__N_112print_stringEPKcP6Status+0xf9>
     831: ae 12 de     	ldx	$de12                   ; 0xde12 <__heap_start+0xacf6>
     834: 86 13        	stx	$13                     ; 0x2013 <_ZN12_GLOBAL__N_112print_stringEPKcP6Status+0xfa>
     836: ae 13 de     	ldx	$de13                   ; 0xde13 <__heap_start+0xacf7>
     839: 86 14        	stx	$14                     ; 0x2014 <_ZN12_GLOBAL__N_112print_stringEPKcP6Status+0xfb>
     83b: a4 12        	ldy	$12                     ; 0x2012 <_ZN12_GLOBAL__N_112print_stringEPKcP6Status+0xf9>
     83d: 84 15        	sty	$15                     ; 0x2015 <_ZN12_GLOBAL__N_112print_stringEPKcP6Status+0xfc>
     83f: 06 15        	asl	$15                     ; 0x2015 <_ZN12_GLOBAL__N_112print_stringEPKcP6Status+0xfc>
     841: a5 13        	lda	$13                     ; 0x2013 <_ZN12_GLOBAL__N_112print_stringEPKcP6Status+0xfa>
     843: 2a           	rol
     844: 86 16        	stx	$16                     ; 0x2016 <_ZN12_GLOBAL__N_112print_stringEPKcP6Status+0xfd>
     846: 26 16        	rol	$16                     ; 0x2016 <_ZN12_GLOBAL__N_112print_stringEPKcP6Status+0xfd>
     848: 06 15        	asl	$15                     ; 0x2015 <_ZN12_GLOBAL__N_112print_stringEPKcP6Status+0xfc>
     84a: 2a           	rol
     84b: 26 16        	rol	$16                     ; 0x2016 <_ZN12_GLOBAL__N_112print_stringEPKcP6Status+0xfd>
     84d: 06 15        	asl	$15                     ; 0x2015 <_ZN12_GLOBAL__N_112print_stringEPKcP6Status+0xfc>
     84f: 2a           	rol
     850: 26 16        	rol	$16                     ; 0x2016 <_ZN12_GLOBAL__N_112print_stringEPKcP6Status+0xfd>
     852: 85 15        	sta	$15                     ; 0x2015 <_ZN12_GLOBAL__N_112print_stringEPKcP6Status+0xfc>
     854: 8d 00 de     	sta	$de00                   ; 0xde00 <__heap_start+0xace4>
     857: a5 16        	lda	$16                     ; 0x2016 <_ZN12_GLOBAL__N_112print_stringEPKcP6Status+0xfd>
     859: 8d 01 de     	sta	$de01                   ; 0xde01 <__heap_start+0xace5>
     85c: 9c 02 de     	stz	$de02                   ; 0xde02 <__heap_start+0xace6>
     85f: a2 20        	ldx	#$20
     861: 8e 03 de     	stx	$de03                   ; 0xde03 <__heap_start+0xace7>
     864: ae 10 de     	ldx	$de10                   ; 0xde10 <__heap_start+0xacf4>
     867: 86 16        	stx	$16                     ; 0x2016 <_ZN12_GLOBAL__N_112print_stringEPKcP6Status+0xfd>
     869: ae 11 de     	ldx	$de11                   ; 0xde11 <__heap_start+0xacf5>
     86c: 86 18        	stx	$18                     ; 0x2018 <_ZN12_GLOBAL__N_112print_stringEPKcP6Status+0xff>
     86e: ac 12 de     	ldy	$de12                   ; 0xde12 <__heap_start+0xacf6>
     871: ae 13 de     	ldx	$de13                   ; 0xde13 <__heap_start+0xacf7>
     874: e4 14        	cpx	$14                     ; 0x2014 <_ZN12_GLOBAL__N_112print_stringEPKcP6Status+0xfb>
     876: d0 14        	bne	$88c <main+0x343>
     878: c4 13        	cpy	$13                     ; 0x2013 <_ZN12_GLOBAL__N_112print_stringEPKcP6Status+0xfa>
     87a: d0 10        	bne	$88c <main+0x343>
     87c: a6 18        	ldx	$18                     ; 0x2018 <_ZN12_GLOBAL__N_112print_stringEPKcP6Status+0xff>
     87e: e4 12        	cpx	$12                     ; 0x2012 <_ZN12_GLOBAL__N_112print_stringEPKcP6Status+0xf9>
     880: d0 0a        	bne	$88c <main+0x343>
     882: a6 16        	ldx	$16                     ; 0x2016 <_ZN12_GLOBAL__N_112print_stringEPKcP6Status+0xfd>
     884: e4 17        	cpx	$17                     ; 0x2017 <_ZN12_GLOBAL__N_112print_stringEPKcP6Status+0xfe>
     886: d0 04        	bne	$88c <main+0x343>
     888: a6 15        	ldx	$15                     ; 0x2015 <_ZN12_GLOBAL__N_112print_stringEPKcP6Status+0xfc>
     88a: 80 06        	bra	$892 <main+0x349>
     88c: a6 15        	ldx	$15                     ; 0x2015 <_ZN12_GLOBAL__N_112print_stringEPKcP6Status+0xfc>
     88e: e8           	inx
     88f: d0 01        	bne	$892 <main+0x349>
     891: 1a           	inc
     892: 8e 00 de     	stx	$de00                   ; 0xde00 <__heap_start+0xace4>
     895: 8d 01 de     	sta	$de01                   ; 0xde01 <__heap_start+0xace5>
     898: 9c 02 de     	stz	$de02                   ; 0xde02 <__heap_start+0xace6>
     89b: a2 20        	ldx	#$20
     89d: 8e 03 de     	stx	$de03                   ; 0xde03 <__heap_start+0xace7>
     8a0: ae 10 de     	ldx	$de10                   ; 0xde10 <__heap_start+0xacf4>
     8a3: 86 12        	stx	$12                     ; 0x2012 <_ZN12_GLOBAL__N_112print_stringEPKcP6Status+0xf9>
     8a5: ae 11 de     	ldx	$de11                   ; 0xde11 <__heap_start+0xacf5>
     8a8: 86 13        	stx	$13                     ; 0x2013 <_ZN12_GLOBAL__N_112print_stringEPKcP6Status+0xfa>
     8aa: ae 12 de     	ldx	$de12                   ; 0xde12 <__heap_start+0xacf6>
     8ad: 86 14        	stx	$14                     ; 0x2014 <_ZN12_GLOBAL__N_112print_stringEPKcP6Status+0xfb>
     8af: ae 13 de     	ldx	$de13                   ; 0xde13 <__heap_start+0xacf7>
     8b2: 86 15        	stx	$15                     ; 0x2015 <_ZN12_GLOBAL__N_112print_stringEPKcP6Status+0xfc>
     8b4: a9 00        	lda	#$0
     8b6: 38           	sec
     8b7: e5 12        	sbc	$12                     ; 0x2012 <_ZN12_GLOBAL__N_112print_stringEPKcP6Status+0xf9>
     8b9: 85 19        	sta	$19                     ; 0x2019 <_ZN12_GLOBAL__N_112print_stringEPKcP6Status+0x100>
     8bb: a9 00        	lda	#$0
     8bd: e5 13        	sbc	$13                     ; 0x2013 <_ZN12_GLOBAL__N_112print_stringEPKcP6Status+0xfa>
     8bf: aa           	tax
     8c0: a9 08        	lda	#$8
     8c2: e5 14        	sbc	$14                     ; 0x2014 <_ZN12_GLOBAL__N_112print_stringEPKcP6Status+0xfb>
     8c4: 85 16        	sta	$16                     ; 0x2016 <_ZN12_GLOBAL__N_112print_stringEPKcP6Status+0xfd>
     8c6: a9 00        	lda	#$0
     8c8: e5 15        	sbc	$15                     ; 0x2015 <_ZN12_GLOBAL__N_112print_stringEPKcP6Status+0xfc>
     8ca: 8e 04 30     	stx	$3004                   ; 0x3004 <__bss_start+0x1>
     8cd: a4 16        	ldy	$16                     ; 0x2016 <_ZN12_GLOBAL__N_112print_stringEPKcP6Status+0xfd>
     8cf: 8c 05 30     	sty	$3005                   ; 0x3005 <__bss_start+0x2>
     8d2: 8d 06 30     	sta	$3006                   ; 0x3006 <__bss_start+0x3>
     8d5: a8           	tay
     8d6: a5 19        	lda	$19                     ; 0x2019 <_ZN12_GLOBAL__N_112print_stringEPKcP6Status+0x100>
     8d8: 38           	sec
     8d9: e5 12        	sbc	$12                     ; 0x2012 <_ZN12_GLOBAL__N_112print_stringEPKcP6Status+0xf9>
     8db: 85 18        	sta	$18                     ; 0x2018 <_ZN12_GLOBAL__N_112print_stringEPKcP6Status+0xff>
     8dd: 8a           	txa
     8de: e5 13        	sbc	$13                     ; 0x2013 <_ZN12_GLOBAL__N_112print_stringEPKcP6Status+0xfa>
     8e0: 85 1a        	sta	$1a                     ; 0x201a <_ZN12_GLOBAL__N_112print_stringEPKcP6Status+0x101>
     8e2: a5 16        	lda	$16                     ; 0x2016 <_ZN12_GLOBAL__N_112print_stringEPKcP6Status+0xfd>
     8e4: e5 14        	sbc	$14                     ; 0x2014 <_ZN12_GLOBAL__N_112print_stringEPKcP6Status+0xfb>
     8e6: 85 16        	sta	$16                     ; 0x2016 <_ZN12_GLOBAL__N_112print_stringEPKcP6Status+0xfd>
     8e8: 98           	tya
     8e9: e5 15        	sbc	$15                     ; 0x2015 <_ZN12_GLOBAL__N_112print_stringEPKcP6Status+0xfc>
     8eb: 85 17        	sta	$17                     ; 0x2017 <_ZN12_GLOBAL__N_112print_stringEPKcP6Status+0xfe>
     8ed: 38           	sec
     8ee: a4 18        	ldy	$18                     ; 0x2018 <_ZN12_GLOBAL__N_112print_stringEPKcP6Status+0xff>
     8f0: 8c 07 30     	sty	$3007                   ; 0x3007 <_BITMAP_BASE.1>
     8f3: a6 1a        	ldx	$1a                     ; 0x201a <_ZN12_GLOBAL__N_112print_stringEPKcP6Status+0x101>
     8f5: 8e 08 30     	stx	$3008                   ; 0x3008 <_BITMAP_BASE.1+0x1>
     8f8: a4 16        	ldy	$16                     ; 0x2016 <_ZN12_GLOBAL__N_112print_stringEPKcP6Status+0xfd>
     8fa: 8c 09 30     	sty	$3009                   ; 0x3009 <_BITMAP_BASE.1+0x2>
     8fd: 8d 0a 30     	sta	$300a                   ; 0x300a <_BITMAP_BASE.1+0x3>
     900: a5 18        	lda	$18                     ; 0x2018 <_ZN12_GLOBAL__N_112print_stringEPKcP6Status+0xff>
     902: e5 12        	sbc	$12                     ; 0x2012 <_ZN12_GLOBAL__N_112print_stringEPKcP6Status+0xf9>
     904: 85 18        	sta	$18                     ; 0x2018 <_ZN12_GLOBAL__N_112print_stringEPKcP6Status+0xff>
     906: a5 1a        	lda	$1a                     ; 0x201a <_ZN12_GLOBAL__N_112print_stringEPKcP6Status+0x101>
     908: e5 13        	sbc	$13                     ; 0x2013 <_ZN12_GLOBAL__N_112print_stringEPKcP6Status+0xfa>
     90a: a8           	tay
     90b: a5 16        	lda	$16                     ; 0x2016 <_ZN12_GLOBAL__N_112print_stringEPKcP6Status+0xfd>
     90d: e5 14        	sbc	$14                     ; 0x2014 <_ZN12_GLOBAL__N_112print_stringEPKcP6Status+0xfb>
     90f: 85 12        	sta	$12                     ; 0x2012 <_ZN12_GLOBAL__N_112print_stringEPKcP6Status+0xf9>
     911: a5 17        	lda	$17                     ; 0x2017 <_ZN12_GLOBAL__N_112print_stringEPKcP6Status+0xfe>
     913: e5 15        	sbc	$15                     ; 0x2015 <_ZN12_GLOBAL__N_112print_stringEPKcP6Status+0xfc>
     915: a6 18        	ldx	$18                     ; 0x2018 <_ZN12_GLOBAL__N_112print_stringEPKcP6Status+0xff>
     917: 8e 0b 30     	stx	$300b                   ; 0x300b <_BITMAP_BASE.2>
     91a: 8c 0c 30     	sty	$300c                   ; 0x300c <_BITMAP_BASE.2+0x1>
     91d: a6 19        	ldx	$19                     ; 0x2019 <_ZN12_GLOBAL__N_112print_stringEPKcP6Status+0x100>
     91f: 8e 03 30     	stx	$3003                   ; 0x3003 <__bss_start>
     922: a4 12        	ldy	$12                     ; 0x2012 <_ZN12_GLOBAL__N_112print_stringEPKcP6Status+0xf9>
     924: 8c 0d 30     	sty	$300d                   ; 0x300d <_BITMAP_BASE.2+0x2>
     927: 8d 0e 30     	sta	$300e                   ; 0x300e <_BITMAP_BASE.2+0x3>
     92a: 8e 01 d1     	stx	$d101                   ; 0xd101 <__heap_start+0x9fe5>
     92d: ae 04 30     	ldx	$3004                   ; 0x3004 <__bss_start+0x1>
     930: 8e 02 d1     	stx	$d102                   ; 0xd102 <__heap_start+0x9fe6>
     933: ae 05 30     	ldx	$3005                   ; 0x3005 <__bss_start+0x2>
     936: 8e 03 d1     	stx	$d103                   ; 0xd103 <__heap_start+0x9fe7>
     939: ae 07 30     	ldx	$3007                   ; 0x3007 <_BITMAP_BASE.1>
     93c: 8e 09 d1     	stx	$d109                   ; 0xd109 <__heap_start+0x9fed>
     93f: ae 08 30     	ldx	$3008                   ; 0x3008 <_BITMAP_BASE.1+0x1>
     942: 8e 0a d1     	stx	$d10a                   ; 0xd10a <__heap_start+0x9fee>
     945: ae 09 30     	ldx	$3009                   ; 0x3009 <_BITMAP_BASE.1+0x2>
     948: 8e 0b d1     	stx	$d10b                   ; 0xd10b <__heap_start+0x9fef>
     94b: ae 0b 30     	ldx	$300b                   ; 0x300b <_BITMAP_BASE.2>
     94e: 8e 11 d1     	stx	$d111                   ; 0xd111 <__heap_start+0x9ff5>
     951: ae 0c 30     	ldx	$300c                   ; 0x300c <_BITMAP_BASE.2+0x1>
     954: 8e 12 d1     	stx	$d112                   ; 0xd112 <__heap_start+0x9ff6>
     957: ae 0d 30     	ldx	$300d                   ; 0x300d <_BITMAP_BASE.2+0x2>
     95a: 8e 13 d1     	stx	$d113                   ; 0xd113 <__heap_start+0x9ff7>
     95d: 9c 00 d1     	stz	$d100                   ; 0xd100 <__heap_start+0x9fe4>
     960: 9c 08 d1     	stz	$d108                   ; 0xd108 <__heap_start+0x9fec>
     963: 9c 10 d1     	stz	$d110                   ; 0xd110 <__heap_start+0x9ff4>
     966: a2 10        	ldx	#$10
     968: 8e 00 d2     	stx	$d200                   ; 0xd200 <__heap_start+0xa0e4>
     96b: 8e 0c d2     	stx	$d20c                   ; 0xd20c <__heap_start+0xa0f0>
     96e: 8e 18 d2     	stx	$d218                   ; 0xd218 <__heap_start+0xa0fc>
     971: a0 d9        	ldy	#$d9
     973: a2 40        	ldx	#$40
     975: 64 12        	stz	$12                     ; 0x2012 <_ZN12_GLOBAL__N_112print_stringEPKcP6Status+0xf9>
     977: 84 13        	sty	$13                     ; 0x2013 <_ZN12_GLOBAL__N_112print_stringEPKcP6Status+0xfa>
     979: a9 00        	lda	#$0
     97b: 92 12        	sta	($12)                   ; 0x2012 <_ZN12_GLOBAL__N_112print_stringEPKcP6Status+0xf9>
     97d: ca           	dex
     97e: 18           	clc
     97f: a5 12        	lda	$12                     ; 0x2012 <_ZN12_GLOBAL__N_112print_stringEPKcP6Status+0xf9>
     981: 69 08        	adc	#$8
     983: 85 12        	sta	$12                     ; 0x2012 <_ZN12_GLOBAL__N_112print_stringEPKcP6Status+0xf9>
     985: 98           	tya
     986: 69 00        	adc	#$0
     988: a8           	tay
     989: 8a           	txa
     98a: d0 eb        	bne	$977 <main+0x42e>
     98c: 9c 0f 30     	stz	$300f                   ; 0x300f <_dirStream>
     98f: 9c 10 30     	stz	$3010                   ; 0x3010 <_dirStream+0x1>
     992: 9c 11 30     	stz	$3011                   ; 0x3011 <_dirStream+0x2>
     995: 9c 12 30     	stz	$3012                   ; 0x3012 <_dirStream+0x3>
     998: 9c 13 30     	stz	$3013                   ; 0x3013 <_dirStream+0x4>
     99b: 9c 14 30     	stz	$3014                   ; 0x3014 <_dirStream+0x5>
     99e: 9c 15 30     	stz	$3015                   ; 0x3015 <_dirStream+0x6>
     9a1: 9c 16 30     	stz	$3016                   ; 0x3016 <_dirStream+0x7>
     9a4: 18           	clc
     9a5: a5 10        	lda	$10                     ; 0x2010 <_ZN12_GLOBAL__N_112print_stringEPKcP6Status+0xf7>
     9a7: 69 0f        	adc	#$f
     9a9: 85 12        	sta	$12                     ; 0x2012 <_ZN12_GLOBAL__N_112print_stringEPKcP6Status+0xf9>
     9ab: a5 11        	lda	$11                     ; 0x2011 <_ZN12_GLOBAL__N_112print_stringEPKcP6Status+0xf8>
     9ad: 69 00        	adc	#$0
     9af: 85 13        	sta	$13                     ; 0x2013 <_ZN12_GLOBAL__N_112print_stringEPKcP6Status+0xfa>
     9b1: a6 12        	ldx	$12                     ; 0x2012 <_ZN12_GLOBAL__N_112print_stringEPKcP6Status+0xf9>
     9b3: 86 fb        	stx	$fb                     ; 0x20fb <printf+0xd6>
     9b5: 85 fc        	sta	$fc                     ; 0x20fc <printf+0xd7>
     9b7: a2 08        	ldx	#$8
     9b9: 86 fd        	stx	$fd                     ; 0x20fd <printf+0xd8>
     9bb: 18           	clc
     9bc: a5 10        	lda	$10                     ; 0x2010 <_ZN12_GLOBAL__N_112print_stringEPKcP6Status+0xf7>
     9be: 69 0b        	adc	#$b
     9c0: 85 26        	sta	$26                     ; 0x2026 <printf+0x1>
     9c2: a5 11        	lda	$11                     ; 0x2011 <_ZN12_GLOBAL__N_112print_stringEPKcP6Status+0xf8>
     9c4: 69 00        	adc	#$0
     9c6: 85 27        	sta	$27                     ; 0x2027 <printf+0x2>
     9c8: a2 34        	ldx	#$34
     9ca: 86 14        	stx	$14                     ; 0x2014 <_ZN12_GLOBAL__N_112print_stringEPKcP6Status+0xfb>
     9cc: a2 00        	ldx	#$0
     9ce: 86 15        	stx	$15                     ; 0x2015 <_ZN12_GLOBAL__N_112print_stringEPKcP6Status+0xfc>
     9d0: a0 06        	ldy	#$6
     9d2: 20 dc ff     	jsr	$ffdc <__heap_start+0xcec0>
     9d5: 92 26        	sta	($26)                   ; 0x2026 <printf+0x1>
     9d7: a9 00        	lda	#$0
     9d9: 6a           	ror
     9da: 85 14        	sta	$14                     ; 0x2014 <_ZN12_GLOBAL__N_112print_stringEPKcP6Status+0xfb>
     9dc: b1 12        	lda	($12),y                 ; 0x2012 <_ZN12_GLOBAL__N_112print_stringEPKcP6Status+0xf9>
     9de: 85 14        	sta	$14                     ; 0x2014 <_ZN12_GLOBAL__N_112print_stringEPKcP6Status+0xfb>
     9e0: c8           	iny
     9e1: b1 12        	lda	($12),y                 ; 0x2012 <_ZN12_GLOBAL__N_112print_stringEPKcP6Status+0xf9>
     9e3: a6 14        	ldx	$14                     ; 0x2014 <_ZN12_GLOBAL__N_112print_stringEPKcP6Status+0xfb>
     9e5: 8e 00 de     	stx	$de00                   ; 0xde00 <__heap_start+0xace4>
     9e8: 9c 01 de     	stz	$de01                   ; 0xde01 <__heap_start+0xace5>
     9eb: 8d 02 de     	sta	$de02                   ; 0xde02 <__heap_start+0xace6>
     9ee: 9c 03 de     	stz	$de03                   ; 0xde03 <__heap_start+0xace7>
     9f1: ae 10 de     	ldx	$de10                   ; 0xde10 <__heap_start+0xacf4>
     9f4: ac 11 de     	ldy	$de11                   ; 0xde11 <__heap_start+0xacf5>
     9f7: ad 12 de     	lda	$de12                   ; 0xde12 <__heap_start+0xacf6>
     9fa: ad 13 de     	lda	$de13                   ; 0xde13 <__heap_start+0xacf7>
     9fd: 8e a4 d6     	stx	$d6a4                   ; 0xd6a4 <__heap_start+0xa588>
     a00: 8c a5 d6     	sty	$d6a5                   ; 0xd6a5 <__heap_start+0xa589>
     a03: a2 03        	ldx	#$3
     a05: 8e a6 d6     	stx	$d6a6                   ; 0xd6a6 <__heap_start+0xa58a>
     a08: a2 0e        	ldx	#$e
     a0a: 86 14        	stx	$14                     ; 0x2014 <_ZN12_GLOBAL__N_112print_stringEPKcP6Status+0xfb>
     a0c: a2 2f        	ldx	#$2f
     a0e: 86 15        	stx	$15                     ; 0x2015 <_ZN12_GLOBAL__N_112print_stringEPKcP6Status+0xfc>
     a10: a9 1a        	lda	#$1a
     a12: 64 2a        	stz	$2a                     ; 0x202a <printf+0x5>
     a14: a2 00        	ldx	#$0
     a16: 20 e5 2d     	jsr	$2de5 <memcpy>
     a19: a0 01        	ldy	#$1
     a1b: 64 2b        	stz	$2b                     ; 0x202b <printf+0x6>
     a1d: a6 2b        	ldx	$2b                     ; 0x202b <printf+0x6>
     a1f: a5 2a        	lda	$2a                     ; 0x202a <printf+0x5>
     a21: e6 2a        	inc	$2a                     ; 0x202a <printf+0x5>
     a23: d0 02        	bne	$a27 <main+0x4de>
     a25: e6 2b        	inc	$2b                     ; 0x202b <printf+0x6>
     a27: 18           	clc
     a28: 48           	pha
     a29: a5 10        	lda	$10                     ; 0x2010 <_ZN12_GLOBAL__N_112print_stringEPKcP6Status+0xf7>
     a2b: 69 0f        	adc	#$f
     a2d: 85 2c        	sta	$2c                     ; 0x202c <printf+0x7>
     a2f: a5 11        	lda	$11                     ; 0x2011 <_ZN12_GLOBAL__N_112print_stringEPKcP6Status+0xf8>
     a31: 69 00        	adc	#$0
     a33: 85 2d        	sta	$2d                     ; 0x202d <printf+0x8>
     a35: 68           	pla
     a36: 18           	clc
     a37: 65 2c        	adc	$2c                     ; 0x202c <printf+0x7>
     a39: 85 12        	sta	$12                     ; 0x2012 <_ZN12_GLOBAL__N_112print_stringEPKcP6Status+0xf9>
     a3b: 8a           	txa
     a3c: 65 2d        	adc	$2d                     ; 0x202d <printf+0x8>
     a3e: 85 13        	sta	$13                     ; 0x2013 <_ZN12_GLOBAL__N_112print_stringEPKcP6Status+0xfa>
     a40: b1 12        	lda	($12),y                 ; 0x2012 <_ZN12_GLOBAL__N_112print_stringEPKcP6Status+0xf9>
     a42: d0 d9        	bne	$a1d <main+0x4d4>
     a44: ad ff 2f     	lda	$2fff                   ; 0x2fff <textColors+0x17d>
     a47: 92 26        	sta	($26)                   ; 0x2026 <printf+0x1>
     a49: ad 00 30     	lda	$3000                   ; 0x3000 <textColors+0x17e>
     a4c: a0 01        	ldy	#$1
     a4e: 91 26        	sta	($26),y                 ; 0x2026 <printf+0x1>
     a50: ad 01 30     	lda	$3001                   ; 0x3001 <textColors+0x17f>
     a53: c8           	iny
     a54: 91 26        	sta	($26),y                 ; 0x2026 <printf+0x1>
     a56: ad 02 30     	lda	$3002                   ; 0x3002 <textColors+0x180>
     a59: c8           	iny
     a5a: 91 26        	sta	($26),y                 ; 0x2026 <printf+0x1>
     a5c: a2 b2        	ldx	#$b2
     a5e: 86 12        	stx	$12                     ; 0x2012 <_ZN12_GLOBAL__N_112print_stringEPKcP6Status+0xf9>
     a60: a2 2e        	ldx	#$2e
     a62: 86 13        	stx	$13                     ; 0x2013 <_ZN12_GLOBAL__N_112print_stringEPKcP6Status+0xfa>
     a64: 20 25 20     	jsr	$2025 <printf>
     a67: a2 62        	ldx	#$62
     a69: 86 12        	stx	$12                     ; 0x2012 <_ZN12_GLOBAL__N_112print_stringEPKcP6Status+0xf9>
     a6b: a2 2f        	ldx	#$2f
     a6d: 86 13        	stx	$13                     ; 0x2013 <_ZN12_GLOBAL__N_112print_stringEPKcP6Status+0xfa>
     a6f: 20 5e 15     	jsr	$155e <fileOpen>
     a72: a6 12        	ldx	$12                     ; 0x2012 <_ZN12_GLOBAL__N_112print_stringEPKcP6Status+0xf9>
     a74: 86 28        	stx	$28                     ; 0x2028 <printf+0x3>
     a76: a6 13        	ldx	$13                     ; 0x2013 <_ZN12_GLOBAL__N_112print_stringEPKcP6Status+0xfa>
     a78: 86 29        	stx	$29                     ; 0x2029 <printf+0x4>
     a7a: a6 2c        	ldx	$2c                     ; 0x202c <printf+0x7>
     a7c: 86 12        	stx	$12                     ; 0x2012 <_ZN12_GLOBAL__N_112print_stringEPKcP6Status+0xf9>
     a7e: a6 2d        	ldx	$2d                     ; 0x202d <printf+0x8>
     a80: 86 13        	stx	$13                     ; 0x2013 <_ZN12_GLOBAL__N_112print_stringEPKcP6Status+0xfa>
     a82: a6 28        	ldx	$28                     ; 0x2028 <printf+0x3>
     a84: 86 14        	stx	$14                     ; 0x2014 <_ZN12_GLOBAL__N_112print_stringEPKcP6Status+0xfb>
     a86: a6 29        	ldx	$29                     ; 0x2029 <printf+0x4>
     a88: 86 15        	stx	$15                     ; 0x2015 <_ZN12_GLOBAL__N_112print_stringEPKcP6Status+0xfc>
     a8a: a6 2b        	ldx	$2b                     ; 0x202b <printf+0x6>
     a8c: a5 2a        	lda	$2a                     ; 0x202a <printf+0x5>
     a8e: 20 d6 18     	jsr	$18d6 <fileWrite>
     a91: 92 10        	sta	($10)                   ; 0x2010 <_ZN12_GLOBAL__N_112print_stringEPKcP6Status+0xf7>
     a93: a0 01        	ldy	#$1
     a95: 8a           	txa
     a96: 91 10        	sta	($10),y                 ; 0x2010 <_ZN12_GLOBAL__N_112print_stringEPKcP6Status+0xf7>
     a98: a2 b5        	ldx	#$b5
     a9a: 86 12        	stx	$12                     ; 0x2012 <_ZN12_GLOBAL__N_112print_stringEPKcP6Status+0xf9>
     a9c: a2 2f        	ldx	#$2f
     a9e: 86 13        	stx	$13                     ; 0x2013 <_ZN12_GLOBAL__N_112print_stringEPKcP6Status+0xfa>
     aa0: 20 25 20     	jsr	$2025 <printf>
     aa3: b2 28        	lda	($28)                   ; 0x2028 <printf+0x3>
     aa5: 85 f3        	sta	$f3                     ; 0x20f3 <printf+0xce>
     aa7: 18           	clc
     aa8: a5 10        	lda	$10                     ; 0x2010 <_ZN12_GLOBAL__N_112print_stringEPKcP6Status+0xf7>
     aaa: 69 29        	adc	#$29
     aac: 85 2a        	sta	$2a                     ; 0x202a <printf+0x5>
     aae: a5 11        	lda	$11                     ; 0x2011 <_ZN12_GLOBAL__N_112print_stringEPKcP6Status+0xf8>
     ab0: 69 00        	adc	#$0
     ab2: 85 2b        	sta	$2b                     ; 0x202b <printf+0x6>
     ab4: a2 34        	ldx	#$34
     ab6: 86 14        	stx	$14                     ; 0x2014 <_ZN12_GLOBAL__N_112print_stringEPKcP6Status+0xfb>
     ab8: a2 00        	ldx	#$0
     aba: 86 15        	stx	$15                     ; 0x2015 <_ZN12_GLOBAL__N_112print_stringEPKcP6Status+0xfc>
     abc: a5 28        	lda	$28                     ; 0x2028 <printf+0x3>
     abe: 18           	clc
     abf: 69 fe        	adc	#$fe
     ac1: 85 16        	sta	$16                     ; 0x2016 <_ZN12_GLOBAL__N_112print_stringEPKcP6Status+0xfd>
     ac3: a5 29        	lda	$29                     ; 0x2029 <printf+0x4>
     ac5: 69 ff        	adc	#$ff
     ac7: a6 16        	ldx	$16                     ; 0x2016 <_ZN12_GLOBAL__N_112print_stringEPKcP6Status+0xfd>
     ac9: 86 12        	stx	$12                     ; 0x2012 <_ZN12_GLOBAL__N_112print_stringEPKcP6Status+0xf9>
     acb: aa           	tax
     acc: 85 13        	sta	$13                     ; 0x2013 <_ZN12_GLOBAL__N_112print_stringEPKcP6Status+0xfa>
     ace: 20 68 ff     	jsr	$ff68 <__heap_start+0xce4c>
     ad1: 92 2a        	sta	($2a)                   ; 0x202a <printf+0x5>
     ad3: a9 00        	lda	#$0
     ad5: 6a           	ror
     ad6: 85 14        	sta	$14                     ; 0x2014 <_ZN12_GLOBAL__N_112print_stringEPKcP6Status+0xfb>
     ad8: b2 12        	lda	($12)                   ; 0x2012 <_ZN12_GLOBAL__N_112print_stringEPKcP6Status+0xf9>
     ada: 85 18        	sta	$18                     ; 0x2018 <_ZN12_GLOBAL__N_112print_stringEPKcP6Status+0xff>
     adc: a0 01        	ldy	#$1
     ade: b1 12        	lda	($12),y                 ; 0x2012 <_ZN12_GLOBAL__N_112print_stringEPKcP6Status+0xf9>
     ae0: 85 14        	sta	$14                     ; 0x2014 <_ZN12_GLOBAL__N_112print_stringEPKcP6Status+0xfb>
     ae2: a9 fe        	lda	#$fe
     ae4: 32 12        	and	($12)                   ; 0x2012 <_ZN12_GLOBAL__N_112print_stringEPKcP6Status+0xf9>
     ae6: 85 15        	sta	$15                     ; 0x2015 <_ZN12_GLOBAL__N_112print_stringEPKcP6Status+0xfc>
     ae8: a4 16        	ldy	$16                     ; 0x2016 <_ZN12_GLOBAL__N_112print_stringEPKcP6Status+0xfd>
     aea: 84 1a        	sty	$1a                     ; 0x201a <_ZN12_GLOBAL__N_112print_stringEPKcP6Status+0x101>
     aec: a5 16        	lda	$16                     ; 0x2016 <_ZN12_GLOBAL__N_112print_stringEPKcP6Status+0xfd>
     aee: 18           	clc
     aef: 65 15        	adc	$15                     ; 0x2015 <_ZN12_GLOBAL__N_112print_stringEPKcP6Status+0xfc>
     af1: 85 16        	sta	$16                     ; 0x2016 <_ZN12_GLOBAL__N_112print_stringEPKcP6Status+0xfd>
     af3: 8a           	txa
     af4: 86 19        	stx	$19                     ; 0x2019 <_ZN12_GLOBAL__N_112print_stringEPKcP6Status+0x100>
     af6: 65 14        	adc	$14                     ; 0x2014 <_ZN12_GLOBAL__N_112print_stringEPKcP6Status+0xfb>
     af8: c5 2f        	cmp	$2f                     ; 0x202f <printf+0xa>
     afa: d0 17        	bne	$b13 <main+0x5ca>
     afc: a6 16        	ldx	$16                     ; 0x2016 <_ZN12_GLOBAL__N_112print_stringEPKcP6Status+0xfd>
     afe: e4 2e        	cpx	$2e                     ; 0x202e <printf+0x9>
     b00: d0 11        	bne	$b13 <main+0x5ca>
     b02: a2 00        	ldx	#$0
     b04: 86 16        	stx	$16                     ; 0x2016 <_ZN12_GLOBAL__N_112print_stringEPKcP6Status+0xfd>
     b06: a2 00        	ldx	#$0
     b08: 86 17        	stx	$17                     ; 0x2017 <_ZN12_GLOBAL__N_112print_stringEPKcP6Status+0xfe>
     b0a: a5 18        	lda	$18                     ; 0x2018 <_ZN12_GLOBAL__N_112print_stringEPKcP6Status+0xff>
     b0c: 29 01        	and	#$1
     b0e: d0 0e        	bne	$b1e <main+0x5d5>
     b10: 4c 3e 0c     	jmp	$c3e <main+0x6f5>
     b13: 85 17        	sta	$17                     ; 0x2017 <_ZN12_GLOBAL__N_112print_stringEPKcP6Status+0xfe>
     b15: a5 18        	lda	$18                     ; 0x2018 <_ZN12_GLOBAL__N_112print_stringEPKcP6Status+0xff>
     b17: 29 01        	and	#$1
     b19: d0 03        	bne	$b1e <main+0x5d5>
     b1b: 4c 3e 0c     	jmp	$c3e <main+0x6f5>
     b1e: a5 28        	lda	$28                     ; 0x2028 <printf+0x3>
     b20: 18           	clc
     b21: 69 fc        	adc	#$fc
     b23: 85 12        	sta	$12                     ; 0x2012 <_ZN12_GLOBAL__N_112print_stringEPKcP6Status+0xf9>
     b25: a5 29        	lda	$29                     ; 0x2029 <printf+0x4>
     b27: 69 ff        	adc	#$ff
     b29: 85 13        	sta	$13                     ; 0x2013 <_ZN12_GLOBAL__N_112print_stringEPKcP6Status+0xfa>
     b2b: a0 01        	ldy	#$1
     b2d: 38           	sec
     b2e: a9 00        	lda	#$0
     b30: f2 12        	sbc	($12)                   ; 0x2012 <_ZN12_GLOBAL__N_112print_stringEPKcP6Status+0xf9>
     b32: 85 18        	sta	$18                     ; 0x2018 <_ZN12_GLOBAL__N_112print_stringEPKcP6Status+0xff>
     b34: a9 00        	lda	#$0
     b36: f1 12        	sbc	($12),y                 ; 0x2012 <_ZN12_GLOBAL__N_112print_stringEPKcP6Status+0xf9>
     b38: 85 13        	sta	$13                     ; 0x2013 <_ZN12_GLOBAL__N_112print_stringEPKcP6Status+0xfa>
     b3a: a5 1a        	lda	$1a                     ; 0x201a <_ZN12_GLOBAL__N_112print_stringEPKcP6Status+0x101>
     b3c: 18           	clc
     b3d: 65 18        	adc	$18                     ; 0x2018 <_ZN12_GLOBAL__N_112print_stringEPKcP6Status+0xff>
     b3f: 85 12        	sta	$12                     ; 0x2012 <_ZN12_GLOBAL__N_112print_stringEPKcP6Status+0xf9>
     b41: 85 1a        	sta	$1a                     ; 0x201a <_ZN12_GLOBAL__N_112print_stringEPKcP6Status+0x101>
     b43: a5 19        	lda	$19                     ; 0x2019 <_ZN12_GLOBAL__N_112print_stringEPKcP6Status+0x100>
     b45: 65 13        	adc	$13                     ; 0x2013 <_ZN12_GLOBAL__N_112print_stringEPKcP6Status+0xfa>
     b47: 85 13        	sta	$13                     ; 0x2013 <_ZN12_GLOBAL__N_112print_stringEPKcP6Status+0xfa>
     b49: aa           	tax
     b4a: b1 12        	lda	($12),y                 ; 0x2012 <_ZN12_GLOBAL__N_112print_stringEPKcP6Status+0xf9>
     b4c: 85 1b        	sta	$1b                     ; 0x201b <_ZN12_GLOBAL__N_112print_stringEPKcP6Status+0x102>
     b4e: a9 fe        	lda	#$fe
     b50: 32 12        	and	($12)                   ; 0x2012 <_ZN12_GLOBAL__N_112print_stringEPKcP6Status+0xf9>
     b52: a4 3c        	ldy	$3c                     ; 0x203c <printf+0x17>
     b54: 85 1d        	sta	$1d                     ; 0x201d <_ZN12_GLOBAL__N_112print_stringEPKcP6Status+0x104>
     b56: 85 18        	sta	$18                     ; 0x2018 <_ZN12_GLOBAL__N_112print_stringEPKcP6Status+0xff>
     b58: 38           	sec
     b59: 98           	tya
     b5a: e5 18        	sbc	$18                     ; 0x2018 <_ZN12_GLOBAL__N_112print_stringEPKcP6Status+0xff>
     b5c: 85 19        	sta	$19                     ; 0x2019 <_ZN12_GLOBAL__N_112print_stringEPKcP6Status+0x100>
     b5e: a4 1b        	ldy	$1b                     ; 0x201b <_ZN12_GLOBAL__N_112print_stringEPKcP6Status+0x102>
     b60: 84 1c        	sty	$1c                     ; 0x201c <_ZN12_GLOBAL__N_112print_stringEPKcP6Status+0x103>
     b62: 84 18        	sty	$18                     ; 0x2018 <_ZN12_GLOBAL__N_112print_stringEPKcP6Status+0xff>
     b64: a5 3d        	lda	$3d                     ; 0x203d <printf+0x18>
     b66: e5 18        	sbc	$18                     ; 0x2018 <_ZN12_GLOBAL__N_112print_stringEPKcP6Status+0xff>
     b68: a8           	tay
     b69: 18           	clc
     b6a: a5 19        	lda	$19                     ; 0x2019 <_ZN12_GLOBAL__N_112print_stringEPKcP6Status+0x100>
     b6c: 69 02        	adc	#$2
     b6e: 85 18        	sta	$18                     ; 0x2018 <_ZN12_GLOBAL__N_112print_stringEPKcP6Status+0xff>
     b70: 98           	tya
     b71: 69 00        	adc	#$0
     b73: a4 18        	ldy	$18                     ; 0x2018 <_ZN12_GLOBAL__N_112print_stringEPKcP6Status+0xff>
     b75: 84 3c        	sty	$3c                     ; 0x203c <printf+0x17>
     b77: 85 3d        	sta	$3d                     ; 0x203d <printf+0x18>
     b79: a4 1a        	ldy	$1a                     ; 0x201a <_ZN12_GLOBAL__N_112print_stringEPKcP6Status+0x101>
     b7b: 84 1b        	sty	$1b                     ; 0x201b <_ZN12_GLOBAL__N_112print_stringEPKcP6Status+0x102>
     b7d: a5 1a        	lda	$1a                     ; 0x201a <_ZN12_GLOBAL__N_112print_stringEPKcP6Status+0x101>
     b7f: 18           	clc
     b80: 69 02        	adc	#$2
     b82: 85 18        	sta	$18                     ; 0x2018 <_ZN12_GLOBAL__N_112print_stringEPKcP6Status+0xff>
     b84: 86 1a        	stx	$1a                     ; 0x201a <_ZN12_GLOBAL__N_112print_stringEPKcP6Status+0x101>
     b86: 8a           	txa
     b87: 69 00        	adc	#$0
     b89: a0 02        	ldy	#$2
     b8b: 85 19        	sta	$19                     ; 0x2019 <_ZN12_GLOBAL__N_112print_stringEPKcP6Status+0x100>
     b8d: b1 12        	lda	($12),y                 ; 0x2012 <_ZN12_GLOBAL__N_112print_stringEPKcP6Status+0xf9>
     b8f: aa           	tax
     b90: 88           	dey
     b91: b1 18        	lda	($18),y                 ; 0x2018 <_ZN12_GLOBAL__N_112print_stringEPKcP6Status+0xff>
     b93: 85 1f        	sta	$1f                     ; 0x201f <_ZN12_GLOBAL__N_112print_stringEPKcP6Status+0x106>
     b95: c5 13        	cmp	$13                     ; 0x2013 <_ZN12_GLOBAL__N_112print_stringEPKcP6Status+0xfa>
     b97: d0 0f        	bne	$ba8 <main+0x65f>
     b99: e4 12        	cpx	$12                     ; 0x2012 <_ZN12_GLOBAL__N_112print_stringEPKcP6Status+0xf9>
     b9b: d0 0b        	bne	$ba8 <main+0x65f>
     b9d: a2 00        	ldx	#$0
     b9f: 86 18        	stx	$18                     ; 0x2018 <_ZN12_GLOBAL__N_112print_stringEPKcP6Status+0xff>
     ba1: a2 00        	ldx	#$0
     ba3: 86 19        	stx	$19                     ; 0x2019 <_ZN12_GLOBAL__N_112print_stringEPKcP6Status+0x100>
     ba5: 4c 29 0c     	jmp	$c29 <main+0x6e0>
     ba8: 86 1e        	stx	$1e                     ; 0x201e <_ZN12_GLOBAL__N_112print_stringEPKcP6Status+0x105>
     baa: 18           	clc
     bab: a5 1b        	lda	$1b                     ; 0x201b <_ZN12_GLOBAL__N_112print_stringEPKcP6Status+0x102>
     bad: a6 1b        	ldx	$1b                     ; 0x201b <_ZN12_GLOBAL__N_112print_stringEPKcP6Status+0x102>
     baf: 86 22        	stx	$22                     ; 0x2022 <_ZN12_GLOBAL__N_112print_stringEPKcP6Status+0x109>
     bb1: 69 04        	adc	#$4
     bb3: 85 18        	sta	$18                     ; 0x2018 <_ZN12_GLOBAL__N_112print_stringEPKcP6Status+0xff>
     bb5: a6 1a        	ldx	$1a                     ; 0x201a <_ZN12_GLOBAL__N_112print_stringEPKcP6Status+0x101>
     bb7: 86 23        	stx	$23                     ; 0x2023 <_ZN12_GLOBAL__N_112print_stringEPKcP6Status+0x10a>
     bb9: a5 1a        	lda	$1a                     ; 0x201a <_ZN12_GLOBAL__N_112print_stringEPKcP6Status+0x101>
     bbb: 69 00        	adc	#$0
     bbd: a0 04        	ldy	#$4
     bbf: 85 19        	sta	$19                     ; 0x2019 <_ZN12_GLOBAL__N_112print_stringEPKcP6Status+0x100>
     bc1: b1 12        	lda	($12),y                 ; 0x2012 <_ZN12_GLOBAL__N_112print_stringEPKcP6Status+0xf9>
     bc3: 85 28        	sta	$28                     ; 0x2028 <printf+0x3>
     bc5: 18           	clc
     bc6: 69 02        	adc	#$2
     bc8: 85 1a        	sta	$1a                     ; 0x201a <_ZN12_GLOBAL__N_112print_stringEPKcP6Status+0x101>
     bca: a0 01        	ldy	#$1
     bcc: b1 18        	lda	($18),y                 ; 0x2018 <_ZN12_GLOBAL__N_112print_stringEPKcP6Status+0xff>
     bce: aa           	tax
     bcf: 69 00        	adc	#$0
     bd1: a4 1a        	ldy	$1a                     ; 0x201a <_ZN12_GLOBAL__N_112print_stringEPKcP6Status+0x101>
     bd3: 84 18        	sty	$18                     ; 0x2018 <_ZN12_GLOBAL__N_112print_stringEPKcP6Status+0xff>
     bd5: 85 19        	sta	$19                     ; 0x2019 <_ZN12_GLOBAL__N_112print_stringEPKcP6Status+0x100>
     bd7: a4 28        	ldy	$28                     ; 0x2028 <printf+0x3>
     bd9: 84 1a        	sty	$1a                     ; 0x201a <_ZN12_GLOBAL__N_112print_stringEPKcP6Status+0x101>
     bdb: 86 1b        	stx	$1b                     ; 0x201b <_ZN12_GLOBAL__N_112print_stringEPKcP6Status+0x102>
     bdd: a0 02        	ldy	#$2
     bdf: a5 1e        	lda	$1e                     ; 0x201e <_ZN12_GLOBAL__N_112print_stringEPKcP6Status+0x105>
     be1: 91 1a        	sta	($1a),y                 ; 0x201a <_ZN12_GLOBAL__N_112print_stringEPKcP6Status+0x101>
     be3: a5 1f        	lda	$1f                     ; 0x201f <_ZN12_GLOBAL__N_112print_stringEPKcP6Status+0x106>
     be5: 88           	dey
     be6: 91 18        	sta	($18),y                 ; 0x2018 <_ZN12_GLOBAL__N_112print_stringEPKcP6Status+0xff>
     be8: 18           	clc
     be9: a5 22        	lda	$22                     ; 0x2022 <_ZN12_GLOBAL__N_112print_stringEPKcP6Status+0x109>
     beb: 69 02        	adc	#$2
     bed: 85 18        	sta	$18                     ; 0x2018 <_ZN12_GLOBAL__N_112print_stringEPKcP6Status+0xff>
     bef: a5 23        	lda	$23                     ; 0x2023 <_ZN12_GLOBAL__N_112print_stringEPKcP6Status+0x10a>
     bf1: 69 00        	adc	#$0
     bf3: 85 19        	sta	$19                     ; 0x2019 <_ZN12_GLOBAL__N_112print_stringEPKcP6Status+0x100>
     bf5: c8           	iny
     bf6: b1 12        	lda	($12),y                 ; 0x2012 <_ZN12_GLOBAL__N_112print_stringEPKcP6Status+0xf9>
     bf8: 85 1a        	sta	$1a                     ; 0x201a <_ZN12_GLOBAL__N_112print_stringEPKcP6Status+0x101>
     bfa: 88           	dey
     bfb: b1 18        	lda	($18),y                 ; 0x2018 <_ZN12_GLOBAL__N_112print_stringEPKcP6Status+0xff>
     bfd: a4 1a        	ldy	$1a                     ; 0x201a <_ZN12_GLOBAL__N_112print_stringEPKcP6Status+0x101>
     bff: 84 18        	sty	$18                     ; 0x2018 <_ZN12_GLOBAL__N_112print_stringEPKcP6Status+0xff>
     c01: 85 19        	sta	$19                     ; 0x2019 <_ZN12_GLOBAL__N_112print_stringEPKcP6Status+0x100>
     c03: 85 1b        	sta	$1b                     ; 0x201b <_ZN12_GLOBAL__N_112print_stringEPKcP6Status+0x102>
     c05: a0 04        	ldy	#$4
     c07: a5 28        	lda	$28                     ; 0x2028 <printf+0x3>
     c09: 91 18        	sta	($18),y                 ; 0x2018 <_ZN12_GLOBAL__N_112print_stringEPKcP6Status+0xff>
     c0b: 18           	clc
     c0c: a5 1a        	lda	$1a                     ; 0x201a <_ZN12_GLOBAL__N_112print_stringEPKcP6Status+0x101>
     c0e: 69 04        	adc	#$4
     c10: 85 1a        	sta	$1a                     ; 0x201a <_ZN12_GLOBAL__N_112print_stringEPKcP6Status+0x101>
     c12: a5 1b        	lda	$1b                     ; 0x201b <_ZN12_GLOBAL__N_112print_stringEPKcP6Status+0x102>
     c14: 69 00        	adc	#$0
     c16: 85 1b        	sta	$1b                     ; 0x201b <_ZN12_GLOBAL__N_112print_stringEPKcP6Status+0x102>
     c18: 8a           	txa
     c19: a0 01        	ldy	#$1
     c1b: 91 1a        	sta	($1a),y                 ; 0x201a <_ZN12_GLOBAL__N_112print_stringEPKcP6Status+0x101>
     c1d: a6 3f        	ldx	$3f                     ; 0x203f <printf+0x1a>
     c1f: e4 13        	cpx	$13                     ; 0x2013 <_ZN12_GLOBAL__N_112print_stringEPKcP6Status+0xfa>
     c21: d0 0e        	bne	$c31 <main+0x6e8>
     c23: a6 3e        	ldx	$3e                     ; 0x203e <printf+0x19>
     c25: e4 12        	cpx	$12                     ; 0x2012 <_ZN12_GLOBAL__N_112print_stringEPKcP6Status+0xf9>
     c27: d0 08        	bne	$c31 <main+0x6e8>
     c29: a6 18        	ldx	$18                     ; 0x2018 <_ZN12_GLOBAL__N_112print_stringEPKcP6Status+0xff>
     c2b: a4 19        	ldy	$19                     ; 0x2019 <_ZN12_GLOBAL__N_112print_stringEPKcP6Status+0x100>
     c2d: 86 3e        	stx	$3e                     ; 0x203e <printf+0x19>
     c2f: 84 3f        	sty	$3f                     ; 0x203f <printf+0x1a>
     c31: 18           	clc
     c32: a5 1d        	lda	$1d                     ; 0x201d <_ZN12_GLOBAL__N_112print_stringEPKcP6Status+0x104>
     c34: 65 15        	adc	$15                     ; 0x2015 <_ZN12_GLOBAL__N_112print_stringEPKcP6Status+0xfc>
     c36: 85 15        	sta	$15                     ; 0x2015 <_ZN12_GLOBAL__N_112print_stringEPKcP6Status+0xfc>
     c38: a5 1c        	lda	$1c                     ; 0x201c <_ZN12_GLOBAL__N_112print_stringEPKcP6Status+0x103>
     c3a: 65 14        	adc	$14                     ; 0x2014 <_ZN12_GLOBAL__N_112print_stringEPKcP6Status+0xfb>
     c3c: 85 14        	sta	$14                     ; 0x2014 <_ZN12_GLOBAL__N_112print_stringEPKcP6Status+0xfb>
     c3e: a2 00        	ldx	#$0
     c40: 86 18        	stx	$18                     ; 0x2018 <_ZN12_GLOBAL__N_112print_stringEPKcP6Status+0xff>
     c42: a2 00        	ldx	#$0
     c44: 86 19        	stx	$19                     ; 0x2019 <_ZN12_GLOBAL__N_112print_stringEPKcP6Status+0x100>
     c46: a6 17        	ldx	$17                     ; 0x2017 <_ZN12_GLOBAL__N_112print_stringEPKcP6Status+0xfe>
     c48: e4 19        	cpx	$19                     ; 0x2019 <_ZN12_GLOBAL__N_112print_stringEPKcP6Status+0x100>
     c4a: d0 0e        	bne	$c5a <main+0x711>
     c4c: a6 16        	ldx	$16                     ; 0x2016 <_ZN12_GLOBAL__N_112print_stringEPKcP6Status+0xfd>
     c4e: e4 18        	cpx	$18                     ; 0x2018 <_ZN12_GLOBAL__N_112print_stringEPKcP6Status+0xff>
     c50: d0 08        	bne	$c5a <main+0x711>
     c52: a2 01        	ldx	#$1
     c54: 8e 1a 31     	stx	$311a                   ; 0x311a <_ZN12_GLOBAL__N_19last_freeE>
     c57: 4c 7f 0d     	jmp	$d7f <main+0x836>
     c5a: a0 01        	ldy	#$1
     c5c: b1 16        	lda	($16),y                 ; 0x2016 <_ZN12_GLOBAL__N_112print_stringEPKcP6Status+0xfd>
     c5e: aa           	tax
     c5f: a9 fe        	lda	#$fe
     c61: 32 16        	and	($16)                   ; 0x2016 <_ZN12_GLOBAL__N_112print_stringEPKcP6Status+0xfd>
     c63: 18           	clc
     c64: 85 1d        	sta	$1d                     ; 0x201d <_ZN12_GLOBAL__N_112print_stringEPKcP6Status+0x104>
     c66: 65 16        	adc	$16                     ; 0x2016 <_ZN12_GLOBAL__N_112print_stringEPKcP6Status+0xfd>
     c68: 85 18        	sta	$18                     ; 0x2018 <_ZN12_GLOBAL__N_112print_stringEPKcP6Status+0xff>
     c6a: 8a           	txa
     c6b: 86 1c        	stx	$1c                     ; 0x201c <_ZN12_GLOBAL__N_112print_stringEPKcP6Status+0x103>
     c6d: 65 17        	adc	$17                     ; 0x2017 <_ZN12_GLOBAL__N_112print_stringEPKcP6Status+0xfe>
     c6f: c5 2f        	cmp	$2f                     ; 0x202f <printf+0xa>
     c71: d0 13        	bne	$c86 <main+0x73d>
     c73: a6 18        	ldx	$18                     ; 0x2018 <_ZN12_GLOBAL__N_112print_stringEPKcP6Status+0xff>
     c75: e4 2e        	cpx	$2e                     ; 0x202e <printf+0x9>
     c77: d0 0d        	bne	$c86 <main+0x73d>
     c79: a9 01        	lda	#$1
     c7b: 64 18        	stz	$18                     ; 0x2018 <_ZN12_GLOBAL__N_112print_stringEPKcP6Status+0xff>
     c7d: 2d 1a 31     	and	$311a                   ; 0x311a <_ZN12_GLOBAL__N_19last_freeE>
     c80: a6 18        	ldx	$18                     ; 0x2018 <_ZN12_GLOBAL__N_112print_stringEPKcP6Status+0xff>
     c82: d0 14        	bne	$c98 <main+0x74f>
     c84: 80 0c        	bra	$c92 <main+0x749>
     c86: 85 19        	sta	$19                     ; 0x2019 <_ZN12_GLOBAL__N_112print_stringEPKcP6Status+0x100>
     c88: a9 01        	lda	#$1
     c8a: 32 18        	and	($18)                   ; 0x2018 <_ZN12_GLOBAL__N_112print_stringEPKcP6Status+0xff>
     c8c: 64 18        	stz	$18                     ; 0x2018 <_ZN12_GLOBAL__N_112print_stringEPKcP6Status+0xff>
     c8e: a6 18        	ldx	$18                     ; 0x2018 <_ZN12_GLOBAL__N_112print_stringEPKcP6Status+0xff>
     c90: d0 06        	bne	$c98 <main+0x74f>
     c92: aa           	tax
     c93: d0 03        	bne	$c98 <main+0x74f>
     c95: 4c 75 0d     	jmp	$d75 <main+0x82c>
     c98: a5 3c        	lda	$3c                     ; 0x203c <printf+0x17>
     c9a: a6 3d        	ldx	$3d                     ; 0x203d <printf+0x18>
     c9c: 86 19        	stx	$19                     ; 0x2019 <_ZN12_GLOBAL__N_112print_stringEPKcP6Status+0x100>
     c9e: 38           	sec
     c9f: e5 1d        	sbc	$1d                     ; 0x201d <_ZN12_GLOBAL__N_112print_stringEPKcP6Status+0x104>
     ca1: aa           	tax
     ca2: a5 19        	lda	$19                     ; 0x2019 <_ZN12_GLOBAL__N_112print_stringEPKcP6Status+0x100>
     ca4: e5 1c        	sbc	$1c                     ; 0x201c <_ZN12_GLOBAL__N_112print_stringEPKcP6Status+0x103>
     ca6: 85 18        	sta	$18                     ; 0x2018 <_ZN12_GLOBAL__N_112print_stringEPKcP6Status+0xff>
     ca8: 18           	clc
     ca9: 8a           	txa
     caa: 69 02        	adc	#$2
     cac: 85 19        	sta	$19                     ; 0x2019 <_ZN12_GLOBAL__N_112print_stringEPKcP6Status+0x100>
     cae: a5 18        	lda	$18                     ; 0x2018 <_ZN12_GLOBAL__N_112print_stringEPKcP6Status+0xff>
     cb0: 69 00        	adc	#$0
     cb2: a6 19        	ldx	$19                     ; 0x2019 <_ZN12_GLOBAL__N_112print_stringEPKcP6Status+0x100>
     cb4: 86 3c        	stx	$3c                     ; 0x203c <printf+0x17>
     cb6: 85 3d        	sta	$3d                     ; 0x203d <printf+0x18>
     cb8: a5 16        	lda	$16                     ; 0x2016 <_ZN12_GLOBAL__N_112print_stringEPKcP6Status+0xfd>
     cba: 18           	clc
     cbb: 69 02        	adc	#$2
     cbd: 85 18        	sta	$18                     ; 0x2018 <_ZN12_GLOBAL__N_112print_stringEPKcP6Status+0xff>
     cbf: a5 17        	lda	$17                     ; 0x2017 <_ZN12_GLOBAL__N_112print_stringEPKcP6Status+0xfe>
     cc1: 69 00        	adc	#$0
     cc3: a0 02        	ldy	#$2
     cc5: 85 19        	sta	$19                     ; 0x2019 <_ZN12_GLOBAL__N_112print_stringEPKcP6Status+0x100>
     cc7: b1 16        	lda	($16),y                 ; 0x2016 <_ZN12_GLOBAL__N_112print_stringEPKcP6Status+0xfd>
     cc9: aa           	tax
     cca: 88           	dey
     ccb: b1 18        	lda	($18),y                 ; 0x2018 <_ZN12_GLOBAL__N_112print_stringEPKcP6Status+0xff>
     ccd: 85 1f        	sta	$1f                     ; 0x201f <_ZN12_GLOBAL__N_112print_stringEPKcP6Status+0x106>
     ccf: c5 17        	cmp	$17                     ; 0x2017 <_ZN12_GLOBAL__N_112print_stringEPKcP6Status+0xfe>
     cd1: d0 0f        	bne	$ce2 <main+0x799>
     cd3: e4 16        	cpx	$16                     ; 0x2016 <_ZN12_GLOBAL__N_112print_stringEPKcP6Status+0xfd>
     cd5: d0 0b        	bne	$ce2 <main+0x799>
     cd7: a2 00        	ldx	#$0
     cd9: 86 18        	stx	$18                     ; 0x2018 <_ZN12_GLOBAL__N_112print_stringEPKcP6Status+0xff>
     cdb: a2 00        	ldx	#$0
     cdd: 86 19        	stx	$19                     ; 0x2019 <_ZN12_GLOBAL__N_112print_stringEPKcP6Status+0x100>
     cdf: 4c 5f 0d     	jmp	$d5f <main+0x816>
     ce2: 86 1e        	stx	$1e                     ; 0x201e <_ZN12_GLOBAL__N_112print_stringEPKcP6Status+0x105>
     ce4: a6 16        	ldx	$16                     ; 0x2016 <_ZN12_GLOBAL__N_112print_stringEPKcP6Status+0xfd>
     ce6: a5 16        	lda	$16                     ; 0x2016 <_ZN12_GLOBAL__N_112print_stringEPKcP6Status+0xfd>
     ce8: 86 23        	stx	$23                     ; 0x2023 <_ZN12_GLOBAL__N_112print_stringEPKcP6Status+0x10a>
     cea: 18           	clc
     ceb: 69 04        	adc	#$4
     ced: 85 18        	sta	$18                     ; 0x2018 <_ZN12_GLOBAL__N_112print_stringEPKcP6Status+0xff>
     cef: a5 17        	lda	$17                     ; 0x2017 <_ZN12_GLOBAL__N_112print_stringEPKcP6Status+0xfe>
     cf1: 69 00        	adc	#$0
     cf3: a0 04        	ldy	#$4
     cf5: 85 19        	sta	$19                     ; 0x2019 <_ZN12_GLOBAL__N_112print_stringEPKcP6Status+0x100>
     cf7: b1 16        	lda	($16),y                 ; 0x2016 <_ZN12_GLOBAL__N_112print_stringEPKcP6Status+0xfd>
     cf9: 85 28        	sta	$28                     ; 0x2028 <printf+0x3>
     cfb: 18           	clc
     cfc: 69 02        	adc	#$2
     cfe: 85 1a        	sta	$1a                     ; 0x201a <_ZN12_GLOBAL__N_112print_stringEPKcP6Status+0x101>
     d00: a0 01        	ldy	#$1
     d02: b1 18        	lda	($18),y                 ; 0x2018 <_ZN12_GLOBAL__N_112print_stringEPKcP6Status+0xff>
     d04: aa           	tax
     d05: 69 00        	adc	#$0
     d07: a4 1a        	ldy	$1a                     ; 0x201a <_ZN12_GLOBAL__N_112print_stringEPKcP6Status+0x101>
     d09: 84 18        	sty	$18                     ; 0x2018 <_ZN12_GLOBAL__N_112print_stringEPKcP6Status+0xff>
     d0b: 85 19        	sta	$19                     ; 0x2019 <_ZN12_GLOBAL__N_112print_stringEPKcP6Status+0x100>
     d0d: a4 28        	ldy	$28                     ; 0x2028 <printf+0x3>
     d0f: 84 1a        	sty	$1a                     ; 0x201a <_ZN12_GLOBAL__N_112print_stringEPKcP6Status+0x101>
     d11: 86 1b        	stx	$1b                     ; 0x201b <_ZN12_GLOBAL__N_112print_stringEPKcP6Status+0x102>
     d13: a0 02        	ldy	#$2
     d15: a5 1e        	lda	$1e                     ; 0x201e <_ZN12_GLOBAL__N_112print_stringEPKcP6Status+0x105>
     d17: 91 1a        	sta	($1a),y                 ; 0x201a <_ZN12_GLOBAL__N_112print_stringEPKcP6Status+0x101>
     d19: a5 1f        	lda	$1f                     ; 0x201f <_ZN12_GLOBAL__N_112print_stringEPKcP6Status+0x106>
     d1b: 88           	dey
     d1c: 91 18        	sta	($18),y                 ; 0x2018 <_ZN12_GLOBAL__N_112print_stringEPKcP6Status+0xff>
     d1e: 18           	clc
     d1f: a5 23        	lda	$23                     ; 0x2023 <_ZN12_GLOBAL__N_112print_stringEPKcP6Status+0x10a>
     d21: 69 02        	adc	#$2
     d23: 85 18        	sta	$18                     ; 0x2018 <_ZN12_GLOBAL__N_112print_stringEPKcP6Status+0xff>
     d25: a5 17        	lda	$17                     ; 0x2017 <_ZN12_GLOBAL__N_112print_stringEPKcP6Status+0xfe>
     d27: 69 00        	adc	#$0
     d29: 85 19        	sta	$19                     ; 0x2019 <_ZN12_GLOBAL__N_112print_stringEPKcP6Status+0x100>
     d2b: c8           	iny
     d2c: b1 16        	lda	($16),y                 ; 0x2016 <_ZN12_GLOBAL__N_112print_stringEPKcP6Status+0xfd>
     d2e: 85 1a        	sta	$1a                     ; 0x201a <_ZN12_GLOBAL__N_112print_stringEPKcP6Status+0x101>
     d30: 88           	dey
     d31: b1 18        	lda	($18),y                 ; 0x2018 <_ZN12_GLOBAL__N_112print_stringEPKcP6Status+0xff>
     d33: a4 1a        	ldy	$1a                     ; 0x201a <_ZN12_GLOBAL__N_112print_stringEPKcP6Status+0x101>
     d35: 84 18        	sty	$18                     ; 0x2018 <_ZN12_GLOBAL__N_112print_stringEPKcP6Status+0xff>
     d37: 85 19        	sta	$19                     ; 0x2019 <_ZN12_GLOBAL__N_112print_stringEPKcP6Status+0x100>
     d39: 85 1b        	sta	$1b                     ; 0x201b <_ZN12_GLOBAL__N_112print_stringEPKcP6Status+0x102>
     d3b: a0 04        	ldy	#$4
     d3d: a5 28        	lda	$28                     ; 0x2028 <printf+0x3>
     d3f: 91 18        	sta	($18),y                 ; 0x2018 <_ZN12_GLOBAL__N_112print_stringEPKcP6Status+0xff>
     d41: 18           	clc
     d42: a5 1a        	lda	$1a                     ; 0x201a <_ZN12_GLOBAL__N_112print_stringEPKcP6Status+0x101>
     d44: 69 04        	adc	#$4
     d46: 85 1a        	sta	$1a                     ; 0x201a <_ZN12_GLOBAL__N_112print_stringEPKcP6Status+0x101>
     d48: a5 1b        	lda	$1b                     ; 0x201b <_ZN12_GLOBAL__N_112print_stringEPKcP6Status+0x102>
     d4a: 69 00        	adc	#$0
     d4c: 85 1b        	sta	$1b                     ; 0x201b <_ZN12_GLOBAL__N_112print_stringEPKcP6Status+0x102>
     d4e: 8a           	txa
     d4f: a0 01        	ldy	#$1
     d51: 91 1a        	sta	($1a),y                 ; 0x201a <_ZN12_GLOBAL__N_112print_stringEPKcP6Status+0x101>
     d53: a6 3f        	ldx	$3f                     ; 0x203f <printf+0x1a>
     d55: e4 17        	cpx	$17                     ; 0x2017 <_ZN12_GLOBAL__N_112print_stringEPKcP6Status+0xfe>
     d57: d0 0e        	bne	$d67 <main+0x81e>
     d59: a6 3e        	ldx	$3e                     ; 0x203e <printf+0x19>
     d5b: e4 16        	cpx	$16                     ; 0x2016 <_ZN12_GLOBAL__N_112print_stringEPKcP6Status+0xfd>
     d5d: d0 08        	bne	$d67 <main+0x81e>
     d5f: a6 18        	ldx	$18                     ; 0x2018 <_ZN12_GLOBAL__N_112print_stringEPKcP6Status+0xff>
     d61: a4 19        	ldy	$19                     ; 0x2019 <_ZN12_GLOBAL__N_112print_stringEPKcP6Status+0x100>
     d63: 86 3e        	stx	$3e                     ; 0x203e <printf+0x19>
     d65: 84 3f        	sty	$3f                     ; 0x203f <printf+0x1a>
     d67: 18           	clc
     d68: a5 1d        	lda	$1d                     ; 0x201d <_ZN12_GLOBAL__N_112print_stringEPKcP6Status+0x104>
     d6a: 65 15        	adc	$15                     ; 0x2015 <_ZN12_GLOBAL__N_112print_stringEPKcP6Status+0xfc>
     d6c: 85 15        	sta	$15                     ; 0x2015 <_ZN12_GLOBAL__N_112print_stringEPKcP6Status+0xfc>
     d6e: a5 1c        	lda	$1c                     ; 0x201c <_ZN12_GLOBAL__N_112print_stringEPKcP6Status+0x103>
     d70: 65 14        	adc	$14                     ; 0x2014 <_ZN12_GLOBAL__N_112print_stringEPKcP6Status+0xfb>
     d72: aa           	tax
     d73: 80 0c        	bra	$d81 <main+0x838>
     d75: b2 16        	lda	($16)                   ; 0x2016 <_ZN12_GLOBAL__N_112print_stringEPKcP6Status+0xfd>
     d77: 09 01        	ora	#$1
     d79: 92 16        	sta	($16)                   ; 0x2016 <_ZN12_GLOBAL__N_112print_stringEPKcP6Status+0xfd>
     d7b: a5 1c        	lda	$1c                     ; 0x201c <_ZN12_GLOBAL__N_112print_stringEPKcP6Status+0x103>
     d7d: 91 16        	sta	($16),y                 ; 0x2016 <_ZN12_GLOBAL__N_112print_stringEPKcP6Status+0xfd>
     d7f: a6 14        	ldx	$14                     ; 0x2014 <_ZN12_GLOBAL__N_112print_stringEPKcP6Status+0xfb>
     d81: a9 01        	lda	#$1
     d83: 32 12        	and	($12)                   ; 0x2012 <_ZN12_GLOBAL__N_112print_stringEPKcP6Status+0xf9>
     d85: a4 15        	ldy	$15                     ; 0x2015 <_ZN12_GLOBAL__N_112print_stringEPKcP6Status+0xfc>
     d87: 84 16        	sty	$16                     ; 0x2016 <_ZN12_GLOBAL__N_112print_stringEPKcP6Status+0xfd>
     d89: 05 15        	ora	$15                     ; 0x2015 <_ZN12_GLOBAL__N_112print_stringEPKcP6Status+0xfc>
     d8b: 92 12        	sta	($12)                   ; 0x2012 <_ZN12_GLOBAL__N_112print_stringEPKcP6Status+0xf9>
     d8d: a5 12        	lda	$12                     ; 0x2012 <_ZN12_GLOBAL__N_112print_stringEPKcP6Status+0xf9>
     d8f: 18           	clc
     d90: 65 15        	adc	$15                     ; 0x2015 <_ZN12_GLOBAL__N_112print_stringEPKcP6Status+0xfc>
     d92: a8           	tay
     d93: 8a           	txa
     d94: 65 13        	adc	$13                     ; 0x2013 <_ZN12_GLOBAL__N_112print_stringEPKcP6Status+0xfa>
     d96: 85 15        	sta	$15                     ; 0x2015 <_ZN12_GLOBAL__N_112print_stringEPKcP6Status+0xfc>
     d98: 18           	clc
     d99: 98           	tya
     d9a: 69 fe        	adc	#$fe
     d9c: 85 14        	sta	$14                     ; 0x2014 <_ZN12_GLOBAL__N_112print_stringEPKcP6Status+0xfb>
     d9e: a5 15        	lda	$15                     ; 0x2015 <_ZN12_GLOBAL__N_112print_stringEPKcP6Status+0xfc>
     da0: 69 ff        	adc	#$ff
     da2: 85 15        	sta	$15                     ; 0x2015 <_ZN12_GLOBAL__N_112print_stringEPKcP6Status+0xfc>
     da4: a0 01        	ldy	#$1
     da6: 8a           	txa
     da7: 91 12        	sta	($12),y                 ; 0x2012 <_ZN12_GLOBAL__N_112print_stringEPKcP6Status+0xf9>
     da9: a5 16        	lda	$16                     ; 0x2016 <_ZN12_GLOBAL__N_112print_stringEPKcP6Status+0xfd>
     dab: 92 14        	sta	($14)                   ; 0x2014 <_ZN12_GLOBAL__N_112print_stringEPKcP6Status+0xfb>
     dad: 8a           	txa
     dae: 91 14        	sta	($14),y                 ; 0x2014 <_ZN12_GLOBAL__N_112print_stringEPKcP6Status+0xfb>
     db0: b1 12        	lda	($12),y                 ; 0x2012 <_ZN12_GLOBAL__N_112print_stringEPKcP6Status+0xf9>
     db2: 85 14        	sta	$14                     ; 0x2014 <_ZN12_GLOBAL__N_112print_stringEPKcP6Status+0xfb>
     db4: a9 fe        	lda	#$fe
     db6: 32 12        	and	($12)                   ; 0x2012 <_ZN12_GLOBAL__N_112print_stringEPKcP6Status+0xf9>
     db8: 18           	clc
     db9: 65 3c        	adc	$3c                     ; 0x203c <printf+0x17>
     dbb: aa           	tax
     dbc: a5 14        	lda	$14                     ; 0x2014 <_ZN12_GLOBAL__N_112print_stringEPKcP6Status+0xfb>
     dbe: 65 3d        	adc	$3d                     ; 0x203d <printf+0x18>
     dc0: 85 14        	sta	$14                     ; 0x2014 <_ZN12_GLOBAL__N_112print_stringEPKcP6Status+0xfb>
     dc2: 18           	clc
     dc3: 8a           	txa
     dc4: 69 fe        	adc	#$fe
     dc6: 85 15        	sta	$15                     ; 0x2015 <_ZN12_GLOBAL__N_112print_stringEPKcP6Status+0xfc>
     dc8: a5 14        	lda	$14                     ; 0x2014 <_ZN12_GLOBAL__N_112print_stringEPKcP6Status+0xfb>
     dca: 69 ff        	adc	#$ff
     dcc: a6 15        	ldx	$15                     ; 0x2015 <_ZN12_GLOBAL__N_112print_stringEPKcP6Status+0xfc>
     dce: 86 3c        	stx	$3c                     ; 0x203c <printf+0x17>
     dd0: 85 3d        	sta	$3d                     ; 0x203d <printf+0x18>
     dd2: a6 3e        	ldx	$3e                     ; 0x203e <printf+0x19>
     dd4: 86 16        	stx	$16                     ; 0x2016 <_ZN12_GLOBAL__N_112print_stringEPKcP6Status+0xfd>
     dd6: a4 3f        	ldy	$3f                     ; 0x203f <printf+0x1a>
     dd8: a2 00        	ldx	#$0
     dda: 86 14        	stx	$14                     ; 0x2014 <_ZN12_GLOBAL__N_112print_stringEPKcP6Status+0xfb>
     ddc: a2 00        	ldx	#$0
     dde: 86 15        	stx	$15                     ; 0x2015 <_ZN12_GLOBAL__N_112print_stringEPKcP6Status+0xfc>
     de0: c4 15        	cpy	$15                     ; 0x2015 <_ZN12_GLOBAL__N_112print_stringEPKcP6Status+0xfc>
     de2: d0 3e        	bne	$e22 <main+0x8d9>
     de4: a6 16        	ldx	$16                     ; 0x2016 <_ZN12_GLOBAL__N_112print_stringEPKcP6Status+0xfd>
     de6: e4 14        	cpx	$14                     ; 0x2014 <_ZN12_GLOBAL__N_112print_stringEPKcP6Status+0xfb>
     de8: d0 38        	bne	$e22 <main+0x8d9>
     dea: a0 04        	ldy	#$4
     dec: a5 12        	lda	$12                     ; 0x2012 <_ZN12_GLOBAL__N_112print_stringEPKcP6Status+0xf9>
     dee: 18           	clc
     def: 69 04        	adc	#$4
     df1: 85 14        	sta	$14                     ; 0x2014 <_ZN12_GLOBAL__N_112print_stringEPKcP6Status+0xfb>
     df3: a5 13        	lda	$13                     ; 0x2013 <_ZN12_GLOBAL__N_112print_stringEPKcP6Status+0xfa>
     df5: 69 00        	adc	#$0
     df7: 18           	clc
     df8: 85 15        	sta	$15                     ; 0x2015 <_ZN12_GLOBAL__N_112print_stringEPKcP6Status+0xfc>
     dfa: a5 12        	lda	$12                     ; 0x2012 <_ZN12_GLOBAL__N_112print_stringEPKcP6Status+0xf9>
     dfc: 91 12        	sta	($12),y                 ; 0x2012 <_ZN12_GLOBAL__N_112print_stringEPKcP6Status+0xf9>
     dfe: a0 02        	ldy	#$2
     e00: 85 17        	sta	$17                     ; 0x2017 <_ZN12_GLOBAL__N_112print_stringEPKcP6Status+0xfe>
     e02: 69 02        	adc	#$2
     e04: 85 16        	sta	$16                     ; 0x2016 <_ZN12_GLOBAL__N_112print_stringEPKcP6Status+0xfd>
     e06: a5 17        	lda	$17                     ; 0x2017 <_ZN12_GLOBAL__N_112print_stringEPKcP6Status+0xfe>
     e08: 91 12        	sta	($12),y                 ; 0x2012 <_ZN12_GLOBAL__N_112print_stringEPKcP6Status+0xf9>
     e0a: a5 13        	lda	$13                     ; 0x2013 <_ZN12_GLOBAL__N_112print_stringEPKcP6Status+0xfa>
     e0c: 69 00        	adc	#$0
     e0e: 85 17        	sta	$17                     ; 0x2017 <_ZN12_GLOBAL__N_112print_stringEPKcP6Status+0xfe>
     e10: 88           	dey
     e11: a5 13        	lda	$13                     ; 0x2013 <_ZN12_GLOBAL__N_112print_stringEPKcP6Status+0xfa>
     e13: 91 14        	sta	($14),y                 ; 0x2014 <_ZN12_GLOBAL__N_112print_stringEPKcP6Status+0xfb>
     e15: 91 16        	sta	($16),y                 ; 0x2016 <_ZN12_GLOBAL__N_112print_stringEPKcP6Status+0xfd>
     e17: a6 12        	ldx	$12                     ; 0x2012 <_ZN12_GLOBAL__N_112print_stringEPKcP6Status+0xf9>
     e19: 86 3e        	stx	$3e                     ; 0x203e <printf+0x19>
     e1b: a6 13        	ldx	$13                     ; 0x2013 <_ZN12_GLOBAL__N_112print_stringEPKcP6Status+0xfa>
     e1d: 86 3f        	stx	$3f                     ; 0x203f <printf+0x1a>
     e1f: 4c ba 0e     	jmp	$eba <main+0x971>
     e22: a6 12        	ldx	$12                     ; 0x2012 <_ZN12_GLOBAL__N_112print_stringEPKcP6Status+0xf9>
     e24: a5 12        	lda	$12                     ; 0x2012 <_ZN12_GLOBAL__N_112print_stringEPKcP6Status+0xf9>
     e26: 86 1c        	stx	$1c                     ; 0x201c <_ZN12_GLOBAL__N_112print_stringEPKcP6Status+0x103>
     e28: 18           	clc
     e29: 69 02        	adc	#$2
     e2b: 85 14        	sta	$14                     ; 0x2014 <_ZN12_GLOBAL__N_112print_stringEPKcP6Status+0xfb>
     e2d: a6 13        	ldx	$13                     ; 0x2013 <_ZN12_GLOBAL__N_112print_stringEPKcP6Status+0xfa>
     e2f: 84 18        	sty	$18                     ; 0x2018 <_ZN12_GLOBAL__N_112print_stringEPKcP6Status+0xff>
     e31: a5 13        	lda	$13                     ; 0x2013 <_ZN12_GLOBAL__N_112print_stringEPKcP6Status+0xfa>
     e33: 69 00        	adc	#$0
     e35: 85 15        	sta	$15                     ; 0x2015 <_ZN12_GLOBAL__N_112print_stringEPKcP6Status+0xfc>
     e37: a5 16        	lda	$16                     ; 0x2016 <_ZN12_GLOBAL__N_112print_stringEPKcP6Status+0xfd>
     e39: 84 17        	sty	$17                     ; 0x2017 <_ZN12_GLOBAL__N_112print_stringEPKcP6Status+0xfe>
     e3b: a0 02        	ldy	#$2
     e3d: 91 12        	sta	($12),y                 ; 0x2012 <_ZN12_GLOBAL__N_112print_stringEPKcP6Status+0xf9>
     e3f: 85 19        	sta	$19                     ; 0x2019 <_ZN12_GLOBAL__N_112print_stringEPKcP6Status+0x100>
     e41: 88           	dey
     e42: a5 18        	lda	$18                     ; 0x2018 <_ZN12_GLOBAL__N_112print_stringEPKcP6Status+0xff>
     e44: 91 14        	sta	($14),y                 ; 0x2014 <_ZN12_GLOBAL__N_112print_stringEPKcP6Status+0xfb>
     e46: 18           	clc
     e47: a5 19        	lda	$19                     ; 0x2019 <_ZN12_GLOBAL__N_112print_stringEPKcP6Status+0x100>
     e49: 69 04        	adc	#$4
     e4b: a8           	tay
     e4c: a5 18        	lda	$18                     ; 0x2018 <_ZN12_GLOBAL__N_112print_stringEPKcP6Status+0xff>
     e4e: 69 00        	adc	#$0
     e50: 84 18        	sty	$18                     ; 0x2018 <_ZN12_GLOBAL__N_112print_stringEPKcP6Status+0xff>
     e52: 85 19        	sta	$19                     ; 0x2019 <_ZN12_GLOBAL__N_112print_stringEPKcP6Status+0x100>
     e54: a5 1c        	lda	$1c                     ; 0x201c <_ZN12_GLOBAL__N_112print_stringEPKcP6Status+0x103>
     e56: 18           	clc
     e57: 69 04        	adc	#$4
     e59: 85 1a        	sta	$1a                     ; 0x201a <_ZN12_GLOBAL__N_112print_stringEPKcP6Status+0x101>
     e5b: a5 13        	lda	$13                     ; 0x2013 <_ZN12_GLOBAL__N_112print_stringEPKcP6Status+0xfa>
     e5d: 69 00        	adc	#$0
     e5f: 85 1b        	sta	$1b                     ; 0x201b <_ZN12_GLOBAL__N_112print_stringEPKcP6Status+0x102>
     e61: a0 04        	ldy	#$4
     e63: b1 16        	lda	($16),y                 ; 0x2016 <_ZN12_GLOBAL__N_112print_stringEPKcP6Status+0xfd>
     e65: 85 16        	sta	$16                     ; 0x2016 <_ZN12_GLOBAL__N_112print_stringEPKcP6Status+0xfd>
     e67: 85 1d        	sta	$1d                     ; 0x201d <_ZN12_GLOBAL__N_112print_stringEPKcP6Status+0x104>
     e69: a0 01        	ldy	#$1
     e6b: b1 18        	lda	($18),y                 ; 0x2018 <_ZN12_GLOBAL__N_112print_stringEPKcP6Status+0xff>
     e6d: 85 17        	sta	$17                     ; 0x2017 <_ZN12_GLOBAL__N_112print_stringEPKcP6Status+0xfe>
     e6f: 85 19        	sta	$19                     ; 0x2019 <_ZN12_GLOBAL__N_112print_stringEPKcP6Status+0x100>
     e71: a0 04        	ldy	#$4
     e73: a5 1d        	lda	$1d                     ; 0x201d <_ZN12_GLOBAL__N_112print_stringEPKcP6Status+0x104>
     e75: 91 12        	sta	($12),y                 ; 0x2012 <_ZN12_GLOBAL__N_112print_stringEPKcP6Status+0xf9>
     e77: a5 19        	lda	$19                     ; 0x2019 <_ZN12_GLOBAL__N_112print_stringEPKcP6Status+0x100>
     e79: a0 01        	ldy	#$1
     e7b: 91 1a        	sta	($1a),y                 ; 0x201a <_ZN12_GLOBAL__N_112print_stringEPKcP6Status+0x101>
     e7d: 18           	clc
     e7e: a5 1d        	lda	$1d                     ; 0x201d <_ZN12_GLOBAL__N_112print_stringEPKcP6Status+0x104>
     e80: 69 02        	adc	#$2
     e82: 85 18        	sta	$18                     ; 0x2018 <_ZN12_GLOBAL__N_112print_stringEPKcP6Status+0xff>
     e84: a5 19        	lda	$19                     ; 0x2019 <_ZN12_GLOBAL__N_112print_stringEPKcP6Status+0x100>
     e86: 69 00        	adc	#$0
     e88: 85 19        	sta	$19                     ; 0x2019 <_ZN12_GLOBAL__N_112print_stringEPKcP6Status+0x100>
     e8a: a5 1c        	lda	$1c                     ; 0x201c <_ZN12_GLOBAL__N_112print_stringEPKcP6Status+0x103>
     e8c: c8           	iny
     e8d: 91 16        	sta	($16),y                 ; 0x2016 <_ZN12_GLOBAL__N_112print_stringEPKcP6Status+0xfd>
     e8f: a5 13        	lda	$13                     ; 0x2013 <_ZN12_GLOBAL__N_112print_stringEPKcP6Status+0xfa>
     e91: 88           	dey
     e92: 91 18        	sta	($18),y                 ; 0x2018 <_ZN12_GLOBAL__N_112print_stringEPKcP6Status+0xff>
     e94: c8           	iny
     e95: b1 12        	lda	($12),y                 ; 0x2012 <_ZN12_GLOBAL__N_112print_stringEPKcP6Status+0xf9>
     e97: 85 12        	sta	$12                     ; 0x2012 <_ZN12_GLOBAL__N_112print_stringEPKcP6Status+0xf9>
     e99: 85 16        	sta	$16                     ; 0x2016 <_ZN12_GLOBAL__N_112print_stringEPKcP6Status+0xfd>
     e9b: 88           	dey
     e9c: b1 14        	lda	($14),y                 ; 0x2014 <_ZN12_GLOBAL__N_112print_stringEPKcP6Status+0xfb>
     e9e: 85 13        	sta	$13                     ; 0x2013 <_ZN12_GLOBAL__N_112print_stringEPKcP6Status+0xfa>
     ea0: 85 14        	sta	$14                     ; 0x2014 <_ZN12_GLOBAL__N_112print_stringEPKcP6Status+0xfb>
     ea2: a5 1c        	lda	$1c                     ; 0x201c <_ZN12_GLOBAL__N_112print_stringEPKcP6Status+0x103>
     ea4: a0 04        	ldy	#$4
     ea6: 91 12        	sta	($12),y                 ; 0x2012 <_ZN12_GLOBAL__N_112print_stringEPKcP6Status+0xf9>
     ea8: 18           	clc
     ea9: a5 16        	lda	$16                     ; 0x2016 <_ZN12_GLOBAL__N_112print_stringEPKcP6Status+0xfd>
     eab: 69 04        	adc	#$4
     ead: 85 12        	sta	$12                     ; 0x2012 <_ZN12_GLOBAL__N_112print_stringEPKcP6Status+0xf9>
     eaf: a5 14        	lda	$14                     ; 0x2014 <_ZN12_GLOBAL__N_112print_stringEPKcP6Status+0xfb>
     eb1: 69 00        	adc	#$0
     eb3: 85 13        	sta	$13                     ; 0x2013 <_ZN12_GLOBAL__N_112print_stringEPKcP6Status+0xfa>
     eb5: 8a           	txa
     eb6: a0 01        	ldy	#$1
     eb8: 91 12        	sta	($12),y                 ; 0x2012 <_ZN12_GLOBAL__N_112print_stringEPKcP6Status+0xf9>
     eba: a2 34        	ldx	#$34
     ebc: 86 12        	stx	$12                     ; 0x2012 <_ZN12_GLOBAL__N_112print_stringEPKcP6Status+0xf9>
     ebe: a2 00        	ldx	#$0
     ec0: 86 13        	stx	$13                     ; 0x2013 <_ZN12_GLOBAL__N_112print_stringEPKcP6Status+0xfa>
     ec2: 64 35        	stz	$35                     ; 0x2035 <printf+0x10>
     ec4: 20 00 ff     	jsr	$ff00 <__heap_start+0xcde4>
     ec7: 92 2a        	sta	($2a)                   ; 0x202a <printf+0x5>
     ec9: a9 00        	lda	#$0
     ecb: 6a           	ror
     ecc: 85 12        	sta	$12                     ; 0x2012 <_ZN12_GLOBAL__N_112print_stringEPKcP6Status+0xf9>
     ece: a6 35        	ldx	$35                     ; 0x2035 <printf+0x10>
     ed0: e0 38        	cpx	#$38
     ed2: f0 04        	beq	$ed8 <main+0x98f>
     ed4: e0 32        	cpx	#$32
     ed6: d0 ea        	bne	$ec2 <main+0x979>
     ed8: 64 f3        	stz	$f3                     ; 0x20f3 <printf+0xce>
     eda: a2 05        	ldx	#$5
     edc: a0 2f        	ldy	#$2f
     ede: 86 fb        	stx	$fb                     ; 0x20fb <printf+0xd6>
     ee0: 84 fc        	sty	$fc                     ; 0x20fc <printf+0xd7>
     ee2: a2 08        	ldx	#$8
     ee4: 86 fd        	stx	$fd                     ; 0x20fd <printf+0xd8>
     ee6: a2 34        	ldx	#$34
     ee8: 86 2c        	stx	$2c                     ; 0x202c <printf+0x7>
     eea: a2 00        	ldx	#$0
     eec: 86 2d        	stx	$2d                     ; 0x202d <printf+0x8>
     eee: 20 84 ff     	jsr	$ff84 <__heap_start+0xce68>
     ef1: 92 2a        	sta	($2a)                   ; 0x202a <printf+0x5>
     ef3: a9 00        	lda	#$0
     ef5: 6a           	ror
     ef6: 85 2c        	sta	$2c                     ; 0x202c <printf+0x7>
     ef8: a6 34        	ldx	$34                     ; 0x2034 <printf+0xf>
     efa: d0 29        	bne	$f25 <main+0x9dc>
     efc: 64 35        	stz	$35                     ; 0x2035 <printf+0x10>
     efe: 20 00 ff     	jsr	$ff00 <__heap_start+0xcde4>
     f01: 92 2a        	sta	($2a)                   ; 0x202a <printf+0x5>
     f03: a9 00        	lda	#$0
     f05: 6a           	ror
     f06: 85 2c        	sta	$2c                     ; 0x202c <printf+0x7>
     f08: a6 35        	ldx	$35                     ; 0x2035 <printf+0x10>
     f0a: e0 48        	cpx	#$48
     f0c: f0 17        	beq	$f25 <main+0x9dc>
     f0e: e0 4a        	cpx	#$4a
     f10: d0 ea        	bne	$efc <main+0x9b3>
     f12: a9 00        	lda	#$0
     f14: 92 10        	sta	($10)                   ; 0x2010 <_ZN12_GLOBAL__N_112print_stringEPKcP6Status+0xf7>
     f16: a0 01        	ldy	#$1
     f18: 91 10        	sta	($10),y                 ; 0x2010 <_ZN12_GLOBAL__N_112print_stringEPKcP6Status+0xf7>
     f1a: a2 28        	ldx	#$28
     f1c: 86 12        	stx	$12                     ; 0x2012 <_ZN12_GLOBAL__N_112print_stringEPKcP6Status+0xf9>
     f1e: a2 2f        	ldx	#$2f
     f20: 86 13        	stx	$13                     ; 0x2013 <_ZN12_GLOBAL__N_112print_stringEPKcP6Status+0xfa>
     f22: 20 25 20     	jsr	$2025 <printf>
     f25: a2 ce        	ldx	#$ce
     f27: 86 12        	stx	$12                     ; 0x2012 <_ZN12_GLOBAL__N_112print_stringEPKcP6Status+0xf9>
     f29: a2 2f        	ldx	#$2f
     f2b: 86 13        	stx	$13                     ; 0x2013 <_ZN12_GLOBAL__N_112print_stringEPKcP6Status+0xfa>
     f2d: 20 25 20     	jsr	$2025 <printf>
     f30: a2 41        	ldx	#$41
     f32: 86 12        	stx	$12                     ; 0x2012 <_ZN12_GLOBAL__N_112print_stringEPKcP6Status+0xf9>
     f34: a2 2f        	ldx	#$2f
     f36: 86 13        	stx	$13                     ; 0x2013 <_ZN12_GLOBAL__N_112print_stringEPKcP6Status+0xfa>
     f38: 20 5e 15     	jsr	$155e <fileOpen>
     f3b: a6 12        	ldx	$12                     ; 0x2012 <_ZN12_GLOBAL__N_112print_stringEPKcP6Status+0xf9>
     f3d: 86 28        	stx	$28                     ; 0x2028 <printf+0x3>
     f3f: a6 13        	ldx	$13                     ; 0x2013 <_ZN12_GLOBAL__N_112print_stringEPKcP6Status+0xfa>
     f41: 86 29        	stx	$29                     ; 0x2029 <printf+0x4>
     f43: a9 04        	lda	#$4
     f45: a2 00        	ldx	#$0
     f47: a4 26        	ldy	$26                     ; 0x2026 <printf+0x1>
     f49: 84 12        	sty	$12                     ; 0x2012 <_ZN12_GLOBAL__N_112print_stringEPKcP6Status+0xf9>
     f4b: a4 27        	ldy	$27                     ; 0x2027 <printf+0x2>
     f4d: 84 13        	sty	$13                     ; 0x2013 <_ZN12_GLOBAL__N_112print_stringEPKcP6Status+0xfa>
     f4f: a4 28        	ldy	$28                     ; 0x2028 <printf+0x3>
     f51: 84 14        	sty	$14                     ; 0x2014 <_ZN12_GLOBAL__N_112print_stringEPKcP6Status+0xfb>
     f53: a4 29        	ldy	$29                     ; 0x2029 <printf+0x4>
     f55: 84 15        	sty	$15                     ; 0x2015 <_ZN12_GLOBAL__N_112print_stringEPKcP6Status+0xfc>
     f57: 20 d6 18     	jsr	$18d6 <fileWrite>
     f5a: b2 28        	lda	($28)                   ; 0x2028 <printf+0x3>
     f5c: 85 f3        	sta	$f3                     ; 0x20f3 <printf+0xce>
     f5e: a5 28        	lda	$28                     ; 0x2028 <printf+0x3>
     f60: 18           	clc
     f61: 69 fe        	adc	#$fe
     f63: 85 16        	sta	$16                     ; 0x2016 <_ZN12_GLOBAL__N_112print_stringEPKcP6Status+0xfd>
     f65: a5 29        	lda	$29                     ; 0x2029 <printf+0x4>
     f67: 69 ff        	adc	#$ff
     f69: a6 16        	ldx	$16                     ; 0x2016 <_ZN12_GLOBAL__N_112print_stringEPKcP6Status+0xfd>
     f6b: 86 12        	stx	$12                     ; 0x2012 <_ZN12_GLOBAL__N_112print_stringEPKcP6Status+0xf9>
     f6d: aa           	tax
     f6e: 85 13        	sta	$13                     ; 0x2013 <_ZN12_GLOBAL__N_112print_stringEPKcP6Status+0xfa>
     f70: 20 68 ff     	jsr	$ff68 <__heap_start+0xce4c>
     f73: 92 2a        	sta	($2a)                   ; 0x202a <printf+0x5>
     f75: a9 00        	lda	#$0
     f77: 6a           	ror
     f78: 85 2c        	sta	$2c                     ; 0x202c <printf+0x7>
     f7a: b2 12        	lda	($12)                   ; 0x2012 <_ZN12_GLOBAL__N_112print_stringEPKcP6Status+0xf9>
     f7c: 85 18        	sta	$18                     ; 0x2018 <_ZN12_GLOBAL__N_112print_stringEPKcP6Status+0xff>
     f7e: a0 01        	ldy	#$1
     f80: b1 12        	lda	($12),y                 ; 0x2012 <_ZN12_GLOBAL__N_112print_stringEPKcP6Status+0xf9>
     f82: 85 14        	sta	$14                     ; 0x2014 <_ZN12_GLOBAL__N_112print_stringEPKcP6Status+0xfb>
     f84: a9 fe        	lda	#$fe
     f86: 32 12        	and	($12)                   ; 0x2012 <_ZN12_GLOBAL__N_112print_stringEPKcP6Status+0xf9>
     f88: 85 15        	sta	$15                     ; 0x2015 <_ZN12_GLOBAL__N_112print_stringEPKcP6Status+0xfc>
     f8a: a4 16        	ldy	$16                     ; 0x2016 <_ZN12_GLOBAL__N_112print_stringEPKcP6Status+0xfd>
     f8c: 84 1a        	sty	$1a                     ; 0x201a <_ZN12_GLOBAL__N_112print_stringEPKcP6Status+0x101>
     f8e: a5 16        	lda	$16                     ; 0x2016 <_ZN12_GLOBAL__N_112print_stringEPKcP6Status+0xfd>
     f90: 18           	clc
     f91: 65 15        	adc	$15                     ; 0x2015 <_ZN12_GLOBAL__N_112print_stringEPKcP6Status+0xfc>
     f93: 85 16        	sta	$16                     ; 0x2016 <_ZN12_GLOBAL__N_112print_stringEPKcP6Status+0xfd>
     f95: 8a           	txa
     f96: 86 19        	stx	$19                     ; 0x2019 <_ZN12_GLOBAL__N_112print_stringEPKcP6Status+0x100>
     f98: 65 14        	adc	$14                     ; 0x2014 <_ZN12_GLOBAL__N_112print_stringEPKcP6Status+0xfb>
     f9a: c5 2f        	cmp	$2f                     ; 0x202f <printf+0xa>
     f9c: d0 17        	bne	$fb5 <main+0xa6c>
     f9e: a6 16        	ldx	$16                     ; 0x2016 <_ZN12_GLOBAL__N_112print_stringEPKcP6Status+0xfd>
     fa0: e4 2e        	cpx	$2e                     ; 0x202e <printf+0x9>
     fa2: d0 11        	bne	$fb5 <main+0xa6c>
     fa4: a2 00        	ldx	#$0
     fa6: 86 16        	stx	$16                     ; 0x2016 <_ZN12_GLOBAL__N_112print_stringEPKcP6Status+0xfd>
     fa8: a2 00        	ldx	#$0
     faa: 86 17        	stx	$17                     ; 0x2017 <_ZN12_GLOBAL__N_112print_stringEPKcP6Status+0xfe>
     fac: a5 18        	lda	$18                     ; 0x2018 <_ZN12_GLOBAL__N_112print_stringEPKcP6Status+0xff>
     fae: 29 01        	and	#$1
     fb0: d0 0e        	bne	$fc0 <main+0xa77>
     fb2: 4c e0 10     	jmp	$10e0 <main+0xb97>
     fb5: 85 17        	sta	$17                     ; 0x2017 <_ZN12_GLOBAL__N_112print_stringEPKcP6Status+0xfe>
     fb7: a5 18        	lda	$18                     ; 0x2018 <_ZN12_GLOBAL__N_112print_stringEPKcP6Status+0xff>
     fb9: 29 01        	and	#$1
     fbb: d0 03        	bne	$fc0 <main+0xa77>
     fbd: 4c e0 10     	jmp	$10e0 <main+0xb97>
     fc0: a5 28        	lda	$28                     ; 0x2028 <printf+0x3>
     fc2: 18           	clc
     fc3: 69 fc        	adc	#$fc
     fc5: 85 12        	sta	$12                     ; 0x2012 <_ZN12_GLOBAL__N_112print_stringEPKcP6Status+0xf9>
     fc7: a5 29        	lda	$29                     ; 0x2029 <printf+0x4>
     fc9: 69 ff        	adc	#$ff
     fcb: 85 13        	sta	$13                     ; 0x2013 <_ZN12_GLOBAL__N_112print_stringEPKcP6Status+0xfa>
     fcd: a0 01        	ldy	#$1
     fcf: a9 00        	lda	#$0
     fd1: 38           	sec
     fd2: f2 12        	sbc	($12)                   ; 0x2012 <_ZN12_GLOBAL__N_112print_stringEPKcP6Status+0xf9>
     fd4: 85 18        	sta	$18                     ; 0x2018 <_ZN12_GLOBAL__N_112print_stringEPKcP6Status+0xff>
     fd6: a9 00        	lda	#$0
     fd8: f1 12        	sbc	($12),y                 ; 0x2012 <_ZN12_GLOBAL__N_112print_stringEPKcP6Status+0xf9>
     fda: 85 13        	sta	$13                     ; 0x2013 <_ZN12_GLOBAL__N_112print_stringEPKcP6Status+0xfa>
     fdc: a5 1a        	lda	$1a                     ; 0x201a <_ZN12_GLOBAL__N_112print_stringEPKcP6Status+0x101>
     fde: 18           	clc
     fdf: 65 18        	adc	$18                     ; 0x2018 <_ZN12_GLOBAL__N_112print_stringEPKcP6Status+0xff>
     fe1: 85 12        	sta	$12                     ; 0x2012 <_ZN12_GLOBAL__N_112print_stringEPKcP6Status+0xf9>
     fe3: 85 1a        	sta	$1a                     ; 0x201a <_ZN12_GLOBAL__N_112print_stringEPKcP6Status+0x101>
     fe5: a5 19        	lda	$19                     ; 0x2019 <_ZN12_GLOBAL__N_112print_stringEPKcP6Status+0x100>
     fe7: 65 13        	adc	$13                     ; 0x2013 <_ZN12_GLOBAL__N_112print_stringEPKcP6Status+0xfa>
     fe9: 85 13        	sta	$13                     ; 0x2013 <_ZN12_GLOBAL__N_112print_stringEPKcP6Status+0xfa>
     feb: aa           	tax
     fec: b1 12        	lda	($12),y                 ; 0x2012 <_ZN12_GLOBAL__N_112print_stringEPKcP6Status+0xf9>
     fee: 85 1b        	sta	$1b                     ; 0x201b <_ZN12_GLOBAL__N_112print_stringEPKcP6Status+0x102>
     ff0: a9 fe        	lda	#$fe
     ff2: 32 12        	and	($12)                   ; 0x2012 <_ZN12_GLOBAL__N_112print_stringEPKcP6Status+0xf9>
     ff4: a4 3c        	ldy	$3c                     ; 0x203c <printf+0x17>
     ff6: 85 1d        	sta	$1d                     ; 0x201d <_ZN12_GLOBAL__N_112print_stringEPKcP6Status+0x104>
     ff8: 85 18        	sta	$18                     ; 0x2018 <_ZN12_GLOBAL__N_112print_stringEPKcP6Status+0xff>
     ffa: 38           	sec
     ffb: 98           	tya
     ffc: e5 18        	sbc	$18                     ; 0x2018 <_ZN12_GLOBAL__N_112print_stringEPKcP6Status+0xff>
     ffe: 85 19        	sta	$19                     ; 0x2019 <_ZN12_GLOBAL__N_112print_stringEPKcP6Status+0x100>
    1000: a4 1b        	ldy	$1b                     ; 0x201b <_ZN12_GLOBAL__N_112print_stringEPKcP6Status+0x102>
    1002: 84 1c        	sty	$1c                     ; 0x201c <_ZN12_GLOBAL__N_112print_stringEPKcP6Status+0x103>
    1004: 84 18        	sty	$18                     ; 0x2018 <_ZN12_GLOBAL__N_112print_stringEPKcP6Status+0xff>
    1006: a5 3d        	lda	$3d                     ; 0x203d <printf+0x18>
    1008: e5 18        	sbc	$18                     ; 0x2018 <_ZN12_GLOBAL__N_112print_stringEPKcP6Status+0xff>
    100a: a8           	tay
    100b: 18           	clc
    100c: a5 19        	lda	$19                     ; 0x2019 <_ZN12_GLOBAL__N_112print_stringEPKcP6Status+0x100>
    100e: 69 02        	adc	#$2
    1010: 85 18        	sta	$18                     ; 0x2018 <_ZN12_GLOBAL__N_112print_stringEPKcP6Status+0xff>
    1012: 98           	tya
    1013: 69 00        	adc	#$0
    1015: a4 18        	ldy	$18                     ; 0x2018 <_ZN12_GLOBAL__N_112print_stringEPKcP6Status+0xff>
    1017: 84 3c        	sty	$3c                     ; 0x203c <printf+0x17>
    1019: 85 3d        	sta	$3d                     ; 0x203d <printf+0x18>
    101b: a4 1a        	ldy	$1a                     ; 0x201a <_ZN12_GLOBAL__N_112print_stringEPKcP6Status+0x101>
    101d: 84 1b        	sty	$1b                     ; 0x201b <_ZN12_GLOBAL__N_112print_stringEPKcP6Status+0x102>
    101f: a5 1a        	lda	$1a                     ; 0x201a <_ZN12_GLOBAL__N_112print_stringEPKcP6Status+0x101>
    1021: 18           	clc
    1022: 69 02        	adc	#$2
    1024: 85 18        	sta	$18                     ; 0x2018 <_ZN12_GLOBAL__N_112print_stringEPKcP6Status+0xff>
    1026: 86 1a        	stx	$1a                     ; 0x201a <_ZN12_GLOBAL__N_112print_stringEPKcP6Status+0x101>
    1028: 8a           	txa
    1029: 69 00        	adc	#$0
    102b: a0 02        	ldy	#$2
    102d: 85 19        	sta	$19                     ; 0x2019 <_ZN12_GLOBAL__N_112print_stringEPKcP6Status+0x100>
    102f: b1 12        	lda	($12),y                 ; 0x2012 <_ZN12_GLOBAL__N_112print_stringEPKcP6Status+0xf9>
    1031: aa           	tax
    1032: 88           	dey
    1033: b1 18        	lda	($18),y                 ; 0x2018 <_ZN12_GLOBAL__N_112print_stringEPKcP6Status+0xff>
    1035: 85 1f        	sta	$1f                     ; 0x201f <_ZN12_GLOBAL__N_112print_stringEPKcP6Status+0x106>
    1037: c5 13        	cmp	$13                     ; 0x2013 <_ZN12_GLOBAL__N_112print_stringEPKcP6Status+0xfa>
    1039: d0 0f        	bne	$104a <main+0xb01>
    103b: e4 12        	cpx	$12                     ; 0x2012 <_ZN12_GLOBAL__N_112print_stringEPKcP6Status+0xf9>
    103d: d0 0b        	bne	$104a <main+0xb01>
    103f: a2 00        	ldx	#$0
    1041: 86 18        	stx	$18                     ; 0x2018 <_ZN12_GLOBAL__N_112print_stringEPKcP6Status+0xff>
    1043: a2 00        	ldx	#$0
    1045: 86 19        	stx	$19                     ; 0x2019 <_ZN12_GLOBAL__N_112print_stringEPKcP6Status+0x100>
    1047: 4c cb 10     	jmp	$10cb <main+0xb82>
    104a: 86 1e        	stx	$1e                     ; 0x201e <_ZN12_GLOBAL__N_112print_stringEPKcP6Status+0x105>
    104c: 18           	clc
    104d: a5 1b        	lda	$1b                     ; 0x201b <_ZN12_GLOBAL__N_112print_stringEPKcP6Status+0x102>
    104f: a6 1b        	ldx	$1b                     ; 0x201b <_ZN12_GLOBAL__N_112print_stringEPKcP6Status+0x102>
    1051: 86 22        	stx	$22                     ; 0x2022 <_ZN12_GLOBAL__N_112print_stringEPKcP6Status+0x109>
    1053: 69 04        	adc	#$4
    1055: 85 18        	sta	$18                     ; 0x2018 <_ZN12_GLOBAL__N_112print_stringEPKcP6Status+0xff>
    1057: a6 1a        	ldx	$1a                     ; 0x201a <_ZN12_GLOBAL__N_112print_stringEPKcP6Status+0x101>
    1059: 86 23        	stx	$23                     ; 0x2023 <_ZN12_GLOBAL__N_112print_stringEPKcP6Status+0x10a>
    105b: a5 1a        	lda	$1a                     ; 0x201a <_ZN12_GLOBAL__N_112print_stringEPKcP6Status+0x101>
    105d: 69 00        	adc	#$0
    105f: a0 04        	ldy	#$4
    1061: 85 19        	sta	$19                     ; 0x2019 <_ZN12_GLOBAL__N_112print_stringEPKcP6Status+0x100>
    1063: b1 12        	lda	($12),y                 ; 0x2012 <_ZN12_GLOBAL__N_112print_stringEPKcP6Status+0xf9>
    1065: 85 26        	sta	$26                     ; 0x2026 <printf+0x1>
    1067: 18           	clc
    1068: 69 02        	adc	#$2
    106a: 85 1a        	sta	$1a                     ; 0x201a <_ZN12_GLOBAL__N_112print_stringEPKcP6Status+0x101>
    106c: a0 01        	ldy	#$1
    106e: b1 18        	lda	($18),y                 ; 0x2018 <_ZN12_GLOBAL__N_112print_stringEPKcP6Status+0xff>
    1070: aa           	tax
    1071: 69 00        	adc	#$0
    1073: a4 1a        	ldy	$1a                     ; 0x201a <_ZN12_GLOBAL__N_112print_stringEPKcP6Status+0x101>
    1075: 84 18        	sty	$18                     ; 0x2018 <_ZN12_GLOBAL__N_112print_stringEPKcP6Status+0xff>
    1077: 85 19        	sta	$19                     ; 0x2019 <_ZN12_GLOBAL__N_112print_stringEPKcP6Status+0x100>
    1079: a4 26        	ldy	$26                     ; 0x2026 <printf+0x1>
    107b: 84 1a        	sty	$1a                     ; 0x201a <_ZN12_GLOBAL__N_112print_stringEPKcP6Status+0x101>
    107d: 86 1b        	stx	$1b                     ; 0x201b <_ZN12_GLOBAL__N_112print_stringEPKcP6Status+0x102>
    107f: a0 02        	ldy	#$2
    1081: a5 1e        	lda	$1e                     ; 0x201e <_ZN12_GLOBAL__N_112print_stringEPKcP6Status+0x105>
    1083: 91 1a        	sta	($1a),y                 ; 0x201a <_ZN12_GLOBAL__N_112print_stringEPKcP6Status+0x101>
    1085: a5 1f        	lda	$1f                     ; 0x201f <_ZN12_GLOBAL__N_112print_stringEPKcP6Status+0x106>
    1087: 88           	dey
    1088: 91 18        	sta	($18),y                 ; 0x2018 <_ZN12_GLOBAL__N_112print_stringEPKcP6Status+0xff>
    108a: 18           	clc
    108b: a5 22        	lda	$22                     ; 0x2022 <_ZN12_GLOBAL__N_112print_stringEPKcP6Status+0x109>
    108d: 69 02        	adc	#$2
    108f: 85 18        	sta	$18                     ; 0x2018 <_ZN12_GLOBAL__N_112print_stringEPKcP6Status+0xff>
    1091: a5 23        	lda	$23                     ; 0x2023 <_ZN12_GLOBAL__N_112print_stringEPKcP6Status+0x10a>
    1093: 69 00        	adc	#$0
    1095: 85 19        	sta	$19                     ; 0x2019 <_ZN12_GLOBAL__N_112print_stringEPKcP6Status+0x100>
    1097: c8           	iny
    1098: b1 12        	lda	($12),y                 ; 0x2012 <_ZN12_GLOBAL__N_112print_stringEPKcP6Status+0xf9>
    109a: 85 1a        	sta	$1a                     ; 0x201a <_ZN12_GLOBAL__N_112print_stringEPKcP6Status+0x101>
    109c: 88           	dey
    109d: b1 18        	lda	($18),y                 ; 0x2018 <_ZN12_GLOBAL__N_112print_stringEPKcP6Status+0xff>
    109f: a4 1a        	ldy	$1a                     ; 0x201a <_ZN12_GLOBAL__N_112print_stringEPKcP6Status+0x101>
    10a1: 84 18        	sty	$18                     ; 0x2018 <_ZN12_GLOBAL__N_112print_stringEPKcP6Status+0xff>
    10a3: 85 19        	sta	$19                     ; 0x2019 <_ZN12_GLOBAL__N_112print_stringEPKcP6Status+0x100>
    10a5: 85 1b        	sta	$1b                     ; 0x201b <_ZN12_GLOBAL__N_112print_stringEPKcP6Status+0x102>
    10a7: a0 04        	ldy	#$4
    10a9: a5 26        	lda	$26                     ; 0x2026 <printf+0x1>
    10ab: 91 18        	sta	($18),y                 ; 0x2018 <_ZN12_GLOBAL__N_112print_stringEPKcP6Status+0xff>
    10ad: 18           	clc
    10ae: a5 1a        	lda	$1a                     ; 0x201a <_ZN12_GLOBAL__N_112print_stringEPKcP6Status+0x101>
    10b0: 69 04        	adc	#$4
    10b2: 85 1a        	sta	$1a                     ; 0x201a <_ZN12_GLOBAL__N_112print_stringEPKcP6Status+0x101>
    10b4: a5 1b        	lda	$1b                     ; 0x201b <_ZN12_GLOBAL__N_112print_stringEPKcP6Status+0x102>
    10b6: 69 00        	adc	#$0
    10b8: 85 1b        	sta	$1b                     ; 0x201b <_ZN12_GLOBAL__N_112print_stringEPKcP6Status+0x102>
    10ba: 8a           	txa
    10bb: a0 01        	ldy	#$1
    10bd: 91 1a        	sta	($1a),y                 ; 0x201a <_ZN12_GLOBAL__N_112print_stringEPKcP6Status+0x101>
    10bf: a6 3f        	ldx	$3f                     ; 0x203f <printf+0x1a>
    10c1: e4 13        	cpx	$13                     ; 0x2013 <_ZN12_GLOBAL__N_112print_stringEPKcP6Status+0xfa>
    10c3: d0 0e        	bne	$10d3 <main+0xb8a>
    10c5: a6 3e        	ldx	$3e                     ; 0x203e <printf+0x19>
    10c7: e4 12        	cpx	$12                     ; 0x2012 <_ZN12_GLOBAL__N_112print_stringEPKcP6Status+0xf9>
    10c9: d0 08        	bne	$10d3 <main+0xb8a>
    10cb: a6 18        	ldx	$18                     ; 0x2018 <_ZN12_GLOBAL__N_112print_stringEPKcP6Status+0xff>
    10cd: a4 19        	ldy	$19                     ; 0x2019 <_ZN12_GLOBAL__N_112print_stringEPKcP6Status+0x100>
    10cf: 86 3e        	stx	$3e                     ; 0x203e <printf+0x19>
    10d1: 84 3f        	sty	$3f                     ; 0x203f <printf+0x1a>
    10d3: 18           	clc
    10d4: a5 1d        	lda	$1d                     ; 0x201d <_ZN12_GLOBAL__N_112print_stringEPKcP6Status+0x104>
    10d6: 65 15        	adc	$15                     ; 0x2015 <_ZN12_GLOBAL__N_112print_stringEPKcP6Status+0xfc>
    10d8: 85 15        	sta	$15                     ; 0x2015 <_ZN12_GLOBAL__N_112print_stringEPKcP6Status+0xfc>
    10da: a5 1c        	lda	$1c                     ; 0x201c <_ZN12_GLOBAL__N_112print_stringEPKcP6Status+0x103>
    10dc: 65 14        	adc	$14                     ; 0x2014 <_ZN12_GLOBAL__N_112print_stringEPKcP6Status+0xfb>
    10de: 85 14        	sta	$14                     ; 0x2014 <_ZN12_GLOBAL__N_112print_stringEPKcP6Status+0xfb>
    10e0: a2 00        	ldx	#$0
    10e2: 86 18        	stx	$18                     ; 0x2018 <_ZN12_GLOBAL__N_112print_stringEPKcP6Status+0xff>
    10e4: a2 00        	ldx	#$0
    10e6: 86 19        	stx	$19                     ; 0x2019 <_ZN12_GLOBAL__N_112print_stringEPKcP6Status+0x100>
    10e8: a6 17        	ldx	$17                     ; 0x2017 <_ZN12_GLOBAL__N_112print_stringEPKcP6Status+0xfe>
    10ea: e4 19        	cpx	$19                     ; 0x2019 <_ZN12_GLOBAL__N_112print_stringEPKcP6Status+0x100>
    10ec: d0 0e        	bne	$10fc <main+0xbb3>
    10ee: a6 16        	ldx	$16                     ; 0x2016 <_ZN12_GLOBAL__N_112print_stringEPKcP6Status+0xfd>
    10f0: e4 18        	cpx	$18                     ; 0x2018 <_ZN12_GLOBAL__N_112print_stringEPKcP6Status+0xff>
    10f2: d0 08        	bne	$10fc <main+0xbb3>
    10f4: a2 01        	ldx	#$1
    10f6: 8e 1a 31     	stx	$311a                   ; 0x311a <_ZN12_GLOBAL__N_19last_freeE>
    10f9: 4c 1b 12     	jmp	$121b <main+0xcd2>
    10fc: a0 01        	ldy	#$1
    10fe: b1 16        	lda	($16),y                 ; 0x2016 <_ZN12_GLOBAL__N_112print_stringEPKcP6Status+0xfd>
    1100: aa           	tax
    1101: a9 fe        	lda	#$fe
    1103: 32 16        	and	($16)                   ; 0x2016 <_ZN12_GLOBAL__N_112print_stringEPKcP6Status+0xfd>
    1105: 18           	clc
    1106: 85 1d        	sta	$1d                     ; 0x201d <_ZN12_GLOBAL__N_112print_stringEPKcP6Status+0x104>
    1108: 65 16        	adc	$16                     ; 0x2016 <_ZN12_GLOBAL__N_112print_stringEPKcP6Status+0xfd>
    110a: 85 18        	sta	$18                     ; 0x2018 <_ZN12_GLOBAL__N_112print_stringEPKcP6Status+0xff>
    110c: 8a           	txa
    110d: 86 1c        	stx	$1c                     ; 0x201c <_ZN12_GLOBAL__N_112print_stringEPKcP6Status+0x103>
    110f: 65 17        	adc	$17                     ; 0x2017 <_ZN12_GLOBAL__N_112print_stringEPKcP6Status+0xfe>
    1111: c5 2f        	cmp	$2f                     ; 0x202f <printf+0xa>
    1113: d0 13        	bne	$1128 <main+0xbdf>
    1115: a6 18        	ldx	$18                     ; 0x2018 <_ZN12_GLOBAL__N_112print_stringEPKcP6Status+0xff>
    1117: e4 2e        	cpx	$2e                     ; 0x202e <printf+0x9>
    1119: d0 0d        	bne	$1128 <main+0xbdf>
    111b: a9 01        	lda	#$1
    111d: 64 18        	stz	$18                     ; 0x2018 <_ZN12_GLOBAL__N_112print_stringEPKcP6Status+0xff>
    111f: 2d 1a 31     	and	$311a                   ; 0x311a <_ZN12_GLOBAL__N_19last_freeE>
    1122: a6 18        	ldx	$18                     ; 0x2018 <_ZN12_GLOBAL__N_112print_stringEPKcP6Status+0xff>
    1124: d0 14        	bne	$113a <main+0xbf1>
    1126: 80 0c        	bra	$1134 <main+0xbeb>
    1128: 85 19        	sta	$19                     ; 0x2019 <_ZN12_GLOBAL__N_112print_stringEPKcP6Status+0x100>
    112a: a9 01        	lda	#$1
    112c: 32 18        	and	($18)                   ; 0x2018 <_ZN12_GLOBAL__N_112print_stringEPKcP6Status+0xff>
    112e: 64 18        	stz	$18                     ; 0x2018 <_ZN12_GLOBAL__N_112print_stringEPKcP6Status+0xff>
    1130: a6 18        	ldx	$18                     ; 0x2018 <_ZN12_GLOBAL__N_112print_stringEPKcP6Status+0xff>
    1132: d0 06        	bne	$113a <main+0xbf1>
    1134: aa           	tax
    1135: d0 03        	bne	$113a <main+0xbf1>
    1137: 4c 11 12     	jmp	$1211 <main+0xcc8>
    113a: a5 3c        	lda	$3c                     ; 0x203c <printf+0x17>
    113c: a6 3d        	ldx	$3d                     ; 0x203d <printf+0x18>
    113e: 86 19        	stx	$19                     ; 0x2019 <_ZN12_GLOBAL__N_112print_stringEPKcP6Status+0x100>
    1140: 38           	sec
    1141: e5 1d        	sbc	$1d                     ; 0x201d <_ZN12_GLOBAL__N_112print_stringEPKcP6Status+0x104>
    1143: aa           	tax
    1144: a5 19        	lda	$19                     ; 0x2019 <_ZN12_GLOBAL__N_112print_stringEPKcP6Status+0x100>
    1146: e5 1c        	sbc	$1c                     ; 0x201c <_ZN12_GLOBAL__N_112print_stringEPKcP6Status+0x103>
    1148: 85 18        	sta	$18                     ; 0x2018 <_ZN12_GLOBAL__N_112print_stringEPKcP6Status+0xff>
    114a: 18           	clc
    114b: 8a           	txa
    114c: 69 02        	adc	#$2
    114e: 85 19        	sta	$19                     ; 0x2019 <_ZN12_GLOBAL__N_112print_stringEPKcP6Status+0x100>
    1150: a5 18        	lda	$18                     ; 0x2018 <_ZN12_GLOBAL__N_112print_stringEPKcP6Status+0xff>
    1152: 69 00        	adc	#$0
    1154: a6 19        	ldx	$19                     ; 0x2019 <_ZN12_GLOBAL__N_112print_stringEPKcP6Status+0x100>
    1156: 86 3c        	stx	$3c                     ; 0x203c <printf+0x17>
    1158: 85 3d        	sta	$3d                     ; 0x203d <printf+0x18>
    115a: a5 16        	lda	$16                     ; 0x2016 <_ZN12_GLOBAL__N_112print_stringEPKcP6Status+0xfd>
    115c: 18           	clc
    115d: 69 02        	adc	#$2
    115f: 85 18        	sta	$18                     ; 0x2018 <_ZN12_GLOBAL__N_112print_stringEPKcP6Status+0xff>
    1161: a5 17        	lda	$17                     ; 0x2017 <_ZN12_GLOBAL__N_112print_stringEPKcP6Status+0xfe>
    1163: 69 00        	adc	#$0
    1165: a0 02        	ldy	#$2
    1167: 85 19        	sta	$19                     ; 0x2019 <_ZN12_GLOBAL__N_112print_stringEPKcP6Status+0x100>
    1169: b1 16        	lda	($16),y                 ; 0x2016 <_ZN12_GLOBAL__N_112print_stringEPKcP6Status+0xfd>
    116b: aa           	tax
    116c: 88           	dey
    116d: b1 18        	lda	($18),y                 ; 0x2018 <_ZN12_GLOBAL__N_112print_stringEPKcP6Status+0xff>
    116f: 85 1f        	sta	$1f                     ; 0x201f <_ZN12_GLOBAL__N_112print_stringEPKcP6Status+0x106>
    1171: c5 17        	cmp	$17                     ; 0x2017 <_ZN12_GLOBAL__N_112print_stringEPKcP6Status+0xfe>
    1173: d0 0f        	bne	$1184 <main+0xc3b>
    1175: e4 16        	cpx	$16                     ; 0x2016 <_ZN12_GLOBAL__N_112print_stringEPKcP6Status+0xfd>
    1177: d0 0b        	bne	$1184 <main+0xc3b>
    1179: a2 00        	ldx	#$0
    117b: 86 18        	stx	$18                     ; 0x2018 <_ZN12_GLOBAL__N_112print_stringEPKcP6Status+0xff>
    117d: a2 00        	ldx	#$0
    117f: 86 19        	stx	$19                     ; 0x2019 <_ZN12_GLOBAL__N_112print_stringEPKcP6Status+0x100>
    1181: 4c fb 11     	jmp	$11fb <main+0xcb2>
    1184: 18           	clc
    1185: a5 16        	lda	$16                     ; 0x2016 <_ZN12_GLOBAL__N_112print_stringEPKcP6Status+0xfd>
    1187: 69 04        	adc	#$4
    1189: 85 18        	sta	$18                     ; 0x2018 <_ZN12_GLOBAL__N_112print_stringEPKcP6Status+0xff>
    118b: a5 17        	lda	$17                     ; 0x2017 <_ZN12_GLOBAL__N_112print_stringEPKcP6Status+0xfe>
    118d: 69 00        	adc	#$0
    118f: a0 04        	ldy	#$4
    1191: 85 19        	sta	$19                     ; 0x2019 <_ZN12_GLOBAL__N_112print_stringEPKcP6Status+0x100>
    1193: b1 16        	lda	($16),y                 ; 0x2016 <_ZN12_GLOBAL__N_112print_stringEPKcP6Status+0xfd>
    1195: 85 26        	sta	$26                     ; 0x2026 <printf+0x1>
    1197: 18           	clc
    1198: 69 02        	adc	#$2
    119a: 85 1a        	sta	$1a                     ; 0x201a <_ZN12_GLOBAL__N_112print_stringEPKcP6Status+0x101>
    119c: a0 01        	ldy	#$1
    119e: b1 18        	lda	($18),y                 ; 0x2018 <_ZN12_GLOBAL__N_112print_stringEPKcP6Status+0xff>
    11a0: 85 23        	sta	$23                     ; 0x2023 <_ZN12_GLOBAL__N_112print_stringEPKcP6Status+0x10a>
    11a2: 69 00        	adc	#$0
    11a4: a4 1a        	ldy	$1a                     ; 0x201a <_ZN12_GLOBAL__N_112print_stringEPKcP6Status+0x101>
    11a6: 84 18        	sty	$18                     ; 0x2018 <_ZN12_GLOBAL__N_112print_stringEPKcP6Status+0xff>
    11a8: 85 19        	sta	$19                     ; 0x2019 <_ZN12_GLOBAL__N_112print_stringEPKcP6Status+0x100>
    11aa: a4 26        	ldy	$26                     ; 0x2026 <printf+0x1>
    11ac: 84 1a        	sty	$1a                     ; 0x201a <_ZN12_GLOBAL__N_112print_stringEPKcP6Status+0x101>
    11ae: a4 23        	ldy	$23                     ; 0x2023 <_ZN12_GLOBAL__N_112print_stringEPKcP6Status+0x10a>
    11b0: 84 1b        	sty	$1b                     ; 0x201b <_ZN12_GLOBAL__N_112print_stringEPKcP6Status+0x102>
    11b2: a0 02        	ldy	#$2
    11b4: 8a           	txa
    11b5: 91 1a        	sta	($1a),y                 ; 0x201a <_ZN12_GLOBAL__N_112print_stringEPKcP6Status+0x101>
    11b7: a5 1f        	lda	$1f                     ; 0x201f <_ZN12_GLOBAL__N_112print_stringEPKcP6Status+0x106>
    11b9: 88           	dey
    11ba: 91 18        	sta	($18),y                 ; 0x2018 <_ZN12_GLOBAL__N_112print_stringEPKcP6Status+0xff>
    11bc: 18           	clc
    11bd: a5 16        	lda	$16                     ; 0x2016 <_ZN12_GLOBAL__N_112print_stringEPKcP6Status+0xfd>
    11bf: 69 02        	adc	#$2
    11c1: 85 18        	sta	$18                     ; 0x2018 <_ZN12_GLOBAL__N_112print_stringEPKcP6Status+0xff>
    11c3: a5 17        	lda	$17                     ; 0x2017 <_ZN12_GLOBAL__N_112print_stringEPKcP6Status+0xfe>
    11c5: 69 00        	adc	#$0
    11c7: 85 19        	sta	$19                     ; 0x2019 <_ZN12_GLOBAL__N_112print_stringEPKcP6Status+0x100>
    11c9: c8           	iny
    11ca: b1 16        	lda	($16),y                 ; 0x2016 <_ZN12_GLOBAL__N_112print_stringEPKcP6Status+0xfd>
    11cc: aa           	tax
    11cd: 88           	dey
    11ce: b1 18        	lda	($18),y                 ; 0x2018 <_ZN12_GLOBAL__N_112print_stringEPKcP6Status+0xff>
    11d0: 86 18        	stx	$18                     ; 0x2018 <_ZN12_GLOBAL__N_112print_stringEPKcP6Status+0xff>
    11d2: 85 19        	sta	$19                     ; 0x2019 <_ZN12_GLOBAL__N_112print_stringEPKcP6Status+0x100>
    11d4: 85 1a        	sta	$1a                     ; 0x201a <_ZN12_GLOBAL__N_112print_stringEPKcP6Status+0x101>
    11d6: a0 04        	ldy	#$4
    11d8: a5 26        	lda	$26                     ; 0x2026 <printf+0x1>
    11da: 91 18        	sta	($18),y                 ; 0x2018 <_ZN12_GLOBAL__N_112print_stringEPKcP6Status+0xff>
    11dc: 18           	clc
    11dd: 8a           	txa
    11de: 69 04        	adc	#$4
    11e0: aa           	tax
    11e1: a5 1a        	lda	$1a                     ; 0x201a <_ZN12_GLOBAL__N_112print_stringEPKcP6Status+0x101>
    11e3: 69 00        	adc	#$0
    11e5: 86 1a        	stx	$1a                     ; 0x201a <_ZN12_GLOBAL__N_112print_stringEPKcP6Status+0x101>
    11e7: 85 1b        	sta	$1b                     ; 0x201b <_ZN12_GLOBAL__N_112print_stringEPKcP6Status+0x102>
    11e9: a5 23        	lda	$23                     ; 0x2023 <_ZN12_GLOBAL__N_112print_stringEPKcP6Status+0x10a>
    11eb: a0 01        	ldy	#$1
    11ed: 91 1a        	sta	($1a),y                 ; 0x201a <_ZN12_GLOBAL__N_112print_stringEPKcP6Status+0x101>
    11ef: a6 3f        	ldx	$3f                     ; 0x203f <printf+0x1a>
    11f1: e4 17        	cpx	$17                     ; 0x2017 <_ZN12_GLOBAL__N_112print_stringEPKcP6Status+0xfe>
    11f3: d0 0e        	bne	$1203 <main+0xcba>
    11f5: a6 3e        	ldx	$3e                     ; 0x203e <printf+0x19>
    11f7: e4 16        	cpx	$16                     ; 0x2016 <_ZN12_GLOBAL__N_112print_stringEPKcP6Status+0xfd>
    11f9: d0 08        	bne	$1203 <main+0xcba>
    11fb: a6 18        	ldx	$18                     ; 0x2018 <_ZN12_GLOBAL__N_112print_stringEPKcP6Status+0xff>
    11fd: a4 19        	ldy	$19                     ; 0x2019 <_ZN12_GLOBAL__N_112print_stringEPKcP6Status+0x100>
    11ff: 86 3e        	stx	$3e                     ; 0x203e <printf+0x19>
    1201: 84 3f        	sty	$3f                     ; 0x203f <printf+0x1a>
    1203: 18           	clc
    1204: a5 1d        	lda	$1d                     ; 0x201d <_ZN12_GLOBAL__N_112print_stringEPKcP6Status+0x104>
    1206: 65 15        	adc	$15                     ; 0x2015 <_ZN12_GLOBAL__N_112print_stringEPKcP6Status+0xfc>
    1208: 85 15        	sta	$15                     ; 0x2015 <_ZN12_GLOBAL__N_112print_stringEPKcP6Status+0xfc>
    120a: a5 1c        	lda	$1c                     ; 0x201c <_ZN12_GLOBAL__N_112print_stringEPKcP6Status+0x103>
    120c: 65 14        	adc	$14                     ; 0x2014 <_ZN12_GLOBAL__N_112print_stringEPKcP6Status+0xfb>
    120e: aa           	tax
    120f: 80 0c        	bra	$121d <main+0xcd4>
    1211: b2 16        	lda	($16)                   ; 0x2016 <_ZN12_GLOBAL__N_112print_stringEPKcP6Status+0xfd>
    1213: 09 01        	ora	#$1
    1215: 92 16        	sta	($16)                   ; 0x2016 <_ZN12_GLOBAL__N_112print_stringEPKcP6Status+0xfd>
    1217: a5 1c        	lda	$1c                     ; 0x201c <_ZN12_GLOBAL__N_112print_stringEPKcP6Status+0x103>
    1219: 91 16        	sta	($16),y                 ; 0x2016 <_ZN12_GLOBAL__N_112print_stringEPKcP6Status+0xfd>
    121b: a6 14        	ldx	$14                     ; 0x2014 <_ZN12_GLOBAL__N_112print_stringEPKcP6Status+0xfb>
    121d: a9 01        	lda	#$1
    121f: 32 12        	and	($12)                   ; 0x2012 <_ZN12_GLOBAL__N_112print_stringEPKcP6Status+0xf9>
    1221: a4 15        	ldy	$15                     ; 0x2015 <_ZN12_GLOBAL__N_112print_stringEPKcP6Status+0xfc>
    1223: 84 16        	sty	$16                     ; 0x2016 <_ZN12_GLOBAL__N_112print_stringEPKcP6Status+0xfd>
    1225: 05 15        	ora	$15                     ; 0x2015 <_ZN12_GLOBAL__N_112print_stringEPKcP6Status+0xfc>
    1227: 92 12        	sta	($12)                   ; 0x2012 <_ZN12_GLOBAL__N_112print_stringEPKcP6Status+0xf9>
    1229: a5 12        	lda	$12                     ; 0x2012 <_ZN12_GLOBAL__N_112print_stringEPKcP6Status+0xf9>
    122b: 18           	clc
    122c: 65 15        	adc	$15                     ; 0x2015 <_ZN12_GLOBAL__N_112print_stringEPKcP6Status+0xfc>
    122e: a8           	tay
    122f: 8a           	txa
    1230: 65 13        	adc	$13                     ; 0x2013 <_ZN12_GLOBAL__N_112print_stringEPKcP6Status+0xfa>
    1232: 85 15        	sta	$15                     ; 0x2015 <_ZN12_GLOBAL__N_112print_stringEPKcP6Status+0xfc>
    1234: 18           	clc
    1235: 98           	tya
    1236: 69 fe        	adc	#$fe
    1238: 85 14        	sta	$14                     ; 0x2014 <_ZN12_GLOBAL__N_112print_stringEPKcP6Status+0xfb>
    123a: a5 15        	lda	$15                     ; 0x2015 <_ZN12_GLOBAL__N_112print_stringEPKcP6Status+0xfc>
    123c: 69 ff        	adc	#$ff
    123e: 85 15        	sta	$15                     ; 0x2015 <_ZN12_GLOBAL__N_112print_stringEPKcP6Status+0xfc>
    1240: a0 01        	ldy	#$1
    1242: 8a           	txa
    1243: 91 12        	sta	($12),y                 ; 0x2012 <_ZN12_GLOBAL__N_112print_stringEPKcP6Status+0xf9>
    1245: a5 16        	lda	$16                     ; 0x2016 <_ZN12_GLOBAL__N_112print_stringEPKcP6Status+0xfd>
    1247: 92 14        	sta	($14)                   ; 0x2014 <_ZN12_GLOBAL__N_112print_stringEPKcP6Status+0xfb>
    1249: 8a           	txa
    124a: 91 14        	sta	($14),y                 ; 0x2014 <_ZN12_GLOBAL__N_112print_stringEPKcP6Status+0xfb>
    124c: b1 12        	lda	($12),y                 ; 0x2012 <_ZN12_GLOBAL__N_112print_stringEPKcP6Status+0xf9>
    124e: 85 14        	sta	$14                     ; 0x2014 <_ZN12_GLOBAL__N_112print_stringEPKcP6Status+0xfb>
    1250: a9 fe        	lda	#$fe
    1252: 32 12        	and	($12)                   ; 0x2012 <_ZN12_GLOBAL__N_112print_stringEPKcP6Status+0xf9>
    1254: 18           	clc
    1255: 65 3c        	adc	$3c                     ; 0x203c <printf+0x17>
    1257: aa           	tax
    1258: a5 14        	lda	$14                     ; 0x2014 <_ZN12_GLOBAL__N_112print_stringEPKcP6Status+0xfb>
    125a: 65 3d        	adc	$3d                     ; 0x203d <printf+0x18>
    125c: 85 14        	sta	$14                     ; 0x2014 <_ZN12_GLOBAL__N_112print_stringEPKcP6Status+0xfb>
    125e: 18           	clc
    125f: 8a           	txa
    1260: 69 fe        	adc	#$fe
    1262: 85 15        	sta	$15                     ; 0x2015 <_ZN12_GLOBAL__N_112print_stringEPKcP6Status+0xfc>
    1264: a5 14        	lda	$14                     ; 0x2014 <_ZN12_GLOBAL__N_112print_stringEPKcP6Status+0xfb>
    1266: 69 ff        	adc	#$ff
    1268: a6 15        	ldx	$15                     ; 0x2015 <_ZN12_GLOBAL__N_112print_stringEPKcP6Status+0xfc>
    126a: 86 3c        	stx	$3c                     ; 0x203c <printf+0x17>
    126c: 85 3d        	sta	$3d                     ; 0x203d <printf+0x18>
    126e: a6 3e        	ldx	$3e                     ; 0x203e <printf+0x19>
    1270: 86 16        	stx	$16                     ; 0x2016 <_ZN12_GLOBAL__N_112print_stringEPKcP6Status+0xfd>
    1272: a4 3f        	ldy	$3f                     ; 0x203f <printf+0x1a>
    1274: a2 00        	ldx	#$0
    1276: 86 14        	stx	$14                     ; 0x2014 <_ZN12_GLOBAL__N_112print_stringEPKcP6Status+0xfb>
    1278: a2 00        	ldx	#$0
    127a: 86 15        	stx	$15                     ; 0x2015 <_ZN12_GLOBAL__N_112print_stringEPKcP6Status+0xfc>
    127c: c4 15        	cpy	$15                     ; 0x2015 <_ZN12_GLOBAL__N_112print_stringEPKcP6Status+0xfc>
    127e: d0 3e        	bne	$12be <main+0xd75>
    1280: a6 16        	ldx	$16                     ; 0x2016 <_ZN12_GLOBAL__N_112print_stringEPKcP6Status+0xfd>
    1282: e4 14        	cpx	$14                     ; 0x2014 <_ZN12_GLOBAL__N_112print_stringEPKcP6Status+0xfb>
    1284: d0 38        	bne	$12be <main+0xd75>
    1286: a0 04        	ldy	#$4
    1288: 18           	clc
    1289: a5 12        	lda	$12                     ; 0x2012 <_ZN12_GLOBAL__N_112print_stringEPKcP6Status+0xf9>
    128b: 69 04        	adc	#$4
    128d: 85 14        	sta	$14                     ; 0x2014 <_ZN12_GLOBAL__N_112print_stringEPKcP6Status+0xfb>
    128f: a5 13        	lda	$13                     ; 0x2013 <_ZN12_GLOBAL__N_112print_stringEPKcP6Status+0xfa>
    1291: 69 00        	adc	#$0
    1293: 18           	clc
    1294: 85 15        	sta	$15                     ; 0x2015 <_ZN12_GLOBAL__N_112print_stringEPKcP6Status+0xfc>
    1296: a5 12        	lda	$12                     ; 0x2012 <_ZN12_GLOBAL__N_112print_stringEPKcP6Status+0xf9>
    1298: 91 12        	sta	($12),y                 ; 0x2012 <_ZN12_GLOBAL__N_112print_stringEPKcP6Status+0xf9>
    129a: a0 02        	ldy	#$2
    129c: 85 17        	sta	$17                     ; 0x2017 <_ZN12_GLOBAL__N_112print_stringEPKcP6Status+0xfe>
    129e: 69 02        	adc	#$2
    12a0: 85 16        	sta	$16                     ; 0x2016 <_ZN12_GLOBAL__N_112print_stringEPKcP6Status+0xfd>
    12a2: a5 17        	lda	$17                     ; 0x2017 <_ZN12_GLOBAL__N_112print_stringEPKcP6Status+0xfe>
    12a4: 91 12        	sta	($12),y                 ; 0x2012 <_ZN12_GLOBAL__N_112print_stringEPKcP6Status+0xf9>
    12a6: a5 13        	lda	$13                     ; 0x2013 <_ZN12_GLOBAL__N_112print_stringEPKcP6Status+0xfa>
    12a8: 69 00        	adc	#$0
    12aa: 85 17        	sta	$17                     ; 0x2017 <_ZN12_GLOBAL__N_112print_stringEPKcP6Status+0xfe>
    12ac: 88           	dey
    12ad: a5 13        	lda	$13                     ; 0x2013 <_ZN12_GLOBAL__N_112print_stringEPKcP6Status+0xfa>
    12af: 91 14        	sta	($14),y                 ; 0x2014 <_ZN12_GLOBAL__N_112print_stringEPKcP6Status+0xfb>
    12b1: 91 16        	sta	($16),y                 ; 0x2016 <_ZN12_GLOBAL__N_112print_stringEPKcP6Status+0xfd>
    12b3: a6 12        	ldx	$12                     ; 0x2012 <_ZN12_GLOBAL__N_112print_stringEPKcP6Status+0xf9>
    12b5: 86 3e        	stx	$3e                     ; 0x203e <printf+0x19>
    12b7: a6 13        	ldx	$13                     ; 0x2013 <_ZN12_GLOBAL__N_112print_stringEPKcP6Status+0xfa>
    12b9: 86 3f        	stx	$3f                     ; 0x203f <printf+0x1a>
    12bb: 4c 56 13     	jmp	$1356 <main+0xe0d>
    12be: a6 12        	ldx	$12                     ; 0x2012 <_ZN12_GLOBAL__N_112print_stringEPKcP6Status+0xf9>
    12c0: a5 12        	lda	$12                     ; 0x2012 <_ZN12_GLOBAL__N_112print_stringEPKcP6Status+0xf9>
    12c2: 86 1c        	stx	$1c                     ; 0x201c <_ZN12_GLOBAL__N_112print_stringEPKcP6Status+0x103>
    12c4: 18           	clc
    12c5: 69 02        	adc	#$2
    12c7: 85 14        	sta	$14                     ; 0x2014 <_ZN12_GLOBAL__N_112print_stringEPKcP6Status+0xfb>
    12c9: a6 13        	ldx	$13                     ; 0x2013 <_ZN12_GLOBAL__N_112print_stringEPKcP6Status+0xfa>
    12cb: 84 18        	sty	$18                     ; 0x2018 <_ZN12_GLOBAL__N_112print_stringEPKcP6Status+0xff>
    12cd: a5 13        	lda	$13                     ; 0x2013 <_ZN12_GLOBAL__N_112print_stringEPKcP6Status+0xfa>
    12cf: 69 00        	adc	#$0
    12d1: 85 15        	sta	$15                     ; 0x2015 <_ZN12_GLOBAL__N_112print_stringEPKcP6Status+0xfc>
    12d3: a5 16        	lda	$16                     ; 0x2016 <_ZN12_GLOBAL__N_112print_stringEPKcP6Status+0xfd>
    12d5: 84 17        	sty	$17                     ; 0x2017 <_ZN12_GLOBAL__N_112print_stringEPKcP6Status+0xfe>
    12d7: a0 02        	ldy	#$2
    12d9: 91 12        	sta	($12),y                 ; 0x2012 <_ZN12_GLOBAL__N_112print_stringEPKcP6Status+0xf9>
    12db: 85 19        	sta	$19                     ; 0x2019 <_ZN12_GLOBAL__N_112print_stringEPKcP6Status+0x100>
    12dd: 88           	dey
    12de: a5 18        	lda	$18                     ; 0x2018 <_ZN12_GLOBAL__N_112print_stringEPKcP6Status+0xff>
    12e0: 91 14        	sta	($14),y                 ; 0x2014 <_ZN12_GLOBAL__N_112print_stringEPKcP6Status+0xfb>
    12e2: 18           	clc
    12e3: a5 19        	lda	$19                     ; 0x2019 <_ZN12_GLOBAL__N_112print_stringEPKcP6Status+0x100>
    12e5: 69 04        	adc	#$4
    12e7: a8           	tay
    12e8: a5 18        	lda	$18                     ; 0x2018 <_ZN12_GLOBAL__N_112print_stringEPKcP6Status+0xff>
    12ea: 69 00        	adc	#$0
    12ec: 84 18        	sty	$18                     ; 0x2018 <_ZN12_GLOBAL__N_112print_stringEPKcP6Status+0xff>
    12ee: 85 19        	sta	$19                     ; 0x2019 <_ZN12_GLOBAL__N_112print_stringEPKcP6Status+0x100>
    12f0: a5 1c        	lda	$1c                     ; 0x201c <_ZN12_GLOBAL__N_112print_stringEPKcP6Status+0x103>
    12f2: 18           	clc
    12f3: 69 04        	adc	#$4
    12f5: 85 1a        	sta	$1a                     ; 0x201a <_ZN12_GLOBAL__N_112print_stringEPKcP6Status+0x101>
    12f7: a5 13        	lda	$13                     ; 0x2013 <_ZN12_GLOBAL__N_112print_stringEPKcP6Status+0xfa>
    12f9: 69 00        	adc	#$0
    12fb: 85 1b        	sta	$1b                     ; 0x201b <_ZN12_GLOBAL__N_112print_stringEPKcP6Status+0x102>
    12fd: a0 04        	ldy	#$4
    12ff: b1 16        	lda	($16),y                 ; 0x2016 <_ZN12_GLOBAL__N_112print_stringEPKcP6Status+0xfd>
    1301: 85 16        	sta	$16                     ; 0x2016 <_ZN12_GLOBAL__N_112print_stringEPKcP6Status+0xfd>
    1303: 85 1d        	sta	$1d                     ; 0x201d <_ZN12_GLOBAL__N_112print_stringEPKcP6Status+0x104>
    1305: a0 01        	ldy	#$1
    1307: b1 18        	lda	($18),y                 ; 0x2018 <_ZN12_GLOBAL__N_112print_stringEPKcP6Status+0xff>
    1309: 85 17        	sta	$17                     ; 0x2017 <_ZN12_GLOBAL__N_112print_stringEPKcP6Status+0xfe>
    130b: 85 19        	sta	$19                     ; 0x2019 <_ZN12_GLOBAL__N_112print_stringEPKcP6Status+0x100>
    130d: a0 04        	ldy	#$4
    130f: a5 1d        	lda	$1d                     ; 0x201d <_ZN12_GLOBAL__N_112print_stringEPKcP6Status+0x104>
    1311: 91 12        	sta	($12),y                 ; 0x2012 <_ZN12_GLOBAL__N_112print_stringEPKcP6Status+0xf9>
    1313: a5 19        	lda	$19                     ; 0x2019 <_ZN12_GLOBAL__N_112print_stringEPKcP6Status+0x100>
    1315: a0 01        	ldy	#$1
    1317: 91 1a        	sta	($1a),y                 ; 0x201a <_ZN12_GLOBAL__N_112print_stringEPKcP6Status+0x101>
    1319: 18           	clc
    131a: a5 1d        	lda	$1d                     ; 0x201d <_ZN12_GLOBAL__N_112print_stringEPKcP6Status+0x104>
    131c: 69 02        	adc	#$2
    131e: 85 18        	sta	$18                     ; 0x2018 <_ZN12_GLOBAL__N_112print_stringEPKcP6Status+0xff>
    1320: a5 19        	lda	$19                     ; 0x2019 <_ZN12_GLOBAL__N_112print_stringEPKcP6Status+0x100>
    1322: 69 00        	adc	#$0
    1324: 85 19        	sta	$19                     ; 0x2019 <_ZN12_GLOBAL__N_112print_stringEPKcP6Status+0x100>
    1326: a5 1c        	lda	$1c                     ; 0x201c <_ZN12_GLOBAL__N_112print_stringEPKcP6Status+0x103>
    1328: c8           	iny
    1329: 91 16        	sta	($16),y                 ; 0x2016 <_ZN12_GLOBAL__N_112print_stringEPKcP6Status+0xfd>
    132b: a5 13        	lda	$13                     ; 0x2013 <_ZN12_GLOBAL__N_112print_stringEPKcP6Status+0xfa>
    132d: 88           	dey
    132e: 91 18        	sta	($18),y                 ; 0x2018 <_ZN12_GLOBAL__N_112print_stringEPKcP6Status+0xff>
    1330: c8           	iny
    1331: b1 12        	lda	($12),y                 ; 0x2012 <_ZN12_GLOBAL__N_112print_stringEPKcP6Status+0xf9>
    1333: 85 12        	sta	$12                     ; 0x2012 <_ZN12_GLOBAL__N_112print_stringEPKcP6Status+0xf9>
    1335: 85 16        	sta	$16                     ; 0x2016 <_ZN12_GLOBAL__N_112print_stringEPKcP6Status+0xfd>
    1337: 88           	dey
    1338: b1 14        	lda	($14),y                 ; 0x2014 <_ZN12_GLOBAL__N_112print_stringEPKcP6Status+0xfb>
    133a: 85 13        	sta	$13                     ; 0x2013 <_ZN12_GLOBAL__N_112print_stringEPKcP6Status+0xfa>
    133c: 85 14        	sta	$14                     ; 0x2014 <_ZN12_GLOBAL__N_112print_stringEPKcP6Status+0xfb>
    133e: a5 1c        	lda	$1c                     ; 0x201c <_ZN12_GLOBAL__N_112print_stringEPKcP6Status+0x103>
    1340: a0 04        	ldy	#$4
    1342: 91 12        	sta	($12),y                 ; 0x2012 <_ZN12_GLOBAL__N_112print_stringEPKcP6Status+0xf9>
    1344: 18           	clc
    1345: a5 16        	lda	$16                     ; 0x2016 <_ZN12_GLOBAL__N_112print_stringEPKcP6Status+0xfd>
    1347: 69 04        	adc	#$4
    1349: 85 12        	sta	$12                     ; 0x2012 <_ZN12_GLOBAL__N_112print_stringEPKcP6Status+0xf9>
    134b: a5 14        	lda	$14                     ; 0x2014 <_ZN12_GLOBAL__N_112print_stringEPKcP6Status+0xfb>
    134d: 69 00        	adc	#$0
    134f: 85 13        	sta	$13                     ; 0x2013 <_ZN12_GLOBAL__N_112print_stringEPKcP6Status+0xfa>
    1351: 8a           	txa
    1352: a0 01        	ldy	#$1
    1354: 91 12        	sta	($12),y                 ; 0x2012 <_ZN12_GLOBAL__N_112print_stringEPKcP6Status+0xf9>
    1356: a2 34        	ldx	#$34
    1358: 86 12        	stx	$12                     ; 0x2012 <_ZN12_GLOBAL__N_112print_stringEPKcP6Status+0xf9>
    135a: a2 00        	ldx	#$0
    135c: 86 13        	stx	$13                     ; 0x2013 <_ZN12_GLOBAL__N_112print_stringEPKcP6Status+0xfa>
    135e: 64 35        	stz	$35                     ; 0x2035 <printf+0x10>
    1360: 20 00 ff     	jsr	$ff00 <__heap_start+0xcde4>
    1363: 92 2a        	sta	($2a)                   ; 0x202a <printf+0x5>
    1365: a9 00        	lda	#$0
    1367: 6a           	ror
    1368: 85 12        	sta	$12                     ; 0x2012 <_ZN12_GLOBAL__N_112print_stringEPKcP6Status+0xf9>
    136a: a6 35        	ldx	$35                     ; 0x2035 <printf+0x10>
    136c: e0 38        	cpx	#$38
    136e: f0 04        	beq	$1374 <main+0xe2b>
    1370: e0 32        	cpx	#$32
    1372: d0 ea        	bne	$135e <main+0xe15>
    1374: ae 0f 30     	ldx	$300f                   ; 0x300f <_dirStream>
    1377: d0 52        	bne	$13cb <main+0xe82>
    1379: 64 f3        	stz	$f3                     ; 0x20f3 <printf+0xce>
    137b: a2 05        	ldx	#$5
    137d: a0 2f        	ldy	#$2f
    137f: 86 fb        	stx	$fb                     ; 0x20fb <printf+0xd6>
    1381: 84 fc        	sty	$fc                     ; 0x20fc <printf+0xd7>
    1383: a2 08        	ldx	#$8
    1385: 86 fd        	stx	$fd                     ; 0x20fd <printf+0xd8>
    1387: a2 34        	ldx	#$34
    1389: 86 12        	stx	$12                     ; 0x2012 <_ZN12_GLOBAL__N_112print_stringEPKcP6Status+0xf9>
    138b: a2 00        	ldx	#$0
    138d: 86 13        	stx	$13                     ; 0x2013 <_ZN12_GLOBAL__N_112print_stringEPKcP6Status+0xfa>
    138f: 20 78 ff     	jsr	$ff78 <__heap_start+0xce5c>
    1392: 92 2a        	sta	($2a)                   ; 0x202a <printf+0x5>
    1394: a9 00        	lda	#$0
    1396: 6a           	ror
    1397: 85 12        	sta	$12                     ; 0x2012 <_ZN12_GLOBAL__N_112print_stringEPKcP6Status+0xf9>
    1399: a6 34        	ldx	$34                     ; 0x2034 <printf+0xf>
    139b: d0 2e        	bne	$13cb <main+0xe82>
    139d: b2 2a        	lda	($2a)                   ; 0x202a <printf+0x5>
    139f: 85 14        	sta	$14                     ; 0x2014 <_ZN12_GLOBAL__N_112print_stringEPKcP6Status+0xfb>
    13a1: 64 35        	stz	$35                     ; 0x2035 <printf+0x10>
    13a3: 20 00 ff     	jsr	$ff00 <__heap_start+0xcde4>
    13a6: 92 2a        	sta	($2a)                   ; 0x202a <printf+0x5>
    13a8: a9 00        	lda	#$0
    13aa: 6a           	ror
    13ab: 85 12        	sta	$12                     ; 0x2012 <_ZN12_GLOBAL__N_112print_stringEPKcP6Status+0xf9>
    13ad: a6 35        	ldx	$35                     ; 0x2035 <printf+0x10>
    13af: e0 48        	cpx	#$48
    13b1: f0 18        	beq	$13cb <main+0xe82>
    13b3: e0 3c        	cpx	#$3c
    13b5: d0 ea        	bne	$13a1 <main+0xe58>
    13b7: a6 14        	ldx	$14                     ; 0x2014 <_ZN12_GLOBAL__N_112print_stringEPKcP6Status+0xfb>
    13b9: 8e 0f 30     	stx	$300f                   ; 0x300f <_dirStream>
    13bc: 18           	clc
    13bd: a9 00        	lda	#$0
    13bf: a0 0a        	ldy	#$a
    13c1: 91 10        	sta	($10),y                 ; 0x2010 <_ZN12_GLOBAL__N_112print_stringEPKcP6Status+0xf7>
    13c3: a2 0f        	ldx	#$f
    13c5: 86 24        	stx	$24                     ; 0x2024 <_ZN12_GLOBAL__N_112print_stringEPKcP6Status+0x10b>
    13c7: a2 30        	ldx	#$30
    13c9: 86 25        	stx	$25                     ; 0x2025 <printf>
    13cb: a5 24        	lda	$24                     ; 0x2024 <_ZN12_GLOBAL__N_112print_stringEPKcP6Status+0x10b>
    13cd: 92 10        	sta	($10)                   ; 0x2010 <_ZN12_GLOBAL__N_112print_stringEPKcP6Status+0xf7>
    13cf: a0 01        	ldy	#$1
    13d1: a5 25        	lda	$25                     ; 0x2025 <printf>
    13d3: 91 10        	sta	($10),y                 ; 0x2010 <_ZN12_GLOBAL__N_112print_stringEPKcP6Status+0xf7>
    13d5: a2 e1        	ldx	#$e1
    13d7: 86 12        	stx	$12                     ; 0x2012 <_ZN12_GLOBAL__N_112print_stringEPKcP6Status+0xf9>
    13d9: a2 2e        	ldx	#$2e
    13db: 86 13        	stx	$13                     ; 0x2013 <_ZN12_GLOBAL__N_112print_stringEPKcP6Status+0xfa>
    13dd: 20 25 20     	jsr	$2025 <printf>
    13e0: a6 24        	ldx	$24                     ; 0x2024 <_ZN12_GLOBAL__N_112print_stringEPKcP6Status+0x10b>
    13e2: 86 12        	stx	$12                     ; 0x2012 <_ZN12_GLOBAL__N_112print_stringEPKcP6Status+0xf9>
    13e4: a6 25        	ldx	$25                     ; 0x2025 <printf>
    13e6: 86 13        	stx	$13                     ; 0x2013 <_ZN12_GLOBAL__N_112print_stringEPKcP6Status+0xfa>
    13e8: 20 59 1d     	jsr	$1d59 <fileReadDir>
    13eb: a2 78        	ldx	#$78
    13ed: 86 12        	stx	$12                     ; 0x2012 <_ZN12_GLOBAL__N_112print_stringEPKcP6Status+0xf9>
    13ef: a2 2f        	ldx	#$2f
    13f1: 86 13        	stx	$13                     ; 0x2013 <_ZN12_GLOBAL__N_112print_stringEPKcP6Status+0xfa>
    13f3: a2 00        	ldx	#$0
    13f5: 86 28        	stx	$28                     ; 0x2028 <printf+0x3>
    13f7: a2 00        	ldx	#$0
    13f9: 86 29        	stx	$29                     ; 0x2029 <printf+0x4>
    13fb: 20 25 20     	jsr	$2025 <printf>
    13fe: 80 29        	bra	$1429 <main+0xee0>
    1400: a2 fa        	ldx	#$fa
    1402: 86 12        	stx	$12                     ; 0x2012 <_ZN12_GLOBAL__N_112print_stringEPKcP6Status+0xf9>
    1404: a2 2e        	ldx	#$2e
    1406: 86 13        	stx	$13                     ; 0x2013 <_ZN12_GLOBAL__N_112print_stringEPKcP6Status+0xfa>
    1408: 20 25 20     	jsr	$2025 <printf>
    140b: a0 01        	ldy	#$1
    140d: b1 26        	lda	($26),y                 ; 0x2026 <printf+0x1>
    140f: c9 01        	cmp	#$1
    1411: d0 0f        	bne	$1422 <main+0xed9>
    1413: a2 6d        	ldx	#$6d
    1415: 86 12        	stx	$12                     ; 0x2012 <_ZN12_GLOBAL__N_112print_stringEPKcP6Status+0xf9>
    1417: a2 2f        	ldx	#$2f
    1419: 86 13        	stx	$13                     ; 0x2013 <_ZN12_GLOBAL__N_112print_stringEPKcP6Status+0xfa>
    141b: 20 25 20     	jsr	$2025 <printf>
    141e: a0 01        	ldy	#$1
    1420: b1 26        	lda	($26),y                 ; 0x2026 <printf+0x1>
    1422: c9 02        	cmp	#$2
    1424: d0 03        	bne	$1429 <main+0xee0>
    1426: 4c 53 15     	jmp	$1553 <main+0x100a>
    1429: a6 24        	ldx	$24                     ; 0x2024 <_ZN12_GLOBAL__N_112print_stringEPKcP6Status+0x10b>
    142b: 86 12        	stx	$12                     ; 0x2012 <_ZN12_GLOBAL__N_112print_stringEPKcP6Status+0xf9>
    142d: a6 25        	ldx	$25                     ; 0x2025 <printf>
    142f: 86 13        	stx	$13                     ; 0x2013 <_ZN12_GLOBAL__N_112print_stringEPKcP6Status+0xfa>
    1431: 20 59 1d     	jsr	$1d59 <fileReadDir>
    1434: a6 12        	ldx	$12                     ; 0x2012 <_ZN12_GLOBAL__N_112print_stringEPKcP6Status+0xf9>
    1436: 86 26        	stx	$26                     ; 0x2026 <printf+0x1>
    1438: a6 13        	ldx	$13                     ; 0x2013 <_ZN12_GLOBAL__N_112print_stringEPKcP6Status+0xfa>
    143a: 86 27        	stx	$27                     ; 0x2027 <printf+0x2>
    143c: a6 27        	ldx	$27                     ; 0x2027 <printf+0x2>
    143e: e4 29        	cpx	$29                     ; 0x2029 <printf+0x4>
    1440: d0 06        	bne	$1448 <main+0xeff>
    1442: a6 26        	ldx	$26                     ; 0x2026 <printf+0x1>
    1444: e4 28        	cpx	$28                     ; 0x2028 <printf+0x3>
    1446: f0 30        	beq	$1478 <main+0xf2f>
    1448: a5 26        	lda	$26                     ; 0x2026 <printf+0x1>
    144a: 18           	clc
    144b: 69 02        	adc	#$2
    144d: a8           	tay
    144e: a5 27        	lda	$27                     ; 0x2027 <printf+0x2>
    1450: 69 00        	adc	#$0
    1452: 85 12        	sta	$12                     ; 0x2012 <_ZN12_GLOBAL__N_112print_stringEPKcP6Status+0xf9>
    1454: 98           	tya
    1455: 92 10        	sta	($10)                   ; 0x2010 <_ZN12_GLOBAL__N_112print_stringEPKcP6Status+0xf7>
    1457: a0 01        	ldy	#$1
    1459: a5 12        	lda	$12                     ; 0x2012 <_ZN12_GLOBAL__N_112print_stringEPKcP6Status+0xf9>
    145b: 91 10        	sta	($10),y                 ; 0x2010 <_ZN12_GLOBAL__N_112print_stringEPKcP6Status+0xf7>
    145d: a2 b1        	ldx	#$b1
    145f: 86 12        	stx	$12                     ; 0x2012 <_ZN12_GLOBAL__N_112print_stringEPKcP6Status+0xf9>
    1461: a2 2f        	ldx	#$2f
    1463: 86 13        	stx	$13                     ; 0x2013 <_ZN12_GLOBAL__N_112print_stringEPKcP6Status+0xfa>
    1465: 20 25 20     	jsr	$2025 <printf>
    1468: a0 01        	ldy	#$1
    146a: b1 26        	lda	($26),y                 ; 0x2026 <printf+0x1>
    146c: d0 03        	bne	$1471 <main+0xf28>
    146e: 4c 00 14     	jmp	$1400 <main+0xeb7>
    1471: c9 01        	cmp	#$1
    1473: d0 ad        	bne	$1422 <main+0xed9>
    1475: 4c 13 14     	jmp	$1413 <main+0xeca>
    1478: a9 ff        	lda	#$ff
    147a: 48           	pha
    147b: a0 0a        	ldy	#$a
    147d: b1 10        	lda	($10),y                 ; 0x2010 <_ZN12_GLOBAL__N_112print_stringEPKcP6Status+0xf7>
    147f: 85 12        	sta	$12                     ; 0x2012 <_ZN12_GLOBAL__N_112print_stringEPKcP6Status+0xf9>
    1481: 68           	pla
    1482: a6 12        	ldx	$12                     ; 0x2012 <_ZN12_GLOBAL__N_112print_stringEPKcP6Status+0xf9>
    1484: d0 34        	bne	$14ba <main+0xf71>
    1486: a2 34        	ldx	#$34
    1488: 86 12        	stx	$12                     ; 0x2012 <_ZN12_GLOBAL__N_112print_stringEPKcP6Status+0xf9>
    148a: a2 00        	ldx	#$0
    148c: 86 13        	stx	$13                     ; 0x2013 <_ZN12_GLOBAL__N_112print_stringEPKcP6Status+0xfa>
    148e: b2 24        	lda	($24)                   ; 0x2024 <_ZN12_GLOBAL__N_112print_stringEPKcP6Status+0x10b>
    1490: f0 14        	beq	$14a6 <main+0xf5d>
    1492: 85 f3        	sta	$f3                     ; 0x20f3 <printf+0xce>
    1494: 20 80 ff     	jsr	$ff80 <__heap_start+0xce64>
    1497: 92 2a        	sta	($2a)                   ; 0x202a <printf+0x5>
    1499: a9 00        	lda	#$0
    149b: 6a           	ror
    149c: 85 12        	sta	$12                     ; 0x2012 <_ZN12_GLOBAL__N_112print_stringEPKcP6Status+0xf9>
    149e: a6 34        	ldx	$34                     ; 0x2034 <printf+0xf>
    14a0: d0 04        	bne	$14a6 <main+0xf5d>
    14a2: a9 00        	lda	#$0
    14a4: 92 24        	sta	($24)                   ; 0x2024 <_ZN12_GLOBAL__N_112print_stringEPKcP6Status+0x10b>
    14a6: 64 35        	stz	$35                     ; 0x2035 <printf+0x10>
    14a8: 20 00 ff     	jsr	$ff00 <__heap_start+0xcde4>
    14ab: 92 2a        	sta	($2a)                   ; 0x202a <printf+0x5>
    14ad: a9 00        	lda	#$0
    14af: 6a           	ror
    14b0: 85 12        	sta	$12                     ; 0x2012 <_ZN12_GLOBAL__N_112print_stringEPKcP6Status+0xf9>
    14b2: a6 35        	ldx	$35                     ; 0x2035 <printf+0x10>
    14b4: e0 46        	cpx	#$46
    14b6: d0 d6        	bne	$148e <main+0xf45>
    14b8: a9 00        	lda	#$0
    14ba: 92 10        	sta	($10)                   ; 0x2010 <_ZN12_GLOBAL__N_112print_stringEPKcP6Status+0xf7>
    14bc: a0 01        	ldy	#$1
    14be: 91 10        	sta	($10),y                 ; 0x2010 <_ZN12_GLOBAL__N_112print_stringEPKcP6Status+0xf7>
    14c0: a2 96        	ldx	#$96
    14c2: 86 12        	stx	$12                     ; 0x2012 <_ZN12_GLOBAL__N_112print_stringEPKcP6Status+0xf9>
    14c4: a2 2f        	ldx	#$2f
    14c6: 86 13        	stx	$13                     ; 0x2013 <_ZN12_GLOBAL__N_112print_stringEPKcP6Status+0xfa>
    14c8: 20 25 20     	jsr	$2025 <printf>
    14cb: a2 34        	ldx	#$34
    14cd: 86 12        	stx	$12                     ; 0x2012 <_ZN12_GLOBAL__N_112print_stringEPKcP6Status+0xf9>
    14cf: a2 00        	ldx	#$0
    14d1: 86 13        	stx	$13                     ; 0x2013 <_ZN12_GLOBAL__N_112print_stringEPKcP6Status+0xfa>
    14d3: 64 35        	stz	$35                     ; 0x2035 <printf+0x10>
    14d5: 20 00 ff     	jsr	$ff00 <__heap_start+0xcde4>
    14d8: 92 2a        	sta	($2a)                   ; 0x202a <printf+0x5>
    14da: a9 00        	lda	#$0
    14dc: 6a           	ror
    14dd: 85 12        	sta	$12                     ; 0x2012 <_ZN12_GLOBAL__N_112print_stringEPKcP6Status+0xf9>
    14df: a6 35        	ldx	$35                     ; 0x2035 <printf+0x10>
    14e1: e0 08        	cpx	#$8
    14e3: d0 ee        	bne	$14d3 <main+0xf8a>
    14e5: a6 39        	ldx	$39                     ; 0x2039 <printf+0x14>
    14e7: e0 20        	cpx	#$20
    14e9: f0 04        	beq	$14ef <main+0xfa6>
    14eb: e0 94        	cpx	#$94
    14ed: d0 e4        	bne	$14d3 <main+0xf8a>
    14ef: 78           	sei
    14f0: a2 07        	ldx	#$7
    14f2: 86 0f        	stx	$f                      ; 0x200f <_ZN12_GLOBAL__N_112print_stringEPKcP6Status+0xf6>
    14f4: a2 de        	ldx	#$de
    14f6: 8e a2 d6     	stx	$d6a2                   ; 0xd6a2 <__heap_start+0xa586>
    14f9: a2 ad        	ldx	#$ad
    14fb: 8e a3 d6     	stx	$d6a3                   ; 0xd6a3 <__heap_start+0xa587>
    14fe: a2 f0        	ldx	#$f0
    1500: 8e a0 d6     	stx	$d6a0                   ; 0xd6a0 <__heap_start+0xa584>
    1503: 9c a0 d6     	stz	$d6a0                   ; 0xd6a0 <__heap_start+0xa584>
    1506: 6c fc ff     	jmp	($fffc)                 ; 0xfffc <__heap_start+0xcee0>
    1509: a2 00        	ldx	#$0
    150b: 8a           	txa
    150c: 85 20        	sta	$20                     ; 0x2020 <_ZN12_GLOBAL__N_112print_stringEPKcP6Status+0x107>
    150e: a0 02        	ldy	#$2
    1510: b1 10        	lda	($10),y                 ; 0x2010 <_ZN12_GLOBAL__N_112print_stringEPKcP6Status+0xf7>
    1512: 85 2f        	sta	$2f                     ; 0x202f <printf+0xa>
    1514: c8           	iny
    1515: b1 10        	lda	($10),y                 ; 0x2010 <_ZN12_GLOBAL__N_112print_stringEPKcP6Status+0xf7>
    1517: 85 2e        	sta	$2e                     ; 0x202e <printf+0x9>
    1519: c8           	iny
    151a: b1 10        	lda	($10),y                 ; 0x2010 <_ZN12_GLOBAL__N_112print_stringEPKcP6Status+0xf7>
    151c: 85 2d        	sta	$2d                     ; 0x202d <printf+0x8>
    151e: c8           	iny
    151f: b1 10        	lda	($10),y                 ; 0x2010 <_ZN12_GLOBAL__N_112print_stringEPKcP6Status+0xf7>
    1521: 85 2c        	sta	$2c                     ; 0x202c <printf+0x7>
    1523: c8           	iny
    1524: b1 10        	lda	($10),y                 ; 0x2010 <_ZN12_GLOBAL__N_112print_stringEPKcP6Status+0xf7>
    1526: 85 2b        	sta	$2b                     ; 0x202b <printf+0x6>
    1528: c8           	iny
    1529: b1 10        	lda	($10),y                 ; 0x2010 <_ZN12_GLOBAL__N_112print_stringEPKcP6Status+0xf7>
    152b: 85 2a        	sta	$2a                     ; 0x202a <printf+0x5>
    152d: c8           	iny
    152e: b1 10        	lda	($10),y                 ; 0x2010 <_ZN12_GLOBAL__N_112print_stringEPKcP6Status+0xf7>
    1530: 85 29        	sta	$29                     ; 0x2029 <printf+0x4>
    1532: c8           	iny
    1533: b1 10        	lda	($10),y                 ; 0x2010 <_ZN12_GLOBAL__N_112print_stringEPKcP6Status+0xf7>
    1535: 85 28        	sta	$28                     ; 0x2028 <printf+0x3>
    1537: 7a           	ply
    1538: 84 27        	sty	$27                     ; 0x2027 <printf+0x2>
    153a: 7a           	ply
    153b: 84 26        	sty	$26                     ; 0x2026 <printf+0x1>
    153d: 7a           	ply
    153e: 84 25        	sty	$25                     ; 0x2025 <printf>
    1540: 7a           	ply
    1541: 84 24        	sty	$24                     ; 0x2024 <_ZN12_GLOBAL__N_112print_stringEPKcP6Status+0x10b>
    1543: 18           	clc
    1544: a5 10        	lda	$10                     ; 0x2010 <_ZN12_GLOBAL__N_112print_stringEPKcP6Status+0xf7>
    1546: 69 2a        	adc	#$2a
    1548: 85 10        	sta	$10                     ; 0x2010 <_ZN12_GLOBAL__N_112print_stringEPKcP6Status+0xf7>
    154a: a5 11        	lda	$11                     ; 0x2011 <_ZN12_GLOBAL__N_112print_stringEPKcP6Status+0xf8>
    154c: 69 00        	adc	#$0
    154e: 85 11        	sta	$11                     ; 0x2011 <_ZN12_GLOBAL__N_112print_stringEPKcP6Status+0xf8>
    1550: a5 20        	lda	$20                     ; 0x2020 <_ZN12_GLOBAL__N_112print_stringEPKcP6Status+0x107>
    1552: 60           	rts
    1553: a2 57        	ldx	#$57
    1555: 86 12        	stx	$12                     ; 0x2012 <_ZN12_GLOBAL__N_112print_stringEPKcP6Status+0xf9>
    1557: a2 2f        	ldx	#$2f
    1559: 86 13        	stx	$13                     ; 0x2013 <_ZN12_GLOBAL__N_112print_stringEPKcP6Status+0xfa>
    155b: 4c fb 13     	jmp	$13fb <main+0xeb2>

0000155e <fileOpen>:
    155e: a2 00        	ldx	#$0
    1560: a0 10        	ldy	#$10
    1562: a9 1c        	lda	#$1c
    1564: 86 14        	stx	$14                     ; 0x2014 <_ZN12_GLOBAL__N_112print_stringEPKcP6Status+0xfb>
    1566: 84 15        	sty	$15                     ; 0x2015 <_ZN12_GLOBAL__N_112print_stringEPKcP6Status+0xfc>
    1568: 18           	clc
    1569: 65 14        	adc	$14                     ; 0x2014 <_ZN12_GLOBAL__N_112print_stringEPKcP6Status+0xfb>
    156b: 85 17        	sta	$17                     ; 0x2017 <_ZN12_GLOBAL__N_112print_stringEPKcP6Status+0xfe>
    156d: a9 31        	lda	#$31
    156f: 65 15        	adc	$15                     ; 0x2015 <_ZN12_GLOBAL__N_112print_stringEPKcP6Status+0xfc>
    1571: 85 16        	sta	$16                     ; 0x2016 <_ZN12_GLOBAL__N_112print_stringEPKcP6Status+0xfd>
    1573: b2 12        	lda	($12)                   ; 0x2012 <_ZN12_GLOBAL__N_112print_stringEPKcP6Status+0xf9>
    1575: d0 03        	bne	$157a <fileOpen+0x1c>
    1577: 4c db 15     	jmp	$15db <fileOpen+0x7d>
    157a: 85 18        	sta	$18                     ; 0x2018 <_ZN12_GLOBAL__N_112print_stringEPKcP6Status+0xff>
    157c: a0 00        	ldy	#$0
    157e: a2 00        	ldx	#$0
    1580: 86 14        	stx	$14                     ; 0x2014 <_ZN12_GLOBAL__N_112print_stringEPKcP6Status+0xfb>
    1582: 98           	tya
    1583: c8           	iny
    1584: d0 01        	bne	$1587 <fileOpen+0x29>
    1586: e8           	inx
    1587: 18           	clc
    1588: 65 12        	adc	$12                     ; 0x2012 <_ZN12_GLOBAL__N_112print_stringEPKcP6Status+0xf9>
    158a: 85 1a        	sta	$1a                     ; 0x201a <_ZN12_GLOBAL__N_112print_stringEPKcP6Status+0x101>
    158c: a5 14        	lda	$14                     ; 0x2014 <_ZN12_GLOBAL__N_112print_stringEPKcP6Status+0xfb>
    158e: 65 13        	adc	$13                     ; 0x2013 <_ZN12_GLOBAL__N_112print_stringEPKcP6Status+0xfa>
    1590: 84 19        	sty	$19                     ; 0x2019 <_ZN12_GLOBAL__N_112print_stringEPKcP6Status+0x100>
    1592: a4 1a        	ldy	$1a                     ; 0x201a <_ZN12_GLOBAL__N_112print_stringEPKcP6Status+0x101>
    1594: 84 14        	sty	$14                     ; 0x2014 <_ZN12_GLOBAL__N_112print_stringEPKcP6Status+0xfb>
    1596: 85 15        	sta	$15                     ; 0x2015 <_ZN12_GLOBAL__N_112print_stringEPKcP6Status+0xfc>
    1598: a0 01        	ldy	#$1
    159a: b1 14        	lda	($14),y                 ; 0x2014 <_ZN12_GLOBAL__N_112print_stringEPKcP6Status+0xfb>
    159c: a4 19        	ldy	$19                     ; 0x2019 <_ZN12_GLOBAL__N_112print_stringEPKcP6Status+0x100>
    159e: c9 00        	cmp	#$0
    15a0: d0 de        	bne	$1580 <fileOpen+0x22>
    15a2: 8a           	txa
    15a3: d0 0a        	bne	$15af <fileOpen+0x51>
    15a5: c0 02        	cpy	#$2
    15a7: b0 0a        	bcs	$15b3 <fileOpen+0x55>
    15a9: a6 16        	ldx	$16                     ; 0x2016 <_ZN12_GLOBAL__N_112print_stringEPKcP6Status+0xfd>
    15ab: 64 1b        	stz	$1b                     ; 0x201b <_ZN12_GLOBAL__N_112print_stringEPKcP6Status+0x102>
    15ad: 80 30        	bra	$15df <fileOpen+0x81>
    15af: e0 00        	cpx	#$0
    15b1: 90 f6        	bcc	$15a9 <fileOpen+0x4b>
    15b3: a0 01        	ldy	#$1
    15b5: b1 12        	lda	($12),y                 ; 0x2012 <_ZN12_GLOBAL__N_112print_stringEPKcP6Status+0xf9>
    15b7: c9 3a        	cmp	#$3a
    15b9: d0 20        	bne	$15db <fileOpen+0x7d>
    15bb: a5 18        	lda	$18                     ; 0x2018 <_ZN12_GLOBAL__N_112print_stringEPKcP6Status+0xff>
    15bd: c9 30        	cmp	#$30
    15bf: 64 1b        	stz	$1b                     ; 0x201b <_ZN12_GLOBAL__N_112print_stringEPKcP6Status+0x102>
    15c1: 90 09        	bcc	$15cc <fileOpen+0x6e>
    15c3: c9 38        	cmp	#$38
    15c5: b0 05        	bcs	$15cc <fileOpen+0x6e>
    15c7: 18           	clc
    15c8: 69 d0        	adc	#$d0
    15ca: 85 1b        	sta	$1b                     ; 0x201b <_ZN12_GLOBAL__N_112print_stringEPKcP6Status+0x102>
    15cc: a5 12        	lda	$12                     ; 0x2012 <_ZN12_GLOBAL__N_112print_stringEPKcP6Status+0xf9>
    15ce: 18           	clc
    15cf: 69 02        	adc	#$2
    15d1: 85 12        	sta	$12                     ; 0x2012 <_ZN12_GLOBAL__N_112print_stringEPKcP6Status+0xf9>
    15d3: a5 13        	lda	$13                     ; 0x2013 <_ZN12_GLOBAL__N_112print_stringEPKcP6Status+0xfa>
    15d5: 69 00        	adc	#$0
    15d7: 85 13        	sta	$13                     ; 0x2013 <_ZN12_GLOBAL__N_112print_stringEPKcP6Status+0xfa>
    15d9: 80 02        	bra	$15dd <fileOpen+0x7f>
    15db: 64 1b        	stz	$1b                     ; 0x201b <_ZN12_GLOBAL__N_112print_stringEPKcP6Status+0x102>
    15dd: a6 16        	ldx	$16                     ; 0x2016 <_ZN12_GLOBAL__N_112print_stringEPKcP6Status+0xfd>
    15df: a4 17        	ldy	$17                     ; 0x2017 <_ZN12_GLOBAL__N_112print_stringEPKcP6Status+0xfe>
    15e1: 84 14        	sty	$14                     ; 0x2014 <_ZN12_GLOBAL__N_112print_stringEPKcP6Status+0xfb>
    15e3: 86 15        	stx	$15                     ; 0x2015 <_ZN12_GLOBAL__N_112print_stringEPKcP6Status+0xfc>
    15e5: a2 af        	ldx	#$af
    15e7: 86 16        	stx	$16                     ; 0x2016 <_ZN12_GLOBAL__N_112print_stringEPKcP6Status+0xfd>
    15e9: a2 2f        	ldx	#$2f
    15eb: 86 17        	stx	$17                     ; 0x2017 <_ZN12_GLOBAL__N_112print_stringEPKcP6Status+0xfe>
    15ed: 64 18        	stz	$18                     ; 0x2018 <_ZN12_GLOBAL__N_112print_stringEPKcP6Status+0xff>
    15ef: 80 0a        	bra	$15fb <fileOpen+0x9d>
    15f1: a0 02        	ldy	#$2
    15f3: e6 16        	inc	$16                     ; 0x2016 <_ZN12_GLOBAL__N_112print_stringEPKcP6Status+0xfd>
    15f5: d0 02        	bne	$15f9 <fileOpen+0x9b>
    15f7: e6 17        	inc	$17                     ; 0x2017 <_ZN12_GLOBAL__N_112print_stringEPKcP6Status+0xfe>
    15f9: 84 18        	sty	$18                     ; 0x2018 <_ZN12_GLOBAL__N_112print_stringEPKcP6Status+0xff>
    15fb: b2 16        	lda	($16)                   ; 0x2016 <_ZN12_GLOBAL__N_112print_stringEPKcP6Status+0xfd>
    15fd: c9 61        	cmp	#$61
    15ff: f0 f0        	beq	$15f1 <fileOpen+0x93>
    1601: a0 01        	ldy	#$1
    1603: c9 77        	cmp	#$77
    1605: f0 05        	beq	$160c <fileOpen+0xae>
    1607: aa           	tax
    1608: f0 08        	beq	$1612 <fileOpen+0xb4>
    160a: a4 18        	ldy	$18                     ; 0x2018 <_ZN12_GLOBAL__N_112print_stringEPKcP6Status+0xff>
    160c: e6 16        	inc	$16                     ; 0x2016 <_ZN12_GLOBAL__N_112print_stringEPKcP6Status+0xfd>
    160e: f0 e7        	beq	$15f7 <fileOpen+0x99>
    1610: 80 e7        	bra	$15f9 <fileOpen+0x9b>
    1612: a6 18        	ldx	$18                     ; 0x2018 <_ZN12_GLOBAL__N_112print_stringEPKcP6Status+0xff>
    1614: 86 1a        	stx	$1a                     ; 0x201a <_ZN12_GLOBAL__N_112print_stringEPKcP6Status+0x101>
    1616: a6 12        	ldx	$12                     ; 0x2012 <_ZN12_GLOBAL__N_112print_stringEPKcP6Status+0xf9>
    1618: a4 13        	ldy	$13                     ; 0x2013 <_ZN12_GLOBAL__N_112print_stringEPKcP6Status+0xfa>
    161a: 86 fb        	stx	$fb                     ; 0x20fb <printf+0xd6>
    161c: 84 fc        	sty	$fc                     ; 0x20fc <printf+0xd7>
    161e: b2 12        	lda	($12)                   ; 0x2012 <_ZN12_GLOBAL__N_112print_stringEPKcP6Status+0xf9>
    1620: f0 2b        	beq	$164d <fileOpen+0xef>
    1622: 64 17        	stz	$17                     ; 0x2017 <_ZN12_GLOBAL__N_112print_stringEPKcP6Status+0xfe>
    1624: a0 01        	ldy	#$1
    1626: a9 00        	lda	#$0
    1628: 64 16        	stz	$16                     ; 0x2016 <_ZN12_GLOBAL__N_112print_stringEPKcP6Status+0xfd>
    162a: a6 17        	ldx	$17                     ; 0x2017 <_ZN12_GLOBAL__N_112print_stringEPKcP6Status+0xfe>
    162c: e6 17        	inc	$17                     ; 0x2017 <_ZN12_GLOBAL__N_112print_stringEPKcP6Status+0xfe>
    162e: d0 02        	bne	$1632 <fileOpen+0xd4>
    1630: e6 16        	inc	$16                     ; 0x2016 <_ZN12_GLOBAL__N_112print_stringEPKcP6Status+0xfd>
    1632: 18           	clc
    1633: 85 19        	sta	$19                     ; 0x2019 <_ZN12_GLOBAL__N_112print_stringEPKcP6Status+0x100>
    1635: 8a           	txa
    1636: 65 12        	adc	$12                     ; 0x2012 <_ZN12_GLOBAL__N_112print_stringEPKcP6Status+0xf9>
    1638: 85 18        	sta	$18                     ; 0x2018 <_ZN12_GLOBAL__N_112print_stringEPKcP6Status+0xff>
    163a: a5 19        	lda	$19                     ; 0x2019 <_ZN12_GLOBAL__N_112print_stringEPKcP6Status+0x100>
    163c: 65 13        	adc	$13                     ; 0x2013 <_ZN12_GLOBAL__N_112print_stringEPKcP6Status+0xfa>
    163e: 85 19        	sta	$19                     ; 0x2019 <_ZN12_GLOBAL__N_112print_stringEPKcP6Status+0x100>
    1640: b1 18        	lda	($18),y                 ; 0x2018 <_ZN12_GLOBAL__N_112print_stringEPKcP6Status+0xff>
    1642: aa           	tax
    1643: a5 16        	lda	$16                     ; 0x2016 <_ZN12_GLOBAL__N_112print_stringEPKcP6Status+0xfd>
    1645: e0 00        	cpx	#$0
    1647: d0 e1        	bne	$162a <fileOpen+0xcc>
    1649: a4 17        	ldy	$17                     ; 0x2017 <_ZN12_GLOBAL__N_112print_stringEPKcP6Status+0xfe>
    164b: 80 02        	bra	$164f <fileOpen+0xf1>
    164d: a0 00        	ldy	#$0
    164f: a6 1a        	ldx	$1a                     ; 0x201a <_ZN12_GLOBAL__N_112print_stringEPKcP6Status+0x101>
    1651: 84 fd        	sty	$fd                     ; 0x20fd <printf+0xd8>
    1653: a4 1b        	ldy	$1b                     ; 0x201b <_ZN12_GLOBAL__N_112print_stringEPKcP6Status+0x102>
    1655: 84 f3        	sty	$f3                     ; 0x20f3 <printf+0xce>
    1657: 86 f5        	stx	$f5                     ; 0x20f5 <printf+0xd0>
    1659: a2 40        	ldx	#$40
    165b: a0 00        	ldy	#$0
    165d: 86 12        	stx	$12                     ; 0x2012 <_ZN12_GLOBAL__N_112print_stringEPKcP6Status+0xf9>
    165f: 84 13        	sty	$13                     ; 0x2013 <_ZN12_GLOBAL__N_112print_stringEPKcP6Status+0xfa>
    1661: a2 34        	ldx	#$34
    1663: 86 16        	stx	$16                     ; 0x2016 <_ZN12_GLOBAL__N_112print_stringEPKcP6Status+0xfd>
    1665: a2 00        	ldx	#$0
    1667: 86 17        	stx	$17                     ; 0x2017 <_ZN12_GLOBAL__N_112print_stringEPKcP6Status+0xfe>
    1669: 20 5c ff     	jsr	$ff5c <__heap_start+0xce40>
    166c: 92 12        	sta	($12)                   ; 0x2012 <_ZN12_GLOBAL__N_112print_stringEPKcP6Status+0xf9>
    166e: a9 00        	lda	#$0
    1670: 6a           	ror
    1671: 85 16        	sta	$16                     ; 0x2016 <_ZN12_GLOBAL__N_112print_stringEPKcP6Status+0xfd>
    1673: a6 34        	ldx	$34                     ; 0x2034 <printf+0xf>
    1675: a0 00        	ldy	#$0
    1677: 84 12        	sty	$12                     ; 0x2012 <_ZN12_GLOBAL__N_112print_stringEPKcP6Status+0xf9>
    1679: a0 00        	ldy	#$0
    167b: 84 13        	sty	$13                     ; 0x2013 <_ZN12_GLOBAL__N_112print_stringEPKcP6Status+0xfa>
    167d: 8a           	txa
    167e: f0 01        	beq	$1681 <fileOpen+0x123>
    1680: 60           	rts
    1681: a6 40        	ldx	$40                     ; 0x2040 <printf+0x1b>
    1683: 86 46        	stx	$46                     ; 0x2046 <printf+0x21>
    1685: a2 41        	ldx	#$41
    1687: a0 00        	ldy	#$0
    1689: 86 18        	stx	$18                     ; 0x2018 <_ZN12_GLOBAL__N_112print_stringEPKcP6Status+0xff>
    168b: 84 19        	sty	$19                     ; 0x2019 <_ZN12_GLOBAL__N_112print_stringEPKcP6Status+0x100>
    168d: 64 35        	stz	$35                     ; 0x2035 <printf+0x10>
    168f: 20 00 ff     	jsr	$ff00 <__heap_start+0xcde4>
    1692: 92 18        	sta	($18)                   ; 0x2018 <_ZN12_GLOBAL__N_112print_stringEPKcP6Status+0xff>
    1694: a9 00        	lda	#$0
    1696: 6a           	ror
    1697: 85 16        	sta	$16                     ; 0x2016 <_ZN12_GLOBAL__N_112print_stringEPKcP6Status+0xfd>
    1699: a6 35        	ldx	$35                     ; 0x2035 <printf+0x10>
    169b: e0 28        	cpx	#$28
    169d: f0 e1        	beq	$1680 <fileOpen+0x122>
    169f: e0 38        	cpx	#$38
    16a1: f0 dd        	beq	$1680 <fileOpen+0x122>
    16a3: e0 2a        	cpx	#$2a
    16a5: d0 e6        	bne	$168d <fileOpen+0x12f>
    16a7: ad 19 31     	lda	$3119                   ; 0x3119 <_ZN12_GLOBAL__N_111initializedE>
    16aa: 29 01        	and	#$1
    16ac: a6 3e        	ldx	$3e                     ; 0x203e <printf+0x19>
    16ae: a4 3f        	ldy	$3f                     ; 0x203f <printf+0x1a>
    16b0: 86 12        	stx	$12                     ; 0x2012 <_ZN12_GLOBAL__N_112print_stringEPKcP6Status+0xf9>
    16b2: 84 13        	sty	$13                     ; 0x2013 <_ZN12_GLOBAL__N_112print_stringEPKcP6Status+0xfa>
    16b4: c9 00        	cmp	#$0
    16b6: f0 03        	beq	$16bb <fileOpen+0x15d>
    16b8: 4c d1 17     	jmp	$17d1 <fileOpen+0x273>
    16bb: 86 18        	stx	$18                     ; 0x2018 <_ZN12_GLOBAL__N_112print_stringEPKcP6Status+0xff>
    16bd: a2 10        	ldx	#$10
    16bf: 86 16        	stx	$16                     ; 0x2016 <_ZN12_GLOBAL__N_112print_stringEPKcP6Status+0xfd>
    16c1: a9 00        	lda	#$0
    16c3: 29 fe        	and	#$fe
    16c5: 85 17        	sta	$17                     ; 0x2017 <_ZN12_GLOBAL__N_112print_stringEPKcP6Status+0xfe>
    16c7: a9 01        	lda	#$1
    16c9: 2d 1c 31     	and	$311c                   ; 0x311c <__heap_start>
    16cc: 05 17        	ora	$17                     ; 0x2017 <_ZN12_GLOBAL__N_112print_stringEPKcP6Status+0xfe>
    16ce: 8d 1c 31     	sta	$311c                   ; 0x311c <__heap_start>
    16d1: 8e 1d 31     	stx	$311d                   ; 0x311d <__heap_start+0x1>
    16d4: a9 1c        	lda	#$1c
    16d6: 18           	clc
    16d7: 65 17        	adc	$17                     ; 0x2017 <_ZN12_GLOBAL__N_112print_stringEPKcP6Status+0xfe>
    16d9: aa           	tax
    16da: a9 31        	lda	#$31
    16dc: 65 16        	adc	$16                     ; 0x2016 <_ZN12_GLOBAL__N_112print_stringEPKcP6Status+0xfd>
    16de: 85 16        	sta	$16                     ; 0x2016 <_ZN12_GLOBAL__N_112print_stringEPKcP6Status+0xfd>
    16e0: 18           	clc
    16e1: 8a           	txa
    16e2: 69 fe        	adc	#$fe
    16e4: aa           	tax
    16e5: a5 16        	lda	$16                     ; 0x2016 <_ZN12_GLOBAL__N_112print_stringEPKcP6Status+0xfd>
    16e7: 69 ff        	adc	#$ff
    16e9: 85 17        	sta	$17                     ; 0x2017 <_ZN12_GLOBAL__N_112print_stringEPKcP6Status+0xfe>
    16eb: 86 16        	stx	$16                     ; 0x2016 <_ZN12_GLOBAL__N_112print_stringEPKcP6Status+0xfd>
    16ed: a9 00        	lda	#$0
    16ef: 92 16        	sta	($16)                   ; 0x2016 <_ZN12_GLOBAL__N_112print_stringEPKcP6Status+0xfd>
    16f1: 5a           	phy
    16f2: fa           	plx
    16f3: a0 01        	ldy	#$1
    16f5: a9 10        	lda	#$10
    16f7: 91 16        	sta	($16),y                 ; 0x2016 <_ZN12_GLOBAL__N_112print_stringEPKcP6Status+0xfd>
    16f9: ac 1d 31     	ldy	$311d                   ; 0x311d <__heap_start+0x1>
    16fc: 84 1b        	sty	$1b                     ; 0x201b <_ZN12_GLOBAL__N_112print_stringEPKcP6Status+0x102>
    16fe: a9 fe        	lda	#$fe
    1700: 2d 1c 31     	and	$311c                   ; 0x311c <__heap_start>
    1703: a4 3d        	ldy	$3d                     ; 0x203d <printf+0x18>
    1705: 84 16        	sty	$16                     ; 0x2016 <_ZN12_GLOBAL__N_112print_stringEPKcP6Status+0xfd>
    1707: 18           	clc
    1708: 85 1a        	sta	$1a                     ; 0x201a <_ZN12_GLOBAL__N_112print_stringEPKcP6Status+0x101>
    170a: 65 3c        	adc	$3c                     ; 0x203c <printf+0x17>
    170c: a8           	tay
    170d: a5 16        	lda	$16                     ; 0x2016 <_ZN12_GLOBAL__N_112print_stringEPKcP6Status+0xfd>
    170f: 6d 1d 31     	adc	$311d                   ; 0x311d <__heap_start+0x1>
    1712: 85 16        	sta	$16                     ; 0x2016 <_ZN12_GLOBAL__N_112print_stringEPKcP6Status+0xfd>
    1714: 18           	clc
    1715: 98           	tya
    1716: 69 fe        	adc	#$fe
    1718: 85 17        	sta	$17                     ; 0x2017 <_ZN12_GLOBAL__N_112print_stringEPKcP6Status+0xfe>
    171a: a5 16        	lda	$16                     ; 0x2016 <_ZN12_GLOBAL__N_112print_stringEPKcP6Status+0xfd>
    171c: 69 ff        	adc	#$ff
    171e: a4 17        	ldy	$17                     ; 0x2017 <_ZN12_GLOBAL__N_112print_stringEPKcP6Status+0xfe>
    1720: 84 3c        	sty	$3c                     ; 0x203c <printf+0x17>
    1722: 85 3d        	sta	$3d                     ; 0x203d <printf+0x18>
    1724: a0 00        	ldy	#$0
    1726: 84 16        	sty	$16                     ; 0x2016 <_ZN12_GLOBAL__N_112print_stringEPKcP6Status+0xfd>
    1728: a0 00        	ldy	#$0
    172a: 84 17        	sty	$17                     ; 0x2017 <_ZN12_GLOBAL__N_112print_stringEPKcP6Status+0xfe>
    172c: 8a           	txa
    172d: e4 17        	cpx	$17                     ; 0x2017 <_ZN12_GLOBAL__N_112print_stringEPKcP6Status+0xfe>
    172f: d0 25        	bne	$1756 <fileOpen+0x1f8>
    1731: a6 18        	ldx	$18                     ; 0x2018 <_ZN12_GLOBAL__N_112print_stringEPKcP6Status+0xff>
    1733: e4 16        	cpx	$16                     ; 0x2016 <_ZN12_GLOBAL__N_112print_stringEPKcP6Status+0xfd>
    1735: d0 1f        	bne	$1756 <fileOpen+0x1f8>
    1737: a2 1c        	ldx	#$1c
    1739: a9 31        	lda	#$31
    173b: a0 1c        	ldy	#$1c
    173d: 84 12        	sty	$12                     ; 0x2012 <_ZN12_GLOBAL__N_112print_stringEPKcP6Status+0xf9>
    173f: a0 31        	ldy	#$31
    1741: 84 13        	sty	$13                     ; 0x2013 <_ZN12_GLOBAL__N_112print_stringEPKcP6Status+0xfa>
    1743: 8e 20 31     	stx	$3120                   ; 0x3120 <__heap_start+0x4>
    1746: 8d 21 31     	sta	$3121                   ; 0x3121 <__heap_start+0x5>
    1749: 8e 1e 31     	stx	$311e                   ; 0x311e <__heap_start+0x2>
    174c: 8d 1f 31     	sta	$311f                   ; 0x311f <__heap_start+0x3>
    174f: 86 3e        	stx	$3e                     ; 0x203e <printf+0x19>
    1751: 85 3f        	sta	$3f                     ; 0x203f <printf+0x1a>
    1753: 4c bf 17     	jmp	$17bf <fileOpen+0x261>
    1756: a6 18        	ldx	$18                     ; 0x2018 <_ZN12_GLOBAL__N_112print_stringEPKcP6Status+0xff>
    1758: 8e 1e 31     	stx	$311e                   ; 0x311e <__heap_start+0x2>
    175b: 8d 1f 31     	sta	$311f                   ; 0x311f <__heap_start+0x3>
    175e: 85 17        	sta	$17                     ; 0x2017 <_ZN12_GLOBAL__N_112print_stringEPKcP6Status+0xfe>
    1760: a0 04        	ldy	#$4
    1762: 18           	clc
    1763: a5 18        	lda	$18                     ; 0x2018 <_ZN12_GLOBAL__N_112print_stringEPKcP6Status+0xff>
    1765: 69 04        	adc	#$4
    1767: 85 16        	sta	$16                     ; 0x2016 <_ZN12_GLOBAL__N_112print_stringEPKcP6Status+0xfd>
    1769: a5 17        	lda	$17                     ; 0x2017 <_ZN12_GLOBAL__N_112print_stringEPKcP6Status+0xfe>
    176b: 69 00        	adc	#$0
    176d: 85 17        	sta	$17                     ; 0x2017 <_ZN12_GLOBAL__N_112print_stringEPKcP6Status+0xfe>
    176f: b1 12        	lda	($12),y                 ; 0x2012 <_ZN12_GLOBAL__N_112print_stringEPKcP6Status+0xf9>
    1771: 85 18        	sta	$18                     ; 0x2018 <_ZN12_GLOBAL__N_112print_stringEPKcP6Status+0xff>
    1773: a0 01        	ldy	#$1
    1775: b1 16        	lda	($16),y                 ; 0x2016 <_ZN12_GLOBAL__N_112print_stringEPKcP6Status+0xfd>
    1777: aa           	tax
    1778: a4 18        	ldy	$18                     ; 0x2018 <_ZN12_GLOBAL__N_112print_stringEPKcP6Status+0xff>
    177a: 84 16        	sty	$16                     ; 0x2016 <_ZN12_GLOBAL__N_112print_stringEPKcP6Status+0xfd>
    177c: 85 17        	sta	$17                     ; 0x2017 <_ZN12_GLOBAL__N_112print_stringEPKcP6Status+0xfe>
    177e: 8c 20 31     	sty	$3120                   ; 0x3120 <__heap_start+0x4>
    1781: 8d 21 31     	sta	$3121                   ; 0x3121 <__heap_start+0x5>
    1784: 18           	clc
    1785: a5 18        	lda	$18                     ; 0x2018 <_ZN12_GLOBAL__N_112print_stringEPKcP6Status+0xff>
    1787: 69 02        	adc	#$2
    1789: 85 18        	sta	$18                     ; 0x2018 <_ZN12_GLOBAL__N_112print_stringEPKcP6Status+0xff>
    178b: 8a           	txa
    178c: 69 00        	adc	#$0
    178e: a0 02        	ldy	#$2
    1790: 85 19        	sta	$19                     ; 0x2019 <_ZN12_GLOBAL__N_112print_stringEPKcP6Status+0x100>
    1792: a9 1c        	lda	#$1c
    1794: 91 16        	sta	($16),y                 ; 0x2016 <_ZN12_GLOBAL__N_112print_stringEPKcP6Status+0xfd>
    1796: a9 31        	lda	#$31
    1798: 88           	dey
    1799: 91 18        	sta	($18),y                 ; 0x2018 <_ZN12_GLOBAL__N_112print_stringEPKcP6Status+0xff>
    179b: ae 1e 31     	ldx	$311e                   ; 0x311e <__heap_start+0x2>
    179e: ac 1f 31     	ldy	$311f                   ; 0x311f <__heap_start+0x3>
    17a1: 86 16        	stx	$16                     ; 0x2016 <_ZN12_GLOBAL__N_112print_stringEPKcP6Status+0xfd>
    17a3: 84 17        	sty	$17                     ; 0x2017 <_ZN12_GLOBAL__N_112print_stringEPKcP6Status+0xfe>
    17a5: 84 18        	sty	$18                     ; 0x2018 <_ZN12_GLOBAL__N_112print_stringEPKcP6Status+0xff>
    17a7: a0 04        	ldy	#$4
    17a9: a9 1c        	lda	#$1c
    17ab: 91 16        	sta	($16),y                 ; 0x2016 <_ZN12_GLOBAL__N_112print_stringEPKcP6Status+0xfd>
    17ad: 18           	clc
    17ae: 8a           	txa
    17af: 69 04        	adc	#$4
    17b1: 85 16        	sta	$16                     ; 0x2016 <_ZN12_GLOBAL__N_112print_stringEPKcP6Status+0xfd>
    17b3: a5 18        	lda	$18                     ; 0x2018 <_ZN12_GLOBAL__N_112print_stringEPKcP6Status+0xff>
    17b5: 69 00        	adc	#$0
    17b7: 85 17        	sta	$17                     ; 0x2017 <_ZN12_GLOBAL__N_112print_stringEPKcP6Status+0xfe>
    17b9: a9 31        	lda	#$31
    17bb: a0 01        	ldy	#$1
    17bd: 91 16        	sta	($16),y                 ; 0x2016 <_ZN12_GLOBAL__N_112print_stringEPKcP6Status+0xfd>
    17bf: a6 1b        	ldx	$1b                     ; 0x201b <_ZN12_GLOBAL__N_112print_stringEPKcP6Status+0x102>
    17c1: a4 1a        	ldy	$1a                     ; 0x201a <_ZN12_GLOBAL__N_112print_stringEPKcP6Status+0x101>
    17c3: 8c 1c 31     	sty	$311c                   ; 0x311c <__heap_start>
    17c6: 8e 1d 31     	stx	$311d                   ; 0x311d <__heap_start+0x1>
    17c9: a2 01        	ldx	#$1
    17cb: 8e 1a 31     	stx	$311a                   ; 0x311a <_ZN12_GLOBAL__N_19last_freeE>
    17ce: 8e 19 31     	stx	$3119                   ; 0x3119 <_ZN12_GLOBAL__N_111initializedE>
    17d1: a0 01        	ldy	#$1
    17d3: 80 24        	bra	$17f9 <fileOpen+0x29b>
    17d5: c9 00        	cmp	#$0
    17d7: b0 32        	bcs	$180b <fileOpen+0x2ad>
    17d9: a5 12        	lda	$12                     ; 0x2012 <_ZN12_GLOBAL__N_112print_stringEPKcP6Status+0xf9>
    17db: 18           	clc
    17dc: 69 02        	adc	#$2
    17de: 85 14        	sta	$14                     ; 0x2014 <_ZN12_GLOBAL__N_112print_stringEPKcP6Status+0xfb>
    17e0: a5 13        	lda	$13                     ; 0x2013 <_ZN12_GLOBAL__N_112print_stringEPKcP6Status+0xfa>
    17e2: 69 00        	adc	#$0
    17e4: 85 15        	sta	$15                     ; 0x2015 <_ZN12_GLOBAL__N_112print_stringEPKcP6Status+0xfc>
    17e6: a0 02        	ldy	#$2
    17e8: b1 12        	lda	($12),y                 ; 0x2012 <_ZN12_GLOBAL__N_112print_stringEPKcP6Status+0xf9>
    17ea: 85 12        	sta	$12                     ; 0x2012 <_ZN12_GLOBAL__N_112print_stringEPKcP6Status+0xf9>
    17ec: 88           	dey
    17ed: b1 14        	lda	($14),y                 ; 0x2014 <_ZN12_GLOBAL__N_112print_stringEPKcP6Status+0xfb>
    17ef: 85 13        	sta	$13                     ; 0x2013 <_ZN12_GLOBAL__N_112print_stringEPKcP6Status+0xfa>
    17f1: a6 45        	ldx	$45                     ; 0x2045 <printf+0x20>
    17f3: 86 14        	stx	$14                     ; 0x2014 <_ZN12_GLOBAL__N_112print_stringEPKcP6Status+0xfb>
    17f5: a6 44        	ldx	$44                     ; 0x2044 <printf+0x1f>
    17f7: 86 15        	stx	$15                     ; 0x2015 <_ZN12_GLOBAL__N_112print_stringEPKcP6Status+0xfc>
    17f9: a6 14        	ldx	$14                     ; 0x2014 <_ZN12_GLOBAL__N_112print_stringEPKcP6Status+0xfb>
    17fb: 86 45        	stx	$45                     ; 0x2045 <printf+0x20>
    17fd: a6 15        	ldx	$15                     ; 0x2015 <_ZN12_GLOBAL__N_112print_stringEPKcP6Status+0xfc>
    17ff: 86 44        	stx	$44                     ; 0x2044 <printf+0x1f>
    1801: b1 12        	lda	($12),y                 ; 0x2012 <_ZN12_GLOBAL__N_112print_stringEPKcP6Status+0xf9>
    1803: d0 d0        	bne	$17d5 <fileOpen+0x277>
    1805: b2 12        	lda	($12)                   ; 0x2012 <_ZN12_GLOBAL__N_112print_stringEPKcP6Status+0xf9>
    1807: c9 08        	cmp	#$8
    1809: 90 ce        	bcc	$17d9 <fileOpen+0x27b>
    180b: a6 12        	ldx	$12                     ; 0x2012 <_ZN12_GLOBAL__N_112print_stringEPKcP6Status+0xf9>
    180d: 86 42        	stx	$42                     ; 0x2042 <printf+0x1d>
    180f: a6 13        	ldx	$13                     ; 0x2013 <_ZN12_GLOBAL__N_112print_stringEPKcP6Status+0xfa>
    1811: 86 43        	stx	$43                     ; 0x2043 <printf+0x1e>
    1813: a6 42        	ldx	$42                     ; 0x2042 <printf+0x1d>
    1815: 86 12        	stx	$12                     ; 0x2012 <_ZN12_GLOBAL__N_112print_stringEPKcP6Status+0xf9>
    1817: a6 43        	ldx	$43                     ; 0x2043 <printf+0x1e>
    1819: 86 13        	stx	$13                     ; 0x2013 <_ZN12_GLOBAL__N_112print_stringEPKcP6Status+0xfa>
    181b: 20 4c 04     	jsr	$44c <_ZN12_GLOBAL__N_19FreeChunk6removeEv>
    181e: a6 42        	ldx	$42                     ; 0x2042 <printf+0x1d>
    1820: 86 12        	stx	$12                     ; 0x2012 <_ZN12_GLOBAL__N_112print_stringEPKcP6Status+0xf9>
    1822: a6 43        	ldx	$43                     ; 0x2043 <printf+0x1e>
    1824: 86 13        	stx	$13                     ; 0x2013 <_ZN12_GLOBAL__N_112print_stringEPKcP6Status+0xfa>
    1826: a4 12        	ldy	$12                     ; 0x2012 <_ZN12_GLOBAL__N_112print_stringEPKcP6Status+0xf9>
    1828: 84 14        	sty	$14                     ; 0x2014 <_ZN12_GLOBAL__N_112print_stringEPKcP6Status+0xfb>
    182a: 86 15        	stx	$15                     ; 0x2015 <_ZN12_GLOBAL__N_112print_stringEPKcP6Status+0xfc>
    182c: a0 01        	ldy	#$1
    182e: b1 12        	lda	($12),y                 ; 0x2012 <_ZN12_GLOBAL__N_112print_stringEPKcP6Status+0xf9>
    1830: aa           	tax
    1831: a9 fe        	lda	#$fe
    1833: 32 12        	and	($12)                   ; 0x2012 <_ZN12_GLOBAL__N_112print_stringEPKcP6Status+0xf9>
    1835: 18           	clc
    1836: 85 17        	sta	$17                     ; 0x2017 <_ZN12_GLOBAL__N_112print_stringEPKcP6Status+0xfe>
    1838: 69 f8        	adc	#$f8
    183a: a8           	tay
    183b: 8a           	txa
    183c: 86 16        	stx	$16                     ; 0x2016 <_ZN12_GLOBAL__N_112print_stringEPKcP6Status+0xfd>
    183e: 69 ff        	adc	#$ff
    1840: d0 06        	bne	$1848 <fileOpen+0x2ea>
    1842: 85 18        	sta	$18                     ; 0x2018 <_ZN12_GLOBAL__N_112print_stringEPKcP6Status+0xff>
    1844: c0 08        	cpy	#$8
    1846: 80 04        	bra	$184c <fileOpen+0x2ee>
    1848: 85 18        	sta	$18                     ; 0x2018 <_ZN12_GLOBAL__N_112print_stringEPKcP6Status+0xff>
    184a: c9 00        	cmp	#$0
    184c: a6 45        	ldx	$45                     ; 0x2045 <printf+0x20>
    184e: 86 12        	stx	$12                     ; 0x2012 <_ZN12_GLOBAL__N_112print_stringEPKcP6Status+0xf9>
    1850: a6 44        	ldx	$44                     ; 0x2044 <printf+0x1f>
    1852: 86 13        	stx	$13                     ; 0x2013 <_ZN12_GLOBAL__N_112print_stringEPKcP6Status+0xfa>
    1854: a6 17        	ldx	$17                     ; 0x2017 <_ZN12_GLOBAL__N_112print_stringEPKcP6Status+0xfe>
    1856: 86 47        	stx	$47                     ; 0x2047 <printf+0x22>
    1858: 90 3d        	bcc	$1897 <fileOpen+0x339>
    185a: a5 14        	lda	$14                     ; 0x2014 <_ZN12_GLOBAL__N_112print_stringEPKcP6Status+0xfb>
    185c: 18           	clc
    185d: 69 08        	adc	#$8
    185f: 85 12        	sta	$12                     ; 0x2012 <_ZN12_GLOBAL__N_112print_stringEPKcP6Status+0xf9>
    1861: a5 15        	lda	$15                     ; 0x2015 <_ZN12_GLOBAL__N_112print_stringEPKcP6Status+0xfc>
    1863: 69 00        	adc	#$0
    1865: 85 13        	sta	$13                     ; 0x2013 <_ZN12_GLOBAL__N_112print_stringEPKcP6Status+0xfa>
    1867: a6 18        	ldx	$18                     ; 0x2018 <_ZN12_GLOBAL__N_112print_stringEPKcP6Status+0xff>
    1869: 98           	tya
    186a: 20 16 03     	jsr	$316 <_ZN12_GLOBAL__N_19FreeChunk6insertEPvj>
    186d: a6 42        	ldx	$42                     ; 0x2042 <printf+0x1d>
    186f: 86 12        	stx	$12                     ; 0x2012 <_ZN12_GLOBAL__N_112print_stringEPKcP6Status+0xf9>
    1871: a6 43        	ldx	$43                     ; 0x2043 <printf+0x1e>
    1873: 86 13        	stx	$13                     ; 0x2013 <_ZN12_GLOBAL__N_112print_stringEPKcP6Status+0xfa>
    1875: a4 12        	ldy	$12                     ; 0x2012 <_ZN12_GLOBAL__N_112print_stringEPKcP6Status+0xf9>
    1877: 84 14        	sty	$14                     ; 0x2014 <_ZN12_GLOBAL__N_112print_stringEPKcP6Status+0xfb>
    1879: 86 15        	stx	$15                     ; 0x2015 <_ZN12_GLOBAL__N_112print_stringEPKcP6Status+0xfc>
    187b: a9 01        	lda	#$1
    187d: 32 12        	and	($12)                   ; 0x2012 <_ZN12_GLOBAL__N_112print_stringEPKcP6Status+0xf9>
    187f: 09 08        	ora	#$8
    1881: 92 12        	sta	($12)                   ; 0x2012 <_ZN12_GLOBAL__N_112print_stringEPKcP6Status+0xf9>
    1883: a2 08        	ldx	#$8
    1885: 86 47        	stx	$47                     ; 0x2047 <printf+0x22>
    1887: 64 16        	stz	$16                     ; 0x2016 <_ZN12_GLOBAL__N_112print_stringEPKcP6Status+0xfd>
    1889: a9 00        	lda	#$0
    188b: a0 01        	ldy	#$1
    188d: 91 12        	sta	($12),y                 ; 0x2012 <_ZN12_GLOBAL__N_112print_stringEPKcP6Status+0xf9>
    188f: a6 45        	ldx	$45                     ; 0x2045 <printf+0x20>
    1891: 86 12        	stx	$12                     ; 0x2012 <_ZN12_GLOBAL__N_112print_stringEPKcP6Status+0xf9>
    1893: a6 44        	ldx	$44                     ; 0x2044 <printf+0x1f>
    1895: 86 13        	stx	$13                     ; 0x2013 <_ZN12_GLOBAL__N_112print_stringEPKcP6Status+0xfa>
    1897: 18           	clc
    1898: a5 47        	lda	$47                     ; 0x2047 <printf+0x22>
    189a: 65 14        	adc	$14                     ; 0x2014 <_ZN12_GLOBAL__N_112print_stringEPKcP6Status+0xfb>
    189c: a8           	tay
    189d: a5 16        	lda	$16                     ; 0x2016 <_ZN12_GLOBAL__N_112print_stringEPKcP6Status+0xfd>
    189f: 65 15        	adc	$15                     ; 0x2015 <_ZN12_GLOBAL__N_112print_stringEPKcP6Status+0xfc>
    18a1: c5 13        	cmp	$13                     ; 0x2013 <_ZN12_GLOBAL__N_112print_stringEPKcP6Status+0xfa>
    18a3: d0 09        	bne	$18ae <fileOpen+0x350>
    18a5: c4 12        	cpy	$12                     ; 0x2012 <_ZN12_GLOBAL__N_112print_stringEPKcP6Status+0xf9>
    18a7: d0 05        	bne	$18ae <fileOpen+0x350>
    18a9: 9c 1a 31     	stz	$311a                   ; 0x311a <_ZN12_GLOBAL__N_19last_freeE>
    18ac: 80 14        	bra	$18c2 <fileOpen+0x364>
    18ae: 84 12        	sty	$12                     ; 0x2012 <_ZN12_GLOBAL__N_112print_stringEPKcP6Status+0xf9>
    18b0: 85 13        	sta	$13                     ; 0x2013 <_ZN12_GLOBAL__N_112print_stringEPKcP6Status+0xfa>
    18b2: a0 01        	ldy	#$1
    18b4: b1 12        	lda	($12),y                 ; 0x2012 <_ZN12_GLOBAL__N_112print_stringEPKcP6Status+0xf9>
    18b6: 85 16        	sta	$16                     ; 0x2016 <_ZN12_GLOBAL__N_112print_stringEPKcP6Status+0xfd>
    18b8: a9 fe        	lda	#$fe
    18ba: 32 12        	and	($12)                   ; 0x2012 <_ZN12_GLOBAL__N_112print_stringEPKcP6Status+0xf9>
    18bc: 92 12        	sta	($12)                   ; 0x2012 <_ZN12_GLOBAL__N_112print_stringEPKcP6Status+0xf9>
    18be: a5 16        	lda	$16                     ; 0x2016 <_ZN12_GLOBAL__N_112print_stringEPKcP6Status+0xfd>
    18c0: 91 12        	sta	($12),y                 ; 0x2012 <_ZN12_GLOBAL__N_112print_stringEPKcP6Status+0xf9>
    18c2: a0 02        	ldy	#$2
    18c4: a5 14        	lda	$14                     ; 0x2014 <_ZN12_GLOBAL__N_112print_stringEPKcP6Status+0xfb>
    18c6: 18           	clc
    18c7: 69 02        	adc	#$2
    18c9: 85 12        	sta	$12                     ; 0x2012 <_ZN12_GLOBAL__N_112print_stringEPKcP6Status+0xf9>
    18cb: a5 15        	lda	$15                     ; 0x2015 <_ZN12_GLOBAL__N_112print_stringEPKcP6Status+0xfc>
    18cd: 69 00        	adc	#$0
    18cf: 85 13        	sta	$13                     ; 0x2013 <_ZN12_GLOBAL__N_112print_stringEPKcP6Status+0xfa>
    18d1: a5 46        	lda	$46                     ; 0x2046 <printf+0x21>
    18d3: 91 14        	sta	($14),y                 ; 0x2014 <_ZN12_GLOBAL__N_112print_stringEPKcP6Status+0xfb>
    18d5: 60           	rts

000018d6 <fileWrite>:
    18d6: e0 00        	cpx	#$0
    18d8: d0 06        	bne	$18e0 <fileWrite+0xa>
    18da: a8           	tay
    18db: d0 03        	bne	$18e0 <fileWrite+0xa>
    18dd: 4c 55 1d     	jmp	$1d55 <fileWrite+0x47f>
    18e0: 86 1a        	stx	$1a                     ; 0x201a <_ZN12_GLOBAL__N_112print_stringEPKcP6Status+0x101>
    18e2: a2 00        	ldx	#$0
    18e4: 86 16        	stx	$16                     ; 0x2016 <_ZN12_GLOBAL__N_112print_stringEPKcP6Status+0xfd>
    18e6: a2 c0        	ldx	#$c0
    18e8: 86 17        	stx	$17                     ; 0x2017 <_ZN12_GLOBAL__N_112print_stringEPKcP6Status+0xfe>
    18ea: a2 00        	ldx	#$0
    18ec: 86 47        	stx	$47                     ; 0x2047 <printf+0x22>
    18ee: a2 34        	ldx	#$34
    18f0: 86 18        	stx	$18                     ; 0x2018 <_ZN12_GLOBAL__N_112print_stringEPKcP6Status+0xff>
    18f2: a2 00        	ldx	#$0
    18f4: 86 19        	stx	$19                     ; 0x2019 <_ZN12_GLOBAL__N_112print_stringEPKcP6Status+0x100>
    18f6: a2 20        	ldx	#$20
    18f8: a0 00        	ldy	#$0
    18fa: 84 48        	sty	$48                     ; 0x2048 <printf+0x23>
    18fc: a8           	tay
    18fd: a5 1a        	lda	$1a                     ; 0x201a <_ZN12_GLOBAL__N_112print_stringEPKcP6Status+0x101>
    18ff: 84 40        	sty	$40                     ; 0x2040 <printf+0x1b>
    1901: c0 ff        	cpy	#$ff
    1903: 85 41        	sta	$41                     ; 0x2041 <printf+0x1c>
    1905: e9 00        	sbc	#$0
    1907: 50 02        	bvc	$190b <fileWrite+0x35>
    1909: 49 80        	eor	#$80
    190b: c9 00        	cmp	#$0
    190d: 30 0d        	bmi	$191c <fileWrite+0x46>
    190f: b2 14        	lda	($14)                   ; 0x2014 <_ZN12_GLOBAL__N_112print_stringEPKcP6Status+0xfb>
    1911: a0 fe        	ldy	#$fe
    1913: 85 1c        	sta	$1c                     ; 0x201c <_ZN12_GLOBAL__N_112print_stringEPKcP6Status+0x103>
    1915: c9 01        	cmp	#$1
    1917: f0 15        	beq	$192e <fileWrite+0x58>
    1919: 4c c5 1c     	jmp	$1cc5 <fileWrite+0x3ef>
    191c: b2 14        	lda	($14)                   ; 0x2014 <_ZN12_GLOBAL__N_112print_stringEPKcP6Status+0xfb>
    191e: 85 1c        	sta	$1c                     ; 0x201c <_ZN12_GLOBAL__N_112print_stringEPKcP6Status+0x103>
    1920: c9 01        	cmp	#$1
    1922: f0 03        	beq	$1927 <fileWrite+0x51>
    1924: 4c c5 1c     	jmp	$1cc5 <fileWrite+0x3ef>
    1927: a5 40        	lda	$40                     ; 0x2040 <printf+0x1b>
    1929: d0 03        	bne	$192e <fileWrite+0x58>
    192b: 4c 4a 1d     	jmp	$1d4a <fileWrite+0x474>
    192e: 84 42        	sty	$42                     ; 0x2042 <printf+0x1d>
    1930: a4 47        	ldy	$47                     ; 0x2047 <printf+0x22>
    1932: 98           	tya
    1933: 18           	clc
    1934: 65 12        	adc	$12                     ; 0x2012 <_ZN12_GLOBAL__N_112print_stringEPKcP6Status+0xf9>
    1936: 85 1a        	sta	$1a                     ; 0x201a <_ZN12_GLOBAL__N_112print_stringEPKcP6Status+0x101>
    1938: a5 48        	lda	$48                     ; 0x2048 <printf+0x23>
    193a: 65 13        	adc	$13                     ; 0x2013 <_ZN12_GLOBAL__N_112print_stringEPKcP6Status+0xfa>
    193c: 85 1b        	sta	$1b                     ; 0x201b <_ZN12_GLOBAL__N_112print_stringEPKcP6Status+0x102>
    193e: a9 00        	lda	#$0
    1940: 80 27        	bra	$1969 <fileWrite+0x93>
    1942: a4 44        	ldy	$44                     ; 0x2044 <printf+0x1f>
    1944: 84 01        	sty	$1                      ; 0x2001 <_ZN12_GLOBAL__N_112print_stringEPKcP6Status+0xe8>
    1946: a4 30        	ldy	$30                     ; 0x2030 <printf+0xb>
    1948: a5 31        	lda	$31                     ; 0x2031 <printf+0xc>
    194a: 8c 14 d0     	sty	$d014                   ; 0xd014 <__heap_start+0x9ef8>
    194d: 9c 15 d0     	stz	$d015                   ; 0xd015 <__heap_start+0x9ef9>
    1950: 85 31        	sta	$31                     ; 0x2031 <printf+0xc>
    1952: 8d 16 d0     	sta	$d016                   ; 0xd016 <__heap_start+0x9efa>
    1955: 9c 17 d0     	stz	$d017                   ; 0xd017 <__heap_start+0x9efb>
    1958: a4 43        	ldy	$43                     ; 0x2043 <printf+0x1e>
    195a: 84 1c        	sty	$1c                     ; 0x201c <_ZN12_GLOBAL__N_112print_stringEPKcP6Status+0x103>
    195c: e6 1c        	inc	$1c                     ; 0x201c <_ZN12_GLOBAL__N_112print_stringEPKcP6Status+0x103>
    195e: a5 1c        	lda	$1c                     ; 0x201c <_ZN12_GLOBAL__N_112print_stringEPKcP6Status+0x103>
    1960: a4 42        	ldy	$42                     ; 0x2042 <printf+0x1d>
    1962: c4 1c        	cpy	$1c                     ; 0x201c <_ZN12_GLOBAL__N_112print_stringEPKcP6Status+0x103>
    1964: d0 03        	bne	$1969 <fileWrite+0x93>
    1966: 4c 1c 1d     	jmp	$1d1c <fileWrite+0x446>
    1969: a8           	tay
    196a: 85 43        	sta	$43                     ; 0x2043 <printf+0x1e>
    196c: b1 1a        	lda	($1a),y                 ; 0x201a <_ZN12_GLOBAL__N_112print_stringEPKcP6Status+0x101>
    196e: 85 32        	sta	$32                     ; 0x2032 <printf+0xd>
    1970: a4 01        	ldy	$1                      ; 0x2001 <_ZN12_GLOBAL__N_112print_stringEPKcP6Status+0xe8>
    1972: 84 44        	sty	$44                     ; 0x2044 <printf+0x1f>
    1974: a5 31        	lda	$31                     ; 0x2031 <printf+0xc>
    1976: a0 50        	ldy	#$50
    1978: 8c 00 de     	sty	$de00                   ; 0xde00 <__heap_start+0xace4>
    197b: 9c 01 de     	stz	$de01                   ; 0xde01 <__heap_start+0xace5>
    197e: 8d 02 de     	sta	$de02                   ; 0xde02 <__heap_start+0xace6>
    1981: 9c 03 de     	stz	$de03                   ; 0xde03 <__heap_start+0xace7>
    1984: ad 10 de     	lda	$de10                   ; 0xde10 <__heap_start+0xacf4>
    1987: ac 11 de     	ldy	$de11                   ; 0xde11 <__heap_start+0xacf5>
    198a: 84 1c        	sty	$1c                     ; 0x201c <_ZN12_GLOBAL__N_112print_stringEPKcP6Status+0x103>
    198c: ac 12 de     	ldy	$de12                   ; 0xde12 <__heap_start+0xacf6>
    198f: 84 1d        	sty	$1d                     ; 0x201d <_ZN12_GLOBAL__N_112print_stringEPKcP6Status+0x104>
    1991: ac 13 de     	ldy	$de13                   ; 0xde13 <__heap_start+0xacf7>
    1994: 84 1e        	sty	$1e                     ; 0x201e <_ZN12_GLOBAL__N_112print_stringEPKcP6Status+0x105>
    1996: 9c 08 de     	stz	$de08                   ; 0xde08 <__heap_start+0xacec>
    1999: a0 c0        	ldy	#$c0
    199b: 8c 09 de     	sty	$de09                   ; 0xde09 <__heap_start+0xaced>
    199e: 9c 0a de     	stz	$de0a                   ; 0xde0a <__heap_start+0xacee>
    19a1: 9c 0b de     	stz	$de0b                   ; 0xde0b <__heap_start+0xacef>
    19a4: 8d 0c de     	sta	$de0c                   ; 0xde0c <__heap_start+0xacf0>
    19a7: a4 1c        	ldy	$1c                     ; 0x201c <_ZN12_GLOBAL__N_112print_stringEPKcP6Status+0x103>
    19a9: 8c 0d de     	sty	$de0d                   ; 0xde0d <__heap_start+0xacf1>
    19ac: a4 1d        	ldy	$1d                     ; 0x201d <_ZN12_GLOBAL__N_112print_stringEPKcP6Status+0x104>
    19ae: 8c 0e de     	sty	$de0e                   ; 0xde0e <__heap_start+0xacf2>
    19b1: a4 1e        	ldy	$1e                     ; 0x201e <_ZN12_GLOBAL__N_112print_stringEPKcP6Status+0x105>
    19b3: 8c 0f de     	sty	$de0f                   ; 0xde0f <__heap_start+0xacf3>
    19b6: ac 18 de     	ldy	$de18                   ; 0xde18 <__heap_start+0xacfc>
    19b9: ad 19 de     	lda	$de19                   ; 0xde19 <__heap_start+0xacfd>
    19bc: 85 1f        	sta	$1f                     ; 0x201f <_ZN12_GLOBAL__N_112print_stringEPKcP6Status+0x106>
    19be: ad 1a de     	lda	$de1a                   ; 0xde1a <__heap_start+0xacfe>
    19c1: ad 1b de     	lda	$de1b                   ; 0xde1b <__heap_start+0xacff>
    19c4: 84 1e        	sty	$1e                     ; 0x201e <_ZN12_GLOBAL__N_112print_stringEPKcP6Status+0x105>
    19c6: 64 1c        	stz	$1c                     ; 0x201c <_ZN12_GLOBAL__N_112print_stringEPKcP6Status+0x103>
    19c8: 64 1d        	stz	$1d                     ; 0x201d <_ZN12_GLOBAL__N_112print_stringEPKcP6Status+0x104>
    19ca: 4c 62 1c     	jmp	$1c62 <fileWrite+0x38c>
    19cd: a5 23        	lda	$23                     ; 0x2023 <_ZN12_GLOBAL__N_112print_stringEPKcP6Status+0x10a>
    19cf: f0 1c        	beq	$19ed <fileWrite+0x117>
    19d1: b1 1e        	lda	($1e),y                 ; 0x201e <_ZN12_GLOBAL__N_112print_stringEPKcP6Status+0x105>
    19d3: 92 1e        	sta	($1e)                   ; 0x201e <_ZN12_GLOBAL__N_112print_stringEPKcP6Status+0x105>
    19d5: a9 ff        	lda	#$ff
    19d7: c6 22        	dec	$22                     ; 0x2022 <_ZN12_GLOBAL__N_112print_stringEPKcP6Status+0x109>
    19d9: c5 22        	cmp	$22                     ; 0x2022 <_ZN12_GLOBAL__N_112print_stringEPKcP6Status+0x109>
    19db: f0 06        	beq	$19e3 <fileWrite+0x10d>
    19dd: e6 1e        	inc	$1e                     ; 0x201e <_ZN12_GLOBAL__N_112print_stringEPKcP6Status+0x105>
    19df: d0 ec        	bne	$19cd <fileWrite+0xf7>
    19e1: 80 06        	bra	$19e9 <fileWrite+0x113>
    19e3: c6 23        	dec	$23                     ; 0x2023 <_ZN12_GLOBAL__N_112print_stringEPKcP6Status+0x10a>
    19e5: e6 1e        	inc	$1e                     ; 0x201e <_ZN12_GLOBAL__N_112print_stringEPKcP6Status+0x105>
    19e7: d0 e4        	bne	$19cd <fileWrite+0xf7>
    19e9: e6 1f        	inc	$1f                     ; 0x201f <_ZN12_GLOBAL__N_112print_stringEPKcP6Status+0x106>
    19eb: 80 e0        	bra	$19cd <fileWrite+0xf7>
    19ed: a5 22        	lda	$22                     ; 0x2022 <_ZN12_GLOBAL__N_112print_stringEPKcP6Status+0x109>
    19ef: d0 e0        	bne	$19d1 <fileWrite+0xfb>
    19f1: a9 02        	lda	#$2
    19f3: 85 01        	sta	$1                      ; 0x2001 <_ZN12_GLOBAL__N_112print_stringEPKcP6Status+0xe8>
    19f5: a9 10        	lda	#$10
    19f7: 5a           	phy
    19f8: a0 00        	ldy	#$0
    19fa: 84 1e        	sty	$1e                     ; 0x201e <_ZN12_GLOBAL__N_112print_stringEPKcP6Status+0x105>
    19fc: a0 c0        	ldy	#$c0
    19fe: 84 1f        	sty	$1f                     ; 0x201f <_ZN12_GLOBAL__N_112print_stringEPKcP6Status+0x106>
    1a00: 7a           	ply
    1a01: 85 22        	sta	$22                     ; 0x2022 <_ZN12_GLOBAL__N_112print_stringEPKcP6Status+0x109>
    1a03: a9 09        	lda	#$9
    1a05: 85 23        	sta	$23                     ; 0x2023 <_ZN12_GLOBAL__N_112print_stringEPKcP6Status+0x10a>
    1a07: 80 04        	bra	$1a0d <fileWrite+0x137>
    1a09: a5 23        	lda	$23                     ; 0x2023 <_ZN12_GLOBAL__N_112print_stringEPKcP6Status+0x10a>
    1a0b: f0 1c        	beq	$1a29 <fileWrite+0x153>
    1a0d: b1 1e        	lda	($1e),y                 ; 0x201e <_ZN12_GLOBAL__N_112print_stringEPKcP6Status+0x105>
    1a0f: 92 1e        	sta	($1e)                   ; 0x201e <_ZN12_GLOBAL__N_112print_stringEPKcP6Status+0x105>
    1a11: a9 ff        	lda	#$ff
    1a13: c6 22        	dec	$22                     ; 0x2022 <_ZN12_GLOBAL__N_112print_stringEPKcP6Status+0x109>
    1a15: c5 22        	cmp	$22                     ; 0x2022 <_ZN12_GLOBAL__N_112print_stringEPKcP6Status+0x109>
    1a17: f0 06        	beq	$1a1f <fileWrite+0x149>
    1a19: e6 1e        	inc	$1e                     ; 0x201e <_ZN12_GLOBAL__N_112print_stringEPKcP6Status+0x105>
    1a1b: d0 ec        	bne	$1a09 <fileWrite+0x133>
    1a1d: 80 06        	bra	$1a25 <fileWrite+0x14f>
    1a1f: c6 23        	dec	$23                     ; 0x2023 <_ZN12_GLOBAL__N_112print_stringEPKcP6Status+0x10a>
    1a21: e6 1e        	inc	$1e                     ; 0x201e <_ZN12_GLOBAL__N_112print_stringEPKcP6Status+0x105>
    1a23: d0 e4        	bne	$1a09 <fileWrite+0x133>
    1a25: e6 1f        	inc	$1f                     ; 0x201f <_ZN12_GLOBAL__N_112print_stringEPKcP6Status+0x106>
    1a27: 80 e0        	bra	$1a09 <fileWrite+0x133>
    1a29: a5 22        	lda	$22                     ; 0x2022 <_ZN12_GLOBAL__N_112print_stringEPKcP6Status+0x109>
    1a2b: d0 e0        	bne	$1a0d <fileWrite+0x137>
    1a2d: a9 02        	lda	#$2
    1a2f: 85 01        	sta	$1                      ; 0x2001 <_ZN12_GLOBAL__N_112print_stringEPKcP6Status+0xe8>
    1a31: a0 03        	ldy	#$3
    1a33: 84 01        	sty	$1                      ; 0x2001 <_ZN12_GLOBAL__N_112print_stringEPKcP6Status+0xe8>
    1a35: a0 f0        	ldy	#$f0
    1a37: 8c 10 c9     	sty	$c910                   ; 0xc910 <__heap_start+0x97f4>
    1a3a: 8c 11 c9     	sty	$c911                   ; 0xc911 <__heap_start+0x97f5>
    1a3d: 8c 12 c9     	sty	$c912                   ; 0xc912 <__heap_start+0x97f6>
    1a40: 8c 13 c9     	sty	$c913                   ; 0xc913 <__heap_start+0x97f7>
    1a43: 8c 14 c9     	sty	$c914                   ; 0xc914 <__heap_start+0x97f8>
    1a46: 8c 15 c9     	sty	$c915                   ; 0xc915 <__heap_start+0x97f9>
    1a49: 8c 16 c9     	sty	$c916                   ; 0xc916 <__heap_start+0x97fa>
    1a4c: 8c 17 c9     	sty	$c917                   ; 0xc917 <__heap_start+0x97fb>
    1a4f: 8c 18 c9     	sty	$c918                   ; 0xc918 <__heap_start+0x97fc>
    1a52: 8c 19 c9     	sty	$c919                   ; 0xc919 <__heap_start+0x97fd>
    1a55: 8c 1a c9     	sty	$c91a                   ; 0xc91a <__heap_start+0x97fe>
    1a58: 8c 1b c9     	sty	$c91b                   ; 0xc91b <__heap_start+0x97ff>
    1a5b: 8c 1c c9     	sty	$c91c                   ; 0xc91c <__heap_start+0x9800>
    1a5e: 8c 1d c9     	sty	$c91d                   ; 0xc91d <__heap_start+0x9801>
    1a61: 8c 1e c9     	sty	$c91e                   ; 0xc91e <__heap_start+0x9802>
    1a64: 8c 1f c9     	sty	$c91f                   ; 0xc91f <__heap_start+0x9803>
    1a67: 8c 20 c9     	sty	$c920                   ; 0xc920 <__heap_start+0x9804>
    1a6a: 8c 21 c9     	sty	$c921                   ; 0xc921 <__heap_start+0x9805>
    1a6d: 8c 22 c9     	sty	$c922                   ; 0xc922 <__heap_start+0x9806>
    1a70: 8c 23 c9     	sty	$c923                   ; 0xc923 <__heap_start+0x9807>
    1a73: 8c 24 c9     	sty	$c924                   ; 0xc924 <__heap_start+0x9808>
    1a76: 8c 25 c9     	sty	$c925                   ; 0xc925 <__heap_start+0x9809>
    1a79: 8c 26 c9     	sty	$c926                   ; 0xc926 <__heap_start+0x980a>
    1a7c: 8c 27 c9     	sty	$c927                   ; 0xc927 <__heap_start+0x980b>
    1a7f: 8c 28 c9     	sty	$c928                   ; 0xc928 <__heap_start+0x980c>
    1a82: 8c 29 c9     	sty	$c929                   ; 0xc929 <__heap_start+0x980d>
    1a85: 8c 2a c9     	sty	$c92a                   ; 0xc92a <__heap_start+0x980e>
    1a88: 8c 2b c9     	sty	$c92b                   ; 0xc92b <__heap_start+0x980f>
    1a8b: 8c 2c c9     	sty	$c92c                   ; 0xc92c <__heap_start+0x9810>
    1a8e: 8c 2d c9     	sty	$c92d                   ; 0xc92d <__heap_start+0x9811>
    1a91: 8c 2e c9     	sty	$c92e                   ; 0xc92e <__heap_start+0x9812>
    1a94: 8c 2f c9     	sty	$c92f                   ; 0xc92f <__heap_start+0x9813>
    1a97: 8c 30 c9     	sty	$c930                   ; 0xc930 <__heap_start+0x9814>
    1a9a: 8c 31 c9     	sty	$c931                   ; 0xc931 <__heap_start+0x9815>
    1a9d: 8c 32 c9     	sty	$c932                   ; 0xc932 <__heap_start+0x9816>
    1aa0: 8c 33 c9     	sty	$c933                   ; 0xc933 <__heap_start+0x9817>
    1aa3: 8c 34 c9     	sty	$c934                   ; 0xc934 <__heap_start+0x9818>
    1aa6: 8c 35 c9     	sty	$c935                   ; 0xc935 <__heap_start+0x9819>
    1aa9: 8c 36 c9     	sty	$c936                   ; 0xc936 <__heap_start+0x981a>
    1aac: 8c 37 c9     	sty	$c937                   ; 0xc937 <__heap_start+0x981b>
    1aaf: 8c 38 c9     	sty	$c938                   ; 0xc938 <__heap_start+0x981c>
    1ab2: 8c 39 c9     	sty	$c939                   ; 0xc939 <__heap_start+0x981d>
    1ab5: 8c 3a c9     	sty	$c93a                   ; 0xc93a <__heap_start+0x981e>
    1ab8: 8c 3b c9     	sty	$c93b                   ; 0xc93b <__heap_start+0x981f>
    1abb: 8c 3c c9     	sty	$c93c                   ; 0xc93c <__heap_start+0x9820>
    1abe: 8c 3d c9     	sty	$c93d                   ; 0xc93d <__heap_start+0x9821>
    1ac1: 8c 3e c9     	sty	$c93e                   ; 0xc93e <__heap_start+0x9822>
    1ac4: 8c 3f c9     	sty	$c93f                   ; 0xc93f <__heap_start+0x9823>
    1ac7: 8c 40 c9     	sty	$c940                   ; 0xc940 <__heap_start+0x9824>
    1aca: 8c 41 c9     	sty	$c941                   ; 0xc941 <__heap_start+0x9825>
    1acd: 8c 42 c9     	sty	$c942                   ; 0xc942 <__heap_start+0x9826>
    1ad0: 8c 43 c9     	sty	$c943                   ; 0xc943 <__heap_start+0x9827>
    1ad3: 8c 44 c9     	sty	$c944                   ; 0xc944 <__heap_start+0x9828>
    1ad6: 8c 45 c9     	sty	$c945                   ; 0xc945 <__heap_start+0x9829>
    1ad9: 8c 46 c9     	sty	$c946                   ; 0xc946 <__heap_start+0x982a>
    1adc: 8c 47 c9     	sty	$c947                   ; 0xc947 <__heap_start+0x982b>
    1adf: 8c 48 c9     	sty	$c948                   ; 0xc948 <__heap_start+0x982c>
    1ae2: 8c 49 c9     	sty	$c949                   ; 0xc949 <__heap_start+0x982d>
    1ae5: 8c 4a c9     	sty	$c94a                   ; 0xc94a <__heap_start+0x982e>
    1ae8: 8c 4b c9     	sty	$c94b                   ; 0xc94b <__heap_start+0x982f>
    1aeb: 8c 4c c9     	sty	$c94c                   ; 0xc94c <__heap_start+0x9830>
    1aee: 8c 4d c9     	sty	$c94d                   ; 0xc94d <__heap_start+0x9831>
    1af1: 8c 4e c9     	sty	$c94e                   ; 0xc94e <__heap_start+0x9832>
    1af4: 8c 4f c9     	sty	$c94f                   ; 0xc94f <__heap_start+0x9833>
    1af7: 8c 50 c9     	sty	$c950                   ; 0xc950 <__heap_start+0x9834>
    1afa: 8c 51 c9     	sty	$c951                   ; 0xc951 <__heap_start+0x9835>
    1afd: 8c 52 c9     	sty	$c952                   ; 0xc952 <__heap_start+0x9836>
    1b00: 8c 53 c9     	sty	$c953                   ; 0xc953 <__heap_start+0x9837>
    1b03: 8c 54 c9     	sty	$c954                   ; 0xc954 <__heap_start+0x9838>
    1b06: 8c 55 c9     	sty	$c955                   ; 0xc955 <__heap_start+0x9839>
    1b09: 8c 56 c9     	sty	$c956                   ; 0xc956 <__heap_start+0x983a>
    1b0c: 8c 57 c9     	sty	$c957                   ; 0xc957 <__heap_start+0x983b>
    1b0f: 8c 58 c9     	sty	$c958                   ; 0xc958 <__heap_start+0x983c>
    1b12: 8c 59 c9     	sty	$c959                   ; 0xc959 <__heap_start+0x983d>
    1b15: 8c 5a c9     	sty	$c95a                   ; 0xc95a <__heap_start+0x983e>
    1b18: 8c 5b c9     	sty	$c95b                   ; 0xc95b <__heap_start+0x983f>
    1b1b: 8c 5c c9     	sty	$c95c                   ; 0xc95c <__heap_start+0x9840>
    1b1e: 8c 5d c9     	sty	$c95d                   ; 0xc95d <__heap_start+0x9841>
    1b21: 8c 5e c9     	sty	$c95e                   ; 0xc95e <__heap_start+0x9842>
    1b24: 8c 5f c9     	sty	$c95f                   ; 0xc95f <__heap_start+0x9843>
    1b27: 85 01        	sta	$1                      ; 0x2001 <_ZN12_GLOBAL__N_112print_stringEPKcP6Status+0xe8>
    1b29: 8e 10 c9     	stx	$c910                   ; 0xc910 <__heap_start+0x97f4>
    1b2c: 8e 11 c9     	stx	$c911                   ; 0xc911 <__heap_start+0x97f5>
    1b2f: 8e 12 c9     	stx	$c912                   ; 0xc912 <__heap_start+0x97f6>
    1b32: 8e 13 c9     	stx	$c913                   ; 0xc913 <__heap_start+0x97f7>
    1b35: 8e 14 c9     	stx	$c914                   ; 0xc914 <__heap_start+0x97f8>
    1b38: 8e 15 c9     	stx	$c915                   ; 0xc915 <__heap_start+0x97f9>
    1b3b: 8e 16 c9     	stx	$c916                   ; 0xc916 <__heap_start+0x97fa>
    1b3e: 8e 17 c9     	stx	$c917                   ; 0xc917 <__heap_start+0x97fb>
    1b41: 8e 18 c9     	stx	$c918                   ; 0xc918 <__heap_start+0x97fc>
    1b44: 8e 19 c9     	stx	$c919                   ; 0xc919 <__heap_start+0x97fd>
    1b47: 8e 1a c9     	stx	$c91a                   ; 0xc91a <__heap_start+0x97fe>
    1b4a: 8e 1b c9     	stx	$c91b                   ; 0xc91b <__heap_start+0x97ff>
    1b4d: 8e 1c c9     	stx	$c91c                   ; 0xc91c <__heap_start+0x9800>
    1b50: 8e 1d c9     	stx	$c91d                   ; 0xc91d <__heap_start+0x9801>
    1b53: 8e 1e c9     	stx	$c91e                   ; 0xc91e <__heap_start+0x9802>
    1b56: 8e 1f c9     	stx	$c91f                   ; 0xc91f <__heap_start+0x9803>
    1b59: 8e 20 c9     	stx	$c920                   ; 0xc920 <__heap_start+0x9804>
    1b5c: 8e 21 c9     	stx	$c921                   ; 0xc921 <__heap_start+0x9805>
    1b5f: 8e 22 c9     	stx	$c922                   ; 0xc922 <__heap_start+0x9806>
    1b62: 8e 23 c9     	stx	$c923                   ; 0xc923 <__heap_start+0x9807>
    1b65: 8e 24 c9     	stx	$c924                   ; 0xc924 <__heap_start+0x9808>
    1b68: 8e 25 c9     	stx	$c925                   ; 0xc925 <__heap_start+0x9809>
    1b6b: 8e 26 c9     	stx	$c926                   ; 0xc926 <__heap_start+0x980a>
    1b6e: 8e 27 c9     	stx	$c927                   ; 0xc927 <__heap_start+0x980b>
    1b71: 8e 28 c9     	stx	$c928                   ; 0xc928 <__heap_start+0x980c>
    1b74: 8e 29 c9     	stx	$c929                   ; 0xc929 <__heap_start+0x980d>
    1b77: 8e 2a c9     	stx	$c92a                   ; 0xc92a <__heap_start+0x980e>
    1b7a: 8e 2b c9     	stx	$c92b                   ; 0xc92b <__heap_start+0x980f>
    1b7d: 8e 2c c9     	stx	$c92c                   ; 0xc92c <__heap_start+0x9810>
    1b80: 8e 2d c9     	stx	$c92d                   ; 0xc92d <__heap_start+0x9811>
    1b83: 8e 2e c9     	stx	$c92e                   ; 0xc92e <__heap_start+0x9812>
    1b86: 8e 2f c9     	stx	$c92f                   ; 0xc92f <__heap_start+0x9813>
    1b89: 8e 30 c9     	stx	$c930                   ; 0xc930 <__heap_start+0x9814>
    1b8c: 8e 31 c9     	stx	$c931                   ; 0xc931 <__heap_start+0x9815>
    1b8f: 8e 32 c9     	stx	$c932                   ; 0xc932 <__heap_start+0x9816>
    1b92: 8e 33 c9     	stx	$c933                   ; 0xc933 <__heap_start+0x9817>
    1b95: 8e 34 c9     	stx	$c934                   ; 0xc934 <__heap_start+0x9818>
    1b98: 8e 35 c9     	stx	$c935                   ; 0xc935 <__heap_start+0x9819>
    1b9b: 8e 36 c9     	stx	$c936                   ; 0xc936 <__heap_start+0x981a>
    1b9e: 8e 37 c9     	stx	$c937                   ; 0xc937 <__heap_start+0x981b>
    1ba1: 8e 38 c9     	stx	$c938                   ; 0xc938 <__heap_start+0x981c>
    1ba4: 8e 39 c9     	stx	$c939                   ; 0xc939 <__heap_start+0x981d>
    1ba7: 8e 3a c9     	stx	$c93a                   ; 0xc93a <__heap_start+0x981e>
    1baa: 8e 3b c9     	stx	$c93b                   ; 0xc93b <__heap_start+0x981f>
    1bad: 8e 3c c9     	stx	$c93c                   ; 0xc93c <__heap_start+0x9820>
    1bb0: 8e 3d c9     	stx	$c93d                   ; 0xc93d <__heap_start+0x9821>
    1bb3: 8e 3e c9     	stx	$c93e                   ; 0xc93e <__heap_start+0x9822>
    1bb6: 8e 3f c9     	stx	$c93f                   ; 0xc93f <__heap_start+0x9823>
    1bb9: 8e 40 c9     	stx	$c940                   ; 0xc940 <__heap_start+0x9824>
    1bbc: 8e 41 c9     	stx	$c941                   ; 0xc941 <__heap_start+0x9825>
    1bbf: 8e 42 c9     	stx	$c942                   ; 0xc942 <__heap_start+0x9826>
    1bc2: 8e 43 c9     	stx	$c943                   ; 0xc943 <__heap_start+0x9827>
    1bc5: 8e 44 c9     	stx	$c944                   ; 0xc944 <__heap_start+0x9828>
    1bc8: 8e 45 c9     	stx	$c945                   ; 0xc945 <__heap_start+0x9829>
    1bcb: 8e 46 c9     	stx	$c946                   ; 0xc946 <__heap_start+0x982a>
    1bce: 8e 47 c9     	stx	$c947                   ; 0xc947 <__heap_start+0x982b>
    1bd1: 8e 48 c9     	stx	$c948                   ; 0xc948 <__heap_start+0x982c>
    1bd4: 8e 49 c9     	stx	$c949                   ; 0xc949 <__heap_start+0x982d>
    1bd7: 8e 4a c9     	stx	$c94a                   ; 0xc94a <__heap_start+0x982e>
    1bda: 8e 4b c9     	stx	$c94b                   ; 0xc94b <__heap_start+0x982f>
    1bdd: 8e 4c c9     	stx	$c94c                   ; 0xc94c <__heap_start+0x9830>
    1be0: 8e 4d c9     	stx	$c94d                   ; 0xc94d <__heap_start+0x9831>
    1be3: 8e 4e c9     	stx	$c94e                   ; 0xc94e <__heap_start+0x9832>
    1be6: 8e 4f c9     	stx	$c94f                   ; 0xc94f <__heap_start+0x9833>
    1be9: 8e 50 c9     	stx	$c950                   ; 0xc950 <__heap_start+0x9834>
    1bec: 8e 51 c9     	stx	$c951                   ; 0xc951 <__heap_start+0x9835>
    1bef: 8e 52 c9     	stx	$c952                   ; 0xc952 <__heap_start+0x9836>
    1bf2: 8e 53 c9     	stx	$c953                   ; 0xc953 <__heap_start+0x9837>
    1bf5: 8e 54 c9     	stx	$c954                   ; 0xc954 <__heap_start+0x9838>
    1bf8: 8e 55 c9     	stx	$c955                   ; 0xc955 <__heap_start+0x9839>
    1bfb: 8e 56 c9     	stx	$c956                   ; 0xc956 <__heap_start+0x983a>
    1bfe: 8e 57 c9     	stx	$c957                   ; 0xc957 <__heap_start+0x983b>
    1c01: 8e 58 c9     	stx	$c958                   ; 0xc958 <__heap_start+0x983c>
    1c04: 8e 59 c9     	stx	$c959                   ; 0xc959 <__heap_start+0x983d>
    1c07: 8e 5a c9     	stx	$c95a                   ; 0xc95a <__heap_start+0x983e>
    1c0a: 8e 5b c9     	stx	$c95b                   ; 0xc95b <__heap_start+0x983f>
    1c0d: 8e 5c c9     	stx	$c95c                   ; 0xc95c <__heap_start+0x9840>
    1c10: 8e 5d c9     	stx	$c95d                   ; 0xc95d <__heap_start+0x9841>
    1c13: 8e 5e c9     	stx	$c95e                   ; 0xc95e <__heap_start+0x9842>
    1c16: 8e 5f c9     	stx	$c95f                   ; 0xc95f <__heap_start+0x9843>
    1c19: c6 31        	dec	$31                     ; 0x2031 <printf+0xc>
    1c1b: 9c 08 de     	stz	$de08                   ; 0xde08 <__heap_start+0xacec>
    1c1e: a0 c0        	ldy	#$c0
    1c20: 8c 09 de     	sty	$de09                   ; 0xde09 <__heap_start+0xaced>
    1c23: 9c 0a de     	stz	$de0a                   ; 0xde0a <__heap_start+0xacee>
    1c26: 9c 0b de     	stz	$de0b                   ; 0xde0b <__heap_start+0xacef>
    1c29: a0 1d        	ldy	#$1d
    1c2b: 8c 0c de     	sty	$de0c                   ; 0xde0c <__heap_start+0xacf0>
    1c2e: 9c 0d de     	stz	$de0d                   ; 0xde0d <__heap_start+0xacf1>
    1c31: 9c 0e de     	stz	$de0e                   ; 0xde0e <__heap_start+0xacf2>
    1c34: 9c 0f de     	stz	$de0f                   ; 0xde0f <__heap_start+0xacf3>
    1c37: ac 18 de     	ldy	$de18                   ; 0xde18 <__heap_start+0xacfc>
    1c3a: ad 19 de     	lda	$de19                   ; 0xde19 <__heap_start+0xacfd>
    1c3d: 85 1f        	sta	$1f                     ; 0x201f <_ZN12_GLOBAL__N_112print_stringEPKcP6Status+0x106>
    1c3f: ad 1a de     	lda	$de1a                   ; 0xde1a <__heap_start+0xacfe>
    1c42: 84 1e        	sty	$1e                     ; 0x201e <_ZN12_GLOBAL__N_112print_stringEPKcP6Status+0x105>
    1c44: ac 1b de     	ldy	$de1b                   ; 0xde1b <__heap_start+0xacff>
    1c47: e6 1c        	inc	$1c                     ; 0x201c <_ZN12_GLOBAL__N_112print_stringEPKcP6Status+0x103>
    1c49: d0 02        	bne	$1c4d <fileWrite+0x377>
    1c4b: e6 1d        	inc	$1d                     ; 0x201d <_ZN12_GLOBAL__N_112print_stringEPKcP6Status+0x104>
    1c4d: 80 13        	bra	$1c62 <fileWrite+0x38c>
    1c4f: a5 1e        	lda	$1e                     ; 0x201e <_ZN12_GLOBAL__N_112print_stringEPKcP6Status+0x105>
    1c51: 18           	clc
    1c52: 69 50        	adc	#$50
    1c54: 85 1e        	sta	$1e                     ; 0x201e <_ZN12_GLOBAL__N_112print_stringEPKcP6Status+0x105>
    1c56: a5 1f        	lda	$1f                     ; 0x201f <_ZN12_GLOBAL__N_112print_stringEPKcP6Status+0x106>
    1c58: 69 00        	adc	#$0
    1c5a: 85 1f        	sta	$1f                     ; 0x201f <_ZN12_GLOBAL__N_112print_stringEPKcP6Status+0x106>
    1c5c: e6 1c        	inc	$1c                     ; 0x201c <_ZN12_GLOBAL__N_112print_stringEPKcP6Status+0x103>
    1c5e: d0 02        	bne	$1c62 <fileWrite+0x38c>
    1c60: e6 1d        	inc	$1d                     ; 0x201d <_ZN12_GLOBAL__N_112print_stringEPKcP6Status+0x104>
    1c62: a9 32        	lda	#$32
    1c64: 18           	clc
    1c65: 65 1c        	adc	$1c                     ; 0x201c <_ZN12_GLOBAL__N_112print_stringEPKcP6Status+0x103>
    1c67: 85 22        	sta	$22                     ; 0x2022 <_ZN12_GLOBAL__N_112print_stringEPKcP6Status+0x109>
    1c69: a9 00        	lda	#$0
    1c6b: 65 1d        	adc	$1d                     ; 0x201d <_ZN12_GLOBAL__N_112print_stringEPKcP6Status+0x104>
    1c6d: 85 23        	sta	$23                     ; 0x2023 <_ZN12_GLOBAL__N_112print_stringEPKcP6Status+0x10a>
    1c6f: b2 22        	lda	($22)                   ; 0x2022 <_ZN12_GLOBAL__N_112print_stringEPKcP6Status+0x109>
    1c71: c9 0a        	cmp	#$a
    1c73: f0 27        	beq	$1c9c <fileWrite+0x3c6>
    1c75: c9 0d        	cmp	#$d
    1c77: f0 23        	beq	$1c9c <fileWrite+0x3c6>
    1c79: a8           	tay
    1c7a: d0 03        	bne	$1c7f <fileWrite+0x3a9>
    1c7c: 4c 42 19     	jmp	$1942 <fileWrite+0x6c>
    1c7f: a0 03        	ldy	#$3
    1c81: 84 01        	sty	$1                      ; 0x2001 <_ZN12_GLOBAL__N_112print_stringEPKcP6Status+0xe8>
    1c83: a4 30        	ldy	$30                     ; 0x2030 <printf+0xb>
    1c85: a9 f0        	lda	#$f0
    1c87: 91 1e        	sta	($1e),y                 ; 0x201e <_ZN12_GLOBAL__N_112print_stringEPKcP6Status+0x105>
    1c89: a0 02        	ldy	#$2
    1c8b: 84 01        	sty	$1                      ; 0x2001 <_ZN12_GLOBAL__N_112print_stringEPKcP6Status+0xe8>
    1c8d: b2 22        	lda	($22)                   ; 0x2022 <_ZN12_GLOBAL__N_112print_stringEPKcP6Status+0x109>
    1c8f: a4 30        	ldy	$30                     ; 0x2030 <printf+0xb>
    1c91: 91 1e        	sta	($1e),y                 ; 0x201e <_ZN12_GLOBAL__N_112print_stringEPKcP6Status+0x105>
    1c93: a4 30        	ldy	$30                     ; 0x2030 <printf+0xb>
    1c95: c8           	iny
    1c96: e6 30        	inc	$30                     ; 0x2030 <printf+0xb>
    1c98: c0 50        	cpy	#$50
    1c9a: d0 c0        	bne	$1c5c <fileWrite+0x386>
    1c9c: 64 30        	stz	$30                     ; 0x2030 <printf+0xb>
    1c9e: a4 31        	ldy	$31                     ; 0x2031 <printf+0xc>
    1ca0: c8           	iny
    1ca1: e6 31        	inc	$31                     ; 0x2031 <printf+0xc>
    1ca3: c0 1e        	cpy	#$1e
    1ca5: f0 03        	beq	$1caa <fileWrite+0x3d4>
    1ca7: 4c 4f 1c     	jmp	$1c4f <fileWrite+0x379>
    1caa: a0 03        	ldy	#$3
    1cac: 84 01        	sty	$1                      ; 0x2001 <_ZN12_GLOBAL__N_112print_stringEPKcP6Status+0xe8>
    1cae: a0 09        	ldy	#$9
    1cb0: a9 10        	lda	#$10
    1cb2: 5a           	phy
    1cb3: a0 00        	ldy	#$0
    1cb5: 84 1e        	sty	$1e                     ; 0x201e <_ZN12_GLOBAL__N_112print_stringEPKcP6Status+0x105>
    1cb7: a0 c0        	ldy	#$c0
    1cb9: 84 1f        	sty	$1f                     ; 0x201f <_ZN12_GLOBAL__N_112print_stringEPKcP6Status+0x106>
    1cbb: 7a           	ply
    1cbc: 85 22        	sta	$22                     ; 0x2022 <_ZN12_GLOBAL__N_112print_stringEPKcP6Status+0x109>
    1cbe: 84 23        	sty	$23                     ; 0x2023 <_ZN12_GLOBAL__N_112print_stringEPKcP6Status+0x10a>
    1cc0: a0 50        	ldy	#$50
    1cc2: 4c d1 19     	jmp	$19d1 <fileWrite+0xfb>
    1cc5: 84 1b        	sty	$1b                     ; 0x201b <_ZN12_GLOBAL__N_112print_stringEPKcP6Status+0x102>
    1cc7: a5 47        	lda	$47                     ; 0x2047 <printf+0x22>
    1cc9: 18           	clc
    1cca: 65 12        	adc	$12                     ; 0x2012 <_ZN12_GLOBAL__N_112print_stringEPKcP6Status+0xf9>
    1ccc: 85 1a        	sta	$1a                     ; 0x201a <_ZN12_GLOBAL__N_112print_stringEPKcP6Status+0x101>
    1cce: a4 1c        	ldy	$1c                     ; 0x201c <_ZN12_GLOBAL__N_112print_stringEPKcP6Status+0x103>
    1cd0: a5 48        	lda	$48                     ; 0x2048 <printf+0x23>
    1cd2: 65 13        	adc	$13                     ; 0x2013 <_ZN12_GLOBAL__N_112print_stringEPKcP6Status+0xfa>
    1cd4: 84 f3        	sty	$f3                     ; 0x20f3 <printf+0xce>
    1cd6: a4 1a        	ldy	$1a                     ; 0x201a <_ZN12_GLOBAL__N_112print_stringEPKcP6Status+0x101>
    1cd8: 84 fb        	sty	$fb                     ; 0x20fb <printf+0xd6>
    1cda: 85 fc        	sta	$fc                     ; 0x20fc <printf+0xd7>
    1cdc: a4 1b        	ldy	$1b                     ; 0x201b <_ZN12_GLOBAL__N_112print_stringEPKcP6Status+0x102>
    1cde: 84 fd        	sty	$fd                     ; 0x20fd <printf+0xd8>
    1ce0: a0 45        	ldy	#$45
    1ce2: 84 1a        	sty	$1a                     ; 0x201a <_ZN12_GLOBAL__N_112print_stringEPKcP6Status+0x101>
    1ce4: a0 00        	ldy	#$0
    1ce6: 84 1b        	sty	$1b                     ; 0x201b <_ZN12_GLOBAL__N_112print_stringEPKcP6Status+0x102>
    1ce8: 20 64 ff     	jsr	$ff64 <__heap_start+0xce48>
    1ceb: 92 1a        	sta	($1a)                   ; 0x201a <_ZN12_GLOBAL__N_112print_stringEPKcP6Status+0x101>
    1ced: a9 00        	lda	#$0
    1cef: 6a           	ror
    1cf0: 85 18        	sta	$18                     ; 0x2018 <_ZN12_GLOBAL__N_112print_stringEPKcP6Status+0xff>
    1cf2: a4 34        	ldy	$34                     ; 0x2034 <printf+0xf>
    1cf4: d0 54        	bne	$1d4a <fileWrite+0x474>
    1cf6: a0 46        	ldy	#$46
    1cf8: 64 35        	stz	$35                     ; 0x2035 <printf+0x10>
    1cfa: 84 1a        	sty	$1a                     ; 0x201a <_ZN12_GLOBAL__N_112print_stringEPKcP6Status+0x101>
    1cfc: a9 00        	lda	#$0
    1cfe: 85 1b        	sta	$1b                     ; 0x201b <_ZN12_GLOBAL__N_112print_stringEPKcP6Status+0x102>
    1d00: 20 00 ff     	jsr	$ff00 <__heap_start+0xcde4>
    1d03: 92 1a        	sta	($1a)                   ; 0x201a <_ZN12_GLOBAL__N_112print_stringEPKcP6Status+0x101>
    1d05: a9 00        	lda	#$0
    1d07: 6a           	ror
    1d08: 85 18        	sta	$18                     ; 0x2018 <_ZN12_GLOBAL__N_112print_stringEPKcP6Status+0xff>
    1d0a: a5 35        	lda	$35                     ; 0x2035 <printf+0x10>
    1d0c: c9 38        	cmp	#$38
    1d0e: f0 3a        	beq	$1d4a <fileWrite+0x474>
    1d10: c9 2e        	cmp	#$2e
    1d12: d0 e4        	bne	$1cf8 <fileWrite+0x422>
    1d14: a4 3b        	ldy	$3b                     ; 0x203b <printf+0x16>
    1d16: 84 1a        	sty	$1a                     ; 0x201a <_ZN12_GLOBAL__N_112print_stringEPKcP6Status+0x101>
    1d18: d0 06        	bne	$1d20 <fileWrite+0x44a>
    1d1a: 80 2e        	bra	$1d4a <fileWrite+0x474>
    1d1c: a4 42        	ldy	$42                     ; 0x2042 <printf+0x1d>
    1d1e: 84 1a        	sty	$1a                     ; 0x201a <_ZN12_GLOBAL__N_112print_stringEPKcP6Status+0x101>
    1d20: a5 47        	lda	$47                     ; 0x2047 <printf+0x22>
    1d22: 18           	clc
    1d23: 65 1a        	adc	$1a                     ; 0x201a <_ZN12_GLOBAL__N_112print_stringEPKcP6Status+0x101>
    1d25: 85 47        	sta	$47                     ; 0x2047 <printf+0x22>
    1d27: a5 48        	lda	$48                     ; 0x2048 <printf+0x23>
    1d29: 69 00        	adc	#$0
    1d2b: 85 48        	sta	$48                     ; 0x2048 <printf+0x23>
    1d2d: 38           	sec
    1d2e: a5 40        	lda	$40                     ; 0x2040 <printf+0x1b>
    1d30: e5 1a        	sbc	$1a                     ; 0x201a <_ZN12_GLOBAL__N_112print_stringEPKcP6Status+0x101>
    1d32: 85 1a        	sta	$1a                     ; 0x201a <_ZN12_GLOBAL__N_112print_stringEPKcP6Status+0x101>
    1d34: a5 41        	lda	$41                     ; 0x2041 <printf+0x1c>
    1d36: e9 00        	sbc	#$0
    1d38: a4 1a        	ldy	$1a                     ; 0x201a <_ZN12_GLOBAL__N_112print_stringEPKcP6Status+0x101>
    1d3a: c9 00        	cmp	#$0
    1d3c: f0 03        	beq	$1d41 <fileWrite+0x46b>
    1d3e: 4c ff 18     	jmp	$18ff <fileWrite+0x29>
    1d41: e6 1a        	inc	$1a                     ; 0x201a <_ZN12_GLOBAL__N_112print_stringEPKcP6Status+0x101>
    1d43: c6 1a        	dec	$1a                     ; 0x201a <_ZN12_GLOBAL__N_112print_stringEPKcP6Status+0x101>
    1d45: f0 09        	beq	$1d50 <fileWrite+0x47a>
    1d47: 4c ff 18     	jmp	$18ff <fileWrite+0x29>
    1d4a: a2 ff        	ldx	#$ff
    1d4c: 86 47        	stx	$47                     ; 0x2047 <printf+0x22>
    1d4e: 86 48        	stx	$48                     ; 0x2048 <printf+0x23>
    1d50: a6 48        	ldx	$48                     ; 0x2048 <printf+0x23>
    1d52: a5 47        	lda	$47                     ; 0x2047 <printf+0x22>
    1d54: 60           	rts
    1d55: a2 00        	ldx	#$0
    1d57: 80 f3        	bra	$1d4c <fileWrite+0x476>

00001d59 <fileReadDir>:
    1d59: a6 12        	ldx	$12                     ; 0x2012 <_ZN12_GLOBAL__N_112print_stringEPKcP6Status+0xf9>
    1d5b: 86 14        	stx	$14                     ; 0x2014 <_ZN12_GLOBAL__N_112print_stringEPKcP6Status+0xfb>
    1d5d: a6 13        	ldx	$13                     ; 0x2013 <_ZN12_GLOBAL__N_112print_stringEPKcP6Status+0xfa>
    1d5f: 86 15        	stx	$15                     ; 0x2015 <_ZN12_GLOBAL__N_112print_stringEPKcP6Status+0xfc>
    1d61: a2 00        	ldx	#$0
    1d63: 86 12        	stx	$12                     ; 0x2012 <_ZN12_GLOBAL__N_112print_stringEPKcP6Status+0xf9>
    1d65: a2 00        	ldx	#$0
    1d67: 86 13        	stx	$13                     ; 0x2013 <_ZN12_GLOBAL__N_112print_stringEPKcP6Status+0xfa>
    1d69: a6 15        	ldx	$15                     ; 0x2015 <_ZN12_GLOBAL__N_112print_stringEPKcP6Status+0xfc>
    1d6b: e4 13        	cpx	$13                     ; 0x2013 <_ZN12_GLOBAL__N_112print_stringEPKcP6Status+0xfa>
    1d6d: d0 06        	bne	$1d75 <fileReadDir+0x1c>
    1d6f: a6 14        	ldx	$14                     ; 0x2014 <_ZN12_GLOBAL__N_112print_stringEPKcP6Status+0xfb>
    1d71: e4 12        	cpx	$12                     ; 0x2012 <_ZN12_GLOBAL__N_112print_stringEPKcP6Status+0xf9>
    1d73: f0 22        	beq	$1d97 <fileReadDir+0x3e>
    1d75: b2 14        	lda	($14)                   ; 0x2014 <_ZN12_GLOBAL__N_112print_stringEPKcP6Status+0xfb>
    1d77: 85 f3        	sta	$f3                     ; 0x20f3 <printf+0xce>
    1d79: a2 40        	ldx	#$40
    1d7b: a0 00        	ldy	#$0
    1d7d: 86 18        	stx	$18                     ; 0x2018 <_ZN12_GLOBAL__N_112print_stringEPKcP6Status+0xff>
    1d7f: 84 19        	sty	$19                     ; 0x2019 <_ZN12_GLOBAL__N_112print_stringEPKcP6Status+0x100>
    1d81: a2 34        	ldx	#$34
    1d83: 86 16        	stx	$16                     ; 0x2016 <_ZN12_GLOBAL__N_112print_stringEPKcP6Status+0xfd>
    1d85: a2 00        	ldx	#$0
    1d87: 86 17        	stx	$17                     ; 0x2017 <_ZN12_GLOBAL__N_112print_stringEPKcP6Status+0xfe>
    1d89: 20 7c ff     	jsr	$ff7c <__heap_start+0xce60>
    1d8c: 92 18        	sta	($18)                   ; 0x2018 <_ZN12_GLOBAL__N_112print_stringEPKcP6Status+0xff>
    1d8e: a9 00        	lda	#$0
    1d90: 6a           	ror
    1d91: 85 16        	sta	$16                     ; 0x2016 <_ZN12_GLOBAL__N_112print_stringEPKcP6Status+0xfd>
    1d93: a6 34        	ldx	$34                     ; 0x2034 <printf+0xf>
    1d95: f0 01        	beq	$1d98 <fileReadDir+0x3f>
    1d97: 60           	rts
    1d98: a2 41        	ldx	#$41
    1d9a: a0 00        	ldy	#$0
    1d9c: 86 18        	stx	$18                     ; 0x2018 <_ZN12_GLOBAL__N_112print_stringEPKcP6Status+0xff>
    1d9e: 84 19        	sty	$19                     ; 0x2019 <_ZN12_GLOBAL__N_112print_stringEPKcP6Status+0x100>
    1da0: a0 00        	ldy	#$0
    1da2: 80 18        	bra	$1dbc <fileReadDir+0x63>
    1da4: b2 14        	lda	($14)                   ; 0x2014 <_ZN12_GLOBAL__N_112print_stringEPKcP6Status+0xfb>
    1da6: 85 f3        	sta	$f3                     ; 0x20f3 <printf+0xce>
    1da8: a2 43        	ldx	#$43
    1daa: 86 1a        	stx	$1a                     ; 0x201a <_ZN12_GLOBAL__N_112print_stringEPKcP6Status+0x101>
    1dac: 84 1b        	sty	$1b                     ; 0x201b <_ZN12_GLOBAL__N_112print_stringEPKcP6Status+0x102>
    1dae: 20 7c ff     	jsr	$ff7c <__heap_start+0xce60>
    1db1: 92 1a        	sta	($1a)                   ; 0x201a <_ZN12_GLOBAL__N_112print_stringEPKcP6Status+0x101>
    1db3: a9 00        	lda	#$0
    1db5: 6a           	ror
    1db6: 85 16        	sta	$16                     ; 0x2016 <_ZN12_GLOBAL__N_112print_stringEPKcP6Status+0xfd>
    1db8: a6 34        	ldx	$34                     ; 0x2034 <printf+0xf>
    1dba: d0 db        	bne	$1d97 <fileReadDir+0x3e>
    1dbc: 64 35        	stz	$35                     ; 0x2035 <printf+0x10>
    1dbe: 20 00 ff     	jsr	$ff00 <__heap_start+0xcde4>
    1dc1: 92 18        	sta	($18)                   ; 0x2018 <_ZN12_GLOBAL__N_112print_stringEPKcP6Status+0xff>
    1dc3: a9 00        	lda	#$0
    1dc5: 6a           	ror
    1dc6: 85 16        	sta	$16                     ; 0x2016 <_ZN12_GLOBAL__N_112print_stringEPKcP6Status+0xfd>
    1dc8: a9 c2        	lda	#$c2
    1dca: 18           	clc
    1dcb: 65 35        	adc	$35                     ; 0x2035 <printf+0x10>
    1dcd: c9 0b        	cmp	#$b
    1dcf: b0 eb        	bcs	$1dbc <fileReadDir+0x63>
    1dd1: 0a           	asl
    1dd2: aa           	tax
    1dd3: 7c 32 2e     	jmp	($2e32,x)               ; 0x2e32 <__set_v+0x1>
    1dd6: 9c 17 30     	stz	$3017                   ; 0x3017 <fileReadDir.fileDirEntS>
    1dd9: a2 02        	ldx	#$2
    1ddb: 80 2d        	bra	$1e0a <fileReadDir+0xb1>
    1ddd: a2 17        	ldx	#$17
    1ddf: a0 30        	ldy	#$30
    1de1: 86 fb        	stx	$fb                     ; 0x20fb <printf+0xd6>
    1de3: 84 fc        	sty	$fc                     ; 0x20fc <printf+0xd7>
    1de5: a2 01        	ldx	#$1
    1de7: 86 fd        	stx	$fd                     ; 0x20fd <printf+0xd8>
    1de9: a0 42        	ldy	#$42
    1deb: a9 00        	lda	#$0
    1ded: 84 12        	sty	$12                     ; 0x2012 <_ZN12_GLOBAL__N_112print_stringEPKcP6Status+0xf9>
    1def: 85 13        	sta	$13                     ; 0x2013 <_ZN12_GLOBAL__N_112print_stringEPKcP6Status+0xfa>
    1df1: a0 34        	ldy	#$34
    1df3: 84 14        	sty	$14                     ; 0x2014 <_ZN12_GLOBAL__N_112print_stringEPKcP6Status+0xfb>
    1df5: a0 00        	ldy	#$0
    1df7: 84 15        	sty	$15                     ; 0x2015 <_ZN12_GLOBAL__N_112print_stringEPKcP6Status+0xfc>
    1df9: 20 08 ff     	jsr	$ff08 <__heap_start+0xcdec>
    1dfc: 92 12        	sta	($12)                   ; 0x2012 <_ZN12_GLOBAL__N_112print_stringEPKcP6Status+0xf9>
    1dfe: a9 00        	lda	#$0
    1e00: 6a           	ror
    1e01: 85 14        	sta	$14                     ; 0x2014 <_ZN12_GLOBAL__N_112print_stringEPKcP6Status+0xfb>
    1e03: ac 17 30     	ldy	$3017                   ; 0x3017 <fileReadDir.fileDirEntS>
    1e06: f0 02        	beq	$1e0a <fileReadDir+0xb1>
    1e08: a2 00        	ldx	#$0
    1e0a: 8e 18 30     	stx	$3018                   ; 0x3018 <fileReadDir.fileDirEntS+0x1>
    1e0d: a6 3a        	ldx	$3a                     ; 0x203a <printf+0x15>
    1e0f: f0 24        	beq	$1e35 <fileReadDir+0xdc>
    1e11: a0 19        	ldy	#$19
    1e13: a9 30        	lda	#$30
    1e15: 84 fb        	sty	$fb                     ; 0x20fb <printf+0xd6>
    1e17: 85 fc        	sta	$fc                     ; 0x20fc <printf+0xd7>
    1e19: 86 fd        	stx	$fd                     ; 0x20fd <printf+0xd8>
    1e1b: a0 44        	ldy	#$44
    1e1d: a9 00        	lda	#$0
    1e1f: 84 12        	sty	$12                     ; 0x2012 <_ZN12_GLOBAL__N_112print_stringEPKcP6Status+0xf9>
    1e21: 85 13        	sta	$13                     ; 0x2013 <_ZN12_GLOBAL__N_112print_stringEPKcP6Status+0xfa>
    1e23: a0 34        	ldy	#$34
    1e25: 84 14        	sty	$14                     ; 0x2014 <_ZN12_GLOBAL__N_112print_stringEPKcP6Status+0xfb>
    1e27: a0 00        	ldy	#$0
    1e29: 84 15        	sty	$15                     ; 0x2015 <_ZN12_GLOBAL__N_112print_stringEPKcP6Status+0xfc>
    1e2b: 20 04 ff     	jsr	$ff04 <__heap_start+0xcde8>
    1e2e: 92 12        	sta	($12)                   ; 0x2012 <_ZN12_GLOBAL__N_112print_stringEPKcP6Status+0xf9>
    1e30: a9 00        	lda	#$0
    1e32: 6a           	ror
    1e33: 85 14        	sta	$14                     ; 0x2014 <_ZN12_GLOBAL__N_112print_stringEPKcP6Status+0xfb>
    1e35: 9e 19 30     	stz	$3019,x                 ; 0x3019 <fileReadDir.fileDirEntS+0x2>
    1e38: a2 17        	ldx	#$17
    1e3a: 86 12        	stx	$12                     ; 0x2012 <_ZN12_GLOBAL__N_112print_stringEPKcP6Status+0xf9>
    1e3c: a2 30        	ldx	#$30
    1e3e: 86 13        	stx	$13                     ; 0x2013 <_ZN12_GLOBAL__N_112print_stringEPKcP6Status+0xfa>
    1e40: 60           	rts

00001e41 <exit>:
    1e41: 20 14 03     	jsr	$314 <_fini>
    1e44: 80 fe        	bra	$1e44 <exit+0x3>

00001e46 <_ZN12_GLOBAL__N_13putEcP6Status>:
    1e46: 85 18        	sta	$18                     ; 0x2018 <_ZN12_GLOBAL__N_112print_stringEPKcP6Status+0xff>
    1e48: a6 13        	ldx	$13                     ; 0x2013 <_ZN12_GLOBAL__N_112print_stringEPKcP6Status+0xfa>
    1e4a: 18           	clc
    1e4b: a5 12        	lda	$12                     ; 0x2012 <_ZN12_GLOBAL__N_112print_stringEPKcP6Status+0xf9>
    1e4d: 69 05        	adc	#$5
    1e4f: a8           	tay
    1e50: a5 13        	lda	$13                     ; 0x2013 <_ZN12_GLOBAL__N_112print_stringEPKcP6Status+0xfa>
    1e52: 86 15        	stx	$15                     ; 0x2015 <_ZN12_GLOBAL__N_112print_stringEPKcP6Status+0xfc>
    1e54: 69 00        	adc	#$0
    1e56: 18           	clc
    1e57: 84 16        	sty	$16                     ; 0x2016 <_ZN12_GLOBAL__N_112print_stringEPKcP6Status+0xfd>
    1e59: a0 05        	ldy	#$5
    1e5b: 85 17        	sta	$17                     ; 0x2017 <_ZN12_GLOBAL__N_112print_stringEPKcP6Status+0xfe>
    1e5d: b1 12        	lda	($12),y                 ; 0x2012 <_ZN12_GLOBAL__N_112print_stringEPKcP6Status+0xf9>
    1e5f: aa           	tax
    1e60: a5 12        	lda	$12                     ; 0x2012 <_ZN12_GLOBAL__N_112print_stringEPKcP6Status+0xf9>
    1e62: 69 03        	adc	#$3
    1e64: 85 14        	sta	$14                     ; 0x2014 <_ZN12_GLOBAL__N_112print_stringEPKcP6Status+0xfb>
    1e66: a5 15        	lda	$15                     ; 0x2015 <_ZN12_GLOBAL__N_112print_stringEPKcP6Status+0xfc>
    1e68: 69 00        	adc	#$0
    1e6a: 85 15        	sta	$15                     ; 0x2015 <_ZN12_GLOBAL__N_112print_stringEPKcP6Status+0xfc>
    1e6c: a0 01        	ldy	#$1
    1e6e: b1 16        	lda	($16),y                 ; 0x2016 <_ZN12_GLOBAL__N_112print_stringEPKcP6Status+0xfd>
    1e70: d1 14        	cmp	($14),y                 ; 0x2014 <_ZN12_GLOBAL__N_112print_stringEPKcP6Status+0xfb>
    1e72: d0 11        	bne	$1e85 <_ZN12_GLOBAL__N_13putEcP6Status+0x3f>
    1e74: a0 03        	ldy	#$3
    1e76: 85 17        	sta	$17                     ; 0x2017 <_ZN12_GLOBAL__N_112print_stringEPKcP6Status+0xfe>
    1e78: b1 12        	lda	($12),y                 ; 0x2012 <_ZN12_GLOBAL__N_112print_stringEPKcP6Status+0xf9>
    1e7a: 85 14        	sta	$14                     ; 0x2014 <_ZN12_GLOBAL__N_112print_stringEPKcP6Status+0xfb>
    1e7c: 86 16        	stx	$16                     ; 0x2016 <_ZN12_GLOBAL__N_112print_stringEPKcP6Status+0xfd>
    1e7e: e4 14        	cpx	$14                     ; 0x2014 <_ZN12_GLOBAL__N_112print_stringEPKcP6Status+0xfb>
    1e80: 90 0e        	bcc	$1e90 <_ZN12_GLOBAL__N_13putEcP6Status+0x4a>
    1e82: 4c f1 1e     	jmp	$1ef1 <_ZN12_GLOBAL__N_13putEcP6Status+0xab>
    1e85: 86 16        	stx	$16                     ; 0x2016 <_ZN12_GLOBAL__N_112print_stringEPKcP6Status+0xfd>
    1e87: d1 14        	cmp	($14),y                 ; 0x2014 <_ZN12_GLOBAL__N_112print_stringEPKcP6Status+0xfb>
    1e89: 85 17        	sta	$17                     ; 0x2017 <_ZN12_GLOBAL__N_112print_stringEPKcP6Status+0xfe>
    1e8b: 90 03        	bcc	$1e90 <_ZN12_GLOBAL__N_13putEcP6Status+0x4a>
    1e8d: 4c f1 1e     	jmp	$1ef1 <_ZN12_GLOBAL__N_13putEcP6Status+0xab>
    1e90: a5 12        	lda	$12                     ; 0x2012 <_ZN12_GLOBAL__N_112print_stringEPKcP6Status+0xf9>
    1e92: 18           	clc
    1e93: 69 0f        	adc	#$f
    1e95: 85 14        	sta	$14                     ; 0x2014 <_ZN12_GLOBAL__N_112print_stringEPKcP6Status+0xfb>
    1e97: a5 13        	lda	$13                     ; 0x2013 <_ZN12_GLOBAL__N_112print_stringEPKcP6Status+0xfa>
    1e99: 69 00        	adc	#$0
    1e9b: 85 15        	sta	$15                     ; 0x2015 <_ZN12_GLOBAL__N_112print_stringEPKcP6Status+0xfc>
    1e9d: a0 01        	ldy	#$1
    1e9f: b1 14        	lda	($14),y                 ; 0x2014 <_ZN12_GLOBAL__N_112print_stringEPKcP6Status+0xfb>
    1ea1: a2 00        	ldx	#$0
    1ea3: 86 14        	stx	$14                     ; 0x2014 <_ZN12_GLOBAL__N_112print_stringEPKcP6Status+0xfb>
    1ea5: a2 00        	ldx	#$0
    1ea7: 86 15        	stx	$15                     ; 0x2015 <_ZN12_GLOBAL__N_112print_stringEPKcP6Status+0xfc>
    1ea9: c5 15        	cmp	$15                     ; 0x2015 <_ZN12_GLOBAL__N_112print_stringEPKcP6Status+0xfc>
    1eab: d0 2d        	bne	$1eda <_ZN12_GLOBAL__N_13putEcP6Status+0x94>
    1ead: a0 0f        	ldy	#$f
    1eaf: b1 12        	lda	($12),y                 ; 0x2012 <_ZN12_GLOBAL__N_112print_stringEPKcP6Status+0xf9>
    1eb1: c5 14        	cmp	$14                     ; 0x2014 <_ZN12_GLOBAL__N_112print_stringEPKcP6Status+0xfb>
    1eb3: d0 25        	bne	$1eda <_ZN12_GLOBAL__N_13putEcP6Status+0x94>
    1eb5: a5 12        	lda	$12                     ; 0x2012 <_ZN12_GLOBAL__N_112print_stringEPKcP6Status+0xf9>
    1eb7: 18           	clc
    1eb8: 69 09        	adc	#$9
    1eba: 85 14        	sta	$14                     ; 0x2014 <_ZN12_GLOBAL__N_112print_stringEPKcP6Status+0xfb>
    1ebc: a5 13        	lda	$13                     ; 0x2013 <_ZN12_GLOBAL__N_112print_stringEPKcP6Status+0xfa>
    1ebe: 69 00        	adc	#$0
    1ec0: a0 09        	ldy	#$9
    1ec2: 85 15        	sta	$15                     ; 0x2015 <_ZN12_GLOBAL__N_112print_stringEPKcP6Status+0xfc>
    1ec4: 18           	clc
    1ec5: a5 16        	lda	$16                     ; 0x2016 <_ZN12_GLOBAL__N_112print_stringEPKcP6Status+0xfd>
    1ec7: 71 12        	adc	($12),y                 ; 0x2012 <_ZN12_GLOBAL__N_112print_stringEPKcP6Status+0xf9>
    1ec9: aa           	tax
    1eca: a0 01        	ldy	#$1
    1ecc: a5 17        	lda	$17                     ; 0x2017 <_ZN12_GLOBAL__N_112print_stringEPKcP6Status+0xfe>
    1ece: 71 14        	adc	($14),y                 ; 0x2014 <_ZN12_GLOBAL__N_112print_stringEPKcP6Status+0xfb>
    1ed0: 86 14        	stx	$14                     ; 0x2014 <_ZN12_GLOBAL__N_112print_stringEPKcP6Status+0xfb>
    1ed2: 85 15        	sta	$15                     ; 0x2015 <_ZN12_GLOBAL__N_112print_stringEPKcP6Status+0xfc>
    1ed4: a5 18        	lda	$18                     ; 0x2018 <_ZN12_GLOBAL__N_112print_stringEPKcP6Status+0xff>
    1ed6: 92 14        	sta	($14)                   ; 0x2014 <_ZN12_GLOBAL__N_112print_stringEPKcP6Status+0xfb>
    1ed8: 80 17        	bra	$1ef1 <_ZN12_GLOBAL__N_13putEcP6Status+0xab>
    1eda: a6 12        	ldx	$12                     ; 0x2012 <_ZN12_GLOBAL__N_112print_stringEPKcP6Status+0xf9>
    1edc: 86 95        	stx	$95                     ; 0x2095 <printf+0x70>
    1ede: a6 13        	ldx	$13                     ; 0x2013 <_ZN12_GLOBAL__N_112print_stringEPKcP6Status+0xfa>
    1ee0: 86 96        	stx	$96                     ; 0x2096 <printf+0x71>
    1ee2: a2 00        	ldx	#$0
    1ee4: a5 18        	lda	$18                     ; 0x2018 <_ZN12_GLOBAL__N_112print_stringEPKcP6Status+0xff>
    1ee6: 20 fe 2b     	jsr	$2bfe <putchar>
    1ee9: a6 95        	ldx	$95                     ; 0x2095 <printf+0x70>
    1eeb: 86 12        	stx	$12                     ; 0x2012 <_ZN12_GLOBAL__N_112print_stringEPKcP6Status+0xf9>
    1eed: a6 96        	ldx	$96                     ; 0x2096 <printf+0x71>
    1eef: 86 13        	stx	$13                     ; 0x2013 <_ZN12_GLOBAL__N_112print_stringEPKcP6Status+0xfa>
    1ef1: a0 05        	ldy	#$5
    1ef3: a5 12        	lda	$12                     ; 0x2012 <_ZN12_GLOBAL__N_112print_stringEPKcP6Status+0xf9>
    1ef5: 18           	clc
    1ef6: 69 05        	adc	#$5
    1ef8: 85 14        	sta	$14                     ; 0x2014 <_ZN12_GLOBAL__N_112print_stringEPKcP6Status+0xfb>
    1efa: a5 13        	lda	$13                     ; 0x2013 <_ZN12_GLOBAL__N_112print_stringEPKcP6Status+0xfa>
    1efc: 69 00        	adc	#$0
    1efe: 85 15        	sta	$15                     ; 0x2015 <_ZN12_GLOBAL__N_112print_stringEPKcP6Status+0xfc>
    1f00: b1 12        	lda	($12),y                 ; 0x2012 <_ZN12_GLOBAL__N_112print_stringEPKcP6Status+0xf9>
    1f02: aa           	tax
    1f03: a0 01        	ldy	#$1
    1f05: b1 14        	lda	($14),y                 ; 0x2014 <_ZN12_GLOBAL__N_112print_stringEPKcP6Status+0xfb>
    1f07: e8           	inx
    1f08: d0 01        	bne	$1f0b <_ZN12_GLOBAL__N_13putEcP6Status+0xc5>
    1f0a: 1a           	inc
    1f0b: 85 16        	sta	$16                     ; 0x2016 <_ZN12_GLOBAL__N_112print_stringEPKcP6Status+0xfd>
    1f0d: 8a           	txa
    1f0e: a0 05        	ldy	#$5
    1f10: 91 12        	sta	($12),y                 ; 0x2012 <_ZN12_GLOBAL__N_112print_stringEPKcP6Status+0xf9>
    1f12: a0 01        	ldy	#$1
    1f14: a5 16        	lda	$16                     ; 0x2016 <_ZN12_GLOBAL__N_112print_stringEPKcP6Status+0xfd>
    1f16: 91 14        	sta	($14),y                 ; 0x2014 <_ZN12_GLOBAL__N_112print_stringEPKcP6Status+0xfb>
    1f18: 60           	rts

00001f19 <_ZN12_GLOBAL__N_112print_stringEPKcP6Status>:
    1f19: a6 12        	ldx	$12                     ; 0x2012 <_ZN12_GLOBAL__N_112print_stringEPKcP6Status+0xf9>
    1f1b: 86 8d        	stx	$8d                     ; 0x208d <printf+0x68>
    1f1d: a6 13        	ldx	$13                     ; 0x2013 <_ZN12_GLOBAL__N_112print_stringEPKcP6Status+0xfa>
    1f1f: 86 8e        	stx	$8e                     ; 0x208e <printf+0x69>
    1f21: a6 14        	ldx	$14                     ; 0x2014 <_ZN12_GLOBAL__N_112print_stringEPKcP6Status+0xfb>
    1f23: 86 8f        	stx	$8f                     ; 0x208f <printf+0x6a>
    1f25: a6 15        	ldx	$15                     ; 0x2015 <_ZN12_GLOBAL__N_112print_stringEPKcP6Status+0xfc>
    1f27: 86 90        	stx	$90                     ; 0x2090 <printf+0x6b>
    1f29: a5 8f        	lda	$8f                     ; 0x208f <printf+0x6a>
    1f2b: 18           	clc
    1f2c: 69 0d        	adc	#$d
    1f2e: 85 12        	sta	$12                     ; 0x2012 <_ZN12_GLOBAL__N_112print_stringEPKcP6Status+0xf9>
    1f30: a5 90        	lda	$90                     ; 0x2090 <printf+0x6b>
    1f32: 69 00        	adc	#$0
    1f34: 85 13        	sta	$13                     ; 0x2013 <_ZN12_GLOBAL__N_112print_stringEPKcP6Status+0xfa>
    1f36: a0 01        	ldy	#$1
    1f38: b1 12        	lda	($12),y                 ; 0x2012 <_ZN12_GLOBAL__N_112print_stringEPKcP6Status+0xf9>
    1f3a: 30 16        	bmi	$1f52 <_ZN12_GLOBAL__N_112print_stringEPKcP6Status+0x39>
    1f3c: a0 0d        	ldy	#$d
    1f3e: 85 12        	sta	$12                     ; 0x2012 <_ZN12_GLOBAL__N_112print_stringEPKcP6Status+0xf9>
    1f40: b1 8f        	lda	($8f),y                 ; 0x208f <printf+0x6a>
    1f42: a6 12        	ldx	$12                     ; 0x2012 <_ZN12_GLOBAL__N_112print_stringEPKcP6Status+0xf9>
    1f44: 86 94        	stx	$94                     ; 0x2094 <printf+0x6f>
    1f46: d0 0f        	bne	$1f57 <_ZN12_GLOBAL__N_112print_stringEPKcP6Status+0x3e>
    1f48: aa           	tax
    1f49: d0 0c        	bne	$1f57 <_ZN12_GLOBAL__N_112print_stringEPKcP6Status+0x3e>
    1f4b: 64 91        	stz	$91                     ; 0x2091 <printf+0x6c>
    1f4d: a2 00        	ldx	#$0
    1f4f: 4c 20 20     	jmp	$2020 <_ZN12_GLOBAL__N_112print_stringEPKcP6Status+0x107>
    1f52: a9 ff        	lda	#$ff
    1f54: aa           	tax
    1f55: 86 94        	stx	$94                     ; 0x2094 <printf+0x6f>
    1f57: 85 91        	sta	$91                     ; 0x2091 <printf+0x6c>
    1f59: 64 12        	stz	$12                     ; 0x2012 <_ZN12_GLOBAL__N_112print_stringEPKcP6Status+0xf9>
    1f5b: a4 8d        	ldy	$8d                     ; 0x208d <printf+0x68>
    1f5d: a6 8e        	ldx	$8e                     ; 0x208e <printf+0x69>
    1f5f: 86 16        	stx	$16                     ; 0x2016 <_ZN12_GLOBAL__N_112print_stringEPKcP6Status+0xfd>
    1f61: 64 13        	stz	$13                     ; 0x2013 <_ZN12_GLOBAL__N_112print_stringEPKcP6Status+0xfa>
    1f63: 98           	tya
    1f64: 18           	clc
    1f65: 65 12        	adc	$12                     ; 0x2012 <_ZN12_GLOBAL__N_112print_stringEPKcP6Status+0xf9>
    1f67: 85 14        	sta	$14                     ; 0x2014 <_ZN12_GLOBAL__N_112print_stringEPKcP6Status+0xfb>
    1f69: a5 8e        	lda	$8e                     ; 0x208e <printf+0x69>
    1f6b: 65 13        	adc	$13                     ; 0x2013 <_ZN12_GLOBAL__N_112print_stringEPKcP6Status+0xfa>
    1f6d: 85 15        	sta	$15                     ; 0x2015 <_ZN12_GLOBAL__N_112print_stringEPKcP6Status+0xfc>
    1f6f: b2 14        	lda	($14)                   ; 0x2014 <_ZN12_GLOBAL__N_112print_stringEPKcP6Status+0xfb>
    1f71: d0 03        	bne	$1f76 <_ZN12_GLOBAL__N_112print_stringEPKcP6Status+0x5d>
    1f73: 4c 1a 20     	jmp	$201a <_ZN12_GLOBAL__N_112print_stringEPKcP6Status+0x101>
    1f76: e6 12        	inc	$12                     ; 0x2012 <_ZN12_GLOBAL__N_112print_stringEPKcP6Status+0xf9>
    1f78: d0 02        	bne	$1f7c <_ZN12_GLOBAL__N_112print_stringEPKcP6Status+0x63>
    1f7a: e6 13        	inc	$13                     ; 0x2013 <_ZN12_GLOBAL__N_112print_stringEPKcP6Status+0xfa>
    1f7c: a6 94        	ldx	$94                     ; 0x2094 <printf+0x6f>
    1f7e: e4 13        	cpx	$13                     ; 0x2013 <_ZN12_GLOBAL__N_112print_stringEPKcP6Status+0xfa>
    1f80: d0 e1        	bne	$1f63 <_ZN12_GLOBAL__N_112print_stringEPKcP6Status+0x4a>
    1f82: a6 91        	ldx	$91                     ; 0x2091 <printf+0x6c>
    1f84: e4 12        	cpx	$12                     ; 0x2012 <_ZN12_GLOBAL__N_112print_stringEPKcP6Status+0xf9>
    1f86: d0 db        	bne	$1f63 <_ZN12_GLOBAL__N_112print_stringEPKcP6Status+0x4a>
    1f88: a0 01        	ldy	#$1
    1f8a: b1 8f        	lda	($8f),y                 ; 0x208f <printf+0x6a>
    1f8c: 29 01        	and	#$1
    1f8e: f0 03        	beq	$1f93 <_ZN12_GLOBAL__N_112print_stringEPKcP6Status+0x7a>
    1f90: 4c eb 1f     	jmp	$1feb <_ZN12_GLOBAL__N_112print_stringEPKcP6Status+0xd2>
    1f93: a5 8f        	lda	$8f                     ; 0x208f <printf+0x6a>
    1f95: 18           	clc
    1f96: 69 0b        	adc	#$b
    1f98: 85 14        	sta	$14                     ; 0x2014 <_ZN12_GLOBAL__N_112print_stringEPKcP6Status+0xfb>
    1f9a: a5 90        	lda	$90                     ; 0x2090 <printf+0x6b>
    1f9c: 69 00        	adc	#$0
    1f9e: 85 15        	sta	$15                     ; 0x2015 <_ZN12_GLOBAL__N_112print_stringEPKcP6Status+0xfc>
    1fa0: a0 0b        	ldy	#$b
    1fa2: b1 8f        	lda	($8f),y                 ; 0x208f <printf+0x6a>
    1fa4: 85 13        	sta	$13                     ; 0x2013 <_ZN12_GLOBAL__N_112print_stringEPKcP6Status+0xfa>
    1fa6: a0 01        	ldy	#$1
    1fa8: b1 14        	lda	($14),y                 ; 0x2014 <_ZN12_GLOBAL__N_112print_stringEPKcP6Status+0xfb>
    1faa: 85 12        	sta	$12                     ; 0x2012 <_ZN12_GLOBAL__N_112print_stringEPKcP6Status+0xf9>
    1fac: a6 94        	ldx	$94                     ; 0x2094 <printf+0x6f>
    1fae: e4 12        	cpx	$12                     ; 0x2012 <_ZN12_GLOBAL__N_112print_stringEPKcP6Status+0xf9>
    1fb0: d0 08        	bne	$1fba <_ZN12_GLOBAL__N_112print_stringEPKcP6Status+0xa1>
    1fb2: a6 91        	ldx	$91                     ; 0x2091 <printf+0x6c>
    1fb4: e4 13        	cpx	$13                     ; 0x2013 <_ZN12_GLOBAL__N_112print_stringEPKcP6Status+0xfa>
    1fb6: 90 06        	bcc	$1fbe <_ZN12_GLOBAL__N_112print_stringEPKcP6Status+0xa5>
    1fb8: 80 31        	bra	$1feb <_ZN12_GLOBAL__N_112print_stringEPKcP6Status+0xd2>
    1fba: e4 12        	cpx	$12                     ; 0x2012 <_ZN12_GLOBAL__N_112print_stringEPKcP6Status+0xf9>
    1fbc: b0 2d        	bcs	$1feb <_ZN12_GLOBAL__N_112print_stringEPKcP6Status+0xd2>
    1fbe: 38           	sec
    1fbf: a5 91        	lda	$91                     ; 0x2091 <printf+0x6c>
    1fc1: e5 13        	sbc	$13                     ; 0x2013 <_ZN12_GLOBAL__N_112print_stringEPKcP6Status+0xfa>
    1fc3: a8           	tay
    1fc4: a5 94        	lda	$94                     ; 0x2094 <printf+0x6f>
    1fc6: e5 12        	sbc	$12                     ; 0x2012 <_ZN12_GLOBAL__N_112print_stringEPKcP6Status+0xf9>
    1fc8: 85 93        	sta	$93                     ; 0x2093 <printf+0x6e>
    1fca: a6 8f        	ldx	$8f                     ; 0x208f <printf+0x6a>
    1fcc: 86 12        	stx	$12                     ; 0x2012 <_ZN12_GLOBAL__N_112print_stringEPKcP6Status+0xf9>
    1fce: a6 90        	ldx	$90                     ; 0x2090 <printf+0x6b>
    1fd0: 86 13        	stx	$13                     ; 0x2013 <_ZN12_GLOBAL__N_112print_stringEPKcP6Status+0xfa>
    1fd2: 84 92        	sty	$92                     ; 0x2092 <printf+0x6d>
    1fd4: a9 20        	lda	#$20
    1fd6: 20 46 1e     	jsr	$1e46 <_ZN12_GLOBAL__N_13putEcP6Status>
    1fd9: a6 93        	ldx	$93                     ; 0x2093 <printf+0x6e>
    1fdb: e6 92        	inc	$92                     ; 0x2092 <printf+0x6d>
    1fdd: d0 01        	bne	$1fe0 <_ZN12_GLOBAL__N_112print_stringEPKcP6Status+0xc7>
    1fdf: e8           	inx
    1fe0: 86 93        	stx	$93                     ; 0x2093 <printf+0x6e>
    1fe2: a4 92        	ldy	$92                     ; 0x2092 <printf+0x6d>
    1fe4: 8a           	txa
    1fe5: d0 e3        	bne	$1fca <_ZN12_GLOBAL__N_112print_stringEPKcP6Status+0xb1>
    1fe7: a5 92        	lda	$92                     ; 0x2092 <printf+0x6d>
    1fe9: d0 df        	bne	$1fca <_ZN12_GLOBAL__N_112print_stringEPKcP6Status+0xb1>
    1feb: a4 94        	ldy	$94                     ; 0x2094 <printf+0x6f>
    1fed: d0 04        	bne	$1ff3 <_ZN12_GLOBAL__N_112print_stringEPKcP6Status+0xda>
    1fef: a5 91        	lda	$91                     ; 0x2091 <printf+0x6c>
    1ff1: f0 26        	beq	$2019 <_ZN12_GLOBAL__N_112print_stringEPKcP6Status+0x100>
    1ff3: a2 ff        	ldx	#$ff
    1ff5: c6 91        	dec	$91                     ; 0x2091 <printf+0x6c>
    1ff7: e4 91        	cpx	$91                     ; 0x2091 <printf+0x6c>
    1ff9: d0 01        	bne	$1ffc <_ZN12_GLOBAL__N_112print_stringEPKcP6Status+0xe3>
    1ffb: 88           	dey
    1ffc: 84 92        	sty	$92                     ; 0x2092 <printf+0x6d>
    1ffe: b2 8d        	lda	($8d)                   ; 0x208d <printf+0x68>
    2000: e6 8d        	inc	$8d                     ; 0x208d <printf+0x68>
    2002: d0 02        	bne	$2006 <_ZN12_GLOBAL__N_112print_stringEPKcP6Status+0xed>
    2004: e6 8e        	inc	$8e                     ; 0x208e <printf+0x69>
    2006: a6 8f        	ldx	$8f                     ; 0x208f <printf+0x6a>
    2008: 86 12        	stx	$12                     ; 0x2012 <_ZN12_GLOBAL__N_112print_stringEPKcP6Status+0xf9>
    200a: a6 90        	ldx	$90                     ; 0x2090 <printf+0x6b>
    200c: 86 13        	stx	$13                     ; 0x2013 <_ZN12_GLOBAL__N_112print_stringEPKcP6Status+0xfa>
    200e: 20 46 1e     	jsr	$1e46 <_ZN12_GLOBAL__N_13putEcP6Status>
    2011: a4 92        	ldy	$92                     ; 0x2092 <printf+0x6d>
    2013: d0 de        	bne	$1ff3 <_ZN12_GLOBAL__N_112print_stringEPKcP6Status+0xda>
    2015: a5 91        	lda	$91                     ; 0x2091 <printf+0x6c>
    2017: d0 da        	bne	$1ff3 <_ZN12_GLOBAL__N_112print_stringEPKcP6Status+0xda>
    2019: 60           	rts
    201a: a6 12        	ldx	$12                     ; 0x2012 <_ZN12_GLOBAL__N_112print_stringEPKcP6Status+0xf9>
    201c: 86 91        	stx	$91                     ; 0x2091 <printf+0x6c>
    201e: a6 13        	ldx	$13                     ; 0x2013 <_ZN12_GLOBAL__N_112print_stringEPKcP6Status+0xfa>
    2020: 86 94        	stx	$94                     ; 0x2094 <printf+0x6f>
    2022: 4c 88 1f     	jmp	$1f88 <_ZN12_GLOBAL__N_112print_stringEPKcP6Status+0x6f>

00002025 <printf>:
    2025: a6 12        	ldx	$12                     ; 0x2012 <_ZN12_GLOBAL__N_112print_stringEPKcP6Status+0xf9>
    2027: 86 42        	stx	$42                     ; 0x2042 <printf+0x1d>
    2029: a6 13        	ldx	$13                     ; 0x2013 <_ZN12_GLOBAL__N_112print_stringEPKcP6Status+0xfa>
    202b: 86 43        	stx	$43                     ; 0x2043 <printf+0x1e>
    202d: 18           	clc
    202e: a6 10        	ldx	$10                     ; 0x2010 <_ZN12_GLOBAL__N_112print_stringEPKcP6Status+0xf7>
    2030: a4 11        	ldy	$11                     ; 0x2011 <_ZN12_GLOBAL__N_112print_stringEPKcP6Status+0xf8>
    2032: 86 83        	stx	$83                     ; 0x2083 <printf+0x5e>
    2034: 84 84        	sty	$84                     ; 0x2084 <printf+0x5f>
    2036: a6 83        	ldx	$83                     ; 0x2083 <printf+0x5e>
    2038: a4 84        	ldy	$84                     ; 0x2084 <printf+0x5f>
    203a: 86 6e        	stx	$6e                     ; 0x206e <printf+0x49>
    203c: 84 6f        	sty	$6f                     ; 0x206f <printf+0x4a>
    203e: a2 ff        	ldx	#$ff
    2040: 86 73        	stx	$73                     ; 0x2073 <printf+0x4e>
    2042: 86 74        	stx	$74                     ; 0x2074 <printf+0x4f>
    2044: 64 75        	stz	$75                     ; 0x2075 <printf+0x50>
    2046: 64 76        	stz	$76                     ; 0x2076 <printf+0x51>
    2048: e8           	inx
    2049: 86 44        	stx	$44                     ; 0x2044 <printf+0x1f>
    204b: a2 00        	ldx	#$0
    204d: 86 45        	stx	$45                     ; 0x2045 <printf+0x20>
    204f: a6 44        	ldx	$44                     ; 0x2044 <printf+0x1f>
    2051: a4 45        	ldy	$45                     ; 0x2045 <printf+0x20>
    2053: 86 79        	stx	$79                     ; 0x2079 <printf+0x54>
    2055: 84 7a        	sty	$7a                     ; 0x207a <printf+0x55>
    2057: a2 02        	ldx	#$2
    2059: 86 7f        	stx	$7f                     ; 0x207f <printf+0x5a>
    205b: 64 80        	stz	$80                     ; 0x2080 <printf+0x5b>
    205d: a6 6e        	ldx	$6e                     ; 0x206e <printf+0x49>
    205f: a4 6f        	ldy	$6f                     ; 0x206f <printf+0x4a>
    2061: 86 81        	stx	$81                     ; 0x2081 <printf+0x5c>
    2063: 84 82        	sty	$82                     ; 0x2082 <printf+0x5d>
    2065: a2 65        	ldx	#$65
    2067: a0 00        	ldy	#$0
    2069: 86 12        	stx	$12                     ; 0x2012 <_ZN12_GLOBAL__N_112print_stringEPKcP6Status+0xf9>
    206b: 84 13        	sty	$13                     ; 0x2013 <_ZN12_GLOBAL__N_112print_stringEPKcP6Status+0xfa>
    206d: a0 01        	ldy	#$1
    206f: a9 4c        	lda	#$4c
    2071: 18           	clc
    2072: 69 02        	adc	#$2
    2074: 85 8b        	sta	$8b                     ; 0x208b <printf+0x66>
    2076: a9 00        	lda	#$0
    2078: 69 00        	adc	#$0
    207a: 85 8c        	sta	$8c                     ; 0x208c <printf+0x67>
    207c: e6 12        	inc	$12                     ; 0x2012 <_ZN12_GLOBAL__N_112print_stringEPKcP6Status+0xf9>
    207e: d0 02        	bne	$2082 <printf+0x5d>
    2080: e6 13        	inc	$13                     ; 0x2013 <_ZN12_GLOBAL__N_112print_stringEPKcP6Status+0xfa>
    2082: a6 12        	ldx	$12                     ; 0x2012 <_ZN12_GLOBAL__N_112print_stringEPKcP6Status+0xf9>
    2084: 86 87        	stx	$87                     ; 0x2087 <printf+0x62>
    2086: a6 13        	ldx	$13                     ; 0x2013 <_ZN12_GLOBAL__N_112print_stringEPKcP6Status+0xfa>
    2088: 86 88        	stx	$88                     ; 0x2088 <printf+0x63>
    208a: a6 42        	ldx	$42                     ; 0x2042 <printf+0x1d>
    208c: 86 46        	stx	$46                     ; 0x2046 <printf+0x21>
    208e: a6 43        	ldx	$43                     ; 0x2043 <printf+0x1e>
    2090: 86 47        	stx	$47                     ; 0x2047 <printf+0x22>
    2092: b2 42        	lda	($42)                   ; 0x2042 <printf+0x1d>
    2094: c9 25        	cmp	#$25
    2096: f0 23        	beq	$20bb <printf+0x96>
    2098: a2 00        	ldx	#$0
    209a: a8           	tay
    209b: d0 03        	bne	$20a0 <printf+0x7b>
    209d: 4c fd 2b     	jmp	$2bfd <printf+0xbd8>
    20a0: 20 fe 2b     	jsr	$2bfe <putchar>
    20a3: a0 01        	ldy	#$1
    20a5: e6 46        	inc	$46                     ; 0x2046 <printf+0x21>
    20a7: d0 02        	bne	$20ab <printf+0x86>
    20a9: e6 47        	inc	$47                     ; 0x2047 <printf+0x22>
    20ab: e6 75        	inc	$75                     ; 0x2075 <printf+0x50>
    20ad: d0 02        	bne	$20b1 <printf+0x8c>
    20af: e6 76        	inc	$76                     ; 0x2076 <printf+0x51>
    20b1: a6 46        	ldx	$46                     ; 0x2046 <printf+0x21>
    20b3: 86 42        	stx	$42                     ; 0x2042 <printf+0x1d>
    20b5: a6 47        	ldx	$47                     ; 0x2047 <printf+0x22>
    20b7: 86 43        	stx	$43                     ; 0x2043 <printf+0x1e>
    20b9: 80 cf        	bra	$208a <printf+0x65>
    20bb: a6 42        	ldx	$42                     ; 0x2042 <printf+0x1d>
    20bd: 86 12        	stx	$12                     ; 0x2012 <_ZN12_GLOBAL__N_112print_stringEPKcP6Status+0xf9>
    20bf: a6 43        	ldx	$43                     ; 0x2043 <printf+0x1e>
    20c1: 86 13        	stx	$13                     ; 0x2013 <_ZN12_GLOBAL__N_112print_stringEPKcP6Status+0xfa>
    20c3: e6 12        	inc	$12                     ; 0x2012 <_ZN12_GLOBAL__N_112print_stringEPKcP6Status+0xf9>
    20c5: d0 02        	bne	$20c9 <printf+0xa4>
    20c7: e6 13        	inc	$13                     ; 0x2013 <_ZN12_GLOBAL__N_112print_stringEPKcP6Status+0xfa>
    20c9: b1 46        	lda	($46),y                 ; 0x2046 <printf+0x21>
    20cb: c9 25        	cmp	#$25
    20cd: d0 16        	bne	$20e5 <printf+0xc0>
    20cf: a4 75        	ldy	$75                     ; 0x2075 <printf+0x50>
    20d1: a5 76        	lda	$76                     ; 0x2076 <printf+0x51>
    20d3: c5 74        	cmp	$74                     ; 0x2074 <printf+0x4f>
    20d5: f0 03        	beq	$20da <printf+0xb5>
    20d7: 4c eb 21     	jmp	$21eb <printf+0x1c6>
    20da: a6 73        	ldx	$73                     ; 0x2073 <printf+0x4e>
    20dc: 86 12        	stx	$12                     ; 0x2012 <_ZN12_GLOBAL__N_112print_stringEPKcP6Status+0xf9>
    20de: 84 13        	sty	$13                     ; 0x2013 <_ZN12_GLOBAL__N_112print_stringEPKcP6Status+0xfa>
    20e0: c4 12        	cpy	$12                     ; 0x2012 <_ZN12_GLOBAL__N_112print_stringEPKcP6Status+0xf9>
    20e2: 4c ef 21     	jmp	$21ef <printf+0x1ca>
    20e5: 64 71        	stz	$71                     ; 0x2071 <printf+0x4c>
    20e7: 64 72        	stz	$72                     ; 0x2072 <printf+0x4d>
    20e9: 64 70        	stz	$70                     ; 0x2070 <printf+0x4b>
    20eb: 64 7b        	stz	$7b                     ; 0x207b <printf+0x56>
    20ed: 64 7c        	stz	$7c                     ; 0x207c <printf+0x57>
    20ef: a2 ff        	ldx	#$ff
    20f1: 86 7d        	stx	$7d                     ; 0x207d <printf+0x58>
    20f3: 86 7e        	stx	$7e                     ; 0x207e <printf+0x59>
    20f5: 64 41        	stz	$41                     ; 0x2041 <printf+0x1c>
    20f7: 80 33        	bra	$212c <printf+0x107>
    20f9: a2 02        	ldx	#$2
    20fb: 80 15        	bra	$2112 <printf+0xed>
    20fd: e0 20        	cpx	#$20
    20ff: f0 15        	beq	$2116 <printf+0xf1>
    2101: 86 15        	stx	$15                     ; 0x2015 <_ZN12_GLOBAL__N_112print_stringEPKcP6Status+0xfc>
    2103: e0 23        	cpx	#$23
    2105: f0 03        	beq	$210a <printf+0xe5>
    2107: 4c 89 21     	jmp	$2189 <printf+0x164>
    210a: a5 41        	lda	$41                     ; 0x2041 <printf+0x1c>
    210c: a2 04        	ldx	#$4
    210e: 80 02        	bra	$2112 <printf+0xed>
    2110: a2 10        	ldx	#$10
    2112: 86 14        	stx	$14                     ; 0x2014 <_ZN12_GLOBAL__N_112print_stringEPKcP6Status+0xfb>
    2114: 80 06        	bra	$211c <printf+0xf7>
    2116: a2 08        	ldx	#$8
    2118: 86 14        	stx	$14                     ; 0x2014 <_ZN12_GLOBAL__N_112print_stringEPKcP6Status+0xfb>
    211a: a5 41        	lda	$41                     ; 0x2041 <printf+0x1c>
    211c: 05 14        	ora	$14                     ; 0x2014 <_ZN12_GLOBAL__N_112print_stringEPKcP6Status+0xfb>
    211e: 85 41        	sta	$41                     ; 0x2041 <printf+0x1c>
    2120: 85 71        	sta	$71                     ; 0x2071 <printf+0x4c>
    2122: a2 00        	ldx	#$0
    2124: 86 72        	stx	$72                     ; 0x2072 <printf+0x4d>
    2126: e6 12        	inc	$12                     ; 0x2012 <_ZN12_GLOBAL__N_112print_stringEPKcP6Status+0xf9>
    2128: d0 02        	bne	$212c <printf+0x107>
    212a: e6 13        	inc	$13                     ; 0x2013 <_ZN12_GLOBAL__N_112print_stringEPKcP6Status+0xfa>
    212c: b2 12        	lda	($12)                   ; 0x2012 <_ZN12_GLOBAL__N_112print_stringEPKcP6Status+0xf9>
    212e: aa           	tax
    212f: 18           	clc
    2130: 69 d6        	adc	#$d6
    2132: c9 07        	cmp	#$7
    2134: b0 c7        	bcs	$20fd <printf+0xd8>
    2136: 86 15        	stx	$15                     ; 0x2015 <_ZN12_GLOBAL__N_112print_stringEPKcP6Status+0xfc>
    2138: 0a           	asl
    2139: aa           	tax
    213a: a0 01        	ldy	#$1
    213c: 84 14        	sty	$14                     ; 0x2014 <_ZN12_GLOBAL__N_112print_stringEPKcP6Status+0xfb>
    213e: a5 41        	lda	$41                     ; 0x2041 <printf+0x1c>
    2140: 7c 48 2e     	jmp	($2e48,x)               ; 0x2e48 <__set_v+0x17>
    2143: a5 81        	lda	$81                     ; 0x2081 <printf+0x5c>
    2145: a6 82        	ldx	$82                     ; 0x2082 <printf+0x5d>
    2147: 85 16        	sta	$16                     ; 0x2016 <_ZN12_GLOBAL__N_112print_stringEPKcP6Status+0xfd>
    2149: 86 17        	stx	$17                     ; 0x2017 <_ZN12_GLOBAL__N_112print_stringEPKcP6Status+0xfe>
    214b: 18           	clc
    214c: 69 02        	adc	#$2
    214e: a8           	tay
    214f: 8a           	txa
    2150: 69 00        	adc	#$0
    2152: 84 81        	sty	$81                     ; 0x2081 <printf+0x5c>
    2154: 85 82        	sta	$82                     ; 0x2082 <printf+0x5d>
    2156: b2 16        	lda	($16)                   ; 0x2016 <_ZN12_GLOBAL__N_112print_stringEPKcP6Status+0xfd>
    2158: 85 15        	sta	$15                     ; 0x2015 <_ZN12_GLOBAL__N_112print_stringEPKcP6Status+0xfc>
    215a: a0 01        	ldy	#$1
    215c: b1 16        	lda	($16),y                 ; 0x2016 <_ZN12_GLOBAL__N_112print_stringEPKcP6Status+0xfd>
    215e: 85 14        	sta	$14                     ; 0x2014 <_ZN12_GLOBAL__N_112print_stringEPKcP6Status+0xfb>
    2160: 10 15        	bpl	$2177 <printf+0x152>
    2162: a5 41        	lda	$41                     ; 0x2041 <printf+0x1c>
    2164: 09 01        	ora	#$1
    2166: 85 41        	sta	$41                     ; 0x2041 <printf+0x1c>
    2168: 85 71        	sta	$71                     ; 0x2071 <printf+0x4c>
    216a: a2 00        	ldx	#$0
    216c: 86 72        	stx	$72                     ; 0x2072 <printf+0x4d>
    216e: 8a           	txa
    216f: 38           	sec
    2170: e5 15        	sbc	$15                     ; 0x2015 <_ZN12_GLOBAL__N_112print_stringEPKcP6Status+0xfc>
    2172: 85 15        	sta	$15                     ; 0x2015 <_ZN12_GLOBAL__N_112print_stringEPKcP6Status+0xfc>
    2174: 8a           	txa
    2175: e5 14        	sbc	$14                     ; 0x2014 <_ZN12_GLOBAL__N_112print_stringEPKcP6Status+0xfb>
    2177: a6 15        	ldx	$15                     ; 0x2015 <_ZN12_GLOBAL__N_112print_stringEPKcP6Status+0xfc>
    2179: 86 7b        	stx	$7b                     ; 0x207b <printf+0x56>
    217b: 85 7c        	sta	$7c                     ; 0x207c <printf+0x57>
    217d: e6 12        	inc	$12                     ; 0x2012 <_ZN12_GLOBAL__N_112print_stringEPKcP6Status+0xf9>
    217f: f0 03        	beq	$2184 <printf+0x15f>
    2181: 4c 3f 22     	jmp	$223f <printf+0x21a>
    2184: e6 13        	inc	$13                     ; 0x2013 <_ZN12_GLOBAL__N_112print_stringEPKcP6Status+0xfa>
    2186: 4c 3f 22     	jmp	$223f <printf+0x21a>
    2189: a5 15        	lda	$15                     ; 0x2015 <_ZN12_GLOBAL__N_112print_stringEPKcP6Status+0xfc>
    218b: 18           	clc
    218c: 69 d0        	adc	#$d0
    218e: c9 0a        	cmp	#$a
    2190: 90 03        	bcc	$2195 <printf+0x170>
    2192: 4c 31 22     	jmp	$2231 <printf+0x20c>
    2195: a6 15        	ldx	$15                     ; 0x2015 <_ZN12_GLOBAL__N_112print_stringEPKcP6Status+0xfc>
    2197: 86 14        	stx	$14                     ; 0x2014 <_ZN12_GLOBAL__N_112print_stringEPKcP6Status+0xfb>
    2199: 64 16        	stz	$16                     ; 0x2016 <_ZN12_GLOBAL__N_112print_stringEPKcP6Status+0xfd>
    219b: 64 15        	stz	$15                     ; 0x2015 <_ZN12_GLOBAL__N_112print_stringEPKcP6Status+0xfc>
    219d: 64 17        	stz	$17                     ; 0x2017 <_ZN12_GLOBAL__N_112print_stringEPKcP6Status+0xfe>
    219f: a0 01        	ldy	#$1
    21a1: 06 16        	asl	$16                     ; 0x2016 <_ZN12_GLOBAL__N_112print_stringEPKcP6Status+0xfd>
    21a3: 26 17        	rol	$17                     ; 0x2017 <_ZN12_GLOBAL__N_112print_stringEPKcP6Status+0xfe>
    21a5: a5 16        	lda	$16                     ; 0x2016 <_ZN12_GLOBAL__N_112print_stringEPKcP6Status+0xfd>
    21a7: 0a           	asl
    21a8: aa           	tax
    21a9: a5 17        	lda	$17                     ; 0x2017 <_ZN12_GLOBAL__N_112print_stringEPKcP6Status+0xfe>
    21ab: 2a           	rol
    21ac: 86 18        	stx	$18                     ; 0x2018 <_ZN12_GLOBAL__N_112print_stringEPKcP6Status+0xff>
    21ae: 06 18        	asl	$18                     ; 0x2018 <_ZN12_GLOBAL__N_112print_stringEPKcP6Status+0xff>
    21b0: 2a           	rol
    21b1: aa           	tax
    21b2: a5 18        	lda	$18                     ; 0x2018 <_ZN12_GLOBAL__N_112print_stringEPKcP6Status+0xff>
    21b4: 18           	clc
    21b5: 65 16        	adc	$16                     ; 0x2016 <_ZN12_GLOBAL__N_112print_stringEPKcP6Status+0xfd>
    21b7: 85 16        	sta	$16                     ; 0x2016 <_ZN12_GLOBAL__N_112print_stringEPKcP6Status+0xfd>
    21b9: 8a           	txa
    21ba: 65 17        	adc	$17                     ; 0x2017 <_ZN12_GLOBAL__N_112print_stringEPKcP6Status+0xfe>
    21bc: 85 17        	sta	$17                     ; 0x2017 <_ZN12_GLOBAL__N_112print_stringEPKcP6Status+0xfe>
    21be: a5 16        	lda	$16                     ; 0x2016 <_ZN12_GLOBAL__N_112print_stringEPKcP6Status+0xfd>
    21c0: 18           	clc
    21c1: 65 14        	adc	$14                     ; 0x2014 <_ZN12_GLOBAL__N_112print_stringEPKcP6Status+0xfb>
    21c3: 85 14        	sta	$14                     ; 0x2014 <_ZN12_GLOBAL__N_112print_stringEPKcP6Status+0xfb>
    21c5: a5 17        	lda	$17                     ; 0x2017 <_ZN12_GLOBAL__N_112print_stringEPKcP6Status+0xfe>
    21c7: 65 15        	adc	$15                     ; 0x2015 <_ZN12_GLOBAL__N_112print_stringEPKcP6Status+0xfc>
    21c9: aa           	tax
    21ca: 18           	clc
    21cb: a5 14        	lda	$14                     ; 0x2014 <_ZN12_GLOBAL__N_112print_stringEPKcP6Status+0xfb>
    21cd: 69 d0        	adc	#$d0
    21cf: 85 16        	sta	$16                     ; 0x2016 <_ZN12_GLOBAL__N_112print_stringEPKcP6Status+0xfd>
    21d1: 8a           	txa
    21d2: 69 ff        	adc	#$ff
    21d4: 85 17        	sta	$17                     ; 0x2017 <_ZN12_GLOBAL__N_112print_stringEPKcP6Status+0xfe>
    21d6: b1 12        	lda	($12),y                 ; 0x2012 <_ZN12_GLOBAL__N_112print_stringEPKcP6Status+0xf9>
    21d8: 85 14        	sta	$14                     ; 0x2014 <_ZN12_GLOBAL__N_112print_stringEPKcP6Status+0xfb>
    21da: 18           	clc
    21db: 69 d0        	adc	#$d0
    21dd: e6 12        	inc	$12                     ; 0x2012 <_ZN12_GLOBAL__N_112print_stringEPKcP6Status+0xf9>
    21df: d0 02        	bne	$21e3 <printf+0x1be>
    21e1: e6 13        	inc	$13                     ; 0x2013 <_ZN12_GLOBAL__N_112print_stringEPKcP6Status+0xfa>
    21e3: c9 0a        	cmp	#$a
    21e5: 64 15        	stz	$15                     ; 0x2015 <_ZN12_GLOBAL__N_112print_stringEPKcP6Status+0xfc>
    21e7: 90 b8        	bcc	$21a1 <printf+0x17c>
    21e9: 80 4c        	bra	$2237 <printf+0x212>
    21eb: 84 13        	sty	$13                     ; 0x2013 <_ZN12_GLOBAL__N_112print_stringEPKcP6Status+0xfa>
    21ed: c5 74        	cmp	$74                     ; 0x2074 <printf+0x4f>
    21ef: a0 01        	ldy	#$1
    21f1: b0 28        	bcs	$221b <printf+0x1f6>
    21f3: a6 80        	ldx	$80                     ; 0x2080 <printf+0x5b>
    21f5: e4 45        	cpx	$45                     ; 0x2045 <printf+0x20>
    21f7: d0 19        	bne	$2212 <printf+0x1ed>
    21f9: a6 7f        	ldx	$7f                     ; 0x207f <printf+0x5a>
    21fb: e4 44        	cpx	$44                     ; 0x2044 <printf+0x1f>
    21fd: d0 13        	bne	$2212 <printf+0x1ed>
    21ff: 18           	clc
    2200: aa           	tax
    2201: a5 13        	lda	$13                     ; 0x2013 <_ZN12_GLOBAL__N_112print_stringEPKcP6Status+0xfa>
    2203: 65 79        	adc	$79                     ; 0x2079 <printf+0x54>
    2205: 85 12        	sta	$12                     ; 0x2012 <_ZN12_GLOBAL__N_112print_stringEPKcP6Status+0xf9>
    2207: 8a           	txa
    2208: 65 7a        	adc	$7a                     ; 0x207a <printf+0x55>
    220a: 85 13        	sta	$13                     ; 0x2013 <_ZN12_GLOBAL__N_112print_stringEPKcP6Status+0xfa>
    220c: a9 25        	lda	#$25
    220e: 92 12        	sta	($12)                   ; 0x2012 <_ZN12_GLOBAL__N_112print_stringEPKcP6Status+0xf9>
    2210: 80 09        	bra	$221b <printf+0x1f6>
    2212: a2 00        	ldx	#$0
    2214: a9 25        	lda	#$25
    2216: 20 fe 2b     	jsr	$2bfe <putchar>
    2219: a0 01        	ldy	#$1
    221b: e6 75        	inc	$75                     ; 0x2075 <printf+0x50>
    221d: d0 02        	bne	$2221 <printf+0x1fc>
    221f: e6 76        	inc	$76                     ; 0x2076 <printf+0x51>
    2221: a5 46        	lda	$46                     ; 0x2046 <printf+0x21>
    2223: 18           	clc
    2224: 69 02        	adc	#$2
    2226: 85 42        	sta	$42                     ; 0x2042 <printf+0x1d>
    2228: a5 47        	lda	$47                     ; 0x2047 <printf+0x22>
    222a: 69 00        	adc	#$0
    222c: 85 43        	sta	$43                     ; 0x2043 <printf+0x1e>
    222e: 4c 8a 20     	jmp	$208a <printf+0x65>
    2231: 64 16        	stz	$16                     ; 0x2016 <_ZN12_GLOBAL__N_112print_stringEPKcP6Status+0xfd>
    2233: 64 17        	stz	$17                     ; 0x2017 <_ZN12_GLOBAL__N_112print_stringEPKcP6Status+0xfe>
    2235: a0 01        	ldy	#$1
    2237: a6 16        	ldx	$16                     ; 0x2016 <_ZN12_GLOBAL__N_112print_stringEPKcP6Status+0xfd>
    2239: 86 7b        	stx	$7b                     ; 0x207b <printf+0x56>
    223b: a5 17        	lda	$17                     ; 0x2017 <_ZN12_GLOBAL__N_112print_stringEPKcP6Status+0xfe>
    223d: 85 7c        	sta	$7c                     ; 0x207c <printf+0x57>
    223f: 86 4a        	stx	$4a                     ; 0x204a <printf+0x25>
    2241: 85 48        	sta	$48                     ; 0x2048 <printf+0x23>
    2243: b2 12        	lda	($12)                   ; 0x2012 <_ZN12_GLOBAL__N_112print_stringEPKcP6Status+0xf9>
    2245: a2 ff        	ldx	#$ff
    2247: c9 2e        	cmp	#$2e
    2249: d0 39        	bne	$2284 <printf+0x25f>
    224b: b1 12        	lda	($12),y                 ; 0x2012 <_ZN12_GLOBAL__N_112print_stringEPKcP6Status+0xf9>
    224d: c9 2a        	cmp	#$2a
    224f: d0 38        	bne	$2289 <printf+0x264>
    2251: a5 81        	lda	$81                     ; 0x2081 <printf+0x5c>
    2253: a6 82        	ldx	$82                     ; 0x2082 <printf+0x5d>
    2255: 85 14        	sta	$14                     ; 0x2014 <_ZN12_GLOBAL__N_112print_stringEPKcP6Status+0xfb>
    2257: 86 15        	stx	$15                     ; 0x2015 <_ZN12_GLOBAL__N_112print_stringEPKcP6Status+0xfc>
    2259: 18           	clc
    225a: 69 02        	adc	#$2
    225c: 85 16        	sta	$16                     ; 0x2016 <_ZN12_GLOBAL__N_112print_stringEPKcP6Status+0xfd>
    225e: 8a           	txa
    225f: 69 00        	adc	#$0
    2261: a6 16        	ldx	$16                     ; 0x2016 <_ZN12_GLOBAL__N_112print_stringEPKcP6Status+0xfd>
    2263: 86 81        	stx	$81                     ; 0x2081 <printf+0x5c>
    2265: 85 82        	sta	$82                     ; 0x2082 <printf+0x5d>
    2267: a5 12        	lda	$12                     ; 0x2012 <_ZN12_GLOBAL__N_112print_stringEPKcP6Status+0xf9>
    2269: 18           	clc
    226a: 69 02        	adc	#$2
    226c: 85 12        	sta	$12                     ; 0x2012 <_ZN12_GLOBAL__N_112print_stringEPKcP6Status+0xf9>
    226e: a5 13        	lda	$13                     ; 0x2013 <_ZN12_GLOBAL__N_112print_stringEPKcP6Status+0xfa>
    2270: 69 00        	adc	#$0
    2272: 85 13        	sta	$13                     ; 0x2013 <_ZN12_GLOBAL__N_112print_stringEPKcP6Status+0xfa>
    2274: b2 14        	lda	($14)                   ; 0x2014 <_ZN12_GLOBAL__N_112print_stringEPKcP6Status+0xfb>
    2276: aa           	tax
    2277: b1 14        	lda	($14),y                 ; 0x2014 <_ZN12_GLOBAL__N_112print_stringEPKcP6Status+0xfb>
    2279: 86 18        	stx	$18                     ; 0x2018 <_ZN12_GLOBAL__N_112print_stringEPKcP6Status+0xff>
    227b: 86 7d        	stx	$7d                     ; 0x207d <printf+0x58>
    227d: 85 19        	sta	$19                     ; 0x2019 <_ZN12_GLOBAL__N_112print_stringEPKcP6Status+0x100>
    227f: 85 7e        	sta	$7e                     ; 0x207e <printf+0x59>
    2281: 4c 34 23     	jmp	$2334 <printf+0x30f>
    2284: 86 18        	stx	$18                     ; 0x2018 <_ZN12_GLOBAL__N_112print_stringEPKcP6Status+0xff>
    2286: 4c 44 23     	jmp	$2344 <printf+0x31f>
    2289: 85 17        	sta	$17                     ; 0x2017 <_ZN12_GLOBAL__N_112print_stringEPKcP6Status+0xfe>
    228b: 18           	clc
    228c: 69 d0        	adc	#$d0
    228e: c9 0a        	cmp	#$a
    2290: 90 03        	bcc	$2295 <printf+0x270>
    2292: 4c 26 23     	jmp	$2326 <printf+0x301>
    2295: 64 16        	stz	$16                     ; 0x2016 <_ZN12_GLOBAL__N_112print_stringEPKcP6Status+0xfd>
    2297: a2 01        	ldx	#$1
    2299: 64 18        	stz	$18                     ; 0x2018 <_ZN12_GLOBAL__N_112print_stringEPKcP6Status+0xff>
    229b: 64 19        	stz	$19                     ; 0x2019 <_ZN12_GLOBAL__N_112print_stringEPKcP6Status+0x100>
    229d: a0 01        	ldy	#$1
    229f: 64 1a        	stz	$1a                     ; 0x201a <_ZN12_GLOBAL__N_112print_stringEPKcP6Status+0x101>
    22a1: 5a           	phy
    22a2: a4 1a        	ldy	$1a                     ; 0x201a <_ZN12_GLOBAL__N_112print_stringEPKcP6Status+0x101>
    22a4: 84 14        	sty	$14                     ; 0x2014 <_ZN12_GLOBAL__N_112print_stringEPKcP6Status+0xfb>
    22a6: 86 15        	stx	$15                     ; 0x2015 <_ZN12_GLOBAL__N_112print_stringEPKcP6Status+0xfc>
    22a8: 06 18        	asl	$18                     ; 0x2018 <_ZN12_GLOBAL__N_112print_stringEPKcP6Status+0xff>
    22aa: 26 19        	rol	$19                     ; 0x2019 <_ZN12_GLOBAL__N_112print_stringEPKcP6Status+0x100>
    22ac: a5 18        	lda	$18                     ; 0x2018 <_ZN12_GLOBAL__N_112print_stringEPKcP6Status+0xff>
    22ae: 0a           	asl
    22af: 85 1d        	sta	$1d                     ; 0x201d <_ZN12_GLOBAL__N_112print_stringEPKcP6Status+0x104>
    22b1: a5 19        	lda	$19                     ; 0x2019 <_ZN12_GLOBAL__N_112print_stringEPKcP6Status+0x100>
    22b3: 2a           	rol
    22b4: 06 1d        	asl	$1d                     ; 0x201d <_ZN12_GLOBAL__N_112print_stringEPKcP6Status+0x104>
    22b6: 2a           	rol
    22b7: 85 1e        	sta	$1e                     ; 0x201e <_ZN12_GLOBAL__N_112print_stringEPKcP6Status+0x105>
    22b9: a5 1d        	lda	$1d                     ; 0x201d <_ZN12_GLOBAL__N_112print_stringEPKcP6Status+0x104>
    22bb: 18           	clc
    22bc: 65 18        	adc	$18                     ; 0x2018 <_ZN12_GLOBAL__N_112print_stringEPKcP6Status+0xff>
    22be: 85 18        	sta	$18                     ; 0x2018 <_ZN12_GLOBAL__N_112print_stringEPKcP6Status+0xff>
    22c0: a5 1e        	lda	$1e                     ; 0x201e <_ZN12_GLOBAL__N_112print_stringEPKcP6Status+0x105>
    22c2: 65 19        	adc	$19                     ; 0x2019 <_ZN12_GLOBAL__N_112print_stringEPKcP6Status+0x100>
    22c4: 85 19        	sta	$19                     ; 0x2019 <_ZN12_GLOBAL__N_112print_stringEPKcP6Status+0x100>
    22c6: a5 18        	lda	$18                     ; 0x2018 <_ZN12_GLOBAL__N_112print_stringEPKcP6Status+0xff>
    22c8: 18           	clc
    22c9: 65 17        	adc	$17                     ; 0x2017 <_ZN12_GLOBAL__N_112print_stringEPKcP6Status+0xfe>
    22cb: 85 17        	sta	$17                     ; 0x2017 <_ZN12_GLOBAL__N_112print_stringEPKcP6Status+0xfe>
    22cd: a5 19        	lda	$19                     ; 0x2019 <_ZN12_GLOBAL__N_112print_stringEPKcP6Status+0x100>
    22cf: 65 16        	adc	$16                     ; 0x2016 <_ZN12_GLOBAL__N_112print_stringEPKcP6Status+0xfd>
    22d1: 85 16        	sta	$16                     ; 0x2016 <_ZN12_GLOBAL__N_112print_stringEPKcP6Status+0xfd>
    22d3: 18           	clc
    22d4: a5 17        	lda	$17                     ; 0x2017 <_ZN12_GLOBAL__N_112print_stringEPKcP6Status+0xfe>
    22d6: 69 d0        	adc	#$d0
    22d8: 85 18        	sta	$18                     ; 0x2018 <_ZN12_GLOBAL__N_112print_stringEPKcP6Status+0xff>
    22da: a5 16        	lda	$16                     ; 0x2016 <_ZN12_GLOBAL__N_112print_stringEPKcP6Status+0xfd>
    22dc: 69 ff        	adc	#$ff
    22de: 85 19        	sta	$19                     ; 0x2019 <_ZN12_GLOBAL__N_112print_stringEPKcP6Status+0x100>
    22e0: e8           	inx
    22e1: d0 02        	bne	$22e5 <printf+0x2c0>
    22e3: e6 1a        	inc	$1a                     ; 0x201a <_ZN12_GLOBAL__N_112print_stringEPKcP6Status+0x101>
    22e5: a5 12        	lda	$12                     ; 0x2012 <_ZN12_GLOBAL__N_112print_stringEPKcP6Status+0xf9>
    22e7: 18           	clc
    22e8: 65 15        	adc	$15                     ; 0x2015 <_ZN12_GLOBAL__N_112print_stringEPKcP6Status+0xfc>
    22ea: 85 1d        	sta	$1d                     ; 0x201d <_ZN12_GLOBAL__N_112print_stringEPKcP6Status+0x104>
    22ec: a5 13        	lda	$13                     ; 0x2013 <_ZN12_GLOBAL__N_112print_stringEPKcP6Status+0xfa>
    22ee: 65 14        	adc	$14                     ; 0x2014 <_ZN12_GLOBAL__N_112print_stringEPKcP6Status+0xfb>
    22f0: a4 1d        	ldy	$1d                     ; 0x201d <_ZN12_GLOBAL__N_112print_stringEPKcP6Status+0x104>
    22f2: 84 16        	sty	$16                     ; 0x2016 <_ZN12_GLOBAL__N_112print_stringEPKcP6Status+0xfd>
    22f4: 7a           	ply
    22f5: 85 17        	sta	$17                     ; 0x2017 <_ZN12_GLOBAL__N_112print_stringEPKcP6Status+0xfe>
    22f7: b1 16        	lda	($16),y                 ; 0x2016 <_ZN12_GLOBAL__N_112print_stringEPKcP6Status+0xfd>
    22f9: 85 17        	sta	$17                     ; 0x2017 <_ZN12_GLOBAL__N_112print_stringEPKcP6Status+0xfe>
    22fb: 18           	clc
    22fc: 69 d0        	adc	#$d0
    22fe: c9 0a        	cmp	#$a
    2300: 64 16        	stz	$16                     ; 0x2016 <_ZN12_GLOBAL__N_112print_stringEPKcP6Status+0xfd>
    2302: b0 03        	bcs	$2307 <printf+0x2e2>
    2304: 4c a1 22     	jmp	$22a1 <printf+0x27c>
    2307: a5 12        	lda	$12                     ; 0x2012 <_ZN12_GLOBAL__N_112print_stringEPKcP6Status+0xf9>
    2309: 18           	clc
    230a: 65 15        	adc	$15                     ; 0x2015 <_ZN12_GLOBAL__N_112print_stringEPKcP6Status+0xfc>
    230c: 85 12        	sta	$12                     ; 0x2012 <_ZN12_GLOBAL__N_112print_stringEPKcP6Status+0xf9>
    230e: a5 13        	lda	$13                     ; 0x2013 <_ZN12_GLOBAL__N_112print_stringEPKcP6Status+0xfa>
    2310: 65 14        	adc	$14                     ; 0x2014 <_ZN12_GLOBAL__N_112print_stringEPKcP6Status+0xfb>
    2312: 85 13        	sta	$13                     ; 0x2013 <_ZN12_GLOBAL__N_112print_stringEPKcP6Status+0xfa>
    2314: e6 12        	inc	$12                     ; 0x2012 <_ZN12_GLOBAL__N_112print_stringEPKcP6Status+0xf9>
    2316: d0 02        	bne	$231a <printf+0x2f5>
    2318: e6 13        	inc	$13                     ; 0x2013 <_ZN12_GLOBAL__N_112print_stringEPKcP6Status+0xfa>
    231a: a6 18        	ldx	$18                     ; 0x2018 <_ZN12_GLOBAL__N_112print_stringEPKcP6Status+0xff>
    231c: 86 7d        	stx	$7d                     ; 0x207d <printf+0x58>
    231e: a6 19        	ldx	$19                     ; 0x2019 <_ZN12_GLOBAL__N_112print_stringEPKcP6Status+0x100>
    2320: 86 7e        	stx	$7e                     ; 0x207e <printf+0x59>
    2322: a0 01        	ldy	#$1
    2324: 80 0e        	bra	$2334 <printf+0x30f>
    2326: e6 12        	inc	$12                     ; 0x2012 <_ZN12_GLOBAL__N_112print_stringEPKcP6Status+0xf9>
    2328: d0 02        	bne	$232c <printf+0x307>
    232a: e6 13        	inc	$13                     ; 0x2013 <_ZN12_GLOBAL__N_112print_stringEPKcP6Status+0xfa>
    232c: 64 18        	stz	$18                     ; 0x2018 <_ZN12_GLOBAL__N_112print_stringEPKcP6Status+0xff>
    232e: 64 7d        	stz	$7d                     ; 0x207d <printf+0x58>
    2330: 64 7e        	stz	$7e                     ; 0x207e <printf+0x59>
    2332: 64 19        	stz	$19                     ; 0x2019 <_ZN12_GLOBAL__N_112print_stringEPKcP6Status+0x100>
    2334: a5 41        	lda	$41                     ; 0x2041 <printf+0x1c>
    2336: 29 ef        	and	#$ef
    2338: 85 41        	sta	$41                     ; 0x2041 <printf+0x1c>
    233a: 85 71        	sta	$71                     ; 0x2071 <printf+0x4c>
    233c: a2 00        	ldx	#$0
    233e: 86 72        	stx	$72                     ; 0x2072 <printf+0x4d>
    2340: b2 12        	lda	($12)                   ; 0x2012 <_ZN12_GLOBAL__N_112print_stringEPKcP6Status+0xf9>
    2342: a6 19        	ldx	$19                     ; 0x2019 <_ZN12_GLOBAL__N_112print_stringEPKcP6Status+0x100>
    2344: 86 15        	stx	$15                     ; 0x2015 <_ZN12_GLOBAL__N_112print_stringEPKcP6Status+0xfc>
    2346: a6 12        	ldx	$12                     ; 0x2012 <_ZN12_GLOBAL__N_112print_stringEPKcP6Status+0xf9>
    2348: 86 42        	stx	$42                     ; 0x2042 <printf+0x1d>
    234a: a6 13        	ldx	$13                     ; 0x2013 <_ZN12_GLOBAL__N_112print_stringEPKcP6Status+0xfa>
    234c: 86 43        	stx	$43                     ; 0x2043 <printf+0x1e>
    234e: e6 42        	inc	$42                     ; 0x2042 <printf+0x1d>
    2350: d0 02        	bne	$2354 <printf+0x32f>
    2352: e6 43        	inc	$43                     ; 0x2043 <printf+0x1e>
    2354: 85 14        	sta	$14                     ; 0x2014 <_ZN12_GLOBAL__N_112print_stringEPKcP6Status+0xfb>
    2356: 38           	sec
    2357: e9 6c        	sbc	#$6c
    2359: 50 02        	bvc	$235d <printf+0x338>
    235b: 49 80        	eor	#$80
    235d: aa           	tax
    235e: 10 1d        	bpl	$237d <printf+0x358>
    2360: a5 14        	lda	$14                     ; 0x2014 <_ZN12_GLOBAL__N_112print_stringEPKcP6Status+0xfb>
    2362: c9 4c        	cmp	#$4c
    2364: f0 27        	beq	$238d <printf+0x368>
    2366: c9 68        	cmp	#$68
    2368: d0 03        	bne	$236d <printf+0x348>
    236a: 4c f4 23     	jmp	$23f4 <printf+0x3cf>
    236d: a2 08        	ldx	#$8
    236f: c9 6a        	cmp	#$6a
    2371: d0 2e        	bne	$23a1 <printf+0x37c>
    2373: a5 42        	lda	$42                     ; 0x2042 <printf+0x1d>
    2375: 85 12        	sta	$12                     ; 0x2012 <_ZN12_GLOBAL__N_112print_stringEPKcP6Status+0xf9>
    2377: a5 43        	lda	$43                     ; 0x2043 <printf+0x1e>
    2379: 85 13        	sta	$13                     ; 0x2013 <_ZN12_GLOBAL__N_112print_stringEPKcP6Status+0xfa>
    237b: 80 43        	bra	$23c0 <printf+0x39b>
    237d: a6 14        	ldx	$14                     ; 0x2014 <_ZN12_GLOBAL__N_112print_stringEPKcP6Status+0xfb>
    237f: e0 6c        	cpx	#$6c
    2381: f0 23        	beq	$23a6 <printf+0x381>
    2383: e0 74        	cpx	#$74
    2385: f0 12        	beq	$2399 <printf+0x374>
    2387: e0 7a        	cpx	#$7a
    2389: f0 0e        	beq	$2399 <printf+0x374>
    238b: 80 14        	bra	$23a1 <printf+0x37c>
    238d: a5 41        	lda	$41                     ; 0x2041 <printf+0x1c>
    238f: 09 40        	ora	#$40
    2391: 85 41        	sta	$41                     ; 0x2041 <printf+0x1c>
    2393: 85 71        	sta	$71                     ; 0x2071 <printf+0x4c>
    2395: a2 00        	ldx	#$0
    2397: 86 72        	stx	$72                     ; 0x2072 <printf+0x4d>
    2399: a6 42        	ldx	$42                     ; 0x2042 <printf+0x1d>
    239b: 86 12        	stx	$12                     ; 0x2012 <_ZN12_GLOBAL__N_112print_stringEPKcP6Status+0xf9>
    239d: a6 43        	ldx	$43                     ; 0x2043 <printf+0x1e>
    239f: 86 13        	stx	$13                     ; 0x2013 <_ZN12_GLOBAL__N_112print_stringEPKcP6Status+0xfa>
    23a1: a2 02        	ldx	#$2
    23a3: 8a           	txa
    23a4: 80 1c        	bra	$23c2 <printf+0x39d>
    23a6: b1 12        	lda	($12),y                 ; 0x2012 <_ZN12_GLOBAL__N_112print_stringEPKcP6Status+0xf9>
    23a8: a2 04        	ldx	#$4
    23aa: c9 6c        	cmp	#$6c
    23ac: f0 03        	beq	$23b1 <printf+0x38c>
    23ae: 4c 03 27     	jmp	$2703 <printf+0x6de>
    23b1: a5 12        	lda	$12                     ; 0x2012 <_ZN12_GLOBAL__N_112print_stringEPKcP6Status+0xf9>
    23b3: 18           	clc
    23b4: 69 02        	adc	#$2
    23b6: 85 12        	sta	$12                     ; 0x2012 <_ZN12_GLOBAL__N_112print_stringEPKcP6Status+0xf9>
    23b8: a5 13        	lda	$13                     ; 0x2013 <_ZN12_GLOBAL__N_112print_stringEPKcP6Status+0xfa>
    23ba: 69 00        	adc	#$0
    23bc: 85 13        	sta	$13                     ; 0x2013 <_ZN12_GLOBAL__N_112print_stringEPKcP6Status+0xfa>
    23be: a2 08        	ldx	#$8
    23c0: a9 08        	lda	#$8
    23c2: 85 86        	sta	$86                     ; 0x2086 <printf+0x61>
    23c4: b2 12        	lda	($12)                   ; 0x2012 <_ZN12_GLOBAL__N_112print_stringEPKcP6Status+0xf9>
    23c6: 5a           	phy
    23c7: a4 12        	ldy	$12                     ; 0x2012 <_ZN12_GLOBAL__N_112print_stringEPKcP6Status+0xf9>
    23c9: 84 42        	sty	$42                     ; 0x2042 <printf+0x1d>
    23cb: a4 13        	ldy	$13                     ; 0x2013 <_ZN12_GLOBAL__N_112print_stringEPKcP6Status+0xfa>
    23cd: 84 43        	sty	$43                     ; 0x2043 <printf+0x1e>
    23cf: 7a           	ply
    23d0: 86 44        	stx	$44                     ; 0x2044 <printf+0x1f>
    23d2: aa           	tax
    23d3: 18           	clc
    23d4: 69 9d        	adc	#$9d
    23d6: c9 16        	cmp	#$16
    23d8: b0 39        	bcs	$2413 <printf+0x3ee>
    23da: 0a           	asl
    23db: aa           	tax
    23dc: 7c 56 2e     	jmp	($2e56,x)               ; 0x2e56 <__set_v+0x25>
    23df: a6 15        	ldx	$15                     ; 0x2015 <_ZN12_GLOBAL__N_112print_stringEPKcP6Status+0xfc>
    23e1: 86 89        	stx	$89                     ; 0x2089 <printf+0x64>
    23e3: a6 18        	ldx	$18                     ; 0x2018 <_ZN12_GLOBAL__N_112print_stringEPKcP6Status+0xff>
    23e5: 86 8a        	stx	$8a                     ; 0x208a <printf+0x65>
    23e7: a0 0a        	ldy	#$a
    23e9: a2 0a        	ldx	#$a
    23eb: 86 85        	stx	$85                     ; 0x2085 <printf+0x60>
    23ed: 84 70        	sty	$70                     ; 0x2070 <printf+0x4b>
    23ef: 64 4b        	stz	$4b                     ; 0x204b <printf+0x26>
    23f1: 4c 13 25     	jmp	$2513 <printf+0x4ee>
    23f4: b1 12        	lda	($12),y                 ; 0x2012 <_ZN12_GLOBAL__N_112print_stringEPKcP6Status+0xf9>
    23f6: a2 02        	ldx	#$2
    23f8: c9 68        	cmp	#$68
    23fa: f0 03        	beq	$23ff <printf+0x3da>
    23fc: 4c 09 27     	jmp	$2709 <printf+0x6e4>
    23ff: a5 12        	lda	$12                     ; 0x2012 <_ZN12_GLOBAL__N_112print_stringEPKcP6Status+0xf9>
    2401: 18           	clc
    2402: 69 02        	adc	#$2
    2404: 85 12        	sta	$12                     ; 0x2012 <_ZN12_GLOBAL__N_112print_stringEPKcP6Status+0xf9>
    2406: a5 13        	lda	$13                     ; 0x2013 <_ZN12_GLOBAL__N_112print_stringEPKcP6Status+0xfa>
    2408: 69 00        	adc	#$0
    240a: 85 13        	sta	$13                     ; 0x2013 <_ZN12_GLOBAL__N_112print_stringEPKcP6Status+0xfa>
    240c: a2 01        	ldx	#$1
    240e: 86 86        	stx	$86                     ; 0x2086 <printf+0x61>
    2410: e8           	inx
    2411: 80 b1        	bra	$23c4 <printf+0x39f>
    2413: e0 58        	cpx	#$58
    2415: f0 03        	beq	$241a <printf+0x3f5>
    2417: 4c b7 2b     	jmp	$2bb7 <printf+0xb92>
    241a: a6 15        	ldx	$15                     ; 0x2015 <_ZN12_GLOBAL__N_112print_stringEPKcP6Status+0xfc>
    241c: 86 89        	stx	$89                     ; 0x2089 <printf+0x64>
    241e: a6 18        	ldx	$18                     ; 0x2018 <_ZN12_GLOBAL__N_112print_stringEPKcP6Status+0xff>
    2420: 86 8a        	stx	$8a                     ; 0x208a <printf+0x65>
    2422: a2 10        	ldx	#$10
    2424: 86 70        	stx	$70                     ; 0x2070 <printf+0x4b>
    2426: a9 00        	lda	#$0
    2428: 09 01        	ora	#$1
    242a: a6 41        	ldx	$41                     ; 0x2041 <printf+0x1c>
    242c: 80 29        	bra	$2457 <printf+0x432>
    242e: a6 15        	ldx	$15                     ; 0x2015 <_ZN12_GLOBAL__N_112print_stringEPKcP6Status+0xfc>
    2430: 86 89        	stx	$89                     ; 0x2089 <printf+0x64>
    2432: a6 18        	ldx	$18                     ; 0x2018 <_ZN12_GLOBAL__N_112print_stringEPKcP6Status+0xff>
    2434: 86 8a        	stx	$8a                     ; 0x208a <printf+0x65>
    2436: a2 10        	ldx	#$10
    2438: 86 70        	stx	$70                     ; 0x2070 <printf+0x4b>
    243a: a5 41        	lda	$41                     ; 0x2041 <printf+0x1c>
    243c: 09 84        	ora	#$84
    243e: 80 10        	bra	$2450 <printf+0x42b>
    2440: a6 15        	ldx	$15                     ; 0x2015 <_ZN12_GLOBAL__N_112print_stringEPKcP6Status+0xfc>
    2442: 86 89        	stx	$89                     ; 0x2089 <printf+0x64>
    2444: a6 18        	ldx	$18                     ; 0x2018 <_ZN12_GLOBAL__N_112print_stringEPKcP6Status+0xff>
    2446: 86 8a        	stx	$8a                     ; 0x208a <printf+0x65>
    2448: a2 10        	ldx	#$10
    244a: 86 70        	stx	$70                     ; 0x2070 <printf+0x4b>
    244c: a5 41        	lda	$41                     ; 0x2041 <printf+0x1c>
    244e: 09 80        	ora	#$80
    2450: aa           	tax
    2451: a9 00        	lda	#$0
    2453: 09 01        	ora	#$1
    2455: 86 41        	stx	$41                     ; 0x2041 <printf+0x1c>
    2457: 86 71        	stx	$71                     ; 0x2071 <printf+0x4c>
    2459: 85 4b        	sta	$4b                     ; 0x204b <printf+0x26>
    245b: 85 72        	sta	$72                     ; 0x2072 <printf+0x4d>
    245d: a2 10        	ldx	#$10
    245f: 86 85        	stx	$85                     ; 0x2085 <printf+0x60>
    2461: 4c 13 25     	jmp	$2513 <printf+0x4ee>
    2464: a5 81        	lda	$81                     ; 0x2081 <printf+0x5c>
    2466: a6 82        	ldx	$82                     ; 0x2082 <printf+0x5d>
    2468: 85 12        	sta	$12                     ; 0x2012 <_ZN12_GLOBAL__N_112print_stringEPKcP6Status+0xf9>
    246a: 86 13        	stx	$13                     ; 0x2013 <_ZN12_GLOBAL__N_112print_stringEPKcP6Status+0xfa>
    246c: 18           	clc
    246d: 69 02        	adc	#$2
    246f: 85 14        	sta	$14                     ; 0x2014 <_ZN12_GLOBAL__N_112print_stringEPKcP6Status+0xfb>
    2471: 8a           	txa
    2472: 69 00        	adc	#$0
    2474: a6 14        	ldx	$14                     ; 0x2014 <_ZN12_GLOBAL__N_112print_stringEPKcP6Status+0xfb>
    2476: 86 81        	stx	$81                     ; 0x2081 <printf+0x5c>
    2478: 85 82        	sta	$82                     ; 0x2082 <printf+0x5d>
    247a: b2 12        	lda	($12)                   ; 0x2012 <_ZN12_GLOBAL__N_112print_stringEPKcP6Status+0xf9>
    247c: aa           	tax
    247d: b1 12        	lda	($12),y                 ; 0x2012 <_ZN12_GLOBAL__N_112print_stringEPKcP6Status+0xf9>
    247f: 86 12        	stx	$12                     ; 0x2012 <_ZN12_GLOBAL__N_112print_stringEPKcP6Status+0xf9>
    2481: 85 13        	sta	$13                     ; 0x2013 <_ZN12_GLOBAL__N_112print_stringEPKcP6Status+0xfa>
    2483: a5 75        	lda	$75                     ; 0x2075 <printf+0x50>
    2485: a6 76        	ldx	$76                     ; 0x2076 <printf+0x51>
    2487: 92 12        	sta	($12)                   ; 0x2012 <_ZN12_GLOBAL__N_112print_stringEPKcP6Status+0xf9>
    2489: 8a           	txa
    248a: 91 12        	sta	($12),y                 ; 0x2012 <_ZN12_GLOBAL__N_112print_stringEPKcP6Status+0xf9>
    248c: 4c ec 24     	jmp	$24ec <printf+0x4c7>
    248f: a5 81        	lda	$81                     ; 0x2081 <printf+0x5c>
    2491: a6 82        	ldx	$82                     ; 0x2082 <printf+0x5d>
    2493: 85 12        	sta	$12                     ; 0x2012 <_ZN12_GLOBAL__N_112print_stringEPKcP6Status+0xf9>
    2495: 86 13        	stx	$13                     ; 0x2013 <_ZN12_GLOBAL__N_112print_stringEPKcP6Status+0xfa>
    2497: 18           	clc
    2498: 69 02        	adc	#$2
    249a: 85 14        	sta	$14                     ; 0x2014 <_ZN12_GLOBAL__N_112print_stringEPKcP6Status+0xfb>
    249c: 8a           	txa
    249d: 69 00        	adc	#$0
    249f: a6 14        	ldx	$14                     ; 0x2014 <_ZN12_GLOBAL__N_112print_stringEPKcP6Status+0xfb>
    24a1: 86 81        	stx	$81                     ; 0x2081 <printf+0x5c>
    24a3: 85 82        	sta	$82                     ; 0x2082 <printf+0x5d>
    24a5: b2 12        	lda	($12)                   ; 0x2012 <_ZN12_GLOBAL__N_112print_stringEPKcP6Status+0xf9>
    24a7: aa           	tax
    24a8: b1 12        	lda	($12),y                 ; 0x2012 <_ZN12_GLOBAL__N_112print_stringEPKcP6Status+0xf9>
    24aa: 86 12        	stx	$12                     ; 0x2012 <_ZN12_GLOBAL__N_112print_stringEPKcP6Status+0xf9>
    24ac: 85 13        	sta	$13                     ; 0x2013 <_ZN12_GLOBAL__N_112print_stringEPKcP6Status+0xfa>
    24ae: 80 2f        	bra	$24df <printf+0x4ba>
    24b0: a6 15        	ldx	$15                     ; 0x2015 <_ZN12_GLOBAL__N_112print_stringEPKcP6Status+0xfc>
    24b2: 86 89        	stx	$89                     ; 0x2089 <printf+0x64>
    24b4: a6 18        	ldx	$18                     ; 0x2018 <_ZN12_GLOBAL__N_112print_stringEPKcP6Status+0xff>
    24b6: 86 8a        	stx	$8a                     ; 0x208a <printf+0x65>
    24b8: a0 08        	ldy	#$8
    24ba: a2 08        	ldx	#$8
    24bc: 80 45        	bra	$2503 <printf+0x4de>
    24be: a5 81        	lda	$81                     ; 0x2081 <printf+0x5c>
    24c0: a6 82        	ldx	$82                     ; 0x2082 <printf+0x5d>
    24c2: 85 12        	sta	$12                     ; 0x2012 <_ZN12_GLOBAL__N_112print_stringEPKcP6Status+0xf9>
    24c4: 86 13        	stx	$13                     ; 0x2013 <_ZN12_GLOBAL__N_112print_stringEPKcP6Status+0xfa>
    24c6: 18           	clc
    24c7: 69 02        	adc	#$2
    24c9: a8           	tay
    24ca: 8a           	txa
    24cb: 69 00        	adc	#$0
    24cd: 84 81        	sty	$81                     ; 0x2081 <printf+0x5c>
    24cf: 85 82        	sta	$82                     ; 0x2082 <printf+0x5d>
    24d1: b2 12        	lda	($12)                   ; 0x2012 <_ZN12_GLOBAL__N_112print_stringEPKcP6Status+0xf9>
    24d3: 85 63        	sta	$63                     ; 0x2063 <printf+0x3e>
    24d5: 64 64        	stz	$64                     ; 0x2064 <printf+0x3f>
    24d7: a2 63        	ldx	#$63
    24d9: 86 12        	stx	$12                     ; 0x2012 <_ZN12_GLOBAL__N_112print_stringEPKcP6Status+0xf9>
    24db: a2 00        	ldx	#$0
    24dd: 86 13        	stx	$13                     ; 0x2013 <_ZN12_GLOBAL__N_112print_stringEPKcP6Status+0xfa>
    24df: a2 70        	ldx	#$70
    24e1: 86 14        	stx	$14                     ; 0x2014 <_ZN12_GLOBAL__N_112print_stringEPKcP6Status+0xfb>
    24e3: a2 00        	ldx	#$0
    24e5: 86 15        	stx	$15                     ; 0x2015 <_ZN12_GLOBAL__N_112print_stringEPKcP6Status+0xfc>
    24e7: 20 19 1f     	jsr	$1f19 <_ZN12_GLOBAL__N_112print_stringEPKcP6Status>
    24ea: a0 01        	ldy	#$1
    24ec: a2 00        	ldx	#$0
    24ee: 86 44        	stx	$44                     ; 0x2044 <printf+0x1f>
    24f0: a2 00        	ldx	#$0
    24f2: 86 45        	stx	$45                     ; 0x2045 <printf+0x20>
    24f4: 4c 9f 2b     	jmp	$2b9f <printf+0xb7a>
    24f7: a6 15        	ldx	$15                     ; 0x2015 <_ZN12_GLOBAL__N_112print_stringEPKcP6Status+0xfc>
    24f9: 86 89        	stx	$89                     ; 0x2089 <printf+0x64>
    24fb: a6 18        	ldx	$18                     ; 0x2018 <_ZN12_GLOBAL__N_112print_stringEPKcP6Status+0xff>
    24fd: 86 8a        	stx	$8a                     ; 0x208a <printf+0x65>
    24ff: a0 0a        	ldy	#$a
    2501: a2 0a        	ldx	#$a
    2503: 86 85        	stx	$85                     ; 0x2085 <printf+0x60>
    2505: 84 70        	sty	$70                     ; 0x2070 <printf+0x4b>
    2507: a9 00        	lda	#$0
    2509: 09 01        	ora	#$1
    250b: a6 41        	ldx	$41                     ; 0x2041 <printf+0x1c>
    250d: 86 71        	stx	$71                     ; 0x2071 <printf+0x4c>
    250f: 85 4b        	sta	$4b                     ; 0x204b <printf+0x26>
    2511: 85 72        	sta	$72                     ; 0x2072 <printf+0x4d>
    2513: a5 86        	lda	$86                     ; 0x2086 <printf+0x61>
    2515: 85 65        	sta	$65                     ; 0x2065 <printf+0x40>
    2517: a4 81        	ldy	$81                     ; 0x2081 <printf+0x5c>
    2519: a6 82        	ldx	$82                     ; 0x2082 <printf+0x5d>
    251b: 86 49        	stx	$49                     ; 0x2049 <printf+0x24>
    251d: 84 14        	sty	$14                     ; 0x2014 <_ZN12_GLOBAL__N_112print_stringEPKcP6Status+0xfb>
    251f: 84 40        	sty	$40                     ; 0x2040 <printf+0x1b>
    2521: 86 15        	stx	$15                     ; 0x2015 <_ZN12_GLOBAL__N_112print_stringEPKcP6Status+0xfc>
    2523: a6 87        	ldx	$87                     ; 0x2087 <printf+0x62>
    2525: 86 12        	stx	$12                     ; 0x2012 <_ZN12_GLOBAL__N_112print_stringEPKcP6Status+0xf9>
    2527: a6 88        	ldx	$88                     ; 0x2088 <printf+0x63>
    2529: 86 13        	stx	$13                     ; 0x2013 <_ZN12_GLOBAL__N_112print_stringEPKcP6Status+0xfa>
    252b: a2 00        	ldx	#$0
    252d: 85 45        	sta	$45                     ; 0x2045 <printf+0x20>
    252f: 20 e5 2d     	jsr	$2de5 <memcpy>
    2532: 18           	clc
    2533: a5 40        	lda	$40                     ; 0x2040 <printf+0x1b>
    2535: 65 44        	adc	$44                     ; 0x2044 <printf+0x1f>
    2537: aa           	tax
    2538: a5 49        	lda	$49                     ; 0x2049 <printf+0x24>
    253a: 69 00        	adc	#$0
    253c: 86 81        	stx	$81                     ; 0x2081 <printf+0x5c>
    253e: 85 82        	sta	$82                     ; 0x2082 <printf+0x5d>
    2540: a5 4b        	lda	$4b                     ; 0x204b <printf+0x26>
    2542: 29 01        	and	#$1
    2544: b8           	clv
    2545: f0 03        	beq	$254a <printf+0x525>
    2547: 4c 9e 25     	jmp	$259e <printf+0x579>
    254a: a6 45        	ldx	$45                     ; 0x2045 <printf+0x20>
    254c: b5 65        	lda	$65,x                   ; 0x2065 <printf+0x40>
    254e: aa           	tax
    254f: a0 01        	ldy	#$1
    2551: a5 48        	lda	$48                     ; 0x2048 <printf+0x23>
    2553: 85 1a        	sta	$1a                     ; 0x201a <_ZN12_GLOBAL__N_112print_stringEPKcP6Status+0x101>
    2555: a5 8a        	lda	$8a                     ; 0x208a <printf+0x65>
    2557: 85 48        	sta	$48                     ; 0x2048 <printf+0x23>
    2559: a9 00        	lda	#$0
    255b: 85 44        	sta	$44                     ; 0x2044 <printf+0x1f>
    255d: a9 00        	lda	#$0
    255f: 85 45        	sta	$45                     ; 0x2045 <printf+0x20>
    2561: a5 89        	lda	$89                     ; 0x2089 <printf+0x64>
    2563: 85 49        	sta	$49                     ; 0x2049 <printf+0x24>
    2565: 8a           	txa
    2566: 10 4c        	bpl	$25b4 <printf+0x58f>
    2568: a2 00        	ldx	#$0
    256a: 64 12        	stz	$12                     ; 0x2012 <_ZN12_GLOBAL__N_112print_stringEPKcP6Status+0xf9>
    256c: a9 00        	lda	#$0
    256e: 38           	sec
    256f: f5 66        	sbc	$66,x                   ; 0x2066 <printf+0x41>
    2571: a0 00        	ldy	#$0
    2573: b0 02        	bcs	$2577 <printf+0x552>
    2575: a0 01        	ldy	#$1
    2577: 38           	sec
    2578: e5 12        	sbc	$12                     ; 0x2012 <_ZN12_GLOBAL__N_112print_stringEPKcP6Status+0xf9>
    257a: 85 13        	sta	$13                     ; 0x2013 <_ZN12_GLOBAL__N_112print_stringEPKcP6Status+0xfa>
    257c: 64 12        	stz	$12                     ; 0x2012 <_ZN12_GLOBAL__N_112print_stringEPKcP6Status+0xf9>
    257e: b0 04        	bcs	$2584 <printf+0x55f>
    2580: a9 01        	lda	#$1
    2582: 85 12        	sta	$12                     ; 0x2012 <_ZN12_GLOBAL__N_112print_stringEPKcP6Status+0xf9>
    2584: 98           	tya
    2585: 05 12        	ora	$12                     ; 0x2012 <_ZN12_GLOBAL__N_112print_stringEPKcP6Status+0xf9>
    2587: 85 12        	sta	$12                     ; 0x2012 <_ZN12_GLOBAL__N_112print_stringEPKcP6Status+0xf9>
    2589: a5 13        	lda	$13                     ; 0x2013 <_ZN12_GLOBAL__N_112print_stringEPKcP6Status+0xfa>
    258b: 9d 66 00     	sta	$66,x                   ; 0x66 <__rc31+0x37>
    258e: e8           	inx
    258f: 86 13        	stx	$13                     ; 0x2013 <_ZN12_GLOBAL__N_112print_stringEPKcP6Status+0xfa>
    2591: a4 86        	ldy	$86                     ; 0x2086 <printf+0x61>
    2593: c4 13        	cpy	$13                     ; 0x2013 <_ZN12_GLOBAL__N_112print_stringEPKcP6Status+0xfa>
    2595: d0 d5        	bne	$256c <printf+0x547>
    2597: 2c 31 2e     	bit	$2e31                   ; 0x2e31 <__set_v>
    259a: a0 01        	ldy	#$1
    259c: 80 16        	bra	$25b4 <printf+0x58f>
    259e: a0 01        	ldy	#$1
    25a0: a6 48        	ldx	$48                     ; 0x2048 <printf+0x23>
    25a2: 86 1a        	stx	$1a                     ; 0x201a <_ZN12_GLOBAL__N_112print_stringEPKcP6Status+0x101>
    25a4: a6 8a        	ldx	$8a                     ; 0x208a <printf+0x65>
    25a6: 86 48        	stx	$48                     ; 0x2048 <printf+0x23>
    25a8: a2 00        	ldx	#$0
    25aa: 86 44        	stx	$44                     ; 0x2044 <printf+0x1f>
    25ac: a2 00        	ldx	#$0
    25ae: 86 45        	stx	$45                     ; 0x2045 <printf+0x20>
    25b0: a6 89        	ldx	$89                     ; 0x2089 <printf+0x64>
    25b2: 86 49        	stx	$49                     ; 0x2049 <printf+0x24>
    25b4: a2 01        	ldx	#$1
    25b6: 70 02        	bvs	$25ba <printf+0x595>
    25b8: a2 00        	ldx	#$0
    25ba: 86 16        	stx	$16                     ; 0x2016 <_ZN12_GLOBAL__N_112print_stringEPKcP6Status+0xfd>
    25bc: a5 86        	lda	$86                     ; 0x2086 <printf+0x61>
    25be: 0a           	asl
    25bf: 0a           	asl
    25c0: 0a           	asl
    25c1: 85 12        	sta	$12                     ; 0x2012 <_ZN12_GLOBAL__N_112print_stringEPKcP6Status+0xf9>
    25c3: a2 00        	ldx	#$0
    25c5: 8a           	txa
    25c6: e0 00        	cpx	#$0
    25c8: d0 03        	bne	$25cd <printf+0x5a8>
    25ca: 4c 52 26     	jmp	$2652 <printf+0x62d>
    25cd: 85 17        	sta	$17                     ; 0x2017 <_ZN12_GLOBAL__N_112print_stringEPKcP6Status+0xfe>
    25cf: 86 40        	stx	$40                     ; 0x2040 <printf+0x1b>
    25d1: ca           	dex
    25d2: 86 15        	stx	$15                     ; 0x2015 <_ZN12_GLOBAL__N_112print_stringEPKcP6Status+0xfc>
    25d4: a2 00        	ldx	#$0
    25d6: 64 13        	stz	$13                     ; 0x2013 <_ZN12_GLOBAL__N_112print_stringEPKcP6Status+0xfa>
    25d8: 80 0d        	bra	$25e7 <printf+0x5c2>
    25da: a4 13        	ldy	$13                     ; 0x2013 <_ZN12_GLOBAL__N_112print_stringEPKcP6Status+0xfa>
    25dc: 99 4e 00     	sta	$4e,y                   ; 0x4e <__rc31+0x1f>
    25df: a4 15        	ldy	$15                     ; 0x2015 <_ZN12_GLOBAL__N_112print_stringEPKcP6Status+0xfc>
    25e1: c4 13        	cpy	$13                     ; 0x2013 <_ZN12_GLOBAL__N_112print_stringEPKcP6Status+0xfa>
    25e3: f0 38        	beq	$261d <printf+0x5f8>
    25e5: e6 13        	inc	$13                     ; 0x2013 <_ZN12_GLOBAL__N_112print_stringEPKcP6Status+0xfa>
    25e7: a4 13        	ldy	$13                     ; 0x2013 <_ZN12_GLOBAL__N_112print_stringEPKcP6Status+0xfa>
    25e9: b9 4e 00     	lda	$4e,y                   ; 0x4e <__rc31+0x1f>
    25ec: 0a           	asl
    25ed: e0 00        	cpx	#$0
    25ef: f0 02        	beq	$25f3 <printf+0x5ce>
    25f1: 09 01        	ora	#$1
    25f3: a4 85        	ldy	$85                     ; 0x2085 <printf+0x60>
    25f5: 84 14        	sty	$14                     ; 0x2014 <_ZN12_GLOBAL__N_112print_stringEPKcP6Status+0xfb>
    25f7: c5 14        	cmp	$14                     ; 0x2014 <_ZN12_GLOBAL__N_112print_stringEPKcP6Status+0xfb>
    25f9: a2 01        	ldx	#$1
    25fb: b0 02        	bcs	$25ff <printf+0x5da>
    25fd: a2 00        	ldx	#$0
    25ff: 90 d9        	bcc	$25da <printf+0x5b5>
    2601: 84 14        	sty	$14                     ; 0x2014 <_ZN12_GLOBAL__N_112print_stringEPKcP6Status+0xfb>
    2603: 38           	sec
    2604: e5 14        	sbc	$14                     ; 0x2014 <_ZN12_GLOBAL__N_112print_stringEPKcP6Status+0xfb>
    2606: a4 13        	ldy	$13                     ; 0x2013 <_ZN12_GLOBAL__N_112print_stringEPKcP6Status+0xfa>
    2608: 99 4e 00     	sta	$4e,y                   ; 0x4e <__rc31+0x1f>
    260b: a4 15        	ldy	$15                     ; 0x2015 <_ZN12_GLOBAL__N_112print_stringEPKcP6Status+0xfc>
    260d: c4 13        	cpy	$13                     ; 0x2013 <_ZN12_GLOBAL__N_112print_stringEPKcP6Status+0xfa>
    260f: d0 d4        	bne	$25e5 <printf+0x5c0>
    2611: a4 40        	ldy	$40                     ; 0x2040 <printf+0x1b>
    2613: a6 40        	ldx	$40                     ; 0x2040 <printf+0x1b>
    2615: e8           	inx
    2616: a9 01        	lda	#$1
    2618: 99 4e 00     	sta	$4e,y                   ; 0x4e <__rc31+0x1f>
    261b: 86 40        	stx	$40                     ; 0x2040 <printf+0x1b>
    261d: a6 86        	ldx	$86                     ; 0x2086 <printf+0x61>
    261f: b5 65        	lda	$65,x                   ; 0x2065 <printf+0x40>
    2621: aa           	tax
    2622: a0 01        	ldy	#$1
    2624: 8a           	txa
    2625: 10 47        	bpl	$266e <printf+0x649>
    2627: a5 40        	lda	$40                     ; 0x2040 <printf+0x1b>
    2629: f0 34        	beq	$265f <printf+0x63a>
    262b: a2 00        	ldx	#$0
    262d: a4 85        	ldy	$85                     ; 0x2085 <printf+0x60>
    262f: 84 14        	sty	$14                     ; 0x2014 <_ZN12_GLOBAL__N_112print_stringEPKcP6Status+0xfb>
    2631: b5 4e        	lda	$4e,x                   ; 0x204e <printf+0x29>
    2633: 1a           	inc
    2634: f6 4e        	inc	$4e,x                   ; 0x204e <printf+0x29>
    2636: c5 14        	cmp	$14                     ; 0x2014 <_ZN12_GLOBAL__N_112print_stringEPKcP6Status+0xfb>
    2638: b0 03        	bcs	$263d <printf+0x618>
    263a: 4c 99 26     	jmp	$2699 <printf+0x674>
    263d: a4 14        	ldy	$14                     ; 0x2014 <_ZN12_GLOBAL__N_112print_stringEPKcP6Status+0xfb>
    263f: 84 13        	sty	$13                     ; 0x2013 <_ZN12_GLOBAL__N_112print_stringEPKcP6Status+0xfa>
    2641: 38           	sec
    2642: e5 13        	sbc	$13                     ; 0x2013 <_ZN12_GLOBAL__N_112print_stringEPKcP6Status+0xfa>
    2644: 9d 4e 00     	sta	$4e,x                   ; 0x4e <__rc31+0x1f>
    2647: e8           	inx
    2648: 86 13        	stx	$13                     ; 0x2013 <_ZN12_GLOBAL__N_112print_stringEPKcP6Status+0xfa>
    264a: a4 40        	ldy	$40                     ; 0x2040 <printf+0x1b>
    264c: c4 13        	cpy	$13                     ; 0x2013 <_ZN12_GLOBAL__N_112print_stringEPKcP6Status+0xfa>
    264e: d0 e1        	bne	$2631 <printf+0x60c>
    2650: 80 0f        	bra	$2661 <printf+0x63c>
    2652: 85 17        	sta	$17                     ; 0x2017 <_ZN12_GLOBAL__N_112print_stringEPKcP6Status+0xfe>
    2654: a6 86        	ldx	$86                     ; 0x2086 <printf+0x61>
    2656: b5 65        	lda	$65,x                   ; 0x2065 <printf+0x40>
    2658: aa           	tax
    2659: 64 40        	stz	$40                     ; 0x2040 <printf+0x1b>
    265b: 30 04        	bmi	$2661 <printf+0x63c>
    265d: 80 0f        	bra	$266e <printf+0x649>
    265f: 64 40        	stz	$40                     ; 0x2040 <printf+0x1b>
    2661: a4 40        	ldy	$40                     ; 0x2040 <printf+0x1b>
    2663: a6 40        	ldx	$40                     ; 0x2040 <printf+0x1b>
    2665: e8           	inx
    2666: a9 01        	lda	#$1
    2668: 99 4e 00     	sta	$4e,y                   ; 0x4e <__rc31+0x1f>
    266b: a8           	tay
    266c: 86 40        	stx	$40                     ; 0x2040 <printf+0x1b>
    266e: a2 01        	ldx	#$1
    2670: 64 13        	stz	$13                     ; 0x2013 <_ZN12_GLOBAL__N_112print_stringEPKcP6Status+0xfa>
    2672: a5 86        	lda	$86                     ; 0x2086 <printf+0x61>
    2674: 85 14        	sta	$14                     ; 0x2014 <_ZN12_GLOBAL__N_112print_stringEPKcP6Status+0xfb>
    2676: b5 65        	lda	$65,x                   ; 0x2065 <printf+0x40>
    2678: 0a           	asl
    2679: 64 15        	stz	$15                     ; 0x2015 <_ZN12_GLOBAL__N_112print_stringEPKcP6Status+0xfc>
    267b: 26 15        	rol	$15                     ; 0x2015 <_ZN12_GLOBAL__N_112print_stringEPKcP6Status+0xfc>
    267d: 05 13        	ora	$13                     ; 0x2013 <_ZN12_GLOBAL__N_112print_stringEPKcP6Status+0xfa>
    267f: 9d 65 00     	sta	$65,x                   ; 0x65 <__rc31+0x36>
    2682: e8           	inx
    2683: c6 14        	dec	$14                     ; 0x2014 <_ZN12_GLOBAL__N_112print_stringEPKcP6Status+0xfb>
    2685: a5 15        	lda	$15                     ; 0x2015 <_ZN12_GLOBAL__N_112print_stringEPKcP6Status+0xfc>
    2687: 85 13        	sta	$13                     ; 0x2013 <_ZN12_GLOBAL__N_112print_stringEPKcP6Status+0xfa>
    2689: a5 14        	lda	$14                     ; 0x2014 <_ZN12_GLOBAL__N_112print_stringEPKcP6Status+0xfb>
    268b: d0 e9        	bne	$2676 <printf+0x651>
    268d: a5 17        	lda	$17                     ; 0x2017 <_ZN12_GLOBAL__N_112print_stringEPKcP6Status+0xfe>
    268f: 1a           	inc
    2690: c5 12        	cmp	$12                     ; 0x2012 <_ZN12_GLOBAL__N_112print_stringEPKcP6Status+0xf9>
    2692: a6 40        	ldx	$40                     ; 0x2040 <printf+0x1b>
    2694: b0 07        	bcs	$269d <printf+0x678>
    2696: 4c c6 25     	jmp	$25c6 <printf+0x5a1>
    2699: a0 01        	ldy	#$1
    269b: 80 d1        	bra	$266e <printf+0x649>
    269d: a5 41        	lda	$41                     ; 0x2041 <printf+0x1c>
    269f: e6 49        	inc	$49                     ; 0x2049 <printf+0x24>
    26a1: c6 49        	dec	$49                     ; 0x2049 <printf+0x24>
    26a3: 10 08        	bpl	$26ad <printf+0x688>
    26a5: a2 01        	ldx	#$1
    26a7: 64 49        	stz	$49                     ; 0x2049 <printf+0x24>
    26a9: 86 48        	stx	$48                     ; 0x2048 <printf+0x23>
    26ab: a6 40        	ldx	$40                     ; 0x2040 <printf+0x1b>
    26ad: 29 04        	and	#$4
    26af: f0 2b        	beq	$26dc <printf+0x6b7>
    26b1: a5 85        	lda	$85                     ; 0x2085 <printf+0x60>
    26b3: c9 10        	cmp	#$10
    26b5: f0 14        	beq	$26cb <printf+0x6a6>
    26b7: c9 08        	cmp	#$8
    26b9: d0 21        	bne	$26dc <printf+0x6b7>
    26bb: a2 00        	ldx	#$0
    26bd: e4 49        	cpx	$49                     ; 0x2049 <printf+0x24>
    26bf: f0 03        	beq	$26c4 <printf+0x69f>
    26c1: 4c c6 2b     	jmp	$2bc6 <printf+0xba1>
    26c4: a6 40        	ldx	$40                     ; 0x2040 <printf+0x1b>
    26c6: e4 48        	cpx	$48                     ; 0x2048 <printf+0x23>
    26c8: 4c c8 2b     	jmp	$2bc8 <printf+0xba3>
    26cb: 8a           	txa
    26cc: f0 0e        	beq	$26dc <printf+0x6b7>
    26ce: a5 41        	lda	$41                     ; 0x2041 <printf+0x1c>
    26d0: 29 80        	and	#$80
    26d2: d0 03        	bne	$26d7 <printf+0x6b2>
    26d4: 4c e1 2b     	jmp	$2be1 <printf+0xbbc>
    26d7: a2 78        	ldx	#$78
    26d9: 4c e3 2b     	jmp	$2be3 <printf+0xbbe>
    26dc: a6 41        	ldx	$41                     ; 0x2041 <printf+0x1c>
    26de: a9 2d        	lda	#$2d
    26e0: 85 89        	sta	$89                     ; 0x2089 <printf+0x64>
    26e2: a5 16        	lda	$16                     ; 0x2016 <_ZN12_GLOBAL__N_112print_stringEPKcP6Status+0xfd>
    26e4: d0 32        	bne	$2718 <printf+0x6f3>
    26e6: 86 12        	stx	$12                     ; 0x2012 <_ZN12_GLOBAL__N_112print_stringEPKcP6Status+0xf9>
    26e8: 8a           	txa
    26e9: 29 02        	and	#$2
    26eb: a2 2b        	ldx	#$2b
    26ed: 86 89        	stx	$89                     ; 0x2089 <printf+0x64>
    26ef: aa           	tax
    26f0: d0 26        	bne	$2718 <printf+0x6f3>
    26f2: a5 12        	lda	$12                     ; 0x2012 <_ZN12_GLOBAL__N_112print_stringEPKcP6Status+0xf9>
    26f4: 29 08        	and	#$8
    26f6: d0 1c        	bne	$2714 <printf+0x6ef>
    26f8: a2 01        	ldx	#$1
    26fa: 86 86        	stx	$86                     ; 0x2086 <printf+0x61>
    26fc: a9 00        	lda	#$0
    26fe: aa           	tax
    26ff: 86 85        	stx	$85                     ; 0x2085 <printf+0x60>
    2701: 80 1c        	bra	$271f <printf+0x6fa>
    2703: 85 12        	sta	$12                     ; 0x2012 <_ZN12_GLOBAL__N_112print_stringEPKcP6Status+0xf9>
    2705: a9 04        	lda	#$4
    2707: 80 04        	bra	$270d <printf+0x6e8>
    2709: 85 12        	sta	$12                     ; 0x2012 <_ZN12_GLOBAL__N_112print_stringEPKcP6Status+0xf9>
    270b: a9 02        	lda	#$2
    270d: 85 86        	sta	$86                     ; 0x2086 <printf+0x61>
    270f: a5 12        	lda	$12                     ; 0x2012 <_ZN12_GLOBAL__N_112print_stringEPKcP6Status+0xf9>
    2711: 4c d0 23     	jmp	$23d0 <printf+0x3ab>
    2714: a2 20        	ldx	#$20
    2716: 86 89        	stx	$89                     ; 0x2089 <printf+0x64>
    2718: a2 00        	ldx	#$0
    271a: 86 86        	stx	$86                     ; 0x2086 <printf+0x61>
    271c: 86 85        	stx	$85                     ; 0x2085 <printf+0x60>
    271e: 98           	tya
    271f: a6 49        	ldx	$49                     ; 0x2049 <printf+0x24>
    2721: d0 35        	bne	$2758 <printf+0x733>
    2723: a6 48        	ldx	$48                     ; 0x2048 <printf+0x23>
    2725: a4 40        	ldy	$40                     ; 0x2040 <printf+0x1b>
    2727: 84 12        	sty	$12                     ; 0x2012 <_ZN12_GLOBAL__N_112print_stringEPKcP6Status+0xf9>
    2729: e4 12        	cpx	$12                     ; 0x2012 <_ZN12_GLOBAL__N_112print_stringEPKcP6Status+0xf9>
    272b: a6 48        	ldx	$48                     ; 0x2048 <printf+0x23>
    272d: 86 12        	stx	$12                     ; 0x2012 <_ZN12_GLOBAL__N_112print_stringEPKcP6Status+0xf9>
    272f: a6 49        	ldx	$49                     ; 0x2049 <printf+0x24>
    2731: 86 13        	stx	$13                     ; 0x2013 <_ZN12_GLOBAL__N_112print_stringEPKcP6Status+0xfa>
    2733: b0 04        	bcs	$2739 <printf+0x714>
    2735: 84 12        	sty	$12                     ; 0x2012 <_ZN12_GLOBAL__N_112print_stringEPKcP6Status+0xf9>
    2737: 64 13        	stz	$13                     ; 0x2013 <_ZN12_GLOBAL__N_112print_stringEPKcP6Status+0xfa>
    2739: 85 18        	sta	$18                     ; 0x2018 <_ZN12_GLOBAL__N_112print_stringEPKcP6Status+0xff>
    273b: 18           	clc
    273c: 65 12        	adc	$12                     ; 0x2012 <_ZN12_GLOBAL__N_112print_stringEPKcP6Status+0xf9>
    273e: 85 16        	sta	$16                     ; 0x2016 <_ZN12_GLOBAL__N_112print_stringEPKcP6Status+0xfd>
    2740: 85 14        	sta	$14                     ; 0x2014 <_ZN12_GLOBAL__N_112print_stringEPKcP6Status+0xfb>
    2742: a5 13        	lda	$13                     ; 0x2013 <_ZN12_GLOBAL__N_112print_stringEPKcP6Status+0xfa>
    2744: 69 00        	adc	#$0
    2746: 85 15        	sta	$15                     ; 0x2015 <_ZN12_GLOBAL__N_112print_stringEPKcP6Status+0xfc>
    2748: c5 1a        	cmp	$1a                     ; 0x201a <_ZN12_GLOBAL__N_112print_stringEPKcP6Status+0x101>
    274a: d0 1e        	bne	$276a <printf+0x745>
    274c: a6 1a        	ldx	$1a                     ; 0x201a <_ZN12_GLOBAL__N_112print_stringEPKcP6Status+0x101>
    274e: 86 17        	stx	$17                     ; 0x2017 <_ZN12_GLOBAL__N_112print_stringEPKcP6Status+0xfe>
    2750: a6 4a        	ldx	$4a                     ; 0x204a <printf+0x25>
    2752: a5 16        	lda	$16                     ; 0x2016 <_ZN12_GLOBAL__N_112print_stringEPKcP6Status+0xfd>
    2754: c5 4a        	cmp	$4a                     ; 0x204a <printf+0x25>
    2756: 80 1c        	bra	$2774 <printf+0x74f>
    2758: a6 49        	ldx	$49                     ; 0x2049 <printf+0x24>
    275a: e0 00        	cpx	#$0
    275c: a6 48        	ldx	$48                     ; 0x2048 <printf+0x23>
    275e: 86 12        	stx	$12                     ; 0x2012 <_ZN12_GLOBAL__N_112print_stringEPKcP6Status+0xf9>
    2760: a6 49        	ldx	$49                     ; 0x2049 <printf+0x24>
    2762: 86 13        	stx	$13                     ; 0x2013 <_ZN12_GLOBAL__N_112print_stringEPKcP6Status+0xfa>
    2764: a4 40        	ldy	$40                     ; 0x2040 <printf+0x1b>
    2766: 90 cd        	bcc	$2735 <printf+0x710>
    2768: 80 cf        	bra	$2739 <printf+0x714>
    276a: a6 4a        	ldx	$4a                     ; 0x204a <printf+0x25>
    276c: 5a           	phy
    276d: a4 1a        	ldy	$1a                     ; 0x201a <_ZN12_GLOBAL__N_112print_stringEPKcP6Status+0x101>
    276f: 84 17        	sty	$17                     ; 0x2017 <_ZN12_GLOBAL__N_112print_stringEPKcP6Status+0xfe>
    2771: 7a           	ply
    2772: c5 1a        	cmp	$1a                     ; 0x201a <_ZN12_GLOBAL__N_112print_stringEPKcP6Status+0x101>
    2774: 64 4b        	stz	$4b                     ; 0x204b <printf+0x26>
    2776: 64 4a        	stz	$4a                     ; 0x204a <printf+0x25>
    2778: 90 03        	bcc	$277d <printf+0x758>
    277a: 4c 18 28     	jmp	$2818 <printf+0x7f3>
    277d: a5 41        	lda	$41                     ; 0x2041 <printf+0x1c>
    277f: 29 11        	and	#$11
    2781: 86 16        	stx	$16                     ; 0x2016 <_ZN12_GLOBAL__N_112print_stringEPKcP6Status+0xfd>
    2783: f0 0f        	beq	$2794 <printf+0x76f>
    2785: 8a           	txa
    2786: 38           	sec
    2787: e5 14        	sbc	$14                     ; 0x2014 <_ZN12_GLOBAL__N_112print_stringEPKcP6Status+0xfb>
    2789: 85 4b        	sta	$4b                     ; 0x204b <printf+0x26>
    278b: a5 1a        	lda	$1a                     ; 0x201a <_ZN12_GLOBAL__N_112print_stringEPKcP6Status+0x101>
    278d: e5 15        	sbc	$15                     ; 0x2015 <_ZN12_GLOBAL__N_112print_stringEPKcP6Status+0xfc>
    278f: 85 4a        	sta	$4a                     ; 0x204a <printf+0x25>
    2791: 4c 18 28     	jmp	$2818 <printf+0x7f3>
    2794: a6 75        	ldx	$75                     ; 0x2075 <printf+0x50>
    2796: 86 14        	stx	$14                     ; 0x2014 <_ZN12_GLOBAL__N_112print_stringEPKcP6Status+0xfb>
    2798: 38           	sec
    2799: a5 18        	lda	$18                     ; 0x2018 <_ZN12_GLOBAL__N_112print_stringEPKcP6Status+0xff>
    279b: e5 16        	sbc	$16                     ; 0x2016 <_ZN12_GLOBAL__N_112print_stringEPKcP6Status+0xfd>
    279d: a8           	tay
    279e: a9 00        	lda	#$0
    27a0: e5 17        	sbc	$17                     ; 0x2017 <_ZN12_GLOBAL__N_112print_stringEPKcP6Status+0xfe>
    27a2: aa           	tax
    27a3: 18           	clc
    27a4: 98           	tya
    27a5: 65 12        	adc	$12                     ; 0x2012 <_ZN12_GLOBAL__N_112print_stringEPKcP6Status+0xf9>
    27a7: 85 41        	sta	$41                     ; 0x2041 <printf+0x1c>
    27a9: 8a           	txa
    27aa: 65 13        	adc	$13                     ; 0x2013 <_ZN12_GLOBAL__N_112print_stringEPKcP6Status+0xfa>
    27ac: 85 4a        	sta	$4a                     ; 0x204a <printf+0x25>
    27ae: a5 76        	lda	$76                     ; 0x2076 <printf+0x51>
    27b0: 80 4e        	bra	$2800 <printf+0x7db>
    27b2: c5 74        	cmp	$74                     ; 0x2074 <printf+0x4f>
    27b4: a4 4a        	ldy	$4a                     ; 0x204a <printf+0x25>
    27b6: b0 28        	bcs	$27e0 <printf+0x7bb>
    27b8: a6 80        	ldx	$80                     ; 0x2080 <printf+0x5b>
    27ba: e4 45        	cpx	$45                     ; 0x2045 <printf+0x20>
    27bc: d0 19        	bne	$27d7 <printf+0x7b2>
    27be: a6 7f        	ldx	$7f                     ; 0x207f <printf+0x5a>
    27c0: e4 44        	cpx	$44                     ; 0x2044 <printf+0x1f>
    27c2: d0 13        	bne	$27d7 <printf+0x7b2>
    27c4: 18           	clc
    27c5: aa           	tax
    27c6: a5 14        	lda	$14                     ; 0x2014 <_ZN12_GLOBAL__N_112print_stringEPKcP6Status+0xfb>
    27c8: 65 79        	adc	$79                     ; 0x2079 <printf+0x54>
    27ca: 85 12        	sta	$12                     ; 0x2012 <_ZN12_GLOBAL__N_112print_stringEPKcP6Status+0xf9>
    27cc: 8a           	txa
    27cd: 65 7a        	adc	$7a                     ; 0x207a <printf+0x55>
    27cf: 85 13        	sta	$13                     ; 0x2013 <_ZN12_GLOBAL__N_112print_stringEPKcP6Status+0xfa>
    27d1: a9 20        	lda	#$20
    27d3: 92 12        	sta	($12)                   ; 0x2012 <_ZN12_GLOBAL__N_112print_stringEPKcP6Status+0xf9>
    27d5: 80 07        	bra	$27de <printf+0x7b9>
    27d7: a2 00        	ldx	#$0
    27d9: a9 20        	lda	#$20
    27db: 20 fe 2b     	jsr	$2bfe <putchar>
    27de: a4 4a        	ldy	$4a                     ; 0x204a <printf+0x25>
    27e0: a6 75        	ldx	$75                     ; 0x2075 <printf+0x50>
    27e2: a5 76        	lda	$76                     ; 0x2076 <printf+0x51>
    27e4: e8           	inx
    27e5: d0 01        	bne	$27e8 <printf+0x7c3>
    27e7: 1a           	inc
    27e8: 86 14        	stx	$14                     ; 0x2014 <_ZN12_GLOBAL__N_112print_stringEPKcP6Status+0xfb>
    27ea: 86 75        	stx	$75                     ; 0x2075 <printf+0x50>
    27ec: 85 76        	sta	$76                     ; 0x2076 <printf+0x51>
    27ee: a6 41        	ldx	$41                     ; 0x2041 <printf+0x1c>
    27f0: e8           	inx
    27f1: d0 01        	bne	$27f4 <printf+0x7cf>
    27f3: c8           	iny
    27f4: 86 41        	stx	$41                     ; 0x2041 <printf+0x1c>
    27f6: 84 4a        	sty	$4a                     ; 0x204a <printf+0x25>
    27f8: c0 00        	cpy	#$0
    27fa: d0 04        	bne	$2800 <printf+0x7db>
    27fc: e0 00        	cpx	#$0
    27fe: f0 12        	beq	$2812 <printf+0x7ed>
    2800: c5 74        	cmp	$74                     ; 0x2074 <printf+0x4f>
    2802: f0 03        	beq	$2807 <printf+0x7e2>
    2804: 4c b2 27     	jmp	$27b2 <printf+0x78d>
    2807: a6 73        	ldx	$73                     ; 0x2073 <printf+0x4e>
    2809: 86 12        	stx	$12                     ; 0x2012 <_ZN12_GLOBAL__N_112print_stringEPKcP6Status+0xf9>
    280b: a6 14        	ldx	$14                     ; 0x2014 <_ZN12_GLOBAL__N_112print_stringEPKcP6Status+0xfb>
    280d: e4 12        	cpx	$12                     ; 0x2012 <_ZN12_GLOBAL__N_112print_stringEPKcP6Status+0xf9>
    280f: 4c b4 27     	jmp	$27b4 <printf+0x78f>
    2812: 64 4b        	stz	$4b                     ; 0x204b <printf+0x26>
    2814: 64 4a        	stz	$4a                     ; 0x204a <printf+0x25>
    2816: a4 40        	ldy	$40                     ; 0x2040 <printf+0x1b>
    2818: a6 86        	ldx	$86                     ; 0x2086 <printf+0x61>
    281a: d0 4f        	bne	$286b <printf+0x846>
    281c: a6 75        	ldx	$75                     ; 0x2075 <printf+0x50>
    281e: a5 76        	lda	$76                     ; 0x2076 <printf+0x51>
    2820: c5 74        	cmp	$74                     ; 0x2074 <printf+0x4f>
    2822: d0 10        	bne	$2834 <printf+0x80f>
    2824: 86 13        	stx	$13                     ; 0x2013 <_ZN12_GLOBAL__N_112print_stringEPKcP6Status+0xfa>
    2826: a6 73        	ldx	$73                     ; 0x2073 <printf+0x4e>
    2828: 86 12        	stx	$12                     ; 0x2012 <_ZN12_GLOBAL__N_112print_stringEPKcP6Status+0xf9>
    282a: a4 40        	ldy	$40                     ; 0x2040 <printf+0x1b>
    282c: a6 13        	ldx	$13                     ; 0x2013 <_ZN12_GLOBAL__N_112print_stringEPKcP6Status+0xfa>
    282e: e4 12        	cpx	$12                     ; 0x2012 <_ZN12_GLOBAL__N_112print_stringEPKcP6Status+0xf9>
    2830: 90 08        	bcc	$283a <printf+0x815>
    2832: 80 31        	bra	$2865 <printf+0x840>
    2834: 86 13        	stx	$13                     ; 0x2013 <_ZN12_GLOBAL__N_112print_stringEPKcP6Status+0xfa>
    2836: c5 74        	cmp	$74                     ; 0x2074 <printf+0x4f>
    2838: b0 2b        	bcs	$2865 <printf+0x840>
    283a: a6 80        	ldx	$80                     ; 0x2080 <printf+0x5b>
    283c: e4 45        	cpx	$45                     ; 0x2045 <printf+0x20>
    283e: d0 1c        	bne	$285c <printf+0x837>
    2840: a6 7f        	ldx	$7f                     ; 0x207f <printf+0x5a>
    2842: e4 44        	cpx	$44                     ; 0x2044 <printf+0x1f>
    2844: d0 16        	bne	$285c <printf+0x837>
    2846: 18           	clc
    2847: 85 12        	sta	$12                     ; 0x2012 <_ZN12_GLOBAL__N_112print_stringEPKcP6Status+0xf9>
    2849: a5 13        	lda	$13                     ; 0x2013 <_ZN12_GLOBAL__N_112print_stringEPKcP6Status+0xfa>
    284b: 65 79        	adc	$79                     ; 0x2079 <printf+0x54>
    284d: aa           	tax
    284e: a5 12        	lda	$12                     ; 0x2012 <_ZN12_GLOBAL__N_112print_stringEPKcP6Status+0xf9>
    2850: 65 7a        	adc	$7a                     ; 0x207a <printf+0x55>
    2852: 86 12        	stx	$12                     ; 0x2012 <_ZN12_GLOBAL__N_112print_stringEPKcP6Status+0xf9>
    2854: 85 13        	sta	$13                     ; 0x2013 <_ZN12_GLOBAL__N_112print_stringEPKcP6Status+0xfa>
    2856: a5 89        	lda	$89                     ; 0x2089 <printf+0x64>
    2858: 92 12        	sta	($12)                   ; 0x2012 <_ZN12_GLOBAL__N_112print_stringEPKcP6Status+0xf9>
    285a: 80 07        	bra	$2863 <printf+0x83e>
    285c: a2 00        	ldx	#$0
    285e: a5 89        	lda	$89                     ; 0x2089 <printf+0x64>
    2860: 20 fe 2b     	jsr	$2bfe <putchar>
    2863: a4 40        	ldy	$40                     ; 0x2040 <printf+0x1b>
    2865: e6 75        	inc	$75                     ; 0x2075 <printf+0x50>
    2867: d0 02        	bne	$286b <printf+0x846>
    2869: e6 76        	inc	$76                     ; 0x2076 <printf+0x51>
    286b: a6 85        	ldx	$85                     ; 0x2085 <printf+0x60>
    286d: f0 4f        	beq	$28be <printf+0x899>
    286f: a6 75        	ldx	$75                     ; 0x2075 <printf+0x50>
    2871: a5 76        	lda	$76                     ; 0x2076 <printf+0x51>
    2873: c5 74        	cmp	$74                     ; 0x2074 <printf+0x4f>
    2875: d0 10        	bne	$2887 <printf+0x862>
    2877: 86 13        	stx	$13                     ; 0x2013 <_ZN12_GLOBAL__N_112print_stringEPKcP6Status+0xfa>
    2879: a6 73        	ldx	$73                     ; 0x2073 <printf+0x4e>
    287b: 86 12        	stx	$12                     ; 0x2012 <_ZN12_GLOBAL__N_112print_stringEPKcP6Status+0xf9>
    287d: a4 40        	ldy	$40                     ; 0x2040 <printf+0x1b>
    287f: a6 13        	ldx	$13                     ; 0x2013 <_ZN12_GLOBAL__N_112print_stringEPKcP6Status+0xfa>
    2881: e4 12        	cpx	$12                     ; 0x2012 <_ZN12_GLOBAL__N_112print_stringEPKcP6Status+0xf9>
    2883: 90 08        	bcc	$288d <printf+0x868>
    2885: 80 31        	bra	$28b8 <printf+0x893>
    2887: 86 13        	stx	$13                     ; 0x2013 <_ZN12_GLOBAL__N_112print_stringEPKcP6Status+0xfa>
    2889: c5 74        	cmp	$74                     ; 0x2074 <printf+0x4f>
    288b: b0 2b        	bcs	$28b8 <printf+0x893>
    288d: a6 80        	ldx	$80                     ; 0x2080 <printf+0x5b>
    288f: e4 45        	cpx	$45                     ; 0x2045 <printf+0x20>
    2891: d0 1c        	bne	$28af <printf+0x88a>
    2893: a6 7f        	ldx	$7f                     ; 0x207f <printf+0x5a>
    2895: e4 44        	cpx	$44                     ; 0x2044 <printf+0x1f>
    2897: d0 16        	bne	$28af <printf+0x88a>
    2899: 18           	clc
    289a: 85 12        	sta	$12                     ; 0x2012 <_ZN12_GLOBAL__N_112print_stringEPKcP6Status+0xf9>
    289c: a5 13        	lda	$13                     ; 0x2013 <_ZN12_GLOBAL__N_112print_stringEPKcP6Status+0xfa>
    289e: 65 79        	adc	$79                     ; 0x2079 <printf+0x54>
    28a0: aa           	tax
    28a1: a5 12        	lda	$12                     ; 0x2012 <_ZN12_GLOBAL__N_112print_stringEPKcP6Status+0xf9>
    28a3: 65 7a        	adc	$7a                     ; 0x207a <printf+0x55>
    28a5: 86 12        	stx	$12                     ; 0x2012 <_ZN12_GLOBAL__N_112print_stringEPKcP6Status+0xf9>
    28a7: 85 13        	sta	$13                     ; 0x2013 <_ZN12_GLOBAL__N_112print_stringEPKcP6Status+0xfa>
    28a9: a5 8a        	lda	$8a                     ; 0x208a <printf+0x65>
    28ab: 92 12        	sta	($12)                   ; 0x2012 <_ZN12_GLOBAL__N_112print_stringEPKcP6Status+0xf9>
    28ad: 80 07        	bra	$28b6 <printf+0x891>
    28af: a2 00        	ldx	#$0
    28b1: a5 8a        	lda	$8a                     ; 0x208a <printf+0x65>
    28b3: 20 fe 2b     	jsr	$2bfe <putchar>
    28b6: a4 40        	ldy	$40                     ; 0x2040 <printf+0x1b>
    28b8: e6 75        	inc	$75                     ; 0x2075 <printf+0x50>
    28ba: d0 02        	bne	$28be <printf+0x899>
    28bc: e6 76        	inc	$76                     ; 0x2076 <printf+0x51>
    28be: a9 10        	lda	#$10
    28c0: 25 71        	and	$71                     ; 0x2071 <printf+0x4c>
    28c2: d0 03        	bne	$28c7 <printf+0x8a2>
    28c4: 4c 50 29     	jmp	$2950 <printf+0x92b>
    28c7: a5 71        	lda	$71                     ; 0x2071 <printf+0x4c>
    28c9: 29 01        	and	#$1
    28cb: f0 03        	beq	$28d0 <printf+0x8ab>
    28cd: 4c 50 29     	jmp	$2950 <printf+0x92b>
    28d0: a6 4b        	ldx	$4b                     ; 0x204b <printf+0x26>
    28d2: a5 4a        	lda	$4a                     ; 0x204a <printf+0x25>
    28d4: d0 06        	bne	$28dc <printf+0x8b7>
    28d6: 8a           	txa
    28d7: d0 03        	bne	$28dc <printf+0x8b7>
    28d9: 4c f6 2b     	jmp	$2bf6 <printf+0xbd1>
    28dc: a6 75        	ldx	$75                     ; 0x2075 <printf+0x50>
    28de: 86 13        	stx	$13                     ; 0x2013 <_ZN12_GLOBAL__N_112print_stringEPKcP6Status+0xfa>
    28e0: a5 76        	lda	$76                     ; 0x2076 <printf+0x51>
    28e2: 4c 36 29     	jmp	$2936 <printf+0x911>
    28e5: c5 74        	cmp	$74                     ; 0x2074 <printf+0x4f>
    28e7: b0 26        	bcs	$290f <printf+0x8ea>
    28e9: a6 80        	ldx	$80                     ; 0x2080 <printf+0x5b>
    28eb: e4 45        	cpx	$45                     ; 0x2045 <printf+0x20>
    28ed: d0 19        	bne	$2908 <printf+0x8e3>
    28ef: a6 7f        	ldx	$7f                     ; 0x207f <printf+0x5a>
    28f1: e4 44        	cpx	$44                     ; 0x2044 <printf+0x1f>
    28f3: d0 13        	bne	$2908 <printf+0x8e3>
    28f5: 18           	clc
    28f6: aa           	tax
    28f7: a5 13        	lda	$13                     ; 0x2013 <_ZN12_GLOBAL__N_112print_stringEPKcP6Status+0xfa>
    28f9: 65 79        	adc	$79                     ; 0x2079 <printf+0x54>
    28fb: 85 12        	sta	$12                     ; 0x2012 <_ZN12_GLOBAL__N_112print_stringEPKcP6Status+0xf9>
    28fd: 8a           	txa
    28fe: 65 7a        	adc	$7a                     ; 0x207a <printf+0x55>
    2900: 85 13        	sta	$13                     ; 0x2013 <_ZN12_GLOBAL__N_112print_stringEPKcP6Status+0xfa>
    2902: a9 30        	lda	#$30
    2904: 92 12        	sta	($12)                   ; 0x2012 <_ZN12_GLOBAL__N_112print_stringEPKcP6Status+0xf9>
    2906: 80 07        	bra	$290f <printf+0x8ea>
    2908: a2 00        	ldx	#$0
    290a: a9 30        	lda	#$30
    290c: 20 fe 2b     	jsr	$2bfe <putchar>
    290f: a6 75        	ldx	$75                     ; 0x2075 <printf+0x50>
    2911: a5 76        	lda	$76                     ; 0x2076 <printf+0x51>
    2913: e8           	inx
    2914: d0 01        	bne	$2917 <printf+0x8f2>
    2916: 1a           	inc
    2917: 86 13        	stx	$13                     ; 0x2013 <_ZN12_GLOBAL__N_112print_stringEPKcP6Status+0xfa>
    2919: 86 75        	stx	$75                     ; 0x2075 <printf+0x50>
    291b: 85 76        	sta	$76                     ; 0x2076 <printf+0x51>
    291d: a4 4b        	ldy	$4b                     ; 0x204b <printf+0x26>
    291f: a6 4a        	ldx	$4a                     ; 0x204a <printf+0x25>
    2921: 86 12        	stx	$12                     ; 0x2012 <_ZN12_GLOBAL__N_112print_stringEPKcP6Status+0xf9>
    2923: 88           	dey
    2924: c0 ff        	cpy	#$ff
    2926: d0 02        	bne	$292a <printf+0x905>
    2928: c6 12        	dec	$12                     ; 0x2012 <_ZN12_GLOBAL__N_112print_stringEPKcP6Status+0xf9>
    292a: 84 4b        	sty	$4b                     ; 0x204b <printf+0x26>
    292c: a6 12        	ldx	$12                     ; 0x2012 <_ZN12_GLOBAL__N_112print_stringEPKcP6Status+0xf9>
    292e: 86 4a        	stx	$4a                     ; 0x204a <printf+0x25>
    2930: d0 04        	bne	$2936 <printf+0x911>
    2932: c0 00        	cpy	#$0
    2934: f0 14        	beq	$294a <printf+0x925>
    2936: c5 74        	cmp	$74                     ; 0x2074 <printf+0x4f>
    2938: f0 03        	beq	$293d <printf+0x918>
    293a: 4c e5 28     	jmp	$28e5 <printf+0x8c0>
    293d: a6 73        	ldx	$73                     ; 0x2073 <printf+0x4e>
    293f: 86 12        	stx	$12                     ; 0x2012 <_ZN12_GLOBAL__N_112print_stringEPKcP6Status+0xf9>
    2941: a6 13        	ldx	$13                     ; 0x2013 <_ZN12_GLOBAL__N_112print_stringEPKcP6Status+0xfa>
    2943: e4 12        	cpx	$12                     ; 0x2012 <_ZN12_GLOBAL__N_112print_stringEPKcP6Status+0xf9>
    2945: b0 c8        	bcs	$290f <printf+0x8ea>
    2947: 4c e9 28     	jmp	$28e9 <printf+0x8c4>
    294a: 64 4b        	stz	$4b                     ; 0x204b <printf+0x26>
    294c: 64 4a        	stz	$4a                     ; 0x204a <printf+0x25>
    294e: a4 40        	ldy	$40                     ; 0x2040 <printf+0x1b>
    2950: a2 00        	ldx	#$0
    2952: e4 49        	cpx	$49                     ; 0x2049 <printf+0x24>
    2954: d0 07        	bne	$295d <printf+0x938>
    2956: c4 48        	cpy	$48                     ; 0x2048 <printf+0x23>
    2958: 90 0a        	bcc	$2964 <printf+0x93f>
    295a: 4c d4 29     	jmp	$29d4 <printf+0x9af>
    295d: e4 49        	cpx	$49                     ; 0x2049 <printf+0x24>
    295f: 90 03        	bcc	$2964 <printf+0x93f>
    2961: 4c d4 29     	jmp	$29d4 <printf+0x9af>
    2964: a6 75        	ldx	$75                     ; 0x2075 <printf+0x50>
    2966: 86 13        	stx	$13                     ; 0x2013 <_ZN12_GLOBAL__N_112print_stringEPKcP6Status+0xfa>
    2968: a5 76        	lda	$76                     ; 0x2076 <printf+0x51>
    296a: a2 ff        	ldx	#$ff
    296c: c6 48        	dec	$48                     ; 0x2048 <printf+0x23>
    296e: e4 48        	cpx	$48                     ; 0x2048 <printf+0x23>
    2970: d0 02        	bne	$2974 <printf+0x94f>
    2972: c6 49        	dec	$49                     ; 0x2049 <printf+0x24>
    2974: c5 74        	cmp	$74                     ; 0x2074 <printf+0x4f>
    2976: d0 0c        	bne	$2984 <printf+0x95f>
    2978: a6 73        	ldx	$73                     ; 0x2073 <printf+0x4e>
    297a: 86 12        	stx	$12                     ; 0x2012 <_ZN12_GLOBAL__N_112print_stringEPKcP6Status+0xf9>
    297c: a6 13        	ldx	$13                     ; 0x2013 <_ZN12_GLOBAL__N_112print_stringEPKcP6Status+0xfa>
    297e: e4 12        	cpx	$12                     ; 0x2012 <_ZN12_GLOBAL__N_112print_stringEPKcP6Status+0xf9>
    2980: 90 06        	bcc	$2988 <printf+0x963>
    2982: 80 2a        	bra	$29ae <printf+0x989>
    2984: c5 74        	cmp	$74                     ; 0x2074 <printf+0x4f>
    2986: b0 26        	bcs	$29ae <printf+0x989>
    2988: a6 80        	ldx	$80                     ; 0x2080 <printf+0x5b>
    298a: e4 45        	cpx	$45                     ; 0x2045 <printf+0x20>
    298c: d0 19        	bne	$29a7 <printf+0x982>
    298e: a6 7f        	ldx	$7f                     ; 0x207f <printf+0x5a>
    2990: e4 44        	cpx	$44                     ; 0x2044 <printf+0x1f>
    2992: d0 13        	bne	$29a7 <printf+0x982>
    2994: 18           	clc
    2995: aa           	tax
    2996: a5 13        	lda	$13                     ; 0x2013 <_ZN12_GLOBAL__N_112print_stringEPKcP6Status+0xfa>
    2998: 65 79        	adc	$79                     ; 0x2079 <printf+0x54>
    299a: 85 12        	sta	$12                     ; 0x2012 <_ZN12_GLOBAL__N_112print_stringEPKcP6Status+0xf9>
    299c: 8a           	txa
    299d: 65 7a        	adc	$7a                     ; 0x207a <printf+0x55>
    299f: 85 13        	sta	$13                     ; 0x2013 <_ZN12_GLOBAL__N_112print_stringEPKcP6Status+0xfa>
    29a1: a9 30        	lda	#$30
    29a3: 92 12        	sta	($12)                   ; 0x2012 <_ZN12_GLOBAL__N_112print_stringEPKcP6Status+0xf9>
    29a5: 80 07        	bra	$29ae <printf+0x989>
    29a7: a2 00        	ldx	#$0
    29a9: a9 30        	lda	#$30
    29ab: 20 fe 2b     	jsr	$2bfe <putchar>
    29ae: a6 75        	ldx	$75                     ; 0x2075 <printf+0x50>
    29b0: a5 76        	lda	$76                     ; 0x2076 <printf+0x51>
    29b2: e8           	inx
    29b3: d0 01        	bne	$29b6 <printf+0x991>
    29b5: 1a           	inc
    29b6: 86 13        	stx	$13                     ; 0x2013 <_ZN12_GLOBAL__N_112print_stringEPKcP6Status+0xfa>
    29b8: 86 75        	stx	$75                     ; 0x2075 <printf+0x50>
    29ba: 85 76        	sta	$76                     ; 0x2076 <printf+0x51>
    29bc: a2 00        	ldx	#$0
    29be: e4 49        	cpx	$49                     ; 0x2049 <printf+0x24>
    29c0: d0 09        	bne	$29cb <printf+0x9a6>
    29c2: a4 40        	ldy	$40                     ; 0x2040 <printf+0x1b>
    29c4: c4 48        	cpy	$48                     ; 0x2048 <printf+0x23>
    29c6: b0 0c        	bcs	$29d4 <printf+0x9af>
    29c8: 4c 6a 29     	jmp	$296a <printf+0x945>
    29cb: e4 49        	cpx	$49                     ; 0x2049 <printf+0x24>
    29cd: a4 40        	ldy	$40                     ; 0x2040 <printf+0x1b>
    29cf: b0 03        	bcs	$29d4 <printf+0x9af>
    29d1: 4c 6a 29     	jmp	$296a <printf+0x945>
    29d4: 98           	tya
    29d5: d0 03        	bne	$29da <printf+0x9b5>
    29d7: 4c cd 2a     	jmp	$2acd <printf+0xaa8>
    29da: 88           	dey
    29db: d0 03        	bne	$29e0 <printf+0x9bb>
    29dd: 4c 6a 2a     	jmp	$2a6a <printf+0xa45>
    29e0: 84 48        	sty	$48                     ; 0x2048 <printf+0x23>
    29e2: a6 8b        	ldx	$8b                     ; 0x208b <printf+0x66>
    29e4: 8a           	txa
    29e5: 18           	clc
    29e6: 65 48        	adc	$48                     ; 0x2048 <printf+0x23>
    29e8: 85 40        	sta	$40                     ; 0x2040 <printf+0x1b>
    29ea: a5 8c        	lda	$8c                     ; 0x208c <printf+0x67>
    29ec: 69 00        	adc	#$0
    29ee: 85 41        	sta	$41                     ; 0x2041 <printf+0x1c>
    29f0: 4c 5c 2a     	jmp	$2a5c <printf+0xa37>
    29f3: a8           	tay
    29f4: a9 80        	lda	#$80
    29f6: 25 71        	and	$71                     ; 0x2071 <printf+0x4c>
    29f8: f0 04        	beq	$29fe <printf+0x9d9>
    29fa: a2 61        	ldx	#$61
    29fc: 80 02        	bra	$2a00 <printf+0x9db>
    29fe: a2 41        	ldx	#$41
    2a00: 86 12        	stx	$12                     ; 0x2012 <_ZN12_GLOBAL__N_112print_stringEPKcP6Status+0xf9>
    2a02: 18           	clc
    2a03: 98           	tya
    2a04: 65 12        	adc	$12                     ; 0x2012 <_ZN12_GLOBAL__N_112print_stringEPKcP6Status+0xf9>
    2a06: 18           	clc
    2a07: 69 f6        	adc	#$f6
    2a09: a4 75        	ldy	$75                     ; 0x2075 <printf+0x50>
    2a0b: a6 76        	ldx	$76                     ; 0x2076 <printf+0x51>
    2a0d: e4 74        	cpx	$74                     ; 0x2074 <printf+0x4f>
    2a0f: d0 0c        	bne	$2a1d <printf+0x9f8>
    2a11: 86 14        	stx	$14                     ; 0x2014 <_ZN12_GLOBAL__N_112print_stringEPKcP6Status+0xfb>
    2a13: a6 73        	ldx	$73                     ; 0x2073 <printf+0x4e>
    2a15: 86 12        	stx	$12                     ; 0x2012 <_ZN12_GLOBAL__N_112print_stringEPKcP6Status+0xf9>
    2a17: c4 12        	cpy	$12                     ; 0x2012 <_ZN12_GLOBAL__N_112print_stringEPKcP6Status+0xf9>
    2a19: 90 08        	bcc	$2a23 <printf+0x9fe>
    2a1b: 80 29        	bra	$2a46 <printf+0xa21>
    2a1d: 86 14        	stx	$14                     ; 0x2014 <_ZN12_GLOBAL__N_112print_stringEPKcP6Status+0xfb>
    2a1f: e4 74        	cpx	$74                     ; 0x2074 <printf+0x4f>
    2a21: b0 23        	bcs	$2a46 <printf+0xa21>
    2a23: a6 80        	ldx	$80                     ; 0x2080 <printf+0x5b>
    2a25: e4 45        	cpx	$45                     ; 0x2045 <printf+0x20>
    2a27: d0 18        	bne	$2a41 <printf+0xa1c>
    2a29: a6 7f        	ldx	$7f                     ; 0x207f <printf+0x5a>
    2a2b: e4 44        	cpx	$44                     ; 0x2044 <printf+0x1f>
    2a2d: d0 12        	bne	$2a41 <printf+0xa1c>
    2a2f: 18           	clc
    2a30: aa           	tax
    2a31: 98           	tya
    2a32: 65 79        	adc	$79                     ; 0x2079 <printf+0x54>
    2a34: 85 12        	sta	$12                     ; 0x2012 <_ZN12_GLOBAL__N_112print_stringEPKcP6Status+0xf9>
    2a36: a5 14        	lda	$14                     ; 0x2014 <_ZN12_GLOBAL__N_112print_stringEPKcP6Status+0xfb>
    2a38: 65 7a        	adc	$7a                     ; 0x207a <printf+0x55>
    2a3a: 85 13        	sta	$13                     ; 0x2013 <_ZN12_GLOBAL__N_112print_stringEPKcP6Status+0xfa>
    2a3c: 8a           	txa
    2a3d: 92 12        	sta	($12)                   ; 0x2012 <_ZN12_GLOBAL__N_112print_stringEPKcP6Status+0xf9>
    2a3f: 80 05        	bra	$2a46 <printf+0xa21>
    2a41: a2 00        	ldx	#$0
    2a43: 20 fe 2b     	jsr	$2bfe <putchar>
    2a46: e6 75        	inc	$75                     ; 0x2075 <printf+0x50>
    2a48: d0 02        	bne	$2a4c <printf+0xa27>
    2a4a: e6 76        	inc	$76                     ; 0x2076 <printf+0x51>
    2a4c: c6 48        	dec	$48                     ; 0x2048 <printf+0x23>
    2a4e: a2 ff        	ldx	#$ff
    2a50: c6 40        	dec	$40                     ; 0x2040 <printf+0x1b>
    2a52: e4 40        	cpx	$40                     ; 0x2040 <printf+0x1b>
    2a54: d0 02        	bne	$2a58 <printf+0xa33>
    2a56: c6 41        	dec	$41                     ; 0x2041 <printf+0x1c>
    2a58: a5 48        	lda	$48                     ; 0x2048 <printf+0x23>
    2a5a: f0 0e        	beq	$2a6a <printf+0xa45>
    2a5c: b2 40        	lda	($40)                   ; 0x2040 <printf+0x1b>
    2a5e: c9 0a        	cmp	#$a
    2a60: 90 03        	bcc	$2a65 <printf+0xa40>
    2a62: 4c f3 29     	jmp	$29f3 <printf+0x9ce>
    2a65: 09 30        	ora	#$30
    2a67: 4c 09 2a     	jmp	$2a09 <printf+0x9e4>
    2a6a: a5 4e        	lda	$4e                     ; 0x204e <printf+0x29>
    2a6c: c9 0a        	cmp	#$a
    2a6e: b0 04        	bcs	$2a74 <printf+0xa4f>
    2a70: 09 30        	ora	#$30
    2a72: 80 16        	bra	$2a8a <printf+0xa65>
    2a74: a8           	tay
    2a75: a9 80        	lda	#$80
    2a77: 25 71        	and	$71                     ; 0x2071 <printf+0x4c>
    2a79: f0 04        	beq	$2a7f <printf+0xa5a>
    2a7b: a2 61        	ldx	#$61
    2a7d: 80 02        	bra	$2a81 <printf+0xa5c>
    2a7f: a2 41        	ldx	#$41
    2a81: 86 12        	stx	$12                     ; 0x2012 <_ZN12_GLOBAL__N_112print_stringEPKcP6Status+0xf9>
    2a83: 18           	clc
    2a84: 98           	tya
    2a85: 65 12        	adc	$12                     ; 0x2012 <_ZN12_GLOBAL__N_112print_stringEPKcP6Status+0xf9>
    2a87: 18           	clc
    2a88: 69 f6        	adc	#$f6
    2a8a: a4 75        	ldy	$75                     ; 0x2075 <printf+0x50>
    2a8c: a6 76        	ldx	$76                     ; 0x2076 <printf+0x51>
    2a8e: e4 74        	cpx	$74                     ; 0x2074 <printf+0x4f>
    2a90: d0 0c        	bne	$2a9e <printf+0xa79>
    2a92: 86 14        	stx	$14                     ; 0x2014 <_ZN12_GLOBAL__N_112print_stringEPKcP6Status+0xfb>
    2a94: a6 73        	ldx	$73                     ; 0x2073 <printf+0x4e>
    2a96: 86 12        	stx	$12                     ; 0x2012 <_ZN12_GLOBAL__N_112print_stringEPKcP6Status+0xf9>
    2a98: c4 12        	cpy	$12                     ; 0x2012 <_ZN12_GLOBAL__N_112print_stringEPKcP6Status+0xf9>
    2a9a: 90 08        	bcc	$2aa4 <printf+0xa7f>
    2a9c: 80 29        	bra	$2ac7 <printf+0xaa2>
    2a9e: 86 14        	stx	$14                     ; 0x2014 <_ZN12_GLOBAL__N_112print_stringEPKcP6Status+0xfb>
    2aa0: e4 74        	cpx	$74                     ; 0x2074 <printf+0x4f>
    2aa2: b0 23        	bcs	$2ac7 <printf+0xaa2>
    2aa4: a6 80        	ldx	$80                     ; 0x2080 <printf+0x5b>
    2aa6: e4 45        	cpx	$45                     ; 0x2045 <printf+0x20>
    2aa8: d0 18        	bne	$2ac2 <printf+0xa9d>
    2aaa: a6 7f        	ldx	$7f                     ; 0x207f <printf+0x5a>
    2aac: e4 44        	cpx	$44                     ; 0x2044 <printf+0x1f>
    2aae: d0 12        	bne	$2ac2 <printf+0xa9d>
    2ab0: 18           	clc
    2ab1: aa           	tax
    2ab2: 98           	tya
    2ab3: 65 79        	adc	$79                     ; 0x2079 <printf+0x54>
    2ab5: 85 12        	sta	$12                     ; 0x2012 <_ZN12_GLOBAL__N_112print_stringEPKcP6Status+0xf9>
    2ab7: a5 14        	lda	$14                     ; 0x2014 <_ZN12_GLOBAL__N_112print_stringEPKcP6Status+0xfb>
    2ab9: 65 7a        	adc	$7a                     ; 0x207a <printf+0x55>
    2abb: 85 13        	sta	$13                     ; 0x2013 <_ZN12_GLOBAL__N_112print_stringEPKcP6Status+0xfa>
    2abd: 8a           	txa
    2abe: 92 12        	sta	($12)                   ; 0x2012 <_ZN12_GLOBAL__N_112print_stringEPKcP6Status+0xf9>
    2ac0: 80 05        	bra	$2ac7 <printf+0xaa2>
    2ac2: a2 00        	ldx	#$0
    2ac4: 20 fe 2b     	jsr	$2bfe <putchar>
    2ac7: e6 75        	inc	$75                     ; 0x2075 <printf+0x50>
    2ac9: d0 02        	bne	$2acd <printf+0xaa8>
    2acb: e6 76        	inc	$76                     ; 0x2076 <printf+0x51>
    2acd: a5 71        	lda	$71                     ; 0x2071 <printf+0x4c>
    2acf: 29 01        	and	#$1
    2ad1: d0 1e        	bne	$2af1 <printf+0xacc>
    2ad3: a6 75        	ldx	$75                     ; 0x2075 <printf+0x50>
    2ad5: 86 14        	stx	$14                     ; 0x2014 <_ZN12_GLOBAL__N_112print_stringEPKcP6Status+0xfb>
    2ad7: a5 76        	lda	$76                     ; 0x2076 <printf+0x51>
    2ad9: a4 73        	ldy	$73                     ; 0x2073 <printf+0x4e>
    2adb: a6 74        	ldx	$74                     ; 0x2074 <printf+0x4f>
    2add: 86 12        	stx	$12                     ; 0x2012 <_ZN12_GLOBAL__N_112print_stringEPKcP6Status+0xf9>
    2adf: 86 13        	stx	$13                     ; 0x2013 <_ZN12_GLOBAL__N_112print_stringEPKcP6Status+0xfa>
    2ae1: c5 12        	cmp	$12                     ; 0x2012 <_ZN12_GLOBAL__N_112print_stringEPKcP6Status+0xf9>
    2ae3: f0 03        	beq	$2ae8 <printf+0xac3>
    2ae5: 4c 76 2b     	jmp	$2b76 <printf+0xb51>
    2ae8: 84 12        	sty	$12                     ; 0x2012 <_ZN12_GLOBAL__N_112print_stringEPKcP6Status+0xf9>
    2aea: a6 14        	ldx	$14                     ; 0x2014 <_ZN12_GLOBAL__N_112print_stringEPKcP6Status+0xfb>
    2aec: e4 12        	cpx	$12                     ; 0x2012 <_ZN12_GLOBAL__N_112print_stringEPKcP6Status+0xf9>
    2aee: 4c 7a 2b     	jmp	$2b7a <printf+0xb55>
    2af1: a6 75        	ldx	$75                     ; 0x2075 <printf+0x50>
    2af3: 86 14        	stx	$14                     ; 0x2014 <_ZN12_GLOBAL__N_112print_stringEPKcP6Status+0xfb>
    2af5: a5 76        	lda	$76                     ; 0x2076 <printf+0x51>
    2af7: a6 4b        	ldx	$4b                     ; 0x204b <printf+0x26>
    2af9: a4 4a        	ldy	$4a                     ; 0x204a <printf+0x25>
    2afb: f0 03        	beq	$2b00 <printf+0xadb>
    2afd: 4c 62 2b     	jmp	$2b62 <printf+0xb3d>
    2b00: e0 00        	cpx	#$0
    2b02: f0 d5        	beq	$2ad9 <printf+0xab4>
    2b04: 4c 62 2b     	jmp	$2b62 <printf+0xb3d>
    2b07: c5 74        	cmp	$74                     ; 0x2074 <printf+0x4f>
    2b09: b0 26        	bcs	$2b31 <printf+0xb0c>
    2b0b: a6 80        	ldx	$80                     ; 0x2080 <printf+0x5b>
    2b0d: e4 45        	cpx	$45                     ; 0x2045 <printf+0x20>
    2b0f: d0 19        	bne	$2b2a <printf+0xb05>
    2b11: a6 7f        	ldx	$7f                     ; 0x207f <printf+0x5a>
    2b13: e4 44        	cpx	$44                     ; 0x2044 <printf+0x1f>
    2b15: d0 13        	bne	$2b2a <printf+0xb05>
    2b17: 18           	clc
    2b18: aa           	tax
    2b19: a5 14        	lda	$14                     ; 0x2014 <_ZN12_GLOBAL__N_112print_stringEPKcP6Status+0xfb>
    2b1b: 65 79        	adc	$79                     ; 0x2079 <printf+0x54>
    2b1d: 85 12        	sta	$12                     ; 0x2012 <_ZN12_GLOBAL__N_112print_stringEPKcP6Status+0xf9>
    2b1f: 8a           	txa
    2b20: 65 7a        	adc	$7a                     ; 0x207a <printf+0x55>
    2b22: 85 13        	sta	$13                     ; 0x2013 <_ZN12_GLOBAL__N_112print_stringEPKcP6Status+0xfa>
    2b24: a9 20        	lda	#$20
    2b26: 92 12        	sta	($12)                   ; 0x2012 <_ZN12_GLOBAL__N_112print_stringEPKcP6Status+0xf9>
    2b28: 80 07        	bra	$2b31 <printf+0xb0c>
    2b2a: a2 00        	ldx	#$0
    2b2c: a9 20        	lda	#$20
    2b2e: 20 fe 2b     	jsr	$2bfe <putchar>
    2b31: a6 75        	ldx	$75                     ; 0x2075 <printf+0x50>
    2b33: a5 76        	lda	$76                     ; 0x2076 <printf+0x51>
    2b35: e8           	inx
    2b36: d0 01        	bne	$2b39 <printf+0xb14>
    2b38: 1a           	inc
    2b39: 86 14        	stx	$14                     ; 0x2014 <_ZN12_GLOBAL__N_112print_stringEPKcP6Status+0xfb>
    2b3b: 86 75        	stx	$75                     ; 0x2075 <printf+0x50>
    2b3d: 85 76        	sta	$76                     ; 0x2076 <printf+0x51>
    2b3f: a6 4b        	ldx	$4b                     ; 0x204b <printf+0x26>
    2b41: 86 12        	stx	$12                     ; 0x2012 <_ZN12_GLOBAL__N_112print_stringEPKcP6Status+0xf9>
    2b43: a6 4a        	ldx	$4a                     ; 0x204a <printf+0x25>
    2b45: 86 13        	stx	$13                     ; 0x2013 <_ZN12_GLOBAL__N_112print_stringEPKcP6Status+0xfa>
    2b47: a2 ff        	ldx	#$ff
    2b49: c6 12        	dec	$12                     ; 0x2012 <_ZN12_GLOBAL__N_112print_stringEPKcP6Status+0xf9>
    2b4b: e4 12        	cpx	$12                     ; 0x2012 <_ZN12_GLOBAL__N_112print_stringEPKcP6Status+0xf9>
    2b4d: d0 02        	bne	$2b51 <printf+0xb2c>
    2b4f: c6 13        	dec	$13                     ; 0x2013 <_ZN12_GLOBAL__N_112print_stringEPKcP6Status+0xfa>
    2b51: a6 12        	ldx	$12                     ; 0x2012 <_ZN12_GLOBAL__N_112print_stringEPKcP6Status+0xf9>
    2b53: 86 4b        	stx	$4b                     ; 0x204b <printf+0x26>
    2b55: a6 13        	ldx	$13                     ; 0x2013 <_ZN12_GLOBAL__N_112print_stringEPKcP6Status+0xfa>
    2b57: 86 4a        	stx	$4a                     ; 0x204a <printf+0x25>
    2b59: d0 07        	bne	$2b62 <printf+0xb3d>
    2b5b: a6 12        	ldx	$12                     ; 0x2012 <_ZN12_GLOBAL__N_112print_stringEPKcP6Status+0xf9>
    2b5d: d0 03        	bne	$2b62 <printf+0xb3d>
    2b5f: 4c d9 2a     	jmp	$2ad9 <printf+0xab4>
    2b62: c5 74        	cmp	$74                     ; 0x2074 <printf+0x4f>
    2b64: f0 03        	beq	$2b69 <printf+0xb44>
    2b66: 4c 07 2b     	jmp	$2b07 <printf+0xae2>
    2b69: a6 73        	ldx	$73                     ; 0x2073 <printf+0x4e>
    2b6b: 86 12        	stx	$12                     ; 0x2012 <_ZN12_GLOBAL__N_112print_stringEPKcP6Status+0xf9>
    2b6d: a6 14        	ldx	$14                     ; 0x2014 <_ZN12_GLOBAL__N_112print_stringEPKcP6Status+0xfb>
    2b6f: e4 12        	cpx	$12                     ; 0x2012 <_ZN12_GLOBAL__N_112print_stringEPKcP6Status+0xf9>
    2b71: b0 be        	bcs	$2b31 <printf+0xb0c>
    2b73: 4c 0b 2b     	jmp	$2b0b <printf+0xae6>
    2b76: 86 12        	stx	$12                     ; 0x2012 <_ZN12_GLOBAL__N_112print_stringEPKcP6Status+0xf9>
    2b78: c5 12        	cmp	$12                     ; 0x2012 <_ZN12_GLOBAL__N_112print_stringEPKcP6Status+0xf9>
    2b7a: 98           	tya
    2b7b: a0 01        	ldy	#$1
    2b7d: 90 20        	bcc	$2b9f <printf+0xb7a>
    2b7f: a6 13        	ldx	$13                     ; 0x2013 <_ZN12_GLOBAL__N_112print_stringEPKcP6Status+0xfa>
    2b81: d0 03        	bne	$2b86 <printf+0xb61>
    2b83: aa           	tax
    2b84: f0 19        	beq	$2b9f <printf+0xb7a>
    2b86: 18           	clc
    2b87: 65 79        	adc	$79                     ; 0x2079 <printf+0x54>
    2b89: 85 12        	sta	$12                     ; 0x2012 <_ZN12_GLOBAL__N_112print_stringEPKcP6Status+0xf9>
    2b8b: a5 13        	lda	$13                     ; 0x2013 <_ZN12_GLOBAL__N_112print_stringEPKcP6Status+0xfa>
    2b8d: 65 7a        	adc	$7a                     ; 0x207a <printf+0x55>
    2b8f: 85 13        	sta	$13                     ; 0x2013 <_ZN12_GLOBAL__N_112print_stringEPKcP6Status+0xfa>
    2b91: a2 ff        	ldx	#$ff
    2b93: c6 12        	dec	$12                     ; 0x2012 <_ZN12_GLOBAL__N_112print_stringEPKcP6Status+0xf9>
    2b95: e4 12        	cpx	$12                     ; 0x2012 <_ZN12_GLOBAL__N_112print_stringEPKcP6Status+0xf9>
    2b97: d0 02        	bne	$2b9b <printf+0xb76>
    2b99: c6 13        	dec	$13                     ; 0x2013 <_ZN12_GLOBAL__N_112print_stringEPKcP6Status+0xfa>
    2b9b: a9 00        	lda	#$0
    2b9d: 92 12        	sta	($12)                   ; 0x2012 <_ZN12_GLOBAL__N_112print_stringEPKcP6Status+0xf9>
    2b9f: e6 42        	inc	$42                     ; 0x2042 <printf+0x1d>
    2ba1: d0 02        	bne	$2ba5 <printf+0xb80>
    2ba3: e6 43        	inc	$43                     ; 0x2043 <printf+0x1e>
    2ba5: a6 43        	ldx	$43                     ; 0x2043 <printf+0x1e>
    2ba7: e4 47        	cpx	$47                     ; 0x2047 <printf+0x22>
    2ba9: f0 03        	beq	$2bae <printf+0xb89>
    2bab: 4c 8a 20     	jmp	$208a <printf+0x65>
    2bae: a6 42        	ldx	$42                     ; 0x2042 <printf+0x1d>
    2bb0: e4 46        	cpx	$46                     ; 0x2046 <printf+0x21>
    2bb2: f0 03        	beq	$2bb7 <printf+0xb92>
    2bb4: 4c 8a 20     	jmp	$208a <printf+0x65>
    2bb7: b2 46        	lda	($46)                   ; 0x2046 <printf+0x21>
    2bb9: a2 00        	ldx	#$0
    2bbb: a0 00        	ldy	#$0
    2bbd: 84 44        	sty	$44                     ; 0x2044 <printf+0x1f>
    2bbf: a0 00        	ldy	#$0
    2bc1: 84 45        	sty	$45                     ; 0x2045 <printf+0x20>
    2bc3: 4c a0 20     	jmp	$20a0 <printf+0x7b>
    2bc6: e4 49        	cpx	$49                     ; 0x2049 <printf+0x24>
    2bc8: a6 41        	ldx	$41                     ; 0x2041 <printf+0x1c>
    2bca: b0 03        	bcs	$2bcf <printf+0xbaa>
    2bcc: 4c de 26     	jmp	$26de <printf+0x6b9>
    2bcf: a5 40        	lda	$40                     ; 0x2040 <printf+0x1b>
    2bd1: 85 48        	sta	$48                     ; 0x2048 <printf+0x23>
    2bd3: 64 49        	stz	$49                     ; 0x2049 <printf+0x24>
    2bd5: e6 48        	inc	$48                     ; 0x2048 <printf+0x23>
    2bd7: f0 03        	beq	$2bdc <printf+0xbb7>
    2bd9: 4c de 26     	jmp	$26de <printf+0x6b9>
    2bdc: e6 49        	inc	$49                     ; 0x2049 <printf+0x24>
    2bde: 4c de 26     	jmp	$26de <printf+0x6b9>
    2be1: a2 58        	ldx	#$58
    2be3: 86 8a        	stx	$8a                     ; 0x208a <printf+0x65>
    2be5: a2 01        	ldx	#$1
    2be7: 86 85        	stx	$85                     ; 0x2085 <printf+0x60>
    2be9: a2 30        	ldx	#$30
    2beb: 86 89        	stx	$89                     ; 0x2089 <printf+0x64>
    2bed: a9 02        	lda	#$2
    2bef: a2 00        	ldx	#$0
    2bf1: 86 86        	stx	$86                     ; 0x2086 <printf+0x61>
    2bf3: 4c 1f 27     	jmp	$271f <printf+0x6fa>
    2bf6: 64 4b        	stz	$4b                     ; 0x204b <printf+0x26>
    2bf8: 64 4a        	stz	$4a                     ; 0x204a <printf+0x25>
    2bfa: 4c 50 29     	jmp	$2950 <printf+0x92b>
    2bfd: 60           	rts

00002bfe <putchar>:
    2bfe: 86 12        	stx	$12                     ; 0x2012 <_ZN12_GLOBAL__N_112print_stringEPKcP6Status+0xf9>
    2c00: 85 97        	sta	$97                     ; 0x2097 <printf+0x72>
    2c02: 85 32        	sta	$32                     ; 0x2032 <printf+0xd>
    2c04: a6 01        	ldx	$1                      ; 0x2001 <_ZN12_GLOBAL__N_112print_stringEPKcP6Status+0xe8>
    2c06: 86 98        	stx	$98                     ; 0x2098 <printf+0x73>
    2c08: a6 31        	ldx	$31                     ; 0x2031 <printf+0xc>
    2c0a: a0 50        	ldy	#$50
    2c0c: 8c 00 de     	sty	$de00                   ; 0xde00 <__heap_start+0xace4>
    2c0f: 9c 01 de     	stz	$de01                   ; 0xde01 <__heap_start+0xace5>
    2c12: 8e 02 de     	stx	$de02                   ; 0xde02 <__heap_start+0xace6>
    2c15: 9c 03 de     	stz	$de03                   ; 0xde03 <__heap_start+0xace7>
    2c18: ae 10 de     	ldx	$de10                   ; 0xde10 <__heap_start+0xacf4>
    2c1b: ad 11 de     	lda	$de11                   ; 0xde11 <__heap_start+0xacf5>
    2c1e: ac 12 de     	ldy	$de12                   ; 0xde12 <__heap_start+0xacf6>
    2c21: 84 1a        	sty	$1a                     ; 0x201a <_ZN12_GLOBAL__N_112print_stringEPKcP6Status+0x101>
    2c23: ac 13 de     	ldy	$de13                   ; 0xde13 <__heap_start+0xacf7>
    2c26: 84 1b        	sty	$1b                     ; 0x201b <_ZN12_GLOBAL__N_112print_stringEPKcP6Status+0x102>
    2c28: 9c 08 de     	stz	$de08                   ; 0xde08 <__heap_start+0xacec>
    2c2b: a0 c0        	ldy	#$c0
    2c2d: 8c 09 de     	sty	$de09                   ; 0xde09 <__heap_start+0xaced>
    2c30: 9c 0a de     	stz	$de0a                   ; 0xde0a <__heap_start+0xacee>
    2c33: 9c 0b de     	stz	$de0b                   ; 0xde0b <__heap_start+0xacef>
    2c36: 8e 0c de     	stx	$de0c                   ; 0xde0c <__heap_start+0xacf0>
    2c39: 8d 0d de     	sta	$de0d                   ; 0xde0d <__heap_start+0xacf1>
    2c3c: 64 13        	stz	$13                     ; 0x2013 <_ZN12_GLOBAL__N_112print_stringEPKcP6Status+0xfa>
    2c3e: a2 00        	ldx	#$0
    2c40: 86 14        	stx	$14                     ; 0x2014 <_ZN12_GLOBAL__N_112print_stringEPKcP6Status+0xfb>
    2c42: a2 c0        	ldx	#$c0
    2c44: 86 15        	stx	$15                     ; 0x2015 <_ZN12_GLOBAL__N_112print_stringEPKcP6Status+0xfc>
    2c46: a2 11        	ldx	#$11
    2c48: 86 16        	stx	$16                     ; 0x2016 <_ZN12_GLOBAL__N_112print_stringEPKcP6Status+0xfd>
    2c4a: a2 c9        	ldx	#$c9
    2c4c: 86 17        	stx	$17                     ; 0x2017 <_ZN12_GLOBAL__N_112print_stringEPKcP6Status+0xfe>
    2c4e: a2 10        	ldx	#$10
    2c50: 86 18        	stx	$18                     ; 0x2018 <_ZN12_GLOBAL__N_112print_stringEPKcP6Status+0xff>
    2c52: a2 c9        	ldx	#$c9
    2c54: 86 19        	stx	$19                     ; 0x2019 <_ZN12_GLOBAL__N_112print_stringEPKcP6Status+0x100>
    2c56: a6 1a        	ldx	$1a                     ; 0x201a <_ZN12_GLOBAL__N_112print_stringEPKcP6Status+0x101>
    2c58: 8e 0e de     	stx	$de0e                   ; 0xde0e <__heap_start+0xacf2>
    2c5b: a6 1b        	ldx	$1b                     ; 0x201b <_ZN12_GLOBAL__N_112print_stringEPKcP6Status+0x102>
    2c5d: 8e 0f de     	stx	$de0f                   ; 0xde0f <__heap_start+0xacf3>
    2c60: ac 18 de     	ldy	$de18                   ; 0xde18 <__heap_start+0xacfc>
    2c63: ad 19 de     	lda	$de19                   ; 0xde19 <__heap_start+0xacfd>
    2c66: ae 1a de     	ldx	$de1a                   ; 0xde1a <__heap_start+0xacfe>
    2c69: ae 1b de     	ldx	$de1b                   ; 0xde1b <__heap_start+0xacff>
    2c6c: 84 1c        	sty	$1c                     ; 0x201c <_ZN12_GLOBAL__N_112print_stringEPKcP6Status+0x103>
    2c6e: 85 1d        	sta	$1d                     ; 0x201d <_ZN12_GLOBAL__N_112print_stringEPKcP6Status+0x104>
    2c70: 64 1a        	stz	$1a                     ; 0x201a <_ZN12_GLOBAL__N_112print_stringEPKcP6Status+0x101>
    2c72: 80 13        	bra	$2c87 <putchar+0x89>
    2c74: a5 1c        	lda	$1c                     ; 0x201c <_ZN12_GLOBAL__N_112print_stringEPKcP6Status+0x103>
    2c76: 18           	clc
    2c77: 69 50        	adc	#$50
    2c79: 85 1c        	sta	$1c                     ; 0x201c <_ZN12_GLOBAL__N_112print_stringEPKcP6Status+0x103>
    2c7b: a5 1d        	lda	$1d                     ; 0x201d <_ZN12_GLOBAL__N_112print_stringEPKcP6Status+0x104>
    2c7d: 69 00        	adc	#$0
    2c7f: 85 1d        	sta	$1d                     ; 0x201d <_ZN12_GLOBAL__N_112print_stringEPKcP6Status+0x104>
    2c81: e6 13        	inc	$13                     ; 0x2013 <_ZN12_GLOBAL__N_112print_stringEPKcP6Status+0xfa>
    2c83: d0 02        	bne	$2c87 <putchar+0x89>
    2c85: e6 1a        	inc	$1a                     ; 0x201a <_ZN12_GLOBAL__N_112print_stringEPKcP6Status+0x101>
    2c87: a9 32        	lda	#$32
    2c89: 18           	clc
    2c8a: 65 13        	adc	$13                     ; 0x2013 <_ZN12_GLOBAL__N_112print_stringEPKcP6Status+0xfa>
    2c8c: 85 1e        	sta	$1e                     ; 0x201e <_ZN12_GLOBAL__N_112print_stringEPKcP6Status+0x105>
    2c8e: a9 00        	lda	#$0
    2c90: 65 1a        	adc	$1a                     ; 0x201a <_ZN12_GLOBAL__N_112print_stringEPKcP6Status+0x101>
    2c92: 85 1f        	sta	$1f                     ; 0x201f <_ZN12_GLOBAL__N_112print_stringEPKcP6Status+0x106>
    2c94: b2 1e        	lda	($1e)                   ; 0x201e <_ZN12_GLOBAL__N_112print_stringEPKcP6Status+0x105>
    2c96: c9 0a        	cmp	#$a
    2c98: f0 26        	beq	$2cc0 <putchar+0xc2>
    2c9a: c9 0d        	cmp	#$d
    2c9c: f0 22        	beq	$2cc0 <putchar+0xc2>
    2c9e: aa           	tax
    2c9f: d0 03        	bne	$2ca4 <putchar+0xa6>
    2ca1: 4c ca 2d     	jmp	$2dca <putchar+0x1cc>
    2ca4: a2 03        	ldx	#$3
    2ca6: 86 01        	stx	$1                      ; 0x2001 <_ZN12_GLOBAL__N_112print_stringEPKcP6Status+0xe8>
    2ca8: a4 30        	ldy	$30                     ; 0x2030 <printf+0xb>
    2caa: a9 f0        	lda	#$f0
    2cac: 91 1c        	sta	($1c),y                 ; 0x201c <_ZN12_GLOBAL__N_112print_stringEPKcP6Status+0x103>
    2cae: ca           	dex
    2caf: 86 01        	stx	$1                      ; 0x2001 <_ZN12_GLOBAL__N_112print_stringEPKcP6Status+0xe8>
    2cb1: b2 1e        	lda	($1e)                   ; 0x201e <_ZN12_GLOBAL__N_112print_stringEPKcP6Status+0x105>
    2cb3: a4 30        	ldy	$30                     ; 0x2030 <printf+0xb>
    2cb5: 91 1c        	sta	($1c),y                 ; 0x201c <_ZN12_GLOBAL__N_112print_stringEPKcP6Status+0x103>
    2cb7: a6 30        	ldx	$30                     ; 0x2030 <printf+0xb>
    2cb9: e8           	inx
    2cba: e6 30        	inc	$30                     ; 0x2030 <printf+0xb>
    2cbc: e0 50        	cpx	#$50
    2cbe: d0 c1        	bne	$2c81 <putchar+0x83>
    2cc0: 64 30        	stz	$30                     ; 0x2030 <printf+0xb>
    2cc2: a6 31        	ldx	$31                     ; 0x2031 <printf+0xc>
    2cc4: e8           	inx
    2cc5: e6 31        	inc	$31                     ; 0x2031 <printf+0xc>
    2cc7: e0 1e        	cpx	#$1e
    2cc9: f0 03        	beq	$2cce <putchar+0xd0>
    2ccb: 4c 74 2c     	jmp	$2c74 <putchar+0x76>
    2cce: a2 03        	ldx	#$3
    2cd0: 86 01        	stx	$1                      ; 0x2001 <_ZN12_GLOBAL__N_112print_stringEPKcP6Status+0xe8>
    2cd2: a2 09        	ldx	#$9
    2cd4: a0 50        	ldy	#$50
    2cd6: a9 10        	lda	#$10
    2cd8: 5a           	phy
    2cd9: a0 00        	ldy	#$0
    2cdb: 84 1c        	sty	$1c                     ; 0x201c <_ZN12_GLOBAL__N_112print_stringEPKcP6Status+0x103>
    2cdd: a0 c0        	ldy	#$c0
    2cdf: 84 1d        	sty	$1d                     ; 0x201d <_ZN12_GLOBAL__N_112print_stringEPKcP6Status+0x104>
    2ce1: 7a           	ply
    2ce2: 85 1b        	sta	$1b                     ; 0x201b <_ZN12_GLOBAL__N_112print_stringEPKcP6Status+0x102>
    2ce4: b1 1c        	lda	($1c),y                 ; 0x201c <_ZN12_GLOBAL__N_112print_stringEPKcP6Status+0x103>
    2ce6: 92 1c        	sta	($1c)                   ; 0x201c <_ZN12_GLOBAL__N_112print_stringEPKcP6Status+0x103>
    2ce8: a9 ff        	lda	#$ff
    2cea: c6 1b        	dec	$1b                     ; 0x201b <_ZN12_GLOBAL__N_112print_stringEPKcP6Status+0x102>
    2cec: c5 1b        	cmp	$1b                     ; 0x201b <_ZN12_GLOBAL__N_112print_stringEPKcP6Status+0x102>
    2cee: d0 01        	bne	$2cf1 <putchar+0xf3>
    2cf0: ca           	dex
    2cf1: e6 1c        	inc	$1c                     ; 0x201c <_ZN12_GLOBAL__N_112print_stringEPKcP6Status+0x103>
    2cf3: d0 02        	bne	$2cf7 <putchar+0xf9>
    2cf5: e6 1d        	inc	$1d                     ; 0x201d <_ZN12_GLOBAL__N_112print_stringEPKcP6Status+0x104>
    2cf7: 8a           	txa
    2cf8: d0 ea        	bne	$2ce4 <putchar+0xe6>
    2cfa: a5 1b        	lda	$1b                     ; 0x201b <_ZN12_GLOBAL__N_112print_stringEPKcP6Status+0x102>
    2cfc: d0 e6        	bne	$2ce4 <putchar+0xe6>
    2cfe: a2 02        	ldx	#$2
    2d00: 86 01        	stx	$1                      ; 0x2001 <_ZN12_GLOBAL__N_112print_stringEPKcP6Status+0xe8>
    2d02: a2 09        	ldx	#$9
    2d04: a9 10        	lda	#$10
    2d06: 5a           	phy
    2d07: a0 00        	ldy	#$0
    2d09: 84 1c        	sty	$1c                     ; 0x201c <_ZN12_GLOBAL__N_112print_stringEPKcP6Status+0x103>
    2d0b: a0 c0        	ldy	#$c0
    2d0d: 84 1d        	sty	$1d                     ; 0x201d <_ZN12_GLOBAL__N_112print_stringEPKcP6Status+0x104>
    2d0f: 7a           	ply
    2d10: 85 1b        	sta	$1b                     ; 0x201b <_ZN12_GLOBAL__N_112print_stringEPKcP6Status+0x102>
    2d12: b1 1c        	lda	($1c),y                 ; 0x201c <_ZN12_GLOBAL__N_112print_stringEPKcP6Status+0x103>
    2d14: 92 1c        	sta	($1c)                   ; 0x201c <_ZN12_GLOBAL__N_112print_stringEPKcP6Status+0x103>
    2d16: a9 ff        	lda	#$ff
    2d18: c6 1b        	dec	$1b                     ; 0x201b <_ZN12_GLOBAL__N_112print_stringEPKcP6Status+0x102>
    2d1a: c5 1b        	cmp	$1b                     ; 0x201b <_ZN12_GLOBAL__N_112print_stringEPKcP6Status+0x102>
    2d1c: d0 01        	bne	$2d1f <putchar+0x121>
    2d1e: ca           	dex
    2d1f: e6 1c        	inc	$1c                     ; 0x201c <_ZN12_GLOBAL__N_112print_stringEPKcP6Status+0x103>
    2d21: d0 02        	bne	$2d25 <putchar+0x127>
    2d23: e6 1d        	inc	$1d                     ; 0x201d <_ZN12_GLOBAL__N_112print_stringEPKcP6Status+0x104>
    2d25: 8a           	txa
    2d26: d0 ea        	bne	$2d12 <putchar+0x114>
    2d28: a5 1b        	lda	$1b                     ; 0x201b <_ZN12_GLOBAL__N_112print_stringEPKcP6Status+0x102>
    2d2a: d0 e6        	bne	$2d12 <putchar+0x114>
    2d2c: a2 02        	ldx	#$2
    2d2e: 86 01        	stx	$1                      ; 0x2001 <_ZN12_GLOBAL__N_112print_stringEPKcP6Status+0xe8>
    2d30: e8           	inx
    2d31: 86 01        	stx	$1                      ; 0x2001 <_ZN12_GLOBAL__N_112print_stringEPKcP6Status+0xe8>
    2d33: a2 50        	ldx	#$50
    2d35: a0 11        	ldy	#$11
    2d37: 84 1c        	sty	$1c                     ; 0x201c <_ZN12_GLOBAL__N_112print_stringEPKcP6Status+0x103>
    2d39: a0 c9        	ldy	#$c9
    2d3b: 84 1d        	sty	$1d                     ; 0x201d <_ZN12_GLOBAL__N_112print_stringEPKcP6Status+0x104>
    2d3d: a0 10        	ldy	#$10
    2d3f: 84 1e        	sty	$1e                     ; 0x201e <_ZN12_GLOBAL__N_112print_stringEPKcP6Status+0x105>
    2d41: a0 c9        	ldy	#$c9
    2d43: 84 1f        	sty	$1f                     ; 0x201f <_ZN12_GLOBAL__N_112print_stringEPKcP6Status+0x106>
    2d45: a9 f0        	lda	#$f0
    2d47: a4 1c        	ldy	$1c                     ; 0x201c <_ZN12_GLOBAL__N_112print_stringEPKcP6Status+0x103>
    2d49: 84 22        	sty	$22                     ; 0x2022 <_ZN12_GLOBAL__N_112print_stringEPKcP6Status+0x109>
    2d4b: a4 1d        	ldy	$1d                     ; 0x201d <_ZN12_GLOBAL__N_112print_stringEPKcP6Status+0x104>
    2d4d: 84 23        	sty	$23                     ; 0x2023 <_ZN12_GLOBAL__N_112print_stringEPKcP6Status+0x10a>
    2d4f: 92 1e        	sta	($1e)                   ; 0x201e <_ZN12_GLOBAL__N_112print_stringEPKcP6Status+0x105>
    2d51: e6 1c        	inc	$1c                     ; 0x201c <_ZN12_GLOBAL__N_112print_stringEPKcP6Status+0x103>
    2d53: d0 02        	bne	$2d57 <putchar+0x159>
    2d55: e6 1d        	inc	$1d                     ; 0x201d <_ZN12_GLOBAL__N_112print_stringEPKcP6Status+0x104>
    2d57: ca           	dex
    2d58: a4 22        	ldy	$22                     ; 0x2022 <_ZN12_GLOBAL__N_112print_stringEPKcP6Status+0x109>
    2d5a: 84 1e        	sty	$1e                     ; 0x201e <_ZN12_GLOBAL__N_112print_stringEPKcP6Status+0x105>
    2d5c: a4 23        	ldy	$23                     ; 0x2023 <_ZN12_GLOBAL__N_112print_stringEPKcP6Status+0x10a>
    2d5e: 84 1f        	sty	$1f                     ; 0x201f <_ZN12_GLOBAL__N_112print_stringEPKcP6Status+0x106>
    2d60: e0 00        	cpx	#$0
    2d62: d0 e3        	bne	$2d47 <putchar+0x149>
    2d64: a2 02        	ldx	#$2
    2d66: 86 01        	stx	$1                      ; 0x2001 <_ZN12_GLOBAL__N_112print_stringEPKcP6Status+0xe8>
    2d68: a2 50        	ldx	#$50
    2d6a: a0 11        	ldy	#$11
    2d6c: 84 1c        	sty	$1c                     ; 0x201c <_ZN12_GLOBAL__N_112print_stringEPKcP6Status+0x103>
    2d6e: a0 c9        	ldy	#$c9
    2d70: 84 1d        	sty	$1d                     ; 0x201d <_ZN12_GLOBAL__N_112print_stringEPKcP6Status+0x104>
    2d72: a0 10        	ldy	#$10
    2d74: 84 1e        	sty	$1e                     ; 0x201e <_ZN12_GLOBAL__N_112print_stringEPKcP6Status+0x105>
    2d76: a0 c9        	ldy	#$c9
    2d78: 84 1f        	sty	$1f                     ; 0x201f <_ZN12_GLOBAL__N_112print_stringEPKcP6Status+0x106>
    2d7a: a9 20        	lda	#$20
    2d7c: a4 1c        	ldy	$1c                     ; 0x201c <_ZN12_GLOBAL__N_112print_stringEPKcP6Status+0x103>
    2d7e: 84 22        	sty	$22                     ; 0x2022 <_ZN12_GLOBAL__N_112print_stringEPKcP6Status+0x109>
    2d80: a4 1d        	ldy	$1d                     ; 0x201d <_ZN12_GLOBAL__N_112print_stringEPKcP6Status+0x104>
    2d82: 84 23        	sty	$23                     ; 0x2023 <_ZN12_GLOBAL__N_112print_stringEPKcP6Status+0x10a>
    2d84: 92 1e        	sta	($1e)                   ; 0x201e <_ZN12_GLOBAL__N_112print_stringEPKcP6Status+0x105>
    2d86: e6 1c        	inc	$1c                     ; 0x201c <_ZN12_GLOBAL__N_112print_stringEPKcP6Status+0x103>
    2d88: d0 02        	bne	$2d8c <putchar+0x18e>
    2d8a: e6 1d        	inc	$1d                     ; 0x201d <_ZN12_GLOBAL__N_112print_stringEPKcP6Status+0x104>
    2d8c: ca           	dex
    2d8d: a4 22        	ldy	$22                     ; 0x2022 <_ZN12_GLOBAL__N_112print_stringEPKcP6Status+0x109>
    2d8f: 84 1e        	sty	$1e                     ; 0x201e <_ZN12_GLOBAL__N_112print_stringEPKcP6Status+0x105>
    2d91: a4 23        	ldy	$23                     ; 0x2023 <_ZN12_GLOBAL__N_112print_stringEPKcP6Status+0x10a>
    2d93: 84 1f        	sty	$1f                     ; 0x201f <_ZN12_GLOBAL__N_112print_stringEPKcP6Status+0x106>
    2d95: e0 00        	cpx	#$0
    2d97: d0 e3        	bne	$2d7c <putchar+0x17e>
    2d99: c6 31        	dec	$31                     ; 0x2031 <printf+0xc>
    2d9b: 9c 08 de     	stz	$de08                   ; 0xde08 <__heap_start+0xacec>
    2d9e: a2 c0        	ldx	#$c0
    2da0: 8e 09 de     	stx	$de09                   ; 0xde09 <__heap_start+0xaced>
    2da3: 9c 0a de     	stz	$de0a                   ; 0xde0a <__heap_start+0xacee>
    2da6: 9c 0b de     	stz	$de0b                   ; 0xde0b <__heap_start+0xacef>
    2da9: a2 1d        	ldx	#$1d
    2dab: 8e 0c de     	stx	$de0c                   ; 0xde0c <__heap_start+0xacf0>
    2dae: 9c 0d de     	stz	$de0d                   ; 0xde0d <__heap_start+0xacf1>
    2db1: 9c 0e de     	stz	$de0e                   ; 0xde0e <__heap_start+0xacf2>
    2db4: 9c 0f de     	stz	$de0f                   ; 0xde0f <__heap_start+0xacf3>
    2db7: ae 18 de     	ldx	$de18                   ; 0xde18 <__heap_start+0xacfc>
    2dba: ac 19 de     	ldy	$de19                   ; 0xde19 <__heap_start+0xacfd>
    2dbd: ad 1a de     	lda	$de1a                   ; 0xde1a <__heap_start+0xacfe>
    2dc0: ad 1b de     	lda	$de1b                   ; 0xde1b <__heap_start+0xacff>
    2dc3: 86 1c        	stx	$1c                     ; 0x201c <_ZN12_GLOBAL__N_112print_stringEPKcP6Status+0x103>
    2dc5: 84 1d        	sty	$1d                     ; 0x201d <_ZN12_GLOBAL__N_112print_stringEPKcP6Status+0x104>
    2dc7: 4c 81 2c     	jmp	$2c81 <putchar+0x83>
    2dca: a6 98        	ldx	$98                     ; 0x2098 <printf+0x73>
    2dcc: 86 01        	stx	$1                      ; 0x2001 <_ZN12_GLOBAL__N_112print_stringEPKcP6Status+0xe8>
    2dce: a6 30        	ldx	$30                     ; 0x2030 <printf+0xb>
    2dd0: a4 31        	ldy	$31                     ; 0x2031 <printf+0xc>
    2dd2: 8e 14 d0     	stx	$d014                   ; 0xd014 <__heap_start+0x9ef8>
    2dd5: 9c 15 d0     	stz	$d015                   ; 0xd015 <__heap_start+0x9ef9>
    2dd8: 84 31        	sty	$31                     ; 0x2031 <printf+0xc>
    2dda: 8c 16 d0     	sty	$d016                   ; 0xd016 <__heap_start+0x9efa>
    2ddd: 9c 17 d0     	stz	$d017                   ; 0xd017 <__heap_start+0x9efb>
    2de0: a6 12        	ldx	$12                     ; 0x2012 <_ZN12_GLOBAL__N_112print_stringEPKcP6Status+0xf9>
    2de2: a5 97        	lda	$97                     ; 0x2097 <printf+0x72>
    2de4: 60           	rts

00002de5 <memcpy>:
    2de5: a8           	tay
    2de6: 8a           	txa
    2de7: d0 03        	bne	$2dec <memcpy+0x7>
    2de9: 98           	tya
    2dea: f0 24        	beq	$2e10 <memcpy+0x2b>
    2dec: a5 12        	lda	$12                     ; 0x2012 <_ZN12_GLOBAL__N_112print_stringEPKcP6Status+0xf9>
    2dee: 85 16        	sta	$16                     ; 0x2016 <_ZN12_GLOBAL__N_112print_stringEPKcP6Status+0xfd>
    2df0: a5 13        	lda	$13                     ; 0x2013 <_ZN12_GLOBAL__N_112print_stringEPKcP6Status+0xfa>
    2df2: 85 17        	sta	$17                     ; 0x2017 <_ZN12_GLOBAL__N_112print_stringEPKcP6Status+0xfe>
    2df4: b2 14        	lda	($14)                   ; 0x2014 <_ZN12_GLOBAL__N_112print_stringEPKcP6Status+0xfb>
    2df6: 92 16        	sta	($16)                   ; 0x2016 <_ZN12_GLOBAL__N_112print_stringEPKcP6Status+0xfd>
    2df8: e6 16        	inc	$16                     ; 0x2016 <_ZN12_GLOBAL__N_112print_stringEPKcP6Status+0xfd>
    2dfa: d0 02        	bne	$2dfe <memcpy+0x19>
    2dfc: e6 17        	inc	$17                     ; 0x2017 <_ZN12_GLOBAL__N_112print_stringEPKcP6Status+0xfe>
    2dfe: e6 14        	inc	$14                     ; 0x2014 <_ZN12_GLOBAL__N_112print_stringEPKcP6Status+0xfb>
    2e00: d0 02        	bne	$2e04 <memcpy+0x1f>
    2e02: e6 15        	inc	$15                     ; 0x2015 <_ZN12_GLOBAL__N_112print_stringEPKcP6Status+0xfc>
    2e04: 88           	dey
    2e05: c0 ff        	cpy	#$ff
    2e07: d0 01        	bne	$2e0a <memcpy+0x25>
    2e09: ca           	dex
    2e0a: 8a           	txa
    2e0b: d0 e7        	bne	$2df4 <memcpy+0xf>
    2e0d: 98           	tya
    2e0e: d0 e4        	bne	$2df4 <memcpy+0xf>
    2e10: 60           	rts

00002e11 <__memset>:
    2e11: a4 14        	ldy	$14                     ; 0x2014 <_ZN12_GLOBAL__N_112print_stringEPKcP6Status+0xfb>
    2e13: d0 04        	bne	$2e19 <__memset+0x8>
    2e15: e0 00        	cpx	#$0
    2e17: f0 17        	beq	$2e30 <__memset+0x1f>
    2e19: 92 12        	sta	($12)                   ; 0x2012 <_ZN12_GLOBAL__N_112print_stringEPKcP6Status+0xf9>
    2e1b: e6 12        	inc	$12                     ; 0x2012 <_ZN12_GLOBAL__N_112print_stringEPKcP6Status+0xf9>
    2e1d: d0 02        	bne	$2e21 <__memset+0x10>
    2e1f: e6 13        	inc	$13                     ; 0x2013 <_ZN12_GLOBAL__N_112print_stringEPKcP6Status+0xfa>
    2e21: ca           	dex
    2e22: e0 ff        	cpx	#$ff
    2e24: d0 02        	bne	$2e28 <__memset+0x17>
    2e26: c6 14        	dec	$14                     ; 0x2014 <_ZN12_GLOBAL__N_112print_stringEPKcP6Status+0xfb>
    2e28: a4 14        	ldy	$14                     ; 0x2014 <_ZN12_GLOBAL__N_112print_stringEPKcP6Status+0xfb>
    2e2a: d0 ed        	bne	$2e19 <__memset+0x8>
    2e2c: e0 00        	cpx	#$0
    2e2e: d0 e9        	bne	$2e19 <__memset+0x8>
    2e30: 60           	rts
