
fileWrite5.elf:	file format elf32-mos

SYMBOL TABLE:
00000000 l    df *ABS*	00000000 zero-zp-bss.c
00000000 l    df *ABS*	00000000 copy-zp-data.c
00000000 l    df *ABS*	00000000 ld-temp.o
0000062c l     F .text	0000017b f256Init
00000067 l     O .zp.bss	00000002 kernelArgs
000000cc l     O .zp.bss	00000007 kernelEventData
000007a7 l     F .text	00000173 textReset
0000091a l     F .text	00000156 bitmapReset
0000007e l     O .zp.bss	00000003 _tileSize
00000081 l     O .zp.bss	00000040 _spriteCtl
000000c1 l     O .zp.bss	00000008 _dirStream
000000cb l     O .zp.bss	00000001 kernelError
00000062 l     O .zp.data	00000001 _ccolor
00000060 l     O .zp.data	00000001 _MAX_COL
00000061 l     O .zp.data	00000001 _MAX_ROW
00000030 l     O .zp.data	00000030 textColors
00000069 l     O .zp.bss	00000001 _col
0000006a l     O .zp.bss	00000001 _row
00000079 l     O .zp.bss	00000001 _MAX_X
0000007a l     O .zp.bss	00000001 _MAX_Y
00000077 l     O .zp.bss	00000001 _active
00000078 l     O .zp.bss	00000001 _color
0000006b l     O .zp.bss	0000000c _BITMAP_BASE
0000007b l     O .zp.bss	00000003 _BITMAP_CLUT
00000a94 l     F .text	00000445 f256main
00000ed9 l     F .text	00000103 fileOpen
000000c9 l     O .zp.bss	00000002 __putchar.s
00000fdc l     F .text	0000025a textPrint
00002485 l     F .text	00000186 free
00002238 l     F .text	00000057 printf
00001243 l     F .text	00000034 hitspace
00002657 l     F .text	00000039 strlen
000022cf l     F .text	00000100 malloc
000026fe l     F .text	00000032 __mulhi3
00001236 l     F .text	0000000d __putchar
00001285 l     F .text	00000002 _Exit
00001287 l     F .text	00000218 vfprintf
000022c1 l     F .text	00000003 putc
0000149f l     F .text	00000b44 _ZN12_GLOBAL__N_15printEPKcP6Status
00001fe3 l     F .text	000000e1 _ZN12_GLOBAL__N_13putEcP6Status
00002690 l     F .text	0000006e __simple_strtoui
000020c4 l     F .text	00000174 _ZN12_GLOBAL__N_112print_stringEPKcP6Status
0000055c l     F .text	00000003 _ZN6__impl6VarInt4makeEPvc
0000056e l     F .text	0000000d _ZNK6__impl6VarInt8negativeEv
0000057c l     F .text	00000047 _ZN6__impl6VarInt6negateEv
00000560 l     F .text	0000000d _ZNK6__impl6VarInt8high_bitEv
000005c4 l     F .text	0000003b _ZN6__impl6VarInt3shlEv
00000063 l     O .zp.data	00000002 stdout
0000228f l     F .text	00000003 fputc
00002292 l     F .text	00000028 putchar
000022ba l     F .text	00000007 putchar_wrapper
000022c4 l     F .text	0000000b __from_ascii
000000d3 l     O .zp.bss	00000001 _ZN12_GLOBAL__N_111initializedE
00000065 l     O .zp.data	00000002 _ZN12_GLOBAL__N_110heap_limitE
0000034e l     F .text	00000135 _ZN12_GLOBAL__N_19FreeChunk6insertEPvj
000000d4 l     O .zp.bss	00000001 _ZN12_GLOBAL__N_19last_freeE
000000d7 l     O .zp.bss	00000002 _ZN12_GLOBAL__N_19free_listE
000023cf l     F .text	000000b6 _ZN12_GLOBAL__N_119allocate_free_chunkEPNS_9FreeChunkEj
000000d5 l     O .zp.bss	00000002 _ZN12_GLOBAL__N_19free_sizeE
00000484 l     F .text	000000d7 _ZN12_GLOBAL__N_19FreeChunk6removeEv
00000a70 g     F .text	00000024 main
00000349 g       .text	00000000 __after_main
00000338 g       .text	00000000 __do_init_stack
00000343 g       .text	00000000 __do_copy_zp_data
00000615 g     F .text	00000017 __copy_zp_data
00000340 g       .text	00000000 __do_zero_zp_bss
00000602 g     F .text	00000013 __zero_zp_bss
00001277 g     F .text	0000000e exit
0000034c g       .text	00000000 _fini
000005ff g       .text	00000000 __call_indir
00002637  w    F .text	00000020 __memset
00001000  w      *ABS*	00000000 __heap_default_limit
00002798 g       .noinit	00000000 __heap_start
0000260b  w    F .text	0000002c memcpy
00000010 g       *ABS*	00000000 __rc0
00000012 g       *ABS*	00000000 __rc2
00000014 g       *ABS*	00000000 __rc4
00000016 g       *ABS*	00000000 __rc6
00000018 g       *ABS*	00000000 __rc8
0000001a g       *ABS*	00000000 __rc10
0000001c g       *ABS*	00000000 __rc12
0000001e g       *ABS*	00000000 __rc14
00000020 g       *ABS*	00000000 __rc16
00000022 g       *ABS*	00000000 __rc18
00000024 g       *ABS*	00000000 __rc20
00000026 g       *ABS*	00000000 __rc22
00000028 g       *ABS*	00000000 __rc24
0000002a g       *ABS*	00000000 __rc26
0000002c g       *ABS*	00000000 __rc28
0000002e g       *ABS*	00000000 __rc30
0000002f g       *ABS*	00000000 __rc31
00000300 g       *ABS*	00000000 __f256_start
0000c000 g       *ABS*	00000000 __stack
0000c000 g       *ABS*	00000000 __SLOT_ADDR
0800c000 g       *ABS*	00000000 __block8_lma
00002000 g       *ABS*	00000000 __BLOCK_SIZE
0900c000 g       *ABS*	00000000 __block9_lma
0a00c000 g       *ABS*	00000000 __block10_lma
0b00c000 g       *ABS*	00000000 __block11_lma
0c00c000 g       *ABS*	00000000 __block12_lma
0d00c000 g       *ABS*	00000000 __block13_lma
0e00c000 g       *ABS*	00000000 __block14_lma
0f00c000 g       *ABS*	00000000 __block15_lma
1000c000 g       *ABS*	00000000 __block16_lma
1100c000 g       *ABS*	00000000 __block17_lma
1200c000 g       *ABS*	00000000 __block18_lma
1300c000 g       *ABS*	00000000 __block19_lma
1400c000 g       *ABS*	00000000 __block20_lma
1500c000 g       *ABS*	00000000 __block21_lma
1600c000 g       *ABS*	00000000 __block22_lma
1700c000 g       *ABS*	00000000 __block23_lma
00002798 g       .bss	00000000 __bss_start
00000338 g       .text	00000000 _start
0000002d g       *ABS*	00000000 __rc29
0000002b g       *ABS*	00000000 __rc27
00000029 g       *ABS*	00000000 __rc25
00000027 g       *ABS*	00000000 __rc23
00000025 g       *ABS*	00000000 __rc21
00000023 g       *ABS*	00000000 __rc19
00000021 g       *ABS*	00000000 __rc17
0000001f g       *ABS*	00000000 __rc15
0000001d g       *ABS*	00000000 __rc13
0000001b g       *ABS*	00000000 __rc11
00000019 g       *ABS*	00000000 __rc9
00000017 g       *ABS*	00000000 __rc7
00000015 g       *ABS*	00000000 __rc5
00000013 g       *ABS*	00000000 __rc3
00000011 g       *ABS*	00000000 __rc1
00000030 g       .zp.data	00000000 __zp_data_start
00000300 g       *ABS*	00000000 __zp_data_load_start
00000037 g       *ABS*	00000000 __zp_data_size
00000067 g       .zp.bss	00000000 __zp_bss_start
00000072 g       *ABS*	00000000 __zp_bss_size
00000338 g       .text	00000000 _init
00002730 g       .text	00000000 __init_array_start
00002730 g       .text	00000000 __init_array_end
00002730 g       .text	00000000 __fini_array_start
00002730 g       .text	00000000 __fini_array_end
00002798 g       .data	00000000 __data_start
00002798 g       .data	00000000 __data_end
00002798 g       *ABS*	00000000 __data_load_start
00000000 g       *ABS*	00000000 __data_size
00002798 g       .bss	00000000 __bss_end
00000000 g       *ABS*	00000000 __bss_size
00002798 g       .noinit	00000000 end_block8
00002798 g       .noinit	00000000 end_block9
00002798 g       .noinit	00000000 end_block10
00002798 g       .noinit	00000000 end_block11
00002798 g       .noinit	00000000 end_block12
00002798 g       .noinit	00000000 end_block13
00002798 g       .noinit	00000000 end_block14
00002798 g       .noinit	00000000 end_block15
00002798 g       .noinit	00000000 end_block16
00002798 g       .noinit	00000000 end_block17
00002798 g       .noinit	00000000 end_block18
00002798 g       .noinit	00000000 end_block19
00002798 g       .noinit	00000000 end_block20
00002798 g       .noinit	00000000 end_block21
00002798 g       .noinit	00000000 end_block22
00002798 g       .noinit	00000000 end_block23

Disassembly of section .text:

00000338 <_start>:
     338: a9 00        	lda	#$0
     33a: 85 10        	sta	$10                     ; 0x2010 <_ZN12_GLOBAL__N_13putEcP6Status+0x2d>
     33c: a9 c0        	lda	#$c0
     33e: 85 11        	sta	$11                     ; 0x2011 <_ZN12_GLOBAL__N_13putEcP6Status+0x2e>

00000340 <__do_zero_zp_bss>:
     340: 20 02 06     	jsr	$602 <__zero_zp_bss>

00000343 <__do_copy_zp_data>:
     343: 20 15 06     	jsr	$615 <__copy_zp_data>
     346: 20 70 0a     	jsr	$a70 <main>

00000349 <__after_main>:
     349: 4c 77 12     	jmp	$1277 <exit>

0000034c <_fini>:
     34c: 60           	rts
     34d: 00           	brk

0000034e <_ZN12_GLOBAL__N_19FreeChunk6insertEPvj>:
     34e: 85 16        	sta	$16                     ; 0x2016 <_ZN12_GLOBAL__N_13putEcP6Status+0x33>
     350: 29 fe        	and	#$fe
     352: 85 14        	sta	$14                     ; 0x2014 <_ZN12_GLOBAL__N_13putEcP6Status+0x31>
     354: a0 01        	ldy	#$1
     356: 98           	tya
     357: 32 12        	and	($12)                   ; 0x2012 <_ZN12_GLOBAL__N_13putEcP6Status+0x2f>
     359: 05 14        	ora	$14                     ; 0x2014 <_ZN12_GLOBAL__N_13putEcP6Status+0x31>
     35b: 92 12        	sta	($12)                   ; 0x2012 <_ZN12_GLOBAL__N_13putEcP6Status+0x2f>
     35d: a5 12        	lda	$12                     ; 0x2012 <_ZN12_GLOBAL__N_13putEcP6Status+0x2f>
     35f: 18           	clc
     360: 65 14        	adc	$14                     ; 0x2014 <_ZN12_GLOBAL__N_13putEcP6Status+0x31>
     362: 85 15        	sta	$15                     ; 0x2015 <_ZN12_GLOBAL__N_13putEcP6Status+0x32>
     364: 8a           	txa
     365: 65 13        	adc	$13                     ; 0x2013 <_ZN12_GLOBAL__N_13putEcP6Status+0x30>
     367: 85 14        	sta	$14                     ; 0x2014 <_ZN12_GLOBAL__N_13putEcP6Status+0x31>
     369: 18           	clc
     36a: a5 15        	lda	$15                     ; 0x2015 <_ZN12_GLOBAL__N_13putEcP6Status+0x32>
     36c: 69 fe        	adc	#$fe
     36e: 85 17        	sta	$17                     ; 0x2017 <_ZN12_GLOBAL__N_13putEcP6Status+0x34>
     370: a5 14        	lda	$14                     ; 0x2014 <_ZN12_GLOBAL__N_13putEcP6Status+0x31>
     372: 69 ff        	adc	#$ff
     374: 85 15        	sta	$15                     ; 0x2015 <_ZN12_GLOBAL__N_13putEcP6Status+0x32>
     376: a5 17        	lda	$17                     ; 0x2017 <_ZN12_GLOBAL__N_13putEcP6Status+0x34>
     378: 85 14        	sta	$14                     ; 0x2014 <_ZN12_GLOBAL__N_13putEcP6Status+0x31>
     37a: 8a           	txa
     37b: 91 12        	sta	($12),y                 ; 0x2012 <_ZN12_GLOBAL__N_13putEcP6Status+0x2f>
     37d: a5 16        	lda	$16                     ; 0x2016 <_ZN12_GLOBAL__N_13putEcP6Status+0x33>
     37f: 92 14        	sta	($14)                   ; 0x2014 <_ZN12_GLOBAL__N_13putEcP6Status+0x31>
     381: 8a           	txa
     382: 91 14        	sta	($14),y                 ; 0x2014 <_ZN12_GLOBAL__N_13putEcP6Status+0x31>
     384: b1 12        	lda	($12),y                 ; 0x2012 <_ZN12_GLOBAL__N_13putEcP6Status+0x2f>
     386: 85 14        	sta	$14                     ; 0x2014 <_ZN12_GLOBAL__N_13putEcP6Status+0x31>
     388: a9 fe        	lda	#$fe
     38a: 32 12        	and	($12)                   ; 0x2012 <_ZN12_GLOBAL__N_13putEcP6Status+0x2f>
     38c: 18           	clc
     38d: 65 d5        	adc	$d5                     ; 0x20d5 <_ZN12_GLOBAL__N_112print_stringEPKcP6Status+0x11>
     38f: aa           	tax
     390: a5 14        	lda	$14                     ; 0x2014 <_ZN12_GLOBAL__N_13putEcP6Status+0x31>
     392: 65 d6        	adc	$d6                     ; 0x20d6 <_ZN12_GLOBAL__N_112print_stringEPKcP6Status+0x12>
     394: a8           	tay
     395: 18           	clc
     396: 8a           	txa
     397: 69 fe        	adc	#$fe
     399: aa           	tax
     39a: 98           	tya
     39b: 69 ff        	adc	#$ff
     39d: 86 d5        	stx	$d5                     ; 0x20d5 <_ZN12_GLOBAL__N_112print_stringEPKcP6Status+0x11>
     39f: 85 d6        	sta	$d6                     ; 0x20d6 <_ZN12_GLOBAL__N_112print_stringEPKcP6Status+0x12>
     3a1: a6 d7        	ldx	$d7                     ; 0x20d7 <_ZN12_GLOBAL__N_112print_stringEPKcP6Status+0x13>
     3a3: 86 16        	stx	$16                     ; 0x2016 <_ZN12_GLOBAL__N_13putEcP6Status+0x33>
     3a5: a4 d8        	ldy	$d8                     ; 0x20d8 <_ZN12_GLOBAL__N_112print_stringEPKcP6Status+0x14>
     3a7: a2 00        	ldx	#$0
     3a9: 86 14        	stx	$14                     ; 0x2014 <_ZN12_GLOBAL__N_13putEcP6Status+0x31>
     3ab: a2 00        	ldx	#$0
     3ad: 86 15        	stx	$15                     ; 0x2015 <_ZN12_GLOBAL__N_13putEcP6Status+0x32>
     3af: c4 15        	cpy	$15                     ; 0x2015 <_ZN12_GLOBAL__N_13putEcP6Status+0x32>
     3b1: d0 3c        	bne	$3ef <_ZN12_GLOBAL__N_19FreeChunk6insertEPvj+0xa1>
     3b3: a6 16        	ldx	$16                     ; 0x2016 <_ZN12_GLOBAL__N_13putEcP6Status+0x33>
     3b5: e4 14        	cpx	$14                     ; 0x2014 <_ZN12_GLOBAL__N_13putEcP6Status+0x31>
     3b7: d0 36        	bne	$3ef <_ZN12_GLOBAL__N_19FreeChunk6insertEPvj+0xa1>
     3b9: a0 04        	ldy	#$4
     3bb: a5 12        	lda	$12                     ; 0x2012 <_ZN12_GLOBAL__N_13putEcP6Status+0x2f>
     3bd: 18           	clc
     3be: 69 04        	adc	#$4
     3c0: 85 14        	sta	$14                     ; 0x2014 <_ZN12_GLOBAL__N_13putEcP6Status+0x31>
     3c2: a5 13        	lda	$13                     ; 0x2013 <_ZN12_GLOBAL__N_13putEcP6Status+0x30>
     3c4: 69 00        	adc	#$0
     3c6: 18           	clc
     3c7: 85 15        	sta	$15                     ; 0x2015 <_ZN12_GLOBAL__N_13putEcP6Status+0x32>
     3c9: a5 12        	lda	$12                     ; 0x2012 <_ZN12_GLOBAL__N_13putEcP6Status+0x2f>
     3cb: 91 12        	sta	($12),y                 ; 0x2012 <_ZN12_GLOBAL__N_13putEcP6Status+0x2f>
     3cd: a0 02        	ldy	#$2
     3cf: 85 17        	sta	$17                     ; 0x2017 <_ZN12_GLOBAL__N_13putEcP6Status+0x34>
     3d1: 69 02        	adc	#$2
     3d3: 85 16        	sta	$16                     ; 0x2016 <_ZN12_GLOBAL__N_13putEcP6Status+0x33>
     3d5: a5 17        	lda	$17                     ; 0x2017 <_ZN12_GLOBAL__N_13putEcP6Status+0x34>
     3d7: 91 12        	sta	($12),y                 ; 0x2012 <_ZN12_GLOBAL__N_13putEcP6Status+0x2f>
     3d9: a5 13        	lda	$13                     ; 0x2013 <_ZN12_GLOBAL__N_13putEcP6Status+0x30>
     3db: 69 00        	adc	#$0
     3dd: 85 17        	sta	$17                     ; 0x2017 <_ZN12_GLOBAL__N_13putEcP6Status+0x34>
     3df: 88           	dey
     3e0: a5 13        	lda	$13                     ; 0x2013 <_ZN12_GLOBAL__N_13putEcP6Status+0x30>
     3e2: 91 14        	sta	($14),y                 ; 0x2014 <_ZN12_GLOBAL__N_13putEcP6Status+0x31>
     3e4: 91 16        	sta	($16),y                 ; 0x2016 <_ZN12_GLOBAL__N_13putEcP6Status+0x33>
     3e6: a6 12        	ldx	$12                     ; 0x2012 <_ZN12_GLOBAL__N_13putEcP6Status+0x2f>
     3e8: 86 d7        	stx	$d7                     ; 0x20d7 <_ZN12_GLOBAL__N_112print_stringEPKcP6Status+0x13>
     3ea: a6 13        	ldx	$13                     ; 0x2013 <_ZN12_GLOBAL__N_13putEcP6Status+0x30>
     3ec: 86 d8        	stx	$d8                     ; 0x20d8 <_ZN12_GLOBAL__N_112print_stringEPKcP6Status+0x14>
     3ee: 60           	rts
     3ef: a6 12        	ldx	$12                     ; 0x2012 <_ZN12_GLOBAL__N_13putEcP6Status+0x2f>
     3f1: a5 12        	lda	$12                     ; 0x2012 <_ZN12_GLOBAL__N_13putEcP6Status+0x2f>
     3f3: 18           	clc
     3f4: 69 02        	adc	#$2
     3f6: 85 14        	sta	$14                     ; 0x2014 <_ZN12_GLOBAL__N_13putEcP6Status+0x31>
     3f8: 84 18        	sty	$18                     ; 0x2018 <_ZN12_GLOBAL__N_13putEcP6Status+0x35>
     3fa: a5 13        	lda	$13                     ; 0x2013 <_ZN12_GLOBAL__N_13putEcP6Status+0x30>
     3fc: 69 00        	adc	#$0
     3fe: 85 15        	sta	$15                     ; 0x2015 <_ZN12_GLOBAL__N_13putEcP6Status+0x32>
     400: a5 16        	lda	$16                     ; 0x2016 <_ZN12_GLOBAL__N_13putEcP6Status+0x33>
     402: 84 17        	sty	$17                     ; 0x2017 <_ZN12_GLOBAL__N_13putEcP6Status+0x34>
     404: a0 02        	ldy	#$2
     406: 91 12        	sta	($12),y                 ; 0x2012 <_ZN12_GLOBAL__N_13putEcP6Status+0x2f>
     408: 85 19        	sta	$19                     ; 0x2019 <_ZN12_GLOBAL__N_13putEcP6Status+0x36>
     40a: 88           	dey
     40b: a5 18        	lda	$18                     ; 0x2018 <_ZN12_GLOBAL__N_13putEcP6Status+0x35>
     40d: 91 14        	sta	($14),y                 ; 0x2014 <_ZN12_GLOBAL__N_13putEcP6Status+0x31>
     40f: 18           	clc
     410: a5 19        	lda	$19                     ; 0x2019 <_ZN12_GLOBAL__N_13putEcP6Status+0x36>
     412: 69 04        	adc	#$4
     414: a8           	tay
     415: a5 18        	lda	$18                     ; 0x2018 <_ZN12_GLOBAL__N_13putEcP6Status+0x35>
     417: 69 00        	adc	#$0
     419: 85 19        	sta	$19                     ; 0x2019 <_ZN12_GLOBAL__N_13putEcP6Status+0x36>
     41b: 84 18        	sty	$18                     ; 0x2018 <_ZN12_GLOBAL__N_13putEcP6Status+0x35>
     41d: 8a           	txa
     41e: 18           	clc
     41f: 69 04        	adc	#$4
     421: 85 1a        	sta	$1a                     ; 0x201a <_ZN12_GLOBAL__N_13putEcP6Status+0x37>
     423: a5 13        	lda	$13                     ; 0x2013 <_ZN12_GLOBAL__N_13putEcP6Status+0x30>
     425: 69 00        	adc	#$0
     427: 85 1b        	sta	$1b                     ; 0x201b <_ZN12_GLOBAL__N_13putEcP6Status+0x38>
     429: a0 04        	ldy	#$4
     42b: b1 16        	lda	($16),y                 ; 0x2016 <_ZN12_GLOBAL__N_13putEcP6Status+0x33>
     42d: 85 16        	sta	$16                     ; 0x2016 <_ZN12_GLOBAL__N_13putEcP6Status+0x33>
     42f: 85 1d        	sta	$1d                     ; 0x201d <_ZN12_GLOBAL__N_13putEcP6Status+0x3a>
     431: a0 01        	ldy	#$1
     433: b1 18        	lda	($18),y                 ; 0x2018 <_ZN12_GLOBAL__N_13putEcP6Status+0x35>
     435: 85 17        	sta	$17                     ; 0x2017 <_ZN12_GLOBAL__N_13putEcP6Status+0x34>
     437: 85 19        	sta	$19                     ; 0x2019 <_ZN12_GLOBAL__N_13putEcP6Status+0x36>
     439: a0 04        	ldy	#$4
     43b: a5 1d        	lda	$1d                     ; 0x201d <_ZN12_GLOBAL__N_13putEcP6Status+0x3a>
     43d: 91 12        	sta	($12),y                 ; 0x2012 <_ZN12_GLOBAL__N_13putEcP6Status+0x2f>
     43f: a5 19        	lda	$19                     ; 0x2019 <_ZN12_GLOBAL__N_13putEcP6Status+0x36>
     441: a0 01        	ldy	#$1
     443: 91 1a        	sta	($1a),y                 ; 0x201a <_ZN12_GLOBAL__N_13putEcP6Status+0x37>
     445: 18           	clc
     446: a5 1d        	lda	$1d                     ; 0x201d <_ZN12_GLOBAL__N_13putEcP6Status+0x3a>
     448: 69 02        	adc	#$2
     44a: 85 18        	sta	$18                     ; 0x2018 <_ZN12_GLOBAL__N_13putEcP6Status+0x35>
     44c: a5 19        	lda	$19                     ; 0x2019 <_ZN12_GLOBAL__N_13putEcP6Status+0x36>
     44e: 69 00        	adc	#$0
     450: 85 19        	sta	$19                     ; 0x2019 <_ZN12_GLOBAL__N_13putEcP6Status+0x36>
     452: 8a           	txa
     453: c8           	iny
     454: 91 16        	sta	($16),y                 ; 0x2016 <_ZN12_GLOBAL__N_13putEcP6Status+0x33>
     456: a5 13        	lda	$13                     ; 0x2013 <_ZN12_GLOBAL__N_13putEcP6Status+0x30>
     458: 88           	dey
     459: 91 18        	sta	($18),y                 ; 0x2018 <_ZN12_GLOBAL__N_13putEcP6Status+0x35>
     45b: c8           	iny
     45c: b1 12        	lda	($12),y                 ; 0x2012 <_ZN12_GLOBAL__N_13putEcP6Status+0x2f>
     45e: 85 16        	sta	$16                     ; 0x2016 <_ZN12_GLOBAL__N_13putEcP6Status+0x33>
     460: 85 18        	sta	$18                     ; 0x2018 <_ZN12_GLOBAL__N_13putEcP6Status+0x35>
     462: 88           	dey
     463: b1 14        	lda	($14),y                 ; 0x2014 <_ZN12_GLOBAL__N_13putEcP6Status+0x31>
     465: 85 17        	sta	$17                     ; 0x2017 <_ZN12_GLOBAL__N_13putEcP6Status+0x34>
     467: 85 14        	sta	$14                     ; 0x2014 <_ZN12_GLOBAL__N_13putEcP6Status+0x31>
     469: 8a           	txa
     46a: a0 04        	ldy	#$4
     46c: 91 16        	sta	($16),y                 ; 0x2016 <_ZN12_GLOBAL__N_13putEcP6Status+0x33>
     46e: 18           	clc
     46f: a5 18        	lda	$18                     ; 0x2018 <_ZN12_GLOBAL__N_13putEcP6Status+0x35>
     471: 69 04        	adc	#$4
     473: a8           	tay
     474: a5 14        	lda	$14                     ; 0x2014 <_ZN12_GLOBAL__N_13putEcP6Status+0x31>
     476: 69 00        	adc	#$0
     478: 84 14        	sty	$14                     ; 0x2014 <_ZN12_GLOBAL__N_13putEcP6Status+0x31>
     47a: 85 15        	sta	$15                     ; 0x2015 <_ZN12_GLOBAL__N_13putEcP6Status+0x32>
     47c: a5 13        	lda	$13                     ; 0x2013 <_ZN12_GLOBAL__N_13putEcP6Status+0x30>
     47e: a0 01        	ldy	#$1
     480: 91 14        	sta	($14),y                 ; 0x2014 <_ZN12_GLOBAL__N_13putEcP6Status+0x31>
     482: 60           	rts
     483: 00           	brk

00000484 <_ZN12_GLOBAL__N_19FreeChunk6removeEv>:
     484: a0 01        	ldy	#$1
     486: a9 fe        	lda	#$fe
     488: 32 12        	and	($12)                   ; 0x2012 <_ZN12_GLOBAL__N_13putEcP6Status+0x2f>
     48a: 85 14        	sta	$14                     ; 0x2014 <_ZN12_GLOBAL__N_13putEcP6Status+0x31>
     48c: a5 d5        	lda	$d5                     ; 0x20d5 <_ZN12_GLOBAL__N_112print_stringEPKcP6Status+0x11>
     48e: a6 d6        	ldx	$d6                     ; 0x20d6 <_ZN12_GLOBAL__N_112print_stringEPKcP6Status+0x12>
     490: 86 15        	stx	$15                     ; 0x2015 <_ZN12_GLOBAL__N_13putEcP6Status+0x32>
     492: 38           	sec
     493: e5 14        	sbc	$14                     ; 0x2014 <_ZN12_GLOBAL__N_13putEcP6Status+0x31>
     495: aa           	tax
     496: a5 15        	lda	$15                     ; 0x2015 <_ZN12_GLOBAL__N_13putEcP6Status+0x32>
     498: f1 12        	sbc	($12),y                 ; 0x2012 <_ZN12_GLOBAL__N_13putEcP6Status+0x2f>
     49a: 85 14        	sta	$14                     ; 0x2014 <_ZN12_GLOBAL__N_13putEcP6Status+0x31>
     49c: 18           	clc
     49d: 8a           	txa
     49e: 69 02        	adc	#$2
     4a0: 85 15        	sta	$15                     ; 0x2015 <_ZN12_GLOBAL__N_13putEcP6Status+0x32>
     4a2: a5 14        	lda	$14                     ; 0x2014 <_ZN12_GLOBAL__N_13putEcP6Status+0x31>
     4a4: 69 00        	adc	#$0
     4a6: a6 15        	ldx	$15                     ; 0x2015 <_ZN12_GLOBAL__N_13putEcP6Status+0x32>
     4a8: 86 d5        	stx	$d5                     ; 0x20d5 <_ZN12_GLOBAL__N_112print_stringEPKcP6Status+0x11>
     4aa: 85 d6        	sta	$d6                     ; 0x20d6 <_ZN12_GLOBAL__N_112print_stringEPKcP6Status+0x12>
     4ac: a5 12        	lda	$12                     ; 0x2012 <_ZN12_GLOBAL__N_13putEcP6Status+0x2f>
     4ae: 18           	clc
     4af: 69 02        	adc	#$2
     4b1: 85 14        	sta	$14                     ; 0x2014 <_ZN12_GLOBAL__N_13putEcP6Status+0x31>
     4b3: a5 13        	lda	$13                     ; 0x2013 <_ZN12_GLOBAL__N_13putEcP6Status+0x30>
     4b5: 69 00        	adc	#$0
     4b7: c8           	iny
     4b8: 85 15        	sta	$15                     ; 0x2015 <_ZN12_GLOBAL__N_13putEcP6Status+0x32>
     4ba: b1 12        	lda	($12),y                 ; 0x2012 <_ZN12_GLOBAL__N_13putEcP6Status+0x2f>
     4bc: aa           	tax
     4bd: 88           	dey
     4be: b1 14        	lda	($14),y                 ; 0x2014 <_ZN12_GLOBAL__N_13putEcP6Status+0x31>
     4c0: 85 19        	sta	$19                     ; 0x2019 <_ZN12_GLOBAL__N_13putEcP6Status+0x36>
     4c2: c5 13        	cmp	$13                     ; 0x2013 <_ZN12_GLOBAL__N_13putEcP6Status+0x30>
     4c4: d0 0f        	bne	$4d5 <_ZN12_GLOBAL__N_19FreeChunk6removeEv+0x51>
     4c6: e4 12        	cpx	$12                     ; 0x2012 <_ZN12_GLOBAL__N_13putEcP6Status+0x2f>
     4c8: d0 0b        	bne	$4d5 <_ZN12_GLOBAL__N_19FreeChunk6removeEv+0x51>
     4ca: a2 00        	ldx	#$0
     4cc: 86 14        	stx	$14                     ; 0x2014 <_ZN12_GLOBAL__N_13putEcP6Status+0x31>
     4ce: a2 00        	ldx	#$0
     4d0: 86 15        	stx	$15                     ; 0x2015 <_ZN12_GLOBAL__N_13putEcP6Status+0x32>
     4d2: 4c 52 05     	jmp	$552 <_ZN12_GLOBAL__N_19FreeChunk6removeEv+0xce>
     4d5: 86 18        	stx	$18                     ; 0x2018 <_ZN12_GLOBAL__N_13putEcP6Status+0x35>
     4d7: a6 12        	ldx	$12                     ; 0x2012 <_ZN12_GLOBAL__N_13putEcP6Status+0x2f>
     4d9: a5 12        	lda	$12                     ; 0x2012 <_ZN12_GLOBAL__N_13putEcP6Status+0x2f>
     4db: 86 1b        	stx	$1b                     ; 0x201b <_ZN12_GLOBAL__N_13putEcP6Status+0x38>
     4dd: 18           	clc
     4de: 69 04        	adc	#$4
     4e0: 85 14        	sta	$14                     ; 0x2014 <_ZN12_GLOBAL__N_13putEcP6Status+0x31>
     4e2: a5 13        	lda	$13                     ; 0x2013 <_ZN12_GLOBAL__N_13putEcP6Status+0x30>
     4e4: 69 00        	adc	#$0
     4e6: a0 04        	ldy	#$4
     4e8: 85 15        	sta	$15                     ; 0x2015 <_ZN12_GLOBAL__N_13putEcP6Status+0x32>
     4ea: b1 12        	lda	($12),y                 ; 0x2012 <_ZN12_GLOBAL__N_13putEcP6Status+0x2f>
     4ec: 85 1c        	sta	$1c                     ; 0x201c <_ZN12_GLOBAL__N_13putEcP6Status+0x39>
     4ee: 18           	clc
     4ef: 69 02        	adc	#$2
     4f1: 85 16        	sta	$16                     ; 0x2016 <_ZN12_GLOBAL__N_13putEcP6Status+0x33>
     4f3: a0 01        	ldy	#$1
     4f5: b1 14        	lda	($14),y                 ; 0x2014 <_ZN12_GLOBAL__N_13putEcP6Status+0x31>
     4f7: aa           	tax
     4f8: 69 00        	adc	#$0
     4fa: a4 16        	ldy	$16                     ; 0x2016 <_ZN12_GLOBAL__N_13putEcP6Status+0x33>
     4fc: 84 14        	sty	$14                     ; 0x2014 <_ZN12_GLOBAL__N_13putEcP6Status+0x31>
     4fe: 85 15        	sta	$15                     ; 0x2015 <_ZN12_GLOBAL__N_13putEcP6Status+0x32>
     500: a4 1c        	ldy	$1c                     ; 0x201c <_ZN12_GLOBAL__N_13putEcP6Status+0x39>
     502: 84 16        	sty	$16                     ; 0x2016 <_ZN12_GLOBAL__N_13putEcP6Status+0x33>
     504: 86 17        	stx	$17                     ; 0x2017 <_ZN12_GLOBAL__N_13putEcP6Status+0x34>
     506: a0 02        	ldy	#$2
     508: a5 18        	lda	$18                     ; 0x2018 <_ZN12_GLOBAL__N_13putEcP6Status+0x35>
     50a: 91 16        	sta	($16),y                 ; 0x2016 <_ZN12_GLOBAL__N_13putEcP6Status+0x33>
     50c: a5 19        	lda	$19                     ; 0x2019 <_ZN12_GLOBAL__N_13putEcP6Status+0x36>
     50e: 88           	dey
     50f: 91 14        	sta	($14),y                 ; 0x2014 <_ZN12_GLOBAL__N_13putEcP6Status+0x31>
     511: 18           	clc
     512: a5 1b        	lda	$1b                     ; 0x201b <_ZN12_GLOBAL__N_13putEcP6Status+0x38>
     514: 69 02        	adc	#$2
     516: 85 14        	sta	$14                     ; 0x2014 <_ZN12_GLOBAL__N_13putEcP6Status+0x31>
     518: a5 13        	lda	$13                     ; 0x2013 <_ZN12_GLOBAL__N_13putEcP6Status+0x30>
     51a: 69 00        	adc	#$0
     51c: 85 15        	sta	$15                     ; 0x2015 <_ZN12_GLOBAL__N_13putEcP6Status+0x32>
     51e: c8           	iny
     51f: b1 12        	lda	($12),y                 ; 0x2012 <_ZN12_GLOBAL__N_13putEcP6Status+0x2f>
     521: 85 16        	sta	$16                     ; 0x2016 <_ZN12_GLOBAL__N_13putEcP6Status+0x33>
     523: 88           	dey
     524: b1 14        	lda	($14),y                 ; 0x2014 <_ZN12_GLOBAL__N_13putEcP6Status+0x31>
     526: a4 16        	ldy	$16                     ; 0x2016 <_ZN12_GLOBAL__N_13putEcP6Status+0x33>
     528: 84 14        	sty	$14                     ; 0x2014 <_ZN12_GLOBAL__N_13putEcP6Status+0x31>
     52a: 85 15        	sta	$15                     ; 0x2015 <_ZN12_GLOBAL__N_13putEcP6Status+0x32>
     52c: 85 17        	sta	$17                     ; 0x2017 <_ZN12_GLOBAL__N_13putEcP6Status+0x34>
     52e: a0 04        	ldy	#$4
     530: a5 1c        	lda	$1c                     ; 0x201c <_ZN12_GLOBAL__N_13putEcP6Status+0x39>
     532: 91 14        	sta	($14),y                 ; 0x2014 <_ZN12_GLOBAL__N_13putEcP6Status+0x31>
     534: 18           	clc
     535: a5 16        	lda	$16                     ; 0x2016 <_ZN12_GLOBAL__N_13putEcP6Status+0x33>
     537: 69 04        	adc	#$4
     539: 85 16        	sta	$16                     ; 0x2016 <_ZN12_GLOBAL__N_13putEcP6Status+0x33>
     53b: a5 17        	lda	$17                     ; 0x2017 <_ZN12_GLOBAL__N_13putEcP6Status+0x34>
     53d: 69 00        	adc	#$0
     53f: 85 17        	sta	$17                     ; 0x2017 <_ZN12_GLOBAL__N_13putEcP6Status+0x34>
     541: 8a           	txa
     542: a0 01        	ldy	#$1
     544: 91 16        	sta	($16),y                 ; 0x2016 <_ZN12_GLOBAL__N_13putEcP6Status+0x33>
     546: a6 d8        	ldx	$d8                     ; 0x20d8 <_ZN12_GLOBAL__N_112print_stringEPKcP6Status+0x14>
     548: e4 13        	cpx	$13                     ; 0x2013 <_ZN12_GLOBAL__N_13putEcP6Status+0x30>
     54a: d0 0e        	bne	$55a <_ZN12_GLOBAL__N_19FreeChunk6removeEv+0xd6>
     54c: a6 d7        	ldx	$d7                     ; 0x20d7 <_ZN12_GLOBAL__N_112print_stringEPKcP6Status+0x13>
     54e: e4 12        	cpx	$12                     ; 0x2012 <_ZN12_GLOBAL__N_13putEcP6Status+0x2f>
     550: d0 08        	bne	$55a <_ZN12_GLOBAL__N_19FreeChunk6removeEv+0xd6>
     552: a6 14        	ldx	$14                     ; 0x2014 <_ZN12_GLOBAL__N_13putEcP6Status+0x31>
     554: a4 15        	ldy	$15                     ; 0x2015 <_ZN12_GLOBAL__N_13putEcP6Status+0x32>
     556: 86 d7        	stx	$d7                     ; 0x20d7 <_ZN12_GLOBAL__N_112print_stringEPKcP6Status+0x13>
     558: 84 d8        	sty	$d8                     ; 0x20d8 <_ZN12_GLOBAL__N_112print_stringEPKcP6Status+0x14>
     55a: 60           	rts
     55b: 00           	brk

0000055c <_ZN6__impl6VarInt4makeEPvc>:
     55c: 92 12        	sta	($12)                   ; 0x2012 <_ZN12_GLOBAL__N_13putEcP6Status+0x2f>
     55e: 60           	rts
     55f: 00           	brk

00000560 <_ZNK6__impl6VarInt8high_bitEv>:
     560: b2 12        	lda	($12)                   ; 0x2012 <_ZN12_GLOBAL__N_13putEcP6Status+0x2f>
     562: a8           	tay
     563: b1 12        	lda	($12),y                 ; 0x2012 <_ZN12_GLOBAL__N_13putEcP6Status+0x2f>
     565: 10 03        	bpl	$56a <_ZNK6__impl6VarInt8high_bitEv+0xa>
     567: a9 01        	lda	#$1
     569: 60           	rts
     56a: a9 00        	lda	#$0
     56c: 60           	rts
     56d: 00           	brk

0000056e <_ZNK6__impl6VarInt8negativeEv>:
     56e: b2 12        	lda	($12)                   ; 0x2012 <_ZN12_GLOBAL__N_13putEcP6Status+0x2f>
     570: a8           	tay
     571: b1 12        	lda	($12),y                 ; 0x2012 <_ZN12_GLOBAL__N_13putEcP6Status+0x2f>
     573: 10 03        	bpl	$578 <_ZNK6__impl6VarInt8negativeEv+0xa>
     575: a9 01        	lda	#$1
     577: 60           	rts
     578: a9 00        	lda	#$0
     57a: 60           	rts
     57b: 00           	brk

0000057c <_ZN6__impl6VarInt6negateEv>:
     57c: b2 12        	lda	($12)                   ; 0x2012 <_ZN12_GLOBAL__N_13putEcP6Status+0x2f>
     57e: f0 42        	beq	$5c2 <_ZN6__impl6VarInt6negateEv+0x46>
     580: aa           	tax
     581: a4 12        	ldy	$12                     ; 0x2012 <_ZN12_GLOBAL__N_13putEcP6Status+0x2f>
     583: 84 16        	sty	$16                     ; 0x2016 <_ZN12_GLOBAL__N_13putEcP6Status+0x33>
     585: a4 13        	ldy	$13                     ; 0x2013 <_ZN12_GLOBAL__N_13putEcP6Status+0x30>
     587: 84 17        	sty	$17                     ; 0x2017 <_ZN12_GLOBAL__N_13putEcP6Status+0x34>
     589: 64 12        	stz	$12                     ; 0x2012 <_ZN12_GLOBAL__N_13putEcP6Status+0x2f>
     58b: 64 13        	stz	$13                     ; 0x2013 <_ZN12_GLOBAL__N_13putEcP6Status+0x30>
     58d: a0 01        	ldy	#$1
     58f: a5 16        	lda	$16                     ; 0x2016 <_ZN12_GLOBAL__N_13putEcP6Status+0x33>
     591: 18           	clc
     592: 65 12        	adc	$12                     ; 0x2012 <_ZN12_GLOBAL__N_13putEcP6Status+0x2f>
     594: 85 14        	sta	$14                     ; 0x2014 <_ZN12_GLOBAL__N_13putEcP6Status+0x31>
     596: a5 17        	lda	$17                     ; 0x2017 <_ZN12_GLOBAL__N_13putEcP6Status+0x34>
     598: 69 00        	adc	#$0
     59a: 85 15        	sta	$15                     ; 0x2015 <_ZN12_GLOBAL__N_13putEcP6Status+0x32>
     59c: a9 00        	lda	#$0
     59e: 38           	sec
     59f: f1 14        	sbc	($14),y                 ; 0x2014 <_ZN12_GLOBAL__N_13putEcP6Status+0x31>
     5a1: 64 19        	stz	$19                     ; 0x2019 <_ZN12_GLOBAL__N_13putEcP6Status+0x36>
     5a3: b0 02        	bcs	$5a7 <_ZN6__impl6VarInt6negateEv+0x2b>
     5a5: 84 19        	sty	$19                     ; 0x2019 <_ZN12_GLOBAL__N_13putEcP6Status+0x36>
     5a7: 38           	sec
     5a8: e5 13        	sbc	$13                     ; 0x2013 <_ZN12_GLOBAL__N_13putEcP6Status+0x30>
     5aa: 85 18        	sta	$18                     ; 0x2018 <_ZN12_GLOBAL__N_13putEcP6Status+0x35>
     5ac: 64 13        	stz	$13                     ; 0x2013 <_ZN12_GLOBAL__N_13putEcP6Status+0x30>
     5ae: b0 02        	bcs	$5b2 <_ZN6__impl6VarInt6negateEv+0x36>
     5b0: 84 13        	sty	$13                     ; 0x2013 <_ZN12_GLOBAL__N_13putEcP6Status+0x30>
     5b2: a5 19        	lda	$19                     ; 0x2019 <_ZN12_GLOBAL__N_13putEcP6Status+0x36>
     5b4: 05 13        	ora	$13                     ; 0x2013 <_ZN12_GLOBAL__N_13putEcP6Status+0x30>
     5b6: 85 13        	sta	$13                     ; 0x2013 <_ZN12_GLOBAL__N_13putEcP6Status+0x30>
     5b8: a5 18        	lda	$18                     ; 0x2018 <_ZN12_GLOBAL__N_13putEcP6Status+0x35>
     5ba: 91 14        	sta	($14),y                 ; 0x2014 <_ZN12_GLOBAL__N_13putEcP6Status+0x31>
     5bc: e6 12        	inc	$12                     ; 0x2012 <_ZN12_GLOBAL__N_13putEcP6Status+0x2f>
     5be: e4 12        	cpx	$12                     ; 0x2012 <_ZN12_GLOBAL__N_13putEcP6Status+0x2f>
     5c0: d0 cd        	bne	$58f <_ZN6__impl6VarInt6negateEv+0x13>
     5c2: 60           	rts
     5c3: 00           	brk

000005c4 <_ZN6__impl6VarInt3shlEv>:
     5c4: b2 12        	lda	($12)                   ; 0x2012 <_ZN12_GLOBAL__N_13putEcP6Status+0x2f>
     5c6: f0 36        	beq	$5fe <_ZN6__impl6VarInt3shlEv+0x3a>
     5c8: 85 17        	sta	$17                     ; 0x2017 <_ZN12_GLOBAL__N_13putEcP6Status+0x34>
     5ca: 64 14        	stz	$14                     ; 0x2014 <_ZN12_GLOBAL__N_13putEcP6Status+0x31>
     5cc: a6 12        	ldx	$12                     ; 0x2012 <_ZN12_GLOBAL__N_13putEcP6Status+0x2f>
     5ce: 86 15        	stx	$15                     ; 0x2015 <_ZN12_GLOBAL__N_13putEcP6Status+0x32>
     5d0: a6 13        	ldx	$13                     ; 0x2013 <_ZN12_GLOBAL__N_13putEcP6Status+0x30>
     5d2: 86 18        	stx	$18                     ; 0x2018 <_ZN12_GLOBAL__N_13putEcP6Status+0x35>
     5d4: a0 01        	ldy	#$1
     5d6: 64 12        	stz	$12                     ; 0x2012 <_ZN12_GLOBAL__N_13putEcP6Status+0x2f>
     5d8: a5 15        	lda	$15                     ; 0x2015 <_ZN12_GLOBAL__N_13putEcP6Status+0x32>
     5da: 18           	clc
     5db: 65 12        	adc	$12                     ; 0x2012 <_ZN12_GLOBAL__N_13putEcP6Status+0x2f>
     5dd: 85 16        	sta	$16                     ; 0x2016 <_ZN12_GLOBAL__N_13putEcP6Status+0x33>
     5df: a6 17        	ldx	$17                     ; 0x2017 <_ZN12_GLOBAL__N_13putEcP6Status+0x34>
     5e1: a5 18        	lda	$18                     ; 0x2018 <_ZN12_GLOBAL__N_13putEcP6Status+0x35>
     5e3: 69 00        	adc	#$0
     5e5: 85 17        	sta	$17                     ; 0x2017 <_ZN12_GLOBAL__N_13putEcP6Status+0x34>
     5e7: b1 16        	lda	($16),y                 ; 0x2016 <_ZN12_GLOBAL__N_13putEcP6Status+0x33>
     5e9: 0a           	asl
     5ea: 64 13        	stz	$13                     ; 0x2013 <_ZN12_GLOBAL__N_13putEcP6Status+0x30>
     5ec: 26 13        	rol	$13                     ; 0x2013 <_ZN12_GLOBAL__N_13putEcP6Status+0x30>
     5ee: 05 14        	ora	$14                     ; 0x2014 <_ZN12_GLOBAL__N_13putEcP6Status+0x31>
     5f0: 91 16        	sta	($16),y                 ; 0x2016 <_ZN12_GLOBAL__N_13putEcP6Status+0x33>
     5f2: e6 12        	inc	$12                     ; 0x2012 <_ZN12_GLOBAL__N_13putEcP6Status+0x2f>
     5f4: a5 13        	lda	$13                     ; 0x2013 <_ZN12_GLOBAL__N_13putEcP6Status+0x30>
     5f6: 85 14        	sta	$14                     ; 0x2014 <_ZN12_GLOBAL__N_13putEcP6Status+0x31>
     5f8: 86 17        	stx	$17                     ; 0x2017 <_ZN12_GLOBAL__N_13putEcP6Status+0x34>
     5fa: e4 12        	cpx	$12                     ; 0x2012 <_ZN12_GLOBAL__N_13putEcP6Status+0x2f>
     5fc: d0 da        	bne	$5d8 <_ZN6__impl6VarInt3shlEv+0x14>
     5fe: 60           	rts

000005ff <__call_indir>:
     5ff: 6c 22 00     	jmp	($22)                   ; 0x22 <__rc18>

00000602 <__zero_zp_bss>:
     602: a2 72        	ldx	#$72
     604: a0 00        	ldy	#$0
     606: a9 67        	lda	#$67
     608: 85 12        	sta	$12                     ; 0x2012 <_ZN12_GLOBAL__N_13putEcP6Status+0x2f>
     60a: a9 00        	lda	#$0
     60c: 85 13        	sta	$13                     ; 0x2013 <_ZN12_GLOBAL__N_13putEcP6Status+0x30>
     60e: a9 00        	lda	#$0
     610: 84 14        	sty	$14                     ; 0x2014 <_ZN12_GLOBAL__N_13putEcP6Status+0x31>
     612: 4c 37 26     	jmp	$2637 <__memset>

00000615 <__copy_zp_data>:
     615: a9 37        	lda	#$37
     617: a2 00        	ldx	#$0
     619: a0 30        	ldy	#$30
     61b: 84 12        	sty	$12                     ; 0x2012 <_ZN12_GLOBAL__N_13putEcP6Status+0x2f>
     61d: a0 00        	ldy	#$0
     61f: 84 13        	sty	$13                     ; 0x2013 <_ZN12_GLOBAL__N_13putEcP6Status+0x30>
     621: a0 00        	ldy	#$0
     623: 84 14        	sty	$14                     ; 0x2014 <_ZN12_GLOBAL__N_13putEcP6Status+0x31>
     625: a0 03        	ldy	#$3
     627: 84 15        	sty	$15                     ; 0x2015 <_ZN12_GLOBAL__N_13putEcP6Status+0x32>
     629: 4c 0b 26     	jmp	$260b <memcpy>

0000062c <f256Init>:
     62c: 64 12        	stz	$12                     ; 0x2012 <_ZN12_GLOBAL__N_13putEcP6Status+0x2f>
     62e: 64 01        	stz	$1                      ; 0x2001 <_ZN12_GLOBAL__N_13putEcP6Status+0x1e>
     630: a2 3f        	ldx	#$3f
     632: 8e 00 d0     	stx	$d000                   ; 0xd000 <end_block9+0xa868>
     635: a2 b3        	ldx	#$b3
     637: 86 00        	stx	$0                      ; 0x2000 <_ZN12_GLOBAL__N_13putEcP6Status+0x1d>
     639: 64 08        	stz	$8                      ; 0x2008 <_ZN12_GLOBAL__N_13putEcP6Status+0x25>
     63b: a2 01        	ldx	#$1
     63d: 86 09        	stx	$9                      ; 0x2009 <_ZN12_GLOBAL__N_13putEcP6Status+0x26>
     63f: e8           	inx
     640: 86 0a        	stx	$a                      ; 0x200a <_ZN12_GLOBAL__N_13putEcP6Status+0x27>
     642: e8           	inx
     643: 86 0b        	stx	$b                      ; 0x200b <_ZN12_GLOBAL__N_13putEcP6Status+0x28>
     645: e8           	inx
     646: 86 0c        	stx	$c                      ; 0x200c <_ZN12_GLOBAL__N_13putEcP6Status+0x29>
     648: e8           	inx
     649: 86 0d        	stx	$d                      ; 0x200d <_ZN12_GLOBAL__N_13putEcP6Status+0x2a>
     64b: a2 f0        	ldx	#$f0
     64d: 86 67        	stx	$67                     ; 0x2067 <_ZN12_GLOBAL__N_13putEcP6Status+0x84>
     64f: 64 68        	stz	$68                     ; 0x2068 <_ZN12_GLOBAL__N_13putEcP6Status+0x85>
     651: a2 cc        	ldx	#$cc
     653: a0 00        	ldy	#$0
     655: 86 f0        	stx	$f0                     ; 0x20f0 <_ZN12_GLOBAL__N_112print_stringEPKcP6Status+0x2c>
     657: 84 f1        	sty	$f1                     ; 0x20f1 <_ZN12_GLOBAL__N_112print_stringEPKcP6Status+0x2d>
     659: a2 00        	ldx	#$0
     65b: 86 16        	stx	$16                     ; 0x2016 <_ZN12_GLOBAL__N_13putEcP6Status+0x33>
     65d: ca           	dex
     65e: 86 17        	stx	$17                     ; 0x2017 <_ZN12_GLOBAL__N_13putEcP6Status+0x34>
     660: 8a           	txa
     661: 0a           	asl
     662: 0a           	asl
     663: 18           	clc
     664: 69 d4        	adc	#$d4
     666: 85 18        	sta	$18                     ; 0x2018 <_ZN12_GLOBAL__N_13putEcP6Status+0x35>
     668: a0 00        	ldy	#$0
     66a: 64 15        	stz	$15                     ; 0x2015 <_ZN12_GLOBAL__N_13putEcP6Status+0x32>
     66c: 64 14        	stz	$14                     ; 0x2014 <_ZN12_GLOBAL__N_13putEcP6Status+0x31>
     66e: a6 17        	ldx	$17                     ; 0x2017 <_ZN12_GLOBAL__N_13putEcP6Status+0x34>
     670: e0 03        	cpx	#$3
     672: a6 01        	ldx	$1                      ; 0x2001 <_ZN12_GLOBAL__N_13putEcP6Status+0x1e>
     674: 86 1a        	stx	$1a                     ; 0x201a <_ZN12_GLOBAL__N_13putEcP6Status+0x37>
     676: a2 d0        	ldx	#$d0
     678: 84 19        	sty	$19                     ; 0x2019 <_ZN12_GLOBAL__N_13putEcP6Status+0x36>
     67a: b0 02        	bcs	$67e <f256Init+0x52>
     67c: a6 18        	ldx	$18                     ; 0x2018 <_ZN12_GLOBAL__N_13putEcP6Status+0x35>
     67e: 86 13        	stx	$13                     ; 0x2013 <_ZN12_GLOBAL__N_13putEcP6Status+0x30>
     680: a5 15        	lda	$15                     ; 0x2015 <_ZN12_GLOBAL__N_13putEcP6Status+0x32>
     682: 18           	clc
     683: 65 12        	adc	$12                     ; 0x2012 <_ZN12_GLOBAL__N_13putEcP6Status+0x2f>
     685: a8           	tay
     686: a6 15        	ldx	$15                     ; 0x2015 <_ZN12_GLOBAL__N_13putEcP6Status+0x32>
     688: a5 14        	lda	$14                     ; 0x2014 <_ZN12_GLOBAL__N_13putEcP6Status+0x31>
     68a: 85 1b        	sta	$1b                     ; 0x201b <_ZN12_GLOBAL__N_13putEcP6Status+0x38>
     68c: a5 14        	lda	$14                     ; 0x2014 <_ZN12_GLOBAL__N_13putEcP6Status+0x31>
     68e: 65 13        	adc	$13                     ; 0x2013 <_ZN12_GLOBAL__N_13putEcP6Status+0x30>
     690: 84 14        	sty	$14                     ; 0x2014 <_ZN12_GLOBAL__N_13putEcP6Status+0x31>
     692: a0 01        	ldy	#$1
     694: 84 01        	sty	$1                      ; 0x2001 <_ZN12_GLOBAL__N_13putEcP6Status+0x1e>
     696: 85 15        	sta	$15                     ; 0x2015 <_ZN12_GLOBAL__N_13putEcP6Status+0x32>
     698: a5 19        	lda	$19                     ; 0x2019 <_ZN12_GLOBAL__N_13putEcP6Status+0x36>
     69a: 92 14        	sta	($14)                   ; 0x2014 <_ZN12_GLOBAL__N_13putEcP6Status+0x31>
     69c: 91 14        	sta	($14),y                 ; 0x2014 <_ZN12_GLOBAL__N_13putEcP6Status+0x31>
     69e: c8           	iny
     69f: 91 14        	sta	($14),y                 ; 0x2014 <_ZN12_GLOBAL__N_13putEcP6Status+0x31>
     6a1: 85 13        	sta	$13                     ; 0x2013 <_ZN12_GLOBAL__N_13putEcP6Status+0x30>
     6a3: c8           	iny
     6a4: a9 ff        	lda	#$ff
     6a6: 91 14        	sta	($14),y                 ; 0x2014 <_ZN12_GLOBAL__N_13putEcP6Status+0x31>
     6a8: 8a           	txa
     6a9: a6 1a        	ldx	$1a                     ; 0x201a <_ZN12_GLOBAL__N_13putEcP6Status+0x37>
     6ab: 86 01        	stx	$1                      ; 0x2001 <_ZN12_GLOBAL__N_13putEcP6Status+0x1e>
     6ad: 18           	clc
     6ae: 69 04        	adc	#$4
     6b0: 85 15        	sta	$15                     ; 0x2015 <_ZN12_GLOBAL__N_13putEcP6Status+0x32>
     6b2: a5 1b        	lda	$1b                     ; 0x201b <_ZN12_GLOBAL__N_13putEcP6Status+0x38>
     6b4: 69 00        	adc	#$0
     6b6: e6 13        	inc	$13                     ; 0x2013 <_ZN12_GLOBAL__N_13putEcP6Status+0x30>
     6b8: a4 13        	ldy	$13                     ; 0x2013 <_ZN12_GLOBAL__N_13putEcP6Status+0x30>
     6ba: 85 14        	sta	$14                     ; 0x2014 <_ZN12_GLOBAL__N_13putEcP6Status+0x31>
     6bc: c9 04        	cmp	#$4
     6be: f0 03        	beq	$6c3 <f256Init+0x97>
     6c0: 4c 6e 06     	jmp	$66e <f256Init+0x42>
     6c3: a5 15        	lda	$15                     ; 0x2015 <_ZN12_GLOBAL__N_13putEcP6Status+0x32>
     6c5: f0 03        	beq	$6ca <f256Init+0x9e>
     6c7: 4c 6e 06     	jmp	$66e <f256Init+0x42>
     6ca: a6 16        	ldx	$16                     ; 0x2016 <_ZN12_GLOBAL__N_13putEcP6Status+0x33>
     6cc: e8           	inx
     6cd: e0 04        	cpx	#$4
     6cf: f0 03        	beq	$6d4 <f256Init+0xa8>
     6d1: 4c 5b 06     	jmp	$65b <f256Init+0x2f>
     6d4: ad 02 d0     	lda	$d002                   ; 0xd002 <end_block9+0xa86a>
     6d7: 29 f0        	and	#$f0
     6d9: 8d 02 d0     	sta	$d002                   ; 0xd002 <end_block9+0xa86a>
     6dc: ad 02 d0     	lda	$d002                   ; 0xd002 <end_block9+0xa86a>
     6df: 29 0f        	and	#$f
     6e1: 09 10        	ora	#$10
     6e3: 8d 02 d0     	sta	$d002                   ; 0xd002 <end_block9+0xa86a>
     6e6: a2 02        	ldx	#$2
     6e8: 8e 03 d0     	stx	$d003                   ; 0xd003 <end_block9+0xa86b>
     6eb: 20 a7 07     	jsr	$7a7 <textReset>
     6ee: 20 1a 09     	jsr	$91a <bitmapReset>
     6f1: a9 10        	lda	#$10
     6f3: a2 08        	ldx	#$8
     6f5: 86 7e        	stx	$7e                     ; 0x207e <_ZN12_GLOBAL__N_13putEcP6Status+0x9b>
     6f7: 86 7f        	stx	$7f                     ; 0x207f <_ZN12_GLOBAL__N_13putEcP6Status+0x9c>
     6f9: 86 80        	stx	$80                     ; 0x2080 <_ZN12_GLOBAL__N_13putEcP6Status+0x9d>
     6fb: 8d 00 d2     	sta	$d200                   ; 0xd200 <end_block9+0xaa68>
     6fe: a4 7f        	ldy	$7f                     ; 0x207f <_ZN12_GLOBAL__N_13putEcP6Status+0x9c>
     700: aa           	tax
     701: c0 08        	cpy	#$8
     703: f0 02        	beq	$707 <f256Init+0xdb>
     705: a2 00        	ldx	#$0
     707: 8e 0c d2     	stx	$d20c                   ; 0xd20c <end_block9+0xaa74>
     70a: a6 80        	ldx	$80                     ; 0x2080 <_ZN12_GLOBAL__N_13putEcP6Status+0x9d>
     70c: e0 08        	cpx	#$8
     70e: f0 02        	beq	$712 <f256Init+0xe6>
     710: a9 00        	lda	#$0
     712: 8d 18 d2     	sta	$d218                   ; 0xd218 <end_block9+0xaa80>
     715: a0 d9        	ldy	#$d9
     717: a2 00        	ldx	#$0
     719: 64 12        	stz	$12                     ; 0x2012 <_ZN12_GLOBAL__N_13putEcP6Status+0x2f>
     71b: 84 13        	sty	$13                     ; 0x2013 <_ZN12_GLOBAL__N_13putEcP6Status+0x30>
     71d: b5 81        	lda	$81,x                   ; 0x2081 <_ZN12_GLOBAL__N_13putEcP6Status+0x9e>
     71f: 92 12        	sta	($12)                   ; 0x2012 <_ZN12_GLOBAL__N_13putEcP6Status+0x2f>
     721: e8           	inx
     722: 18           	clc
     723: a5 12        	lda	$12                     ; 0x2012 <_ZN12_GLOBAL__N_13putEcP6Status+0x2f>
     725: 69 08        	adc	#$8
     727: 85 12        	sta	$12                     ; 0x2012 <_ZN12_GLOBAL__N_13putEcP6Status+0x2f>
     729: 98           	tya
     72a: 69 00        	adc	#$0
     72c: a8           	tay
     72d: e0 40        	cpx	#$40
     72f: d0 ea        	bne	$71b <f256Init+0xef>
     731: 64 c1        	stz	$c1                     ; 0x20c1 <_ZN12_GLOBAL__N_13putEcP6Status+0xde>
     733: 64 c2        	stz	$c2                     ; 0x20c2 <_ZN12_GLOBAL__N_13putEcP6Status+0xdf>
     735: 64 c3        	stz	$c3                     ; 0x20c3 <_ZN12_GLOBAL__N_13putEcP6Status+0xe0>
     737: 64 c4        	stz	$c4                     ; 0x20c4 <_ZN12_GLOBAL__N_112print_stringEPKcP6Status>
     739: 64 c5        	stz	$c5                     ; 0x20c5 <_ZN12_GLOBAL__N_112print_stringEPKcP6Status+0x1>
     73b: 64 c6        	stz	$c6                     ; 0x20c6 <_ZN12_GLOBAL__N_112print_stringEPKcP6Status+0x2>
     73d: 64 c7        	stz	$c7                     ; 0x20c7 <_ZN12_GLOBAL__N_112print_stringEPKcP6Status+0x3>
     73f: 64 c8        	stz	$c8                     ; 0x20c8 <_ZN12_GLOBAL__N_112print_stringEPKcP6Status+0x4>
     741: a5 67        	lda	$67                     ; 0x2067 <_ZN12_GLOBAL__N_13putEcP6Status+0x84>
     743: a6 68        	ldx	$68                     ; 0x2068 <_ZN12_GLOBAL__N_13putEcP6Status+0x85>
     745: 85 12        	sta	$12                     ; 0x2012 <_ZN12_GLOBAL__N_13putEcP6Status+0x2f>
     747: 86 13        	stx	$13                     ; 0x2013 <_ZN12_GLOBAL__N_13putEcP6Status+0x30>
     749: a0 0b        	ldy	#$b
     74b: 18           	clc
     74c: 69 0b        	adc	#$b
     74e: 85 14        	sta	$14                     ; 0x2014 <_ZN12_GLOBAL__N_13putEcP6Status+0x31>
     750: 8a           	txa
     751: 69 00        	adc	#$0
     753: 85 15        	sta	$15                     ; 0x2015 <_ZN12_GLOBAL__N_13putEcP6Status+0x32>
     755: a9 d9        	lda	#$d9
     757: 91 12        	sta	($12),y                 ; 0x2012 <_ZN12_GLOBAL__N_13putEcP6Status+0x2f>
     759: a0 01        	ldy	#$1
     75b: a9 00        	lda	#$0
     75d: 91 14        	sta	($14),y                 ; 0x2014 <_ZN12_GLOBAL__N_13putEcP6Status+0x31>
     75f: a0 0d        	ldy	#$d
     761: a9 08        	lda	#$8
     763: 91 12        	sta	($12),y                 ; 0x2012 <_ZN12_GLOBAL__N_13putEcP6Status+0x2f>
     765: a2 e1        	ldx	#$e1
     767: a0 00        	ldy	#$0
     769: 86 12        	stx	$12                     ; 0x2012 <_ZN12_GLOBAL__N_13putEcP6Status+0x2f>
     76b: 84 13        	sty	$13                     ; 0x2013 <_ZN12_GLOBAL__N_13putEcP6Status+0x30>
     76d: a2 cb        	ldx	#$cb
     76f: 86 14        	stx	$14                     ; 0x2014 <_ZN12_GLOBAL__N_13putEcP6Status+0x31>
     771: a2 00        	ldx	#$0
     773: 86 15        	stx	$15                     ; 0x2015 <_ZN12_GLOBAL__N_13putEcP6Status+0x32>
     775: 20 dc ff     	jsr	$ffdc <end_block9+0xd844>
     778: 92 12        	sta	($12)                   ; 0x2012 <_ZN12_GLOBAL__N_13putEcP6Status+0x2f>
     77a: a9 00        	lda	#$0
     77c: 6a           	ror
     77d: 85 14        	sta	$14                     ; 0x2014 <_ZN12_GLOBAL__N_13putEcP6Status+0x31>
     77f: a6 df        	ldx	$df                     ; 0x20df <_ZN12_GLOBAL__N_112print_stringEPKcP6Status+0x1b>
     781: a4 e0        	ldy	$e0                     ; 0x20e0 <_ZN12_GLOBAL__N_112print_stringEPKcP6Status+0x1c>
     783: 8e 00 de     	stx	$de00                   ; 0xde00 <end_block9+0xb668>
     786: 9c 01 de     	stz	$de01                   ; 0xde01 <end_block9+0xb669>
     789: 8c 02 de     	sty	$de02                   ; 0xde02 <end_block9+0xb66a>
     78c: 9c 03 de     	stz	$de03                   ; 0xde03 <end_block9+0xb66b>
     78f: ae 10 de     	ldx	$de10                   ; 0xde10 <end_block9+0xb678>
     792: ac 11 de     	ldy	$de11                   ; 0xde11 <end_block9+0xb679>
     795: ad 12 de     	lda	$de12                   ; 0xde12 <end_block9+0xb67a>
     798: ad 13 de     	lda	$de13                   ; 0xde13 <end_block9+0xb67b>
     79b: 8e a4 d6     	stx	$d6a4                   ; 0xd6a4 <end_block9+0xaf0c>
     79e: 8c a5 d6     	sty	$d6a5                   ; 0xd6a5 <end_block9+0xaf0d>
     7a1: a2 03        	ldx	#$3
     7a3: 8e a6 d6     	stx	$d6a6                   ; 0xd6a6 <end_block9+0xaf0e>
     7a6: 60           	rts

000007a7 <textReset>:
     7a7: 64 14        	stz	$14                     ; 0x2014 <_ZN12_GLOBAL__N_13putEcP6Status+0x31>
     7a9: a2 00        	ldx	#$0
     7ab: 86 12        	stx	$12                     ; 0x2012 <_ZN12_GLOBAL__N_13putEcP6Status+0x2f>
     7ad: a2 c0        	ldx	#$c0
     7af: 86 13        	stx	$13                     ; 0x2013 <_ZN12_GLOBAL__N_13putEcP6Status+0x30>
     7b1: a2 f0        	ldx	#$f0
     7b3: 86 62        	stx	$62                     ; 0x2062 <_ZN12_GLOBAL__N_13putEcP6Status+0x7f>
     7b5: ad 01 d0     	lda	$d001                   ; 0xd001 <end_block9+0xa869>
     7b8: 29 f9        	and	#$f9
     7ba: 09 04        	ora	#$4
     7bc: 8d 01 d0     	sta	$d001                   ; 0xd001 <end_block9+0xa869>
     7bf: a2 50        	ldx	#$50
     7c1: 86 60        	stx	$60                     ; 0x2060 <_ZN12_GLOBAL__N_13putEcP6Status+0x7d>
     7c3: a2 1e        	ldx	#$1e
     7c5: 86 61        	stx	$61                     ; 0x2061 <_ZN12_GLOBAL__N_13putEcP6Status+0x7e>
     7c7: 9c 10 d0     	stz	$d010                   ; 0xd010 <end_block9+0xa878>
     7ca: a0 00        	ldy	#$0
     7cc: a2 00        	ldx	#$0
     7ce: 84 18        	sty	$18                     ; 0x2018 <_ZN12_GLOBAL__N_13putEcP6Status+0x35>
     7d0: b9 30 00     	lda	$30,y                   ; 0x30 <textColors>
     7d3: 85 1b        	sta	$1b                     ; 0x201b <_ZN12_GLOBAL__N_13putEcP6Status+0x38>
     7d5: b9 31 00     	lda	$31,y                   ; 0x31 <textColors+0x1>
     7d8: 85 1c        	sta	$1c                     ; 0x201c <_ZN12_GLOBAL__N_13putEcP6Status+0x39>
     7da: b9 32 00     	lda	$32,y                   ; 0x32 <textColors+0x2>
     7dd: 85 1d        	sta	$1d                     ; 0x201d <_ZN12_GLOBAL__N_13putEcP6Status+0x3a>
     7df: 84 1a        	sty	$1a                     ; 0x201a <_ZN12_GLOBAL__N_13putEcP6Status+0x37>
     7e1: 8e 00 de     	stx	$de00                   ; 0xde00 <end_block9+0xb668>
     7e4: 9c 01 de     	stz	$de01                   ; 0xde01 <end_block9+0xb669>
     7e7: a0 04        	ldy	#$4
     7e9: 8c 02 de     	sty	$de02                   ; 0xde02 <end_block9+0xb66a>
     7ec: 9c 03 de     	stz	$de03                   ; 0xde03 <end_block9+0xb66b>
     7ef: ac 10 de     	ldy	$de10                   ; 0xde10 <end_block9+0xb678>
     7f2: ad 11 de     	lda	$de11                   ; 0xde11 <end_block9+0xb679>
     7f5: 85 15        	sta	$15                     ; 0x2015 <_ZN12_GLOBAL__N_13putEcP6Status+0x32>
     7f7: 18           	clc
     7f8: 98           	tya
     7f9: 65 14        	adc	$14                     ; 0x2014 <_ZN12_GLOBAL__N_13putEcP6Status+0x31>
     7fb: 85 16        	sta	$16                     ; 0x2016 <_ZN12_GLOBAL__N_13putEcP6Status+0x33>
     7fd: a9 d8        	lda	#$d8
     7ff: 65 15        	adc	$15                     ; 0x2015 <_ZN12_GLOBAL__N_13putEcP6Status+0x32>
     801: 86 19        	stx	$19                     ; 0x2019 <_ZN12_GLOBAL__N_13putEcP6Status+0x36>
     803: ae 12 de     	ldx	$de12                   ; 0xde12 <end_block9+0xb67a>
     806: ae 13 de     	ldx	$de13                   ; 0xde13 <end_block9+0xb67b>
     809: 85 17        	sta	$17                     ; 0x2017 <_ZN12_GLOBAL__N_13putEcP6Status+0x34>
     80b: a5 1d        	lda	$1d                     ; 0x201d <_ZN12_GLOBAL__N_13putEcP6Status+0x3a>
     80d: 92 16        	sta	($16)                   ; 0x2016 <_ZN12_GLOBAL__N_13putEcP6Status+0x33>
     80f: a0 01        	ldy	#$1
     811: a5 1c        	lda	$1c                     ; 0x201c <_ZN12_GLOBAL__N_13putEcP6Status+0x39>
     813: 91 16        	sta	($16),y                 ; 0x2016 <_ZN12_GLOBAL__N_13putEcP6Status+0x33>
     815: c8           	iny
     816: a5 1b        	lda	$1b                     ; 0x201b <_ZN12_GLOBAL__N_13putEcP6Status+0x38>
     818: 91 16        	sta	($16),y                 ; 0x2016 <_ZN12_GLOBAL__N_13putEcP6Status+0x33>
     81a: c8           	iny
     81b: a9 ff        	lda	#$ff
     81d: 91 16        	sta	($16),y                 ; 0x2016 <_ZN12_GLOBAL__N_13putEcP6Status+0x33>
     81f: a6 1a        	ldx	$1a                     ; 0x201a <_ZN12_GLOBAL__N_13putEcP6Status+0x37>
     821: b4 30        	ldy	$30,x                   ; 0x2030 <_ZN12_GLOBAL__N_13putEcP6Status+0x4d>
     823: 84 1a        	sty	$1a                     ; 0x201a <_ZN12_GLOBAL__N_13putEcP6Status+0x37>
     825: b4 31        	ldy	$31,x                   ; 0x2031 <_ZN12_GLOBAL__N_13putEcP6Status+0x4e>
     827: 84 1b        	sty	$1b                     ; 0x201b <_ZN12_GLOBAL__N_13putEcP6Status+0x38>
     829: b5 32        	lda	$32,x                   ; 0x2032 <_ZN12_GLOBAL__N_13putEcP6Status+0x4f>
     82b: aa           	tax
     82c: 86 1c        	stx	$1c                     ; 0x201c <_ZN12_GLOBAL__N_13putEcP6Status+0x39>
     82e: a6 19        	ldx	$19                     ; 0x2019 <_ZN12_GLOBAL__N_13putEcP6Status+0x36>
     830: 8e 00 de     	stx	$de00                   ; 0xde00 <end_block9+0xb668>
     833: 9c 01 de     	stz	$de01                   ; 0xde01 <end_block9+0xb669>
     836: a2 04        	ldx	#$4
     838: 8e 02 de     	stx	$de02                   ; 0xde02 <end_block9+0xb66a>
     83b: 9c 03 de     	stz	$de03                   ; 0xde03 <end_block9+0xb66b>
     83e: ae 10 de     	ldx	$de10                   ; 0xde10 <end_block9+0xb678>
     841: 86 15        	stx	$15                     ; 0x2015 <_ZN12_GLOBAL__N_13putEcP6Status+0x32>
     843: ae 11 de     	ldx	$de11                   ; 0xde11 <end_block9+0xb679>
     846: 86 16        	stx	$16                     ; 0x2016 <_ZN12_GLOBAL__N_13putEcP6Status+0x33>
     848: a9 40        	lda	#$40
     84a: 18           	clc
     84b: 65 15        	adc	$15                     ; 0x2015 <_ZN12_GLOBAL__N_13putEcP6Status+0x32>
     84d: aa           	tax
     84e: a9 d8        	lda	#$d8
     850: 65 16        	adc	$16                     ; 0x2016 <_ZN12_GLOBAL__N_13putEcP6Status+0x33>
     852: 86 16        	stx	$16                     ; 0x2016 <_ZN12_GLOBAL__N_13putEcP6Status+0x33>
     854: ae 12 de     	ldx	$de12                   ; 0xde12 <end_block9+0xb67a>
     857: 85 17        	sta	$17                     ; 0x2017 <_ZN12_GLOBAL__N_13putEcP6Status+0x34>
     859: ae 13 de     	ldx	$de13                   ; 0xde13 <end_block9+0xb67b>
     85c: a6 19        	ldx	$19                     ; 0x2019 <_ZN12_GLOBAL__N_13putEcP6Status+0x36>
     85e: a5 1c        	lda	$1c                     ; 0x201c <_ZN12_GLOBAL__N_13putEcP6Status+0x39>
     860: 92 16        	sta	($16)                   ; 0x2016 <_ZN12_GLOBAL__N_13putEcP6Status+0x33>
     862: a0 01        	ldy	#$1
     864: a5 1b        	lda	$1b                     ; 0x201b <_ZN12_GLOBAL__N_13putEcP6Status+0x38>
     866: 91 16        	sta	($16),y                 ; 0x2016 <_ZN12_GLOBAL__N_13putEcP6Status+0x33>
     868: c8           	iny
     869: a5 1a        	lda	$1a                     ; 0x201a <_ZN12_GLOBAL__N_13putEcP6Status+0x37>
     86b: 91 16        	sta	($16),y                 ; 0x2016 <_ZN12_GLOBAL__N_13putEcP6Status+0x33>
     86d: a9 ff        	lda	#$ff
     86f: c8           	iny
     870: 91 16        	sta	($16),y                 ; 0x2016 <_ZN12_GLOBAL__N_13putEcP6Status+0x33>
     872: e8           	inx
     873: 18           	clc
     874: a5 18        	lda	$18                     ; 0x2018 <_ZN12_GLOBAL__N_13putEcP6Status+0x35>
     876: 69 03        	adc	#$3
     878: a8           	tay
     879: c9 30        	cmp	#$30
     87b: f0 03        	beq	$880 <textReset+0xd9>
     87d: 4c ce 07     	jmp	$7ce <textReset+0x27>
     880: a6 01        	ldx	$1                      ; 0x2001 <_ZN12_GLOBAL__N_13putEcP6Status+0x1e>
     882: 86 18        	stx	$18                     ; 0x2018 <_ZN12_GLOBAL__N_13putEcP6Status+0x35>
     884: a6 60        	ldx	$60                     ; 0x2060 <_ZN12_GLOBAL__N_13putEcP6Status+0x7d>
     886: a4 61        	ldy	$61                     ; 0x2061 <_ZN12_GLOBAL__N_13putEcP6Status+0x7e>
     888: 8e 00 de     	stx	$de00                   ; 0xde00 <end_block9+0xb668>
     88b: 9c 01 de     	stz	$de01                   ; 0xde01 <end_block9+0xb669>
     88e: 8c 02 de     	sty	$de02                   ; 0xde02 <end_block9+0xb66a>
     891: 9c 03 de     	stz	$de03                   ; 0xde03 <end_block9+0xb66b>
     894: ae 10 de     	ldx	$de10                   ; 0xde10 <end_block9+0xb678>
     897: ac 11 de     	ldy	$de11                   ; 0xde11 <end_block9+0xb679>
     89a: ad 12 de     	lda	$de12                   ; 0xde12 <end_block9+0xb67a>
     89d: ad 13 de     	lda	$de13                   ; 0xde13 <end_block9+0xb67b>
     8a0: a9 02        	lda	#$2
     8a2: 85 01        	sta	$1                      ; 0x2001 <_ZN12_GLOBAL__N_13putEcP6Status+0x1e>
     8a4: e0 01        	cpx	#$1
     8a6: 98           	tya
     8a7: e9 00        	sbc	#$0
     8a9: 50 02        	bvc	$8ad <textReset+0x106>
     8ab: 49 80        	eor	#$80
     8ad: c9 00        	cmp	#$0
     8af: 30 50        	bmi	$901 <textReset+0x15a>
     8b1: a9 20        	lda	#$20
     8b3: 86 19        	stx	$19                     ; 0x2019 <_ZN12_GLOBAL__N_13putEcP6Status+0x36>
     8b5: 86 14        	stx	$14                     ; 0x2014 <_ZN12_GLOBAL__N_13putEcP6Status+0x31>
     8b7: 84 15        	sty	$15                     ; 0x2015 <_ZN12_GLOBAL__N_13putEcP6Status+0x32>
     8b9: a2 00        	ldx	#$0
     8bb: 86 16        	stx	$16                     ; 0x2016 <_ZN12_GLOBAL__N_13putEcP6Status+0x33>
     8bd: a2 c0        	ldx	#$c0
     8bf: 86 17        	stx	$17                     ; 0x2017 <_ZN12_GLOBAL__N_13putEcP6Status+0x34>
     8c1: 80 04        	bra	$8c7 <textReset+0x120>
     8c3: a6 15        	ldx	$15                     ; 0x2015 <_ZN12_GLOBAL__N_13putEcP6Status+0x32>
     8c5: f0 14        	beq	$8db <textReset+0x134>
     8c7: 92 16        	sta	($16)                   ; 0x2016 <_ZN12_GLOBAL__N_13putEcP6Status+0x33>
     8c9: e6 16        	inc	$16                     ; 0x2016 <_ZN12_GLOBAL__N_13putEcP6Status+0x33>
     8cb: d0 02        	bne	$8cf <textReset+0x128>
     8cd: e6 17        	inc	$17                     ; 0x2017 <_ZN12_GLOBAL__N_13putEcP6Status+0x34>
     8cf: a2 ff        	ldx	#$ff
     8d1: c6 14        	dec	$14                     ; 0x2014 <_ZN12_GLOBAL__N_13putEcP6Status+0x31>
     8d3: e4 14        	cpx	$14                     ; 0x2014 <_ZN12_GLOBAL__N_13putEcP6Status+0x31>
     8d5: d0 ec        	bne	$8c3 <textReset+0x11c>
     8d7: c6 15        	dec	$15                     ; 0x2015 <_ZN12_GLOBAL__N_13putEcP6Status+0x32>
     8d9: 80 e8        	bra	$8c3 <textReset+0x11c>
     8db: a6 14        	ldx	$14                     ; 0x2014 <_ZN12_GLOBAL__N_13putEcP6Status+0x31>
     8dd: d0 e8        	bne	$8c7 <textReset+0x120>
     8df: a2 03        	ldx	#$3
     8e1: 86 01        	stx	$1                      ; 0x2001 <_ZN12_GLOBAL__N_13putEcP6Status+0x1e>
     8e3: a6 19        	ldx	$19                     ; 0x2019 <_ZN12_GLOBAL__N_13putEcP6Status+0x36>
     8e5: 80 03        	bra	$8ea <textReset+0x143>
     8e7: 98           	tya
     8e8: f0 12        	beq	$8fc <textReset+0x155>
     8ea: a5 62        	lda	$62                     ; 0x2062 <_ZN12_GLOBAL__N_13putEcP6Status+0x7f>
     8ec: 92 12        	sta	($12)                   ; 0x2012 <_ZN12_GLOBAL__N_13putEcP6Status+0x2f>
     8ee: e6 12        	inc	$12                     ; 0x2012 <_ZN12_GLOBAL__N_13putEcP6Status+0x2f>
     8f0: d0 02        	bne	$8f4 <textReset+0x14d>
     8f2: e6 13        	inc	$13                     ; 0x2013 <_ZN12_GLOBAL__N_13putEcP6Status+0x30>
     8f4: ca           	dex
     8f5: e0 ff        	cpx	#$ff
     8f7: d0 ee        	bne	$8e7 <textReset+0x140>
     8f9: 88           	dey
     8fa: 80 eb        	bra	$8e7 <textReset+0x140>
     8fc: 8a           	txa
     8fd: d0 eb        	bne	$8ea <textReset+0x143>
     8ff: 80 04        	bra	$905 <textReset+0x15e>
     901: a2 03        	ldx	#$3
     903: 86 01        	stx	$1                      ; 0x2001 <_ZN12_GLOBAL__N_13putEcP6Status+0x1e>
     905: a6 18        	ldx	$18                     ; 0x2018 <_ZN12_GLOBAL__N_13putEcP6Status+0x35>
     907: 86 01        	stx	$1                      ; 0x2001 <_ZN12_GLOBAL__N_13putEcP6Status+0x1e>
     909: 64 69        	stz	$69                     ; 0x2069 <_ZN12_GLOBAL__N_13putEcP6Status+0x86>
     90b: 9c 14 d0     	stz	$d014                   ; 0xd014 <end_block9+0xa87c>
     90e: 9c 15 d0     	stz	$d015                   ; 0xd015 <end_block9+0xa87d>
     911: 64 6a        	stz	$6a                     ; 0x206a <_ZN12_GLOBAL__N_13putEcP6Status+0x87>
     913: 9c 16 d0     	stz	$d016                   ; 0xd016 <end_block9+0xa87e>
     916: 9c 17 d0     	stz	$d017                   ; 0xd017 <end_block9+0xa87f>
     919: 60           	rts

0000091a <bitmapReset>:
     91a: a2 01        	ldx	#$1
     91c: 86 79        	stx	$79                     ; 0x2079 <_ZN12_GLOBAL__N_13putEcP6Status+0x96>
     91e: 86 7a        	stx	$7a                     ; 0x207a <_ZN12_GLOBAL__N_13putEcP6Status+0x97>
     920: a0 40        	ldy	#$40
     922: 8c 00 de     	sty	$de00                   ; 0xde00 <end_block9+0xb668>
     925: 8e 01 de     	stx	$de01                   ; 0xde01 <end_block9+0xb669>
     928: a2 f0        	ldx	#$f0
     92a: 8e 02 de     	stx	$de02                   ; 0xde02 <end_block9+0xb66a>
     92d: 9c 03 de     	stz	$de03                   ; 0xde03 <end_block9+0xb66b>
     930: ae 10 de     	ldx	$de10                   ; 0xde10 <end_block9+0xb678>
     933: 86 17        	stx	$17                     ; 0x2017 <_ZN12_GLOBAL__N_13putEcP6Status+0x34>
     935: ae 11 de     	ldx	$de11                   ; 0xde11 <end_block9+0xb679>
     938: 86 12        	stx	$12                     ; 0x2012 <_ZN12_GLOBAL__N_13putEcP6Status+0x2f>
     93a: ae 12 de     	ldx	$de12                   ; 0xde12 <end_block9+0xb67a>
     93d: 86 13        	stx	$13                     ; 0x2013 <_ZN12_GLOBAL__N_13putEcP6Status+0x30>
     93f: ae 13 de     	ldx	$de13                   ; 0xde13 <end_block9+0xb67b>
     942: 86 14        	stx	$14                     ; 0x2014 <_ZN12_GLOBAL__N_13putEcP6Status+0x31>
     944: 64 77        	stz	$77                     ; 0x2077 <_ZN12_GLOBAL__N_13putEcP6Status+0x94>
     946: a2 ff        	ldx	#$ff
     948: 86 78        	stx	$78                     ; 0x2078 <_ZN12_GLOBAL__N_13putEcP6Status+0x95>
     94a: a6 12        	ldx	$12                     ; 0x2012 <_ZN12_GLOBAL__N_13putEcP6Status+0x2f>
     94c: 86 15        	stx	$15                     ; 0x2015 <_ZN12_GLOBAL__N_13putEcP6Status+0x32>
     94e: 06 15        	asl	$15                     ; 0x2015 <_ZN12_GLOBAL__N_13putEcP6Status+0x32>
     950: a5 13        	lda	$13                     ; 0x2013 <_ZN12_GLOBAL__N_13putEcP6Status+0x30>
     952: 2a           	rol
     953: a6 14        	ldx	$14                     ; 0x2014 <_ZN12_GLOBAL__N_13putEcP6Status+0x31>
     955: 86 16        	stx	$16                     ; 0x2016 <_ZN12_GLOBAL__N_13putEcP6Status+0x33>
     957: 26 16        	rol	$16                     ; 0x2016 <_ZN12_GLOBAL__N_13putEcP6Status+0x33>
     959: 06 15        	asl	$15                     ; 0x2015 <_ZN12_GLOBAL__N_13putEcP6Status+0x32>
     95b: 2a           	rol
     95c: 26 16        	rol	$16                     ; 0x2016 <_ZN12_GLOBAL__N_13putEcP6Status+0x33>
     95e: 06 15        	asl	$15                     ; 0x2015 <_ZN12_GLOBAL__N_13putEcP6Status+0x32>
     960: 2a           	rol
     961: 26 16        	rol	$16                     ; 0x2016 <_ZN12_GLOBAL__N_13putEcP6Status+0x33>
     963: 85 15        	sta	$15                     ; 0x2015 <_ZN12_GLOBAL__N_13putEcP6Status+0x32>
     965: 8d 00 de     	sta	$de00                   ; 0xde00 <end_block9+0xb668>
     968: a5 16        	lda	$16                     ; 0x2016 <_ZN12_GLOBAL__N_13putEcP6Status+0x33>
     96a: 8d 01 de     	sta	$de01                   ; 0xde01 <end_block9+0xb669>
     96d: 9c 02 de     	stz	$de02                   ; 0xde02 <end_block9+0xb66a>
     970: a2 20        	ldx	#$20
     972: 8e 03 de     	stx	$de03                   ; 0xde03 <end_block9+0xb66b>
     975: ae 10 de     	ldx	$de10                   ; 0xde10 <end_block9+0xb678>
     978: 86 16        	stx	$16                     ; 0x2016 <_ZN12_GLOBAL__N_13putEcP6Status+0x33>
     97a: ae 11 de     	ldx	$de11                   ; 0xde11 <end_block9+0xb679>
     97d: 86 18        	stx	$18                     ; 0x2018 <_ZN12_GLOBAL__N_13putEcP6Status+0x35>
     97f: ac 12 de     	ldy	$de12                   ; 0xde12 <end_block9+0xb67a>
     982: ae 13 de     	ldx	$de13                   ; 0xde13 <end_block9+0xb67b>
     985: e4 14        	cpx	$14                     ; 0x2014 <_ZN12_GLOBAL__N_13putEcP6Status+0x31>
     987: d0 14        	bne	$99d <bitmapReset+0x83>
     989: c4 13        	cpy	$13                     ; 0x2013 <_ZN12_GLOBAL__N_13putEcP6Status+0x30>
     98b: d0 10        	bne	$99d <bitmapReset+0x83>
     98d: a6 18        	ldx	$18                     ; 0x2018 <_ZN12_GLOBAL__N_13putEcP6Status+0x35>
     98f: e4 12        	cpx	$12                     ; 0x2012 <_ZN12_GLOBAL__N_13putEcP6Status+0x2f>
     991: d0 0a        	bne	$99d <bitmapReset+0x83>
     993: a6 16        	ldx	$16                     ; 0x2016 <_ZN12_GLOBAL__N_13putEcP6Status+0x33>
     995: e4 17        	cpx	$17                     ; 0x2017 <_ZN12_GLOBAL__N_13putEcP6Status+0x34>
     997: d0 04        	bne	$99d <bitmapReset+0x83>
     999: a6 15        	ldx	$15                     ; 0x2015 <_ZN12_GLOBAL__N_13putEcP6Status+0x32>
     99b: 80 06        	bra	$9a3 <bitmapReset+0x89>
     99d: a6 15        	ldx	$15                     ; 0x2015 <_ZN12_GLOBAL__N_13putEcP6Status+0x32>
     99f: e8           	inx
     9a0: d0 01        	bne	$9a3 <bitmapReset+0x89>
     9a2: 1a           	inc
     9a3: 8e 00 de     	stx	$de00                   ; 0xde00 <end_block9+0xb668>
     9a6: 8d 01 de     	sta	$de01                   ; 0xde01 <end_block9+0xb669>
     9a9: 9c 02 de     	stz	$de02                   ; 0xde02 <end_block9+0xb66a>
     9ac: a2 20        	ldx	#$20
     9ae: 8e 03 de     	stx	$de03                   ; 0xde03 <end_block9+0xb66b>
     9b1: ae 10 de     	ldx	$de10                   ; 0xde10 <end_block9+0xb678>
     9b4: 86 12        	stx	$12                     ; 0x2012 <_ZN12_GLOBAL__N_13putEcP6Status+0x2f>
     9b6: ae 11 de     	ldx	$de11                   ; 0xde11 <end_block9+0xb679>
     9b9: 86 13        	stx	$13                     ; 0x2013 <_ZN12_GLOBAL__N_13putEcP6Status+0x30>
     9bb: ae 12 de     	ldx	$de12                   ; 0xde12 <end_block9+0xb67a>
     9be: 86 14        	stx	$14                     ; 0x2014 <_ZN12_GLOBAL__N_13putEcP6Status+0x31>
     9c0: ae 13 de     	ldx	$de13                   ; 0xde13 <end_block9+0xb67b>
     9c3: 86 15        	stx	$15                     ; 0x2015 <_ZN12_GLOBAL__N_13putEcP6Status+0x32>
     9c5: a9 00        	lda	#$0
     9c7: 38           	sec
     9c8: e5 12        	sbc	$12                     ; 0x2012 <_ZN12_GLOBAL__N_13putEcP6Status+0x2f>
     9ca: 85 1a        	sta	$1a                     ; 0x201a <_ZN12_GLOBAL__N_13putEcP6Status+0x37>
     9cc: a9 00        	lda	#$0
     9ce: e5 13        	sbc	$13                     ; 0x2013 <_ZN12_GLOBAL__N_13putEcP6Status+0x30>
     9d0: 85 18        	sta	$18                     ; 0x2018 <_ZN12_GLOBAL__N_13putEcP6Status+0x35>
     9d2: a9 08        	lda	#$8
     9d4: e5 14        	sbc	$14                     ; 0x2014 <_ZN12_GLOBAL__N_13putEcP6Status+0x31>
     9d6: a8           	tay
     9d7: a9 00        	lda	#$0
     9d9: e5 15        	sbc	$15                     ; 0x2015 <_ZN12_GLOBAL__N_13putEcP6Status+0x32>
     9db: 85 16        	sta	$16                     ; 0x2016 <_ZN12_GLOBAL__N_13putEcP6Status+0x33>
     9dd: a6 18        	ldx	$18                     ; 0x2018 <_ZN12_GLOBAL__N_13putEcP6Status+0x35>
     9df: 86 6c        	stx	$6c                     ; 0x206c <_ZN12_GLOBAL__N_13putEcP6Status+0x89>
     9e1: 84 6d        	sty	$6d                     ; 0x206d <_ZN12_GLOBAL__N_13putEcP6Status+0x8a>
     9e3: 85 6e        	sta	$6e                     ; 0x206e <_ZN12_GLOBAL__N_13putEcP6Status+0x8b>
     9e5: a5 1a        	lda	$1a                     ; 0x201a <_ZN12_GLOBAL__N_13putEcP6Status+0x37>
     9e7: 38           	sec
     9e8: e5 12        	sbc	$12                     ; 0x2012 <_ZN12_GLOBAL__N_13putEcP6Status+0x2f>
     9ea: 85 17        	sta	$17                     ; 0x2017 <_ZN12_GLOBAL__N_13putEcP6Status+0x34>
     9ec: a5 18        	lda	$18                     ; 0x2018 <_ZN12_GLOBAL__N_13putEcP6Status+0x35>
     9ee: e5 13        	sbc	$13                     ; 0x2013 <_ZN12_GLOBAL__N_13putEcP6Status+0x30>
     9f0: 85 18        	sta	$18                     ; 0x2018 <_ZN12_GLOBAL__N_13putEcP6Status+0x35>
     9f2: 98           	tya
     9f3: e5 14        	sbc	$14                     ; 0x2014 <_ZN12_GLOBAL__N_13putEcP6Status+0x31>
     9f5: 85 19        	sta	$19                     ; 0x2019 <_ZN12_GLOBAL__N_13putEcP6Status+0x36>
     9f7: a5 16        	lda	$16                     ; 0x2016 <_ZN12_GLOBAL__N_13putEcP6Status+0x33>
     9f9: e5 15        	sbc	$15                     ; 0x2015 <_ZN12_GLOBAL__N_13putEcP6Status+0x32>
     9fb: 85 16        	sta	$16                     ; 0x2016 <_ZN12_GLOBAL__N_13putEcP6Status+0x33>
     9fd: 38           	sec
     9fe: a6 17        	ldx	$17                     ; 0x2017 <_ZN12_GLOBAL__N_13putEcP6Status+0x34>
     a00: 86 6f        	stx	$6f                     ; 0x206f <_ZN12_GLOBAL__N_13putEcP6Status+0x8c>
     a02: a4 18        	ldy	$18                     ; 0x2018 <_ZN12_GLOBAL__N_13putEcP6Status+0x35>
     a04: 84 70        	sty	$70                     ; 0x2070 <_ZN12_GLOBAL__N_13putEcP6Status+0x8d>
     a06: a6 19        	ldx	$19                     ; 0x2019 <_ZN12_GLOBAL__N_13putEcP6Status+0x36>
     a08: 86 71        	stx	$71                     ; 0x2071 <_ZN12_GLOBAL__N_13putEcP6Status+0x8e>
     a0a: 85 72        	sta	$72                     ; 0x2072 <_ZN12_GLOBAL__N_13putEcP6Status+0x8f>
     a0c: a5 17        	lda	$17                     ; 0x2017 <_ZN12_GLOBAL__N_13putEcP6Status+0x34>
     a0e: e5 12        	sbc	$12                     ; 0x2012 <_ZN12_GLOBAL__N_13putEcP6Status+0x2f>
     a10: 85 17        	sta	$17                     ; 0x2017 <_ZN12_GLOBAL__N_13putEcP6Status+0x34>
     a12: a5 18        	lda	$18                     ; 0x2018 <_ZN12_GLOBAL__N_13putEcP6Status+0x35>
     a14: e5 13        	sbc	$13                     ; 0x2013 <_ZN12_GLOBAL__N_13putEcP6Status+0x30>
     a16: aa           	tax
     a17: a5 19        	lda	$19                     ; 0x2019 <_ZN12_GLOBAL__N_13putEcP6Status+0x36>
     a19: e5 14        	sbc	$14                     ; 0x2014 <_ZN12_GLOBAL__N_13putEcP6Status+0x31>
     a1b: 85 13        	sta	$13                     ; 0x2013 <_ZN12_GLOBAL__N_13putEcP6Status+0x30>
     a1d: a5 16        	lda	$16                     ; 0x2016 <_ZN12_GLOBAL__N_13putEcP6Status+0x33>
     a1f: e5 15        	sbc	$15                     ; 0x2015 <_ZN12_GLOBAL__N_13putEcP6Status+0x32>
     a21: 85 12        	sta	$12                     ; 0x2012 <_ZN12_GLOBAL__N_13putEcP6Status+0x2f>
     a23: a5 17        	lda	$17                     ; 0x2017 <_ZN12_GLOBAL__N_13putEcP6Status+0x34>
     a25: 85 73        	sta	$73                     ; 0x2073 <_ZN12_GLOBAL__N_13putEcP6Status+0x90>
     a27: 86 74        	stx	$74                     ; 0x2074 <_ZN12_GLOBAL__N_13putEcP6Status+0x91>
     a29: a6 13        	ldx	$13                     ; 0x2013 <_ZN12_GLOBAL__N_13putEcP6Status+0x30>
     a2b: 86 75        	stx	$75                     ; 0x2075 <_ZN12_GLOBAL__N_13putEcP6Status+0x92>
     a2d: a6 12        	ldx	$12                     ; 0x2012 <_ZN12_GLOBAL__N_13putEcP6Status+0x2f>
     a2f: 86 76        	stx	$76                     ; 0x2076 <_ZN12_GLOBAL__N_13putEcP6Status+0x93>
     a31: a6 1a        	ldx	$1a                     ; 0x201a <_ZN12_GLOBAL__N_13putEcP6Status+0x37>
     a33: 86 6b        	stx	$6b                     ; 0x206b <_ZN12_GLOBAL__N_13putEcP6Status+0x88>
     a35: 64 7b        	stz	$7b                     ; 0x207b <_ZN12_GLOBAL__N_13putEcP6Status+0x98>
     a37: 64 7c        	stz	$7c                     ; 0x207c <_ZN12_GLOBAL__N_13putEcP6Status+0x99>
     a39: 64 7d        	stz	$7d                     ; 0x207d <_ZN12_GLOBAL__N_13putEcP6Status+0x9a>
     a3b: 8e 01 d1     	stx	$d101                   ; 0xd101 <end_block9+0xa969>
     a3e: a6 6c        	ldx	$6c                     ; 0x206c <_ZN12_GLOBAL__N_13putEcP6Status+0x89>
     a40: 8e 02 d1     	stx	$d102                   ; 0xd102 <end_block9+0xa96a>
     a43: a6 6d        	ldx	$6d                     ; 0x206d <_ZN12_GLOBAL__N_13putEcP6Status+0x8a>
     a45: 8e 03 d1     	stx	$d103                   ; 0xd103 <end_block9+0xa96b>
     a48: a6 6f        	ldx	$6f                     ; 0x206f <_ZN12_GLOBAL__N_13putEcP6Status+0x8c>
     a4a: 8e 09 d1     	stx	$d109                   ; 0xd109 <end_block9+0xa971>
     a4d: a6 70        	ldx	$70                     ; 0x2070 <_ZN12_GLOBAL__N_13putEcP6Status+0x8d>
     a4f: 8e 0a d1     	stx	$d10a                   ; 0xd10a <end_block9+0xa972>
     a52: a6 71        	ldx	$71                     ; 0x2071 <_ZN12_GLOBAL__N_13putEcP6Status+0x8e>
     a54: 8e 0b d1     	stx	$d10b                   ; 0xd10b <end_block9+0xa973>
     a57: a6 73        	ldx	$73                     ; 0x2073 <_ZN12_GLOBAL__N_13putEcP6Status+0x90>
     a59: 8e 11 d1     	stx	$d111                   ; 0xd111 <end_block9+0xa979>
     a5c: a6 74        	ldx	$74                     ; 0x2074 <_ZN12_GLOBAL__N_13putEcP6Status+0x91>
     a5e: 8e 12 d1     	stx	$d112                   ; 0xd112 <end_block9+0xa97a>
     a61: a6 75        	ldx	$75                     ; 0x2075 <_ZN12_GLOBAL__N_13putEcP6Status+0x92>
     a63: 8e 13 d1     	stx	$d113                   ; 0xd113 <end_block9+0xa97b>
     a66: 9c 00 d1     	stz	$d100                   ; 0xd100 <end_block9+0xa968>
     a69: 9c 08 d1     	stz	$d108                   ; 0xd108 <end_block9+0xa970>
     a6c: 9c 10 d1     	stz	$d110                   ; 0xd110 <end_block9+0xa978>
     a6f: 60           	rts

00000a70 <main>:
     a70: 20 2c 06     	jsr	$62c <f256Init>
     a73: 20 94 0a     	jsr	$a94 <f256main>
     a76: 78           	sei
     a77: a2 07        	ldx	#$7
     a79: 86 0f        	stx	$f                      ; 0x200f <_ZN12_GLOBAL__N_13putEcP6Status+0x2c>
     a7b: a2 de        	ldx	#$de
     a7d: 8e a2 d6     	stx	$d6a2                   ; 0xd6a2 <end_block9+0xaf0a>
     a80: a2 ad        	ldx	#$ad
     a82: 8e a3 d6     	stx	$d6a3                   ; 0xd6a3 <end_block9+0xaf0b>
     a85: a2 f0        	ldx	#$f0
     a87: 8e a0 d6     	stx	$d6a0                   ; 0xd6a0 <end_block9+0xaf08>
     a8a: 9c a0 d6     	stz	$d6a0                   ; 0xd6a0 <end_block9+0xaf08>
     a8d: 6c fc ff     	jmp	($fffc)                 ; 0xfffc <end_block9+0xd864>
     a90: a2 00        	ldx	#$0
     a92: 8a           	txa
     a93: 60           	rts

00000a94 <f256main>:
     a94: 18           	clc
     a95: a5 10        	lda	$10                     ; 0x2010 <_ZN12_GLOBAL__N_13putEcP6Status+0x2d>
     a97: 69 d3        	adc	#$d3
     a99: 85 10        	sta	$10                     ; 0x2010 <_ZN12_GLOBAL__N_13putEcP6Status+0x2d>
     a9b: a5 11        	lda	$11                     ; 0x2011 <_ZN12_GLOBAL__N_13putEcP6Status+0x2e>
     a9d: 69 ff        	adc	#$ff
     a9f: 85 11        	sta	$11                     ; 0x2011 <_ZN12_GLOBAL__N_13putEcP6Status+0x2e>
     aa1: a6 24        	ldx	$24                     ; 0x2024 <_ZN12_GLOBAL__N_13putEcP6Status+0x41>
     aa3: da           	phx
     aa4: a6 25        	ldx	$25                     ; 0x2025 <_ZN12_GLOBAL__N_13putEcP6Status+0x42>
     aa6: da           	phx
     aa7: a6 26        	ldx	$26                     ; 0x2026 <_ZN12_GLOBAL__N_13putEcP6Status+0x43>
     aa9: da           	phx
     aaa: a6 27        	ldx	$27                     ; 0x2027 <_ZN12_GLOBAL__N_13putEcP6Status+0x44>
     aac: da           	phx
     aad: a5 28        	lda	$28                     ; 0x2028 <_ZN12_GLOBAL__N_13putEcP6Status+0x45>
     aaf: a0 07        	ldy	#$7
     ab1: 91 10        	sta	($10),y                 ; 0x2010 <_ZN12_GLOBAL__N_13putEcP6Status+0x2d>
     ab3: a5 29        	lda	$29                     ; 0x2029 <_ZN12_GLOBAL__N_13putEcP6Status+0x46>
     ab5: 88           	dey
     ab6: 91 10        	sta	($10),y                 ; 0x2010 <_ZN12_GLOBAL__N_13putEcP6Status+0x2d>
     ab8: a5 2a        	lda	$2a                     ; 0x202a <_ZN12_GLOBAL__N_13putEcP6Status+0x47>
     aba: 88           	dey
     abb: 91 10        	sta	($10),y                 ; 0x2010 <_ZN12_GLOBAL__N_13putEcP6Status+0x2d>
     abd: a5 2b        	lda	$2b                     ; 0x202b <_ZN12_GLOBAL__N_13putEcP6Status+0x48>
     abf: 88           	dey
     ac0: 91 10        	sta	($10),y                 ; 0x2010 <_ZN12_GLOBAL__N_13putEcP6Status+0x2d>
     ac2: a5 2c        	lda	$2c                     ; 0x202c <_ZN12_GLOBAL__N_13putEcP6Status+0x49>
     ac4: 88           	dey
     ac5: 91 10        	sta	($10),y                 ; 0x2010 <_ZN12_GLOBAL__N_13putEcP6Status+0x2d>
     ac7: a5 2d        	lda	$2d                     ; 0x202d <_ZN12_GLOBAL__N_13putEcP6Status+0x4a>
     ac9: 88           	dey
     aca: 91 10        	sta	($10),y                 ; 0x2010 <_ZN12_GLOBAL__N_13putEcP6Status+0x2d>
     acc: a5 2e        	lda	$2e                     ; 0x202e <_ZN12_GLOBAL__N_13putEcP6Status+0x4b>
     ace: 88           	dey
     acf: 91 10        	sta	($10),y                 ; 0x2010 <_ZN12_GLOBAL__N_13putEcP6Status+0x2d>
     ad1: a5 2f        	lda	$2f                     ; 0x202f <_ZN12_GLOBAL__N_13putEcP6Status+0x4c>
     ad3: 88           	dey
     ad4: 91 10        	sta	($10),y                 ; 0x2010 <_ZN12_GLOBAL__N_13putEcP6Status+0x2d>
     ad6: 18           	clc
     ad7: a5 10        	lda	$10                     ; 0x2010 <_ZN12_GLOBAL__N_13putEcP6Status+0x2d>
     ad9: 69 1c        	adc	#$1c
     adb: 85 12        	sta	$12                     ; 0x2012 <_ZN12_GLOBAL__N_13putEcP6Status+0x2f>
     add: a5 11        	lda	$11                     ; 0x2011 <_ZN12_GLOBAL__N_13putEcP6Status+0x2e>
     adf: 69 00        	adc	#$0
     ae1: 85 13        	sta	$13                     ; 0x2013 <_ZN12_GLOBAL__N_13putEcP6Status+0x30>
     ae3: a2 6a        	ldx	#$6a
     ae5: 86 14        	stx	$14                     ; 0x2014 <_ZN12_GLOBAL__N_13putEcP6Status+0x31>
     ae7: a2 27        	ldx	#$27
     ae9: 86 15        	stx	$15                     ; 0x2015 <_ZN12_GLOBAL__N_13putEcP6Status+0x32>
     aeb: 64 26        	stz	$26                     ; 0x2026 <_ZN12_GLOBAL__N_13putEcP6Status+0x43>
     aed: a2 00        	ldx	#$0
     aef: a9 10        	lda	#$10
     af1: 20 0b 26     	jsr	$260b <memcpy>
     af4: 18           	clc
     af5: a5 10        	lda	$10                     ; 0x2010 <_ZN12_GLOBAL__N_13putEcP6Status+0x2d>
     af7: 69 0c        	adc	#$c
     af9: 85 12        	sta	$12                     ; 0x2012 <_ZN12_GLOBAL__N_13putEcP6Status+0x2f>
     afb: a5 11        	lda	$11                     ; 0x2011 <_ZN12_GLOBAL__N_13putEcP6Status+0x2e>
     afd: 69 00        	adc	#$0
     aff: 85 13        	sta	$13                     ; 0x2013 <_ZN12_GLOBAL__N_13putEcP6Status+0x30>
     b01: a9 01        	lda	#$1
     b03: 64 14        	stz	$14                     ; 0x2014 <_ZN12_GLOBAL__N_13putEcP6Status+0x31>
     b05: a2 10        	ldx	#$10
     b07: 20 37 26     	jsr	$2637 <__memset>
     b0a: a2 8c        	ldx	#$8c
     b0c: 86 12        	stx	$12                     ; 0x2012 <_ZN12_GLOBAL__N_13putEcP6Status+0x2f>
     b0e: a2 27        	ldx	#$27
     b10: 86 13        	stx	$13                     ; 0x2013 <_ZN12_GLOBAL__N_13putEcP6Status+0x30>
     b12: a2 96        	ldx	#$96
     b14: 86 14        	stx	$14                     ; 0x2014 <_ZN12_GLOBAL__N_13putEcP6Status+0x31>
     b16: a2 27        	ldx	#$27
     b18: 86 15        	stx	$15                     ; 0x2015 <_ZN12_GLOBAL__N_13putEcP6Status+0x32>
     b1a: 20 d9 0e     	jsr	$ed9 <fileOpen>
     b1d: a6 12        	ldx	$12                     ; 0x2012 <_ZN12_GLOBAL__N_13putEcP6Status+0x2f>
     b1f: 86 1a        	stx	$1a                     ; 0x201a <_ZN12_GLOBAL__N_13putEcP6Status+0x37>
     b21: a6 13        	ldx	$13                     ; 0x2013 <_ZN12_GLOBAL__N_13putEcP6Status+0x30>
     b23: 86 1b        	stx	$1b                     ; 0x201b <_ZN12_GLOBAL__N_13putEcP6Status+0x38>
     b25: a2 cb        	ldx	#$cb
     b27: 86 18        	stx	$18                     ; 0x2018 <_ZN12_GLOBAL__N_13putEcP6Status+0x35>
     b29: a2 00        	ldx	#$0
     b2b: 86 19        	stx	$19                     ; 0x2019 <_ZN12_GLOBAL__N_13putEcP6Status+0x36>
     b2d: a2 00        	ldx	#$0
     b2f: 80 08        	bra	$b39 <f256main+0xa5>
     b31: e8           	inx
     b32: e0 08        	cpx	#$8
     b34: d0 03        	bne	$b39 <f256main+0xa5>
     b36: 4c ab 0c     	jmp	$cab <f256main+0x217>
     b39: 8a           	txa
     b3a: a0 08        	ldy	#$8
     b3c: 91 10        	sta	($10),y                 ; 0x2010 <_ZN12_GLOBAL__N_13putEcP6Status+0x2d>
     b3e: a0 10        	ldy	#$10
     b40: a2 00        	ldx	#$0
     b42: 64 2a        	stz	$2a                     ; 0x202a <_ZN12_GLOBAL__N_13putEcP6Status+0x47>
     b44: 64 27        	stz	$27                     ; 0x2027 <_ZN12_GLOBAL__N_13putEcP6Status+0x44>
     b46: 84 2f        	sty	$2f                     ; 0x202f <_ZN12_GLOBAL__N_13putEcP6Status+0x4c>
     b48: c0 ff        	cpy	#$ff
     b4a: 8a           	txa
     b4b: 86 2e        	stx	$2e                     ; 0x202e <_ZN12_GLOBAL__N_13putEcP6Status+0x4b>
     b4d: e9 00        	sbc	#$0
     b4f: 50 02        	bvc	$b53 <f256main+0xbf>
     b51: 49 80        	eor	#$80
     b53: a2 fe        	ldx	#$fe
     b55: 48           	pha
     b56: 8a           	txa
     b57: a0 09        	ldy	#$9
     b59: 91 10        	sta	($10),y                 ; 0x2010 <_ZN12_GLOBAL__N_13putEcP6Status+0x2d>
     b5b: 68           	pla
     b5c: 10 05        	bpl	$b63 <f256main+0xcf>
     b5e: a6 2f        	ldx	$2f                     ; 0x202f <_ZN12_GLOBAL__N_13putEcP6Status+0x4c>
     b60: 8a           	txa
     b61: 91 10        	sta	($10),y                 ; 0x2010 <_ZN12_GLOBAL__N_13putEcP6Status+0x2d>
     b63: b2 1a        	lda	($1a)                   ; 0x201a <_ZN12_GLOBAL__N_13putEcP6Status+0x37>
     b65: aa           	tax
     b66: 18           	clc
     b67: a5 10        	lda	$10                     ; 0x2010 <_ZN12_GLOBAL__N_13putEcP6Status+0x2d>
     b69: 69 1c        	adc	#$1c
     b6b: 48           	pha
     b6c: a5 11        	lda	$11                     ; 0x2011 <_ZN12_GLOBAL__N_13putEcP6Status+0x2e>
     b6e: 69 00        	adc	#$0
     b70: a8           	tay
     b71: 68           	pla
     b72: 18           	clc
     b73: 65 2a        	adc	$2a                     ; 0x202a <_ZN12_GLOBAL__N_13putEcP6Status+0x47>
     b75: 85 2c        	sta	$2c                     ; 0x202c <_ZN12_GLOBAL__N_13putEcP6Status+0x49>
     b77: 98           	tya
     b78: 65 27        	adc	$27                     ; 0x2027 <_ZN12_GLOBAL__N_13putEcP6Status+0x44>
     b7a: 85 16        	sta	$16                     ; 0x2016 <_ZN12_GLOBAL__N_13putEcP6Status+0x33>
     b7c: 64 2b        	stz	$2b                     ; 0x202b <_ZN12_GLOBAL__N_13putEcP6Status+0x48>
     b7e: e0 01        	cpx	#$1
     b80: f0 03        	beq	$b85 <f256main+0xf1>
     b82: 4c ea 0b     	jmp	$bea <f256main+0x156>
     b85: a0 09        	ldy	#$9
     b87: b1 10        	lda	($10),y                 ; 0x2010 <_ZN12_GLOBAL__N_13putEcP6Status+0x2d>
     b89: d0 03        	bne	$b8e <f256main+0xfa>
     b8b: 4c 5c 0c     	jmp	$c5c <f256main+0x1c8>
     b8e: a5 16        	lda	$16                     ; 0x2016 <_ZN12_GLOBAL__N_13putEcP6Status+0x33>
     b90: a6 1a        	ldx	$1a                     ; 0x201a <_ZN12_GLOBAL__N_13putEcP6Status+0x37>
     b92: 86 28        	stx	$28                     ; 0x2028 <_ZN12_GLOBAL__N_13putEcP6Status+0x45>
     b94: a6 1b        	ldx	$1b                     ; 0x201b <_ZN12_GLOBAL__N_13putEcP6Status+0x38>
     b96: 86 29        	stx	$29                     ; 0x2029 <_ZN12_GLOBAL__N_13putEcP6Status+0x46>
     b98: 85 2d        	sta	$2d                     ; 0x202d <_ZN12_GLOBAL__N_13putEcP6Status+0x4a>
     b9a: a0 00        	ldy	#$0
     b9c: a2 c9        	ldx	#$c9
     b9e: 86 12        	stx	$12                     ; 0x2012 <_ZN12_GLOBAL__N_13putEcP6Status+0x2f>
     ba0: a2 00        	ldx	#$0
     ba2: 86 13        	stx	$13                     ; 0x2013 <_ZN12_GLOBAL__N_13putEcP6Status+0x30>
     ba4: 5a           	phy
     ba5: a5 12        	lda	$12                     ; 0x2012 <_ZN12_GLOBAL__N_13putEcP6Status+0x2f>
     ba7: a0 0a        	ldy	#$a
     ba9: 91 10        	sta	($10),y                 ; 0x2010 <_ZN12_GLOBAL__N_13putEcP6Status+0x2d>
     bab: a5 13        	lda	$13                     ; 0x2013 <_ZN12_GLOBAL__N_13putEcP6Status+0x30>
     bad: c8           	iny
     bae: 91 10        	sta	($10),y                 ; 0x2010 <_ZN12_GLOBAL__N_13putEcP6Status+0x2d>
     bb0: a0 09        	ldy	#$9
     bb2: b1 10        	lda	($10),y                 ; 0x2010 <_ZN12_GLOBAL__N_13putEcP6Status+0x2d>
     bb4: 7a           	ply
     bb5: 85 24        	sta	$24                     ; 0x2024 <_ZN12_GLOBAL__N_13putEcP6Status+0x41>
     bb7: b1 2c        	lda	($2c),y                 ; 0x202c <_ZN12_GLOBAL__N_13putEcP6Status+0x49>
     bb9: 85 c9        	sta	$c9                     ; 0x20c9 <_ZN12_GLOBAL__N_112print_stringEPKcP6Status+0x5>
     bbb: 5a           	phy
     bbc: a0 0a        	ldy	#$a
     bbe: b1 10        	lda	($10),y                 ; 0x2010 <_ZN12_GLOBAL__N_13putEcP6Status+0x2d>
     bc0: 85 12        	sta	$12                     ; 0x2012 <_ZN12_GLOBAL__N_13putEcP6Status+0x2f>
     bc2: c8           	iny
     bc3: b1 10        	lda	($10),y                 ; 0x2010 <_ZN12_GLOBAL__N_13putEcP6Status+0x2d>
     bc5: 7a           	ply
     bc6: 85 13        	sta	$13                     ; 0x2013 <_ZN12_GLOBAL__N_13putEcP6Status+0x30>
     bc8: 84 25        	sty	$25                     ; 0x2025 <_ZN12_GLOBAL__N_13putEcP6Status+0x42>
     bca: 20 dc 0f     	jsr	$fdc <textPrint>
     bcd: e6 25        	inc	$25                     ; 0x2025 <_ZN12_GLOBAL__N_13putEcP6Status+0x42>
     bcf: a4 25        	ldy	$25                     ; 0x2025 <_ZN12_GLOBAL__N_13putEcP6Status+0x42>
     bd1: a6 24        	ldx	$24                     ; 0x2024 <_ZN12_GLOBAL__N_13putEcP6Status+0x41>
     bd3: e4 25        	cpx	$25                     ; 0x2025 <_ZN12_GLOBAL__N_13putEcP6Status+0x42>
     bd5: d0 e0        	bne	$bb7 <f256main+0x123>
     bd7: a6 28        	ldx	$28                     ; 0x2028 <_ZN12_GLOBAL__N_13putEcP6Status+0x45>
     bd9: 86 1a        	stx	$1a                     ; 0x201a <_ZN12_GLOBAL__N_13putEcP6Status+0x37>
     bdb: a6 29        	ldx	$29                     ; 0x2029 <_ZN12_GLOBAL__N_13putEcP6Status+0x46>
     bdd: 86 1b        	stx	$1b                     ; 0x201b <_ZN12_GLOBAL__N_13putEcP6Status+0x38>
     bdf: a2 cb        	ldx	#$cb
     be1: 86 18        	stx	$18                     ; 0x2018 <_ZN12_GLOBAL__N_13putEcP6Status+0x35>
     be3: a2 00        	ldx	#$0
     be5: 86 19        	stx	$19                     ; 0x2019 <_ZN12_GLOBAL__N_13putEcP6Status+0x36>
     be7: 4c 5e 0c     	jmp	$c5e <f256main+0x1ca>
     bea: 8a           	txa
     beb: a6 67        	ldx	$67                     ; 0x2067 <_ZN12_GLOBAL__N_13putEcP6Status+0x84>
     bed: a4 68        	ldy	$68                     ; 0x2068 <_ZN12_GLOBAL__N_13putEcP6Status+0x85>
     bef: 84 14        	sty	$14                     ; 0x2014 <_ZN12_GLOBAL__N_13putEcP6Status+0x31>
     bf1: 86 12        	stx	$12                     ; 0x2012 <_ZN12_GLOBAL__N_13putEcP6Status+0x2f>
     bf3: 84 13        	sty	$13                     ; 0x2013 <_ZN12_GLOBAL__N_13putEcP6Status+0x30>
     bf5: a0 03        	ldy	#$3
     bf7: 91 12        	sta	($12),y                 ; 0x2012 <_ZN12_GLOBAL__N_13putEcP6Status+0x2f>
     bf9: 18           	clc
     bfa: 8a           	txa
     bfb: 69 0b        	adc	#$b
     bfd: aa           	tax
     bfe: a5 14        	lda	$14                     ; 0x2014 <_ZN12_GLOBAL__N_13putEcP6Status+0x31>
     c00: 69 00        	adc	#$0
     c02: 86 14        	stx	$14                     ; 0x2014 <_ZN12_GLOBAL__N_13putEcP6Status+0x31>
     c04: 85 15        	sta	$15                     ; 0x2015 <_ZN12_GLOBAL__N_13putEcP6Status+0x32>
     c06: a0 0b        	ldy	#$b
     c08: a5 2c        	lda	$2c                     ; 0x202c <_ZN12_GLOBAL__N_13putEcP6Status+0x49>
     c0a: 91 12        	sta	($12),y                 ; 0x2012 <_ZN12_GLOBAL__N_13putEcP6Status+0x2f>
     c0c: a0 01        	ldy	#$1
     c0e: a5 16        	lda	$16                     ; 0x2016 <_ZN12_GLOBAL__N_13putEcP6Status+0x33>
     c10: 91 14        	sta	($14),y                 ; 0x2014 <_ZN12_GLOBAL__N_13putEcP6Status+0x31>
     c12: a0 0d        	ldy	#$d
     c14: 5a           	phy
     c15: a0 09        	ldy	#$9
     c17: b1 10        	lda	($10),y                 ; 0x2010 <_ZN12_GLOBAL__N_13putEcP6Status+0x2d>
     c19: 7a           	ply
     c1a: 91 12        	sta	($12),y                 ; 0x2012 <_ZN12_GLOBAL__N_13putEcP6Status+0x2f>
     c1c: 18           	clc
     c1d: a5 10        	lda	$10                     ; 0x2010 <_ZN12_GLOBAL__N_13putEcP6Status+0x2d>
     c1f: 69 2c        	adc	#$2c
     c21: 85 12        	sta	$12                     ; 0x2012 <_ZN12_GLOBAL__N_13putEcP6Status+0x2f>
     c23: a5 11        	lda	$11                     ; 0x2011 <_ZN12_GLOBAL__N_13putEcP6Status+0x2e>
     c25: 69 00        	adc	#$0
     c27: 85 13        	sta	$13                     ; 0x2013 <_ZN12_GLOBAL__N_13putEcP6Status+0x30>
     c29: 20 64 ff     	jsr	$ff64 <end_block9+0xd7cc>
     c2c: 92 12        	sta	($12)                   ; 0x2012 <_ZN12_GLOBAL__N_13putEcP6Status+0x2f>
     c2e: a9 00        	lda	#$0
     c30: 6a           	ror
     c31: 85 18        	sta	$18                     ; 0x2018 <_ZN12_GLOBAL__N_13putEcP6Status+0x35>
     c33: a4 cb        	ldy	$cb                     ; 0x20cb <_ZN12_GLOBAL__N_112print_stringEPKcP6Status+0x7>
     c35: a2 ff        	ldx	#$ff
     c37: 98           	tya
     c38: f0 06        	beq	$c40 <f256main+0x1ac>
     c3a: 86 24        	stx	$24                     ; 0x2024 <_ZN12_GLOBAL__N_13putEcP6Status+0x41>
     c3c: 86 2b        	stx	$2b                     ; 0x202b <_ZN12_GLOBAL__N_13putEcP6Status+0x48>
     c3e: 80 1e        	bra	$c5e <f256main+0x1ca>
     c40: 64 cc        	stz	$cc                     ; 0x20cc <_ZN12_GLOBAL__N_112print_stringEPKcP6Status+0x8>
     c42: 20 00 ff     	jsr	$ff00 <end_block9+0xd768>
     c45: 92 12        	sta	($12)                   ; 0x2012 <_ZN12_GLOBAL__N_13putEcP6Status+0x2f>
     c47: a9 00        	lda	#$0
     c49: 6a           	ror
     c4a: 85 18        	sta	$18                     ; 0x2018 <_ZN12_GLOBAL__N_13putEcP6Status+0x35>
     c4c: a4 cc        	ldy	$cc                     ; 0x20cc <_ZN12_GLOBAL__N_112print_stringEPKcP6Status+0x8>
     c4e: c0 38        	cpy	#$38
     c50: f0 e8        	beq	$c3a <f256main+0x1a6>
     c52: c0 2e        	cpy	#$2e
     c54: d0 ea        	bne	$c40 <f256main+0x1ac>
     c56: a6 d2        	ldx	$d2                     ; 0x20d2 <_ZN12_GLOBAL__N_112print_stringEPKcP6Status+0xe>
     c58: 86 24        	stx	$24                     ; 0x2024 <_ZN12_GLOBAL__N_13putEcP6Status+0x41>
     c5a: 80 02        	bra	$c5e <f256main+0x1ca>
     c5c: 64 24        	stz	$24                     ; 0x2024 <_ZN12_GLOBAL__N_13putEcP6Status+0x41>
     c5e: a6 24        	ldx	$24                     ; 0x2024 <_ZN12_GLOBAL__N_13putEcP6Status+0x41>
     c60: e0 01        	cpx	#$1
     c62: a5 2b        	lda	$2b                     ; 0x202b <_ZN12_GLOBAL__N_13putEcP6Status+0x48>
     c64: e9 00        	sbc	#$0
     c66: 50 02        	bvc	$c6a <f256main+0x1d6>
     c68: 49 80        	eor	#$80
     c6a: aa           	tax
     c6b: 30 2b        	bmi	$c98 <f256main+0x204>
     c6d: a5 24        	lda	$24                     ; 0x2024 <_ZN12_GLOBAL__N_13putEcP6Status+0x41>
     c6f: 18           	clc
     c70: 65 2a        	adc	$2a                     ; 0x202a <_ZN12_GLOBAL__N_13putEcP6Status+0x47>
     c72: 85 2a        	sta	$2a                     ; 0x202a <_ZN12_GLOBAL__N_13putEcP6Status+0x47>
     c74: a5 2b        	lda	$2b                     ; 0x202b <_ZN12_GLOBAL__N_13putEcP6Status+0x48>
     c76: 65 27        	adc	$27                     ; 0x2027 <_ZN12_GLOBAL__N_13putEcP6Status+0x44>
     c78: 85 27        	sta	$27                     ; 0x2027 <_ZN12_GLOBAL__N_13putEcP6Status+0x44>
     c7a: a5 2f        	lda	$2f                     ; 0x202f <_ZN12_GLOBAL__N_13putEcP6Status+0x4c>
     c7c: 38           	sec
     c7d: e5 24        	sbc	$24                     ; 0x2024 <_ZN12_GLOBAL__N_13putEcP6Status+0x41>
     c7f: a8           	tay
     c80: a5 2e        	lda	$2e                     ; 0x202e <_ZN12_GLOBAL__N_13putEcP6Status+0x4b>
     c82: e5 2b        	sbc	$2b                     ; 0x202b <_ZN12_GLOBAL__N_13putEcP6Status+0x48>
     c84: 85 12        	sta	$12                     ; 0x2012 <_ZN12_GLOBAL__N_13putEcP6Status+0x2f>
     c86: aa           	tax
     c87: 98           	tya
     c88: e6 12        	inc	$12                     ; 0x2012 <_ZN12_GLOBAL__N_13putEcP6Status+0x2f>
     c8a: c6 12        	dec	$12                     ; 0x2012 <_ZN12_GLOBAL__N_13putEcP6Status+0x2f>
     c8c: f0 03        	beq	$c91 <f256main+0x1fd>
     c8e: 4c 46 0b     	jmp	$b46 <f256main+0xb2>
     c91: c9 00        	cmp	#$0
     c93: f0 03        	beq	$c98 <f256main+0x204>
     c95: 4c 46 0b     	jmp	$b46 <f256main+0xb2>
     c98: a0 08        	ldy	#$8
     c9a: b1 10        	lda	($10),y                 ; 0x2010 <_ZN12_GLOBAL__N_13putEcP6Status+0x2d>
     c9c: aa           	tax
     c9d: e6 26        	inc	$26                     ; 0x2026 <_ZN12_GLOBAL__N_13putEcP6Status+0x43>
     c9f: d0 03        	bne	$ca4 <f256main+0x210>
     ca1: 4c 31 0b     	jmp	$b31 <f256main+0x9d>
     ca4: e0 08        	cpx	#$8
     ca6: f0 03        	beq	$cab <f256main+0x217>
     ca8: 4c 39 0b     	jmp	$b39 <f256main+0xa5>
     cab: a5 26        	lda	$26                     ; 0x2026 <_ZN12_GLOBAL__N_13putEcP6Status+0x43>
     cad: f0 03        	beq	$cb2 <f256main+0x21e>
     caf: 4c 39 0b     	jmp	$b39 <f256main+0xa5>
     cb2: a0 00        	ldy	#$0
     cb4: a2 cb        	ldx	#$cb
     cb6: 86 18        	stx	$18                     ; 0x2018 <_ZN12_GLOBAL__N_13putEcP6Status+0x35>
     cb8: a2 00        	ldx	#$0
     cba: 86 19        	stx	$19                     ; 0x2019 <_ZN12_GLOBAL__N_13putEcP6Status+0x36>
     cbc: a2 00        	ldx	#$0
     cbe: 98           	tya
     cbf: a0 08        	ldy	#$8
     cc1: 91 10        	sta	($10),y                 ; 0x2010 <_ZN12_GLOBAL__N_13putEcP6Status+0x2d>
     cc3: 86 2e        	stx	$2e                     ; 0x202e <_ZN12_GLOBAL__N_13putEcP6Status+0x4b>
     cc5: a2 10        	ldx	#$10
     cc7: a0 00        	ldy	#$0
     cc9: 64 29        	stz	$29                     ; 0x2029 <_ZN12_GLOBAL__N_13putEcP6Status+0x46>
     ccb: 64 28        	stz	$28                     ; 0x2028 <_ZN12_GLOBAL__N_13putEcP6Status+0x45>
     ccd: 86 2f        	stx	$2f                     ; 0x202f <_ZN12_GLOBAL__N_13putEcP6Status+0x4c>
     ccf: e0 ff        	cpx	#$ff
     cd1: 98           	tya
     cd2: 84 2b        	sty	$2b                     ; 0x202b <_ZN12_GLOBAL__N_13putEcP6Status+0x48>
     cd4: e9 00        	sbc	#$0
     cd6: 50 02        	bvc	$cda <f256main+0x246>
     cd8: 49 80        	eor	#$80
     cda: a2 fe        	ldx	#$fe
     cdc: 48           	pha
     cdd: 8a           	txa
     cde: a0 09        	ldy	#$9
     ce0: 91 10        	sta	($10),y                 ; 0x2010 <_ZN12_GLOBAL__N_13putEcP6Status+0x2d>
     ce2: 68           	pla
     ce3: 10 05        	bpl	$cea <f256main+0x256>
     ce5: a6 2f        	ldx	$2f                     ; 0x202f <_ZN12_GLOBAL__N_13putEcP6Status+0x4c>
     ce7: 8a           	txa
     ce8: 91 10        	sta	($10),y                 ; 0x2010 <_ZN12_GLOBAL__N_13putEcP6Status+0x2d>
     cea: b2 1a        	lda	($1a)                   ; 0x201a <_ZN12_GLOBAL__N_13putEcP6Status+0x37>
     cec: aa           	tax
     ced: 18           	clc
     cee: a5 10        	lda	$10                     ; 0x2010 <_ZN12_GLOBAL__N_13putEcP6Status+0x2d>
     cf0: 69 0c        	adc	#$c
     cf2: 48           	pha
     cf3: a5 11        	lda	$11                     ; 0x2011 <_ZN12_GLOBAL__N_13putEcP6Status+0x2e>
     cf5: 69 00        	adc	#$0
     cf7: a8           	tay
     cf8: 68           	pla
     cf9: 18           	clc
     cfa: 65 29        	adc	$29                     ; 0x2029 <_ZN12_GLOBAL__N_13putEcP6Status+0x46>
     cfc: 85 2c        	sta	$2c                     ; 0x202c <_ZN12_GLOBAL__N_13putEcP6Status+0x49>
     cfe: 98           	tya
     cff: 65 28        	adc	$28                     ; 0x2028 <_ZN12_GLOBAL__N_13putEcP6Status+0x45>
     d01: 85 16        	sta	$16                     ; 0x2016 <_ZN12_GLOBAL__N_13putEcP6Status+0x33>
     d03: 64 2a        	stz	$2a                     ; 0x202a <_ZN12_GLOBAL__N_13putEcP6Status+0x47>
     d05: e0 01        	cpx	#$1
     d07: f0 03        	beq	$d0c <f256main+0x278>
     d09: 4c 71 0d     	jmp	$d71 <f256main+0x2dd>
     d0c: a0 09        	ldy	#$9
     d0e: b1 10        	lda	($10),y                 ; 0x2010 <_ZN12_GLOBAL__N_13putEcP6Status+0x2d>
     d10: d0 03        	bne	$d15 <f256main+0x281>
     d12: 4c e3 0d     	jmp	$de3 <f256main+0x34f>
     d15: a5 16        	lda	$16                     ; 0x2016 <_ZN12_GLOBAL__N_13putEcP6Status+0x33>
     d17: a6 1a        	ldx	$1a                     ; 0x201a <_ZN12_GLOBAL__N_13putEcP6Status+0x37>
     d19: 86 26        	stx	$26                     ; 0x2026 <_ZN12_GLOBAL__N_13putEcP6Status+0x43>
     d1b: a6 1b        	ldx	$1b                     ; 0x201b <_ZN12_GLOBAL__N_13putEcP6Status+0x38>
     d1d: 86 27        	stx	$27                     ; 0x2027 <_ZN12_GLOBAL__N_13putEcP6Status+0x44>
     d1f: 85 2d        	sta	$2d                     ; 0x202d <_ZN12_GLOBAL__N_13putEcP6Status+0x4a>
     d21: a0 00        	ldy	#$0
     d23: a2 c9        	ldx	#$c9
     d25: 86 12        	stx	$12                     ; 0x2012 <_ZN12_GLOBAL__N_13putEcP6Status+0x2f>
     d27: a2 00        	ldx	#$0
     d29: 86 13        	stx	$13                     ; 0x2013 <_ZN12_GLOBAL__N_13putEcP6Status+0x30>
     d2b: 5a           	phy
     d2c: a5 12        	lda	$12                     ; 0x2012 <_ZN12_GLOBAL__N_13putEcP6Status+0x2f>
     d2e: a0 0a        	ldy	#$a
     d30: 91 10        	sta	($10),y                 ; 0x2010 <_ZN12_GLOBAL__N_13putEcP6Status+0x2d>
     d32: a5 13        	lda	$13                     ; 0x2013 <_ZN12_GLOBAL__N_13putEcP6Status+0x30>
     d34: c8           	iny
     d35: 91 10        	sta	($10),y                 ; 0x2010 <_ZN12_GLOBAL__N_13putEcP6Status+0x2d>
     d37: a0 09        	ldy	#$9
     d39: b1 10        	lda	($10),y                 ; 0x2010 <_ZN12_GLOBAL__N_13putEcP6Status+0x2d>
     d3b: 7a           	ply
     d3c: 85 24        	sta	$24                     ; 0x2024 <_ZN12_GLOBAL__N_13putEcP6Status+0x41>
     d3e: b1 2c        	lda	($2c),y                 ; 0x202c <_ZN12_GLOBAL__N_13putEcP6Status+0x49>
     d40: 85 c9        	sta	$c9                     ; 0x20c9 <_ZN12_GLOBAL__N_112print_stringEPKcP6Status+0x5>
     d42: 5a           	phy
     d43: a0 0a        	ldy	#$a
     d45: b1 10        	lda	($10),y                 ; 0x2010 <_ZN12_GLOBAL__N_13putEcP6Status+0x2d>
     d47: 85 12        	sta	$12                     ; 0x2012 <_ZN12_GLOBAL__N_13putEcP6Status+0x2f>
     d49: c8           	iny
     d4a: b1 10        	lda	($10),y                 ; 0x2010 <_ZN12_GLOBAL__N_13putEcP6Status+0x2d>
     d4c: 7a           	ply
     d4d: 85 13        	sta	$13                     ; 0x2013 <_ZN12_GLOBAL__N_13putEcP6Status+0x30>
     d4f: 84 25        	sty	$25                     ; 0x2025 <_ZN12_GLOBAL__N_13putEcP6Status+0x42>
     d51: 20 dc 0f     	jsr	$fdc <textPrint>
     d54: e6 25        	inc	$25                     ; 0x2025 <_ZN12_GLOBAL__N_13putEcP6Status+0x42>
     d56: a4 25        	ldy	$25                     ; 0x2025 <_ZN12_GLOBAL__N_13putEcP6Status+0x42>
     d58: a6 24        	ldx	$24                     ; 0x2024 <_ZN12_GLOBAL__N_13putEcP6Status+0x41>
     d5a: e4 25        	cpx	$25                     ; 0x2025 <_ZN12_GLOBAL__N_13putEcP6Status+0x42>
     d5c: d0 e0        	bne	$d3e <f256main+0x2aa>
     d5e: a6 26        	ldx	$26                     ; 0x2026 <_ZN12_GLOBAL__N_13putEcP6Status+0x43>
     d60: 86 1a        	stx	$1a                     ; 0x201a <_ZN12_GLOBAL__N_13putEcP6Status+0x37>
     d62: a6 27        	ldx	$27                     ; 0x2027 <_ZN12_GLOBAL__N_13putEcP6Status+0x44>
     d64: 86 1b        	stx	$1b                     ; 0x201b <_ZN12_GLOBAL__N_13putEcP6Status+0x38>
     d66: a2 cb        	ldx	#$cb
     d68: 86 18        	stx	$18                     ; 0x2018 <_ZN12_GLOBAL__N_13putEcP6Status+0x35>
     d6a: a2 00        	ldx	#$0
     d6c: 86 19        	stx	$19                     ; 0x2019 <_ZN12_GLOBAL__N_13putEcP6Status+0x36>
     d6e: 4c e5 0d     	jmp	$de5 <f256main+0x351>
     d71: 8a           	txa
     d72: a6 67        	ldx	$67                     ; 0x2067 <_ZN12_GLOBAL__N_13putEcP6Status+0x84>
     d74: a4 68        	ldy	$68                     ; 0x2068 <_ZN12_GLOBAL__N_13putEcP6Status+0x85>
     d76: 84 14        	sty	$14                     ; 0x2014 <_ZN12_GLOBAL__N_13putEcP6Status+0x31>
     d78: 86 12        	stx	$12                     ; 0x2012 <_ZN12_GLOBAL__N_13putEcP6Status+0x2f>
     d7a: 84 13        	sty	$13                     ; 0x2013 <_ZN12_GLOBAL__N_13putEcP6Status+0x30>
     d7c: a0 03        	ldy	#$3
     d7e: 91 12        	sta	($12),y                 ; 0x2012 <_ZN12_GLOBAL__N_13putEcP6Status+0x2f>
     d80: 18           	clc
     d81: 8a           	txa
     d82: 69 0b        	adc	#$b
     d84: aa           	tax
     d85: a5 14        	lda	$14                     ; 0x2014 <_ZN12_GLOBAL__N_13putEcP6Status+0x31>
     d87: 69 00        	adc	#$0
     d89: 86 14        	stx	$14                     ; 0x2014 <_ZN12_GLOBAL__N_13putEcP6Status+0x31>
     d8b: 85 15        	sta	$15                     ; 0x2015 <_ZN12_GLOBAL__N_13putEcP6Status+0x32>
     d8d: a0 0b        	ldy	#$b
     d8f: a5 2c        	lda	$2c                     ; 0x202c <_ZN12_GLOBAL__N_13putEcP6Status+0x49>
     d91: 91 12        	sta	($12),y                 ; 0x2012 <_ZN12_GLOBAL__N_13putEcP6Status+0x2f>
     d93: a0 01        	ldy	#$1
     d95: a5 16        	lda	$16                     ; 0x2016 <_ZN12_GLOBAL__N_13putEcP6Status+0x33>
     d97: 91 14        	sta	($14),y                 ; 0x2014 <_ZN12_GLOBAL__N_13putEcP6Status+0x31>
     d99: a0 0d        	ldy	#$d
     d9b: 5a           	phy
     d9c: a0 09        	ldy	#$9
     d9e: b1 10        	lda	($10),y                 ; 0x2010 <_ZN12_GLOBAL__N_13putEcP6Status+0x2d>
     da0: 7a           	ply
     da1: 91 12        	sta	($12),y                 ; 0x2012 <_ZN12_GLOBAL__N_13putEcP6Status+0x2f>
     da3: 18           	clc
     da4: a5 10        	lda	$10                     ; 0x2010 <_ZN12_GLOBAL__N_13putEcP6Status+0x2d>
     da6: 69 2c        	adc	#$2c
     da8: 85 12        	sta	$12                     ; 0x2012 <_ZN12_GLOBAL__N_13putEcP6Status+0x2f>
     daa: a5 11        	lda	$11                     ; 0x2011 <_ZN12_GLOBAL__N_13putEcP6Status+0x2e>
     dac: 69 00        	adc	#$0
     dae: 85 13        	sta	$13                     ; 0x2013 <_ZN12_GLOBAL__N_13putEcP6Status+0x30>
     db0: 20 64 ff     	jsr	$ff64 <end_block9+0xd7cc>
     db3: 92 12        	sta	($12)                   ; 0x2012 <_ZN12_GLOBAL__N_13putEcP6Status+0x2f>
     db5: a9 00        	lda	#$0
     db7: 6a           	ror
     db8: 85 18        	sta	$18                     ; 0x2018 <_ZN12_GLOBAL__N_13putEcP6Status+0x35>
     dba: a4 cb        	ldy	$cb                     ; 0x20cb <_ZN12_GLOBAL__N_112print_stringEPKcP6Status+0x7>
     dbc: a2 ff        	ldx	#$ff
     dbe: 98           	tya
     dbf: f0 06        	beq	$dc7 <f256main+0x333>
     dc1: 86 24        	stx	$24                     ; 0x2024 <_ZN12_GLOBAL__N_13putEcP6Status+0x41>
     dc3: 86 2a        	stx	$2a                     ; 0x202a <_ZN12_GLOBAL__N_13putEcP6Status+0x47>
     dc5: 80 1e        	bra	$de5 <f256main+0x351>
     dc7: 64 cc        	stz	$cc                     ; 0x20cc <_ZN12_GLOBAL__N_112print_stringEPKcP6Status+0x8>
     dc9: 20 00 ff     	jsr	$ff00 <end_block9+0xd768>
     dcc: 92 12        	sta	($12)                   ; 0x2012 <_ZN12_GLOBAL__N_13putEcP6Status+0x2f>
     dce: a9 00        	lda	#$0
     dd0: 6a           	ror
     dd1: 85 18        	sta	$18                     ; 0x2018 <_ZN12_GLOBAL__N_13putEcP6Status+0x35>
     dd3: a4 cc        	ldy	$cc                     ; 0x20cc <_ZN12_GLOBAL__N_112print_stringEPKcP6Status+0x8>
     dd5: c0 38        	cpy	#$38
     dd7: f0 e8        	beq	$dc1 <f256main+0x32d>
     dd9: c0 2e        	cpy	#$2e
     ddb: d0 ea        	bne	$dc7 <f256main+0x333>
     ddd: a6 d2        	ldx	$d2                     ; 0x20d2 <_ZN12_GLOBAL__N_112print_stringEPKcP6Status+0xe>
     ddf: 86 24        	stx	$24                     ; 0x2024 <_ZN12_GLOBAL__N_13putEcP6Status+0x41>
     de1: 80 02        	bra	$de5 <f256main+0x351>
     de3: 64 24        	stz	$24                     ; 0x2024 <_ZN12_GLOBAL__N_13putEcP6Status+0x41>
     de5: a6 24        	ldx	$24                     ; 0x2024 <_ZN12_GLOBAL__N_13putEcP6Status+0x41>
     de7: e0 01        	cpx	#$1
     de9: a5 2a        	lda	$2a                     ; 0x202a <_ZN12_GLOBAL__N_13putEcP6Status+0x47>
     deb: e9 00        	sbc	#$0
     ded: 50 02        	bvc	$df1 <f256main+0x35d>
     def: 49 80        	eor	#$80
     df1: aa           	tax
     df2: 30 27        	bmi	$e1b <f256main+0x387>
     df4: a5 24        	lda	$24                     ; 0x2024 <_ZN12_GLOBAL__N_13putEcP6Status+0x41>
     df6: 18           	clc
     df7: 65 29        	adc	$29                     ; 0x2029 <_ZN12_GLOBAL__N_13putEcP6Status+0x46>
     df9: 85 29        	sta	$29                     ; 0x2029 <_ZN12_GLOBAL__N_13putEcP6Status+0x46>
     dfb: a5 2a        	lda	$2a                     ; 0x202a <_ZN12_GLOBAL__N_13putEcP6Status+0x47>
     dfd: 65 28        	adc	$28                     ; 0x2028 <_ZN12_GLOBAL__N_13putEcP6Status+0x45>
     dff: 85 28        	sta	$28                     ; 0x2028 <_ZN12_GLOBAL__N_13putEcP6Status+0x45>
     e01: 38           	sec
     e02: a5 2f        	lda	$2f                     ; 0x202f <_ZN12_GLOBAL__N_13putEcP6Status+0x4c>
     e04: e5 24        	sbc	$24                     ; 0x2024 <_ZN12_GLOBAL__N_13putEcP6Status+0x41>
     e06: 85 12        	sta	$12                     ; 0x2012 <_ZN12_GLOBAL__N_13putEcP6Status+0x2f>
     e08: a5 2b        	lda	$2b                     ; 0x202b <_ZN12_GLOBAL__N_13putEcP6Status+0x48>
     e0a: e5 2a        	sbc	$2a                     ; 0x202a <_ZN12_GLOBAL__N_13putEcP6Status+0x47>
     e0c: a6 12        	ldx	$12                     ; 0x2012 <_ZN12_GLOBAL__N_13putEcP6Status+0x2f>
     e0e: a8           	tay
     e0f: f0 03        	beq	$e14 <f256main+0x380>
     e11: 4c cd 0c     	jmp	$ccd <f256main+0x239>
     e14: a5 12        	lda	$12                     ; 0x2012 <_ZN12_GLOBAL__N_13putEcP6Status+0x2f>
     e16: f0 03        	beq	$e1b <f256main+0x387>
     e18: 4c cd 0c     	jmp	$ccd <f256main+0x239>
     e1b: a6 2e        	ldx	$2e                     ; 0x202e <_ZN12_GLOBAL__N_13putEcP6Status+0x4b>
     e1d: a0 08        	ldy	#$8
     e1f: b1 10        	lda	($10),y                 ; 0x2010 <_ZN12_GLOBAL__N_13putEcP6Status+0x2d>
     e21: a8           	tay
     e22: c8           	iny
     e23: d0 01        	bne	$e26 <f256main+0x392>
     e25: e8           	inx
     e26: e0 08        	cpx	#$8
     e28: f0 03        	beq	$e2d <f256main+0x399>
     e2a: 4c be 0c     	jmp	$cbe <f256main+0x22a>
     e2d: c0 10        	cpy	#$10
     e2f: f0 03        	beq	$e34 <f256main+0x3a0>
     e31: 4c be 0c     	jmp	$cbe <f256main+0x22a>
     e34: b2 1a        	lda	($1a)                   ; 0x201a <_ZN12_GLOBAL__N_13putEcP6Status+0x37>
     e36: a6 67        	ldx	$67                     ; 0x2067 <_ZN12_GLOBAL__N_13putEcP6Status+0x84>
     e38: a4 68        	ldy	$68                     ; 0x2068 <_ZN12_GLOBAL__N_13putEcP6Status+0x85>
     e3a: 86 12        	stx	$12                     ; 0x2012 <_ZN12_GLOBAL__N_13putEcP6Status+0x2f>
     e3c: 84 13        	sty	$13                     ; 0x2013 <_ZN12_GLOBAL__N_13putEcP6Status+0x30>
     e3e: a0 03        	ldy	#$3
     e40: 91 12        	sta	($12),y                 ; 0x2012 <_ZN12_GLOBAL__N_13putEcP6Status+0x2f>
     e42: 18           	clc
     e43: a5 10        	lda	$10                     ; 0x2010 <_ZN12_GLOBAL__N_13putEcP6Status+0x2d>
     e45: 69 2c        	adc	#$2c
     e47: 85 26        	sta	$26                     ; 0x2026 <_ZN12_GLOBAL__N_13putEcP6Status+0x43>
     e49: a5 11        	lda	$11                     ; 0x2011 <_ZN12_GLOBAL__N_13putEcP6Status+0x2e>
     e4b: 69 00        	adc	#$0
     e4d: 85 27        	sta	$27                     ; 0x2027 <_ZN12_GLOBAL__N_13putEcP6Status+0x44>
     e4f: a2 cb        	ldx	#$cb
     e51: 86 28        	stx	$28                     ; 0x2028 <_ZN12_GLOBAL__N_13putEcP6Status+0x45>
     e53: a2 00        	ldx	#$0
     e55: 86 29        	stx	$29                     ; 0x2029 <_ZN12_GLOBAL__N_13putEcP6Status+0x46>
     e57: 20 68 ff     	jsr	$ff68 <end_block9+0xd7d0>
     e5a: 92 26        	sta	($26)                   ; 0x2026 <_ZN12_GLOBAL__N_13putEcP6Status+0x43>
     e5c: a9 00        	lda	#$0
     e5e: 6a           	ror
     e5f: 85 28        	sta	$28                     ; 0x2028 <_ZN12_GLOBAL__N_13putEcP6Status+0x45>
     e61: a6 1a        	ldx	$1a                     ; 0x201a <_ZN12_GLOBAL__N_13putEcP6Status+0x37>
     e63: 86 12        	stx	$12                     ; 0x2012 <_ZN12_GLOBAL__N_13putEcP6Status+0x2f>
     e65: a6 1b        	ldx	$1b                     ; 0x201b <_ZN12_GLOBAL__N_13putEcP6Status+0x38>
     e67: 86 13        	stx	$13                     ; 0x2013 <_ZN12_GLOBAL__N_13putEcP6Status+0x30>
     e69: 20 85 24     	jsr	$2485 <free>
     e6c: 64 cc        	stz	$cc                     ; 0x20cc <_ZN12_GLOBAL__N_112print_stringEPKcP6Status+0x8>
     e6e: 20 00 ff     	jsr	$ff00 <end_block9+0xd768>
     e71: 92 26        	sta	($26)                   ; 0x2026 <_ZN12_GLOBAL__N_13putEcP6Status+0x43>
     e73: a9 00        	lda	#$0
     e75: 6a           	ror
     e76: 85 28        	sta	$28                     ; 0x2028 <_ZN12_GLOBAL__N_13putEcP6Status+0x45>
     e78: a6 cc        	ldx	$cc                     ; 0x20cc <_ZN12_GLOBAL__N_112print_stringEPKcP6Status+0x8>
     e7a: e0 38        	cpx	#$38
     e7c: f0 04        	beq	$e82 <f256main+0x3ee>
     e7e: e0 32        	cpx	#$32
     e80: d0 ea        	bne	$e6c <f256main+0x3d8>
     e82: a2 7a        	ldx	#$7a
     e84: 86 12        	stx	$12                     ; 0x2012 <_ZN12_GLOBAL__N_13putEcP6Status+0x2f>
     e86: a2 27        	ldx	#$27
     e88: 86 13        	stx	$13                     ; 0x2013 <_ZN12_GLOBAL__N_13putEcP6Status+0x30>
     e8a: 20 38 22     	jsr	$2238 <printf>
     e8d: 20 43 12     	jsr	$1243 <hitspace>
     e90: a2 00        	ldx	#$0
     e92: 8a           	txa
     e93: 85 20        	sta	$20                     ; 0x2020 <_ZN12_GLOBAL__N_13putEcP6Status+0x3d>
     e95: a8           	tay
     e96: b1 10        	lda	($10),y                 ; 0x2010 <_ZN12_GLOBAL__N_13putEcP6Status+0x2d>
     e98: 85 2f        	sta	$2f                     ; 0x202f <_ZN12_GLOBAL__N_13putEcP6Status+0x4c>
     e9a: c8           	iny
     e9b: b1 10        	lda	($10),y                 ; 0x2010 <_ZN12_GLOBAL__N_13putEcP6Status+0x2d>
     e9d: 85 2e        	sta	$2e                     ; 0x202e <_ZN12_GLOBAL__N_13putEcP6Status+0x4b>
     e9f: c8           	iny
     ea0: b1 10        	lda	($10),y                 ; 0x2010 <_ZN12_GLOBAL__N_13putEcP6Status+0x2d>
     ea2: 85 2d        	sta	$2d                     ; 0x202d <_ZN12_GLOBAL__N_13putEcP6Status+0x4a>
     ea4: c8           	iny
     ea5: b1 10        	lda	($10),y                 ; 0x2010 <_ZN12_GLOBAL__N_13putEcP6Status+0x2d>
     ea7: 85 2c        	sta	$2c                     ; 0x202c <_ZN12_GLOBAL__N_13putEcP6Status+0x49>
     ea9: c8           	iny
     eaa: b1 10        	lda	($10),y                 ; 0x2010 <_ZN12_GLOBAL__N_13putEcP6Status+0x2d>
     eac: 85 2b        	sta	$2b                     ; 0x202b <_ZN12_GLOBAL__N_13putEcP6Status+0x48>
     eae: c8           	iny
     eaf: b1 10        	lda	($10),y                 ; 0x2010 <_ZN12_GLOBAL__N_13putEcP6Status+0x2d>
     eb1: 85 2a        	sta	$2a                     ; 0x202a <_ZN12_GLOBAL__N_13putEcP6Status+0x47>
     eb3: c8           	iny
     eb4: b1 10        	lda	($10),y                 ; 0x2010 <_ZN12_GLOBAL__N_13putEcP6Status+0x2d>
     eb6: 85 29        	sta	$29                     ; 0x2029 <_ZN12_GLOBAL__N_13putEcP6Status+0x46>
     eb8: c8           	iny
     eb9: b1 10        	lda	($10),y                 ; 0x2010 <_ZN12_GLOBAL__N_13putEcP6Status+0x2d>
     ebb: 85 28        	sta	$28                     ; 0x2028 <_ZN12_GLOBAL__N_13putEcP6Status+0x45>
     ebd: 7a           	ply
     ebe: 84 27        	sty	$27                     ; 0x2027 <_ZN12_GLOBAL__N_13putEcP6Status+0x44>
     ec0: 7a           	ply
     ec1: 84 26        	sty	$26                     ; 0x2026 <_ZN12_GLOBAL__N_13putEcP6Status+0x43>
     ec3: 7a           	ply
     ec4: 84 25        	sty	$25                     ; 0x2025 <_ZN12_GLOBAL__N_13putEcP6Status+0x42>
     ec6: 7a           	ply
     ec7: 84 24        	sty	$24                     ; 0x2024 <_ZN12_GLOBAL__N_13putEcP6Status+0x41>
     ec9: 18           	clc
     eca: a5 10        	lda	$10                     ; 0x2010 <_ZN12_GLOBAL__N_13putEcP6Status+0x2d>
     ecc: 69 2d        	adc	#$2d
     ece: 85 10        	sta	$10                     ; 0x2010 <_ZN12_GLOBAL__N_13putEcP6Status+0x2d>
     ed0: a5 11        	lda	$11                     ; 0x2011 <_ZN12_GLOBAL__N_13putEcP6Status+0x2e>
     ed2: 69 00        	adc	#$0
     ed4: 85 11        	sta	$11                     ; 0x2011 <_ZN12_GLOBAL__N_13putEcP6Status+0x2e>
     ed6: a5 20        	lda	$20                     ; 0x2020 <_ZN12_GLOBAL__N_13putEcP6Status+0x3d>
     ed8: 60           	rts

00000ed9 <fileOpen>:
     ed9: a6 12        	ldx	$12                     ; 0x2012 <_ZN12_GLOBAL__N_13putEcP6Status+0x2f>
     edb: 86 d9        	stx	$d9                     ; 0x20d9 <_ZN12_GLOBAL__N_112print_stringEPKcP6Status+0x15>
     edd: a6 13        	ldx	$13                     ; 0x2013 <_ZN12_GLOBAL__N_13putEcP6Status+0x30>
     edf: 86 da        	stx	$da                     ; 0x20da <_ZN12_GLOBAL__N_112print_stringEPKcP6Status+0x16>
     ee1: a6 14        	ldx	$14                     ; 0x2014 <_ZN12_GLOBAL__N_13putEcP6Status+0x31>
     ee3: 86 db        	stx	$db                     ; 0x20db <_ZN12_GLOBAL__N_112print_stringEPKcP6Status+0x17>
     ee5: a6 15        	ldx	$15                     ; 0x2015 <_ZN12_GLOBAL__N_13putEcP6Status+0x32>
     ee7: 86 dc        	stx	$dc                     ; 0x20dc <_ZN12_GLOBAL__N_112print_stringEPKcP6Status+0x18>
     ee9: 20 57 26     	jsr	$2657 <strlen>
     eec: 64 dd        	stz	$dd                     ; 0x20dd <_ZN12_GLOBAL__N_112print_stringEPKcP6Status+0x19>
     eee: e0 00        	cpx	#$0
     ef0: d0 06        	bne	$ef8 <fileOpen+0x1f>
     ef2: c9 02        	cmp	#$2
     ef4: b0 06        	bcs	$efc <fileOpen+0x23>
     ef6: 80 28        	bra	$f20 <fileOpen+0x47>
     ef8: e0 00        	cpx	#$0
     efa: 90 24        	bcc	$f20 <fileOpen+0x47>
     efc: a0 01        	ldy	#$1
     efe: b1 d9        	lda	($d9),y                 ; 0x20d9 <_ZN12_GLOBAL__N_112print_stringEPKcP6Status+0x15>
     f00: c9 3a        	cmp	#$3a
     f02: d0 1c        	bne	$f20 <fileOpen+0x47>
     f04: b2 d9        	lda	($d9)                   ; 0x20d9 <_ZN12_GLOBAL__N_112print_stringEPKcP6Status+0x15>
     f06: c9 30        	cmp	#$30
     f08: 90 09        	bcc	$f13 <fileOpen+0x3a>
     f0a: c9 38        	cmp	#$38
     f0c: b0 05        	bcs	$f13 <fileOpen+0x3a>
     f0e: 18           	clc
     f0f: 69 d0        	adc	#$d0
     f11: 85 dd        	sta	$dd                     ; 0x20dd <_ZN12_GLOBAL__N_112print_stringEPKcP6Status+0x19>
     f13: a5 d9        	lda	$d9                     ; 0x20d9 <_ZN12_GLOBAL__N_112print_stringEPKcP6Status+0x15>
     f15: 18           	clc
     f16: 69 02        	adc	#$2
     f18: 85 d9        	sta	$d9                     ; 0x20d9 <_ZN12_GLOBAL__N_112print_stringEPKcP6Status+0x15>
     f1a: a5 da        	lda	$da                     ; 0x20da <_ZN12_GLOBAL__N_112print_stringEPKcP6Status+0x16>
     f1c: 69 00        	adc	#$0
     f1e: 85 da        	sta	$da                     ; 0x20da <_ZN12_GLOBAL__N_112print_stringEPKcP6Status+0x16>
     f20: a2 00        	ldx	#$0
     f22: 86 e0        	stx	$e0                     ; 0x20e0 <_ZN12_GLOBAL__N_112print_stringEPKcP6Status+0x1c>
     f24: 80 00        	bra	$f26 <fileOpen+0x4d>
     f26: b2 db        	lda	($db)                   ; 0x20db <_ZN12_GLOBAL__N_112print_stringEPKcP6Status+0x17>
     f28: c9 77        	cmp	#$77
     f2a: f0 13        	beq	$f3f <fileOpen+0x66>
     f2c: aa           	tax
     f2d: f0 1a        	beq	$f49 <fileOpen+0x70>
     f2f: c9 61        	cmp	#$61
     f31: d0 04        	bne	$f37 <fileOpen+0x5e>
     f33: a2 02        	ldx	#$2
     f35: 86 e0        	stx	$e0                     ; 0x20e0 <_ZN12_GLOBAL__N_112print_stringEPKcP6Status+0x1c>
     f37: e6 db        	inc	$db                     ; 0x20db <_ZN12_GLOBAL__N_112print_stringEPKcP6Status+0x17>
     f39: d0 eb        	bne	$f26 <fileOpen+0x4d>
     f3b: e6 dc        	inc	$dc                     ; 0x20dc <_ZN12_GLOBAL__N_112print_stringEPKcP6Status+0x18>
     f3d: 80 e7        	bra	$f26 <fileOpen+0x4d>
     f3f: a2 01        	ldx	#$1
     f41: 86 e0        	stx	$e0                     ; 0x20e0 <_ZN12_GLOBAL__N_112print_stringEPKcP6Status+0x1c>
     f43: c9 61        	cmp	#$61
     f45: f0 ec        	beq	$f33 <fileOpen+0x5a>
     f47: 80 ee        	bra	$f37 <fileOpen+0x5e>
     f49: a5 67        	lda	$67                     ; 0x2067 <_ZN12_GLOBAL__N_13putEcP6Status+0x84>
     f4b: a6 68        	ldx	$68                     ; 0x2068 <_ZN12_GLOBAL__N_13putEcP6Status+0x85>
     f4d: 85 db        	sta	$db                     ; 0x20db <_ZN12_GLOBAL__N_112print_stringEPKcP6Status+0x17>
     f4f: 86 dc        	stx	$dc                     ; 0x20dc <_ZN12_GLOBAL__N_112print_stringEPKcP6Status+0x18>
     f51: a0 0b        	ldy	#$b
     f53: 18           	clc
     f54: 69 0b        	adc	#$b
     f56: 85 12        	sta	$12                     ; 0x2012 <_ZN12_GLOBAL__N_13putEcP6Status+0x2f>
     f58: 8a           	txa
     f59: 69 00        	adc	#$0
     f5b: 85 13        	sta	$13                     ; 0x2013 <_ZN12_GLOBAL__N_13putEcP6Status+0x30>
     f5d: a5 d9        	lda	$d9                     ; 0x20d9 <_ZN12_GLOBAL__N_112print_stringEPKcP6Status+0x15>
     f5f: 91 db        	sta	($db),y                 ; 0x20db <_ZN12_GLOBAL__N_112print_stringEPKcP6Status+0x17>
     f61: a0 01        	ldy	#$1
     f63: a5 da        	lda	$da                     ; 0x20da <_ZN12_GLOBAL__N_112print_stringEPKcP6Status+0x16>
     f65: 91 12        	sta	($12),y                 ; 0x2012 <_ZN12_GLOBAL__N_13putEcP6Status+0x2f>
     f67: a6 d9        	ldx	$d9                     ; 0x20d9 <_ZN12_GLOBAL__N_112print_stringEPKcP6Status+0x15>
     f69: 86 12        	stx	$12                     ; 0x2012 <_ZN12_GLOBAL__N_13putEcP6Status+0x2f>
     f6b: a6 da        	ldx	$da                     ; 0x20da <_ZN12_GLOBAL__N_112print_stringEPKcP6Status+0x16>
     f6d: 86 13        	stx	$13                     ; 0x2013 <_ZN12_GLOBAL__N_13putEcP6Status+0x30>
     f6f: 20 57 26     	jsr	$2657 <strlen>
     f72: a0 0d        	ldy	#$d
     f74: 91 db        	sta	($db),y                 ; 0x20db <_ZN12_GLOBAL__N_112print_stringEPKcP6Status+0x17>
     f76: a0 03        	ldy	#$3
     f78: a5 dd        	lda	$dd                     ; 0x20dd <_ZN12_GLOBAL__N_112print_stringEPKcP6Status+0x19>
     f7a: 91 db        	sta	($db),y                 ; 0x20db <_ZN12_GLOBAL__N_112print_stringEPKcP6Status+0x17>
     f7c: a0 05        	ldy	#$5
     f7e: a5 e0        	lda	$e0                     ; 0x20e0 <_ZN12_GLOBAL__N_112print_stringEPKcP6Status+0x1c>
     f80: 91 db        	sta	($db),y                 ; 0x20db <_ZN12_GLOBAL__N_112print_stringEPKcP6Status+0x17>
     f82: a2 de        	ldx	#$de
     f84: a0 00        	ldy	#$0
     f86: 86 12        	stx	$12                     ; 0x2012 <_ZN12_GLOBAL__N_13putEcP6Status+0x2f>
     f88: 84 13        	sty	$13                     ; 0x2013 <_ZN12_GLOBAL__N_13putEcP6Status+0x30>
     f8a: a2 cb        	ldx	#$cb
     f8c: 86 14        	stx	$14                     ; 0x2014 <_ZN12_GLOBAL__N_13putEcP6Status+0x31>
     f8e: a2 00        	ldx	#$0
     f90: 86 15        	stx	$15                     ; 0x2015 <_ZN12_GLOBAL__N_13putEcP6Status+0x32>
     f92: 20 5c ff     	jsr	$ff5c <end_block9+0xd7c4>
     f95: 92 12        	sta	($12)                   ; 0x2012 <_ZN12_GLOBAL__N_13putEcP6Status+0x2f>
     f97: a9 00        	lda	#$0
     f99: 6a           	ror
     f9a: 85 14        	sta	$14                     ; 0x2014 <_ZN12_GLOBAL__N_13putEcP6Status+0x31>
     f9c: a6 cb        	ldx	$cb                     ; 0x20cb <_ZN12_GLOBAL__N_112print_stringEPKcP6Status+0x7>
     f9e: a0 00        	ldy	#$0
     fa0: 84 12        	sty	$12                     ; 0x2012 <_ZN12_GLOBAL__N_13putEcP6Status+0x2f>
     fa2: a0 00        	ldy	#$0
     fa4: 84 13        	sty	$13                     ; 0x2013 <_ZN12_GLOBAL__N_13putEcP6Status+0x30>
     fa6: 8a           	txa
     fa7: f0 01        	beq	$faa <fileOpen+0xd1>
     fa9: 60           	rts
     faa: a6 de        	ldx	$de                     ; 0x20de <_ZN12_GLOBAL__N_112print_stringEPKcP6Status+0x1a>
     fac: 86 d9        	stx	$d9                     ; 0x20d9 <_ZN12_GLOBAL__N_112print_stringEPKcP6Status+0x15>
     fae: a2 df        	ldx	#$df
     fb0: a0 00        	ldy	#$0
     fb2: 86 16        	stx	$16                     ; 0x2016 <_ZN12_GLOBAL__N_13putEcP6Status+0x33>
     fb4: 84 17        	sty	$17                     ; 0x2017 <_ZN12_GLOBAL__N_13putEcP6Status+0x34>
     fb6: 64 cc        	stz	$cc                     ; 0x20cc <_ZN12_GLOBAL__N_112print_stringEPKcP6Status+0x8>
     fb8: 20 00 ff     	jsr	$ff00 <end_block9+0xd768>
     fbb: 92 16        	sta	($16)                   ; 0x2016 <_ZN12_GLOBAL__N_13putEcP6Status+0x33>
     fbd: a9 00        	lda	#$0
     fbf: 6a           	ror
     fc0: 85 14        	sta	$14                     ; 0x2014 <_ZN12_GLOBAL__N_13putEcP6Status+0x31>
     fc2: a6 cc        	ldx	$cc                     ; 0x20cc <_ZN12_GLOBAL__N_112print_stringEPKcP6Status+0x8>
     fc4: e0 28        	cpx	#$28
     fc6: f0 e1        	beq	$fa9 <fileOpen+0xd0>
     fc8: e0 38        	cpx	#$38
     fca: f0 dd        	beq	$fa9 <fileOpen+0xd0>
     fcc: e0 2a        	cpx	#$2a
     fce: d0 e6        	bne	$fb6 <fileOpen+0xdd>
     fd0: a9 01        	lda	#$1
     fd2: a2 00        	ldx	#$0
     fd4: 20 cf 22     	jsr	$22cf <malloc>
     fd7: a5 d9        	lda	$d9                     ; 0x20d9 <_ZN12_GLOBAL__N_112print_stringEPKcP6Status+0x15>
     fd9: 92 12        	sta	($12)                   ; 0x2012 <_ZN12_GLOBAL__N_13putEcP6Status+0x2f>
     fdb: 60           	rts

00000fdc <textPrint>:
     fdc: a6 12        	ldx	$12                     ; 0x2012 <_ZN12_GLOBAL__N_13putEcP6Status+0x2f>
     fde: 86 d9        	stx	$d9                     ; 0x20d9 <_ZN12_GLOBAL__N_112print_stringEPKcP6Status+0x15>
     fe0: a6 13        	ldx	$13                     ; 0x2013 <_ZN12_GLOBAL__N_13putEcP6Status+0x30>
     fe2: 86 da        	stx	$da                     ; 0x20da <_ZN12_GLOBAL__N_112print_stringEPKcP6Status+0x16>
     fe4: a2 00        	ldx	#$0
     fe6: 86 db        	stx	$db                     ; 0x20db <_ZN12_GLOBAL__N_112print_stringEPKcP6Status+0x17>
     fe8: a2 c0        	ldx	#$c0
     fea: 86 dc        	stx	$dc                     ; 0x20dc <_ZN12_GLOBAL__N_112print_stringEPKcP6Status+0x18>
     fec: a6 01        	ldx	$1                      ; 0x2001 <_ZN12_GLOBAL__N_13putEcP6Status+0x1e>
     fee: 86 e0        	stx	$e0                     ; 0x20e0 <_ZN12_GLOBAL__N_112print_stringEPKcP6Status+0x1c>
     ff0: a6 60        	ldx	$60                     ; 0x2060 <_ZN12_GLOBAL__N_13putEcP6Status+0x7d>
     ff2: a4 6a        	ldy	$6a                     ; 0x206a <_ZN12_GLOBAL__N_13putEcP6Status+0x87>
     ff4: 8e 00 de     	stx	$de00                   ; 0xde00 <end_block9+0xb668>
     ff7: 9c 01 de     	stz	$de01                   ; 0xde01 <end_block9+0xb669>
     ffa: 8c 02 de     	sty	$de02                   ; 0xde02 <end_block9+0xb66a>
     ffd: 9c 03 de     	stz	$de03                   ; 0xde03 <end_block9+0xb66b>
    1000: ae 10 de     	ldx	$de10                   ; 0xde10 <end_block9+0xb678>
    1003: 86 12        	stx	$12                     ; 0x2012 <_ZN12_GLOBAL__N_13putEcP6Status+0x2f>
    1005: ac 11 de     	ldy	$de11                   ; 0xde11 <end_block9+0xb679>
    1008: ad 12 de     	lda	$de12                   ; 0xde12 <end_block9+0xb67a>
    100b: ae 13 de     	ldx	$de13                   ; 0xde13 <end_block9+0xb67b>
    100e: 86 13        	stx	$13                     ; 0x2013 <_ZN12_GLOBAL__N_13putEcP6Status+0x30>
    1010: 9c 08 de     	stz	$de08                   ; 0xde08 <end_block9+0xb670>
    1013: a2 c0        	ldx	#$c0
    1015: 8e 09 de     	stx	$de09                   ; 0xde09 <end_block9+0xb671>
    1018: 9c 0a de     	stz	$de0a                   ; 0xde0a <end_block9+0xb672>
    101b: 9c 0b de     	stz	$de0b                   ; 0xde0b <end_block9+0xb673>
    101e: a6 12        	ldx	$12                     ; 0x2012 <_ZN12_GLOBAL__N_13putEcP6Status+0x2f>
    1020: 8e 0c de     	stx	$de0c                   ; 0xde0c <end_block9+0xb674>
    1023: 8c 0d de     	sty	$de0d                   ; 0xde0d <end_block9+0xb675>
    1026: 8d 0e de     	sta	$de0e                   ; 0xde0e <end_block9+0xb676>
    1029: a6 13        	ldx	$13                     ; 0x2013 <_ZN12_GLOBAL__N_13putEcP6Status+0x30>
    102b: 8e 0f de     	stx	$de0f                   ; 0xde0f <end_block9+0xb677>
    102e: ae 18 de     	ldx	$de18                   ; 0xde18 <end_block9+0xb680>
    1031: ac 19 de     	ldy	$de19                   ; 0xde19 <end_block9+0xb681>
    1034: ad 1a de     	lda	$de1a                   ; 0xde1a <end_block9+0xb682>
    1037: ad 1b de     	lda	$de1b                   ; 0xde1b <end_block9+0xb683>
    103a: 86 12        	stx	$12                     ; 0x2012 <_ZN12_GLOBAL__N_13putEcP6Status+0x2f>
    103c: 84 13        	sty	$13                     ; 0x2013 <_ZN12_GLOBAL__N_13putEcP6Status+0x30>
    103e: 64 dd        	stz	$dd                     ; 0x20dd <_ZN12_GLOBAL__N_112print_stringEPKcP6Status+0x19>
    1040: 64 de        	stz	$de                     ; 0x20de <_ZN12_GLOBAL__N_112print_stringEPKcP6Status+0x1a>
    1042: 80 00        	bra	$1044 <textPrint+0x68>
    1044: a5 d9        	lda	$d9                     ; 0x20d9 <_ZN12_GLOBAL__N_112print_stringEPKcP6Status+0x15>
    1046: 18           	clc
    1047: 65 dd        	adc	$dd                     ; 0x20dd <_ZN12_GLOBAL__N_112print_stringEPKcP6Status+0x19>
    1049: 85 14        	sta	$14                     ; 0x2014 <_ZN12_GLOBAL__N_13putEcP6Status+0x31>
    104b: a5 da        	lda	$da                     ; 0x20da <_ZN12_GLOBAL__N_112print_stringEPKcP6Status+0x16>
    104d: 65 de        	adc	$de                     ; 0x20de <_ZN12_GLOBAL__N_112print_stringEPKcP6Status+0x1a>
    104f: 85 15        	sta	$15                     ; 0x2015 <_ZN12_GLOBAL__N_13putEcP6Status+0x32>
    1051: b2 14        	lda	($14)                   ; 0x2014 <_ZN12_GLOBAL__N_13putEcP6Status+0x31>
    1053: c9 0a        	cmp	#$a
    1055: f0 29        	beq	$1080 <textPrint+0xa4>
    1057: c9 0d        	cmp	#$d
    1059: f0 25        	beq	$1080 <textPrint+0xa4>
    105b: aa           	tax
    105c: d0 03        	bne	$1061 <textPrint+0x85>
    105e: 4c 1f 12     	jmp	$121f <textPrint+0x243>
    1061: a2 03        	ldx	#$3
    1063: 86 01        	stx	$1                      ; 0x2001 <_ZN12_GLOBAL__N_13putEcP6Status+0x1e>
    1065: a5 62        	lda	$62                     ; 0x2062 <_ZN12_GLOBAL__N_13putEcP6Status+0x7f>
    1067: a4 69        	ldy	$69                     ; 0x2069 <_ZN12_GLOBAL__N_13putEcP6Status+0x86>
    1069: 91 12        	sta	($12),y                 ; 0x2012 <_ZN12_GLOBAL__N_13putEcP6Status+0x2f>
    106b: ca           	dex
    106c: 86 01        	stx	$1                      ; 0x2001 <_ZN12_GLOBAL__N_13putEcP6Status+0x1e>
    106e: b2 14        	lda	($14)                   ; 0x2014 <_ZN12_GLOBAL__N_13putEcP6Status+0x31>
    1070: a4 69        	ldy	$69                     ; 0x2069 <_ZN12_GLOBAL__N_13putEcP6Status+0x86>
    1072: 91 12        	sta	($12),y                 ; 0x2012 <_ZN12_GLOBAL__N_13putEcP6Status+0x2f>
    1074: a6 69        	ldx	$69                     ; 0x2069 <_ZN12_GLOBAL__N_13putEcP6Status+0x86>
    1076: e8           	inx
    1077: e6 69        	inc	$69                     ; 0x2069 <_ZN12_GLOBAL__N_13putEcP6Status+0x86>
    1079: e4 60        	cpx	$60                     ; 0x2060 <_ZN12_GLOBAL__N_13putEcP6Status+0x7d>
    107b: f0 03        	beq	$1080 <textPrint+0xa4>
    107d: 4c 51 11     	jmp	$1151 <textPrint+0x175>
    1080: 64 69        	stz	$69                     ; 0x2069 <_ZN12_GLOBAL__N_13putEcP6Status+0x86>
    1082: a6 6a        	ldx	$6a                     ; 0x206a <_ZN12_GLOBAL__N_13putEcP6Status+0x87>
    1084: e8           	inx
    1085: e6 6a        	inc	$6a                     ; 0x206a <_ZN12_GLOBAL__N_13putEcP6Status+0x87>
    1087: a4 61        	ldy	$61                     ; 0x2061 <_ZN12_GLOBAL__N_13putEcP6Status+0x7e>
    1089: 84 df        	sty	$df                     ; 0x20df <_ZN12_GLOBAL__N_112print_stringEPKcP6Status+0x1b>
    108b: e4 df        	cpx	$df                     ; 0x20df <_ZN12_GLOBAL__N_112print_stringEPKcP6Status+0x1b>
    108d: f0 03        	beq	$1092 <textPrint+0xb6>
    108f: 4c 44 11     	jmp	$1144 <textPrint+0x168>
    1092: a6 60        	ldx	$60                     ; 0x2060 <_ZN12_GLOBAL__N_13putEcP6Status+0x7d>
    1094: 86 e3        	stx	$e3                     ; 0x20e3 <_ZN12_GLOBAL__N_112print_stringEPKcP6Status+0x1f>
    1096: 98           	tya
    1097: a2 00        	ldx	#$0
    1099: 3a           	dec
    109a: c9 ff        	cmp	#$ff
    109c: d0 01        	bne	$109f <textPrint+0xc3>
    109e: ca           	dex
    109f: a4 e3        	ldy	$e3                     ; 0x20e3 <_ZN12_GLOBAL__N_112print_stringEPKcP6Status+0x1f>
    10a1: 84 12        	sty	$12                     ; 0x2012 <_ZN12_GLOBAL__N_13putEcP6Status+0x2f>
    10a3: 64 13        	stz	$13                     ; 0x2013 <_ZN12_GLOBAL__N_13putEcP6Status+0x30>
    10a5: 20 fe 26     	jsr	$26fe <__mulhi3>
    10a8: 85 e1        	sta	$e1                     ; 0x20e1 <_ZN12_GLOBAL__N_112print_stringEPKcP6Status+0x1d>
    10aa: 86 e2        	stx	$e2                     ; 0x20e2 <_ZN12_GLOBAL__N_112print_stringEPKcP6Status+0x1e>
    10ac: a2 03        	ldx	#$3
    10ae: 86 01        	stx	$1                      ; 0x2001 <_ZN12_GLOBAL__N_13putEcP6Status+0x1e>
    10b0: 38           	sec
    10b1: a9 01        	lda	#$1
    10b3: e5 df        	sbc	$df                     ; 0x20df <_ZN12_GLOBAL__N_112print_stringEPKcP6Status+0x1b>
    10b5: a8           	tay
    10b6: 64 df        	stz	$df                     ; 0x20df <_ZN12_GLOBAL__N_112print_stringEPKcP6Status+0x1b>
    10b8: a9 00        	lda	#$0
    10ba: e9 00        	sbc	#$0
    10bc: a6 e3        	ldx	$e3                     ; 0x20e3 <_ZN12_GLOBAL__N_112print_stringEPKcP6Status+0x1f>
    10be: 86 12        	stx	$12                     ; 0x2012 <_ZN12_GLOBAL__N_13putEcP6Status+0x2f>
    10c0: 64 13        	stz	$13                     ; 0x2013 <_ZN12_GLOBAL__N_13putEcP6Status+0x30>
    10c2: aa           	tax
    10c3: 98           	tya
    10c4: 20 fe 26     	jsr	$26fe <__mulhi3>
    10c7: 85 1a        	sta	$1a                     ; 0x201a <_ZN12_GLOBAL__N_13putEcP6Status+0x37>
    10c9: a9 00        	lda	#$0
    10cb: 80 1d        	bra	$10ea <textPrint+0x10e>
    10cd: 64 14        	stz	$14                     ; 0x2014 <_ZN12_GLOBAL__N_13putEcP6Status+0x31>
    10cf: 64 15        	stz	$15                     ; 0x2015 <_ZN12_GLOBAL__N_13putEcP6Status+0x32>
    10d1: a0 02        	ldy	#$2
    10d3: 84 01        	sty	$1                      ; 0x2001 <_ZN12_GLOBAL__N_13putEcP6Status+0x1e>
    10d5: a5 12        	lda	$12                     ; 0x2012 <_ZN12_GLOBAL__N_13putEcP6Status+0x2f>
    10d7: e6 df        	inc	$df                     ; 0x20df <_ZN12_GLOBAL__N_112print_stringEPKcP6Status+0x1b>
    10d9: d0 01        	bne	$10dc <textPrint+0x100>
    10db: 1a           	inc
    10dc: a4 12        	ldy	$12                     ; 0x2012 <_ZN12_GLOBAL__N_13putEcP6Status+0x2f>
    10de: f0 03        	beq	$10e3 <textPrint+0x107>
    10e0: 4c 5d 11     	jmp	$115d <textPrint+0x181>
    10e3: a4 13        	ldy	$13                     ; 0x2013 <_ZN12_GLOBAL__N_13putEcP6Status+0x30>
    10e5: f0 03        	beq	$10ea <textPrint+0x10e>
    10e7: 4c 5d 11     	jmp	$115d <textPrint+0x181>
    10ea: 85 12        	sta	$12                     ; 0x2012 <_ZN12_GLOBAL__N_13putEcP6Status+0x2f>
    10ec: a4 df        	ldy	$df                     ; 0x20df <_ZN12_GLOBAL__N_112print_stringEPKcP6Status+0x1b>
    10ee: 84 13        	sty	$13                     ; 0x2013 <_ZN12_GLOBAL__N_13putEcP6Status+0x30>
    10f0: a4 e1        	ldy	$e1                     ; 0x20e1 <_ZN12_GLOBAL__N_112print_stringEPKcP6Status+0x1d>
    10f2: c0 01        	cpy	#$1
    10f4: a5 e2        	lda	$e2                     ; 0x20e2 <_ZN12_GLOBAL__N_112print_stringEPKcP6Status+0x1e>
    10f6: e9 00        	sbc	#$0
    10f8: 50 02        	bvc	$10fc <textPrint+0x120>
    10fa: 49 80        	eor	#$80
    10fc: a8           	tay
    10fd: 30 ce        	bmi	$10cd <textPrint+0xf1>
    10ff: 64 15        	stz	$15                     ; 0x2015 <_ZN12_GLOBAL__N_13putEcP6Status+0x32>
    1101: a0 00        	ldy	#$0
    1103: 84 18        	sty	$18                     ; 0x2018 <_ZN12_GLOBAL__N_13putEcP6Status+0x35>
    1105: a0 c0        	ldy	#$c0
    1107: 84 19        	sty	$19                     ; 0x2019 <_ZN12_GLOBAL__N_13putEcP6Status+0x36>
    1109: 64 17        	stz	$17                     ; 0x2017 <_ZN12_GLOBAL__N_13putEcP6Status+0x34>
    110b: a4 17        	ldy	$17                     ; 0x2017 <_ZN12_GLOBAL__N_13putEcP6Status+0x34>
    110d: 84 14        	sty	$14                     ; 0x2014 <_ZN12_GLOBAL__N_13putEcP6Status+0x31>
    110f: a4 15        	ldy	$15                     ; 0x2015 <_ZN12_GLOBAL__N_13putEcP6Status+0x32>
    1111: 84 16        	sty	$16                     ; 0x2016 <_ZN12_GLOBAL__N_13putEcP6Status+0x33>
    1113: a4 60        	ldy	$60                     ; 0x2060 <_ZN12_GLOBAL__N_13putEcP6Status+0x7d>
    1115: b1 18        	lda	($18),y                 ; 0x2018 <_ZN12_GLOBAL__N_13putEcP6Status+0x35>
    1117: 92 18        	sta	($18)                   ; 0x2018 <_ZN12_GLOBAL__N_13putEcP6Status+0x35>
    1119: a0 ff        	ldy	#$ff
    111b: c6 15        	dec	$15                     ; 0x2015 <_ZN12_GLOBAL__N_13putEcP6Status+0x32>
    111d: c4 15        	cpy	$15                     ; 0x2015 <_ZN12_GLOBAL__N_13putEcP6Status+0x32>
    111f: d0 02        	bne	$1123 <textPrint+0x147>
    1121: c6 17        	dec	$17                     ; 0x2017 <_ZN12_GLOBAL__N_13putEcP6Status+0x34>
    1123: e6 18        	inc	$18                     ; 0x2018 <_ZN12_GLOBAL__N_13putEcP6Status+0x35>
    1125: d0 02        	bne	$1129 <textPrint+0x14d>
    1127: e6 19        	inc	$19                     ; 0x2019 <_ZN12_GLOBAL__N_13putEcP6Status+0x36>
    1129: e4 17        	cpx	$17                     ; 0x2017 <_ZN12_GLOBAL__N_13putEcP6Status+0x34>
    112b: d0 de        	bne	$110b <textPrint+0x12f>
    112d: a4 1a        	ldy	$1a                     ; 0x201a <_ZN12_GLOBAL__N_13putEcP6Status+0x37>
    112f: c4 15        	cpy	$15                     ; 0x2015 <_ZN12_GLOBAL__N_13putEcP6Status+0x32>
    1131: d0 d8        	bne	$110b <textPrint+0x12f>
    1133: 38           	sec
    1134: a9 01        	lda	#$1
    1136: e5 16        	sbc	$16                     ; 0x2016 <_ZN12_GLOBAL__N_13putEcP6Status+0x33>
    1138: a8           	tay
    1139: a9 00        	lda	#$0
    113b: e5 14        	sbc	$14                     ; 0x2014 <_ZN12_GLOBAL__N_13putEcP6Status+0x31>
    113d: 84 14        	sty	$14                     ; 0x2014 <_ZN12_GLOBAL__N_13putEcP6Status+0x31>
    113f: 85 15        	sta	$15                     ; 0x2015 <_ZN12_GLOBAL__N_13putEcP6Status+0x32>
    1141: 4c d1 10     	jmp	$10d1 <textPrint+0xf5>
    1144: a5 12        	lda	$12                     ; 0x2012 <_ZN12_GLOBAL__N_13putEcP6Status+0x2f>
    1146: 18           	clc
    1147: 65 60        	adc	$60                     ; 0x2060 <_ZN12_GLOBAL__N_13putEcP6Status+0x7d>
    1149: 85 12        	sta	$12                     ; 0x2012 <_ZN12_GLOBAL__N_13putEcP6Status+0x2f>
    114b: a5 13        	lda	$13                     ; 0x2013 <_ZN12_GLOBAL__N_13putEcP6Status+0x30>
    114d: 69 00        	adc	#$0
    114f: 85 13        	sta	$13                     ; 0x2013 <_ZN12_GLOBAL__N_13putEcP6Status+0x30>
    1151: e6 dd        	inc	$dd                     ; 0x20dd <_ZN12_GLOBAL__N_112print_stringEPKcP6Status+0x19>
    1153: f0 03        	beq	$1158 <textPrint+0x17c>
    1155: 4c 44 10     	jmp	$1044 <textPrint+0x68>
    1158: e6 de        	inc	$de                     ; 0x20de <_ZN12_GLOBAL__N_112print_stringEPKcP6Status+0x1a>
    115a: 4c 44 10     	jmp	$1044 <textPrint+0x68>
    115d: a9 00        	lda	#$0
    115f: 18           	clc
    1160: 65 14        	adc	$14                     ; 0x2014 <_ZN12_GLOBAL__N_13putEcP6Status+0x31>
    1162: 85 12        	sta	$12                     ; 0x2012 <_ZN12_GLOBAL__N_13putEcP6Status+0x2f>
    1164: a9 c0        	lda	#$c0
    1166: 65 15        	adc	$15                     ; 0x2015 <_ZN12_GLOBAL__N_13putEcP6Status+0x32>
    1168: 85 13        	sta	$13                     ; 0x2013 <_ZN12_GLOBAL__N_13putEcP6Status+0x30>
    116a: a2 03        	ldx	#$3
    116c: 86 01        	stx	$1                      ; 0x2001 <_ZN12_GLOBAL__N_13putEcP6Status+0x1e>
    116e: a6 60        	ldx	$60                     ; 0x2060 <_ZN12_GLOBAL__N_13putEcP6Status+0x7d>
    1170: f0 37        	beq	$11a9 <textPrint+0x1cd>
    1172: a9 01        	lda	#$1
    1174: 18           	clc
    1175: 65 14        	adc	$14                     ; 0x2014 <_ZN12_GLOBAL__N_13putEcP6Status+0x31>
    1177: 85 17        	sta	$17                     ; 0x2017 <_ZN12_GLOBAL__N_13putEcP6Status+0x34>
    1179: a9 c0        	lda	#$c0
    117b: 65 15        	adc	$15                     ; 0x2015 <_ZN12_GLOBAL__N_13putEcP6Status+0x32>
    117d: a8           	tay
    117e: 64 16        	stz	$16                     ; 0x2016 <_ZN12_GLOBAL__N_13putEcP6Status+0x33>
    1180: a6 12        	ldx	$12                     ; 0x2012 <_ZN12_GLOBAL__N_13putEcP6Status+0x2f>
    1182: 86 18        	stx	$18                     ; 0x2018 <_ZN12_GLOBAL__N_13putEcP6Status+0x35>
    1184: a6 13        	ldx	$13                     ; 0x2013 <_ZN12_GLOBAL__N_13putEcP6Status+0x30>
    1186: 86 19        	stx	$19                     ; 0x2019 <_ZN12_GLOBAL__N_13putEcP6Status+0x36>
    1188: a5 17        	lda	$17                     ; 0x2017 <_ZN12_GLOBAL__N_13putEcP6Status+0x34>
    118a: 18           	clc
    118b: 65 16        	adc	$16                     ; 0x2016 <_ZN12_GLOBAL__N_13putEcP6Status+0x33>
    118d: 85 1a        	sta	$1a                     ; 0x201a <_ZN12_GLOBAL__N_13putEcP6Status+0x37>
    118f: 98           	tya
    1190: 69 00        	adc	#$0
    1192: 85 1b        	sta	$1b                     ; 0x201b <_ZN12_GLOBAL__N_13putEcP6Status+0x38>
    1194: a5 62        	lda	$62                     ; 0x2062 <_ZN12_GLOBAL__N_13putEcP6Status+0x7f>
    1196: 92 18        	sta	($18)                   ; 0x2018 <_ZN12_GLOBAL__N_13putEcP6Status+0x35>
    1198: a6 16        	ldx	$16                     ; 0x2016 <_ZN12_GLOBAL__N_13putEcP6Status+0x33>
    119a: e8           	inx
    119b: 86 16        	stx	$16                     ; 0x2016 <_ZN12_GLOBAL__N_13putEcP6Status+0x33>
    119d: e4 60        	cpx	$60                     ; 0x2060 <_ZN12_GLOBAL__N_13putEcP6Status+0x7d>
    119f: a6 1a        	ldx	$1a                     ; 0x201a <_ZN12_GLOBAL__N_13putEcP6Status+0x37>
    11a1: 86 18        	stx	$18                     ; 0x2018 <_ZN12_GLOBAL__N_13putEcP6Status+0x35>
    11a3: a6 1b        	ldx	$1b                     ; 0x201b <_ZN12_GLOBAL__N_13putEcP6Status+0x38>
    11a5: 86 19        	stx	$19                     ; 0x2019 <_ZN12_GLOBAL__N_13putEcP6Status+0x36>
    11a7: 90 df        	bcc	$1188 <textPrint+0x1ac>
    11a9: a2 02        	ldx	#$2
    11ab: 86 01        	stx	$1                      ; 0x2001 <_ZN12_GLOBAL__N_13putEcP6Status+0x1e>
    11ad: a6 60        	ldx	$60                     ; 0x2060 <_ZN12_GLOBAL__N_13putEcP6Status+0x7d>
    11af: f0 2f        	beq	$11e0 <textPrint+0x204>
    11b1: a9 01        	lda	#$1
    11b3: 18           	clc
    11b4: 65 14        	adc	$14                     ; 0x2014 <_ZN12_GLOBAL__N_13putEcP6Status+0x31>
    11b6: 85 18        	sta	$18                     ; 0x2018 <_ZN12_GLOBAL__N_13putEcP6Status+0x35>
    11b8: a9 c0        	lda	#$c0
    11ba: 65 15        	adc	$15                     ; 0x2015 <_ZN12_GLOBAL__N_13putEcP6Status+0x32>
    11bc: a8           	tay
    11bd: 64 14        	stz	$14                     ; 0x2014 <_ZN12_GLOBAL__N_13putEcP6Status+0x31>
    11bf: a5 18        	lda	$18                     ; 0x2018 <_ZN12_GLOBAL__N_13putEcP6Status+0x35>
    11c1: 18           	clc
    11c2: 65 14        	adc	$14                     ; 0x2014 <_ZN12_GLOBAL__N_13putEcP6Status+0x31>
    11c4: 85 16        	sta	$16                     ; 0x2016 <_ZN12_GLOBAL__N_13putEcP6Status+0x33>
    11c6: 98           	tya
    11c7: 69 00        	adc	#$0
    11c9: 85 17        	sta	$17                     ; 0x2017 <_ZN12_GLOBAL__N_13putEcP6Status+0x34>
    11cb: a9 20        	lda	#$20
    11cd: 92 12        	sta	($12)                   ; 0x2012 <_ZN12_GLOBAL__N_13putEcP6Status+0x2f>
    11cf: a6 14        	ldx	$14                     ; 0x2014 <_ZN12_GLOBAL__N_13putEcP6Status+0x31>
    11d1: e8           	inx
    11d2: 86 14        	stx	$14                     ; 0x2014 <_ZN12_GLOBAL__N_13putEcP6Status+0x31>
    11d4: e4 60        	cpx	$60                     ; 0x2060 <_ZN12_GLOBAL__N_13putEcP6Status+0x7d>
    11d6: a6 16        	ldx	$16                     ; 0x2016 <_ZN12_GLOBAL__N_13putEcP6Status+0x33>
    11d8: 86 12        	stx	$12                     ; 0x2012 <_ZN12_GLOBAL__N_13putEcP6Status+0x2f>
    11da: a6 17        	ldx	$17                     ; 0x2017 <_ZN12_GLOBAL__N_13putEcP6Status+0x34>
    11dc: 86 13        	stx	$13                     ; 0x2013 <_ZN12_GLOBAL__N_13putEcP6Status+0x30>
    11de: 90 df        	bcc	$11bf <textPrint+0x1e3>
    11e0: c6 6a        	dec	$6a                     ; 0x206a <_ZN12_GLOBAL__N_13putEcP6Status+0x87>
    11e2: a6 61        	ldx	$61                     ; 0x2061 <_ZN12_GLOBAL__N_13putEcP6Status+0x7e>
    11e4: a0 00        	ldy	#$0
    11e6: ca           	dex
    11e7: e0 ff        	cpx	#$ff
    11e9: d0 01        	bne	$11ec <textPrint+0x210>
    11eb: 88           	dey
    11ec: 9c 08 de     	stz	$de08                   ; 0xde08 <end_block9+0xb670>
    11ef: a9 c0        	lda	#$c0
    11f1: 8d 09 de     	sta	$de09                   ; 0xde09 <end_block9+0xb671>
    11f4: 9c 0a de     	stz	$de0a                   ; 0xde0a <end_block9+0xb672>
    11f7: 9c 0b de     	stz	$de0b                   ; 0xde0b <end_block9+0xb673>
    11fa: 8e 0c de     	stx	$de0c                   ; 0xde0c <end_block9+0xb674>
    11fd: 8c 0d de     	sty	$de0d                   ; 0xde0d <end_block9+0xb675>
    1200: 9c 0e de     	stz	$de0e                   ; 0xde0e <end_block9+0xb676>
    1203: 9c 0f de     	stz	$de0f                   ; 0xde0f <end_block9+0xb677>
    1206: ae 18 de     	ldx	$de18                   ; 0xde18 <end_block9+0xb680>
    1209: ac 19 de     	ldy	$de19                   ; 0xde19 <end_block9+0xb681>
    120c: ad 1a de     	lda	$de1a                   ; 0xde1a <end_block9+0xb682>
    120f: ad 1b de     	lda	$de1b                   ; 0xde1b <end_block9+0xb683>
    1212: 86 12        	stx	$12                     ; 0x2012 <_ZN12_GLOBAL__N_13putEcP6Status+0x2f>
    1214: 84 13        	sty	$13                     ; 0x2013 <_ZN12_GLOBAL__N_13putEcP6Status+0x30>
    1216: e6 dd        	inc	$dd                     ; 0x20dd <_ZN12_GLOBAL__N_112print_stringEPKcP6Status+0x19>
    1218: d0 02        	bne	$121c <textPrint+0x240>
    121a: e6 de        	inc	$de                     ; 0x20de <_ZN12_GLOBAL__N_112print_stringEPKcP6Status+0x1a>
    121c: 4c 44 10     	jmp	$1044 <textPrint+0x68>
    121f: a6 e0        	ldx	$e0                     ; 0x20e0 <_ZN12_GLOBAL__N_112print_stringEPKcP6Status+0x1c>
    1221: 86 01        	stx	$1                      ; 0x2001 <_ZN12_GLOBAL__N_13putEcP6Status+0x1e>
    1223: a6 69        	ldx	$69                     ; 0x2069 <_ZN12_GLOBAL__N_13putEcP6Status+0x86>
    1225: a4 6a        	ldy	$6a                     ; 0x206a <_ZN12_GLOBAL__N_13putEcP6Status+0x87>
    1227: 8e 14 d0     	stx	$d014                   ; 0xd014 <end_block9+0xa87c>
    122a: 9c 15 d0     	stz	$d015                   ; 0xd015 <end_block9+0xa87d>
    122d: 84 6a        	sty	$6a                     ; 0x206a <_ZN12_GLOBAL__N_13putEcP6Status+0x87>
    122f: 8c 16 d0     	sty	$d016                   ; 0xd016 <end_block9+0xa87e>
    1232: 9c 17 d0     	stz	$d017                   ; 0xd017 <end_block9+0xa87f>
    1235: 60           	rts

00001236 <__putchar>:
    1236: 85 c9        	sta	$c9                     ; 0x20c9 <_ZN12_GLOBAL__N_112print_stringEPKcP6Status+0x5>
    1238: a2 c9        	ldx	#$c9
    123a: 86 12        	stx	$12                     ; 0x2012 <_ZN12_GLOBAL__N_13putEcP6Status+0x2f>
    123c: a2 00        	ldx	#$0
    123e: 86 13        	stx	$13                     ; 0x2013 <_ZN12_GLOBAL__N_13putEcP6Status+0x30>
    1240: 4c dc 0f     	jmp	$fdc <textPrint>

00001243 <hitspace>:
    1243: a2 00        	ldx	#$0
    1245: a0 d9        	ldy	#$d9
    1247: a9 00        	lda	#$0
    1249: 84 12        	sty	$12                     ; 0x2012 <_ZN12_GLOBAL__N_13putEcP6Status+0x2f>
    124b: 85 13        	sta	$13                     ; 0x2013 <_ZN12_GLOBAL__N_13putEcP6Status+0x30>
    124d: a0 cb        	ldy	#$cb
    124f: 84 14        	sty	$14                     ; 0x2014 <_ZN12_GLOBAL__N_13putEcP6Status+0x31>
    1251: a0 00        	ldy	#$0
    1253: 84 15        	sty	$15                     ; 0x2015 <_ZN12_GLOBAL__N_13putEcP6Status+0x32>
    1255: 64 cc        	stz	$cc                     ; 0x20cc <_ZN12_GLOBAL__N_112print_stringEPKcP6Status+0x8>
    1257: 20 00 ff     	jsr	$ff00 <end_block9+0xd768>
    125a: 92 12        	sta	($12)                   ; 0x2012 <_ZN12_GLOBAL__N_13putEcP6Status+0x2f>
    125c: a9 00        	lda	#$0
    125e: 6a           	ror
    125f: 85 14        	sta	$14                     ; 0x2014 <_ZN12_GLOBAL__N_13putEcP6Status+0x31>
    1261: a4 cc        	ldy	$cc                     ; 0x20cc <_ZN12_GLOBAL__N_112print_stringEPKcP6Status+0x8>
    1263: c0 08        	cpy	#$8
    1265: d0 0c        	bne	$1273 <hitspace+0x30>
    1267: a4 d0        	ldy	$d0                     ; 0x20d0 <_ZN12_GLOBAL__N_112print_stringEPKcP6Status+0xc>
    1269: c0 20        	cpy	#$20
    126b: f0 04        	beq	$1271 <hitspace+0x2e>
    126d: c0 94        	cpy	#$94
    126f: d0 02        	bne	$1273 <hitspace+0x30>
    1271: a2 01        	ldx	#$1
    1273: 8a           	txa
    1274: f0 df        	beq	$1255 <hitspace+0x12>
    1276: 60           	rts

00001277 <exit>:
    1277: 85 d9        	sta	$d9                     ; 0x20d9 <_ZN12_GLOBAL__N_112print_stringEPKcP6Status+0x15>
    1279: 86 da        	stx	$da                     ; 0x20da <_ZN12_GLOBAL__N_112print_stringEPKcP6Status+0x16>
    127b: 20 4c 03     	jsr	$34c <_fini>
    127e: a6 da        	ldx	$da                     ; 0x20da <_ZN12_GLOBAL__N_112print_stringEPKcP6Status+0x16>
    1280: a5 d9        	lda	$d9                     ; 0x20d9 <_ZN12_GLOBAL__N_112print_stringEPKcP6Status+0x15>
    1282: 20 85 12     	jsr	$1285 <_Exit>

00001285 <_Exit>:
    1285: 80 fe        	bra	$1285 <_Exit>

00001287 <vfprintf>:
    1287: 18           	clc
    1288: a5 10        	lda	$10                     ; 0x2010 <_ZN12_GLOBAL__N_13putEcP6Status+0x2d>
    128a: 69 e8        	adc	#$e8
    128c: 85 10        	sta	$10                     ; 0x2010 <_ZN12_GLOBAL__N_13putEcP6Status+0x2d>
    128e: a5 11        	lda	$11                     ; 0x2011 <_ZN12_GLOBAL__N_13putEcP6Status+0x2e>
    1290: 69 ff        	adc	#$ff
    1292: 85 11        	sta	$11                     ; 0x2011 <_ZN12_GLOBAL__N_13putEcP6Status+0x2e>
    1294: a6 24        	ldx	$24                     ; 0x2024 <_ZN12_GLOBAL__N_13putEcP6Status+0x41>
    1296: da           	phx
    1297: a6 25        	ldx	$25                     ; 0x2025 <_ZN12_GLOBAL__N_13putEcP6Status+0x42>
    1299: da           	phx
    129a: a6 26        	ldx	$26                     ; 0x2026 <_ZN12_GLOBAL__N_13putEcP6Status+0x43>
    129c: da           	phx
    129d: a6 27        	ldx	$27                     ; 0x2027 <_ZN12_GLOBAL__N_13putEcP6Status+0x44>
    129f: da           	phx
    12a0: a5 28        	lda	$28                     ; 0x2028 <_ZN12_GLOBAL__N_13putEcP6Status+0x45>
    12a2: a0 01        	ldy	#$1
    12a4: 91 10        	sta	($10),y                 ; 0x2010 <_ZN12_GLOBAL__N_13putEcP6Status+0x2d>
    12a6: a5 29        	lda	$29                     ; 0x2029 <_ZN12_GLOBAL__N_13putEcP6Status+0x46>
    12a8: 88           	dey
    12a9: 91 10        	sta	($10),y                 ; 0x2010 <_ZN12_GLOBAL__N_13putEcP6Status+0x2d>
    12ab: a6 12        	ldx	$12                     ; 0x2012 <_ZN12_GLOBAL__N_13putEcP6Status+0x2f>
    12ad: 86 24        	stx	$24                     ; 0x2024 <_ZN12_GLOBAL__N_13putEcP6Status+0x41>
    12af: a6 13        	ldx	$13                     ; 0x2013 <_ZN12_GLOBAL__N_13putEcP6Status+0x30>
    12b1: 86 25        	stx	$25                     ; 0x2025 <_ZN12_GLOBAL__N_13putEcP6Status+0x42>
    12b3: a5 16        	lda	$16                     ; 0x2016 <_ZN12_GLOBAL__N_13putEcP6Status+0x33>
    12b5: 18           	clc
    12b6: 48           	pha
    12b7: a5 10        	lda	$10                     ; 0x2010 <_ZN12_GLOBAL__N_13putEcP6Status+0x2d>
    12b9: 69 16        	adc	#$16
    12bb: 85 12        	sta	$12                     ; 0x2012 <_ZN12_GLOBAL__N_13putEcP6Status+0x2f>
    12bd: a5 11        	lda	$11                     ; 0x2011 <_ZN12_GLOBAL__N_13putEcP6Status+0x2e>
    12bf: 69 00        	adc	#$0
    12c1: 85 13        	sta	$13                     ; 0x2013 <_ZN12_GLOBAL__N_13putEcP6Status+0x30>
    12c3: 68           	pla
    12c4: 92 12        	sta	($12)                   ; 0x2012 <_ZN12_GLOBAL__N_13putEcP6Status+0x2f>
    12c6: c8           	iny
    12c7: a5 17        	lda	$17                     ; 0x2017 <_ZN12_GLOBAL__N_13putEcP6Status+0x34>
    12c9: 91 12        	sta	($12),y                 ; 0x2012 <_ZN12_GLOBAL__N_13putEcP6Status+0x2f>
    12cb: 18           	clc
    12cc: a5 10        	lda	$10                     ; 0x2010 <_ZN12_GLOBAL__N_13putEcP6Status+0x2d>
    12ce: 69 03        	adc	#$3
    12d0: 48           	pha
    12d1: a5 11        	lda	$11                     ; 0x2011 <_ZN12_GLOBAL__N_13putEcP6Status+0x2e>
    12d3: 69 00        	adc	#$0
    12d5: a8           	tay
    12d6: 68           	pla
    12d7: 85 16        	sta	$16                     ; 0x2016 <_ZN12_GLOBAL__N_13putEcP6Status+0x33>
    12d9: 84 17        	sty	$17                     ; 0x2017 <_ZN12_GLOBAL__N_13putEcP6Status+0x34>
    12db: 85 28        	sta	$28                     ; 0x2028 <_ZN12_GLOBAL__N_13putEcP6Status+0x45>
    12dd: 18           	clc
    12de: 69 03        	adc	#$3
    12e0: 85 18        	sta	$18                     ; 0x2018 <_ZN12_GLOBAL__N_13putEcP6Status+0x35>
    12e2: 84 29        	sty	$29                     ; 0x2029 <_ZN12_GLOBAL__N_13putEcP6Status+0x46>
    12e4: 98           	tya
    12e5: 69 00        	adc	#$0
    12e7: a0 03        	ldy	#$3
    12e9: 85 19        	sta	$19                     ; 0x2019 <_ZN12_GLOBAL__N_13putEcP6Status+0x36>
    12eb: a9 ff        	lda	#$ff
    12ed: 91 16        	sta	($16),y                 ; 0x2016 <_ZN12_GLOBAL__N_13putEcP6Status+0x33>
    12ef: 18           	clc
    12f0: a5 10        	lda	$10                     ; 0x2010 <_ZN12_GLOBAL__N_13putEcP6Status+0x2d>
    12f2: 69 03        	adc	#$3
    12f4: 85 1b        	sta	$1b                     ; 0x201b <_ZN12_GLOBAL__N_13putEcP6Status+0x38>
    12f6: a5 11        	lda	$11                     ; 0x2011 <_ZN12_GLOBAL__N_13putEcP6Status+0x2e>
    12f8: 69 00        	adc	#$0
    12fa: 85 1a        	sta	$1a                     ; 0x201a <_ZN12_GLOBAL__N_13putEcP6Status+0x37>
    12fc: a0 01        	ldy	#$1
    12fe: a9 ff        	lda	#$ff
    1300: 91 18        	sta	($18),y                 ; 0x2018 <_ZN12_GLOBAL__N_13putEcP6Status+0x35>
    1302: 18           	clc
    1303: a5 1b        	lda	$1b                     ; 0x201b <_ZN12_GLOBAL__N_13putEcP6Status+0x38>
    1305: 69 05        	adc	#$5
    1307: 85 18        	sta	$18                     ; 0x2018 <_ZN12_GLOBAL__N_13putEcP6Status+0x35>
    1309: a5 1a        	lda	$1a                     ; 0x201a <_ZN12_GLOBAL__N_13putEcP6Status+0x37>
    130b: 69 00        	adc	#$0
    130d: 85 19        	sta	$19                     ; 0x2019 <_ZN12_GLOBAL__N_13putEcP6Status+0x36>
    130f: 18           	clc
    1310: a5 10        	lda	$10                     ; 0x2010 <_ZN12_GLOBAL__N_13putEcP6Status+0x2d>
    1312: 69 03        	adc	#$3
    1314: 48           	pha
    1315: a5 11        	lda	$11                     ; 0x2011 <_ZN12_GLOBAL__N_13putEcP6Status+0x2e>
    1317: 69 00        	adc	#$0
    1319: 85 1b        	sta	$1b                     ; 0x201b <_ZN12_GLOBAL__N_13putEcP6Status+0x38>
    131b: 68           	pla
    131c: 18           	clc
    131d: 69 09        	adc	#$9
    131f: 85 1a        	sta	$1a                     ; 0x201a <_ZN12_GLOBAL__N_13putEcP6Status+0x37>
    1321: a5 1b        	lda	$1b                     ; 0x201b <_ZN12_GLOBAL__N_13putEcP6Status+0x38>
    1323: 69 00        	adc	#$0
    1325: 85 1b        	sta	$1b                     ; 0x201b <_ZN12_GLOBAL__N_13putEcP6Status+0x38>
    1327: a0 09        	ldy	#$9
    1329: a2 00        	ldx	#$0
    132b: 86 1c        	stx	$1c                     ; 0x201c <_ZN12_GLOBAL__N_13putEcP6Status+0x39>
    132d: a2 00        	ldx	#$0
    132f: 86 1d        	stx	$1d                     ; 0x201d <_ZN12_GLOBAL__N_13putEcP6Status+0x3a>
    1331: a5 1c        	lda	$1c                     ; 0x201c <_ZN12_GLOBAL__N_13putEcP6Status+0x39>
    1333: 91 16        	sta	($16),y                 ; 0x2016 <_ZN12_GLOBAL__N_13putEcP6Status+0x33>
    1335: a0 0f        	ldy	#$f
    1337: a5 24        	lda	$24                     ; 0x2024 <_ZN12_GLOBAL__N_13putEcP6Status+0x41>
    1339: 91 16        	sta	($16),y                 ; 0x2016 <_ZN12_GLOBAL__N_13putEcP6Status+0x33>
    133b: 18           	clc
    133c: a5 10        	lda	$10                     ; 0x2010 <_ZN12_GLOBAL__N_13putEcP6Status+0x2d>
    133e: 69 03        	adc	#$3
    1340: 85 1c        	sta	$1c                     ; 0x201c <_ZN12_GLOBAL__N_13putEcP6Status+0x39>
    1342: a5 11        	lda	$11                     ; 0x2011 <_ZN12_GLOBAL__N_13putEcP6Status+0x2e>
    1344: 69 00        	adc	#$0
    1346: aa           	tax
    1347: a5 1d        	lda	$1d                     ; 0x201d <_ZN12_GLOBAL__N_13putEcP6Status+0x3a>
    1349: a0 01        	ldy	#$1
    134b: 91 1a        	sta	($1a),y                 ; 0x201a <_ZN12_GLOBAL__N_13putEcP6Status+0x37>
    134d: 18           	clc
    134e: a5 1c        	lda	$1c                     ; 0x201c <_ZN12_GLOBAL__N_13putEcP6Status+0x39>
    1350: 69 0f        	adc	#$f
    1352: 85 1a        	sta	$1a                     ; 0x201a <_ZN12_GLOBAL__N_13putEcP6Status+0x37>
    1354: 8a           	txa
    1355: 69 00        	adc	#$0
    1357: aa           	tax
    1358: a0 05        	ldy	#$5
    135a: a9 00        	lda	#$0
    135c: 91 16        	sta	($16),y                 ; 0x2016 <_ZN12_GLOBAL__N_13putEcP6Status+0x33>
    135e: 64 1b        	stz	$1b                     ; 0x201b <_ZN12_GLOBAL__N_13putEcP6Status+0x38>
    1360: a9 00        	lda	#$0
    1362: a0 02        	ldy	#$2
    1364: 91 10        	sta	($10),y                 ; 0x2010 <_ZN12_GLOBAL__N_13putEcP6Status+0x2d>
    1366: 88           	dey
    1367: a9 00        	lda	#$0
    1369: 91 18        	sta	($18),y                 ; 0x2018 <_ZN12_GLOBAL__N_13putEcP6Status+0x35>
    136b: 86 1b        	stx	$1b                     ; 0x201b <_ZN12_GLOBAL__N_13putEcP6Status+0x38>
    136d: a5 25        	lda	$25                     ; 0x2025 <_ZN12_GLOBAL__N_13putEcP6Status+0x42>
    136f: 91 1a        	sta	($1a),y                 ; 0x201a <_ZN12_GLOBAL__N_13putEcP6Status+0x37>
    1371: b2 12        	lda	($12)                   ; 0x2012 <_ZN12_GLOBAL__N_13putEcP6Status+0x2f>
    1373: 85 19        	sta	$19                     ; 0x2019 <_ZN12_GLOBAL__N_13putEcP6Status+0x36>
    1375: b1 12        	lda	($12),y                 ; 0x2012 <_ZN12_GLOBAL__N_13putEcP6Status+0x2f>
    1377: 85 18        	sta	$18                     ; 0x2018 <_ZN12_GLOBAL__N_13putEcP6Status+0x35>
    1379: a0 11        	ldy	#$11
    137b: a5 19        	lda	$19                     ; 0x2019 <_ZN12_GLOBAL__N_13putEcP6Status+0x36>
    137d: 91 16        	sta	($16),y                 ; 0x2016 <_ZN12_GLOBAL__N_13putEcP6Status+0x33>
    137f: 18           	clc
    1380: a5 10        	lda	$10                     ; 0x2010 <_ZN12_GLOBAL__N_13putEcP6Status+0x2d>
    1382: 69 03        	adc	#$3
    1384: 48           	pha
    1385: a5 11        	lda	$11                     ; 0x2011 <_ZN12_GLOBAL__N_13putEcP6Status+0x2e>
    1387: 69 00        	adc	#$0
    1389: 85 12        	sta	$12                     ; 0x2012 <_ZN12_GLOBAL__N_13putEcP6Status+0x2f>
    138b: 68           	pla
    138c: 18           	clc
    138d: 69 11        	adc	#$11
    138f: aa           	tax
    1390: a5 12        	lda	$12                     ; 0x2012 <_ZN12_GLOBAL__N_13putEcP6Status+0x2f>
    1392: 69 00        	adc	#$0
    1394: 86 12        	stx	$12                     ; 0x2012 <_ZN12_GLOBAL__N_13putEcP6Status+0x2f>
    1396: 85 13        	sta	$13                     ; 0x2013 <_ZN12_GLOBAL__N_13putEcP6Status+0x30>
    1398: a5 18        	lda	$18                     ; 0x2018 <_ZN12_GLOBAL__N_13putEcP6Status+0x35>
    139a: a0 01        	ldy	#$1
    139c: 91 12        	sta	($12),y                 ; 0x2012 <_ZN12_GLOBAL__N_13putEcP6Status+0x2f>
    139e: a6 14        	ldx	$14                     ; 0x2014 <_ZN12_GLOBAL__N_13putEcP6Status+0x31>
    13a0: 86 12        	stx	$12                     ; 0x2012 <_ZN12_GLOBAL__N_13putEcP6Status+0x2f>
    13a2: a6 15        	ldx	$15                     ; 0x2015 <_ZN12_GLOBAL__N_13putEcP6Status+0x32>
    13a4: 86 13        	stx	$13                     ; 0x2013 <_ZN12_GLOBAL__N_13putEcP6Status+0x30>
    13a6: a6 12        	ldx	$12                     ; 0x2012 <_ZN12_GLOBAL__N_13putEcP6Status+0x2f>
    13a8: 86 26        	stx	$26                     ; 0x2026 <_ZN12_GLOBAL__N_13putEcP6Status+0x43>
    13aa: a6 13        	ldx	$13                     ; 0x2013 <_ZN12_GLOBAL__N_13putEcP6Status+0x30>
    13ac: 86 27        	stx	$27                     ; 0x2027 <_ZN12_GLOBAL__N_13putEcP6Status+0x44>
    13ae: b2 12        	lda	($12)                   ; 0x2012 <_ZN12_GLOBAL__N_13putEcP6Status+0x2f>
    13b0: c9 25        	cmp	#$25
    13b2: d0 03        	bne	$13b7 <vfprintf+0x130>
    13b4: 4c 1f 14     	jmp	$141f <vfprintf+0x198>
    13b7: aa           	tax
    13b8: d0 03        	bne	$13bd <vfprintf+0x136>
    13ba: 4c 77 14     	jmp	$1477 <vfprintf+0x1f0>
    13bd: a6 24        	ldx	$24                     ; 0x2024 <_ZN12_GLOBAL__N_13putEcP6Status+0x41>
    13bf: 86 12        	stx	$12                     ; 0x2012 <_ZN12_GLOBAL__N_13putEcP6Status+0x2f>
    13c1: a6 25        	ldx	$25                     ; 0x2025 <_ZN12_GLOBAL__N_13putEcP6Status+0x42>
    13c3: 86 13        	stx	$13                     ; 0x2013 <_ZN12_GLOBAL__N_13putEcP6Status+0x30>
    13c5: 48           	pha
    13c6: a0 02        	ldy	#$2
    13c8: b1 10        	lda	($10),y                 ; 0x2010 <_ZN12_GLOBAL__N_13putEcP6Status+0x2d>
    13ca: aa           	tax
    13cb: 68           	pla
    13cc: 20 c1 22     	jsr	$22c1 <putc>
    13cf: e0 ff        	cpx	#$ff
    13d1: d0 07        	bne	$13da <vfprintf+0x153>
    13d3: c9 ff        	cmp	#$ff
    13d5: d0 03        	bne	$13da <vfprintf+0x153>
    13d7: 4c 41 14     	jmp	$1441 <vfprintf+0x1ba>
    13da: e6 26        	inc	$26                     ; 0x2026 <_ZN12_GLOBAL__N_13putEcP6Status+0x43>
    13dc: d0 02        	bne	$13e0 <vfprintf+0x159>
    13de: e6 27        	inc	$27                     ; 0x2027 <_ZN12_GLOBAL__N_13putEcP6Status+0x44>
    13e0: 18           	clc
    13e1: a5 10        	lda	$10                     ; 0x2010 <_ZN12_GLOBAL__N_13putEcP6Status+0x2d>
    13e3: 69 03        	adc	#$3
    13e5: 48           	pha
    13e6: a5 11        	lda	$11                     ; 0x2011 <_ZN12_GLOBAL__N_13putEcP6Status+0x2e>
    13e8: 69 00        	adc	#$0
    13ea: aa           	tax
    13eb: 68           	pla
    13ec: 85 12        	sta	$12                     ; 0x2012 <_ZN12_GLOBAL__N_13putEcP6Status+0x2f>
    13ee: 86 13        	stx	$13                     ; 0x2013 <_ZN12_GLOBAL__N_13putEcP6Status+0x30>
    13f0: 18           	clc
    13f1: 69 05        	adc	#$5
    13f3: 85 14        	sta	$14                     ; 0x2014 <_ZN12_GLOBAL__N_13putEcP6Status+0x31>
    13f5: 8a           	txa
    13f6: 69 00        	adc	#$0
    13f8: 85 15        	sta	$15                     ; 0x2015 <_ZN12_GLOBAL__N_13putEcP6Status+0x32>
    13fa: a0 05        	ldy	#$5
    13fc: b1 12        	lda	($12),y                 ; 0x2012 <_ZN12_GLOBAL__N_13putEcP6Status+0x2f>
    13fe: 85 16        	sta	$16                     ; 0x2016 <_ZN12_GLOBAL__N_13putEcP6Status+0x33>
    1400: a0 01        	ldy	#$1
    1402: b1 14        	lda	($14),y                 ; 0x2014 <_ZN12_GLOBAL__N_13putEcP6Status+0x31>
    1404: aa           	tax
    1405: a5 16        	lda	$16                     ; 0x2016 <_ZN12_GLOBAL__N_13putEcP6Status+0x33>
    1407: 1a           	inc
    1408: d0 01        	bne	$140b <vfprintf+0x184>
    140a: e8           	inx
    140b: a0 05        	ldy	#$5
    140d: 91 12        	sta	($12),y                 ; 0x2012 <_ZN12_GLOBAL__N_13putEcP6Status+0x2f>
    140f: 8a           	txa
    1410: a0 01        	ldy	#$1
    1412: 91 14        	sta	($14),y                 ; 0x2014 <_ZN12_GLOBAL__N_13putEcP6Status+0x31>
    1414: a6 26        	ldx	$26                     ; 0x2026 <_ZN12_GLOBAL__N_13putEcP6Status+0x43>
    1416: 86 12        	stx	$12                     ; 0x2012 <_ZN12_GLOBAL__N_13putEcP6Status+0x2f>
    1418: a6 27        	ldx	$27                     ; 0x2027 <_ZN12_GLOBAL__N_13putEcP6Status+0x44>
    141a: 86 13        	stx	$13                     ; 0x2013 <_ZN12_GLOBAL__N_13putEcP6Status+0x30>
    141c: 4c a6 13     	jmp	$13a6 <vfprintf+0x11f>
    141f: a6 28        	ldx	$28                     ; 0x2028 <_ZN12_GLOBAL__N_13putEcP6Status+0x45>
    1421: 86 14        	stx	$14                     ; 0x2014 <_ZN12_GLOBAL__N_13putEcP6Status+0x31>
    1423: a6 29        	ldx	$29                     ; 0x2029 <_ZN12_GLOBAL__N_13putEcP6Status+0x46>
    1425: 86 15        	stx	$15                     ; 0x2015 <_ZN12_GLOBAL__N_13putEcP6Status+0x32>
    1427: 20 9f 14     	jsr	$149f <_ZN12_GLOBAL__N_15printEPKcP6Status>
    142a: a6 13        	ldx	$13                     ; 0x2013 <_ZN12_GLOBAL__N_13putEcP6Status+0x30>
    142c: e4 27        	cpx	$27                     ; 0x2027 <_ZN12_GLOBAL__N_13putEcP6Status+0x44>
    142e: f0 03        	beq	$1433 <vfprintf+0x1ac>
    1430: 4c a6 13     	jmp	$13a6 <vfprintf+0x11f>
    1433: a6 12        	ldx	$12                     ; 0x2012 <_ZN12_GLOBAL__N_13putEcP6Status+0x2f>
    1435: e4 26        	cpx	$26                     ; 0x2026 <_ZN12_GLOBAL__N_13putEcP6Status+0x43>
    1437: f0 03        	beq	$143c <vfprintf+0x1b5>
    1439: 4c a6 13     	jmp	$13a6 <vfprintf+0x11f>
    143c: b2 26        	lda	($26)                   ; 0x2026 <_ZN12_GLOBAL__N_13putEcP6Status+0x43>
    143e: 4c bd 13     	jmp	$13bd <vfprintf+0x136>
    1441: a2 ff        	ldx	#$ff
    1443: 8a           	txa
    1444: a0 02        	ldy	#$2
    1446: 91 10        	sta	($10),y                 ; 0x2010 <_ZN12_GLOBAL__N_13putEcP6Status+0x2d>
    1448: 8a           	txa
    1449: aa           	tax
    144a: a0 02        	ldy	#$2
    144c: b1 10        	lda	($10),y                 ; 0x2010 <_ZN12_GLOBAL__N_13putEcP6Status+0x2d>
    144e: 85 20        	sta	$20                     ; 0x2020 <_ZN12_GLOBAL__N_13putEcP6Status+0x3d>
    1450: a0 00        	ldy	#$0
    1452: b1 10        	lda	($10),y                 ; 0x2010 <_ZN12_GLOBAL__N_13putEcP6Status+0x2d>
    1454: 85 29        	sta	$29                     ; 0x2029 <_ZN12_GLOBAL__N_13putEcP6Status+0x46>
    1456: c8           	iny
    1457: b1 10        	lda	($10),y                 ; 0x2010 <_ZN12_GLOBAL__N_13putEcP6Status+0x2d>
    1459: 85 28        	sta	$28                     ; 0x2028 <_ZN12_GLOBAL__N_13putEcP6Status+0x45>
    145b: 7a           	ply
    145c: 84 27        	sty	$27                     ; 0x2027 <_ZN12_GLOBAL__N_13putEcP6Status+0x44>
    145e: 7a           	ply
    145f: 84 26        	sty	$26                     ; 0x2026 <_ZN12_GLOBAL__N_13putEcP6Status+0x43>
    1461: 7a           	ply
    1462: 84 25        	sty	$25                     ; 0x2025 <_ZN12_GLOBAL__N_13putEcP6Status+0x42>
    1464: 7a           	ply
    1465: 84 24        	sty	$24                     ; 0x2024 <_ZN12_GLOBAL__N_13putEcP6Status+0x41>
    1467: 18           	clc
    1468: a5 10        	lda	$10                     ; 0x2010 <_ZN12_GLOBAL__N_13putEcP6Status+0x2d>
    146a: 69 18        	adc	#$18
    146c: 85 10        	sta	$10                     ; 0x2010 <_ZN12_GLOBAL__N_13putEcP6Status+0x2d>
    146e: a5 11        	lda	$11                     ; 0x2011 <_ZN12_GLOBAL__N_13putEcP6Status+0x2e>
    1470: 69 00        	adc	#$0
    1472: 85 11        	sta	$11                     ; 0x2011 <_ZN12_GLOBAL__N_13putEcP6Status+0x2e>
    1474: a5 20        	lda	$20                     ; 0x2020 <_ZN12_GLOBAL__N_13putEcP6Status+0x3d>
    1476: 60           	rts
    1477: a0 05        	ldy	#$5
    1479: 18           	clc
    147a: a5 10        	lda	$10                     ; 0x2010 <_ZN12_GLOBAL__N_13putEcP6Status+0x2d>
    147c: 69 03        	adc	#$3
    147e: 48           	pha
    147f: a5 11        	lda	$11                     ; 0x2011 <_ZN12_GLOBAL__N_13putEcP6Status+0x2e>
    1481: 69 00        	adc	#$0
    1483: aa           	tax
    1484: 68           	pla
    1485: 85 12        	sta	$12                     ; 0x2012 <_ZN12_GLOBAL__N_13putEcP6Status+0x2f>
    1487: 86 13        	stx	$13                     ; 0x2013 <_ZN12_GLOBAL__N_13putEcP6Status+0x30>
    1489: 18           	clc
    148a: 69 05        	adc	#$5
    148c: 85 14        	sta	$14                     ; 0x2014 <_ZN12_GLOBAL__N_13putEcP6Status+0x31>
    148e: 8a           	txa
    148f: 69 00        	adc	#$0
    1491: 85 15        	sta	$15                     ; 0x2015 <_ZN12_GLOBAL__N_13putEcP6Status+0x32>
    1493: b1 12        	lda	($12),y                 ; 0x2012 <_ZN12_GLOBAL__N_13putEcP6Status+0x2f>
    1495: a0 02        	ldy	#$2
    1497: 91 10        	sta	($10),y                 ; 0x2010 <_ZN12_GLOBAL__N_13putEcP6Status+0x2d>
    1499: 88           	dey
    149a: b1 14        	lda	($14),y                 ; 0x2014 <_ZN12_GLOBAL__N_13putEcP6Status+0x31>
    149c: 4c 49 14     	jmp	$1449 <vfprintf+0x1c2>

0000149f <_ZN12_GLOBAL__N_15printEPKcP6Status>:
    149f: 18           	clc
    14a0: a5 10        	lda	$10                     ; 0x2010 <_ZN12_GLOBAL__N_13putEcP6Status+0x2d>
    14a2: 69 d1        	adc	#$d1
    14a4: 85 10        	sta	$10                     ; 0x2010 <_ZN12_GLOBAL__N_13putEcP6Status+0x2d>
    14a6: a5 11        	lda	$11                     ; 0x2011 <_ZN12_GLOBAL__N_13putEcP6Status+0x2e>
    14a8: 69 ff        	adc	#$ff
    14aa: 85 11        	sta	$11                     ; 0x2011 <_ZN12_GLOBAL__N_13putEcP6Status+0x2e>
    14ac: a6 24        	ldx	$24                     ; 0x2024 <_ZN12_GLOBAL__N_13putEcP6Status+0x41>
    14ae: da           	phx
    14af: a6 25        	ldx	$25                     ; 0x2025 <_ZN12_GLOBAL__N_13putEcP6Status+0x42>
    14b1: da           	phx
    14b2: a6 26        	ldx	$26                     ; 0x2026 <_ZN12_GLOBAL__N_13putEcP6Status+0x43>
    14b4: da           	phx
    14b5: a6 27        	ldx	$27                     ; 0x2027 <_ZN12_GLOBAL__N_13putEcP6Status+0x44>
    14b7: da           	phx
    14b8: a5 28        	lda	$28                     ; 0x2028 <_ZN12_GLOBAL__N_13putEcP6Status+0x45>
    14ba: a0 07        	ldy	#$7
    14bc: 91 10        	sta	($10),y                 ; 0x2010 <_ZN12_GLOBAL__N_13putEcP6Status+0x2d>
    14be: a5 29        	lda	$29                     ; 0x2029 <_ZN12_GLOBAL__N_13putEcP6Status+0x46>
    14c0: 88           	dey
    14c1: 91 10        	sta	($10),y                 ; 0x2010 <_ZN12_GLOBAL__N_13putEcP6Status+0x2d>
    14c3: a5 2a        	lda	$2a                     ; 0x202a <_ZN12_GLOBAL__N_13putEcP6Status+0x47>
    14c5: 88           	dey
    14c6: 91 10        	sta	($10),y                 ; 0x2010 <_ZN12_GLOBAL__N_13putEcP6Status+0x2d>
    14c8: a5 2b        	lda	$2b                     ; 0x202b <_ZN12_GLOBAL__N_13putEcP6Status+0x48>
    14ca: 88           	dey
    14cb: 91 10        	sta	($10),y                 ; 0x2010 <_ZN12_GLOBAL__N_13putEcP6Status+0x2d>
    14cd: a5 2c        	lda	$2c                     ; 0x202c <_ZN12_GLOBAL__N_13putEcP6Status+0x49>
    14cf: 88           	dey
    14d0: 91 10        	sta	($10),y                 ; 0x2010 <_ZN12_GLOBAL__N_13putEcP6Status+0x2d>
    14d2: a5 2d        	lda	$2d                     ; 0x202d <_ZN12_GLOBAL__N_13putEcP6Status+0x4a>
    14d4: 88           	dey
    14d5: 91 10        	sta	($10),y                 ; 0x2010 <_ZN12_GLOBAL__N_13putEcP6Status+0x2d>
    14d7: a5 2e        	lda	$2e                     ; 0x202e <_ZN12_GLOBAL__N_13putEcP6Status+0x4b>
    14d9: 88           	dey
    14da: 91 10        	sta	($10),y                 ; 0x2010 <_ZN12_GLOBAL__N_13putEcP6Status+0x2d>
    14dc: a5 2f        	lda	$2f                     ; 0x202f <_ZN12_GLOBAL__N_13putEcP6Status+0x4c>
    14de: 88           	dey
    14df: 91 10        	sta	($10),y                 ; 0x2010 <_ZN12_GLOBAL__N_13putEcP6Status+0x2d>
    14e1: a6 12        	ldx	$12                     ; 0x2012 <_ZN12_GLOBAL__N_13putEcP6Status+0x2f>
    14e3: 86 28        	stx	$28                     ; 0x2028 <_ZN12_GLOBAL__N_13putEcP6Status+0x45>
    14e5: a6 13        	ldx	$13                     ; 0x2013 <_ZN12_GLOBAL__N_13putEcP6Status+0x30>
    14e7: 86 29        	stx	$29                     ; 0x2029 <_ZN12_GLOBAL__N_13putEcP6Status+0x46>
    14e9: a6 14        	ldx	$14                     ; 0x2014 <_ZN12_GLOBAL__N_13putEcP6Status+0x31>
    14eb: 86 24        	stx	$24                     ; 0x2024 <_ZN12_GLOBAL__N_13putEcP6Status+0x41>
    14ed: a6 15        	ldx	$15                     ; 0x2015 <_ZN12_GLOBAL__N_13putEcP6Status+0x32>
    14ef: 86 25        	stx	$25                     ; 0x2025 <_ZN12_GLOBAL__N_13putEcP6Status+0x42>
    14f1: e6 12        	inc	$12                     ; 0x2012 <_ZN12_GLOBAL__N_13putEcP6Status+0x2f>
    14f3: d0 02        	bne	$14f7 <_ZN12_GLOBAL__N_15printEPKcP6Status+0x58>
    14f5: e6 13        	inc	$13                     ; 0x2013 <_ZN12_GLOBAL__N_13putEcP6Status+0x30>
    14f7: a5 12        	lda	$12                     ; 0x2012 <_ZN12_GLOBAL__N_13putEcP6Status+0x2f>
    14f9: 18           	clc
    14fa: 48           	pha
    14fb: a5 10        	lda	$10                     ; 0x2010 <_ZN12_GLOBAL__N_13putEcP6Status+0x2d>
    14fd: 69 16        	adc	#$16
    14ff: 85 26        	sta	$26                     ; 0x2026 <_ZN12_GLOBAL__N_13putEcP6Status+0x43>
    1501: a5 11        	lda	$11                     ; 0x2011 <_ZN12_GLOBAL__N_13putEcP6Status+0x2e>
    1503: 69 00        	adc	#$0
    1505: 85 27        	sta	$27                     ; 0x2027 <_ZN12_GLOBAL__N_13putEcP6Status+0x44>
    1507: 68           	pla
    1508: 92 26        	sta	($26)                   ; 0x2026 <_ZN12_GLOBAL__N_13putEcP6Status+0x43>
    150a: a0 01        	ldy	#$1
    150c: a5 13        	lda	$13                     ; 0x2013 <_ZN12_GLOBAL__N_13putEcP6Status+0x30>
    150e: 91 26        	sta	($26),y                 ; 0x2026 <_ZN12_GLOBAL__N_13putEcP6Status+0x43>
    1510: b1 28        	lda	($28),y                 ; 0x2028 <_ZN12_GLOBAL__N_13putEcP6Status+0x45>
    1512: c9 25        	cmp	#$25
    1514: d0 1d        	bne	$1533 <_ZN12_GLOBAL__N_15printEPKcP6Status+0x94>
    1516: a9 25        	lda	#$25
    1518: a6 14        	ldx	$14                     ; 0x2014 <_ZN12_GLOBAL__N_13putEcP6Status+0x31>
    151a: 86 12        	stx	$12                     ; 0x2012 <_ZN12_GLOBAL__N_13putEcP6Status+0x2f>
    151c: a6 15        	ldx	$15                     ; 0x2015 <_ZN12_GLOBAL__N_13putEcP6Status+0x32>
    151e: 86 13        	stx	$13                     ; 0x2013 <_ZN12_GLOBAL__N_13putEcP6Status+0x30>
    1520: 20 e3 1f     	jsr	$1fe3 <_ZN12_GLOBAL__N_13putEcP6Status>
    1523: a5 28        	lda	$28                     ; 0x2028 <_ZN12_GLOBAL__N_13putEcP6Status+0x45>
    1525: 18           	clc
    1526: 69 02        	adc	#$2
    1528: 85 28        	sta	$28                     ; 0x2028 <_ZN12_GLOBAL__N_13putEcP6Status+0x45>
    152a: a5 29        	lda	$29                     ; 0x2029 <_ZN12_GLOBAL__N_13putEcP6Status+0x46>
    152c: 69 00        	adc	#$0
    152e: 85 29        	sta	$29                     ; 0x2029 <_ZN12_GLOBAL__N_13putEcP6Status+0x46>
    1530: 4c 98 1f     	jmp	$1f98 <_ZN12_GLOBAL__N_15printEPKcP6Status+0xaf9>
    1533: 64 2a        	stz	$2a                     ; 0x202a <_ZN12_GLOBAL__N_13putEcP6Status+0x47>
    1535: 18           	clc
    1536: a5 24        	lda	$24                     ; 0x2024 <_ZN12_GLOBAL__N_13putEcP6Status+0x41>
    1538: 69 0b        	adc	#$b
    153a: 85 16        	sta	$16                     ; 0x2016 <_ZN12_GLOBAL__N_13putEcP6Status+0x33>
    153c: a5 25        	lda	$25                     ; 0x2025 <_ZN12_GLOBAL__N_13putEcP6Status+0x42>
    153e: 69 00        	adc	#$0
    1540: 85 17        	sta	$17                     ; 0x2017 <_ZN12_GLOBAL__N_13putEcP6Status+0x34>
    1542: 18           	clc
    1543: a9 00        	lda	#$0
    1545: a0 0b        	ldy	#$b
    1547: 91 10        	sta	($10),y                 ; 0x2010 <_ZN12_GLOBAL__N_13putEcP6Status+0x2d>
    1549: a9 00        	lda	#$0
    154b: 91 24        	sta	($24),y                 ; 0x2024 <_ZN12_GLOBAL__N_13putEcP6Status+0x41>
    154d: a5 24        	lda	$24                     ; 0x2024 <_ZN12_GLOBAL__N_13putEcP6Status+0x41>
    154f: 69 0d        	adc	#$d
    1551: 85 18        	sta	$18                     ; 0x2018 <_ZN12_GLOBAL__N_13putEcP6Status+0x35>
    1553: a5 25        	lda	$25                     ; 0x2025 <_ZN12_GLOBAL__N_13putEcP6Status+0x42>
    1555: 69 00        	adc	#$0
    1557: e6 14        	inc	$14                     ; 0x2014 <_ZN12_GLOBAL__N_13putEcP6Status+0x31>
    1559: d0 02        	bne	$155d <_ZN12_GLOBAL__N_15printEPKcP6Status+0xbe>
    155b: e6 15        	inc	$15                     ; 0x2015 <_ZN12_GLOBAL__N_13putEcP6Status+0x32>
    155d: a0 0d        	ldy	#$d
    155f: 85 19        	sta	$19                     ; 0x2019 <_ZN12_GLOBAL__N_13putEcP6Status+0x36>
    1561: a9 ff        	lda	#$ff
    1563: 91 24        	sta	($24),y                 ; 0x2024 <_ZN12_GLOBAL__N_13putEcP6Status+0x41>
    1565: a0 01        	ldy	#$1
    1567: 1a           	inc
    1568: 91 24        	sta	($24),y                 ; 0x2024 <_ZN12_GLOBAL__N_13putEcP6Status+0x41>
    156a: 91 14        	sta	($14),y                 ; 0x2014 <_ZN12_GLOBAL__N_13putEcP6Status+0x31>
    156c: 92 24        	sta	($24)                   ; 0x2024 <_ZN12_GLOBAL__N_13putEcP6Status+0x41>
    156e: 91 16        	sta	($16),y                 ; 0x2016 <_ZN12_GLOBAL__N_13putEcP6Status+0x33>
    1570: 3a           	dec
    1571: 91 18        	sta	($18),y                 ; 0x2018 <_ZN12_GLOBAL__N_13putEcP6Status+0x35>
    1573: 64 18        	stz	$18                     ; 0x2018 <_ZN12_GLOBAL__N_13putEcP6Status+0x35>
    1575: 80 35        	bra	$15ac <_ZN12_GLOBAL__N_15printEPKcP6Status+0x10d>
    1577: a2 02        	ldx	#$2
    1579: 80 15        	bra	$1590 <_ZN12_GLOBAL__N_15printEPKcP6Status+0xf1>
    157b: e0 20        	cpx	#$20
    157d: f0 0f        	beq	$158e <_ZN12_GLOBAL__N_15printEPKcP6Status+0xef>
    157f: e0 23        	cpx	#$23
    1581: f0 03        	beq	$1586 <_ZN12_GLOBAL__N_15printEPKcP6Status+0xe7>
    1583: 4c f1 15     	jmp	$15f1 <_ZN12_GLOBAL__N_15printEPKcP6Status+0x152>
    1586: a2 04        	ldx	#$4
    1588: 80 06        	bra	$1590 <_ZN12_GLOBAL__N_15printEPKcP6Status+0xf1>
    158a: a2 10        	ldx	#$10
    158c: 80 02        	bra	$1590 <_ZN12_GLOBAL__N_15printEPKcP6Status+0xf1>
    158e: a2 08        	ldx	#$8
    1590: 86 16        	stx	$16                     ; 0x2016 <_ZN12_GLOBAL__N_13putEcP6Status+0x33>
    1592: a5 18        	lda	$18                     ; 0x2018 <_ZN12_GLOBAL__N_13putEcP6Status+0x35>
    1594: 05 16        	ora	$16                     ; 0x2016 <_ZN12_GLOBAL__N_13putEcP6Status+0x33>
    1596: 85 18        	sta	$18                     ; 0x2018 <_ZN12_GLOBAL__N_13putEcP6Status+0x35>
    1598: 91 24        	sta	($24),y                 ; 0x2024 <_ZN12_GLOBAL__N_13putEcP6Status+0x41>
    159a: a9 00        	lda	#$0
    159c: 91 14        	sta	($14),y                 ; 0x2014 <_ZN12_GLOBAL__N_13putEcP6Status+0x31>
    159e: e6 12        	inc	$12                     ; 0x2012 <_ZN12_GLOBAL__N_13putEcP6Status+0x2f>
    15a0: d0 02        	bne	$15a4 <_ZN12_GLOBAL__N_15printEPKcP6Status+0x105>
    15a2: e6 13        	inc	$13                     ; 0x2013 <_ZN12_GLOBAL__N_13putEcP6Status+0x30>
    15a4: a5 12        	lda	$12                     ; 0x2012 <_ZN12_GLOBAL__N_13putEcP6Status+0x2f>
    15a6: 92 26        	sta	($26)                   ; 0x2026 <_ZN12_GLOBAL__N_13putEcP6Status+0x43>
    15a8: a5 13        	lda	$13                     ; 0x2013 <_ZN12_GLOBAL__N_13putEcP6Status+0x30>
    15aa: 91 26        	sta	($26),y                 ; 0x2026 <_ZN12_GLOBAL__N_13putEcP6Status+0x43>
    15ac: b2 12        	lda	($12)                   ; 0x2012 <_ZN12_GLOBAL__N_13putEcP6Status+0x2f>
    15ae: 18           	clc
    15af: aa           	tax
    15b0: 69 d6        	adc	#$d6
    15b2: c9 07        	cmp	#$7
    15b4: b0 c5        	bcs	$157b <_ZN12_GLOBAL__N_15printEPKcP6Status+0xdc>
    15b6: 0a           	asl
    15b7: aa           	tax
    15b8: a9 01        	lda	#$1
    15ba: 85 16        	sta	$16                     ; 0x2016 <_ZN12_GLOBAL__N_13putEcP6Status+0x33>
    15bc: 7c 30 27     	jmp	($2730,x)               ; 0x2730 <__BLOCK_SIZE+0x730>
    15bf: a0 11        	ldy	#$11
    15c1: a5 24        	lda	$24                     ; 0x2024 <_ZN12_GLOBAL__N_13putEcP6Status+0x41>
    15c3: 18           	clc
    15c4: 69 11        	adc	#$11
    15c6: 85 14        	sta	$14                     ; 0x2014 <_ZN12_GLOBAL__N_13putEcP6Status+0x31>
    15c8: a5 25        	lda	$25                     ; 0x2025 <_ZN12_GLOBAL__N_13putEcP6Status+0x42>
    15ca: 69 00        	adc	#$0
    15cc: 85 15        	sta	$15                     ; 0x2015 <_ZN12_GLOBAL__N_13putEcP6Status+0x32>
    15ce: b1 24        	lda	($24),y                 ; 0x2024 <_ZN12_GLOBAL__N_13putEcP6Status+0x41>
    15d0: 85 16        	sta	$16                     ; 0x2016 <_ZN12_GLOBAL__N_13putEcP6Status+0x33>
    15d2: 18           	clc
    15d3: 69 02        	adc	#$2
    15d5: 91 24        	sta	($24),y                 ; 0x2024 <_ZN12_GLOBAL__N_13putEcP6Status+0x41>
    15d7: a0 01        	ldy	#$1
    15d9: b1 14        	lda	($14),y                 ; 0x2014 <_ZN12_GLOBAL__N_13putEcP6Status+0x31>
    15db: 85 17        	sta	$17                     ; 0x2017 <_ZN12_GLOBAL__N_13putEcP6Status+0x34>
    15dd: 69 00        	adc	#$0
    15df: 91 14        	sta	($14),y                 ; 0x2014 <_ZN12_GLOBAL__N_13putEcP6Status+0x31>
    15e1: b2 16        	lda	($16)                   ; 0x2016 <_ZN12_GLOBAL__N_13putEcP6Status+0x33>
    15e3: 85 15        	sta	$15                     ; 0x2015 <_ZN12_GLOBAL__N_13putEcP6Status+0x32>
    15e5: b1 16        	lda	($16),y                 ; 0x2016 <_ZN12_GLOBAL__N_13putEcP6Status+0x33>
    15e7: 85 14        	sta	$14                     ; 0x2014 <_ZN12_GLOBAL__N_13putEcP6Status+0x31>
    15e9: 30 31        	bmi	$161c <_ZN12_GLOBAL__N_15printEPKcP6Status+0x17d>
    15eb: a5 15        	lda	$15                     ; 0x2015 <_ZN12_GLOBAL__N_13putEcP6Status+0x32>
    15ed: a6 14        	ldx	$14                     ; 0x2014 <_ZN12_GLOBAL__N_13putEcP6Status+0x31>
    15ef: 80 4d        	bra	$163e <_ZN12_GLOBAL__N_15printEPKcP6Status+0x19f>
    15f1: a6 26        	ldx	$26                     ; 0x2026 <_ZN12_GLOBAL__N_13putEcP6Status+0x43>
    15f3: 86 14        	stx	$14                     ; 0x2014 <_ZN12_GLOBAL__N_13putEcP6Status+0x31>
    15f5: a6 27        	ldx	$27                     ; 0x2027 <_ZN12_GLOBAL__N_13putEcP6Status+0x44>
    15f7: 86 15        	stx	$15                     ; 0x2015 <_ZN12_GLOBAL__N_13putEcP6Status+0x32>
    15f9: 20 90 26     	jsr	$2690 <__simple_strtoui>
    15fc: a0 0b        	ldy	#$b
    15fe: 91 24        	sta	($24),y                 ; 0x2024 <_ZN12_GLOBAL__N_13putEcP6Status+0x41>
    1600: 18           	clc
    1601: a5 24        	lda	$24                     ; 0x2024 <_ZN12_GLOBAL__N_13putEcP6Status+0x41>
    1603: 69 0b        	adc	#$b
    1605: 85 12        	sta	$12                     ; 0x2012 <_ZN12_GLOBAL__N_13putEcP6Status+0x2f>
    1607: a5 25        	lda	$25                     ; 0x2025 <_ZN12_GLOBAL__N_13putEcP6Status+0x42>
    1609: 69 00        	adc	#$0
    160b: 85 13        	sta	$13                     ; 0x2013 <_ZN12_GLOBAL__N_13putEcP6Status+0x30>
    160d: a0 01        	ldy	#$1
    160f: 8a           	txa
    1610: 91 12        	sta	($12),y                 ; 0x2012 <_ZN12_GLOBAL__N_13putEcP6Status+0x2f>
    1612: b2 26        	lda	($26)                   ; 0x2026 <_ZN12_GLOBAL__N_13putEcP6Status+0x43>
    1614: 85 12        	sta	$12                     ; 0x2012 <_ZN12_GLOBAL__N_13putEcP6Status+0x2f>
    1616: b1 26        	lda	($26),y                 ; 0x2026 <_ZN12_GLOBAL__N_13putEcP6Status+0x43>
    1618: 85 13        	sta	$13                     ; 0x2013 <_ZN12_GLOBAL__N_13putEcP6Status+0x30>
    161a: 80 46        	bra	$1662 <_ZN12_GLOBAL__N_15printEPKcP6Status+0x1c3>
    161c: a5 18        	lda	$18                     ; 0x2018 <_ZN12_GLOBAL__N_13putEcP6Status+0x35>
    161e: 09 01        	ora	#$1
    1620: a6 24        	ldx	$24                     ; 0x2024 <_ZN12_GLOBAL__N_13putEcP6Status+0x41>
    1622: 86 16        	stx	$16                     ; 0x2016 <_ZN12_GLOBAL__N_13putEcP6Status+0x33>
    1624: a6 25        	ldx	$25                     ; 0x2025 <_ZN12_GLOBAL__N_13putEcP6Status+0x42>
    1626: 86 17        	stx	$17                     ; 0x2017 <_ZN12_GLOBAL__N_13putEcP6Status+0x34>
    1628: e6 16        	inc	$16                     ; 0x2016 <_ZN12_GLOBAL__N_13putEcP6Status+0x33>
    162a: d0 02        	bne	$162e <_ZN12_GLOBAL__N_15printEPKcP6Status+0x18f>
    162c: e6 17        	inc	$17                     ; 0x2017 <_ZN12_GLOBAL__N_13putEcP6Status+0x34>
    162e: 91 24        	sta	($24),y                 ; 0x2024 <_ZN12_GLOBAL__N_13putEcP6Status+0x41>
    1630: a9 00        	lda	#$0
    1632: 91 16        	sta	($16),y                 ; 0x2016 <_ZN12_GLOBAL__N_13putEcP6Status+0x33>
    1634: 38           	sec
    1635: e5 15        	sbc	$15                     ; 0x2015 <_ZN12_GLOBAL__N_13putEcP6Status+0x32>
    1637: a8           	tay
    1638: a9 00        	lda	#$0
    163a: e5 14        	sbc	$14                     ; 0x2014 <_ZN12_GLOBAL__N_13putEcP6Status+0x31>
    163c: aa           	tax
    163d: 98           	tya
    163e: a0 0b        	ldy	#$b
    1640: 91 24        	sta	($24),y                 ; 0x2024 <_ZN12_GLOBAL__N_13putEcP6Status+0x41>
    1642: 18           	clc
    1643: a5 24        	lda	$24                     ; 0x2024 <_ZN12_GLOBAL__N_13putEcP6Status+0x41>
    1645: 69 0b        	adc	#$b
    1647: 85 14        	sta	$14                     ; 0x2014 <_ZN12_GLOBAL__N_13putEcP6Status+0x31>
    1649: a5 25        	lda	$25                     ; 0x2025 <_ZN12_GLOBAL__N_13putEcP6Status+0x42>
    164b: 69 00        	adc	#$0
    164d: 85 15        	sta	$15                     ; 0x2015 <_ZN12_GLOBAL__N_13putEcP6Status+0x32>
    164f: 8a           	txa
    1650: a0 01        	ldy	#$1
    1652: 91 14        	sta	($14),y                 ; 0x2014 <_ZN12_GLOBAL__N_13putEcP6Status+0x31>
    1654: e6 12        	inc	$12                     ; 0x2012 <_ZN12_GLOBAL__N_13putEcP6Status+0x2f>
    1656: d0 02        	bne	$165a <_ZN12_GLOBAL__N_15printEPKcP6Status+0x1bb>
    1658: e6 13        	inc	$13                     ; 0x2013 <_ZN12_GLOBAL__N_13putEcP6Status+0x30>
    165a: a5 13        	lda	$13                     ; 0x2013 <_ZN12_GLOBAL__N_13putEcP6Status+0x30>
    165c: 91 26        	sta	($26),y                 ; 0x2026 <_ZN12_GLOBAL__N_13putEcP6Status+0x43>
    165e: a5 12        	lda	$12                     ; 0x2012 <_ZN12_GLOBAL__N_13putEcP6Status+0x2f>
    1660: 92 26        	sta	($26)                   ; 0x2026 <_ZN12_GLOBAL__N_13putEcP6Status+0x43>
    1662: b2 12        	lda	($12)                   ; 0x2012 <_ZN12_GLOBAL__N_13putEcP6Status+0x2f>
    1664: c9 2e        	cmp	#$2e
    1666: f0 03        	beq	$166b <_ZN12_GLOBAL__N_15printEPKcP6Status+0x1cc>
    1668: 4c 80 17     	jmp	$1780 <_ZN12_GLOBAL__N_15printEPKcP6Status+0x2e1>
    166b: a6 12        	ldx	$12                     ; 0x2012 <_ZN12_GLOBAL__N_13putEcP6Status+0x2f>
    166d: 86 14        	stx	$14                     ; 0x2014 <_ZN12_GLOBAL__N_13putEcP6Status+0x31>
    166f: a6 13        	ldx	$13                     ; 0x2013 <_ZN12_GLOBAL__N_13putEcP6Status+0x30>
    1671: 86 15        	stx	$15                     ; 0x2015 <_ZN12_GLOBAL__N_13putEcP6Status+0x32>
    1673: e6 14        	inc	$14                     ; 0x2014 <_ZN12_GLOBAL__N_13putEcP6Status+0x31>
    1675: d0 02        	bne	$1679 <_ZN12_GLOBAL__N_15printEPKcP6Status+0x1da>
    1677: e6 15        	inc	$15                     ; 0x2015 <_ZN12_GLOBAL__N_13putEcP6Status+0x32>
    1679: a5 14        	lda	$14                     ; 0x2014 <_ZN12_GLOBAL__N_13putEcP6Status+0x31>
    167b: 92 26        	sta	($26)                   ; 0x2026 <_ZN12_GLOBAL__N_13putEcP6Status+0x43>
    167d: a5 15        	lda	$15                     ; 0x2015 <_ZN12_GLOBAL__N_13putEcP6Status+0x32>
    167f: 91 26        	sta	($26),y                 ; 0x2026 <_ZN12_GLOBAL__N_13putEcP6Status+0x43>
    1681: b1 12        	lda	($12),y                 ; 0x2012 <_ZN12_GLOBAL__N_13putEcP6Status+0x2f>
    1683: c9 2a        	cmp	#$2a
    1685: f0 03        	beq	$168a <_ZN12_GLOBAL__N_15printEPKcP6Status+0x1eb>
    1687: 4c f5 16     	jmp	$16f5 <_ZN12_GLOBAL__N_15printEPKcP6Status+0x256>
    168a: a4 24        	ldy	$24                     ; 0x2024 <_ZN12_GLOBAL__N_13putEcP6Status+0x41>
    168c: a5 24        	lda	$24                     ; 0x2024 <_ZN12_GLOBAL__N_13putEcP6Status+0x41>
    168e: 84 18        	sty	$18                     ; 0x2018 <_ZN12_GLOBAL__N_13putEcP6Status+0x35>
    1690: 18           	clc
    1691: 69 11        	adc	#$11
    1693: 85 14        	sta	$14                     ; 0x2014 <_ZN12_GLOBAL__N_13putEcP6Status+0x31>
    1695: a5 25        	lda	$25                     ; 0x2025 <_ZN12_GLOBAL__N_13putEcP6Status+0x42>
    1697: 69 00        	adc	#$0
    1699: a0 11        	ldy	#$11
    169b: 85 15        	sta	$15                     ; 0x2015 <_ZN12_GLOBAL__N_13putEcP6Status+0x32>
    169d: b1 24        	lda	($24),y                 ; 0x2024 <_ZN12_GLOBAL__N_13putEcP6Status+0x41>
    169f: 85 16        	sta	$16                     ; 0x2016 <_ZN12_GLOBAL__N_13putEcP6Status+0x33>
    16a1: a0 01        	ldy	#$1
    16a3: b1 14        	lda	($14),y                 ; 0x2014 <_ZN12_GLOBAL__N_13putEcP6Status+0x31>
    16a5: 85 19        	sta	$19                     ; 0x2019 <_ZN12_GLOBAL__N_13putEcP6Status+0x36>
    16a7: a5 16        	lda	$16                     ; 0x2016 <_ZN12_GLOBAL__N_13putEcP6Status+0x33>
    16a9: a6 19        	ldx	$19                     ; 0x2019 <_ZN12_GLOBAL__N_13putEcP6Status+0x36>
    16ab: 86 17        	stx	$17                     ; 0x2017 <_ZN12_GLOBAL__N_13putEcP6Status+0x34>
    16ad: 18           	clc
    16ae: 69 02        	adc	#$2
    16b0: 85 1a        	sta	$1a                     ; 0x201a <_ZN12_GLOBAL__N_13putEcP6Status+0x37>
    16b2: a5 19        	lda	$19                     ; 0x2019 <_ZN12_GLOBAL__N_13putEcP6Status+0x36>
    16b4: 69 00        	adc	#$0
    16b6: 85 19        	sta	$19                     ; 0x2019 <_ZN12_GLOBAL__N_13putEcP6Status+0x36>
    16b8: a0 11        	ldy	#$11
    16ba: a5 1a        	lda	$1a                     ; 0x201a <_ZN12_GLOBAL__N_13putEcP6Status+0x37>
    16bc: 91 24        	sta	($24),y                 ; 0x2024 <_ZN12_GLOBAL__N_13putEcP6Status+0x41>
    16be: a5 19        	lda	$19                     ; 0x2019 <_ZN12_GLOBAL__N_13putEcP6Status+0x36>
    16c0: a0 01        	ldy	#$1
    16c2: 91 14        	sta	($14),y                 ; 0x2014 <_ZN12_GLOBAL__N_13putEcP6Status+0x31>
    16c4: b2 16        	lda	($16)                   ; 0x2016 <_ZN12_GLOBAL__N_13putEcP6Status+0x33>
    16c6: 85 14        	sta	$14                     ; 0x2014 <_ZN12_GLOBAL__N_13putEcP6Status+0x31>
    16c8: b1 16        	lda	($16),y                 ; 0x2016 <_ZN12_GLOBAL__N_13putEcP6Status+0x33>
    16ca: 85 16        	sta	$16                     ; 0x2016 <_ZN12_GLOBAL__N_13putEcP6Status+0x33>
    16cc: a0 0d        	ldy	#$d
    16ce: a5 14        	lda	$14                     ; 0x2014 <_ZN12_GLOBAL__N_13putEcP6Status+0x31>
    16d0: 91 24        	sta	($24),y                 ; 0x2024 <_ZN12_GLOBAL__N_13putEcP6Status+0x41>
    16d2: 18           	clc
    16d3: a5 18        	lda	$18                     ; 0x2018 <_ZN12_GLOBAL__N_13putEcP6Status+0x35>
    16d5: 69 0d        	adc	#$d
    16d7: 85 14        	sta	$14                     ; 0x2014 <_ZN12_GLOBAL__N_13putEcP6Status+0x31>
    16d9: a5 25        	lda	$25                     ; 0x2025 <_ZN12_GLOBAL__N_13putEcP6Status+0x42>
    16db: 69 00        	adc	#$0
    16dd: 18           	clc
    16de: 85 15        	sta	$15                     ; 0x2015 <_ZN12_GLOBAL__N_13putEcP6Status+0x32>
    16e0: a5 16        	lda	$16                     ; 0x2016 <_ZN12_GLOBAL__N_13putEcP6Status+0x33>
    16e2: a0 01        	ldy	#$1
    16e4: 91 14        	sta	($14),y                 ; 0x2014 <_ZN12_GLOBAL__N_13putEcP6Status+0x31>
    16e6: a5 12        	lda	$12                     ; 0x2012 <_ZN12_GLOBAL__N_13putEcP6Status+0x2f>
    16e8: 69 02        	adc	#$2
    16ea: 85 12        	sta	$12                     ; 0x2012 <_ZN12_GLOBAL__N_13putEcP6Status+0x2f>
    16ec: a5 13        	lda	$13                     ; 0x2013 <_ZN12_GLOBAL__N_13putEcP6Status+0x30>
    16ee: 69 00        	adc	#$0
    16f0: 85 13        	sta	$13                     ; 0x2013 <_ZN12_GLOBAL__N_13putEcP6Status+0x30>
    16f2: 4c 64 17     	jmp	$1764 <_ZN12_GLOBAL__N_15printEPKcP6Status+0x2c5>
    16f5: a6 28        	ldx	$28                     ; 0x2028 <_ZN12_GLOBAL__N_13putEcP6Status+0x45>
    16f7: 86 2c        	stx	$2c                     ; 0x202c <_ZN12_GLOBAL__N_13putEcP6Status+0x49>
    16f9: a6 29        	ldx	$29                     ; 0x2029 <_ZN12_GLOBAL__N_13putEcP6Status+0x46>
    16fb: 86 2d        	stx	$2d                     ; 0x202d <_ZN12_GLOBAL__N_13putEcP6Status+0x4a>
    16fd: a6 14        	ldx	$14                     ; 0x2014 <_ZN12_GLOBAL__N_13putEcP6Status+0x31>
    16ff: 86 12        	stx	$12                     ; 0x2012 <_ZN12_GLOBAL__N_13putEcP6Status+0x2f>
    1701: a6 15        	ldx	$15                     ; 0x2015 <_ZN12_GLOBAL__N_13putEcP6Status+0x32>
    1703: 86 13        	stx	$13                     ; 0x2013 <_ZN12_GLOBAL__N_13putEcP6Status+0x30>
    1705: 18           	clc
    1706: a5 10        	lda	$10                     ; 0x2010 <_ZN12_GLOBAL__N_13putEcP6Status+0x2d>
    1708: 69 18        	adc	#$18
    170a: 85 28        	sta	$28                     ; 0x2028 <_ZN12_GLOBAL__N_13putEcP6Status+0x45>
    170c: a5 11        	lda	$11                     ; 0x2011 <_ZN12_GLOBAL__N_13putEcP6Status+0x2e>
    170e: 69 00        	adc	#$0
    1710: 85 29        	sta	$29                     ; 0x2029 <_ZN12_GLOBAL__N_13putEcP6Status+0x46>
    1712: a6 28        	ldx	$28                     ; 0x2028 <_ZN12_GLOBAL__N_13putEcP6Status+0x45>
    1714: 86 14        	stx	$14                     ; 0x2014 <_ZN12_GLOBAL__N_13putEcP6Status+0x31>
    1716: 85 15        	sta	$15                     ; 0x2015 <_ZN12_GLOBAL__N_13putEcP6Status+0x32>
    1718: 20 90 26     	jsr	$2690 <__simple_strtoui>
    171b: a0 0d        	ldy	#$d
    171d: 91 24        	sta	($24),y                 ; 0x2024 <_ZN12_GLOBAL__N_13putEcP6Status+0x41>
    171f: 18           	clc
    1720: a5 24        	lda	$24                     ; 0x2024 <_ZN12_GLOBAL__N_13putEcP6Status+0x41>
    1722: 69 0d        	adc	#$d
    1724: 85 12        	sta	$12                     ; 0x2012 <_ZN12_GLOBAL__N_13putEcP6Status+0x2f>
    1726: a5 25        	lda	$25                     ; 0x2025 <_ZN12_GLOBAL__N_13putEcP6Status+0x42>
    1728: 69 00        	adc	#$0
    172a: 85 13        	sta	$13                     ; 0x2013 <_ZN12_GLOBAL__N_13putEcP6Status+0x30>
    172c: a0 01        	ldy	#$1
    172e: 8a           	txa
    172f: 91 12        	sta	($12),y                 ; 0x2012 <_ZN12_GLOBAL__N_13putEcP6Status+0x2f>
    1731: b2 28        	lda	($28)                   ; 0x2028 <_ZN12_GLOBAL__N_13putEcP6Status+0x45>
    1733: 85 12        	sta	$12                     ; 0x2012 <_ZN12_GLOBAL__N_13putEcP6Status+0x2f>
    1735: b1 28        	lda	($28),y                 ; 0x2028 <_ZN12_GLOBAL__N_13putEcP6Status+0x45>
    1737: 85 13        	sta	$13                     ; 0x2013 <_ZN12_GLOBAL__N_13putEcP6Status+0x30>
    1739: b1 26        	lda	($26),y                 ; 0x2026 <_ZN12_GLOBAL__N_13putEcP6Status+0x43>
    173b: c5 13        	cmp	$13                     ; 0x2013 <_ZN12_GLOBAL__N_13putEcP6Status+0x30>
    173d: d0 1d        	bne	$175c <_ZN12_GLOBAL__N_15printEPKcP6Status+0x2bd>
    173f: b2 26        	lda	($26)                   ; 0x2026 <_ZN12_GLOBAL__N_13putEcP6Status+0x43>
    1741: c5 12        	cmp	$12                     ; 0x2012 <_ZN12_GLOBAL__N_13putEcP6Status+0x2f>
    1743: d0 17        	bne	$175c <_ZN12_GLOBAL__N_15printEPKcP6Status+0x2bd>
    1745: a0 0d        	ldy	#$d
    1747: a5 24        	lda	$24                     ; 0x2024 <_ZN12_GLOBAL__N_13putEcP6Status+0x41>
    1749: 18           	clc
    174a: 69 0d        	adc	#$d
    174c: 85 14        	sta	$14                     ; 0x2014 <_ZN12_GLOBAL__N_13putEcP6Status+0x31>
    174e: a5 25        	lda	$25                     ; 0x2025 <_ZN12_GLOBAL__N_13putEcP6Status+0x42>
    1750: 69 00        	adc	#$0
    1752: 85 15        	sta	$15                     ; 0x2015 <_ZN12_GLOBAL__N_13putEcP6Status+0x32>
    1754: a9 00        	lda	#$0
    1756: 91 24        	sta	($24),y                 ; 0x2024 <_ZN12_GLOBAL__N_13putEcP6Status+0x41>
    1758: a0 01        	ldy	#$1
    175a: 91 14        	sta	($14),y                 ; 0x2014 <_ZN12_GLOBAL__N_13putEcP6Status+0x31>
    175c: a6 2c        	ldx	$2c                     ; 0x202c <_ZN12_GLOBAL__N_13putEcP6Status+0x49>
    175e: 86 28        	stx	$28                     ; 0x2028 <_ZN12_GLOBAL__N_13putEcP6Status+0x45>
    1760: a6 2d        	ldx	$2d                     ; 0x202d <_ZN12_GLOBAL__N_13putEcP6Status+0x4a>
    1762: 86 29        	stx	$29                     ; 0x2029 <_ZN12_GLOBAL__N_13putEcP6Status+0x46>
    1764: a6 24        	ldx	$24                     ; 0x2024 <_ZN12_GLOBAL__N_13putEcP6Status+0x41>
    1766: 86 14        	stx	$14                     ; 0x2014 <_ZN12_GLOBAL__N_13putEcP6Status+0x31>
    1768: a6 25        	ldx	$25                     ; 0x2025 <_ZN12_GLOBAL__N_13putEcP6Status+0x42>
    176a: 86 15        	stx	$15                     ; 0x2015 <_ZN12_GLOBAL__N_13putEcP6Status+0x32>
    176c: e6 14        	inc	$14                     ; 0x2014 <_ZN12_GLOBAL__N_13putEcP6Status+0x31>
    176e: d0 02        	bne	$1772 <_ZN12_GLOBAL__N_15printEPKcP6Status+0x2d3>
    1770: e6 15        	inc	$15                     ; 0x2015 <_ZN12_GLOBAL__N_13putEcP6Status+0x32>
    1772: b1 14        	lda	($14),y                 ; 0x2014 <_ZN12_GLOBAL__N_13putEcP6Status+0x31>
    1774: 85 16        	sta	$16                     ; 0x2016 <_ZN12_GLOBAL__N_13putEcP6Status+0x33>
    1776: a9 ef        	lda	#$ef
    1778: 31 24        	and	($24),y                 ; 0x2024 <_ZN12_GLOBAL__N_13putEcP6Status+0x41>
    177a: 91 24        	sta	($24),y                 ; 0x2024 <_ZN12_GLOBAL__N_13putEcP6Status+0x41>
    177c: a5 16        	lda	$16                     ; 0x2016 <_ZN12_GLOBAL__N_13putEcP6Status+0x33>
    177e: 91 14        	sta	($14),y                 ; 0x2014 <_ZN12_GLOBAL__N_13putEcP6Status+0x31>
    1780: a6 12        	ldx	$12                     ; 0x2012 <_ZN12_GLOBAL__N_13putEcP6Status+0x2f>
    1782: 86 14        	stx	$14                     ; 0x2014 <_ZN12_GLOBAL__N_13putEcP6Status+0x31>
    1784: a6 13        	ldx	$13                     ; 0x2013 <_ZN12_GLOBAL__N_13putEcP6Status+0x30>
    1786: 86 15        	stx	$15                     ; 0x2015 <_ZN12_GLOBAL__N_13putEcP6Status+0x32>
    1788: e6 14        	inc	$14                     ; 0x2014 <_ZN12_GLOBAL__N_13putEcP6Status+0x31>
    178a: d0 02        	bne	$178e <_ZN12_GLOBAL__N_15printEPKcP6Status+0x2ef>
    178c: e6 15        	inc	$15                     ; 0x2015 <_ZN12_GLOBAL__N_13putEcP6Status+0x32>
    178e: a5 14        	lda	$14                     ; 0x2014 <_ZN12_GLOBAL__N_13putEcP6Status+0x31>
    1790: 92 26        	sta	($26)                   ; 0x2026 <_ZN12_GLOBAL__N_13putEcP6Status+0x43>
    1792: a5 15        	lda	$15                     ; 0x2015 <_ZN12_GLOBAL__N_13putEcP6Status+0x32>
    1794: 91 26        	sta	($26),y                 ; 0x2026 <_ZN12_GLOBAL__N_13putEcP6Status+0x43>
    1796: b2 12        	lda	($12)                   ; 0x2012 <_ZN12_GLOBAL__N_13putEcP6Status+0x2f>
    1798: 38           	sec
    1799: aa           	tax
    179a: e9 6c        	sbc	#$6c
    179c: 50 02        	bvc	$17a0 <_ZN12_GLOBAL__N_15printEPKcP6Status+0x301>
    179e: 49 80        	eor	#$80
    17a0: c9 00        	cmp	#$0
    17a2: 10 16        	bpl	$17ba <_ZN12_GLOBAL__N_15printEPKcP6Status+0x31b>
    17a4: e0 4c        	cpx	#$4c
    17a6: f0 3c        	beq	$17e4 <_ZN12_GLOBAL__N_15printEPKcP6Status+0x345>
    17a8: 8a           	txa
    17a9: e0 68        	cpx	#$68
    17ab: d0 03        	bne	$17b0 <_ZN12_GLOBAL__N_15printEPKcP6Status+0x311>
    17ad: 4c 60 18     	jmp	$1860 <_ZN12_GLOBAL__N_15printEPKcP6Status+0x3c1>
    17b0: a2 08        	ldx	#$8
    17b2: a0 08        	ldy	#$8
    17b4: c9 6a        	cmp	#$6a
    17b6: d0 14        	bne	$17cc <_ZN12_GLOBAL__N_15printEPKcP6Status+0x32d>
    17b8: 80 4a        	bra	$1804 <_ZN12_GLOBAL__N_15printEPKcP6Status+0x365>
    17ba: e0 6c        	cpx	#$6c
    17bc: d0 03        	bne	$17c1 <_ZN12_GLOBAL__N_15printEPKcP6Status+0x322>
    17be: 4c 2b 18     	jmp	$182b <_ZN12_GLOBAL__N_15printEPKcP6Status+0x38c>
    17c1: 8a           	txa
    17c2: e0 74        	cpx	#$74
    17c4: f0 3a        	beq	$1800 <_ZN12_GLOBAL__N_15printEPKcP6Status+0x361>
    17c6: a2 02        	ldx	#$2
    17c8: c9 7a        	cmp	#$7a
    17ca: f0 14        	beq	$17e0 <_ZN12_GLOBAL__N_15printEPKcP6Status+0x341>
    17cc: a5 12        	lda	$12                     ; 0x2012 <_ZN12_GLOBAL__N_13putEcP6Status+0x2f>
    17ce: 92 26        	sta	($26)                   ; 0x2026 <_ZN12_GLOBAL__N_13putEcP6Status+0x43>
    17d0: a0 01        	ldy	#$1
    17d2: a5 13        	lda	$13                     ; 0x2013 <_ZN12_GLOBAL__N_13putEcP6Status+0x30>
    17d4: 91 26        	sta	($26),y                 ; 0x2026 <_ZN12_GLOBAL__N_13putEcP6Status+0x43>
    17d6: a6 12        	ldx	$12                     ; 0x2012 <_ZN12_GLOBAL__N_13putEcP6Status+0x2f>
    17d8: 86 14        	stx	$14                     ; 0x2014 <_ZN12_GLOBAL__N_13putEcP6Status+0x31>
    17da: a6 13        	ldx	$13                     ; 0x2013 <_ZN12_GLOBAL__N_13putEcP6Status+0x30>
    17dc: 86 15        	stx	$15                     ; 0x2015 <_ZN12_GLOBAL__N_13putEcP6Status+0x32>
    17de: a2 02        	ldx	#$2
    17e0: a0 02        	ldy	#$2
    17e2: 80 20        	bra	$1804 <_ZN12_GLOBAL__N_15printEPKcP6Status+0x365>
    17e4: a6 24        	ldx	$24                     ; 0x2024 <_ZN12_GLOBAL__N_13putEcP6Status+0x41>
    17e6: 86 12        	stx	$12                     ; 0x2012 <_ZN12_GLOBAL__N_13putEcP6Status+0x2f>
    17e8: a6 25        	ldx	$25                     ; 0x2025 <_ZN12_GLOBAL__N_13putEcP6Status+0x42>
    17ea: 86 13        	stx	$13                     ; 0x2013 <_ZN12_GLOBAL__N_13putEcP6Status+0x30>
    17ec: e6 12        	inc	$12                     ; 0x2012 <_ZN12_GLOBAL__N_13putEcP6Status+0x2f>
    17ee: d0 02        	bne	$17f2 <_ZN12_GLOBAL__N_15printEPKcP6Status+0x353>
    17f0: e6 13        	inc	$13                     ; 0x2013 <_ZN12_GLOBAL__N_13putEcP6Status+0x30>
    17f2: b1 12        	lda	($12),y                 ; 0x2012 <_ZN12_GLOBAL__N_13putEcP6Status+0x2f>
    17f4: 85 16        	sta	$16                     ; 0x2016 <_ZN12_GLOBAL__N_13putEcP6Status+0x33>
    17f6: a9 40        	lda	#$40
    17f8: 11 24        	ora	($24),y                 ; 0x2024 <_ZN12_GLOBAL__N_13putEcP6Status+0x41>
    17fa: 91 24        	sta	($24),y                 ; 0x2024 <_ZN12_GLOBAL__N_13putEcP6Status+0x41>
    17fc: a5 16        	lda	$16                     ; 0x2016 <_ZN12_GLOBAL__N_13putEcP6Status+0x33>
    17fe: 91 12        	sta	($12),y                 ; 0x2012 <_ZN12_GLOBAL__N_13putEcP6Status+0x2f>
    1800: a0 02        	ldy	#$2
    1802: a2 02        	ldx	#$2
    1804: b2 14        	lda	($14)                   ; 0x2014 <_ZN12_GLOBAL__N_13putEcP6Status+0x31>
    1806: 85 16        	sta	$16                     ; 0x2016 <_ZN12_GLOBAL__N_13putEcP6Status+0x33>
    1808: 86 2b        	stx	$2b                     ; 0x202b <_ZN12_GLOBAL__N_13putEcP6Status+0x48>
    180a: 98           	tya
    180b: a0 0c        	ldy	#$c
    180d: 91 10        	sta	($10),y                 ; 0x2010 <_ZN12_GLOBAL__N_13putEcP6Status+0x2d>
    180f: 18           	clc
    1810: a5 16        	lda	$16                     ; 0x2016 <_ZN12_GLOBAL__N_13putEcP6Status+0x33>
    1812: 69 9d        	adc	#$9d
    1814: c9 16        	cmp	#$16
    1816: 90 03        	bcc	$181b <_ZN12_GLOBAL__N_15printEPKcP6Status+0x37c>
    1818: 4c 94 18     	jmp	$1894 <_ZN12_GLOBAL__N_15printEPKcP6Status+0x3f5>
    181b: aa           	tax
    181c: b1 10        	lda	($10),y                 ; 0x2010 <_ZN12_GLOBAL__N_13putEcP6Status+0x2d>
    181e: 8a           	txa
    181f: 0a           	asl
    1820: aa           	tax
    1821: 7c 3e 27     	jmp	($273e,x)               ; 0x273e <__BLOCK_SIZE+0x73e>
    1824: a9 0a        	lda	#$a
    1826: 92 24        	sta	($24)                   ; 0x2024 <_ZN12_GLOBAL__N_13putEcP6Status+0x41>
    1828: 4c fd 19     	jmp	$19fd <_ZN12_GLOBAL__N_15printEPKcP6Status+0x55e>
    182b: b1 12        	lda	($12),y                 ; 0x2012 <_ZN12_GLOBAL__N_13putEcP6Status+0x2f>
    182d: a2 04        	ldx	#$4
    182f: a0 04        	ldy	#$4
    1831: 48           	pha
    1832: 98           	tya
    1833: a0 0c        	ldy	#$c
    1835: 91 10        	sta	($10),y                 ; 0x2010 <_ZN12_GLOBAL__N_13putEcP6Status+0x2d>
    1837: 68           	pla
    1838: 86 2b        	stx	$2b                     ; 0x202b <_ZN12_GLOBAL__N_13putEcP6Status+0x48>
    183a: 85 16        	sta	$16                     ; 0x2016 <_ZN12_GLOBAL__N_13putEcP6Status+0x33>
    183c: c9 6c        	cmp	#$6c
    183e: d0 cf        	bne	$180f <_ZN12_GLOBAL__N_15printEPKcP6Status+0x370>
    1840: a5 12        	lda	$12                     ; 0x2012 <_ZN12_GLOBAL__N_13putEcP6Status+0x2f>
    1842: 18           	clc
    1843: 69 02        	adc	#$2
    1845: aa           	tax
    1846: a5 13        	lda	$13                     ; 0x2013 <_ZN12_GLOBAL__N_13putEcP6Status+0x30>
    1848: 69 00        	adc	#$0
    184a: 86 14        	stx	$14                     ; 0x2014 <_ZN12_GLOBAL__N_13putEcP6Status+0x31>
    184c: 85 15        	sta	$15                     ; 0x2015 <_ZN12_GLOBAL__N_13putEcP6Status+0x32>
    184e: 85 12        	sta	$12                     ; 0x2012 <_ZN12_GLOBAL__N_13putEcP6Status+0x2f>
    1850: 8a           	txa
    1851: 92 26        	sta	($26)                   ; 0x2026 <_ZN12_GLOBAL__N_13putEcP6Status+0x43>
    1853: a0 01        	ldy	#$1
    1855: a5 12        	lda	$12                     ; 0x2012 <_ZN12_GLOBAL__N_13putEcP6Status+0x2f>
    1857: 91 26        	sta	($26),y                 ; 0x2026 <_ZN12_GLOBAL__N_13putEcP6Status+0x43>
    1859: a2 08        	ldx	#$8
    185b: a0 08        	ldy	#$8
    185d: 4c 04 18     	jmp	$1804 <_ZN12_GLOBAL__N_15printEPKcP6Status+0x365>
    1860: b1 12        	lda	($12),y                 ; 0x2012 <_ZN12_GLOBAL__N_13putEcP6Status+0x2f>
    1862: a2 02        	ldx	#$2
    1864: a0 02        	ldy	#$2
    1866: 48           	pha
    1867: 98           	tya
    1868: a0 0c        	ldy	#$c
    186a: 91 10        	sta	($10),y                 ; 0x2010 <_ZN12_GLOBAL__N_13putEcP6Status+0x2d>
    186c: 68           	pla
    186d: 86 2b        	stx	$2b                     ; 0x202b <_ZN12_GLOBAL__N_13putEcP6Status+0x48>
    186f: 85 16        	sta	$16                     ; 0x2016 <_ZN12_GLOBAL__N_13putEcP6Status+0x33>
    1871: c9 68        	cmp	#$68
    1873: f0 03        	beq	$1878 <_ZN12_GLOBAL__N_15printEPKcP6Status+0x3d9>
    1875: 4c 0f 18     	jmp	$180f <_ZN12_GLOBAL__N_15printEPKcP6Status+0x370>
    1878: a5 12        	lda	$12                     ; 0x2012 <_ZN12_GLOBAL__N_13putEcP6Status+0x2f>
    187a: 18           	clc
    187b: 69 02        	adc	#$2
    187d: aa           	tax
    187e: a5 13        	lda	$13                     ; 0x2013 <_ZN12_GLOBAL__N_13putEcP6Status+0x30>
    1880: 69 00        	adc	#$0
    1882: 86 14        	stx	$14                     ; 0x2014 <_ZN12_GLOBAL__N_13putEcP6Status+0x31>
    1884: 85 15        	sta	$15                     ; 0x2015 <_ZN12_GLOBAL__N_13putEcP6Status+0x32>
    1886: 85 12        	sta	$12                     ; 0x2012 <_ZN12_GLOBAL__N_13putEcP6Status+0x2f>
    1888: 8a           	txa
    1889: 92 26        	sta	($26)                   ; 0x2026 <_ZN12_GLOBAL__N_13putEcP6Status+0x43>
    188b: a0 01        	ldy	#$1
    188d: a5 12        	lda	$12                     ; 0x2012 <_ZN12_GLOBAL__N_13putEcP6Status+0x2f>
    188f: 91 26        	sta	($26),y                 ; 0x2026 <_ZN12_GLOBAL__N_13putEcP6Status+0x43>
    1891: 4c 02 18     	jmp	$1802 <_ZN12_GLOBAL__N_15printEPKcP6Status+0x363>
    1894: a6 16        	ldx	$16                     ; 0x2016 <_ZN12_GLOBAL__N_13putEcP6Status+0x33>
    1896: e0 58        	cpx	#$58
    1898: f0 03        	beq	$189d <_ZN12_GLOBAL__N_15printEPKcP6Status+0x3fe>
    189a: 4c 98 1f     	jmp	$1f98 <_ZN12_GLOBAL__N_15printEPKcP6Status+0xaf9>
    189d: a9 10        	lda	#$10
    189f: 4c dc 19     	jmp	$19dc <_ZN12_GLOBAL__N_15printEPKcP6Status+0x53d>
    18a2: a9 10        	lda	#$10
    18a4: 92 24        	sta	($24)                   ; 0x2024 <_ZN12_GLOBAL__N_13putEcP6Status+0x41>
    18a6: a6 24        	ldx	$24                     ; 0x2024 <_ZN12_GLOBAL__N_13putEcP6Status+0x41>
    18a8: 86 12        	stx	$12                     ; 0x2012 <_ZN12_GLOBAL__N_13putEcP6Status+0x2f>
    18aa: a6 25        	ldx	$25                     ; 0x2025 <_ZN12_GLOBAL__N_13putEcP6Status+0x42>
    18ac: 86 13        	stx	$13                     ; 0x2013 <_ZN12_GLOBAL__N_13putEcP6Status+0x30>
    18ae: e6 12        	inc	$12                     ; 0x2012 <_ZN12_GLOBAL__N_13putEcP6Status+0x2f>
    18b0: d0 02        	bne	$18b4 <_ZN12_GLOBAL__N_15printEPKcP6Status+0x415>
    18b2: e6 13        	inc	$13                     ; 0x2013 <_ZN12_GLOBAL__N_13putEcP6Status+0x30>
    18b4: a0 01        	ldy	#$1
    18b6: a9 84        	lda	#$84
    18b8: 80 16        	bra	$18d0 <_ZN12_GLOBAL__N_15printEPKcP6Status+0x431>
    18ba: a9 10        	lda	#$10
    18bc: 92 24        	sta	($24)                   ; 0x2024 <_ZN12_GLOBAL__N_13putEcP6Status+0x41>
    18be: a6 24        	ldx	$24                     ; 0x2024 <_ZN12_GLOBAL__N_13putEcP6Status+0x41>
    18c0: 86 12        	stx	$12                     ; 0x2012 <_ZN12_GLOBAL__N_13putEcP6Status+0x2f>
    18c2: a6 25        	ldx	$25                     ; 0x2025 <_ZN12_GLOBAL__N_13putEcP6Status+0x42>
    18c4: 86 13        	stx	$13                     ; 0x2013 <_ZN12_GLOBAL__N_13putEcP6Status+0x30>
    18c6: e6 12        	inc	$12                     ; 0x2012 <_ZN12_GLOBAL__N_13putEcP6Status+0x2f>
    18c8: d0 02        	bne	$18cc <_ZN12_GLOBAL__N_15printEPKcP6Status+0x42d>
    18ca: e6 13        	inc	$13                     ; 0x2013 <_ZN12_GLOBAL__N_13putEcP6Status+0x30>
    18cc: a0 01        	ldy	#$1
    18ce: a9 80        	lda	#$80
    18d0: 11 24        	ora	($24),y                 ; 0x2024 <_ZN12_GLOBAL__N_13putEcP6Status+0x41>
    18d2: aa           	tax
    18d3: a9 01        	lda	#$1
    18d5: 11 12        	ora	($12),y                 ; 0x2012 <_ZN12_GLOBAL__N_13putEcP6Status+0x2f>
    18d7: 85 14        	sta	$14                     ; 0x2014 <_ZN12_GLOBAL__N_13putEcP6Status+0x31>
    18d9: 8a           	txa
    18da: 91 24        	sta	($24),y                 ; 0x2024 <_ZN12_GLOBAL__N_13putEcP6Status+0x41>
    18dc: a5 14        	lda	$14                     ; 0x2014 <_ZN12_GLOBAL__N_13putEcP6Status+0x31>
    18de: 4c fb 19     	jmp	$19fb <_ZN12_GLOBAL__N_15printEPKcP6Status+0x55c>
    18e1: a4 24        	ldy	$24                     ; 0x2024 <_ZN12_GLOBAL__N_13putEcP6Status+0x41>
    18e3: 18           	clc
    18e4: a5 24        	lda	$24                     ; 0x2024 <_ZN12_GLOBAL__N_13putEcP6Status+0x41>
    18e6: 84 18        	sty	$18                     ; 0x2018 <_ZN12_GLOBAL__N_13putEcP6Status+0x35>
    18e8: 69 11        	adc	#$11
    18ea: 85 12        	sta	$12                     ; 0x2012 <_ZN12_GLOBAL__N_13putEcP6Status+0x2f>
    18ec: a5 25        	lda	$25                     ; 0x2025 <_ZN12_GLOBAL__N_13putEcP6Status+0x42>
    18ee: 69 00        	adc	#$0
    18f0: 85 13        	sta	$13                     ; 0x2013 <_ZN12_GLOBAL__N_13putEcP6Status+0x30>
    18f2: a0 11        	ldy	#$11
    18f4: b1 24        	lda	($24),y                 ; 0x2024 <_ZN12_GLOBAL__N_13putEcP6Status+0x41>
    18f6: 85 16        	sta	$16                     ; 0x2016 <_ZN12_GLOBAL__N_13putEcP6Status+0x33>
    18f8: 18           	clc
    18f9: 69 02        	adc	#$2
    18fb: 91 24        	sta	($24),y                 ; 0x2024 <_ZN12_GLOBAL__N_13putEcP6Status+0x41>
    18fd: a0 01        	ldy	#$1
    18ff: b1 12        	lda	($12),y                 ; 0x2012 <_ZN12_GLOBAL__N_13putEcP6Status+0x2f>
    1901: 85 17        	sta	$17                     ; 0x2017 <_ZN12_GLOBAL__N_13putEcP6Status+0x34>
    1903: 69 00        	adc	#$0
    1905: 18           	clc
    1906: 91 12        	sta	($12),y                 ; 0x2012 <_ZN12_GLOBAL__N_13putEcP6Status+0x2f>
    1908: b2 16        	lda	($16)                   ; 0x2016 <_ZN12_GLOBAL__N_13putEcP6Status+0x33>
    190a: 85 12        	sta	$12                     ; 0x2012 <_ZN12_GLOBAL__N_13putEcP6Status+0x2f>
    190c: b1 16        	lda	($16),y                 ; 0x2016 <_ZN12_GLOBAL__N_13putEcP6Status+0x33>
    190e: 85 13        	sta	$13                     ; 0x2013 <_ZN12_GLOBAL__N_13putEcP6Status+0x30>
    1910: a5 18        	lda	$18                     ; 0x2018 <_ZN12_GLOBAL__N_13putEcP6Status+0x35>
    1912: 69 05        	adc	#$5
    1914: 85 16        	sta	$16                     ; 0x2016 <_ZN12_GLOBAL__N_13putEcP6Status+0x33>
    1916: a5 25        	lda	$25                     ; 0x2025 <_ZN12_GLOBAL__N_13putEcP6Status+0x42>
    1918: 69 00        	adc	#$0
    191a: 85 17        	sta	$17                     ; 0x2017 <_ZN12_GLOBAL__N_13putEcP6Status+0x34>
    191c: a0 05        	ldy	#$5
    191e: b1 24        	lda	($24),y                 ; 0x2024 <_ZN12_GLOBAL__N_13putEcP6Status+0x41>
    1920: 85 18        	sta	$18                     ; 0x2018 <_ZN12_GLOBAL__N_13putEcP6Status+0x35>
    1922: a0 01        	ldy	#$1
    1924: b1 16        	lda	($16),y                 ; 0x2016 <_ZN12_GLOBAL__N_13putEcP6Status+0x33>
    1926: 85 16        	sta	$16                     ; 0x2016 <_ZN12_GLOBAL__N_13putEcP6Status+0x33>
    1928: a5 18        	lda	$18                     ; 0x2018 <_ZN12_GLOBAL__N_13putEcP6Status+0x35>
    192a: 92 12        	sta	($12)                   ; 0x2012 <_ZN12_GLOBAL__N_13putEcP6Status+0x2f>
    192c: a5 16        	lda	$16                     ; 0x2016 <_ZN12_GLOBAL__N_13putEcP6Status+0x33>
    192e: 91 12        	sta	($12),y                 ; 0x2012 <_ZN12_GLOBAL__N_13putEcP6Status+0x2f>
    1930: e6 14        	inc	$14                     ; 0x2014 <_ZN12_GLOBAL__N_13putEcP6Status+0x31>
    1932: d0 02        	bne	$1936 <_ZN12_GLOBAL__N_15printEPKcP6Status+0x497>
    1934: e6 15        	inc	$15                     ; 0x2015 <_ZN12_GLOBAL__N_13putEcP6Status+0x32>
    1936: a6 14        	ldx	$14                     ; 0x2014 <_ZN12_GLOBAL__N_13putEcP6Status+0x31>
    1938: 86 28        	stx	$28                     ; 0x2028 <_ZN12_GLOBAL__N_13putEcP6Status+0x45>
    193a: a6 15        	ldx	$15                     ; 0x2015 <_ZN12_GLOBAL__N_13putEcP6Status+0x32>
    193c: 86 29        	stx	$29                     ; 0x2029 <_ZN12_GLOBAL__N_13putEcP6Status+0x46>
    193e: 4c 98 1f     	jmp	$1f98 <_ZN12_GLOBAL__N_15printEPKcP6Status+0xaf9>
    1941: a0 11        	ldy	#$11
    1943: a5 24        	lda	$24                     ; 0x2024 <_ZN12_GLOBAL__N_13putEcP6Status+0x41>
    1945: 18           	clc
    1946: 69 11        	adc	#$11
    1948: 85 12        	sta	$12                     ; 0x2012 <_ZN12_GLOBAL__N_13putEcP6Status+0x2f>
    194a: a5 25        	lda	$25                     ; 0x2025 <_ZN12_GLOBAL__N_13putEcP6Status+0x42>
    194c: 69 00        	adc	#$0
    194e: 85 13        	sta	$13                     ; 0x2013 <_ZN12_GLOBAL__N_13putEcP6Status+0x30>
    1950: b1 24        	lda	($24),y                 ; 0x2024 <_ZN12_GLOBAL__N_13putEcP6Status+0x41>
    1952: aa           	tax
    1953: a0 01        	ldy	#$1
    1955: b1 12        	lda	($12),y                 ; 0x2012 <_ZN12_GLOBAL__N_13putEcP6Status+0x2f>
    1957: 86 14        	stx	$14                     ; 0x2014 <_ZN12_GLOBAL__N_13putEcP6Status+0x31>
    1959: 85 15        	sta	$15                     ; 0x2015 <_ZN12_GLOBAL__N_13putEcP6Status+0x32>
    195b: a8           	tay
    195c: 18           	clc
    195d: 8a           	txa
    195e: 69 02        	adc	#$2
    1960: 85 16        	sta	$16                     ; 0x2016 <_ZN12_GLOBAL__N_13putEcP6Status+0x33>
    1962: 98           	tya
    1963: 69 00        	adc	#$0
    1965: 85 17        	sta	$17                     ; 0x2017 <_ZN12_GLOBAL__N_13putEcP6Status+0x34>
    1967: a5 16        	lda	$16                     ; 0x2016 <_ZN12_GLOBAL__N_13putEcP6Status+0x33>
    1969: a0 11        	ldy	#$11
    196b: 91 24        	sta	($24),y                 ; 0x2024 <_ZN12_GLOBAL__N_13putEcP6Status+0x41>
    196d: a0 01        	ldy	#$1
    196f: a5 17        	lda	$17                     ; 0x2017 <_ZN12_GLOBAL__N_13putEcP6Status+0x34>
    1971: 91 12        	sta	($12),y                 ; 0x2012 <_ZN12_GLOBAL__N_13putEcP6Status+0x2f>
    1973: b2 14        	lda	($14)                   ; 0x2014 <_ZN12_GLOBAL__N_13putEcP6Status+0x31>
    1975: 85 12        	sta	$12                     ; 0x2012 <_ZN12_GLOBAL__N_13putEcP6Status+0x2f>
    1977: b1 14        	lda	($14),y                 ; 0x2014 <_ZN12_GLOBAL__N_13putEcP6Status+0x31>
    1979: 85 13        	sta	$13                     ; 0x2013 <_ZN12_GLOBAL__N_13putEcP6Status+0x30>
    197b: 4c cc 19     	jmp	$19cc <_ZN12_GLOBAL__N_15printEPKcP6Status+0x52d>
    197e: a9 08        	lda	#$8
    1980: 4c dc 19     	jmp	$19dc <_ZN12_GLOBAL__N_15printEPKcP6Status+0x53d>
    1983: a0 11        	ldy	#$11
    1985: a5 24        	lda	$24                     ; 0x2024 <_ZN12_GLOBAL__N_13putEcP6Status+0x41>
    1987: 18           	clc
    1988: 69 11        	adc	#$11
    198a: 85 12        	sta	$12                     ; 0x2012 <_ZN12_GLOBAL__N_13putEcP6Status+0x2f>
    198c: a5 25        	lda	$25                     ; 0x2025 <_ZN12_GLOBAL__N_13putEcP6Status+0x42>
    198e: 69 00        	adc	#$0
    1990: 85 13        	sta	$13                     ; 0x2013 <_ZN12_GLOBAL__N_13putEcP6Status+0x30>
    1992: b1 24        	lda	($24),y                 ; 0x2024 <_ZN12_GLOBAL__N_13putEcP6Status+0x41>
    1994: aa           	tax
    1995: a0 01        	ldy	#$1
    1997: b1 12        	lda	($12),y                 ; 0x2012 <_ZN12_GLOBAL__N_13putEcP6Status+0x2f>
    1999: 86 14        	stx	$14                     ; 0x2014 <_ZN12_GLOBAL__N_13putEcP6Status+0x31>
    199b: 85 15        	sta	$15                     ; 0x2015 <_ZN12_GLOBAL__N_13putEcP6Status+0x32>
    199d: a8           	tay
    199e: 18           	clc
    199f: 8a           	txa
    19a0: 69 02        	adc	#$2
    19a2: 85 16        	sta	$16                     ; 0x2016 <_ZN12_GLOBAL__N_13putEcP6Status+0x33>
    19a4: 98           	tya
    19a5: 69 00        	adc	#$0
    19a7: 85 17        	sta	$17                     ; 0x2017 <_ZN12_GLOBAL__N_13putEcP6Status+0x34>
    19a9: a5 16        	lda	$16                     ; 0x2016 <_ZN12_GLOBAL__N_13putEcP6Status+0x33>
    19ab: a0 11        	ldy	#$11
    19ad: 91 24        	sta	($24),y                 ; 0x2024 <_ZN12_GLOBAL__N_13putEcP6Status+0x41>
    19af: a0 01        	ldy	#$1
    19b1: a5 17        	lda	$17                     ; 0x2017 <_ZN12_GLOBAL__N_13putEcP6Status+0x34>
    19b3: 91 12        	sta	($12),y                 ; 0x2012 <_ZN12_GLOBAL__N_13putEcP6Status+0x2f>
    19b5: b2 14        	lda	($14)                   ; 0x2014 <_ZN12_GLOBAL__N_13putEcP6Status+0x31>
    19b7: 18           	clc
    19b8: 48           	pha
    19b9: a5 10        	lda	$10                     ; 0x2010 <_ZN12_GLOBAL__N_13putEcP6Status+0x2d>
    19bb: 69 18        	adc	#$18
    19bd: 85 12        	sta	$12                     ; 0x2012 <_ZN12_GLOBAL__N_13putEcP6Status+0x2f>
    19bf: a5 11        	lda	$11                     ; 0x2011 <_ZN12_GLOBAL__N_13putEcP6Status+0x2e>
    19c1: 69 00        	adc	#$0
    19c3: 85 13        	sta	$13                     ; 0x2013 <_ZN12_GLOBAL__N_13putEcP6Status+0x30>
    19c5: 68           	pla
    19c6: 92 12        	sta	($12)                   ; 0x2012 <_ZN12_GLOBAL__N_13putEcP6Status+0x2f>
    19c8: a9 00        	lda	#$0
    19ca: 91 12        	sta	($12),y                 ; 0x2012 <_ZN12_GLOBAL__N_13putEcP6Status+0x2f>
    19cc: a6 24        	ldx	$24                     ; 0x2024 <_ZN12_GLOBAL__N_13putEcP6Status+0x41>
    19ce: 86 14        	stx	$14                     ; 0x2014 <_ZN12_GLOBAL__N_13putEcP6Status+0x31>
    19d0: a6 25        	ldx	$25                     ; 0x2025 <_ZN12_GLOBAL__N_13putEcP6Status+0x42>
    19d2: 86 15        	stx	$15                     ; 0x2015 <_ZN12_GLOBAL__N_13putEcP6Status+0x32>
    19d4: 20 c4 20     	jsr	$20c4 <_ZN12_GLOBAL__N_112print_stringEPKcP6Status>
    19d7: 4c 88 1f     	jmp	$1f88 <_ZN12_GLOBAL__N_15printEPKcP6Status+0xae9>
    19da: a9 0a        	lda	#$a
    19dc: 92 24        	sta	($24)                   ; 0x2024 <_ZN12_GLOBAL__N_13putEcP6Status+0x41>
    19de: a6 24        	ldx	$24                     ; 0x2024 <_ZN12_GLOBAL__N_13putEcP6Status+0x41>
    19e0: 86 12        	stx	$12                     ; 0x2012 <_ZN12_GLOBAL__N_13putEcP6Status+0x2f>
    19e2: a6 25        	ldx	$25                     ; 0x2025 <_ZN12_GLOBAL__N_13putEcP6Status+0x42>
    19e4: 86 13        	stx	$13                     ; 0x2013 <_ZN12_GLOBAL__N_13putEcP6Status+0x30>
    19e6: e6 12        	inc	$12                     ; 0x2012 <_ZN12_GLOBAL__N_13putEcP6Status+0x2f>
    19e8: d0 02        	bne	$19ec <_ZN12_GLOBAL__N_15printEPKcP6Status+0x54d>
    19ea: e6 13        	inc	$13                     ; 0x2013 <_ZN12_GLOBAL__N_13putEcP6Status+0x30>
    19ec: a0 01        	ldy	#$1
    19ee: b1 24        	lda	($24),y                 ; 0x2024 <_ZN12_GLOBAL__N_13putEcP6Status+0x41>
    19f0: 85 14        	sta	$14                     ; 0x2014 <_ZN12_GLOBAL__N_13putEcP6Status+0x31>
    19f2: 98           	tya
    19f3: 11 12        	ora	($12),y                 ; 0x2012 <_ZN12_GLOBAL__N_13putEcP6Status+0x2f>
    19f5: aa           	tax
    19f6: a5 14        	lda	$14                     ; 0x2014 <_ZN12_GLOBAL__N_13putEcP6Status+0x31>
    19f8: 91 24        	sta	($24),y                 ; 0x2024 <_ZN12_GLOBAL__N_13putEcP6Status+0x41>
    19fa: 8a           	txa
    19fb: 91 12        	sta	($12),y                 ; 0x2012 <_ZN12_GLOBAL__N_13putEcP6Status+0x2f>
    19fd: 18           	clc
    19fe: a5 10        	lda	$10                     ; 0x2010 <_ZN12_GLOBAL__N_13putEcP6Status+0x2d>
    1a00: 69 0d        	adc	#$d
    1a02: 85 28        	sta	$28                     ; 0x2028 <_ZN12_GLOBAL__N_13putEcP6Status+0x45>
    1a04: a5 11        	lda	$11                     ; 0x2011 <_ZN12_GLOBAL__N_13putEcP6Status+0x2e>
    1a06: 69 00        	adc	#$0
    1a08: 85 29        	sta	$29                     ; 0x2029 <_ZN12_GLOBAL__N_13putEcP6Status+0x46>
    1a0a: a6 28        	ldx	$28                     ; 0x2028 <_ZN12_GLOBAL__N_13putEcP6Status+0x45>
    1a0c: 86 12        	stx	$12                     ; 0x2012 <_ZN12_GLOBAL__N_13putEcP6Status+0x2f>
    1a0e: 85 13        	sta	$13                     ; 0x2013 <_ZN12_GLOBAL__N_13putEcP6Status+0x30>
    1a10: a0 0c        	ldy	#$c
    1a12: b1 10        	lda	($10),y                 ; 0x2010 <_ZN12_GLOBAL__N_13putEcP6Status+0x2d>
    1a14: 20 5c 05     	jsr	$55c <_ZN6__impl6VarInt4makeEPvc>
    1a17: a6 28        	ldx	$28                     ; 0x2028 <_ZN12_GLOBAL__N_13putEcP6Status+0x45>
    1a19: 86 12        	stx	$12                     ; 0x2012 <_ZN12_GLOBAL__N_13putEcP6Status+0x2f>
    1a1b: a6 29        	ldx	$29                     ; 0x2029 <_ZN12_GLOBAL__N_13putEcP6Status+0x46>
    1a1d: 86 13        	stx	$13                     ; 0x2013 <_ZN12_GLOBAL__N_13putEcP6Status+0x30>
    1a1f: e6 12        	inc	$12                     ; 0x2012 <_ZN12_GLOBAL__N_13putEcP6Status+0x2f>
    1a21: d0 02        	bne	$1a25 <_ZN12_GLOBAL__N_15printEPKcP6Status+0x586>
    1a23: e6 13        	inc	$13                     ; 0x2013 <_ZN12_GLOBAL__N_13putEcP6Status+0x30>
    1a25: a0 11        	ldy	#$11
    1a27: a2 00        	ldx	#$0
    1a29: a5 24        	lda	$24                     ; 0x2024 <_ZN12_GLOBAL__N_13putEcP6Status+0x41>
    1a2b: 18           	clc
    1a2c: 69 11        	adc	#$11
    1a2e: 85 2c        	sta	$2c                     ; 0x202c <_ZN12_GLOBAL__N_13putEcP6Status+0x49>
    1a30: a5 25        	lda	$25                     ; 0x2025 <_ZN12_GLOBAL__N_13putEcP6Status+0x42>
    1a32: 69 00        	adc	#$0
    1a34: 85 2d        	sta	$2d                     ; 0x202d <_ZN12_GLOBAL__N_13putEcP6Status+0x4a>
    1a36: b1 24        	lda	($24),y                 ; 0x2024 <_ZN12_GLOBAL__N_13putEcP6Status+0x41>
    1a38: 85 2f        	sta	$2f                     ; 0x202f <_ZN12_GLOBAL__N_13putEcP6Status+0x4c>
    1a3a: a0 01        	ldy	#$1
    1a3c: b1 2c        	lda	($2c),y                 ; 0x202c <_ZN12_GLOBAL__N_13putEcP6Status+0x49>
    1a3e: a4 2f        	ldy	$2f                     ; 0x202f <_ZN12_GLOBAL__N_13putEcP6Status+0x4c>
    1a40: 84 14        	sty	$14                     ; 0x2014 <_ZN12_GLOBAL__N_13putEcP6Status+0x31>
    1a42: 85 15        	sta	$15                     ; 0x2015 <_ZN12_GLOBAL__N_13putEcP6Status+0x32>
    1a44: 85 2e        	sta	$2e                     ; 0x202e <_ZN12_GLOBAL__N_13putEcP6Status+0x4b>
    1a46: b2 28        	lda	($28)                   ; 0x2028 <_ZN12_GLOBAL__N_13putEcP6Status+0x45>
    1a48: 64 16        	stz	$16                     ; 0x2016 <_ZN12_GLOBAL__N_13putEcP6Status+0x33>
    1a4a: 48           	pha
    1a4b: 8a           	txa
    1a4c: a0 0c        	ldy	#$c
    1a4e: 91 10        	sta	($10),y                 ; 0x2010 <_ZN12_GLOBAL__N_13putEcP6Status+0x2d>
    1a50: 68           	pla
    1a51: 20 0b 26     	jsr	$260b <memcpy>
    1a54: 18           	clc
    1a55: a9 00        	lda	#$0
    1a57: a0 0a        	ldy	#$a
    1a59: 91 10        	sta	($10),y                 ; 0x2010 <_ZN12_GLOBAL__N_13putEcP6Status+0x2d>
    1a5b: a5 2f        	lda	$2f                     ; 0x202f <_ZN12_GLOBAL__N_13putEcP6Status+0x4c>
    1a5d: 65 2b        	adc	$2b                     ; 0x202b <_ZN12_GLOBAL__N_13putEcP6Status+0x48>
    1a5f: aa           	tax
    1a60: a5 2e        	lda	$2e                     ; 0x202e <_ZN12_GLOBAL__N_13putEcP6Status+0x4b>
    1a62: 69 00        	adc	#$0
    1a64: 85 12        	sta	$12                     ; 0x2012 <_ZN12_GLOBAL__N_13putEcP6Status+0x2f>
    1a66: a0 11        	ldy	#$11
    1a68: 8a           	txa
    1a69: 91 24        	sta	($24),y                 ; 0x2024 <_ZN12_GLOBAL__N_13putEcP6Status+0x41>
    1a6b: a0 01        	ldy	#$1
    1a6d: a5 12        	lda	$12                     ; 0x2012 <_ZN12_GLOBAL__N_13putEcP6Status+0x2f>
    1a6f: 91 2c        	sta	($2c),y                 ; 0x202c <_ZN12_GLOBAL__N_13putEcP6Status+0x49>
    1a71: a6 24        	ldx	$24                     ; 0x2024 <_ZN12_GLOBAL__N_13putEcP6Status+0x41>
    1a73: 86 12        	stx	$12                     ; 0x2012 <_ZN12_GLOBAL__N_13putEcP6Status+0x2f>
    1a75: a6 25        	ldx	$25                     ; 0x2025 <_ZN12_GLOBAL__N_13putEcP6Status+0x42>
    1a77: 86 13        	stx	$13                     ; 0x2013 <_ZN12_GLOBAL__N_13putEcP6Status+0x30>
    1a79: e6 12        	inc	$12                     ; 0x2012 <_ZN12_GLOBAL__N_13putEcP6Status+0x2f>
    1a7b: d0 02        	bne	$1a7f <_ZN12_GLOBAL__N_15printEPKcP6Status+0x5e0>
    1a7d: e6 13        	inc	$13                     ; 0x2013 <_ZN12_GLOBAL__N_13putEcP6Status+0x30>
    1a7f: a9 01        	lda	#$1
    1a81: 31 12        	and	($12),y                 ; 0x2012 <_ZN12_GLOBAL__N_13putEcP6Status+0x2f>
    1a83: d0 21        	bne	$1aa6 <_ZN12_GLOBAL__N_15printEPKcP6Status+0x607>
    1a85: a6 28        	ldx	$28                     ; 0x2028 <_ZN12_GLOBAL__N_13putEcP6Status+0x45>
    1a87: 86 12        	stx	$12                     ; 0x2012 <_ZN12_GLOBAL__N_13putEcP6Status+0x2f>
    1a89: a6 29        	ldx	$29                     ; 0x2029 <_ZN12_GLOBAL__N_13putEcP6Status+0x46>
    1a8b: 86 13        	stx	$13                     ; 0x2013 <_ZN12_GLOBAL__N_13putEcP6Status+0x30>
    1a8d: 20 6e 05     	jsr	$56e <_ZNK6__impl6VarInt8negativeEv>
    1a90: 29 01        	and	#$1
    1a92: f0 12        	beq	$1aa6 <_ZN12_GLOBAL__N_15printEPKcP6Status+0x607>
    1a94: a6 28        	ldx	$28                     ; 0x2028 <_ZN12_GLOBAL__N_13putEcP6Status+0x45>
    1a96: 86 12        	stx	$12                     ; 0x2012 <_ZN12_GLOBAL__N_13putEcP6Status+0x2f>
    1a98: a6 29        	ldx	$29                     ; 0x2029 <_ZN12_GLOBAL__N_13putEcP6Status+0x46>
    1a9a: 86 13        	stx	$13                     ; 0x2013 <_ZN12_GLOBAL__N_13putEcP6Status+0x30>
    1a9c: 20 7c 05     	jsr	$57c <_ZN6__impl6VarInt6negateEv>
    1a9f: 38           	sec
    1aa0: a9 01        	lda	#$1
    1aa2: a0 0a        	ldy	#$a
    1aa4: 91 10        	sta	($10),y                 ; 0x2010 <_ZN12_GLOBAL__N_13putEcP6Status+0x2d>
    1aa6: b2 28        	lda	($28)                   ; 0x2028 <_ZN12_GLOBAL__N_13putEcP6Status+0x45>
    1aa8: d0 03        	bne	$1aad <_ZN12_GLOBAL__N_15printEPKcP6Status+0x60e>
    1aaa: 4c a4 1b     	jmp	$1ba4 <_ZN12_GLOBAL__N_15printEPKcP6Status+0x705>
    1aad: b2 24        	lda	($24)                   ; 0x2024 <_ZN12_GLOBAL__N_13putEcP6Status+0x41>
    1aaf: 85 2b        	sta	$2b                     ; 0x202b <_ZN12_GLOBAL__N_13putEcP6Status+0x48>
    1ab1: 18           	clc
    1ab2: a5 10        	lda	$10                     ; 0x2010 <_ZN12_GLOBAL__N_13putEcP6Status+0x2d>
    1ab4: 69 18        	adc	#$18
    1ab6: 48           	pha
    1ab7: a5 11        	lda	$11                     ; 0x2011 <_ZN12_GLOBAL__N_13putEcP6Status+0x2e>
    1ab9: 69 00        	adc	#$0
    1abb: 85 12        	sta	$12                     ; 0x2012 <_ZN12_GLOBAL__N_13putEcP6Status+0x2f>
    1abd: 68           	pla
    1abe: 18           	clc
    1abf: 69 02        	adc	#$2
    1ac1: 85 2c        	sta	$2c                     ; 0x202c <_ZN12_GLOBAL__N_13putEcP6Status+0x49>
    1ac3: a5 12        	lda	$12                     ; 0x2012 <_ZN12_GLOBAL__N_13putEcP6Status+0x2f>
    1ac5: 69 00        	adc	#$0
    1ac7: 85 2d        	sta	$2d                     ; 0x202d <_ZN12_GLOBAL__N_13putEcP6Status+0x4a>
    1ac9: a2 00        	ldx	#$0
    1acb: a0 00        	ldy	#$0
    1acd: 8a           	txa
    1ace: d0 03        	bne	$1ad3 <_ZN12_GLOBAL__N_15printEPKcP6Status+0x634>
    1ad0: 4c 4d 1b     	jmp	$1b4d <_ZN12_GLOBAL__N_15printEPKcP6Status+0x6ae>
    1ad3: 84 2f        	sty	$2f                     ; 0x202f <_ZN12_GLOBAL__N_13putEcP6Status+0x4c>
    1ad5: 86 2e        	stx	$2e                     ; 0x202e <_ZN12_GLOBAL__N_13putEcP6Status+0x4b>
    1ad7: ca           	dex
    1ad8: 86 13        	stx	$13                     ; 0x2013 <_ZN12_GLOBAL__N_13putEcP6Status+0x30>
    1ada: a2 00        	ldx	#$0
    1adc: 64 12        	stz	$12                     ; 0x2012 <_ZN12_GLOBAL__N_13putEcP6Status+0x2f>
    1ade: 80 0c        	bra	$1aec <_ZN12_GLOBAL__N_15printEPKcP6Status+0x64d>
    1ae0: a4 12        	ldy	$12                     ; 0x2012 <_ZN12_GLOBAL__N_13putEcP6Status+0x2f>
    1ae2: 91 2c        	sta	($2c),y                 ; 0x202c <_ZN12_GLOBAL__N_13putEcP6Status+0x49>
    1ae4: a4 13        	ldy	$13                     ; 0x2013 <_ZN12_GLOBAL__N_13putEcP6Status+0x30>
    1ae6: c4 12        	cpy	$12                     ; 0x2012 <_ZN12_GLOBAL__N_13putEcP6Status+0x2f>
    1ae8: f0 2f        	beq	$1b19 <_ZN12_GLOBAL__N_15printEPKcP6Status+0x67a>
    1aea: e6 12        	inc	$12                     ; 0x2012 <_ZN12_GLOBAL__N_13putEcP6Status+0x2f>
    1aec: a4 12        	ldy	$12                     ; 0x2012 <_ZN12_GLOBAL__N_13putEcP6Status+0x2f>
    1aee: b1 2c        	lda	($2c),y                 ; 0x202c <_ZN12_GLOBAL__N_13putEcP6Status+0x49>
    1af0: 0a           	asl
    1af1: e0 00        	cpx	#$0
    1af3: f0 02        	beq	$1af7 <_ZN12_GLOBAL__N_15printEPKcP6Status+0x658>
    1af5: 09 01        	ora	#$1
    1af7: c5 2b        	cmp	$2b                     ; 0x202b <_ZN12_GLOBAL__N_13putEcP6Status+0x48>
    1af9: a2 01        	ldx	#$1
    1afb: b0 02        	bcs	$1aff <_ZN12_GLOBAL__N_15printEPKcP6Status+0x660>
    1afd: a2 00        	ldx	#$0
    1aff: 90 df        	bcc	$1ae0 <_ZN12_GLOBAL__N_15printEPKcP6Status+0x641>
    1b01: 38           	sec
    1b02: e5 2b        	sbc	$2b                     ; 0x202b <_ZN12_GLOBAL__N_13putEcP6Status+0x48>
    1b04: a4 12        	ldy	$12                     ; 0x2012 <_ZN12_GLOBAL__N_13putEcP6Status+0x2f>
    1b06: 91 2c        	sta	($2c),y                 ; 0x202c <_ZN12_GLOBAL__N_13putEcP6Status+0x49>
    1b08: a4 13        	ldy	$13                     ; 0x2013 <_ZN12_GLOBAL__N_13putEcP6Status+0x30>
    1b0a: c4 12        	cpy	$12                     ; 0x2012 <_ZN12_GLOBAL__N_13putEcP6Status+0x2f>
    1b0c: d0 dc        	bne	$1aea <_ZN12_GLOBAL__N_15printEPKcP6Status+0x64b>
    1b0e: a4 2e        	ldy	$2e                     ; 0x202e <_ZN12_GLOBAL__N_13putEcP6Status+0x4b>
    1b10: a6 2e        	ldx	$2e                     ; 0x202e <_ZN12_GLOBAL__N_13putEcP6Status+0x4b>
    1b12: e8           	inx
    1b13: a9 01        	lda	#$1
    1b15: 91 2c        	sta	($2c),y                 ; 0x202c <_ZN12_GLOBAL__N_13putEcP6Status+0x49>
    1b17: 86 2e        	stx	$2e                     ; 0x202e <_ZN12_GLOBAL__N_13putEcP6Status+0x4b>
    1b19: a6 28        	ldx	$28                     ; 0x2028 <_ZN12_GLOBAL__N_13putEcP6Status+0x45>
    1b1b: 86 12        	stx	$12                     ; 0x2012 <_ZN12_GLOBAL__N_13putEcP6Status+0x2f>
    1b1d: a6 29        	ldx	$29                     ; 0x2029 <_ZN12_GLOBAL__N_13putEcP6Status+0x46>
    1b1f: 86 13        	stx	$13                     ; 0x2013 <_ZN12_GLOBAL__N_13putEcP6Status+0x30>
    1b21: 20 60 05     	jsr	$560 <_ZNK6__impl6VarInt8high_bitEv>
    1b24: 29 01        	and	#$1
    1b26: f0 21        	beq	$1b49 <_ZN12_GLOBAL__N_15printEPKcP6Status+0x6aa>
    1b28: a0 00        	ldy	#$0
    1b2a: a5 2e        	lda	$2e                     ; 0x202e <_ZN12_GLOBAL__N_13putEcP6Status+0x4b>
    1b2c: f0 33        	beq	$1b61 <_ZN12_GLOBAL__N_15printEPKcP6Status+0x6c2>
    1b2e: b1 2c        	lda	($2c),y                 ; 0x202c <_ZN12_GLOBAL__N_13putEcP6Status+0x49>
    1b30: 1a           	inc
    1b31: 91 2c        	sta	($2c),y                 ; 0x202c <_ZN12_GLOBAL__N_13putEcP6Status+0x49>
    1b33: c5 2b        	cmp	$2b                     ; 0x202b <_ZN12_GLOBAL__N_13putEcP6Status+0x48>
    1b35: 90 12        	bcc	$1b49 <_ZN12_GLOBAL__N_15printEPKcP6Status+0x6aa>
    1b37: 38           	sec
    1b38: e5 2b        	sbc	$2b                     ; 0x202b <_ZN12_GLOBAL__N_13putEcP6Status+0x48>
    1b3a: 91 2c        	sta	($2c),y                 ; 0x202c <_ZN12_GLOBAL__N_13putEcP6Status+0x49>
    1b3c: c8           	iny
    1b3d: 84 12        	sty	$12                     ; 0x2012 <_ZN12_GLOBAL__N_13putEcP6Status+0x2f>
    1b3f: a6 2e        	ldx	$2e                     ; 0x202e <_ZN12_GLOBAL__N_13putEcP6Status+0x4b>
    1b41: e4 12        	cpx	$12                     ; 0x2012 <_ZN12_GLOBAL__N_13putEcP6Status+0x2f>
    1b43: d0 e9        	bne	$1b2e <_ZN12_GLOBAL__N_15printEPKcP6Status+0x68f>
    1b45: a4 2e        	ldy	$2e                     ; 0x202e <_ZN12_GLOBAL__N_13putEcP6Status+0x4b>
    1b47: 80 18        	bra	$1b61 <_ZN12_GLOBAL__N_15printEPKcP6Status+0x6c2>
    1b49: a4 2e        	ldy	$2e                     ; 0x202e <_ZN12_GLOBAL__N_13putEcP6Status+0x4b>
    1b4b: 80 1d        	bra	$1b6a <_ZN12_GLOBAL__N_15printEPKcP6Status+0x6cb>
    1b4d: 84 2f        	sty	$2f                     ; 0x202f <_ZN12_GLOBAL__N_13putEcP6Status+0x4c>
    1b4f: a6 28        	ldx	$28                     ; 0x2028 <_ZN12_GLOBAL__N_13putEcP6Status+0x45>
    1b51: 86 12        	stx	$12                     ; 0x2012 <_ZN12_GLOBAL__N_13putEcP6Status+0x2f>
    1b53: a6 29        	ldx	$29                     ; 0x2029 <_ZN12_GLOBAL__N_13putEcP6Status+0x46>
    1b55: 86 13        	stx	$13                     ; 0x2013 <_ZN12_GLOBAL__N_13putEcP6Status+0x30>
    1b57: 20 60 05     	jsr	$560 <_ZNK6__impl6VarInt8high_bitEv>
    1b5a: 29 01        	and	#$1
    1b5c: a0 00        	ldy	#$0
    1b5e: aa           	tax
    1b5f: f0 09        	beq	$1b6a <_ZN12_GLOBAL__N_15printEPKcP6Status+0x6cb>
    1b61: 5a           	phy
    1b62: fa           	plx
    1b63: e8           	inx
    1b64: a9 01        	lda	#$1
    1b66: 91 2c        	sta	($2c),y                 ; 0x202c <_ZN12_GLOBAL__N_13putEcP6Status+0x49>
    1b68: da           	phx
    1b69: 7a           	ply
    1b6a: 98           	tya
    1b6b: a0 0c        	ldy	#$c
    1b6d: 91 10        	sta	($10),y                 ; 0x2010 <_ZN12_GLOBAL__N_13putEcP6Status+0x2d>
    1b6f: a6 28        	ldx	$28                     ; 0x2028 <_ZN12_GLOBAL__N_13putEcP6Status+0x45>
    1b71: 86 12        	stx	$12                     ; 0x2012 <_ZN12_GLOBAL__N_13putEcP6Status+0x2f>
    1b73: a6 29        	ldx	$29                     ; 0x2029 <_ZN12_GLOBAL__N_13putEcP6Status+0x46>
    1b75: 86 13        	stx	$13                     ; 0x2013 <_ZN12_GLOBAL__N_13putEcP6Status+0x30>
    1b77: 20 c4 05     	jsr	$5c4 <_ZN6__impl6VarInt3shlEv>
    1b7a: a4 2f        	ldy	$2f                     ; 0x202f <_ZN12_GLOBAL__N_13putEcP6Status+0x4c>
    1b7c: c8           	iny
    1b7d: b2 28        	lda	($28)                   ; 0x2028 <_ZN12_GLOBAL__N_13putEcP6Status+0x45>
    1b7f: 0a           	asl
    1b80: 64 13        	stz	$13                     ; 0x2013 <_ZN12_GLOBAL__N_13putEcP6Status+0x30>
    1b82: 26 13        	rol	$13                     ; 0x2013 <_ZN12_GLOBAL__N_13putEcP6Status+0x30>
    1b84: 0a           	asl
    1b85: 26 13        	rol	$13                     ; 0x2013 <_ZN12_GLOBAL__N_13putEcP6Status+0x30>
    1b87: 0a           	asl
    1b88: 26 13        	rol	$13                     ; 0x2013 <_ZN12_GLOBAL__N_13putEcP6Status+0x30>
    1b8a: a2 00        	ldx	#$0
    1b8c: e4 13        	cpx	$13                     ; 0x2013 <_ZN12_GLOBAL__N_13putEcP6Status+0x30>
    1b8e: d0 06        	bne	$1b96 <_ZN12_GLOBAL__N_15printEPKcP6Status+0x6f7>
    1b90: 85 12        	sta	$12                     ; 0x2012 <_ZN12_GLOBAL__N_13putEcP6Status+0x2f>
    1b92: c4 12        	cpy	$12                     ; 0x2012 <_ZN12_GLOBAL__N_13putEcP6Status+0x2f>
    1b94: 80 02        	bra	$1b98 <_ZN12_GLOBAL__N_15printEPKcP6Status+0x6f9>
    1b96: e4 13        	cpx	$13                     ; 0x2013 <_ZN12_GLOBAL__N_13putEcP6Status+0x30>
    1b98: 5a           	phy
    1b99: a0 0c        	ldy	#$c
    1b9b: b1 10        	lda	($10),y                 ; 0x2010 <_ZN12_GLOBAL__N_13putEcP6Status+0x2d>
    1b9d: 7a           	ply
    1b9e: aa           	tax
    1b9f: b0 03        	bcs	$1ba4 <_ZN12_GLOBAL__N_15printEPKcP6Status+0x705>
    1ba1: 4c cd 1a     	jmp	$1acd <_ZN12_GLOBAL__N_15printEPKcP6Status+0x62e>
    1ba4: a5 24        	lda	$24                     ; 0x2024 <_ZN12_GLOBAL__N_13putEcP6Status+0x41>
    1ba6: 18           	clc
    1ba7: 69 0d        	adc	#$d
    1ba9: 85 12        	sta	$12                     ; 0x2012 <_ZN12_GLOBAL__N_13putEcP6Status+0x2f>
    1bab: a5 25        	lda	$25                     ; 0x2025 <_ZN12_GLOBAL__N_13putEcP6Status+0x42>
    1bad: 69 00        	adc	#$0
    1baf: 85 13        	sta	$13                     ; 0x2013 <_ZN12_GLOBAL__N_13putEcP6Status+0x30>
    1bb1: a0 01        	ldy	#$1
    1bb3: b1 12        	lda	($12),y                 ; 0x2012 <_ZN12_GLOBAL__N_13putEcP6Status+0x2f>
    1bb5: 30 0a        	bmi	$1bc1 <_ZN12_GLOBAL__N_15printEPKcP6Status+0x722>
    1bb7: a0 0d        	ldy	#$d
    1bb9: 85 29        	sta	$29                     ; 0x2029 <_ZN12_GLOBAL__N_13putEcP6Status+0x46>
    1bbb: b1 24        	lda	($24),y                 ; 0x2024 <_ZN12_GLOBAL__N_13putEcP6Status+0x41>
    1bbd: 85 28        	sta	$28                     ; 0x2028 <_ZN12_GLOBAL__N_13putEcP6Status+0x45>
    1bbf: 80 04        	bra	$1bc5 <_ZN12_GLOBAL__N_15printEPKcP6Status+0x726>
    1bc1: 64 29        	stz	$29                     ; 0x2029 <_ZN12_GLOBAL__N_13putEcP6Status+0x46>
    1bc3: 84 28        	sty	$28                     ; 0x2028 <_ZN12_GLOBAL__N_13putEcP6Status+0x45>
    1bc5: a0 01        	ldy	#$1
    1bc7: b1 24        	lda	($24),y                 ; 0x2024 <_ZN12_GLOBAL__N_13putEcP6Status+0x41>
    1bc9: 85 18        	sta	$18                     ; 0x2018 <_ZN12_GLOBAL__N_13putEcP6Status+0x35>
    1bcb: 29 04        	and	#$4
    1bcd: f0 35        	beq	$1c04 <_ZN12_GLOBAL__N_15printEPKcP6Status+0x765>
    1bcf: b2 24        	lda	($24)                   ; 0x2024 <_ZN12_GLOBAL__N_13putEcP6Status+0x41>
    1bd1: c9 10        	cmp	#$10
    1bd3: f0 18        	beq	$1bed <_ZN12_GLOBAL__N_15printEPKcP6Status+0x74e>
    1bd5: c9 08        	cmp	#$8
    1bd7: d0 2b        	bne	$1c04 <_ZN12_GLOBAL__N_15printEPKcP6Status+0x765>
    1bd9: a2 00        	ldx	#$0
    1bdb: e4 29        	cpx	$29                     ; 0x2029 <_ZN12_GLOBAL__N_13putEcP6Status+0x46>
    1bdd: f0 03        	beq	$1be2 <_ZN12_GLOBAL__N_15printEPKcP6Status+0x743>
    1bdf: 4c a3 1d     	jmp	$1da3 <_ZN12_GLOBAL__N_15printEPKcP6Status+0x904>
    1be2: 5a           	phy
    1be3: a0 0c        	ldy	#$c
    1be5: b1 10        	lda	($10),y                 ; 0x2010 <_ZN12_GLOBAL__N_13putEcP6Status+0x2d>
    1be7: 7a           	ply
    1be8: c5 28        	cmp	$28                     ; 0x2028 <_ZN12_GLOBAL__N_13putEcP6Status+0x45>
    1bea: 4c a5 1d     	jmp	$1da5 <_ZN12_GLOBAL__N_15printEPKcP6Status+0x906>
    1bed: 5a           	phy
    1bee: a0 0c        	ldy	#$c
    1bf0: b1 10        	lda	($10),y                 ; 0x2010 <_ZN12_GLOBAL__N_13putEcP6Status+0x2d>
    1bf2: 7a           	ply
    1bf3: aa           	tax
    1bf4: f0 0e        	beq	$1c04 <_ZN12_GLOBAL__N_15printEPKcP6Status+0x765>
    1bf6: a5 18        	lda	$18                     ; 0x2018 <_ZN12_GLOBAL__N_13putEcP6Status+0x35>
    1bf8: 29 80        	and	#$80
    1bfa: d0 03        	bne	$1bff <_ZN12_GLOBAL__N_15printEPKcP6Status+0x760>
    1bfc: 4c c0 1d     	jmp	$1dc0 <_ZN12_GLOBAL__N_15printEPKcP6Status+0x921>
    1bff: a2 78        	ldx	#$78
    1c01: 4c c2 1d     	jmp	$1dc2 <_ZN12_GLOBAL__N_15printEPKcP6Status+0x923>
    1c04: a5 18        	lda	$18                     ; 0x2018 <_ZN12_GLOBAL__N_13putEcP6Status+0x35>
    1c06: a2 2d        	ldx	#$2d
    1c08: 48           	pha
    1c09: 5a           	phy
    1c0a: 8a           	txa
    1c0b: a0 09        	ldy	#$9
    1c0d: 91 10        	sta	($10),y                 ; 0x2010 <_ZN12_GLOBAL__N_13putEcP6Status+0x2d>
    1c0f: c8           	iny
    1c10: b1 10        	lda	($10),y                 ; 0x2010 <_ZN12_GLOBAL__N_13putEcP6Status+0x2d>
    1c12: 7a           	ply
    1c13: 85 12        	sta	$12                     ; 0x2012 <_ZN12_GLOBAL__N_13putEcP6Status+0x2f>
    1c15: 68           	pla
    1c16: a6 12        	ldx	$12                     ; 0x2012 <_ZN12_GLOBAL__N_13putEcP6Status+0x2f>
    1c18: f0 0d        	beq	$1c27 <_ZN12_GLOBAL__N_15printEPKcP6Status+0x788>
    1c1a: 18           	clc
    1c1b: a9 00        	lda	#$0
    1c1d: 5a           	phy
    1c1e: a0 0a        	ldy	#$a
    1c20: 91 10        	sta	($10),y                 ; 0x2010 <_ZN12_GLOBAL__N_13putEcP6Status+0x2d>
    1c22: 7a           	ply
    1c23: 84 12        	sty	$12                     ; 0x2012 <_ZN12_GLOBAL__N_13putEcP6Status+0x2f>
    1c25: 80 2f        	bra	$1c56 <_ZN12_GLOBAL__N_15printEPKcP6Status+0x7b7>
    1c27: aa           	tax
    1c28: 29 02        	and	#$2
    1c2a: a0 2b        	ldy	#$2b
    1c2c: 48           	pha
    1c2d: 98           	tya
    1c2e: a0 09        	ldy	#$9
    1c30: 91 10        	sta	($10),y                 ; 0x2010 <_ZN12_GLOBAL__N_13putEcP6Status+0x2d>
    1c32: 68           	pla
    1c33: d0 16        	bne	$1c4b <_ZN12_GLOBAL__N_15printEPKcP6Status+0x7ac>
    1c35: 8a           	txa
    1c36: 29 08        	and	#$8
    1c38: a0 01        	ldy	#$1
    1c3a: aa           	tax
    1c3b: f0 03        	beq	$1c40 <_ZN12_GLOBAL__N_15printEPKcP6Status+0x7a1>
    1c3d: 4c 95 1d     	jmp	$1d95 <_ZN12_GLOBAL__N_15printEPKcP6Status+0x8f6>
    1c40: 38           	sec
    1c41: a9 01        	lda	#$1
    1c43: a0 0a        	ldy	#$a
    1c45: 91 10        	sta	($10),y                 ; 0x2010 <_ZN12_GLOBAL__N_13putEcP6Status+0x2d>
    1c47: 64 12        	stz	$12                     ; 0x2012 <_ZN12_GLOBAL__N_13putEcP6Status+0x2f>
    1c49: 80 0b        	bra	$1c56 <_ZN12_GLOBAL__N_15printEPKcP6Status+0x7b7>
    1c4b: 18           	clc
    1c4c: a9 00        	lda	#$0
    1c4e: a0 0a        	ldy	#$a
    1c50: 91 10        	sta	($10),y                 ; 0x2010 <_ZN12_GLOBAL__N_13putEcP6Status+0x2d>
    1c52: a2 01        	ldx	#$1
    1c54: 86 12        	stx	$12                     ; 0x2012 <_ZN12_GLOBAL__N_13putEcP6Status+0x2f>
    1c56: a0 0c        	ldy	#$c
    1c58: b1 10        	lda	($10),y                 ; 0x2010 <_ZN12_GLOBAL__N_13putEcP6Status+0x2d>
    1c5a: a8           	tay
    1c5b: a5 29        	lda	$29                     ; 0x2029 <_ZN12_GLOBAL__N_13putEcP6Status+0x46>
    1c5d: d0 4d        	bne	$1cac <_ZN12_GLOBAL__N_15printEPKcP6Status+0x80d>
    1c5f: a6 28        	ldx	$28                     ; 0x2028 <_ZN12_GLOBAL__N_13putEcP6Status+0x45>
    1c61: 84 13        	sty	$13                     ; 0x2013 <_ZN12_GLOBAL__N_13putEcP6Status+0x30>
    1c63: e4 13        	cpx	$13                     ; 0x2013 <_ZN12_GLOBAL__N_13putEcP6Status+0x30>
    1c65: a5 28        	lda	$28                     ; 0x2028 <_ZN12_GLOBAL__N_13putEcP6Status+0x45>
    1c67: a6 29        	ldx	$29                     ; 0x2029 <_ZN12_GLOBAL__N_13putEcP6Status+0x46>
    1c69: b0 03        	bcs	$1c6e <_ZN12_GLOBAL__N_15printEPKcP6Status+0x7cf>
    1c6b: 98           	tya
    1c6c: a2 00        	ldx	#$0
    1c6e: 18           	clc
    1c6f: 85 19        	sta	$19                     ; 0x2019 <_ZN12_GLOBAL__N_13putEcP6Status+0x36>
    1c71: 65 12        	adc	$12                     ; 0x2012 <_ZN12_GLOBAL__N_13putEcP6Status+0x2f>
    1c73: 85 1c        	sta	$1c                     ; 0x201c <_ZN12_GLOBAL__N_13putEcP6Status+0x39>
    1c75: 85 13        	sta	$13                     ; 0x2013 <_ZN12_GLOBAL__N_13putEcP6Status+0x30>
    1c77: 86 1a        	stx	$1a                     ; 0x201a <_ZN12_GLOBAL__N_13putEcP6Status+0x37>
    1c79: 8a           	txa
    1c7a: 69 00        	adc	#$0
    1c7c: 85 14        	sta	$14                     ; 0x2014 <_ZN12_GLOBAL__N_13putEcP6Status+0x31>
    1c7e: 85 1d        	sta	$1d                     ; 0x201d <_ZN12_GLOBAL__N_13putEcP6Status+0x3a>
    1c80: a5 24        	lda	$24                     ; 0x2024 <_ZN12_GLOBAL__N_13putEcP6Status+0x41>
    1c82: 18           	clc
    1c83: 69 0b        	adc	#$b
    1c85: 85 16        	sta	$16                     ; 0x2016 <_ZN12_GLOBAL__N_13putEcP6Status+0x33>
    1c87: a5 25        	lda	$25                     ; 0x2025 <_ZN12_GLOBAL__N_13putEcP6Status+0x42>
    1c89: 69 00        	adc	#$0
    1c8b: a0 0b        	ldy	#$b
    1c8d: 85 17        	sta	$17                     ; 0x2017 <_ZN12_GLOBAL__N_13putEcP6Status+0x34>
    1c8f: b1 24        	lda	($24),y                 ; 0x2024 <_ZN12_GLOBAL__N_13putEcP6Status+0x41>
    1c91: 85 1b        	sta	$1b                     ; 0x201b <_ZN12_GLOBAL__N_13putEcP6Status+0x38>
    1c93: 85 15        	sta	$15                     ; 0x2015 <_ZN12_GLOBAL__N_13putEcP6Status+0x32>
    1c95: a0 01        	ldy	#$1
    1c97: b1 16        	lda	($16),y                 ; 0x2016 <_ZN12_GLOBAL__N_13putEcP6Status+0x33>
    1c99: 85 17        	sta	$17                     ; 0x2017 <_ZN12_GLOBAL__N_13putEcP6Status+0x34>
    1c9b: 85 16        	sta	$16                     ; 0x2016 <_ZN12_GLOBAL__N_13putEcP6Status+0x33>
    1c9d: a5 1d        	lda	$1d                     ; 0x201d <_ZN12_GLOBAL__N_13putEcP6Status+0x3a>
    1c9f: c5 16        	cmp	$16                     ; 0x2016 <_ZN12_GLOBAL__N_13putEcP6Status+0x33>
    1ca1: d0 13        	bne	$1cb6 <_ZN12_GLOBAL__N_15printEPKcP6Status+0x817>
    1ca3: a6 1c        	ldx	$1c                     ; 0x201c <_ZN12_GLOBAL__N_13putEcP6Status+0x39>
    1ca5: e4 15        	cpx	$15                     ; 0x2015 <_ZN12_GLOBAL__N_13putEcP6Status+0x32>
    1ca7: 90 13        	bcc	$1cbc <_ZN12_GLOBAL__N_15printEPKcP6Status+0x81d>
    1ca9: 4c 04 1d     	jmp	$1d04 <_ZN12_GLOBAL__N_15printEPKcP6Status+0x865>
    1cac: a6 29        	ldx	$29                     ; 0x2029 <_ZN12_GLOBAL__N_13putEcP6Status+0x46>
    1cae: e0 00        	cpx	#$0
    1cb0: a5 28        	lda	$28                     ; 0x2028 <_ZN12_GLOBAL__N_13putEcP6Status+0x45>
    1cb2: 90 b7        	bcc	$1c6b <_ZN12_GLOBAL__N_15printEPKcP6Status+0x7cc>
    1cb4: 80 b8        	bra	$1c6e <_ZN12_GLOBAL__N_15printEPKcP6Status+0x7cf>
    1cb6: a6 1d        	ldx	$1d                     ; 0x201d <_ZN12_GLOBAL__N_13putEcP6Status+0x3a>
    1cb8: e4 16        	cpx	$16                     ; 0x2016 <_ZN12_GLOBAL__N_13putEcP6Status+0x33>
    1cba: b0 48        	bcs	$1d04 <_ZN12_GLOBAL__N_15printEPKcP6Status+0x865>
    1cbc: a5 18        	lda	$18                     ; 0x2018 <_ZN12_GLOBAL__N_13putEcP6Status+0x35>
    1cbe: 29 11        	and	#$11
    1cc0: f0 0d        	beq	$1ccf <_ZN12_GLOBAL__N_15printEPKcP6Status+0x830>
    1cc2: a5 1b        	lda	$1b                     ; 0x201b <_ZN12_GLOBAL__N_13putEcP6Status+0x38>
    1cc4: 38           	sec
    1cc5: e5 13        	sbc	$13                     ; 0x2013 <_ZN12_GLOBAL__N_13putEcP6Status+0x30>
    1cc7: 85 2a        	sta	$2a                     ; 0x202a <_ZN12_GLOBAL__N_13putEcP6Status+0x47>
    1cc9: a5 17        	lda	$17                     ; 0x2017 <_ZN12_GLOBAL__N_13putEcP6Status+0x34>
    1ccb: e5 14        	sbc	$14                     ; 0x2014 <_ZN12_GLOBAL__N_13putEcP6Status+0x31>
    1ccd: 80 37        	bra	$1d06 <_ZN12_GLOBAL__N_15printEPKcP6Status+0x867>
    1ccf: 18           	clc
    1cd0: a5 19        	lda	$19                     ; 0x2019 <_ZN12_GLOBAL__N_13putEcP6Status+0x36>
    1cd2: 65 12        	adc	$12                     ; 0x2012 <_ZN12_GLOBAL__N_13putEcP6Status+0x2f>
    1cd4: aa           	tax
    1cd5: a5 1a        	lda	$1a                     ; 0x201a <_ZN12_GLOBAL__N_13putEcP6Status+0x37>
    1cd7: 69 00        	adc	#$0
    1cd9: 85 12        	sta	$12                     ; 0x2012 <_ZN12_GLOBAL__N_13putEcP6Status+0x2f>
    1cdb: 38           	sec
    1cdc: 8a           	txa
    1cdd: e5 15        	sbc	$15                     ; 0x2015 <_ZN12_GLOBAL__N_13putEcP6Status+0x32>
    1cdf: 85 2b        	sta	$2b                     ; 0x202b <_ZN12_GLOBAL__N_13putEcP6Status+0x48>
    1ce1: a5 12        	lda	$12                     ; 0x2012 <_ZN12_GLOBAL__N_13putEcP6Status+0x2f>
    1ce3: e5 16        	sbc	$16                     ; 0x2016 <_ZN12_GLOBAL__N_13putEcP6Status+0x33>
    1ce5: 85 2c        	sta	$2c                     ; 0x202c <_ZN12_GLOBAL__N_13putEcP6Status+0x49>
    1ce7: a6 24        	ldx	$24                     ; 0x2024 <_ZN12_GLOBAL__N_13putEcP6Status+0x41>
    1ce9: 86 12        	stx	$12                     ; 0x2012 <_ZN12_GLOBAL__N_13putEcP6Status+0x2f>
    1ceb: a6 25        	ldx	$25                     ; 0x2025 <_ZN12_GLOBAL__N_13putEcP6Status+0x42>
    1ced: 86 13        	stx	$13                     ; 0x2013 <_ZN12_GLOBAL__N_13putEcP6Status+0x30>
    1cef: a9 20        	lda	#$20
    1cf1: 20 e3 1f     	jsr	$1fe3 <_ZN12_GLOBAL__N_13putEcP6Status>
    1cf4: a6 2c        	ldx	$2c                     ; 0x202c <_ZN12_GLOBAL__N_13putEcP6Status+0x49>
    1cf6: e6 2b        	inc	$2b                     ; 0x202b <_ZN12_GLOBAL__N_13putEcP6Status+0x48>
    1cf8: d0 01        	bne	$1cfb <_ZN12_GLOBAL__N_15printEPKcP6Status+0x85c>
    1cfa: e8           	inx
    1cfb: 86 2c        	stx	$2c                     ; 0x202c <_ZN12_GLOBAL__N_13putEcP6Status+0x49>
    1cfd: 8a           	txa
    1cfe: d0 e7        	bne	$1ce7 <_ZN12_GLOBAL__N_15printEPKcP6Status+0x848>
    1d00: a5 2b        	lda	$2b                     ; 0x202b <_ZN12_GLOBAL__N_13putEcP6Status+0x48>
    1d02: d0 e3        	bne	$1ce7 <_ZN12_GLOBAL__N_15printEPKcP6Status+0x848>
    1d04: a9 00        	lda	#$0
    1d06: 85 2b        	sta	$2b                     ; 0x202b <_ZN12_GLOBAL__N_13putEcP6Status+0x48>
    1d08: a0 0a        	ldy	#$a
    1d0a: b1 10        	lda	($10),y                 ; 0x2010 <_ZN12_GLOBAL__N_13putEcP6Status+0x2d>
    1d0c: 85 12        	sta	$12                     ; 0x2012 <_ZN12_GLOBAL__N_13putEcP6Status+0x2f>
    1d0e: a5 12        	lda	$12                     ; 0x2012 <_ZN12_GLOBAL__N_13putEcP6Status+0x2f>
    1d10: d0 0f        	bne	$1d21 <_ZN12_GLOBAL__N_15printEPKcP6Status+0x882>
    1d12: a6 24        	ldx	$24                     ; 0x2024 <_ZN12_GLOBAL__N_13putEcP6Status+0x41>
    1d14: 86 12        	stx	$12                     ; 0x2012 <_ZN12_GLOBAL__N_13putEcP6Status+0x2f>
    1d16: a6 25        	ldx	$25                     ; 0x2025 <_ZN12_GLOBAL__N_13putEcP6Status+0x42>
    1d18: 86 13        	stx	$13                     ; 0x2013 <_ZN12_GLOBAL__N_13putEcP6Status+0x30>
    1d1a: a0 09        	ldy	#$9
    1d1c: b1 10        	lda	($10),y                 ; 0x2010 <_ZN12_GLOBAL__N_13putEcP6Status+0x2d>
    1d1e: 20 e3 1f     	jsr	$1fe3 <_ZN12_GLOBAL__N_13putEcP6Status>
    1d21: a0 0b        	ldy	#$b
    1d23: b1 10        	lda	($10),y                 ; 0x2010 <_ZN12_GLOBAL__N_13putEcP6Status+0x2d>
    1d25: 85 12        	sta	$12                     ; 0x2012 <_ZN12_GLOBAL__N_13putEcP6Status+0x2f>
    1d27: a5 12        	lda	$12                     ; 0x2012 <_ZN12_GLOBAL__N_13putEcP6Status+0x2f>
    1d29: f0 0f        	beq	$1d3a <_ZN12_GLOBAL__N_15printEPKcP6Status+0x89b>
    1d2b: a6 24        	ldx	$24                     ; 0x2024 <_ZN12_GLOBAL__N_13putEcP6Status+0x41>
    1d2d: 86 12        	stx	$12                     ; 0x2012 <_ZN12_GLOBAL__N_13putEcP6Status+0x2f>
    1d2f: a6 25        	ldx	$25                     ; 0x2025 <_ZN12_GLOBAL__N_13putEcP6Status+0x42>
    1d31: 86 13        	stx	$13                     ; 0x2013 <_ZN12_GLOBAL__N_13putEcP6Status+0x30>
    1d33: a0 08        	ldy	#$8
    1d35: b1 10        	lda	($10),y                 ; 0x2010 <_ZN12_GLOBAL__N_13putEcP6Status+0x2d>
    1d37: 20 e3 1f     	jsr	$1fe3 <_ZN12_GLOBAL__N_13putEcP6Status>
    1d3a: a0 01        	ldy	#$1
    1d3c: b1 24        	lda	($24),y                 ; 0x2024 <_ZN12_GLOBAL__N_13putEcP6Status+0x41>
    1d3e: aa           	tax
    1d3f: 29 10        	and	#$10
    1d41: f0 3a        	beq	$1d7d <_ZN12_GLOBAL__N_15printEPKcP6Status+0x8de>
    1d43: 8a           	txa
    1d44: 29 01        	and	#$1
    1d46: 48           	pha
    1d47: a0 0c        	ldy	#$c
    1d49: b1 10        	lda	($10),y                 ; 0x2010 <_ZN12_GLOBAL__N_13putEcP6Status+0x2d>
    1d4b: aa           	tax
    1d4c: 68           	pla
    1d4d: d0 33        	bne	$1d82 <_ZN12_GLOBAL__N_15printEPKcP6Status+0x8e3>
    1d4f: a5 2b        	lda	$2b                     ; 0x202b <_ZN12_GLOBAL__N_13putEcP6Status+0x48>
    1d51: d0 07        	bne	$1d5a <_ZN12_GLOBAL__N_15printEPKcP6Status+0x8bb>
    1d53: a5 2a        	lda	$2a                     ; 0x202a <_ZN12_GLOBAL__N_13putEcP6Status+0x47>
    1d55: d0 03        	bne	$1d5a <_ZN12_GLOBAL__N_15printEPKcP6Status+0x8bb>
    1d57: 4c e9 1d     	jmp	$1de9 <_ZN12_GLOBAL__N_15printEPKcP6Status+0x94a>
    1d5a: a6 24        	ldx	$24                     ; 0x2024 <_ZN12_GLOBAL__N_13putEcP6Status+0x41>
    1d5c: 86 12        	stx	$12                     ; 0x2012 <_ZN12_GLOBAL__N_13putEcP6Status+0x2f>
    1d5e: a6 25        	ldx	$25                     ; 0x2025 <_ZN12_GLOBAL__N_13putEcP6Status+0x42>
    1d60: 86 13        	stx	$13                     ; 0x2013 <_ZN12_GLOBAL__N_13putEcP6Status+0x30>
    1d62: a9 30        	lda	#$30
    1d64: 20 e3 1f     	jsr	$1fe3 <_ZN12_GLOBAL__N_13putEcP6Status>
    1d67: a2 ff        	ldx	#$ff
    1d69: c6 2a        	dec	$2a                     ; 0x202a <_ZN12_GLOBAL__N_13putEcP6Status+0x47>
    1d6b: e4 2a        	cpx	$2a                     ; 0x202a <_ZN12_GLOBAL__N_13putEcP6Status+0x47>
    1d6d: d0 02        	bne	$1d71 <_ZN12_GLOBAL__N_15printEPKcP6Status+0x8d2>
    1d6f: c6 2b        	dec	$2b                     ; 0x202b <_ZN12_GLOBAL__N_13putEcP6Status+0x48>
    1d71: a5 2b        	lda	$2b                     ; 0x202b <_ZN12_GLOBAL__N_13putEcP6Status+0x48>
    1d73: d0 e5        	bne	$1d5a <_ZN12_GLOBAL__N_15printEPKcP6Status+0x8bb>
    1d75: a5 2a        	lda	$2a                     ; 0x202a <_ZN12_GLOBAL__N_13putEcP6Status+0x47>
    1d77: d0 e1        	bne	$1d5a <_ZN12_GLOBAL__N_15printEPKcP6Status+0x8bb>
    1d79: 64 2a        	stz	$2a                     ; 0x202a <_ZN12_GLOBAL__N_13putEcP6Status+0x47>
    1d7b: 64 2b        	stz	$2b                     ; 0x202b <_ZN12_GLOBAL__N_13putEcP6Status+0x48>
    1d7d: a0 0c        	ldy	#$c
    1d7f: b1 10        	lda	($10),y                 ; 0x2010 <_ZN12_GLOBAL__N_13putEcP6Status+0x2d>
    1d81: aa           	tax
    1d82: a0 00        	ldy	#$0
    1d84: c4 29        	cpy	$29                     ; 0x2029 <_ZN12_GLOBAL__N_13putEcP6Status+0x46>
    1d86: d0 03        	bne	$1d8b <_ZN12_GLOBAL__N_15printEPKcP6Status+0x8ec>
    1d88: 4c f5 1d     	jmp	$1df5 <_ZN12_GLOBAL__N_15printEPKcP6Status+0x956>
    1d8b: c4 29        	cpy	$29                     ; 0x2029 <_ZN12_GLOBAL__N_13putEcP6Status+0x46>
    1d8d: b0 03        	bcs	$1d92 <_ZN12_GLOBAL__N_15printEPKcP6Status+0x8f3>
    1d8f: 4c f9 1d     	jmp	$1df9 <_ZN12_GLOBAL__N_15printEPKcP6Status+0x95a>
    1d92: 4c 1f 1e     	jmp	$1e1f <_ZN12_GLOBAL__N_15printEPKcP6Status+0x980>
    1d95: a2 20        	ldx	#$20
    1d97: 5a           	phy
    1d98: 8a           	txa
    1d99: a0 09        	ldy	#$9
    1d9b: 91 10        	sta	($10),y                 ; 0x2010 <_ZN12_GLOBAL__N_13putEcP6Status+0x2d>
    1d9d: 18           	clc
    1d9e: a9 00        	lda	#$0
    1da0: 4c 1e 1c     	jmp	$1c1e <_ZN12_GLOBAL__N_15printEPKcP6Status+0x77f>
    1da3: e4 29        	cpx	$29                     ; 0x2029 <_ZN12_GLOBAL__N_13putEcP6Status+0x46>
    1da5: a5 18        	lda	$18                     ; 0x2018 <_ZN12_GLOBAL__N_13putEcP6Status+0x35>
    1da7: b0 03        	bcs	$1dac <_ZN12_GLOBAL__N_15printEPKcP6Status+0x90d>
    1da9: 4c 06 1c     	jmp	$1c06 <_ZN12_GLOBAL__N_15printEPKcP6Status+0x767>
    1dac: 48           	pha
    1dad: 5a           	phy
    1dae: a0 0c        	ldy	#$c
    1db0: b1 10        	lda	($10),y                 ; 0x2010 <_ZN12_GLOBAL__N_13putEcP6Status+0x2d>
    1db2: 7a           	ply
    1db3: 85 28        	sta	$28                     ; 0x2028 <_ZN12_GLOBAL__N_13putEcP6Status+0x45>
    1db5: 68           	pla
    1db6: e6 28        	inc	$28                     ; 0x2028 <_ZN12_GLOBAL__N_13putEcP6Status+0x45>
    1db8: d0 01        	bne	$1dbb <_ZN12_GLOBAL__N_15printEPKcP6Status+0x91c>
    1dba: e8           	inx
    1dbb: 86 29        	stx	$29                     ; 0x2029 <_ZN12_GLOBAL__N_13putEcP6Status+0x46>
    1dbd: 4c 06 1c     	jmp	$1c06 <_ZN12_GLOBAL__N_15printEPKcP6Status+0x767>
    1dc0: a2 58        	ldx	#$58
    1dc2: 8a           	txa
    1dc3: a0 08        	ldy	#$8
    1dc5: 91 10        	sta	($10),y                 ; 0x2010 <_ZN12_GLOBAL__N_13putEcP6Status+0x2d>
    1dc7: a0 0c        	ldy	#$c
    1dc9: b1 10        	lda	($10),y                 ; 0x2010 <_ZN12_GLOBAL__N_13putEcP6Status+0x2d>
    1dcb: a8           	tay
    1dcc: 38           	sec
    1dcd: 5a           	phy
    1dce: a9 01        	lda	#$1
    1dd0: a0 0b        	ldy	#$b
    1dd2: 91 10        	sta	($10),y                 ; 0x2010 <_ZN12_GLOBAL__N_13putEcP6Status+0x2d>
    1dd4: a2 30        	ldx	#$30
    1dd6: 8a           	txa
    1dd7: a0 09        	ldy	#$9
    1dd9: 91 10        	sta	($10),y                 ; 0x2010 <_ZN12_GLOBAL__N_13putEcP6Status+0x2d>
    1ddb: a2 02        	ldx	#$2
    1ddd: 18           	clc
    1dde: a9 00        	lda	#$0
    1de0: c8           	iny
    1de1: 91 10        	sta	($10),y                 ; 0x2010 <_ZN12_GLOBAL__N_13putEcP6Status+0x2d>
    1de3: 7a           	ply
    1de4: 86 12        	stx	$12                     ; 0x2012 <_ZN12_GLOBAL__N_13putEcP6Status+0x2f>
    1de6: 4c 5b 1c     	jmp	$1c5b <_ZN12_GLOBAL__N_15printEPKcP6Status+0x7bc>
    1de9: 64 2a        	stz	$2a                     ; 0x202a <_ZN12_GLOBAL__N_13putEcP6Status+0x47>
    1deb: 64 2b        	stz	$2b                     ; 0x202b <_ZN12_GLOBAL__N_13putEcP6Status+0x48>
    1ded: 4c 82 1d     	jmp	$1d82 <_ZN12_GLOBAL__N_15printEPKcP6Status+0x8e3>
    1df0: a0 0c        	ldy	#$c
    1df2: b1 10        	lda	($10),y                 ; 0x2010 <_ZN12_GLOBAL__N_13putEcP6Status+0x2d>
    1df4: aa           	tax
    1df5: e4 28        	cpx	$28                     ; 0x2028 <_ZN12_GLOBAL__N_13putEcP6Status+0x45>
    1df7: b0 26        	bcs	$1e1f <_ZN12_GLOBAL__N_15printEPKcP6Status+0x980>
    1df9: a2 ff        	ldx	#$ff
    1dfb: c6 28        	dec	$28                     ; 0x2028 <_ZN12_GLOBAL__N_13putEcP6Status+0x45>
    1dfd: e4 28        	cpx	$28                     ; 0x2028 <_ZN12_GLOBAL__N_13putEcP6Status+0x45>
    1dff: d0 02        	bne	$1e03 <_ZN12_GLOBAL__N_15printEPKcP6Status+0x964>
    1e01: c6 29        	dec	$29                     ; 0x2029 <_ZN12_GLOBAL__N_13putEcP6Status+0x46>
    1e03: a6 24        	ldx	$24                     ; 0x2024 <_ZN12_GLOBAL__N_13putEcP6Status+0x41>
    1e05: 86 12        	stx	$12                     ; 0x2012 <_ZN12_GLOBAL__N_13putEcP6Status+0x2f>
    1e07: a6 25        	ldx	$25                     ; 0x2025 <_ZN12_GLOBAL__N_13putEcP6Status+0x42>
    1e09: 86 13        	stx	$13                     ; 0x2013 <_ZN12_GLOBAL__N_13putEcP6Status+0x30>
    1e0b: a9 30        	lda	#$30
    1e0d: 20 e3 1f     	jsr	$1fe3 <_ZN12_GLOBAL__N_13putEcP6Status>
    1e10: a2 00        	ldx	#$0
    1e12: e4 29        	cpx	$29                     ; 0x2029 <_ZN12_GLOBAL__N_13putEcP6Status+0x46>
    1e14: f0 da        	beq	$1df0 <_ZN12_GLOBAL__N_15printEPKcP6Status+0x951>
    1e16: e4 29        	cpx	$29                     ; 0x2029 <_ZN12_GLOBAL__N_13putEcP6Status+0x46>
    1e18: a0 0c        	ldy	#$c
    1e1a: b1 10        	lda	($10),y                 ; 0x2010 <_ZN12_GLOBAL__N_13putEcP6Status+0x2d>
    1e1c: aa           	tax
    1e1d: 90 da        	bcc	$1df9 <_ZN12_GLOBAL__N_15printEPKcP6Status+0x95a>
    1e1f: a4 2b        	ldy	$2b                     ; 0x202b <_ZN12_GLOBAL__N_13putEcP6Status+0x48>
    1e21: 84 2c        	sty	$2c                     ; 0x202c <_ZN12_GLOBAL__N_13putEcP6Status+0x49>
    1e23: 8a           	txa
    1e24: d0 03        	bne	$1e29 <_ZN12_GLOBAL__N_15printEPKcP6Status+0x98a>
    1e26: 4c d3 1e     	jmp	$1ed3 <_ZN12_GLOBAL__N_15printEPKcP6Status+0xa34>
    1e29: ca           	dex
    1e2a: d0 03        	bne	$1e2f <_ZN12_GLOBAL__N_15printEPKcP6Status+0x990>
    1e2c: 4c 95 1e     	jmp	$1e95 <_ZN12_GLOBAL__N_15printEPKcP6Status+0x9f6>
    1e2f: 86 2b        	stx	$2b                     ; 0x202b <_ZN12_GLOBAL__N_13putEcP6Status+0x48>
    1e31: 18           	clc
    1e32: a5 10        	lda	$10                     ; 0x2010 <_ZN12_GLOBAL__N_13putEcP6Status+0x2d>
    1e34: 69 18        	adc	#$18
    1e36: 48           	pha
    1e37: a5 11        	lda	$11                     ; 0x2011 <_ZN12_GLOBAL__N_13putEcP6Status+0x2e>
    1e39: 69 00        	adc	#$0
    1e3b: 85 12        	sta	$12                     ; 0x2012 <_ZN12_GLOBAL__N_13putEcP6Status+0x2f>
    1e3d: 68           	pla
    1e3e: 18           	clc
    1e3f: 65 2b        	adc	$2b                     ; 0x202b <_ZN12_GLOBAL__N_13putEcP6Status+0x48>
    1e41: aa           	tax
    1e42: a5 12        	lda	$12                     ; 0x2012 <_ZN12_GLOBAL__N_13putEcP6Status+0x2f>
    1e44: 69 00        	adc	#$0
    1e46: 85 12        	sta	$12                     ; 0x2012 <_ZN12_GLOBAL__N_13putEcP6Status+0x2f>
    1e48: 18           	clc
    1e49: 8a           	txa
    1e4a: 69 02        	adc	#$2
    1e4c: 85 28        	sta	$28                     ; 0x2028 <_ZN12_GLOBAL__N_13putEcP6Status+0x45>
    1e4e: a5 12        	lda	$12                     ; 0x2012 <_ZN12_GLOBAL__N_13putEcP6Status+0x2f>
    1e50: 69 00        	adc	#$0
    1e52: 85 29        	sta	$29                     ; 0x2029 <_ZN12_GLOBAL__N_13putEcP6Status+0x46>
    1e54: 80 35        	bra	$1e8b <_ZN12_GLOBAL__N_15printEPKcP6Status+0x9ec>
    1e56: 85 13        	sta	$13                     ; 0x2013 <_ZN12_GLOBAL__N_13putEcP6Status+0x30>
    1e58: a9 80        	lda	#$80
    1e5a: a0 01        	ldy	#$1
    1e5c: 31 24        	and	($24),y                 ; 0x2024 <_ZN12_GLOBAL__N_13putEcP6Status+0x41>
    1e5e: f0 04        	beq	$1e64 <_ZN12_GLOBAL__N_15printEPKcP6Status+0x9c5>
    1e60: a2 61        	ldx	#$61
    1e62: 80 02        	bra	$1e66 <_ZN12_GLOBAL__N_15printEPKcP6Status+0x9c7>
    1e64: a2 41        	ldx	#$41
    1e66: 86 12        	stx	$12                     ; 0x2012 <_ZN12_GLOBAL__N_13putEcP6Status+0x2f>
    1e68: 18           	clc
    1e69: a5 13        	lda	$13                     ; 0x2013 <_ZN12_GLOBAL__N_13putEcP6Status+0x30>
    1e6b: 65 12        	adc	$12                     ; 0x2012 <_ZN12_GLOBAL__N_13putEcP6Status+0x2f>
    1e6d: 18           	clc
    1e6e: 69 f6        	adc	#$f6
    1e70: a6 24        	ldx	$24                     ; 0x2024 <_ZN12_GLOBAL__N_13putEcP6Status+0x41>
    1e72: 86 12        	stx	$12                     ; 0x2012 <_ZN12_GLOBAL__N_13putEcP6Status+0x2f>
    1e74: a6 25        	ldx	$25                     ; 0x2025 <_ZN12_GLOBAL__N_13putEcP6Status+0x42>
    1e76: 86 13        	stx	$13                     ; 0x2013 <_ZN12_GLOBAL__N_13putEcP6Status+0x30>
    1e78: 20 e3 1f     	jsr	$1fe3 <_ZN12_GLOBAL__N_13putEcP6Status>
    1e7b: c6 2b        	dec	$2b                     ; 0x202b <_ZN12_GLOBAL__N_13putEcP6Status+0x48>
    1e7d: a2 ff        	ldx	#$ff
    1e7f: c6 28        	dec	$28                     ; 0x2028 <_ZN12_GLOBAL__N_13putEcP6Status+0x45>
    1e81: e4 28        	cpx	$28                     ; 0x2028 <_ZN12_GLOBAL__N_13putEcP6Status+0x45>
    1e83: d0 02        	bne	$1e87 <_ZN12_GLOBAL__N_15printEPKcP6Status+0x9e8>
    1e85: c6 29        	dec	$29                     ; 0x2029 <_ZN12_GLOBAL__N_13putEcP6Status+0x46>
    1e87: a5 2b        	lda	$2b                     ; 0x202b <_ZN12_GLOBAL__N_13putEcP6Status+0x48>
    1e89: f0 0a        	beq	$1e95 <_ZN12_GLOBAL__N_15printEPKcP6Status+0x9f6>
    1e8b: b2 28        	lda	($28)                   ; 0x2028 <_ZN12_GLOBAL__N_13putEcP6Status+0x45>
    1e8d: c9 0a        	cmp	#$a
    1e8f: b0 c5        	bcs	$1e56 <_ZN12_GLOBAL__N_15printEPKcP6Status+0x9b7>
    1e91: 09 30        	ora	#$30
    1e93: 80 db        	bra	$1e70 <_ZN12_GLOBAL__N_15printEPKcP6Status+0x9d1>
    1e95: a0 02        	ldy	#$2
    1e97: 18           	clc
    1e98: a5 10        	lda	$10                     ; 0x2010 <_ZN12_GLOBAL__N_13putEcP6Status+0x2d>
    1e9a: 69 18        	adc	#$18
    1e9c: 85 12        	sta	$12                     ; 0x2012 <_ZN12_GLOBAL__N_13putEcP6Status+0x2f>
    1e9e: a5 11        	lda	$11                     ; 0x2011 <_ZN12_GLOBAL__N_13putEcP6Status+0x2e>
    1ea0: 69 00        	adc	#$0
    1ea2: 85 13        	sta	$13                     ; 0x2013 <_ZN12_GLOBAL__N_13putEcP6Status+0x30>
    1ea4: b1 12        	lda	($12),y                 ; 0x2012 <_ZN12_GLOBAL__N_13putEcP6Status+0x2f>
    1ea6: c9 0a        	cmp	#$a
    1ea8: b0 04        	bcs	$1eae <_ZN12_GLOBAL__N_15printEPKcP6Status+0xa0f>
    1eaa: 09 30        	ora	#$30
    1eac: 80 1a        	bra	$1ec8 <_ZN12_GLOBAL__N_15printEPKcP6Status+0xa29>
    1eae: 85 13        	sta	$13                     ; 0x2013 <_ZN12_GLOBAL__N_13putEcP6Status+0x30>
    1eb0: a0 01        	ldy	#$1
    1eb2: a9 80        	lda	#$80
    1eb4: 31 24        	and	($24),y                 ; 0x2024 <_ZN12_GLOBAL__N_13putEcP6Status+0x41>
    1eb6: f0 04        	beq	$1ebc <_ZN12_GLOBAL__N_15printEPKcP6Status+0xa1d>
    1eb8: a2 61        	ldx	#$61
    1eba: 80 02        	bra	$1ebe <_ZN12_GLOBAL__N_15printEPKcP6Status+0xa1f>
    1ebc: a2 41        	ldx	#$41
    1ebe: 86 12        	stx	$12                     ; 0x2012 <_ZN12_GLOBAL__N_13putEcP6Status+0x2f>
    1ec0: a5 13        	lda	$13                     ; 0x2013 <_ZN12_GLOBAL__N_13putEcP6Status+0x30>
    1ec2: 18           	clc
    1ec3: 65 12        	adc	$12                     ; 0x2012 <_ZN12_GLOBAL__N_13putEcP6Status+0x2f>
    1ec5: 18           	clc
    1ec6: 69 f6        	adc	#$f6
    1ec8: a6 24        	ldx	$24                     ; 0x2024 <_ZN12_GLOBAL__N_13putEcP6Status+0x41>
    1eca: 86 12        	stx	$12                     ; 0x2012 <_ZN12_GLOBAL__N_13putEcP6Status+0x2f>
    1ecc: a6 25        	ldx	$25                     ; 0x2025 <_ZN12_GLOBAL__N_13putEcP6Status+0x42>
    1ece: 86 13        	stx	$13                     ; 0x2013 <_ZN12_GLOBAL__N_13putEcP6Status+0x30>
    1ed0: 20 e3 1f     	jsr	$1fe3 <_ZN12_GLOBAL__N_13putEcP6Status>
    1ed3: a0 01        	ldy	#$1
    1ed5: 98           	tya
    1ed6: 31 24        	and	($24),y                 ; 0x2024 <_ZN12_GLOBAL__N_13putEcP6Status+0x41>
    1ed8: f0 21        	beq	$1efb <_ZN12_GLOBAL__N_15printEPKcP6Status+0xa5c>
    1eda: a5 2c        	lda	$2c                     ; 0x202c <_ZN12_GLOBAL__N_13putEcP6Status+0x49>
    1edc: f0 19        	beq	$1ef7 <_ZN12_GLOBAL__N_15printEPKcP6Status+0xa58>
    1ede: a6 24        	ldx	$24                     ; 0x2024 <_ZN12_GLOBAL__N_13putEcP6Status+0x41>
    1ee0: 86 12        	stx	$12                     ; 0x2012 <_ZN12_GLOBAL__N_13putEcP6Status+0x2f>
    1ee2: a6 25        	ldx	$25                     ; 0x2025 <_ZN12_GLOBAL__N_13putEcP6Status+0x42>
    1ee4: 86 13        	stx	$13                     ; 0x2013 <_ZN12_GLOBAL__N_13putEcP6Status+0x30>
    1ee6: a9 20        	lda	#$20
    1ee8: 20 e3 1f     	jsr	$1fe3 <_ZN12_GLOBAL__N_13putEcP6Status>
    1eeb: a2 ff        	ldx	#$ff
    1eed: c6 2a        	dec	$2a                     ; 0x202a <_ZN12_GLOBAL__N_13putEcP6Status+0x47>
    1eef: e4 2a        	cpx	$2a                     ; 0x202a <_ZN12_GLOBAL__N_13putEcP6Status+0x47>
    1ef1: d0 e7        	bne	$1eda <_ZN12_GLOBAL__N_15printEPKcP6Status+0xa3b>
    1ef3: c6 2c        	dec	$2c                     ; 0x202c <_ZN12_GLOBAL__N_13putEcP6Status+0x49>
    1ef5: 80 e3        	bra	$1eda <_ZN12_GLOBAL__N_15printEPKcP6Status+0xa3b>
    1ef7: a5 2a        	lda	$2a                     ; 0x202a <_ZN12_GLOBAL__N_13putEcP6Status+0x47>
    1ef9: d0 e3        	bne	$1ede <_ZN12_GLOBAL__N_15printEPKcP6Status+0xa3f>
    1efb: a4 24        	ldy	$24                     ; 0x2024 <_ZN12_GLOBAL__N_13putEcP6Status+0x41>
    1efd: a5 24        	lda	$24                     ; 0x2024 <_ZN12_GLOBAL__N_13putEcP6Status+0x41>
    1eff: 84 14        	sty	$14                     ; 0x2014 <_ZN12_GLOBAL__N_13putEcP6Status+0x31>
    1f01: 18           	clc
    1f02: 69 05        	adc	#$5
    1f04: 85 12        	sta	$12                     ; 0x2012 <_ZN12_GLOBAL__N_13putEcP6Status+0x2f>
    1f06: a5 25        	lda	$25                     ; 0x2025 <_ZN12_GLOBAL__N_13putEcP6Status+0x42>
    1f08: 69 00        	adc	#$0
    1f0a: 18           	clc
    1f0b: 85 13        	sta	$13                     ; 0x2013 <_ZN12_GLOBAL__N_13putEcP6Status+0x30>
    1f0d: a0 01        	ldy	#$1
    1f0f: a5 14        	lda	$14                     ; 0x2014 <_ZN12_GLOBAL__N_13putEcP6Status+0x31>
    1f11: 69 03        	adc	#$3
    1f13: 85 14        	sta	$14                     ; 0x2014 <_ZN12_GLOBAL__N_13putEcP6Status+0x31>
    1f15: a5 25        	lda	$25                     ; 0x2025 <_ZN12_GLOBAL__N_13putEcP6Status+0x42>
    1f17: 69 00        	adc	#$0
    1f19: aa           	tax
    1f1a: b1 12        	lda	($12),y                 ; 0x2012 <_ZN12_GLOBAL__N_13putEcP6Status+0x2f>
    1f1c: 85 15        	sta	$15                     ; 0x2015 <_ZN12_GLOBAL__N_13putEcP6Status+0x32>
    1f1e: a4 14        	ldy	$14                     ; 0x2014 <_ZN12_GLOBAL__N_13putEcP6Status+0x31>
    1f20: 84 12        	sty	$12                     ; 0x2012 <_ZN12_GLOBAL__N_13putEcP6Status+0x2f>
    1f22: 86 13        	stx	$13                     ; 0x2013 <_ZN12_GLOBAL__N_13putEcP6Status+0x30>
    1f24: a0 03        	ldy	#$3
    1f26: b1 24        	lda	($24),y                 ; 0x2024 <_ZN12_GLOBAL__N_13putEcP6Status+0x41>
    1f28: aa           	tax
    1f29: a0 01        	ldy	#$1
    1f2b: b1 12        	lda	($12),y                 ; 0x2012 <_ZN12_GLOBAL__N_13putEcP6Status+0x2f>
    1f2d: 85 12        	sta	$12                     ; 0x2012 <_ZN12_GLOBAL__N_13putEcP6Status+0x2f>
    1f2f: a4 15        	ldy	$15                     ; 0x2015 <_ZN12_GLOBAL__N_13putEcP6Status+0x32>
    1f31: c4 12        	cpy	$12                     ; 0x2012 <_ZN12_GLOBAL__N_13putEcP6Status+0x2f>
    1f33: d0 10        	bne	$1f45 <_ZN12_GLOBAL__N_15printEPKcP6Status+0xaa6>
    1f35: a0 05        	ldy	#$5
    1f37: 85 15        	sta	$15                     ; 0x2015 <_ZN12_GLOBAL__N_13putEcP6Status+0x32>
    1f39: b1 24        	lda	($24),y                 ; 0x2024 <_ZN12_GLOBAL__N_13putEcP6Status+0x41>
    1f3b: 86 13        	stx	$13                     ; 0x2013 <_ZN12_GLOBAL__N_13putEcP6Status+0x30>
    1f3d: 86 12        	stx	$12                     ; 0x2012 <_ZN12_GLOBAL__N_13putEcP6Status+0x2f>
    1f3f: c5 12        	cmp	$12                     ; 0x2012 <_ZN12_GLOBAL__N_13putEcP6Status+0x2f>
    1f41: b0 10        	bcs	$1f53 <_ZN12_GLOBAL__N_15printEPKcP6Status+0xab4>
    1f43: 80 43        	bra	$1f88 <_ZN12_GLOBAL__N_15printEPKcP6Status+0xae9>
    1f45: 84 14        	sty	$14                     ; 0x2014 <_ZN12_GLOBAL__N_13putEcP6Status+0x31>
    1f47: 86 13        	stx	$13                     ; 0x2013 <_ZN12_GLOBAL__N_13putEcP6Status+0x30>
    1f49: 85 12        	sta	$12                     ; 0x2012 <_ZN12_GLOBAL__N_13putEcP6Status+0x2f>
    1f4b: a6 14        	ldx	$14                     ; 0x2014 <_ZN12_GLOBAL__N_13putEcP6Status+0x31>
    1f4d: e4 12        	cpx	$12                     ; 0x2012 <_ZN12_GLOBAL__N_13putEcP6Status+0x2f>
    1f4f: 85 15        	sta	$15                     ; 0x2015 <_ZN12_GLOBAL__N_13putEcP6Status+0x32>
    1f51: 90 35        	bcc	$1f88 <_ZN12_GLOBAL__N_15printEPKcP6Status+0xae9>
    1f53: a6 13        	ldx	$13                     ; 0x2013 <_ZN12_GLOBAL__N_13putEcP6Status+0x30>
    1f55: a5 15        	lda	$15                     ; 0x2015 <_ZN12_GLOBAL__N_13putEcP6Status+0x32>
    1f57: d0 03        	bne	$1f5c <_ZN12_GLOBAL__N_15printEPKcP6Status+0xabd>
    1f59: 8a           	txa
    1f5a: f0 2c        	beq	$1f88 <_ZN12_GLOBAL__N_15printEPKcP6Status+0xae9>
    1f5c: a5 24        	lda	$24                     ; 0x2024 <_ZN12_GLOBAL__N_13putEcP6Status+0x41>
    1f5e: 18           	clc
    1f5f: 69 09        	adc	#$9
    1f61: 85 12        	sta	$12                     ; 0x2012 <_ZN12_GLOBAL__N_13putEcP6Status+0x2f>
    1f63: a5 25        	lda	$25                     ; 0x2025 <_ZN12_GLOBAL__N_13putEcP6Status+0x42>
    1f65: 69 00        	adc	#$0
    1f67: a0 09        	ldy	#$9
    1f69: 85 13        	sta	$13                     ; 0x2013 <_ZN12_GLOBAL__N_13putEcP6Status+0x30>
    1f6b: 18           	clc
    1f6c: 8a           	txa
    1f6d: 71 24        	adc	($24),y                 ; 0x2024 <_ZN12_GLOBAL__N_13putEcP6Status+0x41>
    1f6f: aa           	tax
    1f70: a0 01        	ldy	#$1
    1f72: a5 15        	lda	$15                     ; 0x2015 <_ZN12_GLOBAL__N_13putEcP6Status+0x32>
    1f74: 71 12        	adc	($12),y                 ; 0x2012 <_ZN12_GLOBAL__N_13putEcP6Status+0x2f>
    1f76: 86 12        	stx	$12                     ; 0x2012 <_ZN12_GLOBAL__N_13putEcP6Status+0x2f>
    1f78: 85 13        	sta	$13                     ; 0x2013 <_ZN12_GLOBAL__N_13putEcP6Status+0x30>
    1f7a: a2 ff        	ldx	#$ff
    1f7c: c6 12        	dec	$12                     ; 0x2012 <_ZN12_GLOBAL__N_13putEcP6Status+0x2f>
    1f7e: e4 12        	cpx	$12                     ; 0x2012 <_ZN12_GLOBAL__N_13putEcP6Status+0x2f>
    1f80: d0 02        	bne	$1f84 <_ZN12_GLOBAL__N_15printEPKcP6Status+0xae5>
    1f82: c6 13        	dec	$13                     ; 0x2013 <_ZN12_GLOBAL__N_13putEcP6Status+0x30>
    1f84: a9 00        	lda	#$0
    1f86: 92 12        	sta	($12)                   ; 0x2012 <_ZN12_GLOBAL__N_13putEcP6Status+0x2f>
    1f88: b2 26        	lda	($26)                   ; 0x2026 <_ZN12_GLOBAL__N_13putEcP6Status+0x43>
    1f8a: 85 28        	sta	$28                     ; 0x2028 <_ZN12_GLOBAL__N_13putEcP6Status+0x45>
    1f8c: a0 01        	ldy	#$1
    1f8e: b1 26        	lda	($26),y                 ; 0x2026 <_ZN12_GLOBAL__N_13putEcP6Status+0x43>
    1f90: 85 29        	sta	$29                     ; 0x2029 <_ZN12_GLOBAL__N_13putEcP6Status+0x46>
    1f92: e6 28        	inc	$28                     ; 0x2028 <_ZN12_GLOBAL__N_13putEcP6Status+0x45>
    1f94: d0 02        	bne	$1f98 <_ZN12_GLOBAL__N_15printEPKcP6Status+0xaf9>
    1f96: e6 29        	inc	$29                     ; 0x2029 <_ZN12_GLOBAL__N_13putEcP6Status+0x46>
    1f98: a6 28        	ldx	$28                     ; 0x2028 <_ZN12_GLOBAL__N_13putEcP6Status+0x45>
    1f9a: 86 12        	stx	$12                     ; 0x2012 <_ZN12_GLOBAL__N_13putEcP6Status+0x2f>
    1f9c: a6 29        	ldx	$29                     ; 0x2029 <_ZN12_GLOBAL__N_13putEcP6Status+0x46>
    1f9e: 86 13        	stx	$13                     ; 0x2013 <_ZN12_GLOBAL__N_13putEcP6Status+0x30>
    1fa0: a0 00        	ldy	#$0
    1fa2: b1 10        	lda	($10),y                 ; 0x2010 <_ZN12_GLOBAL__N_13putEcP6Status+0x2d>
    1fa4: 85 2f        	sta	$2f                     ; 0x202f <_ZN12_GLOBAL__N_13putEcP6Status+0x4c>
    1fa6: c8           	iny
    1fa7: b1 10        	lda	($10),y                 ; 0x2010 <_ZN12_GLOBAL__N_13putEcP6Status+0x2d>
    1fa9: 85 2e        	sta	$2e                     ; 0x202e <_ZN12_GLOBAL__N_13putEcP6Status+0x4b>
    1fab: c8           	iny
    1fac: b1 10        	lda	($10),y                 ; 0x2010 <_ZN12_GLOBAL__N_13putEcP6Status+0x2d>
    1fae: 85 2d        	sta	$2d                     ; 0x202d <_ZN12_GLOBAL__N_13putEcP6Status+0x4a>
    1fb0: c8           	iny
    1fb1: b1 10        	lda	($10),y                 ; 0x2010 <_ZN12_GLOBAL__N_13putEcP6Status+0x2d>
    1fb3: 85 2c        	sta	$2c                     ; 0x202c <_ZN12_GLOBAL__N_13putEcP6Status+0x49>
    1fb5: c8           	iny
    1fb6: b1 10        	lda	($10),y                 ; 0x2010 <_ZN12_GLOBAL__N_13putEcP6Status+0x2d>
    1fb8: 85 2b        	sta	$2b                     ; 0x202b <_ZN12_GLOBAL__N_13putEcP6Status+0x48>
    1fba: c8           	iny
    1fbb: b1 10        	lda	($10),y                 ; 0x2010 <_ZN12_GLOBAL__N_13putEcP6Status+0x2d>
    1fbd: 85 2a        	sta	$2a                     ; 0x202a <_ZN12_GLOBAL__N_13putEcP6Status+0x47>
    1fbf: c8           	iny
    1fc0: b1 10        	lda	($10),y                 ; 0x2010 <_ZN12_GLOBAL__N_13putEcP6Status+0x2d>
    1fc2: 85 29        	sta	$29                     ; 0x2029 <_ZN12_GLOBAL__N_13putEcP6Status+0x46>
    1fc4: c8           	iny
    1fc5: b1 10        	lda	($10),y                 ; 0x2010 <_ZN12_GLOBAL__N_13putEcP6Status+0x2d>
    1fc7: 85 28        	sta	$28                     ; 0x2028 <_ZN12_GLOBAL__N_13putEcP6Status+0x45>
    1fc9: fa           	plx
    1fca: 86 27        	stx	$27                     ; 0x2027 <_ZN12_GLOBAL__N_13putEcP6Status+0x44>
    1fcc: fa           	plx
    1fcd: 86 26        	stx	$26                     ; 0x2026 <_ZN12_GLOBAL__N_13putEcP6Status+0x43>
    1fcf: fa           	plx
    1fd0: 86 25        	stx	$25                     ; 0x2025 <_ZN12_GLOBAL__N_13putEcP6Status+0x42>
    1fd2: fa           	plx
    1fd3: 86 24        	stx	$24                     ; 0x2024 <_ZN12_GLOBAL__N_13putEcP6Status+0x41>
    1fd5: 18           	clc
    1fd6: a5 10        	lda	$10                     ; 0x2010 <_ZN12_GLOBAL__N_13putEcP6Status+0x2d>
    1fd8: 69 2f        	adc	#$2f
    1fda: 85 10        	sta	$10                     ; 0x2010 <_ZN12_GLOBAL__N_13putEcP6Status+0x2d>
    1fdc: a5 11        	lda	$11                     ; 0x2011 <_ZN12_GLOBAL__N_13putEcP6Status+0x2e>
    1fde: 69 00        	adc	#$0
    1fe0: 85 11        	sta	$11                     ; 0x2011 <_ZN12_GLOBAL__N_13putEcP6Status+0x2e>
    1fe2: 60           	rts

00001fe3 <_ZN12_GLOBAL__N_13putEcP6Status>:
    1fe3: a6 24        	ldx	$24                     ; 0x2024 <_ZN12_GLOBAL__N_13putEcP6Status+0x41>
    1fe5: da           	phx
    1fe6: a6 25        	ldx	$25                     ; 0x2025 <_ZN12_GLOBAL__N_13putEcP6Status+0x42>
    1fe8: da           	phx
    1fe9: 85 16        	sta	$16                     ; 0x2016 <_ZN12_GLOBAL__N_13putEcP6Status+0x33>
    1feb: a6 12        	ldx	$12                     ; 0x2012 <_ZN12_GLOBAL__N_13putEcP6Status+0x2f>
    1fed: 86 24        	stx	$24                     ; 0x2024 <_ZN12_GLOBAL__N_13putEcP6Status+0x41>
    1fef: a6 13        	ldx	$13                     ; 0x2013 <_ZN12_GLOBAL__N_13putEcP6Status+0x30>
    1ff1: 86 25        	stx	$25                     ; 0x2025 <_ZN12_GLOBAL__N_13putEcP6Status+0x42>
    1ff3: a6 25        	ldx	$25                     ; 0x2025 <_ZN12_GLOBAL__N_13putEcP6Status+0x42>
    1ff5: 18           	clc
    1ff6: a5 12        	lda	$12                     ; 0x2012 <_ZN12_GLOBAL__N_13putEcP6Status+0x2f>
    1ff8: 69 05        	adc	#$5
    1ffa: a8           	tay
    1ffb: a5 25        	lda	$25                     ; 0x2025 <_ZN12_GLOBAL__N_13putEcP6Status+0x42>
    1ffd: 86 13        	stx	$13                     ; 0x2013 <_ZN12_GLOBAL__N_13putEcP6Status+0x30>
    1fff: 69 00        	adc	#$0
    2001: 18           	clc
    2002: 84 14        	sty	$14                     ; 0x2014 <_ZN12_GLOBAL__N_13putEcP6Status+0x31>
    2004: a0 05        	ldy	#$5
    2006: 85 15        	sta	$15                     ; 0x2015 <_ZN12_GLOBAL__N_13putEcP6Status+0x32>
    2008: b1 24        	lda	($24),y                 ; 0x2024 <_ZN12_GLOBAL__N_13putEcP6Status+0x41>
    200a: aa           	tax
    200b: a5 12        	lda	$12                     ; 0x2012 <_ZN12_GLOBAL__N_13putEcP6Status+0x2f>
    200d: 69 03        	adc	#$3
    200f: 85 12        	sta	$12                     ; 0x2012 <_ZN12_GLOBAL__N_13putEcP6Status+0x2f>
    2011: a5 13        	lda	$13                     ; 0x2013 <_ZN12_GLOBAL__N_13putEcP6Status+0x30>
    2013: 69 00        	adc	#$0
    2015: 85 13        	sta	$13                     ; 0x2013 <_ZN12_GLOBAL__N_13putEcP6Status+0x30>
    2017: a0 01        	ldy	#$1
    2019: b1 14        	lda	($14),y                 ; 0x2014 <_ZN12_GLOBAL__N_13putEcP6Status+0x31>
    201b: d1 12        	cmp	($12),y                 ; 0x2012 <_ZN12_GLOBAL__N_13putEcP6Status+0x2f>
    201d: d0 11        	bne	$2030 <_ZN12_GLOBAL__N_13putEcP6Status+0x4d>
    201f: a0 03        	ldy	#$3
    2021: 85 15        	sta	$15                     ; 0x2015 <_ZN12_GLOBAL__N_13putEcP6Status+0x32>
    2023: b1 24        	lda	($24),y                 ; 0x2024 <_ZN12_GLOBAL__N_13putEcP6Status+0x41>
    2025: 85 12        	sta	$12                     ; 0x2012 <_ZN12_GLOBAL__N_13putEcP6Status+0x2f>
    2027: 86 14        	stx	$14                     ; 0x2014 <_ZN12_GLOBAL__N_13putEcP6Status+0x31>
    2029: e4 12        	cpx	$12                     ; 0x2012 <_ZN12_GLOBAL__N_13putEcP6Status+0x2f>
    202b: 90 0e        	bcc	$203b <_ZN12_GLOBAL__N_13putEcP6Status+0x58>
    202d: 4c 96 20     	jmp	$2096 <_ZN12_GLOBAL__N_13putEcP6Status+0xb3>
    2030: 86 14        	stx	$14                     ; 0x2014 <_ZN12_GLOBAL__N_13putEcP6Status+0x31>
    2032: d1 12        	cmp	($12),y                 ; 0x2012 <_ZN12_GLOBAL__N_13putEcP6Status+0x2f>
    2034: 85 15        	sta	$15                     ; 0x2015 <_ZN12_GLOBAL__N_13putEcP6Status+0x32>
    2036: 90 03        	bcc	$203b <_ZN12_GLOBAL__N_13putEcP6Status+0x58>
    2038: 4c 96 20     	jmp	$2096 <_ZN12_GLOBAL__N_13putEcP6Status+0xb3>
    203b: a0 0f        	ldy	#$f
    203d: a5 24        	lda	$24                     ; 0x2024 <_ZN12_GLOBAL__N_13putEcP6Status+0x41>
    203f: 18           	clc
    2040: 69 0f        	adc	#$f
    2042: 85 12        	sta	$12                     ; 0x2012 <_ZN12_GLOBAL__N_13putEcP6Status+0x2f>
    2044: a5 25        	lda	$25                     ; 0x2025 <_ZN12_GLOBAL__N_13putEcP6Status+0x42>
    2046: 69 00        	adc	#$0
    2048: 85 13        	sta	$13                     ; 0x2013 <_ZN12_GLOBAL__N_13putEcP6Status+0x30>
    204a: b1 24        	lda	($24),y                 ; 0x2024 <_ZN12_GLOBAL__N_13putEcP6Status+0x41>
    204c: 85 17        	sta	$17                     ; 0x2017 <_ZN12_GLOBAL__N_13putEcP6Status+0x34>
    204e: a0 01        	ldy	#$1
    2050: b1 12        	lda	($12),y                 ; 0x2012 <_ZN12_GLOBAL__N_13putEcP6Status+0x2f>
    2052: a2 00        	ldx	#$0
    2054: 86 12        	stx	$12                     ; 0x2012 <_ZN12_GLOBAL__N_13putEcP6Status+0x2f>
    2056: a2 00        	ldx	#$0
    2058: 86 13        	stx	$13                     ; 0x2013 <_ZN12_GLOBAL__N_13putEcP6Status+0x30>
    205a: c5 13        	cmp	$13                     ; 0x2013 <_ZN12_GLOBAL__N_13putEcP6Status+0x30>
    205c: d0 2b        	bne	$2089 <_ZN12_GLOBAL__N_13putEcP6Status+0xa6>
    205e: a4 17        	ldy	$17                     ; 0x2017 <_ZN12_GLOBAL__N_13putEcP6Status+0x34>
    2060: c4 12        	cpy	$12                     ; 0x2012 <_ZN12_GLOBAL__N_13putEcP6Status+0x2f>
    2062: d0 27        	bne	$208b <_ZN12_GLOBAL__N_13putEcP6Status+0xa8>
    2064: a5 24        	lda	$24                     ; 0x2024 <_ZN12_GLOBAL__N_13putEcP6Status+0x41>
    2066: 18           	clc
    2067: 69 09        	adc	#$9
    2069: 85 12        	sta	$12                     ; 0x2012 <_ZN12_GLOBAL__N_13putEcP6Status+0x2f>
    206b: a5 25        	lda	$25                     ; 0x2025 <_ZN12_GLOBAL__N_13putEcP6Status+0x42>
    206d: 69 00        	adc	#$0
    206f: a0 09        	ldy	#$9
    2071: 85 13        	sta	$13                     ; 0x2013 <_ZN12_GLOBAL__N_13putEcP6Status+0x30>
    2073: 18           	clc
    2074: a5 14        	lda	$14                     ; 0x2014 <_ZN12_GLOBAL__N_13putEcP6Status+0x31>
    2076: 71 24        	adc	($24),y                 ; 0x2024 <_ZN12_GLOBAL__N_13putEcP6Status+0x41>
    2078: aa           	tax
    2079: a0 01        	ldy	#$1
    207b: a5 15        	lda	$15                     ; 0x2015 <_ZN12_GLOBAL__N_13putEcP6Status+0x32>
    207d: 71 12        	adc	($12),y                 ; 0x2012 <_ZN12_GLOBAL__N_13putEcP6Status+0x2f>
    207f: 86 12        	stx	$12                     ; 0x2012 <_ZN12_GLOBAL__N_13putEcP6Status+0x2f>
    2081: 85 13        	sta	$13                     ; 0x2013 <_ZN12_GLOBAL__N_13putEcP6Status+0x30>
    2083: a5 16        	lda	$16                     ; 0x2016 <_ZN12_GLOBAL__N_13putEcP6Status+0x33>
    2085: 92 12        	sta	($12)                   ; 0x2012 <_ZN12_GLOBAL__N_13putEcP6Status+0x2f>
    2087: 80 0d        	bra	$2096 <_ZN12_GLOBAL__N_13putEcP6Status+0xb3>
    2089: a4 17        	ldy	$17                     ; 0x2017 <_ZN12_GLOBAL__N_13putEcP6Status+0x34>
    208b: 84 12        	sty	$12                     ; 0x2012 <_ZN12_GLOBAL__N_13putEcP6Status+0x2f>
    208d: 85 13        	sta	$13                     ; 0x2013 <_ZN12_GLOBAL__N_13putEcP6Status+0x30>
    208f: a2 00        	ldx	#$0
    2091: a5 16        	lda	$16                     ; 0x2016 <_ZN12_GLOBAL__N_13putEcP6Status+0x33>
    2093: 20 c1 22     	jsr	$22c1 <putc>
    2096: a0 05        	ldy	#$5
    2098: a5 24        	lda	$24                     ; 0x2024 <_ZN12_GLOBAL__N_13putEcP6Status+0x41>
    209a: 18           	clc
    209b: 69 05        	adc	#$5
    209d: 85 12        	sta	$12                     ; 0x2012 <_ZN12_GLOBAL__N_13putEcP6Status+0x2f>
    209f: a5 25        	lda	$25                     ; 0x2025 <_ZN12_GLOBAL__N_13putEcP6Status+0x42>
    20a1: 69 00        	adc	#$0
    20a3: 85 13        	sta	$13                     ; 0x2013 <_ZN12_GLOBAL__N_13putEcP6Status+0x30>
    20a5: b1 24        	lda	($24),y                 ; 0x2024 <_ZN12_GLOBAL__N_13putEcP6Status+0x41>
    20a7: aa           	tax
    20a8: a0 01        	ldy	#$1
    20aa: b1 12        	lda	($12),y                 ; 0x2012 <_ZN12_GLOBAL__N_13putEcP6Status+0x2f>
    20ac: e8           	inx
    20ad: d0 01        	bne	$20b0 <_ZN12_GLOBAL__N_13putEcP6Status+0xcd>
    20af: 1a           	inc
    20b0: 85 14        	sta	$14                     ; 0x2014 <_ZN12_GLOBAL__N_13putEcP6Status+0x31>
    20b2: 8a           	txa
    20b3: a0 05        	ldy	#$5
    20b5: 91 24        	sta	($24),y                 ; 0x2024 <_ZN12_GLOBAL__N_13putEcP6Status+0x41>
    20b7: a0 01        	ldy	#$1
    20b9: a5 14        	lda	$14                     ; 0x2014 <_ZN12_GLOBAL__N_13putEcP6Status+0x31>
    20bb: 91 12        	sta	($12),y                 ; 0x2012 <_ZN12_GLOBAL__N_13putEcP6Status+0x2f>
    20bd: fa           	plx
    20be: 86 25        	stx	$25                     ; 0x2025 <_ZN12_GLOBAL__N_13putEcP6Status+0x42>
    20c0: fa           	plx
    20c1: 86 24        	stx	$24                     ; 0x2024 <_ZN12_GLOBAL__N_13putEcP6Status+0x41>
    20c3: 60           	rts

000020c4 <_ZN12_GLOBAL__N_112print_stringEPKcP6Status>:
    20c4: 18           	clc
    20c5: a5 10        	lda	$10                     ; 0x2010 <_ZN12_GLOBAL__N_13putEcP6Status+0x2d>
    20c7: 69 fc        	adc	#$fc
    20c9: 85 10        	sta	$10                     ; 0x2010 <_ZN12_GLOBAL__N_13putEcP6Status+0x2d>
    20cb: a5 11        	lda	$11                     ; 0x2011 <_ZN12_GLOBAL__N_13putEcP6Status+0x2e>
    20cd: 69 ff        	adc	#$ff
    20cf: 85 11        	sta	$11                     ; 0x2011 <_ZN12_GLOBAL__N_13putEcP6Status+0x2e>
    20d1: a6 24        	ldx	$24                     ; 0x2024 <_ZN12_GLOBAL__N_13putEcP6Status+0x41>
    20d3: da           	phx
    20d4: a6 25        	ldx	$25                     ; 0x2025 <_ZN12_GLOBAL__N_13putEcP6Status+0x42>
    20d6: da           	phx
    20d7: a6 26        	ldx	$26                     ; 0x2026 <_ZN12_GLOBAL__N_13putEcP6Status+0x43>
    20d9: da           	phx
    20da: a6 27        	ldx	$27                     ; 0x2027 <_ZN12_GLOBAL__N_13putEcP6Status+0x44>
    20dc: da           	phx
    20dd: a5 28        	lda	$28                     ; 0x2028 <_ZN12_GLOBAL__N_13putEcP6Status+0x45>
    20df: a0 02        	ldy	#$2
    20e1: 91 10        	sta	($10),y                 ; 0x2010 <_ZN12_GLOBAL__N_13putEcP6Status+0x2d>
    20e3: a5 29        	lda	$29                     ; 0x2029 <_ZN12_GLOBAL__N_13putEcP6Status+0x46>
    20e5: 88           	dey
    20e6: 91 10        	sta	($10),y                 ; 0x2010 <_ZN12_GLOBAL__N_13putEcP6Status+0x2d>
    20e8: a5 2a        	lda	$2a                     ; 0x202a <_ZN12_GLOBAL__N_13putEcP6Status+0x47>
    20ea: 88           	dey
    20eb: 91 10        	sta	($10),y                 ; 0x2010 <_ZN12_GLOBAL__N_13putEcP6Status+0x2d>
    20ed: a6 12        	ldx	$12                     ; 0x2012 <_ZN12_GLOBAL__N_13putEcP6Status+0x2f>
    20ef: 86 24        	stx	$24                     ; 0x2024 <_ZN12_GLOBAL__N_13putEcP6Status+0x41>
    20f1: a6 13        	ldx	$13                     ; 0x2013 <_ZN12_GLOBAL__N_13putEcP6Status+0x30>
    20f3: 86 25        	stx	$25                     ; 0x2025 <_ZN12_GLOBAL__N_13putEcP6Status+0x42>
    20f5: a6 14        	ldx	$14                     ; 0x2014 <_ZN12_GLOBAL__N_13putEcP6Status+0x31>
    20f7: 86 26        	stx	$26                     ; 0x2026 <_ZN12_GLOBAL__N_13putEcP6Status+0x43>
    20f9: a6 15        	ldx	$15                     ; 0x2015 <_ZN12_GLOBAL__N_13putEcP6Status+0x32>
    20fb: 86 27        	stx	$27                     ; 0x2027 <_ZN12_GLOBAL__N_13putEcP6Status+0x44>
    20fd: a5 26        	lda	$26                     ; 0x2026 <_ZN12_GLOBAL__N_13putEcP6Status+0x43>
    20ff: 18           	clc
    2100: 69 0d        	adc	#$d
    2102: 85 12        	sta	$12                     ; 0x2012 <_ZN12_GLOBAL__N_13putEcP6Status+0x2f>
    2104: a5 27        	lda	$27                     ; 0x2027 <_ZN12_GLOBAL__N_13putEcP6Status+0x44>
    2106: 69 00        	adc	#$0
    2108: 85 13        	sta	$13                     ; 0x2013 <_ZN12_GLOBAL__N_13putEcP6Status+0x30>
    210a: c8           	iny
    210b: b1 12        	lda	($12),y                 ; 0x2012 <_ZN12_GLOBAL__N_13putEcP6Status+0x2f>
    210d: 30 1c        	bmi	$212b <_ZN12_GLOBAL__N_112print_stringEPKcP6Status+0x67>
    210f: a0 0d        	ldy	#$d
    2111: aa           	tax
    2112: b1 26        	lda	($26),y                 ; 0x2026 <_ZN12_GLOBAL__N_13putEcP6Status+0x43>
    2114: 48           	pha
    2115: 8a           	txa
    2116: a0 03        	ldy	#$3
    2118: 91 10        	sta	($10),y                 ; 0x2010 <_ZN12_GLOBAL__N_13putEcP6Status+0x2d>
    211a: 68           	pla
    211b: e0 00        	cpx	#$0
    211d: d0 16        	bne	$2135 <_ZN12_GLOBAL__N_112print_stringEPKcP6Status+0x71>
    211f: aa           	tax
    2120: d0 13        	bne	$2135 <_ZN12_GLOBAL__N_112print_stringEPKcP6Status+0x71>
    2122: 64 28        	stz	$28                     ; 0x2028 <_ZN12_GLOBAL__N_13putEcP6Status+0x45>
    2124: 64 12        	stz	$12                     ; 0x2012 <_ZN12_GLOBAL__N_13putEcP6Status+0x2f>
    2126: a9 00        	lda	#$0
    2128: 4c 33 22     	jmp	$2233 <_ZN12_GLOBAL__N_112print_stringEPKcP6Status+0x16f>
    212b: a9 ff        	lda	#$ff
    212d: aa           	tax
    212e: 48           	pha
    212f: 8a           	txa
    2130: a0 03        	ldy	#$3
    2132: 91 10        	sta	($10),y                 ; 0x2010 <_ZN12_GLOBAL__N_13putEcP6Status+0x2d>
    2134: 68           	pla
    2135: 85 28        	sta	$28                     ; 0x2028 <_ZN12_GLOBAL__N_13putEcP6Status+0x45>
    2137: 64 12        	stz	$12                     ; 0x2012 <_ZN12_GLOBAL__N_13putEcP6Status+0x2f>
    2139: a4 24        	ldy	$24                     ; 0x2024 <_ZN12_GLOBAL__N_13putEcP6Status+0x41>
    213b: a6 25        	ldx	$25                     ; 0x2025 <_ZN12_GLOBAL__N_13putEcP6Status+0x42>
    213d: 86 16        	stx	$16                     ; 0x2016 <_ZN12_GLOBAL__N_13putEcP6Status+0x33>
    213f: 64 13        	stz	$13                     ; 0x2013 <_ZN12_GLOBAL__N_13putEcP6Status+0x30>
    2141: 98           	tya
    2142: 18           	clc
    2143: 65 12        	adc	$12                     ; 0x2012 <_ZN12_GLOBAL__N_13putEcP6Status+0x2f>
    2145: 85 14        	sta	$14                     ; 0x2014 <_ZN12_GLOBAL__N_13putEcP6Status+0x31>
    2147: a5 25        	lda	$25                     ; 0x2025 <_ZN12_GLOBAL__N_13putEcP6Status+0x42>
    2149: 65 13        	adc	$13                     ; 0x2013 <_ZN12_GLOBAL__N_13putEcP6Status+0x30>
    214b: 85 15        	sta	$15                     ; 0x2015 <_ZN12_GLOBAL__N_13putEcP6Status+0x32>
    214d: b2 14        	lda	($14)                   ; 0x2014 <_ZN12_GLOBAL__N_13putEcP6Status+0x31>
    214f: d0 03        	bne	$2154 <_ZN12_GLOBAL__N_112print_stringEPKcP6Status+0x90>
    2151: 4c 2b 22     	jmp	$222b <_ZN12_GLOBAL__N_112print_stringEPKcP6Status+0x167>
    2154: e6 12        	inc	$12                     ; 0x2012 <_ZN12_GLOBAL__N_13putEcP6Status+0x2f>
    2156: d0 02        	bne	$215a <_ZN12_GLOBAL__N_112print_stringEPKcP6Status+0x96>
    2158: e6 13        	inc	$13                     ; 0x2013 <_ZN12_GLOBAL__N_13putEcP6Status+0x30>
    215a: 5a           	phy
    215b: a0 03        	ldy	#$3
    215d: b1 10        	lda	($10),y                 ; 0x2010 <_ZN12_GLOBAL__N_13putEcP6Status+0x2d>
    215f: 7a           	ply
    2160: c5 13        	cmp	$13                     ; 0x2013 <_ZN12_GLOBAL__N_13putEcP6Status+0x30>
    2162: d0 dd        	bne	$2141 <_ZN12_GLOBAL__N_112print_stringEPKcP6Status+0x7d>
    2164: a6 28        	ldx	$28                     ; 0x2028 <_ZN12_GLOBAL__N_13putEcP6Status+0x45>
    2166: e4 12        	cpx	$12                     ; 0x2012 <_ZN12_GLOBAL__N_13putEcP6Status+0x2f>
    2168: d0 d7        	bne	$2141 <_ZN12_GLOBAL__N_112print_stringEPKcP6Status+0x7d>
    216a: a0 01        	ldy	#$1
    216c: b1 26        	lda	($26),y                 ; 0x2026 <_ZN12_GLOBAL__N_13putEcP6Status+0x43>
    216e: 29 01        	and	#$1
    2170: f0 03        	beq	$2175 <_ZN12_GLOBAL__N_112print_stringEPKcP6Status+0xb1>
    2172: 4c d0 21     	jmp	$21d0 <_ZN12_GLOBAL__N_112print_stringEPKcP6Status+0x10c>
    2175: a5 26        	lda	$26                     ; 0x2026 <_ZN12_GLOBAL__N_13putEcP6Status+0x43>
    2177: 18           	clc
    2178: 69 0b        	adc	#$b
    217a: 85 14        	sta	$14                     ; 0x2014 <_ZN12_GLOBAL__N_13putEcP6Status+0x31>
    217c: a5 27        	lda	$27                     ; 0x2027 <_ZN12_GLOBAL__N_13putEcP6Status+0x44>
    217e: 69 00        	adc	#$0
    2180: 85 15        	sta	$15                     ; 0x2015 <_ZN12_GLOBAL__N_13putEcP6Status+0x32>
    2182: a0 0b        	ldy	#$b
    2184: b1 26        	lda	($26),y                 ; 0x2026 <_ZN12_GLOBAL__N_13putEcP6Status+0x43>
    2186: 85 13        	sta	$13                     ; 0x2013 <_ZN12_GLOBAL__N_13putEcP6Status+0x30>
    2188: a0 01        	ldy	#$1
    218a: b1 14        	lda	($14),y                 ; 0x2014 <_ZN12_GLOBAL__N_13putEcP6Status+0x31>
    218c: 85 12        	sta	$12                     ; 0x2012 <_ZN12_GLOBAL__N_13putEcP6Status+0x2f>
    218e: a0 03        	ldy	#$3
    2190: b1 10        	lda	($10),y                 ; 0x2010 <_ZN12_GLOBAL__N_13putEcP6Status+0x2d>
    2192: aa           	tax
    2193: c5 12        	cmp	$12                     ; 0x2012 <_ZN12_GLOBAL__N_13putEcP6Status+0x2f>
    2195: d0 08        	bne	$219f <_ZN12_GLOBAL__N_112print_stringEPKcP6Status+0xdb>
    2197: a6 28        	ldx	$28                     ; 0x2028 <_ZN12_GLOBAL__N_13putEcP6Status+0x45>
    2199: e4 13        	cpx	$13                     ; 0x2013 <_ZN12_GLOBAL__N_13putEcP6Status+0x30>
    219b: 90 06        	bcc	$21a3 <_ZN12_GLOBAL__N_112print_stringEPKcP6Status+0xdf>
    219d: 80 31        	bra	$21d0 <_ZN12_GLOBAL__N_112print_stringEPKcP6Status+0x10c>
    219f: e4 12        	cpx	$12                     ; 0x2012 <_ZN12_GLOBAL__N_13putEcP6Status+0x2f>
    21a1: b0 2d        	bcs	$21d0 <_ZN12_GLOBAL__N_112print_stringEPKcP6Status+0x10c>
    21a3: 38           	sec
    21a4: a5 28        	lda	$28                     ; 0x2028 <_ZN12_GLOBAL__N_13putEcP6Status+0x45>
    21a6: e5 13        	sbc	$13                     ; 0x2013 <_ZN12_GLOBAL__N_13putEcP6Status+0x30>
    21a8: aa           	tax
    21a9: b1 10        	lda	($10),y                 ; 0x2010 <_ZN12_GLOBAL__N_13putEcP6Status+0x2d>
    21ab: e5 12        	sbc	$12                     ; 0x2012 <_ZN12_GLOBAL__N_13putEcP6Status+0x2f>
    21ad: 85 2a        	sta	$2a                     ; 0x202a <_ZN12_GLOBAL__N_13putEcP6Status+0x47>
    21af: a4 26        	ldy	$26                     ; 0x2026 <_ZN12_GLOBAL__N_13putEcP6Status+0x43>
    21b1: 84 12        	sty	$12                     ; 0x2012 <_ZN12_GLOBAL__N_13putEcP6Status+0x2f>
    21b3: a4 27        	ldy	$27                     ; 0x2027 <_ZN12_GLOBAL__N_13putEcP6Status+0x44>
    21b5: 84 13        	sty	$13                     ; 0x2013 <_ZN12_GLOBAL__N_13putEcP6Status+0x30>
    21b7: 86 29        	stx	$29                     ; 0x2029 <_ZN12_GLOBAL__N_13putEcP6Status+0x46>
    21b9: a9 20        	lda	#$20
    21bb: 20 e3 1f     	jsr	$1fe3 <_ZN12_GLOBAL__N_13putEcP6Status>
    21be: a4 2a        	ldy	$2a                     ; 0x202a <_ZN12_GLOBAL__N_13putEcP6Status+0x47>
    21c0: e6 29        	inc	$29                     ; 0x2029 <_ZN12_GLOBAL__N_13putEcP6Status+0x46>
    21c2: d0 01        	bne	$21c5 <_ZN12_GLOBAL__N_112print_stringEPKcP6Status+0x101>
    21c4: c8           	iny
    21c5: 84 2a        	sty	$2a                     ; 0x202a <_ZN12_GLOBAL__N_13putEcP6Status+0x47>
    21c7: a6 29        	ldx	$29                     ; 0x2029 <_ZN12_GLOBAL__N_13putEcP6Status+0x46>
    21c9: 98           	tya
    21ca: d0 e3        	bne	$21af <_ZN12_GLOBAL__N_112print_stringEPKcP6Status+0xeb>
    21cc: a5 29        	lda	$29                     ; 0x2029 <_ZN12_GLOBAL__N_13putEcP6Status+0x46>
    21ce: d0 df        	bne	$21af <_ZN12_GLOBAL__N_112print_stringEPKcP6Status+0xeb>
    21d0: a0 03        	ldy	#$3
    21d2: b1 10        	lda	($10),y                 ; 0x2010 <_ZN12_GLOBAL__N_13putEcP6Status+0x2d>
    21d4: a8           	tay
    21d5: d0 04        	bne	$21db <_ZN12_GLOBAL__N_112print_stringEPKcP6Status+0x117>
    21d7: a5 28        	lda	$28                     ; 0x2028 <_ZN12_GLOBAL__N_13putEcP6Status+0x45>
    21d9: f0 26        	beq	$2201 <_ZN12_GLOBAL__N_112print_stringEPKcP6Status+0x13d>
    21db: a2 ff        	ldx	#$ff
    21dd: c6 28        	dec	$28                     ; 0x2028 <_ZN12_GLOBAL__N_13putEcP6Status+0x45>
    21df: e4 28        	cpx	$28                     ; 0x2028 <_ZN12_GLOBAL__N_13putEcP6Status+0x45>
    21e1: d0 01        	bne	$21e4 <_ZN12_GLOBAL__N_112print_stringEPKcP6Status+0x120>
    21e3: 88           	dey
    21e4: 84 29        	sty	$29                     ; 0x2029 <_ZN12_GLOBAL__N_13putEcP6Status+0x46>
    21e6: b2 24        	lda	($24)                   ; 0x2024 <_ZN12_GLOBAL__N_13putEcP6Status+0x41>
    21e8: e6 24        	inc	$24                     ; 0x2024 <_ZN12_GLOBAL__N_13putEcP6Status+0x41>
    21ea: d0 02        	bne	$21ee <_ZN12_GLOBAL__N_112print_stringEPKcP6Status+0x12a>
    21ec: e6 25        	inc	$25                     ; 0x2025 <_ZN12_GLOBAL__N_13putEcP6Status+0x42>
    21ee: a6 26        	ldx	$26                     ; 0x2026 <_ZN12_GLOBAL__N_13putEcP6Status+0x43>
    21f0: 86 12        	stx	$12                     ; 0x2012 <_ZN12_GLOBAL__N_13putEcP6Status+0x2f>
    21f2: a6 27        	ldx	$27                     ; 0x2027 <_ZN12_GLOBAL__N_13putEcP6Status+0x44>
    21f4: 86 13        	stx	$13                     ; 0x2013 <_ZN12_GLOBAL__N_13putEcP6Status+0x30>
    21f6: 20 e3 1f     	jsr	$1fe3 <_ZN12_GLOBAL__N_13putEcP6Status>
    21f9: a4 29        	ldy	$29                     ; 0x2029 <_ZN12_GLOBAL__N_13putEcP6Status+0x46>
    21fb: d0 de        	bne	$21db <_ZN12_GLOBAL__N_112print_stringEPKcP6Status+0x117>
    21fd: a5 28        	lda	$28                     ; 0x2028 <_ZN12_GLOBAL__N_13putEcP6Status+0x45>
    21ff: d0 da        	bne	$21db <_ZN12_GLOBAL__N_112print_stringEPKcP6Status+0x117>
    2201: a0 00        	ldy	#$0
    2203: b1 10        	lda	($10),y                 ; 0x2010 <_ZN12_GLOBAL__N_13putEcP6Status+0x2d>
    2205: 85 2a        	sta	$2a                     ; 0x202a <_ZN12_GLOBAL__N_13putEcP6Status+0x47>
    2207: c8           	iny
    2208: b1 10        	lda	($10),y                 ; 0x2010 <_ZN12_GLOBAL__N_13putEcP6Status+0x2d>
    220a: 85 29        	sta	$29                     ; 0x2029 <_ZN12_GLOBAL__N_13putEcP6Status+0x46>
    220c: c8           	iny
    220d: b1 10        	lda	($10),y                 ; 0x2010 <_ZN12_GLOBAL__N_13putEcP6Status+0x2d>
    220f: 85 28        	sta	$28                     ; 0x2028 <_ZN12_GLOBAL__N_13putEcP6Status+0x45>
    2211: fa           	plx
    2212: 86 27        	stx	$27                     ; 0x2027 <_ZN12_GLOBAL__N_13putEcP6Status+0x44>
    2214: fa           	plx
    2215: 86 26        	stx	$26                     ; 0x2026 <_ZN12_GLOBAL__N_13putEcP6Status+0x43>
    2217: fa           	plx
    2218: 86 25        	stx	$25                     ; 0x2025 <_ZN12_GLOBAL__N_13putEcP6Status+0x42>
    221a: fa           	plx
    221b: 86 24        	stx	$24                     ; 0x2024 <_ZN12_GLOBAL__N_13putEcP6Status+0x41>
    221d: 18           	clc
    221e: a5 10        	lda	$10                     ; 0x2010 <_ZN12_GLOBAL__N_13putEcP6Status+0x2d>
    2220: 69 04        	adc	#$4
    2222: 85 10        	sta	$10                     ; 0x2010 <_ZN12_GLOBAL__N_13putEcP6Status+0x2d>
    2224: a5 11        	lda	$11                     ; 0x2011 <_ZN12_GLOBAL__N_13putEcP6Status+0x2e>
    2226: 69 00        	adc	#$0
    2228: 85 11        	sta	$11                     ; 0x2011 <_ZN12_GLOBAL__N_13putEcP6Status+0x2e>
    222a: 60           	rts
    222b: a6 12        	ldx	$12                     ; 0x2012 <_ZN12_GLOBAL__N_13putEcP6Status+0x2f>
    222d: 86 28        	stx	$28                     ; 0x2028 <_ZN12_GLOBAL__N_13putEcP6Status+0x45>
    222f: a5 13        	lda	$13                     ; 0x2013 <_ZN12_GLOBAL__N_13putEcP6Status+0x30>
    2231: a0 03        	ldy	#$3
    2233: 91 10        	sta	($10),y                 ; 0x2010 <_ZN12_GLOBAL__N_13putEcP6Status+0x2d>
    2235: 4c 6a 21     	jmp	$216a <_ZN12_GLOBAL__N_112print_stringEPKcP6Status+0xa6>

00002238 <printf>:
    2238: 18           	clc
    2239: a5 10        	lda	$10                     ; 0x2010 <_ZN12_GLOBAL__N_13putEcP6Status+0x2d>
    223b: 69 fe        	adc	#$fe
    223d: 85 10        	sta	$10                     ; 0x2010 <_ZN12_GLOBAL__N_13putEcP6Status+0x2d>
    223f: a5 11        	lda	$11                     ; 0x2011 <_ZN12_GLOBAL__N_13putEcP6Status+0x2e>
    2241: 69 ff        	adc	#$ff
    2243: 85 11        	sta	$11                     ; 0x2011 <_ZN12_GLOBAL__N_13putEcP6Status+0x2e>
    2245: a6 12        	ldx	$12                     ; 0x2012 <_ZN12_GLOBAL__N_13putEcP6Status+0x2f>
    2247: 86 14        	stx	$14                     ; 0x2014 <_ZN12_GLOBAL__N_13putEcP6Status+0x31>
    2249: a6 13        	ldx	$13                     ; 0x2013 <_ZN12_GLOBAL__N_13putEcP6Status+0x30>
    224b: 86 15        	stx	$15                     ; 0x2015 <_ZN12_GLOBAL__N_13putEcP6Status+0x32>
    224d: 18           	clc
    224e: a5 10        	lda	$10                     ; 0x2010 <_ZN12_GLOBAL__N_13putEcP6Status+0x2d>
    2250: 69 02        	adc	#$2
    2252: 48           	pha
    2253: a5 11        	lda	$11                     ; 0x2011 <_ZN12_GLOBAL__N_13putEcP6Status+0x2e>
    2255: 69 00        	adc	#$0
    2257: 85 12        	sta	$12                     ; 0x2012 <_ZN12_GLOBAL__N_13putEcP6Status+0x2f>
    2259: 68           	pla
    225a: 18           	clc
    225b: a6 10        	ldx	$10                     ; 0x2010 <_ZN12_GLOBAL__N_13putEcP6Status+0x2d>
    225d: 86 16        	stx	$16                     ; 0x2016 <_ZN12_GLOBAL__N_13putEcP6Status+0x33>
    225f: a6 11        	ldx	$11                     ; 0x2011 <_ZN12_GLOBAL__N_13putEcP6Status+0x2e>
    2261: 86 17        	stx	$17                     ; 0x2017 <_ZN12_GLOBAL__N_13putEcP6Status+0x34>
    2263: 92 16        	sta	($16)                   ; 0x2016 <_ZN12_GLOBAL__N_13putEcP6Status+0x33>
    2265: a0 01        	ldy	#$1
    2267: a5 12        	lda	$12                     ; 0x2012 <_ZN12_GLOBAL__N_13putEcP6Status+0x2f>
    2269: 91 16        	sta	($16),y                 ; 0x2016 <_ZN12_GLOBAL__N_13putEcP6Status+0x33>
    226b: a6 63        	ldx	$63                     ; 0x2063 <_ZN12_GLOBAL__N_13putEcP6Status+0x80>
    226d: a5 64        	lda	$64                     ; 0x2064 <_ZN12_GLOBAL__N_13putEcP6Status+0x81>
    226f: 86 12        	stx	$12                     ; 0x2012 <_ZN12_GLOBAL__N_13putEcP6Status+0x2f>
    2271: 85 13        	sta	$13                     ; 0x2013 <_ZN12_GLOBAL__N_13putEcP6Status+0x30>
    2273: b2 16        	lda	($16)                   ; 0x2016 <_ZN12_GLOBAL__N_13putEcP6Status+0x33>
    2275: aa           	tax
    2276: b1 16        	lda	($16),y                 ; 0x2016 <_ZN12_GLOBAL__N_13putEcP6Status+0x33>
    2278: 86 16        	stx	$16                     ; 0x2016 <_ZN12_GLOBAL__N_13putEcP6Status+0x33>
    227a: 85 17        	sta	$17                     ; 0x2017 <_ZN12_GLOBAL__N_13putEcP6Status+0x34>
    227c: 20 87 12     	jsr	$1287 <vfprintf>
    227f: 48           	pha
    2280: 18           	clc
    2281: a5 10        	lda	$10                     ; 0x2010 <_ZN12_GLOBAL__N_13putEcP6Status+0x2d>
    2283: 69 02        	adc	#$2
    2285: 85 10        	sta	$10                     ; 0x2010 <_ZN12_GLOBAL__N_13putEcP6Status+0x2d>
    2287: a5 11        	lda	$11                     ; 0x2011 <_ZN12_GLOBAL__N_13putEcP6Status+0x2e>
    2289: 69 00        	adc	#$0
    228b: 85 11        	sta	$11                     ; 0x2011 <_ZN12_GLOBAL__N_13putEcP6Status+0x2e>
    228d: 68           	pla
    228e: 60           	rts

0000228f <fputc>:
    228f: 4c 92 22     	jmp	$2292 <putchar>

00002292 <putchar>:
    2292: a4 24        	ldy	$24                     ; 0x2024 <_ZN12_GLOBAL__N_13putEcP6Status+0x41>
    2294: 5a           	phy
    2295: a4 25        	ldy	$25                     ; 0x2025 <_ZN12_GLOBAL__N_13putEcP6Status+0x42>
    2297: 5a           	phy
    2298: 85 24        	sta	$24                     ; 0x2024 <_ZN12_GLOBAL__N_13putEcP6Status+0x41>
    229a: 86 25        	stx	$25                     ; 0x2025 <_ZN12_GLOBAL__N_13putEcP6Status+0x42>
    229c: a2 00        	ldx	#$0
    229e: 86 12        	stx	$12                     ; 0x2012 <_ZN12_GLOBAL__N_13putEcP6Status+0x2f>
    22a0: a2 00        	ldx	#$0
    22a2: 86 13        	stx	$13                     ; 0x2013 <_ZN12_GLOBAL__N_13putEcP6Status+0x30>
    22a4: a2 ba        	ldx	#$ba
    22a6: 86 14        	stx	$14                     ; 0x2014 <_ZN12_GLOBAL__N_13putEcP6Status+0x31>
    22a8: a2 22        	ldx	#$22
    22aa: 86 15        	stx	$15                     ; 0x2015 <_ZN12_GLOBAL__N_13putEcP6Status+0x32>
    22ac: 20 c4 22     	jsr	$22c4 <__from_ascii>
    22af: a6 25        	ldx	$25                     ; 0x2025 <_ZN12_GLOBAL__N_13putEcP6Status+0x42>
    22b1: a5 24        	lda	$24                     ; 0x2024 <_ZN12_GLOBAL__N_13putEcP6Status+0x41>
    22b3: 7a           	ply
    22b4: 84 25        	sty	$25                     ; 0x2025 <_ZN12_GLOBAL__N_13putEcP6Status+0x42>
    22b6: 7a           	ply
    22b7: 84 24        	sty	$24                     ; 0x2024 <_ZN12_GLOBAL__N_13putEcP6Status+0x41>
    22b9: 60           	rts

000022ba <putchar_wrapper>:
    22ba: 20 36 12     	jsr	$1236 <__putchar>
    22bd: a2 00        	ldx	#$0
    22bf: 8a           	txa
    22c0: 60           	rts

000022c1 <putc>:
    22c1: 4c 8f 22     	jmp	$228f <fputc>

000022c4 <__from_ascii>:
    22c4: a6 14        	ldx	$14                     ; 0x2014 <_ZN12_GLOBAL__N_13putEcP6Status+0x31>
    22c6: 86 22        	stx	$22                     ; 0x2022 <_ZN12_GLOBAL__N_13putEcP6Status+0x3f>
    22c8: a6 15        	ldx	$15                     ; 0x2015 <_ZN12_GLOBAL__N_13putEcP6Status+0x32>
    22ca: 86 23        	stx	$23                     ; 0x2023 <_ZN12_GLOBAL__N_13putEcP6Status+0x40>
    22cc: 4c ff 05     	jmp	$5ff <__call_indir>

000022cf <malloc>:
    22cf: a8           	tay
    22d0: 8a           	txa
    22d1: a2 00        	ldx	#$0
    22d3: 86 12        	stx	$12                     ; 0x2012 <_ZN12_GLOBAL__N_13putEcP6Status+0x2f>
    22d5: a2 00        	ldx	#$0
    22d7: 86 13        	stx	$13                     ; 0x2013 <_ZN12_GLOBAL__N_13putEcP6Status+0x30>
    22d9: aa           	tax
    22da: d0 07        	bne	$22e3 <malloc+0x14>
    22dc: c0 00        	cpy	#$0
    22de: d0 03        	bne	$22e3 <malloc+0x14>
    22e0: 4c bf 23     	jmp	$23bf <malloc+0xf0>
    22e3: 84 16        	sty	$16                     ; 0x2016 <_ZN12_GLOBAL__N_13putEcP6Status+0x33>
    22e5: aa           	tax
    22e6: d0 0e        	bne	$22f6 <malloc+0x27>
    22e8: a6 16        	ldx	$16                     ; 0x2016 <_ZN12_GLOBAL__N_13putEcP6Status+0x33>
    22ea: e0 07        	cpx	#$7
    22ec: b0 0c        	bcs	$22fa <malloc+0x2b>
    22ee: a2 08        	ldx	#$8
    22f0: 64 17        	stz	$17                     ; 0x2017 <_ZN12_GLOBAL__N_13putEcP6Status+0x34>
    22f2: 86 16        	stx	$16                     ; 0x2016 <_ZN12_GLOBAL__N_13putEcP6Status+0x33>
    22f4: 80 30        	bra	$2326 <malloc+0x57>
    22f6: c9 00        	cmp	#$0
    22f8: 90 f4        	bcc	$22ee <malloc+0x1f>
    22fa: a8           	tay
    22fb: a5 16        	lda	$16                     ; 0x2016 <_ZN12_GLOBAL__N_13putEcP6Status+0x33>
    22fd: 29 01        	and	#$1
    22ff: a2 02        	ldx	#$2
    2301: 64 14        	stz	$14                     ; 0x2014 <_ZN12_GLOBAL__N_13putEcP6Status+0x31>
    2303: c9 00        	cmp	#$0
    2305: f0 02        	beq	$2309 <malloc+0x3a>
    2307: a2 03        	ldx	#$3
    2309: 86 15        	stx	$15                     ; 0x2015 <_ZN12_GLOBAL__N_13putEcP6Status+0x32>
    230b: 18           	clc
    230c: a5 16        	lda	$16                     ; 0x2016 <_ZN12_GLOBAL__N_13putEcP6Status+0x33>
    230e: 65 15        	adc	$15                     ; 0x2015 <_ZN12_GLOBAL__N_13putEcP6Status+0x32>
    2310: aa           	tax
    2311: 98           	tya
    2312: 65 14        	adc	$14                     ; 0x2014 <_ZN12_GLOBAL__N_13putEcP6Status+0x31>
    2314: 90 03        	bcc	$2319 <malloc+0x4a>
    2316: 4c bf 23     	jmp	$23bf <malloc+0xf0>
    2319: 86 16        	stx	$16                     ; 0x2016 <_ZN12_GLOBAL__N_13putEcP6Status+0x33>
    231b: 85 17        	sta	$17                     ; 0x2017 <_ZN12_GLOBAL__N_13putEcP6Status+0x34>
    231d: a8           	tay
    231e: d0 06        	bne	$2326 <malloc+0x57>
    2320: 8a           	txa
    2321: d0 03        	bne	$2326 <malloc+0x57>
    2323: 4c bf 23     	jmp	$23bf <malloc+0xf0>
    2326: a5 d3        	lda	$d3                     ; 0x20d3 <_ZN12_GLOBAL__N_112print_stringEPKcP6Status+0xf>
    2328: 29 01        	and	#$1
    232a: d0 3b        	bne	$2367 <malloc+0x98>
    232c: a5 65        	lda	$65                     ; 0x2065 <_ZN12_GLOBAL__N_13putEcP6Status+0x82>
    232e: a6 66        	ldx	$66                     ; 0x2066 <_ZN12_GLOBAL__N_13putEcP6Status+0x83>
    2330: a0 98        	ldy	#$98
    2332: 84 12        	sty	$12                     ; 0x2012 <_ZN12_GLOBAL__N_13putEcP6Status+0x2f>
    2334: a0 27        	ldy	#$27
    2336: 84 13        	sty	$13                     ; 0x2013 <_ZN12_GLOBAL__N_13putEcP6Status+0x30>
    2338: a4 16        	ldy	$16                     ; 0x2016 <_ZN12_GLOBAL__N_13putEcP6Status+0x33>
    233a: 84 e1        	sty	$e1                     ; 0x20e1 <_ZN12_GLOBAL__N_112print_stringEPKcP6Status+0x1d>
    233c: a4 17        	ldy	$17                     ; 0x2017 <_ZN12_GLOBAL__N_13putEcP6Status+0x34>
    233e: 84 e2        	sty	$e2                     ; 0x20e2 <_ZN12_GLOBAL__N_112print_stringEPKcP6Status+0x1e>
    2340: 20 4e 03     	jsr	$34e <_ZN12_GLOBAL__N_19FreeChunk6insertEPvj>
    2343: a6 e2        	ldx	$e2                     ; 0x20e2 <_ZN12_GLOBAL__N_112print_stringEPKcP6Status+0x1e>
    2345: 86 17        	stx	$17                     ; 0x2017 <_ZN12_GLOBAL__N_13putEcP6Status+0x34>
    2347: a6 e1        	ldx	$e1                     ; 0x20e1 <_ZN12_GLOBAL__N_112print_stringEPKcP6Status+0x1d>
    2349: 86 16        	stx	$16                     ; 0x2016 <_ZN12_GLOBAL__N_13putEcP6Status+0x33>
    234b: a2 00        	ldx	#$0
    234d: 86 12        	stx	$12                     ; 0x2012 <_ZN12_GLOBAL__N_13putEcP6Status+0x2f>
    234f: a2 00        	ldx	#$0
    2351: 86 13        	stx	$13                     ; 0x2013 <_ZN12_GLOBAL__N_13putEcP6Status+0x30>
    2353: ae 99 27     	ldx	$2799                   ; 0x2799 <end_block9+0x1>
    2356: a9 fe        	lda	#$fe
    2358: 2d 98 27     	and	$2798                   ; 0x2798 <end_block9>
    235b: 8d 98 27     	sta	$2798                   ; 0x2798 <end_block9>
    235e: 8e 99 27     	stx	$2799                   ; 0x2799 <end_block9+0x1>
    2361: a2 01        	ldx	#$1
    2363: 86 d4        	stx	$d4                     ; 0x20d4 <_ZN12_GLOBAL__N_112print_stringEPKcP6Status+0x10>
    2365: 86 d3        	stx	$d3                     ; 0x20d3 <_ZN12_GLOBAL__N_112print_stringEPKcP6Status+0xf>
    2367: a6 d7        	ldx	$d7                     ; 0x20d7 <_ZN12_GLOBAL__N_112print_stringEPKcP6Status+0x13>
    2369: 86 18        	stx	$18                     ; 0x2018 <_ZN12_GLOBAL__N_13putEcP6Status+0x35>
    236b: a4 d8        	ldy	$d8                     ; 0x20d8 <_ZN12_GLOBAL__N_112print_stringEPKcP6Status+0x14>
    236d: 84 19        	sty	$19                     ; 0x2019 <_ZN12_GLOBAL__N_13putEcP6Status+0x36>
    236f: a9 00        	lda	#$0
    2371: 85 14        	sta	$14                     ; 0x2014 <_ZN12_GLOBAL__N_13putEcP6Status+0x31>
    2373: a9 00        	lda	#$0
    2375: 85 15        	sta	$15                     ; 0x2015 <_ZN12_GLOBAL__N_13putEcP6Status+0x32>
    2377: c4 15        	cpy	$15                     ; 0x2015 <_ZN12_GLOBAL__N_13putEcP6Status+0x32>
    2379: d0 04        	bne	$237f <malloc+0xb0>
    237b: e4 14        	cpx	$14                     ; 0x2014 <_ZN12_GLOBAL__N_13putEcP6Status+0x31>
    237d: f0 40        	beq	$23bf <malloc+0xf0>
    237f: a0 01        	ldy	#$1
    2381: a6 18        	ldx	$18                     ; 0x2018 <_ZN12_GLOBAL__N_13putEcP6Status+0x35>
    2383: 86 14        	stx	$14                     ; 0x2014 <_ZN12_GLOBAL__N_13putEcP6Status+0x31>
    2385: a6 19        	ldx	$19                     ; 0x2019 <_ZN12_GLOBAL__N_13putEcP6Status+0x36>
    2387: 86 15        	stx	$15                     ; 0x2015 <_ZN12_GLOBAL__N_13putEcP6Status+0x32>
    2389: b1 14        	lda	($14),y                 ; 0x2014 <_ZN12_GLOBAL__N_13putEcP6Status+0x31>
    238b: c5 17        	cmp	$17                     ; 0x2017 <_ZN12_GLOBAL__N_13putEcP6Status+0x34>
    238d: d0 0a        	bne	$2399 <malloc+0xca>
    238f: b2 14        	lda	($14)                   ; 0x2014 <_ZN12_GLOBAL__N_13putEcP6Status+0x31>
    2391: 29 fe        	and	#$fe
    2393: c5 16        	cmp	$16                     ; 0x2016 <_ZN12_GLOBAL__N_13putEcP6Status+0x33>
    2395: b0 29        	bcs	$23c0 <malloc+0xf1>
    2397: 80 04        	bra	$239d <malloc+0xce>
    2399: c5 17        	cmp	$17                     ; 0x2017 <_ZN12_GLOBAL__N_13putEcP6Status+0x34>
    239b: b0 23        	bcs	$23c0 <malloc+0xf1>
    239d: a5 14        	lda	$14                     ; 0x2014 <_ZN12_GLOBAL__N_13putEcP6Status+0x31>
    239f: 18           	clc
    23a0: 69 02        	adc	#$2
    23a2: 85 1a        	sta	$1a                     ; 0x201a <_ZN12_GLOBAL__N_13putEcP6Status+0x37>
    23a4: a5 15        	lda	$15                     ; 0x2015 <_ZN12_GLOBAL__N_13putEcP6Status+0x32>
    23a6: 69 00        	adc	#$0
    23a8: 85 1b        	sta	$1b                     ; 0x201b <_ZN12_GLOBAL__N_13putEcP6Status+0x38>
    23aa: a0 02        	ldy	#$2
    23ac: b1 14        	lda	($14),y                 ; 0x2014 <_ZN12_GLOBAL__N_13putEcP6Status+0x31>
    23ae: 85 14        	sta	$14                     ; 0x2014 <_ZN12_GLOBAL__N_13putEcP6Status+0x31>
    23b0: 88           	dey
    23b1: b1 1a        	lda	($1a),y                 ; 0x201a <_ZN12_GLOBAL__N_13putEcP6Status+0x37>
    23b3: 85 15        	sta	$15                     ; 0x2015 <_ZN12_GLOBAL__N_13putEcP6Status+0x32>
    23b5: c5 19        	cmp	$19                     ; 0x2019 <_ZN12_GLOBAL__N_13putEcP6Status+0x36>
    23b7: d0 d0        	bne	$2389 <malloc+0xba>
    23b9: a5 14        	lda	$14                     ; 0x2014 <_ZN12_GLOBAL__N_13putEcP6Status+0x31>
    23bb: c5 18        	cmp	$18                     ; 0x2018 <_ZN12_GLOBAL__N_13putEcP6Status+0x35>
    23bd: d0 ca        	bne	$2389 <malloc+0xba>
    23bf: 60           	rts
    23c0: a6 14        	ldx	$14                     ; 0x2014 <_ZN12_GLOBAL__N_13putEcP6Status+0x31>
    23c2: 86 12        	stx	$12                     ; 0x2012 <_ZN12_GLOBAL__N_13putEcP6Status+0x2f>
    23c4: a6 15        	ldx	$15                     ; 0x2015 <_ZN12_GLOBAL__N_13putEcP6Status+0x32>
    23c6: 86 13        	stx	$13                     ; 0x2013 <_ZN12_GLOBAL__N_13putEcP6Status+0x30>
    23c8: a6 17        	ldx	$17                     ; 0x2017 <_ZN12_GLOBAL__N_13putEcP6Status+0x34>
    23ca: a5 16        	lda	$16                     ; 0x2016 <_ZN12_GLOBAL__N_13putEcP6Status+0x33>
    23cc: 4c cf 23     	jmp	$23cf <_ZN12_GLOBAL__N_119allocate_free_chunkEPNS_9FreeChunkEj>

000023cf <_ZN12_GLOBAL__N_119allocate_free_chunkEPNS_9FreeChunkEj>:
    23cf: 85 e3        	sta	$e3                     ; 0x20e3 <_ZN12_GLOBAL__N_112print_stringEPKcP6Status+0x1f>
    23d1: 86 e6        	stx	$e6                     ; 0x20e6 <_ZN12_GLOBAL__N_112print_stringEPKcP6Status+0x22>
    23d3: a6 12        	ldx	$12                     ; 0x2012 <_ZN12_GLOBAL__N_13putEcP6Status+0x2f>
    23d5: 86 e4        	stx	$e4                     ; 0x20e4 <_ZN12_GLOBAL__N_112print_stringEPKcP6Status+0x20>
    23d7: a6 13        	ldx	$13                     ; 0x2013 <_ZN12_GLOBAL__N_13putEcP6Status+0x30>
    23d9: 86 e5        	stx	$e5                     ; 0x20e5 <_ZN12_GLOBAL__N_112print_stringEPKcP6Status+0x21>
    23db: 20 84 04     	jsr	$484 <_ZN12_GLOBAL__N_19FreeChunk6removeEv>
    23de: a0 01        	ldy	#$1
    23e0: b1 e4        	lda	($e4),y                 ; 0x20e4 <_ZN12_GLOBAL__N_112print_stringEPKcP6Status+0x20>
    23e2: 85 14        	sta	$14                     ; 0x2014 <_ZN12_GLOBAL__N_13putEcP6Status+0x31>
    23e4: a9 fe        	lda	#$fe
    23e6: 32 e4        	and	($e4)                   ; 0x20e4 <_ZN12_GLOBAL__N_112print_stringEPKcP6Status+0x20>
    23e8: 38           	sec
    23e9: a6 e3        	ldx	$e3                     ; 0x20e3 <_ZN12_GLOBAL__N_112print_stringEPKcP6Status+0x1f>
    23eb: a8           	tay
    23ec: e5 e3        	sbc	$e3                     ; 0x20e3 <_ZN12_GLOBAL__N_112print_stringEPKcP6Status+0x1f>
    23ee: 85 16        	sta	$16                     ; 0x2016 <_ZN12_GLOBAL__N_13putEcP6Status+0x33>
    23f0: a5 e6        	lda	$e6                     ; 0x20e6 <_ZN12_GLOBAL__N_112print_stringEPKcP6Status+0x22>
    23f2: 85 13        	sta	$13                     ; 0x2013 <_ZN12_GLOBAL__N_13putEcP6Status+0x30>
    23f4: 85 12        	sta	$12                     ; 0x2012 <_ZN12_GLOBAL__N_13putEcP6Status+0x2f>
    23f6: a5 14        	lda	$14                     ; 0x2014 <_ZN12_GLOBAL__N_13putEcP6Status+0x31>
    23f8: e5 12        	sbc	$12                     ; 0x2012 <_ZN12_GLOBAL__N_13putEcP6Status+0x2f>
    23fa: f0 03        	beq	$23ff <_ZN12_GLOBAL__N_119allocate_free_chunkEPNS_9FreeChunkEj+0x30>
    23fc: 4c 7a 24     	jmp	$247a <_ZN12_GLOBAL__N_119allocate_free_chunkEPNS_9FreeChunkEj+0xab>
    23ff: 85 15        	sta	$15                     ; 0x2015 <_ZN12_GLOBAL__N_13putEcP6Status+0x32>
    2401: a5 16        	lda	$16                     ; 0x2016 <_ZN12_GLOBAL__N_13putEcP6Status+0x33>
    2403: c9 08        	cmp	#$8
    2405: 90 2e        	bcc	$2435 <_ZN12_GLOBAL__N_119allocate_free_chunkEPNS_9FreeChunkEj+0x66>
    2407: a8           	tay
    2408: 18           	clc
    2409: 8a           	txa
    240a: 65 e4        	adc	$e4                     ; 0x20e4 <_ZN12_GLOBAL__N_112print_stringEPKcP6Status+0x20>
    240c: 85 12        	sta	$12                     ; 0x2012 <_ZN12_GLOBAL__N_13putEcP6Status+0x2f>
    240e: a5 13        	lda	$13                     ; 0x2013 <_ZN12_GLOBAL__N_13putEcP6Status+0x30>
    2410: a6 13        	ldx	$13                     ; 0x2013 <_ZN12_GLOBAL__N_13putEcP6Status+0x30>
    2412: 86 e6        	stx	$e6                     ; 0x20e6 <_ZN12_GLOBAL__N_112print_stringEPKcP6Status+0x22>
    2414: 65 e5        	adc	$e5                     ; 0x20e5 <_ZN12_GLOBAL__N_112print_stringEPKcP6Status+0x21>
    2416: 85 13        	sta	$13                     ; 0x2013 <_ZN12_GLOBAL__N_13putEcP6Status+0x30>
    2418: a6 15        	ldx	$15                     ; 0x2015 <_ZN12_GLOBAL__N_13putEcP6Status+0x32>
    241a: 98           	tya
    241b: 20 4e 03     	jsr	$34e <_ZN12_GLOBAL__N_19FreeChunk6insertEPvj>
    241e: a5 e3        	lda	$e3                     ; 0x20e3 <_ZN12_GLOBAL__N_112print_stringEPKcP6Status+0x1f>
    2420: 29 fe        	and	#$fe
    2422: 85 12        	sta	$12                     ; 0x2012 <_ZN12_GLOBAL__N_13putEcP6Status+0x2f>
    2424: a0 01        	ldy	#$1
    2426: 98           	tya
    2427: 32 e4        	and	($e4)                   ; 0x20e4 <_ZN12_GLOBAL__N_112print_stringEPKcP6Status+0x20>
    2429: 05 12        	ora	$12                     ; 0x2012 <_ZN12_GLOBAL__N_13putEcP6Status+0x2f>
    242b: 92 e4        	sta	($e4)                   ; 0x20e4 <_ZN12_GLOBAL__N_112print_stringEPKcP6Status+0x20>
    242d: a5 e6        	lda	$e6                     ; 0x20e6 <_ZN12_GLOBAL__N_112print_stringEPKcP6Status+0x22>
    242f: 91 e4        	sta	($e4),y                 ; 0x20e4 <_ZN12_GLOBAL__N_112print_stringEPKcP6Status+0x20>
    2431: a4 12        	ldy	$12                     ; 0x2012 <_ZN12_GLOBAL__N_13putEcP6Status+0x2f>
    2433: 85 14        	sta	$14                     ; 0x2014 <_ZN12_GLOBAL__N_13putEcP6Status+0x31>
    2435: 18           	clc
    2436: 98           	tya
    2437: 65 e4        	adc	$e4                     ; 0x20e4 <_ZN12_GLOBAL__N_112print_stringEPKcP6Status+0x20>
    2439: a8           	tay
    243a: a5 14        	lda	$14                     ; 0x2014 <_ZN12_GLOBAL__N_13putEcP6Status+0x31>
    243c: 65 e5        	adc	$e5                     ; 0x20e5 <_ZN12_GLOBAL__N_112print_stringEPKcP6Status+0x21>
    243e: aa           	tax
    243f: 18           	clc
    2440: a9 98        	lda	#$98
    2442: 65 65        	adc	$65                     ; 0x2065 <_ZN12_GLOBAL__N_13putEcP6Status+0x82>
    2444: 85 13        	sta	$13                     ; 0x2013 <_ZN12_GLOBAL__N_13putEcP6Status+0x30>
    2446: a9 27        	lda	#$27
    2448: 65 66        	adc	$66                     ; 0x2066 <_ZN12_GLOBAL__N_13putEcP6Status+0x83>
    244a: 85 12        	sta	$12                     ; 0x2012 <_ZN12_GLOBAL__N_13putEcP6Status+0x2f>
    244c: e4 12        	cpx	$12                     ; 0x2012 <_ZN12_GLOBAL__N_13putEcP6Status+0x2f>
    244e: d0 08        	bne	$2458 <_ZN12_GLOBAL__N_119allocate_free_chunkEPNS_9FreeChunkEj+0x89>
    2450: c4 13        	cpy	$13                     ; 0x2013 <_ZN12_GLOBAL__N_13putEcP6Status+0x30>
    2452: d0 04        	bne	$2458 <_ZN12_GLOBAL__N_119allocate_free_chunkEPNS_9FreeChunkEj+0x89>
    2454: 64 d4        	stz	$d4                     ; 0x20d4 <_ZN12_GLOBAL__N_112print_stringEPKcP6Status+0x10>
    2456: 80 14        	bra	$246c <_ZN12_GLOBAL__N_119allocate_free_chunkEPNS_9FreeChunkEj+0x9d>
    2458: 84 12        	sty	$12                     ; 0x2012 <_ZN12_GLOBAL__N_13putEcP6Status+0x2f>
    245a: 86 13        	stx	$13                     ; 0x2013 <_ZN12_GLOBAL__N_13putEcP6Status+0x30>
    245c: a0 01        	ldy	#$1
    245e: b1 12        	lda	($12),y                 ; 0x2012 <_ZN12_GLOBAL__N_13putEcP6Status+0x2f>
    2460: 85 14        	sta	$14                     ; 0x2014 <_ZN12_GLOBAL__N_13putEcP6Status+0x31>
    2462: a9 fe        	lda	#$fe
    2464: 32 12        	and	($12)                   ; 0x2012 <_ZN12_GLOBAL__N_13putEcP6Status+0x2f>
    2466: 92 12        	sta	($12)                   ; 0x2012 <_ZN12_GLOBAL__N_13putEcP6Status+0x2f>
    2468: a5 14        	lda	$14                     ; 0x2014 <_ZN12_GLOBAL__N_13putEcP6Status+0x31>
    246a: 91 12        	sta	($12),y                 ; 0x2012 <_ZN12_GLOBAL__N_13putEcP6Status+0x2f>
    246c: a5 e4        	lda	$e4                     ; 0x20e4 <_ZN12_GLOBAL__N_112print_stringEPKcP6Status+0x20>
    246e: 18           	clc
    246f: 69 02        	adc	#$2
    2471: 85 12        	sta	$12                     ; 0x2012 <_ZN12_GLOBAL__N_13putEcP6Status+0x2f>
    2473: a5 e5        	lda	$e5                     ; 0x20e5 <_ZN12_GLOBAL__N_112print_stringEPKcP6Status+0x21>
    2475: 69 00        	adc	#$0
    2477: 85 13        	sta	$13                     ; 0x2013 <_ZN12_GLOBAL__N_13putEcP6Status+0x30>
    2479: 60           	rts
    247a: 85 15        	sta	$15                     ; 0x2015 <_ZN12_GLOBAL__N_13putEcP6Status+0x32>
    247c: c9 00        	cmp	#$0
    247e: a5 16        	lda	$16                     ; 0x2016 <_ZN12_GLOBAL__N_13putEcP6Status+0x33>
    2480: 90 b3        	bcc	$2435 <_ZN12_GLOBAL__N_119allocate_free_chunkEPNS_9FreeChunkEj+0x66>
    2482: 4c 07 24     	jmp	$2407 <_ZN12_GLOBAL__N_119allocate_free_chunkEPNS_9FreeChunkEj+0x38>

00002485 <free>:
    2485: a6 12        	ldx	$12                     ; 0x2012 <_ZN12_GLOBAL__N_13putEcP6Status+0x2f>
    2487: 86 14        	stx	$14                     ; 0x2014 <_ZN12_GLOBAL__N_13putEcP6Status+0x31>
    2489: a6 13        	ldx	$13                     ; 0x2013 <_ZN12_GLOBAL__N_13putEcP6Status+0x30>
    248b: 86 15        	stx	$15                     ; 0x2015 <_ZN12_GLOBAL__N_13putEcP6Status+0x32>
    248d: a2 00        	ldx	#$0
    248f: 86 12        	stx	$12                     ; 0x2012 <_ZN12_GLOBAL__N_13putEcP6Status+0x2f>
    2491: a2 00        	ldx	#$0
    2493: 86 13        	stx	$13                     ; 0x2013 <_ZN12_GLOBAL__N_13putEcP6Status+0x30>
    2495: a6 15        	ldx	$15                     ; 0x2015 <_ZN12_GLOBAL__N_13putEcP6Status+0x32>
    2497: e4 13        	cpx	$13                     ; 0x2013 <_ZN12_GLOBAL__N_13putEcP6Status+0x30>
    2499: d0 09        	bne	$24a4 <free+0x1f>
    249b: a6 14        	ldx	$14                     ; 0x2014 <_ZN12_GLOBAL__N_13putEcP6Status+0x31>
    249d: e4 12        	cpx	$12                     ; 0x2012 <_ZN12_GLOBAL__N_13putEcP6Status+0x2f>
    249f: d0 03        	bne	$24a4 <free+0x1f>
    24a1: 4c fc 25     	jmp	$25fc <free+0x177>
    24a4: a5 14        	lda	$14                     ; 0x2014 <_ZN12_GLOBAL__N_13putEcP6Status+0x31>
    24a6: 18           	clc
    24a7: 69 fe        	adc	#$fe
    24a9: aa           	tax
    24aa: a5 15        	lda	$15                     ; 0x2015 <_ZN12_GLOBAL__N_13putEcP6Status+0x32>
    24ac: 69 ff        	adc	#$ff
    24ae: 86 d9        	stx	$d9                     ; 0x20d9 <_ZN12_GLOBAL__N_112print_stringEPKcP6Status+0x15>
    24b0: 85 da        	sta	$da                     ; 0x20da <_ZN12_GLOBAL__N_112print_stringEPKcP6Status+0x16>
    24b2: 85 12        	sta	$12                     ; 0x2012 <_ZN12_GLOBAL__N_13putEcP6Status+0x2f>
    24b4: a0 01        	ldy	#$1
    24b6: b1 d9        	lda	($d9),y                 ; 0x20d9 <_ZN12_GLOBAL__N_112print_stringEPKcP6Status+0x15>
    24b8: 85 16        	sta	$16                     ; 0x2016 <_ZN12_GLOBAL__N_13putEcP6Status+0x33>
    24ba: a9 fe        	lda	#$fe
    24bc: 32 d9        	and	($d9)                   ; 0x20d9 <_ZN12_GLOBAL__N_112print_stringEPKcP6Status+0x15>
    24be: 85 17        	sta	$17                     ; 0x2017 <_ZN12_GLOBAL__N_13putEcP6Status+0x34>
    24c0: 8a           	txa
    24c1: 86 1b        	stx	$1b                     ; 0x201b <_ZN12_GLOBAL__N_13putEcP6Status+0x38>
    24c3: 18           	clc
    24c4: 65 17        	adc	$17                     ; 0x2017 <_ZN12_GLOBAL__N_13putEcP6Status+0x34>
    24c6: aa           	tax
    24c7: a4 12        	ldy	$12                     ; 0x2012 <_ZN12_GLOBAL__N_13putEcP6Status+0x2f>
    24c9: 84 1c        	sty	$1c                     ; 0x201c <_ZN12_GLOBAL__N_13putEcP6Status+0x39>
    24cb: a5 12        	lda	$12                     ; 0x2012 <_ZN12_GLOBAL__N_13putEcP6Status+0x2f>
    24cd: 65 16        	adc	$16                     ; 0x2016 <_ZN12_GLOBAL__N_13putEcP6Status+0x33>
    24cf: a8           	tay
    24d0: b2 d9        	lda	($d9)                   ; 0x20d9 <_ZN12_GLOBAL__N_112print_stringEPKcP6Status+0x15>
    24d2: 85 1a        	sta	$1a                     ; 0x201a <_ZN12_GLOBAL__N_13putEcP6Status+0x37>
    24d4: a9 98        	lda	#$98
    24d6: 18           	clc
    24d7: 65 65        	adc	$65                     ; 0x2065 <_ZN12_GLOBAL__N_13putEcP6Status+0x82>
    24d9: 85 18        	sta	$18                     ; 0x2018 <_ZN12_GLOBAL__N_13putEcP6Status+0x35>
    24db: a9 27        	lda	#$27
    24dd: 65 66        	adc	$66                     ; 0x2066 <_ZN12_GLOBAL__N_13putEcP6Status+0x83>
    24df: 85 19        	sta	$19                     ; 0x2019 <_ZN12_GLOBAL__N_13putEcP6Status+0x36>
    24e1: c4 19        	cpy	$19                     ; 0x2019 <_ZN12_GLOBAL__N_13putEcP6Status+0x36>
    24e3: d0 0e        	bne	$24f3 <free+0x6e>
    24e5: e4 18        	cpx	$18                     ; 0x2018 <_ZN12_GLOBAL__N_13putEcP6Status+0x35>
    24e7: d0 0a        	bne	$24f3 <free+0x6e>
    24e9: a2 00        	ldx	#$0
    24eb: 86 12        	stx	$12                     ; 0x2012 <_ZN12_GLOBAL__N_13putEcP6Status+0x2f>
    24ed: a2 00        	ldx	#$0
    24ef: 86 13        	stx	$13                     ; 0x2013 <_ZN12_GLOBAL__N_13putEcP6Status+0x30>
    24f1: 80 04        	bra	$24f7 <free+0x72>
    24f3: 86 12        	stx	$12                     ; 0x2012 <_ZN12_GLOBAL__N_13putEcP6Status+0x2f>
    24f5: 84 13        	sty	$13                     ; 0x2013 <_ZN12_GLOBAL__N_13putEcP6Status+0x30>
    24f7: a5 1a        	lda	$1a                     ; 0x201a <_ZN12_GLOBAL__N_13putEcP6Status+0x37>
    24f9: 29 01        	and	#$1
    24fb: d0 03        	bne	$2500 <free+0x7b>
    24fd: 4c 7b 25     	jmp	$257b <free+0xf6>
    2500: a5 14        	lda	$14                     ; 0x2014 <_ZN12_GLOBAL__N_13putEcP6Status+0x31>
    2502: 18           	clc
    2503: 69 fc        	adc	#$fc
    2505: 85 14        	sta	$14                     ; 0x2014 <_ZN12_GLOBAL__N_13putEcP6Status+0x31>
    2507: a5 15        	lda	$15                     ; 0x2015 <_ZN12_GLOBAL__N_13putEcP6Status+0x32>
    2509: 69 ff        	adc	#$ff
    250b: 85 15        	sta	$15                     ; 0x2015 <_ZN12_GLOBAL__N_13putEcP6Status+0x32>
    250d: a0 01        	ldy	#$1
    250f: 38           	sec
    2510: a9 00        	lda	#$0
    2512: f2 14        	sbc	($14)                   ; 0x2014 <_ZN12_GLOBAL__N_13putEcP6Status+0x31>
    2514: 85 1a        	sta	$1a                     ; 0x201a <_ZN12_GLOBAL__N_13putEcP6Status+0x37>
    2516: a9 00        	lda	#$0
    2518: f1 14        	sbc	($14),y                 ; 0x2014 <_ZN12_GLOBAL__N_13putEcP6Status+0x31>
    251a: 85 14        	sta	$14                     ; 0x2014 <_ZN12_GLOBAL__N_13putEcP6Status+0x31>
    251c: a5 1b        	lda	$1b                     ; 0x201b <_ZN12_GLOBAL__N_13putEcP6Status+0x38>
    251e: 18           	clc
    251f: 65 1a        	adc	$1a                     ; 0x201a <_ZN12_GLOBAL__N_13putEcP6Status+0x37>
    2521: 85 d9        	sta	$d9                     ; 0x20d9 <_ZN12_GLOBAL__N_112print_stringEPKcP6Status+0x15>
    2523: a5 1c        	lda	$1c                     ; 0x201c <_ZN12_GLOBAL__N_13putEcP6Status+0x39>
    2525: 65 14        	adc	$14                     ; 0x2014 <_ZN12_GLOBAL__N_13putEcP6Status+0x31>
    2527: 85 da        	sta	$da                     ; 0x20da <_ZN12_GLOBAL__N_112print_stringEPKcP6Status+0x16>
    2529: b1 d9        	lda	($d9),y                 ; 0x20d9 <_ZN12_GLOBAL__N_112print_stringEPKcP6Status+0x15>
    252b: 85 e1        	sta	$e1                     ; 0x20e1 <_ZN12_GLOBAL__N_112print_stringEPKcP6Status+0x1d>
    252d: a9 fe        	lda	#$fe
    252f: 32 d9        	and	($d9)                   ; 0x20d9 <_ZN12_GLOBAL__N_112print_stringEPKcP6Status+0x15>
    2531: 85 e2        	sta	$e2                     ; 0x20e2 <_ZN12_GLOBAL__N_112print_stringEPKcP6Status+0x1e>
    2533: a6 12        	ldx	$12                     ; 0x2012 <_ZN12_GLOBAL__N_13putEcP6Status+0x2f>
    2535: 86 db        	stx	$db                     ; 0x20db <_ZN12_GLOBAL__N_112print_stringEPKcP6Status+0x17>
    2537: a6 13        	ldx	$13                     ; 0x2013 <_ZN12_GLOBAL__N_13putEcP6Status+0x30>
    2539: 86 dc        	stx	$dc                     ; 0x20dc <_ZN12_GLOBAL__N_112print_stringEPKcP6Status+0x18>
    253b: a6 d9        	ldx	$d9                     ; 0x20d9 <_ZN12_GLOBAL__N_112print_stringEPKcP6Status+0x15>
    253d: 86 12        	stx	$12                     ; 0x2012 <_ZN12_GLOBAL__N_13putEcP6Status+0x2f>
    253f: a6 da        	ldx	$da                     ; 0x20da <_ZN12_GLOBAL__N_112print_stringEPKcP6Status+0x16>
    2541: 86 13        	stx	$13                     ; 0x2013 <_ZN12_GLOBAL__N_13putEcP6Status+0x30>
    2543: a6 16        	ldx	$16                     ; 0x2016 <_ZN12_GLOBAL__N_13putEcP6Status+0x33>
    2545: 86 dd        	stx	$dd                     ; 0x20dd <_ZN12_GLOBAL__N_112print_stringEPKcP6Status+0x19>
    2547: a6 17        	ldx	$17                     ; 0x2017 <_ZN12_GLOBAL__N_13putEcP6Status+0x34>
    2549: 86 de        	stx	$de                     ; 0x20de <_ZN12_GLOBAL__N_112print_stringEPKcP6Status+0x1a>
    254b: a6 18        	ldx	$18                     ; 0x2018 <_ZN12_GLOBAL__N_13putEcP6Status+0x35>
    254d: 86 df        	stx	$df                     ; 0x20df <_ZN12_GLOBAL__N_112print_stringEPKcP6Status+0x1b>
    254f: a6 19        	ldx	$19                     ; 0x2019 <_ZN12_GLOBAL__N_13putEcP6Status+0x36>
    2551: 86 e0        	stx	$e0                     ; 0x20e0 <_ZN12_GLOBAL__N_112print_stringEPKcP6Status+0x1c>
    2553: 20 84 04     	jsr	$484 <_ZN12_GLOBAL__N_19FreeChunk6removeEv>
    2556: a6 e0        	ldx	$e0                     ; 0x20e0 <_ZN12_GLOBAL__N_112print_stringEPKcP6Status+0x1c>
    2558: 86 19        	stx	$19                     ; 0x2019 <_ZN12_GLOBAL__N_13putEcP6Status+0x36>
    255a: a6 df        	ldx	$df                     ; 0x20df <_ZN12_GLOBAL__N_112print_stringEPKcP6Status+0x1b>
    255c: 86 18        	stx	$18                     ; 0x2018 <_ZN12_GLOBAL__N_13putEcP6Status+0x35>
    255e: a6 db        	ldx	$db                     ; 0x20db <_ZN12_GLOBAL__N_112print_stringEPKcP6Status+0x17>
    2560: 86 12        	stx	$12                     ; 0x2012 <_ZN12_GLOBAL__N_13putEcP6Status+0x2f>
    2562: a6 dc        	ldx	$dc                     ; 0x20dc <_ZN12_GLOBAL__N_112print_stringEPKcP6Status+0x18>
    2564: 86 13        	stx	$13                     ; 0x2013 <_ZN12_GLOBAL__N_13putEcP6Status+0x30>
    2566: 18           	clc
    2567: a5 e2        	lda	$e2                     ; 0x20e2 <_ZN12_GLOBAL__N_112print_stringEPKcP6Status+0x1e>
    2569: a6 de        	ldx	$de                     ; 0x20de <_ZN12_GLOBAL__N_112print_stringEPKcP6Status+0x1a>
    256b: 86 14        	stx	$14                     ; 0x2014 <_ZN12_GLOBAL__N_13putEcP6Status+0x31>
    256d: 65 14        	adc	$14                     ; 0x2014 <_ZN12_GLOBAL__N_13putEcP6Status+0x31>
    256f: 85 17        	sta	$17                     ; 0x2017 <_ZN12_GLOBAL__N_13putEcP6Status+0x34>
    2571: a5 e1        	lda	$e1                     ; 0x20e1 <_ZN12_GLOBAL__N_112print_stringEPKcP6Status+0x1d>
    2573: a6 dd        	ldx	$dd                     ; 0x20dd <_ZN12_GLOBAL__N_112print_stringEPKcP6Status+0x19>
    2575: 86 14        	stx	$14                     ; 0x2014 <_ZN12_GLOBAL__N_13putEcP6Status+0x31>
    2577: 65 14        	adc	$14                     ; 0x2014 <_ZN12_GLOBAL__N_13putEcP6Status+0x31>
    2579: 85 16        	sta	$16                     ; 0x2016 <_ZN12_GLOBAL__N_13putEcP6Status+0x33>
    257b: a2 00        	ldx	#$0
    257d: 86 14        	stx	$14                     ; 0x2014 <_ZN12_GLOBAL__N_13putEcP6Status+0x31>
    257f: a2 00        	ldx	#$0
    2581: 86 15        	stx	$15                     ; 0x2015 <_ZN12_GLOBAL__N_13putEcP6Status+0x32>
    2583: a6 13        	ldx	$13                     ; 0x2013 <_ZN12_GLOBAL__N_13putEcP6Status+0x30>
    2585: e4 15        	cpx	$15                     ; 0x2015 <_ZN12_GLOBAL__N_13putEcP6Status+0x32>
    2587: d0 0d        	bne	$2596 <free+0x111>
    2589: a6 12        	ldx	$12                     ; 0x2012 <_ZN12_GLOBAL__N_13putEcP6Status+0x2f>
    258b: e4 14        	cpx	$14                     ; 0x2014 <_ZN12_GLOBAL__N_13putEcP6Status+0x31>
    258d: d0 07        	bne	$2596 <free+0x111>
    258f: a2 01        	ldx	#$1
    2591: 86 d4        	stx	$d4                     ; 0x20d4 <_ZN12_GLOBAL__N_112print_stringEPKcP6Status+0x10>
    2593: 4c ed 25     	jmp	$25ed <free+0x168>
    2596: a0 01        	ldy	#$1
    2598: b1 12        	lda	($12),y                 ; 0x2012 <_ZN12_GLOBAL__N_13putEcP6Status+0x2f>
    259a: a8           	tay
    259b: a9 fe        	lda	#$fe
    259d: 32 12        	and	($12)                   ; 0x2012 <_ZN12_GLOBAL__N_13putEcP6Status+0x2f>
    259f: 18           	clc
    25a0: 85 df        	sta	$df                     ; 0x20df <_ZN12_GLOBAL__N_112print_stringEPKcP6Status+0x1b>
    25a2: 65 12        	adc	$12                     ; 0x2012 <_ZN12_GLOBAL__N_13putEcP6Status+0x2f>
    25a4: 85 14        	sta	$14                     ; 0x2014 <_ZN12_GLOBAL__N_13putEcP6Status+0x31>
    25a6: 98           	tya
    25a7: 85 db        	sta	$db                     ; 0x20db <_ZN12_GLOBAL__N_112print_stringEPKcP6Status+0x17>
    25a9: 65 13        	adc	$13                     ; 0x2013 <_ZN12_GLOBAL__N_13putEcP6Status+0x30>
    25ab: c5 19        	cmp	$19                     ; 0x2019 <_ZN12_GLOBAL__N_13putEcP6Status+0x36>
    25ad: d0 0e        	bne	$25bd <free+0x138>
    25af: a6 14        	ldx	$14                     ; 0x2014 <_ZN12_GLOBAL__N_13putEcP6Status+0x31>
    25b1: e4 18        	cpx	$18                     ; 0x2018 <_ZN12_GLOBAL__N_13putEcP6Status+0x35>
    25b3: d0 08        	bne	$25bd <free+0x138>
    25b5: a9 01        	lda	#$1
    25b7: 64 14        	stz	$14                     ; 0x2014 <_ZN12_GLOBAL__N_13putEcP6Status+0x31>
    25b9: 25 d4        	and	$d4                     ; 0x20d4 <_ZN12_GLOBAL__N_112print_stringEPKcP6Status+0x10>
    25bb: 80 08        	bra	$25c5 <free+0x140>
    25bd: 85 15        	sta	$15                     ; 0x2015 <_ZN12_GLOBAL__N_13putEcP6Status+0x32>
    25bf: a9 01        	lda	#$1
    25c1: 32 14        	and	($14)                   ; 0x2014 <_ZN12_GLOBAL__N_13putEcP6Status+0x31>
    25c3: 64 14        	stz	$14                     ; 0x2014 <_ZN12_GLOBAL__N_13putEcP6Status+0x31>
    25c5: a6 14        	ldx	$14                     ; 0x2014 <_ZN12_GLOBAL__N_13putEcP6Status+0x31>
    25c7: d0 03        	bne	$25cc <free+0x147>
    25c9: aa           	tax
    25ca: f0 31        	beq	$25fd <free+0x178>
    25cc: a6 16        	ldx	$16                     ; 0x2016 <_ZN12_GLOBAL__N_13putEcP6Status+0x33>
    25ce: 86 dd        	stx	$dd                     ; 0x20dd <_ZN12_GLOBAL__N_112print_stringEPKcP6Status+0x19>
    25d0: a6 17        	ldx	$17                     ; 0x2017 <_ZN12_GLOBAL__N_13putEcP6Status+0x34>
    25d2: 86 de        	stx	$de                     ; 0x20de <_ZN12_GLOBAL__N_112print_stringEPKcP6Status+0x1a>
    25d4: 20 84 04     	jsr	$484 <_ZN12_GLOBAL__N_19FreeChunk6removeEv>
    25d7: 18           	clc
    25d8: a6 df        	ldx	$df                     ; 0x20df <_ZN12_GLOBAL__N_112print_stringEPKcP6Status+0x1b>
    25da: 8a           	txa
    25db: a6 de        	ldx	$de                     ; 0x20de <_ZN12_GLOBAL__N_112print_stringEPKcP6Status+0x1a>
    25dd: 86 12        	stx	$12                     ; 0x2012 <_ZN12_GLOBAL__N_13putEcP6Status+0x2f>
    25df: 65 12        	adc	$12                     ; 0x2012 <_ZN12_GLOBAL__N_13putEcP6Status+0x2f>
    25e1: 85 17        	sta	$17                     ; 0x2017 <_ZN12_GLOBAL__N_13putEcP6Status+0x34>
    25e3: a5 db        	lda	$db                     ; 0x20db <_ZN12_GLOBAL__N_112print_stringEPKcP6Status+0x17>
    25e5: a6 dd        	ldx	$dd                     ; 0x20dd <_ZN12_GLOBAL__N_112print_stringEPKcP6Status+0x19>
    25e7: 86 12        	stx	$12                     ; 0x2012 <_ZN12_GLOBAL__N_13putEcP6Status+0x2f>
    25e9: 65 12        	adc	$12                     ; 0x2012 <_ZN12_GLOBAL__N_13putEcP6Status+0x2f>
    25eb: 85 16        	sta	$16                     ; 0x2016 <_ZN12_GLOBAL__N_13putEcP6Status+0x33>
    25ed: a6 d9        	ldx	$d9                     ; 0x20d9 <_ZN12_GLOBAL__N_112print_stringEPKcP6Status+0x15>
    25ef: 86 12        	stx	$12                     ; 0x2012 <_ZN12_GLOBAL__N_13putEcP6Status+0x2f>
    25f1: a6 da        	ldx	$da                     ; 0x20da <_ZN12_GLOBAL__N_112print_stringEPKcP6Status+0x16>
    25f3: 86 13        	stx	$13                     ; 0x2013 <_ZN12_GLOBAL__N_13putEcP6Status+0x30>
    25f5: a6 16        	ldx	$16                     ; 0x2016 <_ZN12_GLOBAL__N_13putEcP6Status+0x33>
    25f7: a5 17        	lda	$17                     ; 0x2017 <_ZN12_GLOBAL__N_13putEcP6Status+0x34>
    25f9: 20 4e 03     	jsr	$34e <_ZN12_GLOBAL__N_19FreeChunk6insertEPvj>
    25fc: 60           	rts
    25fd: b2 12        	lda	($12)                   ; 0x2012 <_ZN12_GLOBAL__N_13putEcP6Status+0x2f>
    25ff: 09 01        	ora	#$1
    2601: 92 12        	sta	($12)                   ; 0x2012 <_ZN12_GLOBAL__N_13putEcP6Status+0x2f>
    2603: a0 01        	ldy	#$1
    2605: a5 db        	lda	$db                     ; 0x20db <_ZN12_GLOBAL__N_112print_stringEPKcP6Status+0x17>
    2607: 91 12        	sta	($12),y                 ; 0x2012 <_ZN12_GLOBAL__N_13putEcP6Status+0x2f>
    2609: 80 e2        	bra	$25ed <free+0x168>

0000260b <memcpy>:
    260b: a8           	tay
    260c: 8a           	txa
    260d: d0 03        	bne	$2612 <memcpy+0x7>
    260f: 98           	tya
    2610: f0 24        	beq	$2636 <memcpy+0x2b>
    2612: a5 12        	lda	$12                     ; 0x2012 <_ZN12_GLOBAL__N_13putEcP6Status+0x2f>
    2614: 85 16        	sta	$16                     ; 0x2016 <_ZN12_GLOBAL__N_13putEcP6Status+0x33>
    2616: a5 13        	lda	$13                     ; 0x2013 <_ZN12_GLOBAL__N_13putEcP6Status+0x30>
    2618: 85 17        	sta	$17                     ; 0x2017 <_ZN12_GLOBAL__N_13putEcP6Status+0x34>
    261a: b2 14        	lda	($14)                   ; 0x2014 <_ZN12_GLOBAL__N_13putEcP6Status+0x31>
    261c: 92 16        	sta	($16)                   ; 0x2016 <_ZN12_GLOBAL__N_13putEcP6Status+0x33>
    261e: e6 16        	inc	$16                     ; 0x2016 <_ZN12_GLOBAL__N_13putEcP6Status+0x33>
    2620: d0 02        	bne	$2624 <memcpy+0x19>
    2622: e6 17        	inc	$17                     ; 0x2017 <_ZN12_GLOBAL__N_13putEcP6Status+0x34>
    2624: e6 14        	inc	$14                     ; 0x2014 <_ZN12_GLOBAL__N_13putEcP6Status+0x31>
    2626: d0 02        	bne	$262a <memcpy+0x1f>
    2628: e6 15        	inc	$15                     ; 0x2015 <_ZN12_GLOBAL__N_13putEcP6Status+0x32>
    262a: 88           	dey
    262b: c0 ff        	cpy	#$ff
    262d: d0 01        	bne	$2630 <memcpy+0x25>
    262f: ca           	dex
    2630: 8a           	txa
    2631: d0 e7        	bne	$261a <memcpy+0xf>
    2633: 98           	tya
    2634: d0 e4        	bne	$261a <memcpy+0xf>
    2636: 60           	rts

00002637 <__memset>:
    2637: a4 14        	ldy	$14                     ; 0x2014 <_ZN12_GLOBAL__N_13putEcP6Status+0x31>
    2639: d0 04        	bne	$263f <__memset+0x8>
    263b: e0 00        	cpx	#$0
    263d: f0 17        	beq	$2656 <__memset+0x1f>
    263f: 92 12        	sta	($12)                   ; 0x2012 <_ZN12_GLOBAL__N_13putEcP6Status+0x2f>
    2641: e6 12        	inc	$12                     ; 0x2012 <_ZN12_GLOBAL__N_13putEcP6Status+0x2f>
    2643: d0 02        	bne	$2647 <__memset+0x10>
    2645: e6 13        	inc	$13                     ; 0x2013 <_ZN12_GLOBAL__N_13putEcP6Status+0x30>
    2647: ca           	dex
    2648: e0 ff        	cpx	#$ff
    264a: d0 02        	bne	$264e <__memset+0x17>
    264c: c6 14        	dec	$14                     ; 0x2014 <_ZN12_GLOBAL__N_13putEcP6Status+0x31>
    264e: a4 14        	ldy	$14                     ; 0x2014 <_ZN12_GLOBAL__N_13putEcP6Status+0x31>
    2650: d0 ed        	bne	$263f <__memset+0x8>
    2652: e0 00        	cpx	#$0
    2654: d0 e9        	bne	$263f <__memset+0x8>
    2656: 60           	rts

00002657 <strlen>:
    2657: b2 12        	lda	($12)                   ; 0x2012 <_ZN12_GLOBAL__N_13putEcP6Status+0x2f>
    2659: f0 2e        	beq	$2689 <strlen+0x32>
    265b: 64 15        	stz	$15                     ; 0x2015 <_ZN12_GLOBAL__N_13putEcP6Status+0x32>
    265d: a0 01        	ldy	#$1
    265f: a9 00        	lda	#$0
    2661: 64 14        	stz	$14                     ; 0x2014 <_ZN12_GLOBAL__N_13putEcP6Status+0x31>
    2663: aa           	tax
    2664: e6 14        	inc	$14                     ; 0x2014 <_ZN12_GLOBAL__N_13putEcP6Status+0x31>
    2666: d0 01        	bne	$2669 <strlen+0x12>
    2668: e8           	inx
    2669: 18           	clc
    266a: 85 17        	sta	$17                     ; 0x2017 <_ZN12_GLOBAL__N_13putEcP6Status+0x34>
    266c: a5 15        	lda	$15                     ; 0x2015 <_ZN12_GLOBAL__N_13putEcP6Status+0x32>
    266e: 65 12        	adc	$12                     ; 0x2012 <_ZN12_GLOBAL__N_13putEcP6Status+0x2f>
    2670: 85 16        	sta	$16                     ; 0x2016 <_ZN12_GLOBAL__N_13putEcP6Status+0x33>
    2672: a5 17        	lda	$17                     ; 0x2017 <_ZN12_GLOBAL__N_13putEcP6Status+0x34>
    2674: 65 13        	adc	$13                     ; 0x2013 <_ZN12_GLOBAL__N_13putEcP6Status+0x30>
    2676: 85 17        	sta	$17                     ; 0x2017 <_ZN12_GLOBAL__N_13putEcP6Status+0x34>
    2678: b1 16        	lda	($16),y                 ; 0x2016 <_ZN12_GLOBAL__N_13putEcP6Status+0x33>
    267a: 85 16        	sta	$16                     ; 0x2016 <_ZN12_GLOBAL__N_13putEcP6Status+0x33>
    267c: a5 14        	lda	$14                     ; 0x2014 <_ZN12_GLOBAL__N_13putEcP6Status+0x31>
    267e: 85 15        	sta	$15                     ; 0x2015 <_ZN12_GLOBAL__N_13putEcP6Status+0x32>
    2680: 8a           	txa
    2681: e6 16        	inc	$16                     ; 0x2016 <_ZN12_GLOBAL__N_13putEcP6Status+0x33>
    2683: c6 16        	dec	$16                     ; 0x2016 <_ZN12_GLOBAL__N_13putEcP6Status+0x33>
    2685: d0 dd        	bne	$2664 <strlen+0xd>
    2687: 80 04        	bra	$268d <strlen+0x36>
    2689: 64 14        	stz	$14                     ; 0x2014 <_ZN12_GLOBAL__N_13putEcP6Status+0x31>
    268b: a2 00        	ldx	#$0
    268d: a5 14        	lda	$14                     ; 0x2014 <_ZN12_GLOBAL__N_13putEcP6Status+0x31>
    268f: 60           	rts

00002690 <__simple_strtoui>:
    2690: a9 d0        	lda	#$d0
    2692: 18           	clc
    2693: 72 12        	adc	($12)                   ; 0x2012 <_ZN12_GLOBAL__N_13putEcP6Status+0x2f>
    2695: c9 0a        	cmp	#$a
    2697: 90 03        	bcc	$269c <__simple_strtoui+0xc>
    2699: 4c ed 26     	jmp	$26ed <__simple_strtoui+0x5d>
    269c: b2 12        	lda	($12)                   ; 0x2012 <_ZN12_GLOBAL__N_13putEcP6Status+0x2f>
    269e: 64 16        	stz	$16                     ; 0x2016 <_ZN12_GLOBAL__N_13putEcP6Status+0x33>
    26a0: a0 01        	ldy	#$1
    26a2: 85 17        	sta	$17                     ; 0x2017 <_ZN12_GLOBAL__N_13putEcP6Status+0x34>
    26a4: 64 18        	stz	$18                     ; 0x2018 <_ZN12_GLOBAL__N_13putEcP6Status+0x35>
    26a6: a2 00        	ldx	#$0
    26a8: 06 18        	asl	$18                     ; 0x2018 <_ZN12_GLOBAL__N_13putEcP6Status+0x35>
    26aa: 8a           	txa
    26ab: 2a           	rol
    26ac: 85 19        	sta	$19                     ; 0x2019 <_ZN12_GLOBAL__N_13putEcP6Status+0x36>
    26ae: a5 18        	lda	$18                     ; 0x2018 <_ZN12_GLOBAL__N_13putEcP6Status+0x35>
    26b0: 0a           	asl
    26b1: a6 19        	ldx	$19                     ; 0x2019 <_ZN12_GLOBAL__N_13putEcP6Status+0x36>
    26b3: 86 1a        	stx	$1a                     ; 0x201a <_ZN12_GLOBAL__N_13putEcP6Status+0x37>
    26b5: 26 1a        	rol	$1a                     ; 0x201a <_ZN12_GLOBAL__N_13putEcP6Status+0x37>
    26b7: 0a           	asl
    26b8: 26 1a        	rol	$1a                     ; 0x201a <_ZN12_GLOBAL__N_13putEcP6Status+0x37>
    26ba: 18           	clc
    26bb: 65 18        	adc	$18                     ; 0x2018 <_ZN12_GLOBAL__N_13putEcP6Status+0x35>
    26bd: aa           	tax
    26be: a5 1a        	lda	$1a                     ; 0x201a <_ZN12_GLOBAL__N_13putEcP6Status+0x37>
    26c0: 65 19        	adc	$19                     ; 0x2019 <_ZN12_GLOBAL__N_13putEcP6Status+0x36>
    26c2: 85 18        	sta	$18                     ; 0x2018 <_ZN12_GLOBAL__N_13putEcP6Status+0x35>
    26c4: 8a           	txa
    26c5: 18           	clc
    26c6: 65 17        	adc	$17                     ; 0x2017 <_ZN12_GLOBAL__N_13putEcP6Status+0x34>
    26c8: 85 17        	sta	$17                     ; 0x2017 <_ZN12_GLOBAL__N_13putEcP6Status+0x34>
    26ca: a5 18        	lda	$18                     ; 0x2018 <_ZN12_GLOBAL__N_13putEcP6Status+0x35>
    26cc: 65 16        	adc	$16                     ; 0x2016 <_ZN12_GLOBAL__N_13putEcP6Status+0x33>
    26ce: aa           	tax
    26cf: 18           	clc
    26d0: a5 17        	lda	$17                     ; 0x2017 <_ZN12_GLOBAL__N_13putEcP6Status+0x34>
    26d2: 69 d0        	adc	#$d0
    26d4: 85 18        	sta	$18                     ; 0x2018 <_ZN12_GLOBAL__N_13putEcP6Status+0x35>
    26d6: 8a           	txa
    26d7: 69 ff        	adc	#$ff
    26d9: aa           	tax
    26da: b1 12        	lda	($12),y                 ; 0x2012 <_ZN12_GLOBAL__N_13putEcP6Status+0x2f>
    26dc: 85 17        	sta	$17                     ; 0x2017 <_ZN12_GLOBAL__N_13putEcP6Status+0x34>
    26de: 18           	clc
    26df: 69 d0        	adc	#$d0
    26e1: e6 12        	inc	$12                     ; 0x2012 <_ZN12_GLOBAL__N_13putEcP6Status+0x2f>
    26e3: d0 02        	bne	$26e7 <__simple_strtoui+0x57>
    26e5: e6 13        	inc	$13                     ; 0x2013 <_ZN12_GLOBAL__N_13putEcP6Status+0x30>
    26e7: c9 0a        	cmp	#$a
    26e9: 90 bd        	bcc	$26a8 <__simple_strtoui+0x18>
    26eb: 80 04        	bra	$26f1 <__simple_strtoui+0x61>
    26ed: 64 18        	stz	$18                     ; 0x2018 <_ZN12_GLOBAL__N_13putEcP6Status+0x35>
    26ef: a2 00        	ldx	#$0
    26f1: a5 12        	lda	$12                     ; 0x2012 <_ZN12_GLOBAL__N_13putEcP6Status+0x2f>
    26f3: 92 14        	sta	($14)                   ; 0x2014 <_ZN12_GLOBAL__N_13putEcP6Status+0x31>
    26f5: a0 01        	ldy	#$1
    26f7: a5 13        	lda	$13                     ; 0x2013 <_ZN12_GLOBAL__N_13putEcP6Status+0x30>
    26f9: 91 14        	sta	($14),y                 ; 0x2014 <_ZN12_GLOBAL__N_13putEcP6Status+0x31>
    26fb: a5 18        	lda	$18                     ; 0x2018 <_ZN12_GLOBAL__N_13putEcP6Status+0x35>
    26fd: 60           	rts

000026fe <__mulhi3>:
    26fe: a4 13        	ldy	$13                     ; 0x2013 <_ZN12_GLOBAL__N_13putEcP6Status+0x30>
    2700: d0 04        	bne	$2706 <__mulhi3+0x8>
    2702: a4 12        	ldy	$12                     ; 0x2012 <_ZN12_GLOBAL__N_13putEcP6Status+0x2f>
    2704: f0 25        	beq	$272b <__mulhi3+0x2d>
    2706: 85 14        	sta	$14                     ; 0x2014 <_ZN12_GLOBAL__N_13putEcP6Status+0x31>
    2708: 86 15        	stx	$15                     ; 0x2015 <_ZN12_GLOBAL__N_13putEcP6Status+0x32>
    270a: a0 00        	ldy	#$0
    270c: 98           	tya
    270d: 46 13        	lsr	$13                     ; 0x2013 <_ZN12_GLOBAL__N_13putEcP6Status+0x30>
    270f: 66 12        	ror	$12                     ; 0x2012 <_ZN12_GLOBAL__N_13putEcP6Status+0x2f>
    2711: 90 09        	bcc	$271c <__mulhi3+0x1e>
    2713: aa           	tax
    2714: 98           	tya
    2715: 18           	clc
    2716: 65 14        	adc	$14                     ; 0x2014 <_ZN12_GLOBAL__N_13putEcP6Status+0x31>
    2718: a8           	tay
    2719: 8a           	txa
    271a: 65 15        	adc	$15                     ; 0x2015 <_ZN12_GLOBAL__N_13putEcP6Status+0x32>
    271c: 06 14        	asl	$14                     ; 0x2014 <_ZN12_GLOBAL__N_13putEcP6Status+0x31>
    271e: 26 15        	rol	$15                     ; 0x2015 <_ZN12_GLOBAL__N_13putEcP6Status+0x32>
    2720: a6 13        	ldx	$13                     ; 0x2013 <_ZN12_GLOBAL__N_13putEcP6Status+0x30>
    2722: d0 e9        	bne	$270d <__mulhi3+0xf>
    2724: a6 12        	ldx	$12                     ; 0x2012 <_ZN12_GLOBAL__N_13putEcP6Status+0x2f>
    2726: d0 e5        	bne	$270d <__mulhi3+0xf>
    2728: aa           	tax
    2729: 98           	tya
    272a: 60           	rts
    272b: a0 00        	ldy	#$0
    272d: 98           	tya
    272e: 80 f8        	bra	$2728 <__mulhi3+0x2a>
