
opl3tweak.elf:	file format elf32-mos

SYMBOL TABLE:
00000000 l    df *ABS*	00000000 zero-bss.c
00000000 l    df *ABS*	00000000 zero-zp-bss.c
00000000 l    df *ABS*	00000000 copy-zp-data.c
00000000 l    df *ABS*	00000000 ld-temp.o
00000356 l     F .text	0000013a opl3_initialize
00000490 l     F .text	00000151 opl3_setInstrumentAllChannels
00000044 l     O .zp.bss	00000007 kernelEventData
00000030 l     O .zp.data	00000001 _ccolor
0000461f l     O .rodata	00000030 textColors
0000004b l     O .zp.bss	00000001 _col
0000004c l     O .zp.bss	00000001 _row
000048a2 l     O .bss	00000004 _BITMAP_BASE.0
000048a1 l     O .bss	00000001 kernelError
000048a7 l     O .bss	0000009a opl3_fields
000022a2 l     F .text	000001e7 textPrint
00003655 l     F .text	00000c2c printf
00002489 l     F .text	00000fe0 updateValues
0000004f l     O .zp.bss	00000001 exitCode
000048a6 l     O .bss	00000001 shiftTog
00000032 l     O .zp.bss	00000012 polyOPL3Buffer
00000050 l     O .zp.bss	00000001 indexUI
0000464f l     O .rodata	00000016 navWSJumps
000042cd l     F .text	000000db __udivmodhi4
00004607 l     O .rodata	00000018 opl3_fnums
00000031 l     O .zp.bss	00000001 chipAct.0
000045af l     O .rodata	00000058 noteColors
0000346e l     F .text	000000db _ZN12_GLOBAL__N_13putEcP6Status
0000004d l     O .zp.bss	00000002 __putchar.s
00003549 l     F .text	0000010c _ZN12_GLOBAL__N_112print_stringEPKcP6Status
000005e1 g     F .text	00001cc1 main
000303fc g       .pianopal	00000000 pianopal_end
00043000 g       .keys	00000000 keys_end
00030000 g       .pianopal	00000000 pianopal_start
00030400 g       .keys	00000000 keys_start
00000315 g       .text	00000000 __after_main
00000301 g       .text	00000000 __do_init_stack
0000030f g       .text	00000000 __do_copy_zp_data
0000033f g     F .text	00000017 __copy_zp_data
00000309 g       .text	00000000 __do_zero_bss
00000319 g     F .text	00000013 __zero_bss
0000030c g       .text	00000000 __do_zero_zp_bss
0000032c g     F .text	00000013 __zero_zp_bss
00003469 g     F .text	00000005 exit
00000318 g       .text	00000000 _fini
000043a8 g       .rodata	00000000 __set_v
000042ad  w    F .text	00000020 __memset
00001000  w      *ABS*	00000000 __heap_default_limit
00004942 g       .noinit	00000000 __heap_start
00004281  w    F .text	0000002c memcpy
00000010 g       *ABS*	00000000 __rc0
00000012 g       *ABS*	00000000 __rc2
00000014 g       *ABS*	00000000 __rc4
00000016 g       *ABS*	00000000 __rc6
00000018 g       *ABS*	00000000 __rc8
0000001a g       *ABS*	00000000 __rc10
0000001c g       *ABS*	00000000 __rc12
0000001e g       *ABS*	00000000 __rc14
00000020 g       *ABS*	00000000 __rc16
00000022 g       *ABS*	00000000 __rc18
00000024 g       *ABS*	00000000 __rc20
00000026 g       *ABS*	00000000 __rc22
00000028 g       *ABS*	00000000 __rc24
0000002a g       *ABS*	00000000 __rc26
0000002c g       *ABS*	00000000 __rc28
0000002e g       *ABS*	00000000 __rc30
0000002f g       *ABS*	00000000 __rc31
00000300 g       *ABS*	00000000 __f256_start
0000c000 g       *ABS*	00000000 __stack
0000c000 g       *ABS*	00000000 __SLOT_ADDR
0800c000 g       *ABS*	00000000 __block8_lma
00002000 g       *ABS*	00000000 __BLOCK_SIZE
0900c000 g       *ABS*	00000000 __block9_lma
0a00c000 g       *ABS*	00000000 __block10_lma
0b00c000 g       *ABS*	00000000 __block11_lma
0c00c000 g       *ABS*	00000000 __block12_lma
0d00c000 g       *ABS*	00000000 __block13_lma
0e00c000 g       *ABS*	00000000 __block14_lma
0f00c000 g       *ABS*	00000000 __block15_lma
1000c000 g       *ABS*	00000000 __block16_lma
1100c000 g       *ABS*	00000000 __block17_lma
1200c000 g       *ABS*	00000000 __block18_lma
1300c000 g       *ABS*	00000000 __block19_lma
1400c000 g       *ABS*	00000000 __block20_lma
1500c000 g       *ABS*	00000000 __block21_lma
1600c000 g       *ABS*	00000000 __block22_lma
1700c000 g       *ABS*	00000000 __block23_lma
00030000 g       *ABS*	00000000 __pianopal_lma
000003fc g       *ABS*	00000000 __pianopal_size
00030400 g       *ABS*	00000000 __keys_lma
00012c00 g       *ABS*	00000000 __keys_size
000048a1 g       .bss	00000000 __bss_start
000303fc g       .pianopal	00000000 end_pianopal
00043000 g       .keys	00000000 end_keys
00000301 g       .text	00000000 _start
0000002d g       *ABS*	00000000 __rc29
0000002b g       *ABS*	00000000 __rc27
00000029 g       *ABS*	00000000 __rc25
00000027 g       *ABS*	00000000 __rc23
00000025 g       *ABS*	00000000 __rc21
00000023 g       *ABS*	00000000 __rc19
00000021 g       *ABS*	00000000 __rc17
0000001f g       *ABS*	00000000 __rc15
0000001d g       *ABS*	00000000 __rc13
0000001b g       *ABS*	00000000 __rc11
00000019 g       *ABS*	00000000 __rc9
00000017 g       *ABS*	00000000 __rc7
00000015 g       *ABS*	00000000 __rc5
00000013 g       *ABS*	00000000 __rc3
00000011 g       *ABS*	00000000 __rc1
00000030 g       .zp.data	00000000 __zp_data_start
00000300 g       *ABS*	00000000 __zp_data_load_start
00000001 g       *ABS*	00000000 __zp_data_size
00000031 g       .zp.bss	00000000 __zp_bss_start
00000020 g       *ABS*	00000000 __zp_bss_size
00000301 g       .text	00000000 _init
000043a8 g       .text	00000000 __init_array_start
000043a8 g       .text	00000000 __init_array_end
000043a8 g       .text	00000000 __fini_array_start
000043a8 g       .text	00000000 __fini_array_end
000048a1 g       .data	00000000 __data_start
000048a1 g       .data	00000000 __data_end
000048a1 g       *ABS*	00000000 __data_load_start
00000000 g       *ABS*	00000000 __data_size
00004941 g       .bss	00000000 __bss_end
000000a0 g       *ABS*	00000000 __bss_size
00004941 g       .noinit	00000000 end_block8
00004941 g       .noinit	00000000 end_block9
00004941 g       .noinit	00000000 end_block10
00004941 g       .noinit	00000000 end_block11
00004941 g       .noinit	00000000 end_block12
00004941 g       .noinit	00000000 end_block13
00004941 g       .noinit	00000000 end_block14
00004941 g       .noinit	00000000 end_block15
00004941 g       .noinit	00000000 end_block16
00004941 g       .noinit	00000000 end_block17
00004941 g       .noinit	00000000 end_block18
00004941 g       .noinit	00000000 end_block19
00004941 g       .noinit	00000000 end_block20
00004941 g       .noinit	00000000 end_block21
00004941 g       .noinit	00000000 end_block22
00004941 g       .noinit	00000000 end_block23

Disassembly of section .text:

00000301 <_start>:
     301: a9 00        	lda	#$0
     303: 85 10        	sta	$10                     ; 0x2010 <main+0x1a2f>
     305: a9 c0        	lda	#$c0
     307: 85 11        	sta	$11                     ; 0x2011 <main+0x1a30>

00000309 <__do_zero_bss>:
     309: 20 19 03     	jsr	$319 <__zero_bss>

0000030c <__do_zero_zp_bss>:
     30c: 20 2c 03     	jsr	$32c <__zero_zp_bss>

0000030f <__do_copy_zp_data>:
     30f: 20 3f 03     	jsr	$33f <__copy_zp_data>
     312: 20 e1 05     	jsr	$5e1 <main>

00000315 <__after_main>:
     315: 4c 69 34     	jmp	$3469 <exit>

00000318 <_fini>:
     318: 60           	rts

00000319 <__zero_bss>:
     319: a2 a0        	ldx	#$a0
     31b: a0 00        	ldy	#$0
     31d: a9 a1        	lda	#$a1
     31f: 85 12        	sta	$12                     ; 0x2012 <main+0x1a31>
     321: a9 48        	lda	#$48
     323: 85 13        	sta	$13                     ; 0x2013 <main+0x1a32>
     325: a9 00        	lda	#$0
     327: 84 14        	sty	$14                     ; 0x2014 <main+0x1a33>
     329: 4c ad 42     	jmp	$42ad <__memset>

0000032c <__zero_zp_bss>:
     32c: a2 20        	ldx	#$20
     32e: a0 00        	ldy	#$0
     330: a9 31        	lda	#$31
     332: 85 12        	sta	$12                     ; 0x2012 <main+0x1a31>
     334: a9 00        	lda	#$0
     336: 85 13        	sta	$13                     ; 0x2013 <main+0x1a32>
     338: a9 00        	lda	#$0
     33a: 84 14        	sty	$14                     ; 0x2014 <main+0x1a33>
     33c: 4c ad 42     	jmp	$42ad <__memset>

0000033f <__copy_zp_data>:
     33f: a9 01        	lda	#$1
     341: a2 00        	ldx	#$0
     343: a0 30        	ldy	#$30
     345: 84 12        	sty	$12                     ; 0x2012 <main+0x1a31>
     347: a0 00        	ldy	#$0
     349: 84 13        	sty	$13                     ; 0x2013 <main+0x1a32>
     34b: a0 00        	ldy	#$0
     34d: 84 14        	sty	$14                     ; 0x2014 <main+0x1a33>
     34f: a0 03        	ldy	#$3
     351: 84 15        	sty	$15                     ; 0x2015 <main+0x1a34>
     353: 4c 81 42     	jmp	$4281 <memcpy>

00000356 <opl3_initialize>:
     356: a2 01        	ldx	#$1
     358: 8e 80 d5     	stx	$d580                   ; 0xd580 <__heap_start+0x8c3e>
     35b: a0 20        	ldy	#$20
     35d: 8c 81 d5     	sty	$d581                   ; 0xd581 <__heap_start+0x8c3f>
     360: a0 02        	ldy	#$2
     362: 8c 80 d5     	sty	$d580                   ; 0xd580 <__heap_start+0x8c3e>
     365: 9c 81 d5     	stz	$d581                   ; 0xd581 <__heap_start+0x8c3f>
     368: c8           	iny
     369: 8c 80 d5     	sty	$d580                   ; 0xd580 <__heap_start+0x8c3e>
     36c: 9c 81 d5     	stz	$d581                   ; 0xd581 <__heap_start+0x8c3f>
     36f: c8           	iny
     370: 8c 82 d5     	sty	$d582                   ; 0xd582 <__heap_start+0x8c40>
     373: 9c 81 d5     	stz	$d581                   ; 0xd581 <__heap_start+0x8c3f>
     376: c8           	iny
     377: 8c 82 d5     	sty	$d582                   ; 0xd582 <__heap_start+0x8c40>
     37a: 8e 81 d5     	stx	$d581                   ; 0xd581 <__heap_start+0x8c3f>
     37d: a2 08        	ldx	#$8
     37f: 8e 80 d5     	stx	$d580                   ; 0xd580 <__heap_start+0x8c3e>
     382: 9c 81 d5     	stz	$d581                   ; 0xd581 <__heap_start+0x8c3f>
     385: a2 bd        	ldx	#$bd
     387: 8e 80 d5     	stx	$d580                   ; 0xd580 <__heap_start+0x8c3e>
     38a: 9c 81 d5     	stz	$d581                   ; 0xd581 <__heap_start+0x8c3f>
     38d: a2 c0        	ldx	#$c0
     38f: 8e 80 d5     	stx	$d580                   ; 0xd580 <__heap_start+0x8c3e>
     392: a2 30        	ldx	#$30
     394: 8e 81 d5     	stx	$d581                   ; 0xd581 <__heap_start+0x8c3f>
     397: a0 c1        	ldy	#$c1
     399: 8c 80 d5     	sty	$d580                   ; 0xd580 <__heap_start+0x8c3e>
     39c: 8e 81 d5     	stx	$d581                   ; 0xd581 <__heap_start+0x8c3f>
     39f: c8           	iny
     3a0: 8c 80 d5     	sty	$d580                   ; 0xd580 <__heap_start+0x8c3e>
     3a3: 8e 81 d5     	stx	$d581                   ; 0xd581 <__heap_start+0x8c3f>
     3a6: c8           	iny
     3a7: 8c 80 d5     	sty	$d580                   ; 0xd580 <__heap_start+0x8c3e>
     3aa: 8e 81 d5     	stx	$d581                   ; 0xd581 <__heap_start+0x8c3f>
     3ad: c8           	iny
     3ae: 8c 80 d5     	sty	$d580                   ; 0xd580 <__heap_start+0x8c3e>
     3b1: 8e 81 d5     	stx	$d581                   ; 0xd581 <__heap_start+0x8c3f>
     3b4: c8           	iny
     3b5: 8c 80 d5     	sty	$d580                   ; 0xd580 <__heap_start+0x8c3e>
     3b8: 8e 81 d5     	stx	$d581                   ; 0xd581 <__heap_start+0x8c3f>
     3bb: c8           	iny
     3bc: 8c 80 d5     	sty	$d580                   ; 0xd580 <__heap_start+0x8c3e>
     3bf: 8e 81 d5     	stx	$d581                   ; 0xd581 <__heap_start+0x8c3f>
     3c2: c8           	iny
     3c3: 8c 80 d5     	sty	$d580                   ; 0xd580 <__heap_start+0x8c3e>
     3c6: 8e 81 d5     	stx	$d581                   ; 0xd581 <__heap_start+0x8c3f>
     3c9: c8           	iny
     3ca: 8c 80 d5     	sty	$d580                   ; 0xd580 <__heap_start+0x8c3e>
     3cd: 8e 81 d5     	stx	$d581                   ; 0xd581 <__heap_start+0x8c3f>
     3d0: a9 c0        	lda	#$c0
     3d2: 8d 82 d5     	sta	$d582                   ; 0xd582 <__heap_start+0x8c40>
     3d5: 8e 81 d5     	stx	$d581                   ; 0xd581 <__heap_start+0x8c3f>
     3d8: 1a           	inc
     3d9: 8d 82 d5     	sta	$d582                   ; 0xd582 <__heap_start+0x8c40>
     3dc: 8e 81 d5     	stx	$d581                   ; 0xd581 <__heap_start+0x8c3f>
     3df: 1a           	inc
     3e0: 8d 82 d5     	sta	$d582                   ; 0xd582 <__heap_start+0x8c40>
     3e3: 8e 81 d5     	stx	$d581                   ; 0xd581 <__heap_start+0x8c3f>
     3e6: 1a           	inc
     3e7: 8d 82 d5     	sta	$d582                   ; 0xd582 <__heap_start+0x8c40>
     3ea: 8e 81 d5     	stx	$d581                   ; 0xd581 <__heap_start+0x8c3f>
     3ed: 1a           	inc
     3ee: 8d 82 d5     	sta	$d582                   ; 0xd582 <__heap_start+0x8c40>
     3f1: 8e 81 d5     	stx	$d581                   ; 0xd581 <__heap_start+0x8c3f>
     3f4: 1a           	inc
     3f5: 8d 82 d5     	sta	$d582                   ; 0xd582 <__heap_start+0x8c40>
     3f8: 8e 81 d5     	stx	$d581                   ; 0xd581 <__heap_start+0x8c3f>
     3fb: 1a           	inc
     3fc: 8d 82 d5     	sta	$d582                   ; 0xd582 <__heap_start+0x8c40>
     3ff: 8e 81 d5     	stx	$d581                   ; 0xd581 <__heap_start+0x8c3f>
     402: 1a           	inc
     403: 8d 82 d5     	sta	$d582                   ; 0xd582 <__heap_start+0x8c40>
     406: 8e 81 d5     	stx	$d581                   ; 0xd581 <__heap_start+0x8c3f>
     409: 8c 82 d5     	sty	$d582                   ; 0xd582 <__heap_start+0x8c40>
     40c: 8e 81 d5     	stx	$d581                   ; 0xd581 <__heap_start+0x8c3f>
     40f: a2 b0        	ldx	#$b0
     411: 8e 80 d5     	stx	$d580                   ; 0xd580 <__heap_start+0x8c3e>
     414: 9c 81 d5     	stz	$d581                   ; 0xd581 <__heap_start+0x8c3f>
     417: e8           	inx
     418: 8e 80 d5     	stx	$d580                   ; 0xd580 <__heap_start+0x8c3e>
     41b: 9c 81 d5     	stz	$d581                   ; 0xd581 <__heap_start+0x8c3f>
     41e: e8           	inx
     41f: 8e 80 d5     	stx	$d580                   ; 0xd580 <__heap_start+0x8c3e>
     422: 9c 81 d5     	stz	$d581                   ; 0xd581 <__heap_start+0x8c3f>
     425: e8           	inx
     426: 8e 80 d5     	stx	$d580                   ; 0xd580 <__heap_start+0x8c3e>
     429: 9c 81 d5     	stz	$d581                   ; 0xd581 <__heap_start+0x8c3f>
     42c: e8           	inx
     42d: 8e 80 d5     	stx	$d580                   ; 0xd580 <__heap_start+0x8c3e>
     430: 9c 81 d5     	stz	$d581                   ; 0xd581 <__heap_start+0x8c3f>
     433: e8           	inx
     434: 8e 80 d5     	stx	$d580                   ; 0xd580 <__heap_start+0x8c3e>
     437: 9c 81 d5     	stz	$d581                   ; 0xd581 <__heap_start+0x8c3f>
     43a: e8           	inx
     43b: 8e 80 d5     	stx	$d580                   ; 0xd580 <__heap_start+0x8c3e>
     43e: 9c 81 d5     	stz	$d581                   ; 0xd581 <__heap_start+0x8c3f>
     441: a0 b7        	ldy	#$b7
     443: 8c 80 d5     	sty	$d580                   ; 0xd580 <__heap_start+0x8c3e>
     446: 9c 81 d5     	stz	$d581                   ; 0xd581 <__heap_start+0x8c3f>
     449: a2 b8        	ldx	#$b8
     44b: 8e 80 d5     	stx	$d580                   ; 0xd580 <__heap_start+0x8c3e>
     44e: 9c 81 d5     	stz	$d581                   ; 0xd581 <__heap_start+0x8c3f>
     451: a9 b0        	lda	#$b0
     453: 8d 82 d5     	sta	$d582                   ; 0xd582 <__heap_start+0x8c40>
     456: 9c 81 d5     	stz	$d581                   ; 0xd581 <__heap_start+0x8c3f>
     459: 1a           	inc
     45a: 8d 82 d5     	sta	$d582                   ; 0xd582 <__heap_start+0x8c40>
     45d: 9c 81 d5     	stz	$d581                   ; 0xd581 <__heap_start+0x8c3f>
     460: 1a           	inc
     461: 8d 82 d5     	sta	$d582                   ; 0xd582 <__heap_start+0x8c40>
     464: 9c 81 d5     	stz	$d581                   ; 0xd581 <__heap_start+0x8c3f>
     467: 1a           	inc
     468: 8d 82 d5     	sta	$d582                   ; 0xd582 <__heap_start+0x8c40>
     46b: 9c 81 d5     	stz	$d581                   ; 0xd581 <__heap_start+0x8c3f>
     46e: 1a           	inc
     46f: 8d 82 d5     	sta	$d582                   ; 0xd582 <__heap_start+0x8c40>
     472: 9c 81 d5     	stz	$d581                   ; 0xd581 <__heap_start+0x8c3f>
     475: 1a           	inc
     476: 8d 82 d5     	sta	$d582                   ; 0xd582 <__heap_start+0x8c40>
     479: 9c 81 d5     	stz	$d581                   ; 0xd581 <__heap_start+0x8c3f>
     47c: 1a           	inc
     47d: 8d 82 d5     	sta	$d582                   ; 0xd582 <__heap_start+0x8c40>
     480: 9c 81 d5     	stz	$d581                   ; 0xd581 <__heap_start+0x8c3f>
     483: 8c 82 d5     	sty	$d582                   ; 0xd582 <__heap_start+0x8c40>
     486: 9c 81 d5     	stz	$d581                   ; 0xd581 <__heap_start+0x8c3f>
     489: 8e 82 d5     	stx	$d582                   ; 0xd582 <__heap_start+0x8c40>
     48c: 9c 81 d5     	stz	$d581                   ; 0xd581 <__heap_start+0x8c3f>
     48f: 60           	rts

00000490 <opl3_setInstrumentAllChannels>:
     490: a2 bd        	ldx	#$bd
     492: 8e 80 d5     	stx	$d580                   ; 0xd580 <__heap_start+0x8c3e>
     495: a2 00        	ldx	#$0
     497: 9c 81 d5     	stz	$d581                   ; 0xd581 <__heap_start+0x8c3f>
     49a: 4c 26 05     	jmp	$526 <opl3_setInstrumentAllChannels+0x96>
     49d: 18           	clc
     49e: 69 0a        	adc	#$a
     4a0: 85 12        	sta	$12                     ; 0x2012 <main+0x1a31>
     4a2: 09 20        	ora	#$20
     4a4: 8d 80 d5     	sta	$d580                   ; 0xd580 <__heap_start+0x8c3e>
     4a7: a0 22        	ldy	#$22
     4a9: 8c 81 d5     	sty	$d581                   ; 0xd581 <__heap_start+0x8c3f>
     4ac: a5 12        	lda	$12                     ; 0x2012 <main+0x1a31>
     4ae: 18           	clc
     4af: 69 03        	adc	#$3
     4b1: 85 13        	sta	$13                     ; 0x2013 <main+0x1a32>
     4b3: 09 20        	ora	#$20
     4b5: 8d 80 d5     	sta	$d580                   ; 0xd580 <__heap_start+0x8c3e>
     4b8: 8c 81 d5     	sty	$d581                   ; 0xd581 <__heap_start+0x8c3f>
     4bb: a5 12        	lda	$12                     ; 0x2012 <main+0x1a31>
     4bd: 09 40        	ora	#$40
     4bf: 8d 80 d5     	sta	$d580                   ; 0xd580 <__heap_start+0x8c3e>
     4c2: a0 08        	ldy	#$8
     4c4: 8c 81 d5     	sty	$d581                   ; 0xd581 <__heap_start+0x8c3f>
     4c7: a5 13        	lda	$13                     ; 0x2013 <main+0x1a32>
     4c9: 09 40        	ora	#$40
     4cb: 8d 80 d5     	sta	$d580                   ; 0xd580 <__heap_start+0x8c3e>
     4ce: 8c 81 d5     	sty	$d581                   ; 0xd581 <__heap_start+0x8c3f>
     4d1: a5 12        	lda	$12                     ; 0x2012 <main+0x1a31>
     4d3: 09 60        	ora	#$60
     4d5: 8d 80 d5     	sta	$d580                   ; 0xd580 <__heap_start+0x8c3e>
     4d8: a0 83        	ldy	#$83
     4da: 8c 81 d5     	sty	$d581                   ; 0xd581 <__heap_start+0x8c3f>
     4dd: a5 13        	lda	$13                     ; 0x2013 <main+0x1a32>
     4df: 09 60        	ora	#$60
     4e1: 8d 80 d5     	sta	$d580                   ; 0xd580 <__heap_start+0x8c3e>
     4e4: a0 51        	ldy	#$51
     4e6: 8c 81 d5     	sty	$d581                   ; 0xd581 <__heap_start+0x8c3f>
     4e9: a5 12        	lda	$12                     ; 0x2012 <main+0x1a31>
     4eb: 09 80        	ora	#$80
     4ed: 8d 80 d5     	sta	$d580                   ; 0xd580 <__heap_start+0x8c3e>
     4f0: a0 88        	ldy	#$88
     4f2: 8c 81 d5     	sty	$d581                   ; 0xd581 <__heap_start+0x8c3f>
     4f5: a5 13        	lda	$13                     ; 0x2013 <main+0x1a32>
     4f7: 09 80        	ora	#$80
     4f9: 8d 80 d5     	sta	$d580                   ; 0xd580 <__heap_start+0x8c3e>
     4fc: 8c 81 d5     	sty	$d581                   ; 0xd581 <__heap_start+0x8c3f>
     4ff: a5 12        	lda	$12                     ; 0x2012 <main+0x1a31>
     501: 09 e0        	ora	#$e0
     503: 8d 80 d5     	sta	$d580                   ; 0xd580 <__heap_start+0x8c3e>
     506: a0 01        	ldy	#$1
     508: 8c 81 d5     	sty	$d581                   ; 0xd581 <__heap_start+0x8c3f>
     50b: a5 13        	lda	$13                     ; 0x2013 <main+0x1a32>
     50d: 09 e0        	ora	#$e0
     50f: 8d 80 d5     	sta	$d580                   ; 0xd580 <__heap_start+0x8c3e>
     512: 8a           	txa
     513: 18           	clc
     514: 69 c0        	adc	#$c0
     516: 9c 81 d5     	stz	$d581                   ; 0xd581 <__heap_start+0x8c3f>
     519: 8d 80 d5     	sta	$d580                   ; 0xd580 <__heap_start+0x8c3e>
     51c: a0 38        	ldy	#$38
     51e: 8c 81 d5     	sty	$d581                   ; 0xd581 <__heap_start+0x8c3f>
     521: e8           	inx
     522: e0 09        	cpx	#$9
     524: f0 16        	beq	$53c <opl3_setInstrumentAllChannels+0xac>
     526: e0 03        	cpx	#$3
     528: 8a           	txa
     529: b0 03        	bcs	$52e <opl3_setInstrumentAllChannels+0x9e>
     52b: 4c a0 04     	jmp	$4a0 <opl3_setInstrumentAllChannels+0x10>
     52e: 8a           	txa
     52f: e0 06        	cpx	#$6
     531: 90 03        	bcc	$536 <opl3_setInstrumentAllChannels+0xa6>
     533: 4c 9d 04     	jmp	$49d <opl3_setInstrumentAllChannels+0xd>
     536: 18           	clc
     537: 69 05        	adc	#$5
     539: 4c a0 04     	jmp	$4a0 <opl3_setInstrumentAllChannels+0x10>
     53c: a2 00        	ldx	#$0
     53e: 4c ca 05     	jmp	$5ca <opl3_setInstrumentAllChannels+0x13a>
     541: 18           	clc
     542: 69 0a        	adc	#$a
     544: 85 12        	sta	$12                     ; 0x2012 <main+0x1a31>
     546: 09 20        	ora	#$20
     548: 8d 82 d5     	sta	$d582                   ; 0xd582 <__heap_start+0x8c40>
     54b: a0 22        	ldy	#$22
     54d: 8c 81 d5     	sty	$d581                   ; 0xd581 <__heap_start+0x8c3f>
     550: a5 12        	lda	$12                     ; 0x2012 <main+0x1a31>
     552: 18           	clc
     553: 69 03        	adc	#$3
     555: 85 13        	sta	$13                     ; 0x2013 <main+0x1a32>
     557: 09 20        	ora	#$20
     559: 8d 82 d5     	sta	$d582                   ; 0xd582 <__heap_start+0x8c40>
     55c: 8c 81 d5     	sty	$d581                   ; 0xd581 <__heap_start+0x8c3f>
     55f: a5 12        	lda	$12                     ; 0x2012 <main+0x1a31>
     561: 09 40        	ora	#$40
     563: 8d 82 d5     	sta	$d582                   ; 0xd582 <__heap_start+0x8c40>
     566: a0 08        	ldy	#$8
     568: 8c 81 d5     	sty	$d581                   ; 0xd581 <__heap_start+0x8c3f>
     56b: a5 13        	lda	$13                     ; 0x2013 <main+0x1a32>
     56d: 09 40        	ora	#$40
     56f: 8d 82 d5     	sta	$d582                   ; 0xd582 <__heap_start+0x8c40>
     572: 8c 81 d5     	sty	$d581                   ; 0xd581 <__heap_start+0x8c3f>
     575: a5 12        	lda	$12                     ; 0x2012 <main+0x1a31>
     577: 09 60        	ora	#$60
     579: 8d 82 d5     	sta	$d582                   ; 0xd582 <__heap_start+0x8c40>
     57c: a0 83        	ldy	#$83
     57e: 8c 81 d5     	sty	$d581                   ; 0xd581 <__heap_start+0x8c3f>
     581: a5 13        	lda	$13                     ; 0x2013 <main+0x1a32>
     583: 09 60        	ora	#$60
     585: 8d 82 d5     	sta	$d582                   ; 0xd582 <__heap_start+0x8c40>
     588: a0 51        	ldy	#$51
     58a: 8c 81 d5     	sty	$d581                   ; 0xd581 <__heap_start+0x8c3f>
     58d: a5 12        	lda	$12                     ; 0x2012 <main+0x1a31>
     58f: 09 80        	ora	#$80
     591: 8d 82 d5     	sta	$d582                   ; 0xd582 <__heap_start+0x8c40>
     594: a0 88        	ldy	#$88
     596: 8c 81 d5     	sty	$d581                   ; 0xd581 <__heap_start+0x8c3f>
     599: a5 13        	lda	$13                     ; 0x2013 <main+0x1a32>
     59b: 09 80        	ora	#$80
     59d: 8d 82 d5     	sta	$d582                   ; 0xd582 <__heap_start+0x8c40>
     5a0: 8c 81 d5     	sty	$d581                   ; 0xd581 <__heap_start+0x8c3f>
     5a3: a5 12        	lda	$12                     ; 0x2012 <main+0x1a31>
     5a5: 09 e0        	ora	#$e0
     5a7: 8d 82 d5     	sta	$d582                   ; 0xd582 <__heap_start+0x8c40>
     5aa: a0 01        	ldy	#$1
     5ac: 8c 81 d5     	sty	$d581                   ; 0xd581 <__heap_start+0x8c3f>
     5af: a5 13        	lda	$13                     ; 0x2013 <main+0x1a32>
     5b1: 09 e0        	ora	#$e0
     5b3: 8d 82 d5     	sta	$d582                   ; 0xd582 <__heap_start+0x8c40>
     5b6: 8a           	txa
     5b7: 18           	clc
     5b8: 69 c0        	adc	#$c0
     5ba: 9c 81 d5     	stz	$d581                   ; 0xd581 <__heap_start+0x8c3f>
     5bd: 8d 82 d5     	sta	$d582                   ; 0xd582 <__heap_start+0x8c40>
     5c0: a0 38        	ldy	#$38
     5c2: 8c 81 d5     	sty	$d581                   ; 0xd581 <__heap_start+0x8c3f>
     5c5: e8           	inx
     5c6: e0 09        	cpx	#$9
     5c8: f0 16        	beq	$5e0 <opl3_setInstrumentAllChannels+0x150>
     5ca: e0 03        	cpx	#$3
     5cc: 8a           	txa
     5cd: b0 03        	bcs	$5d2 <opl3_setInstrumentAllChannels+0x142>
     5cf: 4c 44 05     	jmp	$544 <opl3_setInstrumentAllChannels+0xb4>
     5d2: 8a           	txa
     5d3: e0 06        	cpx	#$6
     5d5: 90 03        	bcc	$5da <opl3_setInstrumentAllChannels+0x14a>
     5d7: 4c 41 05     	jmp	$541 <opl3_setInstrumentAllChannels+0xb1>
     5da: 18           	clc
     5db: 69 05        	adc	#$5
     5dd: 4c 44 05     	jmp	$544 <opl3_setInstrumentAllChannels+0xb4>
     5e0: 60           	rts

000005e1 <main>:
     5e1: 18           	clc
     5e2: a5 10        	lda	$10                     ; 0x2010 <main+0x1a2f>
     5e4: 69 e4        	adc	#$e4
     5e6: 85 10        	sta	$10                     ; 0x2010 <main+0x1a2f>
     5e8: a5 11        	lda	$11                     ; 0x2011 <main+0x1a30>
     5ea: 69 ff        	adc	#$ff
     5ec: 85 11        	sta	$11                     ; 0x2011 <main+0x1a30>
     5ee: a6 24        	ldx	$24                     ; 0x2024 <main+0x1a43>
     5f0: da           	phx
     5f1: a6 25        	ldx	$25                     ; 0x2025 <main+0x1a44>
     5f3: da           	phx
     5f4: a6 26        	ldx	$26                     ; 0x2026 <main+0x1a45>
     5f6: da           	phx
     5f7: a6 27        	ldx	$27                     ; 0x2027 <main+0x1a46>
     5f9: da           	phx
     5fa: a5 28        	lda	$28                     ; 0x2028 <main+0x1a47>
     5fc: a0 09        	ldy	#$9
     5fe: 91 10        	sta	($10),y                 ; 0x2010 <main+0x1a2f>
     600: a5 29        	lda	$29                     ; 0x2029 <main+0x1a48>
     602: 88           	dey
     603: 91 10        	sta	($10),y                 ; 0x2010 <main+0x1a2f>
     605: a5 2a        	lda	$2a                     ; 0x202a <main+0x1a49>
     607: 88           	dey
     608: 91 10        	sta	($10),y                 ; 0x2010 <main+0x1a2f>
     60a: a5 2b        	lda	$2b                     ; 0x202b <main+0x1a4a>
     60c: 88           	dey
     60d: 91 10        	sta	($10),y                 ; 0x2010 <main+0x1a2f>
     60f: a5 2c        	lda	$2c                     ; 0x202c <main+0x1a4b>
     611: 88           	dey
     612: 91 10        	sta	($10),y                 ; 0x2010 <main+0x1a2f>
     614: a5 2d        	lda	$2d                     ; 0x202d <main+0x1a4c>
     616: 88           	dey
     617: 91 10        	sta	($10),y                 ; 0x2010 <main+0x1a2f>
     619: a5 2e        	lda	$2e                     ; 0x202e <main+0x1a4d>
     61b: 88           	dey
     61c: 91 10        	sta	($10),y                 ; 0x2010 <main+0x1a2f>
     61e: a5 2f        	lda	$2f                     ; 0x202f <main+0x1a4e>
     620: 88           	dey
     621: 91 10        	sta	($10),y                 ; 0x2010 <main+0x1a2f>
     623: 64 2c        	stz	$2c                     ; 0x202c <main+0x1a4b>
     625: a2 00        	ldx	#$0
     627: 86 1a        	stx	$1a                     ; 0x201a <main+0x1a39>
     629: a2 d0        	ldx	#$d0
     62b: 86 1b        	stx	$1b                     ; 0x201b <main+0x1a3a>
     62d: a2 00        	ldx	#$0
     62f: 86 16        	stx	$16                     ; 0x2016 <main+0x1a35>
     631: a2 d8        	ldx	#$d8
     633: 86 17        	stx	$17                     ; 0x2017 <main+0x1a36>
     635: a2 00        	ldx	#$0
     637: 86 18        	stx	$18                     ; 0x2018 <main+0x1a37>
     639: a2 d4        	ldx	#$d4
     63b: 86 19        	stx	$19                     ; 0x2019 <main+0x1a38>
     63d: a2 00        	ldx	#$0
     63f: 86 14        	stx	$14                     ; 0x2014 <main+0x1a33>
     641: a2 dc        	ldx	#$dc
     643: 86 15        	stx	$15                     ; 0x2015 <main+0x1a34>
     645: a2 00        	ldx	#$0
     647: 86 12        	stx	$12                     ; 0x2012 <main+0x1a31>
     649: a2 c0        	ldx	#$c0
     64b: 86 13        	stx	$13                     ; 0x2013 <main+0x1a32>
     64d: a2 80        	ldx	#$80
     64f: 86 28        	stx	$28                     ; 0x2028 <main+0x1a47>
     651: a2 d5        	ldx	#$d5
     653: 86 29        	stx	$29                     ; 0x2029 <main+0x1a48>
     655: 64 01        	stz	$1                      ; 0x2001 <main+0x1a20>
     657: a2 3f        	ldx	#$3f
     659: 8e 00 d0     	stx	$d000                   ; 0xd000 <__heap_start+0x86be>
     65c: a2 b3        	ldx	#$b3
     65e: 86 00        	stx	$0                      ; 0x2000 <main+0x1a1f>
     660: 64 08        	stz	$8                      ; 0x2008 <main+0x1a27>
     662: a2 01        	ldx	#$1
     664: 86 09        	stx	$9                      ; 0x2009 <main+0x1a28>
     666: e8           	inx
     667: 86 0a        	stx	$a                      ; 0x200a <main+0x1a29>
     669: e8           	inx
     66a: 86 0b        	stx	$b                      ; 0x200b <main+0x1a2a>
     66c: e8           	inx
     66d: 86 0c        	stx	$c                      ; 0x200c <main+0x1a2b>
     66f: e8           	inx
     670: 86 0d        	stx	$d                      ; 0x200d <main+0x1a2c>
     672: a2 44        	ldx	#$44
     674: a9 00        	lda	#$0
     676: 86 f0        	stx	$f0                     ; 0x20f0 <main+0x1b0f>
     678: 85 f1        	sta	$f1                     ; 0x20f1 <main+0x1b10>
     67a: a9 00        	lda	#$0
     67c: a6 01        	ldx	$1                      ; 0x2001 <main+0x1a20>
     67e: a0 01        	ldy	#$1
     680: 84 01        	sty	$1                      ; 0x2001 <main+0x1a20>
     682: 92 1a        	sta	($1a)                   ; 0x201a <main+0x1a39>
     684: 91 1a        	sta	($1a),y                 ; 0x201a <main+0x1a39>
     686: c8           	iny
     687: 91 1a        	sta	($1a),y                 ; 0x201a <main+0x1a39>
     689: c8           	iny
     68a: 85 1c        	sta	$1c                     ; 0x201c <main+0x1a3b>
     68c: a9 ff        	lda	#$ff
     68e: 91 1a        	sta	($1a),y                 ; 0x201a <main+0x1a39>
     690: 86 01        	stx	$1                      ; 0x2001 <main+0x1a20>
     692: a5 1a        	lda	$1a                     ; 0x201a <main+0x1a39>
     694: 18           	clc
     695: 69 04        	adc	#$4
     697: 85 1a        	sta	$1a                     ; 0x201a <main+0x1a39>
     699: a5 1b        	lda	$1b                     ; 0x201b <main+0x1a3a>
     69b: 69 00        	adc	#$0
     69d: e6 1c        	inc	$1c                     ; 0x201c <main+0x1a3b>
     69f: 85 1b        	sta	$1b                     ; 0x201b <main+0x1a3a>
     6a1: a5 1c        	lda	$1c                     ; 0x201c <main+0x1a3b>
     6a3: d0 d7        	bne	$67c <main+0x9b>
     6a5: a9 00        	lda	#$0
     6a7: a6 01        	ldx	$1                      ; 0x2001 <main+0x1a20>
     6a9: a0 01        	ldy	#$1
     6ab: 84 01        	sty	$1                      ; 0x2001 <main+0x1a20>
     6ad: 92 18        	sta	($18)                   ; 0x2018 <main+0x1a37>
     6af: 91 18        	sta	($18),y                 ; 0x2018 <main+0x1a37>
     6b1: c8           	iny
     6b2: 91 18        	sta	($18),y                 ; 0x2018 <main+0x1a37>
     6b4: c8           	iny
     6b5: 85 1a        	sta	$1a                     ; 0x201a <main+0x1a39>
     6b7: a9 ff        	lda	#$ff
     6b9: 91 18        	sta	($18),y                 ; 0x2018 <main+0x1a37>
     6bb: 86 01        	stx	$1                      ; 0x2001 <main+0x1a20>
     6bd: a5 18        	lda	$18                     ; 0x2018 <main+0x1a37>
     6bf: 18           	clc
     6c0: 69 04        	adc	#$4
     6c2: 85 18        	sta	$18                     ; 0x2018 <main+0x1a37>
     6c4: a5 19        	lda	$19                     ; 0x2019 <main+0x1a38>
     6c6: 69 00        	adc	#$0
     6c8: e6 1a        	inc	$1a                     ; 0x201a <main+0x1a39>
     6ca: 85 19        	sta	$19                     ; 0x2019 <main+0x1a38>
     6cc: a5 1a        	lda	$1a                     ; 0x201a <main+0x1a39>
     6ce: d0 d7        	bne	$6a7 <main+0xc6>
     6d0: a9 00        	lda	#$0
     6d2: a6 01        	ldx	$1                      ; 0x2001 <main+0x1a20>
     6d4: a0 01        	ldy	#$1
     6d6: 84 01        	sty	$1                      ; 0x2001 <main+0x1a20>
     6d8: 92 16        	sta	($16)                   ; 0x2016 <main+0x1a35>
     6da: 91 16        	sta	($16),y                 ; 0x2016 <main+0x1a35>
     6dc: c8           	iny
     6dd: 91 16        	sta	($16),y                 ; 0x2016 <main+0x1a35>
     6df: c8           	iny
     6e0: 85 18        	sta	$18                     ; 0x2018 <main+0x1a37>
     6e2: a9 ff        	lda	#$ff
     6e4: 91 16        	sta	($16),y                 ; 0x2016 <main+0x1a35>
     6e6: 86 01        	stx	$1                      ; 0x2001 <main+0x1a20>
     6e8: a5 16        	lda	$16                     ; 0x2016 <main+0x1a35>
     6ea: 18           	clc
     6eb: 69 04        	adc	#$4
     6ed: 85 16        	sta	$16                     ; 0x2016 <main+0x1a35>
     6ef: a5 17        	lda	$17                     ; 0x2017 <main+0x1a36>
     6f1: 69 00        	adc	#$0
     6f3: e6 18        	inc	$18                     ; 0x2018 <main+0x1a37>
     6f5: 85 17        	sta	$17                     ; 0x2017 <main+0x1a36>
     6f7: a5 18        	lda	$18                     ; 0x2018 <main+0x1a37>
     6f9: d0 d7        	bne	$6d2 <main+0xf1>
     6fb: a9 00        	lda	#$0
     6fd: a6 01        	ldx	$1                      ; 0x2001 <main+0x1a20>
     6ff: a0 01        	ldy	#$1
     701: 84 01        	sty	$1                      ; 0x2001 <main+0x1a20>
     703: 92 14        	sta	($14)                   ; 0x2014 <main+0x1a33>
     705: 91 14        	sta	($14),y                 ; 0x2014 <main+0x1a33>
     707: c8           	iny
     708: 91 14        	sta	($14),y                 ; 0x2014 <main+0x1a33>
     70a: c8           	iny
     70b: 85 16        	sta	$16                     ; 0x2016 <main+0x1a35>
     70d: a9 ff        	lda	#$ff
     70f: 91 14        	sta	($14),y                 ; 0x2014 <main+0x1a33>
     711: 86 01        	stx	$1                      ; 0x2001 <main+0x1a20>
     713: a5 14        	lda	$14                     ; 0x2014 <main+0x1a33>
     715: 18           	clc
     716: 69 04        	adc	#$4
     718: 85 14        	sta	$14                     ; 0x2014 <main+0x1a33>
     71a: a5 15        	lda	$15                     ; 0x2015 <main+0x1a34>
     71c: 69 00        	adc	#$0
     71e: e6 16        	inc	$16                     ; 0x2016 <main+0x1a35>
     720: 85 15        	sta	$15                     ; 0x2015 <main+0x1a34>
     722: a5 16        	lda	$16                     ; 0x2016 <main+0x1a35>
     724: d0 d7        	bne	$6fd <main+0x11c>
     726: ad 02 d0     	lda	$d002                   ; 0xd002 <__heap_start+0x86c0>
     729: a2 f0        	ldx	#$f0
     72b: 29 f0        	and	#$f0
     72d: 8d 02 d0     	sta	$d002                   ; 0xd002 <__heap_start+0x86c0>
     730: ad 02 d0     	lda	$d002                   ; 0xd002 <__heap_start+0x86c0>
     733: 29 0f        	and	#$f
     735: 09 10        	ora	#$10
     737: 8d 02 d0     	sta	$d002                   ; 0xd002 <__heap_start+0x86c0>
     73a: a0 02        	ldy	#$2
     73c: 8c 03 d0     	sty	$d003                   ; 0xd003 <__heap_start+0x86c1>
     73f: 86 30        	stx	$30                     ; 0x2030 <main+0x1a4f>
     741: ad 01 d0     	lda	$d001                   ; 0xd001 <__heap_start+0x86bf>
     744: 29 f9        	and	#$f9
     746: 09 04        	ora	#$4
     748: 8d 01 d0     	sta	$d001                   ; 0xd001 <__heap_start+0x86bf>
     74b: 64 14        	stz	$14                     ; 0x2014 <main+0x1a33>
     74d: 9c 10 d0     	stz	$d010                   ; 0xd010 <__heap_start+0x86ce>
     750: a2 00        	ldx	#$0
     752: 64 15        	stz	$15                     ; 0x2015 <main+0x1a34>
     754: 86 18        	stx	$18                     ; 0x2018 <main+0x1a37>
     756: a4 18        	ldy	$18                     ; 0x2018 <main+0x1a37>
     758: be 1f 46     	ldx	$461f,y                 ; 0x461f <textColors>
     75b: 86 19        	stx	$19                     ; 0x2019 <main+0x1a38>
     75d: be 20 46     	ldx	$4620,y                 ; 0x4620 <textColors+0x1>
     760: 86 1a        	stx	$1a                     ; 0x201a <main+0x1a39>
     762: be 21 46     	ldx	$4621,y                 ; 0x4621 <textColors+0x2>
     765: 86 1b        	stx	$1b                     ; 0x201b <main+0x1a3a>
     767: a6 15        	ldx	$15                     ; 0x2015 <main+0x1a34>
     769: 8e 00 de     	stx	$de00                   ; 0xde00 <__heap_start+0x94be>
     76c: 86 17        	stx	$17                     ; 0x2017 <main+0x1a36>
     76e: 9c 01 de     	stz	$de01                   ; 0xde01 <__heap_start+0x94bf>
     771: a2 04        	ldx	#$4
     773: 8e 02 de     	stx	$de02                   ; 0xde02 <__heap_start+0x94c0>
     776: 9c 03 de     	stz	$de03                   ; 0xde03 <__heap_start+0x94c1>
     779: ad 10 de     	lda	$de10                   ; 0xde10 <__heap_start+0x94ce>
     77c: ac 11 de     	ldy	$de11                   ; 0xde11 <__heap_start+0x94cf>
     77f: 84 15        	sty	$15                     ; 0x2015 <main+0x1a34>
     781: ac 12 de     	ldy	$de12                   ; 0xde12 <__heap_start+0x94d0>
     784: ac 13 de     	ldy	$de13                   ; 0xde13 <__heap_start+0x94d1>
     787: 18           	clc
     788: 65 14        	adc	$14                     ; 0x2014 <main+0x1a33>
     78a: 85 16        	sta	$16                     ; 0x2016 <main+0x1a35>
     78c: a6 17        	ldx	$17                     ; 0x2017 <main+0x1a36>
     78e: a9 d8        	lda	#$d8
     790: 65 15        	adc	$15                     ; 0x2015 <main+0x1a34>
     792: 85 17        	sta	$17                     ; 0x2017 <main+0x1a36>
     794: a5 1b        	lda	$1b                     ; 0x201b <main+0x1a3a>
     796: 92 16        	sta	($16)                   ; 0x2016 <main+0x1a35>
     798: a0 01        	ldy	#$1
     79a: a5 1a        	lda	$1a                     ; 0x201a <main+0x1a39>
     79c: 91 16        	sta	($16),y                 ; 0x2016 <main+0x1a35>
     79e: c8           	iny
     79f: a5 19        	lda	$19                     ; 0x2019 <main+0x1a38>
     7a1: 91 16        	sta	($16),y                 ; 0x2016 <main+0x1a35>
     7a3: c8           	iny
     7a4: a9 ff        	lda	#$ff
     7a6: 91 16        	sta	($16),y                 ; 0x2016 <main+0x1a35>
     7a8: 8e 00 de     	stx	$de00                   ; 0xde00 <__heap_start+0x94be>
     7ab: 9c 01 de     	stz	$de01                   ; 0xde01 <__heap_start+0x94bf>
     7ae: c8           	iny
     7af: 8c 02 de     	sty	$de02                   ; 0xde02 <__heap_start+0x94c0>
     7b2: 9c 03 de     	stz	$de03                   ; 0xde03 <__heap_start+0x94c1>
     7b5: ad 10 de     	lda	$de10                   ; 0xde10 <__heap_start+0x94ce>
     7b8: 85 15        	sta	$15                     ; 0x2015 <main+0x1a34>
     7ba: ad 11 de     	lda	$de11                   ; 0xde11 <__heap_start+0x94cf>
     7bd: 85 16        	sta	$16                     ; 0x2016 <main+0x1a35>
     7bf: a9 40        	lda	#$40
     7c1: 18           	clc
     7c2: 65 15        	adc	$15                     ; 0x2015 <main+0x1a34>
     7c4: a8           	tay
     7c5: a9 d8        	lda	#$d8
     7c7: 65 16        	adc	$16                     ; 0x2016 <main+0x1a35>
     7c9: 85 17        	sta	$17                     ; 0x2017 <main+0x1a36>
     7cb: 84 16        	sty	$16                     ; 0x2016 <main+0x1a35>
     7cd: ad 12 de     	lda	$de12                   ; 0xde12 <__heap_start+0x94d0>
     7d0: ad 13 de     	lda	$de13                   ; 0xde13 <__heap_start+0x94d1>
     7d3: a5 1b        	lda	$1b                     ; 0x201b <main+0x1a3a>
     7d5: 92 16        	sta	($16)                   ; 0x2016 <main+0x1a35>
     7d7: a5 1a        	lda	$1a                     ; 0x201a <main+0x1a39>
     7d9: a0 01        	ldy	#$1
     7db: 91 16        	sta	($16),y                 ; 0x2016 <main+0x1a35>
     7dd: a5 19        	lda	$19                     ; 0x2019 <main+0x1a38>
     7df: c8           	iny
     7e0: 91 16        	sta	($16),y                 ; 0x2016 <main+0x1a35>
     7e2: c8           	iny
     7e3: a9 ff        	lda	#$ff
     7e5: 91 16        	sta	($16),y                 ; 0x2016 <main+0x1a35>
     7e7: e8           	inx
     7e8: 86 15        	stx	$15                     ; 0x2015 <main+0x1a34>
     7ea: 18           	clc
     7eb: a5 18        	lda	$18                     ; 0x2018 <main+0x1a37>
     7ed: 69 03        	adc	#$3
     7ef: aa           	tax
     7f0: c9 30        	cmp	#$30
     7f2: f0 03        	beq	$7f7 <main+0x216>
     7f4: 4c 54 07     	jmp	$754 <main+0x173>
     7f7: a6 01        	ldx	$1                      ; 0x2001 <main+0x1a20>
     7f9: 86 18        	stx	$18                     ; 0x2018 <main+0x1a37>
     7fb: a2 50        	ldx	#$50
     7fd: 8e 00 de     	stx	$de00                   ; 0xde00 <__heap_start+0x94be>
     800: 9c 01 de     	stz	$de01                   ; 0xde01 <__heap_start+0x94bf>
     803: a2 1e        	ldx	#$1e
     805: 8e 02 de     	stx	$de02                   ; 0xde02 <__heap_start+0x94c0>
     808: 9c 03 de     	stz	$de03                   ; 0xde03 <__heap_start+0x94c1>
     80b: ae 10 de     	ldx	$de10                   ; 0xde10 <__heap_start+0x94ce>
     80e: ac 11 de     	ldy	$de11                   ; 0xde11 <__heap_start+0x94cf>
     811: ad 12 de     	lda	$de12                   ; 0xde12 <__heap_start+0x94d0>
     814: ad 13 de     	lda	$de13                   ; 0xde13 <__heap_start+0x94d1>
     817: a9 02        	lda	#$2
     819: 85 01        	sta	$1                      ; 0x2001 <main+0x1a20>
     81b: e0 01        	cpx	#$1
     81d: 98           	tya
     81e: e9 00        	sbc	#$0
     820: 50 02        	bvc	$824 <main+0x243>
     822: 49 80        	eor	#$80
     824: c9 00        	cmp	#$0
     826: 10 03        	bpl	$82b <main+0x24a>
     828: 4c 7f 08     	jmp	$87f <main+0x29e>
     82b: a9 20        	lda	#$20
     82d: 86 19        	stx	$19                     ; 0x2019 <main+0x1a38>
     82f: 86 14        	stx	$14                     ; 0x2014 <main+0x1a33>
     831: 84 15        	sty	$15                     ; 0x2015 <main+0x1a34>
     833: a2 00        	ldx	#$0
     835: 86 16        	stx	$16                     ; 0x2016 <main+0x1a35>
     837: a2 c0        	ldx	#$c0
     839: 86 17        	stx	$17                     ; 0x2017 <main+0x1a36>
     83b: 80 04        	bra	$841 <main+0x260>
     83d: a6 15        	ldx	$15                     ; 0x2015 <main+0x1a34>
     83f: f0 14        	beq	$855 <main+0x274>
     841: 92 16        	sta	($16)                   ; 0x2016 <main+0x1a35>
     843: e6 16        	inc	$16                     ; 0x2016 <main+0x1a35>
     845: d0 02        	bne	$849 <main+0x268>
     847: e6 17        	inc	$17                     ; 0x2017 <main+0x1a36>
     849: a2 ff        	ldx	#$ff
     84b: c6 14        	dec	$14                     ; 0x2014 <main+0x1a33>
     84d: e4 14        	cpx	$14                     ; 0x2014 <main+0x1a33>
     84f: d0 ec        	bne	$83d <main+0x25c>
     851: c6 15        	dec	$15                     ; 0x2015 <main+0x1a34>
     853: 80 e8        	bra	$83d <main+0x25c>
     855: a6 14        	ldx	$14                     ; 0x2014 <main+0x1a33>
     857: d0 e8        	bne	$841 <main+0x260>
     859: a2 03        	ldx	#$3
     85b: 86 01        	stx	$1                      ; 0x2001 <main+0x1a20>
     85d: a6 30        	ldx	$30                     ; 0x2030 <main+0x1a4f>
     85f: 86 14        	stx	$14                     ; 0x2014 <main+0x1a33>
     861: a6 19        	ldx	$19                     ; 0x2019 <main+0x1a38>
     863: 80 03        	bra	$868 <main+0x287>
     865: 98           	tya
     866: f0 12        	beq	$87a <main+0x299>
     868: a5 14        	lda	$14                     ; 0x2014 <main+0x1a33>
     86a: 92 12        	sta	($12)                   ; 0x2012 <main+0x1a31>
     86c: e6 12        	inc	$12                     ; 0x2012 <main+0x1a31>
     86e: d0 02        	bne	$872 <main+0x291>
     870: e6 13        	inc	$13                     ; 0x2013 <main+0x1a32>
     872: ca           	dex
     873: e0 ff        	cpx	#$ff
     875: d0 ee        	bne	$865 <main+0x284>
     877: 88           	dey
     878: 80 eb        	bra	$865 <main+0x284>
     87a: 8a           	txa
     87b: d0 eb        	bne	$868 <main+0x287>
     87d: 80 04        	bra	$883 <main+0x2a2>
     87f: a2 03        	ldx	#$3
     881: 86 01        	stx	$1                      ; 0x2001 <main+0x1a20>
     883: a6 18        	ldx	$18                     ; 0x2018 <main+0x1a37>
     885: 86 01        	stx	$1                      ; 0x2001 <main+0x1a20>
     887: 64 4b        	stz	$4b                     ; 0x204b <main+0x1a6a>
     889: 9c 14 d0     	stz	$d014                   ; 0xd014 <__heap_start+0x86d2>
     88c: 9c 15 d0     	stz	$d015                   ; 0xd015 <__heap_start+0x86d3>
     88f: 64 4c        	stz	$4c                     ; 0x204c <main+0x1a6b>
     891: 9c 16 d0     	stz	$d016                   ; 0xd016 <__heap_start+0x86d4>
     894: 9c 17 d0     	stz	$d017                   ; 0xd017 <__heap_start+0x86d5>
     897: a2 40        	ldx	#$40
     899: 8e 00 de     	stx	$de00                   ; 0xde00 <__heap_start+0x94be>
     89c: a2 01        	ldx	#$1
     89e: 8e 01 de     	stx	$de01                   ; 0xde01 <__heap_start+0x94bf>
     8a1: a2 f0        	ldx	#$f0
     8a3: 8e 02 de     	stx	$de02                   ; 0xde02 <__heap_start+0x94c0>
     8a6: 9c 03 de     	stz	$de03                   ; 0xde03 <__heap_start+0x94c1>
     8a9: ae 10 de     	ldx	$de10                   ; 0xde10 <__heap_start+0x94ce>
     8ac: 86 17        	stx	$17                     ; 0x2017 <main+0x1a36>
     8ae: ae 11 de     	ldx	$de11                   ; 0xde11 <__heap_start+0x94cf>
     8b1: 86 12        	stx	$12                     ; 0x2012 <main+0x1a31>
     8b3: ae 12 de     	ldx	$de12                   ; 0xde12 <__heap_start+0x94d0>
     8b6: 86 13        	stx	$13                     ; 0x2013 <main+0x1a32>
     8b8: ae 13 de     	ldx	$de13                   ; 0xde13 <__heap_start+0x94d1>
     8bb: 86 14        	stx	$14                     ; 0x2014 <main+0x1a33>
     8bd: a4 12        	ldy	$12                     ; 0x2012 <main+0x1a31>
     8bf: 84 15        	sty	$15                     ; 0x2015 <main+0x1a34>
     8c1: 06 15        	asl	$15                     ; 0x2015 <main+0x1a34>
     8c3: a5 13        	lda	$13                     ; 0x2013 <main+0x1a32>
     8c5: 2a           	rol
     8c6: 86 16        	stx	$16                     ; 0x2016 <main+0x1a35>
     8c8: 26 16        	rol	$16                     ; 0x2016 <main+0x1a35>
     8ca: 06 15        	asl	$15                     ; 0x2015 <main+0x1a34>
     8cc: 2a           	rol
     8cd: 26 16        	rol	$16                     ; 0x2016 <main+0x1a35>
     8cf: 06 15        	asl	$15                     ; 0x2015 <main+0x1a34>
     8d1: 2a           	rol
     8d2: 26 16        	rol	$16                     ; 0x2016 <main+0x1a35>
     8d4: 85 15        	sta	$15                     ; 0x2015 <main+0x1a34>
     8d6: 8d 00 de     	sta	$de00                   ; 0xde00 <__heap_start+0x94be>
     8d9: a5 16        	lda	$16                     ; 0x2016 <main+0x1a35>
     8db: 8d 01 de     	sta	$de01                   ; 0xde01 <__heap_start+0x94bf>
     8de: 9c 02 de     	stz	$de02                   ; 0xde02 <__heap_start+0x94c0>
     8e1: a2 20        	ldx	#$20
     8e3: 8e 03 de     	stx	$de03                   ; 0xde03 <__heap_start+0x94c1>
     8e6: ae 10 de     	ldx	$de10                   ; 0xde10 <__heap_start+0x94ce>
     8e9: 86 16        	stx	$16                     ; 0x2016 <main+0x1a35>
     8eb: ae 11 de     	ldx	$de11                   ; 0xde11 <__heap_start+0x94cf>
     8ee: 86 18        	stx	$18                     ; 0x2018 <main+0x1a37>
     8f0: ac 12 de     	ldy	$de12                   ; 0xde12 <__heap_start+0x94d0>
     8f3: ae 13 de     	ldx	$de13                   ; 0xde13 <__heap_start+0x94d1>
     8f6: e4 14        	cpx	$14                     ; 0x2014 <main+0x1a33>
     8f8: d0 14        	bne	$90e <main+0x32d>
     8fa: c4 13        	cpy	$13                     ; 0x2013 <main+0x1a32>
     8fc: d0 10        	bne	$90e <main+0x32d>
     8fe: a6 18        	ldx	$18                     ; 0x2018 <main+0x1a37>
     900: e4 12        	cpx	$12                     ; 0x2012 <main+0x1a31>
     902: d0 0a        	bne	$90e <main+0x32d>
     904: a6 16        	ldx	$16                     ; 0x2016 <main+0x1a35>
     906: e4 17        	cpx	$17                     ; 0x2017 <main+0x1a36>
     908: d0 04        	bne	$90e <main+0x32d>
     90a: a6 15        	ldx	$15                     ; 0x2015 <main+0x1a34>
     90c: 80 06        	bra	$914 <main+0x333>
     90e: a6 15        	ldx	$15                     ; 0x2015 <main+0x1a34>
     910: e8           	inx
     911: d0 01        	bne	$914 <main+0x333>
     913: 1a           	inc
     914: 8e 00 de     	stx	$de00                   ; 0xde00 <__heap_start+0x94be>
     917: 8d 01 de     	sta	$de01                   ; 0xde01 <__heap_start+0x94bf>
     91a: 9c 02 de     	stz	$de02                   ; 0xde02 <__heap_start+0x94c0>
     91d: a2 20        	ldx	#$20
     91f: 8e 03 de     	stx	$de03                   ; 0xde03 <__heap_start+0x94c1>
     922: ae 10 de     	ldx	$de10                   ; 0xde10 <__heap_start+0x94ce>
     925: 86 12        	stx	$12                     ; 0x2012 <main+0x1a31>
     927: ae 11 de     	ldx	$de11                   ; 0xde11 <__heap_start+0x94cf>
     92a: 86 13        	stx	$13                     ; 0x2013 <main+0x1a32>
     92c: ae 12 de     	ldx	$de12                   ; 0xde12 <__heap_start+0x94d0>
     92f: 86 14        	stx	$14                     ; 0x2014 <main+0x1a33>
     931: ae 13 de     	ldx	$de13                   ; 0xde13 <__heap_start+0x94d1>
     934: 86 15        	stx	$15                     ; 0x2015 <main+0x1a34>
     936: a9 00        	lda	#$0
     938: 38           	sec
     939: e5 12        	sbc	$12                     ; 0x2012 <main+0x1a31>
     93b: 85 17        	sta	$17                     ; 0x2017 <main+0x1a36>
     93d: a9 00        	lda	#$0
     93f: e5 13        	sbc	$13                     ; 0x2013 <main+0x1a32>
     941: aa           	tax
     942: a9 08        	lda	#$8
     944: e5 14        	sbc	$14                     ; 0x2014 <main+0x1a33>
     946: 85 16        	sta	$16                     ; 0x2016 <main+0x1a35>
     948: a9 00        	lda	#$0
     94a: e5 15        	sbc	$15                     ; 0x2015 <main+0x1a34>
     94c: 8e a3 48     	stx	$48a3                   ; 0x48a3 <_BITMAP_BASE.0+0x1>
     94f: a4 16        	ldy	$16                     ; 0x2016 <main+0x1a35>
     951: 8c a4 48     	sty	$48a4                   ; 0x48a4 <_BITMAP_BASE.0+0x2>
     954: 8d a5 48     	sta	$48a5                   ; 0x48a5 <_BITMAP_BASE.0+0x3>
     957: 38           	sec
     958: a5 17        	lda	$17                     ; 0x2017 <main+0x1a36>
     95a: e5 12        	sbc	$12                     ; 0x2012 <main+0x1a31>
     95c: a8           	tay
     95d: 8a           	txa
     95e: e5 13        	sbc	$13                     ; 0x2013 <main+0x1a32>
     960: 85 18        	sta	$18                     ; 0x2018 <main+0x1a37>
     962: a5 16        	lda	$16                     ; 0x2016 <main+0x1a35>
     964: e5 14        	sbc	$14                     ; 0x2014 <main+0x1a33>
     966: 85 15        	sta	$15                     ; 0x2015 <main+0x1a34>
     968: 98           	tya
     969: 84 16        	sty	$16                     ; 0x2016 <main+0x1a35>
     96b: 38           	sec
     96c: e5 12        	sbc	$12                     ; 0x2012 <main+0x1a31>
     96e: 85 12        	sta	$12                     ; 0x2012 <main+0x1a31>
     970: a5 18        	lda	$18                     ; 0x2018 <main+0x1a37>
     972: e5 13        	sbc	$13                     ; 0x2013 <main+0x1a32>
     974: 85 13        	sta	$13                     ; 0x2013 <main+0x1a32>
     976: a4 15        	ldy	$15                     ; 0x2015 <main+0x1a34>
     978: a5 15        	lda	$15                     ; 0x2015 <main+0x1a34>
     97a: e5 14        	sbc	$14                     ; 0x2014 <main+0x1a33>
     97c: a6 17        	ldx	$17                     ; 0x2017 <main+0x1a36>
     97e: 8e a2 48     	stx	$48a2                   ; 0x48a2 <_BITMAP_BASE.0>
     981: 8e 01 d1     	stx	$d101                   ; 0xd101 <__heap_start+0x87bf>
     984: ae a3 48     	ldx	$48a3                   ; 0x48a3 <_BITMAP_BASE.0+0x1>
     987: 8e 02 d1     	stx	$d102                   ; 0xd102 <__heap_start+0x87c0>
     98a: ae a4 48     	ldx	$48a4                   ; 0x48a4 <_BITMAP_BASE.0+0x2>
     98d: 8e 03 d1     	stx	$d103                   ; 0xd103 <__heap_start+0x87c1>
     990: a6 16        	ldx	$16                     ; 0x2016 <main+0x1a35>
     992: 8e 09 d1     	stx	$d109                   ; 0xd109 <__heap_start+0x87c7>
     995: a6 18        	ldx	$18                     ; 0x2018 <main+0x1a37>
     997: 8e 0a d1     	stx	$d10a                   ; 0xd10a <__heap_start+0x87c8>
     99a: 8c 0b d1     	sty	$d10b                   ; 0xd10b <__heap_start+0x87c9>
     99d: a6 12        	ldx	$12                     ; 0x2012 <main+0x1a31>
     99f: 8e 11 d1     	stx	$d111                   ; 0xd111 <__heap_start+0x87cf>
     9a2: a6 13        	ldx	$13                     ; 0x2013 <main+0x1a32>
     9a4: 8e 12 d1     	stx	$d112                   ; 0xd112 <__heap_start+0x87d0>
     9a7: 8d 13 d1     	sta	$d113                   ; 0xd113 <__heap_start+0x87d1>
     9aa: 9c 00 d1     	stz	$d100                   ; 0xd100 <__heap_start+0x87be>
     9ad: 9c 08 d1     	stz	$d108                   ; 0xd108 <__heap_start+0x87c6>
     9b0: 9c 10 d1     	stz	$d110                   ; 0xd110 <__heap_start+0x87ce>
     9b3: a2 10        	ldx	#$10
     9b5: 8e 00 d2     	stx	$d200                   ; 0xd200 <__heap_start+0x88be>
     9b8: 8e 0c d2     	stx	$d20c                   ; 0xd20c <__heap_start+0x88ca>
     9bb: 8e 18 d2     	stx	$d218                   ; 0xd218 <__heap_start+0x88d6>
     9be: a0 d9        	ldy	#$d9
     9c0: a2 40        	ldx	#$40
     9c2: 64 12        	stz	$12                     ; 0x2012 <main+0x1a31>
     9c4: 84 13        	sty	$13                     ; 0x2013 <main+0x1a32>
     9c6: a9 00        	lda	#$0
     9c8: 92 12        	sta	($12)                   ; 0x2012 <main+0x1a31>
     9ca: ca           	dex
     9cb: 18           	clc
     9cc: a5 12        	lda	$12                     ; 0x2012 <main+0x1a31>
     9ce: 69 08        	adc	#$8
     9d0: 85 12        	sta	$12                     ; 0x2012 <main+0x1a31>
     9d2: 98           	tya
     9d3: 69 00        	adc	#$0
     9d5: a8           	tay
     9d6: 8a           	txa
     9d7: d0 eb        	bne	$9c4 <main+0x3e3>
     9d9: 18           	clc
     9da: a5 10        	lda	$10                     ; 0x2010 <main+0x1a2f>
     9dc: 69 13        	adc	#$13
     9de: 85 12        	sta	$12                     ; 0x2012 <main+0x1a31>
     9e0: a5 11        	lda	$11                     ; 0x2011 <main+0x1a30>
     9e2: 69 00        	adc	#$0
     9e4: 85 13        	sta	$13                     ; 0x2013 <main+0x1a32>
     9e6: a6 12        	ldx	$12                     ; 0x2012 <main+0x1a31>
     9e8: 86 fb        	stx	$fb                     ; 0x20fb <main+0x1b1a>
     9ea: 85 fc        	sta	$fc                     ; 0x20fc <main+0x1b1b>
     9ec: a2 08        	ldx	#$8
     9ee: 86 fd        	stx	$fd                     ; 0x20fd <main+0x1b1c>
     9f0: 18           	clc
     9f1: a5 10        	lda	$10                     ; 0x2010 <main+0x1a2f>
     9f3: 69 12        	adc	#$12
     9f5: 85 14        	sta	$14                     ; 0x2014 <main+0x1a33>
     9f7: a5 11        	lda	$11                     ; 0x2011 <main+0x1a30>
     9f9: 69 00        	adc	#$0
     9fb: 85 15        	sta	$15                     ; 0x2015 <main+0x1a34>
     9fd: a2 a1        	ldx	#$a1
     9ff: 86 16        	stx	$16                     ; 0x2016 <main+0x1a35>
     a01: a2 48        	ldx	#$48
     a03: 86 17        	stx	$17                     ; 0x2017 <main+0x1a36>
     a05: a0 06        	ldy	#$6
     a07: 20 dc ff     	jsr	$ffdc <__heap_start+0xb69a>
     a0a: 92 14        	sta	($14)                   ; 0x2014 <main+0x1a33>
     a0c: a9 00        	lda	#$0
     a0e: 6a           	ror
     a0f: 85 16        	sta	$16                     ; 0x2016 <main+0x1a35>
     a11: b1 12        	lda	($12),y                 ; 0x2012 <main+0x1a31>
     a13: 85 14        	sta	$14                     ; 0x2014 <main+0x1a33>
     a15: c8           	iny
     a16: b1 12        	lda	($12),y                 ; 0x2012 <main+0x1a31>
     a18: a6 14        	ldx	$14                     ; 0x2014 <main+0x1a33>
     a1a: 8e 00 de     	stx	$de00                   ; 0xde00 <__heap_start+0x94be>
     a1d: 9c 01 de     	stz	$de01                   ; 0xde01 <__heap_start+0x94bf>
     a20: 8d 02 de     	sta	$de02                   ; 0xde02 <__heap_start+0x94c0>
     a23: 9c 03 de     	stz	$de03                   ; 0xde03 <__heap_start+0x94c1>
     a26: ae 10 de     	ldx	$de10                   ; 0xde10 <__heap_start+0x94ce>
     a29: ac 11 de     	ldy	$de11                   ; 0xde11 <__heap_start+0x94cf>
     a2c: ad 12 de     	lda	$de12                   ; 0xde12 <__heap_start+0x94d0>
     a2f: ad 13 de     	lda	$de13                   ; 0xde13 <__heap_start+0x94d1>
     a32: 8e a4 d6     	stx	$d6a4                   ; 0xd6a4 <__heap_start+0x8d62>
     a35: 8c a5 d6     	sty	$d6a5                   ; 0xd6a5 <__heap_start+0x8d63>
     a38: a2 03        	ldx	#$3
     a3a: 8e a6 d6     	stx	$d6a6                   ; 0xd6a6 <__heap_start+0x8d64>
     a3d: a2 00        	ldx	#$0
     a3f: 64 01        	stz	$1                      ; 0x2001 <main+0x1a20>
     a41: a0 3f        	ldy	#$3f
     a43: 8c 00 d0     	sty	$d000                   ; 0xd000 <__heap_start+0x86be>
     a46: a0 04        	ldy	#$4
     a48: 8c 01 d0     	sty	$d001                   ; 0xd001 <__heap_start+0x86bf>
     a4b: 9c 0d d0     	stz	$d00d                   ; 0xd00d <__heap_start+0x86cb>
     a4e: 9c 0e d0     	stz	$d00e                   ; 0xd00e <__heap_start+0x86cc>
     a51: 9c 0f d0     	stz	$d00f                   ; 0xd00f <__heap_start+0x86cd>
     a54: a0 01        	ldy	#$1
     a56: 84 01        	sty	$1                      ; 0x2001 <main+0x1a20>
     a58: a0 d0        	ldy	#$d0
     a5a: 18           	clc
     a5b: 86 16        	stx	$16                     ; 0x2016 <main+0x1a35>
     a5d: 8a           	txa
     a5e: 69 00        	adc	#$0
     a60: 85 14        	sta	$14                     ; 0x2014 <main+0x1a33>
     a62: 98           	tya
     a63: 69 10        	adc	#$10
     a65: 85 15        	sta	$15                     ; 0x2015 <main+0x1a34>
     a67: 86 12        	stx	$12                     ; 0x2012 <main+0x1a31>
     a69: 84 13        	sty	$13                     ; 0x2013 <main+0x1a32>
     a6b: a6 0f        	ldx	$f                      ; 0x200f <main+0x1a2e>
     a6d: 78           	sei
     a6e: a9 18        	lda	#$18
     a70: 85 0f        	sta	$f                      ; 0x200f <main+0x1a2e>
     a72: b2 14        	lda	($14)                   ; 0x2014 <main+0x1a33>
     a74: 86 0f        	stx	$f                      ; 0x200f <main+0x1a2e>
     a76: 58           	cli
     a77: 92 12        	sta	($12)                   ; 0x2012 <main+0x1a31>
     a79: a6 16        	ldx	$16                     ; 0x2016 <main+0x1a35>
     a7b: e8           	inx
     a7c: f0 06        	beq	$a84 <main+0x4a3>
     a7e: c0 d3        	cpy	#$d3
     a80: d0 d8        	bne	$a5a <main+0x479>
     a82: 80 05        	bra	$a89 <main+0x4a8>
     a84: c8           	iny
     a85: c0 d3        	cpy	#$d3
     a87: d0 d1        	bne	$a5a <main+0x479>
     a89: e0 ff        	cpx	#$ff
     a8b: d0 cd        	bne	$a5a <main+0x479>
     a8d: 64 01        	stz	$1                      ; 0x2001 <main+0x1a20>
     a8f: a2 40        	ldx	#$40
     a91: 8e 00 de     	stx	$de00                   ; 0xde00 <__heap_start+0x94be>
     a94: a2 01        	ldx	#$1
     a96: 8e 01 de     	stx	$de01                   ; 0xde01 <__heap_start+0x94bf>
     a99: a2 f0        	ldx	#$f0
     a9b: 8e 02 de     	stx	$de02                   ; 0xde02 <__heap_start+0x94c0>
     a9e: 9c 03 de     	stz	$de03                   ; 0xde03 <__heap_start+0x94c1>
     aa1: ae 10 de     	ldx	$de10                   ; 0xde10 <__heap_start+0x94ce>
     aa4: 86 17        	stx	$17                     ; 0x2017 <main+0x1a36>
     aa6: ae 11 de     	ldx	$de11                   ; 0xde11 <__heap_start+0x94cf>
     aa9: 86 12        	stx	$12                     ; 0x2012 <main+0x1a31>
     aab: ae 12 de     	ldx	$de12                   ; 0xde12 <__heap_start+0x94d0>
     aae: 86 13        	stx	$13                     ; 0x2013 <main+0x1a32>
     ab0: ae 13 de     	ldx	$de13                   ; 0xde13 <__heap_start+0x94d1>
     ab3: 86 14        	stx	$14                     ; 0x2014 <main+0x1a33>
     ab5: a4 12        	ldy	$12                     ; 0x2012 <main+0x1a31>
     ab7: 84 15        	sty	$15                     ; 0x2015 <main+0x1a34>
     ab9: 06 15        	asl	$15                     ; 0x2015 <main+0x1a34>
     abb: a5 13        	lda	$13                     ; 0x2013 <main+0x1a32>
     abd: 2a           	rol
     abe: 86 16        	stx	$16                     ; 0x2016 <main+0x1a35>
     ac0: 26 16        	rol	$16                     ; 0x2016 <main+0x1a35>
     ac2: 06 15        	asl	$15                     ; 0x2015 <main+0x1a34>
     ac4: 2a           	rol
     ac5: 26 16        	rol	$16                     ; 0x2016 <main+0x1a35>
     ac7: 06 15        	asl	$15                     ; 0x2015 <main+0x1a34>
     ac9: 2a           	rol
     aca: 26 16        	rol	$16                     ; 0x2016 <main+0x1a35>
     acc: 85 15        	sta	$15                     ; 0x2015 <main+0x1a34>
     ace: 8d 00 de     	sta	$de00                   ; 0xde00 <__heap_start+0x94be>
     ad1: a5 16        	lda	$16                     ; 0x2016 <main+0x1a35>
     ad3: 8d 01 de     	sta	$de01                   ; 0xde01 <__heap_start+0x94bf>
     ad6: 9c 02 de     	stz	$de02                   ; 0xde02 <__heap_start+0x94c0>
     ad9: a2 20        	ldx	#$20
     adb: 8e 03 de     	stx	$de03                   ; 0xde03 <__heap_start+0x94c1>
     ade: ae 10 de     	ldx	$de10                   ; 0xde10 <__heap_start+0x94ce>
     ae1: 86 16        	stx	$16                     ; 0x2016 <main+0x1a35>
     ae3: ae 11 de     	ldx	$de11                   ; 0xde11 <__heap_start+0x94cf>
     ae6: 86 18        	stx	$18                     ; 0x2018 <main+0x1a37>
     ae8: ac 12 de     	ldy	$de12                   ; 0xde12 <__heap_start+0x94d0>
     aeb: ae 13 de     	ldx	$de13                   ; 0xde13 <__heap_start+0x94d1>
     aee: e4 14        	cpx	$14                     ; 0x2014 <main+0x1a33>
     af0: d0 14        	bne	$b06 <main+0x525>
     af2: c4 13        	cpy	$13                     ; 0x2013 <main+0x1a32>
     af4: d0 10        	bne	$b06 <main+0x525>
     af6: a6 18        	ldx	$18                     ; 0x2018 <main+0x1a37>
     af8: e4 12        	cpx	$12                     ; 0x2012 <main+0x1a31>
     afa: d0 0a        	bne	$b06 <main+0x525>
     afc: a6 16        	ldx	$16                     ; 0x2016 <main+0x1a35>
     afe: e4 17        	cpx	$17                     ; 0x2017 <main+0x1a36>
     b00: d0 04        	bne	$b06 <main+0x525>
     b02: a6 15        	ldx	$15                     ; 0x2015 <main+0x1a34>
     b04: 80 06        	bra	$b0c <main+0x52b>
     b06: a6 15        	ldx	$15                     ; 0x2015 <main+0x1a34>
     b08: e8           	inx
     b09: d0 01        	bne	$b0c <main+0x52b>
     b0b: 1a           	inc
     b0c: 8e 00 de     	stx	$de00                   ; 0xde00 <__heap_start+0x94be>
     b0f: 8d 01 de     	sta	$de01                   ; 0xde01 <__heap_start+0x94bf>
     b12: 9c 02 de     	stz	$de02                   ; 0xde02 <__heap_start+0x94c0>
     b15: a2 20        	ldx	#$20
     b17: 8e 03 de     	stx	$de03                   ; 0xde03 <__heap_start+0x94c1>
     b1a: ae 10 de     	ldx	$de10                   ; 0xde10 <__heap_start+0x94ce>
     b1d: 86 12        	stx	$12                     ; 0x2012 <main+0x1a31>
     b1f: ae 11 de     	ldx	$de11                   ; 0xde11 <__heap_start+0x94cf>
     b22: 86 13        	stx	$13                     ; 0x2013 <main+0x1a32>
     b24: ae 12 de     	ldx	$de12                   ; 0xde12 <__heap_start+0x94d0>
     b27: 86 14        	stx	$14                     ; 0x2014 <main+0x1a33>
     b29: ae 13 de     	ldx	$de13                   ; 0xde13 <__heap_start+0x94d1>
     b2c: 86 15        	stx	$15                     ; 0x2015 <main+0x1a34>
     b2e: a9 00        	lda	#$0
     b30: 38           	sec
     b31: e5 12        	sbc	$12                     ; 0x2012 <main+0x1a31>
     b33: 85 16        	sta	$16                     ; 0x2016 <main+0x1a35>
     b35: a9 00        	lda	#$0
     b37: e5 13        	sbc	$13                     ; 0x2013 <main+0x1a32>
     b39: 85 17        	sta	$17                     ; 0x2017 <main+0x1a36>
     b3b: a9 08        	lda	#$8
     b3d: e5 14        	sbc	$14                     ; 0x2014 <main+0x1a33>
     b3f: aa           	tax
     b40: a9 00        	lda	#$0
     b42: e5 15        	sbc	$15                     ; 0x2015 <main+0x1a34>
     b44: a8           	tay
     b45: a5 17        	lda	$17                     ; 0x2017 <main+0x1a36>
     b47: 8d a3 48     	sta	$48a3                   ; 0x48a3 <_BITMAP_BASE.0+0x1>
     b4a: 8e a4 48     	stx	$48a4                   ; 0x48a4 <_BITMAP_BASE.0+0x2>
     b4d: 8c a5 48     	sty	$48a5                   ; 0x48a5 <_BITMAP_BASE.0+0x3>
     b50: a5 16        	lda	$16                     ; 0x2016 <main+0x1a35>
     b52: 38           	sec
     b53: e5 12        	sbc	$12                     ; 0x2012 <main+0x1a31>
     b55: a8           	tay
     b56: a5 17        	lda	$17                     ; 0x2017 <main+0x1a36>
     b58: e5 13        	sbc	$13                     ; 0x2013 <main+0x1a32>
     b5a: 85 15        	sta	$15                     ; 0x2015 <main+0x1a34>
     b5c: 8a           	txa
     b5d: e5 14        	sbc	$14                     ; 0x2014 <main+0x1a33>
     b5f: aa           	tax
     b60: 98           	tya
     b61: 38           	sec
     b62: e5 12        	sbc	$12                     ; 0x2012 <main+0x1a31>
     b64: 85 12        	sta	$12                     ; 0x2012 <main+0x1a31>
     b66: a5 15        	lda	$15                     ; 0x2015 <main+0x1a34>
     b68: e5 13        	sbc	$13                     ; 0x2013 <main+0x1a32>
     b6a: 85 13        	sta	$13                     ; 0x2013 <main+0x1a32>
     b6c: 8a           	txa
     b6d: 86 17        	stx	$17                     ; 0x2017 <main+0x1a36>
     b6f: e5 14        	sbc	$14                     ; 0x2014 <main+0x1a33>
     b71: a6 16        	ldx	$16                     ; 0x2016 <main+0x1a35>
     b73: 8e a2 48     	stx	$48a2                   ; 0x48a2 <_BITMAP_BASE.0>
     b76: 8e 01 d1     	stx	$d101                   ; 0xd101 <__heap_start+0x87bf>
     b79: ae a3 48     	ldx	$48a3                   ; 0x48a3 <_BITMAP_BASE.0+0x1>
     b7c: 8e 02 d1     	stx	$d102                   ; 0xd102 <__heap_start+0x87c0>
     b7f: ae a4 48     	ldx	$48a4                   ; 0x48a4 <_BITMAP_BASE.0+0x2>
     b82: 8e 03 d1     	stx	$d103                   ; 0xd103 <__heap_start+0x87c1>
     b85: 8c 09 d1     	sty	$d109                   ; 0xd109 <__heap_start+0x87c7>
     b88: a6 15        	ldx	$15                     ; 0x2015 <main+0x1a34>
     b8a: 8e 0a d1     	stx	$d10a                   ; 0xd10a <__heap_start+0x87c8>
     b8d: a6 17        	ldx	$17                     ; 0x2017 <main+0x1a36>
     b8f: 8e 0b d1     	stx	$d10b                   ; 0xd10b <__heap_start+0x87c9>
     b92: a6 12        	ldx	$12                     ; 0x2012 <main+0x1a31>
     b94: 8e 11 d1     	stx	$d111                   ; 0xd111 <__heap_start+0x87cf>
     b97: a6 13        	ldx	$13                     ; 0x2013 <main+0x1a32>
     b99: 8e 12 d1     	stx	$d112                   ; 0xd112 <__heap_start+0x87d0>
     b9c: 8d 13 d1     	sta	$d113                   ; 0xd113 <__heap_start+0x87d1>
     b9f: 9c 00 d1     	stz	$d100                   ; 0xd100 <__heap_start+0x87be>
     ba2: 9c 08 d1     	stz	$d108                   ; 0xd108 <__heap_start+0x87c6>
     ba5: 9c 10 d1     	stz	$d110                   ; 0xd110 <__heap_start+0x87ce>
     ba8: 9c a2 48     	stz	$48a2                   ; 0x48a2 <_BITMAP_BASE.0>
     bab: a0 04        	ldy	#$4
     bad: 8c a3 48     	sty	$48a3                   ; 0x48a3 <_BITMAP_BASE.0+0x1>
     bb0: a2 03        	ldx	#$3
     bb2: 8e a4 48     	stx	$48a4                   ; 0x48a4 <_BITMAP_BASE.0+0x2>
     bb5: 9c a5 48     	stz	$48a5                   ; 0x48a5 <_BITMAP_BASE.0+0x3>
     bb8: 9c 01 d1     	stz	$d101                   ; 0xd101 <__heap_start+0x87bf>
     bbb: 8c 02 d1     	sty	$d102                   ; 0xd102 <__heap_start+0x87c0>
     bbe: 8e 03 d1     	stx	$d103                   ; 0xd103 <__heap_start+0x87c1>
     bc1: a2 01        	ldx	#$1
     bc3: 8e 00 d1     	stx	$d100                   ; 0xd100 <__heap_start+0x87be>
     bc6: a6 02        	ldx	$2                      ; 0x2002 <main+0x1a21>
     bc8: a5 03        	lda	$3                      ; 0x2003 <main+0x1a22>
     bca: 86 12        	stx	$12                     ; 0x2012 <main+0x1a31>
     bcc: 85 13        	sta	$13                     ; 0x2013 <main+0x1a32>
     bce: a9 48        	lda	#$48
     bd0: 91 12        	sta	($12),y                 ; 0x2012 <main+0x1a31>
     bd2: a9 72        	lda	#$72
     bd4: a0 01        	ldy	#$1
     bd6: 91 12        	sta	($12),y                 ; 0x2012 <main+0x1a31>
     bd8: a9 53        	lda	#$53
     bda: a0 08        	ldy	#$8
     bdc: 91 12        	sta	($12),y                 ; 0x2012 <main+0x1a31>
     bde: a0 02        	ldy	#$2
     be0: a9 71        	lda	#$71
     be2: 91 12        	sta	($12),y                 ; 0x2012 <main+0x1a31>
     be4: a9 f2        	lda	#$f2
     be6: a0 05        	ldy	#$5
     be8: 91 12        	sta	($12),y                 ; 0x2012 <main+0x1a31>
     bea: 3a           	dec
     beb: c8           	iny
     bec: 91 12        	sta	($12),y                 ; 0x2012 <main+0x1a31>
     bee: a9 27        	lda	#$27
     bf0: c8           	iny
     bf1: 91 12        	sta	($12),y                 ; 0x2012 <main+0x1a31>
     bf3: a9 30        	lda	#$30
     bf5: a0 0b        	ldy	#$b
     bf7: 91 12        	sta	($12),y                 ; 0x2012 <main+0x1a31>
     bf9: 64 01        	stz	$1                      ; 0x2001 <main+0x1a20>
     bfb: a9 00        	lda	#$0
     bfd: a0 03        	ldy	#$3
     bff: 91 12        	sta	($12),y                 ; 0x2012 <main+0x1a31>
     c01: ad 01 d0     	lda	$d001                   ; 0xd001 <__heap_start+0x86bf>
     c04: 09 10        	ora	#$10
     c06: 8d 01 d0     	sta	$d001                   ; 0xd001 <__heap_start+0x86bf>
     c09: 20 56 03     	jsr	$356 <opl3_initialize>
     c0c: 20 90 04     	jsr	$490 <opl3_setInstrumentAllChannels>
     c0f: a4 02        	ldy	$2                      ; 0x2002 <main+0x1a21>
     c11: a6 03        	ldx	$3                      ; 0x2003 <main+0x1a22>
     c13: 18           	clc
     c14: 98           	tya
     c15: 69 0b        	adc	#$b
     c17: 85 12        	sta	$12                     ; 0x2012 <main+0x1a31>
     c19: 8a           	txa
     c1a: 86 15        	stx	$15                     ; 0x2015 <main+0x1a34>
     c1c: 69 00        	adc	#$0
     c1e: a6 12        	ldx	$12                     ; 0x2012 <main+0x1a31>
     c20: 8e af 48     	stx	$48af                   ; 0x48af <opl3_fields+0x8>
     c23: 8d b0 48     	sta	$48b0                   ; 0x48b0 <opl3_fields+0x9>
     c26: 18           	clc
     c27: 98           	tya
     c28: 84 12        	sty	$12                     ; 0x2012 <main+0x1a31>
     c2a: 69 09        	adc	#$9
     c2c: a8           	tay
     c2d: a5 15        	lda	$15                     ; 0x2015 <main+0x1a34>
     c2f: 69 00        	adc	#$0
     c31: 8c b6 48     	sty	$48b6                   ; 0x48b6 <opl3_fields+0xf>
     c34: 8d b7 48     	sta	$48b7                   ; 0x48b7 <opl3_fields+0x10>
     c37: 18           	clc
     c38: a5 12        	lda	$12                     ; 0x2012 <main+0x1a31>
     c3a: 69 0a        	adc	#$a
     c3c: aa           	tax
     c3d: a5 15        	lda	$15                     ; 0x2015 <main+0x1a34>
     c3f: 69 00        	adc	#$0
     c41: 8e bd 48     	stx	$48bd                   ; 0x48bd <opl3_fields+0x16>
     c44: 8d be 48     	sta	$48be                   ; 0x48be <opl3_fields+0x17>
     c47: 18           	clc
     c48: a6 12        	ldx	$12                     ; 0x2012 <main+0x1a31>
     c4a: a5 12        	lda	$12                     ; 0x2012 <main+0x1a31>
     c4c: 69 05        	adc	#$5
     c4e: 85 12        	sta	$12                     ; 0x2012 <main+0x1a31>
     c50: a5 15        	lda	$15                     ; 0x2015 <main+0x1a34>
     c52: 69 00        	adc	#$0
     c54: 85 14        	sta	$14                     ; 0x2014 <main+0x1a33>
     c56: 18           	clc
     c57: 8a           	txa
     c58: 86 13        	stx	$13                     ; 0x2013 <main+0x1a32>
     c5a: 69 06        	adc	#$6
     c5c: 85 16        	sta	$16                     ; 0x2016 <main+0x1a35>
     c5e: a5 15        	lda	$15                     ; 0x2015 <main+0x1a34>
     c60: 69 00        	adc	#$0
     c62: a6 12        	ldx	$12                     ; 0x2012 <main+0x1a31>
     c64: 8e c4 48     	stx	$48c4                   ; 0x48c4 <opl3_fields+0x1d>
     c67: a4 14        	ldy	$14                     ; 0x2014 <main+0x1a33>
     c69: 8c c5 48     	sty	$48c5                   ; 0x48c5 <opl3_fields+0x1e>
     c6c: a4 16        	ldy	$16                     ; 0x2016 <main+0x1a35>
     c6e: 8c cb 48     	sty	$48cb                   ; 0x48cb <opl3_fields+0x24>
     c71: 8d cc 48     	sta	$48cc                   ; 0x48cc <opl3_fields+0x25>
     c74: 8e d2 48     	stx	$48d2                   ; 0x48d2 <opl3_fields+0x2b>
     c77: a6 14        	ldx	$14                     ; 0x2014 <main+0x1a33>
     c79: 8e d3 48     	stx	$48d3                   ; 0x48d3 <opl3_fields+0x2c>
     c7c: 8c d9 48     	sty	$48d9                   ; 0x48d9 <opl3_fields+0x32>
     c7f: 8d da 48     	sta	$48da                   ; 0x48da <opl3_fields+0x33>
     c82: 18           	clc
     c83: a5 13        	lda	$13                     ; 0x2013 <main+0x1a32>
     c85: 69 07        	adc	#$7
     c87: 85 17        	sta	$17                     ; 0x2017 <main+0x1a36>
     c89: a4 15        	ldy	$15                     ; 0x2015 <main+0x1a34>
     c8b: a5 15        	lda	$15                     ; 0x2015 <main+0x1a34>
     c8d: 69 00        	adc	#$0
     c8f: 85 14        	sta	$14                     ; 0x2014 <main+0x1a33>
     c91: 18           	clc
     c92: a6 13        	ldx	$13                     ; 0x2013 <main+0x1a32>
     c94: a5 13        	lda	$13                     ; 0x2013 <main+0x1a32>
     c96: 69 08        	adc	#$8
     c98: 85 15        	sta	$15                     ; 0x2015 <main+0x1a34>
     c9a: 98           	tya
     c9b: 69 00        	adc	#$0
     c9d: 85 16        	sta	$16                     ; 0x2016 <main+0x1a35>
     c9f: 9c a7 48     	stz	$48a7                   ; 0x48a7 <opl3_fields>
     ca2: 8e a8 48     	stx	$48a8                   ; 0x48a8 <opl3_fields+0x1>
     ca5: 8c a9 48     	sty	$48a9                   ; 0x48a9 <opl3_fields+0x2>
     ca8: 84 12        	sty	$12                     ; 0x2012 <main+0x1a31>
     caa: a2 01        	ldx	#$1
     cac: 8e aa 48     	stx	$48aa                   ; 0x48aa <opl3_fields+0x3>
     caf: 8e ab 48     	stx	$48ab                   ; 0x48ab <opl3_fields+0x4>
     cb2: a0 01        	ldy	#$1
     cb4: a6 17        	ldx	$17                     ; 0x2017 <main+0x1a36>
     cb6: 8e e0 48     	stx	$48e0                   ; 0x48e0 <opl3_fields+0x39>
     cb9: 8e ee 48     	stx	$48ee                   ; 0x48ee <opl3_fields+0x47>
     cbc: a9 22        	lda	#$22
     cbe: 8d ac 48     	sta	$48ac                   ; 0x48ac <opl3_fields+0x5>
     cc1: a2 03        	ldx	#$3
     cc3: 8e ad 48     	stx	$48ad                   ; 0x48ad <opl3_fields+0x6>
     cc6: a2 08        	ldx	#$8
     cc8: 8e ae 48     	stx	$48ae                   ; 0x48ae <opl3_fields+0x7>
     ccb: 9c b1 48     	stz	$48b1                   ; 0x48b1 <opl3_fields+0xa>
     cce: 8c b2 48     	sty	$48b2                   ; 0x48b2 <opl3_fields+0xb>
     cd1: 8d b3 48     	sta	$48b3                   ; 0x48b3 <opl3_fields+0xc>
     cd4: a2 06        	ldx	#$6
     cd6: 8e b4 48     	stx	$48b4                   ; 0x48b4 <opl3_fields+0xd>
     cd9: 9c b5 48     	stz	$48b5                   ; 0x48b5 <opl3_fields+0xe>
     cdc: 9c b8 48     	stz	$48b8                   ; 0x48b8 <opl3_fields+0x11>
     cdf: 8c b9 48     	sty	$48b9                   ; 0x48b9 <opl3_fields+0x12>
     ce2: 8d ba 48     	sta	$48ba                   ; 0x48ba <opl3_fields+0x13>
     ce5: a6 14        	ldx	$14                     ; 0x2014 <main+0x1a33>
     ce7: 8e e1 48     	stx	$48e1                   ; 0x48e1 <opl3_fields+0x3a>
     cea: a4 15        	ldy	$15                     ; 0x2015 <main+0x1a34>
     cec: 8c e7 48     	sty	$48e7                   ; 0x48e7 <opl3_fields+0x40>
     cef: a5 16        	lda	$16                     ; 0x2016 <main+0x1a35>
     cf1: 8d e8 48     	sta	$48e8                   ; 0x48e8 <opl3_fields+0x41>
     cf4: 8e ef 48     	stx	$48ef                   ; 0x48ef <opl3_fields+0x48>
     cf7: 8c f5 48     	sty	$48f5                   ; 0x48f5 <opl3_fields+0x4e>
     cfa: 8d f6 48     	sta	$48f6                   ; 0x48f6 <opl3_fields+0x4f>
     cfd: 18           	clc
     cfe: a6 13        	ldx	$13                     ; 0x2013 <main+0x1a32>
     d00: 86 15        	stx	$15                     ; 0x2015 <main+0x1a34>
     d02: a5 13        	lda	$13                     ; 0x2013 <main+0x1a32>
     d04: 69 03        	adc	#$3
     d06: a8           	tay
     d07: a5 12        	lda	$12                     ; 0x2012 <main+0x1a31>
     d09: 69 00        	adc	#$0
     d0b: aa           	tax
     d0c: 98           	tya
     d0d: 8c fc 48     	sty	$48fc                   ; 0x48fc <opl3_fields+0x55>
     d10: 8e fd 48     	stx	$48fd                   ; 0x48fd <opl3_fields+0x56>
     d13: a0 21        	ldy	#$21
     d15: 8c 00 49     	sty	$4900                   ; 0x4900 <opl3_fields+0x59>
     d18: 8d 03 49     	sta	$4903                   ; 0x4903 <opl3_fields+0x5c>
     d1b: 85 14        	sta	$14                     ; 0x2014 <main+0x1a33>
     d1d: 8e 04 49     	stx	$4904                   ; 0x4904 <opl3_fields+0x5d>
     d20: 86 13        	stx	$13                     ; 0x2013 <main+0x1a32>
     d22: 18           	clc
     d23: a5 15        	lda	$15                     ; 0x2015 <main+0x1a34>
     d25: 69 04        	adc	#$4
     d27: aa           	tax
     d28: a5 12        	lda	$12                     ; 0x2012 <main+0x1a31>
     d2a: 69 00        	adc	#$0
     d2c: 8e 0a 49     	stx	$490a                   ; 0x490a <opl3_fields+0x63>
     d2f: 8d 0b 49     	sta	$490b                   ; 0x490b <opl3_fields+0x64>
     d32: 8e 11 49     	stx	$4911                   ; 0x4911 <opl3_fields+0x6a>
     d35: 8d 12 49     	sta	$4912                   ; 0x4912 <opl3_fields+0x6b>
     d38: a0 24        	ldy	#$24
     d3a: 8c 15 49     	sty	$4915                   ; 0x4915 <opl3_fields+0x6e>
     d3d: a6 14        	ldx	$14                     ; 0x2014 <main+0x1a33>
     d3f: 8e 18 49     	stx	$4918                   ; 0x4918 <opl3_fields+0x71>
     d42: a6 13        	ldx	$13                     ; 0x2013 <main+0x1a32>
     d44: 8e 19 49     	stx	$4919                   ; 0x4919 <opl3_fields+0x72>
     d47: a6 02        	ldx	$2                      ; 0x2002 <main+0x1a21>
     d49: 86 14        	stx	$14                     ; 0x2014 <main+0x1a33>
     d4b: a6 03        	ldx	$3                      ; 0x2003 <main+0x1a22>
     d4d: a5 14        	lda	$14                     ; 0x2014 <main+0x1a33>
     d4f: 18           	clc
     d50: 69 04        	adc	#$4
     d52: a8           	tay
     d53: 8a           	txa
     d54: 86 13        	stx	$13                     ; 0x2013 <main+0x1a32>
     d56: 69 00        	adc	#$0
     d58: 85 15        	sta	$15                     ; 0x2015 <main+0x1a34>
     d5a: a2 09        	ldx	#$9
     d5c: 8e bb 48     	stx	$48bb                   ; 0x48bb <opl3_fields+0x14>
     d5f: a2 01        	ldx	#$1
     d61: 8e bc 48     	stx	$48bc                   ; 0x48bc <opl3_fields+0x15>
     d64: 9c bf 48     	stz	$48bf                   ; 0x48bf <opl3_fields+0x18>
     d67: 8e c0 48     	stx	$48c0                   ; 0x48c0 <opl3_fields+0x19>
     d6a: 8c 1f 49     	sty	$491f                   ; 0x491f <opl3_fields+0x78>
     d6d: a9 23        	lda	#$23
     d6f: 8d c1 48     	sta	$48c1                   ; 0x48c1 <opl3_fields+0x1a>
     d72: a0 09        	ldy	#$9
     d74: 8c c2 48     	sty	$48c2                   ; 0x48c2 <opl3_fields+0x1b>
     d77: a0 05        	ldy	#$5
     d79: 8c c3 48     	sty	$48c3                   ; 0x48c3 <opl3_fields+0x1c>
     d7c: 8e c6 48     	stx	$48c6                   ; 0x48c6 <opl3_fields+0x1f>
     d7f: 8e c7 48     	stx	$48c7                   ; 0x48c7 <opl3_fields+0x20>
     d82: a0 22        	ldy	#$22
     d84: 8c c8 48     	sty	$48c8                   ; 0x48c8 <opl3_fields+0x21>
     d87: a4 14        	ldy	$14                     ; 0x2014 <main+0x1a33>
     d89: 84 12        	sty	$12                     ; 0x2012 <main+0x1a31>
     d8b: a4 13        	ldy	$13                     ; 0x2013 <main+0x1a32>
     d8d: a5 15        	lda	$15                     ; 0x2015 <main+0x1a34>
     d8f: 8d 20 49     	sta	$4920                   ; 0x4920 <opl3_fields+0x79>
     d92: e6 12        	inc	$12                     ; 0x2012 <main+0x1a31>
     d94: d0 02        	bne	$d98 <main+0x7b7>
     d96: e6 13        	inc	$13                     ; 0x2013 <main+0x1a32>
     d98: 18           	clc
     d99: a5 14        	lda	$14                     ; 0x2014 <main+0x1a33>
     d9b: 69 02        	adc	#$2
     d9d: 85 14        	sta	$14                     ; 0x2014 <main+0x1a33>
     d9f: 98           	tya
     da0: 69 00        	adc	#$0
     da2: 85 15        	sta	$15                     ; 0x2015 <main+0x1a34>
     da4: a5 12        	lda	$12                     ; 0x2012 <main+0x1a31>
     da6: 8d 26 49     	sta	$4926                   ; 0x4926 <opl3_fields+0x7f>
     da9: 8d 34 49     	sta	$4934                   ; 0x4934 <opl3_fields+0x8d>
     dac: a5 13        	lda	$13                     ; 0x2013 <main+0x1a32>
     dae: 8d 27 49     	sta	$4927                   ; 0x4927 <opl3_fields+0x80>
     db1: 8d 35 49     	sta	$4935                   ; 0x4935 <opl3_fields+0x8e>
     db4: a9 0a        	lda	#$a
     db6: 8d c9 48     	sta	$48c9                   ; 0x48c9 <opl3_fields+0x22>
     db9: a0 08        	ldy	#$8
     dbb: 8c ca 48     	sty	$48ca                   ; 0x48ca <opl3_fields+0x23>
     dbe: 8e cd 48     	stx	$48cd                   ; 0x48cd <opl3_fields+0x26>
     dc1: 8e ce 48     	stx	$48ce                   ; 0x48ce <opl3_fields+0x27>
     dc4: a0 23        	ldy	#$23
     dc6: 8c cf 48     	sty	$48cf                   ; 0x48cf <opl3_fields+0x28>
     dc9: 8d d0 48     	sta	$48d0                   ; 0x48d0 <opl3_fields+0x29>
     dcc: 8e d1 48     	stx	$48d1                   ; 0x48d1 <opl3_fields+0x2a>
     dcf: 9c d4 48     	stz	$48d4                   ; 0x48d4 <opl3_fields+0x2d>
     dd2: 8e d5 48     	stx	$48d5                   ; 0x48d5 <opl3_fields+0x2e>
     dd5: 88           	dey
     dd6: 8c d6 48     	sty	$48d6                   ; 0x48d6 <opl3_fields+0x2f>
     dd9: a0 0b        	ldy	#$b
     ddb: 8c d7 48     	sty	$48d7                   ; 0x48d7 <opl3_fields+0x30>
     dde: a9 03        	lda	#$3
     de0: 8d d8 48     	sta	$48d8                   ; 0x48d8 <opl3_fields+0x31>
     de3: 9c db 48     	stz	$48db                   ; 0x48db <opl3_fields+0x34>
     de6: 8e dc 48     	stx	$48dc                   ; 0x48dc <opl3_fields+0x35>
     de9: a9 23        	lda	#$23
     deb: 8d dd 48     	sta	$48dd                   ; 0x48dd <opl3_fields+0x36>
     dee: 8c de 48     	sty	$48de                   ; 0x48de <opl3_fields+0x37>
     df1: a0 08        	ldy	#$8
     df3: 8c df 48     	sty	$48df                   ; 0x48df <opl3_fields+0x38>
     df6: 98           	tya
     df7: 8e e2 48     	stx	$48e2                   ; 0x48e2 <opl3_fields+0x3b>
     dfa: 8e e3 48     	stx	$48e3                   ; 0x48e3 <opl3_fields+0x3c>
     dfd: a0 22        	ldy	#$22
     dff: 8c e4 48     	sty	$48e4                   ; 0x48e4 <opl3_fields+0x3d>
     e02: 8c f2 48     	sty	$48f2                   ; 0x48f2 <opl3_fields+0x4b>
     e05: 8c 07 49     	sty	$4907                   ; 0x4907 <opl3_fields+0x60>
     e08: 8c 1c 49     	sty	$491c                   ; 0x491c <opl3_fields+0x75>
     e0b: 8c 2a 49     	sty	$492a                   ; 0x492a <opl3_fields+0x83>
     e0e: 8c 38 49     	sty	$4938                   ; 0x4938 <opl3_fields+0x91>
     e11: a0 0c        	ldy	#$c
     e13: 8c e5 48     	sty	$48e5                   ; 0x48e5 <opl3_fields+0x3e>
     e16: 8d e6 48     	sta	$48e6                   ; 0x48e6 <opl3_fields+0x3f>
     e19: 8e e9 48     	stx	$48e9                   ; 0x48e9 <opl3_fields+0x42>
     e1c: 8e ea 48     	stx	$48ea                   ; 0x48ea <opl3_fields+0x43>
     e1f: a9 23        	lda	#$23
     e21: 8d eb 48     	sta	$48eb                   ; 0x48eb <opl3_fields+0x44>
     e24: 8c ec 48     	sty	$48ec                   ; 0x48ec <opl3_fields+0x45>
     e27: a9 08        	lda	#$8
     e29: 8d ed 48     	sta	$48ed                   ; 0x48ed <opl3_fields+0x46>
     e2c: 9c f0 48     	stz	$48f0                   ; 0x48f0 <opl3_fields+0x49>
     e2f: 8e f1 48     	stx	$48f1                   ; 0x48f1 <opl3_fields+0x4a>
     e32: a4 14        	ldy	$14                     ; 0x2014 <main+0x1a33>
     e34: 8c 2d 49     	sty	$492d                   ; 0x492d <opl3_fields+0x86>
     e37: 8c 3b 49     	sty	$493b                   ; 0x493b <opl3_fields+0x94>
     e3a: a0 0d        	ldy	#$d
     e3c: 8c f3 48     	sty	$48f3                   ; 0x48f3 <opl3_fields+0x4c>
     e3f: 8d f4 48     	sta	$48f4                   ; 0x48f4 <opl3_fields+0x4d>
     e42: 9c f7 48     	stz	$48f7                   ; 0x48f7 <opl3_fields+0x50>
     e45: 8e f8 48     	stx	$48f8                   ; 0x48f8 <opl3_fields+0x51>
     e48: a9 23        	lda	#$23
     e4a: 8d f9 48     	sta	$48f9                   ; 0x48f9 <opl3_fields+0x52>
     e4d: 8c fa 48     	sty	$48fa                   ; 0x48fa <opl3_fields+0x53>
     e50: 9c fb 48     	stz	$48fb                   ; 0x48fb <opl3_fields+0x54>
     e53: 8e fe 48     	stx	$48fe                   ; 0x48fe <opl3_fields+0x57>
     e56: 8e ff 48     	stx	$48ff                   ; 0x48ff <opl3_fields+0x58>
     e59: a4 15        	ldy	$15                     ; 0x2015 <main+0x1a34>
     e5b: 8c 2e 49     	sty	$492e                   ; 0x492e <opl3_fields+0x87>
     e5e: 8c 3c 49     	sty	$493c                   ; 0x493c <opl3_fields+0x95>
     e61: a0 0e        	ldy	#$e
     e63: 8c 01 49     	sty	$4901                   ; 0x4901 <opl3_fields+0x5a>
     e66: a9 08        	lda	#$8
     e68: 8d 02 49     	sta	$4902                   ; 0x4902 <opl3_fields+0x5b>
     e6b: 9c 05 49     	stz	$4905                   ; 0x4905 <opl3_fields+0x5e>
     e6e: 8e 06 49     	stx	$4906                   ; 0x4906 <opl3_fields+0x5f>
     e71: 8c 08 49     	sty	$4908                   ; 0x4908 <opl3_fields+0x61>
     e74: 9c 09 49     	stz	$4909                   ; 0x4909 <opl3_fields+0x62>
     e77: 8e 0c 49     	stx	$490c                   ; 0x490c <opl3_fields+0x65>
     e7a: 8e 0d 49     	stx	$490d                   ; 0x490d <opl3_fields+0x66>
     e7d: a9 23        	lda	#$23
     e7f: 8d 0e 49     	sta	$490e                   ; 0x490e <opl3_fields+0x67>
     e82: 8c 0f 49     	sty	$490f                   ; 0x490f <opl3_fields+0x68>
     e85: a9 08        	lda	#$8
     e87: 8d 10 49     	sta	$4910                   ; 0x4910 <opl3_fields+0x69>
     e8a: 9c 13 49     	stz	$4913                   ; 0x4913 <opl3_fields+0x6c>
     e8d: 8e 14 49     	stx	$4914                   ; 0x4914 <opl3_fields+0x6d>
     e90: 8c 16 49     	sty	$4916                   ; 0x4916 <opl3_fields+0x6f>
     e93: 9c 17 49     	stz	$4917                   ; 0x4917 <opl3_fields+0x70>
     e96: 8e 1a 49     	stx	$491a                   ; 0x491a <opl3_fields+0x73>
     e99: 8e 1b 49     	stx	$491b                   ; 0x491b <opl3_fields+0x74>
     e9c: a0 23        	ldy	#$23
     e9e: 8c 23 49     	sty	$4923                   ; 0x4923 <opl3_fields+0x7c>
     ea1: 8c 31 49     	sty	$4931                   ; 0x4931 <opl3_fields+0x8a>
     ea4: 8c 3f 49     	sty	$493f                   ; 0x493f <opl3_fields+0x98>
     ea7: a0 0f        	ldy	#$f
     ea9: 8c 1d 49     	sty	$491d                   ; 0x491d <opl3_fields+0x76>
     eac: 9c 1e 49     	stz	$491e                   ; 0x491e <opl3_fields+0x77>
     eaf: 8e 21 49     	stx	$4921                   ; 0x4921 <opl3_fields+0x7a>
     eb2: 8e 22 49     	stx	$4922                   ; 0x4922 <opl3_fields+0x7b>
     eb5: 8c 24 49     	sty	$4924                   ; 0x4924 <opl3_fields+0x7d>
     eb8: a9 02        	lda	#$2
     eba: 8d 25 49     	sta	$4925                   ; 0x4925 <opl3_fields+0x7e>
     ebd: 8e 28 49     	stx	$4928                   ; 0x4928 <opl3_fields+0x81>
     ec0: 8e 29 49     	stx	$4929                   ; 0x4929 <opl3_fields+0x82>
     ec3: c8           	iny
     ec4: 8c 2b 49     	sty	$492b                   ; 0x492b <opl3_fields+0x84>
     ec7: 8d 2c 49     	sta	$492c                   ; 0x492c <opl3_fields+0x85>
     eca: 8e 2f 49     	stx	$492f                   ; 0x492f <opl3_fields+0x88>
     ecd: 8e 30 49     	stx	$4930                   ; 0x4930 <opl3_fields+0x89>
     ed0: 8c 32 49     	sty	$4932                   ; 0x4932 <opl3_fields+0x8b>
     ed3: 8d 33 49     	sta	$4933                   ; 0x4933 <opl3_fields+0x8c>
     ed6: a8           	tay
     ed7: 9c 36 49     	stz	$4936                   ; 0x4936 <opl3_fields+0x8f>
     eda: 8e 37 49     	stx	$4937                   ; 0x4937 <opl3_fields+0x90>
     edd: a9 11        	lda	#$11
     edf: 8d 39 49     	sta	$4939                   ; 0x4939 <opl3_fields+0x92>
     ee2: 8c 3a 49     	sty	$493a                   ; 0x493a <opl3_fields+0x93>
     ee5: 9c 3d 49     	stz	$493d                   ; 0x493d <opl3_fields+0x96>
     ee8: 8e 3e 49     	stx	$493e                   ; 0x493e <opl3_fields+0x97>
     eeb: 8d 40 49     	sta	$4940                   ; 0x4940 <opl3_fields+0x99>
     eee: 64 4b        	stz	$4b                     ; 0x204b <main+0x1a6a>
     ef0: 9c 14 d0     	stz	$d014                   ; 0xd014 <__heap_start+0x86d2>
     ef3: 9c 15 d0     	stz	$d015                   ; 0xd015 <__heap_start+0x86d3>
     ef6: 64 4c        	stz	$4c                     ; 0x204c <main+0x1a6b>
     ef8: 9c 16 d0     	stz	$d016                   ; 0xd016 <__heap_start+0x86d4>
     efb: 9c 17 d0     	stz	$d017                   ; 0xd017 <__heap_start+0x86d5>
     efe: a2 f3        	ldx	#$f3
     f00: 86 30        	stx	$30                     ; 0x2030 <main+0x1a4f>
     f02: a2 e3        	ldx	#$e3
     f04: 86 12        	stx	$12                     ; 0x2012 <main+0x1a31>
     f06: a2 47        	ldx	#$47
     f08: 86 13        	stx	$13                     ; 0x2013 <main+0x1a32>
     f0a: 20 a2 22     	jsr	$22a2 <textPrint>
     f0d: 64 4b        	stz	$4b                     ; 0x204b <main+0x1a6a>
     f0f: 9c 14 d0     	stz	$d014                   ; 0xd014 <__heap_start+0x86d2>
     f12: 9c 15 d0     	stz	$d015                   ; 0xd015 <__heap_start+0x86d3>
     f15: a2 15        	ldx	#$15
     f17: 86 4c        	stx	$4c                     ; 0x204c <main+0x1a6b>
     f19: 8e 16 d0     	stx	$d016                   ; 0xd016 <__heap_start+0x86d4>
     f1c: 9c 17 d0     	stz	$d017                   ; 0xd017 <__heap_start+0x86d5>
     f1f: a2 f8        	ldx	#$f8
     f21: 86 12        	stx	$12                     ; 0x2012 <main+0x1a31>
     f23: a2 47        	ldx	#$47
     f25: 86 13        	stx	$13                     ; 0x2013 <main+0x1a32>
     f27: 20 a2 22     	jsr	$22a2 <textPrint>
     f2a: a2 f0        	ldx	#$f0
     f2c: 86 30        	stx	$30                     ; 0x2030 <main+0x1a4f>
     f2e: a2 97        	ldx	#$97
     f30: 86 12        	stx	$12                     ; 0x2012 <main+0x1a31>
     f32: a2 47        	ldx	#$47
     f34: 86 13        	stx	$13                     ; 0x2013 <main+0x1a32>
     f36: 20 a2 22     	jsr	$22a2 <textPrint>
     f39: a2 f3        	ldx	#$f3
     f3b: 86 30        	stx	$30                     ; 0x2030 <main+0x1a4f>
     f3d: a2 d1        	ldx	#$d1
     f3f: 86 12        	stx	$12                     ; 0x2012 <main+0x1a31>
     f41: a2 46        	ldx	#$46
     f43: 86 13        	stx	$13                     ; 0x2013 <main+0x1a32>
     f45: 20 a2 22     	jsr	$22a2 <textPrint>
     f48: a2 f0        	ldx	#$f0
     f4a: 86 30        	stx	$30                     ; 0x2030 <main+0x1a4f>
     f4c: a2 65        	ldx	#$65
     f4e: 86 12        	stx	$12                     ; 0x2012 <main+0x1a31>
     f50: a2 46        	ldx	#$46
     f52: 86 13        	stx	$13                     ; 0x2013 <main+0x1a32>
     f54: 20 a2 22     	jsr	$22a2 <textPrint>
     f57: a2 f3        	ldx	#$f3
     f59: 86 30        	stx	$30                     ; 0x2030 <main+0x1a4f>
     f5b: a2 be        	ldx	#$be
     f5d: 86 12        	stx	$12                     ; 0x2012 <main+0x1a31>
     f5f: a2 47        	ldx	#$47
     f61: 86 13        	stx	$13                     ; 0x2013 <main+0x1a32>
     f63: 20 a2 22     	jsr	$22a2 <textPrint>
     f66: a2 f0        	ldx	#$f0
     f68: 86 30        	stx	$30                     ; 0x2030 <main+0x1a4f>
     f6a: a2 5b        	ldx	#$5b
     f6c: 86 12        	stx	$12                     ; 0x2012 <main+0x1a31>
     f6e: a2 47        	ldx	#$47
     f70: 86 13        	stx	$13                     ; 0x2013 <main+0x1a32>
     f72: 20 a2 22     	jsr	$22a2 <textPrint>
     f75: a2 f3        	ldx	#$f3
     f77: 86 30        	stx	$30                     ; 0x2030 <main+0x1a4f>
     f79: a2 ac        	ldx	#$ac
     f7b: 86 12        	stx	$12                     ; 0x2012 <main+0x1a31>
     f7d: a2 46        	ldx	#$46
     f7f: 86 13        	stx	$13                     ; 0x2013 <main+0x1a32>
     f81: 20 a2 22     	jsr	$22a2 <textPrint>
     f84: a2 f0        	ldx	#$f0
     f86: 86 30        	stx	$30                     ; 0x2030 <main+0x1a4f>
     f88: a2 62        	ldx	#$62
     f8a: 86 12        	stx	$12                     ; 0x2012 <main+0x1a31>
     f8c: a2 47        	ldx	#$47
     f8e: 86 13        	stx	$13                     ; 0x2013 <main+0x1a32>
     f90: 20 a2 22     	jsr	$22a2 <textPrint>
     f93: a2 f3        	ldx	#$f3
     f95: 86 30        	stx	$30                     ; 0x2030 <main+0x1a4f>
     f97: a2 f3        	ldx	#$f3
     f99: 86 12        	stx	$12                     ; 0x2012 <main+0x1a31>
     f9b: a2 47        	ldx	#$47
     f9d: 86 13        	stx	$13                     ; 0x2013 <main+0x1a32>
     f9f: 20 a2 22     	jsr	$22a2 <textPrint>
     fa2: a2 f0        	ldx	#$f0
     fa4: 86 30        	stx	$30                     ; 0x2030 <main+0x1a4f>
     fa6: a2 8b        	ldx	#$8b
     fa8: 86 12        	stx	$12                     ; 0x2012 <main+0x1a31>
     faa: a2 47        	ldx	#$47
     fac: 86 13        	stx	$13                     ; 0x2013 <main+0x1a32>
     fae: 20 a2 22     	jsr	$22a2 <textPrint>
     fb1: a2 fa        	ldx	#$fa
     fb3: 86 30        	stx	$30                     ; 0x2030 <main+0x1a4f>
     fb5: a2 01        	ldx	#$1
     fb7: 86 4b        	stx	$4b                     ; 0x204b <main+0x1a6a>
     fb9: 8e 14 d0     	stx	$d014                   ; 0xd014 <__heap_start+0x86d2>
     fbc: 9c 15 d0     	stz	$d015                   ; 0xd015 <__heap_start+0x86d3>
     fbf: e8           	inx
     fc0: 86 4c        	stx	$4c                     ; 0x204c <main+0x1a6b>
     fc2: 8e 16 d0     	stx	$d016                   ; 0xd016 <__heap_start+0x86d4>
     fc5: 9c 17 d0     	stz	$d017                   ; 0xd017 <__heap_start+0x86d5>
     fc8: a2 21        	ldx	#$21
     fca: 86 12        	stx	$12                     ; 0x2012 <main+0x1a31>
     fcc: a2 48        	ldx	#$48
     fce: 86 13        	stx	$13                     ; 0x2013 <main+0x1a32>
     fd0: 20 55 36     	jsr	$3655 <printf>
     fd3: a2 a0        	ldx	#$a0
     fd5: 86 30        	stx	$30                     ; 0x2030 <main+0x1a4f>
     fd7: a2 01        	ldx	#$1
     fd9: 86 4b        	stx	$4b                     ; 0x204b <main+0x1a6a>
     fdb: 8e 14 d0     	stx	$d014                   ; 0xd014 <__heap_start+0x86d2>
     fde: 9c 15 d0     	stz	$d015                   ; 0xd015 <__heap_start+0x86d3>
     fe1: a2 03        	ldx	#$3
     fe3: 86 4c        	stx	$4c                     ; 0x204c <main+0x1a6b>
     fe5: 8e 16 d0     	stx	$d016                   ; 0xd016 <__heap_start+0x86d4>
     fe8: 9c 17 d0     	stz	$d017                   ; 0xd017 <__heap_start+0x86d5>
     feb: a2 db        	ldx	#$db
     fed: 86 12        	stx	$12                     ; 0x2012 <main+0x1a31>
     fef: a2 46        	ldx	#$46
     ff1: 86 13        	stx	$13                     ; 0x2013 <main+0x1a32>
     ff3: 20 55 36     	jsr	$3655 <printf>
     ff6: a2 fa        	ldx	#$fa
     ff8: 86 30        	stx	$30                     ; 0x2030 <main+0x1a4f>
     ffa: a2 01        	ldx	#$1
     ffc: 86 4b        	stx	$4b                     ; 0x204b <main+0x1a6a>
     ffe: 8e 14 d0     	stx	$d014                   ; 0xd014 <__heap_start+0x86d2>
    1001: 9c 15 d0     	stz	$d015                   ; 0xd015 <__heap_start+0x86d3>
    1004: a2 05        	ldx	#$5
    1006: 86 4c        	stx	$4c                     ; 0x204c <main+0x1a6b>
    1008: 8e 16 d0     	stx	$d016                   ; 0xd016 <__heap_start+0x86d4>
    100b: 9c 17 d0     	stz	$d017                   ; 0xd017 <__heap_start+0x86d5>
    100e: a2 81        	ldx	#$81
    1010: 86 12        	stx	$12                     ; 0x2012 <main+0x1a31>
    1012: a2 48        	ldx	#$48
    1014: 86 13        	stx	$13                     ; 0x2013 <main+0x1a32>
    1016: 20 55 36     	jsr	$3655 <printf>
    1019: a2 a0        	ldx	#$a0
    101b: 86 30        	stx	$30                     ; 0x2030 <main+0x1a4f>
    101d: a2 01        	ldx	#$1
    101f: 86 4b        	stx	$4b                     ; 0x204b <main+0x1a6a>
    1021: 8e 14 d0     	stx	$d014                   ; 0xd014 <__heap_start+0x86d2>
    1024: 9c 15 d0     	stz	$d015                   ; 0xd015 <__heap_start+0x86d3>
    1027: a2 06        	ldx	#$6
    1029: 86 4c        	stx	$4c                     ; 0x204c <main+0x1a6b>
    102b: 8e 16 d0     	stx	$d016                   ; 0xd016 <__heap_start+0x86d4>
    102e: 9c 17 d0     	stz	$d017                   ; 0xd017 <__heap_start+0x86d5>
    1031: a2 c3        	ldx	#$c3
    1033: 86 12        	stx	$12                     ; 0x2012 <main+0x1a31>
    1035: a2 47        	ldx	#$47
    1037: 86 13        	stx	$13                     ; 0x2013 <main+0x1a32>
    1039: 20 55 36     	jsr	$3655 <printf>
    103c: a2 fa        	ldx	#$fa
    103e: 86 30        	stx	$30                     ; 0x2030 <main+0x1a4f>
    1040: a2 01        	ldx	#$1
    1042: 86 4b        	stx	$4b                     ; 0x204b <main+0x1a6a>
    1044: 8e 14 d0     	stx	$d014                   ; 0xd014 <__heap_start+0x86d2>
    1047: 9c 15 d0     	stz	$d015                   ; 0xd015 <__heap_start+0x86d3>
    104a: a2 08        	ldx	#$8
    104c: 86 4c        	stx	$4c                     ; 0x204c <main+0x1a6b>
    104e: 8e 16 d0     	stx	$d016                   ; 0xd016 <__heap_start+0x86d4>
    1051: 9c 17 d0     	stz	$d017                   ; 0xd017 <__heap_start+0x86d5>
    1054: a2 01        	ldx	#$1
    1056: 86 12        	stx	$12                     ; 0x2012 <main+0x1a31>
    1058: a2 48        	ldx	#$48
    105a: 86 13        	stx	$13                     ; 0x2013 <main+0x1a32>
    105c: 20 55 36     	jsr	$3655 <printf>
    105f: a2 a0        	ldx	#$a0
    1061: 86 30        	stx	$30                     ; 0x2030 <main+0x1a4f>
    1063: a2 01        	ldx	#$1
    1065: 86 4b        	stx	$4b                     ; 0x204b <main+0x1a6a>
    1067: 8e 14 d0     	stx	$d014                   ; 0xd014 <__heap_start+0x86d2>
    106a: 9c 15 d0     	stz	$d015                   ; 0xd015 <__heap_start+0x86d3>
    106d: a2 09        	ldx	#$9
    106f: 86 4c        	stx	$4c                     ; 0x204c <main+0x1a6b>
    1071: 8e 16 d0     	stx	$d016                   ; 0xd016 <__heap_start+0x86d4>
    1074: 9c 17 d0     	stz	$d017                   ; 0xd017 <__heap_start+0x86d5>
    1077: a2 9e        	ldx	#$9e
    1079: 86 12        	stx	$12                     ; 0x2012 <main+0x1a31>
    107b: a2 47        	ldx	#$47
    107d: 86 13        	stx	$13                     ; 0x2013 <main+0x1a32>
    107f: 20 55 36     	jsr	$3655 <printf>
    1082: a2 01        	ldx	#$1
    1084: 86 4b        	stx	$4b                     ; 0x204b <main+0x1a6a>
    1086: 8e 14 d0     	stx	$d014                   ; 0xd014 <__heap_start+0x86d2>
    1089: 9c 15 d0     	stz	$d015                   ; 0xd015 <__heap_start+0x86d3>
    108c: a2 0a        	ldx	#$a
    108e: 86 4c        	stx	$4c                     ; 0x204c <main+0x1a6b>
    1090: 8e 16 d0     	stx	$d016                   ; 0xd016 <__heap_start+0x86d4>
    1093: 9c 17 d0     	stz	$d017                   ; 0xd017 <__heap_start+0x86d5>
    1096: a2 6c        	ldx	#$6c
    1098: 86 12        	stx	$12                     ; 0x2012 <main+0x1a31>
    109a: a2 46        	ldx	#$46
    109c: 86 13        	stx	$13                     ; 0x2013 <main+0x1a32>
    109e: 20 55 36     	jsr	$3655 <printf>
    10a1: a2 01        	ldx	#$1
    10a3: 86 4b        	stx	$4b                     ; 0x204b <main+0x1a6a>
    10a5: 8e 14 d0     	stx	$d014                   ; 0xd014 <__heap_start+0x86d2>
    10a8: 9c 15 d0     	stz	$d015                   ; 0xd015 <__heap_start+0x86d3>
    10ab: a2 0b        	ldx	#$b
    10ad: 86 4c        	stx	$4c                     ; 0x204c <main+0x1a6b>
    10af: 8e 16 d0     	stx	$d016                   ; 0xd016 <__heap_start+0x86d4>
    10b2: 9c 17 d0     	stz	$d017                   ; 0xd017 <__heap_start+0x86d5>
    10b5: a2 41        	ldx	#$41
    10b7: 86 12        	stx	$12                     ; 0x2012 <main+0x1a31>
    10b9: a2 48        	ldx	#$48
    10bb: 86 13        	stx	$13                     ; 0x2013 <main+0x1a32>
    10bd: 20 55 36     	jsr	$3655 <printf>
    10c0: a2 01        	ldx	#$1
    10c2: 86 4b        	stx	$4b                     ; 0x204b <main+0x1a6a>
    10c4: 8e 14 d0     	stx	$d014                   ; 0xd014 <__heap_start+0x86d2>
    10c7: 9c 15 d0     	stz	$d015                   ; 0xd015 <__heap_start+0x86d3>
    10ca: a2 0c        	ldx	#$c
    10cc: 86 4c        	stx	$4c                     ; 0x204c <main+0x1a6b>
    10ce: 8e 16 d0     	stx	$d016                   ; 0xd016 <__heap_start+0x86d4>
    10d1: 9c 17 d0     	stz	$d017                   ; 0xd017 <__heap_start+0x86d5>
    10d4: a2 61        	ldx	#$61
    10d6: 86 12        	stx	$12                     ; 0x2012 <main+0x1a31>
    10d8: a2 48        	ldx	#$48
    10da: 86 13        	stx	$13                     ; 0x2013 <main+0x1a32>
    10dc: 20 55 36     	jsr	$3655 <printf>
    10df: a2 01        	ldx	#$1
    10e1: 86 4b        	stx	$4b                     ; 0x204b <main+0x1a6a>
    10e3: 8e 14 d0     	stx	$d014                   ; 0xd014 <__heap_start+0x86d2>
    10e6: 9c 15 d0     	stz	$d015                   ; 0xd015 <__heap_start+0x86d3>
    10e9: a2 0d        	ldx	#$d
    10eb: 86 4c        	stx	$4c                     ; 0x204c <main+0x1a6b>
    10ed: 8e 16 d0     	stx	$d016                   ; 0xd016 <__heap_start+0x86d4>
    10f0: 9c 17 d0     	stz	$d017                   ; 0xd017 <__heap_start+0x86d5>
    10f3: a2 8c        	ldx	#$8c
    10f5: 86 12        	stx	$12                     ; 0x2012 <main+0x1a31>
    10f7: a2 46        	ldx	#$46
    10f9: 86 13        	stx	$13                     ; 0x2013 <main+0x1a32>
    10fb: 20 55 36     	jsr	$3655 <printf>
    10fe: a2 01        	ldx	#$1
    1100: 86 4b        	stx	$4b                     ; 0x204b <main+0x1a6a>
    1102: 8e 14 d0     	stx	$d014                   ; 0xd014 <__heap_start+0x86d2>
    1105: 9c 15 d0     	stz	$d015                   ; 0xd015 <__heap_start+0x86d3>
    1108: a2 0e        	ldx	#$e
    110a: 86 4c        	stx	$4c                     ; 0x204c <main+0x1a6b>
    110c: 8e 16 d0     	stx	$d016                   ; 0xd016 <__heap_start+0x86d4>
    110f: 9c 17 d0     	stz	$d017                   ; 0xd017 <__heap_start+0x86d5>
    1112: a2 1b        	ldx	#$1b
    1114: 86 12        	stx	$12                     ; 0x2012 <main+0x1a31>
    1116: a2 47        	ldx	#$47
    1118: 86 13        	stx	$13                     ; 0x2013 <main+0x1a32>
    111a: 20 55 36     	jsr	$3655 <printf>
    111d: a2 01        	ldx	#$1
    111f: 86 4b        	stx	$4b                     ; 0x204b <main+0x1a6a>
    1121: 8e 14 d0     	stx	$d014                   ; 0xd014 <__heap_start+0x86d2>
    1124: 9c 15 d0     	stz	$d015                   ; 0xd015 <__heap_start+0x86d3>
    1127: a2 0f        	ldx	#$f
    1129: 86 4c        	stx	$4c                     ; 0x204c <main+0x1a6b>
    112b: 8e 16 d0     	stx	$d016                   ; 0xd016 <__heap_start+0x86d4>
    112e: 9c 17 d0     	stz	$d017                   ; 0xd017 <__heap_start+0x86d5>
    1131: a2 fb        	ldx	#$fb
    1133: 86 12        	stx	$12                     ; 0x2012 <main+0x1a31>
    1135: a2 46        	ldx	#$46
    1137: 86 13        	stx	$13                     ; 0x2013 <main+0x1a32>
    1139: 20 55 36     	jsr	$3655 <printf>
    113c: a2 01        	ldx	#$1
    113e: 86 4b        	stx	$4b                     ; 0x204b <main+0x1a6a>
    1140: 8e 14 d0     	stx	$d014                   ; 0xd014 <__heap_start+0x86d2>
    1143: 9c 15 d0     	stz	$d015                   ; 0xd015 <__heap_start+0x86d3>
    1146: a2 10        	ldx	#$10
    1148: 86 4c        	stx	$4c                     ; 0x204c <main+0x1a6b>
    114a: 8e 16 d0     	stx	$d016                   ; 0xd016 <__heap_start+0x86d4>
    114d: 9c 17 d0     	stz	$d017                   ; 0xd017 <__heap_start+0x86d5>
    1150: a2 3b        	ldx	#$3b
    1152: 86 12        	stx	$12                     ; 0x2012 <main+0x1a31>
    1154: a2 47        	ldx	#$47
    1156: 86 13        	stx	$13                     ; 0x2013 <main+0x1a32>
    1158: 20 55 36     	jsr	$3655 <printf>
    115b: a2 01        	ldx	#$1
    115d: 86 4b        	stx	$4b                     ; 0x204b <main+0x1a6a>
    115f: 8e 14 d0     	stx	$d014                   ; 0xd014 <__heap_start+0x86d2>
    1162: 9c 15 d0     	stz	$d015                   ; 0xd015 <__heap_start+0x86d3>
    1165: a2 11        	ldx	#$11
    1167: 86 4c        	stx	$4c                     ; 0x204c <main+0x1a6b>
    1169: 8e 16 d0     	stx	$d016                   ; 0xd016 <__heap_start+0x86d4>
    116c: 9c 17 d0     	stz	$d017                   ; 0xd017 <__heap_start+0x86d5>
    116f: a2 69        	ldx	#$69
    1171: 86 12        	stx	$12                     ; 0x2012 <main+0x1a31>
    1173: a2 47        	ldx	#$47
    1175: 86 13        	stx	$13                     ; 0x2013 <main+0x1a32>
    1177: 20 55 36     	jsr	$3655 <printf>
    117a: a2 fa        	ldx	#$fa
    117c: 86 30        	stx	$30                     ; 0x2030 <main+0x1a4f>
    117e: a2 01        	ldx	#$1
    1180: 86 4b        	stx	$4b                     ; 0x204b <main+0x1a6a>
    1182: 8e 14 d0     	stx	$d014                   ; 0xd014 <__heap_start+0x86d2>
    1185: 9c 15 d0     	stz	$d015                   ; 0xd015 <__heap_start+0x86d3>
    1188: a2 13        	ldx	#$13
    118a: 86 4c        	stx	$4c                     ; 0x204c <main+0x1a6b>
    118c: 8e 16 d0     	stx	$d016                   ; 0xd016 <__heap_start+0x86d4>
    118f: 9c 17 d0     	stz	$d017                   ; 0xd017 <__heap_start+0x86d5>
    1192: a2 b1        	ldx	#$b1
    1194: 86 12        	stx	$12                     ; 0x2012 <main+0x1a31>
    1196: a2 46        	ldx	#$46
    1198: 86 13        	stx	$13                     ; 0x2013 <main+0x1a32>
    119a: 20 55 36     	jsr	$3655 <printf>
    119d: 20 89 24     	jsr	$2489 <updateValues>
    11a0: a5 4f        	lda	$4f                     ; 0x204f <main+0x1a6e>
    11a2: 29 01        	and	#$1
    11a4: d0 03        	bne	$11a9 <main+0xbc8>
    11a6: 4c 13 12     	jmp	$1213 <main+0xc32>
    11a9: 20 56 03     	jsr	$356 <opl3_initialize>
    11ac: 20 90 04     	jsr	$490 <opl3_setInstrumentAllChannels>
    11af: 78           	sei
    11b0: a2 07        	ldx	#$7
    11b2: 86 0f        	stx	$f                      ; 0x200f <main+0x1a2e>
    11b4: a2 de        	ldx	#$de
    11b6: 8e a2 d6     	stx	$d6a2                   ; 0xd6a2 <__heap_start+0x8d60>
    11b9: a2 ad        	ldx	#$ad
    11bb: 8e a3 d6     	stx	$d6a3                   ; 0xd6a3 <__heap_start+0x8d61>
    11be: a2 f0        	ldx	#$f0
    11c0: 8e a0 d6     	stx	$d6a0                   ; 0xd6a0 <__heap_start+0x8d5e>
    11c3: 9c a0 d6     	stz	$d6a0                   ; 0xd6a0 <__heap_start+0x8d5e>
    11c6: 6c fc ff     	jmp	($fffc)                 ; 0xfffc <__heap_start+0xb6ba>
    11c9: a2 00        	ldx	#$0
    11cb: 8a           	txa
    11cc: 85 20        	sta	$20                     ; 0x2020 <main+0x1a3f>
    11ce: a0 02        	ldy	#$2
    11d0: b1 10        	lda	($10),y                 ; 0x2010 <main+0x1a2f>
    11d2: 85 2f        	sta	$2f                     ; 0x202f <main+0x1a4e>
    11d4: c8           	iny
    11d5: b1 10        	lda	($10),y                 ; 0x2010 <main+0x1a2f>
    11d7: 85 2e        	sta	$2e                     ; 0x202e <main+0x1a4d>
    11d9: c8           	iny
    11da: b1 10        	lda	($10),y                 ; 0x2010 <main+0x1a2f>
    11dc: 85 2d        	sta	$2d                     ; 0x202d <main+0x1a4c>
    11de: c8           	iny
    11df: b1 10        	lda	($10),y                 ; 0x2010 <main+0x1a2f>
    11e1: 85 2c        	sta	$2c                     ; 0x202c <main+0x1a4b>
    11e3: c8           	iny
    11e4: b1 10        	lda	($10),y                 ; 0x2010 <main+0x1a2f>
    11e6: 85 2b        	sta	$2b                     ; 0x202b <main+0x1a4a>
    11e8: c8           	iny
    11e9: b1 10        	lda	($10),y                 ; 0x2010 <main+0x1a2f>
    11eb: 85 2a        	sta	$2a                     ; 0x202a <main+0x1a49>
    11ed: c8           	iny
    11ee: b1 10        	lda	($10),y                 ; 0x2010 <main+0x1a2f>
    11f0: 85 29        	sta	$29                     ; 0x2029 <main+0x1a48>
    11f2: c8           	iny
    11f3: b1 10        	lda	($10),y                 ; 0x2010 <main+0x1a2f>
    11f5: 85 28        	sta	$28                     ; 0x2028 <main+0x1a47>
    11f7: 7a           	ply
    11f8: 84 27        	sty	$27                     ; 0x2027 <main+0x1a46>
    11fa: 7a           	ply
    11fb: 84 26        	sty	$26                     ; 0x2026 <main+0x1a45>
    11fd: 7a           	ply
    11fe: 84 25        	sty	$25                     ; 0x2025 <main+0x1a44>
    1200: 7a           	ply
    1201: 84 24        	sty	$24                     ; 0x2024 <main+0x1a43>
    1203: 18           	clc
    1204: a5 10        	lda	$10                     ; 0x2010 <main+0x1a2f>
    1206: 69 1c        	adc	#$1c
    1208: 85 10        	sta	$10                     ; 0x2010 <main+0x1a2f>
    120a: a5 11        	lda	$11                     ; 0x2011 <main+0x1a30>
    120c: 69 00        	adc	#$0
    120e: 85 11        	sta	$11                     ; 0x2011 <main+0x1a30>
    1210: a5 20        	lda	$20                     ; 0x2020 <main+0x1a3f>
    1212: 60           	rts
    1213: a2 90        	ldx	#$90
    1215: 8a           	txa
    1216: a0 0a        	ldy	#$a
    1218: 91 10        	sta	($10),y                 ; 0x2010 <main+0x1a2f>
    121a: 64 26        	stz	$26                     ; 0x2026 <main+0x1a45>
    121c: 64 25        	stz	$25                     ; 0x2025 <main+0x1a44>
    121e: 64 12        	stz	$12                     ; 0x2012 <main+0x1a31>
    1220: a9 00        	lda	#$0
    1222: a0 0c        	ldy	#$c
    1224: 91 10        	sta	($10),y                 ; 0x2010 <main+0x1a2f>
    1226: a8           	tay
    1227: 5a           	phy
    1228: a0 0d        	ldy	#$d
    122a: 91 10        	sta	($10),y                 ; 0x2010 <main+0x1a2f>
    122c: 7a           	ply
    122d: 80 0e        	bra	$123d <main+0xc5c>
    122f: a2 01        	ldx	#$1
    1231: 8e a6 48     	stx	$48a6                   ; 0x48a6 <shiftTog>
    1234: a5 4f        	lda	$4f                     ; 0x204f <main+0x1a6e>
    1236: 29 01        	and	#$1
    1238: f0 03        	beq	$123d <main+0xc5c>
    123a: 4c a9 11     	jmp	$11a9 <main+0xbc8>
    123d: ad a0 dd     	lda	$dda0                   ; 0xdda0 <__heap_start+0x945e>
    1240: 29 02        	and	#$2
    1242: f0 03        	beq	$1247 <main+0xc66>
    1244: 4c da 1e     	jmp	$1eda <main+0x18f9>
    1247: ae a2 dd     	ldx	$dda2                   ; 0xdda2 <__heap_start+0x9460>
    124a: ad a3 dd     	lda	$dda3                   ; 0xdda3 <__heap_start+0x9461>
    124d: 29 0f        	and	#$f
    124f: d0 07        	bne	$1258 <main+0xc77>
    1251: e0 00        	cpx	#$0
    1253: d0 03        	bne	$1258 <main+0xc77>
    1255: 4c da 1e     	jmp	$1eda <main+0x18f9>
    1258: 85 2d        	sta	$2d                     ; 0x202d <main+0x1a4c>
    125a: 86 27        	stx	$27                     ; 0x2027 <main+0x1a46>
    125c: a6 25        	ldx	$25                     ; 0x2025 <main+0x1a44>
    125e: 98           	tya
    125f: 4c 1b 1c     	jmp	$1c1b <main+0x163a>
    1262: 91 10        	sta	($10),y                 ; 0x2010 <main+0x1a2f>
    1264: a2 d6        	ldx	#$d6
    1266: 86 12        	stx	$12                     ; 0x2012 <main+0x1a31>
    1268: a2 46        	ldx	#$46
    126a: 86 13        	stx	$13                     ; 0x2013 <main+0x1a32>
    126c: 20 55 36     	jsr	$3655 <printf>
    126f: a2 16        	ldx	#$16
    1271: 4c 2e 19     	jmp	$192e <main+0x134d>
    1274: b2 12        	lda	($12)                   ; 0x2012 <main+0x1a31>
    1276: 92 10        	sta	($10)                   ; 0x2010 <main+0x1a2f>
    1278: a0 01        	ldy	#$1
    127a: a9 00        	lda	#$0
    127c: 91 10        	sta	($10),y                 ; 0x2010 <main+0x1a2f>
    127e: a2 d6        	ldx	#$d6
    1280: 86 12        	stx	$12                     ; 0x2012 <main+0x1a31>
    1282: a2 46        	ldx	#$46
    1284: 4c 27 19     	jmp	$1927 <main+0x1346>
    1287: a6 40        	ldx	$40                     ; 0x2040 <main+0x1a5f>
    1289: f0 14        	beq	$129f <main+0xcbe>
    128b: a6 41        	ldx	$41                     ; 0x2041 <main+0x1a60>
    128d: f0 15        	beq	$12a4 <main+0xcc3>
    128f: a6 42        	ldx	$42                     ; 0x2042 <main+0x1a61>
    1291: f0 16        	beq	$12a9 <main+0xcc8>
    1293: a6 43        	ldx	$43                     ; 0x2043 <main+0x1a62>
    1295: f0 03        	beq	$129a <main+0xcb9>
    1297: 4c d2 1b     	jmp	$1bd2 <main+0x15f1>
    129a: a2 11        	ldx	#$11
    129c: 4c f3 1b     	jmp	$1bf3 <main+0x1612>
    129f: a2 0e        	ldx	#$e
    12a1: 4c f3 1b     	jmp	$1bf3 <main+0x1612>
    12a4: a2 0f        	ldx	#$f
    12a6: 4c f3 1b     	jmp	$1bf3 <main+0x1612>
    12a9: a2 10        	ldx	#$10
    12ab: 4c f3 1b     	jmp	$1bf3 <main+0x1612>
    12ae: a2 0c        	ldx	#$c
    12b0: 4c f3 1b     	jmp	$1bf3 <main+0x1612>
    12b3: a2 0d        	ldx	#$d
    12b5: 4c f3 1b     	jmp	$1bf3 <main+0x1612>
    12b8: a6 50        	ldx	$50                     ; 0x2050 <main+0x1a6f>
    12ba: 86 12        	stx	$12                     ; 0x2012 <main+0x1a31>
    12bc: 64 14        	stz	$14                     ; 0x2014 <main+0x1a33>
    12be: 8a           	txa
    12bf: 0a           	asl
    12c0: 26 14        	rol	$14                     ; 0x2014 <main+0x1a33>
    12c2: 0a           	asl
    12c3: 26 14        	rol	$14                     ; 0x2014 <main+0x1a33>
    12c5: 0a           	asl
    12c6: 26 14        	rol	$14                     ; 0x2014 <main+0x1a33>
    12c8: 38           	sec
    12c9: e5 12        	sbc	$12                     ; 0x2012 <main+0x1a31>
    12cb: 85 16        	sta	$16                     ; 0x2016 <main+0x1a35>
    12cd: 85 13        	sta	$13                     ; 0x2013 <main+0x1a32>
    12cf: a5 14        	lda	$14                     ; 0x2014 <main+0x1a33>
    12d1: e9 00        	sbc	#$0
    12d3: a8           	tay
    12d4: 85 14        	sta	$14                     ; 0x2014 <main+0x1a33>
    12d6: a9 a7        	lda	#$a7
    12d8: 18           	clc
    12d9: 65 13        	adc	$13                     ; 0x2013 <main+0x1a32>
    12db: aa           	tax
    12dc: a9 48        	lda	#$48
    12de: 65 14        	adc	$14                     ; 0x2014 <main+0x1a33>
    12e0: 86 14        	stx	$14                     ; 0x2014 <main+0x1a33>
    12e2: 85 15        	sta	$15                     ; 0x2015 <main+0x1a34>
    12e4: a9 0e        	lda	#$e
    12e6: 4c 17 1a     	jmp	$1a17 <main+0x1436>
    12e9: a6 50        	ldx	$50                     ; 0x2050 <main+0x1a6f>
    12eb: 86 12        	stx	$12                     ; 0x2012 <main+0x1a31>
    12ed: 64 14        	stz	$14                     ; 0x2014 <main+0x1a33>
    12ef: 8a           	txa
    12f0: 0a           	asl
    12f1: 26 14        	rol	$14                     ; 0x2014 <main+0x1a33>
    12f3: 0a           	asl
    12f4: 26 14        	rol	$14                     ; 0x2014 <main+0x1a33>
    12f6: 0a           	asl
    12f7: 26 14        	rol	$14                     ; 0x2014 <main+0x1a33>
    12f9: 38           	sec
    12fa: e5 12        	sbc	$12                     ; 0x2012 <main+0x1a31>
    12fc: 85 16        	sta	$16                     ; 0x2016 <main+0x1a35>
    12fe: 85 13        	sta	$13                     ; 0x2013 <main+0x1a32>
    1300: a5 14        	lda	$14                     ; 0x2014 <main+0x1a33>
    1302: e9 00        	sbc	#$0
    1304: a8           	tay
    1305: 85 14        	sta	$14                     ; 0x2014 <main+0x1a33>
    1307: a9 a7        	lda	#$a7
    1309: 18           	clc
    130a: 65 13        	adc	$13                     ; 0x2013 <main+0x1a32>
    130c: aa           	tax
    130d: a9 48        	lda	#$48
    130f: 65 14        	adc	$14                     ; 0x2014 <main+0x1a33>
    1311: 86 14        	stx	$14                     ; 0x2014 <main+0x1a33>
    1313: 85 15        	sta	$15                     ; 0x2015 <main+0x1a34>
    1315: a9 0a        	lda	#$a
    1317: 4c 17 1a     	jmp	$1a17 <main+0x1436>
    131a: a6 50        	ldx	$50                     ; 0x2050 <main+0x1a6f>
    131c: 86 12        	stx	$12                     ; 0x2012 <main+0x1a31>
    131e: 64 14        	stz	$14                     ; 0x2014 <main+0x1a33>
    1320: 8a           	txa
    1321: 0a           	asl
    1322: 26 14        	rol	$14                     ; 0x2014 <main+0x1a33>
    1324: 0a           	asl
    1325: 26 14        	rol	$14                     ; 0x2014 <main+0x1a33>
    1327: 0a           	asl
    1328: 26 14        	rol	$14                     ; 0x2014 <main+0x1a33>
    132a: 38           	sec
    132b: e5 12        	sbc	$12                     ; 0x2012 <main+0x1a31>
    132d: 85 16        	sta	$16                     ; 0x2016 <main+0x1a35>
    132f: 85 13        	sta	$13                     ; 0x2013 <main+0x1a32>
    1331: a5 14        	lda	$14                     ; 0x2014 <main+0x1a33>
    1333: e9 00        	sbc	#$0
    1335: a8           	tay
    1336: 85 14        	sta	$14                     ; 0x2014 <main+0x1a33>
    1338: a9 a7        	lda	#$a7
    133a: 18           	clc
    133b: 65 13        	adc	$13                     ; 0x2013 <main+0x1a32>
    133d: aa           	tax
    133e: a9 48        	lda	#$48
    1340: 65 14        	adc	$14                     ; 0x2014 <main+0x1a33>
    1342: 86 14        	stx	$14                     ; 0x2014 <main+0x1a33>
    1344: 85 15        	sta	$15                     ; 0x2015 <main+0x1a34>
    1346: a9 09        	lda	#$9
    1348: 4c 17 1a     	jmp	$1a17 <main+0x1436>
    134b: a5 50        	lda	$50                     ; 0x2050 <main+0x1a6f>
    134d: 64 13        	stz	$13                     ; 0x2013 <main+0x1a32>
    134f: 0a           	asl
    1350: 26 13        	rol	$13                     ; 0x2013 <main+0x1a32>
    1352: 0a           	asl
    1353: 26 13        	rol	$13                     ; 0x2013 <main+0x1a32>
    1355: 0a           	asl
    1356: 26 13        	rol	$13                     ; 0x2013 <main+0x1a32>
    1358: 38           	sec
    1359: e5 50        	sbc	$50                     ; 0x2050 <main+0x1a6f>
    135b: 85 12        	sta	$12                     ; 0x2012 <main+0x1a31>
    135d: a5 13        	lda	$13                     ; 0x2013 <main+0x1a32>
    135f: e9 00        	sbc	#$0
    1361: 85 13        	sta	$13                     ; 0x2013 <main+0x1a32>
    1363: a9 a7        	lda	#$a7
    1365: 18           	clc
    1366: 65 12        	adc	$12                     ; 0x2012 <main+0x1a31>
    1368: 85 12        	sta	$12                     ; 0x2012 <main+0x1a31>
    136a: a9 48        	lda	#$48
    136c: 65 13        	adc	$13                     ; 0x2013 <main+0x1a32>
    136e: 85 13        	sta	$13                     ; 0x2013 <main+0x1a32>
    1370: a9 06        	lda	#$6
    1372: 4c b4 19     	jmp	$19b4 <main+0x13d3>
    1375: a6 50        	ldx	$50                     ; 0x2050 <main+0x1a6f>
    1377: 86 12        	stx	$12                     ; 0x2012 <main+0x1a31>
    1379: 64 14        	stz	$14                     ; 0x2014 <main+0x1a33>
    137b: 8a           	txa
    137c: 0a           	asl
    137d: 26 14        	rol	$14                     ; 0x2014 <main+0x1a33>
    137f: 0a           	asl
    1380: 26 14        	rol	$14                     ; 0x2014 <main+0x1a33>
    1382: 0a           	asl
    1383: 26 14        	rol	$14                     ; 0x2014 <main+0x1a33>
    1385: 38           	sec
    1386: e5 12        	sbc	$12                     ; 0x2012 <main+0x1a31>
    1388: 85 16        	sta	$16                     ; 0x2016 <main+0x1a35>
    138a: 85 13        	sta	$13                     ; 0x2013 <main+0x1a32>
    138c: a5 14        	lda	$14                     ; 0x2014 <main+0x1a33>
    138e: e9 00        	sbc	#$0
    1390: a8           	tay
    1391: 85 14        	sta	$14                     ; 0x2014 <main+0x1a33>
    1393: a9 a7        	lda	#$a7
    1395: 18           	clc
    1396: 65 13        	adc	$13                     ; 0x2013 <main+0x1a32>
    1398: aa           	tax
    1399: a9 48        	lda	#$48
    139b: 65 14        	adc	$14                     ; 0x2014 <main+0x1a33>
    139d: 86 14        	stx	$14                     ; 0x2014 <main+0x1a33>
    139f: 85 15        	sta	$15                     ; 0x2015 <main+0x1a34>
    13a1: a9 0b        	lda	#$b
    13a3: 4c 17 1a     	jmp	$1a17 <main+0x1436>
    13a6: a5 50        	lda	$50                     ; 0x2050 <main+0x1a6f>
    13a8: 64 13        	stz	$13                     ; 0x2013 <main+0x1a32>
    13aa: 0a           	asl
    13ab: 26 13        	rol	$13                     ; 0x2013 <main+0x1a32>
    13ad: 0a           	asl
    13ae: 26 13        	rol	$13                     ; 0x2013 <main+0x1a32>
    13b0: 0a           	asl
    13b1: 26 13        	rol	$13                     ; 0x2013 <main+0x1a32>
    13b3: 38           	sec
    13b4: e5 50        	sbc	$50                     ; 0x2050 <main+0x1a6f>
    13b6: 85 12        	sta	$12                     ; 0x2012 <main+0x1a31>
    13b8: a5 13        	lda	$13                     ; 0x2013 <main+0x1a32>
    13ba: e9 00        	sbc	#$0
    13bc: 85 13        	sta	$13                     ; 0x2013 <main+0x1a32>
    13be: a9 a7        	lda	#$a7
    13c0: 18           	clc
    13c1: 65 12        	adc	$12                     ; 0x2012 <main+0x1a31>
    13c3: 85 12        	sta	$12                     ; 0x2012 <main+0x1a31>
    13c5: a9 48        	lda	#$48
    13c7: 65 13        	adc	$13                     ; 0x2013 <main+0x1a32>
    13c9: 85 13        	sta	$13                     ; 0x2013 <main+0x1a32>
    13cb: a9 07        	lda	#$7
    13cd: 4c b4 19     	jmp	$19b4 <main+0x13d3>
    13d0: a5 50        	lda	$50                     ; 0x2050 <main+0x1a6f>
    13d2: 64 13        	stz	$13                     ; 0x2013 <main+0x1a32>
    13d4: 0a           	asl
    13d5: 26 13        	rol	$13                     ; 0x2013 <main+0x1a32>
    13d7: 0a           	asl
    13d8: 26 13        	rol	$13                     ; 0x2013 <main+0x1a32>
    13da: 0a           	asl
    13db: 26 13        	rol	$13                     ; 0x2013 <main+0x1a32>
    13dd: 38           	sec
    13de: e5 50        	sbc	$50                     ; 0x2050 <main+0x1a6f>
    13e0: 85 12        	sta	$12                     ; 0x2012 <main+0x1a31>
    13e2: a5 13        	lda	$13                     ; 0x2013 <main+0x1a32>
    13e4: e9 00        	sbc	#$0
    13e6: 85 13        	sta	$13                     ; 0x2013 <main+0x1a32>
    13e8: a9 a7        	lda	#$a7
    13ea: 18           	clc
    13eb: 65 12        	adc	$12                     ; 0x2012 <main+0x1a31>
    13ed: 85 12        	sta	$12                     ; 0x2012 <main+0x1a31>
    13ef: a9 48        	lda	#$48
    13f1: 65 13        	adc	$13                     ; 0x2013 <main+0x1a32>
    13f3: 85 13        	sta	$13                     ; 0x2013 <main+0x1a32>
    13f5: a9 05        	lda	#$5
    13f7: 4c b4 19     	jmp	$19b4 <main+0x13d3>
    13fa: a6 50        	ldx	$50                     ; 0x2050 <main+0x1a6f>
    13fc: e0 16        	cpx	#$16
    13fe: f0 03        	beq	$1403 <main+0xe22>
    1400: 4c 6a 14     	jmp	$146a <main+0xe89>
    1403: a2 30        	ldx	#$30
    1405: 86 30        	stx	$30                     ; 0x2030 <main+0x1a4f>
    1407: ae 46 49     	ldx	$4946                   ; 0x4946 <__heap_start+0x4>
    140a: ac 47 49     	ldy	$4947                   ; 0x4947 <__heap_start+0x5>
    140d: 86 4b        	stx	$4b                     ; 0x204b <main+0x1a6a>
    140f: 8e 14 d0     	stx	$d014                   ; 0xd014 <__heap_start+0x86d2>
    1412: 9c 15 d0     	stz	$d015                   ; 0xd015 <__heap_start+0x86d3>
    1415: 84 4c        	sty	$4c                     ; 0x204c <main+0x1a6b>
    1417: 8c 16 d0     	sty	$d016                   ; 0xd016 <__heap_start+0x86d4>
    141a: 9c 17 d0     	stz	$d017                   ; 0xd017 <__heap_start+0x86d5>
    141d: ad 41 49     	lda	$4941                   ; 0x4941 <end_block9>
    1420: 92 10        	sta	($10)                   ; 0x2010 <main+0x1a2f>
    1422: a0 01        	ldy	#$1
    1424: a9 00        	lda	#$0
    1426: 91 10        	sta	($10),y                 ; 0x2010 <main+0x1a2f>
    1428: a2 d6        	ldx	#$d6
    142a: 86 12        	stx	$12                     ; 0x2012 <main+0x1a31>
    142c: a2 46        	ldx	#$46
    142e: 86 13        	stx	$13                     ; 0x2013 <main+0x1a32>
    1430: 20 55 36     	jsr	$3655 <printf>
    1433: a2 f3        	ldx	#$f3
    1435: 86 30        	stx	$30                     ; 0x2030 <main+0x1a4f>
    1437: ae ac 48     	ldx	$48ac                   ; 0x48ac <opl3_fields+0x5>
    143a: ac ad 48     	ldy	$48ad                   ; 0x48ad <opl3_fields+0x6>
    143d: 86 4b        	stx	$4b                     ; 0x204b <main+0x1a6a>
    143f: 8e 14 d0     	stx	$d014                   ; 0xd014 <__heap_start+0x86d2>
    1442: 9c 15 d0     	stz	$d015                   ; 0xd015 <__heap_start+0x86d3>
    1445: 84 4c        	sty	$4c                     ; 0x204c <main+0x1a6b>
    1447: 8c 16 d0     	sty	$d016                   ; 0xd016 <__heap_start+0x86d4>
    144a: 9c 17 d0     	stz	$d017                   ; 0xd017 <__heap_start+0x86d5>
    144d: ad a7 48     	lda	$48a7                   ; 0x48a7 <opl3_fields>
    1450: 92 10        	sta	($10)                   ; 0x2010 <main+0x1a2f>
    1452: a0 01        	ldy	#$1
    1454: a9 00        	lda	#$0
    1456: 91 10        	sta	($10),y                 ; 0x2010 <main+0x1a2f>
    1458: a2 d6        	ldx	#$d6
    145a: 86 12        	stx	$12                     ; 0x2012 <main+0x1a31>
    145c: a2 46        	ldx	#$46
    145e: 86 13        	stx	$13                     ; 0x2013 <main+0x1a32>
    1460: 20 55 36     	jsr	$3655 <printf>
    1463: a4 27        	ldy	$27                     ; 0x2027 <main+0x1a46>
    1465: 64 50        	stz	$50                     ; 0x2050 <main+0x1a6f>
    1467: 4c 34 12     	jmp	$1234 <main+0xc53>
    146a: 86 12        	stx	$12                     ; 0x2012 <main+0x1a31>
    146c: a9 0f        	lda	#$f
    146e: 3d 4f 46     	and	$464f,x                 ; 0x464f <navWSJumps>
    1471: 18           	clc
    1472: 65 12        	adc	$12                     ; 0x2012 <main+0x1a31>
    1474: c9 17        	cmp	#$17
    1476: 90 03        	bcc	$147b <main+0xe9a>
    1478: 4c 55 21     	jmp	$2155 <main+0x1b74>
    147b: a2 30        	ldx	#$30
    147d: 86 30        	stx	$30                     ; 0x2030 <main+0x1a4f>
    147f: 85 24        	sta	$24                     ; 0x2024 <main+0x1a43>
    1481: a5 12        	lda	$12                     ; 0x2012 <main+0x1a31>
    1483: 0a           	asl
    1484: aa           	tax
    1485: a9 00        	lda	#$0
    1487: 2a           	rol
    1488: 86 13        	stx	$13                     ; 0x2013 <main+0x1a32>
    148a: 06 13        	asl	$13                     ; 0x2013 <main+0x1a32>
    148c: 2a           	rol
    148d: 06 13        	asl	$13                     ; 0x2013 <main+0x1a32>
    148f: 2a           	rol
    1490: aa           	tax
    1491: 38           	sec
    1492: a5 13        	lda	$13                     ; 0x2013 <main+0x1a32>
    1494: e5 12        	sbc	$12                     ; 0x2012 <main+0x1a31>
    1496: 85 12        	sta	$12                     ; 0x2012 <main+0x1a31>
    1498: 8a           	txa
    1499: e9 00        	sbc	#$0
    149b: 85 13        	sta	$13                     ; 0x2013 <main+0x1a32>
    149d: a9 a7        	lda	#$a7
    149f: 18           	clc
    14a0: 65 12        	adc	$12                     ; 0x2012 <main+0x1a31>
    14a2: 85 12        	sta	$12                     ; 0x2012 <main+0x1a31>
    14a4: a9 48        	lda	#$48
    14a6: 65 13        	adc	$13                     ; 0x2013 <main+0x1a32>
    14a8: 85 13        	sta	$13                     ; 0x2013 <main+0x1a32>
    14aa: a0 05        	ldy	#$5
    14ac: b1 12        	lda	($12),y                 ; 0x2012 <main+0x1a31>
    14ae: 85 14        	sta	$14                     ; 0x2014 <main+0x1a33>
    14b0: c8           	iny
    14b1: b1 12        	lda	($12),y                 ; 0x2012 <main+0x1a31>
    14b3: a4 14        	ldy	$14                     ; 0x2014 <main+0x1a33>
    14b5: 84 4b        	sty	$4b                     ; 0x204b <main+0x1a6a>
    14b7: 8c 14 d0     	sty	$d014                   ; 0xd014 <__heap_start+0x86d2>
    14ba: 9c 15 d0     	stz	$d015                   ; 0xd015 <__heap_start+0x86d3>
    14bd: 85 4c        	sta	$4c                     ; 0x204c <main+0x1a6b>
    14bf: 8d 16 d0     	sta	$d016                   ; 0xd016 <__heap_start+0x86d4>
    14c2: 9c 17 d0     	stz	$d017                   ; 0xd017 <__heap_start+0x86d5>
    14c5: b2 12        	lda	($12)                   ; 0x2012 <main+0x1a31>
    14c7: 92 10        	sta	($10)                   ; 0x2010 <main+0x1a2f>
    14c9: a0 01        	ldy	#$1
    14cb: 4c c0 18     	jmp	$18c0 <main+0x12df>
    14ce: a6 50        	ldx	$50                     ; 0x2050 <main+0x1a6f>
    14d0: 86 12        	stx	$12                     ; 0x2012 <main+0x1a31>
    14d2: d0 03        	bne	$14d7 <main+0xef6>
    14d4: 4c 31 20     	jmp	$2031 <main+0x1a50>
    14d7: 64 13        	stz	$13                     ; 0x2013 <main+0x1a32>
    14d9: a5 12        	lda	$12                     ; 0x2012 <main+0x1a31>
    14db: 0a           	asl
    14dc: 64 15        	stz	$15                     ; 0x2015 <main+0x1a34>
    14de: 26 15        	rol	$15                     ; 0x2015 <main+0x1a34>
    14e0: 0a           	asl
    14e1: 26 15        	rol	$15                     ; 0x2015 <main+0x1a34>
    14e3: 0a           	asl
    14e4: 26 15        	rol	$15                     ; 0x2015 <main+0x1a34>
    14e6: 38           	sec
    14e7: e5 12        	sbc	$12                     ; 0x2012 <main+0x1a31>
    14e9: 85 14        	sta	$14                     ; 0x2014 <main+0x1a33>
    14eb: a5 15        	lda	$15                     ; 0x2015 <main+0x1a34>
    14ed: e9 00        	sbc	#$0
    14ef: 85 15        	sta	$15                     ; 0x2015 <main+0x1a34>
    14f1: a9 a7        	lda	#$a7
    14f3: 18           	clc
    14f4: 65 14        	adc	$14                     ; 0x2014 <main+0x1a33>
    14f6: 85 14        	sta	$14                     ; 0x2014 <main+0x1a33>
    14f8: a9 48        	lda	#$48
    14fa: 65 15        	adc	$15                     ; 0x2015 <main+0x1a34>
    14fc: 85 15        	sta	$15                     ; 0x2015 <main+0x1a34>
    14fe: b2 14        	lda	($14)                   ; 0x2014 <main+0x1a33>
    1500: d0 03        	bne	$1505 <main+0xf24>
    1502: 4c ad 20     	jmp	$20ad <main+0x1acc>
    1505: 3a           	dec
    1506: 92 14        	sta	($14)                   ; 0x2014 <main+0x1a33>
    1508: a5 12        	lda	$12                     ; 0x2012 <main+0x1a31>
    150a: 0a           	asl
    150b: 64 14        	stz	$14                     ; 0x2014 <main+0x1a33>
    150d: 26 14        	rol	$14                     ; 0x2014 <main+0x1a33>
    150f: 0a           	asl
    1510: 26 14        	rol	$14                     ; 0x2014 <main+0x1a33>
    1512: 0a           	asl
    1513: 26 14        	rol	$14                     ; 0x2014 <main+0x1a33>
    1515: 38           	sec
    1516: e5 12        	sbc	$12                     ; 0x2012 <main+0x1a31>
    1518: 85 12        	sta	$12                     ; 0x2012 <main+0x1a31>
    151a: a5 14        	lda	$14                     ; 0x2014 <main+0x1a33>
    151c: e5 13        	sbc	$13                     ; 0x2013 <main+0x1a32>
    151e: 80 4b        	bra	$156b <main+0xf8a>
    1520: a6 50        	ldx	$50                     ; 0x2050 <main+0x1a6f>
    1522: 86 12        	stx	$12                     ; 0x2012 <main+0x1a31>
    1524: 64 14        	stz	$14                     ; 0x2014 <main+0x1a33>
    1526: 8a           	txa
    1527: 0a           	asl
    1528: 26 14        	rol	$14                     ; 0x2014 <main+0x1a33>
    152a: 0a           	asl
    152b: 26 14        	rol	$14                     ; 0x2014 <main+0x1a33>
    152d: 0a           	asl
    152e: 26 14        	rol	$14                     ; 0x2014 <main+0x1a33>
    1530: 38           	sec
    1531: 85 16        	sta	$16                     ; 0x2016 <main+0x1a35>
    1533: e5 12        	sbc	$12                     ; 0x2012 <main+0x1a31>
    1535: 85 13        	sta	$13                     ; 0x2013 <main+0x1a32>
    1537: a4 14        	ldy	$14                     ; 0x2014 <main+0x1a33>
    1539: a5 14        	lda	$14                     ; 0x2014 <main+0x1a33>
    153b: e9 00        	sbc	#$0
    153d: 85 14        	sta	$14                     ; 0x2014 <main+0x1a33>
    153f: a9 a7        	lda	#$a7
    1541: 18           	clc
    1542: 65 13        	adc	$13                     ; 0x2013 <main+0x1a32>
    1544: aa           	tax
    1545: a9 48        	lda	#$48
    1547: 65 14        	adc	$14                     ; 0x2014 <main+0x1a33>
    1549: 86 14        	stx	$14                     ; 0x2014 <main+0x1a33>
    154b: 85 15        	sta	$15                     ; 0x2015 <main+0x1a34>
    154d: b2 14        	lda	($14)                   ; 0x2014 <main+0x1a33>
    154f: 1a           	inc
    1550: 92 14        	sta	($14)                   ; 0x2014 <main+0x1a33>
    1552: a6 12        	ldx	$12                     ; 0x2012 <main+0x1a31>
    1554: d0 03        	bne	$1559 <main+0xf78>
    1556: 4c 45 20     	jmp	$2045 <main+0x1a64>
    1559: c9 10        	cmp	#$10
    155b: 90 04        	bcc	$1561 <main+0xf80>
    155d: a9 00        	lda	#$0
    155f: 92 14        	sta	($14)                   ; 0x2014 <main+0x1a33>
    1561: 38           	sec
    1562: a5 16        	lda	$16                     ; 0x2016 <main+0x1a35>
    1564: e5 12        	sbc	$12                     ; 0x2012 <main+0x1a31>
    1566: 85 12        	sta	$12                     ; 0x2012 <main+0x1a31>
    1568: 98           	tya
    1569: e9 00        	sbc	#$0
    156b: 85 13        	sta	$13                     ; 0x2013 <main+0x1a32>
    156d: a9 a7        	lda	#$a7
    156f: 18           	clc
    1570: 65 12        	adc	$12                     ; 0x2012 <main+0x1a31>
    1572: 4c 29 1a     	jmp	$1a29 <main+0x1448>
    1575: a6 50        	ldx	$50                     ; 0x2050 <main+0x1a6f>
    1577: 86 12        	stx	$12                     ; 0x2012 <main+0x1a31>
    1579: bd 4f 46     	lda	$464f,x                 ; 0x464f <navWSJumps>
    157c: 4a           	lsr
    157d: 4a           	lsr
    157e: 4a           	lsr
    157f: 4a           	lsr
    1580: 85 13        	sta	$13                     ; 0x2013 <main+0x1a32>
    1582: 38           	sec
    1583: 8a           	txa
    1584: e5 13        	sbc	$13                     ; 0x2013 <main+0x1a32>
    1586: c9 17        	cmp	#$17
    1588: 90 03        	bcc	$158d <main+0xfac>
    158a: 18           	clc
    158b: 69 17        	adc	#$17
    158d: 85 24        	sta	$24                     ; 0x2024 <main+0x1a43>
    158f: a2 30        	ldx	#$30
    1591: 86 30        	stx	$30                     ; 0x2030 <main+0x1a4f>
    1593: a5 12        	lda	$12                     ; 0x2012 <main+0x1a31>
    1595: 0a           	asl
    1596: 64 13        	stz	$13                     ; 0x2013 <main+0x1a32>
    1598: 26 13        	rol	$13                     ; 0x2013 <main+0x1a32>
    159a: 0a           	asl
    159b: 26 13        	rol	$13                     ; 0x2013 <main+0x1a32>
    159d: 0a           	asl
    159e: 26 13        	rol	$13                     ; 0x2013 <main+0x1a32>
    15a0: 38           	sec
    15a1: e5 12        	sbc	$12                     ; 0x2012 <main+0x1a31>
    15a3: 85 12        	sta	$12                     ; 0x2012 <main+0x1a31>
    15a5: a5 13        	lda	$13                     ; 0x2013 <main+0x1a32>
    15a7: e9 00        	sbc	#$0
    15a9: 85 13        	sta	$13                     ; 0x2013 <main+0x1a32>
    15ab: a9 a7        	lda	#$a7
    15ad: 18           	clc
    15ae: 65 12        	adc	$12                     ; 0x2012 <main+0x1a31>
    15b0: 85 12        	sta	$12                     ; 0x2012 <main+0x1a31>
    15b2: a9 48        	lda	#$48
    15b4: 65 13        	adc	$13                     ; 0x2013 <main+0x1a32>
    15b6: 85 13        	sta	$13                     ; 0x2013 <main+0x1a32>
    15b8: a0 05        	ldy	#$5
    15ba: b1 12        	lda	($12),y                 ; 0x2012 <main+0x1a31>
    15bc: 85 14        	sta	$14                     ; 0x2014 <main+0x1a33>
    15be: c8           	iny
    15bf: b1 12        	lda	($12),y                 ; 0x2012 <main+0x1a31>
    15c1: a4 14        	ldy	$14                     ; 0x2014 <main+0x1a33>
    15c3: 84 4b        	sty	$4b                     ; 0x204b <main+0x1a6a>
    15c5: 8c 14 d0     	sty	$d014                   ; 0xd014 <__heap_start+0x86d2>
    15c8: a0 01        	ldy	#$1
    15ca: 9c 15 d0     	stz	$d015                   ; 0xd015 <__heap_start+0x86d3>
    15cd: 85 4c        	sta	$4c                     ; 0x204c <main+0x1a6b>
    15cf: 8d 16 d0     	sta	$d016                   ; 0xd016 <__heap_start+0x86d4>
    15d2: 9c 17 d0     	stz	$d017                   ; 0xd017 <__heap_start+0x86d5>
    15d5: b2 12        	lda	($12)                   ; 0x2012 <main+0x1a31>
    15d7: 92 10        	sta	($10)                   ; 0x2010 <main+0x1a2f>
    15d9: a9 00        	lda	#$0
    15db: 91 10        	sta	($10),y                 ; 0x2010 <main+0x1a2f>
    15dd: a2 d6        	ldx	#$d6
    15df: 86 12        	stx	$12                     ; 0x2012 <main+0x1a31>
    15e1: a2 46        	ldx	#$46
    15e3: 86 13        	stx	$13                     ; 0x2013 <main+0x1a32>
    15e5: 20 55 36     	jsr	$3655 <printf>
    15e8: a2 f3        	ldx	#$f3
    15ea: 86 30        	stx	$30                     ; 0x2030 <main+0x1a4f>
    15ec: a5 24        	lda	$24                     ; 0x2024 <main+0x1a43>
    15ee: a6 24        	ldx	$24                     ; 0x2024 <main+0x1a43>
    15f0: 4c d7 18     	jmp	$18d7 <main+0x12f6>
    15f3: ad a6 48     	lda	$48a6                   ; 0x48a6 <shiftTog>
    15f6: 29 01        	and	#$1
    15f8: 85 13        	sta	$13                     ; 0x2013 <main+0x1a32>
    15fa: a6 50        	ldx	$50                     ; 0x2050 <main+0x1a6f>
    15fc: 86 24        	stx	$24                     ; 0x2024 <main+0x1a43>
    15fe: 64 12        	stz	$12                     ; 0x2012 <main+0x1a31>
    1600: 8a           	txa
    1601: 0a           	asl
    1602: 26 12        	rol	$12                     ; 0x2012 <main+0x1a31>
    1604: 0a           	asl
    1605: 26 12        	rol	$12                     ; 0x2012 <main+0x1a31>
    1607: 0a           	asl
    1608: 26 12        	rol	$12                     ; 0x2012 <main+0x1a31>
    160a: a4 12        	ldy	$12                     ; 0x2012 <main+0x1a31>
    160c: e6 13        	inc	$13                     ; 0x2013 <main+0x1a32>
    160e: c6 13        	dec	$13                     ; 0x2013 <main+0x1a32>
    1610: f0 0c        	beq	$161e <main+0x103d>
    1612: e6 24        	inc	$24                     ; 0x2024 <main+0x1a43>
    1614: c6 24        	dec	$24                     ; 0x2024 <main+0x1a43>
    1616: f0 03        	beq	$161b <main+0x103a>
    1618: 4c b2 20     	jmp	$20b2 <main+0x1ad1>
    161b: 4c 45 22     	jmp	$2245 <main+0x1c64>
    161e: e0 16        	cpx	#$16
    1620: f0 03        	beq	$1625 <main+0x1044>
    1622: 4c b1 21     	jmp	$21b1 <main+0x1bd0>
    1625: 4c 5a 21     	jmp	$215a <main+0x1b79>
    1628: a6 50        	ldx	$50                     ; 0x2050 <main+0x1a6f>
    162a: d0 03        	bne	$162f <main+0x104e>
    162c: 4c 57 20     	jmp	$2057 <main+0x1a76>
    162f: 86 12        	stx	$12                     ; 0x2012 <main+0x1a31>
    1631: ca           	dex
    1632: 4c 74 18     	jmp	$1874 <main+0x1293>
    1635: a5 50        	lda	$50                     ; 0x2050 <main+0x1a6f>
    1637: 64 13        	stz	$13                     ; 0x2013 <main+0x1a32>
    1639: 0a           	asl
    163a: 26 13        	rol	$13                     ; 0x2013 <main+0x1a32>
    163c: 0a           	asl
    163d: 26 13        	rol	$13                     ; 0x2013 <main+0x1a32>
    163f: 0a           	asl
    1640: 26 13        	rol	$13                     ; 0x2013 <main+0x1a32>
    1642: 38           	sec
    1643: e5 50        	sbc	$50                     ; 0x2050 <main+0x1a6f>
    1645: 85 12        	sta	$12                     ; 0x2012 <main+0x1a31>
    1647: a5 13        	lda	$13                     ; 0x2013 <main+0x1a32>
    1649: e9 00        	sbc	#$0
    164b: 85 13        	sta	$13                     ; 0x2013 <main+0x1a32>
    164d: a9 a7        	lda	#$a7
    164f: 18           	clc
    1650: 65 12        	adc	$12                     ; 0x2012 <main+0x1a31>
    1652: 85 12        	sta	$12                     ; 0x2012 <main+0x1a31>
    1654: a9 48        	lda	#$48
    1656: 65 13        	adc	$13                     ; 0x2013 <main+0x1a32>
    1658: 85 13        	sta	$13                     ; 0x2013 <main+0x1a32>
    165a: a9 04        	lda	#$4
    165c: 4c b4 19     	jmp	$19b4 <main+0x13d3>
    165f: a5 50        	lda	$50                     ; 0x2050 <main+0x1a6f>
    1661: 0a           	asl
    1662: aa           	tax
    1663: a9 00        	lda	#$0
    1665: 2a           	rol
    1666: 86 12        	stx	$12                     ; 0x2012 <main+0x1a31>
    1668: 06 12        	asl	$12                     ; 0x2012 <main+0x1a31>
    166a: 2a           	rol
    166b: 06 12        	asl	$12                     ; 0x2012 <main+0x1a31>
    166d: 2a           	rol
    166e: aa           	tax
    166f: 38           	sec
    1670: a5 12        	lda	$12                     ; 0x2012 <main+0x1a31>
    1672: e5 50        	sbc	$50                     ; 0x2050 <main+0x1a6f>
    1674: 85 12        	sta	$12                     ; 0x2012 <main+0x1a31>
    1676: 8a           	txa
    1677: e9 00        	sbc	#$0
    1679: 85 13        	sta	$13                     ; 0x2013 <main+0x1a32>
    167b: a9 a7        	lda	#$a7
    167d: 18           	clc
    167e: 65 12        	adc	$12                     ; 0x2012 <main+0x1a31>
    1680: 85 12        	sta	$12                     ; 0x2012 <main+0x1a31>
    1682: a9 48        	lda	#$48
    1684: 65 13        	adc	$13                     ; 0x2013 <main+0x1a32>
    1686: 85 13        	sta	$13                     ; 0x2013 <main+0x1a32>
    1688: a9 00        	lda	#$0
    168a: 4c b4 19     	jmp	$19b4 <main+0x13d3>
    168d: a2 01        	ldx	#$1
    168f: 8e a6 d6     	stx	$d6a6                   ; 0xd6a6 <__heap_start+0x8d64>
    1692: ad a4 d6     	lda	$d6a4                   ; 0xd6a4 <__heap_start+0x8d62>
    1695: ac a5 d6     	ldy	$d6a5                   ; 0xd6a5 <__heap_start+0x8d63>
    1698: 29 0f        	and	#$f
    169a: 8d a7 48     	sta	$48a7                   ; 0x48a7 <opl3_fields>
    169d: 8e a6 d6     	stx	$d6a6                   ; 0xd6a6 <__heap_start+0x8d64>
    16a0: ad a4 d6     	lda	$d6a4                   ; 0xd6a4 <__heap_start+0x8d62>
    16a3: ac a5 d6     	ldy	$d6a5                   ; 0xd6a5 <__heap_start+0x8d63>
    16a6: 29 0f        	and	#$f
    16a8: 8d ae 48     	sta	$48ae                   ; 0x48ae <opl3_fields+0x7>
    16ab: 8e a6 d6     	stx	$d6a6                   ; 0xd6a6 <__heap_start+0x8d64>
    16ae: ad a4 d6     	lda	$d6a4                   ; 0xd6a4 <__heap_start+0x8d62>
    16b1: ac a5 d6     	ldy	$d6a5                   ; 0xd6a5 <__heap_start+0x8d63>
    16b4: 29 03        	and	#$3
    16b6: 8d b5 48     	sta	$48b5                   ; 0x48b5 <opl3_fields+0xe>
    16b9: 8e a6 d6     	stx	$d6a6                   ; 0xd6a6 <__heap_start+0x8d64>
    16bc: ad a4 d6     	lda	$d6a4                   ; 0xd6a4 <__heap_start+0x8d62>
    16bf: ac a5 d6     	ldy	$d6a5                   ; 0xd6a5 <__heap_start+0x8d63>
    16c2: 29 03        	and	#$3
    16c4: 8d bc 48     	sta	$48bc                   ; 0x48bc <opl3_fields+0x15>
    16c7: 8e a6 d6     	stx	$d6a6                   ; 0xd6a6 <__heap_start+0x8d64>
    16ca: ad a4 d6     	lda	$d6a4                   ; 0xd6a4 <__heap_start+0x8d62>
    16cd: ac a5 d6     	ldy	$d6a5                   ; 0xd6a5 <__heap_start+0x8d63>
    16d0: 29 0f        	and	#$f
    16d2: 8d c3 48     	sta	$48c3                   ; 0x48c3 <opl3_fields+0x1c>
    16d5: 8e a6 d6     	stx	$d6a6                   ; 0xd6a6 <__heap_start+0x8d64>
    16d8: ad a4 d6     	lda	$d6a4                   ; 0xd6a4 <__heap_start+0x8d62>
    16db: ac a5 d6     	ldy	$d6a5                   ; 0xd6a5 <__heap_start+0x8d63>
    16de: 29 0f        	and	#$f
    16e0: 8d ca 48     	sta	$48ca                   ; 0x48ca <opl3_fields+0x23>
    16e3: 8e a6 d6     	stx	$d6a6                   ; 0xd6a6 <__heap_start+0x8d64>
    16e6: ad a4 d6     	lda	$d6a4                   ; 0xd6a4 <__heap_start+0x8d62>
    16e9: ac a5 d6     	ldy	$d6a5                   ; 0xd6a5 <__heap_start+0x8d63>
    16ec: 29 0f        	and	#$f
    16ee: 8d d1 48     	sta	$48d1                   ; 0x48d1 <opl3_fields+0x2a>
    16f1: 8e a6 d6     	stx	$d6a6                   ; 0xd6a6 <__heap_start+0x8d64>
    16f4: ad a4 d6     	lda	$d6a4                   ; 0xd6a4 <__heap_start+0x8d62>
    16f7: ac a5 d6     	ldy	$d6a5                   ; 0xd6a5 <__heap_start+0x8d63>
    16fa: 29 0f        	and	#$f
    16fc: 8d d8 48     	sta	$48d8                   ; 0x48d8 <opl3_fields+0x31>
    16ff: 8e a6 d6     	stx	$d6a6                   ; 0xd6a6 <__heap_start+0x8d64>
    1702: ad a4 d6     	lda	$d6a4                   ; 0xd6a4 <__heap_start+0x8d62>
    1705: ac a5 d6     	ldy	$d6a5                   ; 0xd6a5 <__heap_start+0x8d63>
    1708: 29 0f        	and	#$f
    170a: 8d df 48     	sta	$48df                   ; 0x48df <opl3_fields+0x38>
    170d: 8e a6 d6     	stx	$d6a6                   ; 0xd6a6 <__heap_start+0x8d64>
    1710: ad a4 d6     	lda	$d6a4                   ; 0xd6a4 <__heap_start+0x8d62>
    1713: ac a5 d6     	ldy	$d6a5                   ; 0xd6a5 <__heap_start+0x8d63>
    1716: 29 0f        	and	#$f
    1718: 8d e6 48     	sta	$48e6                   ; 0x48e6 <opl3_fields+0x3f>
    171b: 8e a6 d6     	stx	$d6a6                   ; 0xd6a6 <__heap_start+0x8d64>
    171e: ad a4 d6     	lda	$d6a4                   ; 0xd6a4 <__heap_start+0x8d62>
    1721: ac a5 d6     	ldy	$d6a5                   ; 0xd6a5 <__heap_start+0x8d63>
    1724: 29 0f        	and	#$f
    1726: 8d ed 48     	sta	$48ed                   ; 0x48ed <opl3_fields+0x46>
    1729: 8e a6 d6     	stx	$d6a6                   ; 0xd6a6 <__heap_start+0x8d64>
    172c: ad a4 d6     	lda	$d6a4                   ; 0xd6a4 <__heap_start+0x8d62>
    172f: ac a5 d6     	ldy	$d6a5                   ; 0xd6a5 <__heap_start+0x8d63>
    1732: 29 0f        	and	#$f
    1734: 8d f4 48     	sta	$48f4                   ; 0x48f4 <opl3_fields+0x4d>
    1737: 8e a6 d6     	stx	$d6a6                   ; 0xd6a6 <__heap_start+0x8d64>
    173a: ad a4 d6     	lda	$d6a4                   ; 0xd6a4 <__heap_start+0x8d62>
    173d: ac a5 d6     	ldy	$d6a5                   ; 0xd6a5 <__heap_start+0x8d63>
    1740: 29 03        	and	#$3
    1742: 8d 17 49     	sta	$4917                   ; 0x4917 <opl3_fields+0x70>
    1745: 8e a6 d6     	stx	$d6a6                   ; 0xd6a6 <__heap_start+0x8d64>
    1748: ad a4 d6     	lda	$d6a4                   ; 0xd6a4 <__heap_start+0x8d62>
    174b: ac a5 d6     	ldy	$d6a5                   ; 0xd6a5 <__heap_start+0x8d63>
    174e: 29 03        	and	#$3
    1750: 8d 1e 49     	sta	$491e                   ; 0x491e <opl3_fields+0x77>
    1753: 8e a6 d6     	stx	$d6a6                   ; 0xd6a6 <__heap_start+0x8d64>
    1756: ad a4 d6     	lda	$d6a4                   ; 0xd6a4 <__heap_start+0x8d62>
    1759: ac a5 d6     	ldy	$d6a5                   ; 0xd6a5 <__heap_start+0x8d63>
    175c: 29 0f        	and	#$f
    175e: 8d 25 49     	sta	$4925                   ; 0x4925 <opl3_fields+0x7e>
    1761: 8e a6 d6     	stx	$d6a6                   ; 0xd6a6 <__heap_start+0x8d64>
    1764: ad a4 d6     	lda	$d6a4                   ; 0xd6a4 <__heap_start+0x8d62>
    1767: ac a5 d6     	ldy	$d6a5                   ; 0xd6a5 <__heap_start+0x8d63>
    176a: 29 0f        	and	#$f
    176c: 8d 2c 49     	sta	$492c                   ; 0x492c <opl3_fields+0x85>
    176f: 8e a6 d6     	stx	$d6a6                   ; 0xd6a6 <__heap_start+0x8d64>
    1772: ad a4 d6     	lda	$d6a4                   ; 0xd6a4 <__heap_start+0x8d62>
    1775: ac a5 d6     	ldy	$d6a5                   ; 0xd6a5 <__heap_start+0x8d63>
    1778: 29 0f        	and	#$f
    177a: 8d 33 49     	sta	$4933                   ; 0x4933 <opl3_fields+0x8c>
    177d: 8e a6 d6     	stx	$d6a6                   ; 0xd6a6 <__heap_start+0x8d64>
    1780: ad a4 d6     	lda	$d6a4                   ; 0xd6a4 <__heap_start+0x8d62>
    1783: ac a5 d6     	ldy	$d6a5                   ; 0xd6a5 <__heap_start+0x8d63>
    1786: 29 0f        	and	#$f
    1788: 8d 3a 49     	sta	$493a                   ; 0x493a <opl3_fields+0x93>
    178b: 8e ab 48     	stx	$48ab                   ; 0x48ab <opl3_fields+0x4>
    178e: 8e b2 48     	stx	$48b2                   ; 0x48b2 <opl3_fields+0xb>
    1791: 8e b9 48     	stx	$48b9                   ; 0x48b9 <opl3_fields+0x12>
    1794: 8e c0 48     	stx	$48c0                   ; 0x48c0 <opl3_fields+0x19>
    1797: 8e c7 48     	stx	$48c7                   ; 0x48c7 <opl3_fields+0x20>
    179a: 8e ce 48     	stx	$48ce                   ; 0x48ce <opl3_fields+0x27>
    179d: 8e d5 48     	stx	$48d5                   ; 0x48d5 <opl3_fields+0x2e>
    17a0: 8e dc 48     	stx	$48dc                   ; 0x48dc <opl3_fields+0x35>
    17a3: 8e e3 48     	stx	$48e3                   ; 0x48e3 <opl3_fields+0x3c>
    17a6: 8e ea 48     	stx	$48ea                   ; 0x48ea <opl3_fields+0x43>
    17a9: 8e f1 48     	stx	$48f1                   ; 0x48f1 <opl3_fields+0x4a>
    17ac: 8e f8 48     	stx	$48f8                   ; 0x48f8 <opl3_fields+0x51>
    17af: 8e ff 48     	stx	$48ff                   ; 0x48ff <opl3_fields+0x58>
    17b2: 8e 06 49     	stx	$4906                   ; 0x4906 <opl3_fields+0x5f>
    17b5: 8e 0d 49     	stx	$490d                   ; 0x490d <opl3_fields+0x66>
    17b8: 8e 14 49     	stx	$4914                   ; 0x4914 <opl3_fields+0x6d>
    17bb: 8e 1b 49     	stx	$491b                   ; 0x491b <opl3_fields+0x74>
    17be: 8e 22 49     	stx	$4922                   ; 0x4922 <opl3_fields+0x7b>
    17c1: 8e 29 49     	stx	$4929                   ; 0x4929 <opl3_fields+0x82>
    17c4: 8e 30 49     	stx	$4930                   ; 0x4930 <opl3_fields+0x89>
    17c7: 8e 37 49     	stx	$4937                   ; 0x4937 <opl3_fields+0x90>
    17ca: 8e 3e 49     	stx	$493e                   ; 0x493e <opl3_fields+0x97>
    17cd: 4c 37 1a     	jmp	$1a37 <main+0x1456>
    17d0: a6 50        	ldx	$50                     ; 0x2050 <main+0x1a6f>
    17d2: 86 12        	stx	$12                     ; 0x2012 <main+0x1a31>
    17d4: 64 14        	stz	$14                     ; 0x2014 <main+0x1a33>
    17d6: 8a           	txa
    17d7: 0a           	asl
    17d8: 26 14        	rol	$14                     ; 0x2014 <main+0x1a33>
    17da: 0a           	asl
    17db: 26 14        	rol	$14                     ; 0x2014 <main+0x1a33>
    17dd: 0a           	asl
    17de: 26 14        	rol	$14                     ; 0x2014 <main+0x1a33>
    17e0: 38           	sec
    17e1: e5 12        	sbc	$12                     ; 0x2012 <main+0x1a31>
    17e3: 85 16        	sta	$16                     ; 0x2016 <main+0x1a35>
    17e5: 85 13        	sta	$13                     ; 0x2013 <main+0x1a32>
    17e7: a5 14        	lda	$14                     ; 0x2014 <main+0x1a33>
    17e9: e9 00        	sbc	#$0
    17eb: a8           	tay
    17ec: 85 14        	sta	$14                     ; 0x2014 <main+0x1a33>
    17ee: a9 a7        	lda	#$a7
    17f0: 18           	clc
    17f1: 65 13        	adc	$13                     ; 0x2013 <main+0x1a32>
    17f3: aa           	tax
    17f4: a9 48        	lda	#$48
    17f6: 65 14        	adc	$14                     ; 0x2014 <main+0x1a33>
    17f8: 86 14        	stx	$14                     ; 0x2014 <main+0x1a33>
    17fa: 85 15        	sta	$15                     ; 0x2015 <main+0x1a34>
    17fc: a9 08        	lda	#$8
    17fe: 4c 17 1a     	jmp	$1a17 <main+0x1436>
    1801: a6 50        	ldx	$50                     ; 0x2050 <main+0x1a6f>
    1803: e0 16        	cpx	#$16
    1805: f0 03        	beq	$180a <main+0x1229>
    1807: 4c 71 18     	jmp	$1871 <main+0x1290>
    180a: a2 30        	ldx	#$30
    180c: 86 30        	stx	$30                     ; 0x2030 <main+0x1a4f>
    180e: ae 46 49     	ldx	$4946                   ; 0x4946 <__heap_start+0x4>
    1811: ac 47 49     	ldy	$4947                   ; 0x4947 <__heap_start+0x5>
    1814: 86 4b        	stx	$4b                     ; 0x204b <main+0x1a6a>
    1816: 8e 14 d0     	stx	$d014                   ; 0xd014 <__heap_start+0x86d2>
    1819: 9c 15 d0     	stz	$d015                   ; 0xd015 <__heap_start+0x86d3>
    181c: 84 4c        	sty	$4c                     ; 0x204c <main+0x1a6b>
    181e: 8c 16 d0     	sty	$d016                   ; 0xd016 <__heap_start+0x86d4>
    1821: 9c 17 d0     	stz	$d017                   ; 0xd017 <__heap_start+0x86d5>
    1824: ad 41 49     	lda	$4941                   ; 0x4941 <end_block9>
    1827: 92 10        	sta	($10)                   ; 0x2010 <main+0x1a2f>
    1829: a0 01        	ldy	#$1
    182b: a9 00        	lda	#$0
    182d: 91 10        	sta	($10),y                 ; 0x2010 <main+0x1a2f>
    182f: a2 d6        	ldx	#$d6
    1831: 86 12        	stx	$12                     ; 0x2012 <main+0x1a31>
    1833: a2 46        	ldx	#$46
    1835: 86 13        	stx	$13                     ; 0x2013 <main+0x1a32>
    1837: 20 55 36     	jsr	$3655 <printf>
    183a: a2 f3        	ldx	#$f3
    183c: 86 30        	stx	$30                     ; 0x2030 <main+0x1a4f>
    183e: ae ac 48     	ldx	$48ac                   ; 0x48ac <opl3_fields+0x5>
    1841: ac ad 48     	ldy	$48ad                   ; 0x48ad <opl3_fields+0x6>
    1844: 86 4b        	stx	$4b                     ; 0x204b <main+0x1a6a>
    1846: 8e 14 d0     	stx	$d014                   ; 0xd014 <__heap_start+0x86d2>
    1849: 9c 15 d0     	stz	$d015                   ; 0xd015 <__heap_start+0x86d3>
    184c: 84 4c        	sty	$4c                     ; 0x204c <main+0x1a6b>
    184e: 8c 16 d0     	sty	$d016                   ; 0xd016 <__heap_start+0x86d4>
    1851: 9c 17 d0     	stz	$d017                   ; 0xd017 <__heap_start+0x86d5>
    1854: ad a7 48     	lda	$48a7                   ; 0x48a7 <opl3_fields>
    1857: 92 10        	sta	($10)                   ; 0x2010 <main+0x1a2f>
    1859: a9 00        	lda	#$0
    185b: a0 01        	ldy	#$1
    185d: 91 10        	sta	($10),y                 ; 0x2010 <main+0x1a2f>
    185f: a2 d6        	ldx	#$d6
    1861: 86 12        	stx	$12                     ; 0x2012 <main+0x1a31>
    1863: a2 46        	ldx	#$46
    1865: 86 13        	stx	$13                     ; 0x2013 <main+0x1a32>
    1867: 20 55 36     	jsr	$3655 <printf>
    186a: 64 50        	stz	$50                     ; 0x2050 <main+0x1a6f>
    186c: a4 27        	ldy	$27                     ; 0x2027 <main+0x1a46>
    186e: 4c 34 12     	jmp	$1234 <main+0xc53>
    1871: 86 12        	stx	$12                     ; 0x2012 <main+0x1a31>
    1873: e8           	inx
    1874: 86 24        	stx	$24                     ; 0x2024 <main+0x1a43>
    1876: a2 30        	ldx	#$30
    1878: 86 30        	stx	$30                     ; 0x2030 <main+0x1a4f>
    187a: a5 12        	lda	$12                     ; 0x2012 <main+0x1a31>
    187c: 0a           	asl
    187d: 64 13        	stz	$13                     ; 0x2013 <main+0x1a32>
    187f: 26 13        	rol	$13                     ; 0x2013 <main+0x1a32>
    1881: 0a           	asl
    1882: 26 13        	rol	$13                     ; 0x2013 <main+0x1a32>
    1884: 0a           	asl
    1885: 26 13        	rol	$13                     ; 0x2013 <main+0x1a32>
    1887: 38           	sec
    1888: e5 12        	sbc	$12                     ; 0x2012 <main+0x1a31>
    188a: 85 12        	sta	$12                     ; 0x2012 <main+0x1a31>
    188c: a5 13        	lda	$13                     ; 0x2013 <main+0x1a32>
    188e: e9 00        	sbc	#$0
    1890: 85 13        	sta	$13                     ; 0x2013 <main+0x1a32>
    1892: a9 a7        	lda	#$a7
    1894: 18           	clc
    1895: 65 12        	adc	$12                     ; 0x2012 <main+0x1a31>
    1897: 85 12        	sta	$12                     ; 0x2012 <main+0x1a31>
    1899: a9 48        	lda	#$48
    189b: 65 13        	adc	$13                     ; 0x2013 <main+0x1a32>
    189d: 85 13        	sta	$13                     ; 0x2013 <main+0x1a32>
    189f: a0 05        	ldy	#$5
    18a1: b1 12        	lda	($12),y                 ; 0x2012 <main+0x1a31>
    18a3: 85 14        	sta	$14                     ; 0x2014 <main+0x1a33>
    18a5: c8           	iny
    18a6: b1 12        	lda	($12),y                 ; 0x2012 <main+0x1a31>
    18a8: a4 14        	ldy	$14                     ; 0x2014 <main+0x1a33>
    18aa: 84 4b        	sty	$4b                     ; 0x204b <main+0x1a6a>
    18ac: 8c 14 d0     	sty	$d014                   ; 0xd014 <__heap_start+0x86d2>
    18af: a0 01        	ldy	#$1
    18b1: 9c 15 d0     	stz	$d015                   ; 0xd015 <__heap_start+0x86d3>
    18b4: 85 4c        	sta	$4c                     ; 0x204c <main+0x1a6b>
    18b6: 8d 16 d0     	sta	$d016                   ; 0xd016 <__heap_start+0x86d4>
    18b9: 9c 17 d0     	stz	$d017                   ; 0xd017 <__heap_start+0x86d5>
    18bc: b2 12        	lda	($12)                   ; 0x2012 <main+0x1a31>
    18be: 92 10        	sta	($10)                   ; 0x2010 <main+0x1a2f>
    18c0: a9 00        	lda	#$0
    18c2: 91 10        	sta	($10),y                 ; 0x2010 <main+0x1a2f>
    18c4: a2 d6        	ldx	#$d6
    18c6: 86 12        	stx	$12                     ; 0x2012 <main+0x1a31>
    18c8: a2 46        	ldx	#$46
    18ca: 86 13        	stx	$13                     ; 0x2013 <main+0x1a32>
    18cc: 20 55 36     	jsr	$3655 <printf>
    18cf: a2 f3        	ldx	#$f3
    18d1: 86 30        	stx	$30                     ; 0x2030 <main+0x1a4f>
    18d3: a6 24        	ldx	$24                     ; 0x2024 <main+0x1a43>
    18d5: a5 24        	lda	$24                     ; 0x2024 <main+0x1a43>
    18d7: 0a           	asl
    18d8: 64 13        	stz	$13                     ; 0x2013 <main+0x1a32>
    18da: 26 13        	rol	$13                     ; 0x2013 <main+0x1a32>
    18dc: 0a           	asl
    18dd: 26 13        	rol	$13                     ; 0x2013 <main+0x1a32>
    18df: 0a           	asl
    18e0: 26 13        	rol	$13                     ; 0x2013 <main+0x1a32>
    18e2: 86 12        	stx	$12                     ; 0x2012 <main+0x1a31>
    18e4: 38           	sec
    18e5: e5 12        	sbc	$12                     ; 0x2012 <main+0x1a31>
    18e7: 85 12        	sta	$12                     ; 0x2012 <main+0x1a31>
    18e9: a5 13        	lda	$13                     ; 0x2013 <main+0x1a32>
    18eb: e9 00        	sbc	#$0
    18ed: 85 13        	sta	$13                     ; 0x2013 <main+0x1a32>
    18ef: 18           	clc
    18f0: a9 a7        	lda	#$a7
    18f2: 65 12        	adc	$12                     ; 0x2012 <main+0x1a31>
    18f4: 85 12        	sta	$12                     ; 0x2012 <main+0x1a31>
    18f6: a9 48        	lda	#$48
    18f8: 65 13        	adc	$13                     ; 0x2013 <main+0x1a32>
    18fa: 85 13        	sta	$13                     ; 0x2013 <main+0x1a32>
    18fc: a0 05        	ldy	#$5
    18fe: b1 12        	lda	($12),y                 ; 0x2012 <main+0x1a31>
    1900: 85 14        	sta	$14                     ; 0x2014 <main+0x1a33>
    1902: c8           	iny
    1903: b1 12        	lda	($12),y                 ; 0x2012 <main+0x1a31>
    1905: a4 14        	ldy	$14                     ; 0x2014 <main+0x1a33>
    1907: 84 4b        	sty	$4b                     ; 0x204b <main+0x1a6a>
    1909: 8c 14 d0     	sty	$d014                   ; 0xd014 <__heap_start+0x86d2>
    190c: 9c 15 d0     	stz	$d015                   ; 0xd015 <__heap_start+0x86d3>
    190f: 85 4c        	sta	$4c                     ; 0x204c <main+0x1a6b>
    1911: 8d 16 d0     	sta	$d016                   ; 0xd016 <__heap_start+0x86d4>
    1914: 9c 17 d0     	stz	$d017                   ; 0xd017 <__heap_start+0x86d5>
    1917: b2 12        	lda	($12)                   ; 0x2012 <main+0x1a31>
    1919: 92 10        	sta	($10)                   ; 0x2010 <main+0x1a2f>
    191b: a9 00        	lda	#$0
    191d: a0 01        	ldy	#$1
    191f: 91 10        	sta	($10),y                 ; 0x2010 <main+0x1a2f>
    1921: a2 d6        	ldx	#$d6
    1923: 86 12        	stx	$12                     ; 0x2012 <main+0x1a31>
    1925: a2 46        	ldx	#$46
    1927: 86 13        	stx	$13                     ; 0x2013 <main+0x1a32>
    1929: 20 55 36     	jsr	$3655 <printf>
    192c: a6 24        	ldx	$24                     ; 0x2024 <main+0x1a43>
    192e: 86 50        	stx	$50                     ; 0x2050 <main+0x1a6f>
    1930: a4 27        	ldy	$27                     ; 0x2027 <main+0x1a46>
    1932: 4c 34 12     	jmp	$1234 <main+0xc53>
    1935: a5 50        	lda	$50                     ; 0x2050 <main+0x1a6f>
    1937: 64 13        	stz	$13                     ; 0x2013 <main+0x1a32>
    1939: 0a           	asl
    193a: 26 13        	rol	$13                     ; 0x2013 <main+0x1a32>
    193c: 0a           	asl
    193d: 26 13        	rol	$13                     ; 0x2013 <main+0x1a32>
    193f: 0a           	asl
    1940: 26 13        	rol	$13                     ; 0x2013 <main+0x1a32>
    1942: 38           	sec
    1943: e5 50        	sbc	$50                     ; 0x2050 <main+0x1a6f>
    1945: 85 12        	sta	$12                     ; 0x2012 <main+0x1a31>
    1947: a5 13        	lda	$13                     ; 0x2013 <main+0x1a32>
    1949: e9 00        	sbc	#$0
    194b: 85 13        	sta	$13                     ; 0x2013 <main+0x1a32>
    194d: a9 a7        	lda	#$a7
    194f: 18           	clc
    1950: 65 12        	adc	$12                     ; 0x2012 <main+0x1a31>
    1952: 85 12        	sta	$12                     ; 0x2012 <main+0x1a31>
    1954: a9 48        	lda	#$48
    1956: 65 13        	adc	$13                     ; 0x2013 <main+0x1a32>
    1958: 85 13        	sta	$13                     ; 0x2013 <main+0x1a32>
    195a: a9 02        	lda	#$2
    195c: 4c b4 19     	jmp	$19b4 <main+0x13d3>
    195f: a5 50        	lda	$50                     ; 0x2050 <main+0x1a6f>
    1961: 64 13        	stz	$13                     ; 0x2013 <main+0x1a32>
    1963: 0a           	asl
    1964: 26 13        	rol	$13                     ; 0x2013 <main+0x1a32>
    1966: 0a           	asl
    1967: 26 13        	rol	$13                     ; 0x2013 <main+0x1a32>
    1969: 0a           	asl
    196a: 26 13        	rol	$13                     ; 0x2013 <main+0x1a32>
    196c: 38           	sec
    196d: e5 50        	sbc	$50                     ; 0x2050 <main+0x1a6f>
    196f: 85 12        	sta	$12                     ; 0x2012 <main+0x1a31>
    1971: a5 13        	lda	$13                     ; 0x2013 <main+0x1a32>
    1973: e9 00        	sbc	#$0
    1975: 85 13        	sta	$13                     ; 0x2013 <main+0x1a32>
    1977: a9 a7        	lda	#$a7
    1979: 18           	clc
    197a: 65 12        	adc	$12                     ; 0x2012 <main+0x1a31>
    197c: 85 12        	sta	$12                     ; 0x2012 <main+0x1a31>
    197e: a9 48        	lda	#$48
    1980: 65 13        	adc	$13                     ; 0x2013 <main+0x1a32>
    1982: 85 13        	sta	$13                     ; 0x2013 <main+0x1a32>
    1984: a9 01        	lda	#$1
    1986: 92 12        	sta	($12)                   ; 0x2012 <main+0x1a31>
    1988: a0 04        	ldy	#$4
    198a: 4c 35 1a     	jmp	$1a35 <main+0x1454>
    198d: a5 50        	lda	$50                     ; 0x2050 <main+0x1a6f>
    198f: 64 13        	stz	$13                     ; 0x2013 <main+0x1a32>
    1991: 0a           	asl
    1992: 26 13        	rol	$13                     ; 0x2013 <main+0x1a32>
    1994: 0a           	asl
    1995: 26 13        	rol	$13                     ; 0x2013 <main+0x1a32>
    1997: 0a           	asl
    1998: 26 13        	rol	$13                     ; 0x2013 <main+0x1a32>
    199a: 38           	sec
    199b: e5 50        	sbc	$50                     ; 0x2050 <main+0x1a6f>
    199d: 85 12        	sta	$12                     ; 0x2012 <main+0x1a31>
    199f: a5 13        	lda	$13                     ; 0x2013 <main+0x1a32>
    19a1: e9 00        	sbc	#$0
    19a3: 85 13        	sta	$13                     ; 0x2013 <main+0x1a32>
    19a5: a9 a7        	lda	#$a7
    19a7: 18           	clc
    19a8: 65 12        	adc	$12                     ; 0x2012 <main+0x1a31>
    19aa: 85 12        	sta	$12                     ; 0x2012 <main+0x1a31>
    19ac: a9 48        	lda	#$48
    19ae: 65 13        	adc	$13                     ; 0x2013 <main+0x1a32>
    19b0: 85 13        	sta	$13                     ; 0x2013 <main+0x1a32>
    19b2: a9 03        	lda	#$3
    19b4: 92 12        	sta	($12)                   ; 0x2012 <main+0x1a31>
    19b6: 4c 31 1a     	jmp	$1a31 <main+0x1450>
    19b9: a6 50        	ldx	$50                     ; 0x2050 <main+0x1a6f>
    19bb: 86 12        	stx	$12                     ; 0x2012 <main+0x1a31>
    19bd: 64 14        	stz	$14                     ; 0x2014 <main+0x1a33>
    19bf: 8a           	txa
    19c0: 0a           	asl
    19c1: 26 14        	rol	$14                     ; 0x2014 <main+0x1a33>
    19c3: 0a           	asl
    19c4: 26 14        	rol	$14                     ; 0x2014 <main+0x1a33>
    19c6: 0a           	asl
    19c7: 26 14        	rol	$14                     ; 0x2014 <main+0x1a33>
    19c9: 38           	sec
    19ca: e5 12        	sbc	$12                     ; 0x2012 <main+0x1a31>
    19cc: 85 16        	sta	$16                     ; 0x2016 <main+0x1a35>
    19ce: 85 13        	sta	$13                     ; 0x2013 <main+0x1a32>
    19d0: a5 14        	lda	$14                     ; 0x2014 <main+0x1a33>
    19d2: e9 00        	sbc	#$0
    19d4: a8           	tay
    19d5: 85 14        	sta	$14                     ; 0x2014 <main+0x1a33>
    19d7: a9 a7        	lda	#$a7
    19d9: 18           	clc
    19da: 65 13        	adc	$13                     ; 0x2013 <main+0x1a32>
    19dc: aa           	tax
    19dd: a9 48        	lda	#$48
    19df: 65 14        	adc	$14                     ; 0x2014 <main+0x1a33>
    19e1: 86 14        	stx	$14                     ; 0x2014 <main+0x1a33>
    19e3: 85 15        	sta	$15                     ; 0x2015 <main+0x1a34>
    19e5: a9 0f        	lda	#$f
    19e7: 80 2e        	bra	$1a17 <main+0x1436>
    19e9: a6 50        	ldx	$50                     ; 0x2050 <main+0x1a6f>
    19eb: 86 12        	stx	$12                     ; 0x2012 <main+0x1a31>
    19ed: 64 14        	stz	$14                     ; 0x2014 <main+0x1a33>
    19ef: 8a           	txa
    19f0: 0a           	asl
    19f1: 26 14        	rol	$14                     ; 0x2014 <main+0x1a33>
    19f3: 0a           	asl
    19f4: 26 14        	rol	$14                     ; 0x2014 <main+0x1a33>
    19f6: 0a           	asl
    19f7: 26 14        	rol	$14                     ; 0x2014 <main+0x1a33>
    19f9: 38           	sec
    19fa: e5 12        	sbc	$12                     ; 0x2012 <main+0x1a31>
    19fc: 85 16        	sta	$16                     ; 0x2016 <main+0x1a35>
    19fe: 85 13        	sta	$13                     ; 0x2013 <main+0x1a32>
    1a00: a5 14        	lda	$14                     ; 0x2014 <main+0x1a33>
    1a02: e9 00        	sbc	#$0
    1a04: a8           	tay
    1a05: 85 14        	sta	$14                     ; 0x2014 <main+0x1a33>
    1a07: a9 a7        	lda	#$a7
    1a09: 18           	clc
    1a0a: 65 13        	adc	$13                     ; 0x2013 <main+0x1a32>
    1a0c: aa           	tax
    1a0d: a9 48        	lda	#$48
    1a0f: 65 14        	adc	$14                     ; 0x2014 <main+0x1a33>
    1a11: 86 14        	stx	$14                     ; 0x2014 <main+0x1a33>
    1a13: 85 15        	sta	$15                     ; 0x2015 <main+0x1a34>
    1a15: a9 0d        	lda	#$d
    1a17: 92 14        	sta	($14)                   ; 0x2014 <main+0x1a33>
    1a19: a5 12        	lda	$12                     ; 0x2012 <main+0x1a31>
    1a1b: d0 05        	bne	$1a22 <main+0x1441>
    1a1d: a2 07        	ldx	#$7
    1a1f: 8e a7 48     	stx	$48a7                   ; 0x48a7 <opl3_fields>
    1a22: 84 13        	sty	$13                     ; 0x2013 <main+0x1a32>
    1a24: a9 a7        	lda	#$a7
    1a26: 18           	clc
    1a27: 65 16        	adc	$16                     ; 0x2016 <main+0x1a35>
    1a29: 85 12        	sta	$12                     ; 0x2012 <main+0x1a31>
    1a2b: a9 48        	lda	#$48
    1a2d: 65 13        	adc	$13                     ; 0x2013 <main+0x1a32>
    1a2f: 85 13        	sta	$13                     ; 0x2013 <main+0x1a32>
    1a31: a0 04        	ldy	#$4
    1a33: a9 01        	lda	#$1
    1a35: 91 12        	sta	($12),y                 ; 0x2012 <main+0x1a31>
    1a37: 20 89 24     	jsr	$2489 <updateValues>
    1a3a: a4 27        	ldy	$27                     ; 0x2027 <main+0x1a46>
    1a3c: 4c 34 12     	jmp	$1234 <main+0xc53>
    1a3f: a4 15        	ldy	$15                     ; 0x2015 <main+0x1a34>
    1a41: c0 00        	cpy	#$0
    1a43: b0 03        	bcs	$1a48 <main+0x1467>
    1a45: 4c 9d 1e     	jmp	$1e9d <main+0x18bc>
    1a48: a0 01        	ldy	#$1
    1a4a: a6 01        	ldx	$1                      ; 0x2001 <main+0x1a20>
    1a4c: 86 15        	stx	$15                     ; 0x2015 <main+0x1a34>
    1a4e: 84 01        	sty	$1                      ; 0x2001 <main+0x1a20>
    1a50: 64 12        	stz	$12                     ; 0x2012 <main+0x1a31>
    1a52: a2 ff        	ldx	#$ff
    1a54: 64 16        	stz	$16                     ; 0x2016 <main+0x1a35>
    1a56: 80 0e        	bra	$1a66 <main+0x1485>
    1a58: a2 00        	ldx	#$0
    1a5a: 0a           	asl
    1a5b: 8a           	txa
    1a5c: 2a           	rol
    1a5d: a6 01        	ldx	$1                      ; 0x2001 <main+0x1a20>
    1a5f: 86 15        	stx	$15                     ; 0x2015 <main+0x1a34>
    1a61: 84 01        	sty	$1                      ; 0x2001 <main+0x1a20>
    1a63: aa           	tax
    1a64: 85 16        	sta	$16                     ; 0x2016 <main+0x1a35>
    1a66: a5 14        	lda	$14                     ; 0x2014 <main+0x1a33>
    1a68: 0a           	asl
    1a69: 26 12        	rol	$12                     ; 0x2012 <main+0x1a31>
    1a6b: 0a           	asl
    1a6c: 85 13        	sta	$13                     ; 0x2013 <main+0x1a32>
    1a6e: 26 12        	rol	$12                     ; 0x2012 <main+0x1a31>
    1a70: a9 00        	lda	#$0
    1a72: 18           	clc
    1a73: 65 13        	adc	$13                     ; 0x2013 <main+0x1a32>
    1a75: 85 13        	sta	$13                     ; 0x2013 <main+0x1a32>
    1a77: a9 d0        	lda	#$d0
    1a79: 65 12        	adc	$12                     ; 0x2012 <main+0x1a31>
    1a7b: 5a           	phy
    1a7c: a4 13        	ldy	$13                     ; 0x2013 <main+0x1a32>
    1a7e: 84 12        	sty	$12                     ; 0x2012 <main+0x1a31>
    1a80: 7a           	ply
    1a81: 85 13        	sta	$13                     ; 0x2013 <main+0x1a32>
    1a83: 8a           	txa
    1a84: 92 12        	sta	($12)                   ; 0x2012 <main+0x1a31>
    1a86: a5 16        	lda	$16                     ; 0x2016 <main+0x1a35>
    1a88: 91 12        	sta	($12),y                 ; 0x2012 <main+0x1a31>
    1a8a: a0 02        	ldy	#$2
    1a8c: 8a           	txa
    1a8d: 91 12        	sta	($12),y                 ; 0x2012 <main+0x1a31>
    1a8f: c8           	iny
    1a90: a9 ff        	lda	#$ff
    1a92: 91 12        	sta	($12),y                 ; 0x2012 <main+0x1a31>
    1a94: a6 15        	ldx	$15                     ; 0x2015 <main+0x1a34>
    1a96: 86 01        	stx	$1                      ; 0x2001 <main+0x1a20>
    1a98: a6 2b        	ldx	$2b                     ; 0x202b <main+0x1a4a>
    1a9a: 86 26        	stx	$26                     ; 0x2026 <main+0x1a45>
    1a9c: a2 00        	ldx	#$0
    1a9e: 8a           	txa
    1a9f: a0 0c        	ldy	#$c
    1aa1: 91 10        	sta	($10),y                 ; 0x2010 <main+0x1a2f>
    1aa3: a0 01        	ldy	#$1
    1aa5: 4c d9 1b     	jmp	$1bd9 <main+0x15f8>
    1aa8: a0 01        	ldy	#$1
    1aaa: 98           	tya
    1aab: a0 0c        	ldy	#$c
    1aad: 91 10        	sta	($10),y                 ; 0x2010 <main+0x1a2f>
    1aaf: a0 00        	ldy	#$0
    1ab1: 5a           	phy
    1ab2: 8a           	txa
    1ab3: a0 0a        	ldy	#$a
    1ab5: 91 10        	sta	($10),y                 ; 0x2010 <main+0x1a2f>
    1ab7: 64 12        	stz	$12                     ; 0x2012 <main+0x1a31>
    1ab9: a9 00        	lda	#$0
    1abb: 80 24        	bra	$1ae1 <main+0x1500>
    1abd: 8a           	txa
    1abe: 30 35        	bmi	$1af5 <main+0x1514>
    1ac0: a0 0a        	ldy	#$a
    1ac2: b1 10        	lda	($10),y                 ; 0x2010 <main+0x1a2f>
    1ac4: 29 f0        	and	#$f0
    1ac6: c9 80        	cmp	#$80
    1ac8: f0 04        	beq	$1ace <main+0x14ed>
    1aca: c9 90        	cmp	#$90
    1acc: d0 30        	bne	$1afe <main+0x151d>
    1ace: 8a           	txa
    1acf: 29 7f        	and	#$7f
    1ad1: 86 26        	stx	$26                     ; 0x2026 <main+0x1a45>
    1ad3: 85 2b        	sta	$2b                     ; 0x202b <main+0x1a4a>
    1ad5: a2 00        	ldx	#$0
    1ad7: 8a           	txa
    1ad8: a0 0c        	ldy	#$c
    1ada: 91 10        	sta	($10),y                 ; 0x2010 <main+0x1a2f>
    1adc: a0 01        	ldy	#$1
    1ade: e8           	inx
    1adf: 8a           	txa
    1ae0: 5a           	phy
    1ae1: a0 0d        	ldy	#$d
    1ae3: 91 10        	sta	($10),y                 ; 0x2010 <main+0x1a2f>
    1ae5: 7a           	ply
    1ae6: 4c d9 1b     	jmp	$1bd9 <main+0x15f8>
    1ae9: a2 01        	ldx	#$1
    1aeb: 80 28        	bra	$1b15 <main+0x1534>
    1aed: a2 02        	ldx	#$2
    1aef: 80 24        	bra	$1b15 <main+0x1534>
    1af1: a2 03        	ldx	#$3
    1af3: 80 20        	bra	$1b15 <main+0x1534>
    1af5: a4 14        	ldy	$14                     ; 0x2014 <main+0x1a33>
    1af7: 4c d9 1b     	jmp	$1bd9 <main+0x15f8>
    1afa: a2 04        	ldx	#$4
    1afc: 80 17        	bra	$1b15 <main+0x1534>
    1afe: a5 14        	lda	$14                     ; 0x2014 <main+0x1a33>
    1b00: 09 01        	ora	#$1
    1b02: 86 26        	stx	$26                     ; 0x2026 <main+0x1a45>
    1b04: 4c 24 1c     	jmp	$1c24 <main+0x1643>
    1b07: a2 05        	ldx	#$5
    1b09: 80 0a        	bra	$1b15 <main+0x1534>
    1b0b: a2 06        	ldx	#$6
    1b0d: 80 06        	bra	$1b15 <main+0x1534>
    1b0f: a2 07        	ldx	#$7
    1b11: 80 02        	bra	$1b15 <main+0x1534>
    1b13: a2 08        	ldx	#$8
    1b15: 48           	pha
    1b16: 8a           	txa
    1b17: a0 0b        	ldy	#$b
    1b19: 91 10        	sta	($10),y                 ; 0x2010 <main+0x1a2f>
    1b1b: 68           	pla
    1b1c: 64 2e        	stz	$2e                     ; 0x202e <main+0x1a4d>
    1b1e: 64 2a        	stz	$2a                     ; 0x202a <main+0x1a49>
    1b20: 18           	clc
    1b21: 69 05        	adc	#$5
    1b23: a8           	tay
    1b24: a9 00        	lda	#$0
    1b26: 69 00        	adc	#$0
    1b28: 18           	clc
    1b29: 48           	pha
    1b2a: a5 10        	lda	$10                     ; 0x2010 <main+0x1a2f>
    1b2c: 69 0e        	adc	#$e
    1b2e: 85 24        	sta	$24                     ; 0x2024 <main+0x1a43>
    1b30: a5 11        	lda	$11                     ; 0x2011 <main+0x1a30>
    1b32: 69 00        	adc	#$0
    1b34: 85 25        	sta	$25                     ; 0x2025 <main+0x1a44>
    1b36: 68           	pla
    1b37: a6 24        	ldx	$24                     ; 0x2024 <main+0x1a43>
    1b39: 86 14        	stx	$14                     ; 0x2014 <main+0x1a33>
    1b3b: a6 25        	ldx	$25                     ; 0x2025 <main+0x1a44>
    1b3d: 86 15        	stx	$15                     ; 0x2015 <main+0x1a34>
    1b3f: a2 0c        	ldx	#$c
    1b41: 86 12        	stx	$12                     ; 0x2012 <main+0x1a31>
    1b43: 64 13        	stz	$13                     ; 0x2013 <main+0x1a32>
    1b45: aa           	tax
    1b46: 98           	tya
    1b47: 20 cd 42     	jsr	$42cd <__udivmodhi4>
    1b4a: aa           	tax
    1b4b: b2 24        	lda	($24)                   ; 0x2024 <main+0x1a43>
    1b4d: 85 12        	sta	$12                     ; 0x2012 <main+0x1a31>
    1b4f: a0 01        	ldy	#$1
    1b51: b1 24        	lda	($24),y                 ; 0x2024 <main+0x1a43>
    1b53: 06 12        	asl	$12                     ; 0x2012 <main+0x1a31>
    1b55: 2a           	rol
    1b56: 85 13        	sta	$13                     ; 0x2013 <main+0x1a32>
    1b58: a9 07        	lda	#$7
    1b5a: 18           	clc
    1b5b: 65 12        	adc	$12                     ; 0x2012 <main+0x1a31>
    1b5d: 85 12        	sta	$12                     ; 0x2012 <main+0x1a31>
    1b5f: a9 46        	lda	#$46
    1b61: 65 13        	adc	$13                     ; 0x2013 <main+0x1a32>
    1b63: 85 13        	sta	$13                     ; 0x2013 <main+0x1a32>
    1b65: 18           	clc
    1b66: 8a           	txa
    1b67: 69 3e        	adc	#$3e
    1b69: 85 18        	sta	$18                     ; 0x2018 <main+0x1a37>
    1b6b: 5a           	phy
    1b6c: a0 0b        	ldy	#$b
    1b6e: b1 10        	lda	($10),y                 ; 0x2010 <main+0x1a2f>
    1b70: 7a           	ply
    1b71: 85 14        	sta	$14                     ; 0x2014 <main+0x1a33>
    1b73: 38           	sec
    1b74: e5 2a        	sbc	$2a                     ; 0x202a <main+0x1a49>
    1b76: 85 16        	sta	$16                     ; 0x2016 <main+0x1a35>
    1b78: a9 00        	lda	#$0
    1b7a: e5 2c        	sbc	$2c                     ; 0x202c <main+0x1a4b>
    1b7c: 05 2e        	ora	$2e                     ; 0x202e <main+0x1a4d>
    1b7e: aa           	tax
    1b7f: a5 16        	lda	$16                     ; 0x2016 <main+0x1a35>
    1b81: 09 a0        	ora	#$a0
    1b83: 85 17        	sta	$17                     ; 0x2017 <main+0x1a36>
    1b85: 8a           	txa
    1b86: a6 14        	ldx	$14                     ; 0x2014 <main+0x1a33>
    1b88: c9 01        	cmp	#$1
    1b8a: d0 06        	bne	$1b92 <main+0x15b1>
    1b8c: a5 16        	lda	$16                     ; 0x2016 <main+0x1a35>
    1b8e: c9 00        	cmp	#$0
    1b90: 80 02        	bra	$1b94 <main+0x15b3>
    1b92: c9 01        	cmp	#$1
    1b94: a9 80        	lda	#$80
    1b96: 85 14        	sta	$14                     ; 0x2014 <main+0x1a33>
    1b98: a9 d5        	lda	#$d5
    1b9a: 85 15        	sta	$15                     ; 0x2015 <main+0x1a34>
    1b9c: 90 08        	bcc	$1ba6 <main+0x15c5>
    1b9e: a9 82        	lda	#$82
    1ba0: 85 14        	sta	$14                     ; 0x2014 <main+0x1a33>
    1ba2: a9 d5        	lda	#$d5
    1ba4: 85 15        	sta	$15                     ; 0x2015 <main+0x1a34>
    1ba6: b2 12        	lda	($12)                   ; 0x2012 <main+0x1a31>
    1ba8: 85 19        	sta	$19                     ; 0x2019 <main+0x1a38>
    1baa: b1 12        	lda	($12),y                 ; 0x2012 <main+0x1a31>
    1bac: a8           	tay
    1bad: a5 17        	lda	$17                     ; 0x2017 <main+0x1a36>
    1baf: 92 14        	sta	($14)                   ; 0x2014 <main+0x1a33>
    1bb1: a5 19        	lda	$19                     ; 0x2019 <main+0x1a38>
    1bb3: 8d 81 d5     	sta	$d581                   ; 0xd581 <__heap_start+0x8c3f>
    1bb6: 98           	tya
    1bb7: 29 03        	and	#$3
    1bb9: 85 12        	sta	$12                     ; 0x2012 <main+0x1a31>
    1bbb: 06 18        	asl	$18                     ; 0x2018 <main+0x1a37>
    1bbd: a5 16        	lda	$16                     ; 0x2016 <main+0x1a35>
    1bbf: 09 b0        	ora	#$b0
    1bc1: 92 14        	sta	($14)                   ; 0x2014 <main+0x1a33>
    1bc3: a5 18        	lda	$18                     ; 0x2018 <main+0x1a37>
    1bc5: 0a           	asl
    1bc6: 05 12        	ora	$12                     ; 0x2012 <main+0x1a31>
    1bc8: 09 20        	ora	#$20
    1bca: 8d 81 d5     	sta	$d581                   ; 0xd581 <__heap_start+0x8c3f>
    1bcd: a5 26        	lda	$26                     ; 0x2026 <main+0x1a45>
    1bcf: 9d 32 00     	sta	$32,x                   ; 0x32 <polyOPL3Buffer>
    1bd2: a6 31        	ldx	$31                     ; 0x2031 <main+0x1a50>
    1bd4: e8           	inx
    1bd5: 86 31        	stx	$31                     ; 0x2031 <main+0x1a50>
    1bd7: a0 00        	ldy	#$0
    1bd9: a6 2d        	ldx	$2d                     ; 0x202d <main+0x1a4c>
    1bdb: 86 12        	stx	$12                     ; 0x2012 <main+0x1a31>
    1bdd: a2 ff        	ldx	#$ff
    1bdf: c6 27        	dec	$27                     ; 0x2027 <main+0x1a46>
    1be1: e4 27        	cpx	$27                     ; 0x2027 <main+0x1a46>
    1be3: d0 20        	bne	$1c05 <main+0x1624>
    1be5: c6 12        	dec	$12                     ; 0x2012 <main+0x1a31>
    1be7: 80 1c        	bra	$1c05 <main+0x1624>
    1be9: a2 09        	ldx	#$9
    1beb: 80 06        	bra	$1bf3 <main+0x1612>
    1bed: a2 0a        	ldx	#$a
    1bef: 80 02        	bra	$1bf3 <main+0x1612>
    1bf1: a2 0b        	ldx	#$b
    1bf3: 48           	pha
    1bf4: 8a           	txa
    1bf5: a0 0b        	ldy	#$b
    1bf7: 91 10        	sta	($10),y                 ; 0x2010 <main+0x1a2f>
    1bf9: 68           	pla
    1bfa: a2 01        	ldx	#$1
    1bfc: 86 2e        	stx	$2e                     ; 0x202e <main+0x1a4d>
    1bfe: a2 09        	ldx	#$9
    1c00: 86 2a        	stx	$2a                     ; 0x202a <main+0x1a49>
    1c02: 4c 20 1b     	jmp	$1b20 <main+0x153f>
    1c05: a6 2b        	ldx	$2b                     ; 0x202b <main+0x1a4a>
    1c07: 86 25        	stx	$25                     ; 0x2025 <main+0x1a44>
    1c09: a6 2b        	ldx	$2b                     ; 0x202b <main+0x1a4a>
    1c0b: 98           	tya
    1c0c: 5a           	phy
    1c0d: a4 12        	ldy	$12                     ; 0x2012 <main+0x1a31>
    1c0f: 84 2d        	sty	$2d                     ; 0x202d <main+0x1a4c>
    1c11: 7a           	ply
    1c12: e6 12        	inc	$12                     ; 0x2012 <main+0x1a31>
    1c14: c6 12        	dec	$12                     ; 0x2012 <main+0x1a31>
    1c16: d0 03        	bne	$1c1b <main+0x163a>
    1c18: 4c d1 1e     	jmp	$1ed1 <main+0x18f0>
    1c1b: ac a1 dd     	ldy	$dda1                   ; 0xdda1 <__heap_start+0x945f>
    1c1e: 84 2b        	sty	$2b                     ; 0x202b <main+0x1a4a>
    1c20: c0 fe        	cpy	#$fe
    1c22: d0 03        	bne	$1c27 <main+0x1646>
    1c24: a8           	tay
    1c25: 80 b2        	bra	$1bd9 <main+0x15f8>
    1c27: a8           	tay
    1c28: f0 27        	beq	$1c51 <main+0x1670>
    1c2a: 48           	pha
    1c2b: a0 0d        	ldy	#$d
    1c2d: b1 10        	lda	($10),y                 ; 0x2010 <main+0x1a2f>
    1c2f: a8           	tay
    1c30: 68           	pla
    1c31: c0 01        	cpy	#$1
    1c33: f0 03        	beq	$1c38 <main+0x1657>
    1c35: 4c 90 1c     	jmp	$1c90 <main+0x16af>
    1c38: a8           	tay
    1c39: f0 03        	beq	$1c3e <main+0x165d>
    1c3b: 4c 04 1d     	jmp	$1d04 <main+0x1723>
    1c3e: a0 0c        	ldy	#$c
    1c40: b1 10        	lda	($10),y                 ; 0x2010 <main+0x1a2f>
    1c42: a8           	tay
    1c43: f0 03        	beq	$1c48 <main+0x1667>
    1c45: 4c bd 1e     	jmp	$1ebd <main+0x18dc>
    1c48: e0 00        	cpx	#$0
    1c4a: a5 26        	lda	$26                     ; 0x2026 <main+0x1a45>
    1c4c: b0 4b        	bcs	$1c99 <main+0x16b8>
    1c4e: 4c 0d 1d     	jmp	$1d0d <main+0x172c>
    1c51: 48           	pha
    1c52: a0 0c        	ldy	#$c
    1c54: b1 10        	lda	($10),y                 ; 0x2010 <main+0x1a2f>
    1c56: 85 12        	sta	$12                     ; 0x2012 <main+0x1a31>
    1c58: 68           	pla
    1c59: a4 12        	ldy	$12                     ; 0x2012 <main+0x1a31>
    1c5b: d0 03        	bne	$1c60 <main+0x167f>
    1c5d: 4c 6b 1e     	jmp	$1e6b <main+0x188a>
    1c60: 85 15        	sta	$15                     ; 0x2015 <main+0x1a34>
    1c62: a5 2b        	lda	$2b                     ; 0x202b <main+0x1a4a>
    1c64: 18           	clc
    1c65: 69 ec        	adc	#$ec
    1c67: 85 14        	sta	$14                     ; 0x2014 <main+0x1a33>
    1c69: a0 0d        	ldy	#$d
    1c6b: b1 10        	lda	($10),y                 ; 0x2010 <main+0x1a2f>
    1c6d: a8           	tay
    1c6e: c9 01        	cmp	#$1
    1c70: f0 03        	beq	$1c75 <main+0x1694>
    1c72: 4c 96 1e     	jmp	$1e96 <main+0x18b5>
    1c75: a5 15        	lda	$15                     ; 0x2015 <main+0x1a34>
    1c77: f0 03        	beq	$1c7c <main+0x169b>
    1c79: 4c 3f 1a     	jmp	$1a3f <main+0x145e>
    1c7c: a0 0c        	ldy	#$c
    1c7e: b1 10        	lda	($10),y                 ; 0x2010 <main+0x1a2f>
    1c80: a8           	tay
    1c81: f0 03        	beq	$1c86 <main+0x16a5>
    1c83: 4c 41 1a     	jmp	$1a41 <main+0x1460>
    1c86: e0 00        	cpx	#$0
    1c88: 90 03        	bcc	$1c8d <main+0x16ac>
    1c8a: 4c 48 1a     	jmp	$1a48 <main+0x1467>
    1c8d: 4c 9d 1e     	jmp	$1e9d <main+0x18bc>
    1c90: c0 01        	cpy	#$1
    1c92: a5 26        	lda	$26                     ; 0x2026 <main+0x1a45>
    1c94: b0 03        	bcs	$1c99 <main+0x16b8>
    1c96: 4c 0d 1d     	jmp	$1d0d <main+0x172c>
    1c99: aa           	tax
    1c9a: d0 03        	bne	$1c9f <main+0x16be>
    1c9c: 4c d7 1b     	jmp	$1bd7 <main+0x15f6>
    1c9f: a6 32        	ldx	$32                     ; 0x2032 <main+0x1a51>
    1ca1: d0 03        	bne	$1ca6 <main+0x16c5>
    1ca3: 4c c9 1e     	jmp	$1ec9 <main+0x18e8>
    1ca6: a6 33        	ldx	$33                     ; 0x2033 <main+0x1a52>
    1ca8: d0 03        	bne	$1cad <main+0x16cc>
    1caa: 4c e9 1a     	jmp	$1ae9 <main+0x1508>
    1cad: a6 34        	ldx	$34                     ; 0x2034 <main+0x1a53>
    1caf: d0 03        	bne	$1cb4 <main+0x16d3>
    1cb1: 4c ed 1a     	jmp	$1aed <main+0x150c>
    1cb4: a6 35        	ldx	$35                     ; 0x2035 <main+0x1a54>
    1cb6: d0 03        	bne	$1cbb <main+0x16da>
    1cb8: 4c f1 1a     	jmp	$1af1 <main+0x1510>
    1cbb: a6 36        	ldx	$36                     ; 0x2036 <main+0x1a55>
    1cbd: d0 03        	bne	$1cc2 <main+0x16e1>
    1cbf: 4c fa 1a     	jmp	$1afa <main+0x1519>
    1cc2: a6 37        	ldx	$37                     ; 0x2037 <main+0x1a56>
    1cc4: d0 03        	bne	$1cc9 <main+0x16e8>
    1cc6: 4c 07 1b     	jmp	$1b07 <main+0x1526>
    1cc9: a6 38        	ldx	$38                     ; 0x2038 <main+0x1a57>
    1ccb: d0 03        	bne	$1cd0 <main+0x16ef>
    1ccd: 4c 0b 1b     	jmp	$1b0b <main+0x152a>
    1cd0: a6 39        	ldx	$39                     ; 0x2039 <main+0x1a58>
    1cd2: d0 03        	bne	$1cd7 <main+0x16f6>
    1cd4: 4c 0f 1b     	jmp	$1b0f <main+0x152e>
    1cd7: a6 3a        	ldx	$3a                     ; 0x203a <main+0x1a59>
    1cd9: d0 03        	bne	$1cde <main+0x16fd>
    1cdb: 4c 13 1b     	jmp	$1b13 <main+0x1532>
    1cde: a6 3b        	ldx	$3b                     ; 0x203b <main+0x1a5a>
    1ce0: d0 03        	bne	$1ce5 <main+0x1704>
    1ce2: 4c e9 1b     	jmp	$1be9 <main+0x1608>
    1ce5: a6 3c        	ldx	$3c                     ; 0x203c <main+0x1a5b>
    1ce7: d0 03        	bne	$1cec <main+0x170b>
    1ce9: 4c ed 1b     	jmp	$1bed <main+0x160c>
    1cec: a6 3d        	ldx	$3d                     ; 0x203d <main+0x1a5c>
    1cee: d0 03        	bne	$1cf3 <main+0x1712>
    1cf0: 4c f1 1b     	jmp	$1bf1 <main+0x1610>
    1cf3: a6 3e        	ldx	$3e                     ; 0x203e <main+0x1a5d>
    1cf5: d0 03        	bne	$1cfa <main+0x1719>
    1cf7: 4c ae 12     	jmp	$12ae <main+0xccd>
    1cfa: a6 3f        	ldx	$3f                     ; 0x203f <main+0x1a5e>
    1cfc: f0 03        	beq	$1d01 <main+0x1720>
    1cfe: 4c 87 12     	jmp	$1287 <main+0xca6>
    1d01: 4c b3 12     	jmp	$12b3 <main+0xcd2>
    1d04: c9 00        	cmp	#$0
    1d06: a5 26        	lda	$26                     ; 0x2026 <main+0x1a45>
    1d08: 90 03        	bcc	$1d0d <main+0x172c>
    1d0a: 4c 99 1c     	jmp	$1c99 <main+0x16b8>
    1d0d: a6 32        	ldx	$32                     ; 0x2032 <main+0x1a51>
    1d0f: 64 2e        	stz	$2e                     ; 0x202e <main+0x1a4d>
    1d11: 85 12        	sta	$12                     ; 0x2012 <main+0x1a31>
    1d13: 64 2f        	stz	$2f                     ; 0x202f <main+0x1a4e>
    1d15: 64 2a        	stz	$2a                     ; 0x202a <main+0x1a49>
    1d17: e4 12        	cpx	$12                     ; 0x2012 <main+0x1a31>
    1d19: d0 03        	bne	$1d1e <main+0x173d>
    1d1b: 4c 9b 1d     	jmp	$1d9b <main+0x17ba>
    1d1e: a6 33        	ldx	$33                     ; 0x2033 <main+0x1a52>
    1d20: a0 01        	ldy	#$1
    1d22: 85 12        	sta	$12                     ; 0x2012 <main+0x1a31>
    1d24: 84 2e        	sty	$2e                     ; 0x202e <main+0x1a4d>
    1d26: e4 12        	cpx	$12                     ; 0x2012 <main+0x1a31>
    1d28: d0 03        	bne	$1d2d <main+0x174c>
    1d2a: 4c 9b 1d     	jmp	$1d9b <main+0x17ba>
    1d2d: a6 34        	ldx	$34                     ; 0x2034 <main+0x1a53>
    1d2f: a0 02        	ldy	#$2
    1d31: 85 12        	sta	$12                     ; 0x2012 <main+0x1a31>
    1d33: 84 2e        	sty	$2e                     ; 0x202e <main+0x1a4d>
    1d35: e4 12        	cpx	$12                     ; 0x2012 <main+0x1a31>
    1d37: d0 03        	bne	$1d3c <main+0x175b>
    1d39: 4c 9b 1d     	jmp	$1d9b <main+0x17ba>
    1d3c: a6 35        	ldx	$35                     ; 0x2035 <main+0x1a54>
    1d3e: a0 03        	ldy	#$3
    1d40: 85 12        	sta	$12                     ; 0x2012 <main+0x1a31>
    1d42: 84 2e        	sty	$2e                     ; 0x202e <main+0x1a4d>
    1d44: e4 12        	cpx	$12                     ; 0x2012 <main+0x1a31>
    1d46: f0 53        	beq	$1d9b <main+0x17ba>
    1d48: a6 36        	ldx	$36                     ; 0x2036 <main+0x1a55>
    1d4a: a0 04        	ldy	#$4
    1d4c: 85 12        	sta	$12                     ; 0x2012 <main+0x1a31>
    1d4e: 84 2e        	sty	$2e                     ; 0x202e <main+0x1a4d>
    1d50: e4 12        	cpx	$12                     ; 0x2012 <main+0x1a31>
    1d52: f0 47        	beq	$1d9b <main+0x17ba>
    1d54: a6 37        	ldx	$37                     ; 0x2037 <main+0x1a56>
    1d56: a0 05        	ldy	#$5
    1d58: 85 12        	sta	$12                     ; 0x2012 <main+0x1a31>
    1d5a: 84 2e        	sty	$2e                     ; 0x202e <main+0x1a4d>
    1d5c: e4 12        	cpx	$12                     ; 0x2012 <main+0x1a31>
    1d5e: f0 3b        	beq	$1d9b <main+0x17ba>
    1d60: a6 38        	ldx	$38                     ; 0x2038 <main+0x1a57>
    1d62: a0 06        	ldy	#$6
    1d64: 85 12        	sta	$12                     ; 0x2012 <main+0x1a31>
    1d66: 84 2e        	sty	$2e                     ; 0x202e <main+0x1a4d>
    1d68: e4 12        	cpx	$12                     ; 0x2012 <main+0x1a31>
    1d6a: f0 2f        	beq	$1d9b <main+0x17ba>
    1d6c: a6 39        	ldx	$39                     ; 0x2039 <main+0x1a58>
    1d6e: a0 07        	ldy	#$7
    1d70: 85 12        	sta	$12                     ; 0x2012 <main+0x1a31>
    1d72: 84 2e        	sty	$2e                     ; 0x202e <main+0x1a4d>
    1d74: e4 12        	cpx	$12                     ; 0x2012 <main+0x1a31>
    1d76: f0 23        	beq	$1d9b <main+0x17ba>
    1d78: a6 3a        	ldx	$3a                     ; 0x203a <main+0x1a59>
    1d7a: a0 08        	ldy	#$8
    1d7c: 85 12        	sta	$12                     ; 0x2012 <main+0x1a31>
    1d7e: 84 2e        	sty	$2e                     ; 0x202e <main+0x1a4d>
    1d80: e4 12        	cpx	$12                     ; 0x2012 <main+0x1a31>
    1d82: f0 17        	beq	$1d9b <main+0x17ba>
    1d84: a6 3b        	ldx	$3b                     ; 0x203b <main+0x1a5a>
    1d86: a0 09        	ldy	#$9
    1d88: 85 12        	sta	$12                     ; 0x2012 <main+0x1a31>
    1d8a: 84 2e        	sty	$2e                     ; 0x202e <main+0x1a4d>
    1d8c: a0 01        	ldy	#$1
    1d8e: 84 2f        	sty	$2f                     ; 0x202f <main+0x1a4e>
    1d90: a0 09        	ldy	#$9
    1d92: 84 2a        	sty	$2a                     ; 0x202a <main+0x1a49>
    1d94: e4 12        	cpx	$12                     ; 0x2012 <main+0x1a31>
    1d96: f0 03        	beq	$1d9b <main+0x17ba>
    1d98: 4c 6a 1f     	jmp	$1f6a <main+0x1989>
    1d9b: 18           	clc
    1d9c: 69 05        	adc	#$5
    1d9e: a8           	tay
    1d9f: a9 00        	lda	#$0
    1da1: 69 00        	adc	#$0
    1da3: 18           	clc
    1da4: 48           	pha
    1da5: a5 10        	lda	$10                     ; 0x2010 <main+0x1a2f>
    1da7: 69 10        	adc	#$10
    1da9: 85 24        	sta	$24                     ; 0x2024 <main+0x1a43>
    1dab: a5 11        	lda	$11                     ; 0x2011 <main+0x1a30>
    1dad: 69 00        	adc	#$0
    1daf: 85 25        	sta	$25                     ; 0x2025 <main+0x1a44>
    1db1: 68           	pla
    1db2: a6 24        	ldx	$24                     ; 0x2024 <main+0x1a43>
    1db4: 86 14        	stx	$14                     ; 0x2014 <main+0x1a33>
    1db6: a6 25        	ldx	$25                     ; 0x2025 <main+0x1a44>
    1db8: 86 15        	stx	$15                     ; 0x2015 <main+0x1a34>
    1dba: a2 0c        	ldx	#$c
    1dbc: 86 12        	stx	$12                     ; 0x2012 <main+0x1a31>
    1dbe: 64 13        	stz	$13                     ; 0x2013 <main+0x1a32>
    1dc0: aa           	tax
    1dc1: 98           	tya
    1dc2: 20 cd 42     	jsr	$42cd <__udivmodhi4>
    1dc5: 85 15        	sta	$15                     ; 0x2015 <main+0x1a34>
    1dc7: b2 24        	lda	($24)                   ; 0x2024 <main+0x1a43>
    1dc9: 85 12        	sta	$12                     ; 0x2012 <main+0x1a31>
    1dcb: a0 01        	ldy	#$1
    1dcd: b1 24        	lda	($24),y                 ; 0x2024 <main+0x1a43>
    1dcf: 06 12        	asl	$12                     ; 0x2012 <main+0x1a31>
    1dd1: 2a           	rol
    1dd2: 85 13        	sta	$13                     ; 0x2013 <main+0x1a32>
    1dd4: a9 07        	lda	#$7
    1dd6: 18           	clc
    1dd7: 65 12        	adc	$12                     ; 0x2012 <main+0x1a31>
    1dd9: 85 12        	sta	$12                     ; 0x2012 <main+0x1a31>
    1ddb: a9 46        	lda	#$46
    1ddd: 65 13        	adc	$13                     ; 0x2013 <main+0x1a32>
    1ddf: 85 13        	sta	$13                     ; 0x2013 <main+0x1a32>
    1de1: b2 12        	lda	($12)                   ; 0x2012 <main+0x1a31>
    1de3: 85 14        	sta	$14                     ; 0x2014 <main+0x1a33>
    1de5: b1 12        	lda	($12),y                 ; 0x2012 <main+0x1a31>
    1de7: aa           	tax
    1de8: 18           	clc
    1de9: a5 15        	lda	$15                     ; 0x2015 <main+0x1a34>
    1deb: 69 3e        	adc	#$3e
    1ded: 85 15        	sta	$15                     ; 0x2015 <main+0x1a34>
    1def: a5 2e        	lda	$2e                     ; 0x202e <main+0x1a4d>
    1df1: 38           	sec
    1df2: e5 2a        	sbc	$2a                     ; 0x202a <main+0x1a49>
    1df4: a8           	tay
    1df5: a9 00        	lda	#$0
    1df7: e5 2c        	sbc	$2c                     ; 0x202c <main+0x1a4b>
    1df9: 05 2f        	ora	$2f                     ; 0x202f <main+0x1a4e>
    1dfb: 85 12        	sta	$12                     ; 0x2012 <main+0x1a31>
    1dfd: 98           	tya
    1dfe: 09 a0        	ora	#$a0
    1e00: 85 17        	sta	$17                     ; 0x2017 <main+0x1a36>
    1e02: a5 12        	lda	$12                     ; 0x2012 <main+0x1a31>
    1e04: c9 01        	cmp	#$1
    1e06: d0 06        	bne	$1e0e <main+0x182d>
    1e08: 84 16        	sty	$16                     ; 0x2016 <main+0x1a35>
    1e0a: c0 00        	cpy	#$0
    1e0c: 80 04        	bra	$1e12 <main+0x1831>
    1e0e: 84 16        	sty	$16                     ; 0x2016 <main+0x1a35>
    1e10: c9 01        	cmp	#$1
    1e12: a0 80        	ldy	#$80
    1e14: 84 12        	sty	$12                     ; 0x2012 <main+0x1a31>
    1e16: a0 d5        	ldy	#$d5
    1e18: 84 13        	sty	$13                     ; 0x2013 <main+0x1a32>
    1e1a: 90 08        	bcc	$1e24 <main+0x1843>
    1e1c: a0 82        	ldy	#$82
    1e1e: 84 12        	sty	$12                     ; 0x2012 <main+0x1a31>
    1e20: a0 d5        	ldy	#$d5
    1e22: 84 13        	sty	$13                     ; 0x2013 <main+0x1a32>
    1e24: a5 17        	lda	$17                     ; 0x2017 <main+0x1a36>
    1e26: 92 12        	sta	($12)                   ; 0x2012 <main+0x1a31>
    1e28: a4 14        	ldy	$14                     ; 0x2014 <main+0x1a33>
    1e2a: 8c 81 d5     	sty	$d581                   ; 0xd581 <__heap_start+0x8c3f>
    1e2d: 8a           	txa
    1e2e: 29 03        	and	#$3
    1e30: 85 14        	sta	$14                     ; 0x2014 <main+0x1a33>
    1e32: a5 15        	lda	$15                     ; 0x2015 <main+0x1a34>
    1e34: 0a           	asl
    1e35: 0a           	asl
    1e36: 05 14        	ora	$14                     ; 0x2014 <main+0x1a33>
    1e38: aa           	tax
    1e39: a5 16        	lda	$16                     ; 0x2016 <main+0x1a35>
    1e3b: 09 b0        	ora	#$b0
    1e3d: 92 12        	sta	($12)                   ; 0x2012 <main+0x1a31>
    1e3f: 8e 81 d5     	stx	$d581                   ; 0xd581 <__heap_start+0x8c3f>
    1e42: a5 2e        	lda	$2e                     ; 0x202e <main+0x1a4d>
    1e44: 10 06        	bpl	$1e4c <main+0x186b>
    1e46: a2 ff        	ldx	#$ff
    1e48: 86 12        	stx	$12                     ; 0x2012 <main+0x1a31>
    1e4a: 80 02        	bra	$1e4e <main+0x186d>
    1e4c: 64 12        	stz	$12                     ; 0x2012 <main+0x1a31>
    1e4e: a9 32        	lda	#$32
    1e50: 18           	clc
    1e51: 65 2e        	adc	$2e                     ; 0x202e <main+0x1a4d>
    1e53: aa           	tax
    1e54: a9 00        	lda	#$0
    1e56: 65 12        	adc	$12                     ; 0x2012 <main+0x1a31>
    1e58: 86 12        	stx	$12                     ; 0x2012 <main+0x1a31>
    1e5a: 85 13        	sta	$13                     ; 0x2013 <main+0x1a32>
    1e5c: a9 00        	lda	#$0
    1e5e: 92 12        	sta	($12)                   ; 0x2012 <main+0x1a31>
    1e60: a6 31        	ldx	$31                     ; 0x2031 <main+0x1a50>
    1e62: d0 03        	bne	$1e67 <main+0x1886>
    1e64: 4c d7 1b     	jmp	$1bd7 <main+0x15f6>
    1e67: ca           	dex
    1e68: 4c d5 1b     	jmp	$1bd5 <main+0x15f4>
    1e6b: 85 14        	sta	$14                     ; 0x2014 <main+0x1a33>
    1e6d: a6 2b        	ldx	$2b                     ; 0x202b <main+0x1a4a>
    1e6f: a5 2b        	lda	$2b                     ; 0x202b <main+0x1a4a>
    1e71: 29 f0        	and	#$f0
    1e73: c9 80        	cmp	#$80
    1e75: d0 03        	bne	$1e7a <main+0x1899>
    1e77: 4c a8 1a     	jmp	$1aa8 <main+0x14c7>
    1e7a: c9 90        	cmp	#$90
    1e7c: f0 03        	beq	$1e81 <main+0x18a0>
    1e7e: 4c bd 1a     	jmp	$1abd <main+0x14dc>
    1e81: a0 01        	ldy	#$1
    1e83: 98           	tya
    1e84: a0 0c        	ldy	#$c
    1e86: 91 10        	sta	($10),y                 ; 0x2010 <main+0x1a2f>
    1e88: a0 00        	ldy	#$0
    1e8a: 5a           	phy
    1e8b: 8a           	txa
    1e8c: a0 0a        	ldy	#$a
    1e8e: 91 10        	sta	($10),y                 ; 0x2010 <main+0x1a2f>
    1e90: a2 01        	ldx	#$1
    1e92: 8a           	txa
    1e93: 4c e1 1a     	jmp	$1ae1 <main+0x1500>
    1e96: c0 01        	cpy	#$1
    1e98: 90 03        	bcc	$1e9d <main+0x18bc>
    1e9a: 4c 48 1a     	jmp	$1a48 <main+0x1467>
    1e9d: a6 14        	ldx	$14                     ; 0x2014 <main+0x1a33>
    1e9f: 64 12        	stz	$12                     ; 0x2012 <main+0x1a31>
    1ea1: bd ae 45     	lda	$45ae,x                 ; 0x45ae <__set_v+0x206>
    1ea4: aa           	tax
    1ea5: a9 00        	lda	#$0
    1ea7: a0 01        	ldy	#$1
    1ea9: e0 00        	cpx	#$0
    1eab: f0 02        	beq	$1eaf <main+0x18ce>
    1ead: a9 01        	lda	#$1
    1eaf: 4a           	lsr
    1eb0: a9 00        	lda	#$0
    1eb2: 6a           	ror
    1eb3: 30 03        	bmi	$1eb8 <main+0x18d7>
    1eb5: 4c 58 1a     	jmp	$1a58 <main+0x1477>
    1eb8: a2 ff        	ldx	#$ff
    1eba: 4c 5a 1a     	jmp	$1a5a <main+0x1479>
    1ebd: c0 00        	cpy	#$0
    1ebf: a5 26        	lda	$26                     ; 0x2026 <main+0x1a45>
    1ec1: 90 03        	bcc	$1ec6 <main+0x18e5>
    1ec3: 4c 99 1c     	jmp	$1c99 <main+0x16b8>
    1ec6: 4c 0d 1d     	jmp	$1d0d <main+0x172c>
    1ec9: 64 12        	stz	$12                     ; 0x2012 <main+0x1a31>
    1ecb: 48           	pha
    1ecc: a9 00        	lda	#$0
    1ece: 4c 17 1b     	jmp	$1b17 <main+0x1536>
    1ed1: e6 27        	inc	$27                     ; 0x2027 <main+0x1a46>
    1ed3: c6 27        	dec	$27                     ; 0x2027 <main+0x1a46>
    1ed5: f0 03        	beq	$1eda <main+0x18f9>
    1ed7: 4c 1b 1c     	jmp	$1c1b <main+0x163a>
    1eda: 64 44        	stz	$44                     ; 0x2044 <main+0x1a63>
    1edc: 18           	clc
    1edd: a5 10        	lda	$10                     ; 0x2010 <main+0x1a2f>
    1edf: 69 1b        	adc	#$1b
    1ee1: 85 12        	sta	$12                     ; 0x2012 <main+0x1a31>
    1ee3: a5 11        	lda	$11                     ; 0x2011 <main+0x1a30>
    1ee5: 69 00        	adc	#$0
    1ee7: 85 13        	sta	$13                     ; 0x2013 <main+0x1a32>
    1ee9: a2 a1        	ldx	#$a1
    1eeb: 86 14        	stx	$14                     ; 0x2014 <main+0x1a33>
    1eed: a2 48        	ldx	#$48
    1eef: 86 15        	stx	$15                     ; 0x2015 <main+0x1a34>
    1ef1: 20 00 ff     	jsr	$ff00 <__heap_start+0xb5be>
    1ef4: 92 12        	sta	($12)                   ; 0x2012 <main+0x1a31>
    1ef6: a9 00        	lda	#$0
    1ef8: 6a           	ror
    1ef9: 85 14        	sta	$14                     ; 0x2014 <main+0x1a33>
    1efb: a6 44        	ldx	$44                     ; 0x2044 <main+0x1a63>
    1efd: e0 0a        	cpx	#$a
    1eff: d0 03        	bne	$1f04 <main+0x1923>
    1f01: 4c 5b 1f     	jmp	$1f5b <main+0x197a>
    1f04: e0 08        	cpx	#$8
    1f06: f0 03        	beq	$1f0b <main+0x192a>
    1f08: 4c 34 12     	jmp	$1234 <main+0xc53>
    1f0b: a9 7f        	lda	#$7f
    1f0d: 18           	clc
    1f0e: 65 48        	adc	$48                     ; 0x2048 <main+0x1a67>
    1f10: c9 e6        	cmp	#$e6
    1f12: 90 03        	bcc	$1f17 <main+0x1936>
    1f14: 4c 34 12     	jmp	$1234 <main+0xc53>
    1f17: aa           	tax
    1f18: 84 27        	sty	$27                     ; 0x2027 <main+0x1a46>
    1f1a: bc a9 43     	ldy	$43a9,x                 ; 0x43a9 <__set_v+0x1>
    1f1d: bd 8f 44     	lda	$448f,x                 ; 0x448f <__set_v+0xe7>
    1f20: aa           	tax
    1f21: 84 12        	sty	$12                     ; 0x2012 <main+0x1a31>
    1f23: a4 27        	ldy	$27                     ; 0x2027 <main+0x1a46>
    1f25: 86 13        	stx	$13                     ; 0x2013 <main+0x1a32>
    1f27: 6c 12 00     	jmp	($12)                   ; 0x12 <__rc2>
    1f2a: a6 50        	ldx	$50                     ; 0x2050 <main+0x1a6f>
    1f2c: 86 12        	stx	$12                     ; 0x2012 <main+0x1a31>
    1f2e: 64 14        	stz	$14                     ; 0x2014 <main+0x1a33>
    1f30: 8a           	txa
    1f31: 0a           	asl
    1f32: 26 14        	rol	$14                     ; 0x2014 <main+0x1a33>
    1f34: 0a           	asl
    1f35: 26 14        	rol	$14                     ; 0x2014 <main+0x1a33>
    1f37: 0a           	asl
    1f38: 26 14        	rol	$14                     ; 0x2014 <main+0x1a33>
    1f3a: 38           	sec
    1f3b: e5 12        	sbc	$12                     ; 0x2012 <main+0x1a31>
    1f3d: 85 16        	sta	$16                     ; 0x2016 <main+0x1a35>
    1f3f: 85 13        	sta	$13                     ; 0x2013 <main+0x1a32>
    1f41: a5 14        	lda	$14                     ; 0x2014 <main+0x1a33>
    1f43: e9 00        	sbc	#$0
    1f45: a8           	tay
    1f46: 85 14        	sta	$14                     ; 0x2014 <main+0x1a33>
    1f48: a9 a7        	lda	#$a7
    1f4a: 18           	clc
    1f4b: 65 13        	adc	$13                     ; 0x2013 <main+0x1a32>
    1f4d: aa           	tax
    1f4e: a9 48        	lda	#$48
    1f50: 65 14        	adc	$14                     ; 0x2014 <main+0x1a33>
    1f52: 86 14        	stx	$14                     ; 0x2014 <main+0x1a33>
    1f54: 85 15        	sta	$15                     ; 0x2015 <main+0x1a34>
    1f56: a9 0c        	lda	#$c
    1f58: 4c 17 1a     	jmp	$1a17 <main+0x1436>
    1f5b: a6 48        	ldx	$48                     ; 0x2048 <main+0x1a67>
    1f5d: e0 02        	cpx	#$2
    1f5f: 90 03        	bcc	$1f64 <main+0x1983>
    1f61: 4c 34 12     	jmp	$1234 <main+0xc53>
    1f64: 9c a6 48     	stz	$48a6                   ; 0x48a6 <shiftTog>
    1f67: 4c 34 12     	jmp	$1234 <main+0xc53>
    1f6a: a6 3c        	ldx	$3c                     ; 0x203c <main+0x1a5b>
    1f6c: a0 0a        	ldy	#$a
    1f6e: 85 12        	sta	$12                     ; 0x2012 <main+0x1a31>
    1f70: 84 2e        	sty	$2e                     ; 0x202e <main+0x1a4d>
    1f72: a0 01        	ldy	#$1
    1f74: 84 2f        	sty	$2f                     ; 0x202f <main+0x1a4e>
    1f76: a0 09        	ldy	#$9
    1f78: 84 2a        	sty	$2a                     ; 0x202a <main+0x1a49>
    1f7a: e4 12        	cpx	$12                     ; 0x2012 <main+0x1a31>
    1f7c: d0 03        	bne	$1f81 <main+0x19a0>
    1f7e: 4c 9b 1d     	jmp	$1d9b <main+0x17ba>
    1f81: a6 3d        	ldx	$3d                     ; 0x203d <main+0x1a5c>
    1f83: a0 0b        	ldy	#$b
    1f85: 85 12        	sta	$12                     ; 0x2012 <main+0x1a31>
    1f87: 84 2e        	sty	$2e                     ; 0x202e <main+0x1a4d>
    1f89: a0 01        	ldy	#$1
    1f8b: 84 2f        	sty	$2f                     ; 0x202f <main+0x1a4e>
    1f8d: a0 09        	ldy	#$9
    1f8f: 84 2a        	sty	$2a                     ; 0x202a <main+0x1a49>
    1f91: e4 12        	cpx	$12                     ; 0x2012 <main+0x1a31>
    1f93: d0 03        	bne	$1f98 <main+0x19b7>
    1f95: 4c 9b 1d     	jmp	$1d9b <main+0x17ba>
    1f98: a6 3e        	ldx	$3e                     ; 0x203e <main+0x1a5d>
    1f9a: a0 0c        	ldy	#$c
    1f9c: 85 12        	sta	$12                     ; 0x2012 <main+0x1a31>
    1f9e: 84 2e        	sty	$2e                     ; 0x202e <main+0x1a4d>
    1fa0: a0 01        	ldy	#$1
    1fa2: 84 2f        	sty	$2f                     ; 0x202f <main+0x1a4e>
    1fa4: a0 09        	ldy	#$9
    1fa6: 84 2a        	sty	$2a                     ; 0x202a <main+0x1a49>
    1fa8: e4 12        	cpx	$12                     ; 0x2012 <main+0x1a31>
    1faa: d0 03        	bne	$1faf <main+0x19ce>
    1fac: 4c 9b 1d     	jmp	$1d9b <main+0x17ba>
    1faf: a6 3f        	ldx	$3f                     ; 0x203f <main+0x1a5e>
    1fb1: a0 0d        	ldy	#$d
    1fb3: 85 12        	sta	$12                     ; 0x2012 <main+0x1a31>
    1fb5: 84 2e        	sty	$2e                     ; 0x202e <main+0x1a4d>
    1fb7: a0 01        	ldy	#$1
    1fb9: 84 2f        	sty	$2f                     ; 0x202f <main+0x1a4e>
    1fbb: a0 09        	ldy	#$9
    1fbd: 84 2a        	sty	$2a                     ; 0x202a <main+0x1a49>
    1fbf: e4 12        	cpx	$12                     ; 0x2012 <main+0x1a31>
    1fc1: d0 03        	bne	$1fc6 <main+0x19e5>
    1fc3: 4c 9b 1d     	jmp	$1d9b <main+0x17ba>
    1fc6: a6 40        	ldx	$40                     ; 0x2040 <main+0x1a5f>
    1fc8: a0 0e        	ldy	#$e
    1fca: 85 12        	sta	$12                     ; 0x2012 <main+0x1a31>
    1fcc: 84 2e        	sty	$2e                     ; 0x202e <main+0x1a4d>
    1fce: a0 01        	ldy	#$1
    1fd0: 84 2f        	sty	$2f                     ; 0x202f <main+0x1a4e>
    1fd2: a0 09        	ldy	#$9
    1fd4: 84 2a        	sty	$2a                     ; 0x202a <main+0x1a49>
    1fd6: e4 12        	cpx	$12                     ; 0x2012 <main+0x1a31>
    1fd8: d0 03        	bne	$1fdd <main+0x19fc>
    1fda: 4c 9b 1d     	jmp	$1d9b <main+0x17ba>
    1fdd: a6 41        	ldx	$41                     ; 0x2041 <main+0x1a60>
    1fdf: a0 0f        	ldy	#$f
    1fe1: 85 12        	sta	$12                     ; 0x2012 <main+0x1a31>
    1fe3: 84 2e        	sty	$2e                     ; 0x202e <main+0x1a4d>
    1fe5: a0 01        	ldy	#$1
    1fe7: 84 2f        	sty	$2f                     ; 0x202f <main+0x1a4e>
    1fe9: a0 09        	ldy	#$9
    1feb: 84 2a        	sty	$2a                     ; 0x202a <main+0x1a49>
    1fed: e4 12        	cpx	$12                     ; 0x2012 <main+0x1a31>
    1fef: d0 03        	bne	$1ff4 <main+0x1a13>
    1ff1: 4c 9b 1d     	jmp	$1d9b <main+0x17ba>
    1ff4: a6 42        	ldx	$42                     ; 0x2042 <main+0x1a61>
    1ff6: a0 10        	ldy	#$10
    1ff8: 85 12        	sta	$12                     ; 0x2012 <main+0x1a31>
    1ffa: 84 2e        	sty	$2e                     ; 0x202e <main+0x1a4d>
    1ffc: a0 01        	ldy	#$1
    1ffe: 84 2f        	sty	$2f                     ; 0x202f <main+0x1a4e>
    2000: a0 09        	ldy	#$9
    2002: 84 2a        	sty	$2a                     ; 0x202a <main+0x1a49>
    2004: e4 12        	cpx	$12                     ; 0x2012 <main+0x1a31>
    2006: d0 03        	bne	$200b <main+0x1a2a>
    2008: 4c 9b 1d     	jmp	$1d9b <main+0x17ba>
    200b: a6 43        	ldx	$43                     ; 0x2043 <main+0x1a62>
    200d: a0 11        	ldy	#$11
    200f: 85 12        	sta	$12                     ; 0x2012 <main+0x1a31>
    2011: 84 2e        	sty	$2e                     ; 0x202e <main+0x1a4d>
    2013: a0 01        	ldy	#$1
    2015: 84 2f        	sty	$2f                     ; 0x202f <main+0x1a4e>
    2017: a0 09        	ldy	#$9
    2019: 84 2a        	sty	$2a                     ; 0x202a <main+0x1a49>
    201b: e4 12        	cpx	$12                     ; 0x2012 <main+0x1a31>
    201d: d0 03        	bne	$2022 <main+0x1a41>
    201f: 4c 9b 1d     	jmp	$1d9b <main+0x17ba>
    2022: a2 ff        	ldx	#$ff
    2024: 86 2e        	stx	$2e                     ; 0x202e <main+0x1a4d>
    2026: a2 01        	ldx	#$1
    2028: 86 2f        	stx	$2f                     ; 0x202f <main+0x1a4e>
    202a: a2 09        	ldx	#$9
    202c: 86 2a        	stx	$2a                     ; 0x202a <main+0x1a49>
    202e: 4c 9b 1d     	jmp	$1d9b <main+0x17ba>
    2031: ae a7 48     	ldx	$48a7                   ; 0x48a7 <opl3_fields>
    2034: f0 03        	beq	$2039 <main+0x1a58>
    2036: 4c d7 14     	jmp	$14d7 <main+0xef6>
    2039: a2 07        	ldx	#$7
    203b: 8e a7 48     	stx	$48a7                   ; 0x48a7 <opl3_fields>
    203e: 64 12        	stz	$12                     ; 0x2012 <main+0x1a31>
    2040: 64 13        	stz	$13                     ; 0x2013 <main+0x1a32>
    2042: 4c 08 15     	jmp	$1508 <main+0xf27>
    2045: ae a7 48     	ldx	$48a7                   ; 0x48a7 <opl3_fields>
    2048: e0 08        	cpx	#$8
    204a: b0 03        	bcs	$204f <main+0x1a6e>
    204c: 4c 59 15     	jmp	$1559 <main+0xf78>
    204f: 9c a7 48     	stz	$48a7                   ; 0x48a7 <opl3_fields>
    2052: b2 14        	lda	($14)                   ; 0x2014 <main+0x1a33>
    2054: 4c 59 15     	jmp	$1559 <main+0xf78>
    2057: a2 30        	ldx	#$30
    2059: 86 30        	stx	$30                     ; 0x2030 <main+0x1a4f>
    205b: ae ac 48     	ldx	$48ac                   ; 0x48ac <opl3_fields+0x5>
    205e: ac ad 48     	ldy	$48ad                   ; 0x48ad <opl3_fields+0x6>
    2061: 86 4b        	stx	$4b                     ; 0x204b <main+0x1a6a>
    2063: 8e 14 d0     	stx	$d014                   ; 0xd014 <__heap_start+0x86d2>
    2066: 9c 15 d0     	stz	$d015                   ; 0xd015 <__heap_start+0x86d3>
    2069: 84 4c        	sty	$4c                     ; 0x204c <main+0x1a6b>
    206b: 8c 16 d0     	sty	$d016                   ; 0xd016 <__heap_start+0x86d4>
    206e: 9c 17 d0     	stz	$d017                   ; 0xd017 <__heap_start+0x86d5>
    2071: ad a7 48     	lda	$48a7                   ; 0x48a7 <opl3_fields>
    2074: 92 10        	sta	($10)                   ; 0x2010 <main+0x1a2f>
    2076: a0 01        	ldy	#$1
    2078: a9 00        	lda	#$0
    207a: 91 10        	sta	($10),y                 ; 0x2010 <main+0x1a2f>
    207c: a2 d6        	ldx	#$d6
    207e: 86 12        	stx	$12                     ; 0x2012 <main+0x1a31>
    2080: a2 46        	ldx	#$46
    2082: 86 13        	stx	$13                     ; 0x2013 <main+0x1a32>
    2084: 20 55 36     	jsr	$3655 <printf>
    2087: a2 f3        	ldx	#$f3
    2089: 86 30        	stx	$30                     ; 0x2030 <main+0x1a4f>
    208b: ae 46 49     	ldx	$4946                   ; 0x4946 <__heap_start+0x4>
    208e: ac 47 49     	ldy	$4947                   ; 0x4947 <__heap_start+0x5>
    2091: 86 4b        	stx	$4b                     ; 0x204b <main+0x1a6a>
    2093: 8e 14 d0     	stx	$d014                   ; 0xd014 <__heap_start+0x86d2>
    2096: 9c 15 d0     	stz	$d015                   ; 0xd015 <__heap_start+0x86d3>
    2099: 84 4c        	sty	$4c                     ; 0x204c <main+0x1a6b>
    209b: 8c 16 d0     	sty	$d016                   ; 0xd016 <__heap_start+0x86d4>
    209e: 9c 17 d0     	stz	$d017                   ; 0xd017 <__heap_start+0x86d5>
    20a1: ad 41 49     	lda	$4941                   ; 0x4941 <end_block9>
    20a4: 92 10        	sta	($10)                   ; 0x2010 <main+0x1a2f>
    20a6: a9 00        	lda	#$0
    20a8: a0 01        	ldy	#$1
    20aa: 4c 62 12     	jmp	$1262 <main+0xc81>
    20ad: a9 0f        	lda	#$f
    20af: 4c 06 15     	jmp	$1506 <main+0xf25>
    20b2: ca           	dex
    20b3: 86 2a        	stx	$2a                     ; 0x202a <main+0x1a49>
    20b5: a2 30        	ldx	#$30
    20b7: 86 30        	stx	$30                     ; 0x2030 <main+0x1a4f>
    20b9: 38           	sec
    20ba: e5 24        	sbc	$24                     ; 0x2024 <main+0x1a43>
    20bc: 85 12        	sta	$12                     ; 0x2012 <main+0x1a31>
    20be: 98           	tya
    20bf: e9 00        	sbc	#$0
    20c1: 85 13        	sta	$13                     ; 0x2013 <main+0x1a32>
    20c3: a9 a7        	lda	#$a7
    20c5: 18           	clc
    20c6: 65 12        	adc	$12                     ; 0x2012 <main+0x1a31>
    20c8: 85 12        	sta	$12                     ; 0x2012 <main+0x1a31>
    20ca: a9 48        	lda	#$48
    20cc: 65 13        	adc	$13                     ; 0x2013 <main+0x1a32>
    20ce: 85 13        	sta	$13                     ; 0x2013 <main+0x1a32>
    20d0: a0 05        	ldy	#$5
    20d2: b1 12        	lda	($12),y                 ; 0x2012 <main+0x1a31>
    20d4: 85 14        	sta	$14                     ; 0x2014 <main+0x1a33>
    20d6: c8           	iny
    20d7: b1 12        	lda	($12),y                 ; 0x2012 <main+0x1a31>
    20d9: a4 14        	ldy	$14                     ; 0x2014 <main+0x1a33>
    20db: 84 4b        	sty	$4b                     ; 0x204b <main+0x1a6a>
    20dd: 8c 14 d0     	sty	$d014                   ; 0xd014 <__heap_start+0x86d2>
    20e0: 9c 15 d0     	stz	$d015                   ; 0xd015 <__heap_start+0x86d3>
    20e3: 85 4c        	sta	$4c                     ; 0x204c <main+0x1a6b>
    20e5: 8d 16 d0     	sta	$d016                   ; 0xd016 <__heap_start+0x86d4>
    20e8: 9c 17 d0     	stz	$d017                   ; 0xd017 <__heap_start+0x86d5>
    20eb: b2 12        	lda	($12)                   ; 0x2012 <main+0x1a31>
    20ed: 92 10        	sta	($10)                   ; 0x2010 <main+0x1a2f>
    20ef: a0 01        	ldy	#$1
    20f1: a9 00        	lda	#$0
    20f3: 91 10        	sta	($10),y                 ; 0x2010 <main+0x1a2f>
    20f5: a2 d6        	ldx	#$d6
    20f7: 86 12        	stx	$12                     ; 0x2012 <main+0x1a31>
    20f9: a2 46        	ldx	#$46
    20fb: 86 13        	stx	$13                     ; 0x2013 <main+0x1a32>
    20fd: 20 55 36     	jsr	$3655 <printf>
    2100: a2 f3        	ldx	#$f3
    2102: 86 30        	stx	$30                     ; 0x2030 <main+0x1a4f>
    2104: a6 2a        	ldx	$2a                     ; 0x202a <main+0x1a49>
    2106: a5 2a        	lda	$2a                     ; 0x202a <main+0x1a49>
    2108: 0a           	asl
    2109: 64 13        	stz	$13                     ; 0x2013 <main+0x1a32>
    210b: 26 13        	rol	$13                     ; 0x2013 <main+0x1a32>
    210d: 0a           	asl
    210e: 26 13        	rol	$13                     ; 0x2013 <main+0x1a32>
    2110: 0a           	asl
    2111: 26 13        	rol	$13                     ; 0x2013 <main+0x1a32>
    2113: 86 12        	stx	$12                     ; 0x2012 <main+0x1a31>
    2115: 86 24        	stx	$24                     ; 0x2024 <main+0x1a43>
    2117: 38           	sec
    2118: e5 12        	sbc	$12                     ; 0x2012 <main+0x1a31>
    211a: 85 12        	sta	$12                     ; 0x2012 <main+0x1a31>
    211c: a5 13        	lda	$13                     ; 0x2013 <main+0x1a32>
    211e: e9 00        	sbc	#$0
    2120: 85 13        	sta	$13                     ; 0x2013 <main+0x1a32>
    2122: 18           	clc
    2123: a9 a7        	lda	#$a7
    2125: 65 12        	adc	$12                     ; 0x2012 <main+0x1a31>
    2127: 85 12        	sta	$12                     ; 0x2012 <main+0x1a31>
    2129: a9 48        	lda	#$48
    212b: 65 13        	adc	$13                     ; 0x2013 <main+0x1a32>
    212d: 85 13        	sta	$13                     ; 0x2013 <main+0x1a32>
    212f: a0 05        	ldy	#$5
    2131: b1 12        	lda	($12),y                 ; 0x2012 <main+0x1a31>
    2133: 85 14        	sta	$14                     ; 0x2014 <main+0x1a33>
    2135: c8           	iny
    2136: b1 12        	lda	($12),y                 ; 0x2012 <main+0x1a31>
    2138: a4 14        	ldy	$14                     ; 0x2014 <main+0x1a33>
    213a: 84 4b        	sty	$4b                     ; 0x204b <main+0x1a6a>
    213c: 8c 14 d0     	sty	$d014                   ; 0xd014 <__heap_start+0x86d2>
    213f: 9c 15 d0     	stz	$d015                   ; 0xd015 <__heap_start+0x86d3>
    2142: 85 4c        	sta	$4c                     ; 0x204c <main+0x1a6b>
    2144: 8d 16 d0     	sta	$d016                   ; 0xd016 <__heap_start+0x86d4>
    2147: 9c 17 d0     	stz	$d017                   ; 0xd017 <__heap_start+0x86d5>
    214a: b2 12        	lda	($12)                   ; 0x2012 <main+0x1a31>
    214c: 92 10        	sta	($10)                   ; 0x2010 <main+0x1a2f>
    214e: a0 01        	ldy	#$1
    2150: a9 00        	lda	#$0
    2152: 4c 1f 19     	jmp	$191f <main+0x133e>
    2155: a9 00        	lda	#$0
    2157: 4c 7b 14     	jmp	$147b <main+0xe9a>
    215a: a2 30        	ldx	#$30
    215c: 86 30        	stx	$30                     ; 0x2030 <main+0x1a4f>
    215e: ae 46 49     	ldx	$4946                   ; 0x4946 <__heap_start+0x4>
    2161: ac 47 49     	ldy	$4947                   ; 0x4947 <__heap_start+0x5>
    2164: 86 4b        	stx	$4b                     ; 0x204b <main+0x1a6a>
    2166: 8e 14 d0     	stx	$d014                   ; 0xd014 <__heap_start+0x86d2>
    2169: 64 24        	stz	$24                     ; 0x2024 <main+0x1a43>
    216b: 9c 15 d0     	stz	$d015                   ; 0xd015 <__heap_start+0x86d3>
    216e: 84 4c        	sty	$4c                     ; 0x204c <main+0x1a6b>
    2170: 8c 16 d0     	sty	$d016                   ; 0xd016 <__heap_start+0x86d4>
    2173: 9c 17 d0     	stz	$d017                   ; 0xd017 <__heap_start+0x86d5>
    2176: ad 41 49     	lda	$4941                   ; 0x4941 <end_block9>
    2179: 92 10        	sta	($10)                   ; 0x2010 <main+0x1a2f>
    217b: a0 01        	ldy	#$1
    217d: a9 00        	lda	#$0
    217f: 91 10        	sta	($10),y                 ; 0x2010 <main+0x1a2f>
    2181: a2 d6        	ldx	#$d6
    2183: 86 12        	stx	$12                     ; 0x2012 <main+0x1a31>
    2185: a2 46        	ldx	#$46
    2187: 86 13        	stx	$13                     ; 0x2013 <main+0x1a32>
    2189: 20 55 36     	jsr	$3655 <printf>
    218c: a2 f3        	ldx	#$f3
    218e: 86 30        	stx	$30                     ; 0x2030 <main+0x1a4f>
    2190: ae ac 48     	ldx	$48ac                   ; 0x48ac <opl3_fields+0x5>
    2193: ac ad 48     	ldy	$48ad                   ; 0x48ad <opl3_fields+0x6>
    2196: 86 4b        	stx	$4b                     ; 0x204b <main+0x1a6a>
    2198: 8e 14 d0     	stx	$d014                   ; 0xd014 <__heap_start+0x86d2>
    219b: 9c 15 d0     	stz	$d015                   ; 0xd015 <__heap_start+0x86d3>
    219e: 84 4c        	sty	$4c                     ; 0x204c <main+0x1a6b>
    21a0: 8c 16 d0     	sty	$d016                   ; 0xd016 <__heap_start+0x86d4>
    21a3: 9c 17 d0     	stz	$d017                   ; 0xd017 <__heap_start+0x86d5>
    21a6: a2 a7        	ldx	#$a7
    21a8: 86 12        	stx	$12                     ; 0x2012 <main+0x1a31>
    21aa: a2 48        	ldx	#$48
    21ac: 86 13        	stx	$13                     ; 0x2013 <main+0x1a32>
    21ae: 4c 74 12     	jmp	$1274 <main+0xc93>
    21b1: a2 30        	ldx	#$30
    21b3: 86 30        	stx	$30                     ; 0x2030 <main+0x1a4f>
    21b5: 38           	sec
    21b6: e5 24        	sbc	$24                     ; 0x2024 <main+0x1a43>
    21b8: e6 24        	inc	$24                     ; 0x2024 <main+0x1a43>
    21ba: 85 12        	sta	$12                     ; 0x2012 <main+0x1a31>
    21bc: 98           	tya
    21bd: e9 00        	sbc	#$0
    21bf: 85 13        	sta	$13                     ; 0x2013 <main+0x1a32>
    21c1: a9 a7        	lda	#$a7
    21c3: 18           	clc
    21c4: 65 12        	adc	$12                     ; 0x2012 <main+0x1a31>
    21c6: 85 12        	sta	$12                     ; 0x2012 <main+0x1a31>
    21c8: a9 48        	lda	#$48
    21ca: 65 13        	adc	$13                     ; 0x2013 <main+0x1a32>
    21cc: 85 13        	sta	$13                     ; 0x2013 <main+0x1a32>
    21ce: a0 05        	ldy	#$5
    21d0: b1 12        	lda	($12),y                 ; 0x2012 <main+0x1a31>
    21d2: 85 14        	sta	$14                     ; 0x2014 <main+0x1a33>
    21d4: c8           	iny
    21d5: b1 12        	lda	($12),y                 ; 0x2012 <main+0x1a31>
    21d7: a4 14        	ldy	$14                     ; 0x2014 <main+0x1a33>
    21d9: 84 4b        	sty	$4b                     ; 0x204b <main+0x1a6a>
    21db: 8c 14 d0     	sty	$d014                   ; 0xd014 <__heap_start+0x86d2>
    21de: 9c 15 d0     	stz	$d015                   ; 0xd015 <__heap_start+0x86d3>
    21e1: 85 4c        	sta	$4c                     ; 0x204c <main+0x1a6b>
    21e3: 8d 16 d0     	sta	$d016                   ; 0xd016 <__heap_start+0x86d4>
    21e6: 9c 17 d0     	stz	$d017                   ; 0xd017 <__heap_start+0x86d5>
    21e9: b2 12        	lda	($12)                   ; 0x2012 <main+0x1a31>
    21eb: 92 10        	sta	($10)                   ; 0x2010 <main+0x1a2f>
    21ed: a0 01        	ldy	#$1
    21ef: a9 00        	lda	#$0
    21f1: 91 10        	sta	($10),y                 ; 0x2010 <main+0x1a2f>
    21f3: 64 2a        	stz	$2a                     ; 0x202a <main+0x1a49>
    21f5: a2 d6        	ldx	#$d6
    21f7: 86 12        	stx	$12                     ; 0x2012 <main+0x1a31>
    21f9: a2 46        	ldx	#$46
    21fb: 86 13        	stx	$13                     ; 0x2013 <main+0x1a32>
    21fd: 20 55 36     	jsr	$3655 <printf>
    2200: a2 f3        	ldx	#$f3
    2202: 86 30        	stx	$30                     ; 0x2030 <main+0x1a4f>
    2204: a5 24        	lda	$24                     ; 0x2024 <main+0x1a43>
    2206: 0a           	asl
    2207: 26 2a        	rol	$2a                     ; 0x202a <main+0x1a49>
    2209: 0a           	asl
    220a: 26 2a        	rol	$2a                     ; 0x202a <main+0x1a49>
    220c: 0a           	asl
    220d: 26 2a        	rol	$2a                     ; 0x202a <main+0x1a49>
    220f: 38           	sec
    2210: e5 24        	sbc	$24                     ; 0x2024 <main+0x1a43>
    2212: 85 12        	sta	$12                     ; 0x2012 <main+0x1a31>
    2214: a5 2a        	lda	$2a                     ; 0x202a <main+0x1a49>
    2216: e9 00        	sbc	#$0
    2218: 85 13        	sta	$13                     ; 0x2013 <main+0x1a32>
    221a: 18           	clc
    221b: a9 a7        	lda	#$a7
    221d: 65 12        	adc	$12                     ; 0x2012 <main+0x1a31>
    221f: 85 12        	sta	$12                     ; 0x2012 <main+0x1a31>
    2221: a9 48        	lda	#$48
    2223: 65 13        	adc	$13                     ; 0x2013 <main+0x1a32>
    2225: 85 13        	sta	$13                     ; 0x2013 <main+0x1a32>
    2227: a0 05        	ldy	#$5
    2229: b1 12        	lda	($12),y                 ; 0x2012 <main+0x1a31>
    222b: 85 14        	sta	$14                     ; 0x2014 <main+0x1a33>
    222d: c8           	iny
    222e: b1 12        	lda	($12),y                 ; 0x2012 <main+0x1a31>
    2230: a4 14        	ldy	$14                     ; 0x2014 <main+0x1a33>
    2232: 84 4b        	sty	$4b                     ; 0x204b <main+0x1a6a>
    2234: 8c 14 d0     	sty	$d014                   ; 0xd014 <__heap_start+0x86d2>
    2237: 9c 15 d0     	stz	$d015                   ; 0xd015 <__heap_start+0x86d3>
    223a: 85 4c        	sta	$4c                     ; 0x204c <main+0x1a6b>
    223c: 8d 16 d0     	sta	$d016                   ; 0xd016 <__heap_start+0x86d4>
    223f: 9c 17 d0     	stz	$d017                   ; 0xd017 <__heap_start+0x86d5>
    2242: 4c 74 12     	jmp	$1274 <main+0xc93>
    2245: a2 30        	ldx	#$30
    2247: 86 30        	stx	$30                     ; 0x2030 <main+0x1a4f>
    2249: ae ac 48     	ldx	$48ac                   ; 0x48ac <opl3_fields+0x5>
    224c: ac ad 48     	ldy	$48ad                   ; 0x48ad <opl3_fields+0x6>
    224f: 86 4b        	stx	$4b                     ; 0x204b <main+0x1a6a>
    2251: 8e 14 d0     	stx	$d014                   ; 0xd014 <__heap_start+0x86d2>
    2254: 9c 15 d0     	stz	$d015                   ; 0xd015 <__heap_start+0x86d3>
    2257: 84 4c        	sty	$4c                     ; 0x204c <main+0x1a6b>
    2259: 8c 16 d0     	sty	$d016                   ; 0xd016 <__heap_start+0x86d4>
    225c: 9c 17 d0     	stz	$d017                   ; 0xd017 <__heap_start+0x86d5>
    225f: ad a7 48     	lda	$48a7                   ; 0x48a7 <opl3_fields>
    2262: 92 10        	sta	($10)                   ; 0x2010 <main+0x1a2f>
    2264: a0 01        	ldy	#$1
    2266: a9 00        	lda	#$0
    2268: 91 10        	sta	($10),y                 ; 0x2010 <main+0x1a2f>
    226a: a2 d6        	ldx	#$d6
    226c: 86 12        	stx	$12                     ; 0x2012 <main+0x1a31>
    226e: a2 46        	ldx	#$46
    2270: 86 13        	stx	$13                     ; 0x2013 <main+0x1a32>
    2272: 20 55 36     	jsr	$3655 <printf>
    2275: a2 f3        	ldx	#$f3
    2277: 86 30        	stx	$30                     ; 0x2030 <main+0x1a4f>
    2279: ae 46 49     	ldx	$4946                   ; 0x4946 <__heap_start+0x4>
    227c: ac 47 49     	ldy	$4947                   ; 0x4947 <__heap_start+0x5>
    227f: 86 4b        	stx	$4b                     ; 0x204b <main+0x1a6a>
    2281: 8e 14 d0     	stx	$d014                   ; 0xd014 <__heap_start+0x86d2>
    2284: 9c 15 d0     	stz	$d015                   ; 0xd015 <__heap_start+0x86d3>
    2287: 84 4c        	sty	$4c                     ; 0x204c <main+0x1a6b>
    2289: 8c 16 d0     	sty	$d016                   ; 0xd016 <__heap_start+0x86d4>
    228c: 9c 17 d0     	stz	$d017                   ; 0xd017 <__heap_start+0x86d5>
    228f: ad 41 49     	lda	$4941                   ; 0x4941 <end_block9>
    2292: 92 10        	sta	($10)                   ; 0x2010 <main+0x1a2f>
    2294: a0 01        	ldy	#$1
    2296: a9 00        	lda	#$0
    2298: 4c 62 12     	jmp	$1262 <main+0xc81>
    229b: a2 01        	ldx	#$1
    229d: 86 4f        	stx	$4f                     ; 0x204f <main+0x1a6e>
    229f: 4c a9 11     	jmp	$11a9 <main+0xbc8>

000022a2 <textPrint>:
    22a2: a6 01        	ldx	$1                      ; 0x2001 <main+0x1a20>
    22a4: 86 ab        	stx	$ab                     ; 0x20ab <main+0x1aca>
    22a6: a6 4c        	ldx	$4c                     ; 0x204c <main+0x1a6b>
    22a8: a0 50        	ldy	#$50
    22aa: 8c 00 de     	sty	$de00                   ; 0xde00 <__heap_start+0x94be>
    22ad: 9c 01 de     	stz	$de01                   ; 0xde01 <__heap_start+0x94bf>
    22b0: 8e 02 de     	stx	$de02                   ; 0xde02 <__heap_start+0x94c0>
    22b3: 9c 03 de     	stz	$de03                   ; 0xde03 <__heap_start+0x94c1>
    22b6: ae 10 de     	ldx	$de10                   ; 0xde10 <__heap_start+0x94ce>
    22b9: ac 11 de     	ldy	$de11                   ; 0xde11 <__heap_start+0x94cf>
    22bc: 84 15        	sty	$15                     ; 0x2015 <main+0x1a34>
    22be: ad 12 de     	lda	$de12                   ; 0xde12 <__heap_start+0x94d0>
    22c1: ac 13 de     	ldy	$de13                   ; 0xde13 <__heap_start+0x94d1>
    22c4: 84 1c        	sty	$1c                     ; 0x201c <main+0x1a3b>
    22c6: 9c 08 de     	stz	$de08                   ; 0xde08 <__heap_start+0x94c6>
    22c9: a0 c0        	ldy	#$c0
    22cb: 8c 09 de     	sty	$de09                   ; 0xde09 <__heap_start+0x94c7>
    22ce: 9c 0a de     	stz	$de0a                   ; 0xde0a <__heap_start+0x94c8>
    22d1: 9c 0b de     	stz	$de0b                   ; 0xde0b <__heap_start+0x94c9>
    22d4: 8e 0c de     	stx	$de0c                   ; 0xde0c <__heap_start+0x94ca>
    22d7: 64 14        	stz	$14                     ; 0x2014 <main+0x1a33>
    22d9: a2 00        	ldx	#$0
    22db: 86 16        	stx	$16                     ; 0x2016 <main+0x1a35>
    22dd: a2 c0        	ldx	#$c0
    22df: 86 17        	stx	$17                     ; 0x2017 <main+0x1a36>
    22e1: a2 11        	ldx	#$11
    22e3: 86 18        	stx	$18                     ; 0x2018 <main+0x1a37>
    22e5: a2 c9        	ldx	#$c9
    22e7: 86 19        	stx	$19                     ; 0x2019 <main+0x1a38>
    22e9: a2 10        	ldx	#$10
    22eb: 86 1a        	stx	$1a                     ; 0x201a <main+0x1a39>
    22ed: a2 c9        	ldx	#$c9
    22ef: 86 1b        	stx	$1b                     ; 0x201b <main+0x1a3a>
    22f1: a6 15        	ldx	$15                     ; 0x2015 <main+0x1a34>
    22f3: 8e 0d de     	stx	$de0d                   ; 0xde0d <__heap_start+0x94cb>
    22f6: 8d 0e de     	sta	$de0e                   ; 0xde0e <__heap_start+0x94cc>
    22f9: a6 1c        	ldx	$1c                     ; 0x201c <main+0x1a3b>
    22fb: 8e 0f de     	stx	$de0f                   ; 0xde0f <__heap_start+0x94cd>
    22fe: ac 18 de     	ldy	$de18                   ; 0xde18 <__heap_start+0x94d6>
    2301: ad 19 de     	lda	$de19                   ; 0xde19 <__heap_start+0x94d7>
    2304: ae 1a de     	ldx	$de1a                   ; 0xde1a <__heap_start+0x94d8>
    2307: ae 1b de     	ldx	$de1b                   ; 0xde1b <__heap_start+0x94d9>
    230a: 84 1c        	sty	$1c                     ; 0x201c <main+0x1a3b>
    230c: 85 1d        	sta	$1d                     ; 0x201d <main+0x1a3c>
    230e: 64 15        	stz	$15                     ; 0x2015 <main+0x1a34>
    2310: 4c 17 24     	jmp	$2417 <textPrint+0x175>
    2313: 8a           	txa
    2314: f0 15        	beq	$232b <textPrint+0x89>
    2316: b1 1c        	lda	($1c),y                 ; 0x201c <main+0x1a3b>
    2318: 92 1c        	sta	($1c)                   ; 0x201c <main+0x1a3b>
    231a: a9 ff        	lda	#$ff
    231c: c6 1e        	dec	$1e                     ; 0x201e <main+0x1a3d>
    231e: c5 1e        	cmp	$1e                     ; 0x201e <main+0x1a3d>
    2320: d0 01        	bne	$2323 <textPrint+0x81>
    2322: ca           	dex
    2323: e6 1c        	inc	$1c                     ; 0x201c <main+0x1a3b>
    2325: d0 ec        	bne	$2313 <textPrint+0x71>
    2327: e6 1d        	inc	$1d                     ; 0x201d <main+0x1a3c>
    2329: 80 e8        	bra	$2313 <textPrint+0x71>
    232b: a5 1e        	lda	$1e                     ; 0x201e <main+0x1a3d>
    232d: d0 e7        	bne	$2316 <textPrint+0x74>
    232f: a2 02        	ldx	#$2
    2331: 86 01        	stx	$1                      ; 0x2001 <main+0x1a20>
    2333: a2 09        	ldx	#$9
    2335: a9 10        	lda	#$10
    2337: 5a           	phy
    2338: a0 00        	ldy	#$0
    233a: 84 1c        	sty	$1c                     ; 0x201c <main+0x1a3b>
    233c: a0 c0        	ldy	#$c0
    233e: 84 1d        	sty	$1d                     ; 0x201d <main+0x1a3c>
    2340: 7a           	ply
    2341: 85 1e        	sta	$1e                     ; 0x201e <main+0x1a3d>
    2343: 80 03        	bra	$2348 <textPrint+0xa6>
    2345: 8a           	txa
    2346: f0 15        	beq	$235d <textPrint+0xbb>
    2348: b1 1c        	lda	($1c),y                 ; 0x201c <main+0x1a3b>
    234a: 92 1c        	sta	($1c)                   ; 0x201c <main+0x1a3b>
    234c: a9 ff        	lda	#$ff
    234e: c6 1e        	dec	$1e                     ; 0x201e <main+0x1a3d>
    2350: c5 1e        	cmp	$1e                     ; 0x201e <main+0x1a3d>
    2352: d0 01        	bne	$2355 <textPrint+0xb3>
    2354: ca           	dex
    2355: e6 1c        	inc	$1c                     ; 0x201c <main+0x1a3b>
    2357: d0 ec        	bne	$2345 <textPrint+0xa3>
    2359: e6 1d        	inc	$1d                     ; 0x201d <main+0x1a3c>
    235b: 80 e8        	bra	$2345 <textPrint+0xa3>
    235d: a5 1e        	lda	$1e                     ; 0x201e <main+0x1a3d>
    235f: d0 e7        	bne	$2348 <textPrint+0xa6>
    2361: a2 02        	ldx	#$2
    2363: 86 01        	stx	$1                      ; 0x2001 <main+0x1a20>
    2365: e8           	inx
    2366: 86 01        	stx	$1                      ; 0x2001 <main+0x1a20>
    2368: a5 30        	lda	$30                     ; 0x2030 <main+0x1a4f>
    236a: a2 50        	ldx	#$50
    236c: a0 11        	ldy	#$11
    236e: 84 1c        	sty	$1c                     ; 0x201c <main+0x1a3b>
    2370: a0 c9        	ldy	#$c9
    2372: 84 1d        	sty	$1d                     ; 0x201d <main+0x1a3c>
    2374: a0 10        	ldy	#$10
    2376: 84 1e        	sty	$1e                     ; 0x201e <main+0x1a3d>
    2378: a0 c9        	ldy	#$c9
    237a: 84 1f        	sty	$1f                     ; 0x201f <main+0x1a3e>
    237c: a4 1c        	ldy	$1c                     ; 0x201c <main+0x1a3b>
    237e: 84 22        	sty	$22                     ; 0x2022 <main+0x1a41>
    2380: a4 1d        	ldy	$1d                     ; 0x201d <main+0x1a3c>
    2382: 84 23        	sty	$23                     ; 0x2023 <main+0x1a42>
    2384: 92 1e        	sta	($1e)                   ; 0x201e <main+0x1a3d>
    2386: e6 1c        	inc	$1c                     ; 0x201c <main+0x1a3b>
    2388: d0 02        	bne	$238c <textPrint+0xea>
    238a: e6 1d        	inc	$1d                     ; 0x201d <main+0x1a3c>
    238c: ca           	dex
    238d: a4 22        	ldy	$22                     ; 0x2022 <main+0x1a41>
    238f: 84 1e        	sty	$1e                     ; 0x201e <main+0x1a3d>
    2391: a4 23        	ldy	$23                     ; 0x2023 <main+0x1a42>
    2393: 84 1f        	sty	$1f                     ; 0x201f <main+0x1a3e>
    2395: e0 00        	cpx	#$0
    2397: d0 e3        	bne	$237c <textPrint+0xda>
    2399: a2 02        	ldx	#$2
    239b: 86 01        	stx	$1                      ; 0x2001 <main+0x1a20>
    239d: a2 50        	ldx	#$50
    239f: a0 11        	ldy	#$11
    23a1: 84 1c        	sty	$1c                     ; 0x201c <main+0x1a3b>
    23a3: a0 c9        	ldy	#$c9
    23a5: 84 1d        	sty	$1d                     ; 0x201d <main+0x1a3c>
    23a7: a0 10        	ldy	#$10
    23a9: 84 1e        	sty	$1e                     ; 0x201e <main+0x1a3d>
    23ab: a0 c9        	ldy	#$c9
    23ad: 84 1f        	sty	$1f                     ; 0x201f <main+0x1a3e>
    23af: a9 20        	lda	#$20
    23b1: a4 1c        	ldy	$1c                     ; 0x201c <main+0x1a3b>
    23b3: 84 22        	sty	$22                     ; 0x2022 <main+0x1a41>
    23b5: a4 1d        	ldy	$1d                     ; 0x201d <main+0x1a3c>
    23b7: 84 23        	sty	$23                     ; 0x2023 <main+0x1a42>
    23b9: 92 1e        	sta	($1e)                   ; 0x201e <main+0x1a3d>
    23bb: e6 1c        	inc	$1c                     ; 0x201c <main+0x1a3b>
    23bd: d0 02        	bne	$23c1 <textPrint+0x11f>
    23bf: e6 1d        	inc	$1d                     ; 0x201d <main+0x1a3c>
    23c1: ca           	dex
    23c2: a4 22        	ldy	$22                     ; 0x2022 <main+0x1a41>
    23c4: 84 1e        	sty	$1e                     ; 0x201e <main+0x1a3d>
    23c6: a4 23        	ldy	$23                     ; 0x2023 <main+0x1a42>
    23c8: 84 1f        	sty	$1f                     ; 0x201f <main+0x1a3e>
    23ca: e0 00        	cpx	#$0
    23cc: d0 e3        	bne	$23b1 <textPrint+0x10f>
    23ce: c6 4c        	dec	$4c                     ; 0x204c <main+0x1a6b>
    23d0: 9c 08 de     	stz	$de08                   ; 0xde08 <__heap_start+0x94c6>
    23d3: a2 c0        	ldx	#$c0
    23d5: 8e 09 de     	stx	$de09                   ; 0xde09 <__heap_start+0x94c7>
    23d8: 9c 0a de     	stz	$de0a                   ; 0xde0a <__heap_start+0x94c8>
    23db: 9c 0b de     	stz	$de0b                   ; 0xde0b <__heap_start+0x94c9>
    23de: a2 1d        	ldx	#$1d
    23e0: 8e 0c de     	stx	$de0c                   ; 0xde0c <__heap_start+0x94ca>
    23e3: 9c 0d de     	stz	$de0d                   ; 0xde0d <__heap_start+0x94cb>
    23e6: 9c 0e de     	stz	$de0e                   ; 0xde0e <__heap_start+0x94cc>
    23e9: 9c 0f de     	stz	$de0f                   ; 0xde0f <__heap_start+0x94cd>
    23ec: ae 18 de     	ldx	$de18                   ; 0xde18 <__heap_start+0x94d6>
    23ef: ac 19 de     	ldy	$de19                   ; 0xde19 <__heap_start+0x94d7>
    23f2: ad 1a de     	lda	$de1a                   ; 0xde1a <__heap_start+0x94d8>
    23f5: ad 1b de     	lda	$de1b                   ; 0xde1b <__heap_start+0x94d9>
    23f8: 86 1c        	stx	$1c                     ; 0x201c <main+0x1a3b>
    23fa: 84 1d        	sty	$1d                     ; 0x201d <main+0x1a3c>
    23fc: e6 14        	inc	$14                     ; 0x2014 <main+0x1a33>
    23fe: d0 02        	bne	$2402 <textPrint+0x160>
    2400: e6 15        	inc	$15                     ; 0x2015 <main+0x1a34>
    2402: 80 13        	bra	$2417 <textPrint+0x175>
    2404: a5 1c        	lda	$1c                     ; 0x201c <main+0x1a3b>
    2406: 18           	clc
    2407: 69 50        	adc	#$50
    2409: 85 1c        	sta	$1c                     ; 0x201c <main+0x1a3b>
    240b: a5 1d        	lda	$1d                     ; 0x201d <main+0x1a3c>
    240d: 69 00        	adc	#$0
    240f: 85 1d        	sta	$1d                     ; 0x201d <main+0x1a3c>
    2411: e6 14        	inc	$14                     ; 0x2014 <main+0x1a33>
    2413: d0 02        	bne	$2417 <textPrint+0x175>
    2415: e6 15        	inc	$15                     ; 0x2015 <main+0x1a34>
    2417: a5 12        	lda	$12                     ; 0x2012 <main+0x1a31>
    2419: 18           	clc
    241a: 65 14        	adc	$14                     ; 0x2014 <main+0x1a33>
    241c: 85 1e        	sta	$1e                     ; 0x201e <main+0x1a3d>
    241e: a5 13        	lda	$13                     ; 0x2013 <main+0x1a32>
    2420: 65 15        	adc	$15                     ; 0x2015 <main+0x1a34>
    2422: 85 1f        	sta	$1f                     ; 0x201f <main+0x1a3e>
    2424: b2 1e        	lda	($1e)                   ; 0x201e <main+0x1a3d>
    2426: c9 0a        	cmp	#$a
    2428: f0 23        	beq	$244d <textPrint+0x1ab>
    242a: c9 0d        	cmp	#$d
    242c: f0 1f        	beq	$244d <textPrint+0x1ab>
    242e: aa           	tax
    242f: f0 41        	beq	$2472 <textPrint+0x1d0>
    2431: a2 03        	ldx	#$3
    2433: 86 01        	stx	$1                      ; 0x2001 <main+0x1a20>
    2435: a5 30        	lda	$30                     ; 0x2030 <main+0x1a4f>
    2437: a4 4b        	ldy	$4b                     ; 0x204b <main+0x1a6a>
    2439: 91 1c        	sta	($1c),y                 ; 0x201c <main+0x1a3b>
    243b: ca           	dex
    243c: 86 01        	stx	$1                      ; 0x2001 <main+0x1a20>
    243e: b2 1e        	lda	($1e)                   ; 0x201e <main+0x1a3d>
    2440: a4 4b        	ldy	$4b                     ; 0x204b <main+0x1a6a>
    2442: 91 1c        	sta	($1c),y                 ; 0x201c <main+0x1a3b>
    2444: a6 4b        	ldx	$4b                     ; 0x204b <main+0x1a6a>
    2446: e8           	inx
    2447: e6 4b        	inc	$4b                     ; 0x204b <main+0x1a6a>
    2449: e0 50        	cpx	#$50
    244b: d0 c4        	bne	$2411 <textPrint+0x16f>
    244d: 64 4b        	stz	$4b                     ; 0x204b <main+0x1a6a>
    244f: a6 4c        	ldx	$4c                     ; 0x204c <main+0x1a6b>
    2451: e8           	inx
    2452: e6 4c        	inc	$4c                     ; 0x204c <main+0x1a6b>
    2454: e0 1e        	cpx	#$1e
    2456: f0 03        	beq	$245b <textPrint+0x1b9>
    2458: 4c 04 24     	jmp	$2404 <textPrint+0x162>
    245b: a2 03        	ldx	#$3
    245d: 86 01        	stx	$1                      ; 0x2001 <main+0x1a20>
    245f: a2 09        	ldx	#$9
    2461: a9 10        	lda	#$10
    2463: a0 00        	ldy	#$0
    2465: 84 1c        	sty	$1c                     ; 0x201c <main+0x1a3b>
    2467: a0 c0        	ldy	#$c0
    2469: 84 1d        	sty	$1d                     ; 0x201d <main+0x1a3c>
    246b: a0 50        	ldy	#$50
    246d: 85 1e        	sta	$1e                     ; 0x201e <main+0x1a3d>
    246f: 4c 16 23     	jmp	$2316 <textPrint+0x74>
    2472: a6 ab        	ldx	$ab                     ; 0x20ab <main+0x1aca>
    2474: 86 01        	stx	$1                      ; 0x2001 <main+0x1a20>
    2476: a6 4b        	ldx	$4b                     ; 0x204b <main+0x1a6a>
    2478: a4 4c        	ldy	$4c                     ; 0x204c <main+0x1a6b>
    247a: 8e 14 d0     	stx	$d014                   ; 0xd014 <__heap_start+0x86d2>
    247d: 9c 15 d0     	stz	$d015                   ; 0xd015 <__heap_start+0x86d3>
    2480: 84 4c        	sty	$4c                     ; 0x204c <main+0x1a6b>
    2482: 8c 16 d0     	sty	$d016                   ; 0xd016 <__heap_start+0x86d4>
    2485: 9c 17 d0     	stz	$d017                   ; 0xd017 <__heap_start+0x86d5>
    2488: 60           	rts

00002489 <updateValues>:
    2489: 18           	clc
    248a: a5 10        	lda	$10                     ; 0x2010 <main+0x1a2f>
    248c: 69 fe        	adc	#$fe
    248e: 85 10        	sta	$10                     ; 0x2010 <main+0x1a2f>
    2490: a5 11        	lda	$11                     ; 0x2011 <main+0x1a30>
    2492: 69 ff        	adc	#$ff
    2494: 85 11        	sta	$11                     ; 0x2011 <main+0x1a30>
    2496: ae 1a d0     	ldx	$d01a                   ; 0xd01a <__heap_start+0x86d8>
    2499: ac 1b d0     	ldy	$d01b                   ; 0xd01b <__heap_start+0x86d9>
    249c: c0 01        	cpy	#$1
    249e: d0 f6        	bne	$2496 <updateValues+0xd>
    24a0: e0 e2        	cpx	#$e2
    24a2: d0 f2        	bne	$2496 <updateValues+0xd>
    24a4: a6 50        	ldx	$50                     ; 0x2050 <main+0x1a6f>
    24a6: 86 12        	stx	$12                     ; 0x2012 <main+0x1a31>
    24a8: a9 00        	lda	#$0
    24aa: a8           	tay
    24ab: a2 f3        	ldx	#$f3
    24ad: c4 12        	cpy	$12                     ; 0x2012 <main+0x1a31>
    24af: f0 02        	beq	$24b3 <updateValues+0x2a>
    24b1: a2 30        	ldx	#$30
    24b3: 86 30        	stx	$30                     ; 0x2030 <main+0x1a4f>
    24b5: aa           	tax
    24b6: 48           	pha
    24b7: bd ab 48     	lda	$48ab,x                 ; 0x48ab <opl3_fields+0x4>
    24ba: aa           	tax
    24bb: 68           	pla
    24bc: e0 00        	cpx	#$0
    24be: d0 03        	bne	$24c3 <updateValues+0x3a>
    24c0: 4c 2d 25     	jmp	$252d <updateValues+0xa4>
    24c3: 84 52        	sty	$52                     ; 0x2052 <main+0x1a71>
    24c5: 85 51        	sta	$51                     ; 0x2051 <main+0x1a70>
    24c7: a8           	tay
    24c8: be ac 48     	ldx	$48ac,y                 ; 0x48ac <opl3_fields+0x5>
    24cb: b9 ad 48     	lda	$48ad,y                 ; 0x48ad <opl3_fields+0x6>
    24ce: 86 4b        	stx	$4b                     ; 0x204b <main+0x1a6a>
    24d0: 8e 14 d0     	stx	$d014                   ; 0xd014 <__heap_start+0x86d2>
    24d3: 9c 15 d0     	stz	$d015                   ; 0xd015 <__heap_start+0x86d3>
    24d6: 85 4c        	sta	$4c                     ; 0x204c <main+0x1a6b>
    24d8: 8d 16 d0     	sta	$d016                   ; 0xd016 <__heap_start+0x86d4>
    24db: 9c 17 d0     	stz	$d017                   ; 0xd017 <__heap_start+0x86d5>
    24de: b9 a7 48     	lda	$48a7,y                 ; 0x48a7 <opl3_fields>
    24e1: 84 53        	sty	$53                     ; 0x2053 <main+0x1a72>
    24e3: 92 10        	sta	($10)                   ; 0x2010 <main+0x1a2f>
    24e5: a9 00        	lda	#$0
    24e7: a0 01        	ldy	#$1
    24e9: 91 10        	sta	($10),y                 ; 0x2010 <main+0x1a2f>
    24eb: a2 d6        	ldx	#$d6
    24ed: 86 12        	stx	$12                     ; 0x2012 <main+0x1a31>
    24ef: a2 46        	ldx	#$46
    24f1: 86 13        	stx	$13                     ; 0x2013 <main+0x1a32>
    24f3: 20 55 36     	jsr	$3655 <printf>
    24f6: a6 53        	ldx	$53                     ; 0x2053 <main+0x1a72>
    24f8: bd a7 48     	lda	$48a7,x                 ; 0x48a7 <opl3_fields>
    24fb: 48           	pha
    24fc: bd aa 48     	lda	$48aa,x                 ; 0x48aa <opl3_fields+0x3>
    24ff: aa           	tax
    2500: 68           	pla
    2501: e0 00        	cpx	#$0
    2503: f0 04        	beq	$2509 <updateValues+0x80>
    2505: 0a           	asl
    2506: 0a           	asl
    2507: 0a           	asl
    2508: 0a           	asl
    2509: a6 50        	ldx	$50                     ; 0x2050 <main+0x1a6f>
    250b: 86 15        	stx	$15                     ; 0x2015 <main+0x1a34>
    250d: a4 51        	ldy	$51                     ; 0x2051 <main+0x1a70>
    250f: be a8 48     	ldx	$48a8,y                 ; 0x48a8 <opl3_fields+0x1>
    2512: 48           	pha
    2513: b9 a9 48     	lda	$48a9,y                 ; 0x48a9 <opl3_fields+0x2>
    2516: a8           	tay
    2517: 68           	pla
    2518: 86 12        	stx	$12                     ; 0x2012 <main+0x1a31>
    251a: 84 13        	sty	$13                     ; 0x2013 <main+0x1a32>
    251c: 12 12        	ora	($12)                   ; 0x2012 <main+0x1a31>
    251e: 92 12        	sta	($12)                   ; 0x2012 <main+0x1a31>
    2520: a5 51        	lda	$51                     ; 0x2051 <main+0x1a70>
    2522: a6 51        	ldx	$51                     ; 0x2051 <main+0x1a70>
    2524: 9e ab 48     	stz	$48ab,x                 ; 0x48ab <opl3_fields+0x4>
    2527: a6 15        	ldx	$15                     ; 0x2015 <main+0x1a34>
    2529: 86 12        	stx	$12                     ; 0x2012 <main+0x1a31>
    252b: a4 52        	ldy	$52                     ; 0x2052 <main+0x1a71>
    252d: c8           	iny
    252e: 18           	clc
    252f: 69 07        	adc	#$7
    2531: c0 16        	cpy	#$16
    2533: f0 03        	beq	$2538 <updateValues+0xaf>
    2535: 4c ab 24     	jmp	$24ab <updateValues+0x22>
    2538: a2 22        	ldx	#$22
    253a: 86 4b        	stx	$4b                     ; 0x204b <main+0x1a6a>
    253c: 8e 14 d0     	stx	$d014                   ; 0xd014 <__heap_start+0x86d2>
    253f: 9c 15 d0     	stz	$d015                   ; 0xd015 <__heap_start+0x86d3>
    2542: a2 13        	ldx	#$13
    2544: 86 4c        	stx	$4c                     ; 0x204c <main+0x1a6b>
    2546: 8e 16 d0     	stx	$d016                   ; 0xd016 <__heap_start+0x86d4>
    2549: 9c 17 d0     	stz	$d017                   ; 0xd017 <__heap_start+0x86d5>
    254c: ae ca 48     	ldx	$48ca                   ; 0x48ca <opl3_fields+0x23>
    254f: a0 fe        	ldy	#$fe
    2551: 84 12        	sty	$12                     ; 0x2012 <main+0x1a31>
    2553: a0 47        	ldy	#$47
    2555: 84 13        	sty	$13                     ; 0x2013 <main+0x1a32>
    2557: 8a           	txa
    2558: 10 08        	bpl	$2562 <updateValues+0xd9>
    255a: a2 89        	ldx	#$89
    255c: 86 12        	stx	$12                     ; 0x2012 <main+0x1a31>
    255e: a2 47        	ldx	#$47
    2560: 86 13        	stx	$13                     ; 0x2013 <main+0x1a32>
    2562: 20 a2 22     	jsr	$22a2 <textPrint>
    2565: ad a7 48     	lda	$48a7                   ; 0x48a7 <opl3_fields>
    2568: 0a           	asl
    2569: 0a           	asl
    256a: 0a           	asl
    256b: 0a           	asl
    256c: a2 bd        	ldx	#$bd
    256e: 8e 80 d5     	stx	$d580                   ; 0xd580 <__heap_start+0x8c3e>
    2571: 8d 81 d5     	sta	$d581                   ; 0xd581 <__heap_start+0x8c3f>
    2574: a9 30        	lda	#$30
    2576: 0d ae 48     	ora	$48ae                   ; 0x48ae <opl3_fields+0x7>
    2579: a2 c0        	ldx	#$c0
    257b: 8e 80 d5     	stx	$d580                   ; 0xd580 <__heap_start+0x8c3e>
    257e: 8d 81 d5     	sta	$d581                   ; 0xd581 <__heap_start+0x8c3f>
    2581: a9 30        	lda	#$30
    2583: 0d ae 48     	ora	$48ae                   ; 0x48ae <opl3_fields+0x7>
    2586: e8           	inx
    2587: 8e 80 d5     	stx	$d580                   ; 0xd580 <__heap_start+0x8c3e>
    258a: 8d 81 d5     	sta	$d581                   ; 0xd581 <__heap_start+0x8c3f>
    258d: a9 30        	lda	#$30
    258f: 0d ae 48     	ora	$48ae                   ; 0x48ae <opl3_fields+0x7>
    2592: e8           	inx
    2593: 8e 80 d5     	stx	$d580                   ; 0xd580 <__heap_start+0x8c3e>
    2596: 8d 81 d5     	sta	$d581                   ; 0xd581 <__heap_start+0x8c3f>
    2599: a9 30        	lda	#$30
    259b: 0d ae 48     	ora	$48ae                   ; 0x48ae <opl3_fields+0x7>
    259e: e8           	inx
    259f: 8e 80 d5     	stx	$d580                   ; 0xd580 <__heap_start+0x8c3e>
    25a2: 8d 81 d5     	sta	$d581                   ; 0xd581 <__heap_start+0x8c3f>
    25a5: a9 30        	lda	#$30
    25a7: 0d ae 48     	ora	$48ae                   ; 0x48ae <opl3_fields+0x7>
    25aa: e8           	inx
    25ab: 8e 80 d5     	stx	$d580                   ; 0xd580 <__heap_start+0x8c3e>
    25ae: 8d 81 d5     	sta	$d581                   ; 0xd581 <__heap_start+0x8c3f>
    25b1: a9 30        	lda	#$30
    25b3: 0d ae 48     	ora	$48ae                   ; 0x48ae <opl3_fields+0x7>
    25b6: e8           	inx
    25b7: 8e 80 d5     	stx	$d580                   ; 0xd580 <__heap_start+0x8c3e>
    25ba: 8d 81 d5     	sta	$d581                   ; 0xd581 <__heap_start+0x8c3f>
    25bd: a9 30        	lda	#$30
    25bf: 0d ae 48     	ora	$48ae                   ; 0x48ae <opl3_fields+0x7>
    25c2: e8           	inx
    25c3: 8e 80 d5     	stx	$d580                   ; 0xd580 <__heap_start+0x8c3e>
    25c6: 8d 81 d5     	sta	$d581                   ; 0xd581 <__heap_start+0x8c3f>
    25c9: a9 30        	lda	#$30
    25cb: 0d ae 48     	ora	$48ae                   ; 0x48ae <opl3_fields+0x7>
    25ce: e8           	inx
    25cf: 8e 80 d5     	stx	$d580                   ; 0xd580 <__heap_start+0x8c3e>
    25d2: 8d 81 d5     	sta	$d581                   ; 0xd581 <__heap_start+0x8c3f>
    25d5: a9 30        	lda	#$30
    25d7: 0d ae 48     	ora	$48ae                   ; 0x48ae <opl3_fields+0x7>
    25da: e8           	inx
    25db: 8e 80 d5     	stx	$d580                   ; 0xd580 <__heap_start+0x8c3e>
    25de: 8d 81 d5     	sta	$d581                   ; 0xd581 <__heap_start+0x8c3f>
    25e1: a9 30        	lda	#$30
    25e3: 0d ae 48     	ora	$48ae                   ; 0x48ae <opl3_fields+0x7>
    25e6: a0 c0        	ldy	#$c0
    25e8: 8c 82 d5     	sty	$d582                   ; 0xd582 <__heap_start+0x8c40>
    25eb: 8d 81 d5     	sta	$d581                   ; 0xd581 <__heap_start+0x8c3f>
    25ee: a9 30        	lda	#$30
    25f0: 0d ae 48     	ora	$48ae                   ; 0x48ae <opl3_fields+0x7>
    25f3: c8           	iny
    25f4: 8c 82 d5     	sty	$d582                   ; 0xd582 <__heap_start+0x8c40>
    25f7: 8d 81 d5     	sta	$d581                   ; 0xd581 <__heap_start+0x8c3f>
    25fa: a9 30        	lda	#$30
    25fc: 0d ae 48     	ora	$48ae                   ; 0x48ae <opl3_fields+0x7>
    25ff: c8           	iny
    2600: 8c 82 d5     	sty	$d582                   ; 0xd582 <__heap_start+0x8c40>
    2603: 8d 81 d5     	sta	$d581                   ; 0xd581 <__heap_start+0x8c3f>
    2606: a9 30        	lda	#$30
    2608: 0d ae 48     	ora	$48ae                   ; 0x48ae <opl3_fields+0x7>
    260b: c8           	iny
    260c: 8c 82 d5     	sty	$d582                   ; 0xd582 <__heap_start+0x8c40>
    260f: 8d 81 d5     	sta	$d581                   ; 0xd581 <__heap_start+0x8c3f>
    2612: a9 30        	lda	#$30
    2614: 0d ae 48     	ora	$48ae                   ; 0x48ae <opl3_fields+0x7>
    2617: c8           	iny
    2618: 8c 82 d5     	sty	$d582                   ; 0xd582 <__heap_start+0x8c40>
    261b: 8d 81 d5     	sta	$d581                   ; 0xd581 <__heap_start+0x8c3f>
    261e: a9 30        	lda	#$30
    2620: 0d ae 48     	ora	$48ae                   ; 0x48ae <opl3_fields+0x7>
    2623: c8           	iny
    2624: 8c 82 d5     	sty	$d582                   ; 0xd582 <__heap_start+0x8c40>
    2627: 8d 81 d5     	sta	$d581                   ; 0xd581 <__heap_start+0x8c3f>
    262a: a9 30        	lda	#$30
    262c: 0d ae 48     	ora	$48ae                   ; 0x48ae <opl3_fields+0x7>
    262f: c8           	iny
    2630: 8c 82 d5     	sty	$d582                   ; 0xd582 <__heap_start+0x8c40>
    2633: 8d 81 d5     	sta	$d581                   ; 0xd581 <__heap_start+0x8c3f>
    2636: a9 30        	lda	#$30
    2638: 0d ae 48     	ora	$48ae                   ; 0x48ae <opl3_fields+0x7>
    263b: c8           	iny
    263c: 8c 82 d5     	sty	$d582                   ; 0xd582 <__heap_start+0x8c40>
    263f: 8d 81 d5     	sta	$d581                   ; 0xd581 <__heap_start+0x8c3f>
    2642: a9 30        	lda	#$30
    2644: 0d ae 48     	ora	$48ae                   ; 0x48ae <opl3_fields+0x7>
    2647: 8e 82 d5     	stx	$d582                   ; 0xd582 <__heap_start+0x8c40>
    264a: 8d 81 d5     	sta	$d581                   ; 0xd581 <__heap_start+0x8c3f>
    264d: ad 25 49     	lda	$4925                   ; 0x4925 <opl3_fields+0x7e>
    2650: 0a           	asl
    2651: 0a           	asl
    2652: 0a           	asl
    2653: 0a           	asl
    2654: 0d 33 49     	ora	$4933                   ; 0x4933 <opl3_fields+0x8c>
    2657: a2 20        	ldx	#$20
    2659: 8e 80 d5     	stx	$d580                   ; 0xd580 <__heap_start+0x8c3e>
    265c: 8d 81 d5     	sta	$d581                   ; 0xd581 <__heap_start+0x8c3f>
    265f: ad 2c 49     	lda	$492c                   ; 0x492c <opl3_fields+0x85>
    2662: 0a           	asl
    2663: 0a           	asl
    2664: 0a           	asl
    2665: 0a           	asl
    2666: 0d 3a 49     	ora	$493a                   ; 0x493a <opl3_fields+0x93>
    2669: a2 23        	ldx	#$23
    266b: 8e 80 d5     	stx	$d580                   ; 0xd580 <__heap_start+0x8c3e>
    266e: 8d 81 d5     	sta	$d581                   ; 0xd581 <__heap_start+0x8c3f>
    2671: ad 17 49     	lda	$4917                   ; 0x4917 <opl3_fields+0x70>
    2674: 4a           	lsr
    2675: 64 12        	stz	$12                     ; 0x2012 <main+0x1a31>
    2677: 66 12        	ror	$12                     ; 0x2012 <main+0x1a31>
    2679: 4a           	lsr
    267a: 66 12        	ror	$12                     ; 0x2012 <main+0x1a31>
    267c: ad fb 48     	lda	$48fb                   ; 0x48fb <opl3_fields+0x54>
    267f: 0a           	asl
    2680: 0a           	asl
    2681: 0a           	asl
    2682: 0a           	asl
    2683: 05 12        	ora	$12                     ; 0x2012 <main+0x1a31>
    2685: 0d 02 49     	ora	$4902                   ; 0x4902 <opl3_fields+0x5b>
    2688: a2 40        	ldx	#$40
    268a: 8e 80 d5     	stx	$d580                   ; 0xd580 <__heap_start+0x8c3e>
    268d: 8d 81 d5     	sta	$d581                   ; 0xd581 <__heap_start+0x8c3f>
    2690: ad 1e 49     	lda	$491e                   ; 0x491e <opl3_fields+0x77>
    2693: 4a           	lsr
    2694: 64 12        	stz	$12                     ; 0x2012 <main+0x1a31>
    2696: 66 12        	ror	$12                     ; 0x2012 <main+0x1a31>
    2698: 4a           	lsr
    2699: 66 12        	ror	$12                     ; 0x2012 <main+0x1a31>
    269b: ad 09 49     	lda	$4909                   ; 0x4909 <opl3_fields+0x62>
    269e: 0a           	asl
    269f: 0a           	asl
    26a0: 0a           	asl
    26a1: 0a           	asl
    26a2: 05 12        	ora	$12                     ; 0x2012 <main+0x1a31>
    26a4: 0d 10 49     	ora	$4910                   ; 0x4910 <opl3_fields+0x69>
    26a7: a2 43        	ldx	#$43
    26a9: 8e 80 d5     	stx	$d580                   ; 0xd580 <__heap_start+0x8c3e>
    26ac: 8d 81 d5     	sta	$d581                   ; 0xd581 <__heap_start+0x8c3f>
    26af: ad c3 48     	lda	$48c3                   ; 0x48c3 <opl3_fields+0x1c>
    26b2: 0a           	asl
    26b3: 0a           	asl
    26b4: 0a           	asl
    26b5: 0a           	asl
    26b6: 0d d1 48     	ora	$48d1                   ; 0x48d1 <opl3_fields+0x2a>
    26b9: a2 60        	ldx	#$60
    26bb: 8e 80 d5     	stx	$d580                   ; 0xd580 <__heap_start+0x8c3e>
    26be: 8d 81 d5     	sta	$d581                   ; 0xd581 <__heap_start+0x8c3f>
    26c1: ad ca 48     	lda	$48ca                   ; 0x48ca <opl3_fields+0x23>
    26c4: 0a           	asl
    26c5: 0a           	asl
    26c6: 0a           	asl
    26c7: 0a           	asl
    26c8: 0d d8 48     	ora	$48d8                   ; 0x48d8 <opl3_fields+0x31>
    26cb: a2 63        	ldx	#$63
    26cd: 8e 80 d5     	stx	$d580                   ; 0xd580 <__heap_start+0x8c3e>
    26d0: 8d 81 d5     	sta	$d581                   ; 0xd581 <__heap_start+0x8c3f>
    26d3: ad df 48     	lda	$48df                   ; 0x48df <opl3_fields+0x38>
    26d6: 0a           	asl
    26d7: 0a           	asl
    26d8: 0a           	asl
    26d9: 0a           	asl
    26da: 0d ed 48     	ora	$48ed                   ; 0x48ed <opl3_fields+0x46>
    26dd: a2 80        	ldx	#$80
    26df: 8e 80 d5     	stx	$d580                   ; 0xd580 <__heap_start+0x8c3e>
    26e2: 8d 81 d5     	sta	$d581                   ; 0xd581 <__heap_start+0x8c3f>
    26e5: ad e6 48     	lda	$48e6                   ; 0x48e6 <opl3_fields+0x3f>
    26e8: 0a           	asl
    26e9: 0a           	asl
    26ea: 0a           	asl
    26eb: 0a           	asl
    26ec: 0d f4 48     	ora	$48f4                   ; 0x48f4 <opl3_fields+0x4d>
    26ef: a2 83        	ldx	#$83
    26f1: 8e 80 d5     	stx	$d580                   ; 0xd580 <__heap_start+0x8c3e>
    26f4: 8d 81 d5     	sta	$d581                   ; 0xd581 <__heap_start+0x8c3f>
    26f7: ad b5 48     	lda	$48b5                   ; 0x48b5 <opl3_fields+0xe>
    26fa: 0a           	asl
    26fb: 0a           	asl
    26fc: 0a           	asl
    26fd: 0a           	asl
    26fe: a2 e0        	ldx	#$e0
    2700: 8e 80 d5     	stx	$d580                   ; 0xd580 <__heap_start+0x8c3e>
    2703: 8d 81 d5     	sta	$d581                   ; 0xd581 <__heap_start+0x8c3f>
    2706: ad bc 48     	lda	$48bc                   ; 0x48bc <opl3_fields+0x15>
    2709: 0a           	asl
    270a: 0a           	asl
    270b: 0a           	asl
    270c: 0a           	asl
    270d: a2 e3        	ldx	#$e3
    270f: 8e 80 d5     	stx	$d580                   ; 0xd580 <__heap_start+0x8c3e>
    2712: 8d 81 d5     	sta	$d581                   ; 0xd581 <__heap_start+0x8c3f>
    2715: ad 25 49     	lda	$4925                   ; 0x4925 <opl3_fields+0x7e>
    2718: 0a           	asl
    2719: 0a           	asl
    271a: 0a           	asl
    271b: 0a           	asl
    271c: 0d 33 49     	ora	$4933                   ; 0x4933 <opl3_fields+0x8c>
    271f: a2 21        	ldx	#$21
    2721: 8e 80 d5     	stx	$d580                   ; 0xd580 <__heap_start+0x8c3e>
    2724: 8d 81 d5     	sta	$d581                   ; 0xd581 <__heap_start+0x8c3f>
    2727: ad 2c 49     	lda	$492c                   ; 0x492c <opl3_fields+0x85>
    272a: 0a           	asl
    272b: 0a           	asl
    272c: 0a           	asl
    272d: 0a           	asl
    272e: 0d 3a 49     	ora	$493a                   ; 0x493a <opl3_fields+0x93>
    2731: a2 24        	ldx	#$24
    2733: 8e 80 d5     	stx	$d580                   ; 0xd580 <__heap_start+0x8c3e>
    2736: 8d 81 d5     	sta	$d581                   ; 0xd581 <__heap_start+0x8c3f>
    2739: 64 12        	stz	$12                     ; 0x2012 <main+0x1a31>
    273b: ad 17 49     	lda	$4917                   ; 0x4917 <opl3_fields+0x70>
    273e: 4a           	lsr
    273f: 66 12        	ror	$12                     ; 0x2012 <main+0x1a31>
    2741: 4a           	lsr
    2742: 66 12        	ror	$12                     ; 0x2012 <main+0x1a31>
    2744: ad fb 48     	lda	$48fb                   ; 0x48fb <opl3_fields+0x54>
    2747: 0a           	asl
    2748: 0a           	asl
    2749: 0a           	asl
    274a: 0a           	asl
    274b: 05 12        	ora	$12                     ; 0x2012 <main+0x1a31>
    274d: 0d 02 49     	ora	$4902                   ; 0x4902 <opl3_fields+0x5b>
    2750: a2 41        	ldx	#$41
    2752: 8e 80 d5     	stx	$d580                   ; 0xd580 <__heap_start+0x8c3e>
    2755: 8d 81 d5     	sta	$d581                   ; 0xd581 <__heap_start+0x8c3f>
    2758: 64 12        	stz	$12                     ; 0x2012 <main+0x1a31>
    275a: ad 1e 49     	lda	$491e                   ; 0x491e <opl3_fields+0x77>
    275d: 4a           	lsr
    275e: 66 12        	ror	$12                     ; 0x2012 <main+0x1a31>
    2760: 4a           	lsr
    2761: 66 12        	ror	$12                     ; 0x2012 <main+0x1a31>
    2763: ad 09 49     	lda	$4909                   ; 0x4909 <opl3_fields+0x62>
    2766: 0a           	asl
    2767: 0a           	asl
    2768: 0a           	asl
    2769: 0a           	asl
    276a: 05 12        	ora	$12                     ; 0x2012 <main+0x1a31>
    276c: 0d 10 49     	ora	$4910                   ; 0x4910 <opl3_fields+0x69>
    276f: a2 44        	ldx	#$44
    2771: 8e 80 d5     	stx	$d580                   ; 0xd580 <__heap_start+0x8c3e>
    2774: 8d 81 d5     	sta	$d581                   ; 0xd581 <__heap_start+0x8c3f>
    2777: ad c3 48     	lda	$48c3                   ; 0x48c3 <opl3_fields+0x1c>
    277a: 0a           	asl
    277b: 0a           	asl
    277c: 0a           	asl
    277d: 0a           	asl
    277e: 0d d1 48     	ora	$48d1                   ; 0x48d1 <opl3_fields+0x2a>
    2781: a2 61        	ldx	#$61
    2783: 8e 80 d5     	stx	$d580                   ; 0xd580 <__heap_start+0x8c3e>
    2786: 8d 81 d5     	sta	$d581                   ; 0xd581 <__heap_start+0x8c3f>
    2789: ad ca 48     	lda	$48ca                   ; 0x48ca <opl3_fields+0x23>
    278c: 0a           	asl
    278d: 0a           	asl
    278e: 0a           	asl
    278f: 0a           	asl
    2790: 0d d8 48     	ora	$48d8                   ; 0x48d8 <opl3_fields+0x31>
    2793: a2 64        	ldx	#$64
    2795: 8e 80 d5     	stx	$d580                   ; 0xd580 <__heap_start+0x8c3e>
    2798: 8d 81 d5     	sta	$d581                   ; 0xd581 <__heap_start+0x8c3f>
    279b: ad df 48     	lda	$48df                   ; 0x48df <opl3_fields+0x38>
    279e: 0a           	asl
    279f: 0a           	asl
    27a0: 0a           	asl
    27a1: 0a           	asl
    27a2: 0d ed 48     	ora	$48ed                   ; 0x48ed <opl3_fields+0x46>
    27a5: a2 81        	ldx	#$81
    27a7: 8e 80 d5     	stx	$d580                   ; 0xd580 <__heap_start+0x8c3e>
    27aa: 8d 81 d5     	sta	$d581                   ; 0xd581 <__heap_start+0x8c3f>
    27ad: ad e6 48     	lda	$48e6                   ; 0x48e6 <opl3_fields+0x3f>
    27b0: 0a           	asl
    27b1: 0a           	asl
    27b2: 0a           	asl
    27b3: 0a           	asl
    27b4: 0d f4 48     	ora	$48f4                   ; 0x48f4 <opl3_fields+0x4d>
    27b7: a2 84        	ldx	#$84
    27b9: 8e 80 d5     	stx	$d580                   ; 0xd580 <__heap_start+0x8c3e>
    27bc: 8d 81 d5     	sta	$d581                   ; 0xd581 <__heap_start+0x8c3f>
    27bf: ad b5 48     	lda	$48b5                   ; 0x48b5 <opl3_fields+0xe>
    27c2: 0a           	asl
    27c3: 0a           	asl
    27c4: 0a           	asl
    27c5: 0a           	asl
    27c6: a2 e1        	ldx	#$e1
    27c8: 8e 80 d5     	stx	$d580                   ; 0xd580 <__heap_start+0x8c3e>
    27cb: 8d 81 d5     	sta	$d581                   ; 0xd581 <__heap_start+0x8c3f>
    27ce: ad bc 48     	lda	$48bc                   ; 0x48bc <opl3_fields+0x15>
    27d1: 0a           	asl
    27d2: 0a           	asl
    27d3: 0a           	asl
    27d4: 0a           	asl
    27d5: a2 e4        	ldx	#$e4
    27d7: 8e 80 d5     	stx	$d580                   ; 0xd580 <__heap_start+0x8c3e>
    27da: 8d 81 d5     	sta	$d581                   ; 0xd581 <__heap_start+0x8c3f>
    27dd: ad 25 49     	lda	$4925                   ; 0x4925 <opl3_fields+0x7e>
    27e0: 0a           	asl
    27e1: 0a           	asl
    27e2: 0a           	asl
    27e3: 0a           	asl
    27e4: 0d 33 49     	ora	$4933                   ; 0x4933 <opl3_fields+0x8c>
    27e7: a2 22        	ldx	#$22
    27e9: 8e 80 d5     	stx	$d580                   ; 0xd580 <__heap_start+0x8c3e>
    27ec: 8d 81 d5     	sta	$d581                   ; 0xd581 <__heap_start+0x8c3f>
    27ef: ad 2c 49     	lda	$492c                   ; 0x492c <opl3_fields+0x85>
    27f2: 0a           	asl
    27f3: 0a           	asl
    27f4: 0a           	asl
    27f5: 0a           	asl
    27f6: 0d 3a 49     	ora	$493a                   ; 0x493a <opl3_fields+0x93>
    27f9: a2 25        	ldx	#$25
    27fb: 8e 80 d5     	stx	$d580                   ; 0xd580 <__heap_start+0x8c3e>
    27fe: 8d 81 d5     	sta	$d581                   ; 0xd581 <__heap_start+0x8c3f>
    2801: 64 12        	stz	$12                     ; 0x2012 <main+0x1a31>
    2803: ad 17 49     	lda	$4917                   ; 0x4917 <opl3_fields+0x70>
    2806: 4a           	lsr
    2807: 66 12        	ror	$12                     ; 0x2012 <main+0x1a31>
    2809: 4a           	lsr
    280a: 66 12        	ror	$12                     ; 0x2012 <main+0x1a31>
    280c: ad fb 48     	lda	$48fb                   ; 0x48fb <opl3_fields+0x54>
    280f: 0a           	asl
    2810: 0a           	asl
    2811: 0a           	asl
    2812: 0a           	asl
    2813: 05 12        	ora	$12                     ; 0x2012 <main+0x1a31>
    2815: 0d 02 49     	ora	$4902                   ; 0x4902 <opl3_fields+0x5b>
    2818: a2 42        	ldx	#$42
    281a: 8e 80 d5     	stx	$d580                   ; 0xd580 <__heap_start+0x8c3e>
    281d: 8d 81 d5     	sta	$d581                   ; 0xd581 <__heap_start+0x8c3f>
    2820: 64 12        	stz	$12                     ; 0x2012 <main+0x1a31>
    2822: ad 1e 49     	lda	$491e                   ; 0x491e <opl3_fields+0x77>
    2825: 4a           	lsr
    2826: 66 12        	ror	$12                     ; 0x2012 <main+0x1a31>
    2828: 4a           	lsr
    2829: 66 12        	ror	$12                     ; 0x2012 <main+0x1a31>
    282b: ad 09 49     	lda	$4909                   ; 0x4909 <opl3_fields+0x62>
    282e: 0a           	asl
    282f: 0a           	asl
    2830: 0a           	asl
    2831: 0a           	asl
    2832: 05 12        	ora	$12                     ; 0x2012 <main+0x1a31>
    2834: 0d 10 49     	ora	$4910                   ; 0x4910 <opl3_fields+0x69>
    2837: a2 45        	ldx	#$45
    2839: 8e 80 d5     	stx	$d580                   ; 0xd580 <__heap_start+0x8c3e>
    283c: 8d 81 d5     	sta	$d581                   ; 0xd581 <__heap_start+0x8c3f>
    283f: ad c3 48     	lda	$48c3                   ; 0x48c3 <opl3_fields+0x1c>
    2842: 0a           	asl
    2843: 0a           	asl
    2844: 0a           	asl
    2845: 0a           	asl
    2846: 0d d1 48     	ora	$48d1                   ; 0x48d1 <opl3_fields+0x2a>
    2849: a2 62        	ldx	#$62
    284b: 8e 80 d5     	stx	$d580                   ; 0xd580 <__heap_start+0x8c3e>
    284e: 8d 81 d5     	sta	$d581                   ; 0xd581 <__heap_start+0x8c3f>
    2851: ad ca 48     	lda	$48ca                   ; 0x48ca <opl3_fields+0x23>
    2854: 0a           	asl
    2855: 0a           	asl
    2856: 0a           	asl
    2857: 0a           	asl
    2858: 0d d8 48     	ora	$48d8                   ; 0x48d8 <opl3_fields+0x31>
    285b: a2 65        	ldx	#$65
    285d: 8e 80 d5     	stx	$d580                   ; 0xd580 <__heap_start+0x8c3e>
    2860: 8d 81 d5     	sta	$d581                   ; 0xd581 <__heap_start+0x8c3f>
    2863: ad df 48     	lda	$48df                   ; 0x48df <opl3_fields+0x38>
    2866: 0a           	asl
    2867: 0a           	asl
    2868: 0a           	asl
    2869: 0a           	asl
    286a: 0d ed 48     	ora	$48ed                   ; 0x48ed <opl3_fields+0x46>
    286d: a2 82        	ldx	#$82
    286f: 8e 80 d5     	stx	$d580                   ; 0xd580 <__heap_start+0x8c3e>
    2872: 8d 81 d5     	sta	$d581                   ; 0xd581 <__heap_start+0x8c3f>
    2875: ad e6 48     	lda	$48e6                   ; 0x48e6 <opl3_fields+0x3f>
    2878: 0a           	asl
    2879: 0a           	asl
    287a: 0a           	asl
    287b: 0a           	asl
    287c: 0d f4 48     	ora	$48f4                   ; 0x48f4 <opl3_fields+0x4d>
    287f: a2 85        	ldx	#$85
    2881: 8e 80 d5     	stx	$d580                   ; 0xd580 <__heap_start+0x8c3e>
    2884: 8d 81 d5     	sta	$d581                   ; 0xd581 <__heap_start+0x8c3f>
    2887: ad b5 48     	lda	$48b5                   ; 0x48b5 <opl3_fields+0xe>
    288a: 0a           	asl
    288b: 0a           	asl
    288c: 0a           	asl
    288d: 0a           	asl
    288e: a2 e2        	ldx	#$e2
    2890: 8e 80 d5     	stx	$d580                   ; 0xd580 <__heap_start+0x8c3e>
    2893: 8d 81 d5     	sta	$d581                   ; 0xd581 <__heap_start+0x8c3f>
    2896: ad bc 48     	lda	$48bc                   ; 0x48bc <opl3_fields+0x15>
    2899: 0a           	asl
    289a: 0a           	asl
    289b: 0a           	asl
    289c: 0a           	asl
    289d: a2 e5        	ldx	#$e5
    289f: 8e 80 d5     	stx	$d580                   ; 0xd580 <__heap_start+0x8c3e>
    28a2: 8d 81 d5     	sta	$d581                   ; 0xd581 <__heap_start+0x8c3f>
    28a5: ad 25 49     	lda	$4925                   ; 0x4925 <opl3_fields+0x7e>
    28a8: 0a           	asl
    28a9: 0a           	asl
    28aa: 0a           	asl
    28ab: 0a           	asl
    28ac: 0d 33 49     	ora	$4933                   ; 0x4933 <opl3_fields+0x8c>
    28af: a2 28        	ldx	#$28
    28b1: 8e 80 d5     	stx	$d580                   ; 0xd580 <__heap_start+0x8c3e>
    28b4: 8d 81 d5     	sta	$d581                   ; 0xd581 <__heap_start+0x8c3f>
    28b7: ad 2c 49     	lda	$492c                   ; 0x492c <opl3_fields+0x85>
    28ba: 0a           	asl
    28bb: 0a           	asl
    28bc: 0a           	asl
    28bd: 0a           	asl
    28be: 0d 3a 49     	ora	$493a                   ; 0x493a <opl3_fields+0x93>
    28c1: a2 2b        	ldx	#$2b
    28c3: 8e 80 d5     	stx	$d580                   ; 0xd580 <__heap_start+0x8c3e>
    28c6: 8d 81 d5     	sta	$d581                   ; 0xd581 <__heap_start+0x8c3f>
    28c9: 64 12        	stz	$12                     ; 0x2012 <main+0x1a31>
    28cb: ad 17 49     	lda	$4917                   ; 0x4917 <opl3_fields+0x70>
    28ce: 4a           	lsr
    28cf: 66 12        	ror	$12                     ; 0x2012 <main+0x1a31>
    28d1: 4a           	lsr
    28d2: 66 12        	ror	$12                     ; 0x2012 <main+0x1a31>
    28d4: ad fb 48     	lda	$48fb                   ; 0x48fb <opl3_fields+0x54>
    28d7: 0a           	asl
    28d8: 0a           	asl
    28d9: 0a           	asl
    28da: 0a           	asl
    28db: 05 12        	ora	$12                     ; 0x2012 <main+0x1a31>
    28dd: 0d 02 49     	ora	$4902                   ; 0x4902 <opl3_fields+0x5b>
    28e0: a2 48        	ldx	#$48
    28e2: 8e 80 d5     	stx	$d580                   ; 0xd580 <__heap_start+0x8c3e>
    28e5: 8d 81 d5     	sta	$d581                   ; 0xd581 <__heap_start+0x8c3f>
    28e8: 64 12        	stz	$12                     ; 0x2012 <main+0x1a31>
    28ea: ad 1e 49     	lda	$491e                   ; 0x491e <opl3_fields+0x77>
    28ed: 4a           	lsr
    28ee: 66 12        	ror	$12                     ; 0x2012 <main+0x1a31>
    28f0: 4a           	lsr
    28f1: 66 12        	ror	$12                     ; 0x2012 <main+0x1a31>
    28f3: ad 09 49     	lda	$4909                   ; 0x4909 <opl3_fields+0x62>
    28f6: 0a           	asl
    28f7: 0a           	asl
    28f8: 0a           	asl
    28f9: 0a           	asl
    28fa: 05 12        	ora	$12                     ; 0x2012 <main+0x1a31>
    28fc: 0d 10 49     	ora	$4910                   ; 0x4910 <opl3_fields+0x69>
    28ff: a2 4b        	ldx	#$4b
    2901: 8e 80 d5     	stx	$d580                   ; 0xd580 <__heap_start+0x8c3e>
    2904: 8d 81 d5     	sta	$d581                   ; 0xd581 <__heap_start+0x8c3f>
    2907: ad c3 48     	lda	$48c3                   ; 0x48c3 <opl3_fields+0x1c>
    290a: 0a           	asl
    290b: 0a           	asl
    290c: 0a           	asl
    290d: 0a           	asl
    290e: 0d d1 48     	ora	$48d1                   ; 0x48d1 <opl3_fields+0x2a>
    2911: a2 68        	ldx	#$68
    2913: 8e 80 d5     	stx	$d580                   ; 0xd580 <__heap_start+0x8c3e>
    2916: 8d 81 d5     	sta	$d581                   ; 0xd581 <__heap_start+0x8c3f>
    2919: ad ca 48     	lda	$48ca                   ; 0x48ca <opl3_fields+0x23>
    291c: 0a           	asl
    291d: 0a           	asl
    291e: 0a           	asl
    291f: 0a           	asl
    2920: 0d d8 48     	ora	$48d8                   ; 0x48d8 <opl3_fields+0x31>
    2923: a2 6b        	ldx	#$6b
    2925: 8e 80 d5     	stx	$d580                   ; 0xd580 <__heap_start+0x8c3e>
    2928: 8d 81 d5     	sta	$d581                   ; 0xd581 <__heap_start+0x8c3f>
    292b: ad df 48     	lda	$48df                   ; 0x48df <opl3_fields+0x38>
    292e: 0a           	asl
    292f: 0a           	asl
    2930: 0a           	asl
    2931: 0a           	asl
    2932: 0d ed 48     	ora	$48ed                   ; 0x48ed <opl3_fields+0x46>
    2935: a2 88        	ldx	#$88
    2937: 8e 80 d5     	stx	$d580                   ; 0xd580 <__heap_start+0x8c3e>
    293a: 8d 81 d5     	sta	$d581                   ; 0xd581 <__heap_start+0x8c3f>
    293d: ad e6 48     	lda	$48e6                   ; 0x48e6 <opl3_fields+0x3f>
    2940: 0a           	asl
    2941: 0a           	asl
    2942: 0a           	asl
    2943: 0a           	asl
    2944: 0d f4 48     	ora	$48f4                   ; 0x48f4 <opl3_fields+0x4d>
    2947: a2 8b        	ldx	#$8b
    2949: 8e 80 d5     	stx	$d580                   ; 0xd580 <__heap_start+0x8c3e>
    294c: 8d 81 d5     	sta	$d581                   ; 0xd581 <__heap_start+0x8c3f>
    294f: ad b5 48     	lda	$48b5                   ; 0x48b5 <opl3_fields+0xe>
    2952: 0a           	asl
    2953: 0a           	asl
    2954: 0a           	asl
    2955: 0a           	asl
    2956: a2 e8        	ldx	#$e8
    2958: 8e 80 d5     	stx	$d580                   ; 0xd580 <__heap_start+0x8c3e>
    295b: 8d 81 d5     	sta	$d581                   ; 0xd581 <__heap_start+0x8c3f>
    295e: ad bc 48     	lda	$48bc                   ; 0x48bc <opl3_fields+0x15>
    2961: 0a           	asl
    2962: 0a           	asl
    2963: 0a           	asl
    2964: 0a           	asl
    2965: a2 eb        	ldx	#$eb
    2967: 8e 80 d5     	stx	$d580                   ; 0xd580 <__heap_start+0x8c3e>
    296a: 8d 81 d5     	sta	$d581                   ; 0xd581 <__heap_start+0x8c3f>
    296d: ad 25 49     	lda	$4925                   ; 0x4925 <opl3_fields+0x7e>
    2970: 0a           	asl
    2971: 0a           	asl
    2972: 0a           	asl
    2973: 0a           	asl
    2974: 0d 33 49     	ora	$4933                   ; 0x4933 <opl3_fields+0x8c>
    2977: a2 29        	ldx	#$29
    2979: 8e 80 d5     	stx	$d580                   ; 0xd580 <__heap_start+0x8c3e>
    297c: 8d 81 d5     	sta	$d581                   ; 0xd581 <__heap_start+0x8c3f>
    297f: ad 2c 49     	lda	$492c                   ; 0x492c <opl3_fields+0x85>
    2982: 0a           	asl
    2983: 0a           	asl
    2984: 0a           	asl
    2985: 0a           	asl
    2986: 0d 3a 49     	ora	$493a                   ; 0x493a <opl3_fields+0x93>
    2989: a2 2c        	ldx	#$2c
    298b: 8e 80 d5     	stx	$d580                   ; 0xd580 <__heap_start+0x8c3e>
    298e: 8d 81 d5     	sta	$d581                   ; 0xd581 <__heap_start+0x8c3f>
    2991: 64 12        	stz	$12                     ; 0x2012 <main+0x1a31>
    2993: ad 17 49     	lda	$4917                   ; 0x4917 <opl3_fields+0x70>
    2996: 4a           	lsr
    2997: 66 12        	ror	$12                     ; 0x2012 <main+0x1a31>
    2999: 4a           	lsr
    299a: 66 12        	ror	$12                     ; 0x2012 <main+0x1a31>
    299c: ad fb 48     	lda	$48fb                   ; 0x48fb <opl3_fields+0x54>
    299f: 0a           	asl
    29a0: 0a           	asl
    29a1: 0a           	asl
    29a2: 0a           	asl
    29a3: 05 12        	ora	$12                     ; 0x2012 <main+0x1a31>
    29a5: 0d 02 49     	ora	$4902                   ; 0x4902 <opl3_fields+0x5b>
    29a8: a2 49        	ldx	#$49
    29aa: 8e 80 d5     	stx	$d580                   ; 0xd580 <__heap_start+0x8c3e>
    29ad: 8d 81 d5     	sta	$d581                   ; 0xd581 <__heap_start+0x8c3f>
    29b0: 64 12        	stz	$12                     ; 0x2012 <main+0x1a31>
    29b2: ad 1e 49     	lda	$491e                   ; 0x491e <opl3_fields+0x77>
    29b5: 4a           	lsr
    29b6: 66 12        	ror	$12                     ; 0x2012 <main+0x1a31>
    29b8: 4a           	lsr
    29b9: 66 12        	ror	$12                     ; 0x2012 <main+0x1a31>
    29bb: ad 09 49     	lda	$4909                   ; 0x4909 <opl3_fields+0x62>
    29be: 0a           	asl
    29bf: 0a           	asl
    29c0: 0a           	asl
    29c1: 0a           	asl
    29c2: 05 12        	ora	$12                     ; 0x2012 <main+0x1a31>
    29c4: 0d 10 49     	ora	$4910                   ; 0x4910 <opl3_fields+0x69>
    29c7: a2 4c        	ldx	#$4c
    29c9: 8e 80 d5     	stx	$d580                   ; 0xd580 <__heap_start+0x8c3e>
    29cc: 8d 81 d5     	sta	$d581                   ; 0xd581 <__heap_start+0x8c3f>
    29cf: ad c3 48     	lda	$48c3                   ; 0x48c3 <opl3_fields+0x1c>
    29d2: 0a           	asl
    29d3: 0a           	asl
    29d4: 0a           	asl
    29d5: 0a           	asl
    29d6: 0d d1 48     	ora	$48d1                   ; 0x48d1 <opl3_fields+0x2a>
    29d9: a2 69        	ldx	#$69
    29db: 8e 80 d5     	stx	$d580                   ; 0xd580 <__heap_start+0x8c3e>
    29de: 8d 81 d5     	sta	$d581                   ; 0xd581 <__heap_start+0x8c3f>
    29e1: ad ca 48     	lda	$48ca                   ; 0x48ca <opl3_fields+0x23>
    29e4: 0a           	asl
    29e5: 0a           	asl
    29e6: 0a           	asl
    29e7: 0a           	asl
    29e8: 0d d8 48     	ora	$48d8                   ; 0x48d8 <opl3_fields+0x31>
    29eb: a2 6c        	ldx	#$6c
    29ed: 8e 80 d5     	stx	$d580                   ; 0xd580 <__heap_start+0x8c3e>
    29f0: 8d 81 d5     	sta	$d581                   ; 0xd581 <__heap_start+0x8c3f>
    29f3: ad df 48     	lda	$48df                   ; 0x48df <opl3_fields+0x38>
    29f6: 0a           	asl
    29f7: 0a           	asl
    29f8: 0a           	asl
    29f9: 0a           	asl
    29fa: 0d ed 48     	ora	$48ed                   ; 0x48ed <opl3_fields+0x46>
    29fd: a2 89        	ldx	#$89
    29ff: 8e 80 d5     	stx	$d580                   ; 0xd580 <__heap_start+0x8c3e>
    2a02: 8d 81 d5     	sta	$d581                   ; 0xd581 <__heap_start+0x8c3f>
    2a05: ad e6 48     	lda	$48e6                   ; 0x48e6 <opl3_fields+0x3f>
    2a08: 0a           	asl
    2a09: 0a           	asl
    2a0a: 0a           	asl
    2a0b: 0a           	asl
    2a0c: 0d f4 48     	ora	$48f4                   ; 0x48f4 <opl3_fields+0x4d>
    2a0f: a2 8c        	ldx	#$8c
    2a11: 8e 80 d5     	stx	$d580                   ; 0xd580 <__heap_start+0x8c3e>
    2a14: 8d 81 d5     	sta	$d581                   ; 0xd581 <__heap_start+0x8c3f>
    2a17: ad b5 48     	lda	$48b5                   ; 0x48b5 <opl3_fields+0xe>
    2a1a: 0a           	asl
    2a1b: 0a           	asl
    2a1c: 0a           	asl
    2a1d: 0a           	asl
    2a1e: a2 e9        	ldx	#$e9
    2a20: 8e 80 d5     	stx	$d580                   ; 0xd580 <__heap_start+0x8c3e>
    2a23: 8d 81 d5     	sta	$d581                   ; 0xd581 <__heap_start+0x8c3f>
    2a26: ad bc 48     	lda	$48bc                   ; 0x48bc <opl3_fields+0x15>
    2a29: 0a           	asl
    2a2a: 0a           	asl
    2a2b: 0a           	asl
    2a2c: 0a           	asl
    2a2d: a2 ec        	ldx	#$ec
    2a2f: 8e 80 d5     	stx	$d580                   ; 0xd580 <__heap_start+0x8c3e>
    2a32: 8d 81 d5     	sta	$d581                   ; 0xd581 <__heap_start+0x8c3f>
    2a35: ad 25 49     	lda	$4925                   ; 0x4925 <opl3_fields+0x7e>
    2a38: 0a           	asl
    2a39: 0a           	asl
    2a3a: 0a           	asl
    2a3b: 0a           	asl
    2a3c: 0d 33 49     	ora	$4933                   ; 0x4933 <opl3_fields+0x8c>
    2a3f: a2 2a        	ldx	#$2a
    2a41: 8e 80 d5     	stx	$d580                   ; 0xd580 <__heap_start+0x8c3e>
    2a44: 8d 81 d5     	sta	$d581                   ; 0xd581 <__heap_start+0x8c3f>
    2a47: ad 2c 49     	lda	$492c                   ; 0x492c <opl3_fields+0x85>
    2a4a: 0a           	asl
    2a4b: 0a           	asl
    2a4c: 0a           	asl
    2a4d: 0a           	asl
    2a4e: 0d 3a 49     	ora	$493a                   ; 0x493a <opl3_fields+0x93>
    2a51: a2 2d        	ldx	#$2d
    2a53: 8e 80 d5     	stx	$d580                   ; 0xd580 <__heap_start+0x8c3e>
    2a56: 8d 81 d5     	sta	$d581                   ; 0xd581 <__heap_start+0x8c3f>
    2a59: 64 12        	stz	$12                     ; 0x2012 <main+0x1a31>
    2a5b: ad 17 49     	lda	$4917                   ; 0x4917 <opl3_fields+0x70>
    2a5e: 4a           	lsr
    2a5f: 66 12        	ror	$12                     ; 0x2012 <main+0x1a31>
    2a61: 4a           	lsr
    2a62: 66 12        	ror	$12                     ; 0x2012 <main+0x1a31>
    2a64: ad fb 48     	lda	$48fb                   ; 0x48fb <opl3_fields+0x54>
    2a67: 0a           	asl
    2a68: 0a           	asl
    2a69: 0a           	asl
    2a6a: 0a           	asl
    2a6b: 05 12        	ora	$12                     ; 0x2012 <main+0x1a31>
    2a6d: 0d 02 49     	ora	$4902                   ; 0x4902 <opl3_fields+0x5b>
    2a70: a2 4a        	ldx	#$4a
    2a72: 8e 80 d5     	stx	$d580                   ; 0xd580 <__heap_start+0x8c3e>
    2a75: 8d 81 d5     	sta	$d581                   ; 0xd581 <__heap_start+0x8c3f>
    2a78: 64 12        	stz	$12                     ; 0x2012 <main+0x1a31>
    2a7a: ad 1e 49     	lda	$491e                   ; 0x491e <opl3_fields+0x77>
    2a7d: 4a           	lsr
    2a7e: 66 12        	ror	$12                     ; 0x2012 <main+0x1a31>
    2a80: 4a           	lsr
    2a81: 66 12        	ror	$12                     ; 0x2012 <main+0x1a31>
    2a83: ad 09 49     	lda	$4909                   ; 0x4909 <opl3_fields+0x62>
    2a86: 0a           	asl
    2a87: 0a           	asl
    2a88: 0a           	asl
    2a89: 0a           	asl
    2a8a: 05 12        	ora	$12                     ; 0x2012 <main+0x1a31>
    2a8c: 0d 10 49     	ora	$4910                   ; 0x4910 <opl3_fields+0x69>
    2a8f: a2 4d        	ldx	#$4d
    2a91: 8e 80 d5     	stx	$d580                   ; 0xd580 <__heap_start+0x8c3e>
    2a94: 8d 81 d5     	sta	$d581                   ; 0xd581 <__heap_start+0x8c3f>
    2a97: ad c3 48     	lda	$48c3                   ; 0x48c3 <opl3_fields+0x1c>
    2a9a: 0a           	asl
    2a9b: 0a           	asl
    2a9c: 0a           	asl
    2a9d: 0a           	asl
    2a9e: 0d d1 48     	ora	$48d1                   ; 0x48d1 <opl3_fields+0x2a>
    2aa1: a2 6a        	ldx	#$6a
    2aa3: 8e 80 d5     	stx	$d580                   ; 0xd580 <__heap_start+0x8c3e>
    2aa6: 8d 81 d5     	sta	$d581                   ; 0xd581 <__heap_start+0x8c3f>
    2aa9: ad ca 48     	lda	$48ca                   ; 0x48ca <opl3_fields+0x23>
    2aac: 0a           	asl
    2aad: 0a           	asl
    2aae: 0a           	asl
    2aaf: 0a           	asl
    2ab0: 0d d8 48     	ora	$48d8                   ; 0x48d8 <opl3_fields+0x31>
    2ab3: a2 6d        	ldx	#$6d
    2ab5: 8e 80 d5     	stx	$d580                   ; 0xd580 <__heap_start+0x8c3e>
    2ab8: 8d 81 d5     	sta	$d581                   ; 0xd581 <__heap_start+0x8c3f>
    2abb: ad df 48     	lda	$48df                   ; 0x48df <opl3_fields+0x38>
    2abe: 0a           	asl
    2abf: 0a           	asl
    2ac0: 0a           	asl
    2ac1: 0a           	asl
    2ac2: 0d ed 48     	ora	$48ed                   ; 0x48ed <opl3_fields+0x46>
    2ac5: a2 8a        	ldx	#$8a
    2ac7: 8e 80 d5     	stx	$d580                   ; 0xd580 <__heap_start+0x8c3e>
    2aca: 8d 81 d5     	sta	$d581                   ; 0xd581 <__heap_start+0x8c3f>
    2acd: ad e6 48     	lda	$48e6                   ; 0x48e6 <opl3_fields+0x3f>
    2ad0: 0a           	asl
    2ad1: 0a           	asl
    2ad2: 0a           	asl
    2ad3: 0a           	asl
    2ad4: 0d f4 48     	ora	$48f4                   ; 0x48f4 <opl3_fields+0x4d>
    2ad7: a2 8d        	ldx	#$8d
    2ad9: 8e 80 d5     	stx	$d580                   ; 0xd580 <__heap_start+0x8c3e>
    2adc: 8d 81 d5     	sta	$d581                   ; 0xd581 <__heap_start+0x8c3f>
    2adf: ad b5 48     	lda	$48b5                   ; 0x48b5 <opl3_fields+0xe>
    2ae2: 0a           	asl
    2ae3: 0a           	asl
    2ae4: 0a           	asl
    2ae5: 0a           	asl
    2ae6: a2 ea        	ldx	#$ea
    2ae8: 8e 80 d5     	stx	$d580                   ; 0xd580 <__heap_start+0x8c3e>
    2aeb: 8d 81 d5     	sta	$d581                   ; 0xd581 <__heap_start+0x8c3f>
    2aee: ad bc 48     	lda	$48bc                   ; 0x48bc <opl3_fields+0x15>
    2af1: 0a           	asl
    2af2: 0a           	asl
    2af3: 0a           	asl
    2af4: 0a           	asl
    2af5: a2 ed        	ldx	#$ed
    2af7: 8e 80 d5     	stx	$d580                   ; 0xd580 <__heap_start+0x8c3e>
    2afa: 8d 81 d5     	sta	$d581                   ; 0xd581 <__heap_start+0x8c3f>
    2afd: ad 25 49     	lda	$4925                   ; 0x4925 <opl3_fields+0x7e>
    2b00: 0a           	asl
    2b01: 0a           	asl
    2b02: 0a           	asl
    2b03: 0a           	asl
    2b04: 0d 33 49     	ora	$4933                   ; 0x4933 <opl3_fields+0x8c>
    2b07: a2 30        	ldx	#$30
    2b09: 8e 80 d5     	stx	$d580                   ; 0xd580 <__heap_start+0x8c3e>
    2b0c: 8d 81 d5     	sta	$d581                   ; 0xd581 <__heap_start+0x8c3f>
    2b0f: ad 2c 49     	lda	$492c                   ; 0x492c <opl3_fields+0x85>
    2b12: 0a           	asl
    2b13: 0a           	asl
    2b14: 0a           	asl
    2b15: 0a           	asl
    2b16: 0d 3a 49     	ora	$493a                   ; 0x493a <opl3_fields+0x93>
    2b19: a2 33        	ldx	#$33
    2b1b: 8e 80 d5     	stx	$d580                   ; 0xd580 <__heap_start+0x8c3e>
    2b1e: 8d 81 d5     	sta	$d581                   ; 0xd581 <__heap_start+0x8c3f>
    2b21: 64 12        	stz	$12                     ; 0x2012 <main+0x1a31>
    2b23: ad 17 49     	lda	$4917                   ; 0x4917 <opl3_fields+0x70>
    2b26: 4a           	lsr
    2b27: 66 12        	ror	$12                     ; 0x2012 <main+0x1a31>
    2b29: 4a           	lsr
    2b2a: 66 12        	ror	$12                     ; 0x2012 <main+0x1a31>
    2b2c: ad fb 48     	lda	$48fb                   ; 0x48fb <opl3_fields+0x54>
    2b2f: 0a           	asl
    2b30: 0a           	asl
    2b31: 0a           	asl
    2b32: 0a           	asl
    2b33: 05 12        	ora	$12                     ; 0x2012 <main+0x1a31>
    2b35: 0d 02 49     	ora	$4902                   ; 0x4902 <opl3_fields+0x5b>
    2b38: a2 50        	ldx	#$50
    2b3a: 8e 80 d5     	stx	$d580                   ; 0xd580 <__heap_start+0x8c3e>
    2b3d: 8d 81 d5     	sta	$d581                   ; 0xd581 <__heap_start+0x8c3f>
    2b40: 64 12        	stz	$12                     ; 0x2012 <main+0x1a31>
    2b42: ad 1e 49     	lda	$491e                   ; 0x491e <opl3_fields+0x77>
    2b45: 4a           	lsr
    2b46: 66 12        	ror	$12                     ; 0x2012 <main+0x1a31>
    2b48: 4a           	lsr
    2b49: 66 12        	ror	$12                     ; 0x2012 <main+0x1a31>
    2b4b: ad 09 49     	lda	$4909                   ; 0x4909 <opl3_fields+0x62>
    2b4e: 0a           	asl
    2b4f: 0a           	asl
    2b50: 0a           	asl
    2b51: 0a           	asl
    2b52: 05 12        	ora	$12                     ; 0x2012 <main+0x1a31>
    2b54: 0d 10 49     	ora	$4910                   ; 0x4910 <opl3_fields+0x69>
    2b57: a2 53        	ldx	#$53
    2b59: 8e 80 d5     	stx	$d580                   ; 0xd580 <__heap_start+0x8c3e>
    2b5c: 8d 81 d5     	sta	$d581                   ; 0xd581 <__heap_start+0x8c3f>
    2b5f: ad c3 48     	lda	$48c3                   ; 0x48c3 <opl3_fields+0x1c>
    2b62: 0a           	asl
    2b63: 0a           	asl
    2b64: 0a           	asl
    2b65: 0a           	asl
    2b66: 0d d1 48     	ora	$48d1                   ; 0x48d1 <opl3_fields+0x2a>
    2b69: a2 70        	ldx	#$70
    2b6b: 8e 80 d5     	stx	$d580                   ; 0xd580 <__heap_start+0x8c3e>
    2b6e: 8d 81 d5     	sta	$d581                   ; 0xd581 <__heap_start+0x8c3f>
    2b71: ad ca 48     	lda	$48ca                   ; 0x48ca <opl3_fields+0x23>
    2b74: 0a           	asl
    2b75: 0a           	asl
    2b76: 0a           	asl
    2b77: 0a           	asl
    2b78: 0d d8 48     	ora	$48d8                   ; 0x48d8 <opl3_fields+0x31>
    2b7b: a2 73        	ldx	#$73
    2b7d: 8e 80 d5     	stx	$d580                   ; 0xd580 <__heap_start+0x8c3e>
    2b80: 8d 81 d5     	sta	$d581                   ; 0xd581 <__heap_start+0x8c3f>
    2b83: ad df 48     	lda	$48df                   ; 0x48df <opl3_fields+0x38>
    2b86: 0a           	asl
    2b87: 0a           	asl
    2b88: 0a           	asl
    2b89: 0a           	asl
    2b8a: 0d ed 48     	ora	$48ed                   ; 0x48ed <opl3_fields+0x46>
    2b8d: a2 90        	ldx	#$90
    2b8f: 8e 80 d5     	stx	$d580                   ; 0xd580 <__heap_start+0x8c3e>
    2b92: 8d 81 d5     	sta	$d581                   ; 0xd581 <__heap_start+0x8c3f>
    2b95: ad e6 48     	lda	$48e6                   ; 0x48e6 <opl3_fields+0x3f>
    2b98: 0a           	asl
    2b99: 0a           	asl
    2b9a: 0a           	asl
    2b9b: 0a           	asl
    2b9c: 0d f4 48     	ora	$48f4                   ; 0x48f4 <opl3_fields+0x4d>
    2b9f: a2 93        	ldx	#$93
    2ba1: 8e 80 d5     	stx	$d580                   ; 0xd580 <__heap_start+0x8c3e>
    2ba4: 8d 81 d5     	sta	$d581                   ; 0xd581 <__heap_start+0x8c3f>
    2ba7: ad b5 48     	lda	$48b5                   ; 0x48b5 <opl3_fields+0xe>
    2baa: 0a           	asl
    2bab: 0a           	asl
    2bac: 0a           	asl
    2bad: 0a           	asl
    2bae: a2 f0        	ldx	#$f0
    2bb0: 8e 80 d5     	stx	$d580                   ; 0xd580 <__heap_start+0x8c3e>
    2bb3: 8d 81 d5     	sta	$d581                   ; 0xd581 <__heap_start+0x8c3f>
    2bb6: ad bc 48     	lda	$48bc                   ; 0x48bc <opl3_fields+0x15>
    2bb9: 0a           	asl
    2bba: 0a           	asl
    2bbb: 0a           	asl
    2bbc: 0a           	asl
    2bbd: a2 f3        	ldx	#$f3
    2bbf: 8e 80 d5     	stx	$d580                   ; 0xd580 <__heap_start+0x8c3e>
    2bc2: 8d 81 d5     	sta	$d581                   ; 0xd581 <__heap_start+0x8c3f>
    2bc5: ad 25 49     	lda	$4925                   ; 0x4925 <opl3_fields+0x7e>
    2bc8: 0a           	asl
    2bc9: 0a           	asl
    2bca: 0a           	asl
    2bcb: 0a           	asl
    2bcc: 0d 33 49     	ora	$4933                   ; 0x4933 <opl3_fields+0x8c>
    2bcf: a2 31        	ldx	#$31
    2bd1: 8e 80 d5     	stx	$d580                   ; 0xd580 <__heap_start+0x8c3e>
    2bd4: 8d 81 d5     	sta	$d581                   ; 0xd581 <__heap_start+0x8c3f>
    2bd7: ad 2c 49     	lda	$492c                   ; 0x492c <opl3_fields+0x85>
    2bda: 0a           	asl
    2bdb: 0a           	asl
    2bdc: 0a           	asl
    2bdd: 0a           	asl
    2bde: 0d 3a 49     	ora	$493a                   ; 0x493a <opl3_fields+0x93>
    2be1: a2 34        	ldx	#$34
    2be3: 8e 80 d5     	stx	$d580                   ; 0xd580 <__heap_start+0x8c3e>
    2be6: 8d 81 d5     	sta	$d581                   ; 0xd581 <__heap_start+0x8c3f>
    2be9: 64 12        	stz	$12                     ; 0x2012 <main+0x1a31>
    2beb: ad 17 49     	lda	$4917                   ; 0x4917 <opl3_fields+0x70>
    2bee: 4a           	lsr
    2bef: 66 12        	ror	$12                     ; 0x2012 <main+0x1a31>
    2bf1: 4a           	lsr
    2bf2: 66 12        	ror	$12                     ; 0x2012 <main+0x1a31>
    2bf4: ad fb 48     	lda	$48fb                   ; 0x48fb <opl3_fields+0x54>
    2bf7: 0a           	asl
    2bf8: 0a           	asl
    2bf9: 0a           	asl
    2bfa: 0a           	asl
    2bfb: 05 12        	ora	$12                     ; 0x2012 <main+0x1a31>
    2bfd: 0d 02 49     	ora	$4902                   ; 0x4902 <opl3_fields+0x5b>
    2c00: a2 51        	ldx	#$51
    2c02: 8e 80 d5     	stx	$d580                   ; 0xd580 <__heap_start+0x8c3e>
    2c05: 8d 81 d5     	sta	$d581                   ; 0xd581 <__heap_start+0x8c3f>
    2c08: 64 12        	stz	$12                     ; 0x2012 <main+0x1a31>
    2c0a: ad 1e 49     	lda	$491e                   ; 0x491e <opl3_fields+0x77>
    2c0d: 4a           	lsr
    2c0e: 66 12        	ror	$12                     ; 0x2012 <main+0x1a31>
    2c10: 4a           	lsr
    2c11: 66 12        	ror	$12                     ; 0x2012 <main+0x1a31>
    2c13: ad 09 49     	lda	$4909                   ; 0x4909 <opl3_fields+0x62>
    2c16: 0a           	asl
    2c17: 0a           	asl
    2c18: 0a           	asl
    2c19: 0a           	asl
    2c1a: 05 12        	ora	$12                     ; 0x2012 <main+0x1a31>
    2c1c: 0d 10 49     	ora	$4910                   ; 0x4910 <opl3_fields+0x69>
    2c1f: a2 54        	ldx	#$54
    2c21: 8e 80 d5     	stx	$d580                   ; 0xd580 <__heap_start+0x8c3e>
    2c24: 8d 81 d5     	sta	$d581                   ; 0xd581 <__heap_start+0x8c3f>
    2c27: ad c3 48     	lda	$48c3                   ; 0x48c3 <opl3_fields+0x1c>
    2c2a: 0a           	asl
    2c2b: 0a           	asl
    2c2c: 0a           	asl
    2c2d: 0a           	asl
    2c2e: 0d d1 48     	ora	$48d1                   ; 0x48d1 <opl3_fields+0x2a>
    2c31: a2 71        	ldx	#$71
    2c33: 8e 80 d5     	stx	$d580                   ; 0xd580 <__heap_start+0x8c3e>
    2c36: 8d 81 d5     	sta	$d581                   ; 0xd581 <__heap_start+0x8c3f>
    2c39: ad ca 48     	lda	$48ca                   ; 0x48ca <opl3_fields+0x23>
    2c3c: 0a           	asl
    2c3d: 0a           	asl
    2c3e: 0a           	asl
    2c3f: 0a           	asl
    2c40: 0d d8 48     	ora	$48d8                   ; 0x48d8 <opl3_fields+0x31>
    2c43: a2 74        	ldx	#$74
    2c45: 8e 80 d5     	stx	$d580                   ; 0xd580 <__heap_start+0x8c3e>
    2c48: 8d 81 d5     	sta	$d581                   ; 0xd581 <__heap_start+0x8c3f>
    2c4b: ad df 48     	lda	$48df                   ; 0x48df <opl3_fields+0x38>
    2c4e: 0a           	asl
    2c4f: 0a           	asl
    2c50: 0a           	asl
    2c51: 0a           	asl
    2c52: 0d ed 48     	ora	$48ed                   ; 0x48ed <opl3_fields+0x46>
    2c55: a2 91        	ldx	#$91
    2c57: 8e 80 d5     	stx	$d580                   ; 0xd580 <__heap_start+0x8c3e>
    2c5a: 8d 81 d5     	sta	$d581                   ; 0xd581 <__heap_start+0x8c3f>
    2c5d: ad e6 48     	lda	$48e6                   ; 0x48e6 <opl3_fields+0x3f>
    2c60: 0a           	asl
    2c61: 0a           	asl
    2c62: 0a           	asl
    2c63: 0a           	asl
    2c64: 0d f4 48     	ora	$48f4                   ; 0x48f4 <opl3_fields+0x4d>
    2c67: a2 94        	ldx	#$94
    2c69: 8e 80 d5     	stx	$d580                   ; 0xd580 <__heap_start+0x8c3e>
    2c6c: 8d 81 d5     	sta	$d581                   ; 0xd581 <__heap_start+0x8c3f>
    2c6f: ad b5 48     	lda	$48b5                   ; 0x48b5 <opl3_fields+0xe>
    2c72: 0a           	asl
    2c73: 0a           	asl
    2c74: 0a           	asl
    2c75: 0a           	asl
    2c76: a2 f1        	ldx	#$f1
    2c78: 8e 80 d5     	stx	$d580                   ; 0xd580 <__heap_start+0x8c3e>
    2c7b: 8d 81 d5     	sta	$d581                   ; 0xd581 <__heap_start+0x8c3f>
    2c7e: ad bc 48     	lda	$48bc                   ; 0x48bc <opl3_fields+0x15>
    2c81: 0a           	asl
    2c82: 0a           	asl
    2c83: 0a           	asl
    2c84: 0a           	asl
    2c85: a2 f4        	ldx	#$f4
    2c87: 8e 80 d5     	stx	$d580                   ; 0xd580 <__heap_start+0x8c3e>
    2c8a: 8d 81 d5     	sta	$d581                   ; 0xd581 <__heap_start+0x8c3f>
    2c8d: ad 25 49     	lda	$4925                   ; 0x4925 <opl3_fields+0x7e>
    2c90: 0a           	asl
    2c91: 0a           	asl
    2c92: 0a           	asl
    2c93: 0a           	asl
    2c94: 0d 33 49     	ora	$4933                   ; 0x4933 <opl3_fields+0x8c>
    2c97: a2 32        	ldx	#$32
    2c99: 8e 80 d5     	stx	$d580                   ; 0xd580 <__heap_start+0x8c3e>
    2c9c: 8d 81 d5     	sta	$d581                   ; 0xd581 <__heap_start+0x8c3f>
    2c9f: ad 2c 49     	lda	$492c                   ; 0x492c <opl3_fields+0x85>
    2ca2: 0a           	asl
    2ca3: 0a           	asl
    2ca4: 0a           	asl
    2ca5: 0a           	asl
    2ca6: 0d 3a 49     	ora	$493a                   ; 0x493a <opl3_fields+0x93>
    2ca9: a2 35        	ldx	#$35
    2cab: 8e 80 d5     	stx	$d580                   ; 0xd580 <__heap_start+0x8c3e>
    2cae: 8d 81 d5     	sta	$d581                   ; 0xd581 <__heap_start+0x8c3f>
    2cb1: 64 12        	stz	$12                     ; 0x2012 <main+0x1a31>
    2cb3: ad 17 49     	lda	$4917                   ; 0x4917 <opl3_fields+0x70>
    2cb6: 4a           	lsr
    2cb7: 66 12        	ror	$12                     ; 0x2012 <main+0x1a31>
    2cb9: 4a           	lsr
    2cba: 66 12        	ror	$12                     ; 0x2012 <main+0x1a31>
    2cbc: ad fb 48     	lda	$48fb                   ; 0x48fb <opl3_fields+0x54>
    2cbf: 0a           	asl
    2cc0: 0a           	asl
    2cc1: 0a           	asl
    2cc2: 0a           	asl
    2cc3: 05 12        	ora	$12                     ; 0x2012 <main+0x1a31>
    2cc5: 0d 02 49     	ora	$4902                   ; 0x4902 <opl3_fields+0x5b>
    2cc8: a2 52        	ldx	#$52
    2cca: 8e 80 d5     	stx	$d580                   ; 0xd580 <__heap_start+0x8c3e>
    2ccd: 8d 81 d5     	sta	$d581                   ; 0xd581 <__heap_start+0x8c3f>
    2cd0: 64 12        	stz	$12                     ; 0x2012 <main+0x1a31>
    2cd2: ad 1e 49     	lda	$491e                   ; 0x491e <opl3_fields+0x77>
    2cd5: 4a           	lsr
    2cd6: 66 12        	ror	$12                     ; 0x2012 <main+0x1a31>
    2cd8: 4a           	lsr
    2cd9: 66 12        	ror	$12                     ; 0x2012 <main+0x1a31>
    2cdb: ad 09 49     	lda	$4909                   ; 0x4909 <opl3_fields+0x62>
    2cde: 0a           	asl
    2cdf: 0a           	asl
    2ce0: 0a           	asl
    2ce1: 0a           	asl
    2ce2: 05 12        	ora	$12                     ; 0x2012 <main+0x1a31>
    2ce4: 0d 10 49     	ora	$4910                   ; 0x4910 <opl3_fields+0x69>
    2ce7: a2 55        	ldx	#$55
    2ce9: 8e 80 d5     	stx	$d580                   ; 0xd580 <__heap_start+0x8c3e>
    2cec: 8d 81 d5     	sta	$d581                   ; 0xd581 <__heap_start+0x8c3f>
    2cef: ad c3 48     	lda	$48c3                   ; 0x48c3 <opl3_fields+0x1c>
    2cf2: 0a           	asl
    2cf3: 0a           	asl
    2cf4: 0a           	asl
    2cf5: 0a           	asl
    2cf6: 0d d1 48     	ora	$48d1                   ; 0x48d1 <opl3_fields+0x2a>
    2cf9: a2 72        	ldx	#$72
    2cfb: 8e 80 d5     	stx	$d580                   ; 0xd580 <__heap_start+0x8c3e>
    2cfe: 8d 81 d5     	sta	$d581                   ; 0xd581 <__heap_start+0x8c3f>
    2d01: ad ca 48     	lda	$48ca                   ; 0x48ca <opl3_fields+0x23>
    2d04: 0a           	asl
    2d05: 0a           	asl
    2d06: 0a           	asl
    2d07: 0a           	asl
    2d08: 0d d8 48     	ora	$48d8                   ; 0x48d8 <opl3_fields+0x31>
    2d0b: a2 75        	ldx	#$75
    2d0d: 8e 80 d5     	stx	$d580                   ; 0xd580 <__heap_start+0x8c3e>
    2d10: 8d 81 d5     	sta	$d581                   ; 0xd581 <__heap_start+0x8c3f>
    2d13: ad df 48     	lda	$48df                   ; 0x48df <opl3_fields+0x38>
    2d16: 0a           	asl
    2d17: 0a           	asl
    2d18: 0a           	asl
    2d19: 0a           	asl
    2d1a: 0d ed 48     	ora	$48ed                   ; 0x48ed <opl3_fields+0x46>
    2d1d: a2 92        	ldx	#$92
    2d1f: 8e 80 d5     	stx	$d580                   ; 0xd580 <__heap_start+0x8c3e>
    2d22: 8d 81 d5     	sta	$d581                   ; 0xd581 <__heap_start+0x8c3f>
    2d25: ad e6 48     	lda	$48e6                   ; 0x48e6 <opl3_fields+0x3f>
    2d28: 0a           	asl
    2d29: 0a           	asl
    2d2a: 0a           	asl
    2d2b: 0a           	asl
    2d2c: 0d f4 48     	ora	$48f4                   ; 0x48f4 <opl3_fields+0x4d>
    2d2f: a2 95        	ldx	#$95
    2d31: 8e 80 d5     	stx	$d580                   ; 0xd580 <__heap_start+0x8c3e>
    2d34: 8d 81 d5     	sta	$d581                   ; 0xd581 <__heap_start+0x8c3f>
    2d37: ad b5 48     	lda	$48b5                   ; 0x48b5 <opl3_fields+0xe>
    2d3a: 0a           	asl
    2d3b: 0a           	asl
    2d3c: 0a           	asl
    2d3d: 0a           	asl
    2d3e: a2 f2        	ldx	#$f2
    2d40: 8e 80 d5     	stx	$d580                   ; 0xd580 <__heap_start+0x8c3e>
    2d43: 8d 81 d5     	sta	$d581                   ; 0xd581 <__heap_start+0x8c3f>
    2d46: ad bc 48     	lda	$48bc                   ; 0x48bc <opl3_fields+0x15>
    2d49: 0a           	asl
    2d4a: 0a           	asl
    2d4b: 0a           	asl
    2d4c: 0a           	asl
    2d4d: a2 f5        	ldx	#$f5
    2d4f: 8e 80 d5     	stx	$d580                   ; 0xd580 <__heap_start+0x8c3e>
    2d52: 8d 81 d5     	sta	$d581                   ; 0xd581 <__heap_start+0x8c3f>
    2d55: ad 25 49     	lda	$4925                   ; 0x4925 <opl3_fields+0x7e>
    2d58: 0a           	asl
    2d59: 0a           	asl
    2d5a: 0a           	asl
    2d5b: 0a           	asl
    2d5c: 0d 33 49     	ora	$4933                   ; 0x4933 <opl3_fields+0x8c>
    2d5f: a0 20        	ldy	#$20
    2d61: 8c 82 d5     	sty	$d582                   ; 0xd582 <__heap_start+0x8c40>
    2d64: 8d 81 d5     	sta	$d581                   ; 0xd581 <__heap_start+0x8c3f>
    2d67: ad 2c 49     	lda	$492c                   ; 0x492c <opl3_fields+0x85>
    2d6a: 0a           	asl
    2d6b: 0a           	asl
    2d6c: 0a           	asl
    2d6d: 0a           	asl
    2d6e: 0d 3a 49     	ora	$493a                   ; 0x493a <opl3_fields+0x93>
    2d71: a0 23        	ldy	#$23
    2d73: 8c 82 d5     	sty	$d582                   ; 0xd582 <__heap_start+0x8c40>
    2d76: 8d 81 d5     	sta	$d581                   ; 0xd581 <__heap_start+0x8c3f>
    2d79: 64 12        	stz	$12                     ; 0x2012 <main+0x1a31>
    2d7b: ad 17 49     	lda	$4917                   ; 0x4917 <opl3_fields+0x70>
    2d7e: 4a           	lsr
    2d7f: 66 12        	ror	$12                     ; 0x2012 <main+0x1a31>
    2d81: 4a           	lsr
    2d82: 66 12        	ror	$12                     ; 0x2012 <main+0x1a31>
    2d84: ad fb 48     	lda	$48fb                   ; 0x48fb <opl3_fields+0x54>
    2d87: 0a           	asl
    2d88: 0a           	asl
    2d89: 0a           	asl
    2d8a: 0a           	asl
    2d8b: 05 12        	ora	$12                     ; 0x2012 <main+0x1a31>
    2d8d: 0d 02 49     	ora	$4902                   ; 0x4902 <opl3_fields+0x5b>
    2d90: a0 40        	ldy	#$40
    2d92: 8c 82 d5     	sty	$d582                   ; 0xd582 <__heap_start+0x8c40>
    2d95: 8d 81 d5     	sta	$d581                   ; 0xd581 <__heap_start+0x8c3f>
    2d98: 64 12        	stz	$12                     ; 0x2012 <main+0x1a31>
    2d9a: ad 1e 49     	lda	$491e                   ; 0x491e <opl3_fields+0x77>
    2d9d: 4a           	lsr
    2d9e: 66 12        	ror	$12                     ; 0x2012 <main+0x1a31>
    2da0: 4a           	lsr
    2da1: 66 12        	ror	$12                     ; 0x2012 <main+0x1a31>
    2da3: ad 09 49     	lda	$4909                   ; 0x4909 <opl3_fields+0x62>
    2da6: 0a           	asl
    2da7: 0a           	asl
    2da8: 0a           	asl
    2da9: 0a           	asl
    2daa: 05 12        	ora	$12                     ; 0x2012 <main+0x1a31>
    2dac: 0d 10 49     	ora	$4910                   ; 0x4910 <opl3_fields+0x69>
    2daf: a0 43        	ldy	#$43
    2db1: 8c 82 d5     	sty	$d582                   ; 0xd582 <__heap_start+0x8c40>
    2db4: 8d 81 d5     	sta	$d581                   ; 0xd581 <__heap_start+0x8c3f>
    2db7: ad c3 48     	lda	$48c3                   ; 0x48c3 <opl3_fields+0x1c>
    2dba: 0a           	asl
    2dbb: 0a           	asl
    2dbc: 0a           	asl
    2dbd: 0a           	asl
    2dbe: 0d d1 48     	ora	$48d1                   ; 0x48d1 <opl3_fields+0x2a>
    2dc1: a0 60        	ldy	#$60
    2dc3: 8c 82 d5     	sty	$d582                   ; 0xd582 <__heap_start+0x8c40>
    2dc6: 8d 81 d5     	sta	$d581                   ; 0xd581 <__heap_start+0x8c3f>
    2dc9: ad ca 48     	lda	$48ca                   ; 0x48ca <opl3_fields+0x23>
    2dcc: 0a           	asl
    2dcd: 0a           	asl
    2dce: 0a           	asl
    2dcf: 0a           	asl
    2dd0: 0d d8 48     	ora	$48d8                   ; 0x48d8 <opl3_fields+0x31>
    2dd3: a0 63        	ldy	#$63
    2dd5: 8c 82 d5     	sty	$d582                   ; 0xd582 <__heap_start+0x8c40>
    2dd8: 8d 81 d5     	sta	$d581                   ; 0xd581 <__heap_start+0x8c3f>
    2ddb: ad df 48     	lda	$48df                   ; 0x48df <opl3_fields+0x38>
    2dde: 0a           	asl
    2ddf: 0a           	asl
    2de0: 0a           	asl
    2de1: 0a           	asl
    2de2: 0d ed 48     	ora	$48ed                   ; 0x48ed <opl3_fields+0x46>
    2de5: a0 80        	ldy	#$80
    2de7: 8c 82 d5     	sty	$d582                   ; 0xd582 <__heap_start+0x8c40>
    2dea: 8d 81 d5     	sta	$d581                   ; 0xd581 <__heap_start+0x8c3f>
    2ded: ad e6 48     	lda	$48e6                   ; 0x48e6 <opl3_fields+0x3f>
    2df0: 0a           	asl
    2df1: 0a           	asl
    2df2: 0a           	asl
    2df3: 0a           	asl
    2df4: 0d f4 48     	ora	$48f4                   ; 0x48f4 <opl3_fields+0x4d>
    2df7: a0 83        	ldy	#$83
    2df9: 8c 82 d5     	sty	$d582                   ; 0xd582 <__heap_start+0x8c40>
    2dfc: 8d 81 d5     	sta	$d581                   ; 0xd581 <__heap_start+0x8c3f>
    2dff: ad b5 48     	lda	$48b5                   ; 0x48b5 <opl3_fields+0xe>
    2e02: a0 e0        	ldy	#$e0
    2e04: 8c 82 d5     	sty	$d582                   ; 0xd582 <__heap_start+0x8c40>
    2e07: 0a           	asl
    2e08: 0a           	asl
    2e09: 0a           	asl
    2e0a: 0a           	asl
    2e0b: 8d 81 d5     	sta	$d581                   ; 0xd581 <__heap_start+0x8c3f>
    2e0e: ad bc 48     	lda	$48bc                   ; 0x48bc <opl3_fields+0x15>
    2e11: a0 e3        	ldy	#$e3
    2e13: 8c 82 d5     	sty	$d582                   ; 0xd582 <__heap_start+0x8c40>
    2e16: 0a           	asl
    2e17: 0a           	asl
    2e18: 0a           	asl
    2e19: 0a           	asl
    2e1a: 8d 81 d5     	sta	$d581                   ; 0xd581 <__heap_start+0x8c3f>
    2e1d: ad 25 49     	lda	$4925                   ; 0x4925 <opl3_fields+0x7e>
    2e20: 0a           	asl
    2e21: 0a           	asl
    2e22: 0a           	asl
    2e23: 0a           	asl
    2e24: 0d 33 49     	ora	$4933                   ; 0x4933 <opl3_fields+0x8c>
    2e27: a0 21        	ldy	#$21
    2e29: 8c 82 d5     	sty	$d582                   ; 0xd582 <__heap_start+0x8c40>
    2e2c: 8d 81 d5     	sta	$d581                   ; 0xd581 <__heap_start+0x8c3f>
    2e2f: ad 2c 49     	lda	$492c                   ; 0x492c <opl3_fields+0x85>
    2e32: 0a           	asl
    2e33: 0a           	asl
    2e34: 0a           	asl
    2e35: 0a           	asl
    2e36: 0d 3a 49     	ora	$493a                   ; 0x493a <opl3_fields+0x93>
    2e39: a0 24        	ldy	#$24
    2e3b: 8c 82 d5     	sty	$d582                   ; 0xd582 <__heap_start+0x8c40>
    2e3e: 8d 81 d5     	sta	$d581                   ; 0xd581 <__heap_start+0x8c3f>
    2e41: 64 12        	stz	$12                     ; 0x2012 <main+0x1a31>
    2e43: ad 17 49     	lda	$4917                   ; 0x4917 <opl3_fields+0x70>
    2e46: 4a           	lsr
    2e47: 66 12        	ror	$12                     ; 0x2012 <main+0x1a31>
    2e49: 4a           	lsr
    2e4a: 66 12        	ror	$12                     ; 0x2012 <main+0x1a31>
    2e4c: ad fb 48     	lda	$48fb                   ; 0x48fb <opl3_fields+0x54>
    2e4f: 0a           	asl
    2e50: 0a           	asl
    2e51: 0a           	asl
    2e52: 0a           	asl
    2e53: 05 12        	ora	$12                     ; 0x2012 <main+0x1a31>
    2e55: 0d 02 49     	ora	$4902                   ; 0x4902 <opl3_fields+0x5b>
    2e58: a0 41        	ldy	#$41
    2e5a: 8c 82 d5     	sty	$d582                   ; 0xd582 <__heap_start+0x8c40>
    2e5d: 8d 81 d5     	sta	$d581                   ; 0xd581 <__heap_start+0x8c3f>
    2e60: 64 12        	stz	$12                     ; 0x2012 <main+0x1a31>
    2e62: ad 1e 49     	lda	$491e                   ; 0x491e <opl3_fields+0x77>
    2e65: 4a           	lsr
    2e66: 66 12        	ror	$12                     ; 0x2012 <main+0x1a31>
    2e68: 4a           	lsr
    2e69: 66 12        	ror	$12                     ; 0x2012 <main+0x1a31>
    2e6b: ad 09 49     	lda	$4909                   ; 0x4909 <opl3_fields+0x62>
    2e6e: 0a           	asl
    2e6f: 0a           	asl
    2e70: 0a           	asl
    2e71: 0a           	asl
    2e72: 05 12        	ora	$12                     ; 0x2012 <main+0x1a31>
    2e74: 0d 10 49     	ora	$4910                   ; 0x4910 <opl3_fields+0x69>
    2e77: a0 44        	ldy	#$44
    2e79: 8c 82 d5     	sty	$d582                   ; 0xd582 <__heap_start+0x8c40>
    2e7c: 8d 81 d5     	sta	$d581                   ; 0xd581 <__heap_start+0x8c3f>
    2e7f: ad c3 48     	lda	$48c3                   ; 0x48c3 <opl3_fields+0x1c>
    2e82: 0a           	asl
    2e83: 0a           	asl
    2e84: 0a           	asl
    2e85: 0a           	asl
    2e86: 0d d1 48     	ora	$48d1                   ; 0x48d1 <opl3_fields+0x2a>
    2e89: a0 61        	ldy	#$61
    2e8b: 8c 82 d5     	sty	$d582                   ; 0xd582 <__heap_start+0x8c40>
    2e8e: 8d 81 d5     	sta	$d581                   ; 0xd581 <__heap_start+0x8c3f>
    2e91: ad ca 48     	lda	$48ca                   ; 0x48ca <opl3_fields+0x23>
    2e94: 0a           	asl
    2e95: 0a           	asl
    2e96: 0a           	asl
    2e97: 0a           	asl
    2e98: 0d d8 48     	ora	$48d8                   ; 0x48d8 <opl3_fields+0x31>
    2e9b: a0 64        	ldy	#$64
    2e9d: 8c 82 d5     	sty	$d582                   ; 0xd582 <__heap_start+0x8c40>
    2ea0: 8d 81 d5     	sta	$d581                   ; 0xd581 <__heap_start+0x8c3f>
    2ea3: ad df 48     	lda	$48df                   ; 0x48df <opl3_fields+0x38>
    2ea6: 0a           	asl
    2ea7: 0a           	asl
    2ea8: 0a           	asl
    2ea9: 0a           	asl
    2eaa: 0d ed 48     	ora	$48ed                   ; 0x48ed <opl3_fields+0x46>
    2ead: a0 81        	ldy	#$81
    2eaf: 8c 82 d5     	sty	$d582                   ; 0xd582 <__heap_start+0x8c40>
    2eb2: 8d 81 d5     	sta	$d581                   ; 0xd581 <__heap_start+0x8c3f>
    2eb5: ad e6 48     	lda	$48e6                   ; 0x48e6 <opl3_fields+0x3f>
    2eb8: 0a           	asl
    2eb9: 0a           	asl
    2eba: 0a           	asl
    2ebb: 0a           	asl
    2ebc: 0d f4 48     	ora	$48f4                   ; 0x48f4 <opl3_fields+0x4d>
    2ebf: a0 84        	ldy	#$84
    2ec1: 8c 82 d5     	sty	$d582                   ; 0xd582 <__heap_start+0x8c40>
    2ec4: 8d 81 d5     	sta	$d581                   ; 0xd581 <__heap_start+0x8c3f>
    2ec7: ad b5 48     	lda	$48b5                   ; 0x48b5 <opl3_fields+0xe>
    2eca: a0 e1        	ldy	#$e1
    2ecc: 8c 82 d5     	sty	$d582                   ; 0xd582 <__heap_start+0x8c40>
    2ecf: 0a           	asl
    2ed0: 0a           	asl
    2ed1: 0a           	asl
    2ed2: 0a           	asl
    2ed3: 8d 81 d5     	sta	$d581                   ; 0xd581 <__heap_start+0x8c3f>
    2ed6: ad bc 48     	lda	$48bc                   ; 0x48bc <opl3_fields+0x15>
    2ed9: a0 e4        	ldy	#$e4
    2edb: 8c 82 d5     	sty	$d582                   ; 0xd582 <__heap_start+0x8c40>
    2ede: 0a           	asl
    2edf: 0a           	asl
    2ee0: 0a           	asl
    2ee1: 0a           	asl
    2ee2: 8d 81 d5     	sta	$d581                   ; 0xd581 <__heap_start+0x8c3f>
    2ee5: ad 25 49     	lda	$4925                   ; 0x4925 <opl3_fields+0x7e>
    2ee8: 0a           	asl
    2ee9: 0a           	asl
    2eea: 0a           	asl
    2eeb: 0a           	asl
    2eec: 0d 33 49     	ora	$4933                   ; 0x4933 <opl3_fields+0x8c>
    2eef: a0 22        	ldy	#$22
    2ef1: 8c 82 d5     	sty	$d582                   ; 0xd582 <__heap_start+0x8c40>
    2ef4: 8d 81 d5     	sta	$d581                   ; 0xd581 <__heap_start+0x8c3f>
    2ef7: ad 2c 49     	lda	$492c                   ; 0x492c <opl3_fields+0x85>
    2efa: 0a           	asl
    2efb: 0a           	asl
    2efc: 0a           	asl
    2efd: 0a           	asl
    2efe: 0d 3a 49     	ora	$493a                   ; 0x493a <opl3_fields+0x93>
    2f01: a0 25        	ldy	#$25
    2f03: 8c 82 d5     	sty	$d582                   ; 0xd582 <__heap_start+0x8c40>
    2f06: 8d 81 d5     	sta	$d581                   ; 0xd581 <__heap_start+0x8c3f>
    2f09: 64 12        	stz	$12                     ; 0x2012 <main+0x1a31>
    2f0b: ad 17 49     	lda	$4917                   ; 0x4917 <opl3_fields+0x70>
    2f0e: 4a           	lsr
    2f0f: 66 12        	ror	$12                     ; 0x2012 <main+0x1a31>
    2f11: 4a           	lsr
    2f12: 66 12        	ror	$12                     ; 0x2012 <main+0x1a31>
    2f14: ad fb 48     	lda	$48fb                   ; 0x48fb <opl3_fields+0x54>
    2f17: 0a           	asl
    2f18: 0a           	asl
    2f19: 0a           	asl
    2f1a: 0a           	asl
    2f1b: 05 12        	ora	$12                     ; 0x2012 <main+0x1a31>
    2f1d: 0d 02 49     	ora	$4902                   ; 0x4902 <opl3_fields+0x5b>
    2f20: a0 42        	ldy	#$42
    2f22: 8c 82 d5     	sty	$d582                   ; 0xd582 <__heap_start+0x8c40>
    2f25: 8d 81 d5     	sta	$d581                   ; 0xd581 <__heap_start+0x8c3f>
    2f28: 64 12        	stz	$12                     ; 0x2012 <main+0x1a31>
    2f2a: ad 1e 49     	lda	$491e                   ; 0x491e <opl3_fields+0x77>
    2f2d: 4a           	lsr
    2f2e: 66 12        	ror	$12                     ; 0x2012 <main+0x1a31>
    2f30: 4a           	lsr
    2f31: 66 12        	ror	$12                     ; 0x2012 <main+0x1a31>
    2f33: ad 09 49     	lda	$4909                   ; 0x4909 <opl3_fields+0x62>
    2f36: 0a           	asl
    2f37: 0a           	asl
    2f38: 0a           	asl
    2f39: 0a           	asl
    2f3a: 05 12        	ora	$12                     ; 0x2012 <main+0x1a31>
    2f3c: 0d 10 49     	ora	$4910                   ; 0x4910 <opl3_fields+0x69>
    2f3f: a0 45        	ldy	#$45
    2f41: 8c 82 d5     	sty	$d582                   ; 0xd582 <__heap_start+0x8c40>
    2f44: 8d 81 d5     	sta	$d581                   ; 0xd581 <__heap_start+0x8c3f>
    2f47: ad c3 48     	lda	$48c3                   ; 0x48c3 <opl3_fields+0x1c>
    2f4a: 0a           	asl
    2f4b: 0a           	asl
    2f4c: 0a           	asl
    2f4d: 0a           	asl
    2f4e: 0d d1 48     	ora	$48d1                   ; 0x48d1 <opl3_fields+0x2a>
    2f51: a0 62        	ldy	#$62
    2f53: 8c 82 d5     	sty	$d582                   ; 0xd582 <__heap_start+0x8c40>
    2f56: 8d 81 d5     	sta	$d581                   ; 0xd581 <__heap_start+0x8c3f>
    2f59: ad ca 48     	lda	$48ca                   ; 0x48ca <opl3_fields+0x23>
    2f5c: 0a           	asl
    2f5d: 0a           	asl
    2f5e: 0a           	asl
    2f5f: 0a           	asl
    2f60: 0d d8 48     	ora	$48d8                   ; 0x48d8 <opl3_fields+0x31>
    2f63: a0 65        	ldy	#$65
    2f65: 8c 82 d5     	sty	$d582                   ; 0xd582 <__heap_start+0x8c40>
    2f68: 8d 81 d5     	sta	$d581                   ; 0xd581 <__heap_start+0x8c3f>
    2f6b: ad df 48     	lda	$48df                   ; 0x48df <opl3_fields+0x38>
    2f6e: 0a           	asl
    2f6f: 0a           	asl
    2f70: 0a           	asl
    2f71: 0a           	asl
    2f72: 0d ed 48     	ora	$48ed                   ; 0x48ed <opl3_fields+0x46>
    2f75: a0 82        	ldy	#$82
    2f77: 8c 82 d5     	sty	$d582                   ; 0xd582 <__heap_start+0x8c40>
    2f7a: 8d 81 d5     	sta	$d581                   ; 0xd581 <__heap_start+0x8c3f>
    2f7d: ad e6 48     	lda	$48e6                   ; 0x48e6 <opl3_fields+0x3f>
    2f80: 0a           	asl
    2f81: 0a           	asl
    2f82: 0a           	asl
    2f83: 0a           	asl
    2f84: 0d f4 48     	ora	$48f4                   ; 0x48f4 <opl3_fields+0x4d>
    2f87: a0 85        	ldy	#$85
    2f89: 8c 82 d5     	sty	$d582                   ; 0xd582 <__heap_start+0x8c40>
    2f8c: 8d 81 d5     	sta	$d581                   ; 0xd581 <__heap_start+0x8c3f>
    2f8f: ad b5 48     	lda	$48b5                   ; 0x48b5 <opl3_fields+0xe>
    2f92: a0 e2        	ldy	#$e2
    2f94: 8c 82 d5     	sty	$d582                   ; 0xd582 <__heap_start+0x8c40>
    2f97: 0a           	asl
    2f98: 0a           	asl
    2f99: 0a           	asl
    2f9a: 0a           	asl
    2f9b: 8d 81 d5     	sta	$d581                   ; 0xd581 <__heap_start+0x8c3f>
    2f9e: ad bc 48     	lda	$48bc                   ; 0x48bc <opl3_fields+0x15>
    2fa1: a0 e5        	ldy	#$e5
    2fa3: 8c 82 d5     	sty	$d582                   ; 0xd582 <__heap_start+0x8c40>
    2fa6: 0a           	asl
    2fa7: 0a           	asl
    2fa8: 0a           	asl
    2fa9: 0a           	asl
    2faa: 8d 81 d5     	sta	$d581                   ; 0xd581 <__heap_start+0x8c3f>
    2fad: ad 25 49     	lda	$4925                   ; 0x4925 <opl3_fields+0x7e>
    2fb0: 0a           	asl
    2fb1: 0a           	asl
    2fb2: 0a           	asl
    2fb3: 0a           	asl
    2fb4: 0d 33 49     	ora	$4933                   ; 0x4933 <opl3_fields+0x8c>
    2fb7: a0 28        	ldy	#$28
    2fb9: 8c 82 d5     	sty	$d582                   ; 0xd582 <__heap_start+0x8c40>
    2fbc: 8d 81 d5     	sta	$d581                   ; 0xd581 <__heap_start+0x8c3f>
    2fbf: ad 2c 49     	lda	$492c                   ; 0x492c <opl3_fields+0x85>
    2fc2: 0a           	asl
    2fc3: 0a           	asl
    2fc4: 0a           	asl
    2fc5: 0a           	asl
    2fc6: 0d 3a 49     	ora	$493a                   ; 0x493a <opl3_fields+0x93>
    2fc9: a0 2b        	ldy	#$2b
    2fcb: 8c 82 d5     	sty	$d582                   ; 0xd582 <__heap_start+0x8c40>
    2fce: 8d 81 d5     	sta	$d581                   ; 0xd581 <__heap_start+0x8c3f>
    2fd1: 64 12        	stz	$12                     ; 0x2012 <main+0x1a31>
    2fd3: ad 17 49     	lda	$4917                   ; 0x4917 <opl3_fields+0x70>
    2fd6: 4a           	lsr
    2fd7: 66 12        	ror	$12                     ; 0x2012 <main+0x1a31>
    2fd9: 4a           	lsr
    2fda: 66 12        	ror	$12                     ; 0x2012 <main+0x1a31>
    2fdc: ad fb 48     	lda	$48fb                   ; 0x48fb <opl3_fields+0x54>
    2fdf: 0a           	asl
    2fe0: 0a           	asl
    2fe1: 0a           	asl
    2fe2: 0a           	asl
    2fe3: 05 12        	ora	$12                     ; 0x2012 <main+0x1a31>
    2fe5: 0d 02 49     	ora	$4902                   ; 0x4902 <opl3_fields+0x5b>
    2fe8: a0 48        	ldy	#$48
    2fea: 8c 82 d5     	sty	$d582                   ; 0xd582 <__heap_start+0x8c40>
    2fed: 8d 81 d5     	sta	$d581                   ; 0xd581 <__heap_start+0x8c3f>
    2ff0: 64 12        	stz	$12                     ; 0x2012 <main+0x1a31>
    2ff2: ad 1e 49     	lda	$491e                   ; 0x491e <opl3_fields+0x77>
    2ff5: 4a           	lsr
    2ff6: 66 12        	ror	$12                     ; 0x2012 <main+0x1a31>
    2ff8: 4a           	lsr
    2ff9: 66 12        	ror	$12                     ; 0x2012 <main+0x1a31>
    2ffb: ad 09 49     	lda	$4909                   ; 0x4909 <opl3_fields+0x62>
    2ffe: 0a           	asl
    2fff: 0a           	asl
    3000: 0a           	asl
    3001: 0a           	asl
    3002: 05 12        	ora	$12                     ; 0x2012 <main+0x1a31>
    3004: 0d 10 49     	ora	$4910                   ; 0x4910 <opl3_fields+0x69>
    3007: a0 4b        	ldy	#$4b
    3009: 8c 82 d5     	sty	$d582                   ; 0xd582 <__heap_start+0x8c40>
    300c: 8d 81 d5     	sta	$d581                   ; 0xd581 <__heap_start+0x8c3f>
    300f: ad c3 48     	lda	$48c3                   ; 0x48c3 <opl3_fields+0x1c>
    3012: 0a           	asl
    3013: 0a           	asl
    3014: 0a           	asl
    3015: 0a           	asl
    3016: 0d d1 48     	ora	$48d1                   ; 0x48d1 <opl3_fields+0x2a>
    3019: a0 68        	ldy	#$68
    301b: 8c 82 d5     	sty	$d582                   ; 0xd582 <__heap_start+0x8c40>
    301e: 8d 81 d5     	sta	$d581                   ; 0xd581 <__heap_start+0x8c3f>
    3021: ad ca 48     	lda	$48ca                   ; 0x48ca <opl3_fields+0x23>
    3024: 0a           	asl
    3025: 0a           	asl
    3026: 0a           	asl
    3027: 0a           	asl
    3028: 0d d8 48     	ora	$48d8                   ; 0x48d8 <opl3_fields+0x31>
    302b: a0 6b        	ldy	#$6b
    302d: 8c 82 d5     	sty	$d582                   ; 0xd582 <__heap_start+0x8c40>
    3030: 8d 81 d5     	sta	$d581                   ; 0xd581 <__heap_start+0x8c3f>
    3033: ad df 48     	lda	$48df                   ; 0x48df <opl3_fields+0x38>
    3036: 0a           	asl
    3037: 0a           	asl
    3038: 0a           	asl
    3039: 0a           	asl
    303a: 0d ed 48     	ora	$48ed                   ; 0x48ed <opl3_fields+0x46>
    303d: a0 88        	ldy	#$88
    303f: 8c 82 d5     	sty	$d582                   ; 0xd582 <__heap_start+0x8c40>
    3042: 8d 81 d5     	sta	$d581                   ; 0xd581 <__heap_start+0x8c3f>
    3045: ad e6 48     	lda	$48e6                   ; 0x48e6 <opl3_fields+0x3f>
    3048: 0a           	asl
    3049: 0a           	asl
    304a: 0a           	asl
    304b: 0a           	asl
    304c: 0d f4 48     	ora	$48f4                   ; 0x48f4 <opl3_fields+0x4d>
    304f: a0 8b        	ldy	#$8b
    3051: 8c 82 d5     	sty	$d582                   ; 0xd582 <__heap_start+0x8c40>
    3054: 8d 81 d5     	sta	$d581                   ; 0xd581 <__heap_start+0x8c3f>
    3057: ad b5 48     	lda	$48b5                   ; 0x48b5 <opl3_fields+0xe>
    305a: a0 e8        	ldy	#$e8
    305c: 8c 82 d5     	sty	$d582                   ; 0xd582 <__heap_start+0x8c40>
    305f: 0a           	asl
    3060: 0a           	asl
    3061: 0a           	asl
    3062: 0a           	asl
    3063: 8d 81 d5     	sta	$d581                   ; 0xd581 <__heap_start+0x8c3f>
    3066: ad bc 48     	lda	$48bc                   ; 0x48bc <opl3_fields+0x15>
    3069: a0 eb        	ldy	#$eb
    306b: 8c 82 d5     	sty	$d582                   ; 0xd582 <__heap_start+0x8c40>
    306e: 0a           	asl
    306f: 0a           	asl
    3070: 0a           	asl
    3071: 0a           	asl
    3072: 8d 81 d5     	sta	$d581                   ; 0xd581 <__heap_start+0x8c3f>
    3075: ad 25 49     	lda	$4925                   ; 0x4925 <opl3_fields+0x7e>
    3078: 0a           	asl
    3079: 0a           	asl
    307a: 0a           	asl
    307b: 0a           	asl
    307c: 0d 33 49     	ora	$4933                   ; 0x4933 <opl3_fields+0x8c>
    307f: a0 29        	ldy	#$29
    3081: 8c 82 d5     	sty	$d582                   ; 0xd582 <__heap_start+0x8c40>
    3084: 8d 81 d5     	sta	$d581                   ; 0xd581 <__heap_start+0x8c3f>
    3087: ad 2c 49     	lda	$492c                   ; 0x492c <opl3_fields+0x85>
    308a: 0a           	asl
    308b: 0a           	asl
    308c: 0a           	asl
    308d: 0a           	asl
    308e: 0d 3a 49     	ora	$493a                   ; 0x493a <opl3_fields+0x93>
    3091: a0 2c        	ldy	#$2c
    3093: 8c 82 d5     	sty	$d582                   ; 0xd582 <__heap_start+0x8c40>
    3096: 8d 81 d5     	sta	$d581                   ; 0xd581 <__heap_start+0x8c3f>
    3099: 64 12        	stz	$12                     ; 0x2012 <main+0x1a31>
    309b: ad 17 49     	lda	$4917                   ; 0x4917 <opl3_fields+0x70>
    309e: 4a           	lsr
    309f: 66 12        	ror	$12                     ; 0x2012 <main+0x1a31>
    30a1: 4a           	lsr
    30a2: 66 12        	ror	$12                     ; 0x2012 <main+0x1a31>
    30a4: ad fb 48     	lda	$48fb                   ; 0x48fb <opl3_fields+0x54>
    30a7: 0a           	asl
    30a8: 0a           	asl
    30a9: 0a           	asl
    30aa: 0a           	asl
    30ab: 05 12        	ora	$12                     ; 0x2012 <main+0x1a31>
    30ad: 0d 02 49     	ora	$4902                   ; 0x4902 <opl3_fields+0x5b>
    30b0: a0 49        	ldy	#$49
    30b2: 8c 82 d5     	sty	$d582                   ; 0xd582 <__heap_start+0x8c40>
    30b5: 8d 81 d5     	sta	$d581                   ; 0xd581 <__heap_start+0x8c3f>
    30b8: 64 12        	stz	$12                     ; 0x2012 <main+0x1a31>
    30ba: ad 1e 49     	lda	$491e                   ; 0x491e <opl3_fields+0x77>
    30bd: 4a           	lsr
    30be: 66 12        	ror	$12                     ; 0x2012 <main+0x1a31>
    30c0: 4a           	lsr
    30c1: 66 12        	ror	$12                     ; 0x2012 <main+0x1a31>
    30c3: ad 09 49     	lda	$4909                   ; 0x4909 <opl3_fields+0x62>
    30c6: 0a           	asl
    30c7: 0a           	asl
    30c8: 0a           	asl
    30c9: 0a           	asl
    30ca: 05 12        	ora	$12                     ; 0x2012 <main+0x1a31>
    30cc: 0d 10 49     	ora	$4910                   ; 0x4910 <opl3_fields+0x69>
    30cf: a0 4c        	ldy	#$4c
    30d1: 8c 82 d5     	sty	$d582                   ; 0xd582 <__heap_start+0x8c40>
    30d4: 8d 81 d5     	sta	$d581                   ; 0xd581 <__heap_start+0x8c3f>
    30d7: ad c3 48     	lda	$48c3                   ; 0x48c3 <opl3_fields+0x1c>
    30da: 0a           	asl
    30db: 0a           	asl
    30dc: 0a           	asl
    30dd: 0a           	asl
    30de: 0d d1 48     	ora	$48d1                   ; 0x48d1 <opl3_fields+0x2a>
    30e1: a0 69        	ldy	#$69
    30e3: 8c 82 d5     	sty	$d582                   ; 0xd582 <__heap_start+0x8c40>
    30e6: 8d 81 d5     	sta	$d581                   ; 0xd581 <__heap_start+0x8c3f>
    30e9: ad ca 48     	lda	$48ca                   ; 0x48ca <opl3_fields+0x23>
    30ec: 0a           	asl
    30ed: 0a           	asl
    30ee: 0a           	asl
    30ef: 0a           	asl
    30f0: 0d d8 48     	ora	$48d8                   ; 0x48d8 <opl3_fields+0x31>
    30f3: a0 6c        	ldy	#$6c
    30f5: 8c 82 d5     	sty	$d582                   ; 0xd582 <__heap_start+0x8c40>
    30f8: 8d 81 d5     	sta	$d581                   ; 0xd581 <__heap_start+0x8c3f>
    30fb: ad df 48     	lda	$48df                   ; 0x48df <opl3_fields+0x38>
    30fe: 0a           	asl
    30ff: 0a           	asl
    3100: 0a           	asl
    3101: 0a           	asl
    3102: 0d ed 48     	ora	$48ed                   ; 0x48ed <opl3_fields+0x46>
    3105: a0 89        	ldy	#$89
    3107: 8c 82 d5     	sty	$d582                   ; 0xd582 <__heap_start+0x8c40>
    310a: 8d 81 d5     	sta	$d581                   ; 0xd581 <__heap_start+0x8c3f>
    310d: ad e6 48     	lda	$48e6                   ; 0x48e6 <opl3_fields+0x3f>
    3110: 0a           	asl
    3111: 0a           	asl
    3112: 0a           	asl
    3113: 0a           	asl
    3114: 0d f4 48     	ora	$48f4                   ; 0x48f4 <opl3_fields+0x4d>
    3117: a0 8c        	ldy	#$8c
    3119: 8c 82 d5     	sty	$d582                   ; 0xd582 <__heap_start+0x8c40>
    311c: 8d 81 d5     	sta	$d581                   ; 0xd581 <__heap_start+0x8c3f>
    311f: ad b5 48     	lda	$48b5                   ; 0x48b5 <opl3_fields+0xe>
    3122: a0 e9        	ldy	#$e9
    3124: 8c 82 d5     	sty	$d582                   ; 0xd582 <__heap_start+0x8c40>
    3127: 0a           	asl
    3128: 0a           	asl
    3129: 0a           	asl
    312a: 0a           	asl
    312b: 8d 81 d5     	sta	$d581                   ; 0xd581 <__heap_start+0x8c3f>
    312e: ad bc 48     	lda	$48bc                   ; 0x48bc <opl3_fields+0x15>
    3131: a0 ec        	ldy	#$ec
    3133: 8c 82 d5     	sty	$d582                   ; 0xd582 <__heap_start+0x8c40>
    3136: 0a           	asl
    3137: 0a           	asl
    3138: 0a           	asl
    3139: 0a           	asl
    313a: 8d 81 d5     	sta	$d581                   ; 0xd581 <__heap_start+0x8c3f>
    313d: ad 25 49     	lda	$4925                   ; 0x4925 <opl3_fields+0x7e>
    3140: 0a           	asl
    3141: 0a           	asl
    3142: 0a           	asl
    3143: 0a           	asl
    3144: 0d 33 49     	ora	$4933                   ; 0x4933 <opl3_fields+0x8c>
    3147: a0 2a        	ldy	#$2a
    3149: 8c 82 d5     	sty	$d582                   ; 0xd582 <__heap_start+0x8c40>
    314c: 8d 81 d5     	sta	$d581                   ; 0xd581 <__heap_start+0x8c3f>
    314f: ad 2c 49     	lda	$492c                   ; 0x492c <opl3_fields+0x85>
    3152: 0a           	asl
    3153: 0a           	asl
    3154: 0a           	asl
    3155: 0a           	asl
    3156: 0d 3a 49     	ora	$493a                   ; 0x493a <opl3_fields+0x93>
    3159: a0 2d        	ldy	#$2d
    315b: 8c 82 d5     	sty	$d582                   ; 0xd582 <__heap_start+0x8c40>
    315e: 8d 81 d5     	sta	$d581                   ; 0xd581 <__heap_start+0x8c3f>
    3161: 64 12        	stz	$12                     ; 0x2012 <main+0x1a31>
    3163: ad 17 49     	lda	$4917                   ; 0x4917 <opl3_fields+0x70>
    3166: 4a           	lsr
    3167: 66 12        	ror	$12                     ; 0x2012 <main+0x1a31>
    3169: 4a           	lsr
    316a: 66 12        	ror	$12                     ; 0x2012 <main+0x1a31>
    316c: ad fb 48     	lda	$48fb                   ; 0x48fb <opl3_fields+0x54>
    316f: 0a           	asl
    3170: 0a           	asl
    3171: 0a           	asl
    3172: 0a           	asl
    3173: 05 12        	ora	$12                     ; 0x2012 <main+0x1a31>
    3175: 0d 02 49     	ora	$4902                   ; 0x4902 <opl3_fields+0x5b>
    3178: a0 4a        	ldy	#$4a
    317a: 8c 82 d5     	sty	$d582                   ; 0xd582 <__heap_start+0x8c40>
    317d: 8d 81 d5     	sta	$d581                   ; 0xd581 <__heap_start+0x8c3f>
    3180: 64 12        	stz	$12                     ; 0x2012 <main+0x1a31>
    3182: ad 1e 49     	lda	$491e                   ; 0x491e <opl3_fields+0x77>
    3185: 4a           	lsr
    3186: 66 12        	ror	$12                     ; 0x2012 <main+0x1a31>
    3188: 4a           	lsr
    3189: 66 12        	ror	$12                     ; 0x2012 <main+0x1a31>
    318b: ad 09 49     	lda	$4909                   ; 0x4909 <opl3_fields+0x62>
    318e: 0a           	asl
    318f: 0a           	asl
    3190: 0a           	asl
    3191: 0a           	asl
    3192: 05 12        	ora	$12                     ; 0x2012 <main+0x1a31>
    3194: 0d 10 49     	ora	$4910                   ; 0x4910 <opl3_fields+0x69>
    3197: a0 4d        	ldy	#$4d
    3199: 8c 82 d5     	sty	$d582                   ; 0xd582 <__heap_start+0x8c40>
    319c: 8d 81 d5     	sta	$d581                   ; 0xd581 <__heap_start+0x8c3f>
    319f: ad c3 48     	lda	$48c3                   ; 0x48c3 <opl3_fields+0x1c>
    31a2: 0a           	asl
    31a3: 0a           	asl
    31a4: 0a           	asl
    31a5: 0a           	asl
    31a6: 0d d1 48     	ora	$48d1                   ; 0x48d1 <opl3_fields+0x2a>
    31a9: a0 6a        	ldy	#$6a
    31ab: 8c 82 d5     	sty	$d582                   ; 0xd582 <__heap_start+0x8c40>
    31ae: 8d 81 d5     	sta	$d581                   ; 0xd581 <__heap_start+0x8c3f>
    31b1: ad ca 48     	lda	$48ca                   ; 0x48ca <opl3_fields+0x23>
    31b4: 0a           	asl
    31b5: 0a           	asl
    31b6: 0a           	asl
    31b7: 0a           	asl
    31b8: 0d d8 48     	ora	$48d8                   ; 0x48d8 <opl3_fields+0x31>
    31bb: a0 6d        	ldy	#$6d
    31bd: 8c 82 d5     	sty	$d582                   ; 0xd582 <__heap_start+0x8c40>
    31c0: 8d 81 d5     	sta	$d581                   ; 0xd581 <__heap_start+0x8c3f>
    31c3: ad df 48     	lda	$48df                   ; 0x48df <opl3_fields+0x38>
    31c6: 0a           	asl
    31c7: 0a           	asl
    31c8: 0a           	asl
    31c9: 0a           	asl
    31ca: 0d ed 48     	ora	$48ed                   ; 0x48ed <opl3_fields+0x46>
    31cd: a0 8a        	ldy	#$8a
    31cf: 8c 82 d5     	sty	$d582                   ; 0xd582 <__heap_start+0x8c40>
    31d2: 8d 81 d5     	sta	$d581                   ; 0xd581 <__heap_start+0x8c3f>
    31d5: ad e6 48     	lda	$48e6                   ; 0x48e6 <opl3_fields+0x3f>
    31d8: 0a           	asl
    31d9: 0a           	asl
    31da: 0a           	asl
    31db: 0a           	asl
    31dc: 0d f4 48     	ora	$48f4                   ; 0x48f4 <opl3_fields+0x4d>
    31df: a0 8d        	ldy	#$8d
    31e1: 8c 82 d5     	sty	$d582                   ; 0xd582 <__heap_start+0x8c40>
    31e4: 8d 81 d5     	sta	$d581                   ; 0xd581 <__heap_start+0x8c3f>
    31e7: ad b5 48     	lda	$48b5                   ; 0x48b5 <opl3_fields+0xe>
    31ea: a0 ea        	ldy	#$ea
    31ec: 8c 82 d5     	sty	$d582                   ; 0xd582 <__heap_start+0x8c40>
    31ef: 0a           	asl
    31f0: 0a           	asl
    31f1: 0a           	asl
    31f2: 0a           	asl
    31f3: 8d 81 d5     	sta	$d581                   ; 0xd581 <__heap_start+0x8c3f>
    31f6: ad bc 48     	lda	$48bc                   ; 0x48bc <opl3_fields+0x15>
    31f9: a0 ed        	ldy	#$ed
    31fb: 8c 82 d5     	sty	$d582                   ; 0xd582 <__heap_start+0x8c40>
    31fe: 0a           	asl
    31ff: 0a           	asl
    3200: 0a           	asl
    3201: 0a           	asl
    3202: 8d 81 d5     	sta	$d581                   ; 0xd581 <__heap_start+0x8c3f>
    3205: ad 25 49     	lda	$4925                   ; 0x4925 <opl3_fields+0x7e>
    3208: 0a           	asl
    3209: 0a           	asl
    320a: 0a           	asl
    320b: 0a           	asl
    320c: 0d 33 49     	ora	$4933                   ; 0x4933 <opl3_fields+0x8c>
    320f: a0 30        	ldy	#$30
    3211: 8c 82 d5     	sty	$d582                   ; 0xd582 <__heap_start+0x8c40>
    3214: 8d 81 d5     	sta	$d581                   ; 0xd581 <__heap_start+0x8c3f>
    3217: ad 2c 49     	lda	$492c                   ; 0x492c <opl3_fields+0x85>
    321a: 0a           	asl
    321b: 0a           	asl
    321c: 0a           	asl
    321d: 0a           	asl
    321e: 0d 3a 49     	ora	$493a                   ; 0x493a <opl3_fields+0x93>
    3221: a0 33        	ldy	#$33
    3223: 8c 82 d5     	sty	$d582                   ; 0xd582 <__heap_start+0x8c40>
    3226: 8d 81 d5     	sta	$d581                   ; 0xd581 <__heap_start+0x8c3f>
    3229: 64 12        	stz	$12                     ; 0x2012 <main+0x1a31>
    322b: ad 17 49     	lda	$4917                   ; 0x4917 <opl3_fields+0x70>
    322e: 4a           	lsr
    322f: 66 12        	ror	$12                     ; 0x2012 <main+0x1a31>
    3231: 4a           	lsr
    3232: 66 12        	ror	$12                     ; 0x2012 <main+0x1a31>
    3234: ad fb 48     	lda	$48fb                   ; 0x48fb <opl3_fields+0x54>
    3237: 0a           	asl
    3238: 0a           	asl
    3239: 0a           	asl
    323a: 0a           	asl
    323b: 05 12        	ora	$12                     ; 0x2012 <main+0x1a31>
    323d: 0d 02 49     	ora	$4902                   ; 0x4902 <opl3_fields+0x5b>
    3240: a0 50        	ldy	#$50
    3242: 8c 82 d5     	sty	$d582                   ; 0xd582 <__heap_start+0x8c40>
    3245: 8d 81 d5     	sta	$d581                   ; 0xd581 <__heap_start+0x8c3f>
    3248: 64 12        	stz	$12                     ; 0x2012 <main+0x1a31>
    324a: ad 1e 49     	lda	$491e                   ; 0x491e <opl3_fields+0x77>
    324d: 4a           	lsr
    324e: 66 12        	ror	$12                     ; 0x2012 <main+0x1a31>
    3250: 4a           	lsr
    3251: 66 12        	ror	$12                     ; 0x2012 <main+0x1a31>
    3253: ad 09 49     	lda	$4909                   ; 0x4909 <opl3_fields+0x62>
    3256: 0a           	asl
    3257: 0a           	asl
    3258: 0a           	asl
    3259: 0a           	asl
    325a: 05 12        	ora	$12                     ; 0x2012 <main+0x1a31>
    325c: 0d 10 49     	ora	$4910                   ; 0x4910 <opl3_fields+0x69>
    325f: a0 53        	ldy	#$53
    3261: 8c 82 d5     	sty	$d582                   ; 0xd582 <__heap_start+0x8c40>
    3264: 8d 81 d5     	sta	$d581                   ; 0xd581 <__heap_start+0x8c3f>
    3267: ad c3 48     	lda	$48c3                   ; 0x48c3 <opl3_fields+0x1c>
    326a: 0a           	asl
    326b: 0a           	asl
    326c: 0a           	asl
    326d: 0a           	asl
    326e: 0d d1 48     	ora	$48d1                   ; 0x48d1 <opl3_fields+0x2a>
    3271: a0 70        	ldy	#$70
    3273: 8c 82 d5     	sty	$d582                   ; 0xd582 <__heap_start+0x8c40>
    3276: 8d 81 d5     	sta	$d581                   ; 0xd581 <__heap_start+0x8c3f>
    3279: ad ca 48     	lda	$48ca                   ; 0x48ca <opl3_fields+0x23>
    327c: 0a           	asl
    327d: 0a           	asl
    327e: 0a           	asl
    327f: 0a           	asl
    3280: 0d d8 48     	ora	$48d8                   ; 0x48d8 <opl3_fields+0x31>
    3283: a0 73        	ldy	#$73
    3285: 8c 82 d5     	sty	$d582                   ; 0xd582 <__heap_start+0x8c40>
    3288: 8d 81 d5     	sta	$d581                   ; 0xd581 <__heap_start+0x8c3f>
    328b: ad df 48     	lda	$48df                   ; 0x48df <opl3_fields+0x38>
    328e: 0a           	asl
    328f: 0a           	asl
    3290: 0a           	asl
    3291: 0a           	asl
    3292: 0d ed 48     	ora	$48ed                   ; 0x48ed <opl3_fields+0x46>
    3295: a0 90        	ldy	#$90
    3297: 8c 82 d5     	sty	$d582                   ; 0xd582 <__heap_start+0x8c40>
    329a: 8d 81 d5     	sta	$d581                   ; 0xd581 <__heap_start+0x8c3f>
    329d: ad e6 48     	lda	$48e6                   ; 0x48e6 <opl3_fields+0x3f>
    32a0: 0a           	asl
    32a1: 0a           	asl
    32a2: 0a           	asl
    32a3: 0a           	asl
    32a4: 0d f4 48     	ora	$48f4                   ; 0x48f4 <opl3_fields+0x4d>
    32a7: a0 93        	ldy	#$93
    32a9: 8c 82 d5     	sty	$d582                   ; 0xd582 <__heap_start+0x8c40>
    32ac: 8d 81 d5     	sta	$d581                   ; 0xd581 <__heap_start+0x8c3f>
    32af: ad b5 48     	lda	$48b5                   ; 0x48b5 <opl3_fields+0xe>
    32b2: a0 f0        	ldy	#$f0
    32b4: 8c 82 d5     	sty	$d582                   ; 0xd582 <__heap_start+0x8c40>
    32b7: 0a           	asl
    32b8: 0a           	asl
    32b9: 0a           	asl
    32ba: 0a           	asl
    32bb: 8d 81 d5     	sta	$d581                   ; 0xd581 <__heap_start+0x8c3f>
    32be: ad bc 48     	lda	$48bc                   ; 0x48bc <opl3_fields+0x15>
    32c1: a0 f3        	ldy	#$f3
    32c3: 8c 82 d5     	sty	$d582                   ; 0xd582 <__heap_start+0x8c40>
    32c6: 0a           	asl
    32c7: 0a           	asl
    32c8: 0a           	asl
    32c9: 0a           	asl
    32ca: 8d 81 d5     	sta	$d581                   ; 0xd581 <__heap_start+0x8c3f>
    32cd: ad 25 49     	lda	$4925                   ; 0x4925 <opl3_fields+0x7e>
    32d0: 0a           	asl
    32d1: 0a           	asl
    32d2: 0a           	asl
    32d3: 0a           	asl
    32d4: 0d 33 49     	ora	$4933                   ; 0x4933 <opl3_fields+0x8c>
    32d7: a0 31        	ldy	#$31
    32d9: 8c 82 d5     	sty	$d582                   ; 0xd582 <__heap_start+0x8c40>
    32dc: 8d 81 d5     	sta	$d581                   ; 0xd581 <__heap_start+0x8c3f>
    32df: ad 2c 49     	lda	$492c                   ; 0x492c <opl3_fields+0x85>
    32e2: 0a           	asl
    32e3: 0a           	asl
    32e4: 0a           	asl
    32e5: 0a           	asl
    32e6: 0d 3a 49     	ora	$493a                   ; 0x493a <opl3_fields+0x93>
    32e9: a0 34        	ldy	#$34
    32eb: 8c 82 d5     	sty	$d582                   ; 0xd582 <__heap_start+0x8c40>
    32ee: 8d 81 d5     	sta	$d581                   ; 0xd581 <__heap_start+0x8c3f>
    32f1: 64 12        	stz	$12                     ; 0x2012 <main+0x1a31>
    32f3: ad 17 49     	lda	$4917                   ; 0x4917 <opl3_fields+0x70>
    32f6: 4a           	lsr
    32f7: 66 12        	ror	$12                     ; 0x2012 <main+0x1a31>
    32f9: 4a           	lsr
    32fa: 66 12        	ror	$12                     ; 0x2012 <main+0x1a31>
    32fc: ad fb 48     	lda	$48fb                   ; 0x48fb <opl3_fields+0x54>
    32ff: 0a           	asl
    3300: 0a           	asl
    3301: 0a           	asl
    3302: 0a           	asl
    3303: 05 12        	ora	$12                     ; 0x2012 <main+0x1a31>
    3305: 0d 02 49     	ora	$4902                   ; 0x4902 <opl3_fields+0x5b>
    3308: a0 51        	ldy	#$51
    330a: 8c 82 d5     	sty	$d582                   ; 0xd582 <__heap_start+0x8c40>
    330d: 8d 81 d5     	sta	$d581                   ; 0xd581 <__heap_start+0x8c3f>
    3310: 64 12        	stz	$12                     ; 0x2012 <main+0x1a31>
    3312: ad 1e 49     	lda	$491e                   ; 0x491e <opl3_fields+0x77>
    3315: 4a           	lsr
    3316: 66 12        	ror	$12                     ; 0x2012 <main+0x1a31>
    3318: 4a           	lsr
    3319: 66 12        	ror	$12                     ; 0x2012 <main+0x1a31>
    331b: ad 09 49     	lda	$4909                   ; 0x4909 <opl3_fields+0x62>
    331e: 0a           	asl
    331f: 0a           	asl
    3320: 0a           	asl
    3321: 0a           	asl
    3322: 05 12        	ora	$12                     ; 0x2012 <main+0x1a31>
    3324: 0d 10 49     	ora	$4910                   ; 0x4910 <opl3_fields+0x69>
    3327: a0 54        	ldy	#$54
    3329: 8c 82 d5     	sty	$d582                   ; 0xd582 <__heap_start+0x8c40>
    332c: 8d 81 d5     	sta	$d581                   ; 0xd581 <__heap_start+0x8c3f>
    332f: ad c3 48     	lda	$48c3                   ; 0x48c3 <opl3_fields+0x1c>
    3332: 0a           	asl
    3333: 0a           	asl
    3334: 0a           	asl
    3335: 0a           	asl
    3336: 0d d1 48     	ora	$48d1                   ; 0x48d1 <opl3_fields+0x2a>
    3339: a0 71        	ldy	#$71
    333b: 8c 82 d5     	sty	$d582                   ; 0xd582 <__heap_start+0x8c40>
    333e: 8d 81 d5     	sta	$d581                   ; 0xd581 <__heap_start+0x8c3f>
    3341: ad ca 48     	lda	$48ca                   ; 0x48ca <opl3_fields+0x23>
    3344: 0a           	asl
    3345: 0a           	asl
    3346: 0a           	asl
    3347: 0a           	asl
    3348: 0d d8 48     	ora	$48d8                   ; 0x48d8 <opl3_fields+0x31>
    334b: a0 74        	ldy	#$74
    334d: 8c 82 d5     	sty	$d582                   ; 0xd582 <__heap_start+0x8c40>
    3350: 8d 81 d5     	sta	$d581                   ; 0xd581 <__heap_start+0x8c3f>
    3353: ad df 48     	lda	$48df                   ; 0x48df <opl3_fields+0x38>
    3356: 0a           	asl
    3357: 0a           	asl
    3358: 0a           	asl
    3359: 0a           	asl
    335a: 0d ed 48     	ora	$48ed                   ; 0x48ed <opl3_fields+0x46>
    335d: a0 91        	ldy	#$91
    335f: 8c 82 d5     	sty	$d582                   ; 0xd582 <__heap_start+0x8c40>
    3362: 8d 81 d5     	sta	$d581                   ; 0xd581 <__heap_start+0x8c3f>
    3365: ad e6 48     	lda	$48e6                   ; 0x48e6 <opl3_fields+0x3f>
    3368: 0a           	asl
    3369: 0a           	asl
    336a: 0a           	asl
    336b: 0a           	asl
    336c: 0d f4 48     	ora	$48f4                   ; 0x48f4 <opl3_fields+0x4d>
    336f: a0 94        	ldy	#$94
    3371: 8c 82 d5     	sty	$d582                   ; 0xd582 <__heap_start+0x8c40>
    3374: 8d 81 d5     	sta	$d581                   ; 0xd581 <__heap_start+0x8c3f>
    3377: ad b5 48     	lda	$48b5                   ; 0x48b5 <opl3_fields+0xe>
    337a: a0 f1        	ldy	#$f1
    337c: 8c 82 d5     	sty	$d582                   ; 0xd582 <__heap_start+0x8c40>
    337f: 0a           	asl
    3380: 0a           	asl
    3381: 0a           	asl
    3382: 0a           	asl
    3383: 8d 81 d5     	sta	$d581                   ; 0xd581 <__heap_start+0x8c3f>
    3386: ad bc 48     	lda	$48bc                   ; 0x48bc <opl3_fields+0x15>
    3389: a0 f4        	ldy	#$f4
    338b: 8c 82 d5     	sty	$d582                   ; 0xd582 <__heap_start+0x8c40>
    338e: 0a           	asl
    338f: 0a           	asl
    3390: 0a           	asl
    3391: 0a           	asl
    3392: 8d 81 d5     	sta	$d581                   ; 0xd581 <__heap_start+0x8c3f>
    3395: ad 25 49     	lda	$4925                   ; 0x4925 <opl3_fields+0x7e>
    3398: 0a           	asl
    3399: 0a           	asl
    339a: 0a           	asl
    339b: 0a           	asl
    339c: 0d 33 49     	ora	$4933                   ; 0x4933 <opl3_fields+0x8c>
    339f: a0 32        	ldy	#$32
    33a1: 8c 82 d5     	sty	$d582                   ; 0xd582 <__heap_start+0x8c40>
    33a4: 8d 81 d5     	sta	$d581                   ; 0xd581 <__heap_start+0x8c3f>
    33a7: ad 2c 49     	lda	$492c                   ; 0x492c <opl3_fields+0x85>
    33aa: 0a           	asl
    33ab: 0a           	asl
    33ac: 0a           	asl
    33ad: 0a           	asl
    33ae: 0d 3a 49     	ora	$493a                   ; 0x493a <opl3_fields+0x93>
    33b1: a0 35        	ldy	#$35
    33b3: 8c 82 d5     	sty	$d582                   ; 0xd582 <__heap_start+0x8c40>
    33b6: 8d 81 d5     	sta	$d581                   ; 0xd581 <__heap_start+0x8c3f>
    33b9: 64 12        	stz	$12                     ; 0x2012 <main+0x1a31>
    33bb: ad 17 49     	lda	$4917                   ; 0x4917 <opl3_fields+0x70>
    33be: 4a           	lsr
    33bf: 66 12        	ror	$12                     ; 0x2012 <main+0x1a31>
    33c1: 4a           	lsr
    33c2: 66 12        	ror	$12                     ; 0x2012 <main+0x1a31>
    33c4: ad fb 48     	lda	$48fb                   ; 0x48fb <opl3_fields+0x54>
    33c7: 0a           	asl
    33c8: 0a           	asl
    33c9: 0a           	asl
    33ca: 0a           	asl
    33cb: 05 12        	ora	$12                     ; 0x2012 <main+0x1a31>
    33cd: 0d 02 49     	ora	$4902                   ; 0x4902 <opl3_fields+0x5b>
    33d0: a0 52        	ldy	#$52
    33d2: 8c 82 d5     	sty	$d582                   ; 0xd582 <__heap_start+0x8c40>
    33d5: 8d 81 d5     	sta	$d581                   ; 0xd581 <__heap_start+0x8c3f>
    33d8: 64 12        	stz	$12                     ; 0x2012 <main+0x1a31>
    33da: ad 1e 49     	lda	$491e                   ; 0x491e <opl3_fields+0x77>
    33dd: 4a           	lsr
    33de: 66 12        	ror	$12                     ; 0x2012 <main+0x1a31>
    33e0: 4a           	lsr
    33e1: 66 12        	ror	$12                     ; 0x2012 <main+0x1a31>
    33e3: ad 09 49     	lda	$4909                   ; 0x4909 <opl3_fields+0x62>
    33e6: 0a           	asl
    33e7: 0a           	asl
    33e8: 0a           	asl
    33e9: 0a           	asl
    33ea: 05 12        	ora	$12                     ; 0x2012 <main+0x1a31>
    33ec: 0d 10 49     	ora	$4910                   ; 0x4910 <opl3_fields+0x69>
    33ef: a0 55        	ldy	#$55
    33f1: 8c 82 d5     	sty	$d582                   ; 0xd582 <__heap_start+0x8c40>
    33f4: 8d 81 d5     	sta	$d581                   ; 0xd581 <__heap_start+0x8c3f>
    33f7: ad c3 48     	lda	$48c3                   ; 0x48c3 <opl3_fields+0x1c>
    33fa: 0a           	asl
    33fb: 0a           	asl
    33fc: 0a           	asl
    33fd: 0a           	asl
    33fe: 0d d1 48     	ora	$48d1                   ; 0x48d1 <opl3_fields+0x2a>
    3401: a0 72        	ldy	#$72
    3403: 8c 82 d5     	sty	$d582                   ; 0xd582 <__heap_start+0x8c40>
    3406: 8d 81 d5     	sta	$d581                   ; 0xd581 <__heap_start+0x8c3f>
    3409: ad ca 48     	lda	$48ca                   ; 0x48ca <opl3_fields+0x23>
    340c: 0a           	asl
    340d: 0a           	asl
    340e: 0a           	asl
    340f: 0a           	asl
    3410: 0d d8 48     	ora	$48d8                   ; 0x48d8 <opl3_fields+0x31>
    3413: a0 75        	ldy	#$75
    3415: 8c 82 d5     	sty	$d582                   ; 0xd582 <__heap_start+0x8c40>
    3418: 8d 81 d5     	sta	$d581                   ; 0xd581 <__heap_start+0x8c3f>
    341b: ad df 48     	lda	$48df                   ; 0x48df <opl3_fields+0x38>
    341e: 0a           	asl
    341f: 0a           	asl
    3420: 0a           	asl
    3421: 0a           	asl
    3422: 0d ed 48     	ora	$48ed                   ; 0x48ed <opl3_fields+0x46>
    3425: a0 92        	ldy	#$92
    3427: 8c 82 d5     	sty	$d582                   ; 0xd582 <__heap_start+0x8c40>
    342a: 8d 81 d5     	sta	$d581                   ; 0xd581 <__heap_start+0x8c3f>
    342d: ad e6 48     	lda	$48e6                   ; 0x48e6 <opl3_fields+0x3f>
    3430: 0a           	asl
    3431: 0a           	asl
    3432: 0a           	asl
    3433: 0a           	asl
    3434: 0d f4 48     	ora	$48f4                   ; 0x48f4 <opl3_fields+0x4d>
    3437: a0 95        	ldy	#$95
    3439: 8c 82 d5     	sty	$d582                   ; 0xd582 <__heap_start+0x8c40>
    343c: 8d 81 d5     	sta	$d581                   ; 0xd581 <__heap_start+0x8c3f>
    343f: ad b5 48     	lda	$48b5                   ; 0x48b5 <opl3_fields+0xe>
    3442: 0a           	asl
    3443: 0a           	asl
    3444: 0a           	asl
    3445: 0a           	asl
    3446: a0 f2        	ldy	#$f2
    3448: 8c 82 d5     	sty	$d582                   ; 0xd582 <__heap_start+0x8c40>
    344b: 8d 81 d5     	sta	$d581                   ; 0xd581 <__heap_start+0x8c3f>
    344e: ad bc 48     	lda	$48bc                   ; 0x48bc <opl3_fields+0x15>
    3451: 0a           	asl
    3452: 0a           	asl
    3453: 0a           	asl
    3454: 8e 82 d5     	stx	$d582                   ; 0xd582 <__heap_start+0x8c40>
    3457: 0a           	asl
    3458: 8d 81 d5     	sta	$d581                   ; 0xd581 <__heap_start+0x8c3f>
    345b: 18           	clc
    345c: a5 10        	lda	$10                     ; 0x2010 <main+0x1a2f>
    345e: 69 02        	adc	#$2
    3460: 85 10        	sta	$10                     ; 0x2010 <main+0x1a2f>
    3462: a5 11        	lda	$11                     ; 0x2011 <main+0x1a30>
    3464: 69 00        	adc	#$0
    3466: 85 11        	sta	$11                     ; 0x2011 <main+0x1a30>
    3468: 60           	rts

00003469 <exit>:
    3469: 20 18 03     	jsr	$318 <_fini>
    346c: 80 fe        	bra	$346c <exit+0x3>

0000346e <_ZN12_GLOBAL__N_13putEcP6Status>:
    346e: 85 18        	sta	$18                     ; 0x2018 <main+0x1a37>
    3470: a6 13        	ldx	$13                     ; 0x2013 <main+0x1a32>
    3472: 18           	clc
    3473: a5 12        	lda	$12                     ; 0x2012 <main+0x1a31>
    3475: 69 05        	adc	#$5
    3477: a8           	tay
    3478: a5 13        	lda	$13                     ; 0x2013 <main+0x1a32>
    347a: 86 15        	stx	$15                     ; 0x2015 <main+0x1a34>
    347c: 69 00        	adc	#$0
    347e: 18           	clc
    347f: 84 16        	sty	$16                     ; 0x2016 <main+0x1a35>
    3481: a0 05        	ldy	#$5
    3483: 85 17        	sta	$17                     ; 0x2017 <main+0x1a36>
    3485: b1 12        	lda	($12),y                 ; 0x2012 <main+0x1a31>
    3487: aa           	tax
    3488: a5 12        	lda	$12                     ; 0x2012 <main+0x1a31>
    348a: 69 03        	adc	#$3
    348c: 85 14        	sta	$14                     ; 0x2014 <main+0x1a33>
    348e: a5 15        	lda	$15                     ; 0x2015 <main+0x1a34>
    3490: 69 00        	adc	#$0
    3492: 85 15        	sta	$15                     ; 0x2015 <main+0x1a34>
    3494: a0 01        	ldy	#$1
    3496: b1 16        	lda	($16),y                 ; 0x2016 <main+0x1a35>
    3498: d1 14        	cmp	($14),y                 ; 0x2014 <main+0x1a33>
    349a: d0 11        	bne	$34ad <_ZN12_GLOBAL__N_13putEcP6Status+0x3f>
    349c: a0 03        	ldy	#$3
    349e: 85 17        	sta	$17                     ; 0x2017 <main+0x1a36>
    34a0: b1 12        	lda	($12),y                 ; 0x2012 <main+0x1a31>
    34a2: 85 14        	sta	$14                     ; 0x2014 <main+0x1a33>
    34a4: 86 16        	stx	$16                     ; 0x2016 <main+0x1a35>
    34a6: e4 14        	cpx	$14                     ; 0x2014 <main+0x1a33>
    34a8: 90 0e        	bcc	$34b8 <_ZN12_GLOBAL__N_13putEcP6Status+0x4a>
    34aa: 4c 21 35     	jmp	$3521 <_ZN12_GLOBAL__N_13putEcP6Status+0xb3>
    34ad: 86 16        	stx	$16                     ; 0x2016 <main+0x1a35>
    34af: d1 14        	cmp	($14),y                 ; 0x2014 <main+0x1a33>
    34b1: 85 17        	sta	$17                     ; 0x2017 <main+0x1a36>
    34b3: 90 03        	bcc	$34b8 <_ZN12_GLOBAL__N_13putEcP6Status+0x4a>
    34b5: 4c 21 35     	jmp	$3521 <_ZN12_GLOBAL__N_13putEcP6Status+0xb3>
    34b8: a5 12        	lda	$12                     ; 0x2012 <main+0x1a31>
    34ba: 18           	clc
    34bb: 69 0f        	adc	#$f
    34bd: 85 14        	sta	$14                     ; 0x2014 <main+0x1a33>
    34bf: a5 13        	lda	$13                     ; 0x2013 <main+0x1a32>
    34c1: 69 00        	adc	#$0
    34c3: 85 15        	sta	$15                     ; 0x2015 <main+0x1a34>
    34c5: a0 01        	ldy	#$1
    34c7: b1 14        	lda	($14),y                 ; 0x2014 <main+0x1a33>
    34c9: a2 00        	ldx	#$0
    34cb: 86 14        	stx	$14                     ; 0x2014 <main+0x1a33>
    34cd: a2 00        	ldx	#$0
    34cf: 86 15        	stx	$15                     ; 0x2015 <main+0x1a34>
    34d1: c5 15        	cmp	$15                     ; 0x2015 <main+0x1a34>
    34d3: d0 2d        	bne	$3502 <_ZN12_GLOBAL__N_13putEcP6Status+0x94>
    34d5: a0 0f        	ldy	#$f
    34d7: b1 12        	lda	($12),y                 ; 0x2012 <main+0x1a31>
    34d9: c5 14        	cmp	$14                     ; 0x2014 <main+0x1a33>
    34db: d0 25        	bne	$3502 <_ZN12_GLOBAL__N_13putEcP6Status+0x94>
    34dd: a5 12        	lda	$12                     ; 0x2012 <main+0x1a31>
    34df: 18           	clc
    34e0: 69 09        	adc	#$9
    34e2: 85 14        	sta	$14                     ; 0x2014 <main+0x1a33>
    34e4: a5 13        	lda	$13                     ; 0x2013 <main+0x1a32>
    34e6: 69 00        	adc	#$0
    34e8: a0 09        	ldy	#$9
    34ea: 85 15        	sta	$15                     ; 0x2015 <main+0x1a34>
    34ec: 18           	clc
    34ed: a5 16        	lda	$16                     ; 0x2016 <main+0x1a35>
    34ef: 71 12        	adc	($12),y                 ; 0x2012 <main+0x1a31>
    34f1: aa           	tax
    34f2: a0 01        	ldy	#$1
    34f4: a5 17        	lda	$17                     ; 0x2017 <main+0x1a36>
    34f6: 71 14        	adc	($14),y                 ; 0x2014 <main+0x1a33>
    34f8: 86 14        	stx	$14                     ; 0x2014 <main+0x1a33>
    34fa: 85 15        	sta	$15                     ; 0x2015 <main+0x1a34>
    34fc: a5 18        	lda	$18                     ; 0x2018 <main+0x1a37>
    34fe: 92 14        	sta	($14)                   ; 0x2014 <main+0x1a33>
    3500: 80 1f        	bra	$3521 <_ZN12_GLOBAL__N_13putEcP6Status+0xb3>
    3502: a6 12        	ldx	$12                     ; 0x2012 <main+0x1a31>
    3504: 86 a9        	stx	$a9                     ; 0x20a9 <main+0x1ac8>
    3506: a6 13        	ldx	$13                     ; 0x2013 <main+0x1a32>
    3508: 86 aa        	stx	$aa                     ; 0x20aa <main+0x1ac9>
    350a: a5 18        	lda	$18                     ; 0x2018 <main+0x1a37>
    350c: 85 4d        	sta	$4d                     ; 0x204d <main+0x1a6c>
    350e: a2 4d        	ldx	#$4d
    3510: 86 12        	stx	$12                     ; 0x2012 <main+0x1a31>
    3512: a2 00        	ldx	#$0
    3514: 86 13        	stx	$13                     ; 0x2013 <main+0x1a32>
    3516: 20 a2 22     	jsr	$22a2 <textPrint>
    3519: a6 a9        	ldx	$a9                     ; 0x20a9 <main+0x1ac8>
    351b: 86 12        	stx	$12                     ; 0x2012 <main+0x1a31>
    351d: a6 aa        	ldx	$aa                     ; 0x20aa <main+0x1ac9>
    351f: 86 13        	stx	$13                     ; 0x2013 <main+0x1a32>
    3521: a0 05        	ldy	#$5
    3523: a5 12        	lda	$12                     ; 0x2012 <main+0x1a31>
    3525: 18           	clc
    3526: 69 05        	adc	#$5
    3528: 85 14        	sta	$14                     ; 0x2014 <main+0x1a33>
    352a: a5 13        	lda	$13                     ; 0x2013 <main+0x1a32>
    352c: 69 00        	adc	#$0
    352e: 85 15        	sta	$15                     ; 0x2015 <main+0x1a34>
    3530: b1 12        	lda	($12),y                 ; 0x2012 <main+0x1a31>
    3532: aa           	tax
    3533: a0 01        	ldy	#$1
    3535: b1 14        	lda	($14),y                 ; 0x2014 <main+0x1a33>
    3537: e8           	inx
    3538: d0 01        	bne	$353b <_ZN12_GLOBAL__N_13putEcP6Status+0xcd>
    353a: 1a           	inc
    353b: 85 16        	sta	$16                     ; 0x2016 <main+0x1a35>
    353d: 8a           	txa
    353e: a0 05        	ldy	#$5
    3540: 91 12        	sta	($12),y                 ; 0x2012 <main+0x1a31>
    3542: a0 01        	ldy	#$1
    3544: a5 16        	lda	$16                     ; 0x2016 <main+0x1a35>
    3546: 91 14        	sta	($14),y                 ; 0x2014 <main+0x1a33>
    3548: 60           	rts

00003549 <_ZN12_GLOBAL__N_112print_stringEPKcP6Status>:
    3549: a6 12        	ldx	$12                     ; 0x2012 <main+0x1a31>
    354b: 86 a1        	stx	$a1                     ; 0x20a1 <main+0x1ac0>
    354d: a6 13        	ldx	$13                     ; 0x2013 <main+0x1a32>
    354f: 86 a2        	stx	$a2                     ; 0x20a2 <main+0x1ac1>
    3551: a6 14        	ldx	$14                     ; 0x2014 <main+0x1a33>
    3553: 86 a3        	stx	$a3                     ; 0x20a3 <main+0x1ac2>
    3555: a6 15        	ldx	$15                     ; 0x2015 <main+0x1a34>
    3557: 86 a4        	stx	$a4                     ; 0x20a4 <main+0x1ac3>
    3559: a5 a3        	lda	$a3                     ; 0x20a3 <main+0x1ac2>
    355b: 18           	clc
    355c: 69 0d        	adc	#$d
    355e: 85 12        	sta	$12                     ; 0x2012 <main+0x1a31>
    3560: a5 a4        	lda	$a4                     ; 0x20a4 <main+0x1ac3>
    3562: 69 00        	adc	#$0
    3564: 85 13        	sta	$13                     ; 0x2013 <main+0x1a32>
    3566: a0 01        	ldy	#$1
    3568: b1 12        	lda	($12),y                 ; 0x2012 <main+0x1a31>
    356a: 30 16        	bmi	$3582 <_ZN12_GLOBAL__N_112print_stringEPKcP6Status+0x39>
    356c: a0 0d        	ldy	#$d
    356e: 85 12        	sta	$12                     ; 0x2012 <main+0x1a31>
    3570: b1 a3        	lda	($a3),y                 ; 0x20a3 <main+0x1ac2>
    3572: a6 12        	ldx	$12                     ; 0x2012 <main+0x1a31>
    3574: 86 a8        	stx	$a8                     ; 0x20a8 <main+0x1ac7>
    3576: d0 0f        	bne	$3587 <_ZN12_GLOBAL__N_112print_stringEPKcP6Status+0x3e>
    3578: aa           	tax
    3579: d0 0c        	bne	$3587 <_ZN12_GLOBAL__N_112print_stringEPKcP6Status+0x3e>
    357b: 64 a5        	stz	$a5                     ; 0x20a5 <main+0x1ac4>
    357d: a2 00        	ldx	#$0
    357f: 4c 50 36     	jmp	$3650 <_ZN12_GLOBAL__N_112print_stringEPKcP6Status+0x107>
    3582: a9 ff        	lda	#$ff
    3584: aa           	tax
    3585: 86 a8        	stx	$a8                     ; 0x20a8 <main+0x1ac7>
    3587: 85 a5        	sta	$a5                     ; 0x20a5 <main+0x1ac4>
    3589: 64 12        	stz	$12                     ; 0x2012 <main+0x1a31>
    358b: a4 a1        	ldy	$a1                     ; 0x20a1 <main+0x1ac0>
    358d: a6 a2        	ldx	$a2                     ; 0x20a2 <main+0x1ac1>
    358f: 86 16        	stx	$16                     ; 0x2016 <main+0x1a35>
    3591: 64 13        	stz	$13                     ; 0x2013 <main+0x1a32>
    3593: 98           	tya
    3594: 18           	clc
    3595: 65 12        	adc	$12                     ; 0x2012 <main+0x1a31>
    3597: 85 14        	sta	$14                     ; 0x2014 <main+0x1a33>
    3599: a5 a2        	lda	$a2                     ; 0x20a2 <main+0x1ac1>
    359b: 65 13        	adc	$13                     ; 0x2013 <main+0x1a32>
    359d: 85 15        	sta	$15                     ; 0x2015 <main+0x1a34>
    359f: b2 14        	lda	($14)                   ; 0x2014 <main+0x1a33>
    35a1: d0 03        	bne	$35a6 <_ZN12_GLOBAL__N_112print_stringEPKcP6Status+0x5d>
    35a3: 4c 4a 36     	jmp	$364a <_ZN12_GLOBAL__N_112print_stringEPKcP6Status+0x101>
    35a6: e6 12        	inc	$12                     ; 0x2012 <main+0x1a31>
    35a8: d0 02        	bne	$35ac <_ZN12_GLOBAL__N_112print_stringEPKcP6Status+0x63>
    35aa: e6 13        	inc	$13                     ; 0x2013 <main+0x1a32>
    35ac: a6 a8        	ldx	$a8                     ; 0x20a8 <main+0x1ac7>
    35ae: e4 13        	cpx	$13                     ; 0x2013 <main+0x1a32>
    35b0: d0 e1        	bne	$3593 <_ZN12_GLOBAL__N_112print_stringEPKcP6Status+0x4a>
    35b2: a6 a5        	ldx	$a5                     ; 0x20a5 <main+0x1ac4>
    35b4: e4 12        	cpx	$12                     ; 0x2012 <main+0x1a31>
    35b6: d0 db        	bne	$3593 <_ZN12_GLOBAL__N_112print_stringEPKcP6Status+0x4a>
    35b8: a0 01        	ldy	#$1
    35ba: b1 a3        	lda	($a3),y                 ; 0x20a3 <main+0x1ac2>
    35bc: 29 01        	and	#$1
    35be: f0 03        	beq	$35c3 <_ZN12_GLOBAL__N_112print_stringEPKcP6Status+0x7a>
    35c0: 4c 1b 36     	jmp	$361b <_ZN12_GLOBAL__N_112print_stringEPKcP6Status+0xd2>
    35c3: a5 a3        	lda	$a3                     ; 0x20a3 <main+0x1ac2>
    35c5: 18           	clc
    35c6: 69 0b        	adc	#$b
    35c8: 85 14        	sta	$14                     ; 0x2014 <main+0x1a33>
    35ca: a5 a4        	lda	$a4                     ; 0x20a4 <main+0x1ac3>
    35cc: 69 00        	adc	#$0
    35ce: 85 15        	sta	$15                     ; 0x2015 <main+0x1a34>
    35d0: a0 0b        	ldy	#$b
    35d2: b1 a3        	lda	($a3),y                 ; 0x20a3 <main+0x1ac2>
    35d4: 85 13        	sta	$13                     ; 0x2013 <main+0x1a32>
    35d6: a0 01        	ldy	#$1
    35d8: b1 14        	lda	($14),y                 ; 0x2014 <main+0x1a33>
    35da: 85 12        	sta	$12                     ; 0x2012 <main+0x1a31>
    35dc: a6 a8        	ldx	$a8                     ; 0x20a8 <main+0x1ac7>
    35de: e4 12        	cpx	$12                     ; 0x2012 <main+0x1a31>
    35e0: d0 08        	bne	$35ea <_ZN12_GLOBAL__N_112print_stringEPKcP6Status+0xa1>
    35e2: a6 a5        	ldx	$a5                     ; 0x20a5 <main+0x1ac4>
    35e4: e4 13        	cpx	$13                     ; 0x2013 <main+0x1a32>
    35e6: 90 06        	bcc	$35ee <_ZN12_GLOBAL__N_112print_stringEPKcP6Status+0xa5>
    35e8: 80 31        	bra	$361b <_ZN12_GLOBAL__N_112print_stringEPKcP6Status+0xd2>
    35ea: e4 12        	cpx	$12                     ; 0x2012 <main+0x1a31>
    35ec: b0 2d        	bcs	$361b <_ZN12_GLOBAL__N_112print_stringEPKcP6Status+0xd2>
    35ee: 38           	sec
    35ef: a5 a5        	lda	$a5                     ; 0x20a5 <main+0x1ac4>
    35f1: e5 13        	sbc	$13                     ; 0x2013 <main+0x1a32>
    35f3: a8           	tay
    35f4: a5 a8        	lda	$a8                     ; 0x20a8 <main+0x1ac7>
    35f6: e5 12        	sbc	$12                     ; 0x2012 <main+0x1a31>
    35f8: 85 a7        	sta	$a7                     ; 0x20a7 <main+0x1ac6>
    35fa: a6 a3        	ldx	$a3                     ; 0x20a3 <main+0x1ac2>
    35fc: 86 12        	stx	$12                     ; 0x2012 <main+0x1a31>
    35fe: a6 a4        	ldx	$a4                     ; 0x20a4 <main+0x1ac3>
    3600: 86 13        	stx	$13                     ; 0x2013 <main+0x1a32>
    3602: 84 a6        	sty	$a6                     ; 0x20a6 <main+0x1ac5>
    3604: a9 20        	lda	#$20
    3606: 20 6e 34     	jsr	$346e <_ZN12_GLOBAL__N_13putEcP6Status>
    3609: a6 a7        	ldx	$a7                     ; 0x20a7 <main+0x1ac6>
    360b: e6 a6        	inc	$a6                     ; 0x20a6 <main+0x1ac5>
    360d: d0 01        	bne	$3610 <_ZN12_GLOBAL__N_112print_stringEPKcP6Status+0xc7>
    360f: e8           	inx
    3610: 86 a7        	stx	$a7                     ; 0x20a7 <main+0x1ac6>
    3612: a4 a6        	ldy	$a6                     ; 0x20a6 <main+0x1ac5>
    3614: 8a           	txa
    3615: d0 e3        	bne	$35fa <_ZN12_GLOBAL__N_112print_stringEPKcP6Status+0xb1>
    3617: a5 a6        	lda	$a6                     ; 0x20a6 <main+0x1ac5>
    3619: d0 df        	bne	$35fa <_ZN12_GLOBAL__N_112print_stringEPKcP6Status+0xb1>
    361b: a4 a8        	ldy	$a8                     ; 0x20a8 <main+0x1ac7>
    361d: d0 04        	bne	$3623 <_ZN12_GLOBAL__N_112print_stringEPKcP6Status+0xda>
    361f: a5 a5        	lda	$a5                     ; 0x20a5 <main+0x1ac4>
    3621: f0 26        	beq	$3649 <_ZN12_GLOBAL__N_112print_stringEPKcP6Status+0x100>
    3623: a2 ff        	ldx	#$ff
    3625: c6 a5        	dec	$a5                     ; 0x20a5 <main+0x1ac4>
    3627: e4 a5        	cpx	$a5                     ; 0x20a5 <main+0x1ac4>
    3629: d0 01        	bne	$362c <_ZN12_GLOBAL__N_112print_stringEPKcP6Status+0xe3>
    362b: 88           	dey
    362c: 84 a6        	sty	$a6                     ; 0x20a6 <main+0x1ac5>
    362e: b2 a1        	lda	($a1)                   ; 0x20a1 <main+0x1ac0>
    3630: e6 a1        	inc	$a1                     ; 0x20a1 <main+0x1ac0>
    3632: d0 02        	bne	$3636 <_ZN12_GLOBAL__N_112print_stringEPKcP6Status+0xed>
    3634: e6 a2        	inc	$a2                     ; 0x20a2 <main+0x1ac1>
    3636: a6 a3        	ldx	$a3                     ; 0x20a3 <main+0x1ac2>
    3638: 86 12        	stx	$12                     ; 0x2012 <main+0x1a31>
    363a: a6 a4        	ldx	$a4                     ; 0x20a4 <main+0x1ac3>
    363c: 86 13        	stx	$13                     ; 0x2013 <main+0x1a32>
    363e: 20 6e 34     	jsr	$346e <_ZN12_GLOBAL__N_13putEcP6Status>
    3641: a4 a6        	ldy	$a6                     ; 0x20a6 <main+0x1ac5>
    3643: d0 de        	bne	$3623 <_ZN12_GLOBAL__N_112print_stringEPKcP6Status+0xda>
    3645: a5 a5        	lda	$a5                     ; 0x20a5 <main+0x1ac4>
    3647: d0 da        	bne	$3623 <_ZN12_GLOBAL__N_112print_stringEPKcP6Status+0xda>
    3649: 60           	rts
    364a: a6 12        	ldx	$12                     ; 0x2012 <main+0x1a31>
    364c: 86 a5        	stx	$a5                     ; 0x20a5 <main+0x1ac4>
    364e: a6 13        	ldx	$13                     ; 0x2013 <main+0x1a32>
    3650: 86 a8        	stx	$a8                     ; 0x20a8 <main+0x1ac7>
    3652: 4c b8 35     	jmp	$35b8 <_ZN12_GLOBAL__N_112print_stringEPKcP6Status+0x6f>

00003655 <printf>:
    3655: a6 12        	ldx	$12                     ; 0x2012 <main+0x1a31>
    3657: 86 56        	stx	$56                     ; 0x2056 <main+0x1a75>
    3659: a6 13        	ldx	$13                     ; 0x2013 <main+0x1a32>
    365b: 86 57        	stx	$57                     ; 0x2057 <main+0x1a76>
    365d: 18           	clc
    365e: a6 10        	ldx	$10                     ; 0x2010 <main+0x1a2f>
    3660: a4 11        	ldy	$11                     ; 0x2011 <main+0x1a30>
    3662: 86 97        	stx	$97                     ; 0x2097 <main+0x1ab6>
    3664: 84 98        	sty	$98                     ; 0x2098 <main+0x1ab7>
    3666: a6 97        	ldx	$97                     ; 0x2097 <main+0x1ab6>
    3668: a4 98        	ldy	$98                     ; 0x2098 <main+0x1ab7>
    366a: 86 82        	stx	$82                     ; 0x2082 <main+0x1aa1>
    366c: 84 83        	sty	$83                     ; 0x2083 <main+0x1aa2>
    366e: a2 ff        	ldx	#$ff
    3670: 86 87        	stx	$87                     ; 0x2087 <main+0x1aa6>
    3672: 86 88        	stx	$88                     ; 0x2088 <main+0x1aa7>
    3674: 64 89        	stz	$89                     ; 0x2089 <main+0x1aa8>
    3676: 64 8a        	stz	$8a                     ; 0x208a <main+0x1aa9>
    3678: e8           	inx
    3679: 86 58        	stx	$58                     ; 0x2058 <main+0x1a77>
    367b: a2 00        	ldx	#$0
    367d: 86 59        	stx	$59                     ; 0x2059 <main+0x1a78>
    367f: a6 58        	ldx	$58                     ; 0x2058 <main+0x1a77>
    3681: a4 59        	ldy	$59                     ; 0x2059 <main+0x1a78>
    3683: 86 8d        	stx	$8d                     ; 0x208d <main+0x1aac>
    3685: 84 8e        	sty	$8e                     ; 0x208e <main+0x1aad>
    3687: a2 02        	ldx	#$2
    3689: 86 93        	stx	$93                     ; 0x2093 <main+0x1ab2>
    368b: 64 94        	stz	$94                     ; 0x2094 <main+0x1ab3>
    368d: a6 82        	ldx	$82                     ; 0x2082 <main+0x1aa1>
    368f: a4 83        	ldy	$83                     ; 0x2083 <main+0x1aa2>
    3691: 86 95        	stx	$95                     ; 0x2095 <main+0x1ab4>
    3693: 84 96        	sty	$96                     ; 0x2096 <main+0x1ab5>
    3695: a2 79        	ldx	#$79
    3697: a0 00        	ldy	#$0
    3699: 86 12        	stx	$12                     ; 0x2012 <main+0x1a31>
    369b: 84 13        	sty	$13                     ; 0x2013 <main+0x1a32>
    369d: a0 01        	ldy	#$1
    369f: a9 60        	lda	#$60
    36a1: 18           	clc
    36a2: 69 02        	adc	#$2
    36a4: 85 9f        	sta	$9f                     ; 0x209f <main+0x1abe>
    36a6: a9 00        	lda	#$0
    36a8: 69 00        	adc	#$0
    36aa: 85 a0        	sta	$a0                     ; 0x20a0 <main+0x1abf>
    36ac: e6 12        	inc	$12                     ; 0x2012 <main+0x1a31>
    36ae: d0 02        	bne	$36b2 <printf+0x5d>
    36b0: e6 13        	inc	$13                     ; 0x2013 <main+0x1a32>
    36b2: a6 12        	ldx	$12                     ; 0x2012 <main+0x1a31>
    36b4: 86 9b        	stx	$9b                     ; 0x209b <main+0x1aba>
    36b6: a6 13        	ldx	$13                     ; 0x2013 <main+0x1a32>
    36b8: 86 9c        	stx	$9c                     ; 0x209c <main+0x1abb>
    36ba: a6 56        	ldx	$56                     ; 0x2056 <main+0x1a75>
    36bc: 86 5a        	stx	$5a                     ; 0x205a <main+0x1a79>
    36be: a6 57        	ldx	$57                     ; 0x2057 <main+0x1a76>
    36c0: 86 5b        	stx	$5b                     ; 0x205b <main+0x1a7a>
    36c2: b2 56        	lda	($56)                   ; 0x2056 <main+0x1a75>
    36c4: c9 25        	cmp	#$25
    36c6: f0 2b        	beq	$36f3 <printf+0x9e>
    36c8: aa           	tax
    36c9: d0 03        	bne	$36ce <printf+0x79>
    36cb: 4c 80 42     	jmp	$4280 <printf+0xc2b>
    36ce: 85 4d        	sta	$4d                     ; 0x204d <main+0x1a6c>
    36d0: a2 4d        	ldx	#$4d
    36d2: 86 12        	stx	$12                     ; 0x2012 <main+0x1a31>
    36d4: a2 00        	ldx	#$0
    36d6: 86 13        	stx	$13                     ; 0x2013 <main+0x1a32>
    36d8: 20 a2 22     	jsr	$22a2 <textPrint>
    36db: a0 01        	ldy	#$1
    36dd: e6 5a        	inc	$5a                     ; 0x205a <main+0x1a79>
    36df: d0 02        	bne	$36e3 <printf+0x8e>
    36e1: e6 5b        	inc	$5b                     ; 0x205b <main+0x1a7a>
    36e3: e6 89        	inc	$89                     ; 0x2089 <main+0x1aa8>
    36e5: d0 02        	bne	$36e9 <printf+0x94>
    36e7: e6 8a        	inc	$8a                     ; 0x208a <main+0x1aa9>
    36e9: a6 5a        	ldx	$5a                     ; 0x205a <main+0x1a79>
    36eb: 86 56        	stx	$56                     ; 0x2056 <main+0x1a75>
    36ed: a6 5b        	ldx	$5b                     ; 0x205b <main+0x1a7a>
    36ef: 86 57        	stx	$57                     ; 0x2057 <main+0x1a76>
    36f1: 80 c7        	bra	$36ba <printf+0x65>
    36f3: a6 56        	ldx	$56                     ; 0x2056 <main+0x1a75>
    36f5: 86 12        	stx	$12                     ; 0x2012 <main+0x1a31>
    36f7: a6 57        	ldx	$57                     ; 0x2057 <main+0x1a76>
    36f9: 86 13        	stx	$13                     ; 0x2013 <main+0x1a32>
    36fb: e6 12        	inc	$12                     ; 0x2012 <main+0x1a31>
    36fd: d0 02        	bne	$3701 <printf+0xac>
    36ff: e6 13        	inc	$13                     ; 0x2013 <main+0x1a32>
    3701: b1 5a        	lda	($5a),y                 ; 0x205a <main+0x1a79>
    3703: c9 25        	cmp	#$25
    3705: d0 16        	bne	$371d <printf+0xc8>
    3707: a4 89        	ldy	$89                     ; 0x2089 <main+0x1aa8>
    3709: a5 8a        	lda	$8a                     ; 0x208a <main+0x1aa9>
    370b: c5 88        	cmp	$88                     ; 0x2088 <main+0x1aa7>
    370d: f0 03        	beq	$3712 <printf+0xbd>
    370f: 4c 24 38     	jmp	$3824 <printf+0x1cf>
    3712: a6 87        	ldx	$87                     ; 0x2087 <main+0x1aa6>
    3714: 86 12        	stx	$12                     ; 0x2012 <main+0x1a31>
    3716: 84 13        	sty	$13                     ; 0x2013 <main+0x1a32>
    3718: c4 12        	cpy	$12                     ; 0x2012 <main+0x1a31>
    371a: 4c 28 38     	jmp	$3828 <printf+0x1d3>
    371d: 64 85        	stz	$85                     ; 0x2085 <main+0x1aa4>
    371f: 64 86        	stz	$86                     ; 0x2086 <main+0x1aa5>
    3721: 64 84        	stz	$84                     ; 0x2084 <main+0x1aa3>
    3723: 64 8f        	stz	$8f                     ; 0x208f <main+0x1aae>
    3725: 64 90        	stz	$90                     ; 0x2090 <main+0x1aaf>
    3727: a2 ff        	ldx	#$ff
    3729: 86 91        	stx	$91                     ; 0x2091 <main+0x1ab0>
    372b: 86 92        	stx	$92                     ; 0x2092 <main+0x1ab1>
    372d: 64 55        	stz	$55                     ; 0x2055 <main+0x1a74>
    372f: 80 33        	bra	$3764 <printf+0x10f>
    3731: a2 02        	ldx	#$2
    3733: 80 15        	bra	$374a <printf+0xf5>
    3735: e0 20        	cpx	#$20
    3737: f0 15        	beq	$374e <printf+0xf9>
    3739: 86 15        	stx	$15                     ; 0x2015 <main+0x1a34>
    373b: e0 23        	cpx	#$23
    373d: f0 03        	beq	$3742 <printf+0xed>
    373f: 4c c1 37     	jmp	$37c1 <printf+0x16c>
    3742: a5 55        	lda	$55                     ; 0x2055 <main+0x1a74>
    3744: a2 04        	ldx	#$4
    3746: 80 02        	bra	$374a <printf+0xf5>
    3748: a2 10        	ldx	#$10
    374a: 86 14        	stx	$14                     ; 0x2014 <main+0x1a33>
    374c: 80 06        	bra	$3754 <printf+0xff>
    374e: a2 08        	ldx	#$8
    3750: 86 14        	stx	$14                     ; 0x2014 <main+0x1a33>
    3752: a5 55        	lda	$55                     ; 0x2055 <main+0x1a74>
    3754: 05 14        	ora	$14                     ; 0x2014 <main+0x1a33>
    3756: 85 55        	sta	$55                     ; 0x2055 <main+0x1a74>
    3758: 85 85        	sta	$85                     ; 0x2085 <main+0x1aa4>
    375a: a2 00        	ldx	#$0
    375c: 86 86        	stx	$86                     ; 0x2086 <main+0x1aa5>
    375e: e6 12        	inc	$12                     ; 0x2012 <main+0x1a31>
    3760: d0 02        	bne	$3764 <printf+0x10f>
    3762: e6 13        	inc	$13                     ; 0x2013 <main+0x1a32>
    3764: b2 12        	lda	($12)                   ; 0x2012 <main+0x1a31>
    3766: aa           	tax
    3767: 18           	clc
    3768: 69 d6        	adc	#$d6
    376a: c9 07        	cmp	#$7
    376c: b0 c7        	bcs	$3735 <printf+0xe0>
    376e: 86 15        	stx	$15                     ; 0x2015 <main+0x1a34>
    3770: 0a           	asl
    3771: aa           	tax
    3772: a0 01        	ldy	#$1
    3774: 84 14        	sty	$14                     ; 0x2014 <main+0x1a33>
    3776: a5 55        	lda	$55                     ; 0x2055 <main+0x1a74>
    3778: 7c 75 45     	jmp	($4575,x)               ; 0x4575 <__set_v+0x1cd>
    377b: a5 95        	lda	$95                     ; 0x2095 <main+0x1ab4>
    377d: a6 96        	ldx	$96                     ; 0x2096 <main+0x1ab5>
    377f: 85 16        	sta	$16                     ; 0x2016 <main+0x1a35>
    3781: 86 17        	stx	$17                     ; 0x2017 <main+0x1a36>
    3783: 18           	clc
    3784: 69 02        	adc	#$2
    3786: a8           	tay
    3787: 8a           	txa
    3788: 69 00        	adc	#$0
    378a: 84 95        	sty	$95                     ; 0x2095 <main+0x1ab4>
    378c: 85 96        	sta	$96                     ; 0x2096 <main+0x1ab5>
    378e: b2 16        	lda	($16)                   ; 0x2016 <main+0x1a35>
    3790: 85 15        	sta	$15                     ; 0x2015 <main+0x1a34>
    3792: a0 01        	ldy	#$1
    3794: b1 16        	lda	($16),y                 ; 0x2016 <main+0x1a35>
    3796: 85 14        	sta	$14                     ; 0x2014 <main+0x1a33>
    3798: 10 15        	bpl	$37af <printf+0x15a>
    379a: a5 55        	lda	$55                     ; 0x2055 <main+0x1a74>
    379c: 09 01        	ora	#$1
    379e: 85 55        	sta	$55                     ; 0x2055 <main+0x1a74>
    37a0: 85 85        	sta	$85                     ; 0x2085 <main+0x1aa4>
    37a2: a2 00        	ldx	#$0
    37a4: 86 86        	stx	$86                     ; 0x2086 <main+0x1aa5>
    37a6: 8a           	txa
    37a7: 38           	sec
    37a8: e5 15        	sbc	$15                     ; 0x2015 <main+0x1a34>
    37aa: 85 15        	sta	$15                     ; 0x2015 <main+0x1a34>
    37ac: 8a           	txa
    37ad: e5 14        	sbc	$14                     ; 0x2014 <main+0x1a33>
    37af: a6 15        	ldx	$15                     ; 0x2015 <main+0x1a34>
    37b1: 86 8f        	stx	$8f                     ; 0x208f <main+0x1aae>
    37b3: 85 90        	sta	$90                     ; 0x2090 <main+0x1aaf>
    37b5: e6 12        	inc	$12                     ; 0x2012 <main+0x1a31>
    37b7: f0 03        	beq	$37bc <printf+0x167>
    37b9: 4c 80 38     	jmp	$3880 <printf+0x22b>
    37bc: e6 13        	inc	$13                     ; 0x2013 <main+0x1a32>
    37be: 4c 80 38     	jmp	$3880 <printf+0x22b>
    37c1: a5 15        	lda	$15                     ; 0x2015 <main+0x1a34>
    37c3: 18           	clc
    37c4: 69 d0        	adc	#$d0
    37c6: c9 0a        	cmp	#$a
    37c8: 90 03        	bcc	$37cd <printf+0x178>
    37ca: 4c 72 38     	jmp	$3872 <printf+0x21d>
    37cd: a6 15        	ldx	$15                     ; 0x2015 <main+0x1a34>
    37cf: 86 14        	stx	$14                     ; 0x2014 <main+0x1a33>
    37d1: 64 16        	stz	$16                     ; 0x2016 <main+0x1a35>
    37d3: 64 15        	stz	$15                     ; 0x2015 <main+0x1a34>
    37d5: 64 17        	stz	$17                     ; 0x2017 <main+0x1a36>
    37d7: a0 01        	ldy	#$1
    37d9: 06 16        	asl	$16                     ; 0x2016 <main+0x1a35>
    37db: 26 17        	rol	$17                     ; 0x2017 <main+0x1a36>
    37dd: a5 16        	lda	$16                     ; 0x2016 <main+0x1a35>
    37df: 0a           	asl
    37e0: aa           	tax
    37e1: a5 17        	lda	$17                     ; 0x2017 <main+0x1a36>
    37e3: 2a           	rol
    37e4: 86 18        	stx	$18                     ; 0x2018 <main+0x1a37>
    37e6: 06 18        	asl	$18                     ; 0x2018 <main+0x1a37>
    37e8: 2a           	rol
    37e9: aa           	tax
    37ea: a5 18        	lda	$18                     ; 0x2018 <main+0x1a37>
    37ec: 18           	clc
    37ed: 65 16        	adc	$16                     ; 0x2016 <main+0x1a35>
    37ef: 85 16        	sta	$16                     ; 0x2016 <main+0x1a35>
    37f1: 8a           	txa
    37f2: 65 17        	adc	$17                     ; 0x2017 <main+0x1a36>
    37f4: 85 17        	sta	$17                     ; 0x2017 <main+0x1a36>
    37f6: a5 16        	lda	$16                     ; 0x2016 <main+0x1a35>
    37f8: 18           	clc
    37f9: 65 14        	adc	$14                     ; 0x2014 <main+0x1a33>
    37fb: 85 14        	sta	$14                     ; 0x2014 <main+0x1a33>
    37fd: a5 17        	lda	$17                     ; 0x2017 <main+0x1a36>
    37ff: 65 15        	adc	$15                     ; 0x2015 <main+0x1a34>
    3801: aa           	tax
    3802: 18           	clc
    3803: a5 14        	lda	$14                     ; 0x2014 <main+0x1a33>
    3805: 69 d0        	adc	#$d0
    3807: 85 16        	sta	$16                     ; 0x2016 <main+0x1a35>
    3809: 8a           	txa
    380a: 69 ff        	adc	#$ff
    380c: 85 17        	sta	$17                     ; 0x2017 <main+0x1a36>
    380e: b1 12        	lda	($12),y                 ; 0x2012 <main+0x1a31>
    3810: 85 14        	sta	$14                     ; 0x2014 <main+0x1a33>
    3812: 18           	clc
    3813: 69 d0        	adc	#$d0
    3815: e6 12        	inc	$12                     ; 0x2012 <main+0x1a31>
    3817: d0 02        	bne	$381b <printf+0x1c6>
    3819: e6 13        	inc	$13                     ; 0x2013 <main+0x1a32>
    381b: c9 0a        	cmp	#$a
    381d: 64 15        	stz	$15                     ; 0x2015 <main+0x1a34>
    381f: 90 b8        	bcc	$37d9 <printf+0x184>
    3821: 4c 78 38     	jmp	$3878 <printf+0x223>
    3824: 84 13        	sty	$13                     ; 0x2013 <main+0x1a32>
    3826: c5 88        	cmp	$88                     ; 0x2088 <main+0x1aa7>
    3828: a0 01        	ldy	#$1
    382a: b0 30        	bcs	$385c <printf+0x207>
    382c: a6 94        	ldx	$94                     ; 0x2094 <main+0x1ab3>
    382e: e4 59        	cpx	$59                     ; 0x2059 <main+0x1a78>
    3830: d0 19        	bne	$384b <printf+0x1f6>
    3832: a6 93        	ldx	$93                     ; 0x2093 <main+0x1ab2>
    3834: e4 58        	cpx	$58                     ; 0x2058 <main+0x1a77>
    3836: d0 13        	bne	$384b <printf+0x1f6>
    3838: 18           	clc
    3839: aa           	tax
    383a: a5 13        	lda	$13                     ; 0x2013 <main+0x1a32>
    383c: 65 8d        	adc	$8d                     ; 0x208d <main+0x1aac>
    383e: 85 12        	sta	$12                     ; 0x2012 <main+0x1a31>
    3840: 8a           	txa
    3841: 65 8e        	adc	$8e                     ; 0x208e <main+0x1aad>
    3843: 85 13        	sta	$13                     ; 0x2013 <main+0x1a32>
    3845: a9 25        	lda	#$25
    3847: 92 12        	sta	($12)                   ; 0x2012 <main+0x1a31>
    3849: 80 11        	bra	$385c <printf+0x207>
    384b: a2 25        	ldx	#$25
    384d: 86 4d        	stx	$4d                     ; 0x204d <main+0x1a6c>
    384f: a2 4d        	ldx	#$4d
    3851: 86 12        	stx	$12                     ; 0x2012 <main+0x1a31>
    3853: a2 00        	ldx	#$0
    3855: 86 13        	stx	$13                     ; 0x2013 <main+0x1a32>
    3857: 20 a2 22     	jsr	$22a2 <textPrint>
    385a: a0 01        	ldy	#$1
    385c: e6 89        	inc	$89                     ; 0x2089 <main+0x1aa8>
    385e: d0 02        	bne	$3862 <printf+0x20d>
    3860: e6 8a        	inc	$8a                     ; 0x208a <main+0x1aa9>
    3862: a5 5a        	lda	$5a                     ; 0x205a <main+0x1a79>
    3864: 18           	clc
    3865: 69 02        	adc	#$2
    3867: 85 56        	sta	$56                     ; 0x2056 <main+0x1a75>
    3869: a5 5b        	lda	$5b                     ; 0x205b <main+0x1a7a>
    386b: 69 00        	adc	#$0
    386d: 85 57        	sta	$57                     ; 0x2057 <main+0x1a76>
    386f: 4c ba 36     	jmp	$36ba <printf+0x65>
    3872: 64 16        	stz	$16                     ; 0x2016 <main+0x1a35>
    3874: 64 17        	stz	$17                     ; 0x2017 <main+0x1a36>
    3876: a0 01        	ldy	#$1
    3878: a6 16        	ldx	$16                     ; 0x2016 <main+0x1a35>
    387a: 86 8f        	stx	$8f                     ; 0x208f <main+0x1aae>
    387c: a5 17        	lda	$17                     ; 0x2017 <main+0x1a36>
    387e: 85 90        	sta	$90                     ; 0x2090 <main+0x1aaf>
    3880: 86 5e        	stx	$5e                     ; 0x205e <main+0x1a7d>
    3882: 85 5c        	sta	$5c                     ; 0x205c <main+0x1a7b>
    3884: b2 12        	lda	($12)                   ; 0x2012 <main+0x1a31>
    3886: a2 ff        	ldx	#$ff
    3888: c9 2e        	cmp	#$2e
    388a: d0 39        	bne	$38c5 <printf+0x270>
    388c: b1 12        	lda	($12),y                 ; 0x2012 <main+0x1a31>
    388e: c9 2a        	cmp	#$2a
    3890: d0 38        	bne	$38ca <printf+0x275>
    3892: a5 95        	lda	$95                     ; 0x2095 <main+0x1ab4>
    3894: a6 96        	ldx	$96                     ; 0x2096 <main+0x1ab5>
    3896: 85 14        	sta	$14                     ; 0x2014 <main+0x1a33>
    3898: 86 15        	stx	$15                     ; 0x2015 <main+0x1a34>
    389a: 18           	clc
    389b: 69 02        	adc	#$2
    389d: 85 16        	sta	$16                     ; 0x2016 <main+0x1a35>
    389f: 8a           	txa
    38a0: 69 00        	adc	#$0
    38a2: a6 16        	ldx	$16                     ; 0x2016 <main+0x1a35>
    38a4: 86 95        	stx	$95                     ; 0x2095 <main+0x1ab4>
    38a6: 85 96        	sta	$96                     ; 0x2096 <main+0x1ab5>
    38a8: a5 12        	lda	$12                     ; 0x2012 <main+0x1a31>
    38aa: 18           	clc
    38ab: 69 02        	adc	#$2
    38ad: 85 12        	sta	$12                     ; 0x2012 <main+0x1a31>
    38af: a5 13        	lda	$13                     ; 0x2013 <main+0x1a32>
    38b1: 69 00        	adc	#$0
    38b3: 85 13        	sta	$13                     ; 0x2013 <main+0x1a32>
    38b5: b2 14        	lda	($14)                   ; 0x2014 <main+0x1a33>
    38b7: aa           	tax
    38b8: b1 14        	lda	($14),y                 ; 0x2014 <main+0x1a33>
    38ba: 86 18        	stx	$18                     ; 0x2018 <main+0x1a37>
    38bc: 86 91        	stx	$91                     ; 0x2091 <main+0x1ab0>
    38be: 85 19        	sta	$19                     ; 0x2019 <main+0x1a38>
    38c0: 85 92        	sta	$92                     ; 0x2092 <main+0x1ab1>
    38c2: 4c 75 39     	jmp	$3975 <printf+0x320>
    38c5: 86 18        	stx	$18                     ; 0x2018 <main+0x1a37>
    38c7: 4c 85 39     	jmp	$3985 <printf+0x330>
    38ca: 85 17        	sta	$17                     ; 0x2017 <main+0x1a36>
    38cc: 18           	clc
    38cd: 69 d0        	adc	#$d0
    38cf: c9 0a        	cmp	#$a
    38d1: 90 03        	bcc	$38d6 <printf+0x281>
    38d3: 4c 67 39     	jmp	$3967 <printf+0x312>
    38d6: 64 16        	stz	$16                     ; 0x2016 <main+0x1a35>
    38d8: a2 01        	ldx	#$1
    38da: 64 18        	stz	$18                     ; 0x2018 <main+0x1a37>
    38dc: 64 19        	stz	$19                     ; 0x2019 <main+0x1a38>
    38de: a0 01        	ldy	#$1
    38e0: 64 1a        	stz	$1a                     ; 0x201a <main+0x1a39>
    38e2: 5a           	phy
    38e3: a4 1a        	ldy	$1a                     ; 0x201a <main+0x1a39>
    38e5: 84 14        	sty	$14                     ; 0x2014 <main+0x1a33>
    38e7: 86 15        	stx	$15                     ; 0x2015 <main+0x1a34>
    38e9: 06 18        	asl	$18                     ; 0x2018 <main+0x1a37>
    38eb: 26 19        	rol	$19                     ; 0x2019 <main+0x1a38>
    38ed: a5 18        	lda	$18                     ; 0x2018 <main+0x1a37>
    38ef: 0a           	asl
    38f0: 85 1d        	sta	$1d                     ; 0x201d <main+0x1a3c>
    38f2: a5 19        	lda	$19                     ; 0x2019 <main+0x1a38>
    38f4: 2a           	rol
    38f5: 06 1d        	asl	$1d                     ; 0x201d <main+0x1a3c>
    38f7: 2a           	rol
    38f8: 85 1e        	sta	$1e                     ; 0x201e <main+0x1a3d>
    38fa: a5 1d        	lda	$1d                     ; 0x201d <main+0x1a3c>
    38fc: 18           	clc
    38fd: 65 18        	adc	$18                     ; 0x2018 <main+0x1a37>
    38ff: 85 18        	sta	$18                     ; 0x2018 <main+0x1a37>
    3901: a5 1e        	lda	$1e                     ; 0x201e <main+0x1a3d>
    3903: 65 19        	adc	$19                     ; 0x2019 <main+0x1a38>
    3905: 85 19        	sta	$19                     ; 0x2019 <main+0x1a38>
    3907: a5 18        	lda	$18                     ; 0x2018 <main+0x1a37>
    3909: 18           	clc
    390a: 65 17        	adc	$17                     ; 0x2017 <main+0x1a36>
    390c: 85 17        	sta	$17                     ; 0x2017 <main+0x1a36>
    390e: a5 19        	lda	$19                     ; 0x2019 <main+0x1a38>
    3910: 65 16        	adc	$16                     ; 0x2016 <main+0x1a35>
    3912: 85 16        	sta	$16                     ; 0x2016 <main+0x1a35>
    3914: 18           	clc
    3915: a5 17        	lda	$17                     ; 0x2017 <main+0x1a36>
    3917: 69 d0        	adc	#$d0
    3919: 85 18        	sta	$18                     ; 0x2018 <main+0x1a37>
    391b: a5 16        	lda	$16                     ; 0x2016 <main+0x1a35>
    391d: 69 ff        	adc	#$ff
    391f: 85 19        	sta	$19                     ; 0x2019 <main+0x1a38>
    3921: e8           	inx
    3922: d0 02        	bne	$3926 <printf+0x2d1>
    3924: e6 1a        	inc	$1a                     ; 0x201a <main+0x1a39>
    3926: a5 12        	lda	$12                     ; 0x2012 <main+0x1a31>
    3928: 18           	clc
    3929: 65 15        	adc	$15                     ; 0x2015 <main+0x1a34>
    392b: 85 1d        	sta	$1d                     ; 0x201d <main+0x1a3c>
    392d: a5 13        	lda	$13                     ; 0x2013 <main+0x1a32>
    392f: 65 14        	adc	$14                     ; 0x2014 <main+0x1a33>
    3931: a4 1d        	ldy	$1d                     ; 0x201d <main+0x1a3c>
    3933: 84 16        	sty	$16                     ; 0x2016 <main+0x1a35>
    3935: 7a           	ply
    3936: 85 17        	sta	$17                     ; 0x2017 <main+0x1a36>
    3938: b1 16        	lda	($16),y                 ; 0x2016 <main+0x1a35>
    393a: 85 17        	sta	$17                     ; 0x2017 <main+0x1a36>
    393c: 18           	clc
    393d: 69 d0        	adc	#$d0
    393f: c9 0a        	cmp	#$a
    3941: 64 16        	stz	$16                     ; 0x2016 <main+0x1a35>
    3943: b0 03        	bcs	$3948 <printf+0x2f3>
    3945: 4c e2 38     	jmp	$38e2 <printf+0x28d>
    3948: a5 12        	lda	$12                     ; 0x2012 <main+0x1a31>
    394a: 18           	clc
    394b: 65 15        	adc	$15                     ; 0x2015 <main+0x1a34>
    394d: 85 12        	sta	$12                     ; 0x2012 <main+0x1a31>
    394f: a5 13        	lda	$13                     ; 0x2013 <main+0x1a32>
    3951: 65 14        	adc	$14                     ; 0x2014 <main+0x1a33>
    3953: 85 13        	sta	$13                     ; 0x2013 <main+0x1a32>
    3955: e6 12        	inc	$12                     ; 0x2012 <main+0x1a31>
    3957: d0 02        	bne	$395b <printf+0x306>
    3959: e6 13        	inc	$13                     ; 0x2013 <main+0x1a32>
    395b: a6 18        	ldx	$18                     ; 0x2018 <main+0x1a37>
    395d: 86 91        	stx	$91                     ; 0x2091 <main+0x1ab0>
    395f: a6 19        	ldx	$19                     ; 0x2019 <main+0x1a38>
    3961: 86 92        	stx	$92                     ; 0x2092 <main+0x1ab1>
    3963: a0 01        	ldy	#$1
    3965: 80 0e        	bra	$3975 <printf+0x320>
    3967: e6 12        	inc	$12                     ; 0x2012 <main+0x1a31>
    3969: d0 02        	bne	$396d <printf+0x318>
    396b: e6 13        	inc	$13                     ; 0x2013 <main+0x1a32>
    396d: 64 18        	stz	$18                     ; 0x2018 <main+0x1a37>
    396f: 64 91        	stz	$91                     ; 0x2091 <main+0x1ab0>
    3971: 64 92        	stz	$92                     ; 0x2092 <main+0x1ab1>
    3973: 64 19        	stz	$19                     ; 0x2019 <main+0x1a38>
    3975: a5 55        	lda	$55                     ; 0x2055 <main+0x1a74>
    3977: 29 ef        	and	#$ef
    3979: 85 55        	sta	$55                     ; 0x2055 <main+0x1a74>
    397b: 85 85        	sta	$85                     ; 0x2085 <main+0x1aa4>
    397d: a2 00        	ldx	#$0
    397f: 86 86        	stx	$86                     ; 0x2086 <main+0x1aa5>
    3981: b2 12        	lda	($12)                   ; 0x2012 <main+0x1a31>
    3983: a6 19        	ldx	$19                     ; 0x2019 <main+0x1a38>
    3985: 86 15        	stx	$15                     ; 0x2015 <main+0x1a34>
    3987: a6 12        	ldx	$12                     ; 0x2012 <main+0x1a31>
    3989: 86 56        	stx	$56                     ; 0x2056 <main+0x1a75>
    398b: a6 13        	ldx	$13                     ; 0x2013 <main+0x1a32>
    398d: 86 57        	stx	$57                     ; 0x2057 <main+0x1a76>
    398f: e6 56        	inc	$56                     ; 0x2056 <main+0x1a75>
    3991: d0 02        	bne	$3995 <printf+0x340>
    3993: e6 57        	inc	$57                     ; 0x2057 <main+0x1a76>
    3995: 85 14        	sta	$14                     ; 0x2014 <main+0x1a33>
    3997: 38           	sec
    3998: e9 6c        	sbc	#$6c
    399a: 50 02        	bvc	$399e <printf+0x349>
    399c: 49 80        	eor	#$80
    399e: aa           	tax
    399f: 10 1d        	bpl	$39be <printf+0x369>
    39a1: a5 14        	lda	$14                     ; 0x2014 <main+0x1a33>
    39a3: c9 4c        	cmp	#$4c
    39a5: f0 27        	beq	$39ce <printf+0x379>
    39a7: c9 68        	cmp	#$68
    39a9: d0 03        	bne	$39ae <printf+0x359>
    39ab: 4c 35 3a     	jmp	$3a35 <printf+0x3e0>
    39ae: a2 08        	ldx	#$8
    39b0: c9 6a        	cmp	#$6a
    39b2: d0 2e        	bne	$39e2 <printf+0x38d>
    39b4: a5 56        	lda	$56                     ; 0x2056 <main+0x1a75>
    39b6: 85 12        	sta	$12                     ; 0x2012 <main+0x1a31>
    39b8: a5 57        	lda	$57                     ; 0x2057 <main+0x1a76>
    39ba: 85 13        	sta	$13                     ; 0x2013 <main+0x1a32>
    39bc: 80 43        	bra	$3a01 <printf+0x3ac>
    39be: a6 14        	ldx	$14                     ; 0x2014 <main+0x1a33>
    39c0: e0 6c        	cpx	#$6c
    39c2: f0 23        	beq	$39e7 <printf+0x392>
    39c4: e0 74        	cpx	#$74
    39c6: f0 12        	beq	$39da <printf+0x385>
    39c8: e0 7a        	cpx	#$7a
    39ca: f0 0e        	beq	$39da <printf+0x385>
    39cc: 80 14        	bra	$39e2 <printf+0x38d>
    39ce: a5 55        	lda	$55                     ; 0x2055 <main+0x1a74>
    39d0: 09 40        	ora	#$40
    39d2: 85 55        	sta	$55                     ; 0x2055 <main+0x1a74>
    39d4: 85 85        	sta	$85                     ; 0x2085 <main+0x1aa4>
    39d6: a2 00        	ldx	#$0
    39d8: 86 86        	stx	$86                     ; 0x2086 <main+0x1aa5>
    39da: a6 56        	ldx	$56                     ; 0x2056 <main+0x1a75>
    39dc: 86 12        	stx	$12                     ; 0x2012 <main+0x1a31>
    39de: a6 57        	ldx	$57                     ; 0x2057 <main+0x1a76>
    39e0: 86 13        	stx	$13                     ; 0x2013 <main+0x1a32>
    39e2: a2 02        	ldx	#$2
    39e4: 8a           	txa
    39e5: 80 1c        	bra	$3a03 <printf+0x3ae>
    39e7: b1 12        	lda	($12),y                 ; 0x2012 <main+0x1a31>
    39e9: a2 04        	ldx	#$4
    39eb: c9 6c        	cmp	#$6c
    39ed: f0 03        	beq	$39f2 <printf+0x39d>
    39ef: 4c 44 3d     	jmp	$3d44 <printf+0x6ef>
    39f2: a5 12        	lda	$12                     ; 0x2012 <main+0x1a31>
    39f4: 18           	clc
    39f5: 69 02        	adc	#$2
    39f7: 85 12        	sta	$12                     ; 0x2012 <main+0x1a31>
    39f9: a5 13        	lda	$13                     ; 0x2013 <main+0x1a32>
    39fb: 69 00        	adc	#$0
    39fd: 85 13        	sta	$13                     ; 0x2013 <main+0x1a32>
    39ff: a2 08        	ldx	#$8
    3a01: a9 08        	lda	#$8
    3a03: 85 9a        	sta	$9a                     ; 0x209a <main+0x1ab9>
    3a05: b2 12        	lda	($12)                   ; 0x2012 <main+0x1a31>
    3a07: 5a           	phy
    3a08: a4 12        	ldy	$12                     ; 0x2012 <main+0x1a31>
    3a0a: 84 56        	sty	$56                     ; 0x2056 <main+0x1a75>
    3a0c: a4 13        	ldy	$13                     ; 0x2013 <main+0x1a32>
    3a0e: 84 57        	sty	$57                     ; 0x2057 <main+0x1a76>
    3a10: 7a           	ply
    3a11: 86 58        	stx	$58                     ; 0x2058 <main+0x1a77>
    3a13: aa           	tax
    3a14: 18           	clc
    3a15: 69 9d        	adc	#$9d
    3a17: c9 16        	cmp	#$16
    3a19: b0 39        	bcs	$3a54 <printf+0x3ff>
    3a1b: 0a           	asl
    3a1c: aa           	tax
    3a1d: 7c 83 45     	jmp	($4583,x)               ; 0x4583 <__set_v+0x1db>
    3a20: a6 15        	ldx	$15                     ; 0x2015 <main+0x1a34>
    3a22: 86 9d        	stx	$9d                     ; 0x209d <main+0x1abc>
    3a24: a6 18        	ldx	$18                     ; 0x2018 <main+0x1a37>
    3a26: 86 9e        	stx	$9e                     ; 0x209e <main+0x1abd>
    3a28: a0 0a        	ldy	#$a
    3a2a: a2 0a        	ldx	#$a
    3a2c: 86 99        	stx	$99                     ; 0x2099 <main+0x1ab8>
    3a2e: 84 84        	sty	$84                     ; 0x2084 <main+0x1aa3>
    3a30: 64 5f        	stz	$5f                     ; 0x205f <main+0x1a7e>
    3a32: 4c 54 3b     	jmp	$3b54 <printf+0x4ff>
    3a35: b1 12        	lda	($12),y                 ; 0x2012 <main+0x1a31>
    3a37: a2 02        	ldx	#$2
    3a39: c9 68        	cmp	#$68
    3a3b: f0 03        	beq	$3a40 <printf+0x3eb>
    3a3d: 4c 4a 3d     	jmp	$3d4a <printf+0x6f5>
    3a40: a5 12        	lda	$12                     ; 0x2012 <main+0x1a31>
    3a42: 18           	clc
    3a43: 69 02        	adc	#$2
    3a45: 85 12        	sta	$12                     ; 0x2012 <main+0x1a31>
    3a47: a5 13        	lda	$13                     ; 0x2013 <main+0x1a32>
    3a49: 69 00        	adc	#$0
    3a4b: 85 13        	sta	$13                     ; 0x2013 <main+0x1a32>
    3a4d: a2 01        	ldx	#$1
    3a4f: 86 9a        	stx	$9a                     ; 0x209a <main+0x1ab9>
    3a51: e8           	inx
    3a52: 80 b1        	bra	$3a05 <printf+0x3b0>
    3a54: e0 58        	cpx	#$58
    3a56: f0 03        	beq	$3a5b <printf+0x406>
    3a58: 4c 3c 42     	jmp	$423c <printf+0xbe7>
    3a5b: a6 15        	ldx	$15                     ; 0x2015 <main+0x1a34>
    3a5d: 86 9d        	stx	$9d                     ; 0x209d <main+0x1abc>
    3a5f: a6 18        	ldx	$18                     ; 0x2018 <main+0x1a37>
    3a61: 86 9e        	stx	$9e                     ; 0x209e <main+0x1abd>
    3a63: a2 10        	ldx	#$10
    3a65: 86 84        	stx	$84                     ; 0x2084 <main+0x1aa3>
    3a67: a9 00        	lda	#$0
    3a69: 09 01        	ora	#$1
    3a6b: a6 55        	ldx	$55                     ; 0x2055 <main+0x1a74>
    3a6d: 80 29        	bra	$3a98 <printf+0x443>
    3a6f: a6 15        	ldx	$15                     ; 0x2015 <main+0x1a34>
    3a71: 86 9d        	stx	$9d                     ; 0x209d <main+0x1abc>
    3a73: a6 18        	ldx	$18                     ; 0x2018 <main+0x1a37>
    3a75: 86 9e        	stx	$9e                     ; 0x209e <main+0x1abd>
    3a77: a2 10        	ldx	#$10
    3a79: 86 84        	stx	$84                     ; 0x2084 <main+0x1aa3>
    3a7b: a5 55        	lda	$55                     ; 0x2055 <main+0x1a74>
    3a7d: 09 84        	ora	#$84
    3a7f: 80 10        	bra	$3a91 <printf+0x43c>
    3a81: a6 15        	ldx	$15                     ; 0x2015 <main+0x1a34>
    3a83: 86 9d        	stx	$9d                     ; 0x209d <main+0x1abc>
    3a85: a6 18        	ldx	$18                     ; 0x2018 <main+0x1a37>
    3a87: 86 9e        	stx	$9e                     ; 0x209e <main+0x1abd>
    3a89: a2 10        	ldx	#$10
    3a8b: 86 84        	stx	$84                     ; 0x2084 <main+0x1aa3>
    3a8d: a5 55        	lda	$55                     ; 0x2055 <main+0x1a74>
    3a8f: 09 80        	ora	#$80
    3a91: aa           	tax
    3a92: a9 00        	lda	#$0
    3a94: 09 01        	ora	#$1
    3a96: 86 55        	stx	$55                     ; 0x2055 <main+0x1a74>
    3a98: 86 85        	stx	$85                     ; 0x2085 <main+0x1aa4>
    3a9a: 85 5f        	sta	$5f                     ; 0x205f <main+0x1a7e>
    3a9c: 85 86        	sta	$86                     ; 0x2086 <main+0x1aa5>
    3a9e: a2 10        	ldx	#$10
    3aa0: 86 99        	stx	$99                     ; 0x2099 <main+0x1ab8>
    3aa2: 4c 54 3b     	jmp	$3b54 <printf+0x4ff>
    3aa5: a5 95        	lda	$95                     ; 0x2095 <main+0x1ab4>
    3aa7: a6 96        	ldx	$96                     ; 0x2096 <main+0x1ab5>
    3aa9: 85 12        	sta	$12                     ; 0x2012 <main+0x1a31>
    3aab: 86 13        	stx	$13                     ; 0x2013 <main+0x1a32>
    3aad: 18           	clc
    3aae: 69 02        	adc	#$2
    3ab0: 85 14        	sta	$14                     ; 0x2014 <main+0x1a33>
    3ab2: 8a           	txa
    3ab3: 69 00        	adc	#$0
    3ab5: a6 14        	ldx	$14                     ; 0x2014 <main+0x1a33>
    3ab7: 86 95        	stx	$95                     ; 0x2095 <main+0x1ab4>
    3ab9: 85 96        	sta	$96                     ; 0x2096 <main+0x1ab5>
    3abb: b2 12        	lda	($12)                   ; 0x2012 <main+0x1a31>
    3abd: aa           	tax
    3abe: b1 12        	lda	($12),y                 ; 0x2012 <main+0x1a31>
    3ac0: 86 12        	stx	$12                     ; 0x2012 <main+0x1a31>
    3ac2: 85 13        	sta	$13                     ; 0x2013 <main+0x1a32>
    3ac4: a5 89        	lda	$89                     ; 0x2089 <main+0x1aa8>
    3ac6: a6 8a        	ldx	$8a                     ; 0x208a <main+0x1aa9>
    3ac8: 92 12        	sta	($12)                   ; 0x2012 <main+0x1a31>
    3aca: 8a           	txa
    3acb: 91 12        	sta	($12),y                 ; 0x2012 <main+0x1a31>
    3acd: 4c 2d 3b     	jmp	$3b2d <printf+0x4d8>
    3ad0: a5 95        	lda	$95                     ; 0x2095 <main+0x1ab4>
    3ad2: a6 96        	ldx	$96                     ; 0x2096 <main+0x1ab5>
    3ad4: 85 12        	sta	$12                     ; 0x2012 <main+0x1a31>
    3ad6: 86 13        	stx	$13                     ; 0x2013 <main+0x1a32>
    3ad8: 18           	clc
    3ad9: 69 02        	adc	#$2
    3adb: 85 14        	sta	$14                     ; 0x2014 <main+0x1a33>
    3add: 8a           	txa
    3ade: 69 00        	adc	#$0
    3ae0: a6 14        	ldx	$14                     ; 0x2014 <main+0x1a33>
    3ae2: 86 95        	stx	$95                     ; 0x2095 <main+0x1ab4>
    3ae4: 85 96        	sta	$96                     ; 0x2096 <main+0x1ab5>
    3ae6: b2 12        	lda	($12)                   ; 0x2012 <main+0x1a31>
    3ae8: aa           	tax
    3ae9: b1 12        	lda	($12),y                 ; 0x2012 <main+0x1a31>
    3aeb: 86 12        	stx	$12                     ; 0x2012 <main+0x1a31>
    3aed: 85 13        	sta	$13                     ; 0x2013 <main+0x1a32>
    3aef: 80 2f        	bra	$3b20 <printf+0x4cb>
    3af1: a6 15        	ldx	$15                     ; 0x2015 <main+0x1a34>
    3af3: 86 9d        	stx	$9d                     ; 0x209d <main+0x1abc>
    3af5: a6 18        	ldx	$18                     ; 0x2018 <main+0x1a37>
    3af7: 86 9e        	stx	$9e                     ; 0x209e <main+0x1abd>
    3af9: a0 08        	ldy	#$8
    3afb: a2 08        	ldx	#$8
    3afd: 80 45        	bra	$3b44 <printf+0x4ef>
    3aff: a5 95        	lda	$95                     ; 0x2095 <main+0x1ab4>
    3b01: a6 96        	ldx	$96                     ; 0x2096 <main+0x1ab5>
    3b03: 85 12        	sta	$12                     ; 0x2012 <main+0x1a31>
    3b05: 86 13        	stx	$13                     ; 0x2013 <main+0x1a32>
    3b07: 18           	clc
    3b08: 69 02        	adc	#$2
    3b0a: a8           	tay
    3b0b: 8a           	txa
    3b0c: 69 00        	adc	#$0
    3b0e: 84 95        	sty	$95                     ; 0x2095 <main+0x1ab4>
    3b10: 85 96        	sta	$96                     ; 0x2096 <main+0x1ab5>
    3b12: b2 12        	lda	($12)                   ; 0x2012 <main+0x1a31>
    3b14: 85 77        	sta	$77                     ; 0x2077 <main+0x1a96>
    3b16: 64 78        	stz	$78                     ; 0x2078 <main+0x1a97>
    3b18: a2 77        	ldx	#$77
    3b1a: 86 12        	stx	$12                     ; 0x2012 <main+0x1a31>
    3b1c: a2 00        	ldx	#$0
    3b1e: 86 13        	stx	$13                     ; 0x2013 <main+0x1a32>
    3b20: a2 84        	ldx	#$84
    3b22: 86 14        	stx	$14                     ; 0x2014 <main+0x1a33>
    3b24: a2 00        	ldx	#$0
    3b26: 86 15        	stx	$15                     ; 0x2015 <main+0x1a34>
    3b28: 20 49 35     	jsr	$3549 <_ZN12_GLOBAL__N_112print_stringEPKcP6Status>
    3b2b: a0 01        	ldy	#$1
    3b2d: a2 00        	ldx	#$0
    3b2f: 86 58        	stx	$58                     ; 0x2058 <main+0x1a77>
    3b31: a2 00        	ldx	#$0
    3b33: 86 59        	stx	$59                     ; 0x2059 <main+0x1a78>
    3b35: 4c 24 42     	jmp	$4224 <printf+0xbcf>
    3b38: a6 15        	ldx	$15                     ; 0x2015 <main+0x1a34>
    3b3a: 86 9d        	stx	$9d                     ; 0x209d <main+0x1abc>
    3b3c: a6 18        	ldx	$18                     ; 0x2018 <main+0x1a37>
    3b3e: 86 9e        	stx	$9e                     ; 0x209e <main+0x1abd>
    3b40: a0 0a        	ldy	#$a
    3b42: a2 0a        	ldx	#$a
    3b44: 86 99        	stx	$99                     ; 0x2099 <main+0x1ab8>
    3b46: 84 84        	sty	$84                     ; 0x2084 <main+0x1aa3>
    3b48: a9 00        	lda	#$0
    3b4a: 09 01        	ora	#$1
    3b4c: a6 55        	ldx	$55                     ; 0x2055 <main+0x1a74>
    3b4e: 86 85        	stx	$85                     ; 0x2085 <main+0x1aa4>
    3b50: 85 5f        	sta	$5f                     ; 0x205f <main+0x1a7e>
    3b52: 85 86        	sta	$86                     ; 0x2086 <main+0x1aa5>
    3b54: a5 9a        	lda	$9a                     ; 0x209a <main+0x1ab9>
    3b56: 85 79        	sta	$79                     ; 0x2079 <main+0x1a98>
    3b58: a4 95        	ldy	$95                     ; 0x2095 <main+0x1ab4>
    3b5a: a6 96        	ldx	$96                     ; 0x2096 <main+0x1ab5>
    3b5c: 86 5d        	stx	$5d                     ; 0x205d <main+0x1a7c>
    3b5e: 84 14        	sty	$14                     ; 0x2014 <main+0x1a33>
    3b60: 84 54        	sty	$54                     ; 0x2054 <main+0x1a73>
    3b62: 86 15        	stx	$15                     ; 0x2015 <main+0x1a34>
    3b64: a6 9b        	ldx	$9b                     ; 0x209b <main+0x1aba>
    3b66: 86 12        	stx	$12                     ; 0x2012 <main+0x1a31>
    3b68: a6 9c        	ldx	$9c                     ; 0x209c <main+0x1abb>
    3b6a: 86 13        	stx	$13                     ; 0x2013 <main+0x1a32>
    3b6c: a2 00        	ldx	#$0
    3b6e: 85 59        	sta	$59                     ; 0x2059 <main+0x1a78>
    3b70: 20 81 42     	jsr	$4281 <memcpy>
    3b73: 18           	clc
    3b74: a5 54        	lda	$54                     ; 0x2054 <main+0x1a73>
    3b76: 65 58        	adc	$58                     ; 0x2058 <main+0x1a77>
    3b78: aa           	tax
    3b79: a5 5d        	lda	$5d                     ; 0x205d <main+0x1a7c>
    3b7b: 69 00        	adc	#$0
    3b7d: 86 95        	stx	$95                     ; 0x2095 <main+0x1ab4>
    3b7f: 85 96        	sta	$96                     ; 0x2096 <main+0x1ab5>
    3b81: a5 5f        	lda	$5f                     ; 0x205f <main+0x1a7e>
    3b83: 29 01        	and	#$1
    3b85: b8           	clv
    3b86: f0 03        	beq	$3b8b <printf+0x536>
    3b88: 4c df 3b     	jmp	$3bdf <printf+0x58a>
    3b8b: a6 59        	ldx	$59                     ; 0x2059 <main+0x1a78>
    3b8d: b5 79        	lda	$79,x                   ; 0x2079 <main+0x1a98>
    3b8f: aa           	tax
    3b90: a0 01        	ldy	#$1
    3b92: a5 5c        	lda	$5c                     ; 0x205c <main+0x1a7b>
    3b94: 85 1a        	sta	$1a                     ; 0x201a <main+0x1a39>
    3b96: a5 9e        	lda	$9e                     ; 0x209e <main+0x1abd>
    3b98: 85 5c        	sta	$5c                     ; 0x205c <main+0x1a7b>
    3b9a: a9 00        	lda	#$0
    3b9c: 85 58        	sta	$58                     ; 0x2058 <main+0x1a77>
    3b9e: a9 00        	lda	#$0
    3ba0: 85 59        	sta	$59                     ; 0x2059 <main+0x1a78>
    3ba2: a5 9d        	lda	$9d                     ; 0x209d <main+0x1abc>
    3ba4: 85 5d        	sta	$5d                     ; 0x205d <main+0x1a7c>
    3ba6: 8a           	txa
    3ba7: 10 4c        	bpl	$3bf5 <printf+0x5a0>
    3ba9: a2 00        	ldx	#$0
    3bab: 64 12        	stz	$12                     ; 0x2012 <main+0x1a31>
    3bad: a9 00        	lda	#$0
    3baf: 38           	sec
    3bb0: f5 7a        	sbc	$7a,x                   ; 0x207a <main+0x1a99>
    3bb2: a0 00        	ldy	#$0
    3bb4: b0 02        	bcs	$3bb8 <printf+0x563>
    3bb6: a0 01        	ldy	#$1
    3bb8: 38           	sec
    3bb9: e5 12        	sbc	$12                     ; 0x2012 <main+0x1a31>
    3bbb: 85 13        	sta	$13                     ; 0x2013 <main+0x1a32>
    3bbd: 64 12        	stz	$12                     ; 0x2012 <main+0x1a31>
    3bbf: b0 04        	bcs	$3bc5 <printf+0x570>
    3bc1: a9 01        	lda	#$1
    3bc3: 85 12        	sta	$12                     ; 0x2012 <main+0x1a31>
    3bc5: 98           	tya
    3bc6: 05 12        	ora	$12                     ; 0x2012 <main+0x1a31>
    3bc8: 85 12        	sta	$12                     ; 0x2012 <main+0x1a31>
    3bca: a5 13        	lda	$13                     ; 0x2013 <main+0x1a32>
    3bcc: 9d 7a 00     	sta	$7a,x                   ; 0x7a <__rc31+0x4b>
    3bcf: e8           	inx
    3bd0: 86 13        	stx	$13                     ; 0x2013 <main+0x1a32>
    3bd2: a4 9a        	ldy	$9a                     ; 0x209a <main+0x1ab9>
    3bd4: c4 13        	cpy	$13                     ; 0x2013 <main+0x1a32>
    3bd6: d0 d5        	bne	$3bad <printf+0x558>
    3bd8: 2c a8 43     	bit	$43a8                   ; 0x43a8 <__set_v>
    3bdb: a0 01        	ldy	#$1
    3bdd: 80 16        	bra	$3bf5 <printf+0x5a0>
    3bdf: a0 01        	ldy	#$1
    3be1: a6 5c        	ldx	$5c                     ; 0x205c <main+0x1a7b>
    3be3: 86 1a        	stx	$1a                     ; 0x201a <main+0x1a39>
    3be5: a6 9e        	ldx	$9e                     ; 0x209e <main+0x1abd>
    3be7: 86 5c        	stx	$5c                     ; 0x205c <main+0x1a7b>
    3be9: a2 00        	ldx	#$0
    3beb: 86 58        	stx	$58                     ; 0x2058 <main+0x1a77>
    3bed: a2 00        	ldx	#$0
    3bef: 86 59        	stx	$59                     ; 0x2059 <main+0x1a78>
    3bf1: a6 9d        	ldx	$9d                     ; 0x209d <main+0x1abc>
    3bf3: 86 5d        	stx	$5d                     ; 0x205d <main+0x1a7c>
    3bf5: a2 01        	ldx	#$1
    3bf7: 70 02        	bvs	$3bfb <printf+0x5a6>
    3bf9: a2 00        	ldx	#$0
    3bfb: 86 16        	stx	$16                     ; 0x2016 <main+0x1a35>
    3bfd: a5 9a        	lda	$9a                     ; 0x209a <main+0x1ab9>
    3bff: 0a           	asl
    3c00: 0a           	asl
    3c01: 0a           	asl
    3c02: 85 12        	sta	$12                     ; 0x2012 <main+0x1a31>
    3c04: a2 00        	ldx	#$0
    3c06: 8a           	txa
    3c07: e0 00        	cpx	#$0
    3c09: d0 03        	bne	$3c0e <printf+0x5b9>
    3c0b: 4c 93 3c     	jmp	$3c93 <printf+0x63e>
    3c0e: 85 17        	sta	$17                     ; 0x2017 <main+0x1a36>
    3c10: 86 54        	stx	$54                     ; 0x2054 <main+0x1a73>
    3c12: ca           	dex
    3c13: 86 15        	stx	$15                     ; 0x2015 <main+0x1a34>
    3c15: a2 00        	ldx	#$0
    3c17: 64 13        	stz	$13                     ; 0x2013 <main+0x1a32>
    3c19: 80 0d        	bra	$3c28 <printf+0x5d3>
    3c1b: a4 13        	ldy	$13                     ; 0x2013 <main+0x1a32>
    3c1d: 99 62 00     	sta	$62,y                   ; 0x62 <__rc31+0x33>
    3c20: a4 15        	ldy	$15                     ; 0x2015 <main+0x1a34>
    3c22: c4 13        	cpy	$13                     ; 0x2013 <main+0x1a32>
    3c24: f0 38        	beq	$3c5e <printf+0x609>
    3c26: e6 13        	inc	$13                     ; 0x2013 <main+0x1a32>
    3c28: a4 13        	ldy	$13                     ; 0x2013 <main+0x1a32>
    3c2a: b9 62 00     	lda	$62,y                   ; 0x62 <__rc31+0x33>
    3c2d: 0a           	asl
    3c2e: e0 00        	cpx	#$0
    3c30: f0 02        	beq	$3c34 <printf+0x5df>
    3c32: 09 01        	ora	#$1
    3c34: a4 99        	ldy	$99                     ; 0x2099 <main+0x1ab8>
    3c36: 84 14        	sty	$14                     ; 0x2014 <main+0x1a33>
    3c38: c5 14        	cmp	$14                     ; 0x2014 <main+0x1a33>
    3c3a: a2 01        	ldx	#$1
    3c3c: b0 02        	bcs	$3c40 <printf+0x5eb>
    3c3e: a2 00        	ldx	#$0
    3c40: 90 d9        	bcc	$3c1b <printf+0x5c6>
    3c42: 84 14        	sty	$14                     ; 0x2014 <main+0x1a33>
    3c44: 38           	sec
    3c45: e5 14        	sbc	$14                     ; 0x2014 <main+0x1a33>
    3c47: a4 13        	ldy	$13                     ; 0x2013 <main+0x1a32>
    3c49: 99 62 00     	sta	$62,y                   ; 0x62 <__rc31+0x33>
    3c4c: a4 15        	ldy	$15                     ; 0x2015 <main+0x1a34>
    3c4e: c4 13        	cpy	$13                     ; 0x2013 <main+0x1a32>
    3c50: d0 d4        	bne	$3c26 <printf+0x5d1>
    3c52: a4 54        	ldy	$54                     ; 0x2054 <main+0x1a73>
    3c54: a6 54        	ldx	$54                     ; 0x2054 <main+0x1a73>
    3c56: e8           	inx
    3c57: a9 01        	lda	#$1
    3c59: 99 62 00     	sta	$62,y                   ; 0x62 <__rc31+0x33>
    3c5c: 86 54        	stx	$54                     ; 0x2054 <main+0x1a73>
    3c5e: a6 9a        	ldx	$9a                     ; 0x209a <main+0x1ab9>
    3c60: b5 79        	lda	$79,x                   ; 0x2079 <main+0x1a98>
    3c62: aa           	tax
    3c63: a0 01        	ldy	#$1
    3c65: 8a           	txa
    3c66: 10 47        	bpl	$3caf <printf+0x65a>
    3c68: a5 54        	lda	$54                     ; 0x2054 <main+0x1a73>
    3c6a: f0 34        	beq	$3ca0 <printf+0x64b>
    3c6c: a2 00        	ldx	#$0
    3c6e: a4 99        	ldy	$99                     ; 0x2099 <main+0x1ab8>
    3c70: 84 14        	sty	$14                     ; 0x2014 <main+0x1a33>
    3c72: b5 62        	lda	$62,x                   ; 0x2062 <main+0x1a81>
    3c74: 1a           	inc
    3c75: f6 62        	inc	$62,x                   ; 0x2062 <main+0x1a81>
    3c77: c5 14        	cmp	$14                     ; 0x2014 <main+0x1a33>
    3c79: b0 03        	bcs	$3c7e <printf+0x629>
    3c7b: 4c da 3c     	jmp	$3cda <printf+0x685>
    3c7e: a4 14        	ldy	$14                     ; 0x2014 <main+0x1a33>
    3c80: 84 13        	sty	$13                     ; 0x2013 <main+0x1a32>
    3c82: 38           	sec
    3c83: e5 13        	sbc	$13                     ; 0x2013 <main+0x1a32>
    3c85: 9d 62 00     	sta	$62,x                   ; 0x62 <__rc31+0x33>
    3c88: e8           	inx
    3c89: 86 13        	stx	$13                     ; 0x2013 <main+0x1a32>
    3c8b: a4 54        	ldy	$54                     ; 0x2054 <main+0x1a73>
    3c8d: c4 13        	cpy	$13                     ; 0x2013 <main+0x1a32>
    3c8f: d0 e1        	bne	$3c72 <printf+0x61d>
    3c91: 80 0f        	bra	$3ca2 <printf+0x64d>
    3c93: 85 17        	sta	$17                     ; 0x2017 <main+0x1a36>
    3c95: a6 9a        	ldx	$9a                     ; 0x209a <main+0x1ab9>
    3c97: b5 79        	lda	$79,x                   ; 0x2079 <main+0x1a98>
    3c99: aa           	tax
    3c9a: 64 54        	stz	$54                     ; 0x2054 <main+0x1a73>
    3c9c: 30 04        	bmi	$3ca2 <printf+0x64d>
    3c9e: 80 0f        	bra	$3caf <printf+0x65a>
    3ca0: 64 54        	stz	$54                     ; 0x2054 <main+0x1a73>
    3ca2: a4 54        	ldy	$54                     ; 0x2054 <main+0x1a73>
    3ca4: a6 54        	ldx	$54                     ; 0x2054 <main+0x1a73>
    3ca6: e8           	inx
    3ca7: a9 01        	lda	#$1
    3ca9: 99 62 00     	sta	$62,y                   ; 0x62 <__rc31+0x33>
    3cac: a8           	tay
    3cad: 86 54        	stx	$54                     ; 0x2054 <main+0x1a73>
    3caf: a2 01        	ldx	#$1
    3cb1: 64 13        	stz	$13                     ; 0x2013 <main+0x1a32>
    3cb3: a5 9a        	lda	$9a                     ; 0x209a <main+0x1ab9>
    3cb5: 85 14        	sta	$14                     ; 0x2014 <main+0x1a33>
    3cb7: b5 79        	lda	$79,x                   ; 0x2079 <main+0x1a98>
    3cb9: 0a           	asl
    3cba: 64 15        	stz	$15                     ; 0x2015 <main+0x1a34>
    3cbc: 26 15        	rol	$15                     ; 0x2015 <main+0x1a34>
    3cbe: 05 13        	ora	$13                     ; 0x2013 <main+0x1a32>
    3cc0: 9d 79 00     	sta	$79,x                   ; 0x79 <__rc31+0x4a>
    3cc3: e8           	inx
    3cc4: c6 14        	dec	$14                     ; 0x2014 <main+0x1a33>
    3cc6: a5 15        	lda	$15                     ; 0x2015 <main+0x1a34>
    3cc8: 85 13        	sta	$13                     ; 0x2013 <main+0x1a32>
    3cca: a5 14        	lda	$14                     ; 0x2014 <main+0x1a33>
    3ccc: d0 e9        	bne	$3cb7 <printf+0x662>
    3cce: a5 17        	lda	$17                     ; 0x2017 <main+0x1a36>
    3cd0: 1a           	inc
    3cd1: c5 12        	cmp	$12                     ; 0x2012 <main+0x1a31>
    3cd3: a6 54        	ldx	$54                     ; 0x2054 <main+0x1a73>
    3cd5: b0 07        	bcs	$3cde <printf+0x689>
    3cd7: 4c 07 3c     	jmp	$3c07 <printf+0x5b2>
    3cda: a0 01        	ldy	#$1
    3cdc: 80 d1        	bra	$3caf <printf+0x65a>
    3cde: a5 55        	lda	$55                     ; 0x2055 <main+0x1a74>
    3ce0: e6 5d        	inc	$5d                     ; 0x205d <main+0x1a7c>
    3ce2: c6 5d        	dec	$5d                     ; 0x205d <main+0x1a7c>
    3ce4: 10 08        	bpl	$3cee <printf+0x699>
    3ce6: a2 01        	ldx	#$1
    3ce8: 64 5d        	stz	$5d                     ; 0x205d <main+0x1a7c>
    3cea: 86 5c        	stx	$5c                     ; 0x205c <main+0x1a7b>
    3cec: a6 54        	ldx	$54                     ; 0x2054 <main+0x1a73>
    3cee: 29 04        	and	#$4
    3cf0: f0 2b        	beq	$3d1d <printf+0x6c8>
    3cf2: a5 99        	lda	$99                     ; 0x2099 <main+0x1ab8>
    3cf4: c9 10        	cmp	#$10
    3cf6: f0 14        	beq	$3d0c <printf+0x6b7>
    3cf8: c9 08        	cmp	#$8
    3cfa: d0 21        	bne	$3d1d <printf+0x6c8>
    3cfc: a2 00        	ldx	#$0
    3cfe: e4 5d        	cpx	$5d                     ; 0x205d <main+0x1a7c>
    3d00: f0 03        	beq	$3d05 <printf+0x6b0>
    3d02: 4c 49 42     	jmp	$4249 <printf+0xbf4>
    3d05: a6 54        	ldx	$54                     ; 0x2054 <main+0x1a73>
    3d07: e4 5c        	cpx	$5c                     ; 0x205c <main+0x1a7b>
    3d09: 4c 4b 42     	jmp	$424b <printf+0xbf6>
    3d0c: 8a           	txa
    3d0d: f0 0e        	beq	$3d1d <printf+0x6c8>
    3d0f: a5 55        	lda	$55                     ; 0x2055 <main+0x1a74>
    3d11: 29 80        	and	#$80
    3d13: d0 03        	bne	$3d18 <printf+0x6c3>
    3d15: 4c 64 42     	jmp	$4264 <printf+0xc0f>
    3d18: a2 78        	ldx	#$78
    3d1a: 4c 66 42     	jmp	$4266 <printf+0xc11>
    3d1d: a6 55        	ldx	$55                     ; 0x2055 <main+0x1a74>
    3d1f: a9 2d        	lda	#$2d
    3d21: 85 9d        	sta	$9d                     ; 0x209d <main+0x1abc>
    3d23: a5 16        	lda	$16                     ; 0x2016 <main+0x1a35>
    3d25: d0 32        	bne	$3d59 <printf+0x704>
    3d27: 86 12        	stx	$12                     ; 0x2012 <main+0x1a31>
    3d29: 8a           	txa
    3d2a: 29 02        	and	#$2
    3d2c: a2 2b        	ldx	#$2b
    3d2e: 86 9d        	stx	$9d                     ; 0x209d <main+0x1abc>
    3d30: aa           	tax
    3d31: d0 26        	bne	$3d59 <printf+0x704>
    3d33: a5 12        	lda	$12                     ; 0x2012 <main+0x1a31>
    3d35: 29 08        	and	#$8
    3d37: d0 1c        	bne	$3d55 <printf+0x700>
    3d39: a2 01        	ldx	#$1
    3d3b: 86 9a        	stx	$9a                     ; 0x209a <main+0x1ab9>
    3d3d: a9 00        	lda	#$0
    3d3f: aa           	tax
    3d40: 86 99        	stx	$99                     ; 0x2099 <main+0x1ab8>
    3d42: 80 1c        	bra	$3d60 <printf+0x70b>
    3d44: 85 12        	sta	$12                     ; 0x2012 <main+0x1a31>
    3d46: a9 04        	lda	#$4
    3d48: 80 04        	bra	$3d4e <printf+0x6f9>
    3d4a: 85 12        	sta	$12                     ; 0x2012 <main+0x1a31>
    3d4c: a9 02        	lda	#$2
    3d4e: 85 9a        	sta	$9a                     ; 0x209a <main+0x1ab9>
    3d50: a5 12        	lda	$12                     ; 0x2012 <main+0x1a31>
    3d52: 4c 11 3a     	jmp	$3a11 <printf+0x3bc>
    3d55: a2 20        	ldx	#$20
    3d57: 86 9d        	stx	$9d                     ; 0x209d <main+0x1abc>
    3d59: a2 00        	ldx	#$0
    3d5b: 86 9a        	stx	$9a                     ; 0x209a <main+0x1ab9>
    3d5d: 86 99        	stx	$99                     ; 0x2099 <main+0x1ab8>
    3d5f: 98           	tya
    3d60: a6 5d        	ldx	$5d                     ; 0x205d <main+0x1a7c>
    3d62: d0 35        	bne	$3d99 <printf+0x744>
    3d64: a6 5c        	ldx	$5c                     ; 0x205c <main+0x1a7b>
    3d66: a4 54        	ldy	$54                     ; 0x2054 <main+0x1a73>
    3d68: 84 12        	sty	$12                     ; 0x2012 <main+0x1a31>
    3d6a: e4 12        	cpx	$12                     ; 0x2012 <main+0x1a31>
    3d6c: a6 5c        	ldx	$5c                     ; 0x205c <main+0x1a7b>
    3d6e: 86 12        	stx	$12                     ; 0x2012 <main+0x1a31>
    3d70: a6 5d        	ldx	$5d                     ; 0x205d <main+0x1a7c>
    3d72: 86 13        	stx	$13                     ; 0x2013 <main+0x1a32>
    3d74: b0 04        	bcs	$3d7a <printf+0x725>
    3d76: 84 12        	sty	$12                     ; 0x2012 <main+0x1a31>
    3d78: 64 13        	stz	$13                     ; 0x2013 <main+0x1a32>
    3d7a: 85 18        	sta	$18                     ; 0x2018 <main+0x1a37>
    3d7c: 18           	clc
    3d7d: 65 12        	adc	$12                     ; 0x2012 <main+0x1a31>
    3d7f: 85 16        	sta	$16                     ; 0x2016 <main+0x1a35>
    3d81: 85 14        	sta	$14                     ; 0x2014 <main+0x1a33>
    3d83: a5 13        	lda	$13                     ; 0x2013 <main+0x1a32>
    3d85: 69 00        	adc	#$0
    3d87: 85 15        	sta	$15                     ; 0x2015 <main+0x1a34>
    3d89: c5 1a        	cmp	$1a                     ; 0x201a <main+0x1a39>
    3d8b: d0 1e        	bne	$3dab <printf+0x756>
    3d8d: a6 1a        	ldx	$1a                     ; 0x201a <main+0x1a39>
    3d8f: 86 17        	stx	$17                     ; 0x2017 <main+0x1a36>
    3d91: a6 5e        	ldx	$5e                     ; 0x205e <main+0x1a7d>
    3d93: a5 16        	lda	$16                     ; 0x2016 <main+0x1a35>
    3d95: c5 5e        	cmp	$5e                     ; 0x205e <main+0x1a7d>
    3d97: 80 1c        	bra	$3db5 <printf+0x760>
    3d99: a6 5d        	ldx	$5d                     ; 0x205d <main+0x1a7c>
    3d9b: e0 00        	cpx	#$0
    3d9d: a6 5c        	ldx	$5c                     ; 0x205c <main+0x1a7b>
    3d9f: 86 12        	stx	$12                     ; 0x2012 <main+0x1a31>
    3da1: a6 5d        	ldx	$5d                     ; 0x205d <main+0x1a7c>
    3da3: 86 13        	stx	$13                     ; 0x2013 <main+0x1a32>
    3da5: a4 54        	ldy	$54                     ; 0x2054 <main+0x1a73>
    3da7: 90 cd        	bcc	$3d76 <printf+0x721>
    3da9: 80 cf        	bra	$3d7a <printf+0x725>
    3dab: a6 5e        	ldx	$5e                     ; 0x205e <main+0x1a7d>
    3dad: 5a           	phy
    3dae: a4 1a        	ldy	$1a                     ; 0x201a <main+0x1a39>
    3db0: 84 17        	sty	$17                     ; 0x2017 <main+0x1a36>
    3db2: 7a           	ply
    3db3: c5 1a        	cmp	$1a                     ; 0x201a <main+0x1a39>
    3db5: 64 5f        	stz	$5f                     ; 0x205f <main+0x1a7e>
    3db7: 64 5e        	stz	$5e                     ; 0x205e <main+0x1a7d>
    3db9: 90 03        	bcc	$3dbe <printf+0x769>
    3dbb: 4c 5f 3e     	jmp	$3e5f <printf+0x80a>
    3dbe: a5 55        	lda	$55                     ; 0x2055 <main+0x1a74>
    3dc0: 29 11        	and	#$11
    3dc2: 86 16        	stx	$16                     ; 0x2016 <main+0x1a35>
    3dc4: f0 0f        	beq	$3dd5 <printf+0x780>
    3dc6: 8a           	txa
    3dc7: 38           	sec
    3dc8: e5 14        	sbc	$14                     ; 0x2014 <main+0x1a33>
    3dca: 85 5f        	sta	$5f                     ; 0x205f <main+0x1a7e>
    3dcc: a5 1a        	lda	$1a                     ; 0x201a <main+0x1a39>
    3dce: e5 15        	sbc	$15                     ; 0x2015 <main+0x1a34>
    3dd0: 85 5e        	sta	$5e                     ; 0x205e <main+0x1a7d>
    3dd2: 4c 5f 3e     	jmp	$3e5f <printf+0x80a>
    3dd5: a6 89        	ldx	$89                     ; 0x2089 <main+0x1aa8>
    3dd7: 86 14        	stx	$14                     ; 0x2014 <main+0x1a33>
    3dd9: 38           	sec
    3dda: a5 18        	lda	$18                     ; 0x2018 <main+0x1a37>
    3ddc: e5 16        	sbc	$16                     ; 0x2016 <main+0x1a35>
    3dde: aa           	tax
    3ddf: a9 00        	lda	#$0
    3de1: e5 17        	sbc	$17                     ; 0x2017 <main+0x1a36>
    3de3: a8           	tay
    3de4: 18           	clc
    3de5: 8a           	txa
    3de6: 65 12        	adc	$12                     ; 0x2012 <main+0x1a31>
    3de8: 85 55        	sta	$55                     ; 0x2055 <main+0x1a74>
    3dea: 98           	tya
    3deb: 65 13        	adc	$13                     ; 0x2013 <main+0x1a32>
    3ded: a4 8a        	ldy	$8a                     ; 0x208a <main+0x1aa9>
    3def: 4c 43 3e     	jmp	$3e43 <printf+0x7ee>
    3df2: c4 88        	cpy	$88                     ; 0x2088 <main+0x1aa7>
    3df4: b0 2f        	bcs	$3e25 <printf+0x7d0>
    3df6: a6 94        	ldx	$94                     ; 0x2094 <main+0x1ab3>
    3df8: e4 59        	cpx	$59                     ; 0x2059 <main+0x1a78>
    3dfa: d0 18        	bne	$3e14 <printf+0x7bf>
    3dfc: a6 93        	ldx	$93                     ; 0x2093 <main+0x1ab2>
    3dfe: e4 58        	cpx	$58                     ; 0x2058 <main+0x1a77>
    3e00: d0 12        	bne	$3e14 <printf+0x7bf>
    3e02: 18           	clc
    3e03: a5 14        	lda	$14                     ; 0x2014 <main+0x1a33>
    3e05: 65 8d        	adc	$8d                     ; 0x208d <main+0x1aac>
    3e07: 85 12        	sta	$12                     ; 0x2012 <main+0x1a31>
    3e09: 98           	tya
    3e0a: 65 8e        	adc	$8e                     ; 0x208e <main+0x1aad>
    3e0c: 85 13        	sta	$13                     ; 0x2013 <main+0x1a32>
    3e0e: a9 20        	lda	#$20
    3e10: 92 12        	sta	($12)                   ; 0x2012 <main+0x1a31>
    3e12: 80 0f        	bra	$3e23 <printf+0x7ce>
    3e14: a2 20        	ldx	#$20
    3e16: 86 4d        	stx	$4d                     ; 0x204d <main+0x1a6c>
    3e18: a2 4d        	ldx	#$4d
    3e1a: 86 12        	stx	$12                     ; 0x2012 <main+0x1a31>
    3e1c: a2 00        	ldx	#$0
    3e1e: 86 13        	stx	$13                     ; 0x2013 <main+0x1a32>
    3e20: 20 a2 22     	jsr	$22a2 <textPrint>
    3e23: a5 5e        	lda	$5e                     ; 0x205e <main+0x1a7d>
    3e25: a6 89        	ldx	$89                     ; 0x2089 <main+0x1aa8>
    3e27: a4 8a        	ldy	$8a                     ; 0x208a <main+0x1aa9>
    3e29: e8           	inx
    3e2a: d0 01        	bne	$3e2d <printf+0x7d8>
    3e2c: c8           	iny
    3e2d: 86 14        	stx	$14                     ; 0x2014 <main+0x1a33>
    3e2f: 86 89        	stx	$89                     ; 0x2089 <main+0x1aa8>
    3e31: 84 8a        	sty	$8a                     ; 0x208a <main+0x1aa9>
    3e33: a6 55        	ldx	$55                     ; 0x2055 <main+0x1a74>
    3e35: e8           	inx
    3e36: d0 01        	bne	$3e39 <printf+0x7e4>
    3e38: 1a           	inc
    3e39: 86 55        	stx	$55                     ; 0x2055 <main+0x1a74>
    3e3b: c9 00        	cmp	#$0
    3e3d: d0 04        	bne	$3e43 <printf+0x7ee>
    3e3f: e0 00        	cpx	#$0
    3e41: f0 16        	beq	$3e59 <printf+0x804>
    3e43: 85 5e        	sta	$5e                     ; 0x205e <main+0x1a7d>
    3e45: c4 88        	cpy	$88                     ; 0x2088 <main+0x1aa7>
    3e47: f0 03        	beq	$3e4c <printf+0x7f7>
    3e49: 4c f2 3d     	jmp	$3df2 <printf+0x79d>
    3e4c: a6 87        	ldx	$87                     ; 0x2087 <main+0x1aa6>
    3e4e: 86 12        	stx	$12                     ; 0x2012 <main+0x1a31>
    3e50: a6 14        	ldx	$14                     ; 0x2014 <main+0x1a33>
    3e52: e4 12        	cpx	$12                     ; 0x2012 <main+0x1a31>
    3e54: b0 cf        	bcs	$3e25 <printf+0x7d0>
    3e56: 4c f6 3d     	jmp	$3df6 <printf+0x7a1>
    3e59: 64 5f        	stz	$5f                     ; 0x205f <main+0x1a7e>
    3e5b: 64 5e        	stz	$5e                     ; 0x205e <main+0x1a7d>
    3e5d: a4 54        	ldy	$54                     ; 0x2054 <main+0x1a73>
    3e5f: a6 9a        	ldx	$9a                     ; 0x209a <main+0x1ab9>
    3e61: f0 03        	beq	$3e66 <printf+0x811>
    3e63: 4c bd 3e     	jmp	$3ebd <printf+0x868>
    3e66: a6 89        	ldx	$89                     ; 0x2089 <main+0x1aa8>
    3e68: a5 8a        	lda	$8a                     ; 0x208a <main+0x1aa9>
    3e6a: c5 88        	cmp	$88                     ; 0x2088 <main+0x1aa7>
    3e6c: d0 10        	bne	$3e7e <printf+0x829>
    3e6e: 86 13        	stx	$13                     ; 0x2013 <main+0x1a32>
    3e70: a6 87        	ldx	$87                     ; 0x2087 <main+0x1aa6>
    3e72: 86 12        	stx	$12                     ; 0x2012 <main+0x1a31>
    3e74: a4 54        	ldy	$54                     ; 0x2054 <main+0x1a73>
    3e76: a6 13        	ldx	$13                     ; 0x2013 <main+0x1a32>
    3e78: e4 12        	cpx	$12                     ; 0x2012 <main+0x1a31>
    3e7a: 90 08        	bcc	$3e84 <printf+0x82f>
    3e7c: 80 39        	bra	$3eb7 <printf+0x862>
    3e7e: 86 13        	stx	$13                     ; 0x2013 <main+0x1a32>
    3e80: c5 88        	cmp	$88                     ; 0x2088 <main+0x1aa7>
    3e82: b0 33        	bcs	$3eb7 <printf+0x862>
    3e84: a6 94        	ldx	$94                     ; 0x2094 <main+0x1ab3>
    3e86: e4 59        	cpx	$59                     ; 0x2059 <main+0x1a78>
    3e88: d0 1c        	bne	$3ea6 <printf+0x851>
    3e8a: a6 93        	ldx	$93                     ; 0x2093 <main+0x1ab2>
    3e8c: e4 58        	cpx	$58                     ; 0x2058 <main+0x1a77>
    3e8e: d0 16        	bne	$3ea6 <printf+0x851>
    3e90: 18           	clc
    3e91: 85 12        	sta	$12                     ; 0x2012 <main+0x1a31>
    3e93: a5 13        	lda	$13                     ; 0x2013 <main+0x1a32>
    3e95: 65 8d        	adc	$8d                     ; 0x208d <main+0x1aac>
    3e97: aa           	tax
    3e98: a5 12        	lda	$12                     ; 0x2012 <main+0x1a31>
    3e9a: 65 8e        	adc	$8e                     ; 0x208e <main+0x1aad>
    3e9c: 86 12        	stx	$12                     ; 0x2012 <main+0x1a31>
    3e9e: 85 13        	sta	$13                     ; 0x2013 <main+0x1a32>
    3ea0: a5 9d        	lda	$9d                     ; 0x209d <main+0x1abc>
    3ea2: 92 12        	sta	($12)                   ; 0x2012 <main+0x1a31>
    3ea4: 80 0f        	bra	$3eb5 <printf+0x860>
    3ea6: a6 9d        	ldx	$9d                     ; 0x209d <main+0x1abc>
    3ea8: 86 4d        	stx	$4d                     ; 0x204d <main+0x1a6c>
    3eaa: a2 4d        	ldx	#$4d
    3eac: 86 12        	stx	$12                     ; 0x2012 <main+0x1a31>
    3eae: a2 00        	ldx	#$0
    3eb0: 86 13        	stx	$13                     ; 0x2013 <main+0x1a32>
    3eb2: 20 a2 22     	jsr	$22a2 <textPrint>
    3eb5: a4 54        	ldy	$54                     ; 0x2054 <main+0x1a73>
    3eb7: e6 89        	inc	$89                     ; 0x2089 <main+0x1aa8>
    3eb9: d0 02        	bne	$3ebd <printf+0x868>
    3ebb: e6 8a        	inc	$8a                     ; 0x208a <main+0x1aa9>
    3ebd: a6 99        	ldx	$99                     ; 0x2099 <main+0x1ab8>
    3ebf: d0 03        	bne	$3ec4 <printf+0x86f>
    3ec1: 4c 1b 3f     	jmp	$3f1b <printf+0x8c6>
    3ec4: a6 89        	ldx	$89                     ; 0x2089 <main+0x1aa8>
    3ec6: a5 8a        	lda	$8a                     ; 0x208a <main+0x1aa9>
    3ec8: c5 88        	cmp	$88                     ; 0x2088 <main+0x1aa7>
    3eca: d0 10        	bne	$3edc <printf+0x887>
    3ecc: 86 13        	stx	$13                     ; 0x2013 <main+0x1a32>
    3ece: a6 87        	ldx	$87                     ; 0x2087 <main+0x1aa6>
    3ed0: 86 12        	stx	$12                     ; 0x2012 <main+0x1a31>
    3ed2: a4 54        	ldy	$54                     ; 0x2054 <main+0x1a73>
    3ed4: a6 13        	ldx	$13                     ; 0x2013 <main+0x1a32>
    3ed6: e4 12        	cpx	$12                     ; 0x2012 <main+0x1a31>
    3ed8: 90 08        	bcc	$3ee2 <printf+0x88d>
    3eda: 80 39        	bra	$3f15 <printf+0x8c0>
    3edc: 86 13        	stx	$13                     ; 0x2013 <main+0x1a32>
    3ede: c5 88        	cmp	$88                     ; 0x2088 <main+0x1aa7>
    3ee0: b0 33        	bcs	$3f15 <printf+0x8c0>
    3ee2: a6 94        	ldx	$94                     ; 0x2094 <main+0x1ab3>
    3ee4: e4 59        	cpx	$59                     ; 0x2059 <main+0x1a78>
    3ee6: d0 1c        	bne	$3f04 <printf+0x8af>
    3ee8: a6 93        	ldx	$93                     ; 0x2093 <main+0x1ab2>
    3eea: e4 58        	cpx	$58                     ; 0x2058 <main+0x1a77>
    3eec: d0 16        	bne	$3f04 <printf+0x8af>
    3eee: 18           	clc
    3eef: 85 12        	sta	$12                     ; 0x2012 <main+0x1a31>
    3ef1: a5 13        	lda	$13                     ; 0x2013 <main+0x1a32>
    3ef3: 65 8d        	adc	$8d                     ; 0x208d <main+0x1aac>
    3ef5: aa           	tax
    3ef6: a5 12        	lda	$12                     ; 0x2012 <main+0x1a31>
    3ef8: 65 8e        	adc	$8e                     ; 0x208e <main+0x1aad>
    3efa: 86 12        	stx	$12                     ; 0x2012 <main+0x1a31>
    3efc: 85 13        	sta	$13                     ; 0x2013 <main+0x1a32>
    3efe: a5 9e        	lda	$9e                     ; 0x209e <main+0x1abd>
    3f00: 92 12        	sta	($12)                   ; 0x2012 <main+0x1a31>
    3f02: 80 0f        	bra	$3f13 <printf+0x8be>
    3f04: a6 9e        	ldx	$9e                     ; 0x209e <main+0x1abd>
    3f06: 86 4d        	stx	$4d                     ; 0x204d <main+0x1a6c>
    3f08: a2 4d        	ldx	#$4d
    3f0a: 86 12        	stx	$12                     ; 0x2012 <main+0x1a31>
    3f0c: a2 00        	ldx	#$0
    3f0e: 86 13        	stx	$13                     ; 0x2013 <main+0x1a32>
    3f10: 20 a2 22     	jsr	$22a2 <textPrint>
    3f13: a4 54        	ldy	$54                     ; 0x2054 <main+0x1a73>
    3f15: e6 89        	inc	$89                     ; 0x2089 <main+0x1aa8>
    3f17: d0 02        	bne	$3f1b <printf+0x8c6>
    3f19: e6 8a        	inc	$8a                     ; 0x208a <main+0x1aa9>
    3f1b: a9 10        	lda	#$10
    3f1d: 25 85        	and	$85                     ; 0x2085 <main+0x1aa4>
    3f1f: d0 03        	bne	$3f24 <printf+0x8cf>
    3f21: 4c b5 3f     	jmp	$3fb5 <printf+0x960>
    3f24: a5 85        	lda	$85                     ; 0x2085 <main+0x1aa4>
    3f26: 29 01        	and	#$1
    3f28: f0 03        	beq	$3f2d <printf+0x8d8>
    3f2a: 4c b5 3f     	jmp	$3fb5 <printf+0x960>
    3f2d: a6 5f        	ldx	$5f                     ; 0x205f <main+0x1a7e>
    3f2f: a5 5e        	lda	$5e                     ; 0x205e <main+0x1a7d>
    3f31: d0 06        	bne	$3f39 <printf+0x8e4>
    3f33: 8a           	txa
    3f34: d0 03        	bne	$3f39 <printf+0x8e4>
    3f36: 4c 79 42     	jmp	$4279 <printf+0xc24>
    3f39: a6 89        	ldx	$89                     ; 0x2089 <main+0x1aa8>
    3f3b: 86 13        	stx	$13                     ; 0x2013 <main+0x1a32>
    3f3d: a5 8a        	lda	$8a                     ; 0x208a <main+0x1aa9>
    3f3f: 4c 9b 3f     	jmp	$3f9b <printf+0x946>
    3f42: c5 88        	cmp	$88                     ; 0x2088 <main+0x1aa7>
    3f44: b0 2e        	bcs	$3f74 <printf+0x91f>
    3f46: a6 94        	ldx	$94                     ; 0x2094 <main+0x1ab3>
    3f48: e4 59        	cpx	$59                     ; 0x2059 <main+0x1a78>
    3f4a: d0 19        	bne	$3f65 <printf+0x910>
    3f4c: a6 93        	ldx	$93                     ; 0x2093 <main+0x1ab2>
    3f4e: e4 58        	cpx	$58                     ; 0x2058 <main+0x1a77>
    3f50: d0 13        	bne	$3f65 <printf+0x910>
    3f52: 18           	clc
    3f53: aa           	tax
    3f54: a5 13        	lda	$13                     ; 0x2013 <main+0x1a32>
    3f56: 65 8d        	adc	$8d                     ; 0x208d <main+0x1aac>
    3f58: 85 12        	sta	$12                     ; 0x2012 <main+0x1a31>
    3f5a: 8a           	txa
    3f5b: 65 8e        	adc	$8e                     ; 0x208e <main+0x1aad>
    3f5d: 85 13        	sta	$13                     ; 0x2013 <main+0x1a32>
    3f5f: a9 30        	lda	#$30
    3f61: 92 12        	sta	($12)                   ; 0x2012 <main+0x1a31>
    3f63: 80 0f        	bra	$3f74 <printf+0x91f>
    3f65: a2 30        	ldx	#$30
    3f67: 86 4d        	stx	$4d                     ; 0x204d <main+0x1a6c>
    3f69: a2 4d        	ldx	#$4d
    3f6b: 86 12        	stx	$12                     ; 0x2012 <main+0x1a31>
    3f6d: a2 00        	ldx	#$0
    3f6f: 86 13        	stx	$13                     ; 0x2013 <main+0x1a32>
    3f71: 20 a2 22     	jsr	$22a2 <textPrint>
    3f74: a6 89        	ldx	$89                     ; 0x2089 <main+0x1aa8>
    3f76: a5 8a        	lda	$8a                     ; 0x208a <main+0x1aa9>
    3f78: e8           	inx
    3f79: d0 01        	bne	$3f7c <printf+0x927>
    3f7b: 1a           	inc
    3f7c: 86 13        	stx	$13                     ; 0x2013 <main+0x1a32>
    3f7e: 86 89        	stx	$89                     ; 0x2089 <main+0x1aa8>
    3f80: 85 8a        	sta	$8a                     ; 0x208a <main+0x1aa9>
    3f82: a4 5f        	ldy	$5f                     ; 0x205f <main+0x1a7e>
    3f84: a6 5e        	ldx	$5e                     ; 0x205e <main+0x1a7d>
    3f86: 86 12        	stx	$12                     ; 0x2012 <main+0x1a31>
    3f88: 88           	dey
    3f89: c0 ff        	cpy	#$ff
    3f8b: d0 02        	bne	$3f8f <printf+0x93a>
    3f8d: c6 12        	dec	$12                     ; 0x2012 <main+0x1a31>
    3f8f: 84 5f        	sty	$5f                     ; 0x205f <main+0x1a7e>
    3f91: a6 12        	ldx	$12                     ; 0x2012 <main+0x1a31>
    3f93: 86 5e        	stx	$5e                     ; 0x205e <main+0x1a7d>
    3f95: d0 04        	bne	$3f9b <printf+0x946>
    3f97: c0 00        	cpy	#$0
    3f99: f0 14        	beq	$3faf <printf+0x95a>
    3f9b: c5 88        	cmp	$88                     ; 0x2088 <main+0x1aa7>
    3f9d: f0 03        	beq	$3fa2 <printf+0x94d>
    3f9f: 4c 42 3f     	jmp	$3f42 <printf+0x8ed>
    3fa2: a6 87        	ldx	$87                     ; 0x2087 <main+0x1aa6>
    3fa4: 86 12        	stx	$12                     ; 0x2012 <main+0x1a31>
    3fa6: a6 13        	ldx	$13                     ; 0x2013 <main+0x1a32>
    3fa8: e4 12        	cpx	$12                     ; 0x2012 <main+0x1a31>
    3faa: b0 c8        	bcs	$3f74 <printf+0x91f>
    3fac: 4c 46 3f     	jmp	$3f46 <printf+0x8f1>
    3faf: 64 5f        	stz	$5f                     ; 0x205f <main+0x1a7e>
    3fb1: 64 5e        	stz	$5e                     ; 0x205e <main+0x1a7d>
    3fb3: a4 54        	ldy	$54                     ; 0x2054 <main+0x1a73>
    3fb5: a2 00        	ldx	#$0
    3fb7: e4 5d        	cpx	$5d                     ; 0x205d <main+0x1a7c>
    3fb9: d0 07        	bne	$3fc2 <printf+0x96d>
    3fbb: c4 5c        	cpy	$5c                     ; 0x205c <main+0x1a7b>
    3fbd: 90 0a        	bcc	$3fc9 <printf+0x974>
    3fbf: 4c 41 40     	jmp	$4041 <printf+0x9ec>
    3fc2: e4 5d        	cpx	$5d                     ; 0x205d <main+0x1a7c>
    3fc4: 90 03        	bcc	$3fc9 <printf+0x974>
    3fc6: 4c 41 40     	jmp	$4041 <printf+0x9ec>
    3fc9: a6 89        	ldx	$89                     ; 0x2089 <main+0x1aa8>
    3fcb: 86 13        	stx	$13                     ; 0x2013 <main+0x1a32>
    3fcd: a5 8a        	lda	$8a                     ; 0x208a <main+0x1aa9>
    3fcf: a2 ff        	ldx	#$ff
    3fd1: c6 5c        	dec	$5c                     ; 0x205c <main+0x1a7b>
    3fd3: e4 5c        	cpx	$5c                     ; 0x205c <main+0x1a7b>
    3fd5: d0 02        	bne	$3fd9 <printf+0x984>
    3fd7: c6 5d        	dec	$5d                     ; 0x205d <main+0x1a7c>
    3fd9: c5 88        	cmp	$88                     ; 0x2088 <main+0x1aa7>
    3fdb: d0 0c        	bne	$3fe9 <printf+0x994>
    3fdd: a6 87        	ldx	$87                     ; 0x2087 <main+0x1aa6>
    3fdf: 86 12        	stx	$12                     ; 0x2012 <main+0x1a31>
    3fe1: a6 13        	ldx	$13                     ; 0x2013 <main+0x1a32>
    3fe3: e4 12        	cpx	$12                     ; 0x2012 <main+0x1a31>
    3fe5: 90 06        	bcc	$3fed <printf+0x998>
    3fe7: 80 32        	bra	$401b <printf+0x9c6>
    3fe9: c5 88        	cmp	$88                     ; 0x2088 <main+0x1aa7>
    3feb: b0 2e        	bcs	$401b <printf+0x9c6>
    3fed: a6 94        	ldx	$94                     ; 0x2094 <main+0x1ab3>
    3fef: e4 59        	cpx	$59                     ; 0x2059 <main+0x1a78>
    3ff1: d0 19        	bne	$400c <printf+0x9b7>
    3ff3: a6 93        	ldx	$93                     ; 0x2093 <main+0x1ab2>
    3ff5: e4 58        	cpx	$58                     ; 0x2058 <main+0x1a77>
    3ff7: d0 13        	bne	$400c <printf+0x9b7>
    3ff9: 18           	clc
    3ffa: aa           	tax
    3ffb: a5 13        	lda	$13                     ; 0x2013 <main+0x1a32>
    3ffd: 65 8d        	adc	$8d                     ; 0x208d <main+0x1aac>
    3fff: 85 12        	sta	$12                     ; 0x2012 <main+0x1a31>
    4001: 8a           	txa
    4002: 65 8e        	adc	$8e                     ; 0x208e <main+0x1aad>
    4004: 85 13        	sta	$13                     ; 0x2013 <main+0x1a32>
    4006: a9 30        	lda	#$30
    4008: 92 12        	sta	($12)                   ; 0x2012 <main+0x1a31>
    400a: 80 0f        	bra	$401b <printf+0x9c6>
    400c: a2 30        	ldx	#$30
    400e: 86 4d        	stx	$4d                     ; 0x204d <main+0x1a6c>
    4010: a2 4d        	ldx	#$4d
    4012: 86 12        	stx	$12                     ; 0x2012 <main+0x1a31>
    4014: a2 00        	ldx	#$0
    4016: 86 13        	stx	$13                     ; 0x2013 <main+0x1a32>
    4018: 20 a2 22     	jsr	$22a2 <textPrint>
    401b: a6 89        	ldx	$89                     ; 0x2089 <main+0x1aa8>
    401d: a5 8a        	lda	$8a                     ; 0x208a <main+0x1aa9>
    401f: e8           	inx
    4020: d0 01        	bne	$4023 <printf+0x9ce>
    4022: 1a           	inc
    4023: 86 13        	stx	$13                     ; 0x2013 <main+0x1a32>
    4025: 86 89        	stx	$89                     ; 0x2089 <main+0x1aa8>
    4027: 85 8a        	sta	$8a                     ; 0x208a <main+0x1aa9>
    4029: a2 00        	ldx	#$0
    402b: e4 5d        	cpx	$5d                     ; 0x205d <main+0x1a7c>
    402d: d0 09        	bne	$4038 <printf+0x9e3>
    402f: a4 54        	ldy	$54                     ; 0x2054 <main+0x1a73>
    4031: c4 5c        	cpy	$5c                     ; 0x205c <main+0x1a7b>
    4033: b0 0c        	bcs	$4041 <printf+0x9ec>
    4035: 4c cf 3f     	jmp	$3fcf <printf+0x97a>
    4038: e4 5d        	cpx	$5d                     ; 0x205d <main+0x1a7c>
    403a: a4 54        	ldy	$54                     ; 0x2054 <main+0x1a73>
    403c: b0 03        	bcs	$4041 <printf+0x9ec>
    403e: 4c cf 3f     	jmp	$3fcf <printf+0x97a>
    4041: 98           	tya
    4042: d0 03        	bne	$4047 <printf+0x9f2>
    4044: 4c 4a 41     	jmp	$414a <printf+0xaf5>
    4047: 88           	dey
    4048: d0 03        	bne	$404d <printf+0x9f8>
    404a: 4c df 40     	jmp	$40df <printf+0xa8a>
    404d: 84 5c        	sty	$5c                     ; 0x205c <main+0x1a7b>
    404f: a6 9f        	ldx	$9f                     ; 0x209f <main+0x1abe>
    4051: 8a           	txa
    4052: 18           	clc
    4053: 65 5c        	adc	$5c                     ; 0x205c <main+0x1a7b>
    4055: 85 54        	sta	$54                     ; 0x2054 <main+0x1a73>
    4057: a5 a0        	lda	$a0                     ; 0x20a0 <main+0x1abf>
    4059: 69 00        	adc	#$0
    405b: 85 55        	sta	$55                     ; 0x2055 <main+0x1a74>
    405d: 4c d1 40     	jmp	$40d1 <printf+0xa7c>
    4060: a8           	tay
    4061: a9 80        	lda	#$80
    4063: 25 85        	and	$85                     ; 0x2085 <main+0x1aa4>
    4065: f0 04        	beq	$406b <printf+0xa16>
    4067: a2 61        	ldx	#$61
    4069: 80 02        	bra	$406d <printf+0xa18>
    406b: a2 41        	ldx	#$41
    406d: 86 12        	stx	$12                     ; 0x2012 <main+0x1a31>
    406f: 18           	clc
    4070: 98           	tya
    4071: 65 12        	adc	$12                     ; 0x2012 <main+0x1a31>
    4073: 18           	clc
    4074: 69 f6        	adc	#$f6
    4076: a4 89        	ldy	$89                     ; 0x2089 <main+0x1aa8>
    4078: a6 8a        	ldx	$8a                     ; 0x208a <main+0x1aa9>
    407a: e4 88        	cpx	$88                     ; 0x2088 <main+0x1aa7>
    407c: d0 0c        	bne	$408a <printf+0xa35>
    407e: 86 14        	stx	$14                     ; 0x2014 <main+0x1a33>
    4080: a6 87        	ldx	$87                     ; 0x2087 <main+0x1aa6>
    4082: 86 12        	stx	$12                     ; 0x2012 <main+0x1a31>
    4084: c4 12        	cpy	$12                     ; 0x2012 <main+0x1a31>
    4086: 90 08        	bcc	$4090 <printf+0xa3b>
    4088: 80 31        	bra	$40bb <printf+0xa66>
    408a: 86 14        	stx	$14                     ; 0x2014 <main+0x1a33>
    408c: e4 88        	cpx	$88                     ; 0x2088 <main+0x1aa7>
    408e: b0 2b        	bcs	$40bb <printf+0xa66>
    4090: a6 94        	ldx	$94                     ; 0x2094 <main+0x1ab3>
    4092: e4 59        	cpx	$59                     ; 0x2059 <main+0x1a78>
    4094: d0 18        	bne	$40ae <printf+0xa59>
    4096: a6 93        	ldx	$93                     ; 0x2093 <main+0x1ab2>
    4098: e4 58        	cpx	$58                     ; 0x2058 <main+0x1a77>
    409a: d0 12        	bne	$40ae <printf+0xa59>
    409c: 18           	clc
    409d: aa           	tax
    409e: 98           	tya
    409f: 65 8d        	adc	$8d                     ; 0x208d <main+0x1aac>
    40a1: 85 12        	sta	$12                     ; 0x2012 <main+0x1a31>
    40a3: a5 14        	lda	$14                     ; 0x2014 <main+0x1a33>
    40a5: 65 8e        	adc	$8e                     ; 0x208e <main+0x1aad>
    40a7: 85 13        	sta	$13                     ; 0x2013 <main+0x1a32>
    40a9: 8a           	txa
    40aa: 92 12        	sta	($12)                   ; 0x2012 <main+0x1a31>
    40ac: 80 0d        	bra	$40bb <printf+0xa66>
    40ae: 85 4d        	sta	$4d                     ; 0x204d <main+0x1a6c>
    40b0: a2 4d        	ldx	#$4d
    40b2: 86 12        	stx	$12                     ; 0x2012 <main+0x1a31>
    40b4: a2 00        	ldx	#$0
    40b6: 86 13        	stx	$13                     ; 0x2013 <main+0x1a32>
    40b8: 20 a2 22     	jsr	$22a2 <textPrint>
    40bb: e6 89        	inc	$89                     ; 0x2089 <main+0x1aa8>
    40bd: d0 02        	bne	$40c1 <printf+0xa6c>
    40bf: e6 8a        	inc	$8a                     ; 0x208a <main+0x1aa9>
    40c1: c6 5c        	dec	$5c                     ; 0x205c <main+0x1a7b>
    40c3: a2 ff        	ldx	#$ff
    40c5: c6 54        	dec	$54                     ; 0x2054 <main+0x1a73>
    40c7: e4 54        	cpx	$54                     ; 0x2054 <main+0x1a73>
    40c9: d0 02        	bne	$40cd <printf+0xa78>
    40cb: c6 55        	dec	$55                     ; 0x2055 <main+0x1a74>
    40cd: a5 5c        	lda	$5c                     ; 0x205c <main+0x1a7b>
    40cf: f0 0e        	beq	$40df <printf+0xa8a>
    40d1: b2 54        	lda	($54)                   ; 0x2054 <main+0x1a73>
    40d3: c9 0a        	cmp	#$a
    40d5: 90 03        	bcc	$40da <printf+0xa85>
    40d7: 4c 60 40     	jmp	$4060 <printf+0xa0b>
    40da: 09 30        	ora	#$30
    40dc: 4c 76 40     	jmp	$4076 <printf+0xa21>
    40df: a5 62        	lda	$62                     ; 0x2062 <main+0x1a81>
    40e1: c9 0a        	cmp	#$a
    40e3: b0 04        	bcs	$40e9 <printf+0xa94>
    40e5: 09 30        	ora	#$30
    40e7: 80 16        	bra	$40ff <printf+0xaaa>
    40e9: a8           	tay
    40ea: a9 80        	lda	#$80
    40ec: 25 85        	and	$85                     ; 0x2085 <main+0x1aa4>
    40ee: f0 04        	beq	$40f4 <printf+0xa9f>
    40f0: a2 61        	ldx	#$61
    40f2: 80 02        	bra	$40f6 <printf+0xaa1>
    40f4: a2 41        	ldx	#$41
    40f6: 86 12        	stx	$12                     ; 0x2012 <main+0x1a31>
    40f8: 18           	clc
    40f9: 98           	tya
    40fa: 65 12        	adc	$12                     ; 0x2012 <main+0x1a31>
    40fc: 18           	clc
    40fd: 69 f6        	adc	#$f6
    40ff: a4 89        	ldy	$89                     ; 0x2089 <main+0x1aa8>
    4101: a6 8a        	ldx	$8a                     ; 0x208a <main+0x1aa9>
    4103: e4 88        	cpx	$88                     ; 0x2088 <main+0x1aa7>
    4105: d0 0c        	bne	$4113 <printf+0xabe>
    4107: 86 14        	stx	$14                     ; 0x2014 <main+0x1a33>
    4109: a6 87        	ldx	$87                     ; 0x2087 <main+0x1aa6>
    410b: 86 12        	stx	$12                     ; 0x2012 <main+0x1a31>
    410d: c4 12        	cpy	$12                     ; 0x2012 <main+0x1a31>
    410f: 90 08        	bcc	$4119 <printf+0xac4>
    4111: 80 31        	bra	$4144 <printf+0xaef>
    4113: 86 14        	stx	$14                     ; 0x2014 <main+0x1a33>
    4115: e4 88        	cpx	$88                     ; 0x2088 <main+0x1aa7>
    4117: b0 2b        	bcs	$4144 <printf+0xaef>
    4119: a6 94        	ldx	$94                     ; 0x2094 <main+0x1ab3>
    411b: e4 59        	cpx	$59                     ; 0x2059 <main+0x1a78>
    411d: d0 18        	bne	$4137 <printf+0xae2>
    411f: a6 93        	ldx	$93                     ; 0x2093 <main+0x1ab2>
    4121: e4 58        	cpx	$58                     ; 0x2058 <main+0x1a77>
    4123: d0 12        	bne	$4137 <printf+0xae2>
    4125: 18           	clc
    4126: aa           	tax
    4127: 98           	tya
    4128: 65 8d        	adc	$8d                     ; 0x208d <main+0x1aac>
    412a: 85 12        	sta	$12                     ; 0x2012 <main+0x1a31>
    412c: a5 14        	lda	$14                     ; 0x2014 <main+0x1a33>
    412e: 65 8e        	adc	$8e                     ; 0x208e <main+0x1aad>
    4130: 85 13        	sta	$13                     ; 0x2013 <main+0x1a32>
    4132: 8a           	txa
    4133: 92 12        	sta	($12)                   ; 0x2012 <main+0x1a31>
    4135: 80 0d        	bra	$4144 <printf+0xaef>
    4137: 85 4d        	sta	$4d                     ; 0x204d <main+0x1a6c>
    4139: a2 4d        	ldx	#$4d
    413b: 86 12        	stx	$12                     ; 0x2012 <main+0x1a31>
    413d: a2 00        	ldx	#$0
    413f: 86 13        	stx	$13                     ; 0x2013 <main+0x1a32>
    4141: 20 a2 22     	jsr	$22a2 <textPrint>
    4144: e6 89        	inc	$89                     ; 0x2089 <main+0x1aa8>
    4146: d0 02        	bne	$414a <printf+0xaf5>
    4148: e6 8a        	inc	$8a                     ; 0x208a <main+0x1aa9>
    414a: a5 85        	lda	$85                     ; 0x2085 <main+0x1aa4>
    414c: 29 01        	and	#$1
    414e: d0 1e        	bne	$416e <printf+0xb19>
    4150: a6 89        	ldx	$89                     ; 0x2089 <main+0x1aa8>
    4152: 86 14        	stx	$14                     ; 0x2014 <main+0x1a33>
    4154: a5 8a        	lda	$8a                     ; 0x208a <main+0x1aa9>
    4156: a4 87        	ldy	$87                     ; 0x2087 <main+0x1aa6>
    4158: a6 88        	ldx	$88                     ; 0x2088 <main+0x1aa7>
    415a: 86 12        	stx	$12                     ; 0x2012 <main+0x1a31>
    415c: 86 13        	stx	$13                     ; 0x2013 <main+0x1a32>
    415e: c5 12        	cmp	$12                     ; 0x2012 <main+0x1a31>
    4160: f0 03        	beq	$4165 <printf+0xb10>
    4162: 4c fb 41     	jmp	$41fb <printf+0xba6>
    4165: 84 12        	sty	$12                     ; 0x2012 <main+0x1a31>
    4167: a6 14        	ldx	$14                     ; 0x2014 <main+0x1a33>
    4169: e4 12        	cpx	$12                     ; 0x2012 <main+0x1a31>
    416b: 4c ff 41     	jmp	$41ff <printf+0xbaa>
    416e: a6 89        	ldx	$89                     ; 0x2089 <main+0x1aa8>
    4170: 86 14        	stx	$14                     ; 0x2014 <main+0x1a33>
    4172: a5 8a        	lda	$8a                     ; 0x208a <main+0x1aa9>
    4174: a6 5f        	ldx	$5f                     ; 0x205f <main+0x1a7e>
    4176: a4 5e        	ldy	$5e                     ; 0x205e <main+0x1a7d>
    4178: f0 03        	beq	$417d <printf+0xb28>
    417a: 4c e7 41     	jmp	$41e7 <printf+0xb92>
    417d: e0 00        	cpx	#$0
    417f: f0 d5        	beq	$4156 <printf+0xb01>
    4181: 4c e7 41     	jmp	$41e7 <printf+0xb92>
    4184: c5 88        	cmp	$88                     ; 0x2088 <main+0x1aa7>
    4186: b0 2e        	bcs	$41b6 <printf+0xb61>
    4188: a6 94        	ldx	$94                     ; 0x2094 <main+0x1ab3>
    418a: e4 59        	cpx	$59                     ; 0x2059 <main+0x1a78>
    418c: d0 19        	bne	$41a7 <printf+0xb52>
    418e: a6 93        	ldx	$93                     ; 0x2093 <main+0x1ab2>
    4190: e4 58        	cpx	$58                     ; 0x2058 <main+0x1a77>
    4192: d0 13        	bne	$41a7 <printf+0xb52>
    4194: 18           	clc
    4195: aa           	tax
    4196: a5 14        	lda	$14                     ; 0x2014 <main+0x1a33>
    4198: 65 8d        	adc	$8d                     ; 0x208d <main+0x1aac>
    419a: 85 12        	sta	$12                     ; 0x2012 <main+0x1a31>
    419c: 8a           	txa
    419d: 65 8e        	adc	$8e                     ; 0x208e <main+0x1aad>
    419f: 85 13        	sta	$13                     ; 0x2013 <main+0x1a32>
    41a1: a9 20        	lda	#$20
    41a3: 92 12        	sta	($12)                   ; 0x2012 <main+0x1a31>
    41a5: 80 0f        	bra	$41b6 <printf+0xb61>
    41a7: a2 20        	ldx	#$20
    41a9: 86 4d        	stx	$4d                     ; 0x204d <main+0x1a6c>
    41ab: a2 4d        	ldx	#$4d
    41ad: 86 12        	stx	$12                     ; 0x2012 <main+0x1a31>
    41af: a2 00        	ldx	#$0
    41b1: 86 13        	stx	$13                     ; 0x2013 <main+0x1a32>
    41b3: 20 a2 22     	jsr	$22a2 <textPrint>
    41b6: a6 89        	ldx	$89                     ; 0x2089 <main+0x1aa8>
    41b8: a5 8a        	lda	$8a                     ; 0x208a <main+0x1aa9>
    41ba: e8           	inx
    41bb: d0 01        	bne	$41be <printf+0xb69>
    41bd: 1a           	inc
    41be: 86 14        	stx	$14                     ; 0x2014 <main+0x1a33>
    41c0: 86 89        	stx	$89                     ; 0x2089 <main+0x1aa8>
    41c2: 85 8a        	sta	$8a                     ; 0x208a <main+0x1aa9>
    41c4: a6 5f        	ldx	$5f                     ; 0x205f <main+0x1a7e>
    41c6: 86 12        	stx	$12                     ; 0x2012 <main+0x1a31>
    41c8: a6 5e        	ldx	$5e                     ; 0x205e <main+0x1a7d>
    41ca: 86 13        	stx	$13                     ; 0x2013 <main+0x1a32>
    41cc: a2 ff        	ldx	#$ff
    41ce: c6 12        	dec	$12                     ; 0x2012 <main+0x1a31>
    41d0: e4 12        	cpx	$12                     ; 0x2012 <main+0x1a31>
    41d2: d0 02        	bne	$41d6 <printf+0xb81>
    41d4: c6 13        	dec	$13                     ; 0x2013 <main+0x1a32>
    41d6: a6 12        	ldx	$12                     ; 0x2012 <main+0x1a31>
    41d8: 86 5f        	stx	$5f                     ; 0x205f <main+0x1a7e>
    41da: a6 13        	ldx	$13                     ; 0x2013 <main+0x1a32>
    41dc: 86 5e        	stx	$5e                     ; 0x205e <main+0x1a7d>
    41de: d0 07        	bne	$41e7 <printf+0xb92>
    41e0: a6 12        	ldx	$12                     ; 0x2012 <main+0x1a31>
    41e2: d0 03        	bne	$41e7 <printf+0xb92>
    41e4: 4c 56 41     	jmp	$4156 <printf+0xb01>
    41e7: c5 88        	cmp	$88                     ; 0x2088 <main+0x1aa7>
    41e9: f0 03        	beq	$41ee <printf+0xb99>
    41eb: 4c 84 41     	jmp	$4184 <printf+0xb2f>
    41ee: a6 87        	ldx	$87                     ; 0x2087 <main+0x1aa6>
    41f0: 86 12        	stx	$12                     ; 0x2012 <main+0x1a31>
    41f2: a6 14        	ldx	$14                     ; 0x2014 <main+0x1a33>
    41f4: e4 12        	cpx	$12                     ; 0x2012 <main+0x1a31>
    41f6: b0 be        	bcs	$41b6 <printf+0xb61>
    41f8: 4c 88 41     	jmp	$4188 <printf+0xb33>
    41fb: 86 12        	stx	$12                     ; 0x2012 <main+0x1a31>
    41fd: c5 12        	cmp	$12                     ; 0x2012 <main+0x1a31>
    41ff: 98           	tya
    4200: a0 01        	ldy	#$1
    4202: 90 20        	bcc	$4224 <printf+0xbcf>
    4204: a6 13        	ldx	$13                     ; 0x2013 <main+0x1a32>
    4206: d0 03        	bne	$420b <printf+0xbb6>
    4208: aa           	tax
    4209: f0 19        	beq	$4224 <printf+0xbcf>
    420b: 18           	clc
    420c: 65 8d        	adc	$8d                     ; 0x208d <main+0x1aac>
    420e: 85 12        	sta	$12                     ; 0x2012 <main+0x1a31>
    4210: a5 13        	lda	$13                     ; 0x2013 <main+0x1a32>
    4212: 65 8e        	adc	$8e                     ; 0x208e <main+0x1aad>
    4214: 85 13        	sta	$13                     ; 0x2013 <main+0x1a32>
    4216: a2 ff        	ldx	#$ff
    4218: c6 12        	dec	$12                     ; 0x2012 <main+0x1a31>
    421a: e4 12        	cpx	$12                     ; 0x2012 <main+0x1a31>
    421c: d0 02        	bne	$4220 <printf+0xbcb>
    421e: c6 13        	dec	$13                     ; 0x2013 <main+0x1a32>
    4220: a9 00        	lda	#$0
    4222: 92 12        	sta	($12)                   ; 0x2012 <main+0x1a31>
    4224: e6 56        	inc	$56                     ; 0x2056 <main+0x1a75>
    4226: d0 02        	bne	$422a <printf+0xbd5>
    4228: e6 57        	inc	$57                     ; 0x2057 <main+0x1a76>
    422a: a6 57        	ldx	$57                     ; 0x2057 <main+0x1a76>
    422c: e4 5b        	cpx	$5b                     ; 0x205b <main+0x1a7a>
    422e: f0 03        	beq	$4233 <printf+0xbde>
    4230: 4c ba 36     	jmp	$36ba <printf+0x65>
    4233: a6 56        	ldx	$56                     ; 0x2056 <main+0x1a75>
    4235: e4 5a        	cpx	$5a                     ; 0x205a <main+0x1a79>
    4237: f0 03        	beq	$423c <printf+0xbe7>
    4239: 4c ba 36     	jmp	$36ba <printf+0x65>
    423c: b2 5a        	lda	($5a)                   ; 0x205a <main+0x1a79>
    423e: a2 00        	ldx	#$0
    4240: 86 58        	stx	$58                     ; 0x2058 <main+0x1a77>
    4242: a2 00        	ldx	#$0
    4244: 86 59        	stx	$59                     ; 0x2059 <main+0x1a78>
    4246: 4c ce 36     	jmp	$36ce <printf+0x79>
    4249: e4 5d        	cpx	$5d                     ; 0x205d <main+0x1a7c>
    424b: a6 55        	ldx	$55                     ; 0x2055 <main+0x1a74>
    424d: b0 03        	bcs	$4252 <printf+0xbfd>
    424f: 4c 1f 3d     	jmp	$3d1f <printf+0x6ca>
    4252: a5 54        	lda	$54                     ; 0x2054 <main+0x1a73>
    4254: 85 5c        	sta	$5c                     ; 0x205c <main+0x1a7b>
    4256: 64 5d        	stz	$5d                     ; 0x205d <main+0x1a7c>
    4258: e6 5c        	inc	$5c                     ; 0x205c <main+0x1a7b>
    425a: f0 03        	beq	$425f <printf+0xc0a>
    425c: 4c 1f 3d     	jmp	$3d1f <printf+0x6ca>
    425f: e6 5d        	inc	$5d                     ; 0x205d <main+0x1a7c>
    4261: 4c 1f 3d     	jmp	$3d1f <printf+0x6ca>
    4264: a2 58        	ldx	#$58
    4266: 86 9e        	stx	$9e                     ; 0x209e <main+0x1abd>
    4268: a2 01        	ldx	#$1
    426a: 86 99        	stx	$99                     ; 0x2099 <main+0x1ab8>
    426c: a2 30        	ldx	#$30
    426e: 86 9d        	stx	$9d                     ; 0x209d <main+0x1abc>
    4270: a9 02        	lda	#$2
    4272: a2 00        	ldx	#$0
    4274: 86 9a        	stx	$9a                     ; 0x209a <main+0x1ab9>
    4276: 4c 60 3d     	jmp	$3d60 <printf+0x70b>
    4279: 64 5f        	stz	$5f                     ; 0x205f <main+0x1a7e>
    427b: 64 5e        	stz	$5e                     ; 0x205e <main+0x1a7d>
    427d: 4c b5 3f     	jmp	$3fb5 <printf+0x960>
    4280: 60           	rts

00004281 <memcpy>:
    4281: a8           	tay
    4282: 8a           	txa
    4283: d0 03        	bne	$4288 <memcpy+0x7>
    4285: 98           	tya
    4286: f0 24        	beq	$42ac <memcpy+0x2b>
    4288: a5 12        	lda	$12                     ; 0x2012 <main+0x1a31>
    428a: 85 16        	sta	$16                     ; 0x2016 <main+0x1a35>
    428c: a5 13        	lda	$13                     ; 0x2013 <main+0x1a32>
    428e: 85 17        	sta	$17                     ; 0x2017 <main+0x1a36>
    4290: b2 14        	lda	($14)                   ; 0x2014 <main+0x1a33>
    4292: 92 16        	sta	($16)                   ; 0x2016 <main+0x1a35>
    4294: e6 16        	inc	$16                     ; 0x2016 <main+0x1a35>
    4296: d0 02        	bne	$429a <memcpy+0x19>
    4298: e6 17        	inc	$17                     ; 0x2017 <main+0x1a36>
    429a: e6 14        	inc	$14                     ; 0x2014 <main+0x1a33>
    429c: d0 02        	bne	$42a0 <memcpy+0x1f>
    429e: e6 15        	inc	$15                     ; 0x2015 <main+0x1a34>
    42a0: 88           	dey
    42a1: c0 ff        	cpy	#$ff
    42a3: d0 01        	bne	$42a6 <memcpy+0x25>
    42a5: ca           	dex
    42a6: 8a           	txa
    42a7: d0 e7        	bne	$4290 <memcpy+0xf>
    42a9: 98           	tya
    42aa: d0 e4        	bne	$4290 <memcpy+0xf>
    42ac: 60           	rts

000042ad <__memset>:
    42ad: a4 14        	ldy	$14                     ; 0x2014 <main+0x1a33>
    42af: d0 04        	bne	$42b5 <__memset+0x8>
    42b1: e0 00        	cpx	#$0
    42b3: f0 17        	beq	$42cc <__memset+0x1f>
    42b5: 92 12        	sta	($12)                   ; 0x2012 <main+0x1a31>
    42b7: e6 12        	inc	$12                     ; 0x2012 <main+0x1a31>
    42b9: d0 02        	bne	$42bd <__memset+0x10>
    42bb: e6 13        	inc	$13                     ; 0x2013 <main+0x1a32>
    42bd: ca           	dex
    42be: e0 ff        	cpx	#$ff
    42c0: d0 02        	bne	$42c4 <__memset+0x17>
    42c2: c6 14        	dec	$14                     ; 0x2014 <main+0x1a33>
    42c4: a4 14        	ldy	$14                     ; 0x2014 <main+0x1a33>
    42c6: d0 ed        	bne	$42b5 <__memset+0x8>
    42c8: e0 00        	cpx	#$0
    42ca: d0 e9        	bne	$42b5 <__memset+0x8>
    42cc: 60           	rts

000042cd <__udivmodhi4>:
    42cd: 86 1a        	stx	$1a                     ; 0x201a <main+0x1a39>
    42cf: 64 16        	stz	$16                     ; 0x2016 <main+0x1a35>
    42d1: a4 13        	ldy	$13                     ; 0x2013 <main+0x1a32>
    42d3: d0 04        	bne	$42d9 <__udivmodhi4+0xc>
    42d5: a4 12        	ldy	$12                     ; 0x2012 <main+0x1a31>
    42d7: f0 08        	beq	$42e1 <__udivmodhi4+0x14>
    42d9: e4 13        	cpx	$13                     ; 0x2013 <main+0x1a32>
    42db: d0 0d        	bne	$42ea <__udivmodhi4+0x1d>
    42dd: c5 12        	cmp	$12                     ; 0x2012 <main+0x1a31>
    42df: b0 0d        	bcs	$42ee <__udivmodhi4+0x21>
    42e1: a6 1a        	ldx	$1a                     ; 0x201a <main+0x1a39>
    42e3: 86 12        	stx	$12                     ; 0x2012 <main+0x1a31>
    42e5: a2 00        	ldx	#$0
    42e7: 4c 92 43     	jmp	$4392 <__udivmodhi4+0xc5>
    42ea: e4 13        	cpx	$13                     ; 0x2013 <main+0x1a32>
    42ec: 90 f3        	bcc	$42e1 <__udivmodhi4+0x14>
    42ee: a6 13        	ldx	$13                     ; 0x2013 <main+0x1a32>
    42f0: 10 03        	bpl	$42f5 <__udivmodhi4+0x28>
    42f2: 4c 85 43     	jmp	$4385 <__udivmodhi4+0xb8>
    42f5: a2 00        	ldx	#$0
    42f7: a4 12        	ldy	$12                     ; 0x2012 <main+0x1a31>
    42f9: 84 17        	sty	$17                     ; 0x2017 <main+0x1a36>
    42fb: a4 13        	ldy	$13                     ; 0x2013 <main+0x1a32>
    42fd: 84 18        	sty	$18                     ; 0x2018 <main+0x1a37>
    42ff: 06 17        	asl	$17                     ; 0x2017 <main+0x1a36>
    4301: 26 18        	rol	$18                     ; 0x2018 <main+0x1a37>
    4303: a4 1a        	ldy	$1a                     ; 0x201a <main+0x1a39>
    4305: c4 18        	cpy	$18                     ; 0x2018 <main+0x1a37>
    4307: d0 06        	bne	$430f <__udivmodhi4+0x42>
    4309: c5 17        	cmp	$17                     ; 0x2017 <main+0x1a36>
    430b: b0 08        	bcs	$4315 <__udivmodhi4+0x48>
    430d: 80 13        	bra	$4322 <__udivmodhi4+0x55>
    430f: a4 1a        	ldy	$1a                     ; 0x201a <main+0x1a39>
    4311: c4 18        	cpy	$18                     ; 0x2018 <main+0x1a37>
    4313: 90 0d        	bcc	$4322 <__udivmodhi4+0x55>
    4315: e8           	inx
    4316: a4 17        	ldy	$17                     ; 0x2017 <main+0x1a36>
    4318: 84 12        	sty	$12                     ; 0x2012 <main+0x1a31>
    431a: a4 18        	ldy	$18                     ; 0x2018 <main+0x1a37>
    431c: 84 13        	sty	$13                     ; 0x2013 <main+0x1a32>
    431e: 10 df        	bpl	$42ff <__udivmodhi4+0x32>
    4320: 80 08        	bra	$432a <__udivmodhi4+0x5d>
    4322: a4 12        	ldy	$12                     ; 0x2012 <main+0x1a31>
    4324: 84 17        	sty	$17                     ; 0x2017 <main+0x1a36>
    4326: a4 13        	ldy	$13                     ; 0x2013 <main+0x1a32>
    4328: 84 18        	sty	$18                     ; 0x2018 <main+0x1a37>
    432a: 38           	sec
    432b: e5 17        	sbc	$17                     ; 0x2017 <main+0x1a36>
    432d: a8           	tay
    432e: a5 1a        	lda	$1a                     ; 0x201a <main+0x1a39>
    4330: e5 18        	sbc	$18                     ; 0x2018 <main+0x1a37>
    4332: 85 12        	sta	$12                     ; 0x2012 <main+0x1a31>
    4334: 8a           	txa
    4335: d0 03        	bne	$433a <__udivmodhi4+0x6d>
    4337: 4c a1 43     	jmp	$43a1 <__udivmodhi4+0xd4>
    433a: a9 01        	lda	#$1
    433c: 85 51        	sta	$51                     ; 0x2051 <main+0x1a70>
    433e: 64 16        	stz	$16                     ; 0x2016 <main+0x1a35>
    4340: 98           	tya
    4341: 46 18        	lsr	$18                     ; 0x2018 <main+0x1a37>
    4343: 66 17        	ror	$17                     ; 0x2017 <main+0x1a36>
    4345: a4 51        	ldy	$51                     ; 0x2051 <main+0x1a70>
    4347: 84 13        	sty	$13                     ; 0x2013 <main+0x1a32>
    4349: 06 13        	asl	$13                     ; 0x2013 <main+0x1a32>
    434b: a0 01        	ldy	#$1
    434d: b0 02        	bcs	$4351 <__udivmodhi4+0x84>
    434f: a0 00        	ldy	#$0
    4351: 84 19        	sty	$19                     ; 0x2019 <main+0x1a38>
    4353: a4 13        	ldy	$13                     ; 0x2013 <main+0x1a32>
    4355: 84 51        	sty	$51                     ; 0x2051 <main+0x1a70>
    4357: a4 12        	ldy	$12                     ; 0x2012 <main+0x1a31>
    4359: c4 18        	cpy	$18                     ; 0x2018 <main+0x1a37>
    435b: d0 22        	bne	$437f <__udivmodhi4+0xb2>
    435d: c5 17        	cmp	$17                     ; 0x2017 <main+0x1a36>
    435f: 90 13        	bcc	$4374 <__udivmodhi4+0xa7>
    4361: a8           	tay
    4362: a5 51        	lda	$51                     ; 0x2051 <main+0x1a70>
    4364: 09 01        	ora	#$1
    4366: 85 51        	sta	$51                     ; 0x2051 <main+0x1a70>
    4368: 38           	sec
    4369: 98           	tya
    436a: e5 17        	sbc	$17                     ; 0x2017 <main+0x1a36>
    436c: a8           	tay
    436d: a5 12        	lda	$12                     ; 0x2012 <main+0x1a31>
    436f: e5 18        	sbc	$18                     ; 0x2018 <main+0x1a37>
    4371: 85 12        	sta	$12                     ; 0x2012 <main+0x1a31>
    4373: 98           	tya
    4374: a4 19        	ldy	$19                     ; 0x2019 <main+0x1a38>
    4376: c0 01        	cpy	#$1
    4378: 26 16        	rol	$16                     ; 0x2016 <main+0x1a35>
    437a: ca           	dex
    437b: d0 c4        	bne	$4341 <__udivmodhi4+0x74>
    437d: 80 15        	bra	$4394 <__udivmodhi4+0xc7>
    437f: c4 18        	cpy	$18                     ; 0x2018 <main+0x1a37>
    4381: b0 de        	bcs	$4361 <__udivmodhi4+0x94>
    4383: 80 ef        	bra	$4374 <__udivmodhi4+0xa7>
    4385: 38           	sec
    4386: e5 12        	sbc	$12                     ; 0x2012 <main+0x1a31>
    4388: aa           	tax
    4389: a5 1a        	lda	$1a                     ; 0x201a <main+0x1a39>
    438b: e5 13        	sbc	$13                     ; 0x2013 <main+0x1a32>
    438d: 85 12        	sta	$12                     ; 0x2012 <main+0x1a31>
    438f: 8a           	txa
    4390: a2 01        	ldx	#$1
    4392: 86 51        	stx	$51                     ; 0x2051 <main+0x1a70>
    4394: 92 14        	sta	($14)                   ; 0x2014 <main+0x1a33>
    4396: a0 01        	ldy	#$1
    4398: a5 12        	lda	$12                     ; 0x2012 <main+0x1a31>
    439a: 91 14        	sta	($14),y                 ; 0x2014 <main+0x1a33>
    439c: a6 16        	ldx	$16                     ; 0x2016 <main+0x1a35>
    439e: a5 51        	lda	$51                     ; 0x2051 <main+0x1a70>
    43a0: 60           	rts
    43a1: a2 01        	ldx	#$1
    43a3: 86 51        	stx	$51                     ; 0x2051 <main+0x1a70>
    43a5: 98           	tya
    43a6: 80 ec        	bra	$4394 <__udivmodhi4+0xc7>
