
midiTest.elf:	file format elf32-mos

SYMBOL TABLE:
00000000 l    df *ABS*	00000000 zero-bss.c
00000000 l    df *ABS*	00000000 zero-zp-bss.c
00000000 l    df *ABS*	00000000 copy-zp-data.c
00000000 l    df *ABS*	00000000 ld-temp.o
0000049e l     F .text	000003a0 f256Init
00000046 l     O .zp.bss	00000007 kernelEventData
00000030 l     O .zp.data	00000001 _ccolor
00006e64 l     O .rodata	00000030 textColors
0000004d l     O .zp.bss	00000001 _col
0000004e l     O .zp.bss	00000001 _row
00007a1f l     O .bss	00000004 _BITMAP_BASE.0
00007a6f l     O .bss	00000001 kernelError
00000844 l     F .text	00002cde f256main
00003796 l     F .text	0000027b textTitle
00003a11 l     F .text	0000031d refreshInstrumentText
00007a23 l     O .bss	0000004c theBeats
00004e3e l     F .text	000002ad malloc
000036da l     F .text	00000064 prepTempoLUT
0000007b l     O .zp.bss	00000001 spaceNotetimer.2
0000007c l     O .zp.bss	00000001 refTimer.1
00000052 l     O .zp.bss	00000014 prgInst
00000031 l     O .zp.data	00000002 note
0000007d l     O .zp.bss	00000002 oldCursorNote
00003522 l     F .text	000001b8 textPrint
00004282 l     F .text	00000bb0 printf
00000066 l     O .zp.bss	00000001 chSelect
00000067 l     O .zp.bss	00000001 isTwinLinked
00006e94 l     O .rodata	00000058 noteColors
00007919 l     O .rodata	00000100 midi_instruments
0000007f l     O .zp.bss	00000002 oldNote
0000007a l     O .zp.bss	00000001 spaceNotetimer.1
00000051 l     O .zp.bss	00000001 selectBeat
00005180 l     F .text	00000032 __mulhi3
00003e08 l     F .text	000000ef refreshBeatTextChoice
00000045 l     O .zp.data	00000001 mainTempo
0000373e l     F .text	00000058 updateTempoText
00000068 l     O .zp.bss	00000012 mainTempoLUT
00003ef7 l     F .text	000000e0 highLightInstChoice
00005165 l     F .text	0000001b __mulqi3
00004e32 l     F .text	0000000c putchar
00003d2e l     F .text	000000da channelTextMenu
000069f0 l     F .text	00000353 __floatunsisf
00000033 l     O .zp.data	00000012 tempoLUTRef
0000553c l     F .text	000008b8 __mulsf3
00005df4 l     F .text	00000b80 __divsf3
00006974 l     F .text	0000007c __fixunssfsi
00003fd7 l     F .text	000000bb textPrintUInt
00005461 l     F .text	000000db __udivmodhi4
0000531a l     F .text	00000147 __umodsi3
00004092 l     F .text	0000000d __putchar
0000004f l     O .zp.bss	00000002 __putchar.s
000040a4 l     F .text	000000d1 _ZN12_GLOBAL__N_13putEcP6Status
00004175 l     F .text	0000010d _ZN12_GLOBAL__N_112print_stringEPKcP6Status
00000081 l     O .zp.bss	00000001 _ZN12_GLOBAL__N_111initializedE
0000032e l     F .text	00000133 _ZN12_GLOBAL__N_19FreeChunk6insertEPvj
00000084 l     O .zp.bss	00000002 _ZN12_GLOBAL__N_19free_listE
00000082 l     O .zp.bss	00000002 _ZN12_GLOBAL__N_19free_sizeE
00005137 l     F .text	00000017 __ashlsi3
0000514e l     F .text	00000017 __lshrsi3
000051b2 l     F .text	00000070 __mulsi3
00005222 l     F .text	000000f8 __muldi3
0000083e g     F .text	00000006 main
00030000 g       .pia1	00000000 pia1_end
0003ac00 g       .pia3	00000000 pia3_end
00038000 g       .pia2	00000000 pia2_end
00038000 g       .pia3	00000000 pia3_start
000203fc g       .palpiano	00000000 palpiano_end
00028000 g       .pia1	00000000 pia1_start
00020000 g       .palpiano	00000000 palpiano_start
00030000 g       .pia2	00000000 pia2_start
0000032a g       .text	00000000 __after_main
00000316 g       .text	00000000 __do_init_stack
00000324 g       .text	00000000 __do_copy_zp_data
00000487 g     F .text	00000017 __copy_zp_data
0000031e g       .text	00000000 __do_zero_bss
00000461 g     F .text	00000013 __zero_bss
00000321 g       .text	00000000 __do_zero_zp_bss
00000474 g     F .text	00000013 __zero_zp_bss
0000409f g     F .text	00000005 exit
0000032d g       .text	00000000 _fini
00006d43 g       .rodata	00000000 __set_v
00005117  w    F .text	00000020 __memset
00001000  w      *ABS*	00000000 __heap_default_limit
00007a70 g       .noinit	00000000 __heap_start
000050eb  w    F .text	0000002c memcpy
00000010 g       *ABS*	00000000 __rc0
00000012 g       *ABS*	00000000 __rc2
00000014 g       *ABS*	00000000 __rc4
00000016 g       *ABS*	00000000 __rc6
00000018 g       *ABS*	00000000 __rc8
0000001a g       *ABS*	00000000 __rc10
0000001c g       *ABS*	00000000 __rc12
0000001e g       *ABS*	00000000 __rc14
00000020 g       *ABS*	00000000 __rc16
00000022 g       *ABS*	00000000 __rc18
00000024 g       *ABS*	00000000 __rc20
00000026 g       *ABS*	00000000 __rc22
00000028 g       *ABS*	00000000 __rc24
0000002a g       *ABS*	00000000 __rc26
0000002c g       *ABS*	00000000 __rc28
0000002e g       *ABS*	00000000 __rc30
0000002f g       *ABS*	00000000 __rc31
00000300 g       *ABS*	00000000 __f256_start
0000a000 g       *ABS*	00000000 __stack
0000a000 g       *ABS*	00000000 __SLOT_ADDR
0800a000 g       *ABS*	00000000 __block8_lma
00002000 g       *ABS*	00000000 __BLOCK_SIZE
0900a000 g       *ABS*	00000000 __block9_lma
0a00a000 g       *ABS*	00000000 __block10_lma
0b00a000 g       *ABS*	00000000 __block11_lma
0c00a000 g       *ABS*	00000000 __block12_lma
0d00a000 g       *ABS*	00000000 __block13_lma
0e00a000 g       *ABS*	00000000 __block14_lma
0f00a000 g       *ABS*	00000000 __block15_lma
1000a000 g       *ABS*	00000000 __block16_lma
1100a000 g       *ABS*	00000000 __block17_lma
1200a000 g       *ABS*	00000000 __block18_lma
1300a000 g       *ABS*	00000000 __block19_lma
1400a000 g       *ABS*	00000000 __block20_lma
1500a000 g       *ABS*	00000000 __block21_lma
1600a000 g       *ABS*	00000000 __block22_lma
1700a000 g       *ABS*	00000000 __block23_lma
00020000 g       *ABS*	00000000 __palpiano_lma
000003fc g       *ABS*	00000000 __palpiano_size
00028000 g       *ABS*	00000000 __pia1_lma
00008000 g       *ABS*	00000000 __pia1_size
00030000 g       *ABS*	00000000 __pia2_lma
00008000 g       *ABS*	00000000 __pia2_size
00038000 g       *ABS*	00000000 __pia3_lma
00002c00 g       *ABS*	00000000 __pia3_size
00007a1f g       .bss	00000000 __bss_start
000203fc g       .palpiano	00000000 end_palpiano
00030000 g       .pia1	00000000 end_pia1
00038000 g       .pia2	00000000 end_pia2
0003ac00 g       .pia3	00000000 end_pia3
00000316 g       .text	00000000 _start
0000002d g       *ABS*	00000000 __rc29
0000002b g       *ABS*	00000000 __rc27
00000029 g       *ABS*	00000000 __rc25
00000027 g       *ABS*	00000000 __rc23
00000025 g       *ABS*	00000000 __rc21
00000023 g       *ABS*	00000000 __rc19
00000021 g       *ABS*	00000000 __rc17
0000001f g       *ABS*	00000000 __rc15
0000001d g       *ABS*	00000000 __rc13
0000001b g       *ABS*	00000000 __rc11
00000019 g       *ABS*	00000000 __rc9
00000017 g       *ABS*	00000000 __rc7
00000015 g       *ABS*	00000000 __rc5
00000013 g       *ABS*	00000000 __rc3
00000011 g       *ABS*	00000000 __rc1
00000030 g       .zp.data	00000000 __zp_data_start
00000300 g       *ABS*	00000000 __zp_data_load_start
00000016 g       *ABS*	00000000 __zp_data_size
00000046 g       .zp.bss	00000000 __zp_bss_start
00000040 g       *ABS*	00000000 __zp_bss_size
00000316 g       .text	00000000 _init
00006d43 g       .text	00000000 __init_array_start
00006d43 g       .text	00000000 __init_array_end
00006d43 g       .text	00000000 __fini_array_start
00006d43 g       .text	00000000 __fini_array_end
00007a1f g       .data	00000000 __data_start
00007a1f g       .data	00000000 __data_end
00007a1f g       *ABS*	00000000 __data_load_start
00000000 g       *ABS*	00000000 __data_size
00007a70 g       .bss	00000000 __bss_end
00000051 g       *ABS*	00000000 __bss_size
00007a70 g       .noinit	00000000 end_block8
00007a70 g       .noinit	00000000 end_block9
00007a70 g       .noinit	00000000 end_block10
00007a70 g       .noinit	00000000 end_block11
00007a70 g       .noinit	00000000 end_block12
00007a70 g       .noinit	00000000 end_block13
00007a70 g       .noinit	00000000 end_block14
00007a70 g       .noinit	00000000 end_block15
00007a70 g       .noinit	00000000 end_block16
00007a70 g       .noinit	00000000 end_block17
00007a70 g       .noinit	00000000 end_block18
00007a70 g       .noinit	00000000 end_block19
00007a70 g       .noinit	00000000 end_block20
00007a70 g       .noinit	00000000 end_block21
00007a70 g       .noinit	00000000 end_block22
00007a70 g       .noinit	00000000 end_block23

Disassembly of section .text:

00000316 <_start>:
     316: a9 00        	lda	#$0
     318: 85 10        	sta	$10                     ; 0x2010 <f256main+0x17cc>
     31a: a9 a0        	lda	#$a0
     31c: 85 11        	sta	$11                     ; 0x2011 <f256main+0x17cd>

0000031e <__do_zero_bss>:
     31e: 20 61 04     	jsr	$461 <__zero_bss>

00000321 <__do_zero_zp_bss>:
     321: 20 74 04     	jsr	$474 <__zero_zp_bss>

00000324 <__do_copy_zp_data>:
     324: 20 87 04     	jsr	$487 <__copy_zp_data>
     327: 20 3e 08     	jsr	$83e <main>

0000032a <__after_main>:
     32a: 4c 9f 40     	jmp	$409f <exit>

0000032d <_fini>:
     32d: 60           	rts

0000032e <_ZN12_GLOBAL__N_19FreeChunk6insertEPvj>:
     32e: 85 16        	sta	$16                     ; 0x2016 <f256main+0x17d2>
     330: 29 fe        	and	#$fe
     332: 85 14        	sta	$14                     ; 0x2014 <f256main+0x17d0>
     334: a0 01        	ldy	#$1
     336: 98           	tya
     337: 32 12        	and	($12)                   ; 0x2012 <f256main+0x17ce>
     339: 05 14        	ora	$14                     ; 0x2014 <f256main+0x17d0>
     33b: 92 12        	sta	($12)                   ; 0x2012 <f256main+0x17ce>
     33d: a5 12        	lda	$12                     ; 0x2012 <f256main+0x17ce>
     33f: 18           	clc
     340: 65 14        	adc	$14                     ; 0x2014 <f256main+0x17d0>
     342: 85 15        	sta	$15                     ; 0x2015 <f256main+0x17d1>
     344: 8a           	txa
     345: 65 13        	adc	$13                     ; 0x2013 <f256main+0x17cf>
     347: 85 14        	sta	$14                     ; 0x2014 <f256main+0x17d0>
     349: 18           	clc
     34a: a5 15        	lda	$15                     ; 0x2015 <f256main+0x17d1>
     34c: 69 fe        	adc	#$fe
     34e: 85 17        	sta	$17                     ; 0x2017 <f256main+0x17d3>
     350: a5 14        	lda	$14                     ; 0x2014 <f256main+0x17d0>
     352: 69 ff        	adc	#$ff
     354: 85 15        	sta	$15                     ; 0x2015 <f256main+0x17d1>
     356: a5 17        	lda	$17                     ; 0x2017 <f256main+0x17d3>
     358: 85 14        	sta	$14                     ; 0x2014 <f256main+0x17d0>
     35a: 8a           	txa
     35b: 91 12        	sta	($12),y                 ; 0x2012 <f256main+0x17ce>
     35d: a5 16        	lda	$16                     ; 0x2016 <f256main+0x17d2>
     35f: 92 14        	sta	($14)                   ; 0x2014 <f256main+0x17d0>
     361: 8a           	txa
     362: 91 14        	sta	($14),y                 ; 0x2014 <f256main+0x17d0>
     364: b1 12        	lda	($12),y                 ; 0x2012 <f256main+0x17ce>
     366: 85 14        	sta	$14                     ; 0x2014 <f256main+0x17d0>
     368: a9 fe        	lda	#$fe
     36a: 32 12        	and	($12)                   ; 0x2012 <f256main+0x17ce>
     36c: 18           	clc
     36d: 65 82        	adc	$82                     ; 0x2082 <f256main+0x183e>
     36f: aa           	tax
     370: a5 14        	lda	$14                     ; 0x2014 <f256main+0x17d0>
     372: 65 83        	adc	$83                     ; 0x2083 <f256main+0x183f>
     374: a8           	tay
     375: 18           	clc
     376: 8a           	txa
     377: 69 fe        	adc	#$fe
     379: aa           	tax
     37a: 98           	tya
     37b: 69 ff        	adc	#$ff
     37d: 86 82        	stx	$82                     ; 0x2082 <f256main+0x183e>
     37f: 85 83        	sta	$83                     ; 0x2083 <f256main+0x183f>
     381: a6 84        	ldx	$84                     ; 0x2084 <f256main+0x1840>
     383: 86 16        	stx	$16                     ; 0x2016 <f256main+0x17d2>
     385: a4 85        	ldy	$85                     ; 0x2085 <f256main+0x1841>
     387: a2 00        	ldx	#$0
     389: 86 14        	stx	$14                     ; 0x2014 <f256main+0x17d0>
     38b: a2 00        	ldx	#$0
     38d: 86 15        	stx	$15                     ; 0x2015 <f256main+0x17d1>
     38f: 84 18        	sty	$18                     ; 0x2018 <f256main+0x17d4>
     391: c4 15        	cpy	$15                     ; 0x2015 <f256main+0x17d1>
     393: d0 31        	bne	$3c6 <_ZN12_GLOBAL__N_19FreeChunk6insertEPvj+0x98>
     395: a6 16        	ldx	$16                     ; 0x2016 <f256main+0x17d2>
     397: e4 14        	cpx	$14                     ; 0x2014 <f256main+0x17d0>
     399: d0 2b        	bne	$3c6 <_ZN12_GLOBAL__N_19FreeChunk6insertEPvj+0x98>
     39b: a0 02        	ldy	#$2
     39d: 18           	clc
     39e: a5 12        	lda	$12                     ; 0x2012 <f256main+0x17ce>
     3a0: 69 02        	adc	#$2
     3a2: 85 14        	sta	$14                     ; 0x2014 <f256main+0x17d0>
     3a4: a5 12        	lda	$12                     ; 0x2012 <f256main+0x17ce>
     3a6: 91 12        	sta	($12),y                 ; 0x2012 <f256main+0x17ce>
     3a8: a5 13        	lda	$13                     ; 0x2013 <f256main+0x17cf>
     3aa: 69 00        	adc	#$0
     3ac: 85 15        	sta	$15                     ; 0x2015 <f256main+0x17d1>
     3ae: 88           	dey
     3af: a5 13        	lda	$13                     ; 0x2013 <f256main+0x17cf>
     3b1: 91 14        	sta	($14),y                 ; 0x2014 <f256main+0x17d0>
     3b3: a2 84        	ldx	#$84
     3b5: 86 16        	stx	$16                     ; 0x2016 <f256main+0x17d2>
     3b7: a2 00        	ldx	#$0
     3b9: 86 17        	stx	$17                     ; 0x2017 <f256main+0x17d3>
     3bb: a6 12        	ldx	$12                     ; 0x2012 <f256main+0x17ce>
     3bd: 86 14        	stx	$14                     ; 0x2014 <f256main+0x17d0>
     3bf: a6 13        	ldx	$13                     ; 0x2013 <f256main+0x17cf>
     3c1: 86 15        	stx	$15                     ; 0x2015 <f256main+0x17d1>
     3c3: 4c 3f 04     	jmp	$43f <_ZN12_GLOBAL__N_19FreeChunk6insertEPvj+0x111>
     3c6: a5 12        	lda	$12                     ; 0x2012 <f256main+0x17ce>
     3c8: 18           	clc
     3c9: 69 02        	adc	#$2
     3cb: 85 14        	sta	$14                     ; 0x2014 <f256main+0x17d0>
     3cd: a4 13        	ldy	$13                     ; 0x2013 <f256main+0x17cf>
     3cf: a6 16        	ldx	$16                     ; 0x2016 <f256main+0x17d2>
     3d1: 86 19        	stx	$19                     ; 0x2019 <f256main+0x17d5>
     3d3: a5 13        	lda	$13                     ; 0x2013 <f256main+0x17cf>
     3d5: 84 1a        	sty	$1a                     ; 0x201a <f256main+0x17d6>
     3d7: 69 00        	adc	#$0
     3d9: a6 14        	ldx	$14                     ; 0x2014 <f256main+0x17d0>
     3db: 86 16        	stx	$16                     ; 0x2016 <f256main+0x17d2>
     3dd: 85 17        	sta	$17                     ; 0x2017 <f256main+0x17d3>
     3df: a6 19        	ldx	$19                     ; 0x2019 <f256main+0x17d5>
     3e1: 86 14        	stx	$14                     ; 0x2014 <f256main+0x17d0>
     3e3: a4 18        	ldy	$18                     ; 0x2018 <f256main+0x17d4>
     3e5: 84 15        	sty	$15                     ; 0x2015 <f256main+0x17d1>
     3e7: 84 1b        	sty	$1b                     ; 0x201b <f256main+0x17d7>
     3e9: a0 02        	ldy	#$2
     3eb: a5 19        	lda	$19                     ; 0x2019 <f256main+0x17d5>
     3ed: 91 12        	sta	($12),y                 ; 0x2012 <f256main+0x17ce>
     3ef: 88           	dey
     3f0: a5 1b        	lda	$1b                     ; 0x201b <f256main+0x17d7>
     3f2: 91 16        	sta	($16),y                 ; 0x2016 <f256main+0x17d2>
     3f4: 18           	clc
     3f5: a5 19        	lda	$19                     ; 0x2019 <f256main+0x17d5>
     3f7: 69 04        	adc	#$4
     3f9: 85 18        	sta	$18                     ; 0x2018 <f256main+0x17d4>
     3fb: a5 1b        	lda	$1b                     ; 0x201b <f256main+0x17d7>
     3fd: 69 00        	adc	#$0
     3ff: 85 19        	sta	$19                     ; 0x2019 <f256main+0x17d5>
     401: a0 04        	ldy	#$4
     403: b1 14        	lda	($14),y                 ; 0x2014 <f256main+0x17d0>
     405: 85 14        	sta	$14                     ; 0x2014 <f256main+0x17d0>
     407: 85 1b        	sta	$1b                     ; 0x201b <f256main+0x17d7>
     409: a0 01        	ldy	#$1
     40b: b1 18        	lda	($18),y                 ; 0x2018 <f256main+0x17d4>
     40d: 85 15        	sta	$15                     ; 0x2015 <f256main+0x17d1>
     40f: a8           	tay
     410: 18           	clc
     411: a5 1b        	lda	$1b                     ; 0x201b <f256main+0x17d7>
     413: 69 02        	adc	#$2
     415: 85 18        	sta	$18                     ; 0x2018 <f256main+0x17d4>
     417: 98           	tya
     418: 69 00        	adc	#$0
     41a: 85 19        	sta	$19                     ; 0x2019 <f256main+0x17d5>
     41c: a5 12        	lda	$12                     ; 0x2012 <f256main+0x17ce>
     41e: a0 02        	ldy	#$2
     420: 91 14        	sta	($14),y                 ; 0x2014 <f256main+0x17d0>
     422: a5 1a        	lda	$1a                     ; 0x201a <f256main+0x17d6>
     424: 88           	dey
     425: 91 18        	sta	($18),y                 ; 0x2018 <f256main+0x17d4>
     427: c8           	iny
     428: b1 12        	lda	($12),y                 ; 0x2012 <f256main+0x17ce>
     42a: 85 18        	sta	$18                     ; 0x2018 <f256main+0x17d4>
     42c: 88           	dey
     42d: b1 16        	lda	($16),y                 ; 0x2016 <f256main+0x17d2>
     42f: 85 16        	sta	$16                     ; 0x2016 <f256main+0x17d2>
     431: 18           	clc
     432: a5 18        	lda	$18                     ; 0x2018 <f256main+0x17d4>
     434: 69 04        	adc	#$4
     436: aa           	tax
     437: a5 16        	lda	$16                     ; 0x2016 <f256main+0x17d2>
     439: 69 00        	adc	#$0
     43b: 86 16        	stx	$16                     ; 0x2016 <f256main+0x17d2>
     43d: 85 17        	sta	$17                     ; 0x2017 <f256main+0x17d3>
     43f: 18           	clc
     440: a5 12        	lda	$12                     ; 0x2012 <f256main+0x17ce>
     442: 69 04        	adc	#$4
     444: 85 18        	sta	$18                     ; 0x2018 <f256main+0x17d4>
     446: a5 13        	lda	$13                     ; 0x2013 <f256main+0x17cf>
     448: 69 00        	adc	#$0
     44a: a0 04        	ldy	#$4
     44c: 85 19        	sta	$19                     ; 0x2019 <f256main+0x17d5>
     44e: a5 14        	lda	$14                     ; 0x2014 <f256main+0x17d0>
     450: 91 12        	sta	($12),y                 ; 0x2012 <f256main+0x17ce>
     452: a5 15        	lda	$15                     ; 0x2015 <f256main+0x17d1>
     454: a0 01        	ldy	#$1
     456: 91 18        	sta	($18),y                 ; 0x2018 <f256main+0x17d4>
     458: a5 13        	lda	$13                     ; 0x2013 <f256main+0x17cf>
     45a: 91 16        	sta	($16),y                 ; 0x2016 <f256main+0x17d2>
     45c: a5 12        	lda	$12                     ; 0x2012 <f256main+0x17ce>
     45e: 92 16        	sta	($16)                   ; 0x2016 <f256main+0x17d2>
     460: 60           	rts

00000461 <__zero_bss>:
     461: a2 51        	ldx	#$51
     463: a0 00        	ldy	#$0
     465: a9 1f        	lda	#$1f
     467: 85 12        	sta	$12                     ; 0x2012 <f256main+0x17ce>
     469: a9 7a        	lda	#$7a
     46b: 85 13        	sta	$13                     ; 0x2013 <f256main+0x17cf>
     46d: a9 00        	lda	#$0
     46f: 84 14        	sty	$14                     ; 0x2014 <f256main+0x17d0>
     471: 4c 17 51     	jmp	$5117 <__memset>

00000474 <__zero_zp_bss>:
     474: a2 40        	ldx	#$40
     476: a0 00        	ldy	#$0
     478: a9 46        	lda	#$46
     47a: 85 12        	sta	$12                     ; 0x2012 <f256main+0x17ce>
     47c: a9 00        	lda	#$0
     47e: 85 13        	sta	$13                     ; 0x2013 <f256main+0x17cf>
     480: a9 00        	lda	#$0
     482: 84 14        	sty	$14                     ; 0x2014 <f256main+0x17d0>
     484: 4c 17 51     	jmp	$5117 <__memset>

00000487 <__copy_zp_data>:
     487: a9 16        	lda	#$16
     489: a2 00        	ldx	#$0
     48b: a0 30        	ldy	#$30
     48d: 84 12        	sty	$12                     ; 0x2012 <f256main+0x17ce>
     48f: a0 00        	ldy	#$0
     491: 84 13        	sty	$13                     ; 0x2013 <f256main+0x17cf>
     493: a0 00        	ldy	#$0
     495: 84 14        	sty	$14                     ; 0x2014 <f256main+0x17d0>
     497: a0 03        	ldy	#$3
     499: 84 15        	sty	$15                     ; 0x2015 <f256main+0x17d1>
     49b: 4c eb 50     	jmp	$50eb <memcpy>

0000049e <f256Init>:
     49e: 64 14        	stz	$14                     ; 0x2014 <f256main+0x17d0>
     4a0: a2 00        	ldx	#$0
     4a2: 86 12        	stx	$12                     ; 0x2012 <f256main+0x17ce>
     4a4: a2 c0        	ldx	#$c0
     4a6: 86 13        	stx	$13                     ; 0x2013 <f256main+0x17cf>
     4a8: 64 01        	stz	$1                      ; 0x2001 <f256main+0x17bd>
     4aa: a2 3f        	ldx	#$3f
     4ac: 8e 00 d0     	stx	$d000                   ; 0xd000 <end_block9+0x5590>
     4af: a2 b3        	ldx	#$b3
     4b1: 86 00        	stx	$0                      ; 0x2000 <f256main+0x17bc>
     4b3: 64 08        	stz	$8                      ; 0x2008 <f256main+0x17c4>
     4b5: a2 01        	ldx	#$1
     4b7: 86 09        	stx	$9                      ; 0x2009 <f256main+0x17c5>
     4b9: e8           	inx
     4ba: 86 0a        	stx	$a                      ; 0x200a <f256main+0x17c6>
     4bc: e8           	inx
     4bd: 86 0b        	stx	$b                      ; 0x200b <f256main+0x17c7>
     4bf: e8           	inx
     4c0: 86 0c        	stx	$c                      ; 0x200c <f256main+0x17c8>
     4c2: e8           	inx
     4c3: 86 0d        	stx	$d                      ; 0x200d <f256main+0x17c9>
     4c5: a2 46        	ldx	#$46
     4c7: a0 00        	ldy	#$0
     4c9: 86 f0        	stx	$f0                     ; 0x20f0 <f256main+0x18ac>
     4cb: 84 f1        	sty	$f1                     ; 0x20f1 <f256main+0x18ad>
     4cd: a2 00        	ldx	#$0
     4cf: 86 18        	stx	$18                     ; 0x2018 <f256main+0x17d4>
     4d1: ca           	dex
     4d2: 86 19        	stx	$19                     ; 0x2019 <f256main+0x17d5>
     4d4: 8a           	txa
     4d5: 0a           	asl
     4d6: 0a           	asl
     4d7: 18           	clc
     4d8: 69 d4        	adc	#$d4
     4da: 85 1a        	sta	$1a                     ; 0x201a <f256main+0x17d6>
     4dc: a0 00        	ldy	#$0
     4de: 64 17        	stz	$17                     ; 0x2017 <f256main+0x17d3>
     4e0: 64 16        	stz	$16                     ; 0x2016 <f256main+0x17d2>
     4e2: a6 19        	ldx	$19                     ; 0x2019 <f256main+0x17d5>
     4e4: e0 03        	cpx	#$3
     4e6: a6 01        	ldx	$1                      ; 0x2001 <f256main+0x17bd>
     4e8: 86 1c        	stx	$1c                     ; 0x201c <f256main+0x17d8>
     4ea: a2 d0        	ldx	#$d0
     4ec: 84 1b        	sty	$1b                     ; 0x201b <f256main+0x17d7>
     4ee: b0 02        	bcs	$4f2 <f256Init+0x54>
     4f0: a6 1a        	ldx	$1a                     ; 0x201a <f256main+0x17d6>
     4f2: 86 15        	stx	$15                     ; 0x2015 <f256main+0x17d1>
     4f4: a5 17        	lda	$17                     ; 0x2017 <f256main+0x17d3>
     4f6: 18           	clc
     4f7: 65 14        	adc	$14                     ; 0x2014 <f256main+0x17d0>
     4f9: a8           	tay
     4fa: a6 17        	ldx	$17                     ; 0x2017 <f256main+0x17d3>
     4fc: a5 16        	lda	$16                     ; 0x2016 <f256main+0x17d2>
     4fe: 85 1d        	sta	$1d                     ; 0x201d <f256main+0x17d9>
     500: a5 16        	lda	$16                     ; 0x2016 <f256main+0x17d2>
     502: 65 15        	adc	$15                     ; 0x2015 <f256main+0x17d1>
     504: 84 16        	sty	$16                     ; 0x2016 <f256main+0x17d2>
     506: a0 01        	ldy	#$1
     508: 84 01        	sty	$1                      ; 0x2001 <f256main+0x17bd>
     50a: 85 17        	sta	$17                     ; 0x2017 <f256main+0x17d3>
     50c: a5 1b        	lda	$1b                     ; 0x201b <f256main+0x17d7>
     50e: 92 16        	sta	($16)                   ; 0x2016 <f256main+0x17d2>
     510: 91 16        	sta	($16),y                 ; 0x2016 <f256main+0x17d2>
     512: c8           	iny
     513: 91 16        	sta	($16),y                 ; 0x2016 <f256main+0x17d2>
     515: 85 15        	sta	$15                     ; 0x2015 <f256main+0x17d1>
     517: c8           	iny
     518: a9 ff        	lda	#$ff
     51a: 91 16        	sta	($16),y                 ; 0x2016 <f256main+0x17d2>
     51c: 8a           	txa
     51d: a6 1c        	ldx	$1c                     ; 0x201c <f256main+0x17d8>
     51f: 86 01        	stx	$1                      ; 0x2001 <f256main+0x17bd>
     521: 18           	clc
     522: 69 04        	adc	#$4
     524: 85 17        	sta	$17                     ; 0x2017 <f256main+0x17d3>
     526: a5 1d        	lda	$1d                     ; 0x201d <f256main+0x17d9>
     528: 69 00        	adc	#$0
     52a: e6 15        	inc	$15                     ; 0x2015 <f256main+0x17d1>
     52c: a4 15        	ldy	$15                     ; 0x2015 <f256main+0x17d1>
     52e: 85 16        	sta	$16                     ; 0x2016 <f256main+0x17d2>
     530: c9 04        	cmp	#$4
     532: f0 03        	beq	$537 <f256Init+0x99>
     534: 4c e2 04     	jmp	$4e2 <f256Init+0x44>
     537: a5 17        	lda	$17                     ; 0x2017 <f256main+0x17d3>
     539: f0 03        	beq	$53e <f256Init+0xa0>
     53b: 4c e2 04     	jmp	$4e2 <f256Init+0x44>
     53e: a6 18        	ldx	$18                     ; 0x2018 <f256main+0x17d4>
     540: e8           	inx
     541: e0 04        	cpx	#$4
     543: f0 03        	beq	$548 <f256Init+0xaa>
     545: 4c cf 04     	jmp	$4cf <f256Init+0x31>
     548: ad 02 d0     	lda	$d002                   ; 0xd002 <end_block9+0x5592>
     54b: a2 f0        	ldx	#$f0
     54d: 29 f0        	and	#$f0
     54f: 8d 02 d0     	sta	$d002                   ; 0xd002 <end_block9+0x5592>
     552: ad 02 d0     	lda	$d002                   ; 0xd002 <end_block9+0x5592>
     555: 29 0f        	and	#$f
     557: 09 10        	ora	#$10
     559: 8d 02 d0     	sta	$d002                   ; 0xd002 <end_block9+0x5592>
     55c: a0 02        	ldy	#$2
     55e: 8c 03 d0     	sty	$d003                   ; 0xd003 <end_block9+0x5593>
     561: 86 30        	stx	$30                     ; 0x2030 <f256main+0x17ec>
     563: ad 01 d0     	lda	$d001                   ; 0xd001 <end_block9+0x5591>
     566: 29 f9        	and	#$f9
     568: 09 04        	ora	#$4
     56a: 8d 01 d0     	sta	$d001                   ; 0xd001 <end_block9+0x5591>
     56d: 64 14        	stz	$14                     ; 0x2014 <f256main+0x17d0>
     56f: 9c 10 d0     	stz	$d010                   ; 0xd010 <end_block9+0x55a0>
     572: a2 00        	ldx	#$0
     574: 64 15        	stz	$15                     ; 0x2015 <f256main+0x17d1>
     576: 86 18        	stx	$18                     ; 0x2018 <f256main+0x17d4>
     578: a4 18        	ldy	$18                     ; 0x2018 <f256main+0x17d4>
     57a: be 64 6e     	ldx	$6e64,y                 ; 0x6e64 <textColors>
     57d: 86 19        	stx	$19                     ; 0x2019 <f256main+0x17d5>
     57f: be 65 6e     	ldx	$6e65,y                 ; 0x6e65 <textColors+0x1>
     582: 86 1a        	stx	$1a                     ; 0x201a <f256main+0x17d6>
     584: be 66 6e     	ldx	$6e66,y                 ; 0x6e66 <textColors+0x2>
     587: 86 1b        	stx	$1b                     ; 0x201b <f256main+0x17d7>
     589: a6 15        	ldx	$15                     ; 0x2015 <f256main+0x17d1>
     58b: 8e 00 de     	stx	$de00                   ; 0xde00 <end_block9+0x6390>
     58e: 86 17        	stx	$17                     ; 0x2017 <f256main+0x17d3>
     590: 9c 01 de     	stz	$de01                   ; 0xde01 <end_block9+0x6391>
     593: a2 04        	ldx	#$4
     595: 8e 02 de     	stx	$de02                   ; 0xde02 <end_block9+0x6392>
     598: 9c 03 de     	stz	$de03                   ; 0xde03 <end_block9+0x6393>
     59b: ad 10 de     	lda	$de10                   ; 0xde10 <end_block9+0x63a0>
     59e: ac 11 de     	ldy	$de11                   ; 0xde11 <end_block9+0x63a1>
     5a1: 84 15        	sty	$15                     ; 0x2015 <f256main+0x17d1>
     5a3: ac 12 de     	ldy	$de12                   ; 0xde12 <end_block9+0x63a2>
     5a6: ac 13 de     	ldy	$de13                   ; 0xde13 <end_block9+0x63a3>
     5a9: 18           	clc
     5aa: 65 14        	adc	$14                     ; 0x2014 <f256main+0x17d0>
     5ac: 85 16        	sta	$16                     ; 0x2016 <f256main+0x17d2>
     5ae: a6 17        	ldx	$17                     ; 0x2017 <f256main+0x17d3>
     5b0: a9 d8        	lda	#$d8
     5b2: 65 15        	adc	$15                     ; 0x2015 <f256main+0x17d1>
     5b4: 85 17        	sta	$17                     ; 0x2017 <f256main+0x17d3>
     5b6: a5 1b        	lda	$1b                     ; 0x201b <f256main+0x17d7>
     5b8: 92 16        	sta	($16)                   ; 0x2016 <f256main+0x17d2>
     5ba: a0 01        	ldy	#$1
     5bc: a5 1a        	lda	$1a                     ; 0x201a <f256main+0x17d6>
     5be: 91 16        	sta	($16),y                 ; 0x2016 <f256main+0x17d2>
     5c0: c8           	iny
     5c1: a5 19        	lda	$19                     ; 0x2019 <f256main+0x17d5>
     5c3: 91 16        	sta	($16),y                 ; 0x2016 <f256main+0x17d2>
     5c5: c8           	iny
     5c6: a9 ff        	lda	#$ff
     5c8: 91 16        	sta	($16),y                 ; 0x2016 <f256main+0x17d2>
     5ca: 8e 00 de     	stx	$de00                   ; 0xde00 <end_block9+0x6390>
     5cd: 9c 01 de     	stz	$de01                   ; 0xde01 <end_block9+0x6391>
     5d0: c8           	iny
     5d1: 8c 02 de     	sty	$de02                   ; 0xde02 <end_block9+0x6392>
     5d4: 9c 03 de     	stz	$de03                   ; 0xde03 <end_block9+0x6393>
     5d7: ad 10 de     	lda	$de10                   ; 0xde10 <end_block9+0x63a0>
     5da: 85 15        	sta	$15                     ; 0x2015 <f256main+0x17d1>
     5dc: ad 11 de     	lda	$de11                   ; 0xde11 <end_block9+0x63a1>
     5df: 85 16        	sta	$16                     ; 0x2016 <f256main+0x17d2>
     5e1: a9 40        	lda	#$40
     5e3: 18           	clc
     5e4: 65 15        	adc	$15                     ; 0x2015 <f256main+0x17d1>
     5e6: a8           	tay
     5e7: a9 d8        	lda	#$d8
     5e9: 65 16        	adc	$16                     ; 0x2016 <f256main+0x17d2>
     5eb: 85 17        	sta	$17                     ; 0x2017 <f256main+0x17d3>
     5ed: 84 16        	sty	$16                     ; 0x2016 <f256main+0x17d2>
     5ef: ad 12 de     	lda	$de12                   ; 0xde12 <end_block9+0x63a2>
     5f2: ad 13 de     	lda	$de13                   ; 0xde13 <end_block9+0x63a3>
     5f5: a5 1b        	lda	$1b                     ; 0x201b <f256main+0x17d7>
     5f7: 92 16        	sta	($16)                   ; 0x2016 <f256main+0x17d2>
     5f9: a5 1a        	lda	$1a                     ; 0x201a <f256main+0x17d6>
     5fb: a0 01        	ldy	#$1
     5fd: 91 16        	sta	($16),y                 ; 0x2016 <f256main+0x17d2>
     5ff: a5 19        	lda	$19                     ; 0x2019 <f256main+0x17d5>
     601: c8           	iny
     602: 91 16        	sta	($16),y                 ; 0x2016 <f256main+0x17d2>
     604: c8           	iny
     605: a9 ff        	lda	#$ff
     607: 91 16        	sta	($16),y                 ; 0x2016 <f256main+0x17d2>
     609: e8           	inx
     60a: 86 15        	stx	$15                     ; 0x2015 <f256main+0x17d1>
     60c: 18           	clc
     60d: a5 18        	lda	$18                     ; 0x2018 <f256main+0x17d4>
     60f: 69 03        	adc	#$3
     611: aa           	tax
     612: c9 30        	cmp	#$30
     614: f0 03        	beq	$619 <f256Init+0x17b>
     616: 4c 76 05     	jmp	$576 <f256Init+0xd8>
     619: a6 01        	ldx	$1                      ; 0x2001 <f256main+0x17bd>
     61b: 86 18        	stx	$18                     ; 0x2018 <f256main+0x17d4>
     61d: a2 50        	ldx	#$50
     61f: 8e 00 de     	stx	$de00                   ; 0xde00 <end_block9+0x6390>
     622: 9c 01 de     	stz	$de01                   ; 0xde01 <end_block9+0x6391>
     625: a2 1e        	ldx	#$1e
     627: 8e 02 de     	stx	$de02                   ; 0xde02 <end_block9+0x6392>
     62a: 9c 03 de     	stz	$de03                   ; 0xde03 <end_block9+0x6393>
     62d: ae 10 de     	ldx	$de10                   ; 0xde10 <end_block9+0x63a0>
     630: ac 11 de     	ldy	$de11                   ; 0xde11 <end_block9+0x63a1>
     633: ad 12 de     	lda	$de12                   ; 0xde12 <end_block9+0x63a2>
     636: ad 13 de     	lda	$de13                   ; 0xde13 <end_block9+0x63a3>
     639: a9 02        	lda	#$2
     63b: 85 01        	sta	$1                      ; 0x2001 <f256main+0x17bd>
     63d: e0 01        	cpx	#$1
     63f: 98           	tya
     640: e9 00        	sbc	#$0
     642: 50 02        	bvc	$646 <f256Init+0x1a8>
     644: 49 80        	eor	#$80
     646: c9 00        	cmp	#$0
     648: 30 4c        	bmi	$696 <f256Init+0x1f8>
     64a: a9 20        	lda	#$20
     64c: 86 19        	stx	$19                     ; 0x2019 <f256main+0x17d5>
     64e: 86 14        	stx	$14                     ; 0x2014 <f256main+0x17d0>
     650: 84 15        	sty	$15                     ; 0x2015 <f256main+0x17d1>
     652: a2 00        	ldx	#$0
     654: 86 16        	stx	$16                     ; 0x2016 <f256main+0x17d2>
     656: a2 c0        	ldx	#$c0
     658: 86 17        	stx	$17                     ; 0x2017 <f256main+0x17d3>
     65a: 92 16        	sta	($16)                   ; 0x2016 <f256main+0x17d2>
     65c: e6 16        	inc	$16                     ; 0x2016 <f256main+0x17d2>
     65e: d0 02        	bne	$662 <f256Init+0x1c4>
     660: e6 17        	inc	$17                     ; 0x2017 <f256main+0x17d3>
     662: a2 ff        	ldx	#$ff
     664: c6 14        	dec	$14                     ; 0x2014 <f256main+0x17d0>
     666: e4 14        	cpx	$14                     ; 0x2014 <f256main+0x17d0>
     668: d0 02        	bne	$66c <f256Init+0x1ce>
     66a: c6 15        	dec	$15                     ; 0x2015 <f256main+0x17d1>
     66c: a6 15        	ldx	$15                     ; 0x2015 <f256main+0x17d1>
     66e: d0 ea        	bne	$65a <f256Init+0x1bc>
     670: a6 14        	ldx	$14                     ; 0x2014 <f256main+0x17d0>
     672: d0 e6        	bne	$65a <f256Init+0x1bc>
     674: a2 03        	ldx	#$3
     676: 86 01        	stx	$1                      ; 0x2001 <f256main+0x17bd>
     678: a6 30        	ldx	$30                     ; 0x2030 <f256main+0x17ec>
     67a: 86 14        	stx	$14                     ; 0x2014 <f256main+0x17d0>
     67c: a6 19        	ldx	$19                     ; 0x2019 <f256main+0x17d5>
     67e: a5 14        	lda	$14                     ; 0x2014 <f256main+0x17d0>
     680: 92 12        	sta	($12)                   ; 0x2012 <f256main+0x17ce>
     682: e6 12        	inc	$12                     ; 0x2012 <f256main+0x17ce>
     684: d0 02        	bne	$688 <f256Init+0x1ea>
     686: e6 13        	inc	$13                     ; 0x2013 <f256main+0x17cf>
     688: ca           	dex
     689: e0 ff        	cpx	#$ff
     68b: d0 01        	bne	$68e <f256Init+0x1f0>
     68d: 88           	dey
     68e: 98           	tya
     68f: d0 ed        	bne	$67e <f256Init+0x1e0>
     691: 8a           	txa
     692: d0 ea        	bne	$67e <f256Init+0x1e0>
     694: 80 04        	bra	$69a <f256Init+0x1fc>
     696: a2 03        	ldx	#$3
     698: 86 01        	stx	$1                      ; 0x2001 <f256main+0x17bd>
     69a: a6 18        	ldx	$18                     ; 0x2018 <f256main+0x17d4>
     69c: 86 01        	stx	$1                      ; 0x2001 <f256main+0x17bd>
     69e: 64 4d        	stz	$4d                     ; 0x204d <f256main+0x1809>
     6a0: 9c 14 d0     	stz	$d014                   ; 0xd014 <end_block9+0x55a4>
     6a3: 9c 15 d0     	stz	$d015                   ; 0xd015 <end_block9+0x55a5>
     6a6: 64 4e        	stz	$4e                     ; 0x204e <f256main+0x180a>
     6a8: 9c 16 d0     	stz	$d016                   ; 0xd016 <end_block9+0x55a6>
     6ab: 9c 17 d0     	stz	$d017                   ; 0xd017 <end_block9+0x55a7>
     6ae: a2 40        	ldx	#$40
     6b0: 8e 00 de     	stx	$de00                   ; 0xde00 <end_block9+0x6390>
     6b3: a2 01        	ldx	#$1
     6b5: 8e 01 de     	stx	$de01                   ; 0xde01 <end_block9+0x6391>
     6b8: a2 f0        	ldx	#$f0
     6ba: 8e 02 de     	stx	$de02                   ; 0xde02 <end_block9+0x6392>
     6bd: 9c 03 de     	stz	$de03                   ; 0xde03 <end_block9+0x6393>
     6c0: ae 10 de     	ldx	$de10                   ; 0xde10 <end_block9+0x63a0>
     6c3: 86 17        	stx	$17                     ; 0x2017 <f256main+0x17d3>
     6c5: ae 11 de     	ldx	$de11                   ; 0xde11 <end_block9+0x63a1>
     6c8: 86 12        	stx	$12                     ; 0x2012 <f256main+0x17ce>
     6ca: ae 12 de     	ldx	$de12                   ; 0xde12 <end_block9+0x63a2>
     6cd: 86 13        	stx	$13                     ; 0x2013 <f256main+0x17cf>
     6cf: ae 13 de     	ldx	$de13                   ; 0xde13 <end_block9+0x63a3>
     6d2: 86 14        	stx	$14                     ; 0x2014 <f256main+0x17d0>
     6d4: a4 12        	ldy	$12                     ; 0x2012 <f256main+0x17ce>
     6d6: 84 15        	sty	$15                     ; 0x2015 <f256main+0x17d1>
     6d8: 06 15        	asl	$15                     ; 0x2015 <f256main+0x17d1>
     6da: a5 13        	lda	$13                     ; 0x2013 <f256main+0x17cf>
     6dc: 2a           	rol
     6dd: 86 16        	stx	$16                     ; 0x2016 <f256main+0x17d2>
     6df: 26 16        	rol	$16                     ; 0x2016 <f256main+0x17d2>
     6e1: 06 15        	asl	$15                     ; 0x2015 <f256main+0x17d1>
     6e3: 2a           	rol
     6e4: 26 16        	rol	$16                     ; 0x2016 <f256main+0x17d2>
     6e6: 06 15        	asl	$15                     ; 0x2015 <f256main+0x17d1>
     6e8: 2a           	rol
     6e9: 26 16        	rol	$16                     ; 0x2016 <f256main+0x17d2>
     6eb: 85 15        	sta	$15                     ; 0x2015 <f256main+0x17d1>
     6ed: 8d 00 de     	sta	$de00                   ; 0xde00 <end_block9+0x6390>
     6f0: a5 16        	lda	$16                     ; 0x2016 <f256main+0x17d2>
     6f2: 8d 01 de     	sta	$de01                   ; 0xde01 <end_block9+0x6391>
     6f5: 9c 02 de     	stz	$de02                   ; 0xde02 <end_block9+0x6392>
     6f8: a2 20        	ldx	#$20
     6fa: 8e 03 de     	stx	$de03                   ; 0xde03 <end_block9+0x6393>
     6fd: ae 10 de     	ldx	$de10                   ; 0xde10 <end_block9+0x63a0>
     700: 86 16        	stx	$16                     ; 0x2016 <f256main+0x17d2>
     702: ae 11 de     	ldx	$de11                   ; 0xde11 <end_block9+0x63a1>
     705: 86 18        	stx	$18                     ; 0x2018 <f256main+0x17d4>
     707: ac 12 de     	ldy	$de12                   ; 0xde12 <end_block9+0x63a2>
     70a: ae 13 de     	ldx	$de13                   ; 0xde13 <end_block9+0x63a3>
     70d: e4 14        	cpx	$14                     ; 0x2014 <f256main+0x17d0>
     70f: d0 14        	bne	$725 <f256Init+0x287>
     711: c4 13        	cpy	$13                     ; 0x2013 <f256main+0x17cf>
     713: d0 10        	bne	$725 <f256Init+0x287>
     715: a6 18        	ldx	$18                     ; 0x2018 <f256main+0x17d4>
     717: e4 12        	cpx	$12                     ; 0x2012 <f256main+0x17ce>
     719: d0 0a        	bne	$725 <f256Init+0x287>
     71b: a6 16        	ldx	$16                     ; 0x2016 <f256main+0x17d2>
     71d: e4 17        	cpx	$17                     ; 0x2017 <f256main+0x17d3>
     71f: d0 04        	bne	$725 <f256Init+0x287>
     721: a6 15        	ldx	$15                     ; 0x2015 <f256main+0x17d1>
     723: 80 06        	bra	$72b <f256Init+0x28d>
     725: a6 15        	ldx	$15                     ; 0x2015 <f256main+0x17d1>
     727: e8           	inx
     728: d0 01        	bne	$72b <f256Init+0x28d>
     72a: 1a           	inc
     72b: 8e 00 de     	stx	$de00                   ; 0xde00 <end_block9+0x6390>
     72e: 8d 01 de     	sta	$de01                   ; 0xde01 <end_block9+0x6391>
     731: 9c 02 de     	stz	$de02                   ; 0xde02 <end_block9+0x6392>
     734: a2 20        	ldx	#$20
     736: 8e 03 de     	stx	$de03                   ; 0xde03 <end_block9+0x6393>
     739: ae 10 de     	ldx	$de10                   ; 0xde10 <end_block9+0x63a0>
     73c: 86 12        	stx	$12                     ; 0x2012 <f256main+0x17ce>
     73e: ae 11 de     	ldx	$de11                   ; 0xde11 <end_block9+0x63a1>
     741: 86 13        	stx	$13                     ; 0x2013 <f256main+0x17cf>
     743: ae 12 de     	ldx	$de12                   ; 0xde12 <end_block9+0x63a2>
     746: 86 14        	stx	$14                     ; 0x2014 <f256main+0x17d0>
     748: ae 13 de     	ldx	$de13                   ; 0xde13 <end_block9+0x63a3>
     74b: 86 15        	stx	$15                     ; 0x2015 <f256main+0x17d1>
     74d: a9 00        	lda	#$0
     74f: 38           	sec
     750: e5 12        	sbc	$12                     ; 0x2012 <f256main+0x17ce>
     752: 85 17        	sta	$17                     ; 0x2017 <f256main+0x17d3>
     754: a9 00        	lda	#$0
     756: e5 13        	sbc	$13                     ; 0x2013 <f256main+0x17cf>
     758: aa           	tax
     759: a9 08        	lda	#$8
     75b: e5 14        	sbc	$14                     ; 0x2014 <f256main+0x17d0>
     75d: 85 16        	sta	$16                     ; 0x2016 <f256main+0x17d2>
     75f: a9 00        	lda	#$0
     761: e5 15        	sbc	$15                     ; 0x2015 <f256main+0x17d1>
     763: 8e 20 7a     	stx	$7a20                   ; 0x7a20 <__bss_start+0x1>
     766: a4 16        	ldy	$16                     ; 0x2016 <f256main+0x17d2>
     768: 8c 21 7a     	sty	$7a21                   ; 0x7a21 <__bss_start+0x2>
     76b: 8d 22 7a     	sta	$7a22                   ; 0x7a22 <__bss_start+0x3>
     76e: 38           	sec
     76f: a5 17        	lda	$17                     ; 0x2017 <f256main+0x17d3>
     771: e5 12        	sbc	$12                     ; 0x2012 <f256main+0x17ce>
     773: a8           	tay
     774: 8a           	txa
     775: e5 13        	sbc	$13                     ; 0x2013 <f256main+0x17cf>
     777: 85 18        	sta	$18                     ; 0x2018 <f256main+0x17d4>
     779: a5 16        	lda	$16                     ; 0x2016 <f256main+0x17d2>
     77b: e5 14        	sbc	$14                     ; 0x2014 <f256main+0x17d0>
     77d: 85 15        	sta	$15                     ; 0x2015 <f256main+0x17d1>
     77f: 98           	tya
     780: 84 16        	sty	$16                     ; 0x2016 <f256main+0x17d2>
     782: 38           	sec
     783: e5 12        	sbc	$12                     ; 0x2012 <f256main+0x17ce>
     785: 85 12        	sta	$12                     ; 0x2012 <f256main+0x17ce>
     787: a5 18        	lda	$18                     ; 0x2018 <f256main+0x17d4>
     789: e5 13        	sbc	$13                     ; 0x2013 <f256main+0x17cf>
     78b: 85 13        	sta	$13                     ; 0x2013 <f256main+0x17cf>
     78d: a4 15        	ldy	$15                     ; 0x2015 <f256main+0x17d1>
     78f: a5 15        	lda	$15                     ; 0x2015 <f256main+0x17d1>
     791: e5 14        	sbc	$14                     ; 0x2014 <f256main+0x17d0>
     793: a6 17        	ldx	$17                     ; 0x2017 <f256main+0x17d3>
     795: 8e 1f 7a     	stx	$7a1f                   ; 0x7a1f <__bss_start>
     798: 8e 01 d1     	stx	$d101                   ; 0xd101 <end_block9+0x5691>
     79b: ae 20 7a     	ldx	$7a20                   ; 0x7a20 <__bss_start+0x1>
     79e: 8e 02 d1     	stx	$d102                   ; 0xd102 <end_block9+0x5692>
     7a1: ae 21 7a     	ldx	$7a21                   ; 0x7a21 <__bss_start+0x2>
     7a4: 8e 03 d1     	stx	$d103                   ; 0xd103 <end_block9+0x5693>
     7a7: a6 16        	ldx	$16                     ; 0x2016 <f256main+0x17d2>
     7a9: 8e 09 d1     	stx	$d109                   ; 0xd109 <end_block9+0x5699>
     7ac: a6 18        	ldx	$18                     ; 0x2018 <f256main+0x17d4>
     7ae: 8e 0a d1     	stx	$d10a                   ; 0xd10a <end_block9+0x569a>
     7b1: 8c 0b d1     	sty	$d10b                   ; 0xd10b <end_block9+0x569b>
     7b4: a6 12        	ldx	$12                     ; 0x2012 <f256main+0x17ce>
     7b6: 8e 11 d1     	stx	$d111                   ; 0xd111 <end_block9+0x56a1>
     7b9: a6 13        	ldx	$13                     ; 0x2013 <f256main+0x17cf>
     7bb: 8e 12 d1     	stx	$d112                   ; 0xd112 <end_block9+0x56a2>
     7be: 8d 13 d1     	sta	$d113                   ; 0xd113 <end_block9+0x56a3>
     7c1: 9c 00 d1     	stz	$d100                   ; 0xd100 <end_block9+0x5690>
     7c4: 9c 08 d1     	stz	$d108                   ; 0xd108 <end_block9+0x5698>
     7c7: 9c 10 d1     	stz	$d110                   ; 0xd110 <end_block9+0x56a0>
     7ca: a2 10        	ldx	#$10
     7cc: 8e 00 d2     	stx	$d200                   ; 0xd200 <end_block9+0x5790>
     7cf: 8e 0c d2     	stx	$d20c                   ; 0xd20c <end_block9+0x579c>
     7d2: 8e 18 d2     	stx	$d218                   ; 0xd218 <end_block9+0x57a8>
     7d5: a0 d9        	ldy	#$d9
     7d7: a2 40        	ldx	#$40
     7d9: 64 12        	stz	$12                     ; 0x2012 <f256main+0x17ce>
     7db: 84 13        	sty	$13                     ; 0x2013 <f256main+0x17cf>
     7dd: a9 00        	lda	#$0
     7df: 92 12        	sta	($12)                   ; 0x2012 <f256main+0x17ce>
     7e1: ca           	dex
     7e2: 18           	clc
     7e3: a5 12        	lda	$12                     ; 0x2012 <f256main+0x17ce>
     7e5: 69 08        	adc	#$8
     7e7: 85 12        	sta	$12                     ; 0x2012 <f256main+0x17ce>
     7e9: 98           	tya
     7ea: 69 00        	adc	#$0
     7ec: a8           	tay
     7ed: 8a           	txa
     7ee: d0 eb        	bne	$7db <f256Init+0x33d>
     7f0: a2 86        	ldx	#$86
     7f2: a0 00        	ldy	#$0
     7f4: 86 fb        	stx	$fb                     ; 0x20fb <f256main+0x18b7>
     7f6: 84 fc        	sty	$fc                     ; 0x20fc <f256main+0x18b8>
     7f8: a2 08        	ldx	#$8
     7fa: 86 fd        	stx	$fd                     ; 0x20fd <f256main+0x18b9>
     7fc: a2 8e        	ldx	#$8e
     7fe: a0 00        	ldy	#$0
     800: 86 12        	stx	$12                     ; 0x2012 <f256main+0x17ce>
     802: 84 13        	sty	$13                     ; 0x2013 <f256main+0x17cf>
     804: a2 6f        	ldx	#$6f
     806: 86 14        	stx	$14                     ; 0x2014 <f256main+0x17d0>
     808: a2 7a        	ldx	#$7a
     80a: 86 15        	stx	$15                     ; 0x2015 <f256main+0x17d1>
     80c: 20 dc ff     	jsr	$ffdc <end_block9+0x856c>
     80f: 92 12        	sta	($12)                   ; 0x2012 <f256main+0x17ce>
     811: a9 00        	lda	#$0
     813: 6a           	ror
     814: 85 14        	sta	$14                     ; 0x2014 <f256main+0x17d0>
     816: a6 8c        	ldx	$8c                     ; 0x208c <f256main+0x1848>
     818: a4 8d        	ldy	$8d                     ; 0x208d <f256main+0x1849>
     81a: 8e 00 de     	stx	$de00                   ; 0xde00 <end_block9+0x6390>
     81d: 9c 01 de     	stz	$de01                   ; 0xde01 <end_block9+0x6391>
     820: 8c 02 de     	sty	$de02                   ; 0xde02 <end_block9+0x6392>
     823: 9c 03 de     	stz	$de03                   ; 0xde03 <end_block9+0x6393>
     826: ae 10 de     	ldx	$de10                   ; 0xde10 <end_block9+0x63a0>
     829: ac 11 de     	ldy	$de11                   ; 0xde11 <end_block9+0x63a1>
     82c: ad 12 de     	lda	$de12                   ; 0xde12 <end_block9+0x63a2>
     82f: ad 13 de     	lda	$de13                   ; 0xde13 <end_block9+0x63a3>
     832: 8e a4 d6     	stx	$d6a4                   ; 0xd6a4 <end_block9+0x5c34>
     835: 8c a5 d6     	sty	$d6a5                   ; 0xd6a5 <end_block9+0x5c35>
     838: a2 03        	ldx	#$3
     83a: 8e a6 d6     	stx	$d6a6                   ; 0xd6a6 <end_block9+0x5c36>
     83d: 60           	rts

0000083e <main>:
     83e: 20 9e 04     	jsr	$49e <f256Init>
     841: 20 44 08     	jsr	$844 <f256main>

00000844 <f256main>:
     844: 18           	clc
     845: a5 10        	lda	$10                     ; 0x2010 <f256main+0x17cc>
     847: 69 f2        	adc	#$f2
     849: 85 10        	sta	$10                     ; 0x2010 <f256main+0x17cc>
     84b: a5 11        	lda	$11                     ; 0x2011 <f256main+0x17cd>
     84d: 69 ff        	adc	#$ff
     84f: 85 11        	sta	$11                     ; 0x2011 <f256main+0x17cd>
     851: 64 01        	stz	$1                      ; 0x2001 <f256main+0x17bd>
     853: a2 02        	ldx	#$2
     855: 86 01        	stx	$1                      ; 0x2001 <f256main+0x17bd>
     857: a2 c0        	ldx	#$c0
     859: a9 20        	lda	#$20
     85b: a0 00        	ldy	#$0
     85d: 84 12        	sty	$12                     ; 0x2012 <f256main+0x17ce>
     85f: 86 13        	stx	$13                     ; 0x2013 <f256main+0x17cf>
     861: 92 12        	sta	($12)                   ; 0x2012 <f256main+0x17ce>
     863: c8           	iny
     864: d0 01        	bne	$867 <f256main+0x23>
     866: e8           	inx
     867: e0 d2        	cpx	#$d2
     869: d0 f2        	bne	$85d <f256main+0x19>
     86b: c0 c0        	cpy	#$c0
     86d: d0 ee        	bne	$85d <f256main+0x19>
     86f: a2 00        	ldx	#$0
     871: 64 01        	stz	$1                      ; 0x2001 <f256main+0x17bd>
     873: 64 01        	stz	$1                      ; 0x2001 <f256main+0x17bd>
     875: a0 4f        	ldy	#$4f
     877: 8c 00 d0     	sty	$d000                   ; 0xd000 <end_block9+0x5590>
     87a: 9c 01 d0     	stz	$d001                   ; 0xd001 <end_block9+0x5591>
     87d: 9c 02 d0     	stz	$d002                   ; 0xd002 <end_block9+0x5592>
     880: a0 01        	ldy	#$1
     882: 84 01        	sty	$1                      ; 0x2001 <f256main+0x17bd>
     884: a0 d0        	ldy	#$d0
     886: 18           	clc
     887: 86 16        	stx	$16                     ; 0x2016 <f256main+0x17d2>
     889: 8a           	txa
     88a: 69 00        	adc	#$0
     88c: 85 14        	sta	$14                     ; 0x2014 <f256main+0x17d0>
     88e: 98           	tya
     88f: 69 10        	adc	#$10
     891: 85 15        	sta	$15                     ; 0x2015 <f256main+0x17d1>
     893: 86 12        	stx	$12                     ; 0x2012 <f256main+0x17ce>
     895: 84 13        	sty	$13                     ; 0x2013 <f256main+0x17cf>
     897: a6 0f        	ldx	$f                      ; 0x200f <f256main+0x17cb>
     899: 78           	sei
     89a: a9 10        	lda	#$10
     89c: 85 0f        	sta	$f                      ; 0x200f <f256main+0x17cb>
     89e: b2 14        	lda	($14)                   ; 0x2014 <f256main+0x17d0>
     8a0: 86 0f        	stx	$f                      ; 0x200f <f256main+0x17cb>
     8a2: 58           	cli
     8a3: 92 12        	sta	($12)                   ; 0x2012 <f256main+0x17ce>
     8a5: a6 16        	ldx	$16                     ; 0x2016 <f256main+0x17d2>
     8a7: e8           	inx
     8a8: d0 01        	bne	$8ab <f256main+0x67>
     8aa: c8           	iny
     8ab: c0 d3        	cpy	#$d3
     8ad: d0 d7        	bne	$886 <f256main+0x42>
     8af: e0 ff        	cpx	#$ff
     8b1: d0 d3        	bne	$886 <f256main+0x42>
     8b3: 64 01        	stz	$1                      ; 0x2001 <f256main+0x17bd>
     8b5: 9c 1f 7a     	stz	$7a1f                   ; 0x7a1f <__bss_start>
     8b8: a2 80        	ldx	#$80
     8ba: 8e 20 7a     	stx	$7a20                   ; 0x7a20 <__bss_start+0x1>
     8bd: a0 02        	ldy	#$2
     8bf: 8c 21 7a     	sty	$7a21                   ; 0x7a21 <__bss_start+0x2>
     8c2: 9c 22 7a     	stz	$7a22                   ; 0x7a22 <__bss_start+0x3>
     8c5: 9c 01 d1     	stz	$d101                   ; 0xd101 <end_block9+0x5691>
     8c8: 8e 02 d1     	stx	$d102                   ; 0xd102 <end_block9+0x5692>
     8cb: 8c 03 d1     	sty	$d103                   ; 0xd103 <end_block9+0x5693>
     8ce: a2 01        	ldx	#$1
     8d0: 8e 00 d1     	stx	$d100                   ; 0xd100 <end_block9+0x5690>
     8d3: ad 00 d1     	lda	$d100                   ; 0xd100 <end_block9+0x5690>
     8d6: 29 f9        	and	#$f9
     8d8: 8d 00 d1     	sta	$d100                   ; 0xd100 <end_block9+0x5690>
     8db: 20 96 37     	jsr	$3796 <textTitle>
     8de: 20 11 3a     	jsr	$3a11 <refreshInstrumentText>
     8e1: 9c 23 7a     	stz	$7a23                   ; 0x7a23 <theBeats>
     8e4: 9c 25 7a     	stz	$7a25                   ; 0x7a25 <theBeats+0x2>
     8e7: a2 5a        	ldx	#$5a
     8e9: 8e 26 7a     	stx	$7a26                   ; 0x7a26 <theBeats+0x3>
     8ec: a9 01        	lda	#$1
     8ee: 8d 27 7a     	sta	$7a27                   ; 0x7a27 <theBeats+0x4>
     8f1: a2 00        	ldx	#$0
     8f3: 20 3e 4e     	jsr	$4e3e <malloc>
     8f6: a6 12        	ldx	$12                     ; 0x2012 <f256main+0x17ce>
     8f8: a4 13        	ldy	$13                     ; 0x2013 <f256main+0x17cf>
     8fa: 8e 28 7a     	stx	$7a28                   ; 0x7a28 <theBeats+0x5>
     8fd: 8c 29 7a     	sty	$7a29                   ; 0x7a29 <theBeats+0x6>
     900: a9 09        	lda	#$9
     902: 92 12        	sta	($12)                   ; 0x2012 <f256main+0x17ce>
     904: a2 00        	ldx	#$0
     906: a9 01        	lda	#$1
     908: 20 3e 4e     	jsr	$4e3e <malloc>
     90b: a6 12        	ldx	$12                     ; 0x2012 <f256main+0x17ce>
     90d: a4 13        	ldy	$13                     ; 0x2013 <f256main+0x17cf>
     90f: 8e 2a 7a     	stx	$7a2a                   ; 0x7a2a <theBeats+0x7>
     912: 8c 2b 7a     	sty	$7a2b                   ; 0x7a2b <theBeats+0x8>
     915: a9 00        	lda	#$0
     917: 92 12        	sta	($12)                   ; 0x2012 <f256main+0x17ce>
     919: a9 03        	lda	#$3
     91b: a2 00        	ldx	#$0
     91d: 20 3e 4e     	jsr	$4e3e <malloc>
     920: a6 12        	ldx	$12                     ; 0x2012 <f256main+0x17ce>
     922: a4 13        	ldy	$13                     ; 0x2013 <f256main+0x17cf>
     924: 8e 34 7a     	stx	$7a34                   ; 0x7a34 <theBeats+0x11>
     927: 8c 35 7a     	sty	$7a35                   ; 0x7a35 <theBeats+0x12>
     92a: a9 00        	lda	#$0
     92c: 92 12        	sta	($12)                   ; 0x2012 <f256main+0x17ce>
     92e: a0 02        	ldy	#$2
     930: a9 05        	lda	#$5
     932: 91 12        	sta	($12),y                 ; 0x2012 <f256main+0x17ce>
     934: a2 00        	ldx	#$0
     936: 98           	tya
     937: 20 3e 4e     	jsr	$4e3e <malloc>
     93a: a6 12        	ldx	$12                     ; 0x2012 <f256main+0x17ce>
     93c: a4 13        	ldy	$13                     ; 0x2013 <f256main+0x17cf>
     93e: 8e 2c 7a     	stx	$7a2c                   ; 0x7a2c <theBeats+0x9>
     941: 8c 2d 7a     	sty	$7a2d                   ; 0x7a2d <theBeats+0xa>
     944: a2 00        	ldx	#$0
     946: a9 02        	lda	#$2
     948: 20 3e 4e     	jsr	$4e3e <malloc>
     94b: a6 12        	ldx	$12                     ; 0x2012 <f256main+0x17ce>
     94d: a4 13        	ldy	$13                     ; 0x2013 <f256main+0x17cf>
     94f: 8e 32 7a     	stx	$7a32                   ; 0x7a32 <theBeats+0xf>
     952: 8c 33 7a     	sty	$7a33                   ; 0x7a33 <theBeats+0x10>
     955: a2 00        	ldx	#$0
     957: a9 02        	lda	#$2
     959: 20 3e 4e     	jsr	$4e3e <malloc>
     95c: ae 2c 7a     	ldx	$7a2c                   ; 0x7a2c <theBeats+0x9>
     95f: ac 2d 7a     	ldy	$7a2d                   ; 0x7a2d <theBeats+0xa>
     962: 86 14        	stx	$14                     ; 0x2014 <f256main+0x17d0>
     964: 84 15        	sty	$15                     ; 0x2015 <f256main+0x17d1>
     966: a5 12        	lda	$12                     ; 0x2012 <f256main+0x17ce>
     968: 92 14        	sta	($14)                   ; 0x2014 <f256main+0x17d0>
     96a: a0 01        	ldy	#$1
     96c: a5 13        	lda	$13                     ; 0x2013 <f256main+0x17cf>
     96e: 91 14        	sta	($14),y                 ; 0x2014 <f256main+0x17d0>
     970: a2 00        	ldx	#$0
     972: a9 02        	lda	#$2
     974: 20 3e 4e     	jsr	$4e3e <malloc>
     977: ae 32 7a     	ldx	$7a32                   ; 0x7a32 <theBeats+0xf>
     97a: ac 33 7a     	ldy	$7a33                   ; 0x7a33 <theBeats+0x10>
     97d: 86 14        	stx	$14                     ; 0x2014 <f256main+0x17d0>
     97f: 84 15        	sty	$15                     ; 0x2015 <f256main+0x17d1>
     981: a5 12        	lda	$12                     ; 0x2012 <f256main+0x17ce>
     983: 92 14        	sta	($14)                   ; 0x2014 <f256main+0x17d0>
     985: a0 01        	ldy	#$1
     987: a5 13        	lda	$13                     ; 0x2013 <f256main+0x17cf>
     989: 91 14        	sta	($14),y                 ; 0x2014 <f256main+0x17d0>
     98b: ae 2c 7a     	ldx	$7a2c                   ; 0x7a2c <theBeats+0x9>
     98e: ad 2d 7a     	lda	$7a2d                   ; 0x7a2d <theBeats+0xa>
     991: 86 12        	stx	$12                     ; 0x2012 <f256main+0x17ce>
     993: 85 13        	sta	$13                     ; 0x2013 <f256main+0x17cf>
     995: b2 12        	lda	($12)                   ; 0x2012 <f256main+0x17ce>
     997: 85 16        	sta	$16                     ; 0x2016 <f256main+0x17d2>
     999: b1 12        	lda	($12),y                 ; 0x2012 <f256main+0x17ce>
     99b: 85 17        	sta	$17                     ; 0x2017 <f256main+0x17d3>
     99d: a9 24        	lda	#$24
     99f: 92 16        	sta	($16)                   ; 0x2016 <f256main+0x17d2>
     9a1: b2 12        	lda	($12)                   ; 0x2012 <f256main+0x17ce>
     9a3: aa           	tax
     9a4: b1 12        	lda	($12),y                 ; 0x2012 <f256main+0x17ce>
     9a6: 86 12        	stx	$12                     ; 0x2012 <f256main+0x17ce>
     9a8: 85 13        	sta	$13                     ; 0x2013 <f256main+0x17cf>
     9aa: a9 26        	lda	#$26
     9ac: 91 12        	sta	($12),y                 ; 0x2012 <f256main+0x17ce>
     9ae: b2 14        	lda	($14)                   ; 0x2014 <f256main+0x17d0>
     9b0: 85 12        	sta	$12                     ; 0x2012 <f256main+0x17ce>
     9b2: b1 14        	lda	($14),y                 ; 0x2014 <f256main+0x17d0>
     9b4: 85 13        	sta	$13                     ; 0x2013 <f256main+0x17cf>
     9b6: a9 03        	lda	#$3
     9b8: 92 12        	sta	($12)                   ; 0x2012 <f256main+0x17ce>
     9ba: b2 14        	lda	($14)                   ; 0x2014 <f256main+0x17d0>
     9bc: 85 12        	sta	$12                     ; 0x2012 <f256main+0x17ce>
     9be: b1 14        	lda	($14),y                 ; 0x2014 <f256main+0x17d0>
     9c0: 85 13        	sta	$13                     ; 0x2013 <f256main+0x17cf>
     9c2: a9 03        	lda	#$3
     9c4: 91 12        	sta	($12),y                 ; 0x2012 <f256main+0x17ce>
     9c6: a2 00        	ldx	#$0
     9c8: 98           	tya
     9c9: 20 3e 4e     	jsr	$4e3e <malloc>
     9cc: a6 12        	ldx	$12                     ; 0x2012 <f256main+0x17ce>
     9ce: a4 13        	ldy	$13                     ; 0x2013 <f256main+0x17cf>
     9d0: 8e 2e 7a     	stx	$7a2e                   ; 0x7a2e <theBeats+0xb>
     9d3: 8c 2f 7a     	sty	$7a2f                   ; 0x7a2f <theBeats+0xc>
     9d6: a9 02        	lda	#$2
     9d8: 92 12        	sta	($12)                   ; 0x2012 <f256main+0x17ce>
     9da: 9c 36 7a     	stz	$7a36                   ; 0x7a36 <theBeats+0x13>
     9dd: 9c 38 7a     	stz	$7a38                   ; 0x7a38 <theBeats+0x15>
     9e0: a2 80        	ldx	#$80
     9e2: 8e 39 7a     	stx	$7a39                   ; 0x7a39 <theBeats+0x16>
     9e5: 8d 3a 7a     	sta	$7a3a                   ; 0x7a3a <theBeats+0x17>
     9e8: a2 00        	ldx	#$0
     9ea: 20 3e 4e     	jsr	$4e3e <malloc>
     9ed: a6 12        	ldx	$12                     ; 0x2012 <f256main+0x17ce>
     9ef: a4 13        	ldy	$13                     ; 0x2013 <f256main+0x17cf>
     9f1: 8e 3b 7a     	stx	$7a3b                   ; 0x7a3b <theBeats+0x18>
     9f4: 8c 3c 7a     	sty	$7a3c                   ; 0x7a3c <theBeats+0x19>
     9f7: a9 09        	lda	#$9
     9f9: 92 12        	sta	($12)                   ; 0x2012 <f256main+0x17ce>
     9fb: a9 02        	lda	#$2
     9fd: a0 01        	ldy	#$1
     9ff: 91 12        	sta	($12),y                 ; 0x2012 <f256main+0x17ce>
     a01: a2 00        	ldx	#$0
     a03: 20 3e 4e     	jsr	$4e3e <malloc>
     a06: a6 12        	ldx	$12                     ; 0x2012 <f256main+0x17ce>
     a08: a4 13        	ldy	$13                     ; 0x2013 <f256main+0x17cf>
     a0a: 8e 3d 7a     	stx	$7a3d                   ; 0x7a3d <theBeats+0x1a>
     a0d: 8c 3e 7a     	sty	$7a3e                   ; 0x7a3e <theBeats+0x1b>
     a10: a9 00        	lda	#$0
     a12: a0 01        	ldy	#$1
     a14: 91 12        	sta	($12),y                 ; 0x2012 <f256main+0x17ce>
     a16: 92 12        	sta	($12)                   ; 0x2012 <f256main+0x17ce>
     a18: a9 06        	lda	#$6
     a1a: a2 00        	ldx	#$0
     a1c: 20 3e 4e     	jsr	$4e3e <malloc>
     a1f: a6 12        	ldx	$12                     ; 0x2012 <f256main+0x17ce>
     a21: a4 13        	ldy	$13                     ; 0x2013 <f256main+0x17cf>
     a23: 8e 47 7a     	stx	$7a47                   ; 0x7a47 <theBeats+0x24>
     a26: 8c 48 7a     	sty	$7a48                   ; 0x7a48 <theBeats+0x25>
     a29: a9 00        	lda	#$0
     a2b: 92 12        	sta	($12)                   ; 0x2012 <f256main+0x17ce>
     a2d: a0 03        	ldy	#$3
     a2f: 91 12        	sta	($12),y                 ; 0x2012 <f256main+0x17ce>
     a31: a9 06        	lda	#$6
     a33: 88           	dey
     a34: 91 12        	sta	($12),y                 ; 0x2012 <f256main+0x17ce>
     a36: a0 05        	ldy	#$5
     a38: 1a           	inc
     a39: 91 12        	sta	($12),y                 ; 0x2012 <f256main+0x17ce>
     a3b: a9 04        	lda	#$4
     a3d: a2 00        	ldx	#$0
     a3f: 20 3e 4e     	jsr	$4e3e <malloc>
     a42: a6 12        	ldx	$12                     ; 0x2012 <f256main+0x17ce>
     a44: a4 13        	ldy	$13                     ; 0x2013 <f256main+0x17cf>
     a46: 8e 3f 7a     	stx	$7a3f                   ; 0x7a3f <theBeats+0x1c>
     a49: 8c 40 7a     	sty	$7a40                   ; 0x7a40 <theBeats+0x1d>
     a4c: a2 00        	ldx	#$0
     a4e: a9 04        	lda	#$4
     a50: 20 3e 4e     	jsr	$4e3e <malloc>
     a53: a6 12        	ldx	$12                     ; 0x2012 <f256main+0x17ce>
     a55: a4 13        	ldy	$13                     ; 0x2013 <f256main+0x17cf>
     a57: 8e 45 7a     	stx	$7a45                   ; 0x7a45 <theBeats+0x22>
     a5a: 8c 46 7a     	sty	$7a46                   ; 0x7a46 <theBeats+0x23>
     a5d: a2 00        	ldx	#$0
     a5f: a9 05        	lda	#$5
     a61: 20 3e 4e     	jsr	$4e3e <malloc>
     a64: ae 3f 7a     	ldx	$7a3f                   ; 0x7a3f <theBeats+0x1c>
     a67: ac 40 7a     	ldy	$7a40                   ; 0x7a40 <theBeats+0x1d>
     a6a: 86 14        	stx	$14                     ; 0x2014 <f256main+0x17d0>
     a6c: 84 15        	sty	$15                     ; 0x2015 <f256main+0x17d1>
     a6e: a5 12        	lda	$12                     ; 0x2012 <f256main+0x17ce>
     a70: 92 14        	sta	($14)                   ; 0x2014 <f256main+0x17d0>
     a72: a0 01        	ldy	#$1
     a74: a5 13        	lda	$13                     ; 0x2013 <f256main+0x17cf>
     a76: 91 14        	sta	($14),y                 ; 0x2014 <f256main+0x17d0>
     a78: a2 00        	ldx	#$0
     a7a: a9 05        	lda	#$5
     a7c: 20 3e 4e     	jsr	$4e3e <malloc>
     a7f: ae 45 7a     	ldx	$7a45                   ; 0x7a45 <theBeats+0x22>
     a82: ac 46 7a     	ldy	$7a46                   ; 0x7a46 <theBeats+0x23>
     a85: 86 14        	stx	$14                     ; 0x2014 <f256main+0x17d0>
     a87: 84 15        	sty	$15                     ; 0x2015 <f256main+0x17d1>
     a89: a5 12        	lda	$12                     ; 0x2012 <f256main+0x17ce>
     a8b: 92 14        	sta	($14)                   ; 0x2014 <f256main+0x17d0>
     a8d: a0 01        	ldy	#$1
     a8f: a5 13        	lda	$13                     ; 0x2013 <f256main+0x17cf>
     a91: 91 14        	sta	($14),y                 ; 0x2014 <f256main+0x17d0>
     a93: a9 08        	lda	#$8
     a95: a2 00        	ldx	#$0
     a97: 20 3e 4e     	jsr	$4e3e <malloc>
     a9a: ad 3f 7a     	lda	$7a3f                   ; 0x7a3f <theBeats+0x1c>
     a9d: ae 40 7a     	ldx	$7a40                   ; 0x7a40 <theBeats+0x1d>
     aa0: 85 14        	sta	$14                     ; 0x2014 <f256main+0x17d0>
     aa2: 86 15        	stx	$15                     ; 0x2015 <f256main+0x17d1>
     aa4: 18           	clc
     aa5: 69 02        	adc	#$2
     aa7: 85 16        	sta	$16                     ; 0x2016 <f256main+0x17d2>
     aa9: 8a           	txa
     aaa: 69 00        	adc	#$0
     aac: 85 17        	sta	$17                     ; 0x2017 <f256main+0x17d3>
     aae: a5 12        	lda	$12                     ; 0x2012 <f256main+0x17ce>
     ab0: a0 02        	ldy	#$2
     ab2: 91 14        	sta	($14),y                 ; 0x2014 <f256main+0x17d0>
     ab4: a5 13        	lda	$13                     ; 0x2013 <f256main+0x17cf>
     ab6: 88           	dey
     ab7: 91 16        	sta	($16),y                 ; 0x2016 <f256main+0x17d2>
     ab9: a2 00        	ldx	#$0
     abb: a9 08        	lda	#$8
     abd: 20 3e 4e     	jsr	$4e3e <malloc>
     ac0: ad 45 7a     	lda	$7a45                   ; 0x7a45 <theBeats+0x22>
     ac3: ae 46 7a     	ldx	$7a46                   ; 0x7a46 <theBeats+0x23>
     ac6: 85 14        	sta	$14                     ; 0x2014 <f256main+0x17d0>
     ac8: 86 15        	stx	$15                     ; 0x2015 <f256main+0x17d1>
     aca: 18           	clc
     acb: 69 02        	adc	#$2
     acd: 85 16        	sta	$16                     ; 0x2016 <f256main+0x17d2>
     acf: 8a           	txa
     ad0: 69 00        	adc	#$0
     ad2: 85 17        	sta	$17                     ; 0x2017 <f256main+0x17d3>
     ad4: a5 12        	lda	$12                     ; 0x2012 <f256main+0x17ce>
     ad6: a0 02        	ldy	#$2
     ad8: 91 14        	sta	($14),y                 ; 0x2014 <f256main+0x17d0>
     ada: 88           	dey
     adb: a5 13        	lda	$13                     ; 0x2013 <f256main+0x17cf>
     add: 91 16        	sta	($16),y                 ; 0x2016 <f256main+0x17d2>
     adf: a2 00        	ldx	#$0
     ae1: a9 02        	lda	#$2
     ae3: 20 3e 4e     	jsr	$4e3e <malloc>
     ae6: a6 12        	ldx	$12                     ; 0x2012 <f256main+0x17ce>
     ae8: a4 13        	ldy	$13                     ; 0x2013 <f256main+0x17cf>
     aea: 8e 41 7a     	stx	$7a41                   ; 0x7a41 <theBeats+0x1e>
     aed: 8c 42 7a     	sty	$7a42                   ; 0x7a42 <theBeats+0x1f>
     af0: a9 05        	lda	#$5
     af2: 92 12        	sta	($12)                   ; 0x2012 <f256main+0x17ce>
     af4: a9 08        	lda	#$8
     af6: a0 01        	ldy	#$1
     af8: 91 12        	sta	($12),y                 ; 0x2012 <f256main+0x17ce>
     afa: ae 3f 7a     	ldx	$7a3f                   ; 0x7a3f <theBeats+0x1c>
     afd: ad 40 7a     	lda	$7a40                   ; 0x7a40 <theBeats+0x1d>
     b00: 86 16        	stx	$16                     ; 0x2016 <f256main+0x17d2>
     b02: 86 1a        	stx	$1a                     ; 0x201a <f256main+0x17d6>
     b04: 85 17        	sta	$17                     ; 0x2017 <f256main+0x17d3>
     b06: 85 1b        	sta	$1b                     ; 0x201b <f256main+0x17d7>
     b08: b2 16        	lda	($16)                   ; 0x2016 <f256main+0x17d2>
     b0a: 85 14        	sta	$14                     ; 0x2014 <f256main+0x17d0>
     b0c: b1 16        	lda	($16),y                 ; 0x2016 <f256main+0x17d2>
     b0e: 85 15        	sta	$15                     ; 0x2015 <f256main+0x17d1>
     b10: a9 24        	lda	#$24
     b12: 92 14        	sta	($14)                   ; 0x2014 <f256main+0x17d0>
     b14: b2 16        	lda	($16)                   ; 0x2016 <f256main+0x17d2>
     b16: 85 14        	sta	$14                     ; 0x2014 <f256main+0x17d0>
     b18: b1 16        	lda	($16),y                 ; 0x2016 <f256main+0x17d2>
     b1a: 85 15        	sta	$15                     ; 0x2015 <f256main+0x17d1>
     b1c: a9 28        	lda	#$28
     b1e: 91 14        	sta	($14),y                 ; 0x2014 <f256main+0x17d0>
     b20: b2 16        	lda	($16)                   ; 0x2016 <f256main+0x17d2>
     b22: 85 14        	sta	$14                     ; 0x2014 <f256main+0x17d0>
     b24: b1 16        	lda	($16),y                 ; 0x2016 <f256main+0x17d2>
     b26: 85 15        	sta	$15                     ; 0x2015 <f256main+0x17d1>
     b28: c8           	iny
     b29: a9 28        	lda	#$28
     b2b: 91 14        	sta	($14),y                 ; 0x2014 <f256main+0x17d0>
     b2d: b2 16        	lda	($16)                   ; 0x2016 <f256main+0x17d2>
     b2f: 85 14        	sta	$14                     ; 0x2014 <f256main+0x17d0>
     b31: 88           	dey
     b32: b1 16        	lda	($16),y                 ; 0x2016 <f256main+0x17d2>
     b34: 85 15        	sta	$15                     ; 0x2015 <f256main+0x17d1>
     b36: a9 24        	lda	#$24
     b38: a0 03        	ldy	#$3
     b3a: 91 14        	sta	($14),y                 ; 0x2014 <f256main+0x17d0>
     b3c: b2 16        	lda	($16)                   ; 0x2016 <f256main+0x17d2>
     b3e: 85 14        	sta	$14                     ; 0x2014 <f256main+0x17d0>
     b40: a0 01        	ldy	#$1
     b42: b1 16        	lda	($16),y                 ; 0x2016 <f256main+0x17d2>
     b44: 85 15        	sta	$15                     ; 0x2015 <f256main+0x17d1>
     b46: a0 04        	ldy	#$4
     b48: a9 28        	lda	#$28
     b4a: 91 14        	sta	($14),y                 ; 0x2014 <f256main+0x17d0>
     b4c: ae 45 7a     	ldx	$7a45                   ; 0x7a45 <theBeats+0x22>
     b4f: ad 46 7a     	lda	$7a46                   ; 0x7a46 <theBeats+0x23>
     b52: 86 14        	stx	$14                     ; 0x2014 <f256main+0x17d0>
     b54: 85 15        	sta	$15                     ; 0x2015 <f256main+0x17d1>
     b56: 85 1c        	sta	$1c                     ; 0x201c <f256main+0x17d8>
     b58: b2 14        	lda	($14)                   ; 0x2014 <f256main+0x17d0>
     b5a: 85 18        	sta	$18                     ; 0x2018 <f256main+0x17d4>
     b5c: a0 01        	ldy	#$1
     b5e: b1 14        	lda	($14),y                 ; 0x2014 <f256main+0x17d0>
     b60: 85 19        	sta	$19                     ; 0x2019 <f256main+0x17d5>
     b62: a9 03        	lda	#$3
     b64: 92 18        	sta	($18)                   ; 0x2018 <f256main+0x17d4>
     b66: b2 14        	lda	($14)                   ; 0x2014 <f256main+0x17d0>
     b68: 85 18        	sta	$18                     ; 0x2018 <f256main+0x17d4>
     b6a: b1 14        	lda	($14),y                 ; 0x2014 <f256main+0x17d0>
     b6c: 85 19        	sta	$19                     ; 0x2019 <f256main+0x17d5>
     b6e: a9 02        	lda	#$2
     b70: 91 18        	sta	($18),y                 ; 0x2018 <f256main+0x17d4>
     b72: b2 14        	lda	($14)                   ; 0x2014 <f256main+0x17d0>
     b74: 85 18        	sta	$18                     ; 0x2018 <f256main+0x17d4>
     b76: b1 14        	lda	($14),y                 ; 0x2014 <f256main+0x17d0>
     b78: 85 19        	sta	$19                     ; 0x2019 <f256main+0x17d5>
     b7a: a9 02        	lda	#$2
     b7c: a8           	tay
     b7d: 91 18        	sta	($18),y                 ; 0x2018 <f256main+0x17d4>
     b7f: b2 14        	lda	($14)                   ; 0x2014 <f256main+0x17d0>
     b81: 85 18        	sta	$18                     ; 0x2018 <f256main+0x17d4>
     b83: 88           	dey
     b84: b1 14        	lda	($14),y                 ; 0x2014 <f256main+0x17d0>
     b86: 85 19        	sta	$19                     ; 0x2019 <f256main+0x17d5>
     b88: a9 03        	lda	#$3
     b8a: a8           	tay
     b8b: 91 18        	sta	($18),y                 ; 0x2018 <f256main+0x17d4>
     b8d: b2 14        	lda	($14)                   ; 0x2014 <f256main+0x17d0>
     b8f: 85 18        	sta	$18                     ; 0x2018 <f256main+0x17d4>
     b91: a0 01        	ldy	#$1
     b93: b1 14        	lda	($14),y                 ; 0x2014 <f256main+0x17d0>
     b95: 85 19        	sta	$19                     ; 0x2019 <f256main+0x17d5>
     b97: a9 03        	lda	#$3
     b99: a0 04        	ldy	#$4
     b9b: 91 18        	sta	($18),y                 ; 0x2018 <f256main+0x17d4>
     b9d: a9 05        	lda	#$5
     b9f: 92 12        	sta	($12)                   ; 0x2012 <f256main+0x17ce>
     ba1: 18           	clc
     ba2: a5 1a        	lda	$1a                     ; 0x201a <f256main+0x17d6>
     ba4: 69 02        	adc	#$2
     ba6: 85 18        	sta	$18                     ; 0x2018 <f256main+0x17d4>
     ba8: a5 1b        	lda	$1b                     ; 0x201b <f256main+0x17d7>
     baa: 69 00        	adc	#$0
     bac: 85 19        	sta	$19                     ; 0x2019 <f256main+0x17d5>
     bae: a0 02        	ldy	#$2
     bb0: b1 16        	lda	($16),y                 ; 0x2016 <f256main+0x17d2>
     bb2: 85 1a        	sta	$1a                     ; 0x201a <f256main+0x17d6>
     bb4: 88           	dey
     bb5: b1 18        	lda	($18),y                 ; 0x2018 <f256main+0x17d4>
     bb7: 85 1b        	sta	$1b                     ; 0x201b <f256main+0x17d7>
     bb9: a9 4b        	lda	#$4b
     bbb: 92 1a        	sta	($1a)                   ; 0x201a <f256main+0x17d6>
     bbd: c8           	iny
     bbe: b1 16        	lda	($16),y                 ; 0x2016 <f256main+0x17d2>
     bc0: 85 1a        	sta	$1a                     ; 0x201a <f256main+0x17d6>
     bc2: 88           	dey
     bc3: b1 18        	lda	($18),y                 ; 0x2018 <f256main+0x17d4>
     bc5: 85 1b        	sta	$1b                     ; 0x201b <f256main+0x17d7>
     bc7: a9 63        	lda	#$63
     bc9: 91 1a        	sta	($1a),y                 ; 0x201a <f256main+0x17d6>
     bcb: c8           	iny
     bcc: b1 16        	lda	($16),y                 ; 0x2016 <f256main+0x17d2>
     bce: 85 1a        	sta	$1a                     ; 0x201a <f256main+0x17d6>
     bd0: 88           	dey
     bd1: b1 18        	lda	($18),y                 ; 0x2018 <f256main+0x17d4>
     bd3: 85 1b        	sta	$1b                     ; 0x201b <f256main+0x17d7>
     bd5: a9 00        	lda	#$0
     bd7: c8           	iny
     bd8: 91 1a        	sta	($1a),y                 ; 0x201a <f256main+0x17d6>
     bda: b1 16        	lda	($16),y                 ; 0x2016 <f256main+0x17d2>
     bdc: 85 1a        	sta	$1a                     ; 0x201a <f256main+0x17d6>
     bde: 88           	dey
     bdf: b1 18        	lda	($18),y                 ; 0x2018 <f256main+0x17d4>
     be1: 85 1b        	sta	$1b                     ; 0x201b <f256main+0x17d7>
     be3: a0 03        	ldy	#$3
     be5: a9 63        	lda	#$63
     be7: 91 1a        	sta	($1a),y                 ; 0x201a <f256main+0x17d6>
     be9: 88           	dey
     bea: b1 16        	lda	($16),y                 ; 0x2016 <f256main+0x17d2>
     bec: 85 1a        	sta	$1a                     ; 0x201a <f256main+0x17d6>
     bee: 88           	dey
     bef: b1 18        	lda	($18),y                 ; 0x2018 <f256main+0x17d4>
     bf1: 85 1b        	sta	$1b                     ; 0x201b <f256main+0x17d7>
     bf3: a0 04        	ldy	#$4
     bf5: a9 4b        	lda	#$4b
     bf7: 91 1a        	sta	($1a),y                 ; 0x201a <f256main+0x17d6>
     bf9: a0 02        	ldy	#$2
     bfb: b1 16        	lda	($16),y                 ; 0x2016 <f256main+0x17d2>
     bfd: 85 1a        	sta	$1a                     ; 0x201a <f256main+0x17d6>
     bff: 88           	dey
     c00: b1 18        	lda	($18),y                 ; 0x2018 <f256main+0x17d4>
     c02: 85 1b        	sta	$1b                     ; 0x201b <f256main+0x17d7>
     c04: a0 05        	ldy	#$5
     c06: a9 63        	lda	#$63
     c08: 91 1a        	sta	($1a),y                 ; 0x201a <f256main+0x17d6>
     c0a: a0 02        	ldy	#$2
     c0c: b1 16        	lda	($16),y                 ; 0x2016 <f256main+0x17d2>
     c0e: 85 1a        	sta	$1a                     ; 0x201a <f256main+0x17d6>
     c10: 88           	dey
     c11: b1 18        	lda	($18),y                 ; 0x2018 <f256main+0x17d4>
     c13: 85 1b        	sta	$1b                     ; 0x201b <f256main+0x17d7>
     c15: a0 06        	ldy	#$6
     c17: a9 4b        	lda	#$4b
     c19: 91 1a        	sta	($1a),y                 ; 0x201a <f256main+0x17d6>
     c1b: a0 02        	ldy	#$2
     c1d: b1 16        	lda	($16),y                 ; 0x2016 <f256main+0x17d2>
     c1f: 85 16        	sta	$16                     ; 0x2016 <f256main+0x17d2>
     c21: 88           	dey
     c22: b1 18        	lda	($18),y                 ; 0x2018 <f256main+0x17d4>
     c24: 85 17        	sta	$17                     ; 0x2017 <f256main+0x17d3>
     c26: a0 07        	ldy	#$7
     c28: a9 63        	lda	#$63
     c2a: 91 16        	sta	($16),y                 ; 0x2016 <f256main+0x17d2>
     c2c: 18           	clc
     c2d: 8a           	txa
     c2e: 69 02        	adc	#$2
     c30: 85 16        	sta	$16                     ; 0x2016 <f256main+0x17d2>
     c32: a5 1c        	lda	$1c                     ; 0x201c <f256main+0x17d8>
     c34: 69 00        	adc	#$0
     c36: 85 17        	sta	$17                     ; 0x2017 <f256main+0x17d3>
     c38: a0 02        	ldy	#$2
     c3a: b1 14        	lda	($14),y                 ; 0x2014 <f256main+0x17d0>
     c3c: 85 18        	sta	$18                     ; 0x2018 <f256main+0x17d4>
     c3e: 88           	dey
     c3f: b1 16        	lda	($16),y                 ; 0x2016 <f256main+0x17d2>
     c41: 85 19        	sta	$19                     ; 0x2019 <f256main+0x17d5>
     c43: a9 02        	lda	#$2
     c45: 92 18        	sta	($18)                   ; 0x2018 <f256main+0x17d4>
     c47: a8           	tay
     c48: b1 14        	lda	($14),y                 ; 0x2014 <f256main+0x17d0>
     c4a: 85 18        	sta	$18                     ; 0x2018 <f256main+0x17d4>
     c4c: 88           	dey
     c4d: b1 16        	lda	($16),y                 ; 0x2016 <f256main+0x17d2>
     c4f: 85 19        	sta	$19                     ; 0x2019 <f256main+0x17d5>
     c51: a9 02        	lda	#$2
     c53: 91 18        	sta	($18),y                 ; 0x2018 <f256main+0x17d4>
     c55: a8           	tay
     c56: b1 14        	lda	($14),y                 ; 0x2014 <f256main+0x17d0>
     c58: 85 18        	sta	$18                     ; 0x2018 <f256main+0x17d4>
     c5a: 88           	dey
     c5b: b1 16        	lda	($16),y                 ; 0x2016 <f256main+0x17d2>
     c5d: 85 19        	sta	$19                     ; 0x2019 <f256main+0x17d5>
     c5f: a9 02        	lda	#$2
     c61: a8           	tay
     c62: 91 18        	sta	($18),y                 ; 0x2018 <f256main+0x17d4>
     c64: b1 14        	lda	($14),y                 ; 0x2014 <f256main+0x17d0>
     c66: 85 18        	sta	$18                     ; 0x2018 <f256main+0x17d4>
     c68: 88           	dey
     c69: b1 16        	lda	($16),y                 ; 0x2016 <f256main+0x17d2>
     c6b: 85 19        	sta	$19                     ; 0x2019 <f256main+0x17d5>
     c6d: a9 02        	lda	#$2
     c6f: a0 03        	ldy	#$3
     c71: 91 18        	sta	($18),y                 ; 0x2018 <f256main+0x17d4>
     c73: a8           	tay
     c74: b1 14        	lda	($14),y                 ; 0x2014 <f256main+0x17d0>
     c76: 85 18        	sta	$18                     ; 0x2018 <f256main+0x17d4>
     c78: 88           	dey
     c79: b1 16        	lda	($16),y                 ; 0x2016 <f256main+0x17d2>
     c7b: 85 19        	sta	$19                     ; 0x2019 <f256main+0x17d5>
     c7d: a0 04        	ldy	#$4
     c7f: a9 02        	lda	#$2
     c81: 91 18        	sta	($18),y                 ; 0x2018 <f256main+0x17d4>
     c83: a8           	tay
     c84: b1 14        	lda	($14),y                 ; 0x2014 <f256main+0x17d0>
     c86: 85 18        	sta	$18                     ; 0x2018 <f256main+0x17d4>
     c88: 88           	dey
     c89: b1 16        	lda	($16),y                 ; 0x2016 <f256main+0x17d2>
     c8b: 85 19        	sta	$19                     ; 0x2019 <f256main+0x17d5>
     c8d: a0 05        	ldy	#$5
     c8f: a9 02        	lda	#$2
     c91: 91 18        	sta	($18),y                 ; 0x2018 <f256main+0x17d4>
     c93: a8           	tay
     c94: b1 14        	lda	($14),y                 ; 0x2014 <f256main+0x17d0>
     c96: 85 18        	sta	$18                     ; 0x2018 <f256main+0x17d4>
     c98: 88           	dey
     c99: b1 16        	lda	($16),y                 ; 0x2016 <f256main+0x17d2>
     c9b: 85 19        	sta	$19                     ; 0x2019 <f256main+0x17d5>
     c9d: a9 02        	lda	#$2
     c9f: a0 06        	ldy	#$6
     ca1: 91 18        	sta	($18),y                 ; 0x2018 <f256main+0x17d4>
     ca3: a8           	tay
     ca4: b1 14        	lda	($14),y                 ; 0x2014 <f256main+0x17d0>
     ca6: 85 14        	sta	$14                     ; 0x2014 <f256main+0x17d0>
     ca8: 88           	dey
     ca9: b1 16        	lda	($16),y                 ; 0x2016 <f256main+0x17d2>
     cab: 85 15        	sta	$15                     ; 0x2015 <f256main+0x17d1>
     cad: a9 02        	lda	#$2
     caf: a0 07        	ldy	#$7
     cb1: 91 14        	sta	($14),y                 ; 0x2014 <f256main+0x17d0>
     cb3: a9 08        	lda	#$8
     cb5: a0 01        	ldy	#$1
     cb7: 91 12        	sta	($12),y                 ; 0x2012 <f256main+0x17ce>
     cb9: a2 64        	ldx	#$64
     cbb: 8e 4c 7a     	stx	$7a4c                   ; 0x7a4c <theBeats+0x29>
     cbe: 9c 49 7a     	stz	$7a49                   ; 0x7a49 <theBeats+0x26>
     cc1: 9c 4b 7a     	stz	$7a4b                   ; 0x7a4b <theBeats+0x28>
     cc4: a2 02        	ldx	#$2
     cc6: 8e 4d 7a     	stx	$7a4d                   ; 0x7a4d <theBeats+0x2a>
     cc9: a2 00        	ldx	#$0
     ccb: a9 02        	lda	#$2
     ccd: 20 3e 4e     	jsr	$4e3e <malloc>
     cd0: a6 12        	ldx	$12                     ; 0x2012 <f256main+0x17ce>
     cd2: a4 13        	ldy	$13                     ; 0x2013 <f256main+0x17cf>
     cd4: 8e 4e 7a     	stx	$7a4e                   ; 0x7a4e <theBeats+0x2b>
     cd7: 8c 4f 7a     	sty	$7a4f                   ; 0x7a4f <theBeats+0x2c>
     cda: a9 09        	lda	#$9
     cdc: 92 12        	sta	($12)                   ; 0x2012 <f256main+0x17ce>
     cde: a0 01        	ldy	#$1
     ce0: 91 12        	sta	($12),y                 ; 0x2012 <f256main+0x17ce>
     ce2: a2 00        	ldx	#$0
     ce4: a9 02        	lda	#$2
     ce6: 20 3e 4e     	jsr	$4e3e <malloc>
     ce9: a6 12        	ldx	$12                     ; 0x2012 <f256main+0x17ce>
     ceb: a4 13        	ldy	$13                     ; 0x2013 <f256main+0x17cf>
     ced: 8e 50 7a     	stx	$7a50                   ; 0x7a50 <theBeats+0x2d>
     cf0: 8c 51 7a     	sty	$7a51                   ; 0x7a51 <theBeats+0x2e>
     cf3: a9 00        	lda	#$0
     cf5: 92 12        	sta	($12)                   ; 0x2012 <f256main+0x17ce>
     cf7: a0 01        	ldy	#$1
     cf9: 91 12        	sta	($12),y                 ; 0x2012 <f256main+0x17ce>
     cfb: aa           	tax
     cfc: a9 06        	lda	#$6
     cfe: 20 3e 4e     	jsr	$4e3e <malloc>
     d01: a6 12        	ldx	$12                     ; 0x2012 <f256main+0x17ce>
     d03: 8e 5a 7a     	stx	$7a5a                   ; 0x7a5a <theBeats+0x37>
     d06: a6 13        	ldx	$13                     ; 0x2013 <f256main+0x17cf>
     d08: 8e 5b 7a     	stx	$7a5b                   ; 0x7a5b <theBeats+0x38>
     d0b: a9 08        	lda	#$8
     d0d: a0 02        	ldy	#$2
     d0f: 91 12        	sta	($12),y                 ; 0x2012 <f256main+0x17ce>
     d11: a9 00        	lda	#$0
     d13: 92 12        	sta	($12)                   ; 0x2012 <f256main+0x17ce>
     d15: c8           	iny
     d16: 91 12        	sta	($12),y                 ; 0x2012 <f256main+0x17ce>
     d18: a0 05        	ldy	#$5
     d1a: a9 09        	lda	#$9
     d1c: 91 12        	sta	($12),y                 ; 0x2012 <f256main+0x17ce>
     d1e: a2 00        	ldx	#$0
     d20: a9 04        	lda	#$4
     d22: 20 3e 4e     	jsr	$4e3e <malloc>
     d25: a6 12        	ldx	$12                     ; 0x2012 <f256main+0x17ce>
     d27: a4 13        	ldy	$13                     ; 0x2013 <f256main+0x17cf>
     d29: 8e 52 7a     	stx	$7a52                   ; 0x7a52 <theBeats+0x2f>
     d2c: 8c 53 7a     	sty	$7a53                   ; 0x7a53 <theBeats+0x30>
     d2f: a2 00        	ldx	#$0
     d31: a9 04        	lda	#$4
     d33: 20 3e 4e     	jsr	$4e3e <malloc>
     d36: a6 12        	ldx	$12                     ; 0x2012 <f256main+0x17ce>
     d38: a4 13        	ldy	$13                     ; 0x2013 <f256main+0x17cf>
     d3a: 8e 58 7a     	stx	$7a58                   ; 0x7a58 <theBeats+0x35>
     d3d: 8c 59 7a     	sty	$7a59                   ; 0x7a59 <theBeats+0x36>
     d40: a2 00        	ldx	#$0
     d42: a9 02        	lda	#$2
     d44: 20 3e 4e     	jsr	$4e3e <malloc>
     d47: a6 12        	ldx	$12                     ; 0x2012 <f256main+0x17ce>
     d49: a4 13        	ldy	$13                     ; 0x2013 <f256main+0x17cf>
     d4b: 8e 54 7a     	stx	$7a54                   ; 0x7a54 <theBeats+0x31>
     d4e: 8c 55 7a     	sty	$7a55                   ; 0x7a55 <theBeats+0x32>
     d51: a2 00        	ldx	#$0
     d53: a9 06        	lda	#$6
     d55: 20 3e 4e     	jsr	$4e3e <malloc>
     d58: ae 52 7a     	ldx	$7a52                   ; 0x7a52 <theBeats+0x2f>
     d5b: ac 53 7a     	ldy	$7a53                   ; 0x7a53 <theBeats+0x30>
     d5e: 86 14        	stx	$14                     ; 0x2014 <f256main+0x17d0>
     d60: 84 15        	sty	$15                     ; 0x2015 <f256main+0x17d1>
     d62: a5 12        	lda	$12                     ; 0x2012 <f256main+0x17ce>
     d64: 92 14        	sta	($14)                   ; 0x2014 <f256main+0x17d0>
     d66: a0 01        	ldy	#$1
     d68: a5 13        	lda	$13                     ; 0x2013 <f256main+0x17cf>
     d6a: 91 14        	sta	($14),y                 ; 0x2014 <f256main+0x17d0>
     d6c: a2 00        	ldx	#$0
     d6e: a9 04        	lda	#$4
     d70: 20 3e 4e     	jsr	$4e3e <malloc>
     d73: ad 52 7a     	lda	$7a52                   ; 0x7a52 <theBeats+0x2f>
     d76: ae 53 7a     	ldx	$7a53                   ; 0x7a53 <theBeats+0x30>
     d79: 85 14        	sta	$14                     ; 0x2014 <f256main+0x17d0>
     d7b: 86 15        	stx	$15                     ; 0x2015 <f256main+0x17d1>
     d7d: 18           	clc
     d7e: 69 02        	adc	#$2
     d80: 85 16        	sta	$16                     ; 0x2016 <f256main+0x17d2>
     d82: 8a           	txa
     d83: 69 00        	adc	#$0
     d85: 85 17        	sta	$17                     ; 0x2017 <f256main+0x17d3>
     d87: a5 12        	lda	$12                     ; 0x2012 <f256main+0x17ce>
     d89: a0 02        	ldy	#$2
     d8b: 91 14        	sta	($14),y                 ; 0x2014 <f256main+0x17d0>
     d8d: 88           	dey
     d8e: a5 13        	lda	$13                     ; 0x2013 <f256main+0x17cf>
     d90: 91 16        	sta	($16),y                 ; 0x2016 <f256main+0x17d2>
     d92: a2 00        	ldx	#$0
     d94: a9 04        	lda	#$4
     d96: 20 3e 4e     	jsr	$4e3e <malloc>
     d99: ae 58 7a     	ldx	$7a58                   ; 0x7a58 <theBeats+0x35>
     d9c: ac 59 7a     	ldy	$7a59                   ; 0x7a59 <theBeats+0x36>
     d9f: 86 14        	stx	$14                     ; 0x2014 <f256main+0x17d0>
     da1: 84 15        	sty	$15                     ; 0x2015 <f256main+0x17d1>
     da3: a5 12        	lda	$12                     ; 0x2012 <f256main+0x17ce>
     da5: 92 14        	sta	($14)                   ; 0x2014 <f256main+0x17d0>
     da7: a0 01        	ldy	#$1
     da9: a5 13        	lda	$13                     ; 0x2013 <f256main+0x17cf>
     dab: 91 14        	sta	($14),y                 ; 0x2014 <f256main+0x17d0>
     dad: a2 00        	ldx	#$0
     daf: a9 06        	lda	#$6
     db1: 20 3e 4e     	jsr	$4e3e <malloc>
     db4: ad 58 7a     	lda	$7a58                   ; 0x7a58 <theBeats+0x35>
     db7: ae 59 7a     	ldx	$7a59                   ; 0x7a59 <theBeats+0x36>
     dba: 85 14        	sta	$14                     ; 0x2014 <f256main+0x17d0>
     dbc: 86 15        	stx	$15                     ; 0x2015 <f256main+0x17d1>
     dbe: 18           	clc
     dbf: 69 02        	adc	#$2
     dc1: 85 16        	sta	$16                     ; 0x2016 <f256main+0x17d2>
     dc3: 8a           	txa
     dc4: 69 00        	adc	#$0
     dc6: 85 17        	sta	$17                     ; 0x2017 <f256main+0x17d3>
     dc8: a5 12        	lda	$12                     ; 0x2012 <f256main+0x17ce>
     dca: a0 02        	ldy	#$2
     dcc: 91 14        	sta	($14),y                 ; 0x2014 <f256main+0x17d0>
     dce: 88           	dey
     dcf: a5 13        	lda	$13                     ; 0x2013 <f256main+0x17cf>
     dd1: 91 16        	sta	($16),y                 ; 0x2016 <f256main+0x17d2>
     dd3: ae 54 7a     	ldx	$7a54                   ; 0x7a54 <theBeats+0x31>
     dd6: ad 55 7a     	lda	$7a55                   ; 0x7a55 <theBeats+0x32>
     dd9: 86 18        	stx	$18                     ; 0x2018 <f256main+0x17d4>
     ddb: 85 19        	sta	$19                     ; 0x2019 <f256main+0x17d5>
     ddd: a9 04        	lda	#$4
     ddf: 92 18        	sta	($18)                   ; 0x2018 <f256main+0x17d4>
     de1: ae 52 7a     	ldx	$7a52                   ; 0x7a52 <theBeats+0x2f>
     de4: ad 53 7a     	lda	$7a53                   ; 0x7a53 <theBeats+0x30>
     de7: 86 12        	stx	$12                     ; 0x2012 <f256main+0x17ce>
     de9: 85 13        	sta	$13                     ; 0x2013 <f256main+0x17cf>
     deb: 85 1c        	sta	$1c                     ; 0x201c <f256main+0x17d8>
     ded: b2 12        	lda	($12)                   ; 0x2012 <f256main+0x17ce>
     def: 85 1a        	sta	$1a                     ; 0x201a <f256main+0x17d6>
     df1: b1 12        	lda	($12),y                 ; 0x2012 <f256main+0x17ce>
     df3: 85 1b        	sta	$1b                     ; 0x201b <f256main+0x17d7>
     df5: a9 24        	lda	#$24
     df7: 92 1a        	sta	($1a)                   ; 0x201a <f256main+0x17d6>
     df9: b2 12        	lda	($12)                   ; 0x2012 <f256main+0x17ce>
     dfb: 85 1a        	sta	$1a                     ; 0x201a <f256main+0x17d6>
     dfd: b1 12        	lda	($12),y                 ; 0x2012 <f256main+0x17ce>
     dff: 85 1b        	sta	$1b                     ; 0x201b <f256main+0x17d7>
     e01: a9 26        	lda	#$26
     e03: 91 1a        	sta	($1a),y                 ; 0x201a <f256main+0x17d6>
     e05: b2 12        	lda	($12)                   ; 0x2012 <f256main+0x17ce>
     e07: 85 1a        	sta	$1a                     ; 0x201a <f256main+0x17d6>
     e09: b1 12        	lda	($12),y                 ; 0x2012 <f256main+0x17ce>
     e0b: 85 1b        	sta	$1b                     ; 0x201b <f256main+0x17d7>
     e0d: a9 24        	lda	#$24
     e0f: c8           	iny
     e10: 91 1a        	sta	($1a),y                 ; 0x201a <f256main+0x17d6>
     e12: b2 12        	lda	($12)                   ; 0x2012 <f256main+0x17ce>
     e14: 85 1a        	sta	$1a                     ; 0x201a <f256main+0x17d6>
     e16: 88           	dey
     e17: b1 12        	lda	($12),y                 ; 0x2012 <f256main+0x17ce>
     e19: 85 1b        	sta	$1b                     ; 0x201b <f256main+0x17d7>
     e1b: a9 26        	lda	#$26
     e1d: a0 03        	ldy	#$3
     e1f: 91 1a        	sta	($1a),y                 ; 0x201a <f256main+0x17d6>
     e21: b2 14        	lda	($14)                   ; 0x2014 <f256main+0x17d0>
     e23: 85 1a        	sta	$1a                     ; 0x201a <f256main+0x17d6>
     e25: a0 01        	ldy	#$1
     e27: b1 14        	lda	($14),y                 ; 0x2014 <f256main+0x17d0>
     e29: 85 1b        	sta	$1b                     ; 0x201b <f256main+0x17d7>
     e2b: a9 03        	lda	#$3
     e2d: 92 1a        	sta	($1a)                   ; 0x201a <f256main+0x17d6>
     e2f: b2 14        	lda	($14)                   ; 0x2014 <f256main+0x17d0>
     e31: 85 1a        	sta	$1a                     ; 0x201a <f256main+0x17d6>
     e33: b1 14        	lda	($14),y                 ; 0x2014 <f256main+0x17d0>
     e35: 85 1b        	sta	$1b                     ; 0x201b <f256main+0x17d7>
     e37: a9 03        	lda	#$3
     e39: 91 1a        	sta	($1a),y                 ; 0x201a <f256main+0x17d6>
     e3b: b2 14        	lda	($14)                   ; 0x2014 <f256main+0x17d0>
     e3d: 85 1a        	sta	$1a                     ; 0x201a <f256main+0x17d6>
     e3f: b1 14        	lda	($14),y                 ; 0x2014 <f256main+0x17d0>
     e41: 85 1b        	sta	$1b                     ; 0x201b <f256main+0x17d7>
     e43: a9 03        	lda	#$3
     e45: c8           	iny
     e46: 91 1a        	sta	($1a),y                 ; 0x201a <f256main+0x17d6>
     e48: b2 14        	lda	($14)                   ; 0x2014 <f256main+0x17d0>
     e4a: 85 1a        	sta	$1a                     ; 0x201a <f256main+0x17d6>
     e4c: 88           	dey
     e4d: b1 14        	lda	($14),y                 ; 0x2014 <f256main+0x17d0>
     e4f: 85 1b        	sta	$1b                     ; 0x201b <f256main+0x17d7>
     e51: a9 03        	lda	#$3
     e53: a8           	tay
     e54: 91 1a        	sta	($1a),y                 ; 0x201a <f256main+0x17d6>
     e56: a9 06        	lda	#$6
     e58: a0 01        	ldy	#$1
     e5a: 91 18        	sta	($18),y                 ; 0x2018 <f256main+0x17d4>
     e5c: 18           	clc
     e5d: 8a           	txa
     e5e: 69 02        	adc	#$2
     e60: 85 18        	sta	$18                     ; 0x2018 <f256main+0x17d4>
     e62: a5 1c        	lda	$1c                     ; 0x201c <f256main+0x17d8>
     e64: 69 00        	adc	#$0
     e66: 85 19        	sta	$19                     ; 0x2019 <f256main+0x17d5>
     e68: c8           	iny
     e69: b1 12        	lda	($12),y                 ; 0x2012 <f256main+0x17ce>
     e6b: 85 1a        	sta	$1a                     ; 0x201a <f256main+0x17d6>
     e6d: 88           	dey
     e6e: b1 18        	lda	($18),y                 ; 0x2018 <f256main+0x17d4>
     e70: 85 1b        	sta	$1b                     ; 0x201b <f256main+0x17d7>
     e72: a9 39        	lda	#$39
     e74: 92 1a        	sta	($1a)                   ; 0x201a <f256main+0x17d6>
     e76: c8           	iny
     e77: b1 12        	lda	($12),y                 ; 0x2012 <f256main+0x17ce>
     e79: 85 1a        	sta	$1a                     ; 0x201a <f256main+0x17d6>
     e7b: 88           	dey
     e7c: b1 18        	lda	($18),y                 ; 0x2018 <f256main+0x17d4>
     e7e: 85 1b        	sta	$1b                     ; 0x201b <f256main+0x17d7>
     e80: a9 39        	lda	#$39
     e82: 91 1a        	sta	($1a),y                 ; 0x201a <f256main+0x17d6>
     e84: c8           	iny
     e85: b1 12        	lda	($12),y                 ; 0x2012 <f256main+0x17ce>
     e87: 85 1a        	sta	$1a                     ; 0x201a <f256main+0x17d6>
     e89: 88           	dey
     e8a: b1 18        	lda	($18),y                 ; 0x2018 <f256main+0x17d4>
     e8c: 85 1b        	sta	$1b                     ; 0x201b <f256main+0x17d7>
     e8e: a9 39        	lda	#$39
     e90: c8           	iny
     e91: 91 1a        	sta	($1a),y                 ; 0x201a <f256main+0x17d6>
     e93: b1 12        	lda	($12),y                 ; 0x2012 <f256main+0x17ce>
     e95: 85 1a        	sta	$1a                     ; 0x201a <f256main+0x17d6>
     e97: 88           	dey
     e98: b1 18        	lda	($18),y                 ; 0x2018 <f256main+0x17d4>
     e9a: 85 1b        	sta	$1b                     ; 0x201b <f256main+0x17d7>
     e9c: a0 03        	ldy	#$3
     e9e: a9 39        	lda	#$39
     ea0: 91 1a        	sta	($1a),y                 ; 0x201a <f256main+0x17d6>
     ea2: 88           	dey
     ea3: b1 12        	lda	($12),y                 ; 0x2012 <f256main+0x17ce>
     ea5: 85 1a        	sta	$1a                     ; 0x201a <f256main+0x17d6>
     ea7: 88           	dey
     ea8: b1 18        	lda	($18),y                 ; 0x2018 <f256main+0x17d4>
     eaa: 85 1b        	sta	$1b                     ; 0x201b <f256main+0x17d7>
     eac: a0 04        	ldy	#$4
     eae: a9 39        	lda	#$39
     eb0: 91 1a        	sta	($1a),y                 ; 0x201a <f256main+0x17d6>
     eb2: a0 02        	ldy	#$2
     eb4: b1 12        	lda	($12),y                 ; 0x2012 <f256main+0x17ce>
     eb6: 85 12        	sta	$12                     ; 0x2012 <f256main+0x17ce>
     eb8: 88           	dey
     eb9: b1 18        	lda	($18),y                 ; 0x2018 <f256main+0x17d4>
     ebb: 85 13        	sta	$13                     ; 0x2013 <f256main+0x17cf>
     ebd: a0 05        	ldy	#$5
     ebf: a9 39        	lda	#$39
     ec1: 91 12        	sta	($12),y                 ; 0x2012 <f256main+0x17ce>
     ec3: a0 02        	ldy	#$2
     ec5: b1 14        	lda	($14),y                 ; 0x2014 <f256main+0x17d0>
     ec7: 85 12        	sta	$12                     ; 0x2012 <f256main+0x17ce>
     ec9: 88           	dey
     eca: b1 16        	lda	($16),y                 ; 0x2016 <f256main+0x17d2>
     ecc: 85 13        	sta	$13                     ; 0x2013 <f256main+0x17cf>
     ece: a9 03        	lda	#$3
     ed0: 92 12        	sta	($12)                   ; 0x2012 <f256main+0x17ce>
     ed2: c8           	iny
     ed3: b1 14        	lda	($14),y                 ; 0x2014 <f256main+0x17d0>
     ed5: 85 12        	sta	$12                     ; 0x2012 <f256main+0x17ce>
     ed7: 88           	dey
     ed8: b1 16        	lda	($16),y                 ; 0x2016 <f256main+0x17d2>
     eda: 85 13        	sta	$13                     ; 0x2013 <f256main+0x17cf>
     edc: a9 0d        	lda	#$d
     ede: 91 12        	sta	($12),y                 ; 0x2012 <f256main+0x17ce>
     ee0: c8           	iny
     ee1: b1 14        	lda	($14),y                 ; 0x2014 <f256main+0x17d0>
     ee3: 85 12        	sta	$12                     ; 0x2012 <f256main+0x17ce>
     ee5: 88           	dey
     ee6: b1 16        	lda	($16),y                 ; 0x2016 <f256main+0x17d2>
     ee8: 85 13        	sta	$13                     ; 0x2013 <f256main+0x17cf>
     eea: a9 0c        	lda	#$c
     eec: c8           	iny
     eed: 91 12        	sta	($12),y                 ; 0x2012 <f256main+0x17ce>
     eef: b1 14        	lda	($14),y                 ; 0x2014 <f256main+0x17d0>
     ef1: 85 12        	sta	$12                     ; 0x2012 <f256main+0x17ce>
     ef3: 88           	dey
     ef4: b1 16        	lda	($16),y                 ; 0x2016 <f256main+0x17d2>
     ef6: 85 13        	sta	$13                     ; 0x2013 <f256main+0x17cf>
     ef8: a0 03        	ldy	#$3
     efa: 98           	tya
     efb: 91 12        	sta	($12),y                 ; 0x2012 <f256main+0x17ce>
     efd: 88           	dey
     efe: b1 14        	lda	($14),y                 ; 0x2014 <f256main+0x17d0>
     f00: 85 12        	sta	$12                     ; 0x2012 <f256main+0x17ce>
     f02: 88           	dey
     f03: b1 16        	lda	($16),y                 ; 0x2016 <f256main+0x17d2>
     f05: 85 13        	sta	$13                     ; 0x2013 <f256main+0x17cf>
     f07: a0 04        	ldy	#$4
     f09: a9 0d        	lda	#$d
     f0b: 91 12        	sta	($12),y                 ; 0x2012 <f256main+0x17ce>
     f0d: a0 02        	ldy	#$2
     f0f: b1 14        	lda	($14),y                 ; 0x2014 <f256main+0x17d0>
     f11: 85 12        	sta	$12                     ; 0x2012 <f256main+0x17ce>
     f13: 88           	dey
     f14: b1 16        	lda	($16),y                 ; 0x2016 <f256main+0x17d2>
     f16: 85 13        	sta	$13                     ; 0x2013 <f256main+0x17cf>
     f18: a0 05        	ldy	#$5
     f1a: a9 0c        	lda	#$c
     f1c: 91 12        	sta	($12),y                 ; 0x2012 <f256main+0x17ce>
     f1e: a2 50        	ldx	#$50
     f20: 8e 5f 7a     	stx	$7a5f                   ; 0x7a5f <theBeats+0x3c>
     f23: a2 02        	ldx	#$2
     f25: 8e 60 7a     	stx	$7a60                   ; 0x7a60 <theBeats+0x3d>
     f28: 9c 5c 7a     	stz	$7a5c                   ; 0x7a5c <theBeats+0x39>
     f2b: 9c 5e 7a     	stz	$7a5e                   ; 0x7a5e <theBeats+0x3b>
     f2e: a2 00        	ldx	#$0
     f30: a9 02        	lda	#$2
     f32: 20 3e 4e     	jsr	$4e3e <malloc>
     f35: a6 12        	ldx	$12                     ; 0x2012 <f256main+0x17ce>
     f37: a4 13        	ldy	$13                     ; 0x2013 <f256main+0x17cf>
     f39: 8e 61 7a     	stx	$7a61                   ; 0x7a61 <theBeats+0x3e>
     f3c: 8c 62 7a     	sty	$7a62                   ; 0x7a62 <theBeats+0x3f>
     f3f: a9 09        	lda	#$9
     f41: 92 12        	sta	($12)                   ; 0x2012 <f256main+0x17ce>
     f43: a0 01        	ldy	#$1
     f45: 91 12        	sta	($12),y                 ; 0x2012 <f256main+0x17ce>
     f47: a2 00        	ldx	#$0
     f49: a9 02        	lda	#$2
     f4b: 20 3e 4e     	jsr	$4e3e <malloc>
     f4e: a6 12        	ldx	$12                     ; 0x2012 <f256main+0x17ce>
     f50: a4 13        	ldy	$13                     ; 0x2013 <f256main+0x17cf>
     f52: 8e 63 7a     	stx	$7a63                   ; 0x7a63 <theBeats+0x40>
     f55: 8c 64 7a     	sty	$7a64                   ; 0x7a64 <theBeats+0x41>
     f58: a9 00        	lda	#$0
     f5a: 92 12        	sta	($12)                   ; 0x2012 <f256main+0x17ce>
     f5c: a0 01        	ldy	#$1
     f5e: 91 12        	sta	($12),y                 ; 0x2012 <f256main+0x17ce>
     f60: aa           	tax
     f61: a9 06        	lda	#$6
     f63: 20 3e 4e     	jsr	$4e3e <malloc>
     f66: a6 12        	ldx	$12                     ; 0x2012 <f256main+0x17ce>
     f68: a4 13        	ldy	$13                     ; 0x2013 <f256main+0x17cf>
     f6a: 8e 6d 7a     	stx	$7a6d                   ; 0x7a6d <theBeats+0x4a>
     f6d: 8c 6e 7a     	sty	$7a6e                   ; 0x7a6e <theBeats+0x4b>
     f70: a9 00        	lda	#$0
     f72: 92 12        	sta	($12)                   ; 0x2012 <f256main+0x17ce>
     f74: a9 0a        	lda	#$a
     f76: a0 02        	ldy	#$2
     f78: 91 12        	sta	($12),y                 ; 0x2012 <f256main+0x17ce>
     f7a: c8           	iny
     f7b: a9 00        	lda	#$0
     f7d: 91 12        	sta	($12),y                 ; 0x2012 <f256main+0x17ce>
     f7f: a9 0b        	lda	#$b
     f81: a0 05        	ldy	#$5
     f83: 91 12        	sta	($12),y                 ; 0x2012 <f256main+0x17ce>
     f85: a2 00        	ldx	#$0
     f87: a9 04        	lda	#$4
     f89: 20 3e 4e     	jsr	$4e3e <malloc>
     f8c: a6 12        	ldx	$12                     ; 0x2012 <f256main+0x17ce>
     f8e: a4 13        	ldy	$13                     ; 0x2013 <f256main+0x17cf>
     f90: 8e 65 7a     	stx	$7a65                   ; 0x7a65 <theBeats+0x42>
     f93: 8c 66 7a     	sty	$7a66                   ; 0x7a66 <theBeats+0x43>
     f96: a2 00        	ldx	#$0
     f98: a9 04        	lda	#$4
     f9a: 20 3e 4e     	jsr	$4e3e <malloc>
     f9d: a6 12        	ldx	$12                     ; 0x2012 <f256main+0x17ce>
     f9f: a4 13        	ldy	$13                     ; 0x2013 <f256main+0x17cf>
     fa1: 8e 6b 7a     	stx	$7a6b                   ; 0x7a6b <theBeats+0x48>
     fa4: 8c 6c 7a     	sty	$7a6c                   ; 0x7a6c <theBeats+0x49>
     fa7: a2 00        	ldx	#$0
     fa9: a9 02        	lda	#$2
     fab: 20 3e 4e     	jsr	$4e3e <malloc>
     fae: a6 12        	ldx	$12                     ; 0x2012 <f256main+0x17ce>
     fb0: a4 13        	ldy	$13                     ; 0x2013 <f256main+0x17cf>
     fb2: 8e 67 7a     	stx	$7a67                   ; 0x7a67 <theBeats+0x44>
     fb5: 8c 68 7a     	sty	$7a68                   ; 0x7a68 <theBeats+0x45>
     fb8: a2 00        	ldx	#$0
     fba: a9 20        	lda	#$20
     fbc: 20 3e 4e     	jsr	$4e3e <malloc>
     fbf: ae 65 7a     	ldx	$7a65                   ; 0x7a65 <theBeats+0x42>
     fc2: ac 66 7a     	ldy	$7a66                   ; 0x7a66 <theBeats+0x43>
     fc5: 86 14        	stx	$14                     ; 0x2014 <f256main+0x17d0>
     fc7: 84 15        	sty	$15                     ; 0x2015 <f256main+0x17d1>
     fc9: a5 12        	lda	$12                     ; 0x2012 <f256main+0x17ce>
     fcb: 92 14        	sta	($14)                   ; 0x2014 <f256main+0x17d0>
     fcd: a0 01        	ldy	#$1
     fcf: a5 13        	lda	$13                     ; 0x2013 <f256main+0x17cf>
     fd1: 91 14        	sta	($14),y                 ; 0x2014 <f256main+0x17d0>
     fd3: a9 0c        	lda	#$c
     fd5: a2 00        	ldx	#$0
     fd7: 20 3e 4e     	jsr	$4e3e <malloc>
     fda: ad 65 7a     	lda	$7a65                   ; 0x7a65 <theBeats+0x42>
     fdd: ae 66 7a     	ldx	$7a66                   ; 0x7a66 <theBeats+0x43>
     fe0: 85 14        	sta	$14                     ; 0x2014 <f256main+0x17d0>
     fe2: 86 15        	stx	$15                     ; 0x2015 <f256main+0x17d1>
     fe4: 18           	clc
     fe5: 69 02        	adc	#$2
     fe7: 85 16        	sta	$16                     ; 0x2016 <f256main+0x17d2>
     fe9: 8a           	txa
     fea: 69 00        	adc	#$0
     fec: 85 17        	sta	$17                     ; 0x2017 <f256main+0x17d3>
     fee: a5 12        	lda	$12                     ; 0x2012 <f256main+0x17ce>
     ff0: a0 02        	ldy	#$2
     ff2: 91 14        	sta	($14),y                 ; 0x2014 <f256main+0x17d0>
     ff4: 88           	dey
     ff5: a5 13        	lda	$13                     ; 0x2013 <f256main+0x17cf>
     ff7: 91 16        	sta	($16),y                 ; 0x2016 <f256main+0x17d2>
     ff9: a2 00        	ldx	#$0
     ffb: a9 20        	lda	#$20
     ffd: 20 3e 4e     	jsr	$4e3e <malloc>
    1000: ae 6b 7a     	ldx	$7a6b                   ; 0x7a6b <theBeats+0x48>
    1003: ac 6c 7a     	ldy	$7a6c                   ; 0x7a6c <theBeats+0x49>
    1006: 86 14        	stx	$14                     ; 0x2014 <f256main+0x17d0>
    1008: 84 15        	sty	$15                     ; 0x2015 <f256main+0x17d1>
    100a: a5 12        	lda	$12                     ; 0x2012 <f256main+0x17ce>
    100c: 92 14        	sta	($14)                   ; 0x2014 <f256main+0x17d0>
    100e: a0 01        	ldy	#$1
    1010: a5 13        	lda	$13                     ; 0x2013 <f256main+0x17cf>
    1012: 91 14        	sta	($14),y                 ; 0x2014 <f256main+0x17d0>
    1014: a2 00        	ldx	#$0
    1016: a9 0c        	lda	#$c
    1018: 20 3e 4e     	jsr	$4e3e <malloc>
    101b: ad 6b 7a     	lda	$7a6b                   ; 0x7a6b <theBeats+0x48>
    101e: 85 14        	sta	$14                     ; 0x2014 <f256main+0x17d0>
    1020: ac 6c 7a     	ldy	$7a6c                   ; 0x7a6c <theBeats+0x49>
    1023: 84 15        	sty	$15                     ; 0x2015 <f256main+0x17d1>
    1025: 18           	clc
    1026: 69 02        	adc	#$2
    1028: 85 16        	sta	$16                     ; 0x2016 <f256main+0x17d2>
    102a: 98           	tya
    102b: 69 00        	adc	#$0
    102d: 85 17        	sta	$17                     ; 0x2017 <f256main+0x17d3>
    102f: a5 12        	lda	$12                     ; 0x2012 <f256main+0x17ce>
    1031: a0 02        	ldy	#$2
    1033: 91 14        	sta	($14),y                 ; 0x2014 <f256main+0x17d0>
    1035: a5 13        	lda	$13                     ; 0x2013 <f256main+0x17cf>
    1037: 88           	dey
    1038: 91 16        	sta	($16),y                 ; 0x2016 <f256main+0x17d2>
    103a: ae 67 7a     	ldx	$7a67                   ; 0x7a67 <theBeats+0x44>
    103d: 86 12        	stx	$12                     ; 0x2012 <f256main+0x17ce>
    103f: ae 68 7a     	ldx	$7a68                   ; 0x7a68 <theBeats+0x45>
    1042: 86 13        	stx	$13                     ; 0x2013 <f256main+0x17cf>
    1044: a9 20        	lda	#$20
    1046: 92 12        	sta	($12)                   ; 0x2012 <f256main+0x17ce>
    1048: ae 65 7a     	ldx	$7a65                   ; 0x7a65 <theBeats+0x42>
    104b: 86 12        	stx	$12                     ; 0x2012 <f256main+0x17ce>
    104d: ae 66 7a     	ldx	$7a66                   ; 0x7a66 <theBeats+0x43>
    1050: 86 13        	stx	$13                     ; 0x2013 <f256main+0x17cf>
    1052: b2 12        	lda	($12)                   ; 0x2012 <f256main+0x17ce>
    1054: 85 14        	sta	$14                     ; 0x2014 <f256main+0x17d0>
    1056: b1 12        	lda	($12),y                 ; 0x2012 <f256main+0x17ce>
    1058: 85 15        	sta	$15                     ; 0x2015 <f256main+0x17d1>
    105a: a9 2c        	lda	#$2c
    105c: 92 14        	sta	($14)                   ; 0x2014 <f256main+0x17d0>
    105e: b2 12        	lda	($12)                   ; 0x2012 <f256main+0x17ce>
    1060: 85 14        	sta	$14                     ; 0x2014 <f256main+0x17d0>
    1062: b1 12        	lda	($12),y                 ; 0x2012 <f256main+0x17ce>
    1064: 85 15        	sta	$15                     ; 0x2015 <f256main+0x17d1>
    1066: a9 2c        	lda	#$2c
    1068: 91 14        	sta	($14),y                 ; 0x2014 <f256main+0x17d0>
    106a: b2 12        	lda	($12)                   ; 0x2012 <f256main+0x17ce>
    106c: 85 14        	sta	$14                     ; 0x2014 <f256main+0x17d0>
    106e: b1 12        	lda	($12),y                 ; 0x2012 <f256main+0x17ce>
    1070: 85 15        	sta	$15                     ; 0x2015 <f256main+0x17d1>
    1072: a9 2c        	lda	#$2c
    1074: c8           	iny
    1075: 91 14        	sta	($14),y                 ; 0x2014 <f256main+0x17d0>
    1077: b2 12        	lda	($12)                   ; 0x2012 <f256main+0x17ce>
    1079: 85 14        	sta	$14                     ; 0x2014 <f256main+0x17d0>
    107b: 88           	dey
    107c: b1 12        	lda	($12),y                 ; 0x2012 <f256main+0x17ce>
    107e: 85 15        	sta	$15                     ; 0x2015 <f256main+0x17d1>
    1080: a0 03        	ldy	#$3
    1082: a9 2c        	lda	#$2c
    1084: 91 14        	sta	($14),y                 ; 0x2014 <f256main+0x17d0>
    1086: b2 12        	lda	($12)                   ; 0x2012 <f256main+0x17ce>
    1088: 85 14        	sta	$14                     ; 0x2014 <f256main+0x17d0>
    108a: a0 01        	ldy	#$1
    108c: b1 12        	lda	($12),y                 ; 0x2012 <f256main+0x17ce>
    108e: 85 15        	sta	$15                     ; 0x2015 <f256main+0x17d1>
    1090: a0 04        	ldy	#$4
    1092: a9 2c        	lda	#$2c
    1094: 91 14        	sta	($14),y                 ; 0x2014 <f256main+0x17d0>
    1096: b2 12        	lda	($12)                   ; 0x2012 <f256main+0x17ce>
    1098: 85 14        	sta	$14                     ; 0x2014 <f256main+0x17d0>
    109a: a0 01        	ldy	#$1
    109c: b1 12        	lda	($12),y                 ; 0x2012 <f256main+0x17ce>
    109e: 85 15        	sta	$15                     ; 0x2015 <f256main+0x17d1>
    10a0: a0 05        	ldy	#$5
    10a2: a9 2c        	lda	#$2c
    10a4: 91 14        	sta	($14),y                 ; 0x2014 <f256main+0x17d0>
    10a6: b2 12        	lda	($12)                   ; 0x2012 <f256main+0x17ce>
    10a8: 85 14        	sta	$14                     ; 0x2014 <f256main+0x17d0>
    10aa: a0 01        	ldy	#$1
    10ac: b1 12        	lda	($12),y                 ; 0x2012 <f256main+0x17ce>
    10ae: 85 15        	sta	$15                     ; 0x2015 <f256main+0x17d1>
    10b0: a0 06        	ldy	#$6
    10b2: a9 2c        	lda	#$2c
    10b4: 91 14        	sta	($14),y                 ; 0x2014 <f256main+0x17d0>
    10b6: b2 12        	lda	($12)                   ; 0x2012 <f256main+0x17ce>
    10b8: 85 14        	sta	$14                     ; 0x2014 <f256main+0x17d0>
    10ba: a0 01        	ldy	#$1
    10bc: b1 12        	lda	($12),y                 ; 0x2012 <f256main+0x17ce>
    10be: 85 15        	sta	$15                     ; 0x2015 <f256main+0x17d1>
    10c0: a0 07        	ldy	#$7
    10c2: a9 2c        	lda	#$2c
    10c4: 91 14        	sta	($14),y                 ; 0x2014 <f256main+0x17d0>
    10c6: b2 12        	lda	($12)                   ; 0x2012 <f256main+0x17ce>
    10c8: 85 14        	sta	$14                     ; 0x2014 <f256main+0x17d0>
    10ca: a0 01        	ldy	#$1
    10cc: b1 12        	lda	($12),y                 ; 0x2012 <f256main+0x17ce>
    10ce: 85 15        	sta	$15                     ; 0x2015 <f256main+0x17d1>
    10d0: a0 08        	ldy	#$8
    10d2: a9 2c        	lda	#$2c
    10d4: 91 14        	sta	($14),y                 ; 0x2014 <f256main+0x17d0>
    10d6: b2 12        	lda	($12)                   ; 0x2012 <f256main+0x17ce>
    10d8: 85 14        	sta	$14                     ; 0x2014 <f256main+0x17d0>
    10da: a0 01        	ldy	#$1
    10dc: b1 12        	lda	($12),y                 ; 0x2012 <f256main+0x17ce>
    10de: 85 15        	sta	$15                     ; 0x2015 <f256main+0x17d1>
    10e0: a0 09        	ldy	#$9
    10e2: a9 2c        	lda	#$2c
    10e4: 91 14        	sta	($14),y                 ; 0x2014 <f256main+0x17d0>
    10e6: b2 12        	lda	($12)                   ; 0x2012 <f256main+0x17ce>
    10e8: 85 14        	sta	$14                     ; 0x2014 <f256main+0x17d0>
    10ea: a0 01        	ldy	#$1
    10ec: b1 12        	lda	($12),y                 ; 0x2012 <f256main+0x17ce>
    10ee: 85 15        	sta	$15                     ; 0x2015 <f256main+0x17d1>
    10f0: a0 0a        	ldy	#$a
    10f2: a9 2c        	lda	#$2c
    10f4: 91 14        	sta	($14),y                 ; 0x2014 <f256main+0x17d0>
    10f6: b2 12        	lda	($12)                   ; 0x2012 <f256main+0x17ce>
    10f8: 85 14        	sta	$14                     ; 0x2014 <f256main+0x17d0>
    10fa: a0 01        	ldy	#$1
    10fc: b1 12        	lda	($12),y                 ; 0x2012 <f256main+0x17ce>
    10fe: 85 15        	sta	$15                     ; 0x2015 <f256main+0x17d1>
    1100: a0 0b        	ldy	#$b
    1102: a9 2c        	lda	#$2c
    1104: 91 14        	sta	($14),y                 ; 0x2014 <f256main+0x17d0>
    1106: b2 12        	lda	($12)                   ; 0x2012 <f256main+0x17ce>
    1108: 85 14        	sta	$14                     ; 0x2014 <f256main+0x17d0>
    110a: a0 01        	ldy	#$1
    110c: b1 12        	lda	($12),y                 ; 0x2012 <f256main+0x17ce>
    110e: 85 15        	sta	$15                     ; 0x2015 <f256main+0x17d1>
    1110: a0 0c        	ldy	#$c
    1112: a9 2c        	lda	#$2c
    1114: 91 14        	sta	($14),y                 ; 0x2014 <f256main+0x17d0>
    1116: b2 12        	lda	($12)                   ; 0x2012 <f256main+0x17ce>
    1118: 85 14        	sta	$14                     ; 0x2014 <f256main+0x17d0>
    111a: a0 01        	ldy	#$1
    111c: b1 12        	lda	($12),y                 ; 0x2012 <f256main+0x17ce>
    111e: 85 15        	sta	$15                     ; 0x2015 <f256main+0x17d1>
    1120: a0 0d        	ldy	#$d
    1122: a9 2c        	lda	#$2c
    1124: 91 14        	sta	($14),y                 ; 0x2014 <f256main+0x17d0>
    1126: b2 12        	lda	($12)                   ; 0x2012 <f256main+0x17ce>
    1128: 85 14        	sta	$14                     ; 0x2014 <f256main+0x17d0>
    112a: a0 01        	ldy	#$1
    112c: b1 12        	lda	($12),y                 ; 0x2012 <f256main+0x17ce>
    112e: 85 15        	sta	$15                     ; 0x2015 <f256main+0x17d1>
    1130: a0 0e        	ldy	#$e
    1132: a9 2c        	lda	#$2c
    1134: 91 14        	sta	($14),y                 ; 0x2014 <f256main+0x17d0>
    1136: b2 12        	lda	($12)                   ; 0x2012 <f256main+0x17ce>
    1138: 85 14        	sta	$14                     ; 0x2014 <f256main+0x17d0>
    113a: a0 01        	ldy	#$1
    113c: b1 12        	lda	($12),y                 ; 0x2012 <f256main+0x17ce>
    113e: 85 15        	sta	$15                     ; 0x2015 <f256main+0x17d1>
    1140: a0 0f        	ldy	#$f
    1142: a9 2c        	lda	#$2c
    1144: 91 14        	sta	($14),y                 ; 0x2014 <f256main+0x17d0>
    1146: b2 12        	lda	($12)                   ; 0x2012 <f256main+0x17ce>
    1148: 85 14        	sta	$14                     ; 0x2014 <f256main+0x17d0>
    114a: a0 01        	ldy	#$1
    114c: b1 12        	lda	($12),y                 ; 0x2012 <f256main+0x17ce>
    114e: 85 15        	sta	$15                     ; 0x2015 <f256main+0x17d1>
    1150: a0 10        	ldy	#$10
    1152: a9 2c        	lda	#$2c
    1154: 91 14        	sta	($14),y                 ; 0x2014 <f256main+0x17d0>
    1156: b2 12        	lda	($12)                   ; 0x2012 <f256main+0x17ce>
    1158: 85 14        	sta	$14                     ; 0x2014 <f256main+0x17d0>
    115a: a0 01        	ldy	#$1
    115c: b1 12        	lda	($12),y                 ; 0x2012 <f256main+0x17ce>
    115e: 85 15        	sta	$15                     ; 0x2015 <f256main+0x17d1>
    1160: a0 11        	ldy	#$11
    1162: a9 2c        	lda	#$2c
    1164: 91 14        	sta	($14),y                 ; 0x2014 <f256main+0x17d0>
    1166: b2 12        	lda	($12)                   ; 0x2012 <f256main+0x17ce>
    1168: 85 14        	sta	$14                     ; 0x2014 <f256main+0x17d0>
    116a: a0 01        	ldy	#$1
    116c: b1 12        	lda	($12),y                 ; 0x2012 <f256main+0x17ce>
    116e: 85 15        	sta	$15                     ; 0x2015 <f256main+0x17d1>
    1170: a0 12        	ldy	#$12
    1172: a9 2c        	lda	#$2c
    1174: 91 14        	sta	($14),y                 ; 0x2014 <f256main+0x17d0>
    1176: b2 12        	lda	($12)                   ; 0x2012 <f256main+0x17ce>
    1178: 85 14        	sta	$14                     ; 0x2014 <f256main+0x17d0>
    117a: a0 01        	ldy	#$1
    117c: b1 12        	lda	($12),y                 ; 0x2012 <f256main+0x17ce>
    117e: 85 15        	sta	$15                     ; 0x2015 <f256main+0x17d1>
    1180: a0 13        	ldy	#$13
    1182: a9 2c        	lda	#$2c
    1184: 91 14        	sta	($14),y                 ; 0x2014 <f256main+0x17d0>
    1186: b2 12        	lda	($12)                   ; 0x2012 <f256main+0x17ce>
    1188: 85 14        	sta	$14                     ; 0x2014 <f256main+0x17d0>
    118a: a0 01        	ldy	#$1
    118c: b1 12        	lda	($12),y                 ; 0x2012 <f256main+0x17ce>
    118e: 85 15        	sta	$15                     ; 0x2015 <f256main+0x17d1>
    1190: a0 14        	ldy	#$14
    1192: a9 2c        	lda	#$2c
    1194: 91 14        	sta	($14),y                 ; 0x2014 <f256main+0x17d0>
    1196: b2 12        	lda	($12)                   ; 0x2012 <f256main+0x17ce>
    1198: 85 14        	sta	$14                     ; 0x2014 <f256main+0x17d0>
    119a: a0 01        	ldy	#$1
    119c: b1 12        	lda	($12),y                 ; 0x2012 <f256main+0x17ce>
    119e: 85 15        	sta	$15                     ; 0x2015 <f256main+0x17d1>
    11a0: a0 15        	ldy	#$15
    11a2: a9 2c        	lda	#$2c
    11a4: 91 14        	sta	($14),y                 ; 0x2014 <f256main+0x17d0>
    11a6: b2 12        	lda	($12)                   ; 0x2012 <f256main+0x17ce>
    11a8: 85 14        	sta	$14                     ; 0x2014 <f256main+0x17d0>
    11aa: a0 01        	ldy	#$1
    11ac: b1 12        	lda	($12),y                 ; 0x2012 <f256main+0x17ce>
    11ae: 85 15        	sta	$15                     ; 0x2015 <f256main+0x17d1>
    11b0: a0 16        	ldy	#$16
    11b2: a9 2c        	lda	#$2c
    11b4: 91 14        	sta	($14),y                 ; 0x2014 <f256main+0x17d0>
    11b6: b2 12        	lda	($12)                   ; 0x2012 <f256main+0x17ce>
    11b8: 85 14        	sta	$14                     ; 0x2014 <f256main+0x17d0>
    11ba: a0 01        	ldy	#$1
    11bc: b1 12        	lda	($12),y                 ; 0x2012 <f256main+0x17ce>
    11be: 85 15        	sta	$15                     ; 0x2015 <f256main+0x17d1>
    11c0: a0 17        	ldy	#$17
    11c2: a9 2c        	lda	#$2c
    11c4: 91 14        	sta	($14),y                 ; 0x2014 <f256main+0x17d0>
    11c6: b2 12        	lda	($12)                   ; 0x2012 <f256main+0x17ce>
    11c8: 85 14        	sta	$14                     ; 0x2014 <f256main+0x17d0>
    11ca: a0 01        	ldy	#$1
    11cc: b1 12        	lda	($12),y                 ; 0x2012 <f256main+0x17ce>
    11ce: 85 15        	sta	$15                     ; 0x2015 <f256main+0x17d1>
    11d0: a9 2c        	lda	#$2c
    11d2: a0 18        	ldy	#$18
    11d4: 91 14        	sta	($14),y                 ; 0x2014 <f256main+0x17d0>
    11d6: b2 12        	lda	($12)                   ; 0x2012 <f256main+0x17ce>
    11d8: 85 14        	sta	$14                     ; 0x2014 <f256main+0x17d0>
    11da: a0 01        	ldy	#$1
    11dc: b1 12        	lda	($12),y                 ; 0x2012 <f256main+0x17ce>
    11de: 85 15        	sta	$15                     ; 0x2015 <f256main+0x17d1>
    11e0: a9 2c        	lda	#$2c
    11e2: a0 19        	ldy	#$19
    11e4: 91 14        	sta	($14),y                 ; 0x2014 <f256main+0x17d0>
    11e6: b2 12        	lda	($12)                   ; 0x2012 <f256main+0x17ce>
    11e8: 85 14        	sta	$14                     ; 0x2014 <f256main+0x17d0>
    11ea: a0 01        	ldy	#$1
    11ec: b1 12        	lda	($12),y                 ; 0x2012 <f256main+0x17ce>
    11ee: 85 15        	sta	$15                     ; 0x2015 <f256main+0x17d1>
    11f0: a9 2e        	lda	#$2e
    11f2: a0 1a        	ldy	#$1a
    11f4: 91 14        	sta	($14),y                 ; 0x2014 <f256main+0x17d0>
    11f6: b2 12        	lda	($12)                   ; 0x2012 <f256main+0x17ce>
    11f8: 85 14        	sta	$14                     ; 0x2014 <f256main+0x17d0>
    11fa: a0 01        	ldy	#$1
    11fc: b1 12        	lda	($12),y                 ; 0x2012 <f256main+0x17ce>
    11fe: 85 15        	sta	$15                     ; 0x2015 <f256main+0x17d1>
    1200: a0 1b        	ldy	#$1b
    1202: a9 2e        	lda	#$2e
    1204: 91 14        	sta	($14),y                 ; 0x2014 <f256main+0x17d0>
    1206: b2 12        	lda	($12)                   ; 0x2012 <f256main+0x17ce>
    1208: 85 14        	sta	$14                     ; 0x2014 <f256main+0x17d0>
    120a: a0 01        	ldy	#$1
    120c: b1 12        	lda	($12),y                 ; 0x2012 <f256main+0x17ce>
    120e: 85 15        	sta	$15                     ; 0x2015 <f256main+0x17d1>
    1210: a9 2c        	lda	#$2c
    1212: a0 1c        	ldy	#$1c
    1214: 91 14        	sta	($14),y                 ; 0x2014 <f256main+0x17d0>
    1216: b2 12        	lda	($12)                   ; 0x2012 <f256main+0x17ce>
    1218: 85 14        	sta	$14                     ; 0x2014 <f256main+0x17d0>
    121a: a0 01        	ldy	#$1
    121c: b1 12        	lda	($12),y                 ; 0x2012 <f256main+0x17ce>
    121e: 85 15        	sta	$15                     ; 0x2015 <f256main+0x17d1>
    1220: a9 2c        	lda	#$2c
    1222: a0 1d        	ldy	#$1d
    1224: 91 14        	sta	($14),y                 ; 0x2014 <f256main+0x17d0>
    1226: b2 12        	lda	($12)                   ; 0x2012 <f256main+0x17ce>
    1228: 85 14        	sta	$14                     ; 0x2014 <f256main+0x17d0>
    122a: a0 01        	ldy	#$1
    122c: b1 12        	lda	($12),y                 ; 0x2012 <f256main+0x17ce>
    122e: 85 15        	sta	$15                     ; 0x2015 <f256main+0x17d1>
    1230: a9 2c        	lda	#$2c
    1232: a0 1e        	ldy	#$1e
    1234: 91 14        	sta	($14),y                 ; 0x2014 <f256main+0x17d0>
    1236: b2 12        	lda	($12)                   ; 0x2012 <f256main+0x17ce>
    1238: 85 14        	sta	$14                     ; 0x2014 <f256main+0x17d0>
    123a: a0 01        	ldy	#$1
    123c: b1 12        	lda	($12),y                 ; 0x2012 <f256main+0x17ce>
    123e: 85 15        	sta	$15                     ; 0x2015 <f256main+0x17d1>
    1240: a9 2c        	lda	#$2c
    1242: a0 1f        	ldy	#$1f
    1244: 91 14        	sta	($14),y                 ; 0x2014 <f256main+0x17d0>
    1246: ae 6b 7a     	ldx	$7a6b                   ; 0x7a6b <theBeats+0x48>
    1249: 86 12        	stx	$12                     ; 0x2012 <f256main+0x17ce>
    124b: ae 6c 7a     	ldx	$7a6c                   ; 0x7a6c <theBeats+0x49>
    124e: 86 13        	stx	$13                     ; 0x2013 <f256main+0x17cf>
    1250: b2 12        	lda	($12)                   ; 0x2012 <f256main+0x17ce>
    1252: 85 14        	sta	$14                     ; 0x2014 <f256main+0x17d0>
    1254: a0 01        	ldy	#$1
    1256: b1 12        	lda	($12),y                 ; 0x2012 <f256main+0x17ce>
    1258: 85 15        	sta	$15                     ; 0x2015 <f256main+0x17d1>
    125a: a9 10        	lda	#$10
    125c: 92 14        	sta	($14)                   ; 0x2014 <f256main+0x17d0>
    125e: b2 12        	lda	($12)                   ; 0x2012 <f256main+0x17ce>
    1260: 85 14        	sta	$14                     ; 0x2014 <f256main+0x17d0>
    1262: b1 12        	lda	($12),y                 ; 0x2012 <f256main+0x17ce>
    1264: 85 15        	sta	$15                     ; 0x2015 <f256main+0x17d1>
    1266: a9 0f        	lda	#$f
    1268: 91 14        	sta	($14),y                 ; 0x2014 <f256main+0x17d0>
    126a: b2 12        	lda	($12)                   ; 0x2012 <f256main+0x17ce>
    126c: 85 14        	sta	$14                     ; 0x2014 <f256main+0x17d0>
    126e: b1 12        	lda	($12),y                 ; 0x2012 <f256main+0x17ce>
    1270: 85 15        	sta	$15                     ; 0x2015 <f256main+0x17d1>
    1272: a9 10        	lda	#$10
    1274: c8           	iny
    1275: 91 14        	sta	($14),y                 ; 0x2014 <f256main+0x17d0>
    1277: b2 12        	lda	($12)                   ; 0x2012 <f256main+0x17ce>
    1279: 85 14        	sta	$14                     ; 0x2014 <f256main+0x17d0>
    127b: 88           	dey
    127c: b1 12        	lda	($12),y                 ; 0x2012 <f256main+0x17ce>
    127e: 85 15        	sta	$15                     ; 0x2015 <f256main+0x17d1>
    1280: a0 03        	ldy	#$3
    1282: a9 0f        	lda	#$f
    1284: 91 14        	sta	($14),y                 ; 0x2014 <f256main+0x17d0>
    1286: b2 12        	lda	($12)                   ; 0x2012 <f256main+0x17ce>
    1288: 85 14        	sta	$14                     ; 0x2014 <f256main+0x17d0>
    128a: a0 01        	ldy	#$1
    128c: b1 12        	lda	($12),y                 ; 0x2012 <f256main+0x17ce>
    128e: 85 15        	sta	$15                     ; 0x2015 <f256main+0x17d1>
    1290: a9 10        	lda	#$10
    1292: a0 04        	ldy	#$4
    1294: 91 14        	sta	($14),y                 ; 0x2014 <f256main+0x17d0>
    1296: b2 12        	lda	($12)                   ; 0x2012 <f256main+0x17ce>
    1298: 85 14        	sta	$14                     ; 0x2014 <f256main+0x17d0>
    129a: a0 01        	ldy	#$1
    129c: b1 12        	lda	($12),y                 ; 0x2012 <f256main+0x17ce>
    129e: 85 15        	sta	$15                     ; 0x2015 <f256main+0x17d1>
    12a0: a9 0f        	lda	#$f
    12a2: a0 05        	ldy	#$5
    12a4: 91 14        	sta	($14),y                 ; 0x2014 <f256main+0x17d0>
    12a6: b2 12        	lda	($12)                   ; 0x2012 <f256main+0x17ce>
    12a8: 85 14        	sta	$14                     ; 0x2014 <f256main+0x17d0>
    12aa: a0 01        	ldy	#$1
    12ac: b1 12        	lda	($12),y                 ; 0x2012 <f256main+0x17ce>
    12ae: 85 15        	sta	$15                     ; 0x2015 <f256main+0x17d1>
    12b0: a9 10        	lda	#$10
    12b2: a0 06        	ldy	#$6
    12b4: 91 14        	sta	($14),y                 ; 0x2014 <f256main+0x17d0>
    12b6: b2 12        	lda	($12)                   ; 0x2012 <f256main+0x17ce>
    12b8: 85 14        	sta	$14                     ; 0x2014 <f256main+0x17d0>
    12ba: a0 01        	ldy	#$1
    12bc: b1 12        	lda	($12),y                 ; 0x2012 <f256main+0x17ce>
    12be: 85 15        	sta	$15                     ; 0x2015 <f256main+0x17d1>
    12c0: a0 07        	ldy	#$7
    12c2: a9 0f        	lda	#$f
    12c4: 91 14        	sta	($14),y                 ; 0x2014 <f256main+0x17d0>
    12c6: b2 12        	lda	($12)                   ; 0x2012 <f256main+0x17ce>
    12c8: 85 14        	sta	$14                     ; 0x2014 <f256main+0x17d0>
    12ca: a0 01        	ldy	#$1
    12cc: b1 12        	lda	($12),y                 ; 0x2012 <f256main+0x17ce>
    12ce: 85 15        	sta	$15                     ; 0x2015 <f256main+0x17d1>
    12d0: a9 10        	lda	#$10
    12d2: a0 08        	ldy	#$8
    12d4: 91 14        	sta	($14),y                 ; 0x2014 <f256main+0x17d0>
    12d6: b2 12        	lda	($12)                   ; 0x2012 <f256main+0x17ce>
    12d8: 85 14        	sta	$14                     ; 0x2014 <f256main+0x17d0>
    12da: a0 01        	ldy	#$1
    12dc: b1 12        	lda	($12),y                 ; 0x2012 <f256main+0x17ce>
    12de: 85 15        	sta	$15                     ; 0x2015 <f256main+0x17d1>
    12e0: a0 09        	ldy	#$9
    12e2: a9 0f        	lda	#$f
    12e4: 91 14        	sta	($14),y                 ; 0x2014 <f256main+0x17d0>
    12e6: b2 12        	lda	($12)                   ; 0x2012 <f256main+0x17ce>
    12e8: 85 14        	sta	$14                     ; 0x2014 <f256main+0x17d0>
    12ea: a0 01        	ldy	#$1
    12ec: b1 12        	lda	($12),y                 ; 0x2012 <f256main+0x17ce>
    12ee: 85 15        	sta	$15                     ; 0x2015 <f256main+0x17d1>
    12f0: a0 0a        	ldy	#$a
    12f2: a9 10        	lda	#$10
    12f4: 91 14        	sta	($14),y                 ; 0x2014 <f256main+0x17d0>
    12f6: b2 12        	lda	($12)                   ; 0x2012 <f256main+0x17ce>
    12f8: 85 14        	sta	$14                     ; 0x2014 <f256main+0x17d0>
    12fa: a0 01        	ldy	#$1
    12fc: b1 12        	lda	($12),y                 ; 0x2012 <f256main+0x17ce>
    12fe: 85 15        	sta	$15                     ; 0x2015 <f256main+0x17d1>
    1300: a0 0b        	ldy	#$b
    1302: a9 0f        	lda	#$f
    1304: 91 14        	sta	($14),y                 ; 0x2014 <f256main+0x17d0>
    1306: b2 12        	lda	($12)                   ; 0x2012 <f256main+0x17ce>
    1308: 85 14        	sta	$14                     ; 0x2014 <f256main+0x17d0>
    130a: a0 01        	ldy	#$1
    130c: b1 12        	lda	($12),y                 ; 0x2012 <f256main+0x17ce>
    130e: 85 15        	sta	$15                     ; 0x2015 <f256main+0x17d1>
    1310: a0 0c        	ldy	#$c
    1312: a9 10        	lda	#$10
    1314: 91 14        	sta	($14),y                 ; 0x2014 <f256main+0x17d0>
    1316: b2 12        	lda	($12)                   ; 0x2012 <f256main+0x17ce>
    1318: 85 14        	sta	$14                     ; 0x2014 <f256main+0x17d0>
    131a: a0 01        	ldy	#$1
    131c: b1 12        	lda	($12),y                 ; 0x2012 <f256main+0x17ce>
    131e: 85 15        	sta	$15                     ; 0x2015 <f256main+0x17d1>
    1320: a9 0f        	lda	#$f
    1322: a0 0d        	ldy	#$d
    1324: 91 14        	sta	($14),y                 ; 0x2014 <f256main+0x17d0>
    1326: b2 12        	lda	($12)                   ; 0x2012 <f256main+0x17ce>
    1328: 85 14        	sta	$14                     ; 0x2014 <f256main+0x17d0>
    132a: a0 01        	ldy	#$1
    132c: b1 12        	lda	($12),y                 ; 0x2012 <f256main+0x17ce>
    132e: 85 15        	sta	$15                     ; 0x2015 <f256main+0x17d1>
    1330: a9 10        	lda	#$10
    1332: a0 0e        	ldy	#$e
    1334: 91 14        	sta	($14),y                 ; 0x2014 <f256main+0x17d0>
    1336: b2 12        	lda	($12)                   ; 0x2012 <f256main+0x17ce>
    1338: 85 14        	sta	$14                     ; 0x2014 <f256main+0x17d0>
    133a: a0 01        	ldy	#$1
    133c: b1 12        	lda	($12),y                 ; 0x2012 <f256main+0x17ce>
    133e: 85 15        	sta	$15                     ; 0x2015 <f256main+0x17d1>
    1340: a9 0f        	lda	#$f
    1342: a8           	tay
    1343: 91 14        	sta	($14),y                 ; 0x2014 <f256main+0x17d0>
    1345: b2 12        	lda	($12)                   ; 0x2012 <f256main+0x17ce>
    1347: 85 14        	sta	$14                     ; 0x2014 <f256main+0x17d0>
    1349: a0 01        	ldy	#$1
    134b: b1 12        	lda	($12),y                 ; 0x2012 <f256main+0x17ce>
    134d: 85 15        	sta	$15                     ; 0x2015 <f256main+0x17d1>
    134f: a9 10        	lda	#$10
    1351: a8           	tay
    1352: 91 14        	sta	($14),y                 ; 0x2014 <f256main+0x17d0>
    1354: b2 12        	lda	($12)                   ; 0x2012 <f256main+0x17ce>
    1356: 85 14        	sta	$14                     ; 0x2014 <f256main+0x17d0>
    1358: a0 01        	ldy	#$1
    135a: b1 12        	lda	($12),y                 ; 0x2012 <f256main+0x17ce>
    135c: 85 15        	sta	$15                     ; 0x2015 <f256main+0x17d1>
    135e: a9 0f        	lda	#$f
    1360: a0 11        	ldy	#$11
    1362: 91 14        	sta	($14),y                 ; 0x2014 <f256main+0x17d0>
    1364: b2 12        	lda	($12)                   ; 0x2012 <f256main+0x17ce>
    1366: 85 14        	sta	$14                     ; 0x2014 <f256main+0x17d0>
    1368: a0 01        	ldy	#$1
    136a: b1 12        	lda	($12),y                 ; 0x2012 <f256main+0x17ce>
    136c: 85 15        	sta	$15                     ; 0x2015 <f256main+0x17d1>
    136e: a9 10        	lda	#$10
    1370: a0 12        	ldy	#$12
    1372: 91 14        	sta	($14),y                 ; 0x2014 <f256main+0x17d0>
    1374: b2 12        	lda	($12)                   ; 0x2012 <f256main+0x17ce>
    1376: 85 14        	sta	$14                     ; 0x2014 <f256main+0x17d0>
    1378: a0 01        	ldy	#$1
    137a: b1 12        	lda	($12),y                 ; 0x2012 <f256main+0x17ce>
    137c: 85 15        	sta	$15                     ; 0x2015 <f256main+0x17d1>
    137e: a9 0f        	lda	#$f
    1380: a0 13        	ldy	#$13
    1382: 91 14        	sta	($14),y                 ; 0x2014 <f256main+0x17d0>
    1384: b2 12        	lda	($12)                   ; 0x2012 <f256main+0x17ce>
    1386: 85 14        	sta	$14                     ; 0x2014 <f256main+0x17d0>
    1388: a0 01        	ldy	#$1
    138a: b1 12        	lda	($12),y                 ; 0x2012 <f256main+0x17ce>
    138c: 85 15        	sta	$15                     ; 0x2015 <f256main+0x17d1>
    138e: a9 10        	lda	#$10
    1390: a0 14        	ldy	#$14
    1392: 91 14        	sta	($14),y                 ; 0x2014 <f256main+0x17d0>
    1394: b2 12        	lda	($12)                   ; 0x2012 <f256main+0x17ce>
    1396: 85 14        	sta	$14                     ; 0x2014 <f256main+0x17d0>
    1398: a0 01        	ldy	#$1
    139a: b1 12        	lda	($12),y                 ; 0x2012 <f256main+0x17ce>
    139c: 85 15        	sta	$15                     ; 0x2015 <f256main+0x17d1>
    139e: a9 0f        	lda	#$f
    13a0: a0 15        	ldy	#$15
    13a2: 91 14        	sta	($14),y                 ; 0x2014 <f256main+0x17d0>
    13a4: b2 12        	lda	($12)                   ; 0x2012 <f256main+0x17ce>
    13a6: 85 14        	sta	$14                     ; 0x2014 <f256main+0x17d0>
    13a8: a0 01        	ldy	#$1
    13aa: b1 12        	lda	($12),y                 ; 0x2012 <f256main+0x17ce>
    13ac: 85 15        	sta	$15                     ; 0x2015 <f256main+0x17d1>
    13ae: a9 10        	lda	#$10
    13b0: a0 16        	ldy	#$16
    13b2: 91 14        	sta	($14),y                 ; 0x2014 <f256main+0x17d0>
    13b4: b2 12        	lda	($12)                   ; 0x2012 <f256main+0x17ce>
    13b6: 85 14        	sta	$14                     ; 0x2014 <f256main+0x17d0>
    13b8: a0 01        	ldy	#$1
    13ba: b1 12        	lda	($12),y                 ; 0x2012 <f256main+0x17ce>
    13bc: 85 15        	sta	$15                     ; 0x2015 <f256main+0x17d1>
    13be: a9 0f        	lda	#$f
    13c0: a0 17        	ldy	#$17
    13c2: 91 14        	sta	($14),y                 ; 0x2014 <f256main+0x17d0>
    13c4: b2 12        	lda	($12)                   ; 0x2012 <f256main+0x17ce>
    13c6: 85 14        	sta	$14                     ; 0x2014 <f256main+0x17d0>
    13c8: a0 01        	ldy	#$1
    13ca: b1 12        	lda	($12),y                 ; 0x2012 <f256main+0x17ce>
    13cc: 85 15        	sta	$15                     ; 0x2015 <f256main+0x17d1>
    13ce: a9 10        	lda	#$10
    13d0: a0 18        	ldy	#$18
    13d2: 91 14        	sta	($14),y                 ; 0x2014 <f256main+0x17d0>
    13d4: b2 12        	lda	($12)                   ; 0x2012 <f256main+0x17ce>
    13d6: 85 14        	sta	$14                     ; 0x2014 <f256main+0x17d0>
    13d8: a0 01        	ldy	#$1
    13da: b1 12        	lda	($12),y                 ; 0x2012 <f256main+0x17ce>
    13dc: 85 15        	sta	$15                     ; 0x2015 <f256main+0x17d1>
    13de: a9 0f        	lda	#$f
    13e0: a0 19        	ldy	#$19
    13e2: 91 14        	sta	($14),y                 ; 0x2014 <f256main+0x17d0>
    13e4: b2 12        	lda	($12)                   ; 0x2012 <f256main+0x17ce>
    13e6: 85 14        	sta	$14                     ; 0x2014 <f256main+0x17d0>
    13e8: a0 01        	ldy	#$1
    13ea: b1 12        	lda	($12),y                 ; 0x2012 <f256main+0x17ce>
    13ec: 85 15        	sta	$15                     ; 0x2015 <f256main+0x17d1>
    13ee: a9 10        	lda	#$10
    13f0: a0 1a        	ldy	#$1a
    13f2: 91 14        	sta	($14),y                 ; 0x2014 <f256main+0x17d0>
    13f4: b2 12        	lda	($12)                   ; 0x2012 <f256main+0x17ce>
    13f6: 85 14        	sta	$14                     ; 0x2014 <f256main+0x17d0>
    13f8: a0 01        	ldy	#$1
    13fa: b1 12        	lda	($12),y                 ; 0x2012 <f256main+0x17ce>
    13fc: 85 15        	sta	$15                     ; 0x2015 <f256main+0x17d1>
    13fe: a9 0f        	lda	#$f
    1400: a0 1b        	ldy	#$1b
    1402: 91 14        	sta	($14),y                 ; 0x2014 <f256main+0x17d0>
    1404: b2 12        	lda	($12)                   ; 0x2012 <f256main+0x17ce>
    1406: 85 14        	sta	$14                     ; 0x2014 <f256main+0x17d0>
    1408: a0 01        	ldy	#$1
    140a: b1 12        	lda	($12),y                 ; 0x2012 <f256main+0x17ce>
    140c: 85 15        	sta	$15                     ; 0x2015 <f256main+0x17d1>
    140e: a9 10        	lda	#$10
    1410: a0 1c        	ldy	#$1c
    1412: 91 14        	sta	($14),y                 ; 0x2014 <f256main+0x17d0>
    1414: b2 12        	lda	($12)                   ; 0x2012 <f256main+0x17ce>
    1416: 85 14        	sta	$14                     ; 0x2014 <f256main+0x17d0>
    1418: a0 01        	ldy	#$1
    141a: b1 12        	lda	($12),y                 ; 0x2012 <f256main+0x17ce>
    141c: 85 15        	sta	$15                     ; 0x2015 <f256main+0x17d1>
    141e: a9 0f        	lda	#$f
    1420: a0 1d        	ldy	#$1d
    1422: 91 14        	sta	($14),y                 ; 0x2014 <f256main+0x17d0>
    1424: b2 12        	lda	($12)                   ; 0x2012 <f256main+0x17ce>
    1426: 85 14        	sta	$14                     ; 0x2014 <f256main+0x17d0>
    1428: a0 01        	ldy	#$1
    142a: b1 12        	lda	($12),y                 ; 0x2012 <f256main+0x17ce>
    142c: 85 15        	sta	$15                     ; 0x2015 <f256main+0x17d1>
    142e: a9 10        	lda	#$10
    1430: a0 1e        	ldy	#$1e
    1432: 91 14        	sta	($14),y                 ; 0x2014 <f256main+0x17d0>
    1434: b2 12        	lda	($12)                   ; 0x2012 <f256main+0x17ce>
    1436: 85 14        	sta	$14                     ; 0x2014 <f256main+0x17d0>
    1438: a0 01        	ldy	#$1
    143a: b1 12        	lda	($12),y                 ; 0x2012 <f256main+0x17ce>
    143c: 85 15        	sta	$15                     ; 0x2015 <f256main+0x17d1>
    143e: a9 0f        	lda	#$f
    1440: a0 1f        	ldy	#$1f
    1442: 91 14        	sta	($14),y                 ; 0x2014 <f256main+0x17d0>
    1444: ae 67 7a     	ldx	$7a67                   ; 0x7a67 <theBeats+0x44>
    1447: 86 12        	stx	$12                     ; 0x2012 <f256main+0x17ce>
    1449: ae 68 7a     	ldx	$7a68                   ; 0x7a68 <theBeats+0x45>
    144c: 86 13        	stx	$13                     ; 0x2013 <f256main+0x17cf>
    144e: a9 0c        	lda	#$c
    1450: a0 01        	ldy	#$1
    1452: 91 12        	sta	($12),y                 ; 0x2012 <f256main+0x17ce>
    1454: ad 65 7a     	lda	$7a65                   ; 0x7a65 <theBeats+0x42>
    1457: 85 12        	sta	$12                     ; 0x2012 <f256main+0x17ce>
    1459: ac 66 7a     	ldy	$7a66                   ; 0x7a66 <theBeats+0x43>
    145c: 84 13        	sty	$13                     ; 0x2013 <f256main+0x17cf>
    145e: 18           	clc
    145f: 69 02        	adc	#$2
    1461: 85 14        	sta	$14                     ; 0x2014 <f256main+0x17d0>
    1463: 98           	tya
    1464: 69 00        	adc	#$0
    1466: 85 15        	sta	$15                     ; 0x2015 <f256main+0x17d1>
    1468: a0 02        	ldy	#$2
    146a: b1 12        	lda	($12),y                 ; 0x2012 <f256main+0x17ce>
    146c: 85 16        	sta	$16                     ; 0x2016 <f256main+0x17d2>
    146e: 88           	dey
    146f: b1 14        	lda	($14),y                 ; 0x2014 <f256main+0x17d0>
    1471: 85 17        	sta	$17                     ; 0x2017 <f256main+0x17d3>
    1473: a9 24        	lda	#$24
    1475: 92 16        	sta	($16)                   ; 0x2016 <f256main+0x17d2>
    1477: c8           	iny
    1478: b1 12        	lda	($12),y                 ; 0x2012 <f256main+0x17ce>
    147a: 85 16        	sta	$16                     ; 0x2016 <f256main+0x17d2>
    147c: 88           	dey
    147d: b1 14        	lda	($14),y                 ; 0x2014 <f256main+0x17d0>
    147f: 85 17        	sta	$17                     ; 0x2017 <f256main+0x17d3>
    1481: a9 00        	lda	#$0
    1483: 91 16        	sta	($16),y                 ; 0x2016 <f256main+0x17d2>
    1485: c8           	iny
    1486: b1 12        	lda	($12),y                 ; 0x2012 <f256main+0x17ce>
    1488: 85 16        	sta	$16                     ; 0x2016 <f256main+0x17d2>
    148a: 88           	dey
    148b: b1 14        	lda	($14),y                 ; 0x2014 <f256main+0x17d0>
    148d: 85 17        	sta	$17                     ; 0x2017 <f256main+0x17d3>
    148f: a9 24        	lda	#$24
    1491: c8           	iny
    1492: 91 16        	sta	($16),y                 ; 0x2016 <f256main+0x17d2>
    1494: b1 12        	lda	($12),y                 ; 0x2012 <f256main+0x17ce>
    1496: 85 16        	sta	$16                     ; 0x2016 <f256main+0x17d2>
    1498: 88           	dey
    1499: b1 14        	lda	($14),y                 ; 0x2014 <f256main+0x17d0>
    149b: 85 17        	sta	$17                     ; 0x2017 <f256main+0x17d3>
    149d: a9 26        	lda	#$26
    149f: a0 03        	ldy	#$3
    14a1: 91 16        	sta	($16),y                 ; 0x2016 <f256main+0x17d2>
    14a3: 88           	dey
    14a4: b1 12        	lda	($12),y                 ; 0x2012 <f256main+0x17ce>
    14a6: 85 16        	sta	$16                     ; 0x2016 <f256main+0x17d2>
    14a8: 88           	dey
    14a9: b1 14        	lda	($14),y                 ; 0x2014 <f256main+0x17d0>
    14ab: 85 17        	sta	$17                     ; 0x2017 <f256main+0x17d3>
    14ad: a9 00        	lda	#$0
    14af: a0 04        	ldy	#$4
    14b1: 91 16        	sta	($16),y                 ; 0x2016 <f256main+0x17d2>
    14b3: a0 02        	ldy	#$2
    14b5: b1 12        	lda	($12),y                 ; 0x2012 <f256main+0x17ce>
    14b7: 85 16        	sta	$16                     ; 0x2016 <f256main+0x17d2>
    14b9: 88           	dey
    14ba: b1 14        	lda	($14),y                 ; 0x2014 <f256main+0x17d0>
    14bc: 85 17        	sta	$17                     ; 0x2017 <f256main+0x17d3>
    14be: a9 24        	lda	#$24
    14c0: a0 05        	ldy	#$5
    14c2: 91 16        	sta	($16),y                 ; 0x2016 <f256main+0x17d2>
    14c4: a0 02        	ldy	#$2
    14c6: b1 12        	lda	($12),y                 ; 0x2012 <f256main+0x17ce>
    14c8: 85 16        	sta	$16                     ; 0x2016 <f256main+0x17d2>
    14ca: 88           	dey
    14cb: b1 14        	lda	($14),y                 ; 0x2014 <f256main+0x17d0>
    14cd: 85 17        	sta	$17                     ; 0x2017 <f256main+0x17d3>
    14cf: a9 00        	lda	#$0
    14d1: a0 06        	ldy	#$6
    14d3: 91 16        	sta	($16),y                 ; 0x2016 <f256main+0x17d2>
    14d5: a0 02        	ldy	#$2
    14d7: b1 12        	lda	($12),y                 ; 0x2012 <f256main+0x17ce>
    14d9: 85 16        	sta	$16                     ; 0x2016 <f256main+0x17d2>
    14db: 88           	dey
    14dc: b1 14        	lda	($14),y                 ; 0x2014 <f256main+0x17d0>
    14de: 85 17        	sta	$17                     ; 0x2017 <f256main+0x17d3>
    14e0: a9 24        	lda	#$24
    14e2: a0 07        	ldy	#$7
    14e4: 91 16        	sta	($16),y                 ; 0x2016 <f256main+0x17d2>
    14e6: a0 02        	ldy	#$2
    14e8: b1 12        	lda	($12),y                 ; 0x2012 <f256main+0x17ce>
    14ea: 85 16        	sta	$16                     ; 0x2016 <f256main+0x17d2>
    14ec: 88           	dey
    14ed: b1 14        	lda	($14),y                 ; 0x2014 <f256main+0x17d0>
    14ef: 85 17        	sta	$17                     ; 0x2017 <f256main+0x17d3>
    14f1: a9 24        	lda	#$24
    14f3: a0 08        	ldy	#$8
    14f5: 91 16        	sta	($16),y                 ; 0x2016 <f256main+0x17d2>
    14f7: a0 02        	ldy	#$2
    14f9: b1 12        	lda	($12),y                 ; 0x2012 <f256main+0x17ce>
    14fb: 85 16        	sta	$16                     ; 0x2016 <f256main+0x17d2>
    14fd: 88           	dey
    14fe: b1 14        	lda	($14),y                 ; 0x2014 <f256main+0x17d0>
    1500: 85 17        	sta	$17                     ; 0x2017 <f256main+0x17d3>
    1502: a9 26        	lda	#$26
    1504: a0 09        	ldy	#$9
    1506: 91 16        	sta	($16),y                 ; 0x2016 <f256main+0x17d2>
    1508: a0 02        	ldy	#$2
    150a: b1 12        	lda	($12),y                 ; 0x2012 <f256main+0x17ce>
    150c: 85 16        	sta	$16                     ; 0x2016 <f256main+0x17d2>
    150e: 88           	dey
    150f: b1 14        	lda	($14),y                 ; 0x2014 <f256main+0x17d0>
    1511: 85 17        	sta	$17                     ; 0x2017 <f256main+0x17d3>
    1513: a9 00        	lda	#$0
    1515: a0 0a        	ldy	#$a
    1517: 91 16        	sta	($16),y                 ; 0x2016 <f256main+0x17d2>
    1519: a0 02        	ldy	#$2
    151b: b1 12        	lda	($12),y                 ; 0x2012 <f256main+0x17ce>
    151d: 85 12        	sta	$12                     ; 0x2012 <f256main+0x17ce>
    151f: 88           	dey
    1520: b1 14        	lda	($14),y                 ; 0x2014 <f256main+0x17d0>
    1522: 85 13        	sta	$13                     ; 0x2013 <f256main+0x17cf>
    1524: a9 24        	lda	#$24
    1526: a0 0b        	ldy	#$b
    1528: 91 12        	sta	($12),y                 ; 0x2012 <f256main+0x17ce>
    152a: ad 6b 7a     	lda	$7a6b                   ; 0x7a6b <theBeats+0x48>
    152d: 85 12        	sta	$12                     ; 0x2012 <f256main+0x17ce>
    152f: ac 6c 7a     	ldy	$7a6c                   ; 0x7a6c <theBeats+0x49>
    1532: 84 13        	sty	$13                     ; 0x2013 <f256main+0x17cf>
    1534: 18           	clc
    1535: 69 02        	adc	#$2
    1537: 85 14        	sta	$14                     ; 0x2014 <f256main+0x17d0>
    1539: 98           	tya
    153a: 69 00        	adc	#$0
    153c: 85 15        	sta	$15                     ; 0x2015 <f256main+0x17d1>
    153e: a0 02        	ldy	#$2
    1540: b1 12        	lda	($12),y                 ; 0x2012 <f256main+0x17ce>
    1542: 85 16        	sta	$16                     ; 0x2016 <f256main+0x17d2>
    1544: 88           	dey
    1545: b1 14        	lda	($14),y                 ; 0x2014 <f256main+0x17d0>
    1547: 85 17        	sta	$17                     ; 0x2017 <f256main+0x17d3>
    1549: a9 11        	lda	#$11
    154b: 92 16        	sta	($16)                   ; 0x2016 <f256main+0x17d2>
    154d: c8           	iny
    154e: b1 12        	lda	($12),y                 ; 0x2012 <f256main+0x17ce>
    1550: 85 16        	sta	$16                     ; 0x2016 <f256main+0x17d2>
    1552: 88           	dey
    1553: b1 14        	lda	($14),y                 ; 0x2014 <f256main+0x17d0>
    1555: 85 17        	sta	$17                     ; 0x2017 <f256main+0x17d3>
    1557: a9 10        	lda	#$10
    1559: 91 16        	sta	($16),y                 ; 0x2016 <f256main+0x17d2>
    155b: c8           	iny
    155c: b1 12        	lda	($12),y                 ; 0x2012 <f256main+0x17ce>
    155e: 85 16        	sta	$16                     ; 0x2016 <f256main+0x17d2>
    1560: 88           	dey
    1561: b1 14        	lda	($14),y                 ; 0x2014 <f256main+0x17d0>
    1563: 85 17        	sta	$17                     ; 0x2017 <f256main+0x17d3>
    1565: a9 0f        	lda	#$f
    1567: c8           	iny
    1568: 91 16        	sta	($16),y                 ; 0x2016 <f256main+0x17d2>
    156a: b1 12        	lda	($12),y                 ; 0x2012 <f256main+0x17ce>
    156c: 85 16        	sta	$16                     ; 0x2016 <f256main+0x17d2>
    156e: 88           	dey
    156f: b1 14        	lda	($14),y                 ; 0x2014 <f256main+0x17d0>
    1571: 85 17        	sta	$17                     ; 0x2017 <f256main+0x17d3>
    1573: a0 03        	ldy	#$3
    1575: a9 11        	lda	#$11
    1577: 91 16        	sta	($16),y                 ; 0x2016 <f256main+0x17d2>
    1579: 88           	dey
    157a: b1 12        	lda	($12),y                 ; 0x2012 <f256main+0x17ce>
    157c: 85 16        	sta	$16                     ; 0x2016 <f256main+0x17d2>
    157e: 88           	dey
    157f: b1 14        	lda	($14),y                 ; 0x2014 <f256main+0x17d0>
    1581: 85 17        	sta	$17                     ; 0x2017 <f256main+0x17d3>
    1583: a9 10        	lda	#$10
    1585: a0 04        	ldy	#$4
    1587: 91 16        	sta	($16),y                 ; 0x2016 <f256main+0x17d2>
    1589: a0 02        	ldy	#$2
    158b: b1 12        	lda	($12),y                 ; 0x2012 <f256main+0x17ce>
    158d: 85 16        	sta	$16                     ; 0x2016 <f256main+0x17d2>
    158f: 88           	dey
    1590: b1 14        	lda	($14),y                 ; 0x2014 <f256main+0x17d0>
    1592: 85 17        	sta	$17                     ; 0x2017 <f256main+0x17d3>
    1594: a9 0f        	lda	#$f
    1596: a0 05        	ldy	#$5
    1598: 91 16        	sta	($16),y                 ; 0x2016 <f256main+0x17d2>
    159a: a0 02        	ldy	#$2
    159c: b1 12        	lda	($12),y                 ; 0x2012 <f256main+0x17ce>
    159e: 85 16        	sta	$16                     ; 0x2016 <f256main+0x17d2>
    15a0: 88           	dey
    15a1: b1 14        	lda	($14),y                 ; 0x2014 <f256main+0x17d0>
    15a3: 85 17        	sta	$17                     ; 0x2017 <f256main+0x17d3>
    15a5: a9 10        	lda	#$10
    15a7: a0 06        	ldy	#$6
    15a9: 91 16        	sta	($16),y                 ; 0x2016 <f256main+0x17d2>
    15ab: a0 02        	ldy	#$2
    15ad: b1 12        	lda	($12),y                 ; 0x2012 <f256main+0x17ce>
    15af: 85 16        	sta	$16                     ; 0x2016 <f256main+0x17d2>
    15b1: 88           	dey
    15b2: b1 14        	lda	($14),y                 ; 0x2014 <f256main+0x17d0>
    15b4: 85 17        	sta	$17                     ; 0x2017 <f256main+0x17d3>
    15b6: a0 07        	ldy	#$7
    15b8: a9 0f        	lda	#$f
    15ba: 91 16        	sta	($16),y                 ; 0x2016 <f256main+0x17d2>
    15bc: a0 02        	ldy	#$2
    15be: b1 12        	lda	($12),y                 ; 0x2012 <f256main+0x17ce>
    15c0: 85 16        	sta	$16                     ; 0x2016 <f256main+0x17d2>
    15c2: 88           	dey
    15c3: b1 14        	lda	($14),y                 ; 0x2014 <f256main+0x17d0>
    15c5: 85 17        	sta	$17                     ; 0x2017 <f256main+0x17d3>
    15c7: a0 08        	ldy	#$8
    15c9: a9 11        	lda	#$11
    15cb: 91 16        	sta	($16),y                 ; 0x2016 <f256main+0x17d2>
    15cd: a0 02        	ldy	#$2
    15cf: b1 12        	lda	($12),y                 ; 0x2012 <f256main+0x17ce>
    15d1: 85 16        	sta	$16                     ; 0x2016 <f256main+0x17d2>
    15d3: 88           	dey
    15d4: b1 14        	lda	($14),y                 ; 0x2014 <f256main+0x17d0>
    15d6: 85 17        	sta	$17                     ; 0x2017 <f256main+0x17d3>
    15d8: a0 09        	ldy	#$9
    15da: a9 11        	lda	#$11
    15dc: 91 16        	sta	($16),y                 ; 0x2016 <f256main+0x17d2>
    15de: a0 02        	ldy	#$2
    15e0: b1 12        	lda	($12),y                 ; 0x2012 <f256main+0x17ce>
    15e2: 85 16        	sta	$16                     ; 0x2016 <f256main+0x17d2>
    15e4: 88           	dey
    15e5: b1 14        	lda	($14),y                 ; 0x2014 <f256main+0x17d0>
    15e7: 85 17        	sta	$17                     ; 0x2017 <f256main+0x17d3>
    15e9: a0 0a        	ldy	#$a
    15eb: a9 10        	lda	#$10
    15ed: 91 16        	sta	($16),y                 ; 0x2016 <f256main+0x17d2>
    15ef: a0 02        	ldy	#$2
    15f1: b1 12        	lda	($12),y                 ; 0x2012 <f256main+0x17ce>
    15f3: 85 12        	sta	$12                     ; 0x2012 <f256main+0x17ce>
    15f5: 88           	dey
    15f6: b1 14        	lda	($14),y                 ; 0x2014 <f256main+0x17d0>
    15f8: 85 13        	sta	$13                     ; 0x2013 <f256main+0x17cf>
    15fa: a0 0b        	ldy	#$b
    15fc: a9 0f        	lda	#$f
    15fe: 91 12        	sta	($12),y                 ; 0x2012 <f256main+0x17ce>
    1600: 20 da 36     	jsr	$36da <prepTempoLUT>
    1603: a2 32        	ldx	#$32
    1605: 86 7b        	stx	$7b                     ; 0x207b <f256main+0x1837>
    1607: a2 80        	ldx	#$80
    1609: 86 f3        	stx	$f3                     ; 0x20f3 <f256main+0x18af>
    160b: 18           	clc
    160c: a5 10        	lda	$10                     ; 0x2010 <f256main+0x17cc>
    160e: 69 0d        	adc	#$d
    1610: 85 26        	sta	$26                     ; 0x2026 <f256main+0x17e2>
    1612: a5 11        	lda	$11                     ; 0x2011 <f256main+0x17cd>
    1614: 69 00        	adc	#$0
    1616: 85 27        	sta	$27                     ; 0x2027 <f256main+0x17e3>
    1618: a2 6f        	ldx	#$6f
    161a: 86 12        	stx	$12                     ; 0x2012 <f256main+0x17ce>
    161c: a2 7a        	ldx	#$7a
    161e: 86 13        	stx	$13                     ; 0x2013 <f256main+0x17cf>
    1620: 20 f0 ff     	jsr	$fff0 <end_block9+0x8580>
    1623: 92 26        	sta	($26)                   ; 0x2026 <f256main+0x17e2>
    1625: a9 00        	lda	#$0
    1627: 6a           	ror
    1628: 85 12        	sta	$12                     ; 0x2012 <f256main+0x17ce>
    162a: b2 26        	lda	($26)                   ; 0x2026 <f256main+0x17e2>
    162c: 1a           	inc
    162d: 85 7c        	sta	$7c                     ; 0x207c <f256main+0x1838>
    162f: 64 f3        	stz	$f3                     ; 0x20f3 <f256main+0x18af>
    1631: a6 7c        	ldx	$7c                     ; 0x207c <f256main+0x1838>
    1633: 86 f4        	stx	$f4                     ; 0x20f4 <f256main+0x18b0>
    1635: 64 f5        	stz	$f5                     ; 0x20f5 <f256main+0x18b1>
    1637: a2 c0        	ldx	#$c0
    1639: 20 f0 ff     	jsr	$fff0 <end_block9+0x8580>
    163c: 92 26        	sta	($26)                   ; 0x2026 <f256main+0x17e2>
    163e: a9 00        	lda	#$0
    1640: 6a           	ror
    1641: 85 12        	sta	$12                     ; 0x2012 <f256main+0x17ce>
    1643: 8e a1 dd     	stx	$dda1                   ; 0xdda1 <end_block9+0x6331>
    1646: 9c a1 dd     	stz	$dda1                   ; 0xdda1 <end_block9+0x6331>
    1649: e8           	inx
    164a: e0 d0        	cpx	#$d0
    164c: d0 f5        	bne	$1643 <f256main+0xdff>
    164e: a0 ff        	ldy	#$ff
    1650: 8c a1 dd     	sty	$dda1                   ; 0xdda1 <end_block9+0x6331>
    1653: a2 c2        	ldx	#$c2
    1655: 8e a1 dd     	stx	$dda1                   ; 0xdda1 <end_block9+0x6331>
    1658: a2 73        	ldx	#$73
    165a: 8e a1 dd     	stx	$dda1                   ; 0xdda1 <end_block9+0x6331>
    165d: 64 52        	stz	$52                     ; 0x2052 <f256main+0x180e>
    165f: 64 53        	stz	$53                     ; 0x2053 <f256main+0x180f>
    1661: 64 54        	stz	$54                     ; 0x2054 <f256main+0x1810>
    1663: 64 55        	stz	$55                     ; 0x2055 <f256main+0x1811>
    1665: 64 64        	stz	$64                     ; 0x2064 <f256main+0x1820>
    1667: 64 65        	stz	$65                     ; 0x2065 <f256main+0x1821>
    1669: a2 90        	ldx	#$90
    166b: 86 30        	stx	$30                     ; 0x2030 <f256main+0x17ec>
    166d: 64 4d        	stz	$4d                     ; 0x204d <f256main+0x1809>
    166f: 9c 14 d0     	stz	$d014                   ; 0xd014 <end_block9+0x55a4>
    1672: 9c 15 d0     	stz	$d015                   ; 0xd015 <end_block9+0x55a5>
    1675: a2 02        	ldx	#$2
    1677: 86 4e        	stx	$4e                     ; 0x204e <f256main+0x180a>
    1679: 8e 16 d0     	stx	$d016                   ; 0xd016 <end_block9+0x55a6>
    167c: 9c 17 d0     	stz	$d017                   ; 0xd017 <end_block9+0x55a7>
    167f: a2 27        	ldx	#$27
    1681: 86 31        	stx	$31                     ; 0x2031 <f256main+0x17ed>
    1683: 64 32        	stz	$32                     ; 0x2032 <f256main+0x17ee>
    1685: 86 7d        	stx	$7d                     ; 0x207d <f256main+0x1839>
    1687: 64 7e        	stz	$7e                     ; 0x207e <f256main+0x183a>
    1689: a6 01        	ldx	$1                      ; 0x2001 <f256main+0x17bd>
    168b: a9 01        	lda	#$1
    168d: 85 01        	sta	$1                      ; 0x2001 <f256main+0x17bd>
    168f: 9c 20 d2     	stz	$d220                   ; 0xd220 <end_block9+0x57b0>
    1692: 9c 21 d2     	stz	$d221                   ; 0xd221 <end_block9+0x57b1>
    1695: 8c 22 d2     	sty	$d222                   ; 0xd222 <end_block9+0x57b2>
    1698: 8c 23 d2     	sty	$d223                   ; 0xd223 <end_block9+0x57b3>
    169b: 86 01        	stx	$1                      ; 0x2001 <f256main+0x17bd>
    169d: a2 6f        	ldx	#$6f
    169f: 86 16        	stx	$16                     ; 0x2016 <f256main+0x17d2>
    16a1: a2 7a        	ldx	#$7a
    16a3: 86 17        	stx	$17                     ; 0x2017 <f256main+0x17d3>
    16a5: 64 25        	stz	$25                     ; 0x2025 <f256main+0x17e1>
    16a7: 3a           	dec
    16a8: a0 07        	ldy	#$7
    16aa: 91 10        	sta	($10),y                 ; 0x2010 <f256main+0x17cc>
    16ac: 64 12        	stz	$12                     ; 0x2012 <f256main+0x17ce>
    16ae: a9 00        	lda	#$0
    16b0: c8           	iny
    16b1: 91 10        	sta	($10),y                 ; 0x2010 <f256main+0x17cc>
    16b3: a0 0a        	ldy	#$a
    16b5: 91 10        	sta	($10),y                 ; 0x2010 <f256main+0x17cc>
    16b7: 88           	dey
    16b8: 91 10        	sta	($10),y                 ; 0x2010 <f256main+0x17cc>
    16ba: a0 06        	ldy	#$6
    16bc: 91 10        	sta	($10),y                 ; 0x2010 <f256main+0x17cc>
    16be: 64 29        	stz	$29                     ; 0x2029 <f256main+0x17e5>
    16c0: a0 0b        	ldy	#$b
    16c2: 91 10        	sta	($10),y                 ; 0x2010 <f256main+0x17cc>
    16c4: c8           	iny
    16c5: 91 10        	sta	($10),y                 ; 0x2010 <f256main+0x17cc>
    16c7: a0 0b        	ldy	#$b
    16c9: b1 10        	lda	($10),y                 ; 0x2010 <f256main+0x17cc>
    16cb: 85 2b        	sta	$2b                     ; 0x202b <f256main+0x17e7>
    16cd: c8           	iny
    16ce: b1 10        	lda	($10),y                 ; 0x2010 <f256main+0x17cc>
    16d0: 85 2c        	sta	$2c                     ; 0x202c <f256main+0x17e8>
    16d2: ad a0 dd     	lda	$dda0                   ; 0xdda0 <end_block9+0x6330>
    16d5: 29 02        	and	#$2
    16d7: f0 03        	beq	$16dc <f256main+0xe98>
    16d9: 4c b9 18     	jmp	$18b9 <f256main+0x1075>
    16dc: ae a2 dd     	ldx	$dda2                   ; 0xdda2 <end_block9+0x6332>
    16df: ad a3 dd     	lda	$dda3                   ; 0xdda3 <end_block9+0x6333>
    16e2: a4 2c        	ldy	$2c                     ; 0x202c <f256main+0x17e8>
    16e4: d0 41        	bne	$1727 <f256main+0xee3>
    16e6: a0 05        	ldy	#$5
    16e8: 84 4d        	sty	$4d                     ; 0x204d <f256main+0x1809>
    16ea: 8c 14 d0     	sty	$d014                   ; 0xd014 <end_block9+0x55a4>
    16ed: 9c 15 d0     	stz	$d015                   ; 0xd015 <end_block9+0x55a5>
    16f0: 88           	dey
    16f1: 84 4e        	sty	$4e                     ; 0x204e <f256main+0x180a>
    16f3: 8c 16 d0     	sty	$d016                   ; 0xd016 <end_block9+0x55a6>
    16f6: 9c 17 d0     	stz	$d017                   ; 0xd017 <end_block9+0x55a7>
    16f9: a0 3c        	ldy	#$3c
    16fb: 84 12        	sty	$12                     ; 0x2012 <f256main+0x17ce>
    16fd: a0 70        	ldy	#$70
    16ff: 84 13        	sty	$13                     ; 0x2013 <f256main+0x17cf>
    1701: 85 24        	sta	$24                     ; 0x2024 <f256main+0x17e0>
    1703: 86 25        	stx	$25                     ; 0x2025 <f256main+0x17e1>
    1705: 20 22 35     	jsr	$3522 <textPrint>
    1708: a6 25        	ldx	$25                     ; 0x2025 <f256main+0x17e1>
    170a: a5 24        	lda	$24                     ; 0x2024 <f256main+0x17e0>
    170c: a0 6f        	ldy	#$6f
    170e: 84 16        	sty	$16                     ; 0x2016 <f256main+0x17d2>
    1710: a0 7a        	ldy	#$7a
    1712: 84 17        	sty	$17                     ; 0x2017 <f256main+0x17d3>
    1714: a0 05        	ldy	#$5
    1716: 84 4d        	sty	$4d                     ; 0x204d <f256main+0x1809>
    1718: 8c 14 d0     	sty	$d014                   ; 0xd014 <end_block9+0x55a4>
    171b: 9c 15 d0     	stz	$d015                   ; 0xd015 <end_block9+0x55a5>
    171e: 88           	dey
    171f: 84 4e        	sty	$4e                     ; 0x204e <f256main+0x180a>
    1721: 8c 16 d0     	sty	$d016                   ; 0xd016 <end_block9+0x55a6>
    1724: 9c 17 d0     	stz	$d017                   ; 0xd017 <end_block9+0x55a7>
    1727: 86 24        	stx	$24                     ; 0x2024 <f256main+0x17e0>
    1729: 29 0f        	and	#$f
    172b: 85 2d        	sta	$2d                     ; 0x202d <f256main+0x17e9>
    172d: a5 2d        	lda	$2d                     ; 0x202d <f256main+0x17e9>
    172f: d0 07        	bne	$1738 <f256main+0xef4>
    1731: a5 24        	lda	$24                     ; 0x2024 <f256main+0x17e0>
    1733: d0 03        	bne	$1738 <f256main+0xef4>
    1735: 4c b9 18     	jmp	$18b9 <f256main+0x1075>
    1738: a2 01        	ldx	#$1
    173a: 86 2e        	stx	$2e                     ; 0x202e <f256main+0x17ea>
    173c: ae a1 dd     	ldx	$dda1                   ; 0xdda1 <end_block9+0x6331>
    173f: 86 2a        	stx	$2a                     ; 0x202a <f256main+0x17e6>
    1741: a5 2c        	lda	$2c                     ; 0x202c <f256main+0x17e8>
    1743: d0 21        	bne	$1766 <f256main+0xf22>
    1745: a2 90        	ldx	#$90
    1747: 86 30        	stx	$30                     ; 0x2030 <f256main+0x17ec>
    1749: a5 2a        	lda	$2a                     ; 0x202a <f256main+0x17e6>
    174b: 92 10        	sta	($10)                   ; 0x2010 <f256main+0x17cc>
    174d: a0 01        	ldy	#$1
    174f: a9 00        	lda	#$0
    1751: 91 10        	sta	($10),y                 ; 0x2010 <f256main+0x17cc>
    1753: a2 e4        	ldx	#$e4
    1755: 86 12        	stx	$12                     ; 0x2012 <f256main+0x17ce>
    1757: a2 75        	ldx	#$75
    1759: 86 13        	stx	$13                     ; 0x2013 <f256main+0x17cf>
    175b: 20 82 42     	jsr	$4282 <printf>
    175e: a2 6f        	ldx	#$6f
    1760: 86 16        	stx	$16                     ; 0x2016 <f256main+0x17d2>
    1762: a2 7a        	ldx	#$7a
    1764: 86 17        	stx	$17                     ; 0x2017 <f256main+0x17d3>
    1766: a0 0a        	ldy	#$a
    1768: b1 10        	lda	($10),y                 ; 0x2010 <f256main+0x17cc>
    176a: d0 03        	bne	$176f <f256main+0xf2b>
    176c: 4c d3 17     	jmp	$17d3 <f256main+0xf8f>
    176f: a5 66        	lda	$66                     ; 0x2066 <f256main+0x1822>
    1771: 48           	pha
    1772: a0 09        	ldy	#$9
    1774: b1 10        	lda	($10),y                 ; 0x2010 <f256main+0x17cc>
    1776: aa           	tax
    1777: 68           	pla
    1778: e0 00        	cpx	#$0
    177a: f0 1f        	beq	$179b <f256main+0xf57>
    177c: a4 2a        	ldy	$2a                     ; 0x202a <f256main+0x17e6>
    177e: c0 70        	cpy	#$70
    1780: 09 90        	ora	#$90
    1782: 8d a1 dd     	sta	$dda1                   ; 0xdda1 <end_block9+0x6331>
    1785: a6 28        	ldx	$28                     ; 0x2028 <f256main+0x17e4>
    1787: 8e a1 dd     	stx	$dda1                   ; 0xdda1 <end_block9+0x6331>
    178a: b0 2d        	bcs	$17b9 <f256main+0xf75>
    178c: a2 70        	ldx	#$70
    178e: 8e a1 dd     	stx	$dda1                   ; 0xdda1 <end_block9+0x6331>
    1791: a4 67        	ldy	$67                     ; 0x2067 <f256main+0x1823>
    1793: a9 91        	lda	#$91
    1795: c0 00        	cpy	#$0
    1797: d0 2f        	bne	$17c8 <f256main+0xf84>
    1799: 80 38        	bra	$17d3 <f256main+0xf8f>
    179b: 09 80        	ora	#$80
    179d: 8d a1 dd     	sta	$dda1                   ; 0xdda1 <end_block9+0x6331>
    17a0: a6 28        	ldx	$28                     ; 0x2028 <f256main+0x17e4>
    17a2: 8e a1 dd     	stx	$dda1                   ; 0xdda1 <end_block9+0x6331>
    17a5: a2 4f        	ldx	#$4f
    17a7: 8e a1 dd     	stx	$dda1                   ; 0xdda1 <end_block9+0x6331>
    17aa: a4 67        	ldy	$67                     ; 0x2067 <f256main+0x1823>
    17ac: a9 81        	lda	#$81
    17ae: c0 00        	cpy	#$0
    17b0: d0 16        	bne	$17c8 <f256main+0xf84>
    17b2: a5 29        	lda	$29                     ; 0x2029 <f256main+0x17e5>
    17b4: f0 41        	beq	$17f7 <f256main+0xfb3>
    17b6: 4c 8a 1c     	jmp	$1c8a <f256main+0x1446>
    17b9: 8c a1 dd     	sty	$dda1                   ; 0xdda1 <end_block9+0x6331>
    17bc: a6 67        	ldx	$67                     ; 0x2067 <f256main+0x1823>
    17be: 86 12        	stx	$12                     ; 0x2012 <f256main+0x17ce>
    17c0: a9 91        	lda	#$91
    17c2: a6 2a        	ldx	$2a                     ; 0x202a <f256main+0x17e6>
    17c4: a4 12        	ldy	$12                     ; 0x2012 <f256main+0x17ce>
    17c6: f0 0b        	beq	$17d3 <f256main+0xf8f>
    17c8: 8d a1 dd     	sta	$dda1                   ; 0xdda1 <end_block9+0x6331>
    17cb: a4 28        	ldy	$28                     ; 0x2028 <f256main+0x17e4>
    17cd: 8c a1 dd     	sty	$dda1                   ; 0xdda1 <end_block9+0x6331>
    17d0: 8e a1 dd     	stx	$dda1                   ; 0xdda1 <end_block9+0x6331>
    17d3: a5 29        	lda	$29                     ; 0x2029 <f256main+0x17e5>
    17d5: f0 20        	beq	$17f7 <f256main+0xfb3>
    17d7: a5 2a        	lda	$2a                     ; 0x202a <f256main+0x17e6>
    17d9: 18           	clc
    17da: 69 ec        	adc	#$ec
    17dc: 48           	pha
    17dd: a0 09        	ldy	#$9
    17df: b1 10        	lda	($10),y                 ; 0x2010 <f256main+0x17cc>
    17e1: aa           	tax
    17e2: 68           	pla
    17e3: e0 00        	cpx	#$0
    17e5: f0 1d        	beq	$1804 <f256main+0xfc0>
    17e7: a6 01        	ldx	$1                      ; 0x2001 <f256main+0x17bd>
    17e9: 86 14        	stx	$14                     ; 0x2014 <f256main+0x17d0>
    17eb: a0 01        	ldy	#$1
    17ed: 84 01        	sty	$1                      ; 0x2001 <f256main+0x17bd>
    17ef: 64 12        	stz	$12                     ; 0x2012 <f256main+0x17ce>
    17f1: a2 ff        	ldx	#$ff
    17f3: 64 15        	stz	$15                     ; 0x2015 <f256main+0x17d1>
    17f5: 80 41        	bra	$1838 <f256main+0xff4>
    17f7: 64 12        	stz	$12                     ; 0x2012 <f256main+0x17ce>
    17f9: a9 00        	lda	#$0
    17fb: a0 0a        	ldy	#$a
    17fd: 91 10        	sta	($10),y                 ; 0x2010 <f256main+0x17cc>
    17ff: a5 2a        	lda	$2a                     ; 0x202a <f256main+0x17e6>
    1801: 4c 72 18     	jmp	$1872 <f256main+0x102e>
    1804: 64 12        	stz	$12                     ; 0x2012 <f256main+0x17ce>
    1806: 85 15        	sta	$15                     ; 0x2015 <f256main+0x17d1>
    1808: aa           	tax
    1809: bd 93 6e     	lda	$6e93,x                 ; 0x6e93 <textColors+0x2f>
    180c: aa           	tax
    180d: a9 00        	lda	#$0
    180f: e0 00        	cpx	#$0
    1811: f0 02        	beq	$1815 <f256main+0xfd1>
    1813: a9 01        	lda	#$1
    1815: 4a           	lsr
    1816: a9 00        	lda	#$0
    1818: 6a           	ror
    1819: 10 04        	bpl	$181f <f256main+0xfdb>
    181b: a2 ff        	ldx	#$ff
    181d: 80 02        	bra	$1821 <f256main+0xfdd>
    181f: a2 00        	ldx	#$0
    1821: 0a           	asl
    1822: 86 13        	stx	$13                     ; 0x2013 <f256main+0x17cf>
    1824: 26 13        	rol	$13                     ; 0x2013 <f256main+0x17cf>
    1826: a6 01        	ldx	$1                      ; 0x2001 <f256main+0x17bd>
    1828: 86 14        	stx	$14                     ; 0x2014 <f256main+0x17d0>
    182a: a0 01        	ldy	#$1
    182c: 84 01        	sty	$1                      ; 0x2001 <f256main+0x17bd>
    182e: a5 15        	lda	$15                     ; 0x2015 <f256main+0x17d1>
    1830: a6 13        	ldx	$13                     ; 0x2013 <f256main+0x17cf>
    1832: 5a           	phy
    1833: a4 13        	ldy	$13                     ; 0x2013 <f256main+0x17cf>
    1835: 84 15        	sty	$15                     ; 0x2015 <f256main+0x17d1>
    1837: 7a           	ply
    1838: 0a           	asl
    1839: 26 12        	rol	$12                     ; 0x2012 <f256main+0x17ce>
    183b: 0a           	asl
    183c: 85 13        	sta	$13                     ; 0x2013 <f256main+0x17cf>
    183e: 26 12        	rol	$12                     ; 0x2012 <f256main+0x17ce>
    1840: a9 00        	lda	#$0
    1842: 18           	clc
    1843: 65 13        	adc	$13                     ; 0x2013 <f256main+0x17cf>
    1845: 85 13        	sta	$13                     ; 0x2013 <f256main+0x17cf>
    1847: a9 d0        	lda	#$d0
    1849: 65 12        	adc	$12                     ; 0x2012 <f256main+0x17ce>
    184b: 5a           	phy
    184c: a4 13        	ldy	$13                     ; 0x2013 <f256main+0x17cf>
    184e: 84 12        	sty	$12                     ; 0x2012 <f256main+0x17ce>
    1850: 7a           	ply
    1851: 85 13        	sta	$13                     ; 0x2013 <f256main+0x17cf>
    1853: a5 15        	lda	$15                     ; 0x2015 <f256main+0x17d1>
    1855: 91 12        	sta	($12),y                 ; 0x2012 <f256main+0x17ce>
    1857: 8a           	txa
    1858: 92 12        	sta	($12)                   ; 0x2012 <f256main+0x17ce>
    185a: a0 02        	ldy	#$2
    185c: 91 12        	sta	($12),y                 ; 0x2012 <f256main+0x17ce>
    185e: a9 ff        	lda	#$ff
    1860: c8           	iny
    1861: 91 12        	sta	($12),y                 ; 0x2012 <f256main+0x17ce>
    1863: a6 14        	ldx	$14                     ; 0x2014 <f256main+0x17d0>
    1865: 86 01        	stx	$1                      ; 0x2001 <f256main+0x17bd>
    1867: a2 01        	ldx	#$1
    1869: 8a           	txa
    186a: a0 0a        	ldy	#$a
    186c: 91 10        	sta	($10),y                 ; 0x2010 <f256main+0x17cc>
    186e: a5 2a        	lda	$2a                     ; 0x202a <f256main+0x17e6>
    1870: 85 28        	sta	$28                     ; 0x2028 <f256main+0x17e4>
    1872: 29 f0        	and	#$f0
    1874: c9 80        	cmp	#$80
    1876: f0 11        	beq	$1889 <f256main+0x1045>
    1878: a2 00        	ldx	#$0
    187a: c9 90        	cmp	#$90
    187c: d0 1b        	bne	$1899 <f256main+0x1055>
    187e: a9 90        	lda	#$90
    1880: 05 66        	ora	$66                     ; 0x2066 <f256main+0x1822>
    1882: 85 2a        	sta	$2a                     ; 0x202a <f256main+0x17e6>
    1884: a2 01        	ldx	#$1
    1886: 8a           	txa
    1887: 80 0c        	bra	$1895 <f256main+0x1051>
    1889: a9 80        	lda	#$80
    188b: 05 66        	ora	$66                     ; 0x2066 <f256main+0x1822>
    188d: 85 2a        	sta	$2a                     ; 0x202a <f256main+0x17e6>
    188f: a2 01        	ldx	#$1
    1891: 64 12        	stz	$12                     ; 0x2012 <f256main+0x17ce>
    1893: a9 00        	lda	#$0
    1895: a0 09        	ldy	#$9
    1897: 91 10        	sta	($10),y                 ; 0x2010 <f256main+0x17cc>
    1899: 86 29        	stx	$29                     ; 0x2029 <f256main+0x17e5>
    189b: a6 2a        	ldx	$2a                     ; 0x202a <f256main+0x17e6>
    189d: 8e a1 dd     	stx	$dda1                   ; 0xdda1 <end_block9+0x6331>
    18a0: a6 2e        	ldx	$2e                     ; 0x202e <f256main+0x17ea>
    18a2: e8           	inx
    18a3: a0 00        	ldy	#$0
    18a5: c4 2d        	cpy	$2d                     ; 0x202d <f256main+0x17e9>
    18a7: d0 09        	bne	$18b2 <f256main+0x106e>
    18a9: a5 2e        	lda	$2e                     ; 0x202e <f256main+0x17ea>
    18ab: c5 24        	cmp	$24                     ; 0x2024 <f256main+0x17e0>
    18ad: b0 0a        	bcs	$18b9 <f256main+0x1075>
    18af: 4c 3a 17     	jmp	$173a <f256main+0xef6>
    18b2: c4 2d        	cpy	$2d                     ; 0x202d <f256main+0x17e9>
    18b4: b0 03        	bcs	$18b9 <f256main+0x1075>
    18b6: 4c 3a 17     	jmp	$173a <f256main+0xef6>
    18b9: 64 46        	stz	$46                     ; 0x2046 <f256main+0x1802>
    18bb: 20 00 ff     	jsr	$ff00 <end_block9+0x8490>
    18be: 92 26        	sta	($26)                   ; 0x2026 <f256main+0x17e2>
    18c0: a9 00        	lda	#$0
    18c2: 6a           	ror
    18c3: 85 16        	sta	$16                     ; 0x2016 <f256main+0x17d2>
    18c5: a4 46        	ldy	$46                     ; 0x2046 <f256main+0x1802>
    18c7: c0 08        	cpy	#$8
    18c9: d0 03        	bne	$18ce <f256main+0x108a>
    18cb: 4c 6c 19     	jmp	$196c <f256main+0x1128>
    18ce: c0 0a        	cpy	#$a
    18d0: d0 03        	bne	$18d5 <f256main+0x1091>
    18d2: 4c 4a 19     	jmp	$194a <f256main+0x1106>
    18d5: a6 2c        	ldx	$2c                     ; 0x202c <f256main+0x17e8>
    18d7: 5a           	phy
    18d8: 8a           	txa
    18d9: a0 0c        	ldy	#$c
    18db: 91 10        	sta	($10),y                 ; 0x2010 <f256main+0x17cc>
    18dd: a6 2b        	ldx	$2b                     ; 0x202b <f256main+0x17e7>
    18df: 8a           	txa
    18e0: 88           	dey
    18e1: 91 10        	sta	($10),y                 ; 0x2010 <f256main+0x17cc>
    18e3: 7a           	ply
    18e4: c0 52        	cpy	#$52
    18e6: f0 03        	beq	$18eb <f256main+0x10a7>
    18e8: 4c c7 16     	jmp	$16c7 <f256main+0xe83>
    18eb: a4 4a        	ldy	$4a                     ; 0x204a <f256main+0x1806>
    18ed: c0 64        	cpy	#$64
    18ef: a6 2c        	ldx	$2c                     ; 0x202c <f256main+0x17e8>
    18f1: 5a           	phy
    18f2: 8a           	txa
    18f3: a0 0c        	ldy	#$c
    18f5: 91 10        	sta	($10),y                 ; 0x2010 <f256main+0x17cc>
    18f7: a6 2b        	ldx	$2b                     ; 0x202b <f256main+0x17e7>
    18f9: 8a           	txa
    18fa: 88           	dey
    18fb: 91 10        	sta	($10),y                 ; 0x2010 <f256main+0x17cc>
    18fd: 7a           	ply
    18fe: 90 03        	bcc	$1903 <f256main+0x10bf>
    1900: 4c c7 16     	jmp	$16c7 <f256main+0xe83>
    1903: 98           	tya
    1904: 0a           	asl
    1905: a6 2c        	ldx	$2c                     ; 0x202c <f256main+0x17e8>
    1907: 48           	pha
    1908: 5a           	phy
    1909: 8a           	txa
    190a: a0 0c        	ldy	#$c
    190c: 91 10        	sta	($10),y                 ; 0x2010 <f256main+0x17cc>
    190e: a6 2b        	ldx	$2b                     ; 0x202b <f256main+0x17e7>
    1910: 8a           	txa
    1911: 88           	dey
    1912: 91 10        	sta	($10),y                 ; 0x2010 <f256main+0x17cc>
    1914: 7a           	ply
    1915: 68           	pla
    1916: aa           	tax
    1917: 7c 5a 6d     	jmp	($6d5a,x)               ; 0x6d5a <__set_v+0x17>
    191a: a0 08        	ldy	#$8
    191c: b1 10        	lda	($10),y                 ; 0x2010 <f256main+0x17cc>
    191e: aa           	tax
    191f: ca           	dex
    1920: 8a           	txa
    1921: 91 10        	sta	($10),y                 ; 0x2010 <f256main+0x17cc>
    1923: a6 2c        	ldx	$2c                     ; 0x202c <f256main+0x17e8>
    1925: 8a           	txa
    1926: a0 0c        	ldy	#$c
    1928: 91 10        	sta	($10),y                 ; 0x2010 <f256main+0x17cc>
    192a: a6 2b        	ldx	$2b                     ; 0x202b <f256main+0x17e7>
    192c: 8a           	txa
    192d: 88           	dey
    192e: 91 10        	sta	($10),y                 ; 0x2010 <f256main+0x17cc>
    1930: a0 08        	ldy	#$8
    1932: b1 10        	lda	($10),y                 ; 0x2010 <f256main+0x17cc>
    1934: f0 03        	beq	$1939 <f256main+0x10f5>
    1936: 4c c7 16     	jmp	$16c7 <f256main+0xe83>
    1939: 4c 3c 1b     	jmp	$1b3c <f256main+0x12f8>
    193c: 8e a1 dd     	stx	$dda1                   ; 0xdda1 <end_block9+0x6331>
    193f: 9c a1 dd     	stz	$dda1                   ; 0xdda1 <end_block9+0x6331>
    1942: e8           	inx
    1943: e0 d0        	cpx	#$d0
    1945: d0 f5        	bne	$193c <f256main+0x10f8>
    1947: 4c 2f 23     	jmp	$232f <f256main+0x1aeb>
    194a: a4 4a        	ldy	$4a                     ; 0x204a <f256main+0x1806>
    194c: c0 01        	cpy	#$1
    194e: d0 03        	bne	$1953 <f256main+0x110f>
    1950: 4c 2c 1b     	jmp	$1b2c <f256main+0x12e8>
    1953: a6 2c        	ldx	$2c                     ; 0x202c <f256main+0x17e8>
    1955: 5a           	phy
    1956: 8a           	txa
    1957: a0 0c        	ldy	#$c
    1959: 91 10        	sta	($10),y                 ; 0x2010 <f256main+0x17cc>
    195b: a6 2b        	ldx	$2b                     ; 0x202b <f256main+0x17e7>
    195d: 8a           	txa
    195e: 88           	dey
    195f: 91 10        	sta	($10),y                 ; 0x2010 <f256main+0x17cc>
    1961: 7a           	ply
    1962: c0 05        	cpy	#$5
    1964: d0 03        	bne	$1969 <f256main+0x1125>
    1966: 4c 34 1b     	jmp	$1b34 <f256main+0x12f0>
    1969: 4c c7 16     	jmp	$16c7 <f256main+0xe83>
    196c: a5 4a        	lda	$4a                     ; 0x204a <f256main+0x1806>
    196e: a8           	tay
    196f: 38           	sec
    1970: e9 01        	sbc	#$1
    1972: 50 02        	bvc	$1976 <f256main+0x1132>
    1974: 49 80        	eor	#$80
    1976: a2 13        	ldx	#$13
    1978: 48           	pha
    1979: 5a           	phy
    197a: a0 07        	ldy	#$7
    197c: b1 10        	lda	($10),y                 ; 0x2010 <f256main+0x17cc>
    197e: 7a           	ply
    197f: 85 12        	sta	$12                     ; 0x2012 <f256main+0x17ce>
    1981: 68           	pla
    1982: 06 12        	asl	$12                     ; 0x2012 <f256main+0x17ce>
    1984: 06 12        	asl	$12                     ; 0x2012 <f256main+0x17ce>
    1986: 06 12        	asl	$12                     ; 0x2012 <f256main+0x17ce>
    1988: 5a           	phy
    1989: a4 12        	ldy	$12                     ; 0x2012 <f256main+0x17ce>
    198b: 84 24        	sty	$24                     ; 0x2024 <f256main+0x17e0>
    198d: 7a           	ply
    198e: c9 00        	cmp	#$0
    1990: 30 03        	bmi	$1995 <f256main+0x1151>
    1992: 4c f0 1a     	jmp	$1af0 <f256main+0x12ac>
    1995: 98           	tya
    1996: 38           	sec
    1997: e9 94        	sbc	#$94
    1999: 50 02        	bvc	$199d <f256main+0x1159>
    199b: 49 80        	eor	#$80
    199d: aa           	tax
    199e: 30 03        	bmi	$19a3 <f256main+0x115f>
    19a0: 4c 03 1b     	jmp	$1b03 <f256main+0x12bf>
    19a3: 98           	tya
    19a4: 38           	sec
    19a5: e9 81        	sbc	#$81
    19a7: c9 07        	cmp	#$7
    19a9: 90 03        	bcc	$19ae <f256main+0x116a>
    19ab: 4c 35 1d     	jmp	$1d35 <f256main+0x14f1>
    19ae: 0a           	asl
    19af: a6 2c        	ldx	$2c                     ; 0x202c <f256main+0x17e8>
    19b1: 48           	pha
    19b2: 8a           	txa
    19b3: a0 0c        	ldy	#$c
    19b5: 91 10        	sta	($10),y                 ; 0x2010 <f256main+0x17cc>
    19b7: a6 2b        	ldx	$2b                     ; 0x202b <f256main+0x17e7>
    19b9: 8a           	txa
    19ba: 88           	dey
    19bb: 91 10        	sta	($10),y                 ; 0x2010 <f256main+0x17cc>
    19bd: 68           	pla
    19be: aa           	tax
    19bf: 7c 44 6d     	jmp	($6d44,x)               ; 0x6d44 <__set_v+0x1>
    19c2: b1 10        	lda	($10),y                 ; 0x2010 <f256main+0x17cc>
    19c4: 85 25        	sta	$25                     ; 0x2025 <f256main+0x17e1>
    19c6: 49 80        	eor	#$80
    19c8: a2 34        	ldx	#$34
    19ca: 86 4d        	stx	$4d                     ; 0x204d <f256main+0x1809>
    19cc: 8e 14 d0     	stx	$d014                   ; 0xd014 <end_block9+0x55a4>
    19cf: 9c 15 d0     	stz	$d015                   ; 0xd015 <end_block9+0x55a5>
    19d2: 48           	pha
    19d3: a0 0b        	ldy	#$b
    19d5: b1 10        	lda	($10),y                 ; 0x2010 <f256main+0x17cc>
    19d7: aa           	tax
    19d8: 68           	pla
    19d9: 86 4e        	stx	$4e                     ; 0x204e <f256main+0x180a>
    19db: 8e 16 d0     	stx	$d016                   ; 0xd016 <end_block9+0x55a6>
    19de: 86 2a        	stx	$2a                     ; 0x202a <f256main+0x17e6>
    19e0: 9c 17 d0     	stz	$d017                   ; 0xd017 <end_block9+0x55a7>
    19e3: a6 26        	ldx	$26                     ; 0x2026 <f256main+0x17e2>
    19e5: bc 1d 79     	ldy	$791d,x                 ; 0x791d <midi_instruments+0x4>
    19e8: 84 14        	sty	$14                     ; 0x2014 <f256main+0x17d0>
    19ea: 48           	pha
    19eb: bd 1e 79     	lda	$791e,x                 ; 0x791e <midi_instruments+0x5>
    19ee: aa           	tax
    19ef: 68           	pla
    19f0: 86 15        	stx	$15                     ; 0x2015 <f256main+0x17d1>
    19f2: a6 10        	ldx	$10                     ; 0x2010 <f256main+0x17cc>
    19f4: 92 10        	sta	($10)                   ; 0x2010 <f256main+0x17cc>
    19f6: a0 01        	ldy	#$1
    19f8: a9 00        	lda	#$0
    19fa: 91 10        	sta	($10),y                 ; 0x2010 <f256main+0x17cc>
    19fc: 18           	clc
    19fd: 8a           	txa
    19fe: 69 02        	adc	#$2
    1a00: 85 12        	sta	$12                     ; 0x2012 <f256main+0x17ce>
    1a02: a5 11        	lda	$11                     ; 0x2011 <f256main+0x17cd>
    1a04: 69 00        	adc	#$0
    1a06: 85 13        	sta	$13                     ; 0x2013 <f256main+0x17cf>
    1a08: c8           	iny
    1a09: a5 14        	lda	$14                     ; 0x2014 <f256main+0x17d0>
    1a0b: 91 10        	sta	($10),y                 ; 0x2010 <f256main+0x17cc>
    1a0d: a5 15        	lda	$15                     ; 0x2015 <f256main+0x17d1>
    1a0f: 88           	dey
    1a10: 91 12        	sta	($12),y                 ; 0x2012 <f256main+0x17ce>
    1a12: a2 3f        	ldx	#$3f
    1a14: 86 12        	stx	$12                     ; 0x2012 <f256main+0x17ce>
    1a16: a2 6f        	ldx	#$6f
    1a18: 86 13        	stx	$13                     ; 0x2013 <f256main+0x17cf>
    1a1a: 20 82 42     	jsr	$4282 <printf>
    1a1d: e6 2a        	inc	$2a                     ; 0x202a <f256main+0x17e6>
    1a1f: a5 2a        	lda	$2a                     ; 0x202a <f256main+0x17e6>
    1a21: a0 0b        	ldy	#$b
    1a23: 91 10        	sta	($10),y                 ; 0x2010 <f256main+0x17cc>
    1a25: 18           	clc
    1a26: a5 26        	lda	$26                     ; 0x2026 <f256main+0x17e2>
    1a28: 69 06        	adc	#$6
    1a2a: 85 26        	sta	$26                     ; 0x2026 <f256main+0x17e2>
    1a2c: 18           	clc
    1a2d: a5 25        	lda	$25                     ; 0x2025 <f256main+0x17e1>
    1a2f: 69 03        	adc	#$3
    1a31: c8           	iny
    1a32: 91 10        	sta	($10),y                 ; 0x2010 <f256main+0x17cc>
    1a34: a0 0c        	ldy	#$c
    1a36: b1 10        	lda	($10),y                 ; 0x2010 <f256main+0x17cc>
    1a38: 85 25        	sta	$25                     ; 0x2025 <f256main+0x17e1>
    1a3a: 18           	clc
    1a3b: 69 7e        	adc	#$7e
    1a3d: a2 02        	ldx	#$2
    1a3f: 86 4d        	stx	$4d                     ; 0x204d <f256main+0x1809>
    1a41: 8e 14 d0     	stx	$d014                   ; 0xd014 <end_block9+0x55a4>
    1a44: 9c 15 d0     	stz	$d015                   ; 0xd015 <end_block9+0x55a5>
    1a47: 48           	pha
    1a48: 88           	dey
    1a49: b1 10        	lda	($10),y                 ; 0x2010 <f256main+0x17cc>
    1a4b: aa           	tax
    1a4c: 68           	pla
    1a4d: 86 4e        	stx	$4e                     ; 0x204e <f256main+0x180a>
    1a4f: 8e 16 d0     	stx	$d016                   ; 0xd016 <end_block9+0x55a6>
    1a52: 86 24        	stx	$24                     ; 0x2024 <f256main+0x17e0>
    1a54: 9c 17 d0     	stz	$d017                   ; 0xd017 <end_block9+0x55a7>
    1a57: a6 26        	ldx	$26                     ; 0x2026 <f256main+0x17e2>
    1a59: bc 19 79     	ldy	$7919,x                 ; 0x7919 <midi_instruments>
    1a5c: 84 14        	sty	$14                     ; 0x2014 <f256main+0x17d0>
    1a5e: bc 1a 79     	ldy	$791a,x                 ; 0x791a <midi_instruments+0x1>
    1a61: 84 15        	sty	$15                     ; 0x2015 <f256main+0x17d1>
    1a63: 86 2a        	stx	$2a                     ; 0x202a <f256main+0x17e6>
    1a65: a6 10        	ldx	$10                     ; 0x2010 <f256main+0x17cc>
    1a67: 92 10        	sta	($10)                   ; 0x2010 <f256main+0x17cc>
    1a69: a0 01        	ldy	#$1
    1a6b: a9 00        	lda	#$0
    1a6d: 91 10        	sta	($10),y                 ; 0x2010 <f256main+0x17cc>
    1a6f: 18           	clc
    1a70: 8a           	txa
    1a71: 69 02        	adc	#$2
    1a73: aa           	tax
    1a74: a5 11        	lda	$11                     ; 0x2011 <f256main+0x17cd>
    1a76: 69 00        	adc	#$0
    1a78: 86 12        	stx	$12                     ; 0x2012 <f256main+0x17ce>
    1a7a: 85 13        	sta	$13                     ; 0x2013 <f256main+0x17cf>
    1a7c: c8           	iny
    1a7d: a5 14        	lda	$14                     ; 0x2014 <f256main+0x17d0>
    1a7f: 91 10        	sta	($10),y                 ; 0x2010 <f256main+0x17cc>
    1a81: a5 15        	lda	$15                     ; 0x2015 <f256main+0x17d1>
    1a83: 88           	dey
    1a84: 91 12        	sta	($12),y                 ; 0x2012 <f256main+0x17ce>
    1a86: a2 3f        	ldx	#$3f
    1a88: 86 12        	stx	$12                     ; 0x2012 <f256main+0x17ce>
    1a8a: a2 6f        	ldx	#$6f
    1a8c: 86 13        	stx	$13                     ; 0x2013 <f256main+0x17cf>
    1a8e: 20 82 42     	jsr	$4282 <printf>
    1a91: a2 1b        	ldx	#$1b
    1a93: 86 4d        	stx	$4d                     ; 0x204d <f256main+0x1809>
    1a95: 8e 14 d0     	stx	$d014                   ; 0xd014 <end_block9+0x55a4>
    1a98: 9c 15 d0     	stz	$d015                   ; 0xd015 <end_block9+0x55a5>
    1a9b: a6 24        	ldx	$24                     ; 0x2024 <f256main+0x17e0>
    1a9d: 86 4e        	stx	$4e                     ; 0x204e <f256main+0x180a>
    1a9f: 8e 16 d0     	stx	$d016                   ; 0xd016 <end_block9+0x55a6>
    1aa2: 9c 17 d0     	stz	$d017                   ; 0xd017 <end_block9+0x55a7>
    1aa5: a5 25        	lda	$25                     ; 0x2025 <f256main+0x17e1>
    1aa7: 18           	clc
    1aa8: 69 7f        	adc	#$7f
    1aaa: a6 2a        	ldx	$2a                     ; 0x202a <f256main+0x17e6>
    1aac: bc 1b 79     	ldy	$791b,x                 ; 0x791b <midi_instruments+0x2>
    1aaf: 84 14        	sty	$14                     ; 0x2014 <f256main+0x17d0>
    1ab1: 48           	pha
    1ab2: bd 1c 79     	lda	$791c,x                 ; 0x791c <midi_instruments+0x3>
    1ab5: aa           	tax
    1ab6: 68           	pla
    1ab7: 86 15        	stx	$15                     ; 0x2015 <f256main+0x17d1>
    1ab9: a6 10        	ldx	$10                     ; 0x2010 <f256main+0x17cc>
    1abb: 92 10        	sta	($10)                   ; 0x2010 <f256main+0x17cc>
    1abd: a0 01        	ldy	#$1
    1abf: a9 00        	lda	#$0
    1ac1: 91 10        	sta	($10),y                 ; 0x2010 <f256main+0x17cc>
    1ac3: 18           	clc
    1ac4: 8a           	txa
    1ac5: 69 02        	adc	#$2
    1ac7: 85 12        	sta	$12                     ; 0x2012 <f256main+0x17ce>
    1ac9: a5 11        	lda	$11                     ; 0x2011 <f256main+0x17cd>
    1acb: 69 00        	adc	#$0
    1acd: 85 13        	sta	$13                     ; 0x2013 <f256main+0x17cf>
    1acf: c8           	iny
    1ad0: a5 14        	lda	$14                     ; 0x2014 <f256main+0x17d0>
    1ad2: 91 10        	sta	($10),y                 ; 0x2010 <f256main+0x17cc>
    1ad4: a5 15        	lda	$15                     ; 0x2015 <f256main+0x17d1>
    1ad6: 88           	dey
    1ad7: 91 12        	sta	($12),y                 ; 0x2012 <f256main+0x17ce>
    1ad9: a2 3f        	ldx	#$3f
    1adb: 86 12        	stx	$12                     ; 0x2012 <f256main+0x17ce>
    1add: a2 6f        	ldx	#$6f
    1adf: 86 13        	stx	$13                     ; 0x2013 <f256main+0x17cf>
    1ae1: 20 82 42     	jsr	$4282 <printf>
    1ae4: a0 0c        	ldy	#$c
    1ae6: b1 10        	lda	($10),y                 ; 0x2010 <f256main+0x17cc>
    1ae8: f0 03        	beq	$1aed <f256main+0x12a9>
    1aea: 4c c2 19     	jmp	$19c2 <f256main+0x117e>
    1aed: 4c 05 29     	jmp	$2905 <f256main+0x20c1>
    1af0: 98           	tya
    1af1: 38           	sec
    1af2: e9 5b        	sbc	#$5b
    1af4: 50 03        	bvc	$1af9 <f256main+0x12b5>
    1af6: 4c 62 1b     	jmp	$1b62 <f256main+0x131e>
    1af9: c9 00        	cmp	#$0
    1afb: 30 03        	bmi	$1b00 <f256main+0x12bc>
    1afd: 4c 32 1c     	jmp	$1c32 <f256main+0x13ee>
    1b00: 4c 67 1b     	jmp	$1b67 <f256main+0x1323>
    1b03: 98           	tya
    1b04: 38           	sec
    1b05: e9 b6        	sbc	#$b6
    1b07: c9 04        	cmp	#$4
    1b09: 90 03        	bcc	$1b0e <f256main+0x12ca>
    1b0b: 4c eb 1c     	jmp	$1ceb <f256main+0x14a7>
    1b0e: 0a           	asl
    1b0f: aa           	tax
    1b10: 7c 52 6d     	jmp	($6d52,x)               ; 0x6d52 <__set_v+0xf>
    1b13: 64 12        	stz	$12                     ; 0x2012 <f256main+0x17ce>
    1b15: a9 00        	lda	#$0
    1b17: a0 0c        	ldy	#$c
    1b19: 91 10        	sta	($10),y                 ; 0x2010 <f256main+0x17cc>
    1b1b: a5 2b        	lda	$2b                     ; 0x202b <f256main+0x17e7>
    1b1d: a0 0b        	ldy	#$b
    1b1f: 91 10        	sta	($10),y                 ; 0x2010 <f256main+0x17cc>
    1b21: a2 6f        	ldx	#$6f
    1b23: 86 16        	stx	$16                     ; 0x2016 <f256main+0x17d2>
    1b25: a2 7a        	ldx	#$7a
    1b27: 86 17        	stx	$17                     ; 0x2017 <f256main+0x17d3>
    1b29: 4c c7 16     	jmp	$16c7 <f256main+0xe83>
    1b2c: 64 25        	stz	$25                     ; 0x2025 <f256main+0x17e1>
    1b2e: a9 00        	lda	#$0
    1b30: a0 07        	ldy	#$7
    1b32: 80 1f        	bra	$1b53 <f256main+0x130f>
    1b34: 64 12        	stz	$12                     ; 0x2012 <f256main+0x17ce>
    1b36: a9 00        	lda	#$0
    1b38: a0 06        	ldy	#$6
    1b3a: 80 17        	bra	$1b53 <f256main+0x130f>
    1b3c: a9 80        	lda	#$80
    1b3e: 05 66        	ora	$66                     ; 0x2066 <f256main+0x1822>
    1b40: 8d a1 dd     	sta	$dda1                   ; 0xdda1 <end_block9+0x6331>
    1b43: a6 7f        	ldx	$7f                     ; 0x207f <f256main+0x183b>
    1b45: 8e a1 dd     	stx	$dda1                   ; 0xdda1 <end_block9+0x6331>
    1b48: a2 4f        	ldx	#$4f
    1b4a: 8e a1 dd     	stx	$dda1                   ; 0xdda1 <end_block9+0x6331>
    1b4d: 64 12        	stz	$12                     ; 0x2012 <f256main+0x17ce>
    1b4f: a9 00        	lda	#$0
    1b51: a0 08        	ldy	#$8
    1b53: 91 10        	sta	($10),y                 ; 0x2010 <f256main+0x17cc>
    1b55: a5 2c        	lda	$2c                     ; 0x202c <f256main+0x17e8>
    1b57: a0 0c        	ldy	#$c
    1b59: 91 10        	sta	($10),y                 ; 0x2010 <f256main+0x17cc>
    1b5b: a5 2b        	lda	$2b                     ; 0x202b <f256main+0x17e7>
    1b5d: a0 0b        	ldy	#$b
    1b5f: 4c c5 16     	jmp	$16c5 <f256main+0xe81>
    1b62: 49 80        	eor	#$80
    1b64: 4c f9 1a     	jmp	$1af9 <f256main+0x12b5>
    1b67: c0 01        	cpy	#$1
    1b69: d0 03        	bne	$1b6e <f256main+0x132a>
    1b6b: 4c b2 21     	jmp	$21b2 <f256main+0x196e>
    1b6e: c0 05        	cpy	#$5
    1b70: d0 03        	bne	$1b75 <f256main+0x1331>
    1b72: 4c dd 20     	jmp	$20dd <f256main+0x1899>
    1b75: a6 2c        	ldx	$2c                     ; 0x202c <f256main+0x17e8>
    1b77: 5a           	phy
    1b78: 8a           	txa
    1b79: a0 0c        	ldy	#$c
    1b7b: 91 10        	sta	($10),y                 ; 0x2010 <f256main+0x17cc>
    1b7d: a6 2b        	ldx	$2b                     ; 0x202b <f256main+0x17e7>
    1b7f: 8a           	txa
    1b80: 88           	dey
    1b81: 91 10        	sta	($10),y                 ; 0x2010 <f256main+0x17cc>
    1b83: 7a           	ply
    1b84: c0 20        	cpy	#$20
    1b86: f0 03        	beq	$1b8b <f256main+0x1347>
    1b88: 4c c7 16     	jmp	$16c7 <f256main+0xe83>
    1b8b: a2 b0        	ldx	#$b0
    1b8d: 8e a1 dd     	stx	$dda1                   ; 0xdda1 <end_block9+0x6331>
    1b90: a2 7b        	ldx	#$7b
    1b92: 8e a1 dd     	stx	$dda1                   ; 0xdda1 <end_block9+0x6331>
    1b95: 9c a1 dd     	stz	$dda1                   ; 0xdda1 <end_block9+0x6331>
    1b98: a0 b1        	ldy	#$b1
    1b9a: 8c a1 dd     	sty	$dda1                   ; 0xdda1 <end_block9+0x6331>
    1b9d: 8e a1 dd     	stx	$dda1                   ; 0xdda1 <end_block9+0x6331>
    1ba0: 9c a1 dd     	stz	$dda1                   ; 0xdda1 <end_block9+0x6331>
    1ba3: a0 b9        	ldy	#$b9
    1ba5: 8c a1 dd     	sty	$dda1                   ; 0xdda1 <end_block9+0x6331>
    1ba8: 8e a1 dd     	stx	$dda1                   ; 0xdda1 <end_block9+0x6331>
    1bab: 9c a1 dd     	stz	$dda1                   ; 0xdda1 <end_block9+0x6331>
    1bae: a9 15        	lda	#$15
    1bb0: 18           	clc
    1bb1: 65 31        	adc	$31                     ; 0x2031 <f256main+0x17ed>
    1bb3: aa           	tax
    1bb4: a9 90        	lda	#$90
    1bb6: 05 66        	ora	$66                     ; 0x2066 <f256main+0x1822>
    1bb8: 8d a1 dd     	sta	$dda1                   ; 0xdda1 <end_block9+0x6331>
    1bbb: 8e a1 dd     	stx	$dda1                   ; 0xdda1 <end_block9+0x6331>
    1bbe: a2 7f        	ldx	#$7f
    1bc0: 8e a1 dd     	stx	$dda1                   ; 0xdda1 <end_block9+0x6331>
    1bc3: a6 67        	ldx	$67                     ; 0x2067 <f256main+0x1823>
    1bc5: f0 12        	beq	$1bd9 <f256main+0x1395>
    1bc7: a9 15        	lda	#$15
    1bc9: 18           	clc
    1bca: 65 31        	adc	$31                     ; 0x2031 <f256main+0x17ed>
    1bcc: a2 91        	ldx	#$91
    1bce: 8e a1 dd     	stx	$dda1                   ; 0xdda1 <end_block9+0x6331>
    1bd1: 8d a1 dd     	sta	$dda1                   ; 0xdda1 <end_block9+0x6331>
    1bd4: a2 4f        	ldx	#$4f
    1bd6: 8e a1 dd     	stx	$dda1                   ; 0xdda1 <end_block9+0x6331>
    1bd9: a5 31        	lda	$31                     ; 0x2031 <f256main+0x17ed>
    1bdb: a6 32        	ldx	$32                     ; 0x2032 <f256main+0x17ee>
    1bdd: 86 12        	stx	$12                     ; 0x2012 <f256main+0x17ce>
    1bdf: 18           	clc
    1be0: 69 15        	adc	#$15
    1be2: aa           	tax
    1be3: a5 12        	lda	$12                     ; 0x2012 <f256main+0x17ce>
    1be5: 69 00        	adc	#$0
    1be7: 86 7f        	stx	$7f                     ; 0x207f <f256main+0x183b>
    1be9: 85 80        	sta	$80                     ; 0x2080 <f256main+0x183c>
    1beb: a0 08        	ldy	#$8
    1bed: b1 10        	lda	($10),y                 ; 0x2010 <f256main+0x17cc>
    1bef: a8           	tay
    1bf0: 18           	clc
    1bf1: 69 32        	adc	#$32
    1bf3: 85 7b        	sta	$7b                     ; 0x207b <f256main+0x1837>
    1bf5: a2 80        	ldx	#$80
    1bf7: 86 f3        	stx	$f3                     ; 0x20f3 <f256main+0x18af>
    1bf9: 20 f0 ff     	jsr	$fff0 <end_block9+0x8580>
    1bfc: 92 26        	sta	($26)                   ; 0x2026 <f256main+0x17e2>
    1bfe: a9 00        	lda	#$0
    1c00: 6a           	ror
    1c01: 85 16        	sta	$16                     ; 0x2016 <f256main+0x17d2>
    1c03: a9 3c        	lda	#$3c
    1c05: 18           	clc
    1c06: 72 26        	adc	($26)                   ; 0x2026 <f256main+0x17e2>
    1c08: 85 7a        	sta	$7a                     ; 0x207a <f256main+0x1836>
    1c0a: 64 f3        	stz	$f3                     ; 0x20f3 <f256main+0x18af>
    1c0c: a6 7a        	ldx	$7a                     ; 0x207a <f256main+0x1836>
    1c0e: 86 f4        	stx	$f4                     ; 0x20f4 <f256main+0x18b0>
    1c10: a6 7b        	ldx	$7b                     ; 0x207b <f256main+0x1837>
    1c12: 86 f5        	stx	$f5                     ; 0x20f5 <f256main+0x18b1>
    1c14: c8           	iny
    1c15: 98           	tya
    1c16: a0 08        	ldy	#$8
    1c18: 91 10        	sta	($10),y                 ; 0x2010 <f256main+0x17cc>
    1c1a: a5 2c        	lda	$2c                     ; 0x202c <f256main+0x17e8>
    1c1c: a0 0c        	ldy	#$c
    1c1e: 91 10        	sta	($10),y                 ; 0x2010 <f256main+0x17cc>
    1c20: a5 2b        	lda	$2b                     ; 0x202b <f256main+0x17e7>
    1c22: 88           	dey
    1c23: 91 10        	sta	($10),y                 ; 0x2010 <f256main+0x17cc>
    1c25: 20 f0 ff     	jsr	$fff0 <end_block9+0x8580>
    1c28: 92 26        	sta	($26)                   ; 0x2026 <f256main+0x17e2>
    1c2a: a9 00        	lda	#$0
    1c2c: 6a           	ror
    1c2d: 85 16        	sta	$16                     ; 0x2016 <f256main+0x17d2>
    1c2f: 4c c7 16     	jmp	$16c7 <f256main+0xe83>
    1c32: c0 5b        	cpy	#$5b
    1c34: d0 03        	bne	$1c39 <f256main+0x13f5>
    1c36: 4c a1 22     	jmp	$22a1 <f256main+0x1a5d>
    1c39: c0 5d        	cpy	#$5d
    1c3b: d0 03        	bne	$1c40 <f256main+0x13fc>
    1c3d: 4c b8 21     	jmp	$21b8 <f256main+0x1974>
    1c40: a6 2c        	ldx	$2c                     ; 0x202c <f256main+0x17e8>
    1c42: 5a           	phy
    1c43: 8a           	txa
    1c44: a0 0c        	ldy	#$c
    1c46: 91 10        	sta	($10),y                 ; 0x2010 <f256main+0x17cc>
    1c48: a6 2b        	ldx	$2b                     ; 0x202b <f256main+0x17e7>
    1c4a: 8a           	txa
    1c4b: 88           	dey
    1c4c: 91 10        	sta	($10),y                 ; 0x2010 <f256main+0x17cc>
    1c4e: 7a           	ply
    1c4f: a2 6f        	ldx	#$6f
    1c51: 86 16        	stx	$16                     ; 0x2016 <f256main+0x17d2>
    1c53: a2 7a        	ldx	#$7a
    1c55: 86 17        	stx	$17                     ; 0x2017 <f256main+0x17d3>
    1c57: c0 78        	cpy	#$78
    1c59: f0 03        	beq	$1c5e <f256main+0x141a>
    1c5b: 4c c7 16     	jmp	$16c7 <f256main+0xe83>
    1c5e: a2 01        	ldx	#$1
    1c60: 8a           	txa
    1c61: a0 0c        	ldy	#$c
    1c63: 91 10        	sta	($10),y                 ; 0x2010 <f256main+0x17cc>
    1c65: a6 2b        	ldx	$2b                     ; 0x202b <f256main+0x17e7>
    1c67: 8a           	txa
    1c68: 88           	dey
    1c69: 91 10        	sta	($10),y                 ; 0x2010 <f256main+0x17cc>
    1c6b: a5 2c        	lda	$2c                     ; 0x202c <f256main+0x17e8>
    1c6d: f0 03        	beq	$1c72 <f256main+0x142e>
    1c6f: 4c c7 16     	jmp	$16c7 <f256main+0xe83>
    1c72: a6 67        	ldx	$67                     ; 0x2067 <f256main+0x1823>
    1c74: a0 01        	ldy	#$1
    1c76: 8a           	txa
    1c77: f0 02        	beq	$1c7b <f256main+0x1437>
    1c79: a0 00        	ldy	#$0
    1c7b: a2 00        	ldx	#$0
    1c7d: 98           	tya
    1c7e: d0 03        	bne	$1c83 <f256main+0x143f>
    1c80: 4c a8 32     	jmp	$32a8 <f256main+0x2a64>
    1c83: 84 24        	sty	$24                     ; 0x2024 <f256main+0x17e0>
    1c85: a0 01        	ldy	#$1
    1c87: 4c ac 32     	jmp	$32ac <f256main+0x2a68>
    1c8a: a5 2a        	lda	$2a                     ; 0x202a <f256main+0x17e6>
    1c8c: 18           	clc
    1c8d: 69 ec        	adc	#$ec
    1c8f: 4c 04 18     	jmp	$1804 <f256main+0xfc0>
    1c92: 84 24        	sty	$24                     ; 0x2024 <f256main+0x17e0>
    1c94: a5 51        	lda	$51                     ; 0x2051 <f256main+0x180d>
    1c96: a2 13        	ldx	#$13
    1c98: 86 12        	stx	$12                     ; 0x2012 <f256main+0x17ce>
    1c9a: 64 13        	stz	$13                     ; 0x2013 <f256main+0x17cf>
    1c9c: a2 00        	ldx	#$0
    1c9e: 20 80 51     	jsr	$5180 <__mulhi3>
    1ca1: a0 6f        	ldy	#$6f
    1ca3: 84 16        	sty	$16                     ; 0x2016 <f256main+0x17d2>
    1ca5: a0 7a        	ldy	#$7a
    1ca7: 84 17        	sty	$17                     ; 0x2017 <f256main+0x17d3>
    1ca9: 85 12        	sta	$12                     ; 0x2012 <f256main+0x17ce>
    1cab: 86 13        	stx	$13                     ; 0x2013 <f256main+0x17cf>
    1cad: a9 23        	lda	#$23
    1caf: 18           	clc
    1cb0: 65 12        	adc	$12                     ; 0x2012 <f256main+0x17ce>
    1cb2: 85 12        	sta	$12                     ; 0x2012 <f256main+0x17ce>
    1cb4: a9 7a        	lda	#$7a
    1cb6: 65 13        	adc	$13                     ; 0x2013 <f256main+0x17cf>
    1cb8: 85 18        	sta	$18                     ; 0x2018 <f256main+0x17d4>
    1cba: 85 13        	sta	$13                     ; 0x2013 <f256main+0x17cf>
    1cbc: b2 12        	lda	($12)                   ; 0x2012 <f256main+0x17ce>
    1cbe: a6 2c        	ldx	$2c                     ; 0x202c <f256main+0x17e8>
    1cc0: 48           	pha
    1cc1: 8a           	txa
    1cc2: a0 0c        	ldy	#$c
    1cc4: 91 10        	sta	($10),y                 ; 0x2010 <f256main+0x17cc>
    1cc6: a6 2b        	ldx	$2b                     ; 0x202b <f256main+0x17e7>
    1cc8: 8a           	txa
    1cc9: 88           	dey
    1cca: 91 10        	sta	($10),y                 ; 0x2010 <f256main+0x17cc>
    1ccc: 68           	pla
    1ccd: d0 03        	bne	$1cd2 <f256main+0x148e>
    1ccf: 4c c7 16     	jmp	$16c7 <f256main+0xe83>
    1cd2: a4 12        	ldy	$12                     ; 0x2012 <f256main+0x17ce>
    1cd4: 84 16        	sty	$16                     ; 0x2016 <f256main+0x17d2>
    1cd6: 18           	clc
    1cd7: a5 24        	lda	$24                     ; 0x2024 <f256main+0x17e0>
    1cd9: 69 fa        	adc	#$fa
    1cdb: 85 14        	sta	$14                     ; 0x2014 <f256main+0x17d0>
    1cdd: 64 25        	stz	$25                     ; 0x2025 <f256main+0x17e1>
    1cdf: 30 03        	bmi	$1ce4 <f256main+0x14a0>
    1ce1: 4c 71 23     	jmp	$2371 <f256main+0x1b2d>
    1ce4: a2 ff        	ldx	#$ff
    1ce6: 86 15        	stx	$15                     ; 0x2015 <f256main+0x17d1>
    1ce8: 4c 73 23     	jmp	$2373 <f256main+0x1b2f>
    1ceb: a6 2c        	ldx	$2c                     ; 0x202c <f256main+0x17e8>
    1ced: 5a           	phy
    1cee: 8a           	txa
    1cef: a0 0c        	ldy	#$c
    1cf1: 91 10        	sta	($10),y                 ; 0x2010 <f256main+0x17cc>
    1cf3: a6 2b        	ldx	$2b                     ; 0x202b <f256main+0x17e7>
    1cf5: 8a           	txa
    1cf6: 88           	dey
    1cf7: 91 10        	sta	($10),y                 ; 0x2010 <f256main+0x17cc>
    1cf9: 7a           	ply
    1cfa: c0 94        	cpy	#$94
    1cfc: f0 03        	beq	$1d01 <f256main+0x14bd>
    1cfe: 4c c7 16     	jmp	$16c7 <f256main+0xe83>
    1d01: 64 12        	stz	$12                     ; 0x2012 <f256main+0x17ce>
    1d03: a9 00        	lda	#$0
    1d05: a0 0c        	ldy	#$c
    1d07: 91 10        	sta	($10),y                 ; 0x2010 <f256main+0x17cc>
    1d09: a6 2b        	ldx	$2b                     ; 0x202b <f256main+0x17e7>
    1d0b: 8a           	txa
    1d0c: 88           	dey
    1d0d: 91 10        	sta	($10),y                 ; 0x2010 <f256main+0x17cc>
    1d0f: a5 2c        	lda	$2c                     ; 0x202c <f256main+0x17e8>
    1d11: d0 03        	bne	$1d16 <f256main+0x14d2>
    1d13: 4c c7 16     	jmp	$16c7 <f256main+0xe83>
    1d16: a2 02        	ldx	#$2
    1d18: 86 01        	stx	$1                      ; 0x2001 <f256main+0x17bd>
    1d1a: a2 c0        	ldx	#$c0
    1d1c: a0 00        	ldy	#$0
    1d1e: a9 20        	lda	#$20
    1d20: 84 12        	sty	$12                     ; 0x2012 <f256main+0x17ce>
    1d22: 86 13        	stx	$13                     ; 0x2013 <f256main+0x17cf>
    1d24: 92 12        	sta	($12)                   ; 0x2012 <f256main+0x17ce>
    1d26: c8           	iny
    1d27: d0 01        	bne	$1d2a <f256main+0x14e6>
    1d29: e8           	inx
    1d2a: e0 d2        	cpx	#$d2
    1d2c: d0 f2        	bne	$1d20 <f256main+0x14dc>
    1d2e: c0 c0        	cpy	#$c0
    1d30: d0 ee        	bne	$1d20 <f256main+0x14dc>
    1d32: 4c a9 20     	jmp	$20a9 <f256main+0x1865>
    1d35: 5a           	phy
    1d36: a5 2c        	lda	$2c                     ; 0x202c <f256main+0x17e8>
    1d38: a0 0c        	ldy	#$c
    1d3a: 91 10        	sta	($10),y                 ; 0x2010 <f256main+0x17cc>
    1d3c: a6 2b        	ldx	$2b                     ; 0x202b <f256main+0x17e7>
    1d3e: 8a           	txa
    1d3f: 88           	dey
    1d40: 91 10        	sta	($10),y                 ; 0x2010 <f256main+0x17cc>
    1d42: 7a           	ply
    1d43: c0 92        	cpy	#$92
    1d45: f0 03        	beq	$1d4a <f256main+0x1506>
    1d47: 4c c7 16     	jmp	$16c7 <f256main+0xe83>
    1d4a: a2 c0        	ldx	#$c0
    1d4c: 4c 3c 19     	jmp	$193c <f256main+0x10f8>
    1d4f: a2 01        	ldx	#$1
    1d51: 8a           	txa
    1d52: a0 0c        	ldy	#$c
    1d54: 91 10        	sta	($10),y                 ; 0x2010 <f256main+0x17cc>
    1d56: a6 2b        	ldx	$2b                     ; 0x202b <f256main+0x17e7>
    1d58: 8a           	txa
    1d59: 88           	dey
    1d5a: 91 10        	sta	($10),y                 ; 0x2010 <f256main+0x17cc>
    1d5c: a5 2c        	lda	$2c                     ; 0x202c <f256main+0x17e8>
    1d5e: f0 03        	beq	$1d63 <f256main+0x151f>
    1d60: 4c c7 16     	jmp	$16c7 <f256main+0xe83>
    1d63: a5 51        	lda	$51                     ; 0x2051 <f256main+0x180d>
    1d65: a2 13        	ldx	#$13
    1d67: 86 12        	stx	$12                     ; 0x2012 <f256main+0x17ce>
    1d69: 64 13        	stz	$13                     ; 0x2013 <f256main+0x17cf>
    1d6b: a2 00        	ldx	#$0
    1d6d: 85 24        	sta	$24                     ; 0x2024 <f256main+0x17e0>
    1d6f: 20 80 51     	jsr	$5180 <__mulhi3>
    1d72: a0 6f        	ldy	#$6f
    1d74: 84 16        	sty	$16                     ; 0x2016 <f256main+0x17d2>
    1d76: a0 7a        	ldy	#$7a
    1d78: 84 17        	sty	$17                     ; 0x2017 <f256main+0x17d3>
    1d7a: 85 12        	sta	$12                     ; 0x2012 <f256main+0x17ce>
    1d7c: 86 13        	stx	$13                     ; 0x2013 <f256main+0x17cf>
    1d7e: a9 23        	lda	#$23
    1d80: 18           	clc
    1d81: 65 12        	adc	$12                     ; 0x2012 <f256main+0x17ce>
    1d83: 85 12        	sta	$12                     ; 0x2012 <f256main+0x17ce>
    1d85: a9 7a        	lda	#$7a
    1d87: 65 13        	adc	$13                     ; 0x2013 <f256main+0x17cf>
    1d89: 85 13        	sta	$13                     ; 0x2013 <f256main+0x17cf>
    1d8b: b2 12        	lda	($12)                   ; 0x2012 <f256main+0x17ce>
    1d8d: 64 12        	stz	$12                     ; 0x2012 <f256main+0x17ce>
    1d8f: 48           	pha
    1d90: a9 00        	lda	#$0
    1d92: a0 0c        	ldy	#$c
    1d94: 91 10        	sta	($10),y                 ; 0x2010 <f256main+0x17cc>
    1d96: a2 01        	ldx	#$1
    1d98: 8a           	txa
    1d99: 88           	dey
    1d9a: 91 10        	sta	($10),y                 ; 0x2010 <f256main+0x17cc>
    1d9c: 68           	pla
    1d9d: f0 03        	beq	$1da2 <f256main+0x155e>
    1d9f: 4c c7 16     	jmp	$16c7 <f256main+0xe83>
    1da2: a9 00        	lda	#$0
    1da4: a0 0c        	ldy	#$c
    1da6: 91 10        	sta	($10),y                 ; 0x2010 <f256main+0x17cc>
    1da8: 8a           	txa
    1da9: 88           	dey
    1daa: 91 10        	sta	($10),y                 ; 0x2010 <f256main+0x17cc>
    1dac: a5 2b        	lda	$2b                     ; 0x202b <f256main+0x17e7>
    1dae: f0 03        	beq	$1db3 <f256main+0x156f>
    1db0: 4c c7 16     	jmp	$16c7 <f256main+0xe83>
    1db3: a6 24        	ldx	$24                     ; 0x2024 <f256main+0x17e0>
    1db5: e8           	inx
    1db6: e0 04        	cpx	#$4
    1db8: d0 02        	bne	$1dbc <f256main+0x1578>
    1dba: a2 00        	ldx	#$0
    1dbc: 86 51        	stx	$51                     ; 0x2051 <f256main+0x180d>
    1dbe: 20 08 3e     	jsr	$3e08 <refreshBeatTextChoice>
    1dc1: 4c 43 2b     	jmp	$2b43 <f256main+0x22ff>
    1dc4: a2 01        	ldx	#$1
    1dc6: 8a           	txa
    1dc7: a0 0c        	ldy	#$c
    1dc9: 91 10        	sta	($10),y                 ; 0x2010 <f256main+0x17cc>
    1dcb: a6 2b        	ldx	$2b                     ; 0x202b <f256main+0x17e7>
    1dcd: 8a           	txa
    1dce: 88           	dey
    1dcf: 91 10        	sta	($10),y                 ; 0x2010 <f256main+0x17cc>
    1dd1: a5 2c        	lda	$2c                     ; 0x202c <f256main+0x17e8>
    1dd3: f0 03        	beq	$1dd8 <f256main+0x1594>
    1dd5: 4c c7 16     	jmp	$16c7 <f256main+0xe83>
    1dd8: a5 51        	lda	$51                     ; 0x2051 <f256main+0x180d>
    1dda: 64 24        	stz	$24                     ; 0x2024 <f256main+0x17e0>
    1ddc: a2 13        	ldx	#$13
    1dde: 86 12        	stx	$12                     ; 0x2012 <f256main+0x17ce>
    1de0: 64 13        	stz	$13                     ; 0x2013 <f256main+0x17cf>
    1de2: a2 00        	ldx	#$0
    1de4: 85 2a        	sta	$2a                     ; 0x202a <f256main+0x17e6>
    1de6: 20 80 51     	jsr	$5180 <__mulhi3>
    1de9: a0 6f        	ldy	#$6f
    1deb: 84 16        	sty	$16                     ; 0x2016 <f256main+0x17d2>
    1ded: a0 7a        	ldy	#$7a
    1def: 84 17        	sty	$17                     ; 0x2017 <f256main+0x17d3>
    1df1: 85 12        	sta	$12                     ; 0x2012 <f256main+0x17ce>
    1df3: 86 13        	stx	$13                     ; 0x2013 <f256main+0x17cf>
    1df5: a9 23        	lda	#$23
    1df7: 18           	clc
    1df8: 65 12        	adc	$12                     ; 0x2012 <f256main+0x17ce>
    1dfa: 85 12        	sta	$12                     ; 0x2012 <f256main+0x17ce>
    1dfc: a9 7a        	lda	#$7a
    1dfe: 65 13        	adc	$13                     ; 0x2013 <f256main+0x17cf>
    1e00: 85 13        	sta	$13                     ; 0x2013 <f256main+0x17cf>
    1e02: b2 12        	lda	($12)                   ; 0x2012 <f256main+0x17ce>
    1e04: 64 14        	stz	$14                     ; 0x2014 <f256main+0x17d0>
    1e06: 48           	pha
    1e07: a9 00        	lda	#$0
    1e09: a0 0c        	ldy	#$c
    1e0b: 91 10        	sta	($10),y                 ; 0x2010 <f256main+0x17cc>
    1e0d: a2 01        	ldx	#$1
    1e0f: 8a           	txa
    1e10: 88           	dey
    1e11: 91 10        	sta	($10),y                 ; 0x2010 <f256main+0x17cc>
    1e13: 68           	pla
    1e14: f0 03        	beq	$1e19 <f256main+0x15d5>
    1e16: 4c c7 16     	jmp	$16c7 <f256main+0xe83>
    1e19: a9 00        	lda	#$0
    1e1b: a0 0c        	ldy	#$c
    1e1d: 91 10        	sta	($10),y                 ; 0x2010 <f256main+0x17cc>
    1e1f: 8a           	txa
    1e20: 88           	dey
    1e21: 91 10        	sta	($10),y                 ; 0x2010 <f256main+0x17cc>
    1e23: a5 2b        	lda	$2b                     ; 0x202b <f256main+0x17e7>
    1e25: f0 03        	beq	$1e2a <f256main+0x15e6>
    1e27: 4c c7 16     	jmp	$16c7 <f256main+0xe83>
    1e2a: a9 01        	lda	#$1
    1e2c: 92 12        	sta	($12)                   ; 0x2012 <f256main+0x17ce>
    1e2e: a2 13        	ldx	#$13
    1e30: 86 12        	stx	$12                     ; 0x2012 <f256main+0x17ce>
    1e32: 64 13        	stz	$13                     ; 0x2013 <f256main+0x17cf>
    1e34: a2 00        	ldx	#$0
    1e36: a5 2a        	lda	$2a                     ; 0x202a <f256main+0x17e6>
    1e38: 20 80 51     	jsr	$5180 <__mulhi3>
    1e3b: 85 12        	sta	$12                     ; 0x2012 <f256main+0x17ce>
    1e3d: 86 13        	stx	$13                     ; 0x2013 <f256main+0x17cf>
    1e3f: a9 23        	lda	#$23
    1e41: 18           	clc
    1e42: 65 12        	adc	$12                     ; 0x2012 <f256main+0x17ce>
    1e44: 85 2c        	sta	$2c                     ; 0x202c <f256main+0x17e8>
    1e46: a9 7a        	lda	#$7a
    1e48: 65 13        	adc	$13                     ; 0x2013 <f256main+0x17cf>
    1e4a: 85 2d        	sta	$2d                     ; 0x202d <f256main+0x17e9>
    1e4c: a0 03        	ldy	#$3
    1e4e: b1 2c        	lda	($2c),y                 ; 0x202c <f256main+0x17e8>
    1e50: 85 45        	sta	$45                     ; 0x2045 <f256main+0x1801>
    1e52: 20 da 36     	jsr	$36da <prepTempoLUT>
    1e55: 20 3e 37     	jsr	$373e <updateTempoText>
    1e58: a2 6f        	ldx	#$6f
    1e5a: 86 16        	stx	$16                     ; 0x2016 <f256main+0x17d2>
    1e5c: a2 7a        	ldx	#$7a
    1e5e: 86 17        	stx	$17                     ; 0x2017 <f256main+0x17d3>
    1e60: a0 04        	ldy	#$4
    1e62: b1 2c        	lda	($2c),y                 ; 0x202c <f256main+0x17e8>
    1e64: 64 12        	stz	$12                     ; 0x2012 <f256main+0x17ce>
    1e66: 48           	pha
    1e67: a9 00        	lda	#$0
    1e69: a0 0c        	ldy	#$c
    1e6b: 91 10        	sta	($10),y                 ; 0x2010 <f256main+0x17cc>
    1e6d: 88           	dey
    1e6e: 91 10        	sta	($10),y                 ; 0x2010 <f256main+0x17cc>
    1e70: 68           	pla
    1e71: d0 03        	bne	$1e76 <f256main+0x1632>
    1e73: 4c c7 16     	jmp	$16c7 <f256main+0xe83>
    1e76: a2 02        	ldx	#$2
    1e78: 8a           	txa
    1e79: a0 0c        	ldy	#$c
    1e7b: 91 10        	sta	($10),y                 ; 0x2010 <f256main+0x17cc>
    1e7d: 64 2b        	stz	$2b                     ; 0x202b <f256main+0x17e7>
    1e7f: 64 2e        	stz	$2e                     ; 0x202e <f256main+0x17ea>
    1e81: 64 2f        	stz	$2f                     ; 0x202f <f256main+0x17eb>
    1e83: a2 00        	ldx	#$0
    1e85: a0 6f        	ldy	#$6f
    1e87: 84 2c        	sty	$2c                     ; 0x202c <f256main+0x17e8>
    1e89: a0 7a        	ldy	#$7a
    1e8b: 84 2d        	sty	$2d                     ; 0x202d <f256main+0x17e9>
    1e8d: a4 12        	ldy	$12                     ; 0x2012 <f256main+0x17ce>
    1e8f: 84 25        	sty	$25                     ; 0x2025 <f256main+0x17e1>
    1e91: a0 13        	ldy	#$13
    1e93: 84 12        	sty	$12                     ; 0x2012 <f256main+0x17ce>
    1e95: 64 13        	stz	$13                     ; 0x2013 <f256main+0x17cf>
    1e97: a5 2a        	lda	$2a                     ; 0x202a <f256main+0x17e6>
    1e99: 20 80 51     	jsr	$5180 <__mulhi3>
    1e9c: 85 12        	sta	$12                     ; 0x2012 <f256main+0x17ce>
    1e9e: 86 13        	stx	$13                     ; 0x2013 <f256main+0x17cf>
    1ea0: a9 23        	lda	#$23
    1ea2: 18           	clc
    1ea3: 65 12        	adc	$12                     ; 0x2012 <f256main+0x17ce>
    1ea5: aa           	tax
    1ea6: a9 7a        	lda	#$7a
    1ea8: 65 13        	adc	$13                     ; 0x2013 <f256main+0x17cf>
    1eaa: 86 12        	stx	$12                     ; 0x2012 <f256main+0x17ce>
    1eac: 85 13        	sta	$13                     ; 0x2013 <f256main+0x17cf>
    1eae: a8           	tay
    1eaf: 18           	clc
    1eb0: 8a           	txa
    1eb1: 69 07        	adc	#$7
    1eb3: 85 14        	sta	$14                     ; 0x2014 <f256main+0x17d0>
    1eb5: 98           	tya
    1eb6: 69 00        	adc	#$0
    1eb8: 85 15        	sta	$15                     ; 0x2015 <f256main+0x17d1>
    1eba: a0 07        	ldy	#$7
    1ebc: b1 12        	lda	($12),y                 ; 0x2012 <f256main+0x17ce>
    1ebe: 85 12        	sta	$12                     ; 0x2012 <f256main+0x17ce>
    1ec0: a0 01        	ldy	#$1
    1ec2: b1 14        	lda	($14),y                 ; 0x2014 <f256main+0x17d0>
    1ec4: 85 13        	sta	$13                     ; 0x2013 <f256main+0x17cf>
    1ec6: a9 00        	lda	#$0
    1ec8: a4 25        	ldy	$25                     ; 0x2025 <f256main+0x17e1>
    1eca: 91 12        	sta	($12),y                 ; 0x2012 <f256main+0x17ce>
    1ecc: a2 13        	ldx	#$13
    1ece: 86 12        	stx	$12                     ; 0x2012 <f256main+0x17ce>
    1ed0: 64 13        	stz	$13                     ; 0x2013 <f256main+0x17cf>
    1ed2: aa           	tax
    1ed3: a5 2a        	lda	$2a                     ; 0x202a <f256main+0x17e6>
    1ed5: 20 80 51     	jsr	$5180 <__mulhi3>
    1ed8: 85 12        	sta	$12                     ; 0x2012 <f256main+0x17ce>
    1eda: 86 13        	stx	$13                     ; 0x2013 <f256main+0x17cf>
    1edc: a9 23        	lda	#$23
    1ede: 18           	clc
    1edf: 65 12        	adc	$12                     ; 0x2012 <f256main+0x17ce>
    1ee1: aa           	tax
    1ee2: a9 7a        	lda	#$7a
    1ee4: 65 13        	adc	$13                     ; 0x2013 <f256main+0x17cf>
    1ee6: a8           	tay
    1ee7: 8a           	txa
    1ee8: 18           	clc
    1ee9: 69 05        	adc	#$5
    1eeb: 85 14        	sta	$14                     ; 0x2014 <f256main+0x17d0>
    1eed: 98           	tya
    1eee: 69 00        	adc	#$0
    1ef0: 86 12        	stx	$12                     ; 0x2012 <f256main+0x17ce>
    1ef2: 84 13        	sty	$13                     ; 0x2013 <f256main+0x17cf>
    1ef4: 84 17        	sty	$17                     ; 0x2017 <f256main+0x17d3>
    1ef6: 85 15        	sta	$15                     ; 0x2015 <f256main+0x17d1>
    1ef8: a0 05        	ldy	#$5
    1efa: b1 12        	lda	($12),y                 ; 0x2012 <f256main+0x17ce>
    1efc: 85 16        	sta	$16                     ; 0x2016 <f256main+0x17d2>
    1efe: a0 01        	ldy	#$1
    1f00: b1 14        	lda	($14),y                 ; 0x2014 <f256main+0x17d0>
    1f02: a4 16        	ldy	$16                     ; 0x2016 <f256main+0x17d2>
    1f04: 84 14        	sty	$14                     ; 0x2014 <f256main+0x17d0>
    1f06: 85 15        	sta	$15                     ; 0x2015 <f256main+0x17d1>
    1f08: 18           	clc
    1f09: 8a           	txa
    1f0a: 69 09        	adc	#$9
    1f0c: 85 16        	sta	$16                     ; 0x2016 <f256main+0x17d2>
    1f0e: a5 17        	lda	$17                     ; 0x2017 <f256main+0x17d3>
    1f10: 69 00        	adc	#$0
    1f12: 85 17        	sta	$17                     ; 0x2017 <f256main+0x17d3>
    1f14: a5 2b        	lda	$2b                     ; 0x202b <f256main+0x17e7>
    1f16: 18           	clc
    1f17: a0 09        	ldy	#$9
    1f19: 71 12        	adc	($12),y                 ; 0x2012 <f256main+0x17ce>
    1f1b: 85 12        	sta	$12                     ; 0x2012 <f256main+0x17ce>
    1f1d: a5 2e        	lda	$2e                     ; 0x202e <f256main+0x17ea>
    1f1f: a0 01        	ldy	#$1
    1f21: 71 16        	adc	($16),y                 ; 0x2016 <f256main+0x17d2>
    1f23: 85 13        	sta	$13                     ; 0x2013 <f256main+0x17cf>
    1f25: b2 12        	lda	($12)                   ; 0x2012 <f256main+0x17ce>
    1f27: aa           	tax
    1f28: b1 12        	lda	($12),y                 ; 0x2012 <f256main+0x17ce>
    1f2a: 86 12        	stx	$12                     ; 0x2012 <f256main+0x17ce>
    1f2c: 85 13        	sta	$13                     ; 0x2013 <f256main+0x17cf>
    1f2e: b2 12        	lda	($12)                   ; 0x2012 <f256main+0x17ce>
    1f30: 85 12        	sta	$12                     ; 0x2012 <f256main+0x17ce>
    1f32: a9 90        	lda	#$90
    1f34: a4 25        	ldy	$25                     ; 0x2025 <f256main+0x17e1>
    1f36: 11 14        	ora	($14),y                 ; 0x2014 <f256main+0x17d0>
    1f38: 8d a1 dd     	sta	$dda1                   ; 0xdda1 <end_block9+0x6331>
    1f3b: a6 12        	ldx	$12                     ; 0x2012 <f256main+0x17ce>
    1f3d: 8e a1 dd     	stx	$dda1                   ; 0xdda1 <end_block9+0x6331>
    1f40: a2 7f        	ldx	#$7f
    1f42: 8e a1 dd     	stx	$dda1                   ; 0xdda1 <end_block9+0x6331>
    1f45: a5 51        	lda	$51                     ; 0x2051 <f256main+0x180d>
    1f47: a2 13        	ldx	#$13
    1f49: 86 12        	stx	$12                     ; 0x2012 <f256main+0x17ce>
    1f4b: 64 13        	stz	$13                     ; 0x2013 <f256main+0x17cf>
    1f4d: a2 00        	ldx	#$0
    1f4f: 20 80 51     	jsr	$5180 <__mulhi3>
    1f52: 85 12        	sta	$12                     ; 0x2012 <f256main+0x17ce>
    1f54: 86 13        	stx	$13                     ; 0x2013 <f256main+0x17cf>
    1f56: a9 23        	lda	#$23
    1f58: 18           	clc
    1f59: 65 12        	adc	$12                     ; 0x2012 <f256main+0x17ce>
    1f5b: 85 12        	sta	$12                     ; 0x2012 <f256main+0x17ce>
    1f5d: a9 7a        	lda	#$7a
    1f5f: 65 13        	adc	$13                     ; 0x2013 <f256main+0x17cf>
    1f61: 85 13        	sta	$13                     ; 0x2013 <f256main+0x17cf>
    1f63: a0 02        	ldy	#$2
    1f65: b1 12        	lda	($12),y                 ; 0x2012 <f256main+0x17ce>
    1f67: 1a           	inc
    1f68: 91 12        	sta	($12),y                 ; 0x2012 <f256main+0x17ce>
    1f6a: a2 80        	ldx	#$80
    1f6c: 86 f3        	stx	$f3                     ; 0x20f3 <f256main+0x18af>
    1f6e: 20 f0 ff     	jsr	$fff0 <end_block9+0x8580>
    1f71: 92 26        	sta	($26)                   ; 0x2026 <f256main+0x17e2>
    1f73: a9 00        	lda	#$0
    1f75: 6a           	ror
    1f76: 85 2c        	sta	$2c                     ; 0x202c <f256main+0x17e8>
    1f78: b2 26        	lda	($26)                   ; 0x2026 <f256main+0x17e2>
    1f7a: 85 24        	sta	$24                     ; 0x2024 <f256main+0x17e0>
    1f7c: a5 51        	lda	$51                     ; 0x2051 <f256main+0x180d>
    1f7e: a2 13        	ldx	#$13
    1f80: 86 12        	stx	$12                     ; 0x2012 <f256main+0x17ce>
    1f82: 64 13        	stz	$13                     ; 0x2013 <f256main+0x17cf>
    1f84: a2 00        	ldx	#$0
    1f86: 20 80 51     	jsr	$5180 <__mulhi3>
    1f89: 85 12        	sta	$12                     ; 0x2012 <f256main+0x17ce>
    1f8b: 86 13        	stx	$13                     ; 0x2013 <f256main+0x17cf>
    1f8d: a9 23        	lda	#$23
    1f8f: 18           	clc
    1f90: 65 12        	adc	$12                     ; 0x2012 <f256main+0x17ce>
    1f92: 85 17        	sta	$17                     ; 0x2017 <f256main+0x17d3>
    1f94: a9 7a        	lda	#$7a
    1f96: 65 13        	adc	$13                     ; 0x2013 <f256main+0x17cf>
    1f98: 85 16        	sta	$16                     ; 0x2016 <f256main+0x17d2>
    1f9a: a5 17        	lda	$17                     ; 0x2017 <f256main+0x17d3>
    1f9c: 18           	clc
    1f9d: 69 0f        	adc	#$f
    1f9f: 85 14        	sta	$14                     ; 0x2014 <f256main+0x17d0>
    1fa1: a5 16        	lda	$16                     ; 0x2016 <f256main+0x17d2>
    1fa3: 69 00        	adc	#$0
    1fa5: a6 17        	ldx	$17                     ; 0x2017 <f256main+0x17d3>
    1fa7: 86 12        	stx	$12                     ; 0x2012 <f256main+0x17ce>
    1fa9: a6 16        	ldx	$16                     ; 0x2016 <f256main+0x17d2>
    1fab: 86 13        	stx	$13                     ; 0x2013 <f256main+0x17cf>
    1fad: 85 15        	sta	$15                     ; 0x2015 <f256main+0x17d1>
    1faf: a5 2b        	lda	$2b                     ; 0x202b <f256main+0x17e7>
    1fb1: 18           	clc
    1fb2: a0 0f        	ldy	#$f
    1fb4: 71 12        	adc	($12),y                 ; 0x2012 <f256main+0x17ce>
    1fb6: aa           	tax
    1fb7: a5 2e        	lda	$2e                     ; 0x202e <f256main+0x17ea>
    1fb9: a0 01        	ldy	#$1
    1fbb: 71 14        	adc	($14),y                 ; 0x2014 <f256main+0x17d0>
    1fbd: 86 14        	stx	$14                     ; 0x2014 <f256main+0x17d0>
    1fbf: 85 15        	sta	$15                     ; 0x2015 <f256main+0x17d1>
    1fc1: b2 14        	lda	($14)                   ; 0x2014 <f256main+0x17d0>
    1fc3: aa           	tax
    1fc4: b1 14        	lda	($14),y                 ; 0x2014 <f256main+0x17d0>
    1fc6: 86 14        	stx	$14                     ; 0x2014 <f256main+0x17d0>
    1fc8: 85 15        	sta	$15                     ; 0x2015 <f256main+0x17d1>
    1fca: b2 14        	lda	($14)                   ; 0x2014 <f256main+0x17d0>
    1fcc: aa           	tax
    1fcd: 18           	clc
    1fce: a5 24        	lda	$24                     ; 0x2024 <f256main+0x17e0>
    1fd0: 75 68        	adc	$68,x                   ; 0x2068 <f256main+0x1824>
    1fd2: 85 18        	sta	$18                     ; 0x2018 <f256main+0x17d4>
    1fd4: a6 25        	ldx	$25                     ; 0x2025 <f256main+0x17e1>
    1fd6: e8           	inx
    1fd7: 86 24        	stx	$24                     ; 0x2024 <f256main+0x17e0>
    1fd9: 18           	clc
    1fda: a5 17        	lda	$17                     ; 0x2017 <f256main+0x17d3>
    1fdc: 69 11        	adc	#$11
    1fde: 85 14        	sta	$14                     ; 0x2014 <f256main+0x17d0>
    1fe0: a5 16        	lda	$16                     ; 0x2016 <f256main+0x17d2>
    1fe2: 69 00        	adc	#$0
    1fe4: 85 15        	sta	$15                     ; 0x2015 <f256main+0x17d1>
    1fe6: 18           	clc
    1fe7: a0 0c        	ldy	#$c
    1fe9: b1 10        	lda	($10),y                 ; 0x2010 <f256main+0x17cc>
    1feb: 85 25        	sta	$25                     ; 0x2025 <f256main+0x17e1>
    1fed: a0 11        	ldy	#$11
    1fef: 71 12        	adc	($12),y                 ; 0x2012 <f256main+0x17ce>
    1ff1: 85 12        	sta	$12                     ; 0x2012 <f256main+0x17ce>
    1ff3: a5 2f        	lda	$2f                     ; 0x202f <f256main+0x17eb>
    1ff5: a0 01        	ldy	#$1
    1ff7: 71 14        	adc	($14),y                 ; 0x2014 <f256main+0x17d0>
    1ff9: a8           	tay
    1ffa: a6 12        	ldx	$12                     ; 0x2012 <f256main+0x17ce>
    1ffc: 86 16        	stx	$16                     ; 0x2016 <f256main+0x17d2>
    1ffe: 85 13        	sta	$13                     ; 0x2013 <f256main+0x17cf>
    2000: a6 12        	ldx	$12                     ; 0x2012 <f256main+0x17ce>
    2002: 86 14        	stx	$14                     ; 0x2014 <f256main+0x17d0>
    2004: 85 15        	sta	$15                     ; 0x2015 <f256main+0x17d1>
    2006: a2 ff        	ldx	#$ff
    2008: c6 14        	dec	$14                     ; 0x2014 <f256main+0x17d0>
    200a: e4 14        	cpx	$14                     ; 0x2014 <f256main+0x17d0>
    200c: d0 02        	bne	$2010 <f256main+0x17cc>
    200e: c6 15        	dec	$15                     ; 0x2015 <f256main+0x17d1>
    2010: a5 18        	lda	$18                     ; 0x2018 <f256main+0x17d4>
    2012: 92 14        	sta	($14)                   ; 0x2014 <f256main+0x17d0>
    2014: 18           	clc
    2015: a5 16        	lda	$16                     ; 0x2016 <f256main+0x17d2>
    2017: 69 fe        	adc	#$fe
    2019: 85 16        	sta	$16                     ; 0x2016 <f256main+0x17d2>
    201b: 98           	tya
    201c: 69 ff        	adc	#$ff
    201e: 85 17        	sta	$17                     ; 0x2017 <f256main+0x17d3>
    2020: b2 16        	lda	($16)                   ; 0x2016 <f256main+0x17d2>
    2022: 85 f3        	sta	$f3                     ; 0x20f3 <f256main+0x18af>
    2024: b2 14        	lda	($14)                   ; 0x2014 <f256main+0x17d0>
    2026: 85 f4        	sta	$f4                     ; 0x20f4 <f256main+0x18b0>
    2028: b2 12        	lda	($12)                   ; 0x2012 <f256main+0x17ce>
    202a: 85 f5        	sta	$f5                     ; 0x20f5 <f256main+0x18b1>
    202c: 20 f0 ff     	jsr	$fff0 <end_block9+0x8580>
    202f: 92 26        	sta	($26)                   ; 0x2026 <f256main+0x17e2>
    2031: a9 00        	lda	#$0
    2033: 6a           	ror
    2034: 85 2c        	sta	$2c                     ; 0x202c <f256main+0x17e8>
    2036: a5 51        	lda	$51                     ; 0x2051 <f256main+0x180d>
    2038: a2 13        	ldx	#$13
    203a: 86 12        	stx	$12                     ; 0x2012 <f256main+0x17ce>
    203c: 64 13        	stz	$13                     ; 0x2013 <f256main+0x17cf>
    203e: a2 00        	ldx	#$0
    2040: 85 2a        	sta	$2a                     ; 0x202a <f256main+0x17e6>
    2042: 20 80 51     	jsr	$5180 <__mulhi3>
    2045: 85 12        	sta	$12                     ; 0x2012 <f256main+0x17ce>
    2047: 86 13        	stx	$13                     ; 0x2013 <f256main+0x17cf>
    2049: a9 23        	lda	#$23
    204b: 18           	clc
    204c: 65 12        	adc	$12                     ; 0x2012 <f256main+0x17ce>
    204e: 85 12        	sta	$12                     ; 0x2012 <f256main+0x17ce>
    2050: a9 7a        	lda	#$7a
    2052: 65 13        	adc	$13                     ; 0x2013 <f256main+0x17cf>
    2054: 85 13        	sta	$13                     ; 0x2013 <f256main+0x17cf>
    2056: 18           	clc
    2057: a5 25        	lda	$25                     ; 0x2025 <f256main+0x17e1>
    2059: 69 03        	adc	#$3
    205b: a0 0c        	ldy	#$c
    205d: 91 10        	sta	($10),y                 ; 0x2010 <f256main+0x17cc>
    205f: a5 2f        	lda	$2f                     ; 0x202f <f256main+0x17eb>
    2061: 69 00        	adc	#$0
    2063: 85 2f        	sta	$2f                     ; 0x202f <f256main+0x17eb>
    2065: 18           	clc
    2066: a5 2b        	lda	$2b                     ; 0x202b <f256main+0x17e7>
    2068: 69 02        	adc	#$2
    206a: 85 2b        	sta	$2b                     ; 0x202b <f256main+0x17e7>
    206c: a5 2e        	lda	$2e                     ; 0x202e <f256main+0x17ea>
    206e: 69 00        	adc	#$0
    2070: 85 2e        	sta	$2e                     ; 0x202e <f256main+0x17ea>
    2072: a0 04        	ldy	#$4
    2074: a5 24        	lda	$24                     ; 0x2024 <f256main+0x17e0>
    2076: d1 12        	cmp	($12),y                 ; 0x2012 <f256main+0x17ce>
    2078: 64 24        	stz	$24                     ; 0x2024 <f256main+0x17e0>
    207a: a2 00        	ldx	#$0
    207c: 85 12        	sta	$12                     ; 0x2012 <f256main+0x17ce>
    207e: b0 03        	bcs	$2083 <f256main+0x183f>
    2080: 4c 8d 1e     	jmp	$1e8d <f256main+0x1649>
    2083: 4c 43 2b     	jmp	$2b43 <f256main+0x22ff>
    2086: a5 2c        	lda	$2c                     ; 0x202c <f256main+0x17e8>
    2088: d0 03        	bne	$208d <f256main+0x1849>
    208a: 4c 2c 29     	jmp	$292c <f256main+0x20e8>
    208d: a2 02        	ldx	#$2
    208f: 86 01        	stx	$1                      ; 0x2001 <f256main+0x17bd>
    2091: a2 c0        	ldx	#$c0
    2093: a0 00        	ldy	#$0
    2095: a9 20        	lda	#$20
    2097: 84 12        	sty	$12                     ; 0x2012 <f256main+0x17ce>
    2099: 86 13        	stx	$13                     ; 0x2013 <f256main+0x17cf>
    209b: 92 12        	sta	($12)                   ; 0x2012 <f256main+0x17ce>
    209d: c8           	iny
    209e: d0 01        	bne	$20a1 <f256main+0x185d>
    20a0: e8           	inx
    20a1: e0 d2        	cpx	#$d2
    20a3: d0 f2        	bne	$2097 <f256main+0x1853>
    20a5: c0 c0        	cpy	#$c0
    20a7: d0 ee        	bne	$2097 <f256main+0x1853>
    20a9: 64 01        	stz	$1                      ; 0x2001 <f256main+0x17bd>
    20ab: 4c 6b 23     	jmp	$236b <f256main+0x1b27>
    20ae: a2 01        	ldx	#$1
    20b0: 8a           	txa
    20b1: a0 0c        	ldy	#$c
    20b3: 91 10        	sta	($10),y                 ; 0x2010 <f256main+0x17cc>
    20b5: a6 2b        	ldx	$2b                     ; 0x202b <f256main+0x17e7>
    20b7: 8a           	txa
    20b8: 88           	dey
    20b9: 91 10        	sta	($10),y                 ; 0x2010 <f256main+0x17cc>
    20bb: a5 2c        	lda	$2c                     ; 0x202c <f256main+0x17e8>
    20bd: f0 03        	beq	$20c2 <f256main+0x187e>
    20bf: 4c c7 16     	jmp	$16c7 <f256main+0xe83>
    20c2: 64 67        	stz	$67                     ; 0x2067 <f256main+0x1823>
    20c4: a6 66        	ldx	$66                     ; 0x2066 <f256main+0x1822>
    20c6: 8a           	txa
    20c7: 1a           	inc
    20c8: 85 66        	sta	$66                     ; 0x2066 <f256main+0x1822>
    20ca: e0 01        	cpx	#$1
    20cc: d0 03        	bne	$20d1 <f256main+0x188d>
    20ce: 4c 24 33     	jmp	$3324 <f256main+0x2ae0>
    20d1: e0 09        	cpx	#$9
    20d3: f0 03        	beq	$20d8 <f256main+0x1894>
    20d5: 4c 28 33     	jmp	$3328 <f256main+0x2ae4>
    20d8: a2 00        	ldx	#$0
    20da: 4c 26 33     	jmp	$3326 <f256main+0x2ae2>
    20dd: a2 01        	ldx	#$1
    20df: 8a           	txa
    20e0: 4c 38 1b     	jmp	$1b38 <f256main+0x12f4>
    20e3: a0 01        	ldy	#$1
    20e5: a5 2c        	lda	$2c                     ; 0x202c <f256main+0x17e8>
    20e7: d0 03        	bne	$20ec <f256main+0x18a8>
    20e9: 4c d5 29     	jmp	$29d5 <f256main+0x2191>
    20ec: a5 66        	lda	$66                     ; 0x2066 <f256main+0x1822>
    20ee: aa           	tax
    20ef: 0a           	asl
    20f0: 85 12        	sta	$12                     ; 0x2012 <f256main+0x17ce>
    20f2: a9 00        	lda	#$0
    20f4: 2a           	rol
    20f5: 85 13        	sta	$13                     ; 0x2013 <f256main+0x17cf>
    20f7: a9 52        	lda	#$52
    20f9: 18           	clc
    20fa: 65 12        	adc	$12                     ; 0x2012 <f256main+0x17ce>
    20fc: 85 12        	sta	$12                     ; 0x2012 <f256main+0x17ce>
    20fe: a9 00        	lda	#$0
    2100: 65 13        	adc	$13                     ; 0x2013 <f256main+0x17cf>
    2102: 85 13        	sta	$13                     ; 0x2013 <f256main+0x17cf>
    2104: b2 12        	lda	($12)                   ; 0x2012 <f256main+0x17ce>
    2106: 85 14        	sta	$14                     ; 0x2014 <f256main+0x17d0>
    2108: b1 12        	lda	($12),y                 ; 0x2012 <f256main+0x17ce>
    210a: f0 03        	beq	$210f <f256main+0x18cb>
    210c: 4c ab 2b     	jmp	$2bab <f256main+0x2367>
    210f: a4 14        	ldy	$14                     ; 0x2014 <f256main+0x17d0>
    2111: c0 7f        	cpy	#$7f
    2113: b0 03        	bcs	$2118 <f256main+0x18d4>
    2115: 4c b2 2b     	jmp	$2bb2 <f256main+0x236e>
    2118: 4c 0a 2c     	jmp	$2c0a <f256main+0x23c6>
    211b: a0 01        	ldy	#$1
    211d: a5 2c        	lda	$2c                     ; 0x202c <f256main+0x17e8>
    211f: d0 03        	bne	$2124 <f256main+0x18e0>
    2121: 4c 0a 2a     	jmp	$2a0a <f256main+0x21c6>
    2124: a5 66        	lda	$66                     ; 0x2066 <f256main+0x1822>
    2126: aa           	tax
    2127: 0a           	asl
    2128: 85 12        	sta	$12                     ; 0x2012 <f256main+0x17ce>
    212a: a9 00        	lda	#$0
    212c: 2a           	rol
    212d: 85 13        	sta	$13                     ; 0x2013 <f256main+0x17cf>
    212f: a9 52        	lda	#$52
    2131: 18           	clc
    2132: 65 12        	adc	$12                     ; 0x2012 <f256main+0x17ce>
    2134: 85 12        	sta	$12                     ; 0x2012 <f256main+0x17ce>
    2136: a9 00        	lda	#$0
    2138: 65 13        	adc	$13                     ; 0x2013 <f256main+0x17cf>
    213a: 85 13        	sta	$13                     ; 0x2013 <f256main+0x17cf>
    213c: b2 12        	lda	($12)                   ; 0x2012 <f256main+0x17ce>
    213e: 85 14        	sta	$14                     ; 0x2014 <f256main+0x17d0>
    2140: b1 12        	lda	($12),y                 ; 0x2012 <f256main+0x17ce>
    2142: d0 07        	bne	$214b <f256main+0x1907>
    2144: a5 14        	lda	$14                     ; 0x2014 <f256main+0x17d0>
    2146: d0 03        	bne	$214b <f256main+0x1907>
    2148: 4c 54 33     	jmp	$3354 <f256main+0x2b10>
    214b: a9 00        	lda	#$0
    214d: 20 f7 3e     	jsr	$3ef7 <highLightInstChoice>
    2150: a5 66        	lda	$66                     ; 0x2066 <f256main+0x1822>
    2152: 0a           	asl
    2153: 85 12        	sta	$12                     ; 0x2012 <f256main+0x17ce>
    2155: a9 00        	lda	#$0
    2157: 2a           	rol
    2158: 85 13        	sta	$13                     ; 0x2013 <f256main+0x17cf>
    215a: a9 52        	lda	#$52
    215c: 18           	clc
    215d: 65 12        	adc	$12                     ; 0x2012 <f256main+0x17ce>
    215f: 85 12        	sta	$12                     ; 0x2012 <f256main+0x17ce>
    2161: a9 00        	lda	#$0
    2163: 65 13        	adc	$13                     ; 0x2013 <f256main+0x17cf>
    2165: 85 13        	sta	$13                     ; 0x2013 <f256main+0x17cf>
    2167: b2 12        	lda	($12)                   ; 0x2012 <f256main+0x17ce>
    2169: aa           	tax
    216a: a0 01        	ldy	#$1
    216c: b1 12        	lda	($12),y                 ; 0x2012 <f256main+0x17ce>
    216e: 85 14        	sta	$14                     ; 0x2014 <f256main+0x17d0>
    2170: 8a           	txa
    2171: 3a           	dec
    2172: c9 ff        	cmp	#$ff
    2174: d0 02        	bne	$2178 <f256main+0x1934>
    2176: c6 14        	dec	$14                     ; 0x2014 <f256main+0x17d0>
    2178: 92 12        	sta	($12)                   ; 0x2012 <f256main+0x17ce>
    217a: a5 14        	lda	$14                     ; 0x2014 <f256main+0x17d0>
    217c: 91 12        	sta	($12),y                 ; 0x2012 <f256main+0x17ce>
    217e: a9 01        	lda	#$1
    2180: 20 f7 3e     	jsr	$3ef7 <highLightInstChoice>
    2183: a2 6f        	ldx	#$6f
    2185: 86 16        	stx	$16                     ; 0x2016 <f256main+0x17d2>
    2187: a2 7a        	ldx	#$7a
    2189: 86 17        	stx	$17                     ; 0x2017 <f256main+0x17d3>
    218b: a5 66        	lda	$66                     ; 0x2066 <f256main+0x1822>
    218d: aa           	tax
    218e: 0a           	asl
    218f: 85 12        	sta	$12                     ; 0x2012 <f256main+0x17ce>
    2191: a9 00        	lda	#$0
    2193: 2a           	rol
    2194: 85 13        	sta	$13                     ; 0x2013 <f256main+0x17cf>
    2196: a9 52        	lda	#$52
    2198: 18           	clc
    2199: 65 12        	adc	$12                     ; 0x2012 <f256main+0x17ce>
    219b: 85 12        	sta	$12                     ; 0x2012 <f256main+0x17ce>
    219d: a9 00        	lda	#$0
    219f: 65 13        	adc	$13                     ; 0x2013 <f256main+0x17cf>
    21a1: 85 13        	sta	$13                     ; 0x2013 <f256main+0x17cf>
    21a3: b2 12        	lda	($12)                   ; 0x2012 <f256main+0x17ce>
    21a5: 85 12        	sta	$12                     ; 0x2012 <f256main+0x17ce>
    21a7: 8a           	txa
    21a8: 09 c0        	ora	#$c0
    21aa: 8d a1 dd     	sta	$dda1                   ; 0xdda1 <end_block9+0x6331>
    21ad: a6 12        	ldx	$12                     ; 0x2012 <f256main+0x17ce>
    21af: 4c 34 31     	jmp	$3134 <f256main+0x28f0>
    21b2: a2 01        	ldx	#$1
    21b4: 8a           	txa
    21b5: 4c 30 1b     	jmp	$1b30 <f256main+0x12ec>
    21b8: a5 51        	lda	$51                     ; 0x2051 <f256main+0x180d>
    21ba: 86 12        	stx	$12                     ; 0x2012 <f256main+0x17ce>
    21bc: 64 13        	stz	$13                     ; 0x2013 <f256main+0x17cf>
    21be: a2 00        	ldx	#$0
    21c0: 85 25        	sta	$25                     ; 0x2025 <f256main+0x17e1>
    21c2: 20 80 51     	jsr	$5180 <__mulhi3>
    21c5: 85 12        	sta	$12                     ; 0x2012 <f256main+0x17ce>
    21c7: 86 13        	stx	$13                     ; 0x2013 <f256main+0x17cf>
    21c9: a9 23        	lda	#$23
    21cb: 18           	clc
    21cc: 65 12        	adc	$12                     ; 0x2012 <f256main+0x17ce>
    21ce: 85 12        	sta	$12                     ; 0x2012 <f256main+0x17ce>
    21d0: a9 7a        	lda	#$7a
    21d2: 65 13        	adc	$13                     ; 0x2013 <f256main+0x17cf>
    21d4: 85 13        	sta	$13                     ; 0x2013 <f256main+0x17cf>
    21d6: b2 12        	lda	($12)                   ; 0x2012 <f256main+0x17ce>
    21d8: d0 03        	bne	$21dd <f256main+0x1999>
    21da: 4c 33 2a     	jmp	$2a33 <f256main+0x21ef>
    21dd: 18           	clc
    21de: a5 24        	lda	$24                     ; 0x2024 <f256main+0x17e0>
    21e0: 48           	pha
    21e1: a0 07        	ldy	#$7
    21e3: b1 10        	lda	($10),y                 ; 0x2010 <f256main+0x17cc>
    21e5: 85 12        	sta	$12                     ; 0x2012 <f256main+0x17ce>
    21e7: 68           	pla
    21e8: 65 12        	adc	$12                     ; 0x2012 <f256main+0x17ce>
    21ea: 18           	clc
    21eb: 65 45        	adc	$45                     ; 0x2045 <f256main+0x1801>
    21ed: 1a           	inc
    21ee: 85 45        	sta	$45                     ; 0x2045 <f256main+0x1801>
    21f0: 20 da 36     	jsr	$36da <prepTempoLUT>
    21f3: 20 3e 37     	jsr	$373e <updateTempoText>
    21f6: a2 13        	ldx	#$13
    21f8: 86 12        	stx	$12                     ; 0x2012 <f256main+0x17ce>
    21fa: 64 13        	stz	$13                     ; 0x2013 <f256main+0x17cf>
    21fc: a2 00        	ldx	#$0
    21fe: a5 25        	lda	$25                     ; 0x2025 <f256main+0x17e1>
    2200: 20 80 51     	jsr	$5180 <__mulhi3>
    2203: 85 12        	sta	$12                     ; 0x2012 <f256main+0x17ce>
    2205: 86 13        	stx	$13                     ; 0x2013 <f256main+0x17cf>
    2207: a9 23        	lda	#$23
    2209: 18           	clc
    220a: 65 12        	adc	$12                     ; 0x2012 <f256main+0x17ce>
    220c: 85 12        	sta	$12                     ; 0x2012 <f256main+0x17ce>
    220e: a9 7a        	lda	#$7a
    2210: 65 13        	adc	$13                     ; 0x2013 <f256main+0x17cf>
    2212: 85 13        	sta	$13                     ; 0x2013 <f256main+0x17cf>
    2214: a0 01        	ldy	#$1
    2216: 98           	tya
    2217: 91 12        	sta	($12),y                 ; 0x2012 <f256main+0x17ce>
    2219: a5 2c        	lda	$2c                     ; 0x202c <f256main+0x17e8>
    221b: a0 0c        	ldy	#$c
    221d: 91 10        	sta	($10),y                 ; 0x2010 <f256main+0x17cc>
    221f: a2 01        	ldx	#$1
    2221: 8a           	txa
    2222: 4c 1d 1b     	jmp	$1b1d <f256main+0x12d9>
    2225: a5 66        	lda	$66                     ; 0x2066 <f256main+0x1822>
    2227: 85 1a        	sta	$1a                     ; 0x201a <f256main+0x17d6>
    2229: 0a           	asl
    222a: 85 12        	sta	$12                     ; 0x2012 <f256main+0x17ce>
    222c: a9 00        	lda	#$0
    222e: 2a           	rol
    222f: 85 13        	sta	$13                     ; 0x2013 <f256main+0x17cf>
    2231: a9 52        	lda	#$52
    2233: 18           	clc
    2234: 65 12        	adc	$12                     ; 0x2012 <f256main+0x17ce>
    2236: 85 14        	sta	$14                     ; 0x2014 <f256main+0x17d0>
    2238: a9 00        	lda	#$0
    223a: 65 13        	adc	$13                     ; 0x2013 <f256main+0x17cf>
    223c: 85 15        	sta	$15                     ; 0x2015 <f256main+0x17d1>
    223e: b2 14        	lda	($14)                   ; 0x2014 <f256main+0x17d0>
    2240: aa           	tax
    2241: 85 12        	sta	$12                     ; 0x2012 <f256main+0x17ce>
    2243: a0 01        	ldy	#$1
    2245: b1 14        	lda	($14),y                 ; 0x2014 <f256main+0x17d0>
    2247: 85 13        	sta	$13                     ; 0x2013 <f256main+0x17cf>
    2249: e6 2c        	inc	$2c                     ; 0x202c <f256main+0x17e8>
    224b: c6 2c        	dec	$2c                     ; 0x202c <f256main+0x17e8>
    224d: d0 03        	bne	$2252 <f256main+0x1a0e>
    224f: 4c 50 2b     	jmp	$2b50 <f256main+0x230c>
    2252: a2 00        	ldx	#$0
    2254: a0 07        	ldy	#$7
    2256: b1 10        	lda	($10),y                 ; 0x2010 <f256main+0x17cc>
    2258: d0 03        	bne	$225d <f256main+0x1a19>
    225a: 4c 22 30     	jmp	$3022 <f256main+0x27de>
    225d: a0 1d        	ldy	#$1d
    225f: 4c 24 30     	jmp	$3024 <f256main+0x27e0>
    2262: a5 66        	lda	$66                     ; 0x2066 <f256main+0x1822>
    2264: 85 18        	sta	$18                     ; 0x2018 <f256main+0x17d4>
    2266: 0a           	asl
    2267: 85 12        	sta	$12                     ; 0x2012 <f256main+0x17ce>
    2269: a9 00        	lda	#$0
    226b: 2a           	rol
    226c: 85 13        	sta	$13                     ; 0x2013 <f256main+0x17cf>
    226e: a9 52        	lda	#$52
    2270: 18           	clc
    2271: 65 12        	adc	$12                     ; 0x2012 <f256main+0x17ce>
    2273: 85 12        	sta	$12                     ; 0x2012 <f256main+0x17ce>
    2275: a9 00        	lda	#$0
    2277: 65 13        	adc	$13                     ; 0x2013 <f256main+0x17cf>
    2279: 85 13        	sta	$13                     ; 0x2013 <f256main+0x17cf>
    227b: b2 12        	lda	($12)                   ; 0x2012 <f256main+0x17ce>
    227d: 85 19        	sta	$19                     ; 0x2019 <f256main+0x17d5>
    227f: a0 01        	ldy	#$1
    2281: b1 12        	lda	($12),y                 ; 0x2012 <f256main+0x17ce>
    2283: a6 2c        	ldx	$2c                     ; 0x202c <f256main+0x17e8>
    2285: d0 03        	bne	$228a <f256main+0x1a46>
    2287: 4c 7d 2b     	jmp	$2b7d <f256main+0x2339>
    228a: a4 19        	ldy	$19                     ; 0x2019 <f256main+0x17d5>
    228c: 85 19        	sta	$19                     ; 0x2019 <f256main+0x17d5>
    228e: 64 12        	stz	$12                     ; 0x2012 <f256main+0x17ce>
    2290: 5a           	phy
    2291: a0 07        	ldy	#$7
    2293: b1 10        	lda	($10),y                 ; 0x2010 <f256main+0x17cc>
    2295: 7a           	ply
    2296: aa           	tax
    2297: d0 03        	bne	$229c <f256main+0x1a58>
    2299: 4c ad 30     	jmp	$30ad <f256main+0x2869>
    229c: a2 62        	ldx	#$62
    229e: 4c af 30     	jmp	$30af <f256main+0x286b>
    22a1: a5 51        	lda	$51                     ; 0x2051 <f256main+0x180d>
    22a3: 86 12        	stx	$12                     ; 0x2012 <f256main+0x17ce>
    22a5: 64 13        	stz	$13                     ; 0x2013 <f256main+0x17cf>
    22a7: a2 00        	ldx	#$0
    22a9: 85 25        	sta	$25                     ; 0x2025 <f256main+0x17e1>
    22ab: 20 80 51     	jsr	$5180 <__mulhi3>
    22ae: 85 12        	sta	$12                     ; 0x2012 <f256main+0x17ce>
    22b0: 86 13        	stx	$13                     ; 0x2013 <f256main+0x17cf>
    22b2: a9 23        	lda	#$23
    22b4: 18           	clc
    22b5: 65 12        	adc	$12                     ; 0x2012 <f256main+0x17ce>
    22b7: 85 12        	sta	$12                     ; 0x2012 <f256main+0x17ce>
    22b9: a9 7a        	lda	#$7a
    22bb: 65 13        	adc	$13                     ; 0x2013 <f256main+0x17cf>
    22bd: 85 13        	sta	$13                     ; 0x2013 <f256main+0x17cf>
    22bf: b2 12        	lda	($12)                   ; 0x2012 <f256main+0x17ce>
    22c1: a6 2c        	ldx	$2c                     ; 0x202c <f256main+0x17e8>
    22c3: 48           	pha
    22c4: 8a           	txa
    22c5: a0 0c        	ldy	#$c
    22c7: 91 10        	sta	($10),y                 ; 0x2010 <f256main+0x17cc>
    22c9: a2 01        	ldx	#$1
    22cb: 8a           	txa
    22cc: 88           	dey
    22cd: 91 10        	sta	($10),y                 ; 0x2010 <f256main+0x17cc>
    22cf: 68           	pla
    22d0: a2 6f        	ldx	#$6f
    22d2: 86 16        	stx	$16                     ; 0x2016 <f256main+0x17d2>
    22d4: a2 7a        	ldx	#$7a
    22d6: 86 17        	stx	$17                     ; 0x2017 <f256main+0x17d3>
    22d8: aa           	tax
    22d9: d0 03        	bne	$22de <f256main+0x1a9a>
    22db: 4c c7 16     	jmp	$16c7 <f256main+0xe83>
    22de: 18           	clc
    22df: a5 24        	lda	$24                     ; 0x2024 <f256main+0x17e0>
    22e1: 48           	pha
    22e2: a0 07        	ldy	#$7
    22e4: b1 10        	lda	($10),y                 ; 0x2010 <f256main+0x17cc>
    22e6: 85 12        	sta	$12                     ; 0x2012 <f256main+0x17ce>
    22e8: 68           	pla
    22e9: 65 12        	adc	$12                     ; 0x2012 <f256main+0x17ce>
    22eb: 49 ff        	eor	#$ff
    22ed: 18           	clc
    22ee: 65 45        	adc	$45                     ; 0x2045 <f256main+0x1801>
    22f0: 85 45        	sta	$45                     ; 0x2045 <f256main+0x1801>
    22f2: 20 da 36     	jsr	$36da <prepTempoLUT>
    22f5: 20 3e 37     	jsr	$373e <updateTempoText>
    22f8: a2 13        	ldx	#$13
    22fa: 86 12        	stx	$12                     ; 0x2012 <f256main+0x17ce>
    22fc: 64 13        	stz	$13                     ; 0x2013 <f256main+0x17cf>
    22fe: a2 00        	ldx	#$0
    2300: a5 25        	lda	$25                     ; 0x2025 <f256main+0x17e1>
    2302: 20 80 51     	jsr	$5180 <__mulhi3>
    2305: a0 6f        	ldy	#$6f
    2307: 84 16        	sty	$16                     ; 0x2016 <f256main+0x17d2>
    2309: a0 7a        	ldy	#$7a
    230b: 84 17        	sty	$17                     ; 0x2017 <f256main+0x17d3>
    230d: 85 12        	sta	$12                     ; 0x2012 <f256main+0x17ce>
    230f: 86 13        	stx	$13                     ; 0x2013 <f256main+0x17cf>
    2311: a9 23        	lda	#$23
    2313: 18           	clc
    2314: 65 12        	adc	$12                     ; 0x2012 <f256main+0x17ce>
    2316: 85 12        	sta	$12                     ; 0x2012 <f256main+0x17ce>
    2318: a9 7a        	lda	#$7a
    231a: 65 13        	adc	$13                     ; 0x2013 <f256main+0x17cf>
    231c: 85 13        	sta	$13                     ; 0x2013 <f256main+0x17cf>
    231e: a0 01        	ldy	#$1
    2320: 98           	tya
    2321: 91 12        	sta	($12),y                 ; 0x2012 <f256main+0x17ce>
    2323: a5 2c        	lda	$2c                     ; 0x202c <f256main+0x17e8>
    2325: a0 0c        	ldy	#$c
    2327: 91 10        	sta	($10),y                 ; 0x2010 <f256main+0x17cc>
    2329: a2 01        	ldx	#$1
    232b: 8a           	txa
    232c: 4c 5d 1b     	jmp	$1b5d <f256main+0x1319>
    232f: a2 ff        	ldx	#$ff
    2331: 8e a1 dd     	stx	$dda1                   ; 0xdda1 <end_block9+0x6331>
    2334: a2 c2        	ldx	#$c2
    2336: 8e a1 dd     	stx	$dda1                   ; 0xdda1 <end_block9+0x6331>
    2339: a2 73        	ldx	#$73
    233b: 8e a1 dd     	stx	$dda1                   ; 0xdda1 <end_block9+0x6331>
    233e: a2 00        	ldx	#$0
    2340: 64 52        	stz	$52                     ; 0x2052 <f256main+0x180e>
    2342: 64 53        	stz	$53                     ; 0x2053 <f256main+0x180f>
    2344: 64 54        	stz	$54                     ; 0x2054 <f256main+0x1810>
    2346: 64 55        	stz	$55                     ; 0x2055 <f256main+0x1811>
    2348: 64 64        	stz	$64                     ; 0x2064 <f256main+0x1820>
    234a: 64 65        	stz	$65                     ; 0x2065 <f256main+0x1821>
    234c: a0 02        	ldy	#$2
    234e: 84 01        	sty	$1                      ; 0x2001 <f256main+0x17bd>
    2350: a0 c0        	ldy	#$c0
    2352: a9 20        	lda	#$20
    2354: 86 12        	stx	$12                     ; 0x2012 <f256main+0x17ce>
    2356: 84 13        	sty	$13                     ; 0x2013 <f256main+0x17cf>
    2358: 92 12        	sta	($12)                   ; 0x2012 <f256main+0x17ce>
    235a: e8           	inx
    235b: d0 01        	bne	$235e <f256main+0x1b1a>
    235d: c8           	iny
    235e: c0 d2        	cpy	#$d2
    2360: d0 f2        	bne	$2354 <f256main+0x1b10>
    2362: e0 c0        	cpx	#$c0
    2364: d0 ee        	bne	$2354 <f256main+0x1b10>
    2366: 64 01        	stz	$1                      ; 0x2001 <f256main+0x17bd>
    2368: 20 11 3a     	jsr	$3a11 <refreshInstrumentText>
    236b: 20 96 37     	jsr	$3796 <textTitle>
    236e: 4c 13 1b     	jmp	$1b13 <f256main+0x12cf>
    2371: 64 15        	stz	$15                     ; 0x2015 <f256main+0x17d1>
    2373: a9 19        	lda	#$19
    2375: 18           	clc
    2376: 65 14        	adc	$14                     ; 0x2014 <f256main+0x17d0>
    2378: 85 14        	sta	$14                     ; 0x2014 <f256main+0x17d0>
    237a: a9 7a        	lda	#$7a
    237c: 65 15        	adc	$15                     ; 0x2015 <f256main+0x17d1>
    237e: 85 15        	sta	$15                     ; 0x2015 <f256main+0x17d1>
    2380: 18           	clc
    2381: a5 24        	lda	$24                     ; 0x2024 <f256main+0x17e0>
    2383: 72 14        	adc	($14)                   ; 0x2014 <f256main+0x17d0>
    2385: 85 2d        	sta	$2d                     ; 0x202d <f256main+0x17e9>
    2387: 98           	tya
    2388: 84 19        	sty	$19                     ; 0x2019 <f256main+0x17d5>
    238a: 18           	clc
    238b: 69 05        	adc	#$5
    238d: 85 14        	sta	$14                     ; 0x2014 <f256main+0x17d0>
    238f: a5 18        	lda	$18                     ; 0x2018 <f256main+0x17d4>
    2391: 69 00        	adc	#$0
    2393: 85 15        	sta	$15                     ; 0x2015 <f256main+0x17d1>
    2395: a0 05        	ldy	#$5
    2397: b1 12        	lda	($12),y                 ; 0x2012 <f256main+0x17ce>
    2399: aa           	tax
    239a: a5 16        	lda	$16                     ; 0x2016 <f256main+0x17d2>
    239c: 18           	clc
    239d: 69 09        	adc	#$9
    239f: 85 16        	sta	$16                     ; 0x2016 <f256main+0x17d2>
    23a1: a5 18        	lda	$18                     ; 0x2018 <f256main+0x17d4>
    23a3: 69 00        	adc	#$0
    23a5: 85 17        	sta	$17                     ; 0x2017 <f256main+0x17d3>
    23a7: a4 2d        	ldy	$2d                     ; 0x202d <f256main+0x17e9>
    23a9: 84 2e        	sty	$2e                     ; 0x202e <f256main+0x17ea>
    23ab: 06 2e        	asl	$2e                     ; 0x202e <f256main+0x17ea>
    23ad: 64 2f        	stz	$2f                     ; 0x202f <f256main+0x17eb>
    23af: 26 2f        	rol	$2f                     ; 0x202f <f256main+0x17eb>
    23b1: a0 01        	ldy	#$1
    23b3: b1 14        	lda	($14),y                 ; 0x2014 <f256main+0x17d0>
    23b5: 85 1a        	sta	$1a                     ; 0x201a <f256main+0x17d6>
    23b7: 18           	clc
    23b8: a5 2e        	lda	$2e                     ; 0x202e <f256main+0x17ea>
    23ba: a0 09        	ldy	#$9
    23bc: 71 12        	adc	($12),y                 ; 0x2012 <f256main+0x17ce>
    23be: 85 14        	sta	$14                     ; 0x2014 <f256main+0x17d0>
    23c0: a5 2f        	lda	$2f                     ; 0x202f <f256main+0x17eb>
    23c2: a0 01        	ldy	#$1
    23c4: 71 16        	adc	($16),y                 ; 0x2016 <f256main+0x17d2>
    23c6: 85 15        	sta	$15                     ; 0x2015 <f256main+0x17d1>
    23c8: b2 14        	lda	($14)                   ; 0x2014 <f256main+0x17d0>
    23ca: 85 16        	sta	$16                     ; 0x2016 <f256main+0x17d2>
    23cc: b1 14        	lda	($14),y                 ; 0x2014 <f256main+0x17d0>
    23ce: 85 17        	sta	$17                     ; 0x2017 <f256main+0x17d3>
    23d0: 18           	clc
    23d1: a5 19        	lda	$19                     ; 0x2019 <f256main+0x17d5>
    23d3: 69 07        	adc	#$7
    23d5: 85 14        	sta	$14                     ; 0x2014 <f256main+0x17d0>
    23d7: a5 18        	lda	$18                     ; 0x2018 <f256main+0x17d4>
    23d9: 69 00        	adc	#$0
    23db: 85 15        	sta	$15                     ; 0x2015 <f256main+0x17d1>
    23dd: a0 07        	ldy	#$7
    23df: b1 12        	lda	($12),y                 ; 0x2012 <f256main+0x17ce>
    23e1: 85 12        	sta	$12                     ; 0x2012 <f256main+0x17ce>
    23e3: a0 01        	ldy	#$1
    23e5: b1 14        	lda	($14),y                 ; 0x2014 <f256main+0x17d0>
    23e7: 85 13        	sta	$13                     ; 0x2013 <f256main+0x17cf>
    23e9: a4 2d        	ldy	$2d                     ; 0x202d <f256main+0x17e9>
    23eb: b1 12        	lda	($12),y                 ; 0x2012 <f256main+0x17ce>
    23ed: 84 15        	sty	$15                     ; 0x2015 <f256main+0x17d1>
    23ef: a8           	tay
    23f0: b1 16        	lda	($16),y                 ; 0x2016 <f256main+0x17d2>
    23f2: 85 14        	sta	$14                     ; 0x2014 <f256main+0x17d0>
    23f4: 86 12        	stx	$12                     ; 0x2012 <f256main+0x17ce>
    23f6: a6 1a        	ldx	$1a                     ; 0x201a <f256main+0x17d6>
    23f8: 86 13        	stx	$13                     ; 0x2013 <f256main+0x17cf>
    23fa: a9 80        	lda	#$80
    23fc: a4 15        	ldy	$15                     ; 0x2015 <f256main+0x17d1>
    23fe: 11 12        	ora	($12),y                 ; 0x2012 <f256main+0x17ce>
    2400: 8d a1 dd     	sta	$dda1                   ; 0xdda1 <end_block9+0x6331>
    2403: a6 14        	ldx	$14                     ; 0x2014 <f256main+0x17d0>
    2405: 8e a1 dd     	stx	$dda1                   ; 0xdda1 <end_block9+0x6331>
    2408: a2 4f        	ldx	#$4f
    240a: 8e a1 dd     	stx	$dda1                   ; 0xdda1 <end_block9+0x6331>
    240d: a5 51        	lda	$51                     ; 0x2051 <f256main+0x180d>
    240f: a2 13        	ldx	#$13
    2411: 86 12        	stx	$12                     ; 0x2012 <f256main+0x17ce>
    2413: 64 13        	stz	$13                     ; 0x2013 <f256main+0x17cf>
    2415: a2 00        	ldx	#$0
    2417: 85 2a        	sta	$2a                     ; 0x202a <f256main+0x17e6>
    2419: 20 80 51     	jsr	$5180 <__mulhi3>
    241c: 85 12        	sta	$12                     ; 0x2012 <f256main+0x17ce>
    241e: 86 13        	stx	$13                     ; 0x2013 <f256main+0x17cf>
    2420: a9 23        	lda	#$23
    2422: 18           	clc
    2423: 65 12        	adc	$12                     ; 0x2012 <f256main+0x17ce>
    2425: 85 12        	sta	$12                     ; 0x2012 <f256main+0x17ce>
    2427: a9 7a        	lda	#$7a
    2429: 65 13        	adc	$13                     ; 0x2013 <f256main+0x17cf>
    242b: 85 13        	sta	$13                     ; 0x2013 <f256main+0x17cf>
    242d: a0 02        	ldy	#$2
    242f: b1 12        	lda	($12),y                 ; 0x2012 <f256main+0x17ce>
    2431: 3a           	dec
    2432: 91 12        	sta	($12),y                 ; 0x2012 <f256main+0x17ce>
    2434: a6 2b        	ldx	$2b                     ; 0x202b <f256main+0x17e7>
    2436: d0 03        	bne	$243b <f256main+0x1bf7>
    2438: 4c 1e 27     	jmp	$271e <f256main+0x1eda>
    243b: a2 13        	ldx	#$13
    243d: 86 12        	stx	$12                     ; 0x2012 <f256main+0x17ce>
    243f: 64 13        	stz	$13                     ; 0x2013 <f256main+0x17cf>
    2441: a2 00        	ldx	#$0
    2443: 85 24        	sta	$24                     ; 0x2024 <f256main+0x17e0>
    2445: a5 2a        	lda	$2a                     ; 0x202a <f256main+0x17e6>
    2447: 20 80 51     	jsr	$5180 <__mulhi3>
    244a: 86 12        	stx	$12                     ; 0x2012 <f256main+0x17ce>
    244c: a6 2c        	ldx	$2c                     ; 0x202c <f256main+0x17e8>
    244e: 48           	pha
    244f: 8a           	txa
    2450: a0 0c        	ldy	#$c
    2452: 91 10        	sta	($10),y                 ; 0x2010 <f256main+0x17cc>
    2454: a2 01        	ldx	#$1
    2456: 8a           	txa
    2457: 88           	dey
    2458: 91 10        	sta	($10),y                 ; 0x2010 <f256main+0x17cc>
    245a: 68           	pla
    245b: a2 6f        	ldx	#$6f
    245d: 86 16        	stx	$16                     ; 0x2016 <f256main+0x17d2>
    245f: a2 7a        	ldx	#$7a
    2461: 86 17        	stx	$17                     ; 0x2017 <f256main+0x17d3>
    2463: a6 24        	ldx	$24                     ; 0x2024 <f256main+0x17e0>
    2465: f0 03        	beq	$246a <f256main+0x1c26>
    2467: 4c c7 16     	jmp	$16c7 <f256main+0xe83>
    246a: 85 13        	sta	$13                     ; 0x2013 <f256main+0x17cf>
    246c: a9 23        	lda	#$23
    246e: 18           	clc
    246f: 65 13        	adc	$13                     ; 0x2013 <f256main+0x17cf>
    2471: 85 2e        	sta	$2e                     ; 0x202e <f256main+0x17ea>
    2473: a9 7a        	lda	#$7a
    2475: 65 12        	adc	$12                     ; 0x2012 <f256main+0x17ce>
    2477: 85 2f        	sta	$2f                     ; 0x202f <f256main+0x17eb>
    2479: a9 00        	lda	#$0
    247b: 92 2e        	sta	($2e)                   ; 0x202e <f256main+0x17ea>
    247d: a2 13        	ldx	#$13
    247f: 86 12        	stx	$12                     ; 0x2012 <f256main+0x17ce>
    2481: 64 13        	stz	$13                     ; 0x2013 <f256main+0x17cf>
    2483: aa           	tax
    2484: a5 2a        	lda	$2a                     ; 0x202a <f256main+0x17e6>
    2486: 20 80 51     	jsr	$5180 <__mulhi3>
    2489: a0 6f        	ldy	#$6f
    248b: 84 16        	sty	$16                     ; 0x2016 <f256main+0x17d2>
    248d: a0 7a        	ldy	#$7a
    248f: 84 17        	sty	$17                     ; 0x2017 <f256main+0x17d3>
    2491: 85 12        	sta	$12                     ; 0x2012 <f256main+0x17ce>
    2493: 86 13        	stx	$13                     ; 0x2013 <f256main+0x17cf>
    2495: a9 23        	lda	#$23
    2497: 18           	clc
    2498: 65 12        	adc	$12                     ; 0x2012 <f256main+0x17ce>
    249a: 85 12        	sta	$12                     ; 0x2012 <f256main+0x17ce>
    249c: a9 7a        	lda	#$7a
    249e: 65 13        	adc	$13                     ; 0x2013 <f256main+0x17cf>
    24a0: 85 13        	sta	$13                     ; 0x2013 <f256main+0x17cf>
    24a2: a0 01        	ldy	#$1
    24a4: b1 12        	lda	($12),y                 ; 0x2012 <f256main+0x17ce>
    24a6: a6 2c        	ldx	$2c                     ; 0x202c <f256main+0x17e8>
    24a8: 48           	pha
    24a9: 8a           	txa
    24aa: a0 0c        	ldy	#$c
    24ac: 91 10        	sta	($10),y                 ; 0x2010 <f256main+0x17cc>
    24ae: 64 14        	stz	$14                     ; 0x2014 <f256main+0x17d0>
    24b0: a9 00        	lda	#$0
    24b2: 88           	dey
    24b3: 91 10        	sta	($10),y                 ; 0x2010 <f256main+0x17cc>
    24b5: 68           	pla
    24b6: d0 03        	bne	$24bb <f256main+0x1c77>
    24b8: 4c c7 16     	jmp	$16c7 <f256main+0xe83>
    24bb: a0 01        	ldy	#$1
    24bd: a9 00        	lda	#$0
    24bf: 91 12        	sta	($12),y                 ; 0x2012 <f256main+0x17ce>
    24c1: 98           	tya
    24c2: 92 2e        	sta	($2e)                   ; 0x202e <f256main+0x17ea>
    24c4: 20 da 36     	jsr	$36da <prepTempoLUT>
    24c7: 20 3e 37     	jsr	$373e <updateTempoText>
    24ca: a2 13        	ldx	#$13
    24cc: 86 12        	stx	$12                     ; 0x2012 <f256main+0x17ce>
    24ce: 64 13        	stz	$13                     ; 0x2013 <f256main+0x17cf>
    24d0: a2 00        	ldx	#$0
    24d2: a5 2a        	lda	$2a                     ; 0x202a <f256main+0x17e6>
    24d4: 20 80 51     	jsr	$5180 <__mulhi3>
    24d7: a0 6f        	ldy	#$6f
    24d9: 84 16        	sty	$16                     ; 0x2016 <f256main+0x17d2>
    24db: a0 7a        	ldy	#$7a
    24dd: 84 17        	sty	$17                     ; 0x2017 <f256main+0x17d3>
    24df: 85 12        	sta	$12                     ; 0x2012 <f256main+0x17ce>
    24e1: 86 13        	stx	$13                     ; 0x2013 <f256main+0x17cf>
    24e3: a9 23        	lda	#$23
    24e5: 18           	clc
    24e6: 65 12        	adc	$12                     ; 0x2012 <f256main+0x17ce>
    24e8: 85 12        	sta	$12                     ; 0x2012 <f256main+0x17ce>
    24ea: a9 7a        	lda	#$7a
    24ec: 65 13        	adc	$13                     ; 0x2013 <f256main+0x17cf>
    24ee: 85 13        	sta	$13                     ; 0x2013 <f256main+0x17cf>
    24f0: a0 04        	ldy	#$4
    24f2: b1 12        	lda	($12),y                 ; 0x2012 <f256main+0x17ce>
    24f4: a6 2c        	ldx	$2c                     ; 0x202c <f256main+0x17e8>
    24f6: 48           	pha
    24f7: 8a           	txa
    24f8: a0 0c        	ldy	#$c
    24fa: 91 10        	sta	($10),y                 ; 0x2010 <f256main+0x17cc>
    24fc: 64 12        	stz	$12                     ; 0x2012 <f256main+0x17ce>
    24fe: a9 00        	lda	#$0
    2500: 88           	dey
    2501: 91 10        	sta	($10),y                 ; 0x2010 <f256main+0x17cc>
    2503: 68           	pla
    2504: d0 03        	bne	$2509 <f256main+0x1cc5>
    2506: 4c c7 16     	jmp	$16c7 <f256main+0xe83>
    2509: a2 02        	ldx	#$2
    250b: 8a           	txa
    250c: a0 0c        	ldy	#$c
    250e: 91 10        	sta	($10),y                 ; 0x2010 <f256main+0x17cc>
    2510: 64 2b        	stz	$2b                     ; 0x202b <f256main+0x17e7>
    2512: 64 2d        	stz	$2d                     ; 0x202d <f256main+0x17e9>
    2514: 64 2e        	stz	$2e                     ; 0x202e <f256main+0x17ea>
    2516: a2 00        	ldx	#$0
    2518: 64 24        	stz	$24                     ; 0x2024 <f256main+0x17e0>
    251a: a0 13        	ldy	#$13
    251c: 84 12        	sty	$12                     ; 0x2012 <f256main+0x17ce>
    251e: 64 13        	stz	$13                     ; 0x2013 <f256main+0x17cf>
    2520: a5 2a        	lda	$2a                     ; 0x202a <f256main+0x17e6>
    2522: 20 80 51     	jsr	$5180 <__mulhi3>
    2525: 85 12        	sta	$12                     ; 0x2012 <f256main+0x17ce>
    2527: 86 13        	stx	$13                     ; 0x2013 <f256main+0x17cf>
    2529: a9 23        	lda	#$23
    252b: 18           	clc
    252c: 65 12        	adc	$12                     ; 0x2012 <f256main+0x17ce>
    252e: aa           	tax
    252f: a9 7a        	lda	#$7a
    2531: 65 13        	adc	$13                     ; 0x2013 <f256main+0x17cf>
    2533: 86 12        	stx	$12                     ; 0x2012 <f256main+0x17ce>
    2535: 85 13        	sta	$13                     ; 0x2013 <f256main+0x17cf>
    2537: a8           	tay
    2538: 18           	clc
    2539: 8a           	txa
    253a: 69 07        	adc	#$7
    253c: 85 14        	sta	$14                     ; 0x2014 <f256main+0x17d0>
    253e: 98           	tya
    253f: 69 00        	adc	#$0
    2541: 85 15        	sta	$15                     ; 0x2015 <f256main+0x17d1>
    2543: a0 07        	ldy	#$7
    2545: b1 12        	lda	($12),y                 ; 0x2012 <f256main+0x17ce>
    2547: 85 12        	sta	$12                     ; 0x2012 <f256main+0x17ce>
    2549: a0 01        	ldy	#$1
    254b: b1 14        	lda	($14),y                 ; 0x2014 <f256main+0x17d0>
    254d: 85 13        	sta	$13                     ; 0x2013 <f256main+0x17cf>
    254f: a9 00        	lda	#$0
    2551: a4 24        	ldy	$24                     ; 0x2024 <f256main+0x17e0>
    2553: 91 12        	sta	($12),y                 ; 0x2012 <f256main+0x17ce>
    2555: a2 13        	ldx	#$13
    2557: 86 12        	stx	$12                     ; 0x2012 <f256main+0x17ce>
    2559: 64 13        	stz	$13                     ; 0x2013 <f256main+0x17cf>
    255b: aa           	tax
    255c: a5 2a        	lda	$2a                     ; 0x202a <f256main+0x17e6>
    255e: 20 80 51     	jsr	$5180 <__mulhi3>
    2561: 85 12        	sta	$12                     ; 0x2012 <f256main+0x17ce>
    2563: 86 13        	stx	$13                     ; 0x2013 <f256main+0x17cf>
    2565: a9 23        	lda	#$23
    2567: 18           	clc
    2568: 65 12        	adc	$12                     ; 0x2012 <f256main+0x17ce>
    256a: aa           	tax
    256b: a9 7a        	lda	#$7a
    256d: 65 13        	adc	$13                     ; 0x2013 <f256main+0x17cf>
    256f: a8           	tay
    2570: 8a           	txa
    2571: 18           	clc
    2572: 69 05        	adc	#$5
    2574: 85 14        	sta	$14                     ; 0x2014 <f256main+0x17d0>
    2576: 98           	tya
    2577: 69 00        	adc	#$0
    2579: 86 12        	stx	$12                     ; 0x2012 <f256main+0x17ce>
    257b: 84 13        	sty	$13                     ; 0x2013 <f256main+0x17cf>
    257d: 84 17        	sty	$17                     ; 0x2017 <f256main+0x17d3>
    257f: 85 15        	sta	$15                     ; 0x2015 <f256main+0x17d1>
    2581: a0 05        	ldy	#$5
    2583: b1 12        	lda	($12),y                 ; 0x2012 <f256main+0x17ce>
    2585: 85 16        	sta	$16                     ; 0x2016 <f256main+0x17d2>
    2587: a0 01        	ldy	#$1
    2589: b1 14        	lda	($14),y                 ; 0x2014 <f256main+0x17d0>
    258b: a4 16        	ldy	$16                     ; 0x2016 <f256main+0x17d2>
    258d: 84 14        	sty	$14                     ; 0x2014 <f256main+0x17d0>
    258f: 85 15        	sta	$15                     ; 0x2015 <f256main+0x17d1>
    2591: 18           	clc
    2592: 8a           	txa
    2593: 69 09        	adc	#$9
    2595: 85 16        	sta	$16                     ; 0x2016 <f256main+0x17d2>
    2597: a5 17        	lda	$17                     ; 0x2017 <f256main+0x17d3>
    2599: 69 00        	adc	#$0
    259b: 85 17        	sta	$17                     ; 0x2017 <f256main+0x17d3>
    259d: a6 2b        	ldx	$2b                     ; 0x202b <f256main+0x17e7>
    259f: 86 25        	stx	$25                     ; 0x2025 <f256main+0x17e1>
    25a1: a5 2b        	lda	$2b                     ; 0x202b <f256main+0x17e7>
    25a3: 18           	clc
    25a4: a0 09        	ldy	#$9
    25a6: 71 12        	adc	($12),y                 ; 0x2012 <f256main+0x17ce>
    25a8: 85 12        	sta	$12                     ; 0x2012 <f256main+0x17ce>
    25aa: a5 2d        	lda	$2d                     ; 0x202d <f256main+0x17e9>
    25ac: a0 01        	ldy	#$1
    25ae: 71 16        	adc	($16),y                 ; 0x2016 <f256main+0x17d2>
    25b0: 85 13        	sta	$13                     ; 0x2013 <f256main+0x17cf>
    25b2: b2 12        	lda	($12)                   ; 0x2012 <f256main+0x17ce>
    25b4: aa           	tax
    25b5: b1 12        	lda	($12),y                 ; 0x2012 <f256main+0x17ce>
    25b7: 86 12        	stx	$12                     ; 0x2012 <f256main+0x17ce>
    25b9: 85 13        	sta	$13                     ; 0x2013 <f256main+0x17cf>
    25bb: b2 12        	lda	($12)                   ; 0x2012 <f256main+0x17ce>
    25bd: 85 12        	sta	$12                     ; 0x2012 <f256main+0x17ce>
    25bf: a9 90        	lda	#$90
    25c1: a4 24        	ldy	$24                     ; 0x2024 <f256main+0x17e0>
    25c3: 11 14        	ora	($14),y                 ; 0x2014 <f256main+0x17d0>
    25c5: 8d a1 dd     	sta	$dda1                   ; 0xdda1 <end_block9+0x6331>
    25c8: a6 12        	ldx	$12                     ; 0x2012 <f256main+0x17ce>
    25ca: 8e a1 dd     	stx	$dda1                   ; 0xdda1 <end_block9+0x6331>
    25cd: a2 7f        	ldx	#$7f
    25cf: 8e a1 dd     	stx	$dda1                   ; 0xdda1 <end_block9+0x6331>
    25d2: a5 51        	lda	$51                     ; 0x2051 <f256main+0x180d>
    25d4: a2 13        	ldx	#$13
    25d6: 86 12        	stx	$12                     ; 0x2012 <f256main+0x17ce>
    25d8: 64 13        	stz	$13                     ; 0x2013 <f256main+0x17cf>
    25da: a2 00        	ldx	#$0
    25dc: 20 80 51     	jsr	$5180 <__mulhi3>
    25df: 85 12        	sta	$12                     ; 0x2012 <f256main+0x17ce>
    25e1: 86 13        	stx	$13                     ; 0x2013 <f256main+0x17cf>
    25e3: a9 23        	lda	#$23
    25e5: 18           	clc
    25e6: 65 12        	adc	$12                     ; 0x2012 <f256main+0x17ce>
    25e8: 85 12        	sta	$12                     ; 0x2012 <f256main+0x17ce>
    25ea: a9 7a        	lda	#$7a
    25ec: 65 13        	adc	$13                     ; 0x2013 <f256main+0x17cf>
    25ee: 85 13        	sta	$13                     ; 0x2013 <f256main+0x17cf>
    25f0: a0 02        	ldy	#$2
    25f2: b1 12        	lda	($12),y                 ; 0x2012 <f256main+0x17ce>
    25f4: 1a           	inc
    25f5: 91 12        	sta	($12),y                 ; 0x2012 <f256main+0x17ce>
    25f7: a2 80        	ldx	#$80
    25f9: 86 f3        	stx	$f3                     ; 0x20f3 <f256main+0x18af>
    25fb: a2 6f        	ldx	#$6f
    25fd: 86 2a        	stx	$2a                     ; 0x202a <f256main+0x17e6>
    25ff: a2 7a        	ldx	#$7a
    2601: 86 2b        	stx	$2b                     ; 0x202b <f256main+0x17e7>
    2603: 20 f0 ff     	jsr	$fff0 <end_block9+0x8580>
    2606: 92 26        	sta	($26)                   ; 0x2026 <f256main+0x17e2>
    2608: a9 00        	lda	#$0
    260a: 6a           	ror
    260b: 85 2a        	sta	$2a                     ; 0x202a <f256main+0x17e6>
    260d: b2 26        	lda	($26)                   ; 0x2026 <f256main+0x17e2>
    260f: 85 2f        	sta	$2f                     ; 0x202f <f256main+0x17eb>
    2611: a5 51        	lda	$51                     ; 0x2051 <f256main+0x180d>
    2613: a2 13        	ldx	#$13
    2615: 86 12        	stx	$12                     ; 0x2012 <f256main+0x17ce>
    2617: 64 13        	stz	$13                     ; 0x2013 <f256main+0x17cf>
    2619: a2 00        	ldx	#$0
    261b: 20 80 51     	jsr	$5180 <__mulhi3>
    261e: 85 12        	sta	$12                     ; 0x2012 <f256main+0x17ce>
    2620: 86 13        	stx	$13                     ; 0x2013 <f256main+0x17cf>
    2622: a9 23        	lda	#$23
    2624: 18           	clc
    2625: 65 12        	adc	$12                     ; 0x2012 <f256main+0x17ce>
    2627: 85 17        	sta	$17                     ; 0x2017 <f256main+0x17d3>
    2629: a9 7a        	lda	#$7a
    262b: 65 13        	adc	$13                     ; 0x2013 <f256main+0x17cf>
    262d: 85 16        	sta	$16                     ; 0x2016 <f256main+0x17d2>
    262f: a5 17        	lda	$17                     ; 0x2017 <f256main+0x17d3>
    2631: 18           	clc
    2632: 69 0f        	adc	#$f
    2634: 85 14        	sta	$14                     ; 0x2014 <f256main+0x17d0>
    2636: a5 16        	lda	$16                     ; 0x2016 <f256main+0x17d2>
    2638: 69 00        	adc	#$0
    263a: a6 17        	ldx	$17                     ; 0x2017 <f256main+0x17d3>
    263c: 86 12        	stx	$12                     ; 0x2012 <f256main+0x17ce>
    263e: a6 16        	ldx	$16                     ; 0x2016 <f256main+0x17d2>
    2640: 86 13        	stx	$13                     ; 0x2013 <f256main+0x17cf>
    2642: 85 15        	sta	$15                     ; 0x2015 <f256main+0x17d1>
    2644: a5 25        	lda	$25                     ; 0x2025 <f256main+0x17e1>
    2646: 18           	clc
    2647: a0 0f        	ldy	#$f
    2649: 71 12        	adc	($12),y                 ; 0x2012 <f256main+0x17ce>
    264b: aa           	tax
    264c: a5 2d        	lda	$2d                     ; 0x202d <f256main+0x17e9>
    264e: a0 01        	ldy	#$1
    2650: 71 14        	adc	($14),y                 ; 0x2014 <f256main+0x17d0>
    2652: 86 14        	stx	$14                     ; 0x2014 <f256main+0x17d0>
    2654: 85 15        	sta	$15                     ; 0x2015 <f256main+0x17d1>
    2656: b2 14        	lda	($14)                   ; 0x2014 <f256main+0x17d0>
    2658: aa           	tax
    2659: b1 14        	lda	($14),y                 ; 0x2014 <f256main+0x17d0>
    265b: 86 14        	stx	$14                     ; 0x2014 <f256main+0x17d0>
    265d: 85 15        	sta	$15                     ; 0x2015 <f256main+0x17d1>
    265f: b2 14        	lda	($14)                   ; 0x2014 <f256main+0x17d0>
    2661: aa           	tax
    2662: 18           	clc
    2663: a5 2f        	lda	$2f                     ; 0x202f <f256main+0x17eb>
    2665: 75 68        	adc	$68,x                   ; 0x2068 <f256main+0x1824>
    2667: 85 18        	sta	$18                     ; 0x2018 <f256main+0x17d4>
    2669: e6 24        	inc	$24                     ; 0x2024 <f256main+0x17e0>
    266b: 18           	clc
    266c: a5 17        	lda	$17                     ; 0x2017 <f256main+0x17d3>
    266e: 69 11        	adc	#$11
    2670: 85 14        	sta	$14                     ; 0x2014 <f256main+0x17d0>
    2672: a5 16        	lda	$16                     ; 0x2016 <f256main+0x17d2>
    2674: 69 00        	adc	#$0
    2676: 85 15        	sta	$15                     ; 0x2015 <f256main+0x17d1>
    2678: 18           	clc
    2679: a0 0c        	ldy	#$c
    267b: b1 10        	lda	($10),y                 ; 0x2010 <f256main+0x17cc>
    267d: 85 2f        	sta	$2f                     ; 0x202f <f256main+0x17eb>
    267f: a0 11        	ldy	#$11
    2681: 71 12        	adc	($12),y                 ; 0x2012 <f256main+0x17ce>
    2683: 85 12        	sta	$12                     ; 0x2012 <f256main+0x17ce>
    2685: a5 2e        	lda	$2e                     ; 0x202e <f256main+0x17ea>
    2687: a0 01        	ldy	#$1
    2689: 71 14        	adc	($14),y                 ; 0x2014 <f256main+0x17d0>
    268b: a8           	tay
    268c: a6 12        	ldx	$12                     ; 0x2012 <f256main+0x17ce>
    268e: 86 16        	stx	$16                     ; 0x2016 <f256main+0x17d2>
    2690: 85 13        	sta	$13                     ; 0x2013 <f256main+0x17cf>
    2692: a6 12        	ldx	$12                     ; 0x2012 <f256main+0x17ce>
    2694: 86 14        	stx	$14                     ; 0x2014 <f256main+0x17d0>
    2696: 85 15        	sta	$15                     ; 0x2015 <f256main+0x17d1>
    2698: a2 ff        	ldx	#$ff
    269a: c6 14        	dec	$14                     ; 0x2014 <f256main+0x17d0>
    269c: e4 14        	cpx	$14                     ; 0x2014 <f256main+0x17d0>
    269e: d0 02        	bne	$26a2 <f256main+0x1e5e>
    26a0: c6 15        	dec	$15                     ; 0x2015 <f256main+0x17d1>
    26a2: a5 18        	lda	$18                     ; 0x2018 <f256main+0x17d4>
    26a4: 92 14        	sta	($14)                   ; 0x2014 <f256main+0x17d0>
    26a6: 18           	clc
    26a7: a5 16        	lda	$16                     ; 0x2016 <f256main+0x17d2>
    26a9: 69 fe        	adc	#$fe
    26ab: 85 16        	sta	$16                     ; 0x2016 <f256main+0x17d2>
    26ad: 98           	tya
    26ae: 69 ff        	adc	#$ff
    26b0: 85 17        	sta	$17                     ; 0x2017 <f256main+0x17d3>
    26b2: b2 16        	lda	($16)                   ; 0x2016 <f256main+0x17d2>
    26b4: 85 f3        	sta	$f3                     ; 0x20f3 <f256main+0x18af>
    26b6: b2 14        	lda	($14)                   ; 0x2014 <f256main+0x17d0>
    26b8: 85 f4        	sta	$f4                     ; 0x20f4 <f256main+0x18b0>
    26ba: b2 12        	lda	($12)                   ; 0x2012 <f256main+0x17ce>
    26bc: 85 f5        	sta	$f5                     ; 0x20f5 <f256main+0x18b1>
    26be: 20 f0 ff     	jsr	$fff0 <end_block9+0x8580>
    26c1: 92 26        	sta	($26)                   ; 0x2026 <f256main+0x17e2>
    26c3: a9 00        	lda	#$0
    26c5: 6a           	ror
    26c6: 85 2a        	sta	$2a                     ; 0x202a <f256main+0x17e6>
    26c8: a5 51        	lda	$51                     ; 0x2051 <f256main+0x180d>
    26ca: a2 13        	ldx	#$13
    26cc: 86 12        	stx	$12                     ; 0x2012 <f256main+0x17ce>
    26ce: 64 13        	stz	$13                     ; 0x2013 <f256main+0x17cf>
    26d0: a2 00        	ldx	#$0
    26d2: 85 2a        	sta	$2a                     ; 0x202a <f256main+0x17e6>
    26d4: 20 80 51     	jsr	$5180 <__mulhi3>
    26d7: 85 12        	sta	$12                     ; 0x2012 <f256main+0x17ce>
    26d9: 86 13        	stx	$13                     ; 0x2013 <f256main+0x17cf>
    26db: a9 23        	lda	#$23
    26dd: 18           	clc
    26de: 65 12        	adc	$12                     ; 0x2012 <f256main+0x17ce>
    26e0: 85 12        	sta	$12                     ; 0x2012 <f256main+0x17ce>
    26e2: a9 7a        	lda	#$7a
    26e4: 65 13        	adc	$13                     ; 0x2013 <f256main+0x17cf>
    26e6: 85 13        	sta	$13                     ; 0x2013 <f256main+0x17cf>
    26e8: 18           	clc
    26e9: a5 2f        	lda	$2f                     ; 0x202f <f256main+0x17eb>
    26eb: 69 03        	adc	#$3
    26ed: a0 0c        	ldy	#$c
    26ef: 91 10        	sta	($10),y                 ; 0x2010 <f256main+0x17cc>
    26f1: a5 2e        	lda	$2e                     ; 0x202e <f256main+0x17ea>
    26f3: 69 00        	adc	#$0
    26f5: 85 2e        	sta	$2e                     ; 0x202e <f256main+0x17ea>
    26f7: 18           	clc
    26f8: a5 25        	lda	$25                     ; 0x2025 <f256main+0x17e1>
    26fa: 69 02        	adc	#$2
    26fc: 85 2b        	sta	$2b                     ; 0x202b <f256main+0x17e7>
    26fe: a5 2d        	lda	$2d                     ; 0x202d <f256main+0x17e9>
    2700: 69 00        	adc	#$0
    2702: 85 2d        	sta	$2d                     ; 0x202d <f256main+0x17e9>
    2704: a0 04        	ldy	#$4
    2706: a5 24        	lda	$24                     ; 0x2024 <f256main+0x17e0>
    2708: d1 12        	cmp	($12),y                 ; 0x2012 <f256main+0x17ce>
    270a: 64 25        	stz	$25                     ; 0x2025 <f256main+0x17e1>
    270c: a2 00        	ldx	#$0
    270e: b0 03        	bcs	$2713 <f256main+0x1ecf>
    2710: 4c 1a 25     	jmp	$251a <f256main+0x1cd6>
    2713: a5 2c        	lda	$2c                     ; 0x202c <f256main+0x17e8>
    2715: a0 0c        	ldy	#$c
    2717: 91 10        	sta	($10),y                 ; 0x2010 <f256main+0x17cc>
    2719: 64 12        	stz	$12                     ; 0x2012 <f256main+0x17ce>
    271b: 4c 4b 2b     	jmp	$2b4b <f256main+0x2307>
    271e: a2 13        	ldx	#$13
    2720: 86 12        	stx	$12                     ; 0x2012 <f256main+0x17ce>
    2722: 64 13        	stz	$13                     ; 0x2013 <f256main+0x17cf>
    2724: a2 00        	ldx	#$0
    2726: a5 2a        	lda	$2a                     ; 0x202a <f256main+0x17e6>
    2728: 20 80 51     	jsr	$5180 <__mulhi3>
    272b: 85 12        	sta	$12                     ; 0x2012 <f256main+0x17ce>
    272d: 86 13        	stx	$13                     ; 0x2013 <f256main+0x17cf>
    272f: a9 23        	lda	#$23
    2731: 18           	clc
    2732: 65 12        	adc	$12                     ; 0x2012 <f256main+0x17ce>
    2734: 85 16        	sta	$16                     ; 0x2016 <f256main+0x17d2>
    2736: a9 7a        	lda	#$7a
    2738: 65 13        	adc	$13                     ; 0x2013 <f256main+0x17cf>
    273a: a6 16        	ldx	$16                     ; 0x2016 <f256main+0x17d2>
    273c: 86 12        	stx	$12                     ; 0x2012 <f256main+0x17ce>
    273e: 85 13        	sta	$13                     ; 0x2013 <f256main+0x17cf>
    2740: aa           	tax
    2741: a5 16        	lda	$16                     ; 0x2016 <f256main+0x17d2>
    2743: 18           	clc
    2744: 69 07        	adc	#$7
    2746: 85 14        	sta	$14                     ; 0x2014 <f256main+0x17d0>
    2748: 8a           	txa
    2749: 69 00        	adc	#$0
    274b: 85 15        	sta	$15                     ; 0x2015 <f256main+0x17d1>
    274d: a0 07        	ldy	#$7
    274f: b1 12        	lda	($12),y                 ; 0x2012 <f256main+0x17ce>
    2751: 85 17        	sta	$17                     ; 0x2017 <f256main+0x17d3>
    2753: a0 01        	ldy	#$1
    2755: b1 14        	lda	($14),y                 ; 0x2014 <f256main+0x17d0>
    2757: a4 17        	ldy	$17                     ; 0x2017 <f256main+0x17d3>
    2759: 84 14        	sty	$14                     ; 0x2014 <f256main+0x17d0>
    275b: 85 15        	sta	$15                     ; 0x2015 <f256main+0x17d1>
    275d: a4 16        	ldy	$16                     ; 0x2016 <f256main+0x17d2>
    275f: 84 1a        	sty	$1a                     ; 0x201a <f256main+0x17d6>
    2761: a5 16        	lda	$16                     ; 0x2016 <f256main+0x17d2>
    2763: 18           	clc
    2764: 69 0b        	adc	#$b
    2766: 85 16        	sta	$16                     ; 0x2016 <f256main+0x17d2>
    2768: 86 1b        	stx	$1b                     ; 0x201b <f256main+0x17d7>
    276a: 8a           	txa
    276b: 69 00        	adc	#$0
    276d: 85 17        	sta	$17                     ; 0x2017 <f256main+0x17d3>
    276f: a4 2d        	ldy	$2d                     ; 0x202d <f256main+0x17e9>
    2771: b1 14        	lda	($14),y                 ; 0x2014 <f256main+0x17d0>
    2773: 1a           	inc
    2774: 91 14        	sta	($14),y                 ; 0x2014 <f256main+0x17d0>
    2776: aa           	tax
    2777: 84 1c        	sty	$1c                     ; 0x201c <f256main+0x17d8>
    2779: a0 0b        	ldy	#$b
    277b: b1 12        	lda	($12),y                 ; 0x2012 <f256main+0x17ce>
    277d: 85 18        	sta	$18                     ; 0x2018 <f256main+0x17d4>
    277f: a0 01        	ldy	#$1
    2781: b1 16        	lda	($16),y                 ; 0x2016 <f256main+0x17d2>
    2783: 85 19        	sta	$19                     ; 0x2019 <f256main+0x17d5>
    2785: 8a           	txa
    2786: a4 1c        	ldy	$1c                     ; 0x201c <f256main+0x17d8>
    2788: d1 18        	cmp	($18),y                 ; 0x2018 <f256main+0x17d4>
    278a: d0 07        	bne	$2793 <f256main+0x1f4f>
    278c: a9 00        	lda	#$0
    278e: a4 2d        	ldy	$2d                     ; 0x202d <f256main+0x17e9>
    2790: 91 14        	sta	($14),y                 ; 0x2014 <f256main+0x17d0>
    2792: aa           	tax
    2793: a5 1a        	lda	$1a                     ; 0x201a <f256main+0x17d6>
    2795: 18           	clc
    2796: 69 05        	adc	#$5
    2798: 85 14        	sta	$14                     ; 0x2014 <f256main+0x17d0>
    279a: a5 1b        	lda	$1b                     ; 0x201b <f256main+0x17d7>
    279c: 69 00        	adc	#$0
    279e: 85 15        	sta	$15                     ; 0x2015 <f256main+0x17d1>
    27a0: a0 05        	ldy	#$5
    27a2: b1 12        	lda	($12),y                 ; 0x2012 <f256main+0x17ce>
    27a4: 85 16        	sta	$16                     ; 0x2016 <f256main+0x17d2>
    27a6: a0 01        	ldy	#$1
    27a8: b1 14        	lda	($14),y                 ; 0x2014 <f256main+0x17d0>
    27aa: a4 16        	ldy	$16                     ; 0x2016 <f256main+0x17d2>
    27ac: 84 14        	sty	$14                     ; 0x2014 <f256main+0x17d0>
    27ae: 85 15        	sta	$15                     ; 0x2015 <f256main+0x17d1>
    27b0: 18           	clc
    27b1: a5 1a        	lda	$1a                     ; 0x201a <f256main+0x17d6>
    27b3: 69 09        	adc	#$9
    27b5: 85 16        	sta	$16                     ; 0x2016 <f256main+0x17d2>
    27b7: a5 1b        	lda	$1b                     ; 0x201b <f256main+0x17d7>
    27b9: 69 00        	adc	#$0
    27bb: 85 17        	sta	$17                     ; 0x2017 <f256main+0x17d3>
    27bd: 18           	clc
    27be: a5 2e        	lda	$2e                     ; 0x202e <f256main+0x17ea>
    27c0: a0 09        	ldy	#$9
    27c2: 71 12        	adc	($12),y                 ; 0x2012 <f256main+0x17ce>
    27c4: 85 12        	sta	$12                     ; 0x2012 <f256main+0x17ce>
    27c6: a5 2f        	lda	$2f                     ; 0x202f <f256main+0x17eb>
    27c8: a0 01        	ldy	#$1
    27ca: 71 16        	adc	($16),y                 ; 0x2016 <f256main+0x17d2>
    27cc: 85 13        	sta	$13                     ; 0x2013 <f256main+0x17cf>
    27ce: b2 12        	lda	($12)                   ; 0x2012 <f256main+0x17ce>
    27d0: 85 16        	sta	$16                     ; 0x2016 <f256main+0x17d2>
    27d2: b1 12        	lda	($12),y                 ; 0x2012 <f256main+0x17ce>
    27d4: a4 16        	ldy	$16                     ; 0x2016 <f256main+0x17d2>
    27d6: 84 12        	sty	$12                     ; 0x2012 <f256main+0x17ce>
    27d8: 85 13        	sta	$13                     ; 0x2013 <f256main+0x17cf>
    27da: da           	phx
    27db: 7a           	ply
    27dc: b1 12        	lda	($12),y                 ; 0x2012 <f256main+0x17ce>
    27de: 85 12        	sta	$12                     ; 0x2012 <f256main+0x17ce>
    27e0: a4 2d        	ldy	$2d                     ; 0x202d <f256main+0x17e9>
    27e2: a9 90        	lda	#$90
    27e4: 11 14        	ora	($14),y                 ; 0x2014 <f256main+0x17d0>
    27e6: 84 24        	sty	$24                     ; 0x2024 <f256main+0x17e0>
    27e8: 8d a1 dd     	sta	$dda1                   ; 0xdda1 <end_block9+0x6331>
    27eb: a6 12        	ldx	$12                     ; 0x2012 <f256main+0x17ce>
    27ed: 8e a1 dd     	stx	$dda1                   ; 0xdda1 <end_block9+0x6331>
    27f0: a2 7f        	ldx	#$7f
    27f2: 8e a1 dd     	stx	$dda1                   ; 0xdda1 <end_block9+0x6331>
    27f5: a5 51        	lda	$51                     ; 0x2051 <f256main+0x180d>
    27f7: a2 13        	ldx	#$13
    27f9: 86 12        	stx	$12                     ; 0x2012 <f256main+0x17ce>
    27fb: 64 13        	stz	$13                     ; 0x2013 <f256main+0x17cf>
    27fd: a2 00        	ldx	#$0
    27ff: 20 80 51     	jsr	$5180 <__mulhi3>
    2802: 85 12        	sta	$12                     ; 0x2012 <f256main+0x17ce>
    2804: 86 13        	stx	$13                     ; 0x2013 <f256main+0x17cf>
    2806: a9 23        	lda	#$23
    2808: 18           	clc
    2809: 65 12        	adc	$12                     ; 0x2012 <f256main+0x17ce>
    280b: 85 12        	sta	$12                     ; 0x2012 <f256main+0x17ce>
    280d: a9 7a        	lda	#$7a
    280f: 65 13        	adc	$13                     ; 0x2013 <f256main+0x17cf>
    2811: 85 13        	sta	$13                     ; 0x2013 <f256main+0x17cf>
    2813: a0 02        	ldy	#$2
    2815: b1 12        	lda	($12),y                 ; 0x2012 <f256main+0x17ce>
    2817: 1a           	inc
    2818: 91 12        	sta	($12),y                 ; 0x2012 <f256main+0x17ce>
    281a: a2 80        	ldx	#$80
    281c: 86 f3        	stx	$f3                     ; 0x20f3 <f256main+0x18af>
    281e: a2 6f        	ldx	#$6f
    2820: 86 12        	stx	$12                     ; 0x2012 <f256main+0x17ce>
    2822: a2 7a        	ldx	#$7a
    2824: 86 13        	stx	$13                     ; 0x2013 <f256main+0x17cf>
    2826: 20 f0 ff     	jsr	$fff0 <end_block9+0x8580>
    2829: 92 26        	sta	($26)                   ; 0x2026 <f256main+0x17e2>
    282b: a9 00        	lda	#$0
    282d: 6a           	ror
    282e: 85 12        	sta	$12                     ; 0x2012 <f256main+0x17ce>
    2830: b2 26        	lda	($26)                   ; 0x2026 <f256main+0x17e2>
    2832: 85 25        	sta	$25                     ; 0x2025 <f256main+0x17e1>
    2834: a5 51        	lda	$51                     ; 0x2051 <f256main+0x180d>
    2836: a2 13        	ldx	#$13
    2838: 86 12        	stx	$12                     ; 0x2012 <f256main+0x17ce>
    283a: 64 13        	stz	$13                     ; 0x2013 <f256main+0x17cf>
    283c: a2 00        	ldx	#$0
    283e: 20 80 51     	jsr	$5180 <__mulhi3>
    2841: 85 12        	sta	$12                     ; 0x2012 <f256main+0x17ce>
    2843: 86 13        	stx	$13                     ; 0x2013 <f256main+0x17cf>
    2845: a9 23        	lda	#$23
    2847: 18           	clc
    2848: 65 12        	adc	$12                     ; 0x2012 <f256main+0x17ce>
    284a: 85 1b        	sta	$1b                     ; 0x201b <f256main+0x17d7>
    284c: a9 7a        	lda	#$7a
    284e: 65 13        	adc	$13                     ; 0x2013 <f256main+0x17cf>
    2850: 85 1a        	sta	$1a                     ; 0x201a <f256main+0x17d6>
    2852: 18           	clc
    2853: a5 1b        	lda	$1b                     ; 0x201b <f256main+0x17d7>
    2855: 69 0f        	adc	#$f
    2857: 85 14        	sta	$14                     ; 0x2014 <f256main+0x17d0>
    2859: a5 1a        	lda	$1a                     ; 0x201a <f256main+0x17d6>
    285b: 69 00        	adc	#$0
    285d: 85 15        	sta	$15                     ; 0x2015 <f256main+0x17d1>
    285f: a6 1b        	ldx	$1b                     ; 0x201b <f256main+0x17d7>
    2861: 86 12        	stx	$12                     ; 0x2012 <f256main+0x17ce>
    2863: a6 1a        	ldx	$1a                     ; 0x201a <f256main+0x17d6>
    2865: 86 13        	stx	$13                     ; 0x2013 <f256main+0x17cf>
    2867: 18           	clc
    2868: a5 2e        	lda	$2e                     ; 0x202e <f256main+0x17ea>
    286a: a0 0f        	ldy	#$f
    286c: 71 12        	adc	($12),y                 ; 0x2012 <f256main+0x17ce>
    286e: aa           	tax
    286f: a5 2f        	lda	$2f                     ; 0x202f <f256main+0x17eb>
    2871: a0 01        	ldy	#$1
    2873: 71 14        	adc	($14),y                 ; 0x2014 <f256main+0x17d0>
    2875: 86 14        	stx	$14                     ; 0x2014 <f256main+0x17d0>
    2877: 85 15        	sta	$15                     ; 0x2015 <f256main+0x17d1>
    2879: b2 14        	lda	($14)                   ; 0x2014 <f256main+0x17d0>
    287b: 85 16        	sta	$16                     ; 0x2016 <f256main+0x17d2>
    287d: b1 14        	lda	($14),y                 ; 0x2014 <f256main+0x17d0>
    287f: 85 17        	sta	$17                     ; 0x2017 <f256main+0x17d3>
    2881: 18           	clc
    2882: a5 1b        	lda	$1b                     ; 0x201b <f256main+0x17d7>
    2884: 69 07        	adc	#$7
    2886: 85 14        	sta	$14                     ; 0x2014 <f256main+0x17d0>
    2888: a5 1a        	lda	$1a                     ; 0x201a <f256main+0x17d6>
    288a: 69 00        	adc	#$0
    288c: 85 15        	sta	$15                     ; 0x2015 <f256main+0x17d1>
    288e: a0 07        	ldy	#$7
    2890: b1 12        	lda	($12),y                 ; 0x2012 <f256main+0x17ce>
    2892: 85 18        	sta	$18                     ; 0x2018 <f256main+0x17d4>
    2894: a0 01        	ldy	#$1
    2896: b1 14        	lda	($14),y                 ; 0x2014 <f256main+0x17d0>
    2898: 85 19        	sta	$19                     ; 0x2019 <f256main+0x17d5>
    289a: a4 24        	ldy	$24                     ; 0x2024 <f256main+0x17e0>
    289c: b1 18        	lda	($18),y                 ; 0x2018 <f256main+0x17d4>
    289e: a8           	tay
    289f: b1 16        	lda	($16),y                 ; 0x2016 <f256main+0x17d2>
    28a1: a2 6f        	ldx	#$6f
    28a3: 86 16        	stx	$16                     ; 0x2016 <f256main+0x17d2>
    28a5: a2 7a        	ldx	#$7a
    28a7: 86 17        	stx	$17                     ; 0x2017 <f256main+0x17d3>
    28a9: aa           	tax
    28aa: 18           	clc
    28ab: a5 25        	lda	$25                     ; 0x2025 <f256main+0x17e1>
    28ad: 75 68        	adc	$68,x                   ; 0x2068 <f256main+0x1824>
    28af: 85 18        	sta	$18                     ; 0x2018 <f256main+0x17d4>
    28b1: 18           	clc
    28b2: a5 1b        	lda	$1b                     ; 0x201b <f256main+0x17d7>
    28b4: 69 11        	adc	#$11
    28b6: 85 14        	sta	$14                     ; 0x2014 <f256main+0x17d0>
    28b8: a5 1a        	lda	$1a                     ; 0x201a <f256main+0x17d6>
    28ba: 69 00        	adc	#$0
    28bc: 85 15        	sta	$15                     ; 0x2015 <f256main+0x17d1>
    28be: a5 2e        	lda	$2e                     ; 0x202e <f256main+0x17ea>
    28c0: 18           	clc
    28c1: 65 2d        	adc	$2d                     ; 0x202d <f256main+0x17e9>
    28c3: 85 19        	sta	$19                     ; 0x2019 <f256main+0x17d5>
    28c5: a5 2f        	lda	$2f                     ; 0x202f <f256main+0x17eb>
    28c7: 69 00        	adc	#$0
    28c9: aa           	tax
    28ca: 18           	clc
    28cb: a0 11        	ldy	#$11
    28cd: a5 19        	lda	$19                     ; 0x2019 <f256main+0x17d5>
    28cf: 71 12        	adc	($12),y                 ; 0x2012 <f256main+0x17ce>
    28d1: 85 12        	sta	$12                     ; 0x2012 <f256main+0x17ce>
    28d3: a0 01        	ldy	#$1
    28d5: 8a           	txa
    28d6: 71 14        	adc	($14),y                 ; 0x2014 <f256main+0x17d0>
    28d8: 85 13        	sta	$13                     ; 0x2013 <f256main+0x17cf>
    28da: a5 18        	lda	$18                     ; 0x2018 <f256main+0x17d4>
    28dc: 91 12        	sta	($12),y                 ; 0x2012 <f256main+0x17ce>
    28de: b2 12        	lda	($12)                   ; 0x2012 <f256main+0x17ce>
    28e0: 85 f3        	sta	$f3                     ; 0x20f3 <f256main+0x18af>
    28e2: b1 12        	lda	($12),y                 ; 0x2012 <f256main+0x17ce>
    28e4: 85 f4        	sta	$f4                     ; 0x20f4 <f256main+0x18b0>
    28e6: c8           	iny
    28e7: b1 12        	lda	($12),y                 ; 0x2012 <f256main+0x17ce>
    28e9: 85 f5        	sta	$f5                     ; 0x20f5 <f256main+0x18b1>
    28eb: a5 2c        	lda	$2c                     ; 0x202c <f256main+0x17e8>
    28ed: a0 0c        	ldy	#$c
    28ef: 91 10        	sta	($10),y                 ; 0x2010 <f256main+0x17cc>
    28f1: 64 12        	stz	$12                     ; 0x2012 <f256main+0x17ce>
    28f3: a9 00        	lda	#$0
    28f5: 88           	dey
    28f6: 91 10        	sta	($10),y                 ; 0x2010 <f256main+0x17cc>
    28f8: 20 f0 ff     	jsr	$fff0 <end_block9+0x8580>
    28fb: 92 26        	sta	($26)                   ; 0x2026 <f256main+0x17e2>
    28fd: a9 00        	lda	#$0
    28ff: 6a           	ror
    2900: 85 16        	sta	$16                     ; 0x2016 <f256main+0x17d2>
    2902: 4c c7 16     	jmp	$16c7 <f256main+0xe83>
    2905: a9 01        	lda	#$1
    2907: 20 f7 3e     	jsr	$3ef7 <highLightInstChoice>
    290a: a2 01        	ldx	#$1
    290c: 8a           	txa
    290d: a0 0c        	ldy	#$c
    290f: 91 10        	sta	($10),y                 ; 0x2010 <f256main+0x17cc>
    2911: a5 2b        	lda	$2b                     ; 0x202b <f256main+0x17e7>
    2913: 88           	dey
    2914: 91 10        	sta	($10),y                 ; 0x2010 <f256main+0x17cc>
    2916: a2 6f        	ldx	#$6f
    2918: 86 16        	stx	$16                     ; 0x2016 <f256main+0x17d2>
    291a: a2 7a        	ldx	#$7a
    291c: 86 17        	stx	$17                     ; 0x2017 <f256main+0x17d3>
    291e: a0 04        	ldy	#$4
    2920: b1 10        	lda	($10),y                 ; 0x2010 <f256main+0x17cc>
    2922: 85 26        	sta	$26                     ; 0x2026 <f256main+0x17e2>
    2924: c8           	iny
    2925: b1 10        	lda	($10),y                 ; 0x2010 <f256main+0x17cc>
    2927: 85 27        	sta	$27                     ; 0x2027 <f256main+0x17e3>
    2929: 4c c7 16     	jmp	$16c7 <f256main+0xe83>
    292c: a2 b0        	ldx	#$b0
    292e: 8e a1 dd     	stx	$dda1                   ; 0xdda1 <end_block9+0x6331>
    2931: a0 7b        	ldy	#$7b
    2933: 8c a1 dd     	sty	$dda1                   ; 0xdda1 <end_block9+0x6331>
    2936: a2 00        	ldx	#$0
    2938: 9c a1 dd     	stz	$dda1                   ; 0xdda1 <end_block9+0x6331>
    293b: a9 b1        	lda	#$b1
    293d: 8d a1 dd     	sta	$dda1                   ; 0xdda1 <end_block9+0x6331>
    2940: 8c a1 dd     	sty	$dda1                   ; 0xdda1 <end_block9+0x6331>
    2943: 9c a1 dd     	stz	$dda1                   ; 0xdda1 <end_block9+0x6331>
    2946: a9 b9        	lda	#$b9
    2948: 8d a1 dd     	sta	$dda1                   ; 0xdda1 <end_block9+0x6331>
    294b: 8c a1 dd     	sty	$dda1                   ; 0xdda1 <end_block9+0x6331>
    294e: 9c a1 dd     	stz	$dda1                   ; 0xdda1 <end_block9+0x6331>
    2951: a0 02        	ldy	#$2
    2953: 84 01        	sty	$1                      ; 0x2001 <f256main+0x17bd>
    2955: a0 c0        	ldy	#$c0
    2957: a9 20        	lda	#$20
    2959: 86 12        	stx	$12                     ; 0x2012 <f256main+0x17ce>
    295b: 84 13        	sty	$13                     ; 0x2013 <f256main+0x17cf>
    295d: 92 12        	sta	($12)                   ; 0x2012 <f256main+0x17ce>
    295f: e8           	inx
    2960: d0 01        	bne	$2963 <f256main+0x211f>
    2962: c8           	iny
    2963: c0 d2        	cpy	#$d2
    2965: d0 f2        	bne	$2959 <f256main+0x2115>
    2967: e0 c0        	cpx	#$c0
    2969: d0 ee        	bne	$2959 <f256main+0x2115>
    296b: a5 26        	lda	$26                     ; 0x2026 <f256main+0x17e2>
    296d: a0 04        	ldy	#$4
    296f: 91 10        	sta	($10),y                 ; 0x2010 <f256main+0x17cc>
    2971: a5 27        	lda	$27                     ; 0x2027 <f256main+0x17e3>
    2973: c8           	iny
    2974: 91 10        	sta	($10),y                 ; 0x2010 <f256main+0x17cc>
    2976: 64 26        	stz	$26                     ; 0x2026 <f256main+0x17e2>
    2978: 64 01        	stz	$1                      ; 0x2001 <f256main+0x17bd>
    297a: a2 90        	ldx	#$90
    297c: 86 30        	stx	$30                     ; 0x2030 <f256main+0x17ec>
    297e: 64 4d        	stz	$4d                     ; 0x204d <f256main+0x1809>
    2980: 9c 14 d0     	stz	$d014                   ; 0xd014 <end_block9+0x55a4>
    2983: 9c 15 d0     	stz	$d015                   ; 0xd015 <end_block9+0x55a5>
    2986: 64 4e        	stz	$4e                     ; 0x204e <f256main+0x180a>
    2988: 9c 16 d0     	stz	$d016                   ; 0xd016 <end_block9+0x55a6>
    298b: 9c 17 d0     	stz	$d017                   ; 0xd017 <end_block9+0x55a7>
    298e: a2 f3        	ldx	#$f3
    2990: 86 12        	stx	$12                     ; 0x2012 <f256main+0x17ce>
    2992: a2 71        	ldx	#$71
    2994: 86 13        	stx	$13                     ; 0x2013 <f256main+0x17cf>
    2996: 20 22 35     	jsr	$3522 <textPrint>
    2999: a5 66        	lda	$66                     ; 0x2066 <f256main+0x1822>
    299b: 92 10        	sta	($10)                   ; 0x2010 <f256main+0x17cc>
    299d: a0 01        	ldy	#$1
    299f: a9 00        	lda	#$0
    29a1: 91 10        	sta	($10),y                 ; 0x2010 <f256main+0x17cc>
    29a3: a2 6c        	ldx	#$6c
    29a5: 86 12        	stx	$12                     ; 0x2012 <f256main+0x17ce>
    29a7: a2 75        	ldx	#$75
    29a9: 86 13        	stx	$13                     ; 0x2013 <f256main+0x17cf>
    29ab: 20 82 42     	jsr	$4282 <printf>
    29ae: a2 1a        	ldx	#$1a
    29b0: 86 12        	stx	$12                     ; 0x2012 <f256main+0x17ce>
    29b2: a2 70        	ldx	#$70
    29b4: 86 13        	stx	$13                     ; 0x2013 <f256main+0x17cf>
    29b6: 20 22 35     	jsr	$3522 <textPrint>
    29b9: a2 50        	ldx	#$50
    29bb: 86 30        	stx	$30                     ; 0x2030 <f256main+0x17ec>
    29bd: a2 82        	ldx	#$82
    29bf: 8a           	txa
    29c0: a0 0c        	ldy	#$c
    29c2: 91 10        	sta	($10),y                 ; 0x2010 <f256main+0x17cc>
    29c4: a2 01        	ldx	#$1
    29c6: 8a           	txa
    29c7: 88           	dey
    29c8: 91 10        	sta	($10),y                 ; 0x2010 <f256main+0x17cc>
    29ca: a2 3f        	ldx	#$3f
    29cc: 86 2c        	stx	$2c                     ; 0x202c <f256main+0x17e8>
    29ce: a2 6f        	ldx	#$6f
    29d0: 86 2d        	stx	$2d                     ; 0x202d <f256main+0x17e9>
    29d2: 4c 34 1a     	jmp	$1a34 <f256main+0x11f0>
    29d5: a6 31        	ldx	$31                     ; 0x2031 <f256main+0x17ed>
    29d7: 86 25        	stx	$25                     ; 0x2025 <f256main+0x17e1>
    29d9: 86 24        	stx	$24                     ; 0x2024 <f256main+0x17e0>
    29db: a6 32        	ldx	$32                     ; 0x2032 <f256main+0x17ee>
    29dd: 86 2c        	stx	$2c                     ; 0x202c <f256main+0x17e8>
    29df: 86 2a        	stx	$2a                     ; 0x202a <f256main+0x17e6>
    29e1: a2 0b        	ldx	#$b
    29e3: a0 07        	ldy	#$7
    29e5: b1 10        	lda	($10),y                 ; 0x2010 <f256main+0x17cc>
    29e7: 20 65 51     	jsr	$5165 <__mulqi3>
    29ea: a4 2a        	ldy	$2a                     ; 0x202a <f256main+0x17e6>
    29ec: 85 12        	sta	$12                     ; 0x2012 <f256main+0x17ce>
    29ee: aa           	tax
    29ef: a9 57        	lda	#$57
    29f1: 38           	sec
    29f2: e5 12        	sbc	$12                     ; 0x2012 <f256main+0x17ce>
    29f4: 85 13        	sta	$13                     ; 0x2013 <f256main+0x17cf>
    29f6: a9 00        	lda	#$0
    29f8: e9 00        	sbc	#$0
    29fa: 85 12        	sta	$12                     ; 0x2012 <f256main+0x17ce>
    29fc: c4 12        	cpy	$12                     ; 0x2012 <f256main+0x17ce>
    29fe: f0 03        	beq	$2a03 <f256main+0x21bf>
    2a00: 4c 44 31     	jmp	$3144 <f256main+0x2900>
    2a03: a4 25        	ldy	$25                     ; 0x2025 <f256main+0x17e1>
    2a05: c4 13        	cpy	$13                     ; 0x2013 <f256main+0x17cf>
    2a07: 4c 46 31     	jmp	$3146 <f256main+0x2902>
    2a0a: a6 31        	ldx	$31                     ; 0x2031 <f256main+0x17ed>
    2a0c: 86 24        	stx	$24                     ; 0x2024 <f256main+0x17e0>
    2a0e: a6 32        	ldx	$32                     ; 0x2032 <f256main+0x17ee>
    2a10: 86 25        	stx	$25                     ; 0x2025 <f256main+0x17e1>
    2a12: a2 0b        	ldx	#$b
    2a14: a0 07        	ldy	#$7
    2a16: b1 10        	lda	($10),y                 ; 0x2010 <f256main+0x17cc>
    2a18: 20 65 51     	jsr	$5165 <__mulqi3>
    2a1b: a4 25        	ldy	$25                     ; 0x2025 <f256main+0x17e1>
    2a1d: 84 12        	sty	$12                     ; 0x2012 <f256main+0x17ce>
    2a1f: a2 00        	ldx	#$0
    2a21: e4 12        	cpx	$12                     ; 0x2012 <f256main+0x17ce>
    2a23: f0 03        	beq	$2a28 <f256main+0x21e4>
    2a25: 4c 6d 31     	jmp	$316d <f256main+0x2929>
    2a28: a6 24        	ldx	$24                     ; 0x2024 <f256main+0x17e0>
    2a2a: 86 13        	stx	$13                     ; 0x2013 <f256main+0x17cf>
    2a2c: 86 12        	stx	$12                     ; 0x2012 <f256main+0x17ce>
    2a2e: c5 12        	cmp	$12                     ; 0x2012 <f256main+0x17ce>
    2a30: 4c 77 31     	jmp	$3177 <f256main+0x2933>
    2a33: a6 2c        	ldx	$2c                     ; 0x202c <f256main+0x17e8>
    2a35: 8a           	txa
    2a36: a0 0c        	ldy	#$c
    2a38: 91 10        	sta	($10),y                 ; 0x2010 <f256main+0x17cc>
    2a3a: a2 01        	ldx	#$1
    2a3c: 8a           	txa
    2a3d: 88           	dey
    2a3e: 91 10        	sta	($10),y                 ; 0x2010 <f256main+0x17cc>
    2a40: a0 6f        	ldy	#$6f
    2a42: 84 16        	sty	$16                     ; 0x2016 <f256main+0x17d2>
    2a44: a0 7a        	ldy	#$7a
    2a46: 84 17        	sty	$17                     ; 0x2017 <f256main+0x17d3>
    2a48: a5 2b        	lda	$2b                     ; 0x202b <f256main+0x17e7>
    2a4a: f0 03        	beq	$2a4f <f256main+0x220b>
    2a4c: 4c c7 16     	jmp	$16c7 <f256main+0xe83>
    2a4f: 8a           	txa
    2a50: a0 0c        	ldy	#$c
    2a52: 91 10        	sta	($10),y                 ; 0x2010 <f256main+0x17cc>
    2a54: 64 12        	stz	$12                     ; 0x2012 <f256main+0x17ce>
    2a56: a9 00        	lda	#$0
    2a58: 88           	dey
    2a59: 91 10        	sta	($10),y                 ; 0x2010 <f256main+0x17cc>
    2a5b: a5 2c        	lda	$2c                     ; 0x202c <f256main+0x17e8>
    2a5d: f0 03        	beq	$2a62 <f256main+0x221e>
    2a5f: 4c c7 16     	jmp	$16c7 <f256main+0xe83>
    2a62: a6 45        	ldx	$45                     ; 0x2045 <f256main+0x1801>
    2a64: 18           	clc
    2a65: a5 24        	lda	$24                     ; 0x2024 <f256main+0x17e0>
    2a67: 48           	pha
    2a68: a0 07        	ldy	#$7
    2a6a: b1 10        	lda	($10),y                 ; 0x2010 <f256main+0x17cc>
    2a6c: 85 13        	sta	$13                     ; 0x2013 <f256main+0x17cf>
    2a6e: 68           	pla
    2a6f: 65 13        	adc	$13                     ; 0x2013 <f256main+0x17cf>
    2a71: a8           	tay
    2a72: 49 ff        	eor	#$ff
    2a74: 85 13        	sta	$13                     ; 0x2013 <f256main+0x17cf>
    2a76: e4 13        	cpx	$13                     ; 0x2013 <f256main+0x17cf>
    2a78: 64 13        	stz	$13                     ; 0x2013 <f256main+0x17cf>
    2a7a: 5a           	phy
    2a7b: a9 00        	lda	#$0
    2a7d: a0 0c        	ldy	#$c
    2a7f: 91 10        	sta	($10),y                 ; 0x2010 <f256main+0x17cc>
    2a81: 88           	dey
    2a82: 91 10        	sta	($10),y                 ; 0x2010 <f256main+0x17cc>
    2a84: 7a           	ply
    2a85: 90 03        	bcc	$2a8a <f256main+0x2246>
    2a87: 4c c7 16     	jmp	$16c7 <f256main+0xe83>
    2a8a: 86 12        	stx	$12                     ; 0x2012 <f256main+0x17ce>
    2a8c: 18           	clc
    2a8d: 98           	tya
    2a8e: 65 12        	adc	$12                     ; 0x2012 <f256main+0x17ce>
    2a90: 1a           	inc
    2a91: 85 45        	sta	$45                     ; 0x2045 <f256main+0x1801>
    2a93: 20 da 36     	jsr	$36da <prepTempoLUT>
    2a96: 20 3e 37     	jsr	$373e <updateTempoText>
    2a99: a2 b0        	ldx	#$b0
    2a9b: 8e a1 dd     	stx	$dda1                   ; 0xdda1 <end_block9+0x6331>
    2a9e: a2 7b        	ldx	#$7b
    2aa0: 8e a1 dd     	stx	$dda1                   ; 0xdda1 <end_block9+0x6331>
    2aa3: 9c a1 dd     	stz	$dda1                   ; 0xdda1 <end_block9+0x6331>
    2aa6: a0 b1        	ldy	#$b1
    2aa8: 8c a1 dd     	sty	$dda1                   ; 0xdda1 <end_block9+0x6331>
    2aab: 8e a1 dd     	stx	$dda1                   ; 0xdda1 <end_block9+0x6331>
    2aae: 9c a1 dd     	stz	$dda1                   ; 0xdda1 <end_block9+0x6331>
    2ab1: a0 b9        	ldy	#$b9
    2ab3: 8c a1 dd     	sty	$dda1                   ; 0xdda1 <end_block9+0x6331>
    2ab6: 8e a1 dd     	stx	$dda1                   ; 0xdda1 <end_block9+0x6331>
    2ab9: 9c a1 dd     	stz	$dda1                   ; 0xdda1 <end_block9+0x6331>
    2abc: a5 51        	lda	$51                     ; 0x2051 <f256main+0x180d>
    2abe: a2 13        	ldx	#$13
    2ac0: 86 12        	stx	$12                     ; 0x2012 <f256main+0x17ce>
    2ac2: 64 13        	stz	$13                     ; 0x2013 <f256main+0x17cf>
    2ac4: a2 00        	ldx	#$0
    2ac6: 85 24        	sta	$24                     ; 0x2024 <f256main+0x17e0>
    2ac8: 20 80 51     	jsr	$5180 <__mulhi3>
    2acb: a0 6f        	ldy	#$6f
    2acd: 84 16        	sty	$16                     ; 0x2016 <f256main+0x17d2>
    2acf: a0 7a        	ldy	#$7a
    2ad1: 84 17        	sty	$17                     ; 0x2017 <f256main+0x17d3>
    2ad3: 85 12        	sta	$12                     ; 0x2012 <f256main+0x17ce>
    2ad5: 86 13        	stx	$13                     ; 0x2013 <f256main+0x17cf>
    2ad7: a9 23        	lda	#$23
    2ad9: 18           	clc
    2ada: 65 12        	adc	$12                     ; 0x2012 <f256main+0x17ce>
    2adc: 85 12        	sta	$12                     ; 0x2012 <f256main+0x17ce>
    2ade: a9 7a        	lda	#$7a
    2ae0: 65 13        	adc	$13                     ; 0x2013 <f256main+0x17cf>
    2ae2: 85 13        	sta	$13                     ; 0x2013 <f256main+0x17cf>
    2ae4: a0 04        	ldy	#$4
    2ae6: b1 12        	lda	($12),y                 ; 0x2012 <f256main+0x17ce>
    2ae8: 64 12        	stz	$12                     ; 0x2012 <f256main+0x17ce>
    2aea: 48           	pha
    2aeb: a9 00        	lda	#$0
    2aed: a0 0c        	ldy	#$c
    2aef: 91 10        	sta	($10),y                 ; 0x2010 <f256main+0x17cc>
    2af1: 88           	dey
    2af2: 91 10        	sta	($10),y                 ; 0x2010 <f256main+0x17cc>
    2af4: 68           	pla
    2af5: d0 03        	bne	$2afa <f256main+0x22b6>
    2af7: 4c c7 16     	jmp	$16c7 <f256main+0xe83>
    2afa: a2 13        	ldx	#$13
    2afc: 86 12        	stx	$12                     ; 0x2012 <f256main+0x17ce>
    2afe: 64 13        	stz	$13                     ; 0x2013 <f256main+0x17cf>
    2b00: a2 00        	ldx	#$0
    2b02: 85 25        	sta	$25                     ; 0x2025 <f256main+0x17e1>
    2b04: a5 24        	lda	$24                     ; 0x2024 <f256main+0x17e0>
    2b06: 20 80 51     	jsr	$5180 <__mulhi3>
    2b09: 85 12        	sta	$12                     ; 0x2012 <f256main+0x17ce>
    2b0b: 86 13        	stx	$13                     ; 0x2013 <f256main+0x17cf>
    2b0d: a6 25        	ldx	$25                     ; 0x2025 <f256main+0x17e1>
    2b0f: a9 23        	lda	#$23
    2b11: 18           	clc
    2b12: 65 12        	adc	$12                     ; 0x2012 <f256main+0x17ce>
    2b14: a8           	tay
    2b15: a9 7a        	lda	#$7a
    2b17: 65 13        	adc	$13                     ; 0x2013 <f256main+0x17cf>
    2b19: 84 12        	sty	$12                     ; 0x2012 <f256main+0x17ce>
    2b1b: 85 13        	sta	$13                     ; 0x2013 <f256main+0x17cf>
    2b1d: 85 15        	sta	$15                     ; 0x2015 <f256main+0x17d1>
    2b1f: 18           	clc
    2b20: 98           	tya
    2b21: 69 07        	adc	#$7
    2b23: 85 14        	sta	$14                     ; 0x2014 <f256main+0x17d0>
    2b25: a5 15        	lda	$15                     ; 0x2015 <f256main+0x17d1>
    2b27: 69 00        	adc	#$0
    2b29: 85 15        	sta	$15                     ; 0x2015 <f256main+0x17d1>
    2b2b: a0 07        	ldy	#$7
    2b2d: b1 12        	lda	($12),y                 ; 0x2012 <f256main+0x17ce>
    2b2f: 85 12        	sta	$12                     ; 0x2012 <f256main+0x17ce>
    2b31: a0 01        	ldy	#$1
    2b33: b1 14        	lda	($14),y                 ; 0x2014 <f256main+0x17d0>
    2b35: 85 13        	sta	$13                     ; 0x2013 <f256main+0x17cf>
    2b37: a9 00        	lda	#$0
    2b39: a8           	tay
    2b3a: 91 12        	sta	($12),y                 ; 0x2012 <f256main+0x17ce>
    2b3c: c8           	iny
    2b3d: 84 14        	sty	$14                     ; 0x2014 <f256main+0x17d0>
    2b3f: e4 14        	cpx	$14                     ; 0x2014 <f256main+0x17d0>
    2b41: d0 f7        	bne	$2b3a <f256main+0x22f6>
    2b43: 64 12        	stz	$12                     ; 0x2012 <f256main+0x17ce>
    2b45: a9 00        	lda	#$0
    2b47: a0 0c        	ldy	#$c
    2b49: 91 10        	sta	($10),y                 ; 0x2010 <f256main+0x17cc>
    2b4b: a9 00        	lda	#$0
    2b4d: 4c 1d 1b     	jmp	$1b1d <f256main+0x12d9>
    2b50: 85 1b        	sta	$1b                     ; 0x201b <f256main+0x17d7>
    2b52: 18           	clc
    2b53: a5 24        	lda	$24                     ; 0x2024 <f256main+0x17e0>
    2b55: 48           	pha
    2b56: 5a           	phy
    2b57: a0 07        	ldy	#$7
    2b59: b1 10        	lda	($10),y                 ; 0x2010 <f256main+0x17cc>
    2b5b: 7a           	ply
    2b5c: 85 16        	sta	$16                     ; 0x2016 <f256main+0x17d2>
    2b5e: 68           	pla
    2b5f: 65 16        	adc	$16                     ; 0x2016 <f256main+0x17d2>
    2b61: e6 13        	inc	$13                     ; 0x2013 <f256main+0x17cf>
    2b63: c6 13        	dec	$13                     ; 0x2013 <f256main+0x17cf>
    2b65: f0 03        	beq	$2b6a <f256main+0x2326>
    2b67: 4c 14 32     	jmp	$3214 <f256main+0x29d0>
    2b6a: 86 17        	stx	$17                     ; 0x2017 <f256main+0x17d3>
    2b6c: aa           	tax
    2b6d: 49 7f        	eor	#$7f
    2b6f: 85 16        	sta	$16                     ; 0x2016 <f256main+0x17d2>
    2b71: a5 17        	lda	$17                     ; 0x2017 <f256main+0x17d3>
    2b73: c5 16        	cmp	$16                     ; 0x2016 <f256main+0x17d2>
    2b75: b0 03        	bcs	$2b7a <f256main+0x2336>
    2b77: 4c 1b 32     	jmp	$321b <f256main+0x29d7>
    2b7a: 4c 33 32     	jmp	$3233 <f256main+0x29ef>
    2b7d: 18           	clc
    2b7e: 48           	pha
    2b7f: 5a           	phy
    2b80: a0 07        	ldy	#$7
    2b82: b1 10        	lda	($10),y                 ; 0x2010 <f256main+0x17cc>
    2b84: 7a           	ply
    2b85: 85 14        	sta	$14                     ; 0x2014 <f256main+0x17d0>
    2b87: 68           	pla
    2b88: aa           	tax
    2b89: a5 24        	lda	$24                     ; 0x2024 <f256main+0x17e0>
    2b8b: 65 14        	adc	$14                     ; 0x2014 <f256main+0x17d0>
    2b8d: 85 15        	sta	$15                     ; 0x2015 <f256main+0x17d1>
    2b8f: 8a           	txa
    2b90: 86 14        	stx	$14                     ; 0x2014 <f256main+0x17d0>
    2b92: a2 00        	ldx	#$0
    2b94: e4 14        	cpx	$14                     ; 0x2014 <f256main+0x17d0>
    2b96: f0 03        	beq	$2b9b <f256main+0x2357>
    2b98: 4c 5f 32     	jmp	$325f <f256main+0x2a1b>
    2b9b: 85 16        	sta	$16                     ; 0x2016 <f256main+0x17d2>
    2b9d: a6 15        	ldx	$15                     ; 0x2015 <f256main+0x17d1>
    2b9f: e4 19        	cpx	$19                     ; 0x2019 <f256main+0x17d5>
    2ba1: b0 03        	bcs	$2ba6 <f256main+0x2362>
    2ba3: 4c 6a 32     	jmp	$326a <f256main+0x2a26>
    2ba6: a5 19        	lda	$19                     ; 0x2019 <f256main+0x17d5>
    2ba8: 4c 84 32     	jmp	$3284 <f256main+0x2a40>
    2bab: c9 00        	cmp	#$0
    2bad: 90 03        	bcc	$2bb2 <f256main+0x236e>
    2baf: 4c 0a 2c     	jmp	$2c0a <f256main+0x23c6>
    2bb2: a9 00        	lda	#$0
    2bb4: 20 f7 3e     	jsr	$3ef7 <highLightInstChoice>
    2bb7: a5 66        	lda	$66                     ; 0x2066 <f256main+0x1822>
    2bb9: 0a           	asl
    2bba: 85 12        	sta	$12                     ; 0x2012 <f256main+0x17ce>
    2bbc: a9 00        	lda	#$0
    2bbe: 2a           	rol
    2bbf: 85 13        	sta	$13                     ; 0x2013 <f256main+0x17cf>
    2bc1: a9 52        	lda	#$52
    2bc3: 18           	clc
    2bc4: 65 12        	adc	$12                     ; 0x2012 <f256main+0x17ce>
    2bc6: 85 12        	sta	$12                     ; 0x2012 <f256main+0x17ce>
    2bc8: a9 00        	lda	#$0
    2bca: 65 13        	adc	$13                     ; 0x2013 <f256main+0x17cf>
    2bcc: 85 13        	sta	$13                     ; 0x2013 <f256main+0x17cf>
    2bce: b2 12        	lda	($12)                   ; 0x2012 <f256main+0x17ce>
    2bd0: 85 14        	sta	$14                     ; 0x2014 <f256main+0x17d0>
    2bd2: a0 01        	ldy	#$1
    2bd4: b1 12        	lda	($12),y                 ; 0x2012 <f256main+0x17ce>
    2bd6: aa           	tax
    2bd7: a5 14        	lda	$14                     ; 0x2014 <f256main+0x17d0>
    2bd9: 1a           	inc
    2bda: d0 01        	bne	$2bdd <f256main+0x2399>
    2bdc: e8           	inx
    2bdd: 92 12        	sta	($12)                   ; 0x2012 <f256main+0x17ce>
    2bdf: 8a           	txa
    2be0: 91 12        	sta	($12),y                 ; 0x2012 <f256main+0x17ce>
    2be2: 98           	tya
    2be3: 20 f7 3e     	jsr	$3ef7 <highLightInstChoice>
    2be6: a5 66        	lda	$66                     ; 0x2066 <f256main+0x1822>
    2be8: aa           	tax
    2be9: 0a           	asl
    2bea: 85 12        	sta	$12                     ; 0x2012 <f256main+0x17ce>
    2bec: a9 00        	lda	#$0
    2bee: 2a           	rol
    2bef: 85 13        	sta	$13                     ; 0x2013 <f256main+0x17cf>
    2bf1: a9 52        	lda	#$52
    2bf3: 18           	clc
    2bf4: 65 12        	adc	$12                     ; 0x2012 <f256main+0x17ce>
    2bf6: 85 12        	sta	$12                     ; 0x2012 <f256main+0x17ce>
    2bf8: a9 00        	lda	#$0
    2bfa: 65 13        	adc	$13                     ; 0x2013 <f256main+0x17cf>
    2bfc: 85 13        	sta	$13                     ; 0x2013 <f256main+0x17cf>
    2bfe: b2 12        	lda	($12)                   ; 0x2012 <f256main+0x17ce>
    2c00: 85 14        	sta	$14                     ; 0x2014 <f256main+0x17d0>
    2c02: a0 6f        	ldy	#$6f
    2c04: 84 16        	sty	$16                     ; 0x2016 <f256main+0x17d2>
    2c06: a0 7a        	ldy	#$7a
    2c08: 84 17        	sty	$17                     ; 0x2017 <f256main+0x17d3>
    2c0a: 8a           	txa
    2c0b: 09 c0        	ora	#$c0
    2c0d: 8d a1 dd     	sta	$dda1                   ; 0xdda1 <end_block9+0x6331>
    2c10: a6 14        	ldx	$14                     ; 0x2014 <f256main+0x17d0>
    2c12: 4c 34 31     	jmp	$3134 <f256main+0x28f0>
    2c15: a2 80        	ldx	#$80
    2c17: 86 f3        	stx	$f3                     ; 0x20f3 <f256main+0x18af>
    2c19: 20 f0 ff     	jsr	$fff0 <end_block9+0x8580>
    2c1c: 92 26        	sta	($26)                   ; 0x2026 <f256main+0x17e2>
    2c1e: a9 00        	lda	#$0
    2c20: 6a           	ror
    2c21: 85 16        	sta	$16                     ; 0x2016 <f256main+0x17d2>
    2c23: b2 26        	lda	($26)                   ; 0x2026 <f256main+0x17e2>
    2c25: 1a           	inc
    2c26: 85 7c        	sta	$7c                     ; 0x207c <f256main+0x1838>
    2c28: 64 f3        	stz	$f3                     ; 0x20f3 <f256main+0x18af>
    2c2a: a6 7c        	ldx	$7c                     ; 0x207c <f256main+0x1838>
    2c2c: 86 f4        	stx	$f4                     ; 0x20f4 <f256main+0x18b0>
    2c2e: 64 f5        	stz	$f5                     ; 0x20f5 <f256main+0x18b1>
    2c30: a5 2c        	lda	$2c                     ; 0x202c <f256main+0x17e8>
    2c32: a0 0c        	ldy	#$c
    2c34: 91 10        	sta	($10),y                 ; 0x2010 <f256main+0x17cc>
    2c36: a5 2b        	lda	$2b                     ; 0x202b <f256main+0x17e7>
    2c38: 88           	dey
    2c39: 91 10        	sta	($10),y                 ; 0x2010 <f256main+0x17cc>
    2c3b: 20 f0 ff     	jsr	$fff0 <end_block9+0x8580>
    2c3e: 92 26        	sta	($26)                   ; 0x2026 <f256main+0x17e2>
    2c40: a9 00        	lda	#$0
    2c42: 6a           	ror
    2c43: 85 16        	sta	$16                     ; 0x2016 <f256main+0x17d2>
    2c45: 4c c7 16     	jmp	$16c7 <f256main+0xe83>
    2c48: a5 51        	lda	$51                     ; 0x2051 <f256main+0x180d>
    2c4a: a2 13        	ldx	#$13
    2c4c: 86 12        	stx	$12                     ; 0x2012 <f256main+0x17ce>
    2c4e: 64 13        	stz	$13                     ; 0x2013 <f256main+0x17cf>
    2c50: a2 00        	ldx	#$0
    2c52: 20 80 51     	jsr	$5180 <__mulhi3>
    2c55: a0 6f        	ldy	#$6f
    2c57: 84 16        	sty	$16                     ; 0x2016 <f256main+0x17d2>
    2c59: a0 7a        	ldy	#$7a
    2c5b: 84 17        	sty	$17                     ; 0x2017 <f256main+0x17d3>
    2c5d: 85 12        	sta	$12                     ; 0x2012 <f256main+0x17ce>
    2c5f: 86 13        	stx	$13                     ; 0x2013 <f256main+0x17cf>
    2c61: a9 23        	lda	#$23
    2c63: 18           	clc
    2c64: 65 12        	adc	$12                     ; 0x2012 <f256main+0x17ce>
    2c66: a8           	tay
    2c67: a9 7a        	lda	#$7a
    2c69: 65 13        	adc	$13                     ; 0x2013 <f256main+0x17cf>
    2c6b: 84 12        	sty	$12                     ; 0x2012 <f256main+0x17ce>
    2c6d: 85 19        	sta	$19                     ; 0x2019 <f256main+0x17d5>
    2c6f: 85 13        	sta	$13                     ; 0x2013 <f256main+0x17cf>
    2c71: b2 12        	lda	($12)                   ; 0x2012 <f256main+0x17ce>
    2c73: a6 2c        	ldx	$2c                     ; 0x202c <f256main+0x17e8>
    2c75: 48           	pha
    2c76: 5a           	phy
    2c77: 8a           	txa
    2c78: a0 0c        	ldy	#$c
    2c7a: 91 10        	sta	($10),y                 ; 0x2010 <f256main+0x17cc>
    2c7c: a6 2b        	ldx	$2b                     ; 0x202b <f256main+0x17e7>
    2c7e: 8a           	txa
    2c7f: 88           	dey
    2c80: 91 10        	sta	($10),y                 ; 0x2010 <f256main+0x17cc>
    2c82: 7a           	ply
    2c83: 68           	pla
    2c84: d0 03        	bne	$2c89 <f256main+0x2445>
    2c86: 4c c7 16     	jmp	$16c7 <f256main+0xe83>
    2c89: 84 18        	sty	$18                     ; 0x2018 <f256main+0x17d4>
    2c8b: a6 18        	ldx	$18                     ; 0x2018 <f256main+0x17d4>
    2c8d: 98           	tya
    2c8e: 18           	clc
    2c8f: 69 09        	adc	#$9
    2c91: 85 16        	sta	$16                     ; 0x2016 <f256main+0x17d2>
    2c93: a4 19        	ldy	$19                     ; 0x2019 <f256main+0x17d5>
    2c95: a5 19        	lda	$19                     ; 0x2019 <f256main+0x17d5>
    2c97: 69 00        	adc	#$0
    2c99: 84 17        	sty	$17                     ; 0x2017 <f256main+0x17d3>
    2c9b: a4 16        	ldy	$16                     ; 0x2016 <f256main+0x17d2>
    2c9d: 84 14        	sty	$14                     ; 0x2014 <f256main+0x17d0>
    2c9f: 85 15        	sta	$15                     ; 0x2015 <f256main+0x17d1>
    2ca1: a0 09        	ldy	#$9
    2ca3: b1 12        	lda	($12),y                 ; 0x2012 <f256main+0x17ce>
    2ca5: 85 16        	sta	$16                     ; 0x2016 <f256main+0x17d2>
    2ca7: a0 01        	ldy	#$1
    2ca9: b1 14        	lda	($14),y                 ; 0x2014 <f256main+0x17d0>
    2cab: 5a           	phy
    2cac: a4 16        	ldy	$16                     ; 0x2016 <f256main+0x17d2>
    2cae: 84 14        	sty	$14                     ; 0x2014 <f256main+0x17d0>
    2cb0: 7a           	ply
    2cb1: 85 15        	sta	$15                     ; 0x2015 <f256main+0x17d1>
    2cb3: b2 14        	lda	($14)                   ; 0x2014 <f256main+0x17d0>
    2cb5: 85 16        	sta	$16                     ; 0x2016 <f256main+0x17d2>
    2cb7: b1 14        	lda	($14),y                 ; 0x2014 <f256main+0x17d0>
    2cb9: a4 16        	ldy	$16                     ; 0x2016 <f256main+0x17d2>
    2cbb: 84 14        	sty	$14                     ; 0x2014 <f256main+0x17d0>
    2cbd: 85 15        	sta	$15                     ; 0x2015 <f256main+0x17d1>
    2cbf: 18           	clc
    2cc0: a5 18        	lda	$18                     ; 0x2018 <f256main+0x17d4>
    2cc2: 69 07        	adc	#$7
    2cc4: 85 16        	sta	$16                     ; 0x2016 <f256main+0x17d2>
    2cc6: a5 17        	lda	$17                     ; 0x2017 <f256main+0x17d3>
    2cc8: 69 00        	adc	#$0
    2cca: 85 17        	sta	$17                     ; 0x2017 <f256main+0x17d3>
    2ccc: a0 07        	ldy	#$7
    2cce: b1 12        	lda	($12),y                 ; 0x2012 <f256main+0x17ce>
    2cd0: 85 18        	sta	$18                     ; 0x2018 <f256main+0x17d4>
    2cd2: a0 01        	ldy	#$1
    2cd4: b1 16        	lda	($16),y                 ; 0x2016 <f256main+0x17d2>
    2cd6: a4 18        	ldy	$18                     ; 0x2018 <f256main+0x17d4>
    2cd8: 84 16        	sty	$16                     ; 0x2016 <f256main+0x17d2>
    2cda: 85 17        	sta	$17                     ; 0x2017 <f256main+0x17d3>
    2cdc: b2 16        	lda	($16)                   ; 0x2016 <f256main+0x17d2>
    2cde: a8           	tay
    2cdf: b1 14        	lda	($14),y                 ; 0x2014 <f256main+0x17d0>
    2ce1: 85 16        	sta	$16                     ; 0x2016 <f256main+0x17d2>
    2ce3: 18           	clc
    2ce4: 8a           	txa
    2ce5: 69 05        	adc	#$5
    2ce7: 85 14        	sta	$14                     ; 0x2014 <f256main+0x17d0>
    2ce9: a5 19        	lda	$19                     ; 0x2019 <f256main+0x17d5>
    2ceb: 69 00        	adc	#$0
    2ced: 85 15        	sta	$15                     ; 0x2015 <f256main+0x17d1>
    2cef: a0 05        	ldy	#$5
    2cf1: b1 12        	lda	($12),y                 ; 0x2012 <f256main+0x17ce>
    2cf3: 85 12        	sta	$12                     ; 0x2012 <f256main+0x17ce>
    2cf5: a0 01        	ldy	#$1
    2cf7: b1 14        	lda	($14),y                 ; 0x2014 <f256main+0x17d0>
    2cf9: 85 13        	sta	$13                     ; 0x2013 <f256main+0x17cf>
    2cfb: a9 80        	lda	#$80
    2cfd: 12 12        	ora	($12)                   ; 0x2012 <f256main+0x17ce>
    2cff: 8d a1 dd     	sta	$dda1                   ; 0xdda1 <end_block9+0x6331>
    2d02: 64 24        	stz	$24                     ; 0x2024 <f256main+0x17e0>
    2d04: a6 16        	ldx	$16                     ; 0x2016 <f256main+0x17d2>
    2d06: 8e a1 dd     	stx	$dda1                   ; 0xdda1 <end_block9+0x6331>
    2d09: a2 4f        	ldx	#$4f
    2d0b: 8e a1 dd     	stx	$dda1                   ; 0xdda1 <end_block9+0x6331>
    2d0e: a5 51        	lda	$51                     ; 0x2051 <f256main+0x180d>
    2d10: a2 13        	ldx	#$13
    2d12: 86 12        	stx	$12                     ; 0x2012 <f256main+0x17ce>
    2d14: 64 13        	stz	$13                     ; 0x2013 <f256main+0x17cf>
    2d16: a2 00        	ldx	#$0
    2d18: 85 2f        	sta	$2f                     ; 0x202f <f256main+0x17eb>
    2d1a: 20 80 51     	jsr	$5180 <__mulhi3>
    2d1d: 85 12        	sta	$12                     ; 0x2012 <f256main+0x17ce>
    2d1f: 86 13        	stx	$13                     ; 0x2013 <f256main+0x17cf>
    2d21: a9 23        	lda	#$23
    2d23: 18           	clc
    2d24: 65 12        	adc	$12                     ; 0x2012 <f256main+0x17ce>
    2d26: 85 12        	sta	$12                     ; 0x2012 <f256main+0x17ce>
    2d28: a9 7a        	lda	#$7a
    2d2a: 65 13        	adc	$13                     ; 0x2013 <f256main+0x17cf>
    2d2c: 85 13        	sta	$13                     ; 0x2013 <f256main+0x17cf>
    2d2e: a0 02        	ldy	#$2
    2d30: b1 12        	lda	($12),y                 ; 0x2012 <f256main+0x17ce>
    2d32: 3a           	dec
    2d33: 91 12        	sta	($12),y                 ; 0x2012 <f256main+0x17ce>
    2d35: a6 2b        	ldx	$2b                     ; 0x202b <f256main+0x17e7>
    2d37: d0 03        	bne	$2d3c <f256main+0x24f8>
    2d39: 4c 59 33     	jmp	$3359 <f256main+0x2b15>
    2d3c: a2 13        	ldx	#$13
    2d3e: 86 12        	stx	$12                     ; 0x2012 <f256main+0x17ce>
    2d40: 64 13        	stz	$13                     ; 0x2013 <f256main+0x17cf>
    2d42: a2 00        	ldx	#$0
    2d44: 85 25        	sta	$25                     ; 0x2025 <f256main+0x17e1>
    2d46: a5 2f        	lda	$2f                     ; 0x202f <f256main+0x17eb>
    2d48: 20 80 51     	jsr	$5180 <__mulhi3>
    2d4b: 86 12        	stx	$12                     ; 0x2012 <f256main+0x17ce>
    2d4d: a6 2c        	ldx	$2c                     ; 0x202c <f256main+0x17e8>
    2d4f: 48           	pha
    2d50: 8a           	txa
    2d51: a0 0c        	ldy	#$c
    2d53: 91 10        	sta	($10),y                 ; 0x2010 <f256main+0x17cc>
    2d55: a2 01        	ldx	#$1
    2d57: 8a           	txa
    2d58: 88           	dey
    2d59: 91 10        	sta	($10),y                 ; 0x2010 <f256main+0x17cc>
    2d5b: 68           	pla
    2d5c: a2 6f        	ldx	#$6f
    2d5e: 86 16        	stx	$16                     ; 0x2016 <f256main+0x17d2>
    2d60: a2 7a        	ldx	#$7a
    2d62: 86 17        	stx	$17                     ; 0x2017 <f256main+0x17d3>
    2d64: a6 25        	ldx	$25                     ; 0x2025 <f256main+0x17e1>
    2d66: f0 03        	beq	$2d6b <f256main+0x2527>
    2d68: 4c c7 16     	jmp	$16c7 <f256main+0xe83>
    2d6b: 85 13        	sta	$13                     ; 0x2013 <f256main+0x17cf>
    2d6d: a9 23        	lda	#$23
    2d6f: 18           	clc
    2d70: 65 13        	adc	$13                     ; 0x2013 <f256main+0x17cf>
    2d72: 85 2a        	sta	$2a                     ; 0x202a <f256main+0x17e6>
    2d74: a9 7a        	lda	#$7a
    2d76: 65 12        	adc	$12                     ; 0x2012 <f256main+0x17ce>
    2d78: 85 2b        	sta	$2b                     ; 0x202b <f256main+0x17e7>
    2d7a: a9 00        	lda	#$0
    2d7c: 92 2a        	sta	($2a)                   ; 0x202a <f256main+0x17e6>
    2d7e: a2 13        	ldx	#$13
    2d80: 86 12        	stx	$12                     ; 0x2012 <f256main+0x17ce>
    2d82: 64 13        	stz	$13                     ; 0x2013 <f256main+0x17cf>
    2d84: aa           	tax
    2d85: a5 2f        	lda	$2f                     ; 0x202f <f256main+0x17eb>
    2d87: 20 80 51     	jsr	$5180 <__mulhi3>
    2d8a: a0 6f        	ldy	#$6f
    2d8c: 84 16        	sty	$16                     ; 0x2016 <f256main+0x17d2>
    2d8e: a0 7a        	ldy	#$7a
    2d90: 84 17        	sty	$17                     ; 0x2017 <f256main+0x17d3>
    2d92: 85 12        	sta	$12                     ; 0x2012 <f256main+0x17ce>
    2d94: 86 13        	stx	$13                     ; 0x2013 <f256main+0x17cf>
    2d96: a9 23        	lda	#$23
    2d98: 18           	clc
    2d99: 65 12        	adc	$12                     ; 0x2012 <f256main+0x17ce>
    2d9b: 85 12        	sta	$12                     ; 0x2012 <f256main+0x17ce>
    2d9d: a9 7a        	lda	#$7a
    2d9f: 65 13        	adc	$13                     ; 0x2013 <f256main+0x17cf>
    2da1: 85 13        	sta	$13                     ; 0x2013 <f256main+0x17cf>
    2da3: a0 01        	ldy	#$1
    2da5: b1 12        	lda	($12),y                 ; 0x2012 <f256main+0x17ce>
    2da7: a6 2c        	ldx	$2c                     ; 0x202c <f256main+0x17e8>
    2da9: 48           	pha
    2daa: 8a           	txa
    2dab: a0 0c        	ldy	#$c
    2dad: 91 10        	sta	($10),y                 ; 0x2010 <f256main+0x17cc>
    2daf: 64 14        	stz	$14                     ; 0x2014 <f256main+0x17d0>
    2db1: a9 00        	lda	#$0
    2db3: 88           	dey
    2db4: 91 10        	sta	($10),y                 ; 0x2010 <f256main+0x17cc>
    2db6: 68           	pla
    2db7: d0 03        	bne	$2dbc <f256main+0x2578>
    2db9: 4c c7 16     	jmp	$16c7 <f256main+0xe83>
    2dbc: a0 01        	ldy	#$1
    2dbe: a9 00        	lda	#$0
    2dc0: 91 12        	sta	($12),y                 ; 0x2012 <f256main+0x17ce>
    2dc2: 98           	tya
    2dc3: 92 2a        	sta	($2a)                   ; 0x202a <f256main+0x17e6>
    2dc5: 20 da 36     	jsr	$36da <prepTempoLUT>
    2dc8: 20 3e 37     	jsr	$373e <updateTempoText>
    2dcb: a2 13        	ldx	#$13
    2dcd: 86 12        	stx	$12                     ; 0x2012 <f256main+0x17ce>
    2dcf: 64 13        	stz	$13                     ; 0x2013 <f256main+0x17cf>
    2dd1: a2 00        	ldx	#$0
    2dd3: a5 2f        	lda	$2f                     ; 0x202f <f256main+0x17eb>
    2dd5: 20 80 51     	jsr	$5180 <__mulhi3>
    2dd8: a0 6f        	ldy	#$6f
    2dda: 84 16        	sty	$16                     ; 0x2016 <f256main+0x17d2>
    2ddc: a0 7a        	ldy	#$7a
    2dde: 84 17        	sty	$17                     ; 0x2017 <f256main+0x17d3>
    2de0: 85 12        	sta	$12                     ; 0x2012 <f256main+0x17ce>
    2de2: 86 13        	stx	$13                     ; 0x2013 <f256main+0x17cf>
    2de4: a9 23        	lda	#$23
    2de6: 18           	clc
    2de7: 65 12        	adc	$12                     ; 0x2012 <f256main+0x17ce>
    2de9: 85 12        	sta	$12                     ; 0x2012 <f256main+0x17ce>
    2deb: a9 7a        	lda	#$7a
    2ded: 65 13        	adc	$13                     ; 0x2013 <f256main+0x17cf>
    2def: 85 13        	sta	$13                     ; 0x2013 <f256main+0x17cf>
    2df1: a0 04        	ldy	#$4
    2df3: b1 12        	lda	($12),y                 ; 0x2012 <f256main+0x17ce>
    2df5: a6 2c        	ldx	$2c                     ; 0x202c <f256main+0x17e8>
    2df7: 48           	pha
    2df8: 8a           	txa
    2df9: a0 0c        	ldy	#$c
    2dfb: 91 10        	sta	($10),y                 ; 0x2010 <f256main+0x17cc>
    2dfd: 64 12        	stz	$12                     ; 0x2012 <f256main+0x17ce>
    2dff: a9 00        	lda	#$0
    2e01: 88           	dey
    2e02: 91 10        	sta	($10),y                 ; 0x2010 <f256main+0x17cc>
    2e04: 68           	pla
    2e05: d0 03        	bne	$2e0a <f256main+0x25c6>
    2e07: 4c c7 16     	jmp	$16c7 <f256main+0xe83>
    2e0a: a2 02        	ldx	#$2
    2e0c: 8a           	txa
    2e0d: a0 0c        	ldy	#$c
    2e0f: 91 10        	sta	($10),y                 ; 0x2010 <f256main+0x17cc>
    2e11: 64 2b        	stz	$2b                     ; 0x202b <f256main+0x17e7>
    2e13: 64 2d        	stz	$2d                     ; 0x202d <f256main+0x17e9>
    2e15: 64 2e        	stz	$2e                     ; 0x202e <f256main+0x17ea>
    2e17: a2 00        	ldx	#$0
    2e19: a4 12        	ldy	$12                     ; 0x2012 <f256main+0x17ce>
    2e1b: 84 2a        	sty	$2a                     ; 0x202a <f256main+0x17e6>
    2e1d: a0 13        	ldy	#$13
    2e1f: 84 12        	sty	$12                     ; 0x2012 <f256main+0x17ce>
    2e21: 64 13        	stz	$13                     ; 0x2013 <f256main+0x17cf>
    2e23: a5 2f        	lda	$2f                     ; 0x202f <f256main+0x17eb>
    2e25: 20 80 51     	jsr	$5180 <__mulhi3>
    2e28: 85 12        	sta	$12                     ; 0x2012 <f256main+0x17ce>
    2e2a: 86 13        	stx	$13                     ; 0x2013 <f256main+0x17cf>
    2e2c: a9 23        	lda	#$23
    2e2e: 18           	clc
    2e2f: 65 12        	adc	$12                     ; 0x2012 <f256main+0x17ce>
    2e31: aa           	tax
    2e32: a9 7a        	lda	#$7a
    2e34: 65 13        	adc	$13                     ; 0x2013 <f256main+0x17cf>
    2e36: 86 12        	stx	$12                     ; 0x2012 <f256main+0x17ce>
    2e38: 85 13        	sta	$13                     ; 0x2013 <f256main+0x17cf>
    2e3a: a8           	tay
    2e3b: 18           	clc
    2e3c: 8a           	txa
    2e3d: 69 07        	adc	#$7
    2e3f: 85 14        	sta	$14                     ; 0x2014 <f256main+0x17d0>
    2e41: 98           	tya
    2e42: 69 00        	adc	#$0
    2e44: 85 15        	sta	$15                     ; 0x2015 <f256main+0x17d1>
    2e46: a0 07        	ldy	#$7
    2e48: b1 12        	lda	($12),y                 ; 0x2012 <f256main+0x17ce>
    2e4a: 85 12        	sta	$12                     ; 0x2012 <f256main+0x17ce>
    2e4c: a0 01        	ldy	#$1
    2e4e: b1 14        	lda	($14),y                 ; 0x2014 <f256main+0x17d0>
    2e50: 85 13        	sta	$13                     ; 0x2013 <f256main+0x17cf>
    2e52: a9 00        	lda	#$0
    2e54: a4 2a        	ldy	$2a                     ; 0x202a <f256main+0x17e6>
    2e56: 91 12        	sta	($12),y                 ; 0x2012 <f256main+0x17ce>
    2e58: a2 13        	ldx	#$13
    2e5a: 86 12        	stx	$12                     ; 0x2012 <f256main+0x17ce>
    2e5c: 64 13        	stz	$13                     ; 0x2013 <f256main+0x17cf>
    2e5e: aa           	tax
    2e5f: a5 2f        	lda	$2f                     ; 0x202f <f256main+0x17eb>
    2e61: 20 80 51     	jsr	$5180 <__mulhi3>
    2e64: 85 12        	sta	$12                     ; 0x2012 <f256main+0x17ce>
    2e66: 86 13        	stx	$13                     ; 0x2013 <f256main+0x17cf>
    2e68: a9 23        	lda	#$23
    2e6a: 18           	clc
    2e6b: 65 12        	adc	$12                     ; 0x2012 <f256main+0x17ce>
    2e6d: aa           	tax
    2e6e: a9 7a        	lda	#$7a
    2e70: 65 13        	adc	$13                     ; 0x2013 <f256main+0x17cf>
    2e72: a8           	tay
    2e73: 8a           	txa
    2e74: 18           	clc
    2e75: 69 05        	adc	#$5
    2e77: 85 14        	sta	$14                     ; 0x2014 <f256main+0x17d0>
    2e79: 98           	tya
    2e7a: 69 00        	adc	#$0
    2e7c: 86 12        	stx	$12                     ; 0x2012 <f256main+0x17ce>
    2e7e: 84 13        	sty	$13                     ; 0x2013 <f256main+0x17cf>
    2e80: 84 17        	sty	$17                     ; 0x2017 <f256main+0x17d3>
    2e82: 85 15        	sta	$15                     ; 0x2015 <f256main+0x17d1>
    2e84: a0 05        	ldy	#$5
    2e86: b1 12        	lda	($12),y                 ; 0x2012 <f256main+0x17ce>
    2e88: 85 16        	sta	$16                     ; 0x2016 <f256main+0x17d2>
    2e8a: a0 01        	ldy	#$1
    2e8c: b1 14        	lda	($14),y                 ; 0x2014 <f256main+0x17d0>
    2e8e: a4 16        	ldy	$16                     ; 0x2016 <f256main+0x17d2>
    2e90: 84 14        	sty	$14                     ; 0x2014 <f256main+0x17d0>
    2e92: 85 15        	sta	$15                     ; 0x2015 <f256main+0x17d1>
    2e94: 18           	clc
    2e95: 8a           	txa
    2e96: 69 09        	adc	#$9
    2e98: 85 16        	sta	$16                     ; 0x2016 <f256main+0x17d2>
    2e9a: a5 17        	lda	$17                     ; 0x2017 <f256main+0x17d3>
    2e9c: 69 00        	adc	#$0
    2e9e: 85 17        	sta	$17                     ; 0x2017 <f256main+0x17d3>
    2ea0: a5 2b        	lda	$2b                     ; 0x202b <f256main+0x17e7>
    2ea2: 18           	clc
    2ea3: a0 09        	ldy	#$9
    2ea5: 71 12        	adc	($12),y                 ; 0x2012 <f256main+0x17ce>
    2ea7: 85 12        	sta	$12                     ; 0x2012 <f256main+0x17ce>
    2ea9: a5 2d        	lda	$2d                     ; 0x202d <f256main+0x17e9>
    2eab: a0 01        	ldy	#$1
    2ead: 71 16        	adc	($16),y                 ; 0x2016 <f256main+0x17d2>
    2eaf: 85 13        	sta	$13                     ; 0x2013 <f256main+0x17cf>
    2eb1: b2 12        	lda	($12)                   ; 0x2012 <f256main+0x17ce>
    2eb3: aa           	tax
    2eb4: b1 12        	lda	($12),y                 ; 0x2012 <f256main+0x17ce>
    2eb6: 86 12        	stx	$12                     ; 0x2012 <f256main+0x17ce>
    2eb8: 85 13        	sta	$13                     ; 0x2013 <f256main+0x17cf>
    2eba: b2 12        	lda	($12)                   ; 0x2012 <f256main+0x17ce>
    2ebc: 85 12        	sta	$12                     ; 0x2012 <f256main+0x17ce>
    2ebe: a9 90        	lda	#$90
    2ec0: a4 2a        	ldy	$2a                     ; 0x202a <f256main+0x17e6>
    2ec2: 11 14        	ora	($14),y                 ; 0x2014 <f256main+0x17d0>
    2ec4: 8d a1 dd     	sta	$dda1                   ; 0xdda1 <end_block9+0x6331>
    2ec7: a6 12        	ldx	$12                     ; 0x2012 <f256main+0x17ce>
    2ec9: 8e a1 dd     	stx	$dda1                   ; 0xdda1 <end_block9+0x6331>
    2ecc: a2 7f        	ldx	#$7f
    2ece: 8e a1 dd     	stx	$dda1                   ; 0xdda1 <end_block9+0x6331>
    2ed1: a5 51        	lda	$51                     ; 0x2051 <f256main+0x180d>
    2ed3: a2 13        	ldx	#$13
    2ed5: 86 12        	stx	$12                     ; 0x2012 <f256main+0x17ce>
    2ed7: 64 13        	stz	$13                     ; 0x2013 <f256main+0x17cf>
    2ed9: a2 00        	ldx	#$0
    2edb: 20 80 51     	jsr	$5180 <__mulhi3>
    2ede: 85 12        	sta	$12                     ; 0x2012 <f256main+0x17ce>
    2ee0: 86 13        	stx	$13                     ; 0x2013 <f256main+0x17cf>
    2ee2: a9 23        	lda	#$23
    2ee4: 18           	clc
    2ee5: 65 12        	adc	$12                     ; 0x2012 <f256main+0x17ce>
    2ee7: 85 12        	sta	$12                     ; 0x2012 <f256main+0x17ce>
    2ee9: a9 7a        	lda	#$7a
    2eeb: 65 13        	adc	$13                     ; 0x2013 <f256main+0x17cf>
    2eed: 85 13        	sta	$13                     ; 0x2013 <f256main+0x17cf>
    2eef: a0 02        	ldy	#$2
    2ef1: b1 12        	lda	($12),y                 ; 0x2012 <f256main+0x17ce>
    2ef3: 1a           	inc
    2ef4: 91 12        	sta	($12),y                 ; 0x2012 <f256main+0x17ce>
    2ef6: a2 80        	ldx	#$80
    2ef8: 86 f3        	stx	$f3                     ; 0x20f3 <f256main+0x18af>
    2efa: a2 6f        	ldx	#$6f
    2efc: 86 12        	stx	$12                     ; 0x2012 <f256main+0x17ce>
    2efe: a2 7a        	ldx	#$7a
    2f00: 86 13        	stx	$13                     ; 0x2013 <f256main+0x17cf>
    2f02: 20 f0 ff     	jsr	$fff0 <end_block9+0x8580>
    2f05: 92 26        	sta	($26)                   ; 0x2026 <f256main+0x17e2>
    2f07: a9 00        	lda	#$0
    2f09: 6a           	ror
    2f0a: 85 12        	sta	$12                     ; 0x2012 <f256main+0x17ce>
    2f0c: b2 26        	lda	($26)                   ; 0x2026 <f256main+0x17e2>
    2f0e: 85 2f        	sta	$2f                     ; 0x202f <f256main+0x17eb>
    2f10: a5 51        	lda	$51                     ; 0x2051 <f256main+0x180d>
    2f12: a2 13        	ldx	#$13
    2f14: 86 12        	stx	$12                     ; 0x2012 <f256main+0x17ce>
    2f16: 64 13        	stz	$13                     ; 0x2013 <f256main+0x17cf>
    2f18: a2 00        	ldx	#$0
    2f1a: 20 80 51     	jsr	$5180 <__mulhi3>
    2f1d: 85 12        	sta	$12                     ; 0x2012 <f256main+0x17ce>
    2f1f: 86 13        	stx	$13                     ; 0x2013 <f256main+0x17cf>
    2f21: a9 23        	lda	#$23
    2f23: 18           	clc
    2f24: 65 12        	adc	$12                     ; 0x2012 <f256main+0x17ce>
    2f26: 85 17        	sta	$17                     ; 0x2017 <f256main+0x17d3>
    2f28: a9 7a        	lda	#$7a
    2f2a: 65 13        	adc	$13                     ; 0x2013 <f256main+0x17cf>
    2f2c: 85 16        	sta	$16                     ; 0x2016 <f256main+0x17d2>
    2f2e: a5 17        	lda	$17                     ; 0x2017 <f256main+0x17d3>
    2f30: 18           	clc
    2f31: 69 0f        	adc	#$f
    2f33: 85 14        	sta	$14                     ; 0x2014 <f256main+0x17d0>
    2f35: a5 16        	lda	$16                     ; 0x2016 <f256main+0x17d2>
    2f37: 69 00        	adc	#$0
    2f39: a6 17        	ldx	$17                     ; 0x2017 <f256main+0x17d3>
    2f3b: 86 12        	stx	$12                     ; 0x2012 <f256main+0x17ce>
    2f3d: a6 16        	ldx	$16                     ; 0x2016 <f256main+0x17d2>
    2f3f: 86 13        	stx	$13                     ; 0x2013 <f256main+0x17cf>
    2f41: 85 15        	sta	$15                     ; 0x2015 <f256main+0x17d1>
    2f43: a5 2b        	lda	$2b                     ; 0x202b <f256main+0x17e7>
    2f45: 18           	clc
    2f46: a0 0f        	ldy	#$f
    2f48: 71 12        	adc	($12),y                 ; 0x2012 <f256main+0x17ce>
    2f4a: aa           	tax
    2f4b: a5 2d        	lda	$2d                     ; 0x202d <f256main+0x17e9>
    2f4d: a0 01        	ldy	#$1
    2f4f: 71 14        	adc	($14),y                 ; 0x2014 <f256main+0x17d0>
    2f51: 86 14        	stx	$14                     ; 0x2014 <f256main+0x17d0>
    2f53: 85 15        	sta	$15                     ; 0x2015 <f256main+0x17d1>
    2f55: b2 14        	lda	($14)                   ; 0x2014 <f256main+0x17d0>
    2f57: aa           	tax
    2f58: b1 14        	lda	($14),y                 ; 0x2014 <f256main+0x17d0>
    2f5a: 86 14        	stx	$14                     ; 0x2014 <f256main+0x17d0>
    2f5c: 85 15        	sta	$15                     ; 0x2015 <f256main+0x17d1>
    2f5e: b2 14        	lda	($14)                   ; 0x2014 <f256main+0x17d0>
    2f60: aa           	tax
    2f61: 18           	clc
    2f62: a5 2f        	lda	$2f                     ; 0x202f <f256main+0x17eb>
    2f64: 75 68        	adc	$68,x                   ; 0x2068 <f256main+0x1824>
    2f66: 85 18        	sta	$18                     ; 0x2018 <f256main+0x17d4>
    2f68: a6 2a        	ldx	$2a                     ; 0x202a <f256main+0x17e6>
    2f6a: e8           	inx
    2f6b: 86 2a        	stx	$2a                     ; 0x202a <f256main+0x17e6>
    2f6d: 18           	clc
    2f6e: a5 17        	lda	$17                     ; 0x2017 <f256main+0x17d3>
    2f70: 69 11        	adc	#$11
    2f72: 85 14        	sta	$14                     ; 0x2014 <f256main+0x17d0>
    2f74: a5 16        	lda	$16                     ; 0x2016 <f256main+0x17d2>
    2f76: 69 00        	adc	#$0
    2f78: 85 15        	sta	$15                     ; 0x2015 <f256main+0x17d1>
    2f7a: 18           	clc
    2f7b: a0 0c        	ldy	#$c
    2f7d: b1 10        	lda	($10),y                 ; 0x2010 <f256main+0x17cc>
    2f7f: 85 24        	sta	$24                     ; 0x2024 <f256main+0x17e0>
    2f81: a0 11        	ldy	#$11
    2f83: 71 12        	adc	($12),y                 ; 0x2012 <f256main+0x17ce>
    2f85: 85 12        	sta	$12                     ; 0x2012 <f256main+0x17ce>
    2f87: a5 2e        	lda	$2e                     ; 0x202e <f256main+0x17ea>
    2f89: a0 01        	ldy	#$1
    2f8b: 71 14        	adc	($14),y                 ; 0x2014 <f256main+0x17d0>
    2f8d: a8           	tay
    2f8e: a6 12        	ldx	$12                     ; 0x2012 <f256main+0x17ce>
    2f90: 86 16        	stx	$16                     ; 0x2016 <f256main+0x17d2>
    2f92: 85 13        	sta	$13                     ; 0x2013 <f256main+0x17cf>
    2f94: a6 12        	ldx	$12                     ; 0x2012 <f256main+0x17ce>
    2f96: 86 14        	stx	$14                     ; 0x2014 <f256main+0x17d0>
    2f98: 85 15        	sta	$15                     ; 0x2015 <f256main+0x17d1>
    2f9a: a2 ff        	ldx	#$ff
    2f9c: c6 14        	dec	$14                     ; 0x2014 <f256main+0x17d0>
    2f9e: e4 14        	cpx	$14                     ; 0x2014 <f256main+0x17d0>
    2fa0: d0 02        	bne	$2fa4 <f256main+0x2760>
    2fa2: c6 15        	dec	$15                     ; 0x2015 <f256main+0x17d1>
    2fa4: a5 18        	lda	$18                     ; 0x2018 <f256main+0x17d4>
    2fa6: 92 14        	sta	($14)                   ; 0x2014 <f256main+0x17d0>
    2fa8: 18           	clc
    2fa9: a5 16        	lda	$16                     ; 0x2016 <f256main+0x17d2>
    2fab: 69 fe        	adc	#$fe
    2fad: 85 16        	sta	$16                     ; 0x2016 <f256main+0x17d2>
    2faf: 98           	tya
    2fb0: 69 ff        	adc	#$ff
    2fb2: 85 17        	sta	$17                     ; 0x2017 <f256main+0x17d3>
    2fb4: b2 16        	lda	($16)                   ; 0x2016 <f256main+0x17d2>
    2fb6: 85 f3        	sta	$f3                     ; 0x20f3 <f256main+0x18af>
    2fb8: b2 14        	lda	($14)                   ; 0x2014 <f256main+0x17d0>
    2fba: 85 f4        	sta	$f4                     ; 0x20f4 <f256main+0x18b0>
    2fbc: b2 12        	lda	($12)                   ; 0x2012 <f256main+0x17ce>
    2fbe: 85 f5        	sta	$f5                     ; 0x20f5 <f256main+0x18b1>
    2fc0: a2 6f        	ldx	#$6f
    2fc2: 86 12        	stx	$12                     ; 0x2012 <f256main+0x17ce>
    2fc4: a2 7a        	ldx	#$7a
    2fc6: 86 13        	stx	$13                     ; 0x2013 <f256main+0x17cf>
    2fc8: 20 f0 ff     	jsr	$fff0 <end_block9+0x8580>
    2fcb: 92 26        	sta	($26)                   ; 0x2026 <f256main+0x17e2>
    2fcd: a9 00        	lda	#$0
    2fcf: 6a           	ror
    2fd0: 85 12        	sta	$12                     ; 0x2012 <f256main+0x17ce>
    2fd2: a5 51        	lda	$51                     ; 0x2051 <f256main+0x180d>
    2fd4: a2 13        	ldx	#$13
    2fd6: 86 12        	stx	$12                     ; 0x2012 <f256main+0x17ce>
    2fd8: 64 13        	stz	$13                     ; 0x2013 <f256main+0x17cf>
    2fda: a2 00        	ldx	#$0
    2fdc: 85 2f        	sta	$2f                     ; 0x202f <f256main+0x17eb>
    2fde: 20 80 51     	jsr	$5180 <__mulhi3>
    2fe1: 85 12        	sta	$12                     ; 0x2012 <f256main+0x17ce>
    2fe3: 86 13        	stx	$13                     ; 0x2013 <f256main+0x17cf>
    2fe5: a9 23        	lda	#$23
    2fe7: 18           	clc
    2fe8: 65 12        	adc	$12                     ; 0x2012 <f256main+0x17ce>
    2fea: 85 12        	sta	$12                     ; 0x2012 <f256main+0x17ce>
    2fec: a9 7a        	lda	#$7a
    2fee: 65 13        	adc	$13                     ; 0x2013 <f256main+0x17cf>
    2ff0: 85 13        	sta	$13                     ; 0x2013 <f256main+0x17cf>
    2ff2: 18           	clc
    2ff3: a5 24        	lda	$24                     ; 0x2024 <f256main+0x17e0>
    2ff5: 69 03        	adc	#$3
    2ff7: a0 0c        	ldy	#$c
    2ff9: 91 10        	sta	($10),y                 ; 0x2010 <f256main+0x17cc>
    2ffb: a5 2e        	lda	$2e                     ; 0x202e <f256main+0x17ea>
    2ffd: 69 00        	adc	#$0
    2fff: 85 2e        	sta	$2e                     ; 0x202e <f256main+0x17ea>
    3001: 18           	clc
    3002: a5 2b        	lda	$2b                     ; 0x202b <f256main+0x17e7>
    3004: 69 02        	adc	#$2
    3006: 85 2b        	sta	$2b                     ; 0x202b <f256main+0x17e7>
    3008: a5 2d        	lda	$2d                     ; 0x202d <f256main+0x17e9>
    300a: 69 00        	adc	#$0
    300c: 85 2d        	sta	$2d                     ; 0x202d <f256main+0x17e9>
    300e: a0 04        	ldy	#$4
    3010: a5 2a        	lda	$2a                     ; 0x202a <f256main+0x17e6>
    3012: d1 12        	cmp	($12),y                 ; 0x2012 <f256main+0x17ce>
    3014: 64 24        	stz	$24                     ; 0x2024 <f256main+0x17e0>
    3016: a2 00        	ldx	#$0
    3018: 85 12        	sta	$12                     ; 0x2012 <f256main+0x17ce>
    301a: b0 03        	bcs	$301f <f256main+0x27db>
    301c: 4c 19 2e     	jmp	$2e19 <f256main+0x25d5>
    301f: 4c 13 27     	jmp	$2713 <f256main+0x1ecf>
    3022: a0 02        	ldy	#$2
    3024: e4 13        	cpx	$13                     ; 0x2013 <f256main+0x17cf>
    3026: d0 04        	bne	$302c <f256main+0x27e8>
    3028: c4 12        	cpy	$12                     ; 0x2012 <f256main+0x17ce>
    302a: 80 02        	bra	$302e <f256main+0x27ea>
    302c: e4 13        	cpx	$13                     ; 0x2013 <f256main+0x17cf>
    302e: a5 12        	lda	$12                     ; 0x2012 <f256main+0x17ce>
    3030: 90 03        	bcc	$3035 <f256main+0x27f1>
    3032: 4c a7 30     	jmp	$30a7 <f256main+0x2863>
    3035: a9 00        	lda	#$0
    3037: 20 f7 3e     	jsr	$3ef7 <highLightInstChoice>
    303a: a2 e5        	ldx	#$e5
    303c: 86 12        	stx	$12                     ; 0x2012 <f256main+0x17ce>
    303e: a2 ff        	ldx	#$ff
    3040: 86 13        	stx	$13                     ; 0x2013 <f256main+0x17cf>
    3042: e8           	inx
    3043: a0 07        	ldy	#$7
    3045: b1 10        	lda	($10),y                 ; 0x2010 <f256main+0x17cc>
    3047: 20 80 51     	jsr	$5180 <__mulhi3>
    304a: a8           	tay
    304b: a5 66        	lda	$66                     ; 0x2066 <f256main+0x1822>
    304d: 0a           	asl
    304e: 85 12        	sta	$12                     ; 0x2012 <f256main+0x17ce>
    3050: a9 00        	lda	#$0
    3052: 2a           	rol
    3053: 85 13        	sta	$13                     ; 0x2013 <f256main+0x17cf>
    3055: a9 52        	lda	#$52
    3057: 18           	clc
    3058: 65 12        	adc	$12                     ; 0x2012 <f256main+0x17ce>
    305a: 85 12        	sta	$12                     ; 0x2012 <f256main+0x17ce>
    305c: a9 00        	lda	#$0
    305e: 65 13        	adc	$13                     ; 0x2013 <f256main+0x17cf>
    3060: 85 13        	sta	$13                     ; 0x2013 <f256main+0x17cf>
    3062: 18           	clc
    3063: 98           	tya
    3064: 72 12        	adc	($12)                   ; 0x2012 <f256main+0x17ce>
    3066: 85 14        	sta	$14                     ; 0x2014 <f256main+0x17d0>
    3068: a0 01        	ldy	#$1
    306a: 8a           	txa
    306b: 71 12        	adc	($12),y                 ; 0x2012 <f256main+0x17ce>
    306d: aa           	tax
    306e: 18           	clc
    306f: a5 14        	lda	$14                     ; 0x2014 <f256main+0x17d0>
    3071: 69 fd        	adc	#$fd
    3073: 85 14        	sta	$14                     ; 0x2014 <f256main+0x17d0>
    3075: 8a           	txa
    3076: 69 ff        	adc	#$ff
    3078: aa           	tax
    3079: a5 14        	lda	$14                     ; 0x2014 <f256main+0x17d0>
    307b: 92 12        	sta	($12)                   ; 0x2012 <f256main+0x17ce>
    307d: 8a           	txa
    307e: 91 12        	sta	($12),y                 ; 0x2012 <f256main+0x17ce>
    3080: 98           	tya
    3081: 20 f7 3e     	jsr	$3ef7 <highLightInstChoice>
    3084: a5 66        	lda	$66                     ; 0x2066 <f256main+0x1822>
    3086: 85 1a        	sta	$1a                     ; 0x201a <f256main+0x17d6>
    3088: 0a           	asl
    3089: 85 12        	sta	$12                     ; 0x2012 <f256main+0x17ce>
    308b: a9 00        	lda	#$0
    308d: 2a           	rol
    308e: 85 13        	sta	$13                     ; 0x2013 <f256main+0x17cf>
    3090: a9 52        	lda	#$52
    3092: 18           	clc
    3093: 65 12        	adc	$12                     ; 0x2012 <f256main+0x17ce>
    3095: 85 12        	sta	$12                     ; 0x2012 <f256main+0x17ce>
    3097: a9 00        	lda	#$0
    3099: 65 13        	adc	$13                     ; 0x2013 <f256main+0x17cf>
    309b: 85 13        	sta	$13                     ; 0x2013 <f256main+0x17cf>
    309d: b2 12        	lda	($12)                   ; 0x2012 <f256main+0x17ce>
    309f: a2 6f        	ldx	#$6f
    30a1: 86 16        	stx	$16                     ; 0x2016 <f256main+0x17d2>
    30a3: a2 7a        	ldx	#$7a
    30a5: 86 17        	stx	$17                     ; 0x2017 <f256main+0x17d3>
    30a7: aa           	tax
    30a8: a5 1a        	lda	$1a                     ; 0x201a <f256main+0x17d6>
    30aa: 4c 2f 31     	jmp	$312f <f256main+0x28eb>
    30ad: a2 7d        	ldx	#$7d
    30af: 86 13        	stx	$13                     ; 0x2013 <f256main+0x17cf>
    30b1: 98           	tya
    30b2: a6 19        	ldx	$19                     ; 0x2019 <f256main+0x17d5>
    30b4: e4 12        	cpx	$12                     ; 0x2012 <f256main+0x17ce>
    30b6: f0 03        	beq	$30bb <f256main+0x2877>
    30b8: 4c 3d 31     	jmp	$313d <f256main+0x28f9>
    30bb: c5 13        	cmp	$13                     ; 0x2013 <f256main+0x17cf>
    30bd: 90 03        	bcc	$30c2 <f256main+0x287e>
    30bf: 4c 2c 31     	jmp	$312c <f256main+0x28e8>
    30c2: a9 00        	lda	#$0
    30c4: 20 f7 3e     	jsr	$3ef7 <highLightInstChoice>
    30c7: a2 1b        	ldx	#$1b
    30c9: a0 07        	ldy	#$7
    30cb: b1 10        	lda	($10),y                 ; 0x2010 <f256main+0x17cc>
    30cd: 20 65 51     	jsr	$5165 <__mulqi3>
    30d0: 18           	clc
    30d1: 69 03        	adc	#$3
    30d3: aa           	tax
    30d4: a5 66        	lda	$66                     ; 0x2066 <f256main+0x1822>
    30d6: 0a           	asl
    30d7: 85 12        	sta	$12                     ; 0x2012 <f256main+0x17ce>
    30d9: a9 00        	lda	#$0
    30db: 2a           	rol
    30dc: 85 13        	sta	$13                     ; 0x2013 <f256main+0x17cf>
    30de: a9 52        	lda	#$52
    30e0: 18           	clc
    30e1: 65 12        	adc	$12                     ; 0x2012 <f256main+0x17ce>
    30e3: 85 12        	sta	$12                     ; 0x2012 <f256main+0x17ce>
    30e5: a9 00        	lda	#$0
    30e7: 65 13        	adc	$13                     ; 0x2013 <f256main+0x17cf>
    30e9: 85 13        	sta	$13                     ; 0x2013 <f256main+0x17cf>
    30eb: a0 01        	ldy	#$1
    30ed: b1 12        	lda	($12),y                 ; 0x2012 <f256main+0x17ce>
    30ef: 85 15        	sta	$15                     ; 0x2015 <f256main+0x17d1>
    30f1: 18           	clc
    30f2: 8a           	txa
    30f3: 72 12        	adc	($12)                   ; 0x2012 <f256main+0x17ce>
    30f5: 85 14        	sta	$14                     ; 0x2014 <f256main+0x17d0>
    30f7: a5 15        	lda	$15                     ; 0x2015 <f256main+0x17d1>
    30f9: 69 00        	adc	#$0
    30fb: 85 15        	sta	$15                     ; 0x2015 <f256main+0x17d1>
    30fd: a5 14        	lda	$14                     ; 0x2014 <f256main+0x17d0>
    30ff: 92 12        	sta	($12)                   ; 0x2012 <f256main+0x17ce>
    3101: a5 15        	lda	$15                     ; 0x2015 <f256main+0x17d1>
    3103: 91 12        	sta	($12),y                 ; 0x2012 <f256main+0x17ce>
    3105: 98           	tya
    3106: 20 f7 3e     	jsr	$3ef7 <highLightInstChoice>
    3109: a5 66        	lda	$66                     ; 0x2066 <f256main+0x1822>
    310b: 85 18        	sta	$18                     ; 0x2018 <f256main+0x17d4>
    310d: 0a           	asl
    310e: 85 12        	sta	$12                     ; 0x2012 <f256main+0x17ce>
    3110: a9 00        	lda	#$0
    3112: 2a           	rol
    3113: 85 13        	sta	$13                     ; 0x2013 <f256main+0x17cf>
    3115: a9 52        	lda	#$52
    3117: 18           	clc
    3118: 65 12        	adc	$12                     ; 0x2012 <f256main+0x17ce>
    311a: 85 12        	sta	$12                     ; 0x2012 <f256main+0x17ce>
    311c: a9 00        	lda	#$0
    311e: 65 13        	adc	$13                     ; 0x2013 <f256main+0x17cf>
    3120: 85 13        	sta	$13                     ; 0x2013 <f256main+0x17cf>
    3122: b2 12        	lda	($12)                   ; 0x2012 <f256main+0x17ce>
    3124: a2 6f        	ldx	#$6f
    3126: 86 16        	stx	$16                     ; 0x2016 <f256main+0x17d2>
    3128: a2 7a        	ldx	#$7a
    312a: 86 17        	stx	$17                     ; 0x2017 <f256main+0x17d3>
    312c: aa           	tax
    312d: a5 18        	lda	$18                     ; 0x2018 <f256main+0x17d4>
    312f: 09 c0        	ora	#$c0
    3131: 8d a1 dd     	sta	$dda1                   ; 0xdda1 <end_block9+0x6331>
    3134: 8e a1 dd     	stx	$dda1                   ; 0xdda1 <end_block9+0x6331>
    3137: a2 01        	ldx	#$1
    3139: 8a           	txa
    313a: 4c 57 1b     	jmp	$1b57 <f256main+0x1313>
    313d: e4 12        	cpx	$12                     ; 0x2012 <f256main+0x17ce>
    313f: b0 eb        	bcs	$312c <f256main+0x28e8>
    3141: 4c c2 30     	jmp	$30c2 <f256main+0x287e>
    3144: c4 12        	cpy	$12                     ; 0x2012 <f256main+0x17ce>
    3146: a0 6f        	ldy	#$6f
    3148: 84 16        	sty	$16                     ; 0x2016 <f256main+0x17d2>
    314a: a0 7a        	ldy	#$7a
    314c: 84 17        	sty	$17                     ; 0x2017 <f256main+0x17d3>
    314e: b0 11        	bcs	$3161 <f256main+0x291d>
    3150: 18           	clc
    3151: 8a           	txa
    3152: 65 24        	adc	$24                     ; 0x2024 <f256main+0x17e0>
    3154: a8           	tay
    3155: a9 00        	lda	#$0
    3157: 65 2c        	adc	$2c                     ; 0x202c <f256main+0x17e8>
    3159: c8           	iny
    315a: d0 01        	bne	$315d <f256main+0x2919>
    315c: 1a           	inc
    315d: 84 31        	sty	$31                     ; 0x2031 <f256main+0x17ed>
    315f: 85 32        	sta	$32                     ; 0x2032 <f256main+0x17ee>
    3161: a0 06        	ldy	#$6
    3163: b1 10        	lda	($10),y                 ; 0x2010 <f256main+0x17cc>
    3165: f0 35        	beq	$319c <f256main+0x2958>
    3167: a2 57        	ldx	#$57
    3169: 86 31        	stx	$31                     ; 0x2031 <f256main+0x17ed>
    316b: 80 2d        	bra	$319a <f256main+0x2956>
    316d: 5a           	phy
    316e: a4 24        	ldy	$24                     ; 0x2024 <f256main+0x17e0>
    3170: 84 13        	sty	$13                     ; 0x2013 <f256main+0x17cf>
    3172: 7a           	ply
    3173: 84 12        	sty	$12                     ; 0x2012 <f256main+0x17ce>
    3175: e4 12        	cpx	$12                     ; 0x2012 <f256main+0x17ce>
    3177: a2 6f        	ldx	#$6f
    3179: 86 16        	stx	$16                     ; 0x2016 <f256main+0x17d2>
    317b: a2 7a        	ldx	#$7a
    317d: 86 17        	stx	$17                     ; 0x2017 <f256main+0x17d3>
    317f: b0 11        	bcs	$3192 <f256main+0x294e>
    3181: 49 ff        	eor	#$ff
    3183: 85 12        	sta	$12                     ; 0x2012 <f256main+0x17ce>
    3185: 18           	clc
    3186: a5 13        	lda	$13                     ; 0x2013 <f256main+0x17cf>
    3188: 65 12        	adc	$12                     ; 0x2012 <f256main+0x17ce>
    318a: aa           	tax
    318b: 98           	tya
    318c: 69 ff        	adc	#$ff
    318e: 86 31        	stx	$31                     ; 0x2031 <f256main+0x17ed>
    3190: 85 32        	sta	$32                     ; 0x2032 <f256main+0x17ee>
    3192: a0 06        	ldy	#$6
    3194: b1 10        	lda	($10),y                 ; 0x2010 <f256main+0x17cc>
    3196: f0 04        	beq	$319c <f256main+0x2958>
    3198: 64 31        	stz	$31                     ; 0x2031 <f256main+0x17ed>
    319a: 64 32        	stz	$32                     ; 0x2032 <f256main+0x17ee>
    319c: a9 61        	lda	#$61
    319e: 18           	clc
    319f: 65 7d        	adc	$7d                     ; 0x207d <f256main+0x1839>
    31a1: a6 01        	ldx	$1                      ; 0x2001 <f256main+0x17bd>
    31a3: a0 01        	ldy	#$1
    31a5: 84 01        	sty	$1                      ; 0x2001 <f256main+0x17bd>
    31a7: 0a           	asl
    31a8: 64 12        	stz	$12                     ; 0x2012 <f256main+0x17ce>
    31aa: 26 12        	rol	$12                     ; 0x2012 <f256main+0x17ce>
    31ac: 0a           	asl
    31ad: 85 13        	sta	$13                     ; 0x2013 <f256main+0x17cf>
    31af: 26 12        	rol	$12                     ; 0x2012 <f256main+0x17ce>
    31b1: a9 00        	lda	#$0
    31b3: 18           	clc
    31b4: 65 13        	adc	$13                     ; 0x2013 <f256main+0x17cf>
    31b6: 85 13        	sta	$13                     ; 0x2013 <f256main+0x17cf>
    31b8: a9 d0        	lda	#$d0
    31ba: 65 12        	adc	$12                     ; 0x2012 <f256main+0x17ce>
    31bc: 5a           	phy
    31bd: a4 13        	ldy	$13                     ; 0x2013 <f256main+0x17cf>
    31bf: 84 12        	sty	$12                     ; 0x2012 <f256main+0x17ce>
    31c1: 7a           	ply
    31c2: 85 13        	sta	$13                     ; 0x2013 <f256main+0x17cf>
    31c4: a9 00        	lda	#$0
    31c6: 92 12        	sta	($12)                   ; 0x2012 <f256main+0x17ce>
    31c8: 91 12        	sta	($12),y                 ; 0x2012 <f256main+0x17ce>
    31ca: a0 02        	ldy	#$2
    31cc: 91 12        	sta	($12),y                 ; 0x2012 <f256main+0x17ce>
    31ce: 3a           	dec
    31cf: c8           	iny
    31d0: 91 12        	sta	($12),y                 ; 0x2012 <f256main+0x17ce>
    31d2: 86 01        	stx	$1                      ; 0x2001 <f256main+0x17bd>
    31d4: a9 61        	lda	#$61
    31d6: 18           	clc
    31d7: 65 31        	adc	$31                     ; 0x2031 <f256main+0x17ed>
    31d9: 0a           	asl
    31da: 64 12        	stz	$12                     ; 0x2012 <f256main+0x17ce>
    31dc: 26 12        	rol	$12                     ; 0x2012 <f256main+0x17ce>
    31de: 0a           	asl
    31df: 85 13        	sta	$13                     ; 0x2013 <f256main+0x17cf>
    31e1: 26 12        	rol	$12                     ; 0x2012 <f256main+0x17ce>
    31e3: a9 00        	lda	#$0
    31e5: 18           	clc
    31e6: 65 13        	adc	$13                     ; 0x2013 <f256main+0x17cf>
    31e8: aa           	tax
    31e9: a9 d0        	lda	#$d0
    31eb: 65 12        	adc	$12                     ; 0x2012 <f256main+0x17ce>
    31ed: 86 12        	stx	$12                     ; 0x2012 <f256main+0x17ce>
    31ef: a6 01        	ldx	$1                      ; 0x2001 <f256main+0x17bd>
    31f1: a0 01        	ldy	#$1
    31f3: 84 01        	sty	$1                      ; 0x2001 <f256main+0x17bd>
    31f5: 85 13        	sta	$13                     ; 0x2013 <f256main+0x17cf>
    31f7: a9 00        	lda	#$0
    31f9: 92 12        	sta	($12)                   ; 0x2012 <f256main+0x17ce>
    31fb: 91 12        	sta	($12),y                 ; 0x2012 <f256main+0x17ce>
    31fd: 3a           	dec
    31fe: c8           	iny
    31ff: 91 12        	sta	($12),y                 ; 0x2012 <f256main+0x17ce>
    3201: c8           	iny
    3202: 91 12        	sta	($12),y                 ; 0x2012 <f256main+0x17ce>
    3204: 86 01        	stx	$1                      ; 0x2001 <f256main+0x17bd>
    3206: a6 31        	ldx	$31                     ; 0x2031 <f256main+0x17ed>
    3208: 86 7d        	stx	$7d                     ; 0x207d <f256main+0x1839>
    320a: a6 32        	ldx	$32                     ; 0x2032 <f256main+0x17ee>
    320c: 86 7e        	stx	$7e                     ; 0x207e <f256main+0x183a>
    320e: 64 12        	stz	$12                     ; 0x2012 <f256main+0x17ce>
    3210: 1a           	inc
    3211: 4c 57 1b     	jmp	$1b57 <f256main+0x1313>
    3214: aa           	tax
    3215: a5 1b        	lda	$1b                     ; 0x201b <f256main+0x17d7>
    3217: c9 00        	cmp	#$0
    3219: b0 18        	bcs	$3233 <f256main+0x29ef>
    321b: 18           	clc
    321c: 8a           	txa
    321d: 65 12        	adc	$12                     ; 0x2012 <f256main+0x17ce>
    321f: 85 12        	sta	$12                     ; 0x2012 <f256main+0x17ce>
    3221: a9 00        	lda	#$0
    3223: 65 13        	adc	$13                     ; 0x2013 <f256main+0x17cf>
    3225: aa           	tax
    3226: a5 12        	lda	$12                     ; 0x2012 <f256main+0x17ce>
    3228: 1a           	inc
    3229: d0 01        	bne	$322c <f256main+0x29e8>
    322b: e8           	inx
    322c: 92 14        	sta	($14)                   ; 0x2014 <f256main+0x17d0>
    322e: 85 12        	sta	$12                     ; 0x2012 <f256main+0x17ce>
    3230: 8a           	txa
    3231: 91 14        	sta	($14),y                 ; 0x2014 <f256main+0x17d0>
    3233: a5 12        	lda	$12                     ; 0x2012 <f256main+0x17ce>
    3235: a0 0c        	ldy	#$c
    3237: 91 10        	sta	($10),y                 ; 0x2010 <f256main+0x17cc>
    3239: a0 06        	ldy	#$6
    323b: b1 10        	lda	($10),y                 ; 0x2010 <f256main+0x17cc>
    323d: f0 12        	beq	$3251 <f256main+0x2a0d>
    323f: a9 7f        	lda	#$7f
    3241: aa           	tax
    3242: 48           	pha
    3243: 8a           	txa
    3244: a0 0c        	ldy	#$c
    3246: 91 10        	sta	($10),y                 ; 0x2010 <f256main+0x17cc>
    3248: 68           	pla
    3249: 92 14        	sta	($14)                   ; 0x2014 <f256main+0x17d0>
    324b: a9 00        	lda	#$0
    324d: a0 01        	ldy	#$1
    324f: 91 14        	sta	($14),y                 ; 0x2014 <f256main+0x17d0>
    3251: a5 1a        	lda	$1a                     ; 0x201a <f256main+0x17d6>
    3253: 09 c0        	ora	#$c0
    3255: 8d a1 dd     	sta	$dda1                   ; 0xdda1 <end_block9+0x6331>
    3258: a0 0c        	ldy	#$c
    325a: b1 10        	lda	($10),y                 ; 0x2010 <f256main+0x17cc>
    325c: aa           	tax
    325d: 80 40        	bra	$329f <f256main+0x2a5b>
    325f: 85 16        	sta	$16                     ; 0x2016 <f256main+0x17d2>
    3261: 85 14        	sta	$14                     ; 0x2014 <f256main+0x17d0>
    3263: e4 14        	cpx	$14                     ; 0x2014 <f256main+0x17d0>
    3265: 90 03        	bcc	$326a <f256main+0x2a26>
    3267: 4c a6 2b     	jmp	$2ba6 <f256main+0x2362>
    326a: a5 15        	lda	$15                     ; 0x2015 <f256main+0x17d1>
    326c: 49 ff        	eor	#$ff
    326e: 85 14        	sta	$14                     ; 0x2014 <f256main+0x17d0>
    3270: 18           	clc
    3271: a5 19        	lda	$19                     ; 0x2019 <f256main+0x17d5>
    3273: 65 14        	adc	$14                     ; 0x2014 <f256main+0x17d0>
    3275: aa           	tax
    3276: a5 16        	lda	$16                     ; 0x2016 <f256main+0x17d2>
    3278: 69 ff        	adc	#$ff
    327a: 85 14        	sta	$14                     ; 0x2014 <f256main+0x17d0>
    327c: 8a           	txa
    327d: 92 12        	sta	($12)                   ; 0x2012 <f256main+0x17ce>
    327f: a5 14        	lda	$14                     ; 0x2014 <f256main+0x17d0>
    3281: 91 12        	sta	($12),y                 ; 0x2012 <f256main+0x17ce>
    3283: 8a           	txa
    3284: 48           	pha
    3285: 5a           	phy
    3286: a0 06        	ldy	#$6
    3288: b1 10        	lda	($10),y                 ; 0x2010 <f256main+0x17cc>
    328a: 7a           	ply
    328b: aa           	tax
    328c: 68           	pla
    328d: e0 00        	cpx	#$0
    328f: f0 06        	beq	$3297 <f256main+0x2a53>
    3291: a9 00        	lda	#$0
    3293: 92 12        	sta	($12)                   ; 0x2012 <f256main+0x17ce>
    3295: 91 12        	sta	($12),y                 ; 0x2012 <f256main+0x17ce>
    3297: aa           	tax
    3298: a5 18        	lda	$18                     ; 0x2018 <f256main+0x17d4>
    329a: 09 c0        	ora	#$c0
    329c: 8d a1 dd     	sta	$dda1                   ; 0xdda1 <end_block9+0x6331>
    329f: 8e a1 dd     	stx	$dda1                   ; 0xdda1 <end_block9+0x6331>
    32a2: 20 11 3a     	jsr	$3a11 <refreshInstrumentText>
    32a5: 4c 13 1b     	jmp	$1b13 <f256main+0x12cf>
    32a8: 84 24        	sty	$24                     ; 0x2024 <f256main+0x17e0>
    32aa: a0 00        	ldy	#$0
    32ac: 84 67        	sty	$67                     ; 0x2067 <f256main+0x1823>
    32ae: 64 66        	stz	$66                     ; 0x2066 <f256main+0x1822>
    32b0: a0 90        	ldy	#$90
    32b2: 84 30        	sty	$30                     ; 0x2030 <f256main+0x17ec>
    32b4: 64 4d        	stz	$4d                     ; 0x204d <f256main+0x1809>
    32b6: 9c 14 d0     	stz	$d014                   ; 0xd014 <end_block9+0x55a4>
    32b9: 9c 15 d0     	stz	$d015                   ; 0xd015 <end_block9+0x55a5>
    32bc: a0 1e        	ldy	#$1e
    32be: 84 4e        	sty	$4e                     ; 0x204e <f256main+0x180a>
    32c0: 8c 16 d0     	sty	$d016                   ; 0xd016 <end_block9+0x55a6>
    32c3: 9c 17 d0     	stz	$d017                   ; 0xd017 <end_block9+0x55a7>
    32c6: a9 fa        	lda	#$fa
    32c8: 20 32 4e     	jsr	$4e32 <putchar>
    32cb: 64 4d        	stz	$4d                     ; 0x204d <f256main+0x1809>
    32cd: 9c 14 d0     	stz	$d014                   ; 0xd014 <end_block9+0x55a4>
    32d0: 9c 15 d0     	stz	$d015                   ; 0xd015 <end_block9+0x55a5>
    32d3: a2 1f        	ldx	#$1f
    32d5: 86 4e        	stx	$4e                     ; 0x204e <f256main+0x180a>
    32d7: 8e 16 d0     	stx	$d016                   ; 0xd016 <end_block9+0x55a6>
    32da: 9c 17 d0     	stz	$d017                   ; 0xd017 <end_block9+0x55a7>
    32dd: a5 24        	lda	$24                     ; 0x2024 <f256main+0x17e0>
    32df: d0 15        	bne	$32f6 <f256main+0x2ab2>
    32e1: a2 f9        	ldx	#$f9
    32e3: 86 2c        	stx	$2c                     ; 0x202c <f256main+0x17e8>
    32e5: a2 6f        	ldx	#$6f
    32e7: 86 2d        	stx	$2d                     ; 0x202d <f256main+0x17e9>
    32e9: a2 f9        	ldx	#$f9
    32eb: 86 12        	stx	$12                     ; 0x2012 <f256main+0x17ce>
    32ed: a2 6f        	ldx	#$6f
    32ef: 86 13        	stx	$13                     ; 0x2013 <f256main+0x17cf>
    32f1: 20 22 35     	jsr	$3522 <textPrint>
    32f4: 80 0f        	bra	$3305 <f256main+0x2ac1>
    32f6: a2 00        	ldx	#$0
    32f8: a9 fa        	lda	#$fa
    32fa: 20 32 4e     	jsr	$4e32 <putchar>
    32fd: a2 f9        	ldx	#$f9
    32ff: 86 2c        	stx	$2c                     ; 0x202c <f256main+0x17e8>
    3301: a2 6f        	ldx	#$6f
    3303: 86 2d        	stx	$2d                     ; 0x202d <f256main+0x17e9>
    3305: 64 4d        	stz	$4d                     ; 0x204d <f256main+0x1809>
    3307: 9c 14 d0     	stz	$d014                   ; 0xd014 <end_block9+0x55a4>
    330a: 9c 15 d0     	stz	$d015                   ; 0xd015 <end_block9+0x55a5>
    330d: a2 20        	ldx	#$20
    330f: 86 4e        	stx	$4e                     ; 0x204e <f256main+0x180a>
    3311: 8e 16 d0     	stx	$d016                   ; 0xd016 <end_block9+0x55a6>
    3314: 9c 17 d0     	stz	$d017                   ; 0xd017 <end_block9+0x55a7>
    3317: a2 f9        	ldx	#$f9
    3319: 86 12        	stx	$12                     ; 0x2012 <f256main+0x17ce>
    331b: a2 6f        	ldx	#$6f
    331d: 86 13        	stx	$13                     ; 0x2013 <f256main+0x17cf>
    331f: 20 22 35     	jsr	$3522 <textPrint>
    3322: 80 04        	bra	$3328 <f256main+0x2ae4>
    3324: a2 09        	ldx	#$9
    3326: 86 66        	stx	$66                     ; 0x2066 <f256main+0x1822>
    3328: 20 2e 3d     	jsr	$3d2e <channelTextMenu>
    332b: 20 11 3a     	jsr	$3a11 <refreshInstrumentText>
    332e: a2 b0        	ldx	#$b0
    3330: 8e a1 dd     	stx	$dda1                   ; 0xdda1 <end_block9+0x6331>
    3333: a2 7b        	ldx	#$7b
    3335: 8e a1 dd     	stx	$dda1                   ; 0xdda1 <end_block9+0x6331>
    3338: 9c a1 dd     	stz	$dda1                   ; 0xdda1 <end_block9+0x6331>
    333b: a0 b1        	ldy	#$b1
    333d: 8c a1 dd     	sty	$dda1                   ; 0xdda1 <end_block9+0x6331>
    3340: 8e a1 dd     	stx	$dda1                   ; 0xdda1 <end_block9+0x6331>
    3343: 9c a1 dd     	stz	$dda1                   ; 0xdda1 <end_block9+0x6331>
    3346: a0 b9        	ldy	#$b9
    3348: 8c a1 dd     	sty	$dda1                   ; 0xdda1 <end_block9+0x6331>
    334b: 8e a1 dd     	stx	$dda1                   ; 0xdda1 <end_block9+0x6331>
    334e: 9c a1 dd     	stz	$dda1                   ; 0xdda1 <end_block9+0x6331>
    3351: 4c 13 1b     	jmp	$1b13 <f256main+0x12cf>
    3354: 64 12        	stz	$12                     ; 0x2012 <f256main+0x17ce>
    3356: 4c a7 21     	jmp	$21a7 <f256main+0x1963>
    3359: a2 13        	ldx	#$13
    335b: 86 12        	stx	$12                     ; 0x2012 <f256main+0x17ce>
    335d: 64 13        	stz	$13                     ; 0x2013 <f256main+0x17cf>
    335f: a2 00        	ldx	#$0
    3361: a5 2f        	lda	$2f                     ; 0x202f <f256main+0x17eb>
    3363: 20 80 51     	jsr	$5180 <__mulhi3>
    3366: 85 12        	sta	$12                     ; 0x2012 <f256main+0x17ce>
    3368: 86 13        	stx	$13                     ; 0x2013 <f256main+0x17cf>
    336a: a9 23        	lda	#$23
    336c: 18           	clc
    336d: 65 12        	adc	$12                     ; 0x2012 <f256main+0x17ce>
    336f: 85 16        	sta	$16                     ; 0x2016 <f256main+0x17d2>
    3371: a9 7a        	lda	#$7a
    3373: 65 13        	adc	$13                     ; 0x2013 <f256main+0x17cf>
    3375: a6 16        	ldx	$16                     ; 0x2016 <f256main+0x17d2>
    3377: 86 12        	stx	$12                     ; 0x2012 <f256main+0x17ce>
    3379: 85 13        	sta	$13                     ; 0x2013 <f256main+0x17cf>
    337b: aa           	tax
    337c: a5 16        	lda	$16                     ; 0x2016 <f256main+0x17d2>
    337e: 18           	clc
    337f: 69 07        	adc	#$7
    3381: 85 14        	sta	$14                     ; 0x2014 <f256main+0x17d0>
    3383: 8a           	txa
    3384: 69 00        	adc	#$0
    3386: 85 15        	sta	$15                     ; 0x2015 <f256main+0x17d1>
    3388: a0 07        	ldy	#$7
    338a: b1 12        	lda	($12),y                 ; 0x2012 <f256main+0x17ce>
    338c: 85 17        	sta	$17                     ; 0x2017 <f256main+0x17d3>
    338e: a0 01        	ldy	#$1
    3390: b1 14        	lda	($14),y                 ; 0x2014 <f256main+0x17d0>
    3392: a4 17        	ldy	$17                     ; 0x2017 <f256main+0x17d3>
    3394: 84 14        	sty	$14                     ; 0x2014 <f256main+0x17d0>
    3396: 85 15        	sta	$15                     ; 0x2015 <f256main+0x17d1>
    3398: a4 16        	ldy	$16                     ; 0x2016 <f256main+0x17d2>
    339a: 84 1a        	sty	$1a                     ; 0x201a <f256main+0x17d6>
    339c: a5 16        	lda	$16                     ; 0x2016 <f256main+0x17d2>
    339e: 18           	clc
    339f: 69 0b        	adc	#$b
    33a1: 85 16        	sta	$16                     ; 0x2016 <f256main+0x17d2>
    33a3: 86 1b        	stx	$1b                     ; 0x201b <f256main+0x17d7>
    33a5: 8a           	txa
    33a6: 69 00        	adc	#$0
    33a8: 85 17        	sta	$17                     ; 0x2017 <f256main+0x17d3>
    33aa: b2 14        	lda	($14)                   ; 0x2014 <f256main+0x17d0>
    33ac: 1a           	inc
    33ad: 92 14        	sta	($14)                   ; 0x2014 <f256main+0x17d0>
    33af: aa           	tax
    33b0: a0 0b        	ldy	#$b
    33b2: b1 12        	lda	($12),y                 ; 0x2012 <f256main+0x17ce>
    33b4: 85 18        	sta	$18                     ; 0x2018 <f256main+0x17d4>
    33b6: a0 01        	ldy	#$1
    33b8: b1 16        	lda	($16),y                 ; 0x2016 <f256main+0x17d2>
    33ba: 85 19        	sta	$19                     ; 0x2019 <f256main+0x17d5>
    33bc: 8a           	txa
    33bd: d2 18        	cmp	($18)                   ; 0x2018 <f256main+0x17d4>
    33bf: d0 05        	bne	$33c6 <f256main+0x2b82>
    33c1: a9 00        	lda	#$0
    33c3: 92 14        	sta	($14)                   ; 0x2014 <f256main+0x17d0>
    33c5: aa           	tax
    33c6: a4 1a        	ldy	$1a                     ; 0x201a <f256main+0x17d6>
    33c8: 84 16        	sty	$16                     ; 0x2016 <f256main+0x17d2>
    33ca: a5 1b        	lda	$1b                     ; 0x201b <f256main+0x17d7>
    33cc: 85 17        	sta	$17                     ; 0x2017 <f256main+0x17d3>
    33ce: 85 15        	sta	$15                     ; 0x2015 <f256main+0x17d1>
    33d0: 18           	clc
    33d1: a5 1a        	lda	$1a                     ; 0x201a <f256main+0x17d6>
    33d3: 69 09        	adc	#$9
    33d5: 85 14        	sta	$14                     ; 0x2014 <f256main+0x17d0>
    33d7: a5 15        	lda	$15                     ; 0x2015 <f256main+0x17d1>
    33d9: 69 00        	adc	#$0
    33db: 85 15        	sta	$15                     ; 0x2015 <f256main+0x17d1>
    33dd: a0 09        	ldy	#$9
    33df: b1 12        	lda	($12),y                 ; 0x2012 <f256main+0x17ce>
    33e1: 85 18        	sta	$18                     ; 0x2018 <f256main+0x17d4>
    33e3: a0 01        	ldy	#$1
    33e5: b1 14        	lda	($14),y                 ; 0x2014 <f256main+0x17d0>
    33e7: 5a           	phy
    33e8: a4 18        	ldy	$18                     ; 0x2018 <f256main+0x17d4>
    33ea: 84 14        	sty	$14                     ; 0x2014 <f256main+0x17d0>
    33ec: 7a           	ply
    33ed: 85 15        	sta	$15                     ; 0x2015 <f256main+0x17d1>
    33ef: b2 14        	lda	($14)                   ; 0x2014 <f256main+0x17d0>
    33f1: 85 18        	sta	$18                     ; 0x2018 <f256main+0x17d4>
    33f3: b1 14        	lda	($14),y                 ; 0x2014 <f256main+0x17d0>
    33f5: a4 18        	ldy	$18                     ; 0x2018 <f256main+0x17d4>
    33f7: 84 14        	sty	$14                     ; 0x2014 <f256main+0x17d0>
    33f9: 85 15        	sta	$15                     ; 0x2015 <f256main+0x17d1>
    33fb: da           	phx
    33fc: 7a           	ply
    33fd: b1 14        	lda	($14),y                 ; 0x2014 <f256main+0x17d0>
    33ff: 85 18        	sta	$18                     ; 0x2018 <f256main+0x17d4>
    3401: 18           	clc
    3402: a5 16        	lda	$16                     ; 0x2016 <f256main+0x17d2>
    3404: 69 05        	adc	#$5
    3406: 85 14        	sta	$14                     ; 0x2014 <f256main+0x17d0>
    3408: a5 17        	lda	$17                     ; 0x2017 <f256main+0x17d3>
    340a: 69 00        	adc	#$0
    340c: 85 15        	sta	$15                     ; 0x2015 <f256main+0x17d1>
    340e: a0 05        	ldy	#$5
    3410: b1 12        	lda	($12),y                 ; 0x2012 <f256main+0x17ce>
    3412: 85 12        	sta	$12                     ; 0x2012 <f256main+0x17ce>
    3414: a0 01        	ldy	#$1
    3416: b1 14        	lda	($14),y                 ; 0x2014 <f256main+0x17d0>
    3418: 85 13        	sta	$13                     ; 0x2013 <f256main+0x17cf>
    341a: a9 90        	lda	#$90
    341c: 12 12        	ora	($12)                   ; 0x2012 <f256main+0x17ce>
    341e: 8d a1 dd     	sta	$dda1                   ; 0xdda1 <end_block9+0x6331>
    3421: a6 18        	ldx	$18                     ; 0x2018 <f256main+0x17d4>
    3423: 8e a1 dd     	stx	$dda1                   ; 0xdda1 <end_block9+0x6331>
    3426: a2 7f        	ldx	#$7f
    3428: 8e a1 dd     	stx	$dda1                   ; 0xdda1 <end_block9+0x6331>
    342b: a5 51        	lda	$51                     ; 0x2051 <f256main+0x180d>
    342d: a2 13        	ldx	#$13
    342f: 86 12        	stx	$12                     ; 0x2012 <f256main+0x17ce>
    3431: 64 13        	stz	$13                     ; 0x2013 <f256main+0x17cf>
    3433: a2 00        	ldx	#$0
    3435: 20 80 51     	jsr	$5180 <__mulhi3>
    3438: 85 12        	sta	$12                     ; 0x2012 <f256main+0x17ce>
    343a: 86 13        	stx	$13                     ; 0x2013 <f256main+0x17cf>
    343c: a9 23        	lda	#$23
    343e: 18           	clc
    343f: 65 12        	adc	$12                     ; 0x2012 <f256main+0x17ce>
    3441: 85 12        	sta	$12                     ; 0x2012 <f256main+0x17ce>
    3443: a9 7a        	lda	#$7a
    3445: 65 13        	adc	$13                     ; 0x2013 <f256main+0x17cf>
    3447: 85 13        	sta	$13                     ; 0x2013 <f256main+0x17cf>
    3449: a0 02        	ldy	#$2
    344b: b1 12        	lda	($12),y                 ; 0x2012 <f256main+0x17ce>
    344d: 1a           	inc
    344e: 91 12        	sta	($12),y                 ; 0x2012 <f256main+0x17ce>
    3450: a2 80        	ldx	#$80
    3452: 86 f3        	stx	$f3                     ; 0x20f3 <f256main+0x18af>
    3454: a2 6f        	ldx	#$6f
    3456: 86 12        	stx	$12                     ; 0x2012 <f256main+0x17ce>
    3458: a2 7a        	ldx	#$7a
    345a: 86 13        	stx	$13                     ; 0x2013 <f256main+0x17cf>
    345c: 20 f0 ff     	jsr	$fff0 <end_block9+0x8580>
    345f: 92 26        	sta	($26)                   ; 0x2026 <f256main+0x17e2>
    3461: a9 00        	lda	#$0
    3463: 6a           	ror
    3464: 85 12        	sta	$12                     ; 0x2012 <f256main+0x17ce>
    3466: b2 26        	lda	($26)                   ; 0x2026 <f256main+0x17e2>
    3468: 85 24        	sta	$24                     ; 0x2024 <f256main+0x17e0>
    346a: a5 51        	lda	$51                     ; 0x2051 <f256main+0x180d>
    346c: a2 13        	ldx	#$13
    346e: 86 12        	stx	$12                     ; 0x2012 <f256main+0x17ce>
    3470: 64 13        	stz	$13                     ; 0x2013 <f256main+0x17cf>
    3472: a2 00        	ldx	#$0
    3474: 20 80 51     	jsr	$5180 <__mulhi3>
    3477: 85 12        	sta	$12                     ; 0x2012 <f256main+0x17ce>
    3479: 86 13        	stx	$13                     ; 0x2013 <f256main+0x17cf>
    347b: a9 23        	lda	#$23
    347d: 18           	clc
    347e: 65 12        	adc	$12                     ; 0x2012 <f256main+0x17ce>
    3480: aa           	tax
    3481: a9 7a        	lda	#$7a
    3483: 65 13        	adc	$13                     ; 0x2013 <f256main+0x17cf>
    3485: 85 19        	sta	$19                     ; 0x2019 <f256main+0x17d5>
    3487: 86 12        	stx	$12                     ; 0x2012 <f256main+0x17ce>
    3489: 85 13        	sta	$13                     ; 0x2013 <f256main+0x17cf>
    348b: 8a           	txa
    348c: 86 1a        	stx	$1a                     ; 0x201a <f256main+0x17d6>
    348e: 18           	clc
    348f: 69 0f        	adc	#$f
    3491: 85 14        	sta	$14                     ; 0x2014 <f256main+0x17d0>
    3493: a5 19        	lda	$19                     ; 0x2019 <f256main+0x17d5>
    3495: 69 00        	adc	#$0
    3497: 85 15        	sta	$15                     ; 0x2015 <f256main+0x17d1>
    3499: a0 0f        	ldy	#$f
    349b: b1 12        	lda	($12),y                 ; 0x2012 <f256main+0x17ce>
    349d: aa           	tax
    349e: a0 01        	ldy	#$1
    34a0: b1 14        	lda	($14),y                 ; 0x2014 <f256main+0x17d0>
    34a2: 86 14        	stx	$14                     ; 0x2014 <f256main+0x17d0>
    34a4: 85 15        	sta	$15                     ; 0x2015 <f256main+0x17d1>
    34a6: b2 14        	lda	($14)                   ; 0x2014 <f256main+0x17d0>
    34a8: aa           	tax
    34a9: b1 14        	lda	($14),y                 ; 0x2014 <f256main+0x17d0>
    34ab: 86 14        	stx	$14                     ; 0x2014 <f256main+0x17d0>
    34ad: 85 15        	sta	$15                     ; 0x2015 <f256main+0x17d1>
    34af: a5 1a        	lda	$1a                     ; 0x201a <f256main+0x17d6>
    34b1: 18           	clc
    34b2: 69 07        	adc	#$7
    34b4: 85 16        	sta	$16                     ; 0x2016 <f256main+0x17d2>
    34b6: a5 19        	lda	$19                     ; 0x2019 <f256main+0x17d5>
    34b8: 69 00        	adc	#$0
    34ba: 85 17        	sta	$17                     ; 0x2017 <f256main+0x17d3>
    34bc: a0 07        	ldy	#$7
    34be: b1 12        	lda	($12),y                 ; 0x2012 <f256main+0x17ce>
    34c0: aa           	tax
    34c1: a0 01        	ldy	#$1
    34c3: b1 16        	lda	($16),y                 ; 0x2016 <f256main+0x17d2>
    34c5: 86 16        	stx	$16                     ; 0x2016 <f256main+0x17d2>
    34c7: 85 17        	sta	$17                     ; 0x2017 <f256main+0x17d3>
    34c9: b2 16        	lda	($16)                   ; 0x2016 <f256main+0x17d2>
    34cb: a2 6f        	ldx	#$6f
    34cd: 86 16        	stx	$16                     ; 0x2016 <f256main+0x17d2>
    34cf: a2 7a        	ldx	#$7a
    34d1: 86 17        	stx	$17                     ; 0x2017 <f256main+0x17d3>
    34d3: a8           	tay
    34d4: b1 14        	lda	($14),y                 ; 0x2014 <f256main+0x17d0>
    34d6: aa           	tax
    34d7: 18           	clc
    34d8: a5 24        	lda	$24                     ; 0x2024 <f256main+0x17e0>
    34da: 75 68        	adc	$68,x                   ; 0x2068 <f256main+0x1824>
    34dc: 85 18        	sta	$18                     ; 0x2018 <f256main+0x17d4>
    34de: 18           	clc
    34df: a5 1a        	lda	$1a                     ; 0x201a <f256main+0x17d6>
    34e1: 69 11        	adc	#$11
    34e3: 85 14        	sta	$14                     ; 0x2014 <f256main+0x17d0>
    34e5: a5 19        	lda	$19                     ; 0x2019 <f256main+0x17d5>
    34e7: 69 00        	adc	#$0
    34e9: 85 15        	sta	$15                     ; 0x2015 <f256main+0x17d1>
    34eb: a0 11        	ldy	#$11
    34ed: b1 12        	lda	($12),y                 ; 0x2012 <f256main+0x17ce>
    34ef: 85 12        	sta	$12                     ; 0x2012 <f256main+0x17ce>
    34f1: a0 01        	ldy	#$1
    34f3: b1 14        	lda	($14),y                 ; 0x2014 <f256main+0x17d0>
    34f5: 85 13        	sta	$13                     ; 0x2013 <f256main+0x17cf>
    34f7: a5 18        	lda	$18                     ; 0x2018 <f256main+0x17d4>
    34f9: 91 12        	sta	($12),y                 ; 0x2012 <f256main+0x17ce>
    34fb: b2 12        	lda	($12)                   ; 0x2012 <f256main+0x17ce>
    34fd: 85 f3        	sta	$f3                     ; 0x20f3 <f256main+0x18af>
    34ff: b1 12        	lda	($12),y                 ; 0x2012 <f256main+0x17ce>
    3501: 85 f4        	sta	$f4                     ; 0x20f4 <f256main+0x18b0>
    3503: c8           	iny
    3504: b1 12        	lda	($12),y                 ; 0x2012 <f256main+0x17ce>
    3506: 85 f5        	sta	$f5                     ; 0x20f5 <f256main+0x18b1>
    3508: a5 2c        	lda	$2c                     ; 0x202c <f256main+0x17e8>
    350a: a0 0c        	ldy	#$c
    350c: 91 10        	sta	($10),y                 ; 0x2010 <f256main+0x17cc>
    350e: 64 12        	stz	$12                     ; 0x2012 <f256main+0x17ce>
    3510: a9 00        	lda	#$0
    3512: 88           	dey
    3513: 91 10        	sta	($10),y                 ; 0x2010 <f256main+0x17cc>
    3515: 20 f0 ff     	jsr	$fff0 <end_block9+0x8580>
    3518: 92 26        	sta	($26)                   ; 0x2026 <f256main+0x17e2>
    351a: a9 00        	lda	#$0
    351c: 6a           	ror
    351d: 85 16        	sta	$16                     ; 0x2016 <f256main+0x17d2>
    351f: 4c c7 16     	jmp	$16c7 <f256main+0xe83>

00003522 <textPrint>:
    3522: a6 01        	ldx	$1                      ; 0x2001 <f256main+0x17bd>
    3524: 86 e0        	stx	$e0                     ; 0x20e0 <f256main+0x189c>
    3526: a6 4e        	ldx	$4e                     ; 0x204e <f256main+0x180a>
    3528: a0 50        	ldy	#$50
    352a: 8c 00 de     	sty	$de00                   ; 0xde00 <end_block9+0x6390>
    352d: 9c 01 de     	stz	$de01                   ; 0xde01 <end_block9+0x6391>
    3530: 8e 02 de     	stx	$de02                   ; 0xde02 <end_block9+0x6392>
    3533: 9c 03 de     	stz	$de03                   ; 0xde03 <end_block9+0x6393>
    3536: ae 10 de     	ldx	$de10                   ; 0xde10 <end_block9+0x63a0>
    3539: ac 11 de     	ldy	$de11                   ; 0xde11 <end_block9+0x63a1>
    353c: 84 15        	sty	$15                     ; 0x2015 <f256main+0x17d1>
    353e: ad 12 de     	lda	$de12                   ; 0xde12 <end_block9+0x63a2>
    3541: ac 13 de     	ldy	$de13                   ; 0xde13 <end_block9+0x63a3>
    3544: 84 1c        	sty	$1c                     ; 0x201c <f256main+0x17d8>
    3546: 9c 08 de     	stz	$de08                   ; 0xde08 <end_block9+0x6398>
    3549: a0 c0        	ldy	#$c0
    354b: 8c 09 de     	sty	$de09                   ; 0xde09 <end_block9+0x6399>
    354e: 9c 0a de     	stz	$de0a                   ; 0xde0a <end_block9+0x639a>
    3551: 9c 0b de     	stz	$de0b                   ; 0xde0b <end_block9+0x639b>
    3554: 8e 0c de     	stx	$de0c                   ; 0xde0c <end_block9+0x639c>
    3557: 64 14        	stz	$14                     ; 0x2014 <f256main+0x17d0>
    3559: a2 00        	ldx	#$0
    355b: 86 16        	stx	$16                     ; 0x2016 <f256main+0x17d2>
    355d: a2 c0        	ldx	#$c0
    355f: 86 17        	stx	$17                     ; 0x2017 <f256main+0x17d3>
    3561: a2 11        	ldx	#$11
    3563: 86 18        	stx	$18                     ; 0x2018 <f256main+0x17d4>
    3565: a2 c9        	ldx	#$c9
    3567: 86 19        	stx	$19                     ; 0x2019 <f256main+0x17d5>
    3569: a2 10        	ldx	#$10
    356b: 86 1a        	stx	$1a                     ; 0x201a <f256main+0x17d6>
    356d: a2 c9        	ldx	#$c9
    356f: 86 1b        	stx	$1b                     ; 0x201b <f256main+0x17d7>
    3571: a6 15        	ldx	$15                     ; 0x2015 <f256main+0x17d1>
    3573: 8e 0d de     	stx	$de0d                   ; 0xde0d <end_block9+0x639d>
    3576: 8d 0e de     	sta	$de0e                   ; 0xde0e <end_block9+0x639e>
    3579: a6 1c        	ldx	$1c                     ; 0x201c <f256main+0x17d8>
    357b: 8e 0f de     	stx	$de0f                   ; 0xde0f <end_block9+0x639f>
    357e: ac 18 de     	ldy	$de18                   ; 0xde18 <end_block9+0x63a8>
    3581: ad 19 de     	lda	$de19                   ; 0xde19 <end_block9+0x63a9>
    3584: ae 1a de     	ldx	$de1a                   ; 0xde1a <end_block9+0x63aa>
    3587: ae 1b de     	ldx	$de1b                   ; 0xde1b <end_block9+0x63ab>
    358a: 84 1c        	sty	$1c                     ; 0x201c <f256main+0x17d8>
    358c: 85 1d        	sta	$1d                     ; 0x201d <f256main+0x17d9>
    358e: 64 15        	stz	$15                     ; 0x2015 <f256main+0x17d1>
    3590: 80 13        	bra	$35a5 <textPrint+0x83>
    3592: a5 1c        	lda	$1c                     ; 0x201c <f256main+0x17d8>
    3594: 18           	clc
    3595: 69 50        	adc	#$50
    3597: 85 1c        	sta	$1c                     ; 0x201c <f256main+0x17d8>
    3599: a5 1d        	lda	$1d                     ; 0x201d <f256main+0x17d9>
    359b: 69 00        	adc	#$0
    359d: 85 1d        	sta	$1d                     ; 0x201d <f256main+0x17d9>
    359f: e6 14        	inc	$14                     ; 0x2014 <f256main+0x17d0>
    35a1: d0 02        	bne	$35a5 <textPrint+0x83>
    35a3: e6 15        	inc	$15                     ; 0x2015 <f256main+0x17d1>
    35a5: a5 12        	lda	$12                     ; 0x2012 <f256main+0x17ce>
    35a7: 18           	clc
    35a8: 65 14        	adc	$14                     ; 0x2014 <f256main+0x17d0>
    35aa: 85 1e        	sta	$1e                     ; 0x201e <f256main+0x17da>
    35ac: a5 13        	lda	$13                     ; 0x2013 <f256main+0x17cf>
    35ae: 65 15        	adc	$15                     ; 0x2015 <f256main+0x17d1>
    35b0: 85 1f        	sta	$1f                     ; 0x201f <f256main+0x17db>
    35b2: b2 1e        	lda	($1e)                   ; 0x201e <f256main+0x17da>
    35b4: c9 0a        	cmp	#$a
    35b6: f0 26        	beq	$35de <textPrint+0xbc>
    35b8: c9 0d        	cmp	#$d
    35ba: f0 22        	beq	$35de <textPrint+0xbc>
    35bc: aa           	tax
    35bd: d0 03        	bne	$35c2 <textPrint+0xa0>
    35bf: 4c c3 36     	jmp	$36c3 <textPrint+0x1a1>
    35c2: a2 03        	ldx	#$3
    35c4: 86 01        	stx	$1                      ; 0x2001 <f256main+0x17bd>
    35c6: a5 30        	lda	$30                     ; 0x2030 <f256main+0x17ec>
    35c8: a4 4d        	ldy	$4d                     ; 0x204d <f256main+0x1809>
    35ca: 91 1c        	sta	($1c),y                 ; 0x201c <f256main+0x17d8>
    35cc: ca           	dex
    35cd: 86 01        	stx	$1                      ; 0x2001 <f256main+0x17bd>
    35cf: b2 1e        	lda	($1e)                   ; 0x201e <f256main+0x17da>
    35d1: a4 4d        	ldy	$4d                     ; 0x204d <f256main+0x1809>
    35d3: 91 1c        	sta	($1c),y                 ; 0x201c <f256main+0x17d8>
    35d5: a6 4d        	ldx	$4d                     ; 0x204d <f256main+0x1809>
    35d7: e8           	inx
    35d8: e6 4d        	inc	$4d                     ; 0x204d <f256main+0x1809>
    35da: e0 50        	cpx	#$50
    35dc: d0 c1        	bne	$359f <textPrint+0x7d>
    35de: 64 4d        	stz	$4d                     ; 0x204d <f256main+0x1809>
    35e0: a6 4e        	ldx	$4e                     ; 0x204e <f256main+0x180a>
    35e2: e8           	inx
    35e3: e6 4e        	inc	$4e                     ; 0x204e <f256main+0x180a>
    35e5: e0 1e        	cpx	#$1e
    35e7: f0 03        	beq	$35ec <textPrint+0xca>
    35e9: 4c 92 35     	jmp	$3592 <textPrint+0x70>
    35ec: a2 03        	ldx	#$3
    35ee: 86 01        	stx	$1                      ; 0x2001 <f256main+0x17bd>
    35f0: a2 01        	ldx	#$1
    35f2: 86 1c        	stx	$1c                     ; 0x201c <f256main+0x17d8>
    35f4: a2 09        	ldx	#$9
    35f6: a9 10        	lda	#$10
    35f8: a0 00        	ldy	#$0
    35fa: 84 1e        	sty	$1e                     ; 0x201e <f256main+0x17da>
    35fc: a0 c0        	ldy	#$c0
    35fe: 84 1f        	sty	$1f                     ; 0x201f <f256main+0x17db>
    3600: 85 1d        	sta	$1d                     ; 0x201d <f256main+0x17d9>
    3602: a0 50        	ldy	#$50
    3604: b1 1e        	lda	($1e),y                 ; 0x201e <f256main+0x17da>
    3606: 92 1e        	sta	($1e)                   ; 0x201e <f256main+0x17da>
    3608: a9 ff        	lda	#$ff
    360a: c6 1d        	dec	$1d                     ; 0x201d <f256main+0x17d9>
    360c: c5 1d        	cmp	$1d                     ; 0x201d <f256main+0x17d9>
    360e: d0 01        	bne	$3611 <textPrint+0xef>
    3610: ca           	dex
    3611: e6 1e        	inc	$1e                     ; 0x201e <f256main+0x17da>
    3613: d0 02        	bne	$3617 <textPrint+0xf5>
    3615: e6 1f        	inc	$1f                     ; 0x201f <f256main+0x17db>
    3617: 8a           	txa
    3618: d0 ea        	bne	$3604 <textPrint+0xe2>
    361a: a5 1d        	lda	$1d                     ; 0x201d <f256main+0x17d9>
    361c: d0 e6        	bne	$3604 <textPrint+0xe2>
    361e: a2 02        	ldx	#$2
    3620: 86 01        	stx	$1                      ; 0x2001 <f256main+0x17bd>
    3622: a2 00        	ldx	#$0
    3624: a5 1c        	lda	$1c                     ; 0x201c <f256main+0x17d8>
    3626: d0 ca        	bne	$35f2 <textPrint+0xd0>
    3628: a2 03        	ldx	#$3
    362a: 86 01        	stx	$1                      ; 0x2001 <f256main+0x17bd>
    362c: a5 30        	lda	$30                     ; 0x2030 <f256main+0x17ec>
    362e: a2 50        	ldx	#$50
    3630: a0 11        	ldy	#$11
    3632: 84 1c        	sty	$1c                     ; 0x201c <f256main+0x17d8>
    3634: a0 c9        	ldy	#$c9
    3636: 84 1d        	sty	$1d                     ; 0x201d <f256main+0x17d9>
    3638: a0 10        	ldy	#$10
    363a: 84 1e        	sty	$1e                     ; 0x201e <f256main+0x17da>
    363c: a0 c9        	ldy	#$c9
    363e: 84 1f        	sty	$1f                     ; 0x201f <f256main+0x17db>
    3640: a4 1c        	ldy	$1c                     ; 0x201c <f256main+0x17d8>
    3642: 84 22        	sty	$22                     ; 0x2022 <f256main+0x17de>
    3644: a4 1d        	ldy	$1d                     ; 0x201d <f256main+0x17d9>
    3646: 84 23        	sty	$23                     ; 0x2023 <f256main+0x17df>
    3648: 92 1e        	sta	($1e)                   ; 0x201e <f256main+0x17da>
    364a: e6 1c        	inc	$1c                     ; 0x201c <f256main+0x17d8>
    364c: d0 02        	bne	$3650 <textPrint+0x12e>
    364e: e6 1d        	inc	$1d                     ; 0x201d <f256main+0x17d9>
    3650: ca           	dex
    3651: a4 22        	ldy	$22                     ; 0x2022 <f256main+0x17de>
    3653: 84 1e        	sty	$1e                     ; 0x201e <f256main+0x17da>
    3655: a4 23        	ldy	$23                     ; 0x2023 <f256main+0x17df>
    3657: 84 1f        	sty	$1f                     ; 0x201f <f256main+0x17db>
    3659: e0 00        	cpx	#$0
    365b: d0 e3        	bne	$3640 <textPrint+0x11e>
    365d: a2 02        	ldx	#$2
    365f: 86 01        	stx	$1                      ; 0x2001 <f256main+0x17bd>
    3661: a2 50        	ldx	#$50
    3663: a0 11        	ldy	#$11
    3665: 84 1c        	sty	$1c                     ; 0x201c <f256main+0x17d8>
    3667: a0 c9        	ldy	#$c9
    3669: 84 1d        	sty	$1d                     ; 0x201d <f256main+0x17d9>
    366b: a0 10        	ldy	#$10
    366d: 84 1e        	sty	$1e                     ; 0x201e <f256main+0x17da>
    366f: a0 c9        	ldy	#$c9
    3671: 84 1f        	sty	$1f                     ; 0x201f <f256main+0x17db>
    3673: a9 20        	lda	#$20
    3675: a4 1c        	ldy	$1c                     ; 0x201c <f256main+0x17d8>
    3677: 84 22        	sty	$22                     ; 0x2022 <f256main+0x17de>
    3679: a4 1d        	ldy	$1d                     ; 0x201d <f256main+0x17d9>
    367b: 84 23        	sty	$23                     ; 0x2023 <f256main+0x17df>
    367d: 92 1e        	sta	($1e)                   ; 0x201e <f256main+0x17da>
    367f: e6 1c        	inc	$1c                     ; 0x201c <f256main+0x17d8>
    3681: d0 02        	bne	$3685 <textPrint+0x163>
    3683: e6 1d        	inc	$1d                     ; 0x201d <f256main+0x17d9>
    3685: ca           	dex
    3686: a4 22        	ldy	$22                     ; 0x2022 <f256main+0x17de>
    3688: 84 1e        	sty	$1e                     ; 0x201e <f256main+0x17da>
    368a: a4 23        	ldy	$23                     ; 0x2023 <f256main+0x17df>
    368c: 84 1f        	sty	$1f                     ; 0x201f <f256main+0x17db>
    368e: e0 00        	cpx	#$0
    3690: d0 e3        	bne	$3675 <textPrint+0x153>
    3692: c6 4e        	dec	$4e                     ; 0x204e <f256main+0x180a>
    3694: 9c 08 de     	stz	$de08                   ; 0xde08 <end_block9+0x6398>
    3697: a2 c0        	ldx	#$c0
    3699: 8e 09 de     	stx	$de09                   ; 0xde09 <end_block9+0x6399>
    369c: 9c 0a de     	stz	$de0a                   ; 0xde0a <end_block9+0x639a>
    369f: 9c 0b de     	stz	$de0b                   ; 0xde0b <end_block9+0x639b>
    36a2: a2 1d        	ldx	#$1d
    36a4: 8e 0c de     	stx	$de0c                   ; 0xde0c <end_block9+0x639c>
    36a7: 9c 0d de     	stz	$de0d                   ; 0xde0d <end_block9+0x639d>
    36aa: 9c 0e de     	stz	$de0e                   ; 0xde0e <end_block9+0x639e>
    36ad: 9c 0f de     	stz	$de0f                   ; 0xde0f <end_block9+0x639f>
    36b0: ae 18 de     	ldx	$de18                   ; 0xde18 <end_block9+0x63a8>
    36b3: ac 19 de     	ldy	$de19                   ; 0xde19 <end_block9+0x63a9>
    36b6: ad 1a de     	lda	$de1a                   ; 0xde1a <end_block9+0x63aa>
    36b9: ad 1b de     	lda	$de1b                   ; 0xde1b <end_block9+0x63ab>
    36bc: 86 1c        	stx	$1c                     ; 0x201c <f256main+0x17d8>
    36be: 84 1d        	sty	$1d                     ; 0x201d <f256main+0x17d9>
    36c0: 4c 9f 35     	jmp	$359f <textPrint+0x7d>
    36c3: a6 e0        	ldx	$e0                     ; 0x20e0 <f256main+0x189c>
    36c5: 86 01        	stx	$1                      ; 0x2001 <f256main+0x17bd>
    36c7: a6 4d        	ldx	$4d                     ; 0x204d <f256main+0x1809>
    36c9: a4 4e        	ldy	$4e                     ; 0x204e <f256main+0x180a>
    36cb: 8e 14 d0     	stx	$d014                   ; 0xd014 <end_block9+0x55a4>
    36ce: 9c 15 d0     	stz	$d015                   ; 0xd015 <end_block9+0x55a5>
    36d1: 84 4e        	sty	$4e                     ; 0x204e <f256main+0x180a>
    36d3: 8c 16 d0     	sty	$d016                   ; 0xd016 <end_block9+0x55a6>
    36d6: 9c 17 d0     	stz	$d017                   ; 0xd017 <end_block9+0x55a7>
    36d9: 60           	rts

000036da <prepTempoLUT>:
    36da: a5 45        	lda	$45                     ; 0x2045 <f256main+0x1801>
    36dc: 64 12        	stz	$12                     ; 0x2012 <f256main+0x17ce>
    36de: 64 13        	stz	$13                     ; 0x2013 <f256main+0x17cf>
    36e0: a2 00        	ldx	#$0
    36e2: 20 f0 69     	jsr	$69f0 <__floatunsisf>
    36e5: 85 86        	sta	$86                     ; 0x2086 <f256main+0x1842>
    36e7: 86 87        	stx	$87                     ; 0x2087 <f256main+0x1843>
    36e9: a6 12        	ldx	$12                     ; 0x2012 <f256main+0x17ce>
    36eb: 86 88        	stx	$88                     ; 0x2088 <f256main+0x1844>
    36ed: a6 13        	ldx	$13                     ; 0x2013 <f256main+0x17cf>
    36ef: 86 89        	stx	$89                     ; 0x2089 <f256main+0x1845>
    36f1: a2 00        	ldx	#$0
    36f3: b5 33        	lda	$33,x                   ; 0x2033 <f256main+0x17ef>
    36f5: 64 12        	stz	$12                     ; 0x2012 <f256main+0x17ce>
    36f7: 64 13        	stz	$13                     ; 0x2013 <f256main+0x17cf>
    36f9: 86 8a        	stx	$8a                     ; 0x208a <f256main+0x1846>
    36fb: a2 00        	ldx	#$0
    36fd: 20 f0 69     	jsr	$69f0 <__floatunsisf>
    3700: 64 14        	stz	$14                     ; 0x2014 <f256main+0x17d0>
    3702: 64 15        	stz	$15                     ; 0x2015 <f256main+0x17d1>
    3704: a0 e1        	ldy	#$e1
    3706: 84 16        	sty	$16                     ; 0x2016 <f256main+0x17d2>
    3708: a0 42        	ldy	#$42
    370a: 84 17        	sty	$17                     ; 0x2017 <f256main+0x17d3>
    370c: 20 3c 55     	jsr	$553c <__mulsf3>
    370f: a4 86        	ldy	$86                     ; 0x2086 <f256main+0x1842>
    3711: 84 14        	sty	$14                     ; 0x2014 <f256main+0x17d0>
    3713: a4 87        	ldy	$87                     ; 0x2087 <f256main+0x1843>
    3715: 84 15        	sty	$15                     ; 0x2015 <f256main+0x17d1>
    3717: a4 88        	ldy	$88                     ; 0x2088 <f256main+0x1844>
    3719: 84 16        	sty	$16                     ; 0x2016 <f256main+0x17d2>
    371b: a4 89        	ldy	$89                     ; 0x2089 <f256main+0x1845>
    371d: 84 17        	sty	$17                     ; 0x2017 <f256main+0x17d3>
    371f: 20 f4 5d     	jsr	$5df4 <__divsf3>
    3722: 20 74 69     	jsr	$6974 <__fixunssfsi>
    3725: a6 8a        	ldx	$8a                     ; 0x208a <f256main+0x1846>
    3727: 9d 68 00     	sta	$68,x                   ; 0x68 <mainTempoLUT>
    372a: e8           	inx
    372b: e0 12        	cpx	#$12
    372d: d0 c4        	bne	$36f3 <prepTempoLUT+0x19>
    372f: a5 76        	lda	$76                     ; 0x2076 <f256main+0x1832>
    3731: 38           	sec
    3732: e5 75        	sbc	$75                     ; 0x2075 <f256main+0x1831>
    3734: 85 74        	sta	$74                     ; 0x2074 <f256main+0x1830>
    3736: a5 79        	lda	$79                     ; 0x2079 <f256main+0x1835>
    3738: 38           	sec
    3739: e5 78        	sbc	$78                     ; 0x2078 <f256main+0x1834>
    373b: 85 77        	sta	$77                     ; 0x2077 <f256main+0x1833>
    373d: 60           	rts

0000373e <updateTempoText>:
    373e: a2 40        	ldx	#$40
    3740: 86 30        	stx	$30                     ; 0x2030 <f256main+0x17ec>
    3742: a2 2d        	ldx	#$2d
    3744: 86 4d        	stx	$4d                     ; 0x204d <f256main+0x1809>
    3746: 8e 14 d0     	stx	$d014                   ; 0xd014 <end_block9+0x55a4>
    3749: 9c 15 d0     	stz	$d015                   ; 0xd015 <end_block9+0x55a5>
    374c: a2 1f        	ldx	#$1f
    374e: 86 4e        	stx	$4e                     ; 0x204e <f256main+0x180a>
    3750: 8e 16 d0     	stx	$d016                   ; 0xd016 <end_block9+0x55a6>
    3753: 9c 17 d0     	stz	$d017                   ; 0xd017 <end_block9+0x55a7>
    3756: a2 0d        	ldx	#$d
    3758: 86 12        	stx	$12                     ; 0x2012 <f256main+0x17ce>
    375a: a2 79        	ldx	#$79
    375c: 86 13        	stx	$13                     ; 0x2013 <f256main+0x17cf>
    375e: 20 22 35     	jsr	$3522 <textPrint>
    3761: a5 45        	lda	$45                     ; 0x2045 <f256main+0x1801>
    3763: 64 12        	stz	$12                     ; 0x2012 <f256main+0x17ce>
    3765: 64 13        	stz	$13                     ; 0x2013 <f256main+0x17cf>
    3767: a2 00        	ldx	#$0
    3769: 20 d7 3f     	jsr	$3fd7 <textPrintUInt>
    376c: a2 f4        	ldx	#$f4
    376e: 86 12        	stx	$12                     ; 0x2012 <f256main+0x17ce>
    3770: a2 76        	ldx	#$76
    3772: 86 13        	stx	$13                     ; 0x2013 <f256main+0x17cf>
    3774: 20 22 35     	jsr	$3522 <textPrint>
    3777: a2 2d        	ldx	#$2d
    3779: 86 4d        	stx	$4d                     ; 0x204d <f256main+0x1809>
    377b: 8e 14 d0     	stx	$d014                   ; 0xd014 <end_block9+0x55a4>
    377e: 9c 15 d0     	stz	$d015                   ; 0xd015 <end_block9+0x55a5>
    3781: a2 20        	ldx	#$20
    3783: 86 4e        	stx	$4e                     ; 0x204e <f256main+0x180a>
    3785: 8e 16 d0     	stx	$d016                   ; 0xd016 <end_block9+0x55a6>
    3788: 9c 17 d0     	stz	$d017                   ; 0xd017 <end_block9+0x55a7>
    378b: a2 c5        	ldx	#$c5
    378d: 86 12        	stx	$12                     ; 0x2012 <f256main+0x17ce>
    378f: a2 72        	ldx	#$72
    3791: 86 13        	stx	$13                     ; 0x2013 <f256main+0x17cf>
    3793: 4c 22 35     	jmp	$3522 <textPrint>

00003796 <textTitle>:
    3796: 18           	clc
    3797: a5 10        	lda	$10                     ; 0x2010 <f256main+0x17cc>
    3799: 69 f8        	adc	#$f8
    379b: 85 10        	sta	$10                     ; 0x2010 <f256main+0x17cc>
    379d: a5 11        	lda	$11                     ; 0x2011 <f256main+0x17cd>
    379f: 69 ff        	adc	#$ff
    37a1: 85 11        	sta	$11                     ; 0x2011 <f256main+0x17cd>
    37a3: a2 10        	ldx	#$10
    37a5: 86 30        	stx	$30                     ; 0x2030 <f256main+0x17ec>
    37a7: e8           	inx
    37a8: 86 4d        	stx	$4d                     ; 0x204d <f256main+0x1809>
    37aa: 8e 14 d0     	stx	$d014                   ; 0xd014 <end_block9+0x55a4>
    37ad: 9c 15 d0     	stz	$d015                   ; 0xd015 <end_block9+0x55a5>
    37b0: 64 4e        	stz	$4e                     ; 0x204e <f256main+0x180a>
    37b2: 9c 16 d0     	stz	$d016                   ; 0xd016 <end_block9+0x55a6>
    37b5: 9c 17 d0     	stz	$d017                   ; 0xd017 <end_block9+0x55a7>
    37b8: a2 00        	ldx	#$0
    37ba: a9 1d        	lda	#$1d
    37bc: 20 32 4e     	jsr	$4e32 <putchar>
    37bf: a2 00        	ldx	#$0
    37c1: a9 1c        	lda	#$1c
    37c3: 20 32 4e     	jsr	$4e32 <putchar>
    37c6: a2 00        	ldx	#$0
    37c8: a9 1b        	lda	#$1b
    37ca: 20 32 4e     	jsr	$4e32 <putchar>
    37cd: a9 1a        	lda	#$1a
    37cf: a2 00        	ldx	#$0
    37d1: 20 32 4e     	jsr	$4e32 <putchar>
    37d4: a2 00        	ldx	#$0
    37d6: a9 19        	lda	#$19
    37d8: 20 32 4e     	jsr	$4e32 <putchar>
    37db: a2 00        	ldx	#$0
    37dd: a9 18        	lda	#$18
    37df: 20 32 4e     	jsr	$4e32 <putchar>
    37e2: a2 00        	ldx	#$0
    37e4: a9 17        	lda	#$17
    37e6: 20 32 4e     	jsr	$4e32 <putchar>
    37e9: a2 00        	ldx	#$0
    37eb: a9 16        	lda	#$16
    37ed: 20 32 4e     	jsr	$4e32 <putchar>
    37f0: a2 1a        	ldx	#$1a
    37f2: 86 4d        	stx	$4d                     ; 0x204d <f256main+0x1809>
    37f4: 8e 14 d0     	stx	$d014                   ; 0xd014 <end_block9+0x55a4>
    37f7: 9c 15 d0     	stz	$d015                   ; 0xd015 <end_block9+0x55a5>
    37fa: 64 4e        	stz	$4e                     ; 0x204e <f256main+0x180a>
    37fc: 9c 16 d0     	stz	$d016                   ; 0xd016 <end_block9+0x55a6>
    37ff: 9c 17 d0     	stz	$d017                   ; 0xd017 <end_block9+0x55a7>
    3802: a2 f4        	ldx	#$f4
    3804: 86 12        	stx	$12                     ; 0x2012 <f256main+0x17ce>
    3806: a2 70        	ldx	#$70
    3808: 86 13        	stx	$13                     ; 0x2013 <f256main+0x17cf>
    380a: 20 82 42     	jsr	$4282 <printf>
    380d: a2 30        	ldx	#$30
    380f: 86 4d        	stx	$4d                     ; 0x204d <f256main+0x1809>
    3811: 8e 14 d0     	stx	$d014                   ; 0xd014 <end_block9+0x55a4>
    3814: 9c 15 d0     	stz	$d015                   ; 0xd015 <end_block9+0x55a5>
    3817: 64 4e        	stz	$4e                     ; 0x204e <f256main+0x180a>
    3819: 9c 16 d0     	stz	$d016                   ; 0xd016 <end_block9+0x55a6>
    381c: 9c 17 d0     	stz	$d017                   ; 0xd017 <end_block9+0x55a7>
    381f: a2 00        	ldx	#$0
    3821: a9 16        	lda	#$16
    3823: 20 32 4e     	jsr	$4e32 <putchar>
    3826: a2 00        	ldx	#$0
    3828: a9 17        	lda	#$17
    382a: 20 32 4e     	jsr	$4e32 <putchar>
    382d: a2 00        	ldx	#$0
    382f: a9 18        	lda	#$18
    3831: 20 32 4e     	jsr	$4e32 <putchar>
    3834: a2 00        	ldx	#$0
    3836: a9 19        	lda	#$19
    3838: 20 32 4e     	jsr	$4e32 <putchar>
    383b: a2 00        	ldx	#$0
    383d: a9 1a        	lda	#$1a
    383f: 20 32 4e     	jsr	$4e32 <putchar>
    3842: a2 00        	ldx	#$0
    3844: a9 1b        	lda	#$1b
    3846: 20 32 4e     	jsr	$4e32 <putchar>
    3849: a2 00        	ldx	#$0
    384b: a9 1c        	lda	#$1c
    384d: 20 32 4e     	jsr	$4e32 <putchar>
    3850: a2 00        	ldx	#$0
    3852: a9 1d        	lda	#$1d
    3854: 20 32 4e     	jsr	$4e32 <putchar>
    3857: 9c 00 de     	stz	$de00                   ; 0xde00 <end_block9+0x6390>
    385a: 9c 01 de     	stz	$de01                   ; 0xde01 <end_block9+0x6391>
    385d: a2 04        	ldx	#$4
    385f: 8e 02 de     	stx	$de02                   ; 0xde02 <end_block9+0x6392>
    3862: 9c 03 de     	stz	$de03                   ; 0xde03 <end_block9+0x6393>
    3865: ae 10 de     	ldx	$de10                   ; 0xde10 <end_block9+0x63a0>
    3868: 86 12        	stx	$12                     ; 0x2012 <f256main+0x17ce>
    386a: ae 11 de     	ldx	$de11                   ; 0xde11 <end_block9+0x63a1>
    386d: 86 13        	stx	$13                     ; 0x2013 <f256main+0x17cf>
    386f: ae 12 de     	ldx	$de12                   ; 0xde12 <end_block9+0x63a2>
    3872: ae 13 de     	ldx	$de13                   ; 0xde13 <end_block9+0x63a3>
    3875: 18           	clc
    3876: a9 00        	lda	#$0
    3878: 65 12        	adc	$12                     ; 0x2012 <f256main+0x17ce>
    387a: 85 12        	sta	$12                     ; 0x2012 <f256main+0x17ce>
    387c: a9 d8        	lda	#$d8
    387e: 65 13        	adc	$13                     ; 0x2013 <f256main+0x17cf>
    3880: 85 13        	sta	$13                     ; 0x2013 <f256main+0x17cf>
    3882: a9 ff        	lda	#$ff
    3884: 92 12        	sta	($12)                   ; 0x2012 <f256main+0x17ce>
    3886: a0 01        	ldy	#$1
    3888: 91 12        	sta	($12),y                 ; 0x2012 <f256main+0x17ce>
    388a: c8           	iny
    388b: 91 12        	sta	($12),y                 ; 0x2012 <f256main+0x17ce>
    388d: c8           	iny
    388e: 91 12        	sta	($12),y                 ; 0x2012 <f256main+0x17ce>
    3890: a2 70        	ldx	#$70
    3892: 86 30        	stx	$30                     ; 0x2030 <f256main+0x17ec>
    3894: 64 4d        	stz	$4d                     ; 0x204d <f256main+0x1809>
    3896: 9c 14 d0     	stz	$d014                   ; 0xd014 <end_block9+0x55a4>
    3899: 9c 15 d0     	stz	$d015                   ; 0xd015 <end_block9+0x55a5>
    389c: a2 02        	ldx	#$2
    389e: 86 4e        	stx	$4e                     ; 0x204e <f256main+0x180a>
    38a0: 8e 16 d0     	stx	$d016                   ; 0xd016 <end_block9+0x55a6>
    38a3: 9c 17 d0     	stz	$d017                   ; 0xd017 <end_block9+0x55a7>
    38a6: a2 fe        	ldx	#$fe
    38a8: 86 12        	stx	$12                     ; 0x2012 <f256main+0x17ce>
    38aa: a2 72        	ldx	#$72
    38ac: 86 13        	stx	$13                     ; 0x2013 <f256main+0x17cf>
    38ae: 20 22 35     	jsr	$3522 <textPrint>
    38b1: 20 2e 3d     	jsr	$3d2e <channelTextMenu>
    38b4: a2 40        	ldx	#$40
    38b6: 86 30        	stx	$30                     ; 0x2030 <f256main+0x17ec>
    38b8: 20 3e 37     	jsr	$373e <updateTempoText>
    38bb: a2 2d        	ldx	#$2d
    38bd: 86 4d        	stx	$4d                     ; 0x204d <f256main+0x1809>
    38bf: 8e 14 d0     	stx	$d014                   ; 0xd014 <end_block9+0x55a4>
    38c2: 9c 15 d0     	stz	$d015                   ; 0xd015 <end_block9+0x55a5>
    38c5: a2 1a        	ldx	#$1a
    38c7: 86 4e        	stx	$4e                     ; 0x204e <f256main+0x180a>
    38c9: 8e 16 d0     	stx	$d016                   ; 0xd016 <end_block9+0x55a6>
    38cc: 9c 17 d0     	stz	$d017                   ; 0xd017 <end_block9+0x55a7>
    38cf: a2 ff        	ldx	#$ff
    38d1: 86 12        	stx	$12                     ; 0x2012 <f256main+0x17ce>
    38d3: a2 6f        	ldx	#$6f
    38d5: 86 13        	stx	$13                     ; 0x2013 <f256main+0x17cf>
    38d7: 20 22 35     	jsr	$3522 <textPrint>
    38da: a2 2d        	ldx	#$2d
    38dc: 86 4d        	stx	$4d                     ; 0x204d <f256main+0x1809>
    38de: 8e 14 d0     	stx	$d014                   ; 0xd014 <end_block9+0x55a4>
    38e1: 9c 15 d0     	stz	$d015                   ; 0xd015 <end_block9+0x55a5>
    38e4: a2 1b        	ldx	#$1b
    38e6: 86 4e        	stx	$4e                     ; 0x204e <f256main+0x180a>
    38e8: 8e 16 d0     	stx	$d016                   ; 0xd016 <end_block9+0x55a6>
    38eb: 9c 17 d0     	stz	$d017                   ; 0xd017 <end_block9+0x55a7>
    38ee: a2 d5        	ldx	#$d5
    38f0: 86 12        	stx	$12                     ; 0x2012 <f256main+0x17ce>
    38f2: a2 70        	ldx	#$70
    38f4: 86 13        	stx	$13                     ; 0x2013 <f256main+0x17cf>
    38f6: 20 22 35     	jsr	$3522 <textPrint>
    38f9: 20 08 3e     	jsr	$3e08 <refreshBeatTextChoice>
    38fc: 64 4d        	stz	$4d                     ; 0x204d <f256main+0x1809>
    38fe: 9c 14 d0     	stz	$d014                   ; 0xd014 <end_block9+0x55a4>
    3901: 9c 15 d0     	stz	$d015                   ; 0xd015 <end_block9+0x55a5>
    3904: a2 23        	ldx	#$23
    3906: 86 4e        	stx	$4e                     ; 0x204e <f256main+0x180a>
    3908: 8e 16 d0     	stx	$d016                   ; 0xd016 <end_block9+0x55a6>
    390b: 9c 17 d0     	stz	$d017                   ; 0xd017 <end_block9+0x55a7>
    390e: a9 f8        	lda	#$f8
    3910: 92 10        	sta	($10)                   ; 0x2010 <f256main+0x17cc>
    3912: a9 00        	lda	#$0
    3914: a0 01        	ldy	#$1
    3916: 91 10        	sta	($10),y                 ; 0x2010 <f256main+0x17cc>
    3918: c8           	iny
    3919: a9 fb        	lda	#$fb
    391b: 91 10        	sta	($10),y                 ; 0x2010 <f256main+0x17cc>
    391d: c8           	iny
    391e: a9 00        	lda	#$0
    3920: 91 10        	sta	($10),y                 ; 0x2010 <f256main+0x17cc>
    3922: a2 5d        	ldx	#$5d
    3924: 86 12        	stx	$12                     ; 0x2012 <f256main+0x17ce>
    3926: a2 74        	ldx	#$74
    3928: 86 13        	stx	$13                     ; 0x2013 <f256main+0x17cf>
    392a: 20 82 42     	jsr	$4282 <printf>
    392d: 64 4d        	stz	$4d                     ; 0x204d <f256main+0x1809>
    392f: 9c 14 d0     	stz	$d014                   ; 0xd014 <end_block9+0x55a4>
    3932: 9c 15 d0     	stz	$d015                   ; 0xd015 <end_block9+0x55a5>
    3935: a2 24        	ldx	#$24
    3937: 86 4e        	stx	$4e                     ; 0x204e <f256main+0x180a>
    3939: 8e 16 d0     	stx	$d016                   ; 0xd016 <end_block9+0x55a6>
    393c: 9c 17 d0     	stz	$d017                   ; 0xd017 <end_block9+0x55a7>
    393f: a9 f8        	lda	#$f8
    3941: 92 10        	sta	($10)                   ; 0x2010 <f256main+0x17cc>
    3943: a9 00        	lda	#$0
    3945: a0 01        	ldy	#$1
    3947: 91 10        	sta	($10),y                 ; 0x2010 <f256main+0x17cc>
    3949: c8           	iny
    394a: a9 fb        	lda	#$fb
    394c: 91 10        	sta	($10),y                 ; 0x2010 <f256main+0x17cc>
    394e: c8           	iny
    394f: a9 00        	lda	#$0
    3951: 91 10        	sta	($10),y                 ; 0x2010 <f256main+0x17cc>
    3953: c8           	iny
    3954: a9 f8        	lda	#$f8
    3956: 91 10        	sta	($10),y                 ; 0x2010 <f256main+0x17cc>
    3958: c8           	iny
    3959: a9 00        	lda	#$0
    395b: 91 10        	sta	($10),y                 ; 0x2010 <f256main+0x17cc>
    395d: c8           	iny
    395e: a9 fb        	lda	#$fb
    3960: 91 10        	sta	($10),y                 ; 0x2010 <f256main+0x17cc>
    3962: c8           	iny
    3963: a9 00        	lda	#$0
    3965: 91 10        	sta	($10),y                 ; 0x2010 <f256main+0x17cc>
    3967: a2 82        	ldx	#$82
    3969: 86 12        	stx	$12                     ; 0x2012 <f256main+0x17ce>
    396b: a2 74        	ldx	#$74
    396d: 86 13        	stx	$13                     ; 0x2013 <f256main+0x17cf>
    396f: 20 82 42     	jsr	$4282 <printf>
    3972: 64 4d        	stz	$4d                     ; 0x204d <f256main+0x1809>
    3974: 9c 14 d0     	stz	$d014                   ; 0xd014 <end_block9+0x55a4>
    3977: 9c 15 d0     	stz	$d015                   ; 0xd015 <end_block9+0x55a5>
    397a: a2 28        	ldx	#$28
    397c: 86 4e        	stx	$4e                     ; 0x204e <f256main+0x180a>
    397e: 8e 16 d0     	stx	$d016                   ; 0xd016 <end_block9+0x55a6>
    3981: 9c 17 d0     	stz	$d017                   ; 0xd017 <end_block9+0x55a7>
    3984: a2 7c        	ldx	#$7c
    3986: 86 12        	stx	$12                     ; 0x2012 <f256main+0x17ce>
    3988: a2 77        	ldx	#$77
    398a: 86 13        	stx	$13                     ; 0x2013 <f256main+0x17cf>
    398c: 20 22 35     	jsr	$3522 <textPrint>
    398f: 64 4d        	stz	$4d                     ; 0x204d <f256main+0x1809>
    3991: 9c 14 d0     	stz	$d014                   ; 0xd014 <end_block9+0x55a4>
    3994: 9c 15 d0     	stz	$d015                   ; 0xd015 <end_block9+0x55a5>
    3997: a2 29        	ldx	#$29
    3999: 86 4e        	stx	$4e                     ; 0x204e <f256main+0x180a>
    399b: 8e 16 d0     	stx	$d016                   ; 0xd016 <end_block9+0x55a6>
    399e: 9c 17 d0     	stz	$d017                   ; 0xd017 <end_block9+0x55a7>
    39a1: a9 f9        	lda	#$f9
    39a3: 92 10        	sta	($10)                   ; 0x2010 <f256main+0x17cc>
    39a5: a0 01        	ldy	#$1
    39a7: a9 00        	lda	#$0
    39a9: 91 10        	sta	($10),y                 ; 0x2010 <f256main+0x17cc>
    39ab: c8           	iny
    39ac: a9 fa        	lda	#$fa
    39ae: 91 10        	sta	($10),y                 ; 0x2010 <f256main+0x17cc>
    39b0: c8           	iny
    39b1: a9 00        	lda	#$0
    39b3: 91 10        	sta	($10),y                 ; 0x2010 <f256main+0x17cc>
    39b5: a2 9a        	ldx	#$9a
    39b7: 86 12        	stx	$12                     ; 0x2012 <f256main+0x17ce>
    39b9: a2 76        	ldx	#$76
    39bb: 86 13        	stx	$13                     ; 0x2013 <f256main+0x17cf>
    39bd: 20 82 42     	jsr	$4282 <printf>
    39c0: 64 4d        	stz	$4d                     ; 0x204d <f256main+0x1809>
    39c2: 9c 14 d0     	stz	$d014                   ; 0xd014 <end_block9+0x55a4>
    39c5: 9c 15 d0     	stz	$d015                   ; 0xd015 <end_block9+0x55a5>
    39c8: a2 2a        	ldx	#$2a
    39ca: 86 4e        	stx	$4e                     ; 0x204e <f256main+0x180a>
    39cc: 8e 16 d0     	stx	$d016                   ; 0xd016 <end_block9+0x55a6>
    39cf: 9c 17 d0     	stz	$d017                   ; 0xd017 <end_block9+0x55a7>
    39d2: a0 01        	ldy	#$1
    39d4: a9 00        	lda	#$0
    39d6: 91 10        	sta	($10),y                 ; 0x2010 <f256main+0x17cc>
    39d8: c8           	iny
    39d9: a9 fa        	lda	#$fa
    39db: 91 10        	sta	($10),y                 ; 0x2010 <f256main+0x17cc>
    39dd: c8           	iny
    39de: a9 00        	lda	#$0
    39e0: 91 10        	sta	($10),y                 ; 0x2010 <f256main+0x17cc>
    39e2: c8           	iny
    39e3: a9 f9        	lda	#$f9
    39e5: 91 10        	sta	($10),y                 ; 0x2010 <f256main+0x17cc>
    39e7: 92 10        	sta	($10)                   ; 0x2010 <f256main+0x17cc>
    39e9: c8           	iny
    39ea: a9 00        	lda	#$0
    39ec: 91 10        	sta	($10),y                 ; 0x2010 <f256main+0x17cc>
    39ee: c8           	iny
    39ef: a9 fa        	lda	#$fa
    39f1: 91 10        	sta	($10),y                 ; 0x2010 <f256main+0x17cc>
    39f3: c8           	iny
    39f4: a9 00        	lda	#$0
    39f6: 91 10        	sta	($10),y                 ; 0x2010 <f256main+0x17cc>
    39f8: a2 ce        	ldx	#$ce
    39fa: 86 12        	stx	$12                     ; 0x2012 <f256main+0x17ce>
    39fc: a2 74        	ldx	#$74
    39fe: 86 13        	stx	$13                     ; 0x2013 <f256main+0x17cf>
    3a00: 20 82 42     	jsr	$4282 <printf>
    3a03: 18           	clc
    3a04: a5 10        	lda	$10                     ; 0x2010 <f256main+0x17cc>
    3a06: 69 08        	adc	#$8
    3a08: 85 10        	sta	$10                     ; 0x2010 <f256main+0x17cc>
    3a0a: a5 11        	lda	$11                     ; 0x2011 <f256main+0x17cd>
    3a0c: 69 00        	adc	#$0
    3a0e: 85 11        	sta	$11                     ; 0x2011 <f256main+0x17cd>
    3a10: 60           	rts

00003a11 <refreshInstrumentText>:
    3a11: 18           	clc
    3a12: a5 10        	lda	$10                     ; 0x2010 <f256main+0x17cc>
    3a14: 69 fc        	adc	#$fc
    3a16: 85 10        	sta	$10                     ; 0x2010 <f256main+0x17cc>
    3a18: a5 11        	lda	$11                     ; 0x2011 <f256main+0x17cd>
    3a1a: 69 ff        	adc	#$ff
    3a1c: 85 11        	sta	$11                     ; 0x2011 <f256main+0x17cd>
    3a1e: a2 05        	ldx	#$5
    3a20: 86 4d        	stx	$4d                     ; 0x204d <f256main+0x1809>
    3a22: 8e 14 d0     	stx	$d014                   ; 0xd014 <end_block9+0x55a4>
    3a25: 9c 15 d0     	stz	$d015                   ; 0xd015 <end_block9+0x55a5>
    3a28: a2 1e        	ldx	#$1e
    3a2a: 86 4e        	stx	$4e                     ; 0x204e <f256main+0x180a>
    3a2c: 8e 16 d0     	stx	$d016                   ; 0xd016 <end_block9+0x55a6>
    3a2f: 9c 17 d0     	stz	$d017                   ; 0xd017 <end_block9+0x55a7>
    3a32: a2 5c        	ldx	#$5c
    3a34: 86 12        	stx	$12                     ; 0x2012 <f256main+0x17ce>
    3a36: a2 6f        	ldx	#$6f
    3a38: 86 13        	stx	$13                     ; 0x2013 <f256main+0x17cf>
    3a3a: 20 22 35     	jsr	$3522 <textPrint>
    3a3d: a2 05        	ldx	#$5
    3a3f: 86 4d        	stx	$4d                     ; 0x204d <f256main+0x1809>
    3a41: 8e 14 d0     	stx	$d014                   ; 0xd014 <end_block9+0x55a4>
    3a44: 9c 15 d0     	stz	$d015                   ; 0xd015 <end_block9+0x55a5>
    3a47: a2 1f        	ldx	#$1f
    3a49: 86 4e        	stx	$4e                     ; 0x204e <f256main+0x180a>
    3a4b: 8e 16 d0     	stx	$d016                   ; 0xd016 <end_block9+0x55a6>
    3a4e: 9c 17 d0     	stz	$d017                   ; 0xd017 <end_block9+0x55a7>
    3a51: a2 5c        	ldx	#$5c
    3a53: 86 12        	stx	$12                     ; 0x2012 <f256main+0x17ce>
    3a55: a2 6f        	ldx	#$6f
    3a57: 86 13        	stx	$13                     ; 0x2013 <f256main+0x17cf>
    3a59: 20 22 35     	jsr	$3522 <textPrint>
    3a5c: a2 05        	ldx	#$5
    3a5e: 86 4d        	stx	$4d                     ; 0x204d <f256main+0x1809>
    3a60: 8e 14 d0     	stx	$d014                   ; 0xd014 <end_block9+0x55a4>
    3a63: 9c 15 d0     	stz	$d015                   ; 0xd015 <end_block9+0x55a5>
    3a66: a2 1e        	ldx	#$1e
    3a68: 86 4e        	stx	$4e                     ; 0x204e <f256main+0x180a>
    3a6a: 8e 16 d0     	stx	$d016                   ; 0xd016 <end_block9+0x55a6>
    3a6d: 9c 17 d0     	stz	$d017                   ; 0xd017 <end_block9+0x55a7>
    3a70: a4 66        	ldy	$66                     ; 0x2066 <f256main+0x1822>
    3a72: a2 90        	ldx	#$90
    3a74: 98           	tya
    3a75: f0 02        	beq	$3a79 <refreshInstrumentText+0x68>
    3a77: a2 40        	ldx	#$40
    3a79: 86 30        	stx	$30                     ; 0x2030 <f256main+0x17ec>
    3a7b: a6 52        	ldx	$52                     ; 0x2052 <f256main+0x180e>
    3a7d: a4 53        	ldy	$53                     ; 0x2053 <f256main+0x180f>
    3a7f: 84 14        	sty	$14                     ; 0x2014 <f256main+0x17d0>
    3a81: 8a           	txa
    3a82: 0a           	asl
    3a83: 85 12        	sta	$12                     ; 0x2012 <f256main+0x17ce>
    3a85: 98           	tya
    3a86: 2a           	rol
    3a87: 85 13        	sta	$13                     ; 0x2013 <f256main+0x17cf>
    3a89: a9 19        	lda	#$19
    3a8b: 18           	clc
    3a8c: 65 12        	adc	$12                     ; 0x2012 <f256main+0x17ce>
    3a8e: 85 12        	sta	$12                     ; 0x2012 <f256main+0x17ce>
    3a90: a9 79        	lda	#$79
    3a92: 65 13        	adc	$13                     ; 0x2013 <f256main+0x17cf>
    3a94: a0 01        	ldy	#$1
    3a96: 85 13        	sta	$13                     ; 0x2013 <f256main+0x17cf>
    3a98: b2 12        	lda	($12)                   ; 0x2012 <f256main+0x17ce>
    3a9a: 85 15        	sta	$15                     ; 0x2015 <f256main+0x17d1>
    3a9c: b1 12        	lda	($12),y                 ; 0x2012 <f256main+0x17ce>
    3a9e: 85 16        	sta	$16                     ; 0x2016 <f256main+0x17d2>
    3aa0: 8a           	txa
    3aa1: 92 10        	sta	($10)                   ; 0x2010 <f256main+0x17cc>
    3aa3: a5 14        	lda	$14                     ; 0x2014 <f256main+0x17d0>
    3aa5: 91 10        	sta	($10),y                 ; 0x2010 <f256main+0x17cc>
    3aa7: 18           	clc
    3aa8: a5 10        	lda	$10                     ; 0x2010 <f256main+0x17cc>
    3aaa: 69 02        	adc	#$2
    3aac: 85 12        	sta	$12                     ; 0x2012 <f256main+0x17ce>
    3aae: a5 11        	lda	$11                     ; 0x2011 <f256main+0x17cd>
    3ab0: 69 00        	adc	#$0
    3ab2: 85 13        	sta	$13                     ; 0x2013 <f256main+0x17cf>
    3ab4: c8           	iny
    3ab5: a5 15        	lda	$15                     ; 0x2015 <f256main+0x17d1>
    3ab7: 91 10        	sta	($10),y                 ; 0x2010 <f256main+0x17cc>
    3ab9: a5 16        	lda	$16                     ; 0x2016 <f256main+0x17d2>
    3abb: 88           	dey
    3abc: 91 12        	sta	($12),y                 ; 0x2012 <f256main+0x17ce>
    3abe: a2 ab        	ldx	#$ab
    3ac0: 86 12        	stx	$12                     ; 0x2012 <f256main+0x17ce>
    3ac2: a2 70        	ldx	#$70
    3ac4: 86 13        	stx	$13                     ; 0x2013 <f256main+0x17cf>
    3ac6: 20 82 42     	jsr	$4282 <printf>
    3ac9: a2 05        	ldx	#$5
    3acb: 86 4d        	stx	$4d                     ; 0x204d <f256main+0x1809>
    3acd: 8e 14 d0     	stx	$d014                   ; 0xd014 <end_block9+0x55a4>
    3ad0: 9c 15 d0     	stz	$d015                   ; 0xd015 <end_block9+0x55a5>
    3ad3: a2 1f        	ldx	#$1f
    3ad5: 86 4e        	stx	$4e                     ; 0x204e <f256main+0x180a>
    3ad7: 8e 16 d0     	stx	$d016                   ; 0xd016 <end_block9+0x55a6>
    3ada: 9c 17 d0     	stz	$d017                   ; 0xd017 <end_block9+0x55a7>
    3add: a6 66        	ldx	$66                     ; 0x2066 <f256main+0x1822>
    3adf: a0 90        	ldy	#$90
    3ae1: e0 01        	cpx	#$1
    3ae3: f0 02        	beq	$3ae7 <refreshInstrumentText+0xd6>
    3ae5: a0 40        	ldy	#$40
    3ae7: 84 30        	sty	$30                     ; 0x2030 <f256main+0x17ec>
    3ae9: a6 54        	ldx	$54                     ; 0x2054 <f256main+0x1810>
    3aeb: a4 55        	ldy	$55                     ; 0x2055 <f256main+0x1811>
    3aed: 84 14        	sty	$14                     ; 0x2014 <f256main+0x17d0>
    3aef: 8a           	txa
    3af0: 0a           	asl
    3af1: 85 12        	sta	$12                     ; 0x2012 <f256main+0x17ce>
    3af3: 98           	tya
    3af4: 2a           	rol
    3af5: 85 13        	sta	$13                     ; 0x2013 <f256main+0x17cf>
    3af7: a9 19        	lda	#$19
    3af9: 18           	clc
    3afa: 65 12        	adc	$12                     ; 0x2012 <f256main+0x17ce>
    3afc: 85 12        	sta	$12                     ; 0x2012 <f256main+0x17ce>
    3afe: a9 79        	lda	#$79
    3b00: 65 13        	adc	$13                     ; 0x2013 <f256main+0x17cf>
    3b02: 85 13        	sta	$13                     ; 0x2013 <f256main+0x17cf>
    3b04: b2 12        	lda	($12)                   ; 0x2012 <f256main+0x17ce>
    3b06: 85 16        	sta	$16                     ; 0x2016 <f256main+0x17d2>
    3b08: a0 01        	ldy	#$1
    3b0a: b1 12        	lda	($12),y                 ; 0x2012 <f256main+0x17ce>
    3b0c: 85 15        	sta	$15                     ; 0x2015 <f256main+0x17d1>
    3b0e: a5 10        	lda	$10                     ; 0x2010 <f256main+0x17cc>
    3b10: a4 11        	ldy	$11                     ; 0x2011 <f256main+0x17cd>
    3b12: 18           	clc
    3b13: 69 02        	adc	#$2
    3b15: 85 12        	sta	$12                     ; 0x2012 <f256main+0x17ce>
    3b17: 98           	tya
    3b18: 69 00        	adc	#$0
    3b1a: 85 13        	sta	$13                     ; 0x2013 <f256main+0x17cf>
    3b1c: a0 02        	ldy	#$2
    3b1e: a5 16        	lda	$16                     ; 0x2016 <f256main+0x17d2>
    3b20: 91 10        	sta	($10),y                 ; 0x2010 <f256main+0x17cc>
    3b22: 8a           	txa
    3b23: 92 10        	sta	($10)                   ; 0x2010 <f256main+0x17cc>
    3b25: a5 14        	lda	$14                     ; 0x2014 <f256main+0x17d0>
    3b27: 88           	dey
    3b28: 91 10        	sta	($10),y                 ; 0x2010 <f256main+0x17cc>
    3b2a: a5 15        	lda	$15                     ; 0x2015 <f256main+0x17d1>
    3b2c: 91 12        	sta	($12),y                 ; 0x2012 <f256main+0x17ce>
    3b2e: a2 ab        	ldx	#$ab
    3b30: 86 12        	stx	$12                     ; 0x2012 <f256main+0x17ce>
    3b32: a2 70        	ldx	#$70
    3b34: 86 13        	stx	$13                     ; 0x2013 <f256main+0x17cf>
    3b36: 20 82 42     	jsr	$4282 <printf>
    3b39: a2 05        	ldx	#$5
    3b3b: 86 4d        	stx	$4d                     ; 0x204d <f256main+0x1809>
    3b3d: 8e 14 d0     	stx	$d014                   ; 0xd014 <end_block9+0x55a4>
    3b40: 9c 15 d0     	stz	$d015                   ; 0xd015 <end_block9+0x55a5>
    3b43: a2 20        	ldx	#$20
    3b45: 86 4e        	stx	$4e                     ; 0x204e <f256main+0x180a>
    3b47: 8e 16 d0     	stx	$d016                   ; 0xd016 <end_block9+0x55a6>
    3b4a: 9c 17 d0     	stz	$d017                   ; 0xd017 <end_block9+0x55a7>
    3b4d: a4 66        	ldy	$66                     ; 0x2066 <f256main+0x1822>
    3b4f: a2 90        	ldx	#$90
    3b51: 84 86        	sty	$86                     ; 0x2086 <f256main+0x1842>
    3b53: c0 09        	cpy	#$9
    3b55: f0 02        	beq	$3b59 <refreshInstrumentText+0x148>
    3b57: a2 40        	ldx	#$40
    3b59: 86 30        	stx	$30                     ; 0x2030 <f256main+0x17ec>
    3b5b: a2 88        	ldx	#$88
    3b5d: 86 12        	stx	$12                     ; 0x2012 <f256main+0x17ce>
    3b5f: a2 75        	ldx	#$75
    3b61: 86 13        	stx	$13                     ; 0x2013 <f256main+0x17cf>
    3b63: 20 22 35     	jsr	$3522 <textPrint>
    3b66: a6 67        	ldx	$67                     ; 0x2067 <f256main+0x1823>
    3b68: a4 86        	ldy	$86                     ; 0x2086 <f256main+0x1842>
    3b6a: 8a           	txa
    3b6b: d0 03        	bne	$3b70 <refreshInstrumentText+0x15f>
    3b6d: 4c d8 3b     	jmp	$3bd8 <refreshInstrumentText+0x1c7>
    3b70: a2 05        	ldx	#$5
    3b72: 86 4d        	stx	$4d                     ; 0x204d <f256main+0x1809>
    3b74: 8e 14 d0     	stx	$d014                   ; 0xd014 <end_block9+0x55a4>
    3b77: 9c 15 d0     	stz	$d015                   ; 0xd015 <end_block9+0x55a5>
    3b7a: a2 1f        	ldx	#$1f
    3b7c: 86 4e        	stx	$4e                     ; 0x204e <f256main+0x180a>
    3b7e: 8e 16 d0     	stx	$d016                   ; 0xd016 <end_block9+0x55a6>
    3b81: 9c 17 d0     	stz	$d017                   ; 0xd017 <end_block9+0x55a7>
    3b84: a2 90        	ldx	#$90
    3b86: 86 30        	stx	$30                     ; 0x2030 <f256main+0x17ec>
    3b88: a6 54        	ldx	$54                     ; 0x2054 <f256main+0x1810>
    3b8a: a4 55        	ldy	$55                     ; 0x2055 <f256main+0x1811>
    3b8c: 84 14        	sty	$14                     ; 0x2014 <f256main+0x17d0>
    3b8e: 8a           	txa
    3b8f: 0a           	asl
    3b90: 85 12        	sta	$12                     ; 0x2012 <f256main+0x17ce>
    3b92: 98           	tya
    3b93: 2a           	rol
    3b94: 85 13        	sta	$13                     ; 0x2013 <f256main+0x17cf>
    3b96: a9 19        	lda	#$19
    3b98: 18           	clc
    3b99: 65 12        	adc	$12                     ; 0x2012 <f256main+0x17ce>
    3b9b: 85 12        	sta	$12                     ; 0x2012 <f256main+0x17ce>
    3b9d: a9 79        	lda	#$79
    3b9f: 65 13        	adc	$13                     ; 0x2013 <f256main+0x17cf>
    3ba1: a0 01        	ldy	#$1
    3ba3: 85 13        	sta	$13                     ; 0x2013 <f256main+0x17cf>
    3ba5: b2 12        	lda	($12)                   ; 0x2012 <f256main+0x17ce>
    3ba7: 85 16        	sta	$16                     ; 0x2016 <f256main+0x17d2>
    3ba9: b1 12        	lda	($12),y                 ; 0x2012 <f256main+0x17ce>
    3bab: 85 15        	sta	$15                     ; 0x2015 <f256main+0x17d1>
    3bad: a5 10        	lda	$10                     ; 0x2010 <f256main+0x17cc>
    3baf: 18           	clc
    3bb0: 69 02        	adc	#$2
    3bb2: 85 12        	sta	$12                     ; 0x2012 <f256main+0x17ce>
    3bb4: a5 11        	lda	$11                     ; 0x2011 <f256main+0x17cd>
    3bb6: 69 00        	adc	#$0
    3bb8: 85 13        	sta	$13                     ; 0x2013 <f256main+0x17cf>
    3bba: c8           	iny
    3bbb: a5 16        	lda	$16                     ; 0x2016 <f256main+0x17d2>
    3bbd: 91 10        	sta	($10),y                 ; 0x2010 <f256main+0x17cc>
    3bbf: 8a           	txa
    3bc0: 92 10        	sta	($10)                   ; 0x2010 <f256main+0x17cc>
    3bc2: a5 14        	lda	$14                     ; 0x2014 <f256main+0x17d0>
    3bc4: 88           	dey
    3bc5: 91 10        	sta	($10),y                 ; 0x2010 <f256main+0x17cc>
    3bc7: a5 15        	lda	$15                     ; 0x2015 <f256main+0x17d1>
    3bc9: 91 12        	sta	($12),y                 ; 0x2012 <f256main+0x17ce>
    3bcb: a2 ab        	ldx	#$ab
    3bcd: 86 12        	stx	$12                     ; 0x2012 <f256main+0x17ce>
    3bcf: a2 70        	ldx	#$70
    3bd1: 86 13        	stx	$13                     ; 0x2013 <f256main+0x17cf>
    3bd3: 20 82 42     	jsr	$4282 <printf>
    3bd6: a4 66        	ldy	$66                     ; 0x2066 <f256main+0x1822>
    3bd8: a2 90        	ldx	#$90
    3bda: 86 30        	stx	$30                     ; 0x2030 <f256main+0x17ec>
    3bdc: c0 09        	cpy	#$9
    3bde: d0 03        	bne	$3be3 <refreshInstrumentText+0x1d2>
    3be0: 4c 7a 3c     	jmp	$3c7a <refreshInstrumentText+0x269>
    3be3: c0 01        	cpy	#$1
    3be5: f0 3e        	beq	$3c25 <refreshInstrumentText+0x214>
    3be7: 98           	tya
    3be8: f0 03        	beq	$3bed <refreshInstrumentText+0x1dc>
    3bea: 4c cd 3c     	jmp	$3ccd <refreshInstrumentText+0x2bc>
    3bed: 64 4d        	stz	$4d                     ; 0x204d <f256main+0x1809>
    3bef: 9c 14 d0     	stz	$d014                   ; 0xd014 <end_block9+0x55a4>
    3bf2: 9c 15 d0     	stz	$d015                   ; 0xd015 <end_block9+0x55a5>
    3bf5: a2 1e        	ldx	#$1e
    3bf7: 86 4e        	stx	$4e                     ; 0x204e <f256main+0x180a>
    3bf9: 8e 16 d0     	stx	$d016                   ; 0xd016 <end_block9+0x55a6>
    3bfc: 9c 17 d0     	stz	$d017                   ; 0xd017 <end_block9+0x55a7>
    3bff: a9 fa        	lda	#$fa
    3c01: a2 00        	ldx	#$0
    3c03: 20 32 4e     	jsr	$4e32 <putchar>
    3c06: 64 4d        	stz	$4d                     ; 0x204d <f256main+0x1809>
    3c08: 9c 14 d0     	stz	$d014                   ; 0xd014 <end_block9+0x55a4>
    3c0b: 9c 15 d0     	stz	$d015                   ; 0xd015 <end_block9+0x55a5>
    3c0e: a2 1f        	ldx	#$1f
    3c10: 86 4e        	stx	$4e                     ; 0x204e <f256main+0x180a>
    3c12: 8e 16 d0     	stx	$d016                   ; 0xd016 <end_block9+0x55a6>
    3c15: 9c 17 d0     	stz	$d017                   ; 0xd017 <end_block9+0x55a7>
    3c18: a2 f9        	ldx	#$f9
    3c1a: 86 12        	stx	$12                     ; 0x2012 <f256main+0x17ce>
    3c1c: a2 6f        	ldx	#$6f
    3c1e: 86 13        	stx	$13                     ; 0x2013 <f256main+0x17cf>
    3c20: 20 22 35     	jsr	$3522 <textPrint>
    3c23: 80 36        	bra	$3c5b <refreshInstrumentText+0x24a>
    3c25: 64 4d        	stz	$4d                     ; 0x204d <f256main+0x1809>
    3c27: 9c 14 d0     	stz	$d014                   ; 0xd014 <end_block9+0x55a4>
    3c2a: 9c 15 d0     	stz	$d015                   ; 0xd015 <end_block9+0x55a5>
    3c2d: a2 1e        	ldx	#$1e
    3c2f: 86 4e        	stx	$4e                     ; 0x204e <f256main+0x180a>
    3c31: 8e 16 d0     	stx	$d016                   ; 0xd016 <end_block9+0x55a6>
    3c34: 9c 17 d0     	stz	$d017                   ; 0xd017 <end_block9+0x55a7>
    3c37: a2 f9        	ldx	#$f9
    3c39: 86 12        	stx	$12                     ; 0x2012 <f256main+0x17ce>
    3c3b: a2 6f        	ldx	#$6f
    3c3d: 86 13        	stx	$13                     ; 0x2013 <f256main+0x17cf>
    3c3f: 20 22 35     	jsr	$3522 <textPrint>
    3c42: 64 4d        	stz	$4d                     ; 0x204d <f256main+0x1809>
    3c44: 9c 14 d0     	stz	$d014                   ; 0xd014 <end_block9+0x55a4>
    3c47: 9c 15 d0     	stz	$d015                   ; 0xd015 <end_block9+0x55a5>
    3c4a: a2 1f        	ldx	#$1f
    3c4c: 86 4e        	stx	$4e                     ; 0x204e <f256main+0x180a>
    3c4e: 8e 16 d0     	stx	$d016                   ; 0xd016 <end_block9+0x55a6>
    3c51: 9c 17 d0     	stz	$d017                   ; 0xd017 <end_block9+0x55a7>
    3c54: a9 fa        	lda	#$fa
    3c56: a2 00        	ldx	#$0
    3c58: 20 32 4e     	jsr	$4e32 <putchar>
    3c5b: 64 4d        	stz	$4d                     ; 0x204d <f256main+0x1809>
    3c5d: 9c 14 d0     	stz	$d014                   ; 0xd014 <end_block9+0x55a4>
    3c60: 9c 15 d0     	stz	$d015                   ; 0xd015 <end_block9+0x55a5>
    3c63: a2 20        	ldx	#$20
    3c65: 86 4e        	stx	$4e                     ; 0x204e <f256main+0x180a>
    3c67: 8e 16 d0     	stx	$d016                   ; 0xd016 <end_block9+0x55a6>
    3c6a: 9c 17 d0     	stz	$d017                   ; 0xd017 <end_block9+0x55a7>
    3c6d: a2 f9        	ldx	#$f9
    3c6f: 86 12        	stx	$12                     ; 0x2012 <f256main+0x17ce>
    3c71: a2 6f        	ldx	#$6f
    3c73: 86 13        	stx	$13                     ; 0x2013 <f256main+0x17cf>
    3c75: 20 22 35     	jsr	$3522 <textPrint>
    3c78: 80 53        	bra	$3ccd <refreshInstrumentText+0x2bc>
    3c7a: 64 4d        	stz	$4d                     ; 0x204d <f256main+0x1809>
    3c7c: 9c 14 d0     	stz	$d014                   ; 0xd014 <end_block9+0x55a4>
    3c7f: 9c 15 d0     	stz	$d015                   ; 0xd015 <end_block9+0x55a5>
    3c82: a2 1e        	ldx	#$1e
    3c84: 86 4e        	stx	$4e                     ; 0x204e <f256main+0x180a>
    3c86: 8e 16 d0     	stx	$d016                   ; 0xd016 <end_block9+0x55a6>
    3c89: 9c 17 d0     	stz	$d017                   ; 0xd017 <end_block9+0x55a7>
    3c8c: a2 f9        	ldx	#$f9
    3c8e: 86 12        	stx	$12                     ; 0x2012 <f256main+0x17ce>
    3c90: a2 6f        	ldx	#$6f
    3c92: 86 13        	stx	$13                     ; 0x2013 <f256main+0x17cf>
    3c94: 20 22 35     	jsr	$3522 <textPrint>
    3c97: 64 4d        	stz	$4d                     ; 0x204d <f256main+0x1809>
    3c99: 9c 14 d0     	stz	$d014                   ; 0xd014 <end_block9+0x55a4>
    3c9c: 9c 15 d0     	stz	$d015                   ; 0xd015 <end_block9+0x55a5>
    3c9f: a2 1f        	ldx	#$1f
    3ca1: 86 4e        	stx	$4e                     ; 0x204e <f256main+0x180a>
    3ca3: 8e 16 d0     	stx	$d016                   ; 0xd016 <end_block9+0x55a6>
    3ca6: 9c 17 d0     	stz	$d017                   ; 0xd017 <end_block9+0x55a7>
    3ca9: a2 f9        	ldx	#$f9
    3cab: 86 12        	stx	$12                     ; 0x2012 <f256main+0x17ce>
    3cad: a2 6f        	ldx	#$6f
    3caf: 86 13        	stx	$13                     ; 0x2013 <f256main+0x17cf>
    3cb1: 20 22 35     	jsr	$3522 <textPrint>
    3cb4: 64 4d        	stz	$4d                     ; 0x204d <f256main+0x1809>
    3cb6: 9c 14 d0     	stz	$d014                   ; 0xd014 <end_block9+0x55a4>
    3cb9: 9c 15 d0     	stz	$d015                   ; 0xd015 <end_block9+0x55a5>
    3cbc: a2 20        	ldx	#$20
    3cbe: 86 4e        	stx	$4e                     ; 0x204e <f256main+0x180a>
    3cc0: 8e 16 d0     	stx	$d016                   ; 0xd016 <end_block9+0x55a6>
    3cc3: 9c 17 d0     	stz	$d017                   ; 0xd017 <end_block9+0x55a7>
    3cc6: a9 fa        	lda	#$fa
    3cc8: a2 00        	ldx	#$0
    3cca: 20 32 4e     	jsr	$4e32 <putchar>
    3ccd: a6 67        	ldx	$67                     ; 0x2067 <f256main+0x1823>
    3ccf: f0 4f        	beq	$3d20 <refreshInstrumentText+0x30f>
    3cd1: 64 4d        	stz	$4d                     ; 0x204d <f256main+0x1809>
    3cd3: 9c 14 d0     	stz	$d014                   ; 0xd014 <end_block9+0x55a4>
    3cd6: 9c 15 d0     	stz	$d015                   ; 0xd015 <end_block9+0x55a5>
    3cd9: a2 1e        	ldx	#$1e
    3cdb: 86 4e        	stx	$4e                     ; 0x204e <f256main+0x180a>
    3cdd: 8e 16 d0     	stx	$d016                   ; 0xd016 <end_block9+0x55a6>
    3ce0: 9c 17 d0     	stz	$d017                   ; 0xd017 <end_block9+0x55a7>
    3ce3: a2 00        	ldx	#$0
    3ce5: a9 fa        	lda	#$fa
    3ce7: 20 32 4e     	jsr	$4e32 <putchar>
    3cea: 64 4d        	stz	$4d                     ; 0x204d <f256main+0x1809>
    3cec: 9c 14 d0     	stz	$d014                   ; 0xd014 <end_block9+0x55a4>
    3cef: 9c 15 d0     	stz	$d015                   ; 0xd015 <end_block9+0x55a5>
    3cf2: a2 1f        	ldx	#$1f
    3cf4: 86 4e        	stx	$4e                     ; 0x204e <f256main+0x180a>
    3cf6: 8e 16 d0     	stx	$d016                   ; 0xd016 <end_block9+0x55a6>
    3cf9: 9c 17 d0     	stz	$d017                   ; 0xd017 <end_block9+0x55a7>
    3cfc: a2 00        	ldx	#$0
    3cfe: a9 fa        	lda	#$fa
    3d00: 20 32 4e     	jsr	$4e32 <putchar>
    3d03: 64 4d        	stz	$4d                     ; 0x204d <f256main+0x1809>
    3d05: 9c 14 d0     	stz	$d014                   ; 0xd014 <end_block9+0x55a4>
    3d08: 9c 15 d0     	stz	$d015                   ; 0xd015 <end_block9+0x55a5>
    3d0b: a2 20        	ldx	#$20
    3d0d: 86 4e        	stx	$4e                     ; 0x204e <f256main+0x180a>
    3d0f: 8e 16 d0     	stx	$d016                   ; 0xd016 <end_block9+0x55a6>
    3d12: 9c 17 d0     	stz	$d017                   ; 0xd017 <end_block9+0x55a7>
    3d15: a2 f9        	ldx	#$f9
    3d17: 86 12        	stx	$12                     ; 0x2012 <f256main+0x17ce>
    3d19: a2 6f        	ldx	#$6f
    3d1b: 86 13        	stx	$13                     ; 0x2013 <f256main+0x17cf>
    3d1d: 20 22 35     	jsr	$3522 <textPrint>
    3d20: 18           	clc
    3d21: a5 10        	lda	$10                     ; 0x2010 <f256main+0x17cc>
    3d23: 69 04        	adc	#$4
    3d25: 85 10        	sta	$10                     ; 0x2010 <f256main+0x17cc>
    3d27: a5 11        	lda	$11                     ; 0x2011 <f256main+0x17cd>
    3d29: 69 00        	adc	#$0
    3d2b: 85 11        	sta	$11                     ; 0x2011 <f256main+0x17cd>
    3d2d: 60           	rts

00003d2e <channelTextMenu>:
    3d2e: a2 40        	ldx	#$40
    3d30: 86 30        	stx	$30                     ; 0x2030 <f256main+0x17ec>
    3d32: 64 4d        	stz	$4d                     ; 0x204d <f256main+0x1809>
    3d34: 9c 14 d0     	stz	$d014                   ; 0xd014 <end_block9+0x55a4>
    3d37: 9c 15 d0     	stz	$d015                   ; 0xd015 <end_block9+0x55a5>
    3d3a: a2 1a        	ldx	#$1a
    3d3c: 86 4e        	stx	$4e                     ; 0x204e <f256main+0x180a>
    3d3e: 8e 16 d0     	stx	$d016                   ; 0xd016 <end_block9+0x55a6>
    3d41: 9c 17 d0     	stz	$d017                   ; 0xd017 <end_block9+0x55a7>
    3d44: a2 80        	ldx	#$80
    3d46: 86 12        	stx	$12                     ; 0x2012 <f256main+0x17ce>
    3d48: a2 6f        	ldx	#$6f
    3d4a: 86 13        	stx	$13                     ; 0x2013 <f256main+0x17cf>
    3d4c: 20 22 35     	jsr	$3522 <textPrint>
    3d4f: 64 4d        	stz	$4d                     ; 0x204d <f256main+0x1809>
    3d51: 9c 14 d0     	stz	$d014                   ; 0xd014 <end_block9+0x55a4>
    3d54: 9c 15 d0     	stz	$d015                   ; 0xd015 <end_block9+0x55a5>
    3d57: a2 1b        	ldx	#$1b
    3d59: 86 4e        	stx	$4e                     ; 0x204e <f256main+0x180a>
    3d5b: 8e 16 d0     	stx	$d016                   ; 0xd016 <end_block9+0x55a6>
    3d5e: 9c 17 d0     	stz	$d017                   ; 0xd017 <end_block9+0x55a7>
    3d61: a2 83        	ldx	#$83
    3d63: 86 12        	stx	$12                     ; 0x2012 <f256main+0x17ce>
    3d65: a2 71        	ldx	#$71
    3d67: 86 13        	stx	$13                     ; 0x2013 <f256main+0x17cf>
    3d69: 20 22 35     	jsr	$3522 <textPrint>
    3d6c: a2 01        	ldx	#$1
    3d6e: 86 4d        	stx	$4d                     ; 0x204d <f256main+0x1809>
    3d70: 8e 14 d0     	stx	$d014                   ; 0xd014 <end_block9+0x55a4>
    3d73: 9c 15 d0     	stz	$d015                   ; 0xd015 <end_block9+0x55a5>
    3d76: a2 1d        	ldx	#$1d
    3d78: 86 4e        	stx	$4e                     ; 0x204e <f256main+0x180a>
    3d7a: 8e 16 d0     	stx	$d016                   ; 0xd016 <end_block9+0x55a6>
    3d7d: 9c 17 d0     	stz	$d017                   ; 0xd017 <end_block9+0x55a7>
    3d80: a2 b6        	ldx	#$b6
    3d82: 86 12        	stx	$12                     ; 0x2012 <f256main+0x17ce>
    3d84: a2 72        	ldx	#$72
    3d86: 86 13        	stx	$13                     ; 0x2013 <f256main+0x17cf>
    3d88: 20 22 35     	jsr	$3522 <textPrint>
    3d8b: a2 02        	ldx	#$2
    3d8d: 86 4d        	stx	$4d                     ; 0x204d <f256main+0x1809>
    3d8f: 8e 14 d0     	stx	$d014                   ; 0xd014 <end_block9+0x55a4>
    3d92: 9c 15 d0     	stz	$d015                   ; 0xd015 <end_block9+0x55a5>
    3d95: a2 1e        	ldx	#$1e
    3d97: 86 4e        	stx	$4e                     ; 0x204e <f256main+0x180a>
    3d99: 8e 16 d0     	stx	$d016                   ; 0xd016 <end_block9+0x55a6>
    3d9c: 9c 17 d0     	stz	$d017                   ; 0xd017 <end_block9+0x55a7>
    3d9f: a2 fb        	ldx	#$fb
    3da1: 86 12        	stx	$12                     ; 0x2012 <f256main+0x17ce>
    3da3: a2 6f        	ldx	#$6f
    3da5: 86 13        	stx	$13                     ; 0x2013 <f256main+0x17cf>
    3da7: 20 22 35     	jsr	$3522 <textPrint>
    3daa: a2 02        	ldx	#$2
    3dac: 86 4d        	stx	$4d                     ; 0x204d <f256main+0x1809>
    3dae: 8e 14 d0     	stx	$d014                   ; 0xd014 <end_block9+0x55a4>
    3db1: 9c 15 d0     	stz	$d015                   ; 0xd015 <end_block9+0x55a5>
    3db4: a2 1f        	ldx	#$1f
    3db6: 86 4e        	stx	$4e                     ; 0x204e <f256main+0x180a>
    3db8: 8e 16 d0     	stx	$d016                   ; 0xd016 <end_block9+0x55a6>
    3dbb: 9c 17 d0     	stz	$d017                   ; 0xd017 <end_block9+0x55a7>
    3dbe: a2 eb        	ldx	#$eb
    3dc0: 86 12        	stx	$12                     ; 0x2012 <f256main+0x17ce>
    3dc2: a2 77        	ldx	#$77
    3dc4: 86 13        	stx	$13                     ; 0x2013 <f256main+0x17cf>
    3dc6: 20 22 35     	jsr	$3522 <textPrint>
    3dc9: a2 02        	ldx	#$2
    3dcb: 86 4d        	stx	$4d                     ; 0x204d <f256main+0x1809>
    3dcd: 8e 14 d0     	stx	$d014                   ; 0xd014 <end_block9+0x55a4>
    3dd0: 9c 15 d0     	stz	$d015                   ; 0xd015 <end_block9+0x55a5>
    3dd3: a2 20        	ldx	#$20
    3dd5: 86 4e        	stx	$4e                     ; 0x204e <f256main+0x180a>
    3dd7: 8e 16 d0     	stx	$d016                   ; 0xd016 <end_block9+0x55a6>
    3dda: 9c 17 d0     	stz	$d017                   ; 0xd017 <end_block9+0x55a7>
    3ddd: a2 68        	ldx	#$68
    3ddf: 86 12        	stx	$12                     ; 0x2012 <f256main+0x17ce>
    3de1: a2 78        	ldx	#$78
    3de3: 86 13        	stx	$13                     ; 0x2013 <f256main+0x17cf>
    3de5: 20 22 35     	jsr	$3522 <textPrint>
    3de8: 64 4d        	stz	$4d                     ; 0x204d <f256main+0x1809>
    3dea: 9c 14 d0     	stz	$d014                   ; 0xd014 <end_block9+0x55a4>
    3ded: 9c 15 d0     	stz	$d015                   ; 0xd015 <end_block9+0x55a5>
    3df0: a2 21        	ldx	#$21
    3df2: 86 4e        	stx	$4e                     ; 0x204e <f256main+0x180a>
    3df4: 8e 16 d0     	stx	$d016                   ; 0xd016 <end_block9+0x55a6>
    3df7: 9c 17 d0     	stz	$d017                   ; 0xd017 <end_block9+0x55a7>
    3dfa: a2 4c        	ldx	#$4c
    3dfc: 86 12        	stx	$12                     ; 0x2012 <f256main+0x17ce>
    3dfe: a2 75        	ldx	#$75
    3e00: 86 13        	stx	$13                     ; 0x2013 <f256main+0x17cf>
    3e02: 20 22 35     	jsr	$3522 <textPrint>
    3e05: 4c 11 3a     	jmp	$3a11 <refreshInstrumentText>

00003e08 <refreshBeatTextChoice>:
    3e08: a5 51        	lda	$51                     ; 0x2051 <f256main+0x180d>
    3e0a: c9 04        	cmp	#$4
    3e0c: 90 03        	bcc	$3e11 <refreshBeatTextChoice+0x9>
    3e0e: 4c f6 3e     	jmp	$3ef6 <refreshBeatTextChoice+0xee>
    3e11: 0a           	asl
    3e12: aa           	tax
    3e13: 7c 22 6e     	jmp	($6e22,x)               ; 0x6e22 <__set_v+0xdf>
    3e16: a2 40        	ldx	#$40
    3e18: 86 88        	stx	$88                     ; 0x2088 <f256main+0x1844>
    3e1a: a2 90        	ldx	#$90
    3e1c: 86 30        	stx	$30                     ; 0x2030 <f256main+0x17ec>
    3e1e: a2 2d        	ldx	#$2d
    3e20: 86 4d        	stx	$4d                     ; 0x204d <f256main+0x1809>
    3e22: 8e 14 d0     	stx	$d014                   ; 0xd014 <end_block9+0x55a4>
    3e25: 9c 15 d0     	stz	$d015                   ; 0xd015 <end_block9+0x55a5>
    3e28: a2 1d        	ldx	#$1d
    3e2a: 86 4e        	stx	$4e                     ; 0x204e <f256main+0x180a>
    3e2c: 8e 16 d0     	stx	$d016                   ; 0xd016 <end_block9+0x55a6>
    3e2f: 9c 17 d0     	stz	$d017                   ; 0xd017 <end_block9+0x55a7>
    3e32: a2 6e        	ldx	#$6e
    3e34: 86 86        	stx	$86                     ; 0x2086 <f256main+0x1842>
    3e36: a2 73        	ldx	#$73
    3e38: 86 87        	stx	$87                     ; 0x2087 <f256main+0x1843>
    3e3a: a2 a7        	ldx	#$a7
    3e3c: 86 12        	stx	$12                     ; 0x2012 <f256main+0x17ce>
    3e3e: a2 6f        	ldx	#$6f
    3e40: 4c e2 3e     	jmp	$3ee2 <refreshBeatTextChoice+0xda>
    3e43: a2 40        	ldx	#$40
    3e45: 86 88        	stx	$88                     ; 0x2088 <f256main+0x1844>
    3e47: 86 30        	stx	$30                     ; 0x2030 <f256main+0x17ec>
    3e49: a2 2d        	ldx	#$2d
    3e4b: 86 4d        	stx	$4d                     ; 0x204d <f256main+0x1809>
    3e4d: 8e 14 d0     	stx	$d014                   ; 0xd014 <end_block9+0x55a4>
    3e50: 9c 15 d0     	stz	$d015                   ; 0xd015 <end_block9+0x55a5>
    3e53: a2 1d        	ldx	#$1d
    3e55: 86 4e        	stx	$4e                     ; 0x204e <f256main+0x180a>
    3e57: 8e 16 d0     	stx	$d016                   ; 0xd016 <end_block9+0x55a6>
    3e5a: 9c 17 d0     	stz	$d017                   ; 0xd017 <end_block9+0x55a7>
    3e5d: a2 c6        	ldx	#$c6
    3e5f: 86 12        	stx	$12                     ; 0x2012 <f256main+0x17ce>
    3e61: a2 78        	ldx	#$78
    3e63: 86 13        	stx	$13                     ; 0x2013 <f256main+0x17cf>
    3e65: 20 22 35     	jsr	$3522 <textPrint>
    3e68: a2 90        	ldx	#$90
    3e6a: 86 30        	stx	$30                     ; 0x2030 <f256main+0x17ec>
    3e6c: a2 1a        	ldx	#$1a
    3e6e: 86 86        	stx	$86                     ; 0x2086 <f256main+0x1842>
    3e70: a2 78        	ldx	#$78
    3e72: 86 87        	stx	$87                     ; 0x2087 <f256main+0x1843>
    3e74: a2 36        	ldx	#$36
    3e76: 86 12        	stx	$12                     ; 0x2012 <f256main+0x17ce>
    3e78: a2 6f        	ldx	#$6f
    3e7a: 4c e2 3e     	jmp	$3ee2 <refreshBeatTextChoice+0xda>
    3e7d: a2 40        	ldx	#$40
    3e7f: 86 30        	stx	$30                     ; 0x2030 <f256main+0x17ec>
    3e81: a2 2d        	ldx	#$2d
    3e83: 86 4d        	stx	$4d                     ; 0x204d <f256main+0x1809>
    3e85: 8e 14 d0     	stx	$d014                   ; 0xd014 <end_block9+0x55a4>
    3e88: 9c 15 d0     	stz	$d015                   ; 0xd015 <end_block9+0x55a5>
    3e8b: a2 1d        	ldx	#$1d
    3e8d: 86 4e        	stx	$4e                     ; 0x204e <f256main+0x180a>
    3e8f: 8e 16 d0     	stx	$d016                   ; 0xd016 <end_block9+0x55a6>
    3e92: 9c 17 d0     	stz	$d017                   ; 0xd017 <end_block9+0x55a7>
    3e95: a2 ef        	ldx	#$ef
    3e97: 86 86        	stx	$86                     ; 0x2086 <f256main+0x1842>
    3e99: a2 77        	ldx	#$77
    3e9b: 86 87        	stx	$87                     ; 0x2087 <f256main+0x1843>
    3e9d: a2 31        	ldx	#$31
    3e9f: 86 12        	stx	$12                     ; 0x2012 <f256main+0x17ce>
    3ea1: a2 76        	ldx	#$76
    3ea3: 86 13        	stx	$13                     ; 0x2013 <f256main+0x17cf>
    3ea5: a2 90        	ldx	#$90
    3ea7: 86 88        	stx	$88                     ; 0x2088 <f256main+0x1844>
    3ea9: 80 39        	bra	$3ee4 <refreshBeatTextChoice+0xdc>
    3eab: a2 40        	ldx	#$40
    3ead: 86 88        	stx	$88                     ; 0x2088 <f256main+0x1844>
    3eaf: 86 30        	stx	$30                     ; 0x2030 <f256main+0x17ec>
    3eb1: a2 2d        	ldx	#$2d
    3eb3: 86 4d        	stx	$4d                     ; 0x204d <f256main+0x1809>
    3eb5: 8e 14 d0     	stx	$d014                   ; 0xd014 <end_block9+0x55a4>
    3eb8: 9c 15 d0     	stz	$d015                   ; 0xd015 <end_block9+0x55a5>
    3ebb: a2 1d        	ldx	#$1d
    3ebd: 86 4e        	stx	$4e                     ; 0x204e <f256main+0x180a>
    3ebf: 8e 16 d0     	stx	$d016                   ; 0xd016 <end_block9+0x55a6>
    3ec2: 9c 17 d0     	stz	$d017                   ; 0xd017 <end_block9+0x55a7>
    3ec5: a2 86        	ldx	#$86
    3ec7: 86 12        	stx	$12                     ; 0x2012 <f256main+0x17ce>
    3ec9: a2 73        	ldx	#$73
    3ecb: 86 13        	stx	$13                     ; 0x2013 <f256main+0x17cf>
    3ecd: 20 22 35     	jsr	$3522 <textPrint>
    3ed0: a2 90        	ldx	#$90
    3ed2: 86 30        	stx	$30                     ; 0x2030 <f256main+0x17ec>
    3ed4: a2 b0        	ldx	#$b0
    3ed6: 86 86        	stx	$86                     ; 0x2086 <f256main+0x1842>
    3ed8: a2 6f        	ldx	#$6f
    3eda: 86 87        	stx	$87                     ; 0x2087 <f256main+0x1843>
    3edc: a2 91        	ldx	#$91
    3ede: 86 12        	stx	$12                     ; 0x2012 <f256main+0x17ce>
    3ee0: a2 76        	ldx	#$76
    3ee2: 86 13        	stx	$13                     ; 0x2013 <f256main+0x17cf>
    3ee4: 20 22 35     	jsr	$3522 <textPrint>
    3ee7: a6 88        	ldx	$88                     ; 0x2088 <f256main+0x1844>
    3ee9: 86 30        	stx	$30                     ; 0x2030 <f256main+0x17ec>
    3eeb: a6 86        	ldx	$86                     ; 0x2086 <f256main+0x1842>
    3eed: 86 12        	stx	$12                     ; 0x2012 <f256main+0x17ce>
    3eef: a6 87        	ldx	$87                     ; 0x2087 <f256main+0x1843>
    3ef1: 86 13        	stx	$13                     ; 0x2013 <f256main+0x17cf>
    3ef3: 20 22 35     	jsr	$3522 <textPrint>
    3ef6: 60           	rts

00003ef7 <highLightInstChoice>:
    3ef7: aa           	tax
    3ef8: f0 04        	beq	$3efe <highLightInstChoice+0x7>
    3efa: a2 90        	ldx	#$90
    3efc: 80 02        	bra	$3f00 <highLightInstChoice+0x9>
    3efe: a2 50        	ldx	#$50
    3f00: 18           	clc
    3f01: a5 10        	lda	$10                     ; 0x2010 <f256main+0x17cc>
    3f03: 69 fc        	adc	#$fc
    3f05: 85 10        	sta	$10                     ; 0x2010 <f256main+0x17cc>
    3f07: a5 11        	lda	$11                     ; 0x2011 <f256main+0x17cd>
    3f09: 69 ff        	adc	#$ff
    3f0b: 85 11        	sta	$11                     ; 0x2011 <f256main+0x17cd>
    3f0d: 86 30        	stx	$30                     ; 0x2030 <f256main+0x17ec>
    3f0f: a5 66        	lda	$66                     ; 0x2066 <f256main+0x1822>
    3f11: a0 01        	ldy	#$1
    3f13: 0a           	asl
    3f14: 85 12        	sta	$12                     ; 0x2012 <f256main+0x17ce>
    3f16: a9 00        	lda	#$0
    3f18: 2a           	rol
    3f19: 85 13        	sta	$13                     ; 0x2013 <f256main+0x17cf>
    3f1b: a9 52        	lda	#$52
    3f1d: 18           	clc
    3f1e: 65 12        	adc	$12                     ; 0x2012 <f256main+0x17ce>
    3f20: 85 12        	sta	$12                     ; 0x2012 <f256main+0x17ce>
    3f22: a9 00        	lda	#$0
    3f24: 65 13        	adc	$13                     ; 0x2013 <f256main+0x17cf>
    3f26: 85 13        	sta	$13                     ; 0x2013 <f256main+0x17cf>
    3f28: a2 86        	ldx	#$86
    3f2a: 86 14        	stx	$14                     ; 0x2014 <f256main+0x17d0>
    3f2c: a2 00        	ldx	#$0
    3f2e: 86 15        	stx	$15                     ; 0x2015 <f256main+0x17d1>
    3f30: b2 12        	lda	($12)                   ; 0x2012 <f256main+0x17ce>
    3f32: 85 16        	sta	$16                     ; 0x2016 <f256main+0x17d2>
    3f34: b1 12        	lda	($12),y                 ; 0x2012 <f256main+0x17ce>
    3f36: a2 03        	ldx	#$3
    3f38: 64 13        	stz	$13                     ; 0x2013 <f256main+0x17cf>
    3f3a: 86 12        	stx	$12                     ; 0x2012 <f256main+0x17ce>
    3f3c: aa           	tax
    3f3d: a5 16        	lda	$16                     ; 0x2016 <f256main+0x17d2>
    3f3f: 20 61 54     	jsr	$5461 <__udivmodhi4>
    3f42: 85 88        	sta	$88                     ; 0x2088 <f256main+0x1844>
    3f44: a5 86        	lda	$86                     ; 0x2086 <f256main+0x1842>
    3f46: a2 19        	ldx	#$19
    3f48: 20 65 51     	jsr	$5165 <__mulqi3>
    3f4b: 18           	clc
    3f4c: 69 02        	adc	#$2
    3f4e: a6 88        	ldx	$88                     ; 0x2088 <f256main+0x1844>
    3f50: e8           	inx
    3f51: 85 4d        	sta	$4d                     ; 0x204d <f256main+0x1809>
    3f53: 8d 14 d0     	sta	$d014                   ; 0xd014 <end_block9+0x55a4>
    3f56: 9c 15 d0     	stz	$d015                   ; 0xd015 <end_block9+0x55a5>
    3f59: 86 4e        	stx	$4e                     ; 0x204e <f256main+0x180a>
    3f5b: 8e 16 d0     	stx	$d016                   ; 0xd016 <end_block9+0x55a6>
    3f5e: 9c 17 d0     	stz	$d017                   ; 0xd017 <end_block9+0x55a7>
    3f61: a5 66        	lda	$66                     ; 0x2066 <f256main+0x1822>
    3f63: 0a           	asl
    3f64: 85 12        	sta	$12                     ; 0x2012 <f256main+0x17ce>
    3f66: 64 13        	stz	$13                     ; 0x2013 <f256main+0x17cf>
    3f68: 26 13        	rol	$13                     ; 0x2013 <f256main+0x17cf>
    3f6a: 18           	clc
    3f6b: a9 52        	lda	#$52
    3f6d: 65 12        	adc	$12                     ; 0x2012 <f256main+0x17ce>
    3f6f: 85 12        	sta	$12                     ; 0x2012 <f256main+0x17ce>
    3f71: a9 00        	lda	#$0
    3f73: 65 13        	adc	$13                     ; 0x2013 <f256main+0x17cf>
    3f75: 85 13        	sta	$13                     ; 0x2013 <f256main+0x17cf>
    3f77: b2 12        	lda	($12)                   ; 0x2012 <f256main+0x17ce>
    3f79: aa           	tax
    3f7a: a0 01        	ldy	#$1
    3f7c: b1 12        	lda	($12),y                 ; 0x2012 <f256main+0x17ce>
    3f7e: 85 14        	sta	$14                     ; 0x2014 <f256main+0x17d0>
    3f80: 8a           	txa
    3f81: 0a           	asl
    3f82: 85 12        	sta	$12                     ; 0x2012 <f256main+0x17ce>
    3f84: a5 14        	lda	$14                     ; 0x2014 <f256main+0x17d0>
    3f86: 2a           	rol
    3f87: 85 13        	sta	$13                     ; 0x2013 <f256main+0x17cf>
    3f89: a9 19        	lda	#$19
    3f8b: 18           	clc
    3f8c: 65 12        	adc	$12                     ; 0x2012 <f256main+0x17ce>
    3f8e: 85 12        	sta	$12                     ; 0x2012 <f256main+0x17ce>
    3f90: a9 79        	lda	#$79
    3f92: 65 13        	adc	$13                     ; 0x2013 <f256main+0x17cf>
    3f94: 85 13        	sta	$13                     ; 0x2013 <f256main+0x17cf>
    3f96: b2 12        	lda	($12)                   ; 0x2012 <f256main+0x17ce>
    3f98: 85 16        	sta	$16                     ; 0x2016 <f256main+0x17d2>
    3f9a: b1 12        	lda	($12),y                 ; 0x2012 <f256main+0x17ce>
    3f9c: 85 15        	sta	$15                     ; 0x2015 <f256main+0x17d1>
    3f9e: a5 10        	lda	$10                     ; 0x2010 <f256main+0x17cc>
    3fa0: a4 11        	ldy	$11                     ; 0x2011 <f256main+0x17cd>
    3fa2: 18           	clc
    3fa3: 69 02        	adc	#$2
    3fa5: 85 12        	sta	$12                     ; 0x2012 <f256main+0x17ce>
    3fa7: 98           	tya
    3fa8: 69 00        	adc	#$0
    3faa: 85 13        	sta	$13                     ; 0x2013 <f256main+0x17cf>
    3fac: a0 02        	ldy	#$2
    3fae: a5 16        	lda	$16                     ; 0x2016 <f256main+0x17d2>
    3fb0: 91 10        	sta	($10),y                 ; 0x2010 <f256main+0x17cc>
    3fb2: 8a           	txa
    3fb3: 92 10        	sta	($10)                   ; 0x2010 <f256main+0x17cc>
    3fb5: a5 14        	lda	$14                     ; 0x2014 <f256main+0x17d0>
    3fb7: 88           	dey
    3fb8: 91 10        	sta	($10),y                 ; 0x2010 <f256main+0x17cc>
    3fba: a5 15        	lda	$15                     ; 0x2015 <f256main+0x17d1>
    3fbc: 91 12        	sta	($12),y                 ; 0x2012 <f256main+0x17ce>
    3fbe: a2 b3        	ldx	#$b3
    3fc0: 86 12        	stx	$12                     ; 0x2012 <f256main+0x17ce>
    3fc2: a2 70        	ldx	#$70
    3fc4: 86 13        	stx	$13                     ; 0x2013 <f256main+0x17cf>
    3fc6: 20 82 42     	jsr	$4282 <printf>
    3fc9: 18           	clc
    3fca: a5 10        	lda	$10                     ; 0x2010 <f256main+0x17cc>
    3fcc: 69 04        	adc	#$4
    3fce: 85 10        	sta	$10                     ; 0x2010 <f256main+0x17cc>
    3fd0: a5 11        	lda	$11                     ; 0x2011 <f256main+0x17cd>
    3fd2: 69 00        	adc	#$0
    3fd4: 85 11        	sta	$11                     ; 0x2011 <f256main+0x17cd>
    3fd6: 60           	rts

00003fd7 <textPrintUInt>:
    3fd7: 48           	pha
    3fd8: 18           	clc
    3fd9: a5 10        	lda	$10                     ; 0x2010 <f256main+0x17cc>
    3fdb: 69 fe        	adc	#$fe
    3fdd: 85 10        	sta	$10                     ; 0x2010 <f256main+0x17cc>
    3fdf: a5 11        	lda	$11                     ; 0x2011 <f256main+0x17cd>
    3fe1: 69 ff        	adc	#$ff
    3fe3: 85 11        	sta	$11                     ; 0x2011 <f256main+0x17cd>
    3fe5: 68           	pla
    3fe6: a4 24        	ldy	$24                     ; 0x2024 <f256main+0x17e0>
    3fe8: 5a           	phy
    3fe9: a4 25        	ldy	$25                     ; 0x2025 <f256main+0x17e1>
    3feb: 5a           	phy
    3fec: a4 26        	ldy	$26                     ; 0x2026 <f256main+0x17e2>
    3fee: 5a           	phy
    3fef: a4 27        	ldy	$27                     ; 0x2027 <f256main+0x17e3>
    3ff1: 5a           	phy
    3ff2: 86 25        	stx	$25                     ; 0x2025 <f256main+0x17e1>
    3ff4: a4 12        	ldy	$12                     ; 0x2012 <f256main+0x17ce>
    3ff6: a6 13        	ldx	$13                     ; 0x2013 <f256main+0x17cf>
    3ff8: d0 18        	bne	$4012 <textPrintUInt+0x3b>
    3ffa: 86 27        	stx	$27                     ; 0x2027 <f256main+0x17e3>
    3ffc: c0 00        	cpy	#$0
    3ffe: f0 03        	beq	$4003 <textPrintUInt+0x2c>
    4000: 4c 82 40     	jmp	$4082 <textPrintUInt+0xab>
    4003: a6 25        	ldx	$25                     ; 0x2025 <f256main+0x17e1>
    4005: f0 03        	beq	$400a <textPrintUInt+0x33>
    4007: 4c 8b 40     	jmp	$408b <textPrintUInt+0xb4>
    400a: 84 26        	sty	$26                     ; 0x2026 <f256main+0x17e2>
    400c: c9 0a        	cmp	#$a
    400e: b0 0a        	bcs	$401a <textPrintUInt+0x43>
    4010: 80 29        	bra	$403b <textPrintUInt+0x64>
    4012: 84 26        	sty	$26                     ; 0x2026 <f256main+0x17e2>
    4014: 86 27        	stx	$27                     ; 0x2027 <f256main+0x17e3>
    4016: e0 00        	cpx	#$0
    4018: 90 21        	bcc	$403b <textPrintUInt+0x64>
    401a: 8d 06 de     	sta	$de06                   ; 0xde06 <end_block9+0x6396>
    401d: a4 25        	ldy	$25                     ; 0x2025 <f256main+0x17e1>
    401f: 8c 07 de     	sty	$de07                   ; 0xde07 <end_block9+0x6397>
    4022: a2 0a        	ldx	#$a
    4024: 8e 04 de     	stx	$de04                   ; 0xde04 <end_block9+0x6394>
    4027: 9c 05 de     	stz	$de05                   ; 0xde05 <end_block9+0x6395>
    402a: 85 24        	sta	$24                     ; 0x2024 <f256main+0x17e0>
    402c: ad 14 de     	lda	$de14                   ; 0xde14 <end_block9+0x63a4>
    402f: ae 15 de     	ldx	$de15                   ; 0xde15 <end_block9+0x63a5>
    4032: 64 12        	stz	$12                     ; 0x2012 <f256main+0x17ce>
    4034: 64 13        	stz	$13                     ; 0x2013 <f256main+0x17cf>
    4036: 20 d7 3f     	jsr	$3fd7 <textPrintUInt>
    4039: a5 24        	lda	$24                     ; 0x2024 <f256main+0x17e0>
    403b: a2 0a        	ldx	#$a
    403d: a4 26        	ldy	$26                     ; 0x2026 <f256main+0x17e2>
    403f: 84 12        	sty	$12                     ; 0x2012 <f256main+0x17ce>
    4041: a4 27        	ldy	$27                     ; 0x2027 <f256main+0x17e3>
    4043: 84 13        	sty	$13                     ; 0x2013 <f256main+0x17cf>
    4045: 86 14        	stx	$14                     ; 0x2014 <f256main+0x17d0>
    4047: 64 15        	stz	$15                     ; 0x2015 <f256main+0x17d1>
    4049: 64 16        	stz	$16                     ; 0x2016 <f256main+0x17d2>
    404b: 64 17        	stz	$17                     ; 0x2017 <f256main+0x17d3>
    404d: a6 25        	ldx	$25                     ; 0x2025 <f256main+0x17e1>
    404f: 20 1a 53     	jsr	$531a <__umodsi3>
    4052: 09 30        	ora	#$30
    4054: 18           	clc
    4055: a6 10        	ldx	$10                     ; 0x2010 <f256main+0x17cc>
    4057: 86 12        	stx	$12                     ; 0x2012 <f256main+0x17ce>
    4059: a6 11        	ldx	$11                     ; 0x2011 <f256main+0x17cd>
    405b: 86 13        	stx	$13                     ; 0x2013 <f256main+0x17cf>
    405d: 92 12        	sta	($12)                   ; 0x2012 <f256main+0x17ce>
    405f: a0 01        	ldy	#$1
    4061: a9 00        	lda	#$0
    4063: 91 12        	sta	($12),y                 ; 0x2012 <f256main+0x17ce>
    4065: 20 22 35     	jsr	$3522 <textPrint>
    4068: fa           	plx
    4069: 86 27        	stx	$27                     ; 0x2027 <f256main+0x17e3>
    406b: fa           	plx
    406c: 86 26        	stx	$26                     ; 0x2026 <f256main+0x17e2>
    406e: fa           	plx
    406f: 86 25        	stx	$25                     ; 0x2025 <f256main+0x17e1>
    4071: fa           	plx
    4072: 86 24        	stx	$24                     ; 0x2024 <f256main+0x17e0>
    4074: 18           	clc
    4075: a5 10        	lda	$10                     ; 0x2010 <f256main+0x17cc>
    4077: 69 02        	adc	#$2
    4079: 85 10        	sta	$10                     ; 0x2010 <f256main+0x17cc>
    407b: a5 11        	lda	$11                     ; 0x2011 <f256main+0x17cd>
    407d: 69 00        	adc	#$0
    407f: 85 11        	sta	$11                     ; 0x2011 <f256main+0x17cd>
    4081: 60           	rts
    4082: 84 26        	sty	$26                     ; 0x2026 <f256main+0x17e2>
    4084: c0 00        	cpy	#$0
    4086: 90 b3        	bcc	$403b <textPrintUInt+0x64>
    4088: 4c 1a 40     	jmp	$401a <textPrintUInt+0x43>
    408b: 84 26        	sty	$26                     ; 0x2026 <f256main+0x17e2>
    408d: a6 25        	ldx	$25                     ; 0x2025 <f256main+0x17e1>
    408f: 4c 16 40     	jmp	$4016 <textPrintUInt+0x3f>

00004092 <__putchar>:
    4092: 85 4f        	sta	$4f                     ; 0x204f <f256main+0x180b>
    4094: a2 4f        	ldx	#$4f
    4096: 86 12        	stx	$12                     ; 0x2012 <f256main+0x17ce>
    4098: a2 00        	ldx	#$0
    409a: 86 13        	stx	$13                     ; 0x2013 <f256main+0x17cf>
    409c: 4c 22 35     	jmp	$3522 <textPrint>

0000409f <exit>:
    409f: 20 2d 03     	jsr	$32d <_fini>
    40a2: 80 fe        	bra	$40a2 <exit+0x3>

000040a4 <_ZN12_GLOBAL__N_13putEcP6Status>:
    40a4: 85 18        	sta	$18                     ; 0x2018 <f256main+0x17d4>
    40a6: a6 13        	ldx	$13                     ; 0x2013 <f256main+0x17cf>
    40a8: 18           	clc
    40a9: a5 12        	lda	$12                     ; 0x2012 <f256main+0x17ce>
    40ab: 69 05        	adc	#$5
    40ad: a8           	tay
    40ae: a5 13        	lda	$13                     ; 0x2013 <f256main+0x17cf>
    40b0: 86 15        	stx	$15                     ; 0x2015 <f256main+0x17d1>
    40b2: 69 00        	adc	#$0
    40b4: 18           	clc
    40b5: 84 16        	sty	$16                     ; 0x2016 <f256main+0x17d2>
    40b7: a0 05        	ldy	#$5
    40b9: 85 17        	sta	$17                     ; 0x2017 <f256main+0x17d3>
    40bb: b1 12        	lda	($12),y                 ; 0x2012 <f256main+0x17ce>
    40bd: aa           	tax
    40be: a5 12        	lda	$12                     ; 0x2012 <f256main+0x17ce>
    40c0: 69 03        	adc	#$3
    40c2: 85 14        	sta	$14                     ; 0x2014 <f256main+0x17d0>
    40c4: a5 15        	lda	$15                     ; 0x2015 <f256main+0x17d1>
    40c6: 69 00        	adc	#$0
    40c8: 85 15        	sta	$15                     ; 0x2015 <f256main+0x17d1>
    40ca: a0 01        	ldy	#$1
    40cc: b1 16        	lda	($16),y                 ; 0x2016 <f256main+0x17d2>
    40ce: d1 14        	cmp	($14),y                 ; 0x2014 <f256main+0x17d0>
    40d0: d0 11        	bne	$40e3 <_ZN12_GLOBAL__N_13putEcP6Status+0x3f>
    40d2: a0 03        	ldy	#$3
    40d4: 85 17        	sta	$17                     ; 0x2017 <f256main+0x17d3>
    40d6: b1 12        	lda	($12),y                 ; 0x2012 <f256main+0x17ce>
    40d8: 85 14        	sta	$14                     ; 0x2014 <f256main+0x17d0>
    40da: 86 16        	stx	$16                     ; 0x2016 <f256main+0x17d2>
    40dc: e4 14        	cpx	$14                     ; 0x2014 <f256main+0x17d0>
    40de: 90 0e        	bcc	$40ee <_ZN12_GLOBAL__N_13putEcP6Status+0x4a>
    40e0: 4c 4d 41     	jmp	$414d <_ZN12_GLOBAL__N_13putEcP6Status+0xa9>
    40e3: 86 16        	stx	$16                     ; 0x2016 <f256main+0x17d2>
    40e5: d1 14        	cmp	($14),y                 ; 0x2014 <f256main+0x17d0>
    40e7: 85 17        	sta	$17                     ; 0x2017 <f256main+0x17d3>
    40e9: 90 03        	bcc	$40ee <_ZN12_GLOBAL__N_13putEcP6Status+0x4a>
    40eb: 4c 4d 41     	jmp	$414d <_ZN12_GLOBAL__N_13putEcP6Status+0xa9>
    40ee: a5 12        	lda	$12                     ; 0x2012 <f256main+0x17ce>
    40f0: 18           	clc
    40f1: 69 0f        	adc	#$f
    40f3: 85 14        	sta	$14                     ; 0x2014 <f256main+0x17d0>
    40f5: a5 13        	lda	$13                     ; 0x2013 <f256main+0x17cf>
    40f7: 69 00        	adc	#$0
    40f9: 85 15        	sta	$15                     ; 0x2015 <f256main+0x17d1>
    40fb: a0 01        	ldy	#$1
    40fd: b1 14        	lda	($14),y                 ; 0x2014 <f256main+0x17d0>
    40ff: a2 00        	ldx	#$0
    4101: 86 14        	stx	$14                     ; 0x2014 <f256main+0x17d0>
    4103: a2 00        	ldx	#$0
    4105: 86 15        	stx	$15                     ; 0x2015 <f256main+0x17d1>
    4107: c5 15        	cmp	$15                     ; 0x2015 <f256main+0x17d1>
    4109: d0 2d        	bne	$4138 <_ZN12_GLOBAL__N_13putEcP6Status+0x94>
    410b: a0 0f        	ldy	#$f
    410d: b1 12        	lda	($12),y                 ; 0x2012 <f256main+0x17ce>
    410f: c5 14        	cmp	$14                     ; 0x2014 <f256main+0x17d0>
    4111: d0 25        	bne	$4138 <_ZN12_GLOBAL__N_13putEcP6Status+0x94>
    4113: a5 12        	lda	$12                     ; 0x2012 <f256main+0x17ce>
    4115: 18           	clc
    4116: 69 09        	adc	#$9
    4118: 85 14        	sta	$14                     ; 0x2014 <f256main+0x17d0>
    411a: a5 13        	lda	$13                     ; 0x2013 <f256main+0x17cf>
    411c: 69 00        	adc	#$0
    411e: a0 09        	ldy	#$9
    4120: 85 15        	sta	$15                     ; 0x2015 <f256main+0x17d1>
    4122: 18           	clc
    4123: a5 16        	lda	$16                     ; 0x2016 <f256main+0x17d2>
    4125: 71 12        	adc	($12),y                 ; 0x2012 <f256main+0x17ce>
    4127: aa           	tax
    4128: a0 01        	ldy	#$1
    412a: a5 17        	lda	$17                     ; 0x2017 <f256main+0x17d3>
    412c: 71 14        	adc	($14),y                 ; 0x2014 <f256main+0x17d0>
    412e: 86 14        	stx	$14                     ; 0x2014 <f256main+0x17d0>
    4130: 85 15        	sta	$15                     ; 0x2015 <f256main+0x17d1>
    4132: a5 18        	lda	$18                     ; 0x2018 <f256main+0x17d4>
    4134: 92 14        	sta	($14)                   ; 0x2014 <f256main+0x17d0>
    4136: 80 15        	bra	$414d <_ZN12_GLOBAL__N_13putEcP6Status+0xa9>
    4138: a6 12        	ldx	$12                     ; 0x2012 <f256main+0x17ce>
    413a: 86 de        	stx	$de                     ; 0x20de <f256main+0x189a>
    413c: a6 13        	ldx	$13                     ; 0x2013 <f256main+0x17cf>
    413e: 86 df        	stx	$df                     ; 0x20df <f256main+0x189b>
    4140: a5 18        	lda	$18                     ; 0x2018 <f256main+0x17d4>
    4142: 20 92 40     	jsr	$4092 <__putchar>
    4145: a6 de        	ldx	$de                     ; 0x20de <f256main+0x189a>
    4147: 86 12        	stx	$12                     ; 0x2012 <f256main+0x17ce>
    4149: a6 df        	ldx	$df                     ; 0x20df <f256main+0x189b>
    414b: 86 13        	stx	$13                     ; 0x2013 <f256main+0x17cf>
    414d: a0 05        	ldy	#$5
    414f: a5 12        	lda	$12                     ; 0x2012 <f256main+0x17ce>
    4151: 18           	clc
    4152: 69 05        	adc	#$5
    4154: 85 14        	sta	$14                     ; 0x2014 <f256main+0x17d0>
    4156: a5 13        	lda	$13                     ; 0x2013 <f256main+0x17cf>
    4158: 69 00        	adc	#$0
    415a: 85 15        	sta	$15                     ; 0x2015 <f256main+0x17d1>
    415c: b1 12        	lda	($12),y                 ; 0x2012 <f256main+0x17ce>
    415e: aa           	tax
    415f: a0 01        	ldy	#$1
    4161: b1 14        	lda	($14),y                 ; 0x2014 <f256main+0x17d0>
    4163: e8           	inx
    4164: d0 01        	bne	$4167 <_ZN12_GLOBAL__N_13putEcP6Status+0xc3>
    4166: 1a           	inc
    4167: 85 16        	sta	$16                     ; 0x2016 <f256main+0x17d2>
    4169: 8a           	txa
    416a: a0 05        	ldy	#$5
    416c: 91 12        	sta	($12),y                 ; 0x2012 <f256main+0x17ce>
    416e: a0 01        	ldy	#$1
    4170: a5 16        	lda	$16                     ; 0x2016 <f256main+0x17d2>
    4172: 91 14        	sta	($14),y                 ; 0x2014 <f256main+0x17d0>
    4174: 60           	rts

00004175 <_ZN12_GLOBAL__N_112print_stringEPKcP6Status>:
    4175: a6 12        	ldx	$12                     ; 0x2012 <f256main+0x17ce>
    4177: 86 d6        	stx	$d6                     ; 0x20d6 <f256main+0x1892>
    4179: a6 13        	ldx	$13                     ; 0x2013 <f256main+0x17cf>
    417b: 86 d7        	stx	$d7                     ; 0x20d7 <f256main+0x1893>
    417d: a6 14        	ldx	$14                     ; 0x2014 <f256main+0x17d0>
    417f: 86 d8        	stx	$d8                     ; 0x20d8 <f256main+0x1894>
    4181: a6 15        	ldx	$15                     ; 0x2015 <f256main+0x17d1>
    4183: 86 d9        	stx	$d9                     ; 0x20d9 <f256main+0x1895>
    4185: a5 d8        	lda	$d8                     ; 0x20d8 <f256main+0x1894>
    4187: 18           	clc
    4188: 69 0d        	adc	#$d
    418a: 85 12        	sta	$12                     ; 0x2012 <f256main+0x17ce>
    418c: a5 d9        	lda	$d9                     ; 0x20d9 <f256main+0x1895>
    418e: 69 00        	adc	#$0
    4190: 85 13        	sta	$13                     ; 0x2013 <f256main+0x17cf>
    4192: a0 01        	ldy	#$1
    4194: b1 12        	lda	($12),y                 ; 0x2012 <f256main+0x17ce>
    4196: 30 16        	bmi	$41ae <_ZN12_GLOBAL__N_112print_stringEPKcP6Status+0x39>
    4198: a0 0d        	ldy	#$d
    419a: 85 12        	sta	$12                     ; 0x2012 <f256main+0x17ce>
    419c: b1 d8        	lda	($d8),y                 ; 0x20d8 <f256main+0x1894>
    419e: a6 12        	ldx	$12                     ; 0x2012 <f256main+0x17ce>
    41a0: 86 dd        	stx	$dd                     ; 0x20dd <f256main+0x1899>
    41a2: d0 0f        	bne	$41b3 <_ZN12_GLOBAL__N_112print_stringEPKcP6Status+0x3e>
    41a4: aa           	tax
    41a5: d0 0c        	bne	$41b3 <_ZN12_GLOBAL__N_112print_stringEPKcP6Status+0x3e>
    41a7: 64 da        	stz	$da                     ; 0x20da <f256main+0x1896>
    41a9: a2 00        	ldx	#$0
    41ab: 4c 7d 42     	jmp	$427d <_ZN12_GLOBAL__N_112print_stringEPKcP6Status+0x108>
    41ae: a9 ff        	lda	#$ff
    41b0: aa           	tax
    41b1: 86 dd        	stx	$dd                     ; 0x20dd <f256main+0x1899>
    41b3: 85 da        	sta	$da                     ; 0x20da <f256main+0x1896>
    41b5: 64 12        	stz	$12                     ; 0x2012 <f256main+0x17ce>
    41b7: a4 d6        	ldy	$d6                     ; 0x20d6 <f256main+0x1892>
    41b9: a6 d7        	ldx	$d7                     ; 0x20d7 <f256main+0x1893>
    41bb: 86 16        	stx	$16                     ; 0x2016 <f256main+0x17d2>
    41bd: 64 13        	stz	$13                     ; 0x2013 <f256main+0x17cf>
    41bf: 98           	tya
    41c0: 18           	clc
    41c1: 65 12        	adc	$12                     ; 0x2012 <f256main+0x17ce>
    41c3: 85 14        	sta	$14                     ; 0x2014 <f256main+0x17d0>
    41c5: a5 d7        	lda	$d7                     ; 0x20d7 <f256main+0x1893>
    41c7: 65 13        	adc	$13                     ; 0x2013 <f256main+0x17cf>
    41c9: 85 15        	sta	$15                     ; 0x2015 <f256main+0x17d1>
    41cb: b2 14        	lda	($14)                   ; 0x2014 <f256main+0x17d0>
    41cd: d0 03        	bne	$41d2 <_ZN12_GLOBAL__N_112print_stringEPKcP6Status+0x5d>
    41cf: 4c 77 42     	jmp	$4277 <_ZN12_GLOBAL__N_112print_stringEPKcP6Status+0x102>
    41d2: e6 12        	inc	$12                     ; 0x2012 <f256main+0x17ce>
    41d4: d0 02        	bne	$41d8 <_ZN12_GLOBAL__N_112print_stringEPKcP6Status+0x63>
    41d6: e6 13        	inc	$13                     ; 0x2013 <f256main+0x17cf>
    41d8: a6 dd        	ldx	$dd                     ; 0x20dd <f256main+0x1899>
    41da: e4 13        	cpx	$13                     ; 0x2013 <f256main+0x17cf>
    41dc: d0 e1        	bne	$41bf <_ZN12_GLOBAL__N_112print_stringEPKcP6Status+0x4a>
    41de: a6 da        	ldx	$da                     ; 0x20da <f256main+0x1896>
    41e0: e4 12        	cpx	$12                     ; 0x2012 <f256main+0x17ce>
    41e2: d0 db        	bne	$41bf <_ZN12_GLOBAL__N_112print_stringEPKcP6Status+0x4a>
    41e4: a0 01        	ldy	#$1
    41e6: 98           	tya
    41e7: 31 d8        	and	($d8),y                 ; 0x20d8 <f256main+0x1894>
    41e9: 29 01        	and	#$1
    41eb: f0 03        	beq	$41f0 <_ZN12_GLOBAL__N_112print_stringEPKcP6Status+0x7b>
    41ed: 4c 48 42     	jmp	$4248 <_ZN12_GLOBAL__N_112print_stringEPKcP6Status+0xd3>
    41f0: a0 0b        	ldy	#$b
    41f2: a5 d8        	lda	$d8                     ; 0x20d8 <f256main+0x1894>
    41f4: 18           	clc
    41f5: 69 0b        	adc	#$b
    41f7: 85 14        	sta	$14                     ; 0x2014 <f256main+0x17d0>
    41f9: a5 d9        	lda	$d9                     ; 0x20d9 <f256main+0x1895>
    41fb: 69 00        	adc	#$0
    41fd: 85 15        	sta	$15                     ; 0x2015 <f256main+0x17d1>
    41ff: b1 d8        	lda	($d8),y                 ; 0x20d8 <f256main+0x1894>
    4201: 85 12        	sta	$12                     ; 0x2012 <f256main+0x17ce>
    4203: a0 01        	ldy	#$1
    4205: b1 14        	lda	($14),y                 ; 0x2014 <f256main+0x17d0>
    4207: 85 13        	sta	$13                     ; 0x2013 <f256main+0x17cf>
    4209: a6 dd        	ldx	$dd                     ; 0x20dd <f256main+0x1899>
    420b: e4 13        	cpx	$13                     ; 0x2013 <f256main+0x17cf>
    420d: d0 08        	bne	$4217 <_ZN12_GLOBAL__N_112print_stringEPKcP6Status+0xa2>
    420f: a6 da        	ldx	$da                     ; 0x20da <f256main+0x1896>
    4211: e4 12        	cpx	$12                     ; 0x2012 <f256main+0x17ce>
    4213: 90 06        	bcc	$421b <_ZN12_GLOBAL__N_112print_stringEPKcP6Status+0xa6>
    4215: 80 31        	bra	$4248 <_ZN12_GLOBAL__N_112print_stringEPKcP6Status+0xd3>
    4217: e4 13        	cpx	$13                     ; 0x2013 <f256main+0x17cf>
    4219: b0 2d        	bcs	$4248 <_ZN12_GLOBAL__N_112print_stringEPKcP6Status+0xd3>
    421b: 38           	sec
    421c: a5 da        	lda	$da                     ; 0x20da <f256main+0x1896>
    421e: e5 12        	sbc	$12                     ; 0x2012 <f256main+0x17ce>
    4220: a8           	tay
    4221: a5 dd        	lda	$dd                     ; 0x20dd <f256main+0x1899>
    4223: e5 13        	sbc	$13                     ; 0x2013 <f256main+0x17cf>
    4225: 85 dc        	sta	$dc                     ; 0x20dc <f256main+0x1898>
    4227: a6 d8        	ldx	$d8                     ; 0x20d8 <f256main+0x1894>
    4229: 86 12        	stx	$12                     ; 0x2012 <f256main+0x17ce>
    422b: a6 d9        	ldx	$d9                     ; 0x20d9 <f256main+0x1895>
    422d: 86 13        	stx	$13                     ; 0x2013 <f256main+0x17cf>
    422f: 84 db        	sty	$db                     ; 0x20db <f256main+0x1897>
    4231: a9 20        	lda	#$20
    4233: 20 a4 40     	jsr	$40a4 <_ZN12_GLOBAL__N_13putEcP6Status>
    4236: a6 dc        	ldx	$dc                     ; 0x20dc <f256main+0x1898>
    4238: e6 db        	inc	$db                     ; 0x20db <f256main+0x1897>
    423a: d0 01        	bne	$423d <_ZN12_GLOBAL__N_112print_stringEPKcP6Status+0xc8>
    423c: e8           	inx
    423d: 86 dc        	stx	$dc                     ; 0x20dc <f256main+0x1898>
    423f: a4 db        	ldy	$db                     ; 0x20db <f256main+0x1897>
    4241: 8a           	txa
    4242: d0 e3        	bne	$4227 <_ZN12_GLOBAL__N_112print_stringEPKcP6Status+0xb2>
    4244: a5 db        	lda	$db                     ; 0x20db <f256main+0x1897>
    4246: d0 df        	bne	$4227 <_ZN12_GLOBAL__N_112print_stringEPKcP6Status+0xb2>
    4248: a4 dd        	ldy	$dd                     ; 0x20dd <f256main+0x1899>
    424a: d0 04        	bne	$4250 <_ZN12_GLOBAL__N_112print_stringEPKcP6Status+0xdb>
    424c: a5 da        	lda	$da                     ; 0x20da <f256main+0x1896>
    424e: f0 26        	beq	$4276 <_ZN12_GLOBAL__N_112print_stringEPKcP6Status+0x101>
    4250: a2 ff        	ldx	#$ff
    4252: c6 da        	dec	$da                     ; 0x20da <f256main+0x1896>
    4254: e4 da        	cpx	$da                     ; 0x20da <f256main+0x1896>
    4256: d0 01        	bne	$4259 <_ZN12_GLOBAL__N_112print_stringEPKcP6Status+0xe4>
    4258: 88           	dey
    4259: 84 db        	sty	$db                     ; 0x20db <f256main+0x1897>
    425b: b2 d6        	lda	($d6)                   ; 0x20d6 <f256main+0x1892>
    425d: e6 d6        	inc	$d6                     ; 0x20d6 <f256main+0x1892>
    425f: d0 02        	bne	$4263 <_ZN12_GLOBAL__N_112print_stringEPKcP6Status+0xee>
    4261: e6 d7        	inc	$d7                     ; 0x20d7 <f256main+0x1893>
    4263: a6 d8        	ldx	$d8                     ; 0x20d8 <f256main+0x1894>
    4265: 86 12        	stx	$12                     ; 0x2012 <f256main+0x17ce>
    4267: a6 d9        	ldx	$d9                     ; 0x20d9 <f256main+0x1895>
    4269: 86 13        	stx	$13                     ; 0x2013 <f256main+0x17cf>
    426b: 20 a4 40     	jsr	$40a4 <_ZN12_GLOBAL__N_13putEcP6Status>
    426e: a4 db        	ldy	$db                     ; 0x20db <f256main+0x1897>
    4270: d0 de        	bne	$4250 <_ZN12_GLOBAL__N_112print_stringEPKcP6Status+0xdb>
    4272: a5 da        	lda	$da                     ; 0x20da <f256main+0x1896>
    4274: d0 da        	bne	$4250 <_ZN12_GLOBAL__N_112print_stringEPKcP6Status+0xdb>
    4276: 60           	rts
    4277: a6 12        	ldx	$12                     ; 0x2012 <f256main+0x17ce>
    4279: 86 da        	stx	$da                     ; 0x20da <f256main+0x1896>
    427b: a6 13        	ldx	$13                     ; 0x2013 <f256main+0x17cf>
    427d: 86 dd        	stx	$dd                     ; 0x20dd <f256main+0x1899>
    427f: 4c e4 41     	jmp	$41e4 <_ZN12_GLOBAL__N_112print_stringEPKcP6Status+0x6f>

00004282 <printf>:
    4282: a6 12        	ldx	$12                     ; 0x2012 <f256main+0x17ce>
    4284: 86 8b        	stx	$8b                     ; 0x208b <f256main+0x1847>
    4286: a6 13        	ldx	$13                     ; 0x2013 <f256main+0x17cf>
    4288: 86 8c        	stx	$8c                     ; 0x208c <f256main+0x1848>
    428a: 18           	clc
    428b: a6 10        	ldx	$10                     ; 0x2010 <f256main+0x17cc>
    428d: a4 11        	ldy	$11                     ; 0x2011 <f256main+0x17cd>
    428f: 86 cc        	stx	$cc                     ; 0x20cc <f256main+0x1888>
    4291: 84 cd        	sty	$cd                     ; 0x20cd <f256main+0x1889>
    4293: a6 cc        	ldx	$cc                     ; 0x20cc <f256main+0x1888>
    4295: a4 cd        	ldy	$cd                     ; 0x20cd <f256main+0x1889>
    4297: 86 b7        	stx	$b7                     ; 0x20b7 <f256main+0x1873>
    4299: 84 b8        	sty	$b8                     ; 0x20b8 <f256main+0x1874>
    429b: a2 ff        	ldx	#$ff
    429d: 86 bc        	stx	$bc                     ; 0x20bc <f256main+0x1878>
    429f: 86 bd        	stx	$bd                     ; 0x20bd <f256main+0x1879>
    42a1: 64 be        	stz	$be                     ; 0x20be <f256main+0x187a>
    42a3: 64 bf        	stz	$bf                     ; 0x20bf <f256main+0x187b>
    42a5: e8           	inx
    42a6: 86 8d        	stx	$8d                     ; 0x208d <f256main+0x1849>
    42a8: a2 00        	ldx	#$0
    42aa: 86 8e        	stx	$8e                     ; 0x208e <f256main+0x184a>
    42ac: a6 8d        	ldx	$8d                     ; 0x208d <f256main+0x1849>
    42ae: a4 8e        	ldy	$8e                     ; 0x208e <f256main+0x184a>
    42b0: 86 c2        	stx	$c2                     ; 0x20c2 <f256main+0x187e>
    42b2: 84 c3        	sty	$c3                     ; 0x20c3 <f256main+0x187f>
    42b4: a2 02        	ldx	#$2
    42b6: 86 c8        	stx	$c8                     ; 0x20c8 <f256main+0x1884>
    42b8: 64 c9        	stz	$c9                     ; 0x20c9 <f256main+0x1885>
    42ba: a6 b7        	ldx	$b7                     ; 0x20b7 <f256main+0x1873>
    42bc: a4 b8        	ldy	$b8                     ; 0x20b8 <f256main+0x1874>
    42be: 86 ca        	stx	$ca                     ; 0x20ca <f256main+0x1886>
    42c0: 84 cb        	sty	$cb                     ; 0x20cb <f256main+0x1887>
    42c2: a2 ae        	ldx	#$ae
    42c4: a0 00        	ldy	#$0
    42c6: 86 12        	stx	$12                     ; 0x2012 <f256main+0x17ce>
    42c8: 84 13        	sty	$13                     ; 0x2013 <f256main+0x17cf>
    42ca: a0 01        	ldy	#$1
    42cc: a9 95        	lda	#$95
    42ce: 18           	clc
    42cf: 69 02        	adc	#$2
    42d1: 85 d4        	sta	$d4                     ; 0x20d4 <f256main+0x1890>
    42d3: a9 00        	lda	#$0
    42d5: 69 00        	adc	#$0
    42d7: 85 d5        	sta	$d5                     ; 0x20d5 <f256main+0x1891>
    42d9: e6 12        	inc	$12                     ; 0x2012 <f256main+0x17ce>
    42db: d0 02        	bne	$42df <printf+0x5d>
    42dd: e6 13        	inc	$13                     ; 0x2013 <f256main+0x17cf>
    42df: a6 12        	ldx	$12                     ; 0x2012 <f256main+0x17ce>
    42e1: 86 d1        	stx	$d1                     ; 0x20d1 <f256main+0x188d>
    42e3: a6 13        	ldx	$13                     ; 0x2013 <f256main+0x17cf>
    42e5: 86 d2        	stx	$d2                     ; 0x20d2 <f256main+0x188e>
    42e7: a6 8b        	ldx	$8b                     ; 0x208b <f256main+0x1847>
    42e9: 86 8f        	stx	$8f                     ; 0x208f <f256main+0x184b>
    42eb: a6 8c        	ldx	$8c                     ; 0x208c <f256main+0x1848>
    42ed: 86 90        	stx	$90                     ; 0x2090 <f256main+0x184c>
    42ef: b2 8b        	lda	($8b)                   ; 0x208b <f256main+0x1847>
    42f1: c9 25        	cmp	#$25
    42f3: f0 21        	beq	$4316 <printf+0x94>
    42f5: aa           	tax
    42f6: d0 03        	bne	$42fb <printf+0x79>
    42f8: 4c 31 4e     	jmp	$4e31 <printf+0xbaf>
    42fb: 20 92 40     	jsr	$4092 <__putchar>
    42fe: a0 01        	ldy	#$1
    4300: e6 8f        	inc	$8f                     ; 0x208f <f256main+0x184b>
    4302: d0 02        	bne	$4306 <printf+0x84>
    4304: e6 90        	inc	$90                     ; 0x2090 <f256main+0x184c>
    4306: e6 be        	inc	$be                     ; 0x20be <f256main+0x187a>
    4308: d0 02        	bne	$430c <printf+0x8a>
    430a: e6 bf        	inc	$bf                     ; 0x20bf <f256main+0x187b>
    430c: a6 8f        	ldx	$8f                     ; 0x208f <f256main+0x184b>
    430e: 86 8b        	stx	$8b                     ; 0x208b <f256main+0x1847>
    4310: a6 90        	ldx	$90                     ; 0x2090 <f256main+0x184c>
    4312: 86 8c        	stx	$8c                     ; 0x208c <f256main+0x1848>
    4314: 80 d1        	bra	$42e7 <printf+0x65>
    4316: a6 8b        	ldx	$8b                     ; 0x208b <f256main+0x1847>
    4318: 86 12        	stx	$12                     ; 0x2012 <f256main+0x17ce>
    431a: a6 8c        	ldx	$8c                     ; 0x208c <f256main+0x1848>
    431c: 86 13        	stx	$13                     ; 0x2013 <f256main+0x17cf>
    431e: e6 12        	inc	$12                     ; 0x2012 <f256main+0x17ce>
    4320: d0 02        	bne	$4324 <printf+0xa2>
    4322: e6 13        	inc	$13                     ; 0x2013 <f256main+0x17cf>
    4324: b1 8f        	lda	($8f),y                 ; 0x208f <f256main+0x184b>
    4326: c9 25        	cmp	#$25
    4328: d0 16        	bne	$4340 <printf+0xbe>
    432a: a4 be        	ldy	$be                     ; 0x20be <f256main+0x187a>
    432c: a5 bf        	lda	$bf                     ; 0x20bf <f256main+0x187b>
    432e: c5 bd        	cmp	$bd                     ; 0x20bd <f256main+0x1879>
    4330: f0 03        	beq	$4335 <printf+0xb3>
    4332: 4c 46 44     	jmp	$4446 <printf+0x1c4>
    4335: a6 bc        	ldx	$bc                     ; 0x20bc <f256main+0x1878>
    4337: 86 12        	stx	$12                     ; 0x2012 <f256main+0x17ce>
    4339: 84 13        	sty	$13                     ; 0x2013 <f256main+0x17cf>
    433b: c4 12        	cpy	$12                     ; 0x2012 <f256main+0x17ce>
    433d: 4c 4a 44     	jmp	$444a <printf+0x1c8>
    4340: 64 ba        	stz	$ba                     ; 0x20ba <f256main+0x1876>
    4342: 64 bb        	stz	$bb                     ; 0x20bb <f256main+0x1877>
    4344: 64 b9        	stz	$b9                     ; 0x20b9 <f256main+0x1875>
    4346: 64 c4        	stz	$c4                     ; 0x20c4 <f256main+0x1880>
    4348: 64 c5        	stz	$c5                     ; 0x20c5 <f256main+0x1881>
    434a: a2 ff        	ldx	#$ff
    434c: 86 c6        	stx	$c6                     ; 0x20c6 <f256main+0x1882>
    434e: 86 c7        	stx	$c7                     ; 0x20c7 <f256main+0x1883>
    4350: 64 8a        	stz	$8a                     ; 0x208a <f256main+0x1846>
    4352: 80 33        	bra	$4387 <printf+0x105>
    4354: a2 02        	ldx	#$2
    4356: 80 15        	bra	$436d <printf+0xeb>
    4358: e0 20        	cpx	#$20
    435a: f0 15        	beq	$4371 <printf+0xef>
    435c: 86 15        	stx	$15                     ; 0x2015 <f256main+0x17d1>
    435e: e0 23        	cpx	#$23
    4360: f0 03        	beq	$4365 <printf+0xe3>
    4362: 4c e4 43     	jmp	$43e4 <printf+0x162>
    4365: a5 8a        	lda	$8a                     ; 0x208a <f256main+0x1846>
    4367: a2 04        	ldx	#$4
    4369: 80 02        	bra	$436d <printf+0xeb>
    436b: a2 10        	ldx	#$10
    436d: 86 14        	stx	$14                     ; 0x2014 <f256main+0x17d0>
    436f: 80 06        	bra	$4377 <printf+0xf5>
    4371: a2 08        	ldx	#$8
    4373: 86 14        	stx	$14                     ; 0x2014 <f256main+0x17d0>
    4375: a5 8a        	lda	$8a                     ; 0x208a <f256main+0x1846>
    4377: 05 14        	ora	$14                     ; 0x2014 <f256main+0x17d0>
    4379: 85 8a        	sta	$8a                     ; 0x208a <f256main+0x1846>
    437b: 85 ba        	sta	$ba                     ; 0x20ba <f256main+0x1876>
    437d: a2 00        	ldx	#$0
    437f: 86 bb        	stx	$bb                     ; 0x20bb <f256main+0x1877>
    4381: e6 12        	inc	$12                     ; 0x2012 <f256main+0x17ce>
    4383: d0 02        	bne	$4387 <printf+0x105>
    4385: e6 13        	inc	$13                     ; 0x2013 <f256main+0x17cf>
    4387: b2 12        	lda	($12)                   ; 0x2012 <f256main+0x17ce>
    4389: aa           	tax
    438a: 38           	sec
    438b: e9 2a        	sbc	#$2a
    438d: c9 07        	cmp	#$7
    438f: b0 c7        	bcs	$4358 <printf+0xd6>
    4391: 86 15        	stx	$15                     ; 0x2015 <f256main+0x17d1>
    4393: 0a           	asl
    4394: aa           	tax
    4395: a0 01        	ldy	#$1
    4397: 84 14        	sty	$14                     ; 0x2014 <f256main+0x17d0>
    4399: a5 8a        	lda	$8a                     ; 0x208a <f256main+0x1846>
    439b: 7c 2a 6e     	jmp	($6e2a,x)               ; 0x6e2a <__set_v+0xe7>
    439e: a5 ca        	lda	$ca                     ; 0x20ca <f256main+0x1886>
    43a0: a6 cb        	ldx	$cb                     ; 0x20cb <f256main+0x1887>
    43a2: 85 16        	sta	$16                     ; 0x2016 <f256main+0x17d2>
    43a4: 86 17        	stx	$17                     ; 0x2017 <f256main+0x17d3>
    43a6: 18           	clc
    43a7: 69 02        	adc	#$2
    43a9: a8           	tay
    43aa: 8a           	txa
    43ab: 69 00        	adc	#$0
    43ad: 84 ca        	sty	$ca                     ; 0x20ca <f256main+0x1886>
    43af: 85 cb        	sta	$cb                     ; 0x20cb <f256main+0x1887>
    43b1: b2 16        	lda	($16)                   ; 0x2016 <f256main+0x17d2>
    43b3: 85 15        	sta	$15                     ; 0x2015 <f256main+0x17d1>
    43b5: a0 01        	ldy	#$1
    43b7: b1 16        	lda	($16),y                 ; 0x2016 <f256main+0x17d2>
    43b9: 85 14        	sta	$14                     ; 0x2014 <f256main+0x17d0>
    43bb: 10 15        	bpl	$43d2 <printf+0x150>
    43bd: a5 8a        	lda	$8a                     ; 0x208a <f256main+0x1846>
    43bf: 09 01        	ora	#$1
    43c1: 85 8a        	sta	$8a                     ; 0x208a <f256main+0x1846>
    43c3: 85 ba        	sta	$ba                     ; 0x20ba <f256main+0x1876>
    43c5: a2 00        	ldx	#$0
    43c7: 86 bb        	stx	$bb                     ; 0x20bb <f256main+0x1877>
    43c9: 8a           	txa
    43ca: 38           	sec
    43cb: e5 15        	sbc	$15                     ; 0x2015 <f256main+0x17d1>
    43cd: 85 15        	sta	$15                     ; 0x2015 <f256main+0x17d1>
    43cf: 8a           	txa
    43d0: e5 14        	sbc	$14                     ; 0x2014 <f256main+0x17d0>
    43d2: a6 15        	ldx	$15                     ; 0x2015 <f256main+0x17d1>
    43d4: 86 c4        	stx	$c4                     ; 0x20c4 <f256main+0x1880>
    43d6: 85 c5        	sta	$c5                     ; 0x20c5 <f256main+0x1881>
    43d8: e6 12        	inc	$12                     ; 0x2012 <f256main+0x17ce>
    43da: f0 03        	beq	$43df <printf+0x15d>
    43dc: 4c 98 44     	jmp	$4498 <printf+0x216>
    43df: e6 13        	inc	$13                     ; 0x2013 <f256main+0x17cf>
    43e1: 4c 98 44     	jmp	$4498 <printf+0x216>
    43e4: a5 15        	lda	$15                     ; 0x2015 <f256main+0x17d1>
    43e6: 18           	clc
    43e7: 69 d0        	adc	#$d0
    43e9: c9 0a        	cmp	#$a
    43eb: 90 03        	bcc	$43f0 <printf+0x16e>
    43ed: 4c 8a 44     	jmp	$448a <printf+0x208>
    43f0: a6 15        	ldx	$15                     ; 0x2015 <f256main+0x17d1>
    43f2: 86 14        	stx	$14                     ; 0x2014 <f256main+0x17d0>
    43f4: 64 16        	stz	$16                     ; 0x2016 <f256main+0x17d2>
    43f6: 64 15        	stz	$15                     ; 0x2015 <f256main+0x17d1>
    43f8: 64 17        	stz	$17                     ; 0x2017 <f256main+0x17d3>
    43fa: a0 01        	ldy	#$1
    43fc: 06 16        	asl	$16                     ; 0x2016 <f256main+0x17d2>
    43fe: 26 17        	rol	$17                     ; 0x2017 <f256main+0x17d3>
    4400: a5 16        	lda	$16                     ; 0x2016 <f256main+0x17d2>
    4402: 0a           	asl
    4403: aa           	tax
    4404: a5 17        	lda	$17                     ; 0x2017 <f256main+0x17d3>
    4406: 2a           	rol
    4407: 86 18        	stx	$18                     ; 0x2018 <f256main+0x17d4>
    4409: 06 18        	asl	$18                     ; 0x2018 <f256main+0x17d4>
    440b: 2a           	rol
    440c: aa           	tax
    440d: a5 18        	lda	$18                     ; 0x2018 <f256main+0x17d4>
    440f: 18           	clc
    4410: 65 16        	adc	$16                     ; 0x2016 <f256main+0x17d2>
    4412: 85 16        	sta	$16                     ; 0x2016 <f256main+0x17d2>
    4414: 8a           	txa
    4415: 65 17        	adc	$17                     ; 0x2017 <f256main+0x17d3>
    4417: 85 17        	sta	$17                     ; 0x2017 <f256main+0x17d3>
    4419: a5 16        	lda	$16                     ; 0x2016 <f256main+0x17d2>
    441b: 18           	clc
    441c: 65 14        	adc	$14                     ; 0x2014 <f256main+0x17d0>
    441e: 85 14        	sta	$14                     ; 0x2014 <f256main+0x17d0>
    4420: a5 17        	lda	$17                     ; 0x2017 <f256main+0x17d3>
    4422: 65 15        	adc	$15                     ; 0x2015 <f256main+0x17d1>
    4424: aa           	tax
    4425: 18           	clc
    4426: a5 14        	lda	$14                     ; 0x2014 <f256main+0x17d0>
    4428: 69 d0        	adc	#$d0
    442a: 85 16        	sta	$16                     ; 0x2016 <f256main+0x17d2>
    442c: 8a           	txa
    442d: 69 ff        	adc	#$ff
    442f: 85 17        	sta	$17                     ; 0x2017 <f256main+0x17d3>
    4431: b1 12        	lda	($12),y                 ; 0x2012 <f256main+0x17ce>
    4433: 85 14        	sta	$14                     ; 0x2014 <f256main+0x17d0>
    4435: 18           	clc
    4436: 69 d0        	adc	#$d0
    4438: e6 12        	inc	$12                     ; 0x2012 <f256main+0x17ce>
    443a: d0 02        	bne	$443e <printf+0x1bc>
    443c: e6 13        	inc	$13                     ; 0x2013 <f256main+0x17cf>
    443e: c9 0a        	cmp	#$a
    4440: 64 15        	stz	$15                     ; 0x2015 <f256main+0x17d1>
    4442: 90 b8        	bcc	$43fc <printf+0x17a>
    4444: 80 4a        	bra	$4490 <printf+0x20e>
    4446: 84 13        	sty	$13                     ; 0x2013 <f256main+0x17cf>
    4448: c5 bd        	cmp	$bd                     ; 0x20bd <f256main+0x1879>
    444a: a0 01        	ldy	#$1
    444c: b0 26        	bcs	$4474 <printf+0x1f2>
    444e: a6 c9        	ldx	$c9                     ; 0x20c9 <f256main+0x1885>
    4450: e4 8e        	cpx	$8e                     ; 0x208e <f256main+0x184a>
    4452: d0 19        	bne	$446d <printf+0x1eb>
    4454: a6 c8        	ldx	$c8                     ; 0x20c8 <f256main+0x1884>
    4456: e4 8d        	cpx	$8d                     ; 0x208d <f256main+0x1849>
    4458: d0 13        	bne	$446d <printf+0x1eb>
    445a: 18           	clc
    445b: aa           	tax
    445c: a5 13        	lda	$13                     ; 0x2013 <f256main+0x17cf>
    445e: 65 c2        	adc	$c2                     ; 0x20c2 <f256main+0x187e>
    4460: 85 12        	sta	$12                     ; 0x2012 <f256main+0x17ce>
    4462: 8a           	txa
    4463: 65 c3        	adc	$c3                     ; 0x20c3 <f256main+0x187f>
    4465: 85 13        	sta	$13                     ; 0x2013 <f256main+0x17cf>
    4467: a9 25        	lda	#$25
    4469: 92 12        	sta	($12)                   ; 0x2012 <f256main+0x17ce>
    446b: 80 07        	bra	$4474 <printf+0x1f2>
    446d: a9 25        	lda	#$25
    446f: 20 92 40     	jsr	$4092 <__putchar>
    4472: a0 01        	ldy	#$1
    4474: e6 be        	inc	$be                     ; 0x20be <f256main+0x187a>
    4476: d0 02        	bne	$447a <printf+0x1f8>
    4478: e6 bf        	inc	$bf                     ; 0x20bf <f256main+0x187b>
    447a: a5 8f        	lda	$8f                     ; 0x208f <f256main+0x184b>
    447c: 18           	clc
    447d: 69 02        	adc	#$2
    447f: 85 8b        	sta	$8b                     ; 0x208b <f256main+0x1847>
    4481: a5 90        	lda	$90                     ; 0x2090 <f256main+0x184c>
    4483: 69 00        	adc	#$0
    4485: 85 8c        	sta	$8c                     ; 0x208c <f256main+0x1848>
    4487: 4c e7 42     	jmp	$42e7 <printf+0x65>
    448a: 64 16        	stz	$16                     ; 0x2016 <f256main+0x17d2>
    448c: 64 17        	stz	$17                     ; 0x2017 <f256main+0x17d3>
    448e: a0 01        	ldy	#$1
    4490: a6 16        	ldx	$16                     ; 0x2016 <f256main+0x17d2>
    4492: 86 c4        	stx	$c4                     ; 0x20c4 <f256main+0x1880>
    4494: a5 17        	lda	$17                     ; 0x2017 <f256main+0x17d3>
    4496: 85 c5        	sta	$c5                     ; 0x20c5 <f256main+0x1881>
    4498: 86 93        	stx	$93                     ; 0x2093 <f256main+0x184f>
    449a: 85 91        	sta	$91                     ; 0x2091 <f256main+0x184d>
    449c: b2 12        	lda	($12)                   ; 0x2012 <f256main+0x17ce>
    449e: a2 ff        	ldx	#$ff
    44a0: c9 2e        	cmp	#$2e
    44a2: d0 39        	bne	$44dd <printf+0x25b>
    44a4: b1 12        	lda	($12),y                 ; 0x2012 <f256main+0x17ce>
    44a6: c9 2a        	cmp	#$2a
    44a8: d0 38        	bne	$44e2 <printf+0x260>
    44aa: a5 ca        	lda	$ca                     ; 0x20ca <f256main+0x1886>
    44ac: a6 cb        	ldx	$cb                     ; 0x20cb <f256main+0x1887>
    44ae: 85 14        	sta	$14                     ; 0x2014 <f256main+0x17d0>
    44b0: 86 15        	stx	$15                     ; 0x2015 <f256main+0x17d1>
    44b2: 18           	clc
    44b3: 69 02        	adc	#$2
    44b5: 85 16        	sta	$16                     ; 0x2016 <f256main+0x17d2>
    44b7: 8a           	txa
    44b8: 69 00        	adc	#$0
    44ba: a6 16        	ldx	$16                     ; 0x2016 <f256main+0x17d2>
    44bc: 86 ca        	stx	$ca                     ; 0x20ca <f256main+0x1886>
    44be: 85 cb        	sta	$cb                     ; 0x20cb <f256main+0x1887>
    44c0: a5 12        	lda	$12                     ; 0x2012 <f256main+0x17ce>
    44c2: 18           	clc
    44c3: 69 02        	adc	#$2
    44c5: 85 12        	sta	$12                     ; 0x2012 <f256main+0x17ce>
    44c7: a5 13        	lda	$13                     ; 0x2013 <f256main+0x17cf>
    44c9: 69 00        	adc	#$0
    44cb: 85 13        	sta	$13                     ; 0x2013 <f256main+0x17cf>
    44cd: b2 14        	lda	($14)                   ; 0x2014 <f256main+0x17d0>
    44cf: aa           	tax
    44d0: b1 14        	lda	($14),y                 ; 0x2014 <f256main+0x17d0>
    44d2: 86 18        	stx	$18                     ; 0x2018 <f256main+0x17d4>
    44d4: 86 c6        	stx	$c6                     ; 0x20c6 <f256main+0x1882>
    44d6: 85 19        	sta	$19                     ; 0x2019 <f256main+0x17d5>
    44d8: 85 c7        	sta	$c7                     ; 0x20c7 <f256main+0x1883>
    44da: 4c 8d 45     	jmp	$458d <printf+0x30b>
    44dd: 86 18        	stx	$18                     ; 0x2018 <f256main+0x17d4>
    44df: 4c 9d 45     	jmp	$459d <printf+0x31b>
    44e2: 85 17        	sta	$17                     ; 0x2017 <f256main+0x17d3>
    44e4: 18           	clc
    44e5: 69 d0        	adc	#$d0
    44e7: c9 0a        	cmp	#$a
    44e9: 90 03        	bcc	$44ee <printf+0x26c>
    44eb: 4c 7f 45     	jmp	$457f <printf+0x2fd>
    44ee: 64 16        	stz	$16                     ; 0x2016 <f256main+0x17d2>
    44f0: a2 01        	ldx	#$1
    44f2: 64 18        	stz	$18                     ; 0x2018 <f256main+0x17d4>
    44f4: 64 19        	stz	$19                     ; 0x2019 <f256main+0x17d5>
    44f6: a0 01        	ldy	#$1
    44f8: 64 1a        	stz	$1a                     ; 0x201a <f256main+0x17d6>
    44fa: 5a           	phy
    44fb: a4 1a        	ldy	$1a                     ; 0x201a <f256main+0x17d6>
    44fd: 84 14        	sty	$14                     ; 0x2014 <f256main+0x17d0>
    44ff: 86 15        	stx	$15                     ; 0x2015 <f256main+0x17d1>
    4501: 06 18        	asl	$18                     ; 0x2018 <f256main+0x17d4>
    4503: 26 19        	rol	$19                     ; 0x2019 <f256main+0x17d5>
    4505: a5 18        	lda	$18                     ; 0x2018 <f256main+0x17d4>
    4507: 0a           	asl
    4508: 85 1d        	sta	$1d                     ; 0x201d <f256main+0x17d9>
    450a: a5 19        	lda	$19                     ; 0x2019 <f256main+0x17d5>
    450c: 2a           	rol
    450d: 06 1d        	asl	$1d                     ; 0x201d <f256main+0x17d9>
    450f: 2a           	rol
    4510: 85 1e        	sta	$1e                     ; 0x201e <f256main+0x17da>
    4512: a5 1d        	lda	$1d                     ; 0x201d <f256main+0x17d9>
    4514: 18           	clc
    4515: 65 18        	adc	$18                     ; 0x2018 <f256main+0x17d4>
    4517: 85 18        	sta	$18                     ; 0x2018 <f256main+0x17d4>
    4519: a5 1e        	lda	$1e                     ; 0x201e <f256main+0x17da>
    451b: 65 19        	adc	$19                     ; 0x2019 <f256main+0x17d5>
    451d: 85 19        	sta	$19                     ; 0x2019 <f256main+0x17d5>
    451f: a5 18        	lda	$18                     ; 0x2018 <f256main+0x17d4>
    4521: 18           	clc
    4522: 65 17        	adc	$17                     ; 0x2017 <f256main+0x17d3>
    4524: 85 17        	sta	$17                     ; 0x2017 <f256main+0x17d3>
    4526: a5 19        	lda	$19                     ; 0x2019 <f256main+0x17d5>
    4528: 65 16        	adc	$16                     ; 0x2016 <f256main+0x17d2>
    452a: 85 16        	sta	$16                     ; 0x2016 <f256main+0x17d2>
    452c: 18           	clc
    452d: a5 17        	lda	$17                     ; 0x2017 <f256main+0x17d3>
    452f: 69 d0        	adc	#$d0
    4531: 85 18        	sta	$18                     ; 0x2018 <f256main+0x17d4>
    4533: a5 16        	lda	$16                     ; 0x2016 <f256main+0x17d2>
    4535: 69 ff        	adc	#$ff
    4537: 85 19        	sta	$19                     ; 0x2019 <f256main+0x17d5>
    4539: e8           	inx
    453a: d0 02        	bne	$453e <printf+0x2bc>
    453c: e6 1a        	inc	$1a                     ; 0x201a <f256main+0x17d6>
    453e: a5 12        	lda	$12                     ; 0x2012 <f256main+0x17ce>
    4540: 18           	clc
    4541: 65 15        	adc	$15                     ; 0x2015 <f256main+0x17d1>
    4543: 85 1d        	sta	$1d                     ; 0x201d <f256main+0x17d9>
    4545: a5 13        	lda	$13                     ; 0x2013 <f256main+0x17cf>
    4547: 65 14        	adc	$14                     ; 0x2014 <f256main+0x17d0>
    4549: a4 1d        	ldy	$1d                     ; 0x201d <f256main+0x17d9>
    454b: 84 16        	sty	$16                     ; 0x2016 <f256main+0x17d2>
    454d: 7a           	ply
    454e: 85 17        	sta	$17                     ; 0x2017 <f256main+0x17d3>
    4550: b1 16        	lda	($16),y                 ; 0x2016 <f256main+0x17d2>
    4552: 85 17        	sta	$17                     ; 0x2017 <f256main+0x17d3>
    4554: 18           	clc
    4555: 69 d0        	adc	#$d0
    4557: c9 0a        	cmp	#$a
    4559: 64 16        	stz	$16                     ; 0x2016 <f256main+0x17d2>
    455b: b0 03        	bcs	$4560 <printf+0x2de>
    455d: 4c fa 44     	jmp	$44fa <printf+0x278>
    4560: a5 12        	lda	$12                     ; 0x2012 <f256main+0x17ce>
    4562: 18           	clc
    4563: 65 15        	adc	$15                     ; 0x2015 <f256main+0x17d1>
    4565: 85 12        	sta	$12                     ; 0x2012 <f256main+0x17ce>
    4567: a5 13        	lda	$13                     ; 0x2013 <f256main+0x17cf>
    4569: 65 14        	adc	$14                     ; 0x2014 <f256main+0x17d0>
    456b: 85 13        	sta	$13                     ; 0x2013 <f256main+0x17cf>
    456d: e6 12        	inc	$12                     ; 0x2012 <f256main+0x17ce>
    456f: d0 02        	bne	$4573 <printf+0x2f1>
    4571: e6 13        	inc	$13                     ; 0x2013 <f256main+0x17cf>
    4573: a6 18        	ldx	$18                     ; 0x2018 <f256main+0x17d4>
    4575: 86 c6        	stx	$c6                     ; 0x20c6 <f256main+0x1882>
    4577: a6 19        	ldx	$19                     ; 0x2019 <f256main+0x17d5>
    4579: 86 c7        	stx	$c7                     ; 0x20c7 <f256main+0x1883>
    457b: a0 01        	ldy	#$1
    457d: 80 0e        	bra	$458d <printf+0x30b>
    457f: e6 12        	inc	$12                     ; 0x2012 <f256main+0x17ce>
    4581: d0 02        	bne	$4585 <printf+0x303>
    4583: e6 13        	inc	$13                     ; 0x2013 <f256main+0x17cf>
    4585: 64 18        	stz	$18                     ; 0x2018 <f256main+0x17d4>
    4587: 64 c6        	stz	$c6                     ; 0x20c6 <f256main+0x1882>
    4589: 64 c7        	stz	$c7                     ; 0x20c7 <f256main+0x1883>
    458b: 64 19        	stz	$19                     ; 0x2019 <f256main+0x17d5>
    458d: a5 8a        	lda	$8a                     ; 0x208a <f256main+0x1846>
    458f: 29 ef        	and	#$ef
    4591: 85 8a        	sta	$8a                     ; 0x208a <f256main+0x1846>
    4593: 85 ba        	sta	$ba                     ; 0x20ba <f256main+0x1876>
    4595: a2 00        	ldx	#$0
    4597: 86 bb        	stx	$bb                     ; 0x20bb <f256main+0x1877>
    4599: b2 12        	lda	($12)                   ; 0x2012 <f256main+0x17ce>
    459b: a6 19        	ldx	$19                     ; 0x2019 <f256main+0x17d5>
    459d: 86 15        	stx	$15                     ; 0x2015 <f256main+0x17d1>
    459f: a6 12        	ldx	$12                     ; 0x2012 <f256main+0x17ce>
    45a1: 86 8b        	stx	$8b                     ; 0x208b <f256main+0x1847>
    45a3: a6 13        	ldx	$13                     ; 0x2013 <f256main+0x17cf>
    45a5: 86 8c        	stx	$8c                     ; 0x208c <f256main+0x1848>
    45a7: e6 8b        	inc	$8b                     ; 0x208b <f256main+0x1847>
    45a9: d0 02        	bne	$45ad <printf+0x32b>
    45ab: e6 8c        	inc	$8c                     ; 0x208c <f256main+0x1848>
    45ad: 85 14        	sta	$14                     ; 0x2014 <f256main+0x17d0>
    45af: 38           	sec
    45b0: e9 6c        	sbc	#$6c
    45b2: 50 02        	bvc	$45b6 <printf+0x334>
    45b4: 49 80        	eor	#$80
    45b6: aa           	tax
    45b7: 10 1d        	bpl	$45d6 <printf+0x354>
    45b9: a5 14        	lda	$14                     ; 0x2014 <f256main+0x17d0>
    45bb: c9 4c        	cmp	#$4c
    45bd: f0 27        	beq	$45e6 <printf+0x364>
    45bf: c9 68        	cmp	#$68
    45c1: d0 03        	bne	$45c6 <printf+0x344>
    45c3: 4c 4d 46     	jmp	$464d <printf+0x3cb>
    45c6: a2 08        	ldx	#$8
    45c8: c9 6a        	cmp	#$6a
    45ca: d0 2e        	bne	$45fa <printf+0x378>
    45cc: a5 8b        	lda	$8b                     ; 0x208b <f256main+0x1847>
    45ce: 85 12        	sta	$12                     ; 0x2012 <f256main+0x17ce>
    45d0: a5 8c        	lda	$8c                     ; 0x208c <f256main+0x1848>
    45d2: 85 13        	sta	$13                     ; 0x2013 <f256main+0x17cf>
    45d4: 80 43        	bra	$4619 <printf+0x397>
    45d6: a6 14        	ldx	$14                     ; 0x2014 <f256main+0x17d0>
    45d8: e0 6c        	cpx	#$6c
    45da: f0 23        	beq	$45ff <printf+0x37d>
    45dc: e0 74        	cpx	#$74
    45de: f0 12        	beq	$45f2 <printf+0x370>
    45e0: e0 7a        	cpx	#$7a
    45e2: f0 0e        	beq	$45f2 <printf+0x370>
    45e4: 80 14        	bra	$45fa <printf+0x378>
    45e6: a5 8a        	lda	$8a                     ; 0x208a <f256main+0x1846>
    45e8: 09 40        	ora	#$40
    45ea: 85 8a        	sta	$8a                     ; 0x208a <f256main+0x1846>
    45ec: 85 ba        	sta	$ba                     ; 0x20ba <f256main+0x1876>
    45ee: a2 00        	ldx	#$0
    45f0: 86 bb        	stx	$bb                     ; 0x20bb <f256main+0x1877>
    45f2: a6 8b        	ldx	$8b                     ; 0x208b <f256main+0x1847>
    45f4: 86 12        	stx	$12                     ; 0x2012 <f256main+0x17ce>
    45f6: a6 8c        	ldx	$8c                     ; 0x208c <f256main+0x1848>
    45f8: 86 13        	stx	$13                     ; 0x2013 <f256main+0x17cf>
    45fa: a2 02        	ldx	#$2
    45fc: 8a           	txa
    45fd: 80 1c        	bra	$461b <printf+0x399>
    45ff: b1 12        	lda	($12),y                 ; 0x2012 <f256main+0x17ce>
    4601: a2 04        	ldx	#$4
    4603: c9 6c        	cmp	#$6c
    4605: f0 03        	beq	$460a <printf+0x388>
    4607: 4c 4c 49     	jmp	$494c <printf+0x6ca>
    460a: a5 12        	lda	$12                     ; 0x2012 <f256main+0x17ce>
    460c: 18           	clc
    460d: 69 02        	adc	#$2
    460f: 85 12        	sta	$12                     ; 0x2012 <f256main+0x17ce>
    4611: a5 13        	lda	$13                     ; 0x2013 <f256main+0x17cf>
    4613: 69 00        	adc	#$0
    4615: 85 13        	sta	$13                     ; 0x2013 <f256main+0x17cf>
    4617: a2 08        	ldx	#$8
    4619: a9 08        	lda	#$8
    461b: 85 d0        	sta	$d0                     ; 0x20d0 <f256main+0x188c>
    461d: b2 12        	lda	($12)                   ; 0x2012 <f256main+0x17ce>
    461f: 5a           	phy
    4620: a4 12        	ldy	$12                     ; 0x2012 <f256main+0x17ce>
    4622: 84 8b        	sty	$8b                     ; 0x208b <f256main+0x1847>
    4624: a4 13        	ldy	$13                     ; 0x2013 <f256main+0x17cf>
    4626: 84 8c        	sty	$8c                     ; 0x208c <f256main+0x1848>
    4628: 7a           	ply
    4629: 86 8d        	stx	$8d                     ; 0x208d <f256main+0x1849>
    462b: aa           	tax
    462c: 38           	sec
    462d: e9 63        	sbc	#$63
    462f: c9 16        	cmp	#$16
    4631: b0 39        	bcs	$466c <printf+0x3ea>
    4633: 0a           	asl
    4634: aa           	tax
    4635: 7c 38 6e     	jmp	($6e38,x)               ; 0x6e38 <__set_v+0xf5>
    4638: a6 15        	ldx	$15                     ; 0x2015 <f256main+0x17d1>
    463a: 86 ce        	stx	$ce                     ; 0x20ce <f256main+0x188a>
    463c: a6 18        	ldx	$18                     ; 0x2018 <f256main+0x17d4>
    463e: 86 d3        	stx	$d3                     ; 0x20d3 <f256main+0x188f>
    4640: a0 0a        	ldy	#$a
    4642: a2 0a        	ldx	#$a
    4644: 86 cf        	stx	$cf                     ; 0x20cf <f256main+0x188b>
    4646: 84 b9        	sty	$b9                     ; 0x20b9 <f256main+0x1875>
    4648: 64 94        	stz	$94                     ; 0x2094 <f256main+0x1850>
    464a: 4c 6c 47     	jmp	$476c <printf+0x4ea>
    464d: b1 12        	lda	($12),y                 ; 0x2012 <f256main+0x17ce>
    464f: a2 02        	ldx	#$2
    4651: c9 68        	cmp	#$68
    4653: f0 03        	beq	$4658 <printf+0x3d6>
    4655: 4c 52 49     	jmp	$4952 <printf+0x6d0>
    4658: a5 12        	lda	$12                     ; 0x2012 <f256main+0x17ce>
    465a: 18           	clc
    465b: 69 02        	adc	#$2
    465d: 85 12        	sta	$12                     ; 0x2012 <f256main+0x17ce>
    465f: a5 13        	lda	$13                     ; 0x2013 <f256main+0x17cf>
    4661: 69 00        	adc	#$0
    4663: 85 13        	sta	$13                     ; 0x2013 <f256main+0x17cf>
    4665: a2 01        	ldx	#$1
    4667: 86 d0        	stx	$d0                     ; 0x20d0 <f256main+0x188c>
    4669: e8           	inx
    466a: 80 b1        	bra	$461d <printf+0x39b>
    466c: e0 58        	cpx	#$58
    466e: f0 03        	beq	$4673 <printf+0x3f1>
    4670: 4c ed 4d     	jmp	$4ded <printf+0xb6b>
    4673: a6 15        	ldx	$15                     ; 0x2015 <f256main+0x17d1>
    4675: 86 ce        	stx	$ce                     ; 0x20ce <f256main+0x188a>
    4677: a6 18        	ldx	$18                     ; 0x2018 <f256main+0x17d4>
    4679: 86 d3        	stx	$d3                     ; 0x20d3 <f256main+0x188f>
    467b: a2 10        	ldx	#$10
    467d: 86 b9        	stx	$b9                     ; 0x20b9 <f256main+0x1875>
    467f: a9 00        	lda	#$0
    4681: 09 01        	ora	#$1
    4683: a6 8a        	ldx	$8a                     ; 0x208a <f256main+0x1846>
    4685: 80 29        	bra	$46b0 <printf+0x42e>
    4687: a6 15        	ldx	$15                     ; 0x2015 <f256main+0x17d1>
    4689: 86 ce        	stx	$ce                     ; 0x20ce <f256main+0x188a>
    468b: a6 18        	ldx	$18                     ; 0x2018 <f256main+0x17d4>
    468d: 86 d3        	stx	$d3                     ; 0x20d3 <f256main+0x188f>
    468f: a2 10        	ldx	#$10
    4691: 86 b9        	stx	$b9                     ; 0x20b9 <f256main+0x1875>
    4693: a5 8a        	lda	$8a                     ; 0x208a <f256main+0x1846>
    4695: 09 84        	ora	#$84
    4697: 80 10        	bra	$46a9 <printf+0x427>
    4699: a6 15        	ldx	$15                     ; 0x2015 <f256main+0x17d1>
    469b: 86 ce        	stx	$ce                     ; 0x20ce <f256main+0x188a>
    469d: a6 18        	ldx	$18                     ; 0x2018 <f256main+0x17d4>
    469f: 86 d3        	stx	$d3                     ; 0x20d3 <f256main+0x188f>
    46a1: a2 10        	ldx	#$10
    46a3: 86 b9        	stx	$b9                     ; 0x20b9 <f256main+0x1875>
    46a5: a5 8a        	lda	$8a                     ; 0x208a <f256main+0x1846>
    46a7: 09 80        	ora	#$80
    46a9: aa           	tax
    46aa: a9 00        	lda	#$0
    46ac: 09 01        	ora	#$1
    46ae: 86 8a        	stx	$8a                     ; 0x208a <f256main+0x1846>
    46b0: 86 ba        	stx	$ba                     ; 0x20ba <f256main+0x1876>
    46b2: 85 94        	sta	$94                     ; 0x2094 <f256main+0x1850>
    46b4: 85 bb        	sta	$bb                     ; 0x20bb <f256main+0x1877>
    46b6: a2 10        	ldx	#$10
    46b8: 86 cf        	stx	$cf                     ; 0x20cf <f256main+0x188b>
    46ba: 4c 6c 47     	jmp	$476c <printf+0x4ea>
    46bd: a5 ca        	lda	$ca                     ; 0x20ca <f256main+0x1886>
    46bf: a6 cb        	ldx	$cb                     ; 0x20cb <f256main+0x1887>
    46c1: 85 12        	sta	$12                     ; 0x2012 <f256main+0x17ce>
    46c3: 86 13        	stx	$13                     ; 0x2013 <f256main+0x17cf>
    46c5: 18           	clc
    46c6: 69 02        	adc	#$2
    46c8: 85 14        	sta	$14                     ; 0x2014 <f256main+0x17d0>
    46ca: 8a           	txa
    46cb: 69 00        	adc	#$0
    46cd: a6 14        	ldx	$14                     ; 0x2014 <f256main+0x17d0>
    46cf: 86 ca        	stx	$ca                     ; 0x20ca <f256main+0x1886>
    46d1: 85 cb        	sta	$cb                     ; 0x20cb <f256main+0x1887>
    46d3: b2 12        	lda	($12)                   ; 0x2012 <f256main+0x17ce>
    46d5: aa           	tax
    46d6: b1 12        	lda	($12),y                 ; 0x2012 <f256main+0x17ce>
    46d8: 86 12        	stx	$12                     ; 0x2012 <f256main+0x17ce>
    46da: 85 13        	sta	$13                     ; 0x2013 <f256main+0x17cf>
    46dc: a5 be        	lda	$be                     ; 0x20be <f256main+0x187a>
    46de: a6 bf        	ldx	$bf                     ; 0x20bf <f256main+0x187b>
    46e0: 92 12        	sta	($12)                   ; 0x2012 <f256main+0x17ce>
    46e2: 8a           	txa
    46e3: 91 12        	sta	($12),y                 ; 0x2012 <f256main+0x17ce>
    46e5: 4c 45 47     	jmp	$4745 <printf+0x4c3>
    46e8: a5 ca        	lda	$ca                     ; 0x20ca <f256main+0x1886>
    46ea: a6 cb        	ldx	$cb                     ; 0x20cb <f256main+0x1887>
    46ec: 85 12        	sta	$12                     ; 0x2012 <f256main+0x17ce>
    46ee: 86 13        	stx	$13                     ; 0x2013 <f256main+0x17cf>
    46f0: 18           	clc
    46f1: 69 02        	adc	#$2
    46f3: 85 14        	sta	$14                     ; 0x2014 <f256main+0x17d0>
    46f5: 8a           	txa
    46f6: 69 00        	adc	#$0
    46f8: a6 14        	ldx	$14                     ; 0x2014 <f256main+0x17d0>
    46fa: 86 ca        	stx	$ca                     ; 0x20ca <f256main+0x1886>
    46fc: 85 cb        	sta	$cb                     ; 0x20cb <f256main+0x1887>
    46fe: b2 12        	lda	($12)                   ; 0x2012 <f256main+0x17ce>
    4700: aa           	tax
    4701: b1 12        	lda	($12),y                 ; 0x2012 <f256main+0x17ce>
    4703: 86 12        	stx	$12                     ; 0x2012 <f256main+0x17ce>
    4705: 85 13        	sta	$13                     ; 0x2013 <f256main+0x17cf>
    4707: 80 2f        	bra	$4738 <printf+0x4b6>
    4709: a6 15        	ldx	$15                     ; 0x2015 <f256main+0x17d1>
    470b: 86 ce        	stx	$ce                     ; 0x20ce <f256main+0x188a>
    470d: a6 18        	ldx	$18                     ; 0x2018 <f256main+0x17d4>
    470f: 86 d3        	stx	$d3                     ; 0x20d3 <f256main+0x188f>
    4711: a0 08        	ldy	#$8
    4713: a2 08        	ldx	#$8
    4715: 80 45        	bra	$475c <printf+0x4da>
    4717: a5 ca        	lda	$ca                     ; 0x20ca <f256main+0x1886>
    4719: a6 cb        	ldx	$cb                     ; 0x20cb <f256main+0x1887>
    471b: 85 12        	sta	$12                     ; 0x2012 <f256main+0x17ce>
    471d: 86 13        	stx	$13                     ; 0x2013 <f256main+0x17cf>
    471f: 18           	clc
    4720: 69 02        	adc	#$2
    4722: a8           	tay
    4723: 8a           	txa
    4724: 69 00        	adc	#$0
    4726: 84 ca        	sty	$ca                     ; 0x20ca <f256main+0x1886>
    4728: 85 cb        	sta	$cb                     ; 0x20cb <f256main+0x1887>
    472a: b2 12        	lda	($12)                   ; 0x2012 <f256main+0x17ce>
    472c: 85 ac        	sta	$ac                     ; 0x20ac <f256main+0x1868>
    472e: 64 ad        	stz	$ad                     ; 0x20ad <f256main+0x1869>
    4730: a2 ac        	ldx	#$ac
    4732: 86 12        	stx	$12                     ; 0x2012 <f256main+0x17ce>
    4734: a2 00        	ldx	#$0
    4736: 86 13        	stx	$13                     ; 0x2013 <f256main+0x17cf>
    4738: a2 b9        	ldx	#$b9
    473a: 86 14        	stx	$14                     ; 0x2014 <f256main+0x17d0>
    473c: a2 00        	ldx	#$0
    473e: 86 15        	stx	$15                     ; 0x2015 <f256main+0x17d1>
    4740: 20 75 41     	jsr	$4175 <_ZN12_GLOBAL__N_112print_stringEPKcP6Status>
    4743: a0 01        	ldy	#$1
    4745: a2 00        	ldx	#$0
    4747: 86 8d        	stx	$8d                     ; 0x208d <f256main+0x1849>
    4749: a2 00        	ldx	#$0
    474b: 86 8e        	stx	$8e                     ; 0x208e <f256main+0x184a>
    474d: 4c d5 4d     	jmp	$4dd5 <printf+0xb53>
    4750: a6 15        	ldx	$15                     ; 0x2015 <f256main+0x17d1>
    4752: 86 ce        	stx	$ce                     ; 0x20ce <f256main+0x188a>
    4754: a6 18        	ldx	$18                     ; 0x2018 <f256main+0x17d4>
    4756: 86 d3        	stx	$d3                     ; 0x20d3 <f256main+0x188f>
    4758: a0 0a        	ldy	#$a
    475a: a2 0a        	ldx	#$a
    475c: 86 cf        	stx	$cf                     ; 0x20cf <f256main+0x188b>
    475e: 84 b9        	sty	$b9                     ; 0x20b9 <f256main+0x1875>
    4760: a9 00        	lda	#$0
    4762: 09 01        	ora	#$1
    4764: a6 8a        	ldx	$8a                     ; 0x208a <f256main+0x1846>
    4766: 86 ba        	stx	$ba                     ; 0x20ba <f256main+0x1876>
    4768: 85 94        	sta	$94                     ; 0x2094 <f256main+0x1850>
    476a: 85 bb        	sta	$bb                     ; 0x20bb <f256main+0x1877>
    476c: a5 d0        	lda	$d0                     ; 0x20d0 <f256main+0x188c>
    476e: 85 ae        	sta	$ae                     ; 0x20ae <f256main+0x186a>
    4770: a4 ca        	ldy	$ca                     ; 0x20ca <f256main+0x1886>
    4772: a6 cb        	ldx	$cb                     ; 0x20cb <f256main+0x1887>
    4774: 86 92        	stx	$92                     ; 0x2092 <f256main+0x184e>
    4776: 84 14        	sty	$14                     ; 0x2014 <f256main+0x17d0>
    4778: 84 89        	sty	$89                     ; 0x2089 <f256main+0x1845>
    477a: 86 15        	stx	$15                     ; 0x2015 <f256main+0x17d1>
    477c: a6 d1        	ldx	$d1                     ; 0x20d1 <f256main+0x188d>
    477e: 86 12        	stx	$12                     ; 0x2012 <f256main+0x17ce>
    4780: a6 d2        	ldx	$d2                     ; 0x20d2 <f256main+0x188e>
    4782: 86 13        	stx	$13                     ; 0x2013 <f256main+0x17cf>
    4784: a2 00        	ldx	#$0
    4786: 85 8e        	sta	$8e                     ; 0x208e <f256main+0x184a>
    4788: 20 eb 50     	jsr	$50eb <memcpy>
    478b: 18           	clc
    478c: a5 89        	lda	$89                     ; 0x2089 <f256main+0x1845>
    478e: 65 8d        	adc	$8d                     ; 0x208d <f256main+0x1849>
    4790: aa           	tax
    4791: a5 92        	lda	$92                     ; 0x2092 <f256main+0x184e>
    4793: 69 00        	adc	#$0
    4795: 86 ca        	stx	$ca                     ; 0x20ca <f256main+0x1886>
    4797: 85 cb        	sta	$cb                     ; 0x20cb <f256main+0x1887>
    4799: a5 94        	lda	$94                     ; 0x2094 <f256main+0x1850>
    479b: 29 01        	and	#$1
    479d: b8           	clv
    479e: f0 03        	beq	$47a3 <printf+0x521>
    47a0: 4c f7 47     	jmp	$47f7 <printf+0x575>
    47a3: a6 8e        	ldx	$8e                     ; 0x208e <f256main+0x184a>
    47a5: b5 ae        	lda	$ae,x                   ; 0x20ae <f256main+0x186a>
    47a7: aa           	tax
    47a8: a0 01        	ldy	#$1
    47aa: a5 91        	lda	$91                     ; 0x2091 <f256main+0x184d>
    47ac: 85 1a        	sta	$1a                     ; 0x201a <f256main+0x17d6>
    47ae: a5 d3        	lda	$d3                     ; 0x20d3 <f256main+0x188f>
    47b0: 85 91        	sta	$91                     ; 0x2091 <f256main+0x184d>
    47b2: a9 00        	lda	#$0
    47b4: 85 8d        	sta	$8d                     ; 0x208d <f256main+0x1849>
    47b6: a9 00        	lda	#$0
    47b8: 85 8e        	sta	$8e                     ; 0x208e <f256main+0x184a>
    47ba: a5 ce        	lda	$ce                     ; 0x20ce <f256main+0x188a>
    47bc: 85 92        	sta	$92                     ; 0x2092 <f256main+0x184e>
    47be: 8a           	txa
    47bf: 10 4c        	bpl	$480d <printf+0x58b>
    47c1: a2 00        	ldx	#$0
    47c3: 64 12        	stz	$12                     ; 0x2012 <f256main+0x17ce>
    47c5: a9 00        	lda	#$0
    47c7: 38           	sec
    47c8: f5 af        	sbc	$af,x                   ; 0x20af <f256main+0x186b>
    47ca: a0 00        	ldy	#$0
    47cc: b0 02        	bcs	$47d0 <printf+0x54e>
    47ce: a0 01        	ldy	#$1
    47d0: 38           	sec
    47d1: e5 12        	sbc	$12                     ; 0x2012 <f256main+0x17ce>
    47d3: 85 13        	sta	$13                     ; 0x2013 <f256main+0x17cf>
    47d5: 64 12        	stz	$12                     ; 0x2012 <f256main+0x17ce>
    47d7: b0 04        	bcs	$47dd <printf+0x55b>
    47d9: a9 01        	lda	#$1
    47db: 85 12        	sta	$12                     ; 0x2012 <f256main+0x17ce>
    47dd: 98           	tya
    47de: 05 12        	ora	$12                     ; 0x2012 <f256main+0x17ce>
    47e0: 85 12        	sta	$12                     ; 0x2012 <f256main+0x17ce>
    47e2: a5 13        	lda	$13                     ; 0x2013 <f256main+0x17cf>
    47e4: 9d af 00     	sta	$af,x                   ; 0xaf <__bss_size+0x5e>
    47e7: e8           	inx
    47e8: 86 13        	stx	$13                     ; 0x2013 <f256main+0x17cf>
    47ea: a4 d0        	ldy	$d0                     ; 0x20d0 <f256main+0x188c>
    47ec: c4 13        	cpy	$13                     ; 0x2013 <f256main+0x17cf>
    47ee: d0 d5        	bne	$47c5 <printf+0x543>
    47f0: 2c 43 6d     	bit	$6d43                   ; 0x6d43 <__set_v>
    47f3: a0 01        	ldy	#$1
    47f5: 80 16        	bra	$480d <printf+0x58b>
    47f7: a0 01        	ldy	#$1
    47f9: a6 91        	ldx	$91                     ; 0x2091 <f256main+0x184d>
    47fb: 86 1a        	stx	$1a                     ; 0x201a <f256main+0x17d6>
    47fd: a6 d3        	ldx	$d3                     ; 0x20d3 <f256main+0x188f>
    47ff: 86 91        	stx	$91                     ; 0x2091 <f256main+0x184d>
    4801: a2 00        	ldx	#$0
    4803: 86 8d        	stx	$8d                     ; 0x208d <f256main+0x1849>
    4805: a2 00        	ldx	#$0
    4807: 86 8e        	stx	$8e                     ; 0x208e <f256main+0x184a>
    4809: a6 ce        	ldx	$ce                     ; 0x20ce <f256main+0x188a>
    480b: 86 92        	stx	$92                     ; 0x2092 <f256main+0x184e>
    480d: a2 01        	ldx	#$1
    480f: 70 02        	bvs	$4813 <printf+0x591>
    4811: a2 00        	ldx	#$0
    4813: 86 16        	stx	$16                     ; 0x2016 <f256main+0x17d2>
    4815: a5 d0        	lda	$d0                     ; 0x20d0 <f256main+0x188c>
    4817: 0a           	asl
    4818: 0a           	asl
    4819: 0a           	asl
    481a: 85 12        	sta	$12                     ; 0x2012 <f256main+0x17ce>
    481c: a2 00        	ldx	#$0
    481e: 8a           	txa
    481f: 4c d3 48     	jmp	$48d3 <printf+0x651>
    4822: da           	phx
    4823: 7a           	ply
    4824: c8           	iny
    4825: 9d 97 00     	sta	$97,x                   ; 0x97 <__bss_size+0x46>
    4828: 5a           	phy
    4829: fa           	plx
    482a: c4 89        	cpy	$89                     ; 0x2089 <f256main+0x1845>
    482c: f0 30        	beq	$485e <printf+0x5dc>
    482e: b5 97        	lda	$97,x                   ; 0x2097 <f256main+0x1853>
    4830: 0a           	asl
    4831: a4 ce        	ldy	$ce                     ; 0x20ce <f256main+0x188a>
    4833: f0 02        	beq	$4837 <printf+0x5b5>
    4835: 09 01        	ora	#$1
    4837: a4 cf        	ldy	$cf                     ; 0x20cf <f256main+0x188b>
    4839: 84 14        	sty	$14                     ; 0x2014 <f256main+0x17d0>
    483b: c5 14        	cmp	$14                     ; 0x2014 <f256main+0x17d0>
    483d: a0 01        	ldy	#$1
    483f: b0 02        	bcs	$4843 <printf+0x5c1>
    4841: a0 00        	ldy	#$0
    4843: 84 ce        	sty	$ce                     ; 0x20ce <f256main+0x188a>
    4845: 90 db        	bcc	$4822 <printf+0x5a0>
    4847: 38           	sec
    4848: e5 14        	sbc	$14                     ; 0x2014 <f256main+0x17d0>
    484a: 9d 97 00     	sta	$97,x                   ; 0x97 <__bss_size+0x46>
    484d: e8           	inx
    484e: e4 89        	cpx	$89                     ; 0x2089 <f256main+0x1845>
    4850: d0 dc        	bne	$482e <printf+0x5ac>
    4852: a4 89        	ldy	$89                     ; 0x2089 <f256main+0x1845>
    4854: a6 89        	ldx	$89                     ; 0x2089 <f256main+0x1845>
    4856: e8           	inx
    4857: a9 01        	lda	#$1
    4859: 99 97 00     	sta	$97,y                   ; 0x97 <__bss_size+0x46>
    485c: 86 89        	stx	$89                     ; 0x2089 <f256main+0x1845>
    485e: a6 d0        	ldx	$d0                     ; 0x20d0 <f256main+0x188c>
    4860: b5 ae        	lda	$ae,x                   ; 0x20ae <f256main+0x186a>
    4862: aa           	tax
    4863: 30 0f        	bmi	$4874 <printf+0x5f2>
    4865: a0 01        	ldy	#$1
    4867: 80 42        	bra	$48ab <printf+0x629>
    4869: a6 d0        	ldx	$d0                     ; 0x20d0 <f256main+0x188c>
    486b: b5 ae        	lda	$ae,x                   ; 0x20ae <f256main+0x186a>
    486d: aa           	tax
    486e: 64 89        	stz	$89                     ; 0x2089 <f256main+0x1845>
    4870: 10 39        	bpl	$48ab <printf+0x629>
    4872: 80 2a        	bra	$489e <printf+0x61c>
    4874: a5 89        	lda	$89                     ; 0x2089 <f256main+0x1845>
    4876: f0 24        	beq	$489c <printf+0x61a>
    4878: a2 00        	ldx	#$0
    487a: a4 cf        	ldy	$cf                     ; 0x20cf <f256main+0x188b>
    487c: 84 14        	sty	$14                     ; 0x2014 <f256main+0x17d0>
    487e: b5 97        	lda	$97,x                   ; 0x2097 <f256main+0x1853>
    4880: 1a           	inc
    4881: f6 97        	inc	$97,x                   ; 0x2097 <f256main+0x1853>
    4883: c5 14        	cmp	$14                     ; 0x2014 <f256main+0x17d0>
    4885: 90 de        	bcc	$4865 <printf+0x5e3>
    4887: a4 14        	ldy	$14                     ; 0x2014 <f256main+0x17d0>
    4889: 84 13        	sty	$13                     ; 0x2013 <f256main+0x17cf>
    488b: 38           	sec
    488c: e5 13        	sbc	$13                     ; 0x2013 <f256main+0x17cf>
    488e: 9d 97 00     	sta	$97,x                   ; 0x97 <__bss_size+0x46>
    4891: e8           	inx
    4892: 86 13        	stx	$13                     ; 0x2013 <f256main+0x17cf>
    4894: a4 89        	ldy	$89                     ; 0x2089 <f256main+0x1845>
    4896: c4 13        	cpy	$13                     ; 0x2013 <f256main+0x17cf>
    4898: d0 e4        	bne	$487e <printf+0x5fc>
    489a: 80 02        	bra	$489e <printf+0x61c>
    489c: 64 89        	stz	$89                     ; 0x2089 <f256main+0x1845>
    489e: a4 89        	ldy	$89                     ; 0x2089 <f256main+0x1845>
    48a0: a6 89        	ldx	$89                     ; 0x2089 <f256main+0x1845>
    48a2: e8           	inx
    48a3: a9 01        	lda	#$1
    48a5: 99 97 00     	sta	$97,y                   ; 0x97 <__bss_size+0x46>
    48a8: a8           	tay
    48a9: 86 89        	stx	$89                     ; 0x2089 <f256main+0x1845>
    48ab: a2 01        	ldx	#$1
    48ad: 64 13        	stz	$13                     ; 0x2013 <f256main+0x17cf>
    48af: a5 d0        	lda	$d0                     ; 0x20d0 <f256main+0x188c>
    48b1: 85 14        	sta	$14                     ; 0x2014 <f256main+0x17d0>
    48b3: b5 ae        	lda	$ae,x                   ; 0x20ae <f256main+0x186a>
    48b5: 0a           	asl
    48b6: 64 15        	stz	$15                     ; 0x2015 <f256main+0x17d1>
    48b8: 26 15        	rol	$15                     ; 0x2015 <f256main+0x17d1>
    48ba: 05 13        	ora	$13                     ; 0x2013 <f256main+0x17cf>
    48bc: 9d ae 00     	sta	$ae,x                   ; 0xae <__bss_size+0x5d>
    48bf: e8           	inx
    48c0: c6 14        	dec	$14                     ; 0x2014 <f256main+0x17d0>
    48c2: a5 15        	lda	$15                     ; 0x2015 <f256main+0x17d1>
    48c4: 85 13        	sta	$13                     ; 0x2013 <f256main+0x17cf>
    48c6: a5 14        	lda	$14                     ; 0x2014 <f256main+0x17d0>
    48c8: d0 e9        	bne	$48b3 <printf+0x631>
    48ca: a5 17        	lda	$17                     ; 0x2017 <f256main+0x17d3>
    48cc: 1a           	inc
    48cd: c5 12        	cmp	$12                     ; 0x2012 <f256main+0x17ce>
    48cf: a6 89        	ldx	$89                     ; 0x2089 <f256main+0x1845>
    48d1: b0 13        	bcs	$48e6 <printf+0x664>
    48d3: 85 17        	sta	$17                     ; 0x2017 <f256main+0x17d3>
    48d5: 8a           	txa
    48d6: d0 03        	bne	$48db <printf+0x659>
    48d8: 4c 69 48     	jmp	$4869 <printf+0x5e7>
    48db: 86 89        	stx	$89                     ; 0x2089 <f256main+0x1845>
    48dd: a2 00        	ldx	#$0
    48df: 86 ce        	stx	$ce                     ; 0x20ce <f256main+0x188a>
    48e1: a2 00        	ldx	#$0
    48e3: 4c 2e 48     	jmp	$482e <printf+0x5ac>
    48e6: a5 8a        	lda	$8a                     ; 0x208a <f256main+0x1846>
    48e8: e6 92        	inc	$92                     ; 0x2092 <f256main+0x184e>
    48ea: c6 92        	dec	$92                     ; 0x2092 <f256main+0x184e>
    48ec: 10 08        	bpl	$48f6 <printf+0x674>
    48ee: a2 01        	ldx	#$1
    48f0: 64 92        	stz	$92                     ; 0x2092 <f256main+0x184e>
    48f2: 86 91        	stx	$91                     ; 0x2091 <f256main+0x184d>
    48f4: a6 89        	ldx	$89                     ; 0x2089 <f256main+0x1845>
    48f6: 29 04        	and	#$4
    48f8: f0 2b        	beq	$4925 <printf+0x6a3>
    48fa: a5 cf        	lda	$cf                     ; 0x20cf <f256main+0x188b>
    48fc: c9 10        	cmp	#$10
    48fe: f0 14        	beq	$4914 <printf+0x692>
    4900: c9 08        	cmp	#$8
    4902: d0 21        	bne	$4925 <printf+0x6a3>
    4904: a2 00        	ldx	#$0
    4906: e4 92        	cpx	$92                     ; 0x2092 <f256main+0x184e>
    4908: f0 03        	beq	$490d <printf+0x68b>
    490a: 4c fa 4d     	jmp	$4dfa <printf+0xb78>
    490d: a6 89        	ldx	$89                     ; 0x2089 <f256main+0x1845>
    490f: e4 91        	cpx	$91                     ; 0x2091 <f256main+0x184d>
    4911: 4c fc 4d     	jmp	$4dfc <printf+0xb7a>
    4914: 8a           	txa
    4915: f0 0e        	beq	$4925 <printf+0x6a3>
    4917: a5 8a        	lda	$8a                     ; 0x208a <f256main+0x1846>
    4919: 29 80        	and	#$80
    491b: d0 03        	bne	$4920 <printf+0x69e>
    491d: 4c 15 4e     	jmp	$4e15 <printf+0xb93>
    4920: a2 78        	ldx	#$78
    4922: 4c 17 4e     	jmp	$4e17 <printf+0xb95>
    4925: a6 8a        	ldx	$8a                     ; 0x208a <f256main+0x1846>
    4927: a9 2d        	lda	#$2d
    4929: 85 d0        	sta	$d0                     ; 0x20d0 <f256main+0x188c>
    492b: a5 16        	lda	$16                     ; 0x2016 <f256main+0x17d2>
    492d: d0 32        	bne	$4961 <printf+0x6df>
    492f: 86 12        	stx	$12                     ; 0x2012 <f256main+0x17ce>
    4931: 8a           	txa
    4932: 29 02        	and	#$2
    4934: a2 2b        	ldx	#$2b
    4936: 86 d0        	stx	$d0                     ; 0x20d0 <f256main+0x188c>
    4938: aa           	tax
    4939: d0 26        	bne	$4961 <printf+0x6df>
    493b: a5 12        	lda	$12                     ; 0x2012 <f256main+0x17ce>
    493d: 29 08        	and	#$8
    493f: d0 1c        	bne	$495d <printf+0x6db>
    4941: a2 01        	ldx	#$1
    4943: 86 cf        	stx	$cf                     ; 0x20cf <f256main+0x188b>
    4945: a9 00        	lda	#$0
    4947: aa           	tax
    4948: 86 ce        	stx	$ce                     ; 0x20ce <f256main+0x188a>
    494a: 80 1c        	bra	$4968 <printf+0x6e6>
    494c: 85 12        	sta	$12                     ; 0x2012 <f256main+0x17ce>
    494e: a9 04        	lda	#$4
    4950: 80 04        	bra	$4956 <printf+0x6d4>
    4952: 85 12        	sta	$12                     ; 0x2012 <f256main+0x17ce>
    4954: a9 02        	lda	#$2
    4956: 85 d0        	sta	$d0                     ; 0x20d0 <f256main+0x188c>
    4958: a5 12        	lda	$12                     ; 0x2012 <f256main+0x17ce>
    495a: 4c 29 46     	jmp	$4629 <printf+0x3a7>
    495d: a2 20        	ldx	#$20
    495f: 86 d0        	stx	$d0                     ; 0x20d0 <f256main+0x188c>
    4961: a2 00        	ldx	#$0
    4963: 86 cf        	stx	$cf                     ; 0x20cf <f256main+0x188b>
    4965: 86 ce        	stx	$ce                     ; 0x20ce <f256main+0x188a>
    4967: 98           	tya
    4968: a6 92        	ldx	$92                     ; 0x2092 <f256main+0x184e>
    496a: d0 35        	bne	$49a1 <printf+0x71f>
    496c: a6 91        	ldx	$91                     ; 0x2091 <f256main+0x184d>
    496e: a4 89        	ldy	$89                     ; 0x2089 <f256main+0x1845>
    4970: 84 12        	sty	$12                     ; 0x2012 <f256main+0x17ce>
    4972: e4 12        	cpx	$12                     ; 0x2012 <f256main+0x17ce>
    4974: a6 91        	ldx	$91                     ; 0x2091 <f256main+0x184d>
    4976: 86 12        	stx	$12                     ; 0x2012 <f256main+0x17ce>
    4978: a6 92        	ldx	$92                     ; 0x2092 <f256main+0x184e>
    497a: 86 13        	stx	$13                     ; 0x2013 <f256main+0x17cf>
    497c: b0 04        	bcs	$4982 <printf+0x700>
    497e: 84 12        	sty	$12                     ; 0x2012 <f256main+0x17ce>
    4980: 64 13        	stz	$13                     ; 0x2013 <f256main+0x17cf>
    4982: 85 18        	sta	$18                     ; 0x2018 <f256main+0x17d4>
    4984: 18           	clc
    4985: 65 12        	adc	$12                     ; 0x2012 <f256main+0x17ce>
    4987: 85 16        	sta	$16                     ; 0x2016 <f256main+0x17d2>
    4989: 85 14        	sta	$14                     ; 0x2014 <f256main+0x17d0>
    498b: a5 13        	lda	$13                     ; 0x2013 <f256main+0x17cf>
    498d: 69 00        	adc	#$0
    498f: 85 15        	sta	$15                     ; 0x2015 <f256main+0x17d1>
    4991: c5 1a        	cmp	$1a                     ; 0x201a <f256main+0x17d6>
    4993: d0 1e        	bne	$49b3 <printf+0x731>
    4995: a6 1a        	ldx	$1a                     ; 0x201a <f256main+0x17d6>
    4997: 86 17        	stx	$17                     ; 0x2017 <f256main+0x17d3>
    4999: a6 93        	ldx	$93                     ; 0x2093 <f256main+0x184f>
    499b: a5 16        	lda	$16                     ; 0x2016 <f256main+0x17d2>
    499d: c5 93        	cmp	$93                     ; 0x2093 <f256main+0x184f>
    499f: 80 1c        	bra	$49bd <printf+0x73b>
    49a1: a6 92        	ldx	$92                     ; 0x2092 <f256main+0x184e>
    49a3: e0 00        	cpx	#$0
    49a5: a6 91        	ldx	$91                     ; 0x2091 <f256main+0x184d>
    49a7: 86 12        	stx	$12                     ; 0x2012 <f256main+0x17ce>
    49a9: a6 92        	ldx	$92                     ; 0x2092 <f256main+0x184e>
    49ab: 86 13        	stx	$13                     ; 0x2013 <f256main+0x17cf>
    49ad: a4 89        	ldy	$89                     ; 0x2089 <f256main+0x1845>
    49af: 90 cd        	bcc	$497e <printf+0x6fc>
    49b1: 80 cf        	bra	$4982 <printf+0x700>
    49b3: a6 93        	ldx	$93                     ; 0x2093 <f256main+0x184f>
    49b5: 5a           	phy
    49b6: a4 1a        	ldy	$1a                     ; 0x201a <f256main+0x17d6>
    49b8: 84 17        	sty	$17                     ; 0x2017 <f256main+0x17d3>
    49ba: 7a           	ply
    49bb: c5 1a        	cmp	$1a                     ; 0x201a <f256main+0x17d6>
    49bd: 64 94        	stz	$94                     ; 0x2094 <f256main+0x1850>
    49bf: 64 93        	stz	$93                     ; 0x2093 <f256main+0x184f>
    49c1: 90 03        	bcc	$49c6 <printf+0x744>
    49c3: 4c 59 4a     	jmp	$4a59 <printf+0x7d7>
    49c6: a5 8a        	lda	$8a                     ; 0x208a <f256main+0x1846>
    49c8: 29 11        	and	#$11
    49ca: 86 16        	stx	$16                     ; 0x2016 <f256main+0x17d2>
    49cc: f0 0f        	beq	$49dd <printf+0x75b>
    49ce: 8a           	txa
    49cf: 38           	sec
    49d0: e5 14        	sbc	$14                     ; 0x2014 <f256main+0x17d0>
    49d2: 85 94        	sta	$94                     ; 0x2094 <f256main+0x1850>
    49d4: a5 1a        	lda	$1a                     ; 0x201a <f256main+0x17d6>
    49d6: e5 15        	sbc	$15                     ; 0x2015 <f256main+0x17d1>
    49d8: 85 93        	sta	$93                     ; 0x2093 <f256main+0x184f>
    49da: 4c 59 4a     	jmp	$4a59 <printf+0x7d7>
    49dd: a6 be        	ldx	$be                     ; 0x20be <f256main+0x187a>
    49df: 86 14        	stx	$14                     ; 0x2014 <f256main+0x17d0>
    49e1: 38           	sec
    49e2: a5 18        	lda	$18                     ; 0x2018 <f256main+0x17d4>
    49e4: e5 16        	sbc	$16                     ; 0x2016 <f256main+0x17d2>
    49e6: aa           	tax
    49e7: a9 00        	lda	#$0
    49e9: e5 17        	sbc	$17                     ; 0x2017 <f256main+0x17d3>
    49eb: a8           	tay
    49ec: 18           	clc
    49ed: 8a           	txa
    49ee: 65 12        	adc	$12                     ; 0x2012 <f256main+0x17ce>
    49f0: 85 8a        	sta	$8a                     ; 0x208a <f256main+0x1846>
    49f2: 98           	tya
    49f3: 65 13        	adc	$13                     ; 0x2013 <f256main+0x17cf>
    49f5: a4 bf        	ldy	$bf                     ; 0x20bf <f256main+0x187b>
    49f7: 80 47        	bra	$4a40 <printf+0x7be>
    49f9: c4 bd        	cpy	$bd                     ; 0x20bd <f256main+0x1879>
    49fb: b0 25        	bcs	$4a22 <printf+0x7a0>
    49fd: a6 c9        	ldx	$c9                     ; 0x20c9 <f256main+0x1885>
    49ff: e4 8e        	cpx	$8e                     ; 0x208e <f256main+0x184a>
    4a01: d0 18        	bne	$4a1b <printf+0x799>
    4a03: a6 c8        	ldx	$c8                     ; 0x20c8 <f256main+0x1884>
    4a05: e4 8d        	cpx	$8d                     ; 0x208d <f256main+0x1849>
    4a07: d0 12        	bne	$4a1b <printf+0x799>
    4a09: 18           	clc
    4a0a: a5 14        	lda	$14                     ; 0x2014 <f256main+0x17d0>
    4a0c: 65 c2        	adc	$c2                     ; 0x20c2 <f256main+0x187e>
    4a0e: 85 12        	sta	$12                     ; 0x2012 <f256main+0x17ce>
    4a10: 98           	tya
    4a11: 65 c3        	adc	$c3                     ; 0x20c3 <f256main+0x187f>
    4a13: 85 13        	sta	$13                     ; 0x2013 <f256main+0x17cf>
    4a15: a9 20        	lda	#$20
    4a17: 92 12        	sta	($12)                   ; 0x2012 <f256main+0x17ce>
    4a19: 80 05        	bra	$4a20 <printf+0x79e>
    4a1b: a9 20        	lda	#$20
    4a1d: 20 92 40     	jsr	$4092 <__putchar>
    4a20: a5 93        	lda	$93                     ; 0x2093 <f256main+0x184f>
    4a22: a6 be        	ldx	$be                     ; 0x20be <f256main+0x187a>
    4a24: a4 bf        	ldy	$bf                     ; 0x20bf <f256main+0x187b>
    4a26: e8           	inx
    4a27: d0 01        	bne	$4a2a <printf+0x7a8>
    4a29: c8           	iny
    4a2a: 86 14        	stx	$14                     ; 0x2014 <f256main+0x17d0>
    4a2c: 86 be        	stx	$be                     ; 0x20be <f256main+0x187a>
    4a2e: 84 bf        	sty	$bf                     ; 0x20bf <f256main+0x187b>
    4a30: a6 8a        	ldx	$8a                     ; 0x208a <f256main+0x1846>
    4a32: e8           	inx
    4a33: d0 01        	bne	$4a36 <printf+0x7b4>
    4a35: 1a           	inc
    4a36: 86 8a        	stx	$8a                     ; 0x208a <f256main+0x1846>
    4a38: c9 00        	cmp	#$0
    4a3a: d0 04        	bne	$4a40 <printf+0x7be>
    4a3c: e0 00        	cpx	#$0
    4a3e: f0 13        	beq	$4a53 <printf+0x7d1>
    4a40: 85 93        	sta	$93                     ; 0x2093 <f256main+0x184f>
    4a42: c4 bd        	cpy	$bd                     ; 0x20bd <f256main+0x1879>
    4a44: d0 b3        	bne	$49f9 <printf+0x777>
    4a46: a6 bc        	ldx	$bc                     ; 0x20bc <f256main+0x1878>
    4a48: 86 12        	stx	$12                     ; 0x2012 <f256main+0x17ce>
    4a4a: a6 14        	ldx	$14                     ; 0x2014 <f256main+0x17d0>
    4a4c: e4 12        	cpx	$12                     ; 0x2012 <f256main+0x17ce>
    4a4e: b0 d2        	bcs	$4a22 <printf+0x7a0>
    4a50: 4c fd 49     	jmp	$49fd <printf+0x77b>
    4a53: 64 94        	stz	$94                     ; 0x2094 <f256main+0x1850>
    4a55: 64 93        	stz	$93                     ; 0x2093 <f256main+0x184f>
    4a57: a4 89        	ldy	$89                     ; 0x2089 <f256main+0x1845>
    4a59: a6 cf        	ldx	$cf                     ; 0x20cf <f256main+0x188b>
    4a5b: d0 4d        	bne	$4aaa <printf+0x828>
    4a5d: a6 be        	ldx	$be                     ; 0x20be <f256main+0x187a>
    4a5f: a5 bf        	lda	$bf                     ; 0x20bf <f256main+0x187b>
    4a61: c5 bd        	cmp	$bd                     ; 0x20bd <f256main+0x1879>
    4a63: d0 10        	bne	$4a75 <printf+0x7f3>
    4a65: 86 13        	stx	$13                     ; 0x2013 <f256main+0x17cf>
    4a67: a6 bc        	ldx	$bc                     ; 0x20bc <f256main+0x1878>
    4a69: 86 12        	stx	$12                     ; 0x2012 <f256main+0x17ce>
    4a6b: a4 89        	ldy	$89                     ; 0x2089 <f256main+0x1845>
    4a6d: a6 13        	ldx	$13                     ; 0x2013 <f256main+0x17cf>
    4a6f: e4 12        	cpx	$12                     ; 0x2012 <f256main+0x17ce>
    4a71: 90 08        	bcc	$4a7b <printf+0x7f9>
    4a73: 80 2f        	bra	$4aa4 <printf+0x822>
    4a75: 86 13        	stx	$13                     ; 0x2013 <f256main+0x17cf>
    4a77: c5 bd        	cmp	$bd                     ; 0x20bd <f256main+0x1879>
    4a79: b0 29        	bcs	$4aa4 <printf+0x822>
    4a7b: a6 c9        	ldx	$c9                     ; 0x20c9 <f256main+0x1885>
    4a7d: e4 8e        	cpx	$8e                     ; 0x208e <f256main+0x184a>
    4a7f: d0 1c        	bne	$4a9d <printf+0x81b>
    4a81: a6 c8        	ldx	$c8                     ; 0x20c8 <f256main+0x1884>
    4a83: e4 8d        	cpx	$8d                     ; 0x208d <f256main+0x1849>
    4a85: d0 16        	bne	$4a9d <printf+0x81b>
    4a87: 18           	clc
    4a88: 85 12        	sta	$12                     ; 0x2012 <f256main+0x17ce>
    4a8a: a5 13        	lda	$13                     ; 0x2013 <f256main+0x17cf>
    4a8c: 65 c2        	adc	$c2                     ; 0x20c2 <f256main+0x187e>
    4a8e: aa           	tax
    4a8f: a5 12        	lda	$12                     ; 0x2012 <f256main+0x17ce>
    4a91: 65 c3        	adc	$c3                     ; 0x20c3 <f256main+0x187f>
    4a93: 86 12        	stx	$12                     ; 0x2012 <f256main+0x17ce>
    4a95: 85 13        	sta	$13                     ; 0x2013 <f256main+0x17cf>
    4a97: a5 d0        	lda	$d0                     ; 0x20d0 <f256main+0x188c>
    4a99: 92 12        	sta	($12)                   ; 0x2012 <f256main+0x17ce>
    4a9b: 80 05        	bra	$4aa2 <printf+0x820>
    4a9d: a5 d0        	lda	$d0                     ; 0x20d0 <f256main+0x188c>
    4a9f: 20 92 40     	jsr	$4092 <__putchar>
    4aa2: a4 89        	ldy	$89                     ; 0x2089 <f256main+0x1845>
    4aa4: e6 be        	inc	$be                     ; 0x20be <f256main+0x187a>
    4aa6: d0 02        	bne	$4aaa <printf+0x828>
    4aa8: e6 bf        	inc	$bf                     ; 0x20bf <f256main+0x187b>
    4aaa: a6 ce        	ldx	$ce                     ; 0x20ce <f256main+0x188a>
    4aac: f0 4d        	beq	$4afb <printf+0x879>
    4aae: a6 be        	ldx	$be                     ; 0x20be <f256main+0x187a>
    4ab0: a5 bf        	lda	$bf                     ; 0x20bf <f256main+0x187b>
    4ab2: c5 bd        	cmp	$bd                     ; 0x20bd <f256main+0x1879>
    4ab4: d0 10        	bne	$4ac6 <printf+0x844>
    4ab6: 86 13        	stx	$13                     ; 0x2013 <f256main+0x17cf>
    4ab8: a6 bc        	ldx	$bc                     ; 0x20bc <f256main+0x1878>
    4aba: 86 12        	stx	$12                     ; 0x2012 <f256main+0x17ce>
    4abc: a4 89        	ldy	$89                     ; 0x2089 <f256main+0x1845>
    4abe: a6 13        	ldx	$13                     ; 0x2013 <f256main+0x17cf>
    4ac0: e4 12        	cpx	$12                     ; 0x2012 <f256main+0x17ce>
    4ac2: 90 08        	bcc	$4acc <printf+0x84a>
    4ac4: 80 2f        	bra	$4af5 <printf+0x873>
    4ac6: 86 13        	stx	$13                     ; 0x2013 <f256main+0x17cf>
    4ac8: c5 bd        	cmp	$bd                     ; 0x20bd <f256main+0x1879>
    4aca: b0 29        	bcs	$4af5 <printf+0x873>
    4acc: a6 c9        	ldx	$c9                     ; 0x20c9 <f256main+0x1885>
    4ace: e4 8e        	cpx	$8e                     ; 0x208e <f256main+0x184a>
    4ad0: d0 1c        	bne	$4aee <printf+0x86c>
    4ad2: a6 c8        	ldx	$c8                     ; 0x20c8 <f256main+0x1884>
    4ad4: e4 8d        	cpx	$8d                     ; 0x208d <f256main+0x1849>
    4ad6: d0 16        	bne	$4aee <printf+0x86c>
    4ad8: 18           	clc
    4ad9: 85 12        	sta	$12                     ; 0x2012 <f256main+0x17ce>
    4adb: a5 13        	lda	$13                     ; 0x2013 <f256main+0x17cf>
    4add: 65 c2        	adc	$c2                     ; 0x20c2 <f256main+0x187e>
    4adf: aa           	tax
    4ae0: a5 12        	lda	$12                     ; 0x2012 <f256main+0x17ce>
    4ae2: 65 c3        	adc	$c3                     ; 0x20c3 <f256main+0x187f>
    4ae4: 86 12        	stx	$12                     ; 0x2012 <f256main+0x17ce>
    4ae6: 85 13        	sta	$13                     ; 0x2013 <f256main+0x17cf>
    4ae8: a5 d3        	lda	$d3                     ; 0x20d3 <f256main+0x188f>
    4aea: 92 12        	sta	($12)                   ; 0x2012 <f256main+0x17ce>
    4aec: 80 05        	bra	$4af3 <printf+0x871>
    4aee: a5 d3        	lda	$d3                     ; 0x20d3 <f256main+0x188f>
    4af0: 20 92 40     	jsr	$4092 <__putchar>
    4af3: a4 89        	ldy	$89                     ; 0x2089 <f256main+0x1845>
    4af5: e6 be        	inc	$be                     ; 0x20be <f256main+0x187a>
    4af7: d0 02        	bne	$4afb <printf+0x879>
    4af9: e6 bf        	inc	$bf                     ; 0x20bf <f256main+0x187b>
    4afb: a9 10        	lda	#$10
    4afd: 25 ba        	and	$ba                     ; 0x20ba <f256main+0x1876>
    4aff: d0 03        	bne	$4b04 <printf+0x882>
    4b01: 4c 8c 4b     	jmp	$4b8c <printf+0x90a>
    4b04: a5 ba        	lda	$ba                     ; 0x20ba <f256main+0x1876>
    4b06: 29 01        	and	#$1
    4b08: 29 01        	and	#$1
    4b0a: f0 03        	beq	$4b0f <printf+0x88d>
    4b0c: 4c 8c 4b     	jmp	$4b8c <printf+0x90a>
    4b0f: a6 94        	ldx	$94                     ; 0x2094 <f256main+0x1850>
    4b11: a5 93        	lda	$93                     ; 0x2093 <f256main+0x184f>
    4b13: d0 06        	bne	$4b1b <printf+0x899>
    4b15: 8a           	txa
    4b16: d0 03        	bne	$4b1b <printf+0x899>
    4b18: 4c 2a 4e     	jmp	$4e2a <printf+0xba8>
    4b1b: a6 be        	ldx	$be                     ; 0x20be <f256main+0x187a>
    4b1d: 86 13        	stx	$13                     ; 0x2013 <f256main+0x17cf>
    4b1f: a5 bf        	lda	$bf                     ; 0x20bf <f256main+0x187b>
    4b21: 80 4f        	bra	$4b72 <printf+0x8f0>
    4b23: c5 bd        	cmp	$bd                     ; 0x20bd <f256main+0x1879>
    4b25: b0 24        	bcs	$4b4b <printf+0x8c9>
    4b27: a6 c9        	ldx	$c9                     ; 0x20c9 <f256main+0x1885>
    4b29: e4 8e        	cpx	$8e                     ; 0x208e <f256main+0x184a>
    4b2b: d0 19        	bne	$4b46 <printf+0x8c4>
    4b2d: a6 c8        	ldx	$c8                     ; 0x20c8 <f256main+0x1884>
    4b2f: e4 8d        	cpx	$8d                     ; 0x208d <f256main+0x1849>
    4b31: d0 13        	bne	$4b46 <printf+0x8c4>
    4b33: 18           	clc
    4b34: aa           	tax
    4b35: a5 13        	lda	$13                     ; 0x2013 <f256main+0x17cf>
    4b37: 65 c2        	adc	$c2                     ; 0x20c2 <f256main+0x187e>
    4b39: 85 12        	sta	$12                     ; 0x2012 <f256main+0x17ce>
    4b3b: 8a           	txa
    4b3c: 65 c3        	adc	$c3                     ; 0x20c3 <f256main+0x187f>
    4b3e: 85 13        	sta	$13                     ; 0x2013 <f256main+0x17cf>
    4b40: a9 30        	lda	#$30
    4b42: 92 12        	sta	($12)                   ; 0x2012 <f256main+0x17ce>
    4b44: 80 05        	bra	$4b4b <printf+0x8c9>
    4b46: a9 30        	lda	#$30
    4b48: 20 92 40     	jsr	$4092 <__putchar>
    4b4b: a6 be        	ldx	$be                     ; 0x20be <f256main+0x187a>
    4b4d: a5 bf        	lda	$bf                     ; 0x20bf <f256main+0x187b>
    4b4f: e8           	inx
    4b50: d0 01        	bne	$4b53 <printf+0x8d1>
    4b52: 1a           	inc
    4b53: 86 13        	stx	$13                     ; 0x2013 <f256main+0x17cf>
    4b55: 86 be        	stx	$be                     ; 0x20be <f256main+0x187a>
    4b57: 85 bf        	sta	$bf                     ; 0x20bf <f256main+0x187b>
    4b59: a4 94        	ldy	$94                     ; 0x2094 <f256main+0x1850>
    4b5b: a6 93        	ldx	$93                     ; 0x2093 <f256main+0x184f>
    4b5d: 86 12        	stx	$12                     ; 0x2012 <f256main+0x17ce>
    4b5f: 88           	dey
    4b60: c0 ff        	cpy	#$ff
    4b62: d0 02        	bne	$4b66 <printf+0x8e4>
    4b64: c6 12        	dec	$12                     ; 0x2012 <f256main+0x17ce>
    4b66: 84 94        	sty	$94                     ; 0x2094 <f256main+0x1850>
    4b68: a6 12        	ldx	$12                     ; 0x2012 <f256main+0x17ce>
    4b6a: 86 93        	stx	$93                     ; 0x2093 <f256main+0x184f>
    4b6c: d0 04        	bne	$4b72 <printf+0x8f0>
    4b6e: c0 00        	cpy	#$0
    4b70: f0 14        	beq	$4b86 <printf+0x904>
    4b72: c5 bd        	cmp	$bd                     ; 0x20bd <f256main+0x1879>
    4b74: f0 03        	beq	$4b79 <printf+0x8f7>
    4b76: 4c 23 4b     	jmp	$4b23 <printf+0x8a1>
    4b79: a6 bc        	ldx	$bc                     ; 0x20bc <f256main+0x1878>
    4b7b: 86 12        	stx	$12                     ; 0x2012 <f256main+0x17ce>
    4b7d: a6 13        	ldx	$13                     ; 0x2013 <f256main+0x17cf>
    4b7f: e4 12        	cpx	$12                     ; 0x2012 <f256main+0x17ce>
    4b81: b0 c8        	bcs	$4b4b <printf+0x8c9>
    4b83: 4c 27 4b     	jmp	$4b27 <printf+0x8a5>
    4b86: 64 94        	stz	$94                     ; 0x2094 <f256main+0x1850>
    4b88: 64 93        	stz	$93                     ; 0x2093 <f256main+0x184f>
    4b8a: a4 89        	ldy	$89                     ; 0x2089 <f256main+0x1845>
    4b8c: a2 00        	ldx	#$0
    4b8e: e4 92        	cpx	$92                     ; 0x2092 <f256main+0x184e>
    4b90: d0 07        	bne	$4b99 <printf+0x917>
    4b92: c4 91        	cpy	$91                     ; 0x2091 <f256main+0x184d>
    4b94: 90 0a        	bcc	$4ba0 <printf+0x91e>
    4b96: 4c 0e 4c     	jmp	$4c0e <printf+0x98c>
    4b99: e4 92        	cpx	$92                     ; 0x2092 <f256main+0x184e>
    4b9b: 90 03        	bcc	$4ba0 <printf+0x91e>
    4b9d: 4c 0e 4c     	jmp	$4c0e <printf+0x98c>
    4ba0: a6 be        	ldx	$be                     ; 0x20be <f256main+0x187a>
    4ba2: 86 13        	stx	$13                     ; 0x2013 <f256main+0x17cf>
    4ba4: a5 bf        	lda	$bf                     ; 0x20bf <f256main+0x187b>
    4ba6: a2 ff        	ldx	#$ff
    4ba8: c6 91        	dec	$91                     ; 0x2091 <f256main+0x184d>
    4baa: e4 91        	cpx	$91                     ; 0x2091 <f256main+0x184d>
    4bac: d0 02        	bne	$4bb0 <printf+0x92e>
    4bae: c6 92        	dec	$92                     ; 0x2092 <f256main+0x184e>
    4bb0: c5 bd        	cmp	$bd                     ; 0x20bd <f256main+0x1879>
    4bb2: d0 0c        	bne	$4bc0 <printf+0x93e>
    4bb4: a6 bc        	ldx	$bc                     ; 0x20bc <f256main+0x1878>
    4bb6: 86 12        	stx	$12                     ; 0x2012 <f256main+0x17ce>
    4bb8: a6 13        	ldx	$13                     ; 0x2013 <f256main+0x17cf>
    4bba: e4 12        	cpx	$12                     ; 0x2012 <f256main+0x17ce>
    4bbc: 90 06        	bcc	$4bc4 <printf+0x942>
    4bbe: 80 28        	bra	$4be8 <printf+0x966>
    4bc0: c5 bd        	cmp	$bd                     ; 0x20bd <f256main+0x1879>
    4bc2: b0 24        	bcs	$4be8 <printf+0x966>
    4bc4: a6 c9        	ldx	$c9                     ; 0x20c9 <f256main+0x1885>
    4bc6: e4 8e        	cpx	$8e                     ; 0x208e <f256main+0x184a>
    4bc8: d0 19        	bne	$4be3 <printf+0x961>
    4bca: a6 c8        	ldx	$c8                     ; 0x20c8 <f256main+0x1884>
    4bcc: e4 8d        	cpx	$8d                     ; 0x208d <f256main+0x1849>
    4bce: d0 13        	bne	$4be3 <printf+0x961>
    4bd0: 18           	clc
    4bd1: aa           	tax
    4bd2: a5 13        	lda	$13                     ; 0x2013 <f256main+0x17cf>
    4bd4: 65 c2        	adc	$c2                     ; 0x20c2 <f256main+0x187e>
    4bd6: 85 12        	sta	$12                     ; 0x2012 <f256main+0x17ce>
    4bd8: 8a           	txa
    4bd9: 65 c3        	adc	$c3                     ; 0x20c3 <f256main+0x187f>
    4bdb: 85 13        	sta	$13                     ; 0x2013 <f256main+0x17cf>
    4bdd: a9 30        	lda	#$30
    4bdf: 92 12        	sta	($12)                   ; 0x2012 <f256main+0x17ce>
    4be1: 80 05        	bra	$4be8 <printf+0x966>
    4be3: a9 30        	lda	#$30
    4be5: 20 92 40     	jsr	$4092 <__putchar>
    4be8: a6 be        	ldx	$be                     ; 0x20be <f256main+0x187a>
    4bea: a5 bf        	lda	$bf                     ; 0x20bf <f256main+0x187b>
    4bec: e8           	inx
    4bed: d0 01        	bne	$4bf0 <printf+0x96e>
    4bef: 1a           	inc
    4bf0: 86 13        	stx	$13                     ; 0x2013 <f256main+0x17cf>
    4bf2: 86 be        	stx	$be                     ; 0x20be <f256main+0x187a>
    4bf4: 85 bf        	sta	$bf                     ; 0x20bf <f256main+0x187b>
    4bf6: a2 00        	ldx	#$0
    4bf8: e4 92        	cpx	$92                     ; 0x2092 <f256main+0x184e>
    4bfa: d0 09        	bne	$4c05 <printf+0x983>
    4bfc: a4 89        	ldy	$89                     ; 0x2089 <f256main+0x1845>
    4bfe: c4 91        	cpy	$91                     ; 0x2091 <f256main+0x184d>
    4c00: b0 0c        	bcs	$4c0e <printf+0x98c>
    4c02: 4c a6 4b     	jmp	$4ba6 <printf+0x924>
    4c05: e4 92        	cpx	$92                     ; 0x2092 <f256main+0x184e>
    4c07: a4 89        	ldy	$89                     ; 0x2089 <f256main+0x1845>
    4c09: b0 03        	bcs	$4c0e <printf+0x98c>
    4c0b: 4c a6 4b     	jmp	$4ba6 <printf+0x924>
    4c0e: 98           	tya
    4c0f: d0 03        	bne	$4c14 <printf+0x992>
    4c11: 4c 03 4d     	jmp	$4d03 <printf+0xa81>
    4c14: 88           	dey
    4c15: d0 03        	bne	$4c1a <printf+0x998>
    4c17: 4c a2 4c     	jmp	$4ca2 <printf+0xa20>
    4c1a: 84 91        	sty	$91                     ; 0x2091 <f256main+0x184d>
    4c1c: a6 d4        	ldx	$d4                     ; 0x20d4 <f256main+0x1890>
    4c1e: 8a           	txa
    4c1f: 18           	clc
    4c20: 65 91        	adc	$91                     ; 0x2091 <f256main+0x184d>
    4c22: 85 89        	sta	$89                     ; 0x2089 <f256main+0x1845>
    4c24: a5 d5        	lda	$d5                     ; 0x20d5 <f256main+0x1891>
    4c26: 69 00        	adc	#$0
    4c28: 85 8a        	sta	$8a                     ; 0x208a <f256main+0x1846>
    4c2a: 4c 94 4c     	jmp	$4c94 <printf+0xa12>
    4c2d: a8           	tay
    4c2e: a9 80        	lda	#$80
    4c30: 25 ba        	and	$ba                     ; 0x20ba <f256main+0x1876>
    4c32: f0 04        	beq	$4c38 <printf+0x9b6>
    4c34: a2 61        	ldx	#$61
    4c36: 80 02        	bra	$4c3a <printf+0x9b8>
    4c38: a2 41        	ldx	#$41
    4c3a: 86 12        	stx	$12                     ; 0x2012 <f256main+0x17ce>
    4c3c: 18           	clc
    4c3d: 98           	tya
    4c3e: 65 12        	adc	$12                     ; 0x2012 <f256main+0x17ce>
    4c40: 18           	clc
    4c41: 69 f6        	adc	#$f6
    4c43: a4 be        	ldy	$be                     ; 0x20be <f256main+0x187a>
    4c45: a6 bf        	ldx	$bf                     ; 0x20bf <f256main+0x187b>
    4c47: e4 bd        	cpx	$bd                     ; 0x20bd <f256main+0x1879>
    4c49: d0 0c        	bne	$4c57 <printf+0x9d5>
    4c4b: 86 14        	stx	$14                     ; 0x2014 <f256main+0x17d0>
    4c4d: a6 bc        	ldx	$bc                     ; 0x20bc <f256main+0x1878>
    4c4f: 86 12        	stx	$12                     ; 0x2012 <f256main+0x17ce>
    4c51: c4 12        	cpy	$12                     ; 0x2012 <f256main+0x17ce>
    4c53: 90 08        	bcc	$4c5d <printf+0x9db>
    4c55: 80 27        	bra	$4c7e <printf+0x9fc>
    4c57: 86 14        	stx	$14                     ; 0x2014 <f256main+0x17d0>
    4c59: e4 bd        	cpx	$bd                     ; 0x20bd <f256main+0x1879>
    4c5b: b0 21        	bcs	$4c7e <printf+0x9fc>
    4c5d: a6 c9        	ldx	$c9                     ; 0x20c9 <f256main+0x1885>
    4c5f: e4 8e        	cpx	$8e                     ; 0x208e <f256main+0x184a>
    4c61: d0 18        	bne	$4c7b <printf+0x9f9>
    4c63: a6 c8        	ldx	$c8                     ; 0x20c8 <f256main+0x1884>
    4c65: e4 8d        	cpx	$8d                     ; 0x208d <f256main+0x1849>
    4c67: d0 12        	bne	$4c7b <printf+0x9f9>
    4c69: 18           	clc
    4c6a: aa           	tax
    4c6b: 98           	tya
    4c6c: 65 c2        	adc	$c2                     ; 0x20c2 <f256main+0x187e>
    4c6e: 85 12        	sta	$12                     ; 0x2012 <f256main+0x17ce>
    4c70: a5 14        	lda	$14                     ; 0x2014 <f256main+0x17d0>
    4c72: 65 c3        	adc	$c3                     ; 0x20c3 <f256main+0x187f>
    4c74: 85 13        	sta	$13                     ; 0x2013 <f256main+0x17cf>
    4c76: 8a           	txa
    4c77: 92 12        	sta	($12)                   ; 0x2012 <f256main+0x17ce>
    4c79: 80 03        	bra	$4c7e <printf+0x9fc>
    4c7b: 20 92 40     	jsr	$4092 <__putchar>
    4c7e: e6 be        	inc	$be                     ; 0x20be <f256main+0x187a>
    4c80: d0 02        	bne	$4c84 <printf+0xa02>
    4c82: e6 bf        	inc	$bf                     ; 0x20bf <f256main+0x187b>
    4c84: c6 91        	dec	$91                     ; 0x2091 <f256main+0x184d>
    4c86: a2 ff        	ldx	#$ff
    4c88: c6 89        	dec	$89                     ; 0x2089 <f256main+0x1845>
    4c8a: e4 89        	cpx	$89                     ; 0x2089 <f256main+0x1845>
    4c8c: d0 02        	bne	$4c90 <printf+0xa0e>
    4c8e: c6 8a        	dec	$8a                     ; 0x208a <f256main+0x1846>
    4c90: a5 91        	lda	$91                     ; 0x2091 <f256main+0x184d>
    4c92: f0 0e        	beq	$4ca2 <printf+0xa20>
    4c94: b2 89        	lda	($89)                   ; 0x2089 <f256main+0x1845>
    4c96: c9 0a        	cmp	#$a
    4c98: 90 03        	bcc	$4c9d <printf+0xa1b>
    4c9a: 4c 2d 4c     	jmp	$4c2d <printf+0x9ab>
    4c9d: 09 30        	ora	#$30
    4c9f: 4c 43 4c     	jmp	$4c43 <printf+0x9c1>
    4ca2: a5 97        	lda	$97                     ; 0x2097 <f256main+0x1853>
    4ca4: c9 0a        	cmp	#$a
    4ca6: b0 04        	bcs	$4cac <printf+0xa2a>
    4ca8: 09 30        	ora	#$30
    4caa: 80 16        	bra	$4cc2 <printf+0xa40>
    4cac: a8           	tay
    4cad: a9 80        	lda	#$80
    4caf: 25 ba        	and	$ba                     ; 0x20ba <f256main+0x1876>
    4cb1: f0 04        	beq	$4cb7 <printf+0xa35>
    4cb3: a2 61        	ldx	#$61
    4cb5: 80 02        	bra	$4cb9 <printf+0xa37>
    4cb7: a2 41        	ldx	#$41
    4cb9: 86 12        	stx	$12                     ; 0x2012 <f256main+0x17ce>
    4cbb: 18           	clc
    4cbc: 98           	tya
    4cbd: 65 12        	adc	$12                     ; 0x2012 <f256main+0x17ce>
    4cbf: 18           	clc
    4cc0: 69 f6        	adc	#$f6
    4cc2: a4 be        	ldy	$be                     ; 0x20be <f256main+0x187a>
    4cc4: a6 bf        	ldx	$bf                     ; 0x20bf <f256main+0x187b>
    4cc6: e4 bd        	cpx	$bd                     ; 0x20bd <f256main+0x1879>
    4cc8: d0 0c        	bne	$4cd6 <printf+0xa54>
    4cca: 86 14        	stx	$14                     ; 0x2014 <f256main+0x17d0>
    4ccc: a6 bc        	ldx	$bc                     ; 0x20bc <f256main+0x1878>
    4cce: 86 12        	stx	$12                     ; 0x2012 <f256main+0x17ce>
    4cd0: c4 12        	cpy	$12                     ; 0x2012 <f256main+0x17ce>
    4cd2: 90 08        	bcc	$4cdc <printf+0xa5a>
    4cd4: 80 27        	bra	$4cfd <printf+0xa7b>
    4cd6: 86 14        	stx	$14                     ; 0x2014 <f256main+0x17d0>
    4cd8: e4 bd        	cpx	$bd                     ; 0x20bd <f256main+0x1879>
    4cda: b0 21        	bcs	$4cfd <printf+0xa7b>
    4cdc: a6 c9        	ldx	$c9                     ; 0x20c9 <f256main+0x1885>
    4cde: e4 8e        	cpx	$8e                     ; 0x208e <f256main+0x184a>
    4ce0: d0 18        	bne	$4cfa <printf+0xa78>
    4ce2: a6 c8        	ldx	$c8                     ; 0x20c8 <f256main+0x1884>
    4ce4: e4 8d        	cpx	$8d                     ; 0x208d <f256main+0x1849>
    4ce6: d0 12        	bne	$4cfa <printf+0xa78>
    4ce8: 18           	clc
    4ce9: aa           	tax
    4cea: 98           	tya
    4ceb: 65 c2        	adc	$c2                     ; 0x20c2 <f256main+0x187e>
    4ced: 85 12        	sta	$12                     ; 0x2012 <f256main+0x17ce>
    4cef: a5 14        	lda	$14                     ; 0x2014 <f256main+0x17d0>
    4cf1: 65 c3        	adc	$c3                     ; 0x20c3 <f256main+0x187f>
    4cf3: 85 13        	sta	$13                     ; 0x2013 <f256main+0x17cf>
    4cf5: 8a           	txa
    4cf6: 92 12        	sta	($12)                   ; 0x2012 <f256main+0x17ce>
    4cf8: 80 03        	bra	$4cfd <printf+0xa7b>
    4cfa: 20 92 40     	jsr	$4092 <__putchar>
    4cfd: e6 be        	inc	$be                     ; 0x20be <f256main+0x187a>
    4cff: d0 02        	bne	$4d03 <printf+0xa81>
    4d01: e6 bf        	inc	$bf                     ; 0x20bf <f256main+0x187b>
    4d03: a9 01        	lda	#$1
    4d05: 25 ba        	and	$ba                     ; 0x20ba <f256main+0x1876>
    4d07: 29 01        	and	#$1
    4d09: d0 1e        	bne	$4d29 <printf+0xaa7>
    4d0b: a6 be        	ldx	$be                     ; 0x20be <f256main+0x187a>
    4d0d: 86 14        	stx	$14                     ; 0x2014 <f256main+0x17d0>
    4d0f: a5 bf        	lda	$bf                     ; 0x20bf <f256main+0x187b>
    4d11: a4 bc        	ldy	$bc                     ; 0x20bc <f256main+0x1878>
    4d13: a6 bd        	ldx	$bd                     ; 0x20bd <f256main+0x1879>
    4d15: 86 12        	stx	$12                     ; 0x2012 <f256main+0x17ce>
    4d17: 86 13        	stx	$13                     ; 0x2013 <f256main+0x17cf>
    4d19: c5 12        	cmp	$12                     ; 0x2012 <f256main+0x17ce>
    4d1b: f0 03        	beq	$4d20 <printf+0xa9e>
    4d1d: 4c ac 4d     	jmp	$4dac <printf+0xb2a>
    4d20: 84 12        	sty	$12                     ; 0x2012 <f256main+0x17ce>
    4d22: a6 14        	ldx	$14                     ; 0x2014 <f256main+0x17d0>
    4d24: e4 12        	cpx	$12                     ; 0x2012 <f256main+0x17ce>
    4d26: 4c b0 4d     	jmp	$4db0 <printf+0xb2e>
    4d29: a6 be        	ldx	$be                     ; 0x20be <f256main+0x187a>
    4d2b: 86 14        	stx	$14                     ; 0x2014 <f256main+0x17d0>
    4d2d: a5 bf        	lda	$bf                     ; 0x20bf <f256main+0x187b>
    4d2f: a6 94        	ldx	$94                     ; 0x2094 <f256main+0x1850>
    4d31: a4 93        	ldy	$93                     ; 0x2093 <f256main+0x184f>
    4d33: f0 03        	beq	$4d38 <printf+0xab6>
    4d35: 4c 98 4d     	jmp	$4d98 <printf+0xb16>
    4d38: e0 00        	cpx	#$0
    4d3a: f0 d5        	beq	$4d11 <printf+0xa8f>
    4d3c: 4c 98 4d     	jmp	$4d98 <printf+0xb16>
    4d3f: c5 bd        	cmp	$bd                     ; 0x20bd <f256main+0x1879>
    4d41: b0 24        	bcs	$4d67 <printf+0xae5>
    4d43: a6 c9        	ldx	$c9                     ; 0x20c9 <f256main+0x1885>
    4d45: e4 8e        	cpx	$8e                     ; 0x208e <f256main+0x184a>
    4d47: d0 19        	bne	$4d62 <printf+0xae0>
    4d49: a6 c8        	ldx	$c8                     ; 0x20c8 <f256main+0x1884>
    4d4b: e4 8d        	cpx	$8d                     ; 0x208d <f256main+0x1849>
    4d4d: d0 13        	bne	$4d62 <printf+0xae0>
    4d4f: 18           	clc
    4d50: aa           	tax
    4d51: a5 14        	lda	$14                     ; 0x2014 <f256main+0x17d0>
    4d53: 65 c2        	adc	$c2                     ; 0x20c2 <f256main+0x187e>
    4d55: 85 12        	sta	$12                     ; 0x2012 <f256main+0x17ce>
    4d57: 8a           	txa
    4d58: 65 c3        	adc	$c3                     ; 0x20c3 <f256main+0x187f>
    4d5a: 85 13        	sta	$13                     ; 0x2013 <f256main+0x17cf>
    4d5c: a9 20        	lda	#$20
    4d5e: 92 12        	sta	($12)                   ; 0x2012 <f256main+0x17ce>
    4d60: 80 05        	bra	$4d67 <printf+0xae5>
    4d62: a9 20        	lda	#$20
    4d64: 20 92 40     	jsr	$4092 <__putchar>
    4d67: a6 be        	ldx	$be                     ; 0x20be <f256main+0x187a>
    4d69: a5 bf        	lda	$bf                     ; 0x20bf <f256main+0x187b>
    4d6b: e8           	inx
    4d6c: d0 01        	bne	$4d6f <printf+0xaed>
    4d6e: 1a           	inc
    4d6f: 86 14        	stx	$14                     ; 0x2014 <f256main+0x17d0>
    4d71: 86 be        	stx	$be                     ; 0x20be <f256main+0x187a>
    4d73: 85 bf        	sta	$bf                     ; 0x20bf <f256main+0x187b>
    4d75: a6 94        	ldx	$94                     ; 0x2094 <f256main+0x1850>
    4d77: 86 12        	stx	$12                     ; 0x2012 <f256main+0x17ce>
    4d79: a6 93        	ldx	$93                     ; 0x2093 <f256main+0x184f>
    4d7b: 86 13        	stx	$13                     ; 0x2013 <f256main+0x17cf>
    4d7d: a2 ff        	ldx	#$ff
    4d7f: c6 12        	dec	$12                     ; 0x2012 <f256main+0x17ce>
    4d81: e4 12        	cpx	$12                     ; 0x2012 <f256main+0x17ce>
    4d83: d0 02        	bne	$4d87 <printf+0xb05>
    4d85: c6 13        	dec	$13                     ; 0x2013 <f256main+0x17cf>
    4d87: a6 12        	ldx	$12                     ; 0x2012 <f256main+0x17ce>
    4d89: 86 94        	stx	$94                     ; 0x2094 <f256main+0x1850>
    4d8b: a6 13        	ldx	$13                     ; 0x2013 <f256main+0x17cf>
    4d8d: 86 93        	stx	$93                     ; 0x2093 <f256main+0x184f>
    4d8f: d0 07        	bne	$4d98 <printf+0xb16>
    4d91: a6 12        	ldx	$12                     ; 0x2012 <f256main+0x17ce>
    4d93: d0 03        	bne	$4d98 <printf+0xb16>
    4d95: 4c 11 4d     	jmp	$4d11 <printf+0xa8f>
    4d98: c5 bd        	cmp	$bd                     ; 0x20bd <f256main+0x1879>
    4d9a: f0 03        	beq	$4d9f <printf+0xb1d>
    4d9c: 4c 3f 4d     	jmp	$4d3f <printf+0xabd>
    4d9f: a6 bc        	ldx	$bc                     ; 0x20bc <f256main+0x1878>
    4da1: 86 12        	stx	$12                     ; 0x2012 <f256main+0x17ce>
    4da3: a6 14        	ldx	$14                     ; 0x2014 <f256main+0x17d0>
    4da5: e4 12        	cpx	$12                     ; 0x2012 <f256main+0x17ce>
    4da7: b0 be        	bcs	$4d67 <printf+0xae5>
    4da9: 4c 43 4d     	jmp	$4d43 <printf+0xac1>
    4dac: 86 12        	stx	$12                     ; 0x2012 <f256main+0x17ce>
    4dae: c5 12        	cmp	$12                     ; 0x2012 <f256main+0x17ce>
    4db0: 98           	tya
    4db1: a0 01        	ldy	#$1
    4db3: 90 20        	bcc	$4dd5 <printf+0xb53>
    4db5: a6 13        	ldx	$13                     ; 0x2013 <f256main+0x17cf>
    4db7: d0 03        	bne	$4dbc <printf+0xb3a>
    4db9: aa           	tax
    4dba: f0 19        	beq	$4dd5 <printf+0xb53>
    4dbc: 18           	clc
    4dbd: 65 c2        	adc	$c2                     ; 0x20c2 <f256main+0x187e>
    4dbf: 85 12        	sta	$12                     ; 0x2012 <f256main+0x17ce>
    4dc1: a5 13        	lda	$13                     ; 0x2013 <f256main+0x17cf>
    4dc3: 65 c3        	adc	$c3                     ; 0x20c3 <f256main+0x187f>
    4dc5: 85 13        	sta	$13                     ; 0x2013 <f256main+0x17cf>
    4dc7: a2 ff        	ldx	#$ff
    4dc9: c6 12        	dec	$12                     ; 0x2012 <f256main+0x17ce>
    4dcb: e4 12        	cpx	$12                     ; 0x2012 <f256main+0x17ce>
    4dcd: d0 02        	bne	$4dd1 <printf+0xb4f>
    4dcf: c6 13        	dec	$13                     ; 0x2013 <f256main+0x17cf>
    4dd1: a9 00        	lda	#$0
    4dd3: 92 12        	sta	($12)                   ; 0x2012 <f256main+0x17ce>
    4dd5: e6 8b        	inc	$8b                     ; 0x208b <f256main+0x1847>
    4dd7: d0 02        	bne	$4ddb <printf+0xb59>
    4dd9: e6 8c        	inc	$8c                     ; 0x208c <f256main+0x1848>
    4ddb: a6 8c        	ldx	$8c                     ; 0x208c <f256main+0x1848>
    4ddd: e4 90        	cpx	$90                     ; 0x2090 <f256main+0x184c>
    4ddf: f0 03        	beq	$4de4 <printf+0xb62>
    4de1: 4c e7 42     	jmp	$42e7 <printf+0x65>
    4de4: a6 8b        	ldx	$8b                     ; 0x208b <f256main+0x1847>
    4de6: e4 8f        	cpx	$8f                     ; 0x208f <f256main+0x184b>
    4de8: f0 03        	beq	$4ded <printf+0xb6b>
    4dea: 4c e7 42     	jmp	$42e7 <printf+0x65>
    4ded: b2 8f        	lda	($8f)                   ; 0x208f <f256main+0x184b>
    4def: a2 00        	ldx	#$0
    4df1: 86 8d        	stx	$8d                     ; 0x208d <f256main+0x1849>
    4df3: a2 00        	ldx	#$0
    4df5: 86 8e        	stx	$8e                     ; 0x208e <f256main+0x184a>
    4df7: 4c fb 42     	jmp	$42fb <printf+0x79>
    4dfa: e4 92        	cpx	$92                     ; 0x2092 <f256main+0x184e>
    4dfc: a6 8a        	ldx	$8a                     ; 0x208a <f256main+0x1846>
    4dfe: b0 03        	bcs	$4e03 <printf+0xb81>
    4e00: 4c 27 49     	jmp	$4927 <printf+0x6a5>
    4e03: a5 89        	lda	$89                     ; 0x2089 <f256main+0x1845>
    4e05: 85 91        	sta	$91                     ; 0x2091 <f256main+0x184d>
    4e07: 64 92        	stz	$92                     ; 0x2092 <f256main+0x184e>
    4e09: e6 91        	inc	$91                     ; 0x2091 <f256main+0x184d>
    4e0b: f0 03        	beq	$4e10 <printf+0xb8e>
    4e0d: 4c 27 49     	jmp	$4927 <printf+0x6a5>
    4e10: e6 92        	inc	$92                     ; 0x2092 <f256main+0x184e>
    4e12: 4c 27 49     	jmp	$4927 <printf+0x6a5>
    4e15: a2 58        	ldx	#$58
    4e17: 86 d3        	stx	$d3                     ; 0x20d3 <f256main+0x188f>
    4e19: a2 01        	ldx	#$1
    4e1b: 86 ce        	stx	$ce                     ; 0x20ce <f256main+0x188a>
    4e1d: a2 30        	ldx	#$30
    4e1f: 86 d0        	stx	$d0                     ; 0x20d0 <f256main+0x188c>
    4e21: a9 02        	lda	#$2
    4e23: a2 00        	ldx	#$0
    4e25: 86 cf        	stx	$cf                     ; 0x20cf <f256main+0x188b>
    4e27: 4c 68 49     	jmp	$4968 <printf+0x6e6>
    4e2a: 64 94        	stz	$94                     ; 0x2094 <f256main+0x1850>
    4e2c: 64 93        	stz	$93                     ; 0x2093 <f256main+0x184f>
    4e2e: 4c 8c 4b     	jmp	$4b8c <printf+0x90a>
    4e31: 60           	rts

00004e32 <putchar>:
    4e32: 85 88        	sta	$88                     ; 0x2088 <f256main+0x1844>
    4e34: 86 87        	stx	$87                     ; 0x2087 <f256main+0x1843>
    4e36: 20 92 40     	jsr	$4092 <__putchar>
    4e39: a6 87        	ldx	$87                     ; 0x2087 <f256main+0x1843>
    4e3b: a5 88        	lda	$88                     ; 0x2088 <f256main+0x1844>
    4e3d: 60           	rts

00004e3e <malloc>:
    4e3e: a8           	tay
    4e3f: 8a           	txa
    4e40: a2 00        	ldx	#$0
    4e42: 86 12        	stx	$12                     ; 0x2012 <f256main+0x17ce>
    4e44: a2 00        	ldx	#$0
    4e46: 86 13        	stx	$13                     ; 0x2013 <f256main+0x17cf>
    4e48: aa           	tax
    4e49: d0 07        	bne	$4e52 <malloc+0x14>
    4e4b: c0 00        	cpy	#$0
    4e4d: d0 03        	bne	$4e52 <malloc+0x14>
    4e4f: 4c 4a 4f     	jmp	$4f4a <malloc+0x10c>
    4e52: 84 16        	sty	$16                     ; 0x2016 <f256main+0x17d2>
    4e54: aa           	tax
    4e55: d0 0e        	bne	$4e65 <malloc+0x27>
    4e57: a6 16        	ldx	$16                     ; 0x2016 <f256main+0x17d2>
    4e59: e0 07        	cpx	#$7
    4e5b: b0 0c        	bcs	$4e69 <malloc+0x2b>
    4e5d: a2 08        	ldx	#$8
    4e5f: 86 86        	stx	$86                     ; 0x2086 <f256main+0x1842>
    4e61: a9 00        	lda	#$0
    4e63: 80 2f        	bra	$4e94 <malloc+0x56>
    4e65: c9 00        	cmp	#$0
    4e67: 90 f4        	bcc	$4e5d <malloc+0x1f>
    4e69: a8           	tay
    4e6a: a5 16        	lda	$16                     ; 0x2016 <f256main+0x17d2>
    4e6c: 29 01        	and	#$1
    4e6e: a2 02        	ldx	#$2
    4e70: 64 14        	stz	$14                     ; 0x2014 <f256main+0x17d0>
    4e72: c9 00        	cmp	#$0
    4e74: f0 02        	beq	$4e78 <malloc+0x3a>
    4e76: a2 03        	ldx	#$3
    4e78: 86 15        	stx	$15                     ; 0x2015 <f256main+0x17d1>
    4e7a: 18           	clc
    4e7b: a5 16        	lda	$16                     ; 0x2016 <f256main+0x17d2>
    4e7d: 65 15        	adc	$15                     ; 0x2015 <f256main+0x17d1>
    4e7f: aa           	tax
    4e80: 98           	tya
    4e81: 65 14        	adc	$14                     ; 0x2014 <f256main+0x17d0>
    4e83: 90 03        	bcc	$4e88 <malloc+0x4a>
    4e85: 4c 4a 4f     	jmp	$4f4a <malloc+0x10c>
    4e88: 86 86        	stx	$86                     ; 0x2086 <f256main+0x1842>
    4e8a: a8           	tay
    4e8b: d0 07        	bne	$4e94 <malloc+0x56>
    4e8d: e0 00        	cpx	#$0
    4e8f: d0 03        	bne	$4e94 <malloc+0x56>
    4e91: 4c 4a 4f     	jmp	$4f4a <malloc+0x10c>
    4e94: 85 87        	sta	$87                     ; 0x2087 <f256main+0x1843>
    4e96: a5 81        	lda	$81                     ; 0x2081 <f256main+0x183d>
    4e98: 29 01        	and	#$1
    4e9a: d0 29        	bne	$4ec5 <malloc+0x87>
    4e9c: a9 00        	lda	#$0
    4e9e: a2 10        	ldx	#$10
    4ea0: a0 70        	ldy	#$70
    4ea2: 84 12        	sty	$12                     ; 0x2012 <f256main+0x17ce>
    4ea4: a0 7a        	ldy	#$7a
    4ea6: 84 13        	sty	$13                     ; 0x2013 <f256main+0x17cf>
    4ea8: 20 2e 03     	jsr	$32e <_ZN12_GLOBAL__N_19FreeChunk6insertEPvj>
    4eab: a2 00        	ldx	#$0
    4ead: 86 12        	stx	$12                     ; 0x2012 <f256main+0x17ce>
    4eaf: a2 00        	ldx	#$0
    4eb1: 86 13        	stx	$13                     ; 0x2013 <f256main+0x17cf>
    4eb3: ae 71 7a     	ldx	$7a71                   ; 0x7a71 <end_block9+0x1>
    4eb6: a9 fe        	lda	#$fe
    4eb8: 2d 70 7a     	and	$7a70                   ; 0x7a70 <end_block9>
    4ebb: 8d 70 7a     	sta	$7a70                   ; 0x7a70 <end_block9>
    4ebe: 8e 71 7a     	stx	$7a71                   ; 0x7a71 <end_block9+0x1>
    4ec1: a2 01        	ldx	#$1
    4ec3: 86 81        	stx	$81                     ; 0x2081 <f256main+0x183d>
    4ec5: a5 84        	lda	$84                     ; 0x2084 <f256main+0x1840>
    4ec7: a6 85        	ldx	$85                     ; 0x2085 <f256main+0x1841>
    4ec9: a0 00        	ldy	#$0
    4ecb: 84 14        	sty	$14                     ; 0x2014 <f256main+0x17d0>
    4ecd: a0 00        	ldy	#$0
    4ecf: 84 15        	sty	$15                     ; 0x2015 <f256main+0x17d1>
    4ed1: 86 1d        	stx	$1d                     ; 0x201d <f256main+0x17d9>
    4ed3: e4 15        	cpx	$15                     ; 0x2015 <f256main+0x17d1>
    4ed5: d0 07        	bne	$4ede <malloc+0xa0>
    4ed7: c5 14        	cmp	$14                     ; 0x2014 <f256main+0x17d0>
    4ed9: d0 03        	bne	$4ede <malloc+0xa0>
    4edb: 4c 4a 4f     	jmp	$4f4a <malloc+0x10c>
    4ede: a0 00        	ldy	#$0
    4ee0: a2 10        	ldx	#$10
    4ee2: 85 18        	sta	$18                     ; 0x2018 <f256main+0x17d4>
    4ee4: 84 14        	sty	$14                     ; 0x2014 <f256main+0x17d0>
    4ee6: 86 15        	stx	$15                     ; 0x2015 <f256main+0x17d1>
    4ee8: 18           	clc
    4ee9: a9 70        	lda	#$70
    4eeb: 65 14        	adc	$14                     ; 0x2014 <f256main+0x17d0>
    4eed: 85 14        	sta	$14                     ; 0x2014 <f256main+0x17d0>
    4eef: a9 7a        	lda	#$7a
    4ef1: 65 15        	adc	$15                     ; 0x2015 <f256main+0x17d1>
    4ef3: a6 14        	ldx	$14                     ; 0x2014 <f256main+0x17d0>
    4ef5: 86 88        	stx	$88                     ; 0x2088 <f256main+0x1844>
    4ef7: 85 17        	sta	$17                     ; 0x2017 <f256main+0x17d3>
    4ef9: a6 18        	ldx	$18                     ; 0x2018 <f256main+0x17d4>
    4efb: 86 1c        	stx	$1c                     ; 0x201c <f256main+0x17d8>
    4efd: a6 18        	ldx	$18                     ; 0x2018 <f256main+0x17d4>
    4eff: 86 14        	stx	$14                     ; 0x2014 <f256main+0x17d0>
    4f01: a6 1d        	ldx	$1d                     ; 0x201d <f256main+0x17d9>
    4f03: 86 15        	stx	$15                     ; 0x2015 <f256main+0x17d1>
    4f05: a0 01        	ldy	#$1
    4f07: a6 87        	ldx	$87                     ; 0x2087 <f256main+0x1843>
    4f09: 86 18        	stx	$18                     ; 0x2018 <f256main+0x17d4>
    4f0b: b1 14        	lda	($14),y                 ; 0x2014 <f256main+0x17d0>
    4f0d: 85 19        	sta	$19                     ; 0x2019 <f256main+0x17d5>
    4f0f: aa           	tax
    4f10: a9 fe        	lda	#$fe
    4f12: 32 14        	and	($14)                   ; 0x2014 <f256main+0x17d0>
    4f14: 85 1a        	sta	$1a                     ; 0x201a <f256main+0x17d6>
    4f16: e4 18        	cpx	$18                     ; 0x2018 <f256main+0x17d4>
    4f18: d0 0a        	bne	$4f24 <malloc+0xe6>
    4f1a: a6 86        	ldx	$86                     ; 0x2086 <f256main+0x1842>
    4f1c: 86 1b        	stx	$1b                     ; 0x201b <f256main+0x17d7>
    4f1e: c5 1b        	cmp	$1b                     ; 0x201b <f256main+0x17d7>
    4f20: b0 29        	bcs	$4f4b <malloc+0x10d>
    4f22: 80 04        	bra	$4f28 <malloc+0xea>
    4f24: e4 18        	cpx	$18                     ; 0x2018 <f256main+0x17d4>
    4f26: b0 23        	bcs	$4f4b <malloc+0x10d>
    4f28: a5 14        	lda	$14                     ; 0x2014 <f256main+0x17d0>
    4f2a: 18           	clc
    4f2b: 69 02        	adc	#$2
    4f2d: 85 1a        	sta	$1a                     ; 0x201a <f256main+0x17d6>
    4f2f: a5 15        	lda	$15                     ; 0x2015 <f256main+0x17d1>
    4f31: 69 00        	adc	#$0
    4f33: 85 1b        	sta	$1b                     ; 0x201b <f256main+0x17d7>
    4f35: a0 02        	ldy	#$2
    4f37: b1 14        	lda	($14),y                 ; 0x2014 <f256main+0x17d0>
    4f39: 85 14        	sta	$14                     ; 0x2014 <f256main+0x17d0>
    4f3b: 88           	dey
    4f3c: b1 1a        	lda	($1a),y                 ; 0x201a <f256main+0x17d6>
    4f3e: 85 15        	sta	$15                     ; 0x2015 <f256main+0x17d1>
    4f40: c5 1d        	cmp	$1d                     ; 0x201d <f256main+0x17d9>
    4f42: d0 c7        	bne	$4f0b <malloc+0xcd>
    4f44: a5 14        	lda	$14                     ; 0x2014 <f256main+0x17d0>
    4f46: c5 1c        	cmp	$1c                     ; 0x201c <f256main+0x17d8>
    4f48: d0 c1        	bne	$4f0b <malloc+0xcd>
    4f4a: 60           	rts
    4f4b: a5 82        	lda	$82                     ; 0x2082 <f256main+0x183e>
    4f4d: a6 83        	ldx	$83                     ; 0x2083 <f256main+0x183f>
    4f4f: 86 12        	stx	$12                     ; 0x2012 <f256main+0x17ce>
    4f51: 38           	sec
    4f52: e5 1a        	sbc	$1a                     ; 0x201a <f256main+0x17d6>
    4f54: aa           	tax
    4f55: a5 12        	lda	$12                     ; 0x2012 <f256main+0x17ce>
    4f57: e5 19        	sbc	$19                     ; 0x2019 <f256main+0x17d5>
    4f59: 85 12        	sta	$12                     ; 0x2012 <f256main+0x17ce>
    4f5b: 18           	clc
    4f5c: 8a           	txa
    4f5d: 69 02        	adc	#$2
    4f5f: 85 13        	sta	$13                     ; 0x2013 <f256main+0x17cf>
    4f61: a5 12        	lda	$12                     ; 0x2012 <f256main+0x17ce>
    4f63: 69 00        	adc	#$0
    4f65: a6 13        	ldx	$13                     ; 0x2013 <f256main+0x17cf>
    4f67: 86 82        	stx	$82                     ; 0x2082 <f256main+0x183e>
    4f69: 85 83        	sta	$83                     ; 0x2083 <f256main+0x183f>
    4f6b: a0 02        	ldy	#$2
    4f6d: a5 14        	lda	$14                     ; 0x2014 <f256main+0x17d0>
    4f6f: 18           	clc
    4f70: 69 02        	adc	#$2
    4f72: 85 12        	sta	$12                     ; 0x2012 <f256main+0x17ce>
    4f74: a5 15        	lda	$15                     ; 0x2015 <f256main+0x17d1>
    4f76: 69 00        	adc	#$0
    4f78: 85 13        	sta	$13                     ; 0x2013 <f256main+0x17cf>
    4f7a: b1 14        	lda	($14),y                 ; 0x2014 <f256main+0x17d0>
    4f7c: 85 1e        	sta	$1e                     ; 0x201e <f256main+0x17da>
    4f7e: 88           	dey
    4f7f: b1 12        	lda	($12),y                 ; 0x2012 <f256main+0x17ce>
    4f81: 85 1f        	sta	$1f                     ; 0x201f <f256main+0x17db>
    4f83: c5 15        	cmp	$15                     ; 0x2015 <f256main+0x17d1>
    4f85: d0 15        	bne	$4f9c <malloc+0x15e>
    4f87: a5 87        	lda	$87                     ; 0x2087 <f256main+0x1843>
    4f89: a6 1e        	ldx	$1e                     ; 0x201e <f256main+0x17da>
    4f8b: e4 14        	cpx	$14                     ; 0x2014 <f256main+0x17d0>
    4f8d: d0 0d        	bne	$4f9c <malloc+0x15e>
    4f8f: 85 1a        	sta	$1a                     ; 0x201a <f256main+0x17d6>
    4f91: a2 00        	ldx	#$0
    4f93: 86 18        	stx	$18                     ; 0x2018 <f256main+0x17d4>
    4f95: a2 00        	ldx	#$0
    4f97: 86 19        	stx	$19                     ; 0x2019 <f256main+0x17d5>
    4f99: 4c 16 50     	jmp	$5016 <malloc+0x1d8>
    4f9c: 18           	clc
    4f9d: a5 14        	lda	$14                     ; 0x2014 <f256main+0x17d0>
    4f9f: 69 04        	adc	#$4
    4fa1: 85 18        	sta	$18                     ; 0x2018 <f256main+0x17d4>
    4fa3: a5 15        	lda	$15                     ; 0x2015 <f256main+0x17d1>
    4fa5: 69 00        	adc	#$0
    4fa7: 85 19        	sta	$19                     ; 0x2019 <f256main+0x17d5>
    4fa9: a0 04        	ldy	#$4
    4fab: b1 14        	lda	($14),y                 ; 0x2014 <f256main+0x17d0>
    4fad: 85 23        	sta	$23                     ; 0x2023 <f256main+0x17df>
    4faf: 18           	clc
    4fb0: 69 02        	adc	#$2
    4fb2: 85 1a        	sta	$1a                     ; 0x201a <f256main+0x17d6>
    4fb4: a0 01        	ldy	#$1
    4fb6: b1 18        	lda	($18),y                 ; 0x2018 <f256main+0x17d4>
    4fb8: 85 22        	sta	$22                     ; 0x2022 <f256main+0x17de>
    4fba: 69 00        	adc	#$0
    4fbc: a6 1a        	ldx	$1a                     ; 0x201a <f256main+0x17d6>
    4fbe: 86 18        	stx	$18                     ; 0x2018 <f256main+0x17d4>
    4fc0: 85 19        	sta	$19                     ; 0x2019 <f256main+0x17d5>
    4fc2: a6 23        	ldx	$23                     ; 0x2023 <f256main+0x17df>
    4fc4: 86 1a        	stx	$1a                     ; 0x201a <f256main+0x17d6>
    4fc6: a6 22        	ldx	$22                     ; 0x2022 <f256main+0x17de>
    4fc8: 86 1b        	stx	$1b                     ; 0x201b <f256main+0x17d7>
    4fca: c8           	iny
    4fcb: a5 1e        	lda	$1e                     ; 0x201e <f256main+0x17da>
    4fcd: 91 1a        	sta	($1a),y                 ; 0x201a <f256main+0x17d6>
    4fcf: a5 1f        	lda	$1f                     ; 0x201f <f256main+0x17db>
    4fd1: 88           	dey
    4fd2: 91 18        	sta	($18),y                 ; 0x2018 <f256main+0x17d4>
    4fd4: 18           	clc
    4fd5: a5 14        	lda	$14                     ; 0x2014 <f256main+0x17d0>
    4fd7: 69 02        	adc	#$2
    4fd9: 85 1a        	sta	$1a                     ; 0x201a <f256main+0x17d6>
    4fdb: a5 15        	lda	$15                     ; 0x2015 <f256main+0x17d1>
    4fdd: 69 00        	adc	#$0
    4fdf: 85 1b        	sta	$1b                     ; 0x201b <f256main+0x17d7>
    4fe1: c8           	iny
    4fe2: b1 14        	lda	($14),y                 ; 0x2014 <f256main+0x17d0>
    4fe4: 85 18        	sta	$18                     ; 0x2018 <f256main+0x17d4>
    4fe6: aa           	tax
    4fe7: 88           	dey
    4fe8: b1 1a        	lda	($1a),y                 ; 0x201a <f256main+0x17d6>
    4fea: 85 19        	sta	$19                     ; 0x2019 <f256main+0x17d5>
    4fec: 85 16        	sta	$16                     ; 0x2016 <f256main+0x17d2>
    4fee: a0 04        	ldy	#$4
    4ff0: a5 23        	lda	$23                     ; 0x2023 <f256main+0x17df>
    4ff2: 91 18        	sta	($18),y                 ; 0x2018 <f256main+0x17d4>
    4ff4: 18           	clc
    4ff5: 8a           	txa
    4ff6: 69 04        	adc	#$4
    4ff8: 85 1a        	sta	$1a                     ; 0x201a <f256main+0x17d6>
    4ffa: a5 16        	lda	$16                     ; 0x2016 <f256main+0x17d2>
    4ffc: 69 00        	adc	#$0
    4ffe: 85 1b        	sta	$1b                     ; 0x201b <f256main+0x17d7>
    5000: a5 22        	lda	$22                     ; 0x2022 <f256main+0x17de>
    5002: a0 01        	ldy	#$1
    5004: 91 1a        	sta	($1a),y                 ; 0x201a <f256main+0x17d6>
    5006: a5 87        	lda	$87                     ; 0x2087 <f256main+0x1843>
    5008: 85 1a        	sta	$1a                     ; 0x201a <f256main+0x17d6>
    500a: a6 1d        	ldx	$1d                     ; 0x201d <f256main+0x17d9>
    500c: e4 15        	cpx	$15                     ; 0x2015 <f256main+0x17d1>
    500e: d0 0e        	bne	$501e <malloc+0x1e0>
    5010: a6 1c        	ldx	$1c                     ; 0x201c <f256main+0x17d8>
    5012: e4 14        	cpx	$14                     ; 0x2014 <f256main+0x17d0>
    5014: d0 08        	bne	$501e <malloc+0x1e0>
    5016: a6 18        	ldx	$18                     ; 0x2018 <f256main+0x17d4>
    5018: a4 19        	ldy	$19                     ; 0x2019 <f256main+0x17d5>
    501a: 86 84        	stx	$84                     ; 0x2084 <f256main+0x1840>
    501c: 84 85        	sty	$85                     ; 0x2085 <f256main+0x1841>
    501e: a0 01        	ldy	#$1
    5020: b1 14        	lda	($14),y                 ; 0x2014 <f256main+0x17d0>
    5022: 85 16        	sta	$16                     ; 0x2016 <f256main+0x17d2>
    5024: a9 fe        	lda	#$fe
    5026: 32 14        	and	($14)                   ; 0x2014 <f256main+0x17d0>
    5028: 38           	sec
    5029: a6 86        	ldx	$86                     ; 0x2086 <f256main+0x1842>
    502b: 86 18        	stx	$18                     ; 0x2018 <f256main+0x17d4>
    502d: a8           	tay
    502e: e5 18        	sbc	$18                     ; 0x2018 <f256main+0x17d4>
    5030: 85 19        	sta	$19                     ; 0x2019 <f256main+0x17d5>
    5032: a5 16        	lda	$16                     ; 0x2016 <f256main+0x17d2>
    5034: a6 16        	ldx	$16                     ; 0x2016 <f256main+0x17d2>
    5036: e5 1a        	sbc	$1a                     ; 0x201a <f256main+0x17d6>
    5038: f0 03        	beq	$503d <malloc+0x1ff>
    503a: 4c c9 50     	jmp	$50c9 <malloc+0x28b>
    503d: 85 16        	sta	$16                     ; 0x2016 <f256main+0x17d2>
    503f: a5 19        	lda	$19                     ; 0x2019 <f256main+0x17d5>
    5041: c9 08        	cmp	#$8
    5043: 86 18        	stx	$18                     ; 0x2018 <f256main+0x17d4>
    5045: b0 03        	bcs	$504a <malloc+0x20c>
    5047: 4c ac 50     	jmp	$50ac <malloc+0x26e>
    504a: a6 17        	ldx	$17                     ; 0x2017 <f256main+0x17d3>
    504c: 86 8d        	stx	$8d                     ; 0x208d <f256main+0x1849>
    504e: a6 88        	ldx	$88                     ; 0x2088 <f256main+0x1844>
    5050: 86 88        	stx	$88                     ; 0x2088 <f256main+0x1844>
    5052: a6 12        	ldx	$12                     ; 0x2012 <f256main+0x17ce>
    5054: 86 89        	stx	$89                     ; 0x2089 <f256main+0x1845>
    5056: a6 13        	ldx	$13                     ; 0x2013 <f256main+0x17cf>
    5058: 86 8a        	stx	$8a                     ; 0x208a <f256main+0x1846>
    505a: a8           	tay
    505b: 18           	clc
    505c: a6 86        	ldx	$86                     ; 0x2086 <f256main+0x1842>
    505e: 86 86        	stx	$86                     ; 0x2086 <f256main+0x1842>
    5060: 8a           	txa
    5061: 65 14        	adc	$14                     ; 0x2014 <f256main+0x17d0>
    5063: 85 12        	sta	$12                     ; 0x2012 <f256main+0x17ce>
    5065: a5 1a        	lda	$1a                     ; 0x201a <f256main+0x17d6>
    5067: a6 1a        	ldx	$1a                     ; 0x201a <f256main+0x17d6>
    5069: 86 87        	stx	$87                     ; 0x2087 <f256main+0x1843>
    506b: 65 15        	adc	$15                     ; 0x2015 <f256main+0x17d1>
    506d: 85 13        	sta	$13                     ; 0x2013 <f256main+0x17cf>
    506f: a6 16        	ldx	$16                     ; 0x2016 <f256main+0x17d2>
    5071: 98           	tya
    5072: a4 14        	ldy	$14                     ; 0x2014 <f256main+0x17d0>
    5074: 84 8b        	sty	$8b                     ; 0x208b <f256main+0x1847>
    5076: a4 15        	ldy	$15                     ; 0x2015 <f256main+0x17d1>
    5078: 84 8c        	sty	$8c                     ; 0x208c <f256main+0x1848>
    507a: 20 2e 03     	jsr	$32e <_ZN12_GLOBAL__N_19FreeChunk6insertEPvj>
    507d: a6 8b        	ldx	$8b                     ; 0x208b <f256main+0x1847>
    507f: 86 14        	stx	$14                     ; 0x2014 <f256main+0x17d0>
    5081: a6 8c        	ldx	$8c                     ; 0x208c <f256main+0x1848>
    5083: 86 15        	stx	$15                     ; 0x2015 <f256main+0x17d1>
    5085: a5 86        	lda	$86                     ; 0x2086 <f256main+0x1842>
    5087: 29 fe        	and	#$fe
    5089: 85 12        	sta	$12                     ; 0x2012 <f256main+0x17ce>
    508b: a0 01        	ldy	#$1
    508d: 98           	tya
    508e: 32 14        	and	($14)                   ; 0x2014 <f256main+0x17d0>
    5090: 05 12        	ora	$12                     ; 0x2012 <f256main+0x17ce>
    5092: 92 14        	sta	($14)                   ; 0x2014 <f256main+0x17d0>
    5094: a5 87        	lda	$87                     ; 0x2087 <f256main+0x1843>
    5096: 91 14        	sta	($14),y                 ; 0x2014 <f256main+0x17d0>
    5098: a4 12        	ldy	$12                     ; 0x2012 <f256main+0x17ce>
    509a: 85 18        	sta	$18                     ; 0x2018 <f256main+0x17d4>
    509c: a6 89        	ldx	$89                     ; 0x2089 <f256main+0x1845>
    509e: 86 12        	stx	$12                     ; 0x2012 <f256main+0x17ce>
    50a0: a6 8a        	ldx	$8a                     ; 0x208a <f256main+0x1846>
    50a2: 86 13        	stx	$13                     ; 0x2013 <f256main+0x17cf>
    50a4: a6 88        	ldx	$88                     ; 0x2088 <f256main+0x1844>
    50a6: 86 88        	stx	$88                     ; 0x2088 <f256main+0x1844>
    50a8: a6 8d        	ldx	$8d                     ; 0x208d <f256main+0x1849>
    50aa: 86 17        	stx	$17                     ; 0x2017 <f256main+0x17d3>
    50ac: 18           	clc
    50ad: 98           	tya
    50ae: 65 14        	adc	$14                     ; 0x2014 <f256main+0x17d0>
    50b0: 85 16        	sta	$16                     ; 0x2016 <f256main+0x17d2>
    50b2: a5 15        	lda	$15                     ; 0x2015 <f256main+0x17d1>
    50b4: 65 18        	adc	$18                     ; 0x2018 <f256main+0x17d4>
    50b6: 85 15        	sta	$15                     ; 0x2015 <f256main+0x17d1>
    50b8: c5 17        	cmp	$17                     ; 0x2017 <f256main+0x17d3>
    50ba: d0 1a        	bne	$50d6 <malloc+0x298>
    50bc: a6 88        	ldx	$88                     ; 0x2088 <f256main+0x1844>
    50be: 86 14        	stx	$14                     ; 0x2014 <f256main+0x17d0>
    50c0: a6 16        	ldx	$16                     ; 0x2016 <f256main+0x17d2>
    50c2: e4 14        	cpx	$14                     ; 0x2014 <f256main+0x17d0>
    50c4: d0 12        	bne	$50d8 <malloc+0x29a>
    50c6: 4c 4a 4f     	jmp	$4f4a <malloc+0x10c>
    50c9: 85 16        	sta	$16                     ; 0x2016 <f256main+0x17d2>
    50cb: c9 00        	cmp	#$0
    50cd: 86 18        	stx	$18                     ; 0x2018 <f256main+0x17d4>
    50cf: a5 19        	lda	$19                     ; 0x2019 <f256main+0x17d5>
    50d1: 90 d9        	bcc	$50ac <malloc+0x26e>
    50d3: 4c 4a 50     	jmp	$504a <malloc+0x20c>
    50d6: a6 16        	ldx	$16                     ; 0x2016 <f256main+0x17d2>
    50d8: 86 14        	stx	$14                     ; 0x2014 <f256main+0x17d0>
    50da: a0 01        	ldy	#$1
    50dc: b1 14        	lda	($14),y                 ; 0x2014 <f256main+0x17d0>
    50de: 85 16        	sta	$16                     ; 0x2016 <f256main+0x17d2>
    50e0: a9 fe        	lda	#$fe
    50e2: 32 14        	and	($14)                   ; 0x2014 <f256main+0x17d0>
    50e4: 92 14        	sta	($14)                   ; 0x2014 <f256main+0x17d0>
    50e6: a5 16        	lda	$16                     ; 0x2016 <f256main+0x17d2>
    50e8: 91 14        	sta	($14),y                 ; 0x2014 <f256main+0x17d0>
    50ea: 60           	rts

000050eb <memcpy>:
    50eb: a8           	tay
    50ec: 8a           	txa
    50ed: d0 03        	bne	$50f2 <memcpy+0x7>
    50ef: 98           	tya
    50f0: f0 24        	beq	$5116 <memcpy+0x2b>
    50f2: a5 12        	lda	$12                     ; 0x2012 <f256main+0x17ce>
    50f4: 85 16        	sta	$16                     ; 0x2016 <f256main+0x17d2>
    50f6: a5 13        	lda	$13                     ; 0x2013 <f256main+0x17cf>
    50f8: 85 17        	sta	$17                     ; 0x2017 <f256main+0x17d3>
    50fa: b2 14        	lda	($14)                   ; 0x2014 <f256main+0x17d0>
    50fc: 92 16        	sta	($16)                   ; 0x2016 <f256main+0x17d2>
    50fe: e6 16        	inc	$16                     ; 0x2016 <f256main+0x17d2>
    5100: d0 02        	bne	$5104 <memcpy+0x19>
    5102: e6 17        	inc	$17                     ; 0x2017 <f256main+0x17d3>
    5104: e6 14        	inc	$14                     ; 0x2014 <f256main+0x17d0>
    5106: d0 02        	bne	$510a <memcpy+0x1f>
    5108: e6 15        	inc	$15                     ; 0x2015 <f256main+0x17d1>
    510a: 88           	dey
    510b: c0 ff        	cpy	#$ff
    510d: d0 01        	bne	$5110 <memcpy+0x25>
    510f: ca           	dex
    5110: 8a           	txa
    5111: d0 e7        	bne	$50fa <memcpy+0xf>
    5113: 98           	tya
    5114: d0 e4        	bne	$50fa <memcpy+0xf>
    5116: 60           	rts

00005117 <__memset>:
    5117: a4 14        	ldy	$14                     ; 0x2014 <f256main+0x17d0>
    5119: d0 04        	bne	$511f <__memset+0x8>
    511b: e0 00        	cpx	#$0
    511d: f0 17        	beq	$5136 <__memset+0x1f>
    511f: 92 12        	sta	($12)                   ; 0x2012 <f256main+0x17ce>
    5121: e6 12        	inc	$12                     ; 0x2012 <f256main+0x17ce>
    5123: d0 02        	bne	$5127 <__memset+0x10>
    5125: e6 13        	inc	$13                     ; 0x2013 <f256main+0x17cf>
    5127: ca           	dex
    5128: e0 ff        	cpx	#$ff
    512a: d0 02        	bne	$512e <__memset+0x17>
    512c: c6 14        	dec	$14                     ; 0x2014 <f256main+0x17d0>
    512e: a4 14        	ldy	$14                     ; 0x2014 <f256main+0x17d0>
    5130: d0 ed        	bne	$511f <__memset+0x8>
    5132: e0 00        	cpx	#$0
    5134: d0 e9        	bne	$511f <__memset+0x8>
    5136: 60           	rts

00005137 <__ashlsi3>:
    5137: 86 15        	stx	$15                     ; 0x2015 <f256main+0x17d1>
    5139: a6 14        	ldx	$14                     ; 0x2014 <f256main+0x17d0>
    513b: f0 0e        	beq	$514b <__ashlsi3+0x14>
    513d: a6 14        	ldx	$14                     ; 0x2014 <f256main+0x17d0>
    513f: ca           	dex
    5140: 0a           	asl
    5141: 26 15        	rol	$15                     ; 0x2015 <f256main+0x17d1>
    5143: 26 12        	rol	$12                     ; 0x2012 <f256main+0x17ce>
    5145: 26 13        	rol	$13                     ; 0x2013 <f256main+0x17cf>
    5147: e0 00        	cpx	#$0
    5149: d0 f4        	bne	$513f <__ashlsi3+0x8>
    514b: a6 15        	ldx	$15                     ; 0x2015 <f256main+0x17d1>
    514d: 60           	rts

0000514e <__lshrsi3>:
    514e: 86 15        	stx	$15                     ; 0x2015 <f256main+0x17d1>
    5150: a6 14        	ldx	$14                     ; 0x2014 <f256main+0x17d0>
    5152: f0 0e        	beq	$5162 <__lshrsi3+0x14>
    5154: a6 14        	ldx	$14                     ; 0x2014 <f256main+0x17d0>
    5156: ca           	dex
    5157: 46 13        	lsr	$13                     ; 0x2013 <f256main+0x17cf>
    5159: 66 12        	ror	$12                     ; 0x2012 <f256main+0x17ce>
    515b: 66 15        	ror	$15                     ; 0x2015 <f256main+0x17d1>
    515d: 6a           	ror
    515e: e0 00        	cpx	#$0
    5160: d0 f4        	bne	$5156 <__lshrsi3+0x8>
    5162: a6 15        	ldx	$15                     ; 0x2015 <f256main+0x17d1>
    5164: 60           	rts

00005165 <__mulqi3>:
    5165: e0 00        	cpx	#$0
    5167: f0 14        	beq	$517d <__mulqi3+0x18>
    5169: 85 12        	sta	$12                     ; 0x2012 <f256main+0x17ce>
    516b: 86 13        	stx	$13                     ; 0x2013 <f256main+0x17cf>
    516d: a9 00        	lda	#$0
    516f: 46 13        	lsr	$13                     ; 0x2013 <f256main+0x17cf>
    5171: 90 03        	bcc	$5176 <__mulqi3+0x11>
    5173: 18           	clc
    5174: 65 12        	adc	$12                     ; 0x2012 <f256main+0x17ce>
    5176: 06 12        	asl	$12                     ; 0x2012 <f256main+0x17ce>
    5178: a6 13        	ldx	$13                     ; 0x2013 <f256main+0x17cf>
    517a: d0 f3        	bne	$516f <__mulqi3+0xa>
    517c: 60           	rts
    517d: a9 00        	lda	#$0
    517f: 60           	rts

00005180 <__mulhi3>:
    5180: a4 13        	ldy	$13                     ; 0x2013 <f256main+0x17cf>
    5182: d0 04        	bne	$5188 <__mulhi3+0x8>
    5184: a4 12        	ldy	$12                     ; 0x2012 <f256main+0x17ce>
    5186: f0 25        	beq	$51ad <__mulhi3+0x2d>
    5188: 85 14        	sta	$14                     ; 0x2014 <f256main+0x17d0>
    518a: 86 15        	stx	$15                     ; 0x2015 <f256main+0x17d1>
    518c: a0 00        	ldy	#$0
    518e: 98           	tya
    518f: 46 13        	lsr	$13                     ; 0x2013 <f256main+0x17cf>
    5191: 66 12        	ror	$12                     ; 0x2012 <f256main+0x17ce>
    5193: 90 09        	bcc	$519e <__mulhi3+0x1e>
    5195: aa           	tax
    5196: 98           	tya
    5197: 18           	clc
    5198: 65 14        	adc	$14                     ; 0x2014 <f256main+0x17d0>
    519a: a8           	tay
    519b: 8a           	txa
    519c: 65 15        	adc	$15                     ; 0x2015 <f256main+0x17d1>
    519e: 06 14        	asl	$14                     ; 0x2014 <f256main+0x17d0>
    51a0: 26 15        	rol	$15                     ; 0x2015 <f256main+0x17d1>
    51a2: a6 13        	ldx	$13                     ; 0x2013 <f256main+0x17cf>
    51a4: d0 e9        	bne	$518f <__mulhi3+0xf>
    51a6: a6 12        	ldx	$12                     ; 0x2012 <f256main+0x17ce>
    51a8: d0 e5        	bne	$518f <__mulhi3+0xf>
    51aa: aa           	tax
    51ab: 98           	tya
    51ac: 60           	rts
    51ad: a0 00        	ldy	#$0
    51af: 98           	tya
    51b0: 80 f8        	bra	$51aa <__mulhi3+0x2a>

000051b2 <__mulsi3>:
    51b2: a4 17        	ldy	$17                     ; 0x2017 <f256main+0x17d3>
    51b4: d0 0f        	bne	$51c5 <__mulsi3+0x13>
    51b6: a4 16        	ldy	$16                     ; 0x2016 <f256main+0x17d2>
    51b8: d0 0b        	bne	$51c5 <__mulsi3+0x13>
    51ba: a4 15        	ldy	$15                     ; 0x2015 <f256main+0x17d1>
    51bc: d0 07        	bne	$51c5 <__mulsi3+0x13>
    51be: a4 14        	ldy	$14                     ; 0x2014 <f256main+0x17d0>
    51c0: d0 03        	bne	$51c5 <__mulsi3+0x13>
    51c2: 4c 19 52     	jmp	$5219 <__mulsi3+0x67>
    51c5: 85 18        	sta	$18                     ; 0x2018 <f256main+0x17d4>
    51c7: 86 19        	stx	$19                     ; 0x2019 <f256main+0x17d5>
    51c9: a0 00        	ldy	#$0
    51cb: a2 00        	ldx	#$0
    51cd: 64 1a        	stz	$1a                     ; 0x201a <f256main+0x17d6>
    51cf: 98           	tya
    51d0: 46 17        	lsr	$17                     ; 0x2017 <f256main+0x17d3>
    51d2: 66 16        	ror	$16                     ; 0x2016 <f256main+0x17d2>
    51d4: 66 15        	ror	$15                     ; 0x2015 <f256main+0x17d1>
    51d6: 66 14        	ror	$14                     ; 0x2014 <f256main+0x17d0>
    51d8: 90 15        	bcc	$51ef <__mulsi3+0x3d>
    51da: 85 1b        	sta	$1b                     ; 0x201b <f256main+0x17d7>
    51dc: 98           	tya
    51dd: 18           	clc
    51de: 65 18        	adc	$18                     ; 0x2018 <f256main+0x17d4>
    51e0: a8           	tay
    51e1: 8a           	txa
    51e2: 65 19        	adc	$19                     ; 0x2019 <f256main+0x17d5>
    51e4: aa           	tax
    51e5: a5 1a        	lda	$1a                     ; 0x201a <f256main+0x17d6>
    51e7: 65 12        	adc	$12                     ; 0x2012 <f256main+0x17ce>
    51e9: 85 1a        	sta	$1a                     ; 0x201a <f256main+0x17d6>
    51eb: a5 1b        	lda	$1b                     ; 0x201b <f256main+0x17d7>
    51ed: 65 13        	adc	$13                     ; 0x2013 <f256main+0x17cf>
    51ef: 06 18        	asl	$18                     ; 0x2018 <f256main+0x17d4>
    51f1: 26 19        	rol	$19                     ; 0x2019 <f256main+0x17d5>
    51f3: 26 12        	rol	$12                     ; 0x2012 <f256main+0x17ce>
    51f5: 26 13        	rol	$13                     ; 0x2013 <f256main+0x17cf>
    51f7: e6 17        	inc	$17                     ; 0x2017 <f256main+0x17d3>
    51f9: c6 17        	dec	$17                     ; 0x2017 <f256main+0x17d3>
    51fb: d0 d3        	bne	$51d0 <__mulsi3+0x1e>
    51fd: e6 16        	inc	$16                     ; 0x2016 <f256main+0x17d2>
    51ff: c6 16        	dec	$16                     ; 0x2016 <f256main+0x17d2>
    5201: d0 cd        	bne	$51d0 <__mulsi3+0x1e>
    5203: e6 15        	inc	$15                     ; 0x2015 <f256main+0x17d1>
    5205: c6 15        	dec	$15                     ; 0x2015 <f256main+0x17d1>
    5207: d0 c7        	bne	$51d0 <__mulsi3+0x1e>
    5209: e6 14        	inc	$14                     ; 0x2014 <f256main+0x17d0>
    520b: c6 14        	dec	$14                     ; 0x2014 <f256main+0x17d0>
    520d: d0 c1        	bne	$51d0 <__mulsi3+0x1e>
    520f: 5a           	phy
    5210: a4 1a        	ldy	$1a                     ; 0x201a <f256main+0x17d6>
    5212: 84 12        	sty	$12                     ; 0x2012 <f256main+0x17ce>
    5214: 7a           	ply
    5215: 85 13        	sta	$13                     ; 0x2013 <f256main+0x17cf>
    5217: 98           	tya
    5218: 60           	rts
    5219: a0 00        	ldy	#$0
    521b: a2 00        	ldx	#$0
    521d: 64 1a        	stz	$1a                     ; 0x201a <f256main+0x17d6>
    521f: 98           	tya
    5220: 80 ed        	bra	$520f <__mulsi3+0x5d>

00005222 <__muldi3>:
    5222: a4 1f        	ldy	$1f                     ; 0x201f <f256main+0x17db>
    5224: d0 1f        	bne	$5245 <__muldi3+0x23>
    5226: a4 1e        	ldy	$1e                     ; 0x201e <f256main+0x17da>
    5228: d0 1b        	bne	$5245 <__muldi3+0x23>
    522a: a4 1d        	ldy	$1d                     ; 0x201d <f256main+0x17d9>
    522c: d0 17        	bne	$5245 <__muldi3+0x23>
    522e: a4 1c        	ldy	$1c                     ; 0x201c <f256main+0x17d8>
    5230: d0 13        	bne	$5245 <__muldi3+0x23>
    5232: a4 1b        	ldy	$1b                     ; 0x201b <f256main+0x17d7>
    5234: d0 0f        	bne	$5245 <__muldi3+0x23>
    5236: a4 1a        	ldy	$1a                     ; 0x201a <f256main+0x17d6>
    5238: d0 0b        	bne	$5245 <__muldi3+0x23>
    523a: a4 19        	ldy	$19                     ; 0x2019 <f256main+0x17d5>
    523c: d0 07        	bne	$5245 <__muldi3+0x23>
    523e: a4 18        	ldy	$18                     ; 0x2018 <f256main+0x17d4>
    5240: d0 03        	bne	$5245 <__muldi3+0x23>
    5242: 4c 09 53     	jmp	$5309 <__muldi3+0xe7>
    5245: 85 22        	sta	$22                     ; 0x2022 <f256main+0x17de>
    5247: 86 23        	stx	$23                     ; 0x2023 <f256main+0x17df>
    5249: a0 00        	ldy	#$0
    524b: a2 00        	ldx	#$0
    524d: 64 a6        	stz	$a6                     ; 0x20a6 <f256main+0x1862>
    524f: 64 a7        	stz	$a7                     ; 0x20a7 <f256main+0x1863>
    5251: 64 a8        	stz	$a8                     ; 0x20a8 <f256main+0x1864>
    5253: 64 a9        	stz	$a9                     ; 0x20a9 <f256main+0x1865>
    5255: 64 aa        	stz	$aa                     ; 0x20aa <f256main+0x1866>
    5257: 98           	tya
    5258: 46 1f        	lsr	$1f                     ; 0x201f <f256main+0x17db>
    525a: 66 1e        	ror	$1e                     ; 0x201e <f256main+0x17da>
    525c: 66 1d        	ror	$1d                     ; 0x201d <f256main+0x17d9>
    525e: 66 1c        	ror	$1c                     ; 0x201c <f256main+0x17d8>
    5260: 66 1b        	ror	$1b                     ; 0x201b <f256main+0x17d7>
    5262: 66 1a        	ror	$1a                     ; 0x201a <f256main+0x17d6>
    5264: 66 19        	ror	$19                     ; 0x2019 <f256main+0x17d5>
    5266: 66 18        	ror	$18                     ; 0x2018 <f256main+0x17d4>
    5268: 90 2d        	bcc	$5297 <__muldi3+0x75>
    526a: 85 ab        	sta	$ab                     ; 0x20ab <f256main+0x1867>
    526c: 98           	tya
    526d: 18           	clc
    526e: 65 22        	adc	$22                     ; 0x2022 <f256main+0x17de>
    5270: a8           	tay
    5271: 8a           	txa
    5272: 65 23        	adc	$23                     ; 0x2023 <f256main+0x17df>
    5274: aa           	tax
    5275: a5 a6        	lda	$a6                     ; 0x20a6 <f256main+0x1862>
    5277: 65 12        	adc	$12                     ; 0x2012 <f256main+0x17ce>
    5279: 85 a6        	sta	$a6                     ; 0x20a6 <f256main+0x1862>
    527b: a5 a7        	lda	$a7                     ; 0x20a7 <f256main+0x1863>
    527d: 65 13        	adc	$13                     ; 0x2013 <f256main+0x17cf>
    527f: 85 a7        	sta	$a7                     ; 0x20a7 <f256main+0x1863>
    5281: a5 a8        	lda	$a8                     ; 0x20a8 <f256main+0x1864>
    5283: 65 14        	adc	$14                     ; 0x2014 <f256main+0x17d0>
    5285: 85 a8        	sta	$a8                     ; 0x20a8 <f256main+0x1864>
    5287: a5 a9        	lda	$a9                     ; 0x20a9 <f256main+0x1865>
    5289: 65 15        	adc	$15                     ; 0x2015 <f256main+0x17d1>
    528b: 85 a9        	sta	$a9                     ; 0x20a9 <f256main+0x1865>
    528d: a5 aa        	lda	$aa                     ; 0x20aa <f256main+0x1866>
    528f: 65 16        	adc	$16                     ; 0x2016 <f256main+0x17d2>
    5291: 85 aa        	sta	$aa                     ; 0x20aa <f256main+0x1866>
    5293: a5 ab        	lda	$ab                     ; 0x20ab <f256main+0x1867>
    5295: 65 17        	adc	$17                     ; 0x2017 <f256main+0x17d3>
    5297: 06 22        	asl	$22                     ; 0x2022 <f256main+0x17de>
    5299: 26 23        	rol	$23                     ; 0x2023 <f256main+0x17df>
    529b: 26 12        	rol	$12                     ; 0x2012 <f256main+0x17ce>
    529d: 26 13        	rol	$13                     ; 0x2013 <f256main+0x17cf>
    529f: 26 14        	rol	$14                     ; 0x2014 <f256main+0x17d0>
    52a1: 26 15        	rol	$15                     ; 0x2015 <f256main+0x17d1>
    52a3: 26 16        	rol	$16                     ; 0x2016 <f256main+0x17d2>
    52a5: 26 17        	rol	$17                     ; 0x2017 <f256main+0x17d3>
    52a7: e6 1f        	inc	$1f                     ; 0x201f <f256main+0x17db>
    52a9: c6 1f        	dec	$1f                     ; 0x201f <f256main+0x17db>
    52ab: f0 03        	beq	$52b0 <__muldi3+0x8e>
    52ad: 4c 58 52     	jmp	$5258 <__muldi3+0x36>
    52b0: e6 1e        	inc	$1e                     ; 0x201e <f256main+0x17da>
    52b2: c6 1e        	dec	$1e                     ; 0x201e <f256main+0x17da>
    52b4: f0 03        	beq	$52b9 <__muldi3+0x97>
    52b6: 4c 58 52     	jmp	$5258 <__muldi3+0x36>
    52b9: e6 1d        	inc	$1d                     ; 0x201d <f256main+0x17d9>
    52bb: c6 1d        	dec	$1d                     ; 0x201d <f256main+0x17d9>
    52bd: f0 03        	beq	$52c2 <__muldi3+0xa0>
    52bf: 4c 58 52     	jmp	$5258 <__muldi3+0x36>
    52c2: e6 1c        	inc	$1c                     ; 0x201c <f256main+0x17d8>
    52c4: c6 1c        	dec	$1c                     ; 0x201c <f256main+0x17d8>
    52c6: f0 03        	beq	$52cb <__muldi3+0xa9>
    52c8: 4c 58 52     	jmp	$5258 <__muldi3+0x36>
    52cb: e6 1b        	inc	$1b                     ; 0x201b <f256main+0x17d7>
    52cd: c6 1b        	dec	$1b                     ; 0x201b <f256main+0x17d7>
    52cf: f0 03        	beq	$52d4 <__muldi3+0xb2>
    52d1: 4c 58 52     	jmp	$5258 <__muldi3+0x36>
    52d4: e6 1a        	inc	$1a                     ; 0x201a <f256main+0x17d6>
    52d6: c6 1a        	dec	$1a                     ; 0x201a <f256main+0x17d6>
    52d8: f0 03        	beq	$52dd <__muldi3+0xbb>
    52da: 4c 58 52     	jmp	$5258 <__muldi3+0x36>
    52dd: e6 19        	inc	$19                     ; 0x2019 <f256main+0x17d5>
    52df: c6 19        	dec	$19                     ; 0x2019 <f256main+0x17d5>
    52e1: f0 03        	beq	$52e6 <__muldi3+0xc4>
    52e3: 4c 58 52     	jmp	$5258 <__muldi3+0x36>
    52e6: e6 18        	inc	$18                     ; 0x2018 <f256main+0x17d4>
    52e8: c6 18        	dec	$18                     ; 0x2018 <f256main+0x17d4>
    52ea: f0 03        	beq	$52ef <__muldi3+0xcd>
    52ec: 4c 58 52     	jmp	$5258 <__muldi3+0x36>
    52ef: 5a           	phy
    52f0: a4 a6        	ldy	$a6                     ; 0x20a6 <f256main+0x1862>
    52f2: 84 12        	sty	$12                     ; 0x2012 <f256main+0x17ce>
    52f4: a4 a7        	ldy	$a7                     ; 0x20a7 <f256main+0x1863>
    52f6: 84 13        	sty	$13                     ; 0x2013 <f256main+0x17cf>
    52f8: a4 a8        	ldy	$a8                     ; 0x20a8 <f256main+0x1864>
    52fa: 84 14        	sty	$14                     ; 0x2014 <f256main+0x17d0>
    52fc: a4 a9        	ldy	$a9                     ; 0x20a9 <f256main+0x1865>
    52fe: 84 15        	sty	$15                     ; 0x2015 <f256main+0x17d1>
    5300: a4 aa        	ldy	$aa                     ; 0x20aa <f256main+0x1866>
    5302: 84 16        	sty	$16                     ; 0x2016 <f256main+0x17d2>
    5304: 7a           	ply
    5305: 85 17        	sta	$17                     ; 0x2017 <f256main+0x17d3>
    5307: 98           	tya
    5308: 60           	rts
    5309: a0 00        	ldy	#$0
    530b: a2 00        	ldx	#$0
    530d: 64 a6        	stz	$a6                     ; 0x20a6 <f256main+0x1862>
    530f: 64 a7        	stz	$a7                     ; 0x20a7 <f256main+0x1863>
    5311: 64 a8        	stz	$a8                     ; 0x20a8 <f256main+0x1864>
    5313: 64 a9        	stz	$a9                     ; 0x20a9 <f256main+0x1865>
    5315: 64 aa        	stz	$aa                     ; 0x20aa <f256main+0x1866>
    5317: 98           	tya
    5318: 80 d5        	bra	$52ef <__muldi3+0xcd>

0000531a <__umodsi3>:
    531a: 85 1c        	sta	$1c                     ; 0x201c <f256main+0x17d8>
    531c: 86 1a        	stx	$1a                     ; 0x201a <f256main+0x17d6>
    531e: a5 13        	lda	$13                     ; 0x2013 <f256main+0x17cf>
    5320: a6 17        	ldx	$17                     ; 0x2017 <f256main+0x17d3>
    5322: d0 0f        	bne	$5333 <__umodsi3+0x19>
    5324: a6 16        	ldx	$16                     ; 0x2016 <f256main+0x17d2>
    5326: d0 0b        	bne	$5333 <__umodsi3+0x19>
    5328: a6 15        	ldx	$15                     ; 0x2015 <f256main+0x17d1>
    532a: d0 07        	bne	$5333 <__umodsi3+0x19>
    532c: a6 14        	ldx	$14                     ; 0x2014 <f256main+0x17d0>
    532e: d0 03        	bne	$5333 <__umodsi3+0x19>
    5330: 4c 5a 54     	jmp	$545a <__umodsi3+0x140>
    5333: c5 17        	cmp	$17                     ; 0x2017 <f256main+0x17d3>
    5335: d0 15        	bne	$534c <__umodsi3+0x32>
    5337: a6 12        	ldx	$12                     ; 0x2012 <f256main+0x17ce>
    5339: e4 16        	cpx	$16                     ; 0x2016 <f256main+0x17d2>
    533b: d0 16        	bne	$5353 <__umodsi3+0x39>
    533d: a6 1a        	ldx	$1a                     ; 0x201a <f256main+0x17d6>
    533f: e4 15        	cpx	$15                     ; 0x2015 <f256main+0x17d1>
    5341: d0 17        	bne	$535a <__umodsi3+0x40>
    5343: a6 1c        	ldx	$1c                     ; 0x201c <f256main+0x17d8>
    5345: e4 14        	cpx	$14                     ; 0x2014 <f256main+0x17d0>
    5347: b0 1a        	bcs	$5363 <__umodsi3+0x49>
    5349: 4c 5a 54     	jmp	$545a <__umodsi3+0x140>
    534c: c5 17        	cmp	$17                     ; 0x2017 <f256main+0x17d3>
    534e: b0 13        	bcs	$5363 <__umodsi3+0x49>
    5350: 4c 5a 54     	jmp	$545a <__umodsi3+0x140>
    5353: e4 16        	cpx	$16                     ; 0x2016 <f256main+0x17d2>
    5355: b0 0c        	bcs	$5363 <__umodsi3+0x49>
    5357: 4c 5a 54     	jmp	$545a <__umodsi3+0x140>
    535a: a6 1a        	ldx	$1a                     ; 0x201a <f256main+0x17d6>
    535c: e4 15        	cpx	$15                     ; 0x2015 <f256main+0x17d1>
    535e: b0 03        	bcs	$5363 <__umodsi3+0x49>
    5360: 4c 5a 54     	jmp	$545a <__umodsi3+0x140>
    5363: a6 17        	ldx	$17                     ; 0x2017 <f256main+0x17d3>
    5365: 10 03        	bpl	$536a <__umodsi3+0x50>
    5367: 4c 43 54     	jmp	$5443 <__umodsi3+0x129>
    536a: a2 00        	ldx	#$0
    536c: a4 14        	ldy	$14                     ; 0x2014 <f256main+0x17d0>
    536e: 84 1b        	sty	$1b                     ; 0x201b <f256main+0x17d7>
    5370: a4 15        	ldy	$15                     ; 0x2015 <f256main+0x17d1>
    5372: 84 13        	sty	$13                     ; 0x2013 <f256main+0x17cf>
    5374: a4 16        	ldy	$16                     ; 0x2016 <f256main+0x17d2>
    5376: 84 18        	sty	$18                     ; 0x2018 <f256main+0x17d4>
    5378: a4 17        	ldy	$17                     ; 0x2017 <f256main+0x17d3>
    537a: 84 19        	sty	$19                     ; 0x2019 <f256main+0x17d5>
    537c: 06 1b        	asl	$1b                     ; 0x201b <f256main+0x17d7>
    537e: 26 13        	rol	$13                     ; 0x2013 <f256main+0x17cf>
    5380: 26 18        	rol	$18                     ; 0x2018 <f256main+0x17d4>
    5382: 26 19        	rol	$19                     ; 0x2019 <f256main+0x17d5>
    5384: c5 19        	cmp	$19                     ; 0x2019 <f256main+0x17d5>
    5386: d0 16        	bne	$539e <__umodsi3+0x84>
    5388: a4 12        	ldy	$12                     ; 0x2012 <f256main+0x17ce>
    538a: c4 18        	cpy	$18                     ; 0x2018 <f256main+0x17d4>
    538c: d0 16        	bne	$53a4 <__umodsi3+0x8a>
    538e: a4 1a        	ldy	$1a                     ; 0x201a <f256main+0x17d6>
    5390: c4 13        	cpy	$13                     ; 0x2013 <f256main+0x17cf>
    5392: d0 16        	bne	$53aa <__umodsi3+0x90>
    5394: a8           	tay
    5395: a5 1c        	lda	$1c                     ; 0x201c <f256main+0x17d8>
    5397: c5 1b        	cmp	$1b                     ; 0x201b <f256main+0x17d7>
    5399: 98           	tya
    539a: 90 29        	bcc	$53c5 <__umodsi3+0xab>
    539c: 80 12        	bra	$53b0 <__umodsi3+0x96>
    539e: c5 19        	cmp	$19                     ; 0x2019 <f256main+0x17d5>
    53a0: 90 23        	bcc	$53c5 <__umodsi3+0xab>
    53a2: 80 0c        	bra	$53b0 <__umodsi3+0x96>
    53a4: c4 18        	cpy	$18                     ; 0x2018 <f256main+0x17d4>
    53a6: 90 1d        	bcc	$53c5 <__umodsi3+0xab>
    53a8: 80 06        	bra	$53b0 <__umodsi3+0x96>
    53aa: a4 1a        	ldy	$1a                     ; 0x201a <f256main+0x17d6>
    53ac: c4 13        	cpy	$13                     ; 0x2013 <f256main+0x17cf>
    53ae: 90 15        	bcc	$53c5 <__umodsi3+0xab>
    53b0: e8           	inx
    53b1: a4 1b        	ldy	$1b                     ; 0x201b <f256main+0x17d7>
    53b3: 84 14        	sty	$14                     ; 0x2014 <f256main+0x17d0>
    53b5: a4 13        	ldy	$13                     ; 0x2013 <f256main+0x17cf>
    53b7: 84 15        	sty	$15                     ; 0x2015 <f256main+0x17d1>
    53b9: a4 18        	ldy	$18                     ; 0x2018 <f256main+0x17d4>
    53bb: 84 16        	sty	$16                     ; 0x2016 <f256main+0x17d2>
    53bd: a4 19        	ldy	$19                     ; 0x2019 <f256main+0x17d5>
    53bf: 84 17        	sty	$17                     ; 0x2017 <f256main+0x17d3>
    53c1: 10 b9        	bpl	$537c <__umodsi3+0x62>
    53c3: 80 10        	bra	$53d5 <__umodsi3+0xbb>
    53c5: a4 14        	ldy	$14                     ; 0x2014 <f256main+0x17d0>
    53c7: 84 1b        	sty	$1b                     ; 0x201b <f256main+0x17d7>
    53c9: a4 15        	ldy	$15                     ; 0x2015 <f256main+0x17d1>
    53cb: 84 13        	sty	$13                     ; 0x2013 <f256main+0x17cf>
    53cd: a4 16        	ldy	$16                     ; 0x2016 <f256main+0x17d2>
    53cf: 84 18        	sty	$18                     ; 0x2018 <f256main+0x17d4>
    53d1: a4 17        	ldy	$17                     ; 0x2017 <f256main+0x17d3>
    53d3: 84 19        	sty	$19                     ; 0x2019 <f256main+0x17d5>
    53d5: 38           	sec
    53d6: a8           	tay
    53d7: a5 1c        	lda	$1c                     ; 0x201c <f256main+0x17d8>
    53d9: e5 1b        	sbc	$1b                     ; 0x201b <f256main+0x17d7>
    53db: 85 1c        	sta	$1c                     ; 0x201c <f256main+0x17d8>
    53dd: a5 1a        	lda	$1a                     ; 0x201a <f256main+0x17d6>
    53df: e5 13        	sbc	$13                     ; 0x2013 <f256main+0x17cf>
    53e1: 85 1a        	sta	$1a                     ; 0x201a <f256main+0x17d6>
    53e3: a5 12        	lda	$12                     ; 0x2012 <f256main+0x17ce>
    53e5: e5 18        	sbc	$18                     ; 0x2018 <f256main+0x17d4>
    53e7: 85 12        	sta	$12                     ; 0x2012 <f256main+0x17ce>
    53e9: 98           	tya
    53ea: e5 19        	sbc	$19                     ; 0x2019 <f256main+0x17d5>
    53ec: e0 00        	cpx	#$0
    53ee: d0 11        	bne	$5401 <__umodsi3+0xe7>
    53f0: 4c 5a 54     	jmp	$545a <__umodsi3+0x140>
    53f3: c4 18        	cpy	$18                     ; 0x2018 <f256main+0x17d4>
    53f5: b0 30        	bcs	$5427 <__umodsi3+0x10d>
    53f7: 80 45        	bra	$543e <__umodsi3+0x124>
    53f9: a4 1a        	ldy	$1a                     ; 0x201a <f256main+0x17d6>
    53fb: c4 13        	cpy	$13                     ; 0x2013 <f256main+0x17cf>
    53fd: b0 28        	bcs	$5427 <__umodsi3+0x10d>
    53ff: 80 3d        	bra	$543e <__umodsi3+0x124>
    5401: 46 19        	lsr	$19                     ; 0x2019 <f256main+0x17d5>
    5403: 66 18        	ror	$18                     ; 0x2018 <f256main+0x17d4>
    5405: 66 13        	ror	$13                     ; 0x2013 <f256main+0x17cf>
    5407: 66 1b        	ror	$1b                     ; 0x201b <f256main+0x17d7>
    5409: c5 19        	cmp	$19                     ; 0x2019 <f256main+0x17d5>
    540b: d0 16        	bne	$5423 <__umodsi3+0x109>
    540d: a4 12        	ldy	$12                     ; 0x2012 <f256main+0x17ce>
    540f: c4 18        	cpy	$18                     ; 0x2018 <f256main+0x17d4>
    5411: d0 e0        	bne	$53f3 <__umodsi3+0xd9>
    5413: a4 1a        	ldy	$1a                     ; 0x201a <f256main+0x17d6>
    5415: c4 13        	cpy	$13                     ; 0x2013 <f256main+0x17cf>
    5417: d0 e0        	bne	$53f9 <__umodsi3+0xdf>
    5419: a8           	tay
    541a: a5 1c        	lda	$1c                     ; 0x201c <f256main+0x17d8>
    541c: c5 1b        	cmp	$1b                     ; 0x201b <f256main+0x17d7>
    541e: 98           	tya
    541f: b0 06        	bcs	$5427 <__umodsi3+0x10d>
    5421: 80 1b        	bra	$543e <__umodsi3+0x124>
    5423: c5 19        	cmp	$19                     ; 0x2019 <f256main+0x17d5>
    5425: 90 17        	bcc	$543e <__umodsi3+0x124>
    5427: a8           	tay
    5428: 38           	sec
    5429: a5 1c        	lda	$1c                     ; 0x201c <f256main+0x17d8>
    542b: e5 1b        	sbc	$1b                     ; 0x201b <f256main+0x17d7>
    542d: 85 1c        	sta	$1c                     ; 0x201c <f256main+0x17d8>
    542f: a5 1a        	lda	$1a                     ; 0x201a <f256main+0x17d6>
    5431: e5 13        	sbc	$13                     ; 0x2013 <f256main+0x17cf>
    5433: 85 1a        	sta	$1a                     ; 0x201a <f256main+0x17d6>
    5435: a5 12        	lda	$12                     ; 0x2012 <f256main+0x17ce>
    5437: e5 18        	sbc	$18                     ; 0x2018 <f256main+0x17d4>
    5439: 85 12        	sta	$12                     ; 0x2012 <f256main+0x17ce>
    543b: 98           	tya
    543c: e5 19        	sbc	$19                     ; 0x2019 <f256main+0x17d5>
    543e: ca           	dex
    543f: d0 c0        	bne	$5401 <__umodsi3+0xe7>
    5441: 80 17        	bra	$545a <__umodsi3+0x140>
    5443: 38           	sec
    5444: a8           	tay
    5445: a5 1c        	lda	$1c                     ; 0x201c <f256main+0x17d8>
    5447: e5 14        	sbc	$14                     ; 0x2014 <f256main+0x17d0>
    5449: 85 1c        	sta	$1c                     ; 0x201c <f256main+0x17d8>
    544b: a5 1a        	lda	$1a                     ; 0x201a <f256main+0x17d6>
    544d: e5 15        	sbc	$15                     ; 0x2015 <f256main+0x17d1>
    544f: 85 1a        	sta	$1a                     ; 0x201a <f256main+0x17d6>
    5451: a5 12        	lda	$12                     ; 0x2012 <f256main+0x17ce>
    5453: e5 16        	sbc	$16                     ; 0x2016 <f256main+0x17d2>
    5455: 85 12        	sta	$12                     ; 0x2012 <f256main+0x17ce>
    5457: 98           	tya
    5458: e5 17        	sbc	$17                     ; 0x2017 <f256main+0x17d3>
    545a: 85 13        	sta	$13                     ; 0x2013 <f256main+0x17cf>
    545c: a6 1a        	ldx	$1a                     ; 0x201a <f256main+0x17d6>
    545e: a5 1c        	lda	$1c                     ; 0x201c <f256main+0x17d8>
    5460: 60           	rts

00005461 <__udivmodhi4>:
    5461: 86 1a        	stx	$1a                     ; 0x201a <f256main+0x17d6>
    5463: 64 16        	stz	$16                     ; 0x2016 <f256main+0x17d2>
    5465: a4 13        	ldy	$13                     ; 0x2013 <f256main+0x17cf>
    5467: d0 04        	bne	$546d <__udivmodhi4+0xc>
    5469: a4 12        	ldy	$12                     ; 0x2012 <f256main+0x17ce>
    546b: f0 08        	beq	$5475 <__udivmodhi4+0x14>
    546d: e4 13        	cpx	$13                     ; 0x2013 <f256main+0x17cf>
    546f: d0 0d        	bne	$547e <__udivmodhi4+0x1d>
    5471: c5 12        	cmp	$12                     ; 0x2012 <f256main+0x17ce>
    5473: b0 0d        	bcs	$5482 <__udivmodhi4+0x21>
    5475: a6 1a        	ldx	$1a                     ; 0x201a <f256main+0x17d6>
    5477: 86 12        	stx	$12                     ; 0x2012 <f256main+0x17ce>
    5479: a2 00        	ldx	#$0
    547b: 4c 26 55     	jmp	$5526 <__udivmodhi4+0xc5>
    547e: e4 13        	cpx	$13                     ; 0x2013 <f256main+0x17cf>
    5480: 90 f3        	bcc	$5475 <__udivmodhi4+0x14>
    5482: a6 13        	ldx	$13                     ; 0x2013 <f256main+0x17cf>
    5484: 10 03        	bpl	$5489 <__udivmodhi4+0x28>
    5486: 4c 19 55     	jmp	$5519 <__udivmodhi4+0xb8>
    5489: a2 00        	ldx	#$0
    548b: a4 12        	ldy	$12                     ; 0x2012 <f256main+0x17ce>
    548d: 84 17        	sty	$17                     ; 0x2017 <f256main+0x17d3>
    548f: a4 13        	ldy	$13                     ; 0x2013 <f256main+0x17cf>
    5491: 84 18        	sty	$18                     ; 0x2018 <f256main+0x17d4>
    5493: 06 17        	asl	$17                     ; 0x2017 <f256main+0x17d3>
    5495: 26 18        	rol	$18                     ; 0x2018 <f256main+0x17d4>
    5497: a4 1a        	ldy	$1a                     ; 0x201a <f256main+0x17d6>
    5499: c4 18        	cpy	$18                     ; 0x2018 <f256main+0x17d4>
    549b: d0 06        	bne	$54a3 <__udivmodhi4+0x42>
    549d: c5 17        	cmp	$17                     ; 0x2017 <f256main+0x17d3>
    549f: b0 08        	bcs	$54a9 <__udivmodhi4+0x48>
    54a1: 80 13        	bra	$54b6 <__udivmodhi4+0x55>
    54a3: a4 1a        	ldy	$1a                     ; 0x201a <f256main+0x17d6>
    54a5: c4 18        	cpy	$18                     ; 0x2018 <f256main+0x17d4>
    54a7: 90 0d        	bcc	$54b6 <__udivmodhi4+0x55>
    54a9: e8           	inx
    54aa: a4 17        	ldy	$17                     ; 0x2017 <f256main+0x17d3>
    54ac: 84 12        	sty	$12                     ; 0x2012 <f256main+0x17ce>
    54ae: a4 18        	ldy	$18                     ; 0x2018 <f256main+0x17d4>
    54b0: 84 13        	sty	$13                     ; 0x2013 <f256main+0x17cf>
    54b2: 10 df        	bpl	$5493 <__udivmodhi4+0x32>
    54b4: 80 08        	bra	$54be <__udivmodhi4+0x5d>
    54b6: a4 12        	ldy	$12                     ; 0x2012 <f256main+0x17ce>
    54b8: 84 17        	sty	$17                     ; 0x2017 <f256main+0x17d3>
    54ba: a4 13        	ldy	$13                     ; 0x2013 <f256main+0x17cf>
    54bc: 84 18        	sty	$18                     ; 0x2018 <f256main+0x17d4>
    54be: 38           	sec
    54bf: e5 17        	sbc	$17                     ; 0x2017 <f256main+0x17d3>
    54c1: a8           	tay
    54c2: a5 1a        	lda	$1a                     ; 0x201a <f256main+0x17d6>
    54c4: e5 18        	sbc	$18                     ; 0x2018 <f256main+0x17d4>
    54c6: 85 12        	sta	$12                     ; 0x2012 <f256main+0x17ce>
    54c8: 8a           	txa
    54c9: d0 03        	bne	$54ce <__udivmodhi4+0x6d>
    54cb: 4c 35 55     	jmp	$5535 <__udivmodhi4+0xd4>
    54ce: a9 01        	lda	#$1
    54d0: 85 89        	sta	$89                     ; 0x2089 <f256main+0x1845>
    54d2: 64 16        	stz	$16                     ; 0x2016 <f256main+0x17d2>
    54d4: 98           	tya
    54d5: 46 18        	lsr	$18                     ; 0x2018 <f256main+0x17d4>
    54d7: 66 17        	ror	$17                     ; 0x2017 <f256main+0x17d3>
    54d9: a4 89        	ldy	$89                     ; 0x2089 <f256main+0x1845>
    54db: 84 13        	sty	$13                     ; 0x2013 <f256main+0x17cf>
    54dd: 06 13        	asl	$13                     ; 0x2013 <f256main+0x17cf>
    54df: a0 01        	ldy	#$1
    54e1: b0 02        	bcs	$54e5 <__udivmodhi4+0x84>
    54e3: a0 00        	ldy	#$0
    54e5: 84 19        	sty	$19                     ; 0x2019 <f256main+0x17d5>
    54e7: a4 13        	ldy	$13                     ; 0x2013 <f256main+0x17cf>
    54e9: 84 89        	sty	$89                     ; 0x2089 <f256main+0x1845>
    54eb: a4 12        	ldy	$12                     ; 0x2012 <f256main+0x17ce>
    54ed: c4 18        	cpy	$18                     ; 0x2018 <f256main+0x17d4>
    54ef: d0 22        	bne	$5513 <__udivmodhi4+0xb2>
    54f1: c5 17        	cmp	$17                     ; 0x2017 <f256main+0x17d3>
    54f3: 90 13        	bcc	$5508 <__udivmodhi4+0xa7>
    54f5: a8           	tay
    54f6: a5 89        	lda	$89                     ; 0x2089 <f256main+0x1845>
    54f8: 09 01        	ora	#$1
    54fa: 85 89        	sta	$89                     ; 0x2089 <f256main+0x1845>
    54fc: 38           	sec
    54fd: 98           	tya
    54fe: e5 17        	sbc	$17                     ; 0x2017 <f256main+0x17d3>
    5500: a8           	tay
    5501: a5 12        	lda	$12                     ; 0x2012 <f256main+0x17ce>
    5503: e5 18        	sbc	$18                     ; 0x2018 <f256main+0x17d4>
    5505: 85 12        	sta	$12                     ; 0x2012 <f256main+0x17ce>
    5507: 98           	tya
    5508: a4 19        	ldy	$19                     ; 0x2019 <f256main+0x17d5>
    550a: c0 01        	cpy	#$1
    550c: 26 16        	rol	$16                     ; 0x2016 <f256main+0x17d2>
    550e: ca           	dex
    550f: d0 c4        	bne	$54d5 <__udivmodhi4+0x74>
    5511: 80 15        	bra	$5528 <__udivmodhi4+0xc7>
    5513: c4 18        	cpy	$18                     ; 0x2018 <f256main+0x17d4>
    5515: b0 de        	bcs	$54f5 <__udivmodhi4+0x94>
    5517: 80 ef        	bra	$5508 <__udivmodhi4+0xa7>
    5519: 38           	sec
    551a: e5 12        	sbc	$12                     ; 0x2012 <f256main+0x17ce>
    551c: aa           	tax
    551d: a5 1a        	lda	$1a                     ; 0x201a <f256main+0x17d6>
    551f: e5 13        	sbc	$13                     ; 0x2013 <f256main+0x17cf>
    5521: 85 12        	sta	$12                     ; 0x2012 <f256main+0x17ce>
    5523: 8a           	txa
    5524: a2 01        	ldx	#$1
    5526: 86 89        	stx	$89                     ; 0x2089 <f256main+0x1845>
    5528: 92 14        	sta	($14)                   ; 0x2014 <f256main+0x17d0>
    552a: a0 01        	ldy	#$1
    552c: a5 12        	lda	$12                     ; 0x2012 <f256main+0x17ce>
    552e: 91 14        	sta	($14),y                 ; 0x2014 <f256main+0x17d0>
    5530: a6 16        	ldx	$16                     ; 0x2016 <f256main+0x17d2>
    5532: a5 89        	lda	$89                     ; 0x2089 <f256main+0x1845>
    5534: 60           	rts
    5535: a2 01        	ldx	#$1
    5537: 86 89        	stx	$89                     ; 0x2089 <f256main+0x1845>
    5539: 98           	tya
    553a: 80 ec        	bra	$5528 <__udivmodhi4+0xc7>

0000553c <__mulsf3>:
    553c: 85 1b        	sta	$1b                     ; 0x201b <f256main+0x17d7>
    553e: 86 18        	stx	$18                     ; 0x2018 <f256main+0x17d4>
    5540: a6 12        	ldx	$12                     ; 0x2012 <f256main+0x17ce>
    5542: 86 19        	stx	$19                     ; 0x2019 <f256main+0x17d5>
    5544: a6 14        	ldx	$14                     ; 0x2014 <f256main+0x17d0>
    5546: 86 8b        	stx	$8b                     ; 0x208b <f256main+0x1847>
    5548: a6 15        	ldx	$15                     ; 0x2015 <f256main+0x17d1>
    554a: 86 8c        	stx	$8c                     ; 0x208c <f256main+0x1848>
    554c: a5 12        	lda	$12                     ; 0x2012 <f256main+0x17ce>
    554e: 0a           	asl
    554f: a6 13        	ldx	$13                     ; 0x2013 <f256main+0x17cf>
    5551: 86 14        	stx	$14                     ; 0x2014 <f256main+0x17d0>
    5553: 26 14        	rol	$14                     ; 0x2014 <f256main+0x17d0>
    5555: a5 16        	lda	$16                     ; 0x2016 <f256main+0x17d2>
    5557: a6 17        	ldx	$17                     ; 0x2017 <f256main+0x17d3>
    5559: 86 12        	stx	$12                     ; 0x2012 <f256main+0x17ce>
    555b: 0a           	asl
    555c: 26 12        	rol	$12                     ; 0x2012 <f256main+0x17ce>
    555e: 18           	clc
    555f: a6 14        	ldx	$14                     ; 0x2014 <f256main+0x17d0>
    5561: 86 91        	stx	$91                     ; 0x2091 <f256main+0x184d>
    5563: a5 14        	lda	$14                     ; 0x2014 <f256main+0x17d0>
    5565: 69 01        	adc	#$1
    5567: aa           	tax
    5568: a9 00        	lda	#$0
    556a: 69 ff        	adc	#$ff
    556c: a8           	tay
    556d: a5 13        	lda	$13                     ; 0x2013 <f256main+0x17cf>
    556f: 85 15        	sta	$15                     ; 0x2015 <f256main+0x17d1>
    5571: a5 17        	lda	$17                     ; 0x2017 <f256main+0x17d3>
    5573: 45 13        	eor	$13                     ; 0x2013 <f256main+0x17cf>
    5575: 29 80        	and	#$80
    5577: 85 8e        	sta	$8e                     ; 0x208e <f256main+0x184a>
    5579: a5 19        	lda	$19                     ; 0x2019 <f256main+0x17d5>
    557b: 29 7f        	and	#$7f
    557d: 85 8f        	sta	$8f                     ; 0x208f <f256main+0x184b>
    557f: a5 16        	lda	$16                     ; 0x2016 <f256main+0x17d2>
    5581: 85 8d        	sta	$8d                     ; 0x208d <f256main+0x1849>
    5583: a5 16        	lda	$16                     ; 0x2016 <f256main+0x17d2>
    5585: 29 7f        	and	#$7f
    5587: 85 90        	sta	$90                     ; 0x2090 <f256main+0x184c>
    5589: c0 ff        	cpy	#$ff
    558b: d0 04        	bne	$5591 <__mulsf3+0x55>
    558d: e0 02        	cpx	#$2
    558f: 80 02        	bra	$5593 <__mulsf3+0x57>
    5591: c0 ff        	cpy	#$ff
    5593: a6 13        	ldx	$13                     ; 0x2013 <f256main+0x17cf>
    5595: a5 19        	lda	$19                     ; 0x2019 <f256main+0x17d5>
    5597: 90 30        	bcc	$55c9 <__mulsf3+0x8d>
    5599: 18           	clc
    559a: a5 12        	lda	$12                     ; 0x2012 <f256main+0x17ce>
    559c: 69 01        	adc	#$1
    559e: a8           	tay
    559f: a2 00        	ldx	#$0
    55a1: 8a           	txa
    55a2: 69 ff        	adc	#$ff
    55a4: c9 ff        	cmp	#$ff
    55a6: d0 19        	bne	$55c1 <__mulsf3+0x85>
    55a8: c0 02        	cpy	#$2
    55aa: 90 19        	bcc	$55c5 <__mulsf3+0x89>
    55ac: a4 1b        	ldy	$1b                     ; 0x201b <f256main+0x17d7>
    55ae: 84 94        	sty	$94                     ; 0x2094 <f256main+0x1850>
    55b0: a4 12        	ldy	$12                     ; 0x2012 <f256main+0x17ce>
    55b2: 84 93        	sty	$93                     ; 0x2093 <f256main+0x184f>
    55b4: a0 00        	ldy	#$0
    55b6: 84 92        	sty	$92                     ; 0x2092 <f256main+0x184e>
    55b8: 84 95        	sty	$95                     ; 0x2095 <f256main+0x1851>
    55ba: a4 18        	ldy	$18                     ; 0x2018 <f256main+0x17d4>
    55bc: 84 14        	sty	$14                     ; 0x2014 <f256main+0x17d0>
    55be: 4c 6a 5b     	jmp	$5b6a <__mulsf3+0x62e>
    55c1: c9 ff        	cmp	#$ff
    55c3: b0 e7        	bcs	$55ac <__mulsf3+0x70>
    55c5: a6 13        	ldx	$13                     ; 0x2013 <f256main+0x17cf>
    55c7: a5 19        	lda	$19                     ; 0x2019 <f256main+0x17d5>
    55c9: 85 14        	sta	$14                     ; 0x2014 <f256main+0x17d0>
    55cb: 8a           	txa
    55cc: 29 7f        	and	#$7f
    55ce: c9 7f        	cmp	#$7f
    55d0: d0 14        	bne	$55e6 <__mulsf3+0xaa>
    55d2: 85 13        	sta	$13                     ; 0x2013 <f256main+0x17cf>
    55d4: a5 14        	lda	$14                     ; 0x2014 <f256main+0x17d0>
    55d6: c9 80        	cmp	#$80
    55d8: d0 42        	bne	$561c <__mulsf3+0xe0>
    55da: a6 18        	ldx	$18                     ; 0x2018 <f256main+0x17d4>
    55dc: d0 53        	bne	$5631 <__mulsf3+0xf5>
    55de: a6 1b        	ldx	$1b                     ; 0x201b <f256main+0x17d7>
    55e0: e0 01        	cpx	#$1
    55e2: 90 0a        	bcc	$55ee <__mulsf3+0xb2>
    55e4: 80 3a        	bra	$5620 <__mulsf3+0xe4>
    55e6: 85 13        	sta	$13                     ; 0x2013 <f256main+0x17cf>
    55e8: c9 7f        	cmp	#$7f
    55ea: a5 14        	lda	$14                     ; 0x2014 <f256main+0x17d0>
    55ec: b0 32        	bcs	$5620 <__mulsf3+0xe4>
    55ee: a5 17        	lda	$17                     ; 0x2017 <f256main+0x17d3>
    55f0: 29 7f        	and	#$7f
    55f2: 85 92        	sta	$92                     ; 0x2092 <f256main+0x184e>
    55f4: c9 7f        	cmp	#$7f
    55f6: d0 35        	bne	$562d <__mulsf3+0xf1>
    55f8: a6 16        	ldx	$16                     ; 0x2016 <f256main+0x17d2>
    55fa: e0 80        	cpx	#$80
    55fc: d0 3b        	bne	$5639 <__mulsf3+0xfd>
    55fe: a5 19        	lda	$19                     ; 0x2019 <f256main+0x17d5>
    5600: a6 8c        	ldx	$8c                     ; 0x208c <f256main+0x1848>
    5602: f0 03        	beq	$5607 <__mulsf3+0xcb>
    5604: 4c 0b 57     	jmp	$570b <__mulsf3+0x1cf>
    5607: a6 8b        	ldx	$8b                     ; 0x208b <f256main+0x1847>
    5609: e0 01        	cpx	#$1
    560b: 90 32        	bcc	$563f <__mulsf3+0x103>
    560d: a5 16        	lda	$16                     ; 0x2016 <f256main+0x17d2>
    560f: 09 40        	ora	#$40
    5611: a6 8b        	ldx	$8b                     ; 0x208b <f256main+0x1847>
    5613: 86 14        	stx	$14                     ; 0x2014 <f256main+0x17d0>
    5615: a4 8c        	ldy	$8c                     ; 0x208c <f256main+0x1848>
    5617: a6 17        	ldx	$17                     ; 0x2017 <f256main+0x17d3>
    5619: 4c eb 5d     	jmp	$5deb <__mulsf3+0x8af>
    561c: c9 80        	cmp	#$80
    561e: 90 ce        	bcc	$55ee <__mulsf3+0xb2>
    5620: a6 1b        	ldx	$1b                     ; 0x201b <f256main+0x17d7>
    5622: 86 14        	stx	$14                     ; 0x2014 <f256main+0x17d0>
    5624: 09 40        	ora	#$40
    5626: a4 18        	ldy	$18                     ; 0x2018 <f256main+0x17d4>
    5628: a6 15        	ldx	$15                     ; 0x2015 <f256main+0x17d1>
    562a: 4c eb 5d     	jmp	$5deb <__mulsf3+0x8af>
    562d: c9 7f        	cmp	#$7f
    562f: 80 0a        	bra	$563b <__mulsf3+0xff>
    5631: a6 18        	ldx	$18                     ; 0x2018 <f256main+0x17d4>
    5633: e0 00        	cpx	#$0
    5635: 90 b7        	bcc	$55ee <__mulsf3+0xb2>
    5637: 80 e7        	bra	$5620 <__mulsf3+0xe4>
    5639: e0 80        	cpx	#$80
    563b: a5 19        	lda	$19                     ; 0x2019 <f256main+0x17d5>
    563d: b0 ce        	bcs	$560d <__mulsf3+0xd1>
    563f: a6 13        	ldx	$13                     ; 0x2013 <f256main+0x17cf>
    5641: 86 16        	stx	$16                     ; 0x2016 <f256main+0x17d2>
    5643: e0 7f        	cpx	#$7f
    5645: d0 2c        	bne	$5673 <__mulsf3+0x137>
    5647: c9 80        	cmp	#$80
    5649: d0 28        	bne	$5673 <__mulsf3+0x137>
    564b: a6 18        	ldx	$18                     ; 0x2018 <f256main+0x17d4>
    564d: d0 24        	bne	$5673 <__mulsf3+0x137>
    564f: a6 1b        	ldx	$1b                     ; 0x201b <f256main+0x17d7>
    5651: d0 20        	bne	$5673 <__mulsf3+0x137>
    5653: a6 92        	ldx	$92                     ; 0x2092 <f256main+0x184e>
    5655: 86 12        	stx	$12                     ; 0x2012 <f256main+0x17ce>
    5657: a5 12        	lda	$12                     ; 0x2012 <f256main+0x17ce>
    5659: f0 03        	beq	$565e <__mulsf3+0x122>
    565b: 4c 49 5c     	jmp	$5c49 <__mulsf3+0x70d>
    565e: a5 8d        	lda	$8d                     ; 0x208d <f256main+0x1849>
    5660: f0 03        	beq	$5665 <__mulsf3+0x129>
    5662: 4c 49 5c     	jmp	$5c49 <__mulsf3+0x70d>
    5665: a5 8c        	lda	$8c                     ; 0x208c <f256main+0x1848>
    5667: f0 03        	beq	$566c <__mulsf3+0x130>
    5669: 4c 49 5c     	jmp	$5c49 <__mulsf3+0x70d>
    566c: a5 8b        	lda	$8b                     ; 0x208b <f256main+0x1847>
    566e: f0 33        	beq	$56a3 <__mulsf3+0x167>
    5670: 4c 49 5c     	jmp	$5c49 <__mulsf3+0x70d>
    5673: a6 92        	ldx	$92                     ; 0x2092 <f256main+0x184e>
    5675: e0 7f        	cpx	#$7f
    5677: d0 35        	bne	$56ae <__mulsf3+0x172>
    5679: a6 8d        	ldx	$8d                     ; 0x208d <f256main+0x1849>
    567b: e0 80        	cpx	#$80
    567d: d0 2f        	bne	$56ae <__mulsf3+0x172>
    567f: a6 8c        	ldx	$8c                     ; 0x208c <f256main+0x1848>
    5681: d0 2b        	bne	$56ae <__mulsf3+0x172>
    5683: a6 8b        	ldx	$8b                     ; 0x208b <f256main+0x1847>
    5685: d0 27        	bne	$56ae <__mulsf3+0x172>
    5687: a4 1b        	ldy	$1b                     ; 0x201b <f256main+0x17d7>
    5689: a6 16        	ldx	$16                     ; 0x2016 <f256main+0x17d2>
    568b: f0 03        	beq	$5690 <__mulsf3+0x154>
    568d: 4c 49 5c     	jmp	$5c49 <__mulsf3+0x70d>
    5690: aa           	tax
    5691: f0 03        	beq	$5696 <__mulsf3+0x15a>
    5693: 4c 49 5c     	jmp	$5c49 <__mulsf3+0x70d>
    5696: a5 18        	lda	$18                     ; 0x2018 <f256main+0x17d4>
    5698: f0 03        	beq	$569d <__mulsf3+0x161>
    569a: 4c 49 5c     	jmp	$5c49 <__mulsf3+0x70d>
    569d: 98           	tya
    569e: f0 03        	beq	$56a3 <__mulsf3+0x167>
    56a0: 4c 49 5c     	jmp	$5c49 <__mulsf3+0x70d>
    56a3: a9 c0        	lda	#$c0
    56a5: a2 7f        	ldx	#$7f
    56a7: 64 14        	stz	$14                     ; 0x2014 <f256main+0x17d0>
    56a9: a0 00        	ldy	#$0
    56ab: 4c eb 5d     	jmp	$5deb <__mulsf3+0x8af>
    56ae: a6 18        	ldx	$18                     ; 0x2018 <f256main+0x17d4>
    56b0: a4 16        	ldy	$16                     ; 0x2016 <f256main+0x17d2>
    56b2: 84 13        	sty	$13                     ; 0x2013 <f256main+0x17cf>
    56b4: a4 1b        	ldy	$1b                     ; 0x201b <f256main+0x17d7>
    56b6: 84 14        	sty	$14                     ; 0x2014 <f256main+0x17d0>
    56b8: a4 13        	ldy	$13                     ; 0x2013 <f256main+0x17cf>
    56ba: d0 0d        	bne	$56c9 <__mulsf3+0x18d>
    56bc: a8           	tay
    56bd: d0 0a        	bne	$56c9 <__mulsf3+0x18d>
    56bf: 8a           	txa
    56c0: d0 07        	bne	$56c9 <__mulsf3+0x18d>
    56c2: a5 14        	lda	$14                     ; 0x2014 <f256main+0x17d0>
    56c4: d0 03        	bne	$56c9 <__mulsf3+0x18d>
    56c6: 4c a8 5c     	jmp	$5ca8 <__mulsf3+0x76c>
    56c9: a6 8b        	ldx	$8b                     ; 0x208b <f256main+0x1847>
    56cb: a4 8c        	ldy	$8c                     ; 0x208c <f256main+0x1848>
    56cd: 84 13        	sty	$13                     ; 0x2013 <f256main+0x17cf>
    56cf: a4 8d        	ldy	$8d                     ; 0x208d <f256main+0x1849>
    56d1: 84 14        	sty	$14                     ; 0x2014 <f256main+0x17d0>
    56d3: a5 92        	lda	$92                     ; 0x2092 <f256main+0x184e>
    56d5: 85 15        	sta	$15                     ; 0x2015 <f256main+0x17d1>
    56d7: a5 15        	lda	$15                     ; 0x2015 <f256main+0x17d1>
    56d9: d0 0e        	bne	$56e9 <__mulsf3+0x1ad>
    56db: a5 14        	lda	$14                     ; 0x2014 <f256main+0x17d0>
    56dd: d0 0a        	bne	$56e9 <__mulsf3+0x1ad>
    56df: a5 13        	lda	$13                     ; 0x2013 <f256main+0x17cf>
    56e1: d0 06        	bne	$56e9 <__mulsf3+0x1ad>
    56e3: 8a           	txa
    56e4: d0 03        	bne	$56e9 <__mulsf3+0x1ad>
    56e6: 4c a8 5c     	jmp	$5ca8 <__mulsf3+0x76c>
    56e9: a5 16        	lda	$16                     ; 0x2016 <f256main+0x17d2>
    56eb: d0 16        	bne	$5703 <__mulsf3+0x1c7>
    56ed: a6 19        	ldx	$19                     ; 0x2019 <f256main+0x17d5>
    56ef: e0 80        	cpx	#$80
    56f1: d0 24        	bne	$5717 <__mulsf3+0x1db>
    56f3: a6 18        	ldx	$18                     ; 0x2018 <f256main+0x17d4>
    56f5: a5 8d        	lda	$8d                     ; 0x208d <f256main+0x1849>
    56f7: a4 18        	ldy	$18                     ; 0x2018 <f256main+0x17d4>
    56f9: d0 35        	bne	$5730 <__mulsf3+0x1f4>
    56fb: a4 1b        	ldy	$1b                     ; 0x201b <f256main+0x17d7>
    56fd: c0 00        	cpy	#$0
    56ff: b0 1e        	bcs	$571f <__mulsf3+0x1e3>
    5701: 80 31        	bra	$5734 <__mulsf3+0x1f8>
    5703: a6 16        	ldx	$16                     ; 0x2016 <f256main+0x17d2>
    5705: e0 00        	cpx	#$0
    5707: b0 12        	bcs	$571b <__mulsf3+0x1df>
    5709: 80 29        	bra	$5734 <__mulsf3+0x1f8>
    570b: a6 8c        	ldx	$8c                     ; 0x208c <f256main+0x1848>
    570d: e0 00        	cpx	#$0
    570f: 90 03        	bcc	$5714 <__mulsf3+0x1d8>
    5711: 4c 0d 56     	jmp	$560d <__mulsf3+0xd1>
    5714: 4c 3f 56     	jmp	$563f <__mulsf3+0x103>
    5717: e0 80        	cpx	#$80
    5719: 90 19        	bcc	$5734 <__mulsf3+0x1f8>
    571b: a6 18        	ldx	$18                     ; 0x2018 <f256main+0x17d4>
    571d: a5 8d        	lda	$8d                     ; 0x208d <f256main+0x1849>
    571f: 86 14        	stx	$14                     ; 0x2014 <f256main+0x17d0>
    5721: a4 1b        	ldy	$1b                     ; 0x201b <f256main+0x17d7>
    5723: 84 94        	sty	$94                     ; 0x2094 <f256main+0x1850>
    5725: a2 00        	ldx	#$0
    5727: a0 00        	ldy	#$0
    5729: 84 96        	sty	$96                     ; 0x2096 <f256main+0x1852>
    572b: 84 95        	sty	$95                     ; 0x2095 <f256main+0x1851>
    572d: 4c 2a 59     	jmp	$592a <__mulsf3+0x3ee>
    5730: e0 00        	cpx	#$0
    5732: b0 eb        	bcs	$571f <__mulsf3+0x1e3>
    5734: a6 12        	ldx	$12                     ; 0x2012 <f256main+0x17ce>
    5736: 86 93        	stx	$93                     ; 0x2093 <f256main+0x184f>
    5738: a6 8f        	ldx	$8f                     ; 0x208f <f256main+0x184b>
    573a: 86 16        	stx	$16                     ; 0x2016 <f256main+0x17d2>
    573c: 8a           	txa
    573d: 4a           	lsr
    573e: 85 12        	sta	$12                     ; 0x2012 <f256main+0x17ce>
    5740: a6 18        	ldx	$18                     ; 0x2018 <f256main+0x17d4>
    5742: a5 18        	lda	$18                     ; 0x2018 <f256main+0x17d4>
    5744: 6a           	ror
    5745: 85 13        	sta	$13                     ; 0x2013 <f256main+0x17cf>
    5747: a5 1b        	lda	$1b                     ; 0x201b <f256main+0x17d7>
    5749: 6a           	ror
    574a: 85 14        	sta	$14                     ; 0x2014 <f256main+0x17d0>
    574c: a5 1b        	lda	$1b                     ; 0x201b <f256main+0x17d7>
    574e: 05 14        	ora	$14                     ; 0x2014 <f256main+0x17d0>
    5750: 85 17        	sta	$17                     ; 0x2017 <f256main+0x17d3>
    5752: a5 18        	lda	$18                     ; 0x2018 <f256main+0x17d4>
    5754: 05 13        	ora	$13                     ; 0x2013 <f256main+0x17cf>
    5756: 85 15        	sta	$15                     ; 0x2015 <f256main+0x17d1>
    5758: a5 16        	lda	$16                     ; 0x2016 <f256main+0x17d2>
    575a: 05 12        	ora	$12                     ; 0x2012 <f256main+0x17ce>
    575c: 85 18        	sta	$18                     ; 0x2018 <f256main+0x17d4>
    575e: 4a           	lsr
    575f: a4 15        	ldy	$15                     ; 0x2015 <f256main+0x17d1>
    5761: 84 12        	sty	$12                     ; 0x2012 <f256main+0x17ce>
    5763: 66 12        	ror	$12                     ; 0x2012 <f256main+0x17ce>
    5765: a4 17        	ldy	$17                     ; 0x2017 <f256main+0x17d3>
    5767: 84 13        	sty	$13                     ; 0x2013 <f256main+0x17cf>
    5769: 66 13        	ror	$13                     ; 0x2013 <f256main+0x17cf>
    576b: 4a           	lsr
    576c: 85 14        	sta	$14                     ; 0x2014 <f256main+0x17d0>
    576e: 66 12        	ror	$12                     ; 0x2012 <f256main+0x17ce>
    5770: 66 13        	ror	$13                     ; 0x2013 <f256main+0x17cf>
    5772: a5 17        	lda	$17                     ; 0x2017 <f256main+0x17d3>
    5774: 05 13        	ora	$13                     ; 0x2013 <f256main+0x17cf>
    5776: 85 17        	sta	$17                     ; 0x2017 <f256main+0x17d3>
    5778: a5 15        	lda	$15                     ; 0x2015 <f256main+0x17d1>
    577a: 05 12        	ora	$12                     ; 0x2012 <f256main+0x17ce>
    577c: 85 15        	sta	$15                     ; 0x2015 <f256main+0x17d1>
    577e: a5 18        	lda	$18                     ; 0x2018 <f256main+0x17d4>
    5780: 05 14        	ora	$14                     ; 0x2014 <f256main+0x17d0>
    5782: 85 18        	sta	$18                     ; 0x2018 <f256main+0x17d4>
    5784: 4a           	lsr
    5785: a4 15        	ldy	$15                     ; 0x2015 <f256main+0x17d1>
    5787: 84 12        	sty	$12                     ; 0x2012 <f256main+0x17ce>
    5789: 66 12        	ror	$12                     ; 0x2012 <f256main+0x17ce>
    578b: a4 17        	ldy	$17                     ; 0x2017 <f256main+0x17d3>
    578d: 84 13        	sty	$13                     ; 0x2013 <f256main+0x17cf>
    578f: 66 13        	ror	$13                     ; 0x2013 <f256main+0x17cf>
    5791: 4a           	lsr
    5792: 66 12        	ror	$12                     ; 0x2012 <f256main+0x17ce>
    5794: 66 13        	ror	$13                     ; 0x2013 <f256main+0x17cf>
    5796: 4a           	lsr
    5797: 66 12        	ror	$12                     ; 0x2012 <f256main+0x17ce>
    5799: 66 13        	ror	$13                     ; 0x2013 <f256main+0x17cf>
    579b: 4a           	lsr
    579c: 85 14        	sta	$14                     ; 0x2014 <f256main+0x17d0>
    579e: 66 12        	ror	$12                     ; 0x2012 <f256main+0x17ce>
    57a0: 66 13        	ror	$13                     ; 0x2013 <f256main+0x17cf>
    57a2: a5 17        	lda	$17                     ; 0x2017 <f256main+0x17d3>
    57a4: 05 13        	ora	$13                     ; 0x2013 <f256main+0x17cf>
    57a6: 85 17        	sta	$17                     ; 0x2017 <f256main+0x17d3>
    57a8: a5 15        	lda	$15                     ; 0x2015 <f256main+0x17d1>
    57aa: 05 12        	ora	$12                     ; 0x2012 <f256main+0x17ce>
    57ac: 85 13        	sta	$13                     ; 0x2013 <f256main+0x17cf>
    57ae: a5 18        	lda	$18                     ; 0x2018 <f256main+0x17d4>
    57b0: 05 14        	ora	$14                     ; 0x2014 <f256main+0x17d0>
    57b2: a8           	tay
    57b3: a5 17        	lda	$17                     ; 0x2017 <f256main+0x17d3>
    57b5: 05 13        	ora	$13                     ; 0x2013 <f256main+0x17cf>
    57b7: 85 14        	sta	$14                     ; 0x2014 <f256main+0x17d0>
    57b9: 84 12        	sty	$12                     ; 0x2012 <f256main+0x17ce>
    57bb: a5 13        	lda	$13                     ; 0x2013 <f256main+0x17cf>
    57bd: 05 12        	ora	$12                     ; 0x2012 <f256main+0x17ce>
    57bf: 85 15        	sta	$15                     ; 0x2015 <f256main+0x17d1>
    57c1: a5 14        	lda	$14                     ; 0x2014 <f256main+0x17d0>
    57c3: 05 12        	ora	$12                     ; 0x2012 <f256main+0x17ce>
    57c5: 85 17        	sta	$17                     ; 0x2017 <f256main+0x17d3>
    57c7: 84 14        	sty	$14                     ; 0x2014 <f256main+0x17d0>
    57c9: 84 18        	sty	$18                     ; 0x2018 <f256main+0x17d4>
    57cb: 46 14        	lsr	$14                     ; 0x2014 <f256main+0x17d0>
    57cd: 4a           	lsr
    57ce: 29 55        	and	#$55
    57d0: 85 12        	sta	$12                     ; 0x2012 <f256main+0x17ce>
    57d2: a5 15        	lda	$15                     ; 0x2015 <f256main+0x17d1>
    57d4: 4a           	lsr
    57d5: 29 55        	and	#$55
    57d7: 85 13        	sta	$13                     ; 0x2013 <f256main+0x17cf>
    57d9: a5 14        	lda	$14                     ; 0x2014 <f256main+0x17d0>
    57db: 29 55        	and	#$55
    57dd: 85 14        	sta	$14                     ; 0x2014 <f256main+0x17d0>
    57df: 38           	sec
    57e0: a5 17        	lda	$17                     ; 0x2017 <f256main+0x17d3>
    57e2: e5 12        	sbc	$12                     ; 0x2012 <f256main+0x17ce>
    57e4: a8           	tay
    57e5: a5 15        	lda	$15                     ; 0x2015 <f256main+0x17d1>
    57e7: e5 13        	sbc	$13                     ; 0x2013 <f256main+0x17cf>
    57e9: 85 13        	sta	$13                     ; 0x2013 <f256main+0x17cf>
    57eb: a5 18        	lda	$18                     ; 0x2018 <f256main+0x17d4>
    57ed: e5 14        	sbc	$14                     ; 0x2014 <f256main+0x17d0>
    57ef: 85 14        	sta	$14                     ; 0x2014 <f256main+0x17d0>
    57f1: a9 00        	lda	#$0
    57f3: e9 00        	sbc	#$0
    57f5: 85 15        	sta	$15                     ; 0x2015 <f256main+0x17d1>
    57f7: 98           	tya
    57f8: 29 33        	and	#$33
    57fa: 85 12        	sta	$12                     ; 0x2012 <f256main+0x17ce>
    57fc: a5 13        	lda	$13                     ; 0x2013 <f256main+0x17cf>
    57fe: 85 18        	sta	$18                     ; 0x2018 <f256main+0x17d4>
    5800: 29 33        	and	#$33
    5802: 85 13        	sta	$13                     ; 0x2013 <f256main+0x17cf>
    5804: a5 14        	lda	$14                     ; 0x2014 <f256main+0x17d0>
    5806: 85 19        	sta	$19                     ; 0x2019 <f256main+0x17d5>
    5808: 29 33        	and	#$33
    580a: 85 14        	sta	$14                     ; 0x2014 <f256main+0x17d0>
    580c: a5 15        	lda	$15                     ; 0x2015 <f256main+0x17d1>
    580e: 4a           	lsr
    580f: 85 1a        	sta	$1a                     ; 0x201a <f256main+0x17d6>
    5811: 46 19        	lsr	$19                     ; 0x2019 <f256main+0x17d5>
    5813: 46 18        	lsr	$18                     ; 0x2018 <f256main+0x17d4>
    5815: 98           	tya
    5816: 4a           	lsr
    5817: 46 1a        	lsr	$1a                     ; 0x201a <f256main+0x17d6>
    5819: 46 19        	lsr	$19                     ; 0x2019 <f256main+0x17d5>
    581b: a4 18        	ldy	$18                     ; 0x2018 <f256main+0x17d4>
    581d: 84 17        	sty	$17                     ; 0x2017 <f256main+0x17d3>
    581f: 46 17        	lsr	$17                     ; 0x2017 <f256main+0x17d3>
    5821: 4a           	lsr
    5822: 29 33        	and	#$33
    5824: a8           	tay
    5825: a5 17        	lda	$17                     ; 0x2017 <f256main+0x17d3>
    5827: 29 33        	and	#$33
    5829: 85 17        	sta	$17                     ; 0x2017 <f256main+0x17d3>
    582b: a5 19        	lda	$19                     ; 0x2019 <f256main+0x17d5>
    582d: 29 33        	and	#$33
    582f: 85 18        	sta	$18                     ; 0x2018 <f256main+0x17d4>
    5831: a5 1a        	lda	$1a                     ; 0x201a <f256main+0x17d6>
    5833: 29 33        	and	#$33
    5835: 85 19        	sta	$19                     ; 0x2019 <f256main+0x17d5>
    5837: a5 15        	lda	$15                     ; 0x2015 <f256main+0x17d1>
    5839: 29 33        	and	#$33
    583b: 85 15        	sta	$15                     ; 0x2015 <f256main+0x17d1>
    583d: 18           	clc
    583e: 98           	tya
    583f: 65 12        	adc	$12                     ; 0x2012 <f256main+0x17ce>
    5841: 85 12        	sta	$12                     ; 0x2012 <f256main+0x17ce>
    5843: a5 17        	lda	$17                     ; 0x2017 <f256main+0x17d3>
    5845: 65 13        	adc	$13                     ; 0x2013 <f256main+0x17cf>
    5847: 85 13        	sta	$13                     ; 0x2013 <f256main+0x17cf>
    5849: a5 18        	lda	$18                     ; 0x2018 <f256main+0x17d4>
    584b: 65 14        	adc	$14                     ; 0x2014 <f256main+0x17d0>
    584d: 85 14        	sta	$14                     ; 0x2014 <f256main+0x17d0>
    584f: a5 19        	lda	$19                     ; 0x2019 <f256main+0x17d5>
    5851: 65 15        	adc	$15                     ; 0x2015 <f256main+0x17d1>
    5853: 85 15        	sta	$15                     ; 0x2015 <f256main+0x17d1>
    5855: 4a           	lsr
    5856: 85 17        	sta	$17                     ; 0x2017 <f256main+0x17d3>
    5858: a5 14        	lda	$14                     ; 0x2014 <f256main+0x17d0>
    585a: 6a           	ror
    585b: a4 13        	ldy	$13                     ; 0x2013 <f256main+0x17cf>
    585d: 84 18        	sty	$18                     ; 0x2018 <f256main+0x17d4>
    585f: 66 18        	ror	$18                     ; 0x2018 <f256main+0x17d4>
    5861: a4 12        	ldy	$12                     ; 0x2012 <f256main+0x17ce>
    5863: 84 19        	sty	$19                     ; 0x2019 <f256main+0x17d5>
    5865: 66 19        	ror	$19                     ; 0x2019 <f256main+0x17d5>
    5867: 46 17        	lsr	$17                     ; 0x2017 <f256main+0x17d3>
    5869: 6a           	ror
    586a: 66 18        	ror	$18                     ; 0x2018 <f256main+0x17d4>
    586c: 66 19        	ror	$19                     ; 0x2019 <f256main+0x17d5>
    586e: 46 17        	lsr	$17                     ; 0x2017 <f256main+0x17d3>
    5870: 6a           	ror
    5871: 66 18        	ror	$18                     ; 0x2018 <f256main+0x17d4>
    5873: 66 19        	ror	$19                     ; 0x2019 <f256main+0x17d5>
    5875: 46 17        	lsr	$17                     ; 0x2017 <f256main+0x17d3>
    5877: 6a           	ror
    5878: a8           	tay
    5879: a5 18        	lda	$18                     ; 0x2018 <f256main+0x17d4>
    587b: 85 1a        	sta	$1a                     ; 0x201a <f256main+0x17d6>
    587d: 66 1a        	ror	$1a                     ; 0x201a <f256main+0x17d6>
    587f: a5 19        	lda	$19                     ; 0x2019 <f256main+0x17d5>
    5881: 6a           	ror
    5882: 18           	clc
    5883: 65 12        	adc	$12                     ; 0x2012 <f256main+0x17ce>
    5885: 85 12        	sta	$12                     ; 0x2012 <f256main+0x17ce>
    5887: a5 1a        	lda	$1a                     ; 0x201a <f256main+0x17d6>
    5889: 65 13        	adc	$13                     ; 0x2013 <f256main+0x17cf>
    588b: 85 13        	sta	$13                     ; 0x2013 <f256main+0x17cf>
    588d: 98           	tya
    588e: 65 14        	adc	$14                     ; 0x2014 <f256main+0x17d0>
    5890: a8           	tay
    5891: a5 17        	lda	$17                     ; 0x2017 <f256main+0x17d3>
    5893: 65 15        	adc	$15                     ; 0x2015 <f256main+0x17d1>
    5895: 85 15        	sta	$15                     ; 0x2015 <f256main+0x17d1>
    5897: a5 12        	lda	$12                     ; 0x2012 <f256main+0x17ce>
    5899: 29 0f        	and	#$f
    589b: 85 12        	sta	$12                     ; 0x2012 <f256main+0x17ce>
    589d: 85 19        	sta	$19                     ; 0x2019 <f256main+0x17d5>
    589f: a5 13        	lda	$13                     ; 0x2013 <f256main+0x17cf>
    58a1: 29 0f        	and	#$f
    58a3: 85 13        	sta	$13                     ; 0x2013 <f256main+0x17cf>
    58a5: 85 18        	sta	$18                     ; 0x2018 <f256main+0x17d4>
    58a7: 98           	tya
    58a8: 29 0f        	and	#$f
    58aa: 85 14        	sta	$14                     ; 0x2014 <f256main+0x17d0>
    58ac: 85 1a        	sta	$1a                     ; 0x201a <f256main+0x17d6>
    58ae: a5 15        	lda	$15                     ; 0x2015 <f256main+0x17d1>
    58b0: 29 0f        	and	#$f
    58b2: 85 17        	sta	$17                     ; 0x2017 <f256main+0x17d3>
    58b4: 18           	clc
    58b5: a5 19        	lda	$19                     ; 0x2019 <f256main+0x17d5>
    58b7: 69 00        	adc	#$0
    58b9: 85 15        	sta	$15                     ; 0x2015 <f256main+0x17d1>
    58bb: 85 19        	sta	$19                     ; 0x2019 <f256main+0x17d5>
    58bd: a5 18        	lda	$18                     ; 0x2018 <f256main+0x17d4>
    58bf: 65 12        	adc	$12                     ; 0x2012 <f256main+0x17ce>
    58c1: 85 12        	sta	$12                     ; 0x2012 <f256main+0x17ce>
    58c3: a8           	tay
    58c4: a5 1a        	lda	$1a                     ; 0x201a <f256main+0x17d6>
    58c6: 65 13        	adc	$13                     ; 0x2013 <f256main+0x17cf>
    58c8: 85 18        	sta	$18                     ; 0x2018 <f256main+0x17d4>
    58ca: a5 17        	lda	$17                     ; 0x2017 <f256main+0x17d3>
    58cc: 65 14        	adc	$14                     ; 0x2014 <f256main+0x17d0>
    58ce: 85 13        	sta	$13                     ; 0x2013 <f256main+0x17cf>
    58d0: 18           	clc
    58d1: a5 19        	lda	$19                     ; 0x2019 <f256main+0x17d5>
    58d3: 69 00        	adc	#$0
    58d5: 98           	tya
    58d6: 69 00        	adc	#$0
    58d8: a5 18        	lda	$18                     ; 0x2018 <f256main+0x17d4>
    58da: 65 15        	adc	$15                     ; 0x2015 <f256main+0x17d1>
    58dc: a5 13        	lda	$13                     ; 0x2013 <f256main+0x17cf>
    58de: 65 12        	adc	$12                     ; 0x2012 <f256main+0x17ce>
    58e0: 85 12        	sta	$12                     ; 0x2012 <f256main+0x17ce>
    58e2: a9 20        	lda	#$20
    58e4: 38           	sec
    58e5: e5 12        	sbc	$12                     ; 0x2012 <f256main+0x17ce>
    58e7: a8           	tay
    58e8: a9 00        	lda	#$0
    58ea: e9 00        	sbc	#$0
    58ec: 85 14        	sta	$14                     ; 0x2014 <f256main+0x17d0>
    58ee: 64 13        	stz	$13                     ; 0x2013 <f256main+0x17cf>
    58f0: 98           	tya
    58f1: 84 96        	sty	$96                     ; 0x2096 <f256main+0x1852>
    58f3: a4 14        	ldy	$14                     ; 0x2014 <f256main+0x17d0>
    58f5: 84 95        	sty	$95                     ; 0x2095 <f256main+0x1851>
    58f7: 18           	clc
    58f8: 69 f8        	adc	#$f8
    58fa: 85 14        	sta	$14                     ; 0x2014 <f256main+0x17d0>
    58fc: a4 16        	ldy	$16                     ; 0x2016 <f256main+0x17d2>
    58fe: 84 12        	sty	$12                     ; 0x2012 <f256main+0x17ce>
    5900: a5 1b        	lda	$1b                     ; 0x201b <f256main+0x17d7>
    5902: 20 37 51     	jsr	$5137 <__ashlsi3>
    5905: 85 94        	sta	$94                     ; 0x2094 <f256main+0x1850>
    5907: 86 14        	stx	$14                     ; 0x2014 <f256main+0x17d0>
    5909: a6 12        	ldx	$12                     ; 0x2012 <f256main+0x17ce>
    590b: 86 8f        	stx	$8f                     ; 0x208f <f256main+0x184b>
    590d: a6 13        	ldx	$13                     ; 0x2013 <f256main+0x17cf>
    590f: a9 09        	lda	#$9
    5911: a4 96        	ldy	$96                     ; 0x2096 <f256main+0x1852>
    5913: 84 12        	sty	$12                     ; 0x2012 <f256main+0x17ce>
    5915: 38           	sec
    5916: e5 12        	sbc	$12                     ; 0x2012 <f256main+0x17ce>
    5918: 85 96        	sta	$96                     ; 0x2096 <f256main+0x1852>
    591a: a9 00        	lda	#$0
    591c: a4 95        	ldy	$95                     ; 0x2095 <f256main+0x1851>
    591e: 84 12        	sty	$12                     ; 0x2012 <f256main+0x17ce>
    5920: e5 12        	sbc	$12                     ; 0x2012 <f256main+0x17ce>
    5922: 85 95        	sta	$95                     ; 0x2095 <f256main+0x1851>
    5924: a4 93        	ldy	$93                     ; 0x2093 <f256main+0x184f>
    5926: 84 12        	sty	$12                     ; 0x2012 <f256main+0x17ce>
    5928: a5 8d        	lda	$8d                     ; 0x208d <f256main+0x1849>
    592a: a4 92        	ldy	$92                     ; 0x2092 <f256main+0x184e>
    592c: f0 03        	beq	$5931 <__mulsf3+0x3f5>
    592e: 4c 57 5b     	jmp	$5b57 <__mulsf3+0x61b>
    5931: c9 80        	cmp	#$80
    5933: d0 0c        	bne	$5941 <__mulsf3+0x405>
    5935: a5 8c        	lda	$8c                     ; 0x208c <f256main+0x1848>
    5937: f0 03        	beq	$593c <__mulsf3+0x400>
    5939: 4c 55 5b     	jmp	$5b55 <__mulsf3+0x619>
    593c: a4 8b        	ldy	$8b                     ; 0x208b <f256main+0x1847>
    593e: 4c 57 5b     	jmp	$5b57 <__mulsf3+0x61b>
    5941: c9 80        	cmp	#$80
    5943: 90 03        	bcc	$5948 <__mulsf3+0x40c>
    5945: 4c 5e 5b     	jmp	$5b5e <__mulsf3+0x622>
    5948: a5 14        	lda	$14                     ; 0x2014 <f256main+0x17d0>
    594a: 85 98        	sta	$98                     ; 0x2098 <f256main+0x1854>
    594c: a4 12        	ldy	$12                     ; 0x2012 <f256main+0x17ce>
    594e: 84 93        	sty	$93                     ; 0x2093 <f256main+0x184f>
    5950: 86 97        	stx	$97                     ; 0x2097 <f256main+0x1853>
    5952: a4 90        	ldy	$90                     ; 0x2090 <f256main+0x184c>
    5954: 98           	tya
    5955: 4a           	lsr
    5956: 85 12        	sta	$12                     ; 0x2012 <f256main+0x17ce>
    5958: a6 8c        	ldx	$8c                     ; 0x208c <f256main+0x1848>
    595a: a5 8c        	lda	$8c                     ; 0x208c <f256main+0x1848>
    595c: 6a           	ror
    595d: 85 13        	sta	$13                     ; 0x2013 <f256main+0x17cf>
    595f: a5 8b        	lda	$8b                     ; 0x208b <f256main+0x1847>
    5961: 6a           	ror
    5962: 85 14        	sta	$14                     ; 0x2014 <f256main+0x17d0>
    5964: a5 8b        	lda	$8b                     ; 0x208b <f256main+0x1847>
    5966: 05 14        	ora	$14                     ; 0x2014 <f256main+0x17d0>
    5968: 85 16        	sta	$16                     ; 0x2016 <f256main+0x17d2>
    596a: a5 8c        	lda	$8c                     ; 0x208c <f256main+0x1848>
    596c: 05 13        	ora	$13                     ; 0x2013 <f256main+0x17cf>
    596e: 85 15        	sta	$15                     ; 0x2015 <f256main+0x17d1>
    5970: 98           	tya
    5971: 05 12        	ora	$12                     ; 0x2012 <f256main+0x17ce>
    5973: 85 17        	sta	$17                     ; 0x2017 <f256main+0x17d3>
    5975: 4a           	lsr
    5976: 5a           	phy
    5977: a4 15        	ldy	$15                     ; 0x2015 <f256main+0x17d1>
    5979: 84 12        	sty	$12                     ; 0x2012 <f256main+0x17ce>
    597b: 66 12        	ror	$12                     ; 0x2012 <f256main+0x17ce>
    597d: a4 16        	ldy	$16                     ; 0x2016 <f256main+0x17d2>
    597f: 84 13        	sty	$13                     ; 0x2013 <f256main+0x17cf>
    5981: 66 13        	ror	$13                     ; 0x2013 <f256main+0x17cf>
    5983: 4a           	lsr
    5984: 85 14        	sta	$14                     ; 0x2014 <f256main+0x17d0>
    5986: 66 12        	ror	$12                     ; 0x2012 <f256main+0x17ce>
    5988: 66 13        	ror	$13                     ; 0x2013 <f256main+0x17cf>
    598a: a5 16        	lda	$16                     ; 0x2016 <f256main+0x17d2>
    598c: 05 13        	ora	$13                     ; 0x2013 <f256main+0x17cf>
    598e: 85 16        	sta	$16                     ; 0x2016 <f256main+0x17d2>
    5990: a5 15        	lda	$15                     ; 0x2015 <f256main+0x17d1>
    5992: 05 12        	ora	$12                     ; 0x2012 <f256main+0x17ce>
    5994: 85 15        	sta	$15                     ; 0x2015 <f256main+0x17d1>
    5996: a5 17        	lda	$17                     ; 0x2017 <f256main+0x17d3>
    5998: 05 14        	ora	$14                     ; 0x2014 <f256main+0x17d0>
    599a: 85 17        	sta	$17                     ; 0x2017 <f256main+0x17d3>
    599c: 4a           	lsr
    599d: a4 15        	ldy	$15                     ; 0x2015 <f256main+0x17d1>
    599f: 84 12        	sty	$12                     ; 0x2012 <f256main+0x17ce>
    59a1: 66 12        	ror	$12                     ; 0x2012 <f256main+0x17ce>
    59a3: a4 16        	ldy	$16                     ; 0x2016 <f256main+0x17d2>
    59a5: 84 13        	sty	$13                     ; 0x2013 <f256main+0x17cf>
    59a7: 66 13        	ror	$13                     ; 0x2013 <f256main+0x17cf>
    59a9: 4a           	lsr
    59aa: 66 12        	ror	$12                     ; 0x2012 <f256main+0x17ce>
    59ac: 66 13        	ror	$13                     ; 0x2013 <f256main+0x17cf>
    59ae: 4a           	lsr
    59af: 66 12        	ror	$12                     ; 0x2012 <f256main+0x17ce>
    59b1: 66 13        	ror	$13                     ; 0x2013 <f256main+0x17cf>
    59b3: 4a           	lsr
    59b4: 85 14        	sta	$14                     ; 0x2014 <f256main+0x17d0>
    59b6: 66 12        	ror	$12                     ; 0x2012 <f256main+0x17ce>
    59b8: 66 13        	ror	$13                     ; 0x2013 <f256main+0x17cf>
    59ba: a5 16        	lda	$16                     ; 0x2016 <f256main+0x17d2>
    59bc: 05 13        	ora	$13                     ; 0x2013 <f256main+0x17cf>
    59be: 85 16        	sta	$16                     ; 0x2016 <f256main+0x17d2>
    59c0: a5 15        	lda	$15                     ; 0x2015 <f256main+0x17d1>
    59c2: 05 12        	ora	$12                     ; 0x2012 <f256main+0x17ce>
    59c4: 85 13        	sta	$13                     ; 0x2013 <f256main+0x17cf>
    59c6: a5 17        	lda	$17                     ; 0x2017 <f256main+0x17d3>
    59c8: 05 14        	ora	$14                     ; 0x2014 <f256main+0x17d0>
    59ca: 85 17        	sta	$17                     ; 0x2017 <f256main+0x17d3>
    59cc: a5 16        	lda	$16                     ; 0x2016 <f256main+0x17d2>
    59ce: 05 13        	ora	$13                     ; 0x2013 <f256main+0x17cf>
    59d0: 85 14        	sta	$14                     ; 0x2014 <f256main+0x17d0>
    59d2: a5 13        	lda	$13                     ; 0x2013 <f256main+0x17cf>
    59d4: 05 17        	ora	$17                     ; 0x2017 <f256main+0x17d3>
    59d6: 85 15        	sta	$15                     ; 0x2015 <f256main+0x17d1>
    59d8: a5 14        	lda	$14                     ; 0x2014 <f256main+0x17d0>
    59da: 05 17        	ora	$17                     ; 0x2017 <f256main+0x17d3>
    59dc: 85 16        	sta	$16                     ; 0x2016 <f256main+0x17d2>
    59de: a5 17        	lda	$17                     ; 0x2017 <f256main+0x17d3>
    59e0: 85 14        	sta	$14                     ; 0x2014 <f256main+0x17d0>
    59e2: 46 14        	lsr	$14                     ; 0x2014 <f256main+0x17d0>
    59e4: a5 16        	lda	$16                     ; 0x2016 <f256main+0x17d2>
    59e6: 4a           	lsr
    59e7: 29 55        	and	#$55
    59e9: 85 12        	sta	$12                     ; 0x2012 <f256main+0x17ce>
    59eb: a5 15        	lda	$15                     ; 0x2015 <f256main+0x17d1>
    59ed: 4a           	lsr
    59ee: 29 55        	and	#$55
    59f0: 85 13        	sta	$13                     ; 0x2013 <f256main+0x17cf>
    59f2: a5 14        	lda	$14                     ; 0x2014 <f256main+0x17d0>
    59f4: 29 55        	and	#$55
    59f6: 85 14        	sta	$14                     ; 0x2014 <f256main+0x17d0>
    59f8: 38           	sec
    59f9: a5 16        	lda	$16                     ; 0x2016 <f256main+0x17d2>
    59fb: e5 12        	sbc	$12                     ; 0x2012 <f256main+0x17ce>
    59fd: 85 12        	sta	$12                     ; 0x2012 <f256main+0x17ce>
    59ff: a5 15        	lda	$15                     ; 0x2015 <f256main+0x17d1>
    5a01: e5 13        	sbc	$13                     ; 0x2013 <f256main+0x17cf>
    5a03: 85 13        	sta	$13                     ; 0x2013 <f256main+0x17cf>
    5a05: a5 17        	lda	$17                     ; 0x2017 <f256main+0x17d3>
    5a07: e5 14        	sbc	$14                     ; 0x2014 <f256main+0x17d0>
    5a09: 85 14        	sta	$14                     ; 0x2014 <f256main+0x17d0>
    5a0b: a9 00        	lda	#$0
    5a0d: e9 00        	sbc	#$0
    5a0f: 85 15        	sta	$15                     ; 0x2015 <f256main+0x17d1>
    5a11: a5 12        	lda	$12                     ; 0x2012 <f256main+0x17ce>
    5a13: 85 16        	sta	$16                     ; 0x2016 <f256main+0x17d2>
    5a15: 29 33        	and	#$33
    5a17: 85 12        	sta	$12                     ; 0x2012 <f256main+0x17ce>
    5a19: a5 13        	lda	$13                     ; 0x2013 <f256main+0x17cf>
    5a1b: 85 17        	sta	$17                     ; 0x2017 <f256main+0x17d3>
    5a1d: 29 33        	and	#$33
    5a1f: 85 13        	sta	$13                     ; 0x2013 <f256main+0x17cf>
    5a21: a5 14        	lda	$14                     ; 0x2014 <f256main+0x17d0>
    5a23: 85 18        	sta	$18                     ; 0x2018 <f256main+0x17d4>
    5a25: 29 33        	and	#$33
    5a27: 85 14        	sta	$14                     ; 0x2014 <f256main+0x17d0>
    5a29: a5 15        	lda	$15                     ; 0x2015 <f256main+0x17d1>
    5a2b: 4a           	lsr
    5a2c: 85 19        	sta	$19                     ; 0x2019 <f256main+0x17d5>
    5a2e: 46 18        	lsr	$18                     ; 0x2018 <f256main+0x17d4>
    5a30: 46 17        	lsr	$17                     ; 0x2017 <f256main+0x17d3>
    5a32: a5 16        	lda	$16                     ; 0x2016 <f256main+0x17d2>
    5a34: 4a           	lsr
    5a35: 46 19        	lsr	$19                     ; 0x2019 <f256main+0x17d5>
    5a37: 46 18        	lsr	$18                     ; 0x2018 <f256main+0x17d4>
    5a39: a4 17        	ldy	$17                     ; 0x2017 <f256main+0x17d3>
    5a3b: 84 16        	sty	$16                     ; 0x2016 <f256main+0x17d2>
    5a3d: 46 16        	lsr	$16                     ; 0x2016 <f256main+0x17d2>
    5a3f: 4a           	lsr
    5a40: 29 33        	and	#$33
    5a42: 85 1a        	sta	$1a                     ; 0x201a <f256main+0x17d6>
    5a44: a5 16        	lda	$16                     ; 0x2016 <f256main+0x17d2>
    5a46: 29 33        	and	#$33
    5a48: 85 16        	sta	$16                     ; 0x2016 <f256main+0x17d2>
    5a4a: a5 18        	lda	$18                     ; 0x2018 <f256main+0x17d4>
    5a4c: 29 33        	and	#$33
    5a4e: 85 17        	sta	$17                     ; 0x2017 <f256main+0x17d3>
    5a50: a5 19        	lda	$19                     ; 0x2019 <f256main+0x17d5>
    5a52: 29 33        	and	#$33
    5a54: 85 18        	sta	$18                     ; 0x2018 <f256main+0x17d4>
    5a56: a5 15        	lda	$15                     ; 0x2015 <f256main+0x17d1>
    5a58: 29 33        	and	#$33
    5a5a: 85 15        	sta	$15                     ; 0x2015 <f256main+0x17d1>
    5a5c: 18           	clc
    5a5d: a5 1a        	lda	$1a                     ; 0x201a <f256main+0x17d6>
    5a5f: 65 12        	adc	$12                     ; 0x2012 <f256main+0x17ce>
    5a61: 85 12        	sta	$12                     ; 0x2012 <f256main+0x17ce>
    5a63: a5 16        	lda	$16                     ; 0x2016 <f256main+0x17d2>
    5a65: 65 13        	adc	$13                     ; 0x2013 <f256main+0x17cf>
    5a67: 85 13        	sta	$13                     ; 0x2013 <f256main+0x17cf>
    5a69: a5 17        	lda	$17                     ; 0x2017 <f256main+0x17d3>
    5a6b: 65 14        	adc	$14                     ; 0x2014 <f256main+0x17d0>
    5a6d: 85 14        	sta	$14                     ; 0x2014 <f256main+0x17d0>
    5a6f: a5 18        	lda	$18                     ; 0x2018 <f256main+0x17d4>
    5a71: 65 15        	adc	$15                     ; 0x2015 <f256main+0x17d1>
    5a73: 85 15        	sta	$15                     ; 0x2015 <f256main+0x17d1>
    5a75: 4a           	lsr
    5a76: 85 16        	sta	$16                     ; 0x2016 <f256main+0x17d2>
    5a78: a5 14        	lda	$14                     ; 0x2014 <f256main+0x17d0>
    5a7a: 6a           	ror
    5a7b: a4 13        	ldy	$13                     ; 0x2013 <f256main+0x17cf>
    5a7d: 84 17        	sty	$17                     ; 0x2017 <f256main+0x17d3>
    5a7f: 66 17        	ror	$17                     ; 0x2017 <f256main+0x17d3>
    5a81: a4 12        	ldy	$12                     ; 0x2012 <f256main+0x17ce>
    5a83: 84 18        	sty	$18                     ; 0x2018 <f256main+0x17d4>
    5a85: 7a           	ply
    5a86: 66 18        	ror	$18                     ; 0x2018 <f256main+0x17d4>
    5a88: 46 16        	lsr	$16                     ; 0x2016 <f256main+0x17d2>
    5a8a: 6a           	ror
    5a8b: 66 17        	ror	$17                     ; 0x2017 <f256main+0x17d3>
    5a8d: 66 18        	ror	$18                     ; 0x2018 <f256main+0x17d4>
    5a8f: 46 16        	lsr	$16                     ; 0x2016 <f256main+0x17d2>
    5a91: 6a           	ror
    5a92: 66 17        	ror	$17                     ; 0x2017 <f256main+0x17d3>
    5a94: 66 18        	ror	$18                     ; 0x2018 <f256main+0x17d4>
    5a96: 46 16        	lsr	$16                     ; 0x2016 <f256main+0x17d2>
    5a98: 6a           	ror
    5a99: 85 19        	sta	$19                     ; 0x2019 <f256main+0x17d5>
    5a9b: a5 17        	lda	$17                     ; 0x2017 <f256main+0x17d3>
    5a9d: 85 1a        	sta	$1a                     ; 0x201a <f256main+0x17d6>
    5a9f: 66 1a        	ror	$1a                     ; 0x201a <f256main+0x17d6>
    5aa1: a5 18        	lda	$18                     ; 0x2018 <f256main+0x17d4>
    5aa3: 6a           	ror
    5aa4: 18           	clc
    5aa5: 65 12        	adc	$12                     ; 0x2012 <f256main+0x17ce>
    5aa7: 85 12        	sta	$12                     ; 0x2012 <f256main+0x17ce>
    5aa9: a5 1a        	lda	$1a                     ; 0x201a <f256main+0x17d6>
    5aab: 65 13        	adc	$13                     ; 0x2013 <f256main+0x17cf>
    5aad: 85 13        	sta	$13                     ; 0x2013 <f256main+0x17cf>
    5aaf: a5 19        	lda	$19                     ; 0x2019 <f256main+0x17d5>
    5ab1: 65 14        	adc	$14                     ; 0x2014 <f256main+0x17d0>
    5ab3: 85 14        	sta	$14                     ; 0x2014 <f256main+0x17d0>
    5ab5: a5 16        	lda	$16                     ; 0x2016 <f256main+0x17d2>
    5ab7: 65 15        	adc	$15                     ; 0x2015 <f256main+0x17d1>
    5ab9: 85 15        	sta	$15                     ; 0x2015 <f256main+0x17d1>
    5abb: a5 12        	lda	$12                     ; 0x2012 <f256main+0x17ce>
    5abd: 29 0f        	and	#$f
    5abf: 85 12        	sta	$12                     ; 0x2012 <f256main+0x17ce>
    5ac1: 85 17        	sta	$17                     ; 0x2017 <f256main+0x17d3>
    5ac3: a5 13        	lda	$13                     ; 0x2013 <f256main+0x17cf>
    5ac5: 29 0f        	and	#$f
    5ac7: 85 13        	sta	$13                     ; 0x2013 <f256main+0x17cf>
    5ac9: 85 19        	sta	$19                     ; 0x2019 <f256main+0x17d5>
    5acb: a5 14        	lda	$14                     ; 0x2014 <f256main+0x17d0>
    5acd: 29 0f        	and	#$f
    5acf: 85 14        	sta	$14                     ; 0x2014 <f256main+0x17d0>
    5ad1: 85 18        	sta	$18                     ; 0x2018 <f256main+0x17d4>
    5ad3: a5 15        	lda	$15                     ; 0x2015 <f256main+0x17d1>
    5ad5: 29 0f        	and	#$f
    5ad7: 85 16        	sta	$16                     ; 0x2016 <f256main+0x17d2>
    5ad9: 18           	clc
    5ada: a5 17        	lda	$17                     ; 0x2017 <f256main+0x17d3>
    5adc: 69 00        	adc	#$0
    5ade: 85 15        	sta	$15                     ; 0x2015 <f256main+0x17d1>
    5ae0: 85 1a        	sta	$1a                     ; 0x201a <f256main+0x17d6>
    5ae2: a5 19        	lda	$19                     ; 0x2019 <f256main+0x17d5>
    5ae4: 65 12        	adc	$12                     ; 0x2012 <f256main+0x17ce>
    5ae6: 85 12        	sta	$12                     ; 0x2012 <f256main+0x17ce>
    5ae8: a5 18        	lda	$18                     ; 0x2018 <f256main+0x17d4>
    5aea: 65 13        	adc	$13                     ; 0x2013 <f256main+0x17cf>
    5aec: 85 17        	sta	$17                     ; 0x2017 <f256main+0x17d3>
    5aee: a5 16        	lda	$16                     ; 0x2016 <f256main+0x17d2>
    5af0: 65 14        	adc	$14                     ; 0x2014 <f256main+0x17d0>
    5af2: 85 13        	sta	$13                     ; 0x2013 <f256main+0x17cf>
    5af4: 18           	clc
    5af5: a5 1a        	lda	$1a                     ; 0x201a <f256main+0x17d6>
    5af7: 69 00        	adc	#$0
    5af9: a5 12        	lda	$12                     ; 0x2012 <f256main+0x17ce>
    5afb: 69 00        	adc	#$0
    5afd: a5 17        	lda	$17                     ; 0x2017 <f256main+0x17d3>
    5aff: 65 15        	adc	$15                     ; 0x2015 <f256main+0x17d1>
    5b01: a5 13        	lda	$13                     ; 0x2013 <f256main+0x17cf>
    5b03: 65 12        	adc	$12                     ; 0x2012 <f256main+0x17ce>
    5b05: 85 12        	sta	$12                     ; 0x2012 <f256main+0x17ce>
    5b07: a9 20        	lda	#$20
    5b09: 38           	sec
    5b0a: e5 12        	sbc	$12                     ; 0x2012 <f256main+0x17ce>
    5b0c: 85 13        	sta	$13                     ; 0x2013 <f256main+0x17cf>
    5b0e: 85 92        	sta	$92                     ; 0x2092 <f256main+0x184e>
    5b10: a9 00        	lda	#$0
    5b12: e9 00        	sbc	#$0
    5b14: 85 8d        	sta	$8d                     ; 0x208d <f256main+0x1849>
    5b16: 18           	clc
    5b17: a5 13        	lda	$13                     ; 0x2013 <f256main+0x17cf>
    5b19: 69 f8        	adc	#$f8
    5b1b: 84 12        	sty	$12                     ; 0x2012 <f256main+0x17ce>
    5b1d: 64 13        	stz	$13                     ; 0x2013 <f256main+0x17cf>
    5b1f: 85 14        	sta	$14                     ; 0x2014 <f256main+0x17d0>
    5b21: a5 8b        	lda	$8b                     ; 0x208b <f256main+0x1847>
    5b23: 20 37 51     	jsr	$5137 <__ashlsi3>
    5b26: 85 8b        	sta	$8b                     ; 0x208b <f256main+0x1847>
    5b28: 86 8c        	stx	$8c                     ; 0x208c <f256main+0x1848>
    5b2a: a6 12        	ldx	$12                     ; 0x2012 <f256main+0x17ce>
    5b2c: 86 90        	stx	$90                     ; 0x2090 <f256main+0x184c>
    5b2e: a6 96        	ldx	$96                     ; 0x2096 <f256main+0x1852>
    5b30: 8a           	txa
    5b31: a6 92        	ldx	$92                     ; 0x2092 <f256main+0x184e>
    5b33: 86 12        	stx	$12                     ; 0x2012 <f256main+0x17ce>
    5b35: 38           	sec
    5b36: e5 12        	sbc	$12                     ; 0x2012 <f256main+0x17ce>
    5b38: aa           	tax
    5b39: a5 95        	lda	$95                     ; 0x2095 <f256main+0x1851>
    5b3b: e5 8d        	sbc	$8d                     ; 0x208d <f256main+0x1849>
    5b3d: a8           	tay
    5b3e: 18           	clc
    5b3f: 8a           	txa
    5b40: 69 09        	adc	#$9
    5b42: 85 12        	sta	$12                     ; 0x2012 <f256main+0x17ce>
    5b44: 98           	tya
    5b45: 69 00        	adc	#$0
    5b47: a6 12        	ldx	$12                     ; 0x2012 <f256main+0x17ce>
    5b49: 86 92        	stx	$92                     ; 0x2092 <f256main+0x184e>
    5b4b: 85 95        	sta	$95                     ; 0x2095 <f256main+0x1851>
    5b4d: a6 97        	ldx	$97                     ; 0x2097 <f256main+0x1853>
    5b4f: a5 98        	lda	$98                     ; 0x2098 <f256main+0x1854>
    5b51: 85 14        	sta	$14                     ; 0x2014 <f256main+0x17d0>
    5b53: 80 15        	bra	$5b6a <__mulsf3+0x62e>
    5b55: a4 8c        	ldy	$8c                     ; 0x208c <f256main+0x1848>
    5b57: c0 00        	cpy	#$0
    5b59: b0 03        	bcs	$5b5e <__mulsf3+0x622>
    5b5b: 4c 48 59     	jmp	$5948 <__mulsf3+0x40c>
    5b5e: a4 12        	ldy	$12                     ; 0x2012 <f256main+0x17ce>
    5b60: 84 93        	sty	$93                     ; 0x2093 <f256main+0x184f>
    5b62: a4 96        	ldy	$96                     ; 0x2096 <f256main+0x1852>
    5b64: 84 92        	sty	$92                     ; 0x2092 <f256main+0x184e>
    5b66: a4 95        	ldy	$95                     ; 0x2095 <f256main+0x1851>
    5b68: 84 95        	sty	$95                     ; 0x2095 <f256main+0x1851>
    5b6a: a5 8f        	lda	$8f                     ; 0x208f <f256main+0x184b>
    5b6c: 09 80        	ora	#$80
    5b6e: 85 1a        	sta	$1a                     ; 0x201a <f256main+0x17d6>
    5b70: a5 90        	lda	$90                     ; 0x2090 <f256main+0x184c>
    5b72: 09 80        	ora	#$80
    5b74: a4 8c        	ldy	$8c                     ; 0x208c <f256main+0x1848>
    5b76: 84 12        	sty	$12                     ; 0x2012 <f256main+0x17ce>
    5b78: 85 13        	sta	$13                     ; 0x2013 <f256main+0x17cf>
    5b7a: a4 94        	ldy	$94                     ; 0x2094 <f256main+0x1850>
    5b7c: 84 18        	sty	$18                     ; 0x2018 <f256main+0x17d4>
    5b7e: a4 14        	ldy	$14                     ; 0x2014 <f256main+0x17d0>
    5b80: 84 19        	sty	$19                     ; 0x2019 <f256main+0x17d5>
    5b82: 64 14        	stz	$14                     ; 0x2014 <f256main+0x17d0>
    5b84: 64 15        	stz	$15                     ; 0x2015 <f256main+0x17d1>
    5b86: 64 16        	stz	$16                     ; 0x2016 <f256main+0x17d2>
    5b88: 64 17        	stz	$17                     ; 0x2017 <f256main+0x17d3>
    5b8a: 86 1b        	stx	$1b                     ; 0x201b <f256main+0x17d7>
    5b8c: 64 1c        	stz	$1c                     ; 0x201c <f256main+0x17d8>
    5b8e: 64 1d        	stz	$1d                     ; 0x201d <f256main+0x17d9>
    5b90: 64 1e        	stz	$1e                     ; 0x201e <f256main+0x17da>
    5b92: 64 1f        	stz	$1f                     ; 0x201f <f256main+0x17db>
    5b94: a6 8b        	ldx	$8b                     ; 0x208b <f256main+0x1847>
    5b96: a9 00        	lda	#$0
    5b98: 20 22 52     	jsr	$5222 <__muldi3>
    5b9b: 85 8c        	sta	$8c                     ; 0x208c <f256main+0x1848>
    5b9d: 86 8b        	stx	$8b                     ; 0x208b <f256main+0x1847>
    5b9f: a6 12        	ldx	$12                     ; 0x2012 <f256main+0x17ce>
    5ba1: 86 8d        	stx	$8d                     ; 0x208d <f256main+0x1849>
    5ba3: a6 13        	ldx	$13                     ; 0x2013 <f256main+0x17cf>
    5ba5: 86 18        	stx	$18                     ; 0x2018 <f256main+0x17d4>
    5ba7: a6 93        	ldx	$93                     ; 0x2093 <f256main+0x184f>
    5ba9: 86 12        	stx	$12                     ; 0x2012 <f256main+0x17ce>
    5bab: a6 91        	ldx	$91                     ; 0x2091 <f256main+0x184d>
    5bad: 8a           	txa
    5bae: 18           	clc
    5baf: 65 12        	adc	$12                     ; 0x2012 <f256main+0x17ce>
    5bb1: a8           	tay
    5bb2: a9 00        	lda	#$0
    5bb4: 69 00        	adc	#$0
    5bb6: 85 13        	sta	$13                     ; 0x2013 <f256main+0x17cf>
    5bb8: a6 92        	ldx	$92                     ; 0x2092 <f256main+0x184e>
    5bba: 86 12        	stx	$12                     ; 0x2012 <f256main+0x17ce>
    5bbc: 18           	clc
    5bbd: 98           	tya
    5bbe: 65 12        	adc	$12                     ; 0x2012 <f256main+0x17ce>
    5bc0: a8           	tay
    5bc1: a6 95        	ldx	$95                     ; 0x2095 <f256main+0x1851>
    5bc3: 86 12        	stx	$12                     ; 0x2012 <f256main+0x17ce>
    5bc5: a5 13        	lda	$13                     ; 0x2013 <f256main+0x17cf>
    5bc7: 65 12        	adc	$12                     ; 0x2012 <f256main+0x17ce>
    5bc9: 85 12        	sta	$12                     ; 0x2012 <f256main+0x17ce>
    5bcb: a5 16        	lda	$16                     ; 0x2016 <f256main+0x17d2>
    5bcd: 29 80        	and	#$80
    5bcf: f0 03        	beq	$5bd4 <__mulsf3+0x698>
    5bd1: 4c 27 5c     	jmp	$5c27 <__mulsf3+0x6eb>
    5bd4: 98           	tya
    5bd5: 18           	clc
    5bd6: 69 81        	adc	#$81
    5bd8: a8           	tay
    5bd9: a5 12        	lda	$12                     ; 0x2012 <f256main+0x17ce>
    5bdb: 69 ff        	adc	#$ff
    5bdd: 85 12        	sta	$12                     ; 0x2012 <f256main+0x17ce>
    5bdf: 06 14        	asl	$14                     ; 0x2014 <f256main+0x17d0>
    5be1: 26 15        	rol	$15                     ; 0x2015 <f256main+0x17d1>
    5be3: 26 16        	rol	$16                     ; 0x2016 <f256main+0x17d2>
    5be5: a6 16        	ldx	$16                     ; 0x2016 <f256main+0x17d2>
    5be7: 86 13        	stx	$13                     ; 0x2013 <f256main+0x17cf>
    5be9: 26 17        	rol	$17                     ; 0x2017 <f256main+0x17d3>
    5beb: a5 18        	lda	$18                     ; 0x2018 <f256main+0x17d4>
    5bed: 0a           	asl
    5bee: a9 00        	lda	#$0
    5bf0: 2a           	rol
    5bf1: 85 19        	sta	$19                     ; 0x2019 <f256main+0x17d5>
    5bf3: 64 1a        	stz	$1a                     ; 0x201a <f256main+0x17d6>
    5bf5: 26 1a        	rol	$1a                     ; 0x201a <f256main+0x17d6>
    5bf7: 64 16        	stz	$16                     ; 0x2016 <f256main+0x17d2>
    5bf9: 26 16        	rol	$16                     ; 0x2016 <f256main+0x17d2>
    5bfb: a9 00        	lda	#$0
    5bfd: 2a           	rol
    5bfe: 85 1b        	sta	$1b                     ; 0x201b <f256main+0x17d7>
    5c00: 06 8c        	asl	$8c                     ; 0x208c <f256main+0x1848>
    5c02: 26 8b        	rol	$8b                     ; 0x208b <f256main+0x1847>
    5c04: 26 8d        	rol	$8d                     ; 0x208d <f256main+0x1849>
    5c06: 26 18        	rol	$18                     ; 0x2018 <f256main+0x17d4>
    5c08: a6 18        	ldx	$18                     ; 0x2018 <f256main+0x17d4>
    5c0a: 86 90        	stx	$90                     ; 0x2090 <f256main+0x184c>
    5c0c: a5 19        	lda	$19                     ; 0x2019 <f256main+0x17d5>
    5c0e: 05 14        	ora	$14                     ; 0x2014 <f256main+0x17d0>
    5c10: 85 14        	sta	$14                     ; 0x2014 <f256main+0x17d0>
    5c12: a5 1a        	lda	$1a                     ; 0x201a <f256main+0x17d6>
    5c14: 05 15        	ora	$15                     ; 0x2015 <f256main+0x17d1>
    5c16: 85 15        	sta	$15                     ; 0x2015 <f256main+0x17d1>
    5c18: a5 1b        	lda	$1b                     ; 0x201b <f256main+0x17d7>
    5c1a: 05 17        	ora	$17                     ; 0x2017 <f256main+0x17d3>
    5c1c: 85 17        	sta	$17                     ; 0x2017 <f256main+0x17d3>
    5c1e: a5 16        	lda	$16                     ; 0x2016 <f256main+0x17d2>
    5c20: 05 13        	ora	$13                     ; 0x2013 <f256main+0x17cf>
    5c22: 85 8f        	sta	$8f                     ; 0x208f <f256main+0x184b>
    5c24: 98           	tya
    5c25: 80 14        	bra	$5c3b <__mulsf3+0x6ff>
    5c27: a6 16        	ldx	$16                     ; 0x2016 <f256main+0x17d2>
    5c29: 86 8f        	stx	$8f                     ; 0x208f <f256main+0x184b>
    5c2b: a6 18        	ldx	$18                     ; 0x2018 <f256main+0x17d4>
    5c2d: 86 90        	stx	$90                     ; 0x2090 <f256main+0x184c>
    5c2f: 98           	tya
    5c30: 18           	clc
    5c31: 69 82        	adc	#$82
    5c33: aa           	tax
    5c34: a5 12        	lda	$12                     ; 0x2012 <f256main+0x17ce>
    5c36: 69 ff        	adc	#$ff
    5c38: 85 12        	sta	$12                     ; 0x2012 <f256main+0x17ce>
    5c3a: 8a           	txa
    5c3b: a8           	tay
    5c3c: c9 ff        	cmp	#$ff
    5c3e: a5 12        	lda	$12                     ; 0x2012 <f256main+0x17ce>
    5c40: e9 00        	sbc	#$0
    5c42: 50 02        	bvc	$5c46 <__mulsf3+0x70a>
    5c44: 49 80        	eor	#$80
    5c46: aa           	tax
    5c47: 30 0e        	bmi	$5c57 <__mulsf3+0x71b>
    5c49: a5 8e        	lda	$8e                     ; 0x208e <f256main+0x184a>
    5c4b: 09 7f        	ora	#$7f
    5c4d: 64 14        	stz	$14                     ; 0x2014 <f256main+0x17d0>
    5c4f: a0 00        	ldy	#$0
    5c51: aa           	tax
    5c52: a9 80        	lda	#$80
    5c54: 4c eb 5d     	jmp	$5deb <__mulsf3+0x8af>
    5c57: c0 01        	cpy	#$1
    5c59: a5 12        	lda	$12                     ; 0x2012 <f256main+0x17ce>
    5c5b: e9 00        	sbc	#$0
    5c5d: 50 02        	bvc	$5c61 <__mulsf3+0x725>
    5c5f: 49 80        	eor	#$80
    5c61: aa           	tax
    5c62: 30 30        	bmi	$5c94 <__mulsf3+0x758>
    5c64: a5 8f        	lda	$8f                     ; 0x208f <f256main+0x184b>
    5c66: 29 7f        	and	#$7f
    5c68: 85 13        	sta	$13                     ; 0x2013 <f256main+0x17cf>
    5c6a: 46 12        	lsr	$12                     ; 0x2012 <f256main+0x17ce>
    5c6c: 84 12        	sty	$12                     ; 0x2012 <f256main+0x17ce>
    5c6e: 66 12        	ror	$12                     ; 0x2012 <f256main+0x17ce>
    5c70: 64 17        	stz	$17                     ; 0x2017 <f256main+0x17d3>
    5c72: 66 17        	ror	$17                     ; 0x2017 <f256main+0x17d3>
    5c74: 64 18        	stz	$18                     ; 0x2018 <f256main+0x17d4>
    5c76: 66 18        	ror	$18                     ; 0x2018 <f256main+0x17d4>
    5c78: a9 00        	lda	#$0
    5c7a: 6a           	ror
    5c7b: 05 14        	ora	$14                     ; 0x2014 <f256main+0x17d0>
    5c7d: 85 14        	sta	$14                     ; 0x2014 <f256main+0x17d0>
    5c7f: a5 18        	lda	$18                     ; 0x2018 <f256main+0x17d4>
    5c81: 05 15        	ora	$15                     ; 0x2015 <f256main+0x17d1>
    5c83: 85 15        	sta	$15                     ; 0x2015 <f256main+0x17d1>
    5c85: a5 17        	lda	$17                     ; 0x2017 <f256main+0x17d3>
    5c87: 05 13        	ora	$13                     ; 0x2013 <f256main+0x17cf>
    5c89: 85 16        	sta	$16                     ; 0x2016 <f256main+0x17d2>
    5c8b: a6 12        	ldx	$12                     ; 0x2012 <f256main+0x17ce>
    5c8d: 86 13        	stx	$13                     ; 0x2013 <f256main+0x17cf>
    5c8f: a4 90        	ldy	$90                     ; 0x2090 <f256main+0x184c>
    5c91: 4c 7b 5d     	jmp	$5d7b <__mulsf3+0x83f>
    5c94: 38           	sec
    5c95: a9 01        	lda	#$1
    5c97: 84 13        	sty	$13                     ; 0x2013 <f256main+0x17cf>
    5c99: e5 13        	sbc	$13                     ; 0x2013 <f256main+0x17cf>
    5c9b: aa           	tax
    5c9c: a9 00        	lda	#$0
    5c9e: e5 12        	sbc	$12                     ; 0x2012 <f256main+0x17ce>
    5ca0: d0 10        	bne	$5cb2 <__mulsf3+0x776>
    5ca2: 86 96        	stx	$96                     ; 0x2096 <f256main+0x1852>
    5ca4: e0 20        	cpx	#$20
    5ca6: 90 10        	bcc	$5cb8 <__mulsf3+0x77c>
    5ca8: 64 14        	stz	$14                     ; 0x2014 <f256main+0x17d0>
    5caa: a0 00        	ldy	#$0
    5cac: 98           	tya
    5cad: a6 8e        	ldx	$8e                     ; 0x208e <f256main+0x184a>
    5caf: 4c eb 5d     	jmp	$5deb <__mulsf3+0x8af>
    5cb2: 86 96        	stx	$96                     ; 0x2096 <f256main+0x1852>
    5cb4: c9 00        	cmp	#$0
    5cb6: b0 f0        	bcs	$5ca8 <__mulsf3+0x76c>
    5cb8: a6 17        	ldx	$17                     ; 0x2017 <f256main+0x17d3>
    5cba: 86 94        	stx	$94                     ; 0x2094 <f256main+0x1850>
    5cbc: a6 15        	ldx	$15                     ; 0x2015 <f256main+0x17d1>
    5cbe: 86 93        	stx	$93                     ; 0x2093 <f256main+0x184f>
    5cc0: a6 14        	ldx	$14                     ; 0x2014 <f256main+0x17d0>
    5cc2: 86 92        	stx	$92                     ; 0x2092 <f256main+0x184e>
    5cc4: 18           	clc
    5cc5: 98           	tya
    5cc6: 69 1f        	adc	#$1f
    5cc8: a6 8d        	ldx	$8d                     ; 0x208d <f256main+0x1849>
    5cca: 86 12        	stx	$12                     ; 0x2012 <f256main+0x17ce>
    5ccc: a6 90        	ldx	$90                     ; 0x2090 <f256main+0x184c>
    5cce: 86 13        	stx	$13                     ; 0x2013 <f256main+0x17cf>
    5cd0: 85 91        	sta	$91                     ; 0x2091 <f256main+0x184d>
    5cd2: 85 14        	sta	$14                     ; 0x2014 <f256main+0x17d0>
    5cd4: a6 8b        	ldx	$8b                     ; 0x208b <f256main+0x1847>
    5cd6: a5 8c        	lda	$8c                     ; 0x208c <f256main+0x1848>
    5cd8: 20 37 51     	jsr	$5137 <__ashlsi3>
    5cdb: a4 13        	ldy	$13                     ; 0x2013 <f256main+0x17cf>
    5cdd: d0 0f        	bne	$5cee <__mulsf3+0x7b2>
    5cdf: a4 12        	ldy	$12                     ; 0x2012 <f256main+0x17ce>
    5ce1: d0 0b        	bne	$5cee <__mulsf3+0x7b2>
    5ce3: e0 00        	cpx	#$0
    5ce5: d0 07        	bne	$5cee <__mulsf3+0x7b2>
    5ce7: aa           	tax
    5ce8: d0 04        	bne	$5cee <__mulsf3+0x7b2>
    5cea: a2 00        	ldx	#$0
    5cec: 80 02        	bra	$5cf0 <__mulsf3+0x7b4>
    5cee: a2 01        	ldx	#$1
    5cf0: 86 98        	stx	$98                     ; 0x2098 <f256main+0x1854>
    5cf2: a6 8f        	ldx	$8f                     ; 0x208f <f256main+0x184b>
    5cf4: 86 12        	stx	$12                     ; 0x2012 <f256main+0x17ce>
    5cf6: 86 8f        	stx	$8f                     ; 0x208f <f256main+0x184b>
    5cf8: a6 94        	ldx	$94                     ; 0x2094 <f256main+0x1850>
    5cfa: 86 13        	stx	$13                     ; 0x2013 <f256main+0x17cf>
    5cfc: 86 94        	stx	$94                     ; 0x2094 <f256main+0x1850>
    5cfe: a6 91        	ldx	$91                     ; 0x2091 <f256main+0x184d>
    5d00: 86 14        	stx	$14                     ; 0x2014 <f256main+0x17d0>
    5d02: a6 93        	ldx	$93                     ; 0x2093 <f256main+0x184f>
    5d04: 86 93        	stx	$93                     ; 0x2093 <f256main+0x184f>
    5d06: a4 92        	ldy	$92                     ; 0x2092 <f256main+0x184e>
    5d08: 84 92        	sty	$92                     ; 0x2092 <f256main+0x184e>
    5d0a: 98           	tya
    5d0b: 20 37 51     	jsr	$5137 <__ashlsi3>
    5d0e: 85 97        	sta	$97                     ; 0x2097 <f256main+0x1853>
    5d10: 86 99        	stx	$99                     ; 0x2099 <f256main+0x1855>
    5d12: a6 12        	ldx	$12                     ; 0x2012 <f256main+0x17ce>
    5d14: 86 91        	stx	$91                     ; 0x2091 <f256main+0x184d>
    5d16: a6 13        	ldx	$13                     ; 0x2013 <f256main+0x17cf>
    5d18: 86 95        	stx	$95                     ; 0x2095 <f256main+0x1851>
    5d1a: a6 8d        	ldx	$8d                     ; 0x208d <f256main+0x1849>
    5d1c: 86 12        	stx	$12                     ; 0x2012 <f256main+0x17ce>
    5d1e: a6 90        	ldx	$90                     ; 0x2090 <f256main+0x184c>
    5d20: 86 13        	stx	$13                     ; 0x2013 <f256main+0x17cf>
    5d22: a6 96        	ldx	$96                     ; 0x2096 <f256main+0x1852>
    5d24: 86 8d        	stx	$8d                     ; 0x208d <f256main+0x1849>
    5d26: 86 14        	stx	$14                     ; 0x2014 <f256main+0x17d0>
    5d28: a6 8b        	ldx	$8b                     ; 0x208b <f256main+0x1847>
    5d2a: a5 8c        	lda	$8c                     ; 0x208c <f256main+0x1848>
    5d2c: 20 4e 51     	jsr	$514e <__lshrsi3>
    5d2f: 85 14        	sta	$14                     ; 0x2014 <f256main+0x17d0>
    5d31: 86 16        	stx	$16                     ; 0x2016 <f256main+0x17d2>
    5d33: a5 97        	lda	$97                     ; 0x2097 <f256main+0x1853>
    5d35: 05 14        	ora	$14                     ; 0x2014 <f256main+0x17d0>
    5d37: 85 14        	sta	$14                     ; 0x2014 <f256main+0x17d0>
    5d39: a6 99        	ldx	$99                     ; 0x2099 <f256main+0x1855>
    5d3b: 86 15        	stx	$15                     ; 0x2015 <f256main+0x17d1>
    5d3d: a5 16        	lda	$16                     ; 0x2016 <f256main+0x17d2>
    5d3f: 05 15        	ora	$15                     ; 0x2015 <f256main+0x17d1>
    5d41: 85 8b        	sta	$8b                     ; 0x208b <f256main+0x1847>
    5d43: a5 91        	lda	$91                     ; 0x2091 <f256main+0x184d>
    5d45: 05 12        	ora	$12                     ; 0x2012 <f256main+0x17ce>
    5d47: 85 91        	sta	$91                     ; 0x2091 <f256main+0x184d>
    5d49: a6 95        	ldx	$95                     ; 0x2095 <f256main+0x1851>
    5d4b: 8a           	txa
    5d4c: 05 13        	ora	$13                     ; 0x2013 <f256main+0x17cf>
    5d4e: 85 95        	sta	$95                     ; 0x2095 <f256main+0x1851>
    5d50: a5 14        	lda	$14                     ; 0x2014 <f256main+0x17d0>
    5d52: a6 98        	ldx	$98                     ; 0x2098 <f256main+0x1854>
    5d54: 86 12        	stx	$12                     ; 0x2012 <f256main+0x17ce>
    5d56: 05 12        	ora	$12                     ; 0x2012 <f256main+0x17ce>
    5d58: 85 8c        	sta	$8c                     ; 0x208c <f256main+0x1848>
    5d5a: a6 8f        	ldx	$8f                     ; 0x208f <f256main+0x184b>
    5d5c: 86 12        	stx	$12                     ; 0x2012 <f256main+0x17ce>
    5d5e: a6 94        	ldx	$94                     ; 0x2094 <f256main+0x1850>
    5d60: 86 13        	stx	$13                     ; 0x2013 <f256main+0x17cf>
    5d62: a6 8d        	ldx	$8d                     ; 0x208d <f256main+0x1849>
    5d64: 86 14        	stx	$14                     ; 0x2014 <f256main+0x17d0>
    5d66: a6 93        	ldx	$93                     ; 0x2093 <f256main+0x184f>
    5d68: a5 92        	lda	$92                     ; 0x2092 <f256main+0x184e>
    5d6a: 20 4e 51     	jsr	$514e <__lshrsi3>
    5d6d: 85 14        	sta	$14                     ; 0x2014 <f256main+0x17d0>
    5d6f: 86 15        	stx	$15                     ; 0x2015 <f256main+0x17d1>
    5d71: a6 12        	ldx	$12                     ; 0x2012 <f256main+0x17ce>
    5d73: 86 16        	stx	$16                     ; 0x2016 <f256main+0x17d2>
    5d75: a6 91        	ldx	$91                     ; 0x2091 <f256main+0x184d>
    5d77: 86 8d        	stx	$8d                     ; 0x208d <f256main+0x1849>
    5d79: a4 95        	ldy	$95                     ; 0x2095 <f256main+0x1851>
    5d7b: a5 8e        	lda	$8e                     ; 0x208e <f256main+0x184a>
    5d7d: 05 13        	ora	$13                     ; 0x2013 <f256main+0x17cf>
    5d7f: 85 13        	sta	$13                     ; 0x2013 <f256main+0x17cf>
    5d81: c0 80        	cpy	#$80
    5d83: d0 14        	bne	$5d99 <__mulsf3+0x85d>
    5d85: 84 12        	sty	$12                     ; 0x2012 <f256main+0x17ce>
    5d87: a5 16        	lda	$16                     ; 0x2016 <f256main+0x17d2>
    5d89: a6 8d        	ldx	$8d                     ; 0x208d <f256main+0x1849>
    5d8b: d0 43        	bne	$5dd0 <__mulsf3+0x894>
    5d8d: a6 8b        	ldx	$8b                     ; 0x208b <f256main+0x1847>
    5d8f: d0 43        	bne	$5dd4 <__mulsf3+0x898>
    5d91: a6 8c        	ldx	$8c                     ; 0x208c <f256main+0x1848>
    5d93: e0 01        	cpx	#$1
    5d95: 90 0a        	bcc	$5da1 <__mulsf3+0x865>
    5d97: 80 41        	bra	$5dda <__mulsf3+0x89e>
    5d99: 84 12        	sty	$12                     ; 0x2012 <f256main+0x17ce>
    5d9b: c0 80        	cpy	#$80
    5d9d: a5 16        	lda	$16                     ; 0x2016 <f256main+0x17d2>
    5d9f: b0 39        	bcs	$5dda <__mulsf3+0x89e>
    5da1: a6 12        	ldx	$12                     ; 0x2012 <f256main+0x17ce>
    5da3: e0 80        	cpx	#$80
    5da5: d0 40        	bne	$5de7 <__mulsf3+0x8ab>
    5da7: a6 8d        	ldx	$8d                     ; 0x208d <f256main+0x1849>
    5da9: d0 3c        	bne	$5de7 <__mulsf3+0x8ab>
    5dab: a6 8b        	ldx	$8b                     ; 0x208b <f256main+0x1847>
    5dad: d0 38        	bne	$5de7 <__mulsf3+0x8ab>
    5daf: a6 8c        	ldx	$8c                     ; 0x208c <f256main+0x1848>
    5db1: d0 34        	bne	$5de7 <__mulsf3+0x8ab>
    5db3: a5 14        	lda	$14                     ; 0x2014 <f256main+0x17d0>
    5db5: 29 01        	and	#$1
    5db7: 18           	clc
    5db8: 65 14        	adc	$14                     ; 0x2014 <f256main+0x17d0>
    5dba: 85 14        	sta	$14                     ; 0x2014 <f256main+0x17d0>
    5dbc: a5 15        	lda	$15                     ; 0x2015 <f256main+0x17d1>
    5dbe: 69 00        	adc	#$0
    5dc0: 85 15        	sta	$15                     ; 0x2015 <f256main+0x17d1>
    5dc2: a5 16        	lda	$16                     ; 0x2016 <f256main+0x17d2>
    5dc4: 69 00        	adc	#$0
    5dc6: aa           	tax
    5dc7: a5 13        	lda	$13                     ; 0x2013 <f256main+0x17cf>
    5dc9: 69 00        	adc	#$0
    5dcb: 85 13        	sta	$13                     ; 0x2013 <f256main+0x17cf>
    5dcd: 8a           	txa
    5dce: 80 17        	bra	$5de7 <__mulsf3+0x8ab>
    5dd0: a6 8d        	ldx	$8d                     ; 0x208d <f256main+0x1849>
    5dd2: 80 02        	bra	$5dd6 <__mulsf3+0x89a>
    5dd4: a6 8b        	ldx	$8b                     ; 0x208b <f256main+0x1847>
    5dd6: e0 00        	cpx	#$0
    5dd8: 90 c7        	bcc	$5da1 <__mulsf3+0x865>
    5dda: e6 14        	inc	$14                     ; 0x2014 <f256main+0x17d0>
    5ddc: d0 09        	bne	$5de7 <__mulsf3+0x8ab>
    5dde: e6 15        	inc	$15                     ; 0x2015 <f256main+0x17d1>
    5de0: d0 05        	bne	$5de7 <__mulsf3+0x8ab>
    5de2: 1a           	inc
    5de3: d0 02        	bne	$5de7 <__mulsf3+0x8ab>
    5de5: e6 13        	inc	$13                     ; 0x2013 <f256main+0x17cf>
    5de7: a4 15        	ldy	$15                     ; 0x2015 <f256main+0x17d1>
    5de9: a6 13        	ldx	$13                     ; 0x2013 <f256main+0x17cf>
    5deb: 85 12        	sta	$12                     ; 0x2012 <f256main+0x17ce>
    5ded: 86 13        	stx	$13                     ; 0x2013 <f256main+0x17cf>
    5def: 5a           	phy
    5df0: fa           	plx
    5df1: a5 14        	lda	$14                     ; 0x2014 <f256main+0x17d0>
    5df3: 60           	rts

00005df4 <__divsf3>:
    5df4: 85 98        	sta	$98                     ; 0x2098 <f256main+0x1854>
    5df6: 86 97        	stx	$97                     ; 0x2097 <f256main+0x1853>
    5df8: a6 12        	ldx	$12                     ; 0x2012 <f256main+0x17ce>
    5dfa: 86 19        	stx	$19                     ; 0x2019 <f256main+0x17d5>
    5dfc: a6 13        	ldx	$13                     ; 0x2013 <f256main+0x17cf>
    5dfe: a4 14        	ldy	$14                     ; 0x2014 <f256main+0x17d0>
    5e00: 5a           	phy
    5e01: a4 15        	ldy	$15                     ; 0x2015 <f256main+0x17d1>
    5e03: 84 18        	sty	$18                     ; 0x2018 <f256main+0x17d4>
    5e05: a5 12        	lda	$12                     ; 0x2012 <f256main+0x17ce>
    5e07: 0a           	asl
    5e08: 26 13        	rol	$13                     ; 0x2013 <f256main+0x17cf>
    5e0a: a5 16        	lda	$16                     ; 0x2016 <f256main+0x17d2>
    5e0c: a4 17        	ldy	$17                     ; 0x2017 <f256main+0x17d3>
    5e0e: 84 12        	sty	$12                     ; 0x2012 <f256main+0x17ce>
    5e10: 7a           	ply
    5e11: 0a           	asl
    5e12: 26 12        	rol	$12                     ; 0x2012 <f256main+0x17ce>
    5e14: 18           	clc
    5e15: a5 13        	lda	$13                     ; 0x2013 <f256main+0x17cf>
    5e17: 85 8c        	sta	$8c                     ; 0x208c <f256main+0x1848>
    5e19: a5 13        	lda	$13                     ; 0x2013 <f256main+0x17cf>
    5e1b: 69 01        	adc	#$1
    5e1d: 85 15        	sta	$15                     ; 0x2015 <f256main+0x17d1>
    5e1f: a9 00        	lda	#$0
    5e21: 69 ff        	adc	#$ff
    5e23: 85 1b        	sta	$1b                     ; 0x201b <f256main+0x17d7>
    5e25: 86 14        	stx	$14                     ; 0x2014 <f256main+0x17d0>
    5e27: 86 13        	stx	$13                     ; 0x2013 <f256main+0x17cf>
    5e29: a5 17        	lda	$17                     ; 0x2017 <f256main+0x17d3>
    5e2b: 45 13        	eor	$13                     ; 0x2013 <f256main+0x17cf>
    5e2d: 29 80        	and	#$80
    5e2f: 85 99        	sta	$99                     ; 0x2099 <f256main+0x1855>
    5e31: a5 19        	lda	$19                     ; 0x2019 <f256main+0x17d5>
    5e33: 29 7f        	and	#$7f
    5e35: 85 8b        	sta	$8b                     ; 0x208b <f256main+0x1847>
    5e37: a6 16        	ldx	$16                     ; 0x2016 <f256main+0x17d2>
    5e39: 86 8f        	stx	$8f                     ; 0x208f <f256main+0x184b>
    5e3b: a5 16        	lda	$16                     ; 0x2016 <f256main+0x17d2>
    5e3d: 29 7f        	and	#$7f
    5e3f: 85 8d        	sta	$8d                     ; 0x208d <f256main+0x1849>
    5e41: a6 1b        	ldx	$1b                     ; 0x201b <f256main+0x17d7>
    5e43: e0 ff        	cpx	#$ff
    5e45: d0 06        	bne	$5e4d <__divsf3+0x59>
    5e47: a6 15        	ldx	$15                     ; 0x2015 <f256main+0x17d1>
    5e49: e0 02        	cpx	#$2
    5e4b: 80 02        	bra	$5e4f <__divsf3+0x5b>
    5e4d: e0 ff        	cpx	#$ff
    5e4f: a6 14        	ldx	$14                     ; 0x2014 <f256main+0x17d0>
    5e51: a5 19        	lda	$19                     ; 0x2019 <f256main+0x17d5>
    5e53: 90 31        	bcc	$5e86 <__divsf3+0x92>
    5e55: 18           	clc
    5e56: a5 12        	lda	$12                     ; 0x2012 <f256main+0x17ce>
    5e58: 69 01        	adc	#$1
    5e5a: aa           	tax
    5e5b: a9 00        	lda	#$0
    5e5d: 69 ff        	adc	#$ff
    5e5f: c9 ff        	cmp	#$ff
    5e61: d0 1b        	bne	$5e7e <__divsf3+0x8a>
    5e63: e0 02        	cpx	#$2
    5e65: 90 1b        	bcc	$5e82 <__divsf3+0x8e>
    5e67: a6 8d        	ldx	$8d                     ; 0x208d <f256main+0x1849>
    5e69: 86 19        	stx	$19                     ; 0x2019 <f256main+0x17d5>
    5e6b: 84 95        	sty	$95                     ; 0x2095 <f256main+0x1851>
    5e6d: a6 18        	ldx	$18                     ; 0x2018 <f256main+0x17d4>
    5e6f: 86 9a        	stx	$9a                     ; 0x209a <f256main+0x1856>
    5e71: a2 00        	ldx	#$0
    5e73: 86 9d        	stx	$9d                     ; 0x209d <f256main+0x1859>
    5e75: 64 13        	stz	$13                     ; 0x2013 <f256main+0x17cf>
    5e77: 64 14        	stz	$14                     ; 0x2014 <f256main+0x17d0>
    5e79: 64 15        	stz	$15                     ; 0x2015 <f256main+0x17d1>
    5e7b: 4c 2f 64     	jmp	$642f <__divsf3+0x63b>
    5e7e: c9 ff        	cmp	#$ff
    5e80: b0 e5        	bcs	$5e67 <__divsf3+0x73>
    5e82: a6 14        	ldx	$14                     ; 0x2014 <f256main+0x17d0>
    5e84: a5 19        	lda	$19                     ; 0x2019 <f256main+0x17d5>
    5e86: 85 13        	sta	$13                     ; 0x2013 <f256main+0x17cf>
    5e88: 8a           	txa
    5e89: 29 7f        	and	#$7f
    5e8b: c9 7f        	cmp	#$7f
    5e8d: d0 14        	bne	$5ea3 <__divsf3+0xaf>
    5e8f: 85 15        	sta	$15                     ; 0x2015 <f256main+0x17d1>
    5e91: a5 13        	lda	$13                     ; 0x2013 <f256main+0x17cf>
    5e93: c9 80        	cmp	#$80
    5e95: d0 3d        	bne	$5ed4 <__divsf3+0xe0>
    5e97: 84 13        	sty	$13                     ; 0x2013 <f256main+0x17cf>
    5e99: a4 97        	ldy	$97                     ; 0x2097 <f256main+0x1853>
    5e9b: d0 4f        	bne	$5eec <__divsf3+0xf8>
    5e9d: a6 98        	ldx	$98                     ; 0x2098 <f256main+0x1854>
    5e9f: e0 01        	cpx	#$1
    5ea1: 80 4b        	bra	$5eee <__divsf3+0xfa>
    5ea3: 85 15        	sta	$15                     ; 0x2015 <f256main+0x17d1>
    5ea5: c9 7f        	cmp	#$7f
    5ea7: a5 13        	lda	$13                     ; 0x2013 <f256main+0x17cf>
    5ea9: b0 2d        	bcs	$5ed8 <__divsf3+0xe4>
    5eab: a5 17        	lda	$17                     ; 0x2017 <f256main+0x17d3>
    5ead: 29 7f        	and	#$7f
    5eaf: 85 90        	sta	$90                     ; 0x2090 <f256main+0x184c>
    5eb1: c9 7f        	cmp	#$7f
    5eb3: d0 33        	bne	$5ee8 <__divsf3+0xf4>
    5eb5: a6 16        	ldx	$16                     ; 0x2016 <f256main+0x17d2>
    5eb7: e0 80        	cpx	#$80
    5eb9: d0 39        	bne	$5ef4 <__divsf3+0x100>
    5ebb: a5 18        	lda	$18                     ; 0x2018 <f256main+0x17d4>
    5ebd: f0 03        	beq	$5ec2 <__divsf3+0xce>
    5ebf: 4c ab 5f     	jmp	$5fab <__divsf3+0x1b7>
    5ec2: c0 01        	cpy	#$1
    5ec4: 90 34        	bcc	$5efa <__divsf3+0x106>
    5ec6: 85 15        	sta	$15                     ; 0x2015 <f256main+0x17d1>
    5ec8: a5 16        	lda	$16                     ; 0x2016 <f256main+0x17d2>
    5eca: 09 40        	ora	#$40
    5ecc: 84 18        	sty	$18                     ; 0x2018 <f256main+0x17d4>
    5ece: a8           	tay
    5ecf: a5 17        	lda	$17                     ; 0x2017 <f256main+0x17d3>
    5ed1: 4c 42 69     	jmp	$6942 <__divsf3+0xb4e>
    5ed4: c9 80        	cmp	#$80
    5ed6: 90 d3        	bcc	$5eab <__divsf3+0xb7>
    5ed8: 09 40        	ora	#$40
    5eda: a8           	tay
    5edb: a6 98        	ldx	$98                     ; 0x2098 <f256main+0x1854>
    5edd: 86 18        	stx	$18                     ; 0x2018 <f256main+0x17d4>
    5edf: a6 97        	ldx	$97                     ; 0x2097 <f256main+0x1853>
    5ee1: 86 15        	stx	$15                     ; 0x2015 <f256main+0x17d1>
    5ee3: a5 14        	lda	$14                     ; 0x2014 <f256main+0x17d0>
    5ee5: 4c 42 69     	jmp	$6942 <__divsf3+0xb4e>
    5ee8: c9 7f        	cmp	#$7f
    5eea: 80 0a        	bra	$5ef6 <__divsf3+0x102>
    5eec: c0 00        	cpy	#$0
    5eee: a4 13        	ldy	$13                     ; 0x2013 <f256main+0x17cf>
    5ef0: 90 b9        	bcc	$5eab <__divsf3+0xb7>
    5ef2: 80 e4        	bra	$5ed8 <__divsf3+0xe4>
    5ef4: e0 80        	cpx	#$80
    5ef6: a5 18        	lda	$18                     ; 0x2018 <f256main+0x17d4>
    5ef8: b0 cc        	bcs	$5ec6 <__divsf3+0xd2>
    5efa: a6 15        	ldx	$15                     ; 0x2015 <f256main+0x17d1>
    5efc: 86 16        	stx	$16                     ; 0x2016 <f256main+0x17d2>
    5efe: e0 7f        	cpx	#$7f
    5f00: d0 38        	bne	$5f3a <__divsf3+0x146>
    5f02: a6 19        	ldx	$19                     ; 0x2019 <f256main+0x17d5>
    5f04: e0 80        	cpx	#$80
    5f06: d0 32        	bne	$5f3a <__divsf3+0x146>
    5f08: a6 97        	ldx	$97                     ; 0x2097 <f256main+0x1853>
    5f0a: d0 2e        	bne	$5f3a <__divsf3+0x146>
    5f0c: a6 98        	ldx	$98                     ; 0x2098 <f256main+0x1854>
    5f0e: d0 2a        	bne	$5f3a <__divsf3+0x146>
    5f10: a6 90        	ldx	$90                     ; 0x2090 <f256main+0x184c>
    5f12: e0 7f        	cpx	#$7f
    5f14: f0 03        	beq	$5f19 <__divsf3+0x125>
    5f16: 4c bf 67     	jmp	$67bf <__divsf3+0x9cb>
    5f19: a5 8f        	lda	$8f                     ; 0x208f <f256main+0x184b>
    5f1b: c9 80        	cmp	#$80
    5f1d: f0 03        	beq	$5f22 <__divsf3+0x12e>
    5f1f: 4c bf 67     	jmp	$67bf <__divsf3+0x9cb>
    5f22: a5 18        	lda	$18                     ; 0x2018 <f256main+0x17d4>
    5f24: f0 03        	beq	$5f29 <__divsf3+0x135>
    5f26: 4c bf 67     	jmp	$67bf <__divsf3+0x9cb>
    5f29: 98           	tya
    5f2a: f0 03        	beq	$5f2f <__divsf3+0x13b>
    5f2c: 4c bf 67     	jmp	$67bf <__divsf3+0x9cb>
    5f2f: a0 c0        	ldy	#$c0
    5f31: a9 7f        	lda	#$7f
    5f33: 64 18        	stz	$18                     ; 0x2018 <f256main+0x17d4>
    5f35: 64 15        	stz	$15                     ; 0x2015 <f256main+0x17d1>
    5f37: 4c 42 69     	jmp	$6942 <__divsf3+0xb4e>
    5f3a: a6 90        	ldx	$90                     ; 0x2090 <f256main+0x184c>
    5f3c: e0 7f        	cpx	#$7f
    5f3e: d0 10        	bne	$5f50 <__divsf3+0x15c>
    5f40: a6 8f        	ldx	$8f                     ; 0x208f <f256main+0x184b>
    5f42: e0 80        	cpx	#$80
    5f44: d0 0a        	bne	$5f50 <__divsf3+0x15c>
    5f46: aa           	tax
    5f47: d0 07        	bne	$5f50 <__divsf3+0x15c>
    5f49: c0 00        	cpy	#$0
    5f4b: d0 03        	bne	$5f50 <__divsf3+0x15c>
    5f4d: 4c 35 68     	jmp	$6835 <__divsf3+0xa41>
    5f50: 84 14        	sty	$14                     ; 0x2014 <f256main+0x17d0>
    5f52: a6 98        	ldx	$98                     ; 0x2098 <f256main+0x1854>
    5f54: 86 15        	stx	$15                     ; 0x2015 <f256main+0x17d1>
    5f56: a6 19        	ldx	$19                     ; 0x2019 <f256main+0x17d5>
    5f58: a4 97        	ldy	$97                     ; 0x2097 <f256main+0x1853>
    5f5a: 84 13        	sty	$13                     ; 0x2013 <f256main+0x17cf>
    5f5c: a4 16        	ldy	$16                     ; 0x2016 <f256main+0x17d2>
    5f5e: d0 0f        	bne	$5f6f <__divsf3+0x17b>
    5f60: e0 00        	cpx	#$0
    5f62: d0 0b        	bne	$5f6f <__divsf3+0x17b>
    5f64: a6 13        	ldx	$13                     ; 0x2013 <f256main+0x17cf>
    5f66: d0 07        	bne	$5f6f <__divsf3+0x17b>
    5f68: a6 15        	ldx	$15                     ; 0x2015 <f256main+0x17d1>
    5f6a: d0 03        	bne	$5f6f <__divsf3+0x17b>
    5f6c: 4c 56 69     	jmp	$6956 <__divsf3+0xb62>
    5f6f: a6 14        	ldx	$14                     ; 0x2014 <f256main+0x17d0>
    5f71: 86 13        	stx	$13                     ; 0x2013 <f256main+0x17cf>
    5f73: a6 8f        	ldx	$8f                     ; 0x208f <f256main+0x184b>
    5f75: a4 90        	ldy	$90                     ; 0x2090 <f256main+0x184c>
    5f77: d0 0e        	bne	$5f87 <__divsf3+0x193>
    5f79: e0 00        	cpx	#$0
    5f7b: d0 0a        	bne	$5f87 <__divsf3+0x193>
    5f7d: aa           	tax
    5f7e: d0 07        	bne	$5f87 <__divsf3+0x193>
    5f80: a5 13        	lda	$13                     ; 0x2013 <f256main+0x17cf>
    5f82: d0 03        	bne	$5f87 <__divsf3+0x193>
    5f84: 4c bf 67     	jmp	$67bf <__divsf3+0x9cb>
    5f87: a6 14        	ldx	$14                     ; 0x2014 <f256main+0x17d0>
    5f89: 86 17        	stx	$17                     ; 0x2017 <f256main+0x17d3>
    5f8b: a5 16        	lda	$16                     ; 0x2016 <f256main+0x17d2>
    5f8d: d0 14        	bne	$5fa3 <__divsf3+0x1af>
    5f8f: a6 19        	ldx	$19                     ; 0x2019 <f256main+0x17d5>
    5f91: e0 80        	cpx	#$80
    5f93: d0 20        	bne	$5fb5 <__divsf3+0x1c1>
    5f95: a4 97        	ldy	$97                     ; 0x2097 <f256main+0x1853>
    5f97: a5 8f        	lda	$8f                     ; 0x208f <f256main+0x184b>
    5f99: c0 00        	cpy	#$0
    5f9b: d0 20        	bne	$5fbd <__divsf3+0x1c9>
    5f9d: a6 98        	ldx	$98                     ; 0x2098 <f256main+0x1854>
    5f9f: e0 00        	cpx	#$0
    5fa1: 80 1c        	bra	$5fbf <__divsf3+0x1cb>
    5fa3: a6 16        	ldx	$16                     ; 0x2016 <f256main+0x17d2>
    5fa5: e0 00        	cpx	#$0
    5fa7: b0 10        	bcs	$5fb9 <__divsf3+0x1c5>
    5fa9: 80 23        	bra	$5fce <__divsf3+0x1da>
    5fab: c9 00        	cmp	#$0
    5fad: 90 03        	bcc	$5fb2 <__divsf3+0x1be>
    5faf: 4c c6 5e     	jmp	$5ec6 <__divsf3+0xd2>
    5fb2: 4c fa 5e     	jmp	$5efa <__divsf3+0x106>
    5fb5: e0 80        	cpx	#$80
    5fb7: 90 15        	bcc	$5fce <__divsf3+0x1da>
    5fb9: a5 8f        	lda	$8f                     ; 0x208f <f256main+0x184b>
    5fbb: 80 08        	bra	$5fc5 <__divsf3+0x1d1>
    5fbd: c0 00        	cpy	#$0
    5fbf: a6 14        	ldx	$14                     ; 0x2014 <f256main+0x17d0>
    5fc1: 86 17        	stx	$17                     ; 0x2017 <f256main+0x17d3>
    5fc3: 90 09        	bcc	$5fce <__divsf3+0x1da>
    5fc5: 64 13        	stz	$13                     ; 0x2013 <f256main+0x17cf>
    5fc7: 64 14        	stz	$14                     ; 0x2014 <f256main+0x17d0>
    5fc9: 64 15        	stz	$15                     ; 0x2015 <f256main+0x17d1>
    5fcb: 4c d4 61     	jmp	$61d4 <__divsf3+0x3e0>
    5fce: a6 18        	ldx	$18                     ; 0x2018 <f256main+0x17d4>
    5fd0: 86 9a        	stx	$9a                     ; 0x209a <f256main+0x1856>
    5fd2: a4 14        	ldy	$14                     ; 0x2014 <f256main+0x17d0>
    5fd4: 84 9b        	sty	$9b                     ; 0x209b <f256main+0x1857>
    5fd6: a6 12        	ldx	$12                     ; 0x2012 <f256main+0x17ce>
    5fd8: 86 9c        	stx	$9c                     ; 0x209c <f256main+0x1858>
    5fda: a4 8b        	ldy	$8b                     ; 0x208b <f256main+0x1847>
    5fdc: a5 8b        	lda	$8b                     ; 0x208b <f256main+0x1847>
    5fde: 4a           	lsr
    5fdf: 85 12        	sta	$12                     ; 0x2012 <f256main+0x17ce>
    5fe1: a6 97        	ldx	$97                     ; 0x2097 <f256main+0x1853>
    5fe3: 8a           	txa
    5fe4: 6a           	ror
    5fe5: 85 13        	sta	$13                     ; 0x2013 <f256main+0x17cf>
    5fe7: a5 98        	lda	$98                     ; 0x2098 <f256main+0x1854>
    5fe9: 85 8b        	sta	$8b                     ; 0x208b <f256main+0x1847>
    5feb: 6a           	ror
    5fec: 85 14        	sta	$14                     ; 0x2014 <f256main+0x17d0>
    5fee: a5 8b        	lda	$8b                     ; 0x208b <f256main+0x1847>
    5ff0: 05 14        	ora	$14                     ; 0x2014 <f256main+0x17d0>
    5ff2: 85 16        	sta	$16                     ; 0x2016 <f256main+0x17d2>
    5ff4: 8a           	txa
    5ff5: 05 13        	ora	$13                     ; 0x2013 <f256main+0x17cf>
    5ff7: 85 15        	sta	$15                     ; 0x2015 <f256main+0x17d1>
    5ff9: 98           	tya
    5ffa: 05 12        	ora	$12                     ; 0x2012 <f256main+0x17ce>
    5ffc: 85 17        	sta	$17                     ; 0x2017 <f256main+0x17d3>
    5ffe: 4a           	lsr
    5fff: 5a           	phy
    6000: a4 15        	ldy	$15                     ; 0x2015 <f256main+0x17d1>
    6002: 84 12        	sty	$12                     ; 0x2012 <f256main+0x17ce>
    6004: 66 12        	ror	$12                     ; 0x2012 <f256main+0x17ce>
    6006: a4 16        	ldy	$16                     ; 0x2016 <f256main+0x17d2>
    6008: 84 13        	sty	$13                     ; 0x2013 <f256main+0x17cf>
    600a: 66 13        	ror	$13                     ; 0x2013 <f256main+0x17cf>
    600c: 4a           	lsr
    600d: 85 14        	sta	$14                     ; 0x2014 <f256main+0x17d0>
    600f: 66 12        	ror	$12                     ; 0x2012 <f256main+0x17ce>
    6011: 66 13        	ror	$13                     ; 0x2013 <f256main+0x17cf>
    6013: a5 16        	lda	$16                     ; 0x2016 <f256main+0x17d2>
    6015: 05 13        	ora	$13                     ; 0x2013 <f256main+0x17cf>
    6017: 85 16        	sta	$16                     ; 0x2016 <f256main+0x17d2>
    6019: a5 15        	lda	$15                     ; 0x2015 <f256main+0x17d1>
    601b: 05 12        	ora	$12                     ; 0x2012 <f256main+0x17ce>
    601d: 85 15        	sta	$15                     ; 0x2015 <f256main+0x17d1>
    601f: a5 17        	lda	$17                     ; 0x2017 <f256main+0x17d3>
    6021: 05 14        	ora	$14                     ; 0x2014 <f256main+0x17d0>
    6023: 85 17        	sta	$17                     ; 0x2017 <f256main+0x17d3>
    6025: 4a           	lsr
    6026: a4 15        	ldy	$15                     ; 0x2015 <f256main+0x17d1>
    6028: 84 12        	sty	$12                     ; 0x2012 <f256main+0x17ce>
    602a: 66 12        	ror	$12                     ; 0x2012 <f256main+0x17ce>
    602c: a4 16        	ldy	$16                     ; 0x2016 <f256main+0x17d2>
    602e: 84 13        	sty	$13                     ; 0x2013 <f256main+0x17cf>
    6030: 66 13        	ror	$13                     ; 0x2013 <f256main+0x17cf>
    6032: 4a           	lsr
    6033: 66 12        	ror	$12                     ; 0x2012 <f256main+0x17ce>
    6035: 66 13        	ror	$13                     ; 0x2013 <f256main+0x17cf>
    6037: 4a           	lsr
    6038: 66 12        	ror	$12                     ; 0x2012 <f256main+0x17ce>
    603a: 66 13        	ror	$13                     ; 0x2013 <f256main+0x17cf>
    603c: 4a           	lsr
    603d: 85 14        	sta	$14                     ; 0x2014 <f256main+0x17d0>
    603f: 66 12        	ror	$12                     ; 0x2012 <f256main+0x17ce>
    6041: 66 13        	ror	$13                     ; 0x2013 <f256main+0x17cf>
    6043: a5 16        	lda	$16                     ; 0x2016 <f256main+0x17d2>
    6045: 05 13        	ora	$13                     ; 0x2013 <f256main+0x17cf>
    6047: 85 16        	sta	$16                     ; 0x2016 <f256main+0x17d2>
    6049: a5 15        	lda	$15                     ; 0x2015 <f256main+0x17d1>
    604b: 05 12        	ora	$12                     ; 0x2012 <f256main+0x17ce>
    604d: 85 13        	sta	$13                     ; 0x2013 <f256main+0x17cf>
    604f: a5 17        	lda	$17                     ; 0x2017 <f256main+0x17d3>
    6051: 05 14        	ora	$14                     ; 0x2014 <f256main+0x17d0>
    6053: 85 17        	sta	$17                     ; 0x2017 <f256main+0x17d3>
    6055: a5 16        	lda	$16                     ; 0x2016 <f256main+0x17d2>
    6057: 05 13        	ora	$13                     ; 0x2013 <f256main+0x17cf>
    6059: 85 14        	sta	$14                     ; 0x2014 <f256main+0x17d0>
    605b: a5 13        	lda	$13                     ; 0x2013 <f256main+0x17cf>
    605d: 05 17        	ora	$17                     ; 0x2017 <f256main+0x17d3>
    605f: 85 15        	sta	$15                     ; 0x2015 <f256main+0x17d1>
    6061: a5 14        	lda	$14                     ; 0x2014 <f256main+0x17d0>
    6063: 05 17        	ora	$17                     ; 0x2017 <f256main+0x17d3>
    6065: 85 16        	sta	$16                     ; 0x2016 <f256main+0x17d2>
    6067: a5 17        	lda	$17                     ; 0x2017 <f256main+0x17d3>
    6069: 85 14        	sta	$14                     ; 0x2014 <f256main+0x17d0>
    606b: 46 14        	lsr	$14                     ; 0x2014 <f256main+0x17d0>
    606d: a5 16        	lda	$16                     ; 0x2016 <f256main+0x17d2>
    606f: 4a           	lsr
    6070: 29 55        	and	#$55
    6072: 85 12        	sta	$12                     ; 0x2012 <f256main+0x17ce>
    6074: a5 15        	lda	$15                     ; 0x2015 <f256main+0x17d1>
    6076: 4a           	lsr
    6077: 29 55        	and	#$55
    6079: 85 13        	sta	$13                     ; 0x2013 <f256main+0x17cf>
    607b: a5 14        	lda	$14                     ; 0x2014 <f256main+0x17d0>
    607d: 29 55        	and	#$55
    607f: 85 14        	sta	$14                     ; 0x2014 <f256main+0x17d0>
    6081: 38           	sec
    6082: a5 16        	lda	$16                     ; 0x2016 <f256main+0x17d2>
    6084: e5 12        	sbc	$12                     ; 0x2012 <f256main+0x17ce>
    6086: 85 12        	sta	$12                     ; 0x2012 <f256main+0x17ce>
    6088: a5 15        	lda	$15                     ; 0x2015 <f256main+0x17d1>
    608a: e5 13        	sbc	$13                     ; 0x2013 <f256main+0x17cf>
    608c: 85 13        	sta	$13                     ; 0x2013 <f256main+0x17cf>
    608e: a5 17        	lda	$17                     ; 0x2017 <f256main+0x17d3>
    6090: e5 14        	sbc	$14                     ; 0x2014 <f256main+0x17d0>
    6092: 85 14        	sta	$14                     ; 0x2014 <f256main+0x17d0>
    6094: a9 00        	lda	#$0
    6096: e9 00        	sbc	#$0
    6098: 85 15        	sta	$15                     ; 0x2015 <f256main+0x17d1>
    609a: a5 12        	lda	$12                     ; 0x2012 <f256main+0x17ce>
    609c: 85 16        	sta	$16                     ; 0x2016 <f256main+0x17d2>
    609e: 29 33        	and	#$33
    60a0: 85 12        	sta	$12                     ; 0x2012 <f256main+0x17ce>
    60a2: a5 13        	lda	$13                     ; 0x2013 <f256main+0x17cf>
    60a4: 85 17        	sta	$17                     ; 0x2017 <f256main+0x17d3>
    60a6: 29 33        	and	#$33
    60a8: 85 13        	sta	$13                     ; 0x2013 <f256main+0x17cf>
    60aa: a5 14        	lda	$14                     ; 0x2014 <f256main+0x17d0>
    60ac: 85 18        	sta	$18                     ; 0x2018 <f256main+0x17d4>
    60ae: 29 33        	and	#$33
    60b0: 85 14        	sta	$14                     ; 0x2014 <f256main+0x17d0>
    60b2: a5 15        	lda	$15                     ; 0x2015 <f256main+0x17d1>
    60b4: 4a           	lsr
    60b5: 85 19        	sta	$19                     ; 0x2019 <f256main+0x17d5>
    60b7: 46 18        	lsr	$18                     ; 0x2018 <f256main+0x17d4>
    60b9: 46 17        	lsr	$17                     ; 0x2017 <f256main+0x17d3>
    60bb: a5 16        	lda	$16                     ; 0x2016 <f256main+0x17d2>
    60bd: 4a           	lsr
    60be: 46 19        	lsr	$19                     ; 0x2019 <f256main+0x17d5>
    60c0: 46 18        	lsr	$18                     ; 0x2018 <f256main+0x17d4>
    60c2: a4 17        	ldy	$17                     ; 0x2017 <f256main+0x17d3>
    60c4: 84 16        	sty	$16                     ; 0x2016 <f256main+0x17d2>
    60c6: 46 16        	lsr	$16                     ; 0x2016 <f256main+0x17d2>
    60c8: 4a           	lsr
    60c9: 29 33        	and	#$33
    60cb: 85 1a        	sta	$1a                     ; 0x201a <f256main+0x17d6>
    60cd: a5 16        	lda	$16                     ; 0x2016 <f256main+0x17d2>
    60cf: 29 33        	and	#$33
    60d1: 85 16        	sta	$16                     ; 0x2016 <f256main+0x17d2>
    60d3: a5 18        	lda	$18                     ; 0x2018 <f256main+0x17d4>
    60d5: 29 33        	and	#$33
    60d7: 85 17        	sta	$17                     ; 0x2017 <f256main+0x17d3>
    60d9: a5 19        	lda	$19                     ; 0x2019 <f256main+0x17d5>
    60db: 29 33        	and	#$33
    60dd: 85 18        	sta	$18                     ; 0x2018 <f256main+0x17d4>
    60df: a5 15        	lda	$15                     ; 0x2015 <f256main+0x17d1>
    60e1: 29 33        	and	#$33
    60e3: 85 15        	sta	$15                     ; 0x2015 <f256main+0x17d1>
    60e5: 18           	clc
    60e6: a5 1a        	lda	$1a                     ; 0x201a <f256main+0x17d6>
    60e8: 65 12        	adc	$12                     ; 0x2012 <f256main+0x17ce>
    60ea: 85 12        	sta	$12                     ; 0x2012 <f256main+0x17ce>
    60ec: a5 16        	lda	$16                     ; 0x2016 <f256main+0x17d2>
    60ee: 65 13        	adc	$13                     ; 0x2013 <f256main+0x17cf>
    60f0: 85 13        	sta	$13                     ; 0x2013 <f256main+0x17cf>
    60f2: a5 17        	lda	$17                     ; 0x2017 <f256main+0x17d3>
    60f4: 65 14        	adc	$14                     ; 0x2014 <f256main+0x17d0>
    60f6: 85 14        	sta	$14                     ; 0x2014 <f256main+0x17d0>
    60f8: a5 18        	lda	$18                     ; 0x2018 <f256main+0x17d4>
    60fa: 65 15        	adc	$15                     ; 0x2015 <f256main+0x17d1>
    60fc: 85 15        	sta	$15                     ; 0x2015 <f256main+0x17d1>
    60fe: 4a           	lsr
    60ff: 85 16        	sta	$16                     ; 0x2016 <f256main+0x17d2>
    6101: a5 14        	lda	$14                     ; 0x2014 <f256main+0x17d0>
    6103: 6a           	ror
    6104: a4 13        	ldy	$13                     ; 0x2013 <f256main+0x17cf>
    6106: 84 17        	sty	$17                     ; 0x2017 <f256main+0x17d3>
    6108: 66 17        	ror	$17                     ; 0x2017 <f256main+0x17d3>
    610a: a4 12        	ldy	$12                     ; 0x2012 <f256main+0x17ce>
    610c: 84 18        	sty	$18                     ; 0x2018 <f256main+0x17d4>
    610e: 7a           	ply
    610f: 66 18        	ror	$18                     ; 0x2018 <f256main+0x17d4>
    6111: 46 16        	lsr	$16                     ; 0x2016 <f256main+0x17d2>
    6113: 6a           	ror
    6114: 66 17        	ror	$17                     ; 0x2017 <f256main+0x17d3>
    6116: 66 18        	ror	$18                     ; 0x2018 <f256main+0x17d4>
    6118: 46 16        	lsr	$16                     ; 0x2016 <f256main+0x17d2>
    611a: 6a           	ror
    611b: 66 17        	ror	$17                     ; 0x2017 <f256main+0x17d3>
    611d: 66 18        	ror	$18                     ; 0x2018 <f256main+0x17d4>
    611f: 46 16        	lsr	$16                     ; 0x2016 <f256main+0x17d2>
    6121: 6a           	ror
    6122: 85 19        	sta	$19                     ; 0x2019 <f256main+0x17d5>
    6124: a5 17        	lda	$17                     ; 0x2017 <f256main+0x17d3>
    6126: 85 1a        	sta	$1a                     ; 0x201a <f256main+0x17d6>
    6128: 66 1a        	ror	$1a                     ; 0x201a <f256main+0x17d6>
    612a: a5 18        	lda	$18                     ; 0x2018 <f256main+0x17d4>
    612c: 6a           	ror
    612d: 18           	clc
    612e: 65 12        	adc	$12                     ; 0x2012 <f256main+0x17ce>
    6130: 85 12        	sta	$12                     ; 0x2012 <f256main+0x17ce>
    6132: a5 1a        	lda	$1a                     ; 0x201a <f256main+0x17d6>
    6134: 65 13        	adc	$13                     ; 0x2013 <f256main+0x17cf>
    6136: 85 13        	sta	$13                     ; 0x2013 <f256main+0x17cf>
    6138: a5 19        	lda	$19                     ; 0x2019 <f256main+0x17d5>
    613a: 65 14        	adc	$14                     ; 0x2014 <f256main+0x17d0>
    613c: 85 14        	sta	$14                     ; 0x2014 <f256main+0x17d0>
    613e: a5 16        	lda	$16                     ; 0x2016 <f256main+0x17d2>
    6140: 65 15        	adc	$15                     ; 0x2015 <f256main+0x17d1>
    6142: 85 15        	sta	$15                     ; 0x2015 <f256main+0x17d1>
    6144: a5 12        	lda	$12                     ; 0x2012 <f256main+0x17ce>
    6146: 29 0f        	and	#$f
    6148: 85 12        	sta	$12                     ; 0x2012 <f256main+0x17ce>
    614a: 85 18        	sta	$18                     ; 0x2018 <f256main+0x17d4>
    614c: a5 13        	lda	$13                     ; 0x2013 <f256main+0x17cf>
    614e: 29 0f        	and	#$f
    6150: 85 13        	sta	$13                     ; 0x2013 <f256main+0x17cf>
    6152: 85 17        	sta	$17                     ; 0x2017 <f256main+0x17d3>
    6154: a5 14        	lda	$14                     ; 0x2014 <f256main+0x17d0>
    6156: 29 0f        	and	#$f
    6158: 85 14        	sta	$14                     ; 0x2014 <f256main+0x17d0>
    615a: 85 19        	sta	$19                     ; 0x2019 <f256main+0x17d5>
    615c: a5 15        	lda	$15                     ; 0x2015 <f256main+0x17d1>
    615e: 29 0f        	and	#$f
    6160: 85 16        	sta	$16                     ; 0x2016 <f256main+0x17d2>
    6162: 18           	clc
    6163: a5 18        	lda	$18                     ; 0x2018 <f256main+0x17d4>
    6165: 69 00        	adc	#$0
    6167: 85 15        	sta	$15                     ; 0x2015 <f256main+0x17d1>
    6169: 85 1a        	sta	$1a                     ; 0x201a <f256main+0x17d6>
    616b: a5 17        	lda	$17                     ; 0x2017 <f256main+0x17d3>
    616d: 65 12        	adc	$12                     ; 0x2012 <f256main+0x17ce>
    616f: 85 12        	sta	$12                     ; 0x2012 <f256main+0x17ce>
    6171: 85 18        	sta	$18                     ; 0x2018 <f256main+0x17d4>
    6173: a5 19        	lda	$19                     ; 0x2019 <f256main+0x17d5>
    6175: 65 13        	adc	$13                     ; 0x2013 <f256main+0x17cf>
    6177: 85 17        	sta	$17                     ; 0x2017 <f256main+0x17d3>
    6179: a5 16        	lda	$16                     ; 0x2016 <f256main+0x17d2>
    617b: 65 14        	adc	$14                     ; 0x2014 <f256main+0x17d0>
    617d: 85 13        	sta	$13                     ; 0x2013 <f256main+0x17cf>
    617f: 18           	clc
    6180: a5 1a        	lda	$1a                     ; 0x201a <f256main+0x17d6>
    6182: 69 00        	adc	#$0
    6184: a5 18        	lda	$18                     ; 0x2018 <f256main+0x17d4>
    6186: 69 00        	adc	#$0
    6188: a5 17        	lda	$17                     ; 0x2017 <f256main+0x17d3>
    618a: 65 15        	adc	$15                     ; 0x2015 <f256main+0x17d1>
    618c: a5 13        	lda	$13                     ; 0x2013 <f256main+0x17cf>
    618e: 65 12        	adc	$12                     ; 0x2012 <f256main+0x17ce>
    6190: 85 12        	sta	$12                     ; 0x2012 <f256main+0x17ce>
    6192: a9 20        	lda	#$20
    6194: 38           	sec
    6195: e5 12        	sbc	$12                     ; 0x2012 <f256main+0x17ce>
    6197: 85 12        	sta	$12                     ; 0x2012 <f256main+0x17ce>
    6199: a9 00        	lda	#$0
    619b: e9 00        	sbc	#$0
    619d: 85 8e        	sta	$8e                     ; 0x208e <f256main+0x184a>
    619f: 64 13        	stz	$13                     ; 0x2013 <f256main+0x17cf>
    61a1: a5 12        	lda	$12                     ; 0x2012 <f256main+0x17ce>
    61a3: 85 91        	sta	$91                     ; 0x2091 <f256main+0x184d>
    61a5: 18           	clc
    61a6: 69 f8        	adc	#$f8
    61a8: 85 14        	sta	$14                     ; 0x2014 <f256main+0x17d0>
    61aa: 84 12        	sty	$12                     ; 0x2012 <f256main+0x17ce>
    61ac: a5 8b        	lda	$8b                     ; 0x208b <f256main+0x1847>
    61ae: 20 37 51     	jsr	$5137 <__ashlsi3>
    61b1: 85 98        	sta	$98                     ; 0x2098 <f256main+0x1854>
    61b3: 86 97        	stx	$97                     ; 0x2097 <f256main+0x1853>
    61b5: a6 12        	ldx	$12                     ; 0x2012 <f256main+0x17ce>
    61b7: 86 8b        	stx	$8b                     ; 0x208b <f256main+0x1847>
    61b9: a9 09        	lda	#$9
    61bb: 38           	sec
    61bc: e5 91        	sbc	$91                     ; 0x2091 <f256main+0x184d>
    61be: 85 14        	sta	$14                     ; 0x2014 <f256main+0x17d0>
    61c0: a9 00        	lda	#$0
    61c2: e5 8e        	sbc	$8e                     ; 0x208e <f256main+0x184a>
    61c4: 85 15        	sta	$15                     ; 0x2015 <f256main+0x17d1>
    61c6: a6 9c        	ldx	$9c                     ; 0x209c <f256main+0x1858>
    61c8: 86 12        	stx	$12                     ; 0x2012 <f256main+0x17ce>
    61ca: a4 9b        	ldy	$9b                     ; 0x209b <f256main+0x1857>
    61cc: 84 17        	sty	$17                     ; 0x2017 <f256main+0x17d3>
    61ce: a6 9a        	ldx	$9a                     ; 0x209a <f256main+0x1856>
    61d0: 86 18        	stx	$18                     ; 0x2018 <f256main+0x17d4>
    61d2: a5 8f        	lda	$8f                     ; 0x208f <f256main+0x184b>
    61d4: a6 90        	ldx	$90                     ; 0x2090 <f256main+0x184c>
    61d6: f0 03        	beq	$61db <__divsf3+0x3e7>
    61d8: 4c 0c 64     	jmp	$640c <__divsf3+0x618>
    61db: c9 80        	cmp	#$80
    61dd: f0 03        	beq	$61e2 <__divsf3+0x3ee>
    61df: 4c 16 64     	jmp	$6416 <__divsf3+0x622>
    61e2: a6 18        	ldx	$18                     ; 0x2018 <f256main+0x17d4>
    61e4: f0 03        	beq	$61e9 <__divsf3+0x3f5>
    61e6: 4c 4b 69     	jmp	$694b <__divsf3+0xb57>
    61e9: 86 9a        	stx	$9a                     ; 0x209a <f256main+0x1856>
    61eb: a6 17        	ldx	$17                     ; 0x2017 <f256main+0x17d3>
    61ed: e0 00        	cpx	#$0
    61ef: a4 8d        	ldy	$8d                     ; 0x208d <f256main+0x1849>
    61f1: 84 19        	sty	$19                     ; 0x2019 <f256main+0x17d5>
    61f3: 90 03        	bcc	$61f8 <__divsf3+0x404>
    61f5: 4c 27 64     	jmp	$6427 <__divsf3+0x633>
    61f8: 86 16        	stx	$16                     ; 0x2016 <f256main+0x17d2>
    61fa: a6 15        	ldx	$15                     ; 0x2015 <f256main+0x17d1>
    61fc: 86 9b        	stx	$9b                     ; 0x209b <f256main+0x1857>
    61fe: a6 14        	ldx	$14                     ; 0x2014 <f256main+0x17d0>
    6200: 86 9e        	stx	$9e                     ; 0x209e <f256main+0x185a>
    6202: a6 12        	ldx	$12                     ; 0x2012 <f256main+0x17ce>
    6204: 86 9c        	stx	$9c                     ; 0x209c <f256main+0x1858>
    6206: a6 13        	ldx	$13                     ; 0x2013 <f256main+0x17cf>
    6208: 86 9d        	stx	$9d                     ; 0x209d <f256main+0x1859>
    620a: a4 8d        	ldy	$8d                     ; 0x208d <f256main+0x1849>
    620c: a5 8d        	lda	$8d                     ; 0x208d <f256main+0x1849>
    620e: 4a           	lsr
    620f: 85 12        	sta	$12                     ; 0x2012 <f256main+0x17ce>
    6211: a6 9a        	ldx	$9a                     ; 0x209a <f256main+0x1856>
    6213: 8a           	txa
    6214: 6a           	ror
    6215: 85 13        	sta	$13                     ; 0x2013 <f256main+0x17cf>
    6217: a5 16        	lda	$16                     ; 0x2016 <f256main+0x17d2>
    6219: 6a           	ror
    621a: 85 14        	sta	$14                     ; 0x2014 <f256main+0x17d0>
    621c: a5 16        	lda	$16                     ; 0x2016 <f256main+0x17d2>
    621e: 05 14        	ora	$14                     ; 0x2014 <f256main+0x17d0>
    6220: 85 17        	sta	$17                     ; 0x2017 <f256main+0x17d3>
    6222: 8a           	txa
    6223: 05 13        	ora	$13                     ; 0x2013 <f256main+0x17cf>
    6225: 85 15        	sta	$15                     ; 0x2015 <f256main+0x17d1>
    6227: a5 8d        	lda	$8d                     ; 0x208d <f256main+0x1849>
    6229: 05 12        	ora	$12                     ; 0x2012 <f256main+0x17ce>
    622b: 85 18        	sta	$18                     ; 0x2018 <f256main+0x17d4>
    622d: 4a           	lsr
    622e: 5a           	phy
    622f: a4 15        	ldy	$15                     ; 0x2015 <f256main+0x17d1>
    6231: 84 12        	sty	$12                     ; 0x2012 <f256main+0x17ce>
    6233: 66 12        	ror	$12                     ; 0x2012 <f256main+0x17ce>
    6235: a4 17        	ldy	$17                     ; 0x2017 <f256main+0x17d3>
    6237: 84 13        	sty	$13                     ; 0x2013 <f256main+0x17cf>
    6239: 66 13        	ror	$13                     ; 0x2013 <f256main+0x17cf>
    623b: 4a           	lsr
    623c: 85 14        	sta	$14                     ; 0x2014 <f256main+0x17d0>
    623e: 66 12        	ror	$12                     ; 0x2012 <f256main+0x17ce>
    6240: 66 13        	ror	$13                     ; 0x2013 <f256main+0x17cf>
    6242: a5 17        	lda	$17                     ; 0x2017 <f256main+0x17d3>
    6244: 05 13        	ora	$13                     ; 0x2013 <f256main+0x17cf>
    6246: 85 17        	sta	$17                     ; 0x2017 <f256main+0x17d3>
    6248: a5 15        	lda	$15                     ; 0x2015 <f256main+0x17d1>
    624a: 05 12        	ora	$12                     ; 0x2012 <f256main+0x17ce>
    624c: 85 15        	sta	$15                     ; 0x2015 <f256main+0x17d1>
    624e: a5 18        	lda	$18                     ; 0x2018 <f256main+0x17d4>
    6250: 05 14        	ora	$14                     ; 0x2014 <f256main+0x17d0>
    6252: 85 18        	sta	$18                     ; 0x2018 <f256main+0x17d4>
    6254: 4a           	lsr
    6255: a4 15        	ldy	$15                     ; 0x2015 <f256main+0x17d1>
    6257: 84 12        	sty	$12                     ; 0x2012 <f256main+0x17ce>
    6259: 66 12        	ror	$12                     ; 0x2012 <f256main+0x17ce>
    625b: a4 17        	ldy	$17                     ; 0x2017 <f256main+0x17d3>
    625d: 84 13        	sty	$13                     ; 0x2013 <f256main+0x17cf>
    625f: 66 13        	ror	$13                     ; 0x2013 <f256main+0x17cf>
    6261: 4a           	lsr
    6262: 66 12        	ror	$12                     ; 0x2012 <f256main+0x17ce>
    6264: 66 13        	ror	$13                     ; 0x2013 <f256main+0x17cf>
    6266: 4a           	lsr
    6267: 66 12        	ror	$12                     ; 0x2012 <f256main+0x17ce>
    6269: 66 13        	ror	$13                     ; 0x2013 <f256main+0x17cf>
    626b: 4a           	lsr
    626c: 85 14        	sta	$14                     ; 0x2014 <f256main+0x17d0>
    626e: 66 12        	ror	$12                     ; 0x2012 <f256main+0x17ce>
    6270: 66 13        	ror	$13                     ; 0x2013 <f256main+0x17cf>
    6272: a5 17        	lda	$17                     ; 0x2017 <f256main+0x17d3>
    6274: 05 13        	ora	$13                     ; 0x2013 <f256main+0x17cf>
    6276: 85 17        	sta	$17                     ; 0x2017 <f256main+0x17d3>
    6278: a5 15        	lda	$15                     ; 0x2015 <f256main+0x17d1>
    627a: 05 12        	ora	$12                     ; 0x2012 <f256main+0x17ce>
    627c: 85 13        	sta	$13                     ; 0x2013 <f256main+0x17cf>
    627e: a5 18        	lda	$18                     ; 0x2018 <f256main+0x17d4>
    6280: 05 14        	ora	$14                     ; 0x2014 <f256main+0x17d0>
    6282: 85 18        	sta	$18                     ; 0x2018 <f256main+0x17d4>
    6284: a5 17        	lda	$17                     ; 0x2017 <f256main+0x17d3>
    6286: 05 13        	ora	$13                     ; 0x2013 <f256main+0x17cf>
    6288: 85 14        	sta	$14                     ; 0x2014 <f256main+0x17d0>
    628a: a5 13        	lda	$13                     ; 0x2013 <f256main+0x17cf>
    628c: 05 18        	ora	$18                     ; 0x2018 <f256main+0x17d4>
    628e: 85 15        	sta	$15                     ; 0x2015 <f256main+0x17d1>
    6290: a5 14        	lda	$14                     ; 0x2014 <f256main+0x17d0>
    6292: 05 18        	ora	$18                     ; 0x2018 <f256main+0x17d4>
    6294: 85 17        	sta	$17                     ; 0x2017 <f256main+0x17d3>
    6296: a5 18        	lda	$18                     ; 0x2018 <f256main+0x17d4>
    6298: 85 14        	sta	$14                     ; 0x2014 <f256main+0x17d0>
    629a: 46 14        	lsr	$14                     ; 0x2014 <f256main+0x17d0>
    629c: a5 17        	lda	$17                     ; 0x2017 <f256main+0x17d3>
    629e: 4a           	lsr
    629f: 29 55        	and	#$55
    62a1: 85 12        	sta	$12                     ; 0x2012 <f256main+0x17ce>
    62a3: a5 15        	lda	$15                     ; 0x2015 <f256main+0x17d1>
    62a5: 4a           	lsr
    62a6: 29 55        	and	#$55
    62a8: 85 13        	sta	$13                     ; 0x2013 <f256main+0x17cf>
    62aa: a5 14        	lda	$14                     ; 0x2014 <f256main+0x17d0>
    62ac: 29 55        	and	#$55
    62ae: 85 14        	sta	$14                     ; 0x2014 <f256main+0x17d0>
    62b0: 38           	sec
    62b1: a5 17        	lda	$17                     ; 0x2017 <f256main+0x17d3>
    62b3: e5 12        	sbc	$12                     ; 0x2012 <f256main+0x17ce>
    62b5: 85 12        	sta	$12                     ; 0x2012 <f256main+0x17ce>
    62b7: a5 15        	lda	$15                     ; 0x2015 <f256main+0x17d1>
    62b9: e5 13        	sbc	$13                     ; 0x2013 <f256main+0x17cf>
    62bb: 85 13        	sta	$13                     ; 0x2013 <f256main+0x17cf>
    62bd: a5 18        	lda	$18                     ; 0x2018 <f256main+0x17d4>
    62bf: e5 14        	sbc	$14                     ; 0x2014 <f256main+0x17d0>
    62c1: 85 14        	sta	$14                     ; 0x2014 <f256main+0x17d0>
    62c3: a9 00        	lda	#$0
    62c5: e9 00        	sbc	#$0
    62c7: 85 15        	sta	$15                     ; 0x2015 <f256main+0x17d1>
    62c9: a5 12        	lda	$12                     ; 0x2012 <f256main+0x17ce>
    62cb: 85 17        	sta	$17                     ; 0x2017 <f256main+0x17d3>
    62cd: 29 33        	and	#$33
    62cf: 85 12        	sta	$12                     ; 0x2012 <f256main+0x17ce>
    62d1: a5 13        	lda	$13                     ; 0x2013 <f256main+0x17cf>
    62d3: 85 18        	sta	$18                     ; 0x2018 <f256main+0x17d4>
    62d5: 29 33        	and	#$33
    62d7: 85 13        	sta	$13                     ; 0x2013 <f256main+0x17cf>
    62d9: a5 14        	lda	$14                     ; 0x2014 <f256main+0x17d0>
    62db: 85 19        	sta	$19                     ; 0x2019 <f256main+0x17d5>
    62dd: 29 33        	and	#$33
    62df: 85 14        	sta	$14                     ; 0x2014 <f256main+0x17d0>
    62e1: a5 15        	lda	$15                     ; 0x2015 <f256main+0x17d1>
    62e3: 4a           	lsr
    62e4: 85 1a        	sta	$1a                     ; 0x201a <f256main+0x17d6>
    62e6: 46 19        	lsr	$19                     ; 0x2019 <f256main+0x17d5>
    62e8: 46 18        	lsr	$18                     ; 0x2018 <f256main+0x17d4>
    62ea: a5 17        	lda	$17                     ; 0x2017 <f256main+0x17d3>
    62ec: 4a           	lsr
    62ed: 46 1a        	lsr	$1a                     ; 0x201a <f256main+0x17d6>
    62ef: 46 19        	lsr	$19                     ; 0x2019 <f256main+0x17d5>
    62f1: a4 18        	ldy	$18                     ; 0x2018 <f256main+0x17d4>
    62f3: 84 17        	sty	$17                     ; 0x2017 <f256main+0x17d3>
    62f5: 46 17        	lsr	$17                     ; 0x2017 <f256main+0x17d3>
    62f7: 4a           	lsr
    62f8: 29 33        	and	#$33
    62fa: 85 1b        	sta	$1b                     ; 0x201b <f256main+0x17d7>
    62fc: a5 17        	lda	$17                     ; 0x2017 <f256main+0x17d3>
    62fe: 29 33        	and	#$33
    6300: 85 17        	sta	$17                     ; 0x2017 <f256main+0x17d3>
    6302: a5 19        	lda	$19                     ; 0x2019 <f256main+0x17d5>
    6304: 29 33        	and	#$33
    6306: 85 18        	sta	$18                     ; 0x2018 <f256main+0x17d4>
    6308: a5 1a        	lda	$1a                     ; 0x201a <f256main+0x17d6>
    630a: 29 33        	and	#$33
    630c: 85 19        	sta	$19                     ; 0x2019 <f256main+0x17d5>
    630e: a5 15        	lda	$15                     ; 0x2015 <f256main+0x17d1>
    6310: 29 33        	and	#$33
    6312: 85 15        	sta	$15                     ; 0x2015 <f256main+0x17d1>
    6314: 18           	clc
    6315: a5 1b        	lda	$1b                     ; 0x201b <f256main+0x17d7>
    6317: 65 12        	adc	$12                     ; 0x2012 <f256main+0x17ce>
    6319: 85 12        	sta	$12                     ; 0x2012 <f256main+0x17ce>
    631b: a5 17        	lda	$17                     ; 0x2017 <f256main+0x17d3>
    631d: 65 13        	adc	$13                     ; 0x2013 <f256main+0x17cf>
    631f: 85 13        	sta	$13                     ; 0x2013 <f256main+0x17cf>
    6321: a5 18        	lda	$18                     ; 0x2018 <f256main+0x17d4>
    6323: 65 14        	adc	$14                     ; 0x2014 <f256main+0x17d0>
    6325: 85 14        	sta	$14                     ; 0x2014 <f256main+0x17d0>
    6327: a5 19        	lda	$19                     ; 0x2019 <f256main+0x17d5>
    6329: 65 15        	adc	$15                     ; 0x2015 <f256main+0x17d1>
    632b: 85 15        	sta	$15                     ; 0x2015 <f256main+0x17d1>
    632d: 4a           	lsr
    632e: 85 17        	sta	$17                     ; 0x2017 <f256main+0x17d3>
    6330: a5 14        	lda	$14                     ; 0x2014 <f256main+0x17d0>
    6332: 6a           	ror
    6333: a4 13        	ldy	$13                     ; 0x2013 <f256main+0x17cf>
    6335: 84 18        	sty	$18                     ; 0x2018 <f256main+0x17d4>
    6337: 66 18        	ror	$18                     ; 0x2018 <f256main+0x17d4>
    6339: a4 12        	ldy	$12                     ; 0x2012 <f256main+0x17ce>
    633b: 84 19        	sty	$19                     ; 0x2019 <f256main+0x17d5>
    633d: 7a           	ply
    633e: 66 19        	ror	$19                     ; 0x2019 <f256main+0x17d5>
    6340: 46 17        	lsr	$17                     ; 0x2017 <f256main+0x17d3>
    6342: 6a           	ror
    6343: 66 18        	ror	$18                     ; 0x2018 <f256main+0x17d4>
    6345: 66 19        	ror	$19                     ; 0x2019 <f256main+0x17d5>
    6347: 46 17        	lsr	$17                     ; 0x2017 <f256main+0x17d3>
    6349: 6a           	ror
    634a: 66 18        	ror	$18                     ; 0x2018 <f256main+0x17d4>
    634c: 66 19        	ror	$19                     ; 0x2019 <f256main+0x17d5>
    634e: 46 17        	lsr	$17                     ; 0x2017 <f256main+0x17d3>
    6350: 6a           	ror
    6351: 85 1a        	sta	$1a                     ; 0x201a <f256main+0x17d6>
    6353: a5 18        	lda	$18                     ; 0x2018 <f256main+0x17d4>
    6355: 85 1b        	sta	$1b                     ; 0x201b <f256main+0x17d7>
    6357: 66 1b        	ror	$1b                     ; 0x201b <f256main+0x17d7>
    6359: a5 19        	lda	$19                     ; 0x2019 <f256main+0x17d5>
    635b: 6a           	ror
    635c: 18           	clc
    635d: 65 12        	adc	$12                     ; 0x2012 <f256main+0x17ce>
    635f: 85 12        	sta	$12                     ; 0x2012 <f256main+0x17ce>
    6361: a5 1b        	lda	$1b                     ; 0x201b <f256main+0x17d7>
    6363: 65 13        	adc	$13                     ; 0x2013 <f256main+0x17cf>
    6365: 85 13        	sta	$13                     ; 0x2013 <f256main+0x17cf>
    6367: a5 1a        	lda	$1a                     ; 0x201a <f256main+0x17d6>
    6369: 65 14        	adc	$14                     ; 0x2014 <f256main+0x17d0>
    636b: 85 14        	sta	$14                     ; 0x2014 <f256main+0x17d0>
    636d: a5 17        	lda	$17                     ; 0x2017 <f256main+0x17d3>
    636f: 65 15        	adc	$15                     ; 0x2015 <f256main+0x17d1>
    6371: 85 15        	sta	$15                     ; 0x2015 <f256main+0x17d1>
    6373: a5 12        	lda	$12                     ; 0x2012 <f256main+0x17ce>
    6375: 29 0f        	and	#$f
    6377: 85 12        	sta	$12                     ; 0x2012 <f256main+0x17ce>
    6379: 85 18        	sta	$18                     ; 0x2018 <f256main+0x17d4>
    637b: a5 13        	lda	$13                     ; 0x2013 <f256main+0x17cf>
    637d: 29 0f        	and	#$f
    637f: 85 13        	sta	$13                     ; 0x2013 <f256main+0x17cf>
    6381: 85 1a        	sta	$1a                     ; 0x201a <f256main+0x17d6>
    6383: a5 14        	lda	$14                     ; 0x2014 <f256main+0x17d0>
    6385: 29 0f        	and	#$f
    6387: 85 14        	sta	$14                     ; 0x2014 <f256main+0x17d0>
    6389: 85 19        	sta	$19                     ; 0x2019 <f256main+0x17d5>
    638b: a5 15        	lda	$15                     ; 0x2015 <f256main+0x17d1>
    638d: 29 0f        	and	#$f
    638f: 85 17        	sta	$17                     ; 0x2017 <f256main+0x17d3>
    6391: 18           	clc
    6392: a5 18        	lda	$18                     ; 0x2018 <f256main+0x17d4>
    6394: 69 00        	adc	#$0
    6396: 85 15        	sta	$15                     ; 0x2015 <f256main+0x17d1>
    6398: 85 1b        	sta	$1b                     ; 0x201b <f256main+0x17d7>
    639a: a5 1a        	lda	$1a                     ; 0x201a <f256main+0x17d6>
    639c: 65 12        	adc	$12                     ; 0x2012 <f256main+0x17ce>
    639e: 85 12        	sta	$12                     ; 0x2012 <f256main+0x17ce>
    63a0: a5 19        	lda	$19                     ; 0x2019 <f256main+0x17d5>
    63a2: 65 13        	adc	$13                     ; 0x2013 <f256main+0x17cf>
    63a4: 85 18        	sta	$18                     ; 0x2018 <f256main+0x17d4>
    63a6: a5 17        	lda	$17                     ; 0x2017 <f256main+0x17d3>
    63a8: 65 14        	adc	$14                     ; 0x2014 <f256main+0x17d0>
    63aa: 85 13        	sta	$13                     ; 0x2013 <f256main+0x17cf>
    63ac: 18           	clc
    63ad: a5 1b        	lda	$1b                     ; 0x201b <f256main+0x17d7>
    63af: 69 00        	adc	#$0
    63b1: a5 12        	lda	$12                     ; 0x2012 <f256main+0x17ce>
    63b3: 69 00        	adc	#$0
    63b5: a5 18        	lda	$18                     ; 0x2018 <f256main+0x17d4>
    63b7: 65 15        	adc	$15                     ; 0x2015 <f256main+0x17d1>
    63b9: a5 13        	lda	$13                     ; 0x2013 <f256main+0x17cf>
    63bb: 65 12        	adc	$12                     ; 0x2012 <f256main+0x17ce>
    63bd: 85 12        	sta	$12                     ; 0x2012 <f256main+0x17ce>
    63bf: a9 20        	lda	#$20
    63c1: 38           	sec
    63c2: e5 12        	sbc	$12                     ; 0x2012 <f256main+0x17ce>
    63c4: 85 8d        	sta	$8d                     ; 0x208d <f256main+0x1849>
    63c6: a9 00        	lda	#$0
    63c8: e9 00        	sbc	#$0
    63ca: 85 8e        	sta	$8e                     ; 0x208e <f256main+0x184a>
    63cc: 18           	clc
    63cd: a5 8d        	lda	$8d                     ; 0x208d <f256main+0x1849>
    63cf: 69 f8        	adc	#$f8
    63d1: 84 12        	sty	$12                     ; 0x2012 <f256main+0x17ce>
    63d3: 64 13        	stz	$13                     ; 0x2013 <f256main+0x17cf>
    63d5: 85 14        	sta	$14                     ; 0x2014 <f256main+0x17d0>
    63d7: a5 16        	lda	$16                     ; 0x2016 <f256main+0x17d2>
    63d9: 20 37 51     	jsr	$5137 <__ashlsi3>
    63dc: 85 95        	sta	$95                     ; 0x2095 <f256main+0x1851>
    63de: 86 9a        	stx	$9a                     ; 0x209a <f256main+0x1856>
    63e0: a4 12        	ldy	$12                     ; 0x2012 <f256main+0x17ce>
    63e2: a6 9e        	ldx	$9e                     ; 0x209e <f256main+0x185a>
    63e4: 86 12        	stx	$12                     ; 0x2012 <f256main+0x17ce>
    63e6: 18           	clc
    63e7: a5 8d        	lda	$8d                     ; 0x208d <f256main+0x1849>
    63e9: 65 12        	adc	$12                     ; 0x2012 <f256main+0x17ce>
    63eb: 85 14        	sta	$14                     ; 0x2014 <f256main+0x17d0>
    63ed: a6 9b        	ldx	$9b                     ; 0x209b <f256main+0x1857>
    63ef: 86 12        	stx	$12                     ; 0x2012 <f256main+0x17ce>
    63f1: a5 8e        	lda	$8e                     ; 0x208e <f256main+0x184a>
    63f3: 65 12        	adc	$12                     ; 0x2012 <f256main+0x17ce>
    63f5: 85 12        	sta	$12                     ; 0x2012 <f256main+0x17ce>
    63f7: 18           	clc
    63f8: a5 14        	lda	$14                     ; 0x2014 <f256main+0x17d0>
    63fa: 69 f7        	adc	#$f7
    63fc: 85 14        	sta	$14                     ; 0x2014 <f256main+0x17d0>
    63fe: 84 19        	sty	$19                     ; 0x2019 <f256main+0x17d5>
    6400: a5 12        	lda	$12                     ; 0x2012 <f256main+0x17ce>
    6402: 69 ff        	adc	#$ff
    6404: 85 15        	sta	$15                     ; 0x2015 <f256main+0x17d1>
    6406: a6 9c        	ldx	$9c                     ; 0x209c <f256main+0x1858>
    6408: 86 12        	stx	$12                     ; 0x2012 <f256main+0x17ce>
    640a: 80 23        	bra	$642f <__divsf3+0x63b>
    640c: a4 90        	ldy	$90                     ; 0x2090 <f256main+0x184c>
    640e: a6 18        	ldx	$18                     ; 0x2018 <f256main+0x17d4>
    6410: 86 9a        	stx	$9a                     ; 0x209a <f256main+0x1856>
    6412: c0 00        	cpy	#$0
    6414: 80 06        	bra	$641c <__divsf3+0x628>
    6416: a6 18        	ldx	$18                     ; 0x2018 <f256main+0x17d4>
    6418: 86 9a        	stx	$9a                     ; 0x209a <f256main+0x1856>
    641a: c9 80        	cmp	#$80
    641c: a6 8d        	ldx	$8d                     ; 0x208d <f256main+0x1849>
    641e: 86 19        	stx	$19                     ; 0x2019 <f256main+0x17d5>
    6420: a6 17        	ldx	$17                     ; 0x2017 <f256main+0x17d3>
    6422: b0 03        	bcs	$6427 <__divsf3+0x633>
    6424: 4c f8 61     	jmp	$61f8 <__divsf3+0x404>
    6427: 86 95        	stx	$95                     ; 0x2095 <f256main+0x1851>
    6429: a6 13        	ldx	$13                     ; 0x2013 <f256main+0x17cf>
    642b: 86 9d        	stx	$9d                     ; 0x209d <f256main+0x1859>
    642d: 64 13        	stz	$13                     ; 0x2013 <f256main+0x17cf>
    642f: a5 19        	lda	$19                     ; 0x2019 <f256main+0x17d5>
    6431: 09 80        	ora	#$80
    6433: a8           	tay
    6434: 38           	sec
    6435: a5 8c        	lda	$8c                     ; 0x208c <f256main+0x1848>
    6437: e5 12        	sbc	$12                     ; 0x2012 <f256main+0x17ce>
    6439: 85 12        	sta	$12                     ; 0x2012 <f256main+0x17ce>
    643b: 84 8c        	sty	$8c                     ; 0x208c <f256main+0x1848>
    643d: a9 00        	lda	#$0
    643f: e9 00        	sbc	#$0
    6441: 85 17        	sta	$17                     ; 0x2017 <f256main+0x17d3>
    6443: 18           	clc
    6444: a5 12        	lda	$12                     ; 0x2012 <f256main+0x17ce>
    6446: 65 14        	adc	$14                     ; 0x2014 <f256main+0x17d0>
    6448: 85 9f        	sta	$9f                     ; 0x209f <f256main+0x185b>
    644a: a5 17        	lda	$17                     ; 0x2017 <f256main+0x17d3>
    644c: 65 15        	adc	$15                     ; 0x2015 <f256main+0x17d1>
    644e: 85 a0        	sta	$a0                     ; 0x20a0 <f256main+0x185c>
    6450: a5 95        	lda	$95                     ; 0x2095 <f256main+0x1851>
    6452: 85 9b        	sta	$9b                     ; 0x209b <f256main+0x1857>
    6454: 06 95        	asl	$95                     ; 0x2095 <f256main+0x1851>
    6456: a6 9a        	ldx	$9a                     ; 0x209a <f256main+0x1856>
    6458: 86 8d        	stx	$8d                     ; 0x208d <f256main+0x1849>
    645a: 26 8d        	rol	$8d                     ; 0x208d <f256main+0x1849>
    645c: 84 12        	sty	$12                     ; 0x2012 <f256main+0x17ce>
    645e: a6 12        	ldx	$12                     ; 0x2012 <f256main+0x17ce>
    6460: 86 9e        	stx	$9e                     ; 0x209e <f256main+0x185a>
    6462: 26 8c        	rol	$8c                     ; 0x208c <f256main+0x1848>
    6464: a6 13        	ldx	$13                     ; 0x2013 <f256main+0x17cf>
    6466: 86 9c        	stx	$9c                     ; 0x209c <f256main+0x1858>
    6468: a5 13        	lda	$13                     ; 0x2013 <f256main+0x17cf>
    646a: 2a           	rol
    646b: 85 a5        	sta	$a5                     ; 0x20a5 <f256main+0x1861>
    646d: 4a           	lsr
    646e: a6 8c        	ldx	$8c                     ; 0x208c <f256main+0x1848>
    6470: 86 a4        	stx	$a4                     ; 0x20a4 <f256main+0x1860>
    6472: 66 8c        	ror	$8c                     ; 0x208c <f256main+0x1848>
    6474: a6 8d        	ldx	$8d                     ; 0x208d <f256main+0x1849>
    6476: 86 a3        	stx	$a3                     ; 0x20a3 <f256main+0x185f>
    6478: 66 8d        	ror	$8d                     ; 0x208d <f256main+0x1849>
    647a: a6 95        	ldx	$95                     ; 0x2095 <f256main+0x1851>
    647c: 86 a2        	stx	$a2                     ; 0x20a2 <f256main+0x185e>
    647e: 66 95        	ror	$95                     ; 0x2095 <f256main+0x1851>
    6480: 64 96        	stz	$96                     ; 0x2096 <f256main+0x1852>
    6482: 66 96        	ror	$96                     ; 0x2096 <f256main+0x1852>
    6484: a9 33        	lda	#$33
    6486: 38           	sec
    6487: e5 96        	sbc	$96                     ; 0x2096 <f256main+0x1852>
    6489: 85 8e        	sta	$8e                     ; 0x208e <f256main+0x184a>
    648b: a9 f3        	lda	#$f3
    648d: e5 95        	sbc	$95                     ; 0x2095 <f256main+0x1851>
    648f: 85 8f        	sta	$8f                     ; 0x208f <f256main+0x184b>
    6491: a9 04        	lda	#$4
    6493: e5 8d        	sbc	$8d                     ; 0x208d <f256main+0x1849>
    6495: 85 90        	sta	$90                     ; 0x2090 <f256main+0x184c>
    6497: a9 75        	lda	#$75
    6499: e5 8c        	sbc	$8c                     ; 0x208c <f256main+0x1848>
    649b: 85 91        	sta	$91                     ; 0x2091 <f256main+0x184d>
    649d: a5 8b        	lda	$8b                     ; 0x208b <f256main+0x1847>
    649f: 09 80        	ora	#$80
    64a1: 85 94        	sta	$94                     ; 0x2094 <f256main+0x1850>
    64a3: 64 93        	stz	$93                     ; 0x2093 <f256main+0x184f>
    64a5: a6 90        	ldx	$90                     ; 0x2090 <f256main+0x184c>
    64a7: 86 12        	stx	$12                     ; 0x2012 <f256main+0x17ce>
    64a9: a6 91        	ldx	$91                     ; 0x2091 <f256main+0x184d>
    64ab: 86 13        	stx	$13                     ; 0x2013 <f256main+0x17cf>
    64ad: 64 14        	stz	$14                     ; 0x2014 <f256main+0x17d0>
    64af: 64 15        	stz	$15                     ; 0x2015 <f256main+0x17d1>
    64b1: 64 16        	stz	$16                     ; 0x2016 <f256main+0x17d2>
    64b3: 64 17        	stz	$17                     ; 0x2017 <f256main+0x17d3>
    64b5: a6 96        	ldx	$96                     ; 0x2096 <f256main+0x1852>
    64b7: 86 18        	stx	$18                     ; 0x2018 <f256main+0x17d4>
    64b9: a6 95        	ldx	$95                     ; 0x2095 <f256main+0x1851>
    64bb: 86 19        	stx	$19                     ; 0x2019 <f256main+0x17d5>
    64bd: a6 8d        	ldx	$8d                     ; 0x208d <f256main+0x1849>
    64bf: 86 1a        	stx	$1a                     ; 0x201a <f256main+0x17d6>
    64c1: a6 8c        	ldx	$8c                     ; 0x208c <f256main+0x1848>
    64c3: 86 1b        	stx	$1b                     ; 0x201b <f256main+0x17d7>
    64c5: 64 1c        	stz	$1c                     ; 0x201c <f256main+0x17d8>
    64c7: 64 1d        	stz	$1d                     ; 0x201d <f256main+0x17d9>
    64c9: 64 1e        	stz	$1e                     ; 0x201e <f256main+0x17da>
    64cb: 64 1f        	stz	$1f                     ; 0x201f <f256main+0x17db>
    64cd: a6 8f        	ldx	$8f                     ; 0x208f <f256main+0x184b>
    64cf: a5 8e        	lda	$8e                     ; 0x208e <f256main+0x184a>
    64d1: 20 22 52     	jsr	$5222 <__muldi3>
    64d4: a9 00        	lda	#$0
    64d6: 38           	sec
    64d7: e5 14        	sbc	$14                     ; 0x2014 <f256main+0x17d0>
    64d9: a8           	tay
    64da: a9 00        	lda	#$0
    64dc: e5 15        	sbc	$15                     ; 0x2015 <f256main+0x17d1>
    64de: aa           	tax
    64df: a9 00        	lda	#$0
    64e1: e5 16        	sbc	$16                     ; 0x2016 <f256main+0x17d2>
    64e3: 85 12        	sta	$12                     ; 0x2012 <f256main+0x17ce>
    64e5: a9 00        	lda	#$0
    64e7: e5 17        	sbc	$17                     ; 0x2017 <f256main+0x17d3>
    64e9: 85 13        	sta	$13                     ; 0x2013 <f256main+0x17cf>
    64eb: a5 8e        	lda	$8e                     ; 0x208e <f256main+0x184a>
    64ed: 85 18        	sta	$18                     ; 0x2018 <f256main+0x17d4>
    64ef: a5 8f        	lda	$8f                     ; 0x208f <f256main+0x184b>
    64f1: 85 19        	sta	$19                     ; 0x2019 <f256main+0x17d5>
    64f3: a5 90        	lda	$90                     ; 0x2090 <f256main+0x184c>
    64f5: 85 1a        	sta	$1a                     ; 0x201a <f256main+0x17d6>
    64f7: a5 91        	lda	$91                     ; 0x2091 <f256main+0x184d>
    64f9: 85 1b        	sta	$1b                     ; 0x201b <f256main+0x17d7>
    64fb: 64 14        	stz	$14                     ; 0x2014 <f256main+0x17d0>
    64fd: 64 15        	stz	$15                     ; 0x2015 <f256main+0x17d1>
    64ff: 64 16        	stz	$16                     ; 0x2016 <f256main+0x17d2>
    6501: 64 17        	stz	$17                     ; 0x2017 <f256main+0x17d3>
    6503: 64 1c        	stz	$1c                     ; 0x201c <f256main+0x17d8>
    6505: 64 1d        	stz	$1d                     ; 0x201d <f256main+0x17d9>
    6507: 64 1e        	stz	$1e                     ; 0x201e <f256main+0x17da>
    6509: 64 1f        	stz	$1f                     ; 0x201f <f256main+0x17db>
    650b: 98           	tya
    650c: 20 22 52     	jsr	$5222 <__muldi3>
    650f: a6 14        	ldx	$14                     ; 0x2014 <f256main+0x17d0>
    6511: 86 8b        	stx	$8b                     ; 0x208b <f256main+0x1847>
    6513: a6 15        	ldx	$15                     ; 0x2015 <f256main+0x17d1>
    6515: 86 8e        	stx	$8e                     ; 0x208e <f256main+0x184a>
    6517: a6 16        	ldx	$16                     ; 0x2016 <f256main+0x17d2>
    6519: 86 8f        	stx	$8f                     ; 0x208f <f256main+0x184b>
    651b: a6 17        	ldx	$17                     ; 0x2017 <f256main+0x17d3>
    651d: 86 90        	stx	$90                     ; 0x2090 <f256main+0x184c>
    651f: 06 13        	asl	$13                     ; 0x2013 <f256main+0x17cf>
    6521: 26 8b        	rol	$8b                     ; 0x208b <f256main+0x1847>
    6523: 26 8e        	rol	$8e                     ; 0x208e <f256main+0x184a>
    6525: 26 8f        	rol	$8f                     ; 0x208f <f256main+0x184b>
    6527: 26 90        	rol	$90                     ; 0x2090 <f256main+0x184c>
    6529: a6 8f        	ldx	$8f                     ; 0x208f <f256main+0x184b>
    652b: 86 12        	stx	$12                     ; 0x2012 <f256main+0x17ce>
    652d: a6 90        	ldx	$90                     ; 0x2090 <f256main+0x184c>
    652f: 86 13        	stx	$13                     ; 0x2013 <f256main+0x17cf>
    6531: 64 14        	stz	$14                     ; 0x2014 <f256main+0x17d0>
    6533: 64 15        	stz	$15                     ; 0x2015 <f256main+0x17d1>
    6535: 64 16        	stz	$16                     ; 0x2016 <f256main+0x17d2>
    6537: 64 17        	stz	$17                     ; 0x2017 <f256main+0x17d3>
    6539: a6 96        	ldx	$96                     ; 0x2096 <f256main+0x1852>
    653b: 86 18        	stx	$18                     ; 0x2018 <f256main+0x17d4>
    653d: a6 95        	ldx	$95                     ; 0x2095 <f256main+0x1851>
    653f: 86 19        	stx	$19                     ; 0x2019 <f256main+0x17d5>
    6541: a6 8d        	ldx	$8d                     ; 0x208d <f256main+0x1849>
    6543: 86 1a        	stx	$1a                     ; 0x201a <f256main+0x17d6>
    6545: a6 8c        	ldx	$8c                     ; 0x208c <f256main+0x1848>
    6547: 86 1b        	stx	$1b                     ; 0x201b <f256main+0x17d7>
    6549: 64 1c        	stz	$1c                     ; 0x201c <f256main+0x17d8>
    654b: 64 1d        	stz	$1d                     ; 0x201d <f256main+0x17d9>
    654d: 64 1e        	stz	$1e                     ; 0x201e <f256main+0x17da>
    654f: 64 1f        	stz	$1f                     ; 0x201f <f256main+0x17db>
    6551: a6 8e        	ldx	$8e                     ; 0x208e <f256main+0x184a>
    6553: a5 8b        	lda	$8b                     ; 0x208b <f256main+0x1847>
    6555: 20 22 52     	jsr	$5222 <__muldi3>
    6558: a9 00        	lda	#$0
    655a: 38           	sec
    655b: e5 14        	sbc	$14                     ; 0x2014 <f256main+0x17d0>
    655d: 85 18        	sta	$18                     ; 0x2018 <f256main+0x17d4>
    655f: a9 00        	lda	#$0
    6561: e5 15        	sbc	$15                     ; 0x2015 <f256main+0x17d1>
    6563: 85 19        	sta	$19                     ; 0x2019 <f256main+0x17d5>
    6565: a9 00        	lda	#$0
    6567: e5 16        	sbc	$16                     ; 0x2016 <f256main+0x17d2>
    6569: 85 1a        	sta	$1a                     ; 0x201a <f256main+0x17d6>
    656b: a9 00        	lda	#$0
    656d: e5 17        	sbc	$17                     ; 0x2017 <f256main+0x17d3>
    656f: a6 8f        	ldx	$8f                     ; 0x208f <f256main+0x184b>
    6571: 86 12        	stx	$12                     ; 0x2012 <f256main+0x17ce>
    6573: a6 90        	ldx	$90                     ; 0x2090 <f256main+0x184c>
    6575: 86 13        	stx	$13                     ; 0x2013 <f256main+0x17cf>
    6577: 64 14        	stz	$14                     ; 0x2014 <f256main+0x17d0>
    6579: 64 15        	stz	$15                     ; 0x2015 <f256main+0x17d1>
    657b: 64 16        	stz	$16                     ; 0x2016 <f256main+0x17d2>
    657d: 64 17        	stz	$17                     ; 0x2017 <f256main+0x17d3>
    657f: 85 1b        	sta	$1b                     ; 0x201b <f256main+0x17d7>
    6581: 64 1c        	stz	$1c                     ; 0x201c <f256main+0x17d8>
    6583: 64 1d        	stz	$1d                     ; 0x201d <f256main+0x17d9>
    6585: 64 1e        	stz	$1e                     ; 0x201e <f256main+0x17da>
    6587: 64 1f        	stz	$1f                     ; 0x201f <f256main+0x17db>
    6589: a6 8e        	ldx	$8e                     ; 0x208e <f256main+0x184a>
    658b: a5 8b        	lda	$8b                     ; 0x208b <f256main+0x1847>
    658d: 20 22 52     	jsr	$5222 <__muldi3>
    6590: a6 14        	ldx	$14                     ; 0x2014 <f256main+0x17d0>
    6592: 86 8b        	stx	$8b                     ; 0x208b <f256main+0x1847>
    6594: a6 15        	ldx	$15                     ; 0x2015 <f256main+0x17d1>
    6596: 86 8e        	stx	$8e                     ; 0x208e <f256main+0x184a>
    6598: a6 16        	ldx	$16                     ; 0x2016 <f256main+0x17d2>
    659a: 86 8f        	stx	$8f                     ; 0x208f <f256main+0x184b>
    659c: a6 17        	ldx	$17                     ; 0x2017 <f256main+0x17d3>
    659e: 86 90        	stx	$90                     ; 0x2090 <f256main+0x184c>
    65a0: 06 13        	asl	$13                     ; 0x2013 <f256main+0x17cf>
    65a2: 26 8b        	rol	$8b                     ; 0x208b <f256main+0x1847>
    65a4: 26 8e        	rol	$8e                     ; 0x208e <f256main+0x184a>
    65a6: 26 8f        	rol	$8f                     ; 0x208f <f256main+0x184b>
    65a8: 26 90        	rol	$90                     ; 0x2090 <f256main+0x184c>
    65aa: a6 8f        	ldx	$8f                     ; 0x208f <f256main+0x184b>
    65ac: 86 12        	stx	$12                     ; 0x2012 <f256main+0x17ce>
    65ae: a6 90        	ldx	$90                     ; 0x2090 <f256main+0x184c>
    65b0: 86 13        	stx	$13                     ; 0x2013 <f256main+0x17cf>
    65b2: 64 14        	stz	$14                     ; 0x2014 <f256main+0x17d0>
    65b4: 64 15        	stz	$15                     ; 0x2015 <f256main+0x17d1>
    65b6: 64 16        	stz	$16                     ; 0x2016 <f256main+0x17d2>
    65b8: 64 17        	stz	$17                     ; 0x2017 <f256main+0x17d3>
    65ba: a6 96        	ldx	$96                     ; 0x2096 <f256main+0x1852>
    65bc: 86 18        	stx	$18                     ; 0x2018 <f256main+0x17d4>
    65be: a6 95        	ldx	$95                     ; 0x2095 <f256main+0x1851>
    65c0: 86 19        	stx	$19                     ; 0x2019 <f256main+0x17d5>
    65c2: a6 8d        	ldx	$8d                     ; 0x208d <f256main+0x1849>
    65c4: 86 1a        	stx	$1a                     ; 0x201a <f256main+0x17d6>
    65c6: a6 8c        	ldx	$8c                     ; 0x208c <f256main+0x1848>
    65c8: 86 1b        	stx	$1b                     ; 0x201b <f256main+0x17d7>
    65ca: 64 1c        	stz	$1c                     ; 0x201c <f256main+0x17d8>
    65cc: 64 1d        	stz	$1d                     ; 0x201d <f256main+0x17d9>
    65ce: 64 1e        	stz	$1e                     ; 0x201e <f256main+0x17da>
    65d0: 64 1f        	stz	$1f                     ; 0x201f <f256main+0x17db>
    65d2: a6 8e        	ldx	$8e                     ; 0x208e <f256main+0x184a>
    65d4: a5 8b        	lda	$8b                     ; 0x208b <f256main+0x1847>
    65d6: 20 22 52     	jsr	$5222 <__muldi3>
    65d9: a9 00        	lda	#$0
    65db: 38           	sec
    65dc: e5 14        	sbc	$14                     ; 0x2014 <f256main+0x17d0>
    65de: 85 18        	sta	$18                     ; 0x2018 <f256main+0x17d4>
    65e0: a9 00        	lda	#$0
    65e2: e5 15        	sbc	$15                     ; 0x2015 <f256main+0x17d1>
    65e4: 85 19        	sta	$19                     ; 0x2019 <f256main+0x17d5>
    65e6: a9 00        	lda	#$0
    65e8: e5 16        	sbc	$16                     ; 0x2016 <f256main+0x17d2>
    65ea: 85 1a        	sta	$1a                     ; 0x201a <f256main+0x17d6>
    65ec: a9 00        	lda	#$0
    65ee: e5 17        	sbc	$17                     ; 0x2017 <f256main+0x17d3>
    65f0: a6 8f        	ldx	$8f                     ; 0x208f <f256main+0x184b>
    65f2: 86 12        	stx	$12                     ; 0x2012 <f256main+0x17ce>
    65f4: a6 90        	ldx	$90                     ; 0x2090 <f256main+0x184c>
    65f6: 86 13        	stx	$13                     ; 0x2013 <f256main+0x17cf>
    65f8: 64 14        	stz	$14                     ; 0x2014 <f256main+0x17d0>
    65fa: 64 15        	stz	$15                     ; 0x2015 <f256main+0x17d1>
    65fc: 64 16        	stz	$16                     ; 0x2016 <f256main+0x17d2>
    65fe: 64 17        	stz	$17                     ; 0x2017 <f256main+0x17d3>
    6600: 85 1b        	sta	$1b                     ; 0x201b <f256main+0x17d7>
    6602: 64 1c        	stz	$1c                     ; 0x201c <f256main+0x17d8>
    6604: 64 1d        	stz	$1d                     ; 0x201d <f256main+0x17d9>
    6606: 64 1e        	stz	$1e                     ; 0x201e <f256main+0x17da>
    6608: 64 1f        	stz	$1f                     ; 0x201f <f256main+0x17db>
    660a: a6 8e        	ldx	$8e                     ; 0x208e <f256main+0x184a>
    660c: a5 8b        	lda	$8b                     ; 0x208b <f256main+0x1847>
    660e: 20 22 52     	jsr	$5222 <__muldi3>
    6611: a5 14        	lda	$14                     ; 0x2014 <f256main+0x17d0>
    6613: 06 13        	asl	$13                     ; 0x2013 <f256main+0x17cf>
    6615: 2a           	rol
    6616: 26 15        	rol	$15                     ; 0x2015 <f256main+0x17d1>
    6618: a6 16        	ldx	$16                     ; 0x2016 <f256main+0x17d2>
    661a: 86 12        	stx	$12                     ; 0x2012 <f256main+0x17ce>
    661c: 26 12        	rol	$12                     ; 0x2012 <f256main+0x17ce>
    661e: 26 17        	rol	$17                     ; 0x2017 <f256main+0x17d3>
    6620: 18           	clc
    6621: 69 f4        	adc	#$f4
    6623: a8           	tay
    6624: a5 15        	lda	$15                     ; 0x2015 <f256main+0x17d1>
    6626: 69 ff        	adc	#$ff
    6628: 85 22        	sta	$22                     ; 0x2022 <f256main+0x17de>
    662a: a5 12        	lda	$12                     ; 0x2012 <f256main+0x17ce>
    662c: 69 ff        	adc	#$ff
    662e: 85 13        	sta	$13                     ; 0x2013 <f256main+0x17cf>
    6630: a5 17        	lda	$17                     ; 0x2017 <f256main+0x17d3>
    6632: 69 ff        	adc	#$ff
    6634: a6 98        	ldx	$98                     ; 0x2098 <f256main+0x1854>
    6636: 86 8b        	stx	$8b                     ; 0x208b <f256main+0x1847>
    6638: 86 8e        	stx	$8e                     ; 0x208e <f256main+0x184a>
    663a: 06 8e        	asl	$8e                     ; 0x208e <f256main+0x184a>
    663c: a6 97        	ldx	$97                     ; 0x2097 <f256main+0x1853>
    663e: 86 8d        	stx	$8d                     ; 0x208d <f256main+0x1849>
    6640: 86 8c        	stx	$8c                     ; 0x208c <f256main+0x1848>
    6642: 26 8c        	rol	$8c                     ; 0x208c <f256main+0x1848>
    6644: a6 94        	ldx	$94                     ; 0x2094 <f256main+0x1850>
    6646: 86 a1        	stx	$a1                     ; 0x20a1 <f256main+0x185d>
    6648: a6 94        	ldx	$94                     ; 0x2094 <f256main+0x1850>
    664a: 86 8f        	stx	$8f                     ; 0x208f <f256main+0x184b>
    664c: 26 8f        	rol	$8f                     ; 0x208f <f256main+0x184b>
    664e: a6 9d        	ldx	$9d                     ; 0x209d <f256main+0x1859>
    6650: 86 90        	stx	$90                     ; 0x2090 <f256main+0x184c>
    6652: 26 90        	rol	$90                     ; 0x2090 <f256main+0x184c>
    6654: a6 13        	ldx	$13                     ; 0x2013 <f256main+0x17cf>
    6656: 86 12        	stx	$12                     ; 0x2012 <f256main+0x17ce>
    6658: 85 13        	sta	$13                     ; 0x2013 <f256main+0x17cf>
    665a: 64 14        	stz	$14                     ; 0x2014 <f256main+0x17d0>
    665c: 64 15        	stz	$15                     ; 0x2015 <f256main+0x17d1>
    665e: 64 16        	stz	$16                     ; 0x2016 <f256main+0x17d2>
    6660: 64 17        	stz	$17                     ; 0x2017 <f256main+0x17d3>
    6662: a6 8e        	ldx	$8e                     ; 0x208e <f256main+0x184a>
    6664: 86 18        	stx	$18                     ; 0x2018 <f256main+0x17d4>
    6666: a6 8c        	ldx	$8c                     ; 0x208c <f256main+0x1848>
    6668: 86 19        	stx	$19                     ; 0x2019 <f256main+0x17d5>
    666a: a6 8f        	ldx	$8f                     ; 0x208f <f256main+0x184b>
    666c: 86 1a        	stx	$1a                     ; 0x201a <f256main+0x17d6>
    666e: a6 90        	ldx	$90                     ; 0x2090 <f256main+0x184c>
    6670: 86 1b        	stx	$1b                     ; 0x201b <f256main+0x17d7>
    6672: 64 1c        	stz	$1c                     ; 0x201c <f256main+0x17d8>
    6674: 64 1d        	stz	$1d                     ; 0x201d <f256main+0x17d9>
    6676: 64 1e        	stz	$1e                     ; 0x201e <f256main+0x17da>
    6678: 64 1f        	stz	$1f                     ; 0x201f <f256main+0x17db>
    667a: a6 22        	ldx	$22                     ; 0x2022 <f256main+0x17de>
    667c: 98           	tya
    667d: 20 22 52     	jsr	$5222 <__muldi3>
    6680: a6 16        	ldx	$16                     ; 0x2016 <f256main+0x17d2>
    6682: 46 8d        	lsr	$8d                     ; 0x208d <f256main+0x1849>
    6684: a4 17        	ldy	$17                     ; 0x2017 <f256main+0x17d3>
    6686: 66 8b        	ror	$8b                     ; 0x208b <f256main+0x1847>
    6688: 64 95        	stz	$95                     ; 0x2095 <f256main+0x1851>
    668a: 66 95        	ror	$95                     ; 0x2095 <f256main+0x1851>
    668c: 64 96        	stz	$96                     ; 0x2096 <f256main+0x1852>
    668e: 66 96        	ror	$96                     ; 0x2096 <f256main+0x1852>
    6690: 66 93        	ror	$93                     ; 0x2093 <f256main+0x184f>
    6692: 86 8d        	stx	$8d                     ; 0x208d <f256main+0x1849>
    6694: 84 94        	sty	$94                     ; 0x2094 <f256main+0x1850>
    6696: c0 01        	cpy	#$1
    6698: d0 15        	bne	$66af <__divsf3+0x8bb>
    669a: 8a           	txa
    669b: d0 16        	bne	$66b3 <__divsf3+0x8bf>
    669d: a5 9b        	lda	$9b                     ; 0x209b <f256main+0x1857>
    669f: 85 18        	sta	$18                     ; 0x2018 <f256main+0x17d4>
    66a1: a6 9a        	ldx	$9a                     ; 0x209a <f256main+0x1856>
    66a3: a4 15        	ldy	$15                     ; 0x2015 <f256main+0x17d1>
    66a5: f0 03        	beq	$66aa <__divsf3+0x8b6>
    66a7: 4c 33 67     	jmp	$6733 <__divsf3+0x93f>
    66aa: a4 14        	ldy	$14                     ; 0x2014 <f256main+0x17d0>
    66ac: 4c 35 67     	jmp	$6735 <__divsf3+0x941>
    66af: c0 01        	cpy	#$1
    66b1: 80 02        	bra	$66b5 <__divsf3+0x8c1>
    66b3: e0 00        	cpx	#$0
    66b5: a5 9b        	lda	$9b                     ; 0x209b <f256main+0x1857>
    66b7: 85 18        	sta	$18                     ; 0x2018 <f256main+0x17d4>
    66b9: a6 9a        	ldx	$9a                     ; 0x209a <f256main+0x1856>
    66bb: b0 03        	bcs	$66c0 <__divsf3+0x8cc>
    66bd: 4c 3c 67     	jmp	$673c <__divsf3+0x948>
    66c0: 18           	clc
    66c1: a4 9f        	ldy	$9f                     ; 0x209f <f256main+0x185b>
    66c3: 98           	tya
    66c4: 69 7f        	adc	#$7f
    66c6: 85 8f        	sta	$8f                     ; 0x208f <f256main+0x184b>
    66c8: a5 a0        	lda	$a0                     ; 0x20a0 <f256main+0x185c>
    66ca: 69 00        	adc	#$0
    66cc: 85 92        	sta	$92                     ; 0x2092 <f256main+0x184e>
    66ce: a4 94        	ldy	$94                     ; 0x2094 <f256main+0x1850>
    66d0: 84 13        	sty	$13                     ; 0x2013 <f256main+0x17cf>
    66d2: 46 13        	lsr	$13                     ; 0x2013 <f256main+0x17cf>
    66d4: a4 8d        	ldy	$8d                     ; 0x208d <f256main+0x1849>
    66d6: 84 12        	sty	$12                     ; 0x2012 <f256main+0x17ce>
    66d8: 66 12        	ror	$12                     ; 0x2012 <f256main+0x17ce>
    66da: a4 15        	ldy	$15                     ; 0x2015 <f256main+0x17d1>
    66dc: 84 8e        	sty	$8e                     ; 0x208e <f256main+0x184a>
    66de: 66 8e        	ror	$8e                     ; 0x208e <f256main+0x184a>
    66e0: a4 14        	ldy	$14                     ; 0x2014 <f256main+0x17d0>
    66e2: 84 8c        	sty	$8c                     ; 0x208c <f256main+0x1848>
    66e4: 66 8c        	ror	$8c                     ; 0x208c <f256main+0x1848>
    66e6: a4 12        	ldy	$12                     ; 0x2012 <f256main+0x17ce>
    66e8: 84 8d        	sty	$8d                     ; 0x208d <f256main+0x1849>
    66ea: a4 13        	ldy	$13                     ; 0x2013 <f256main+0x17cf>
    66ec: 84 94        	sty	$94                     ; 0x2094 <f256main+0x1850>
    66ee: a4 18        	ldy	$18                     ; 0x2018 <f256main+0x17d4>
    66f0: 84 14        	sty	$14                     ; 0x2014 <f256main+0x17d0>
    66f2: 86 15        	stx	$15                     ; 0x2015 <f256main+0x17d1>
    66f4: a6 9e        	ldx	$9e                     ; 0x209e <f256main+0x185a>
    66f6: 86 16        	stx	$16                     ; 0x2016 <f256main+0x17d2>
    66f8: a6 9c        	ldx	$9c                     ; 0x209c <f256main+0x1858>
    66fa: 86 17        	stx	$17                     ; 0x2017 <f256main+0x17d3>
    66fc: a6 8e        	ldx	$8e                     ; 0x208e <f256main+0x184a>
    66fe: a5 8c        	lda	$8c                     ; 0x208c <f256main+0x1848>
    6700: 20 b2 51     	jsr	$51b2 <__mulsi3>
    6703: 85 14        	sta	$14                     ; 0x2014 <f256main+0x17d0>
    6705: 86 15        	stx	$15                     ; 0x2015 <f256main+0x17d1>
    6707: 38           	sec
    6708: a5 93        	lda	$93                     ; 0x2093 <f256main+0x184f>
    670a: e5 14        	sbc	$14                     ; 0x2014 <f256main+0x17d0>
    670c: 85 18        	sta	$18                     ; 0x2018 <f256main+0x17d4>
    670e: a5 96        	lda	$96                     ; 0x2096 <f256main+0x1852>
    6710: e5 15        	sbc	$15                     ; 0x2015 <f256main+0x17d1>
    6712: 85 1b        	sta	$1b                     ; 0x201b <f256main+0x17d7>
    6714: a5 95        	lda	$95                     ; 0x2095 <f256main+0x1851>
    6716: e5 12        	sbc	$12                     ; 0x2012 <f256main+0x17ce>
    6718: 85 1a        	sta	$1a                     ; 0x201a <f256main+0x17d6>
    671a: a5 8b        	lda	$8b                     ; 0x208b <f256main+0x1847>
    671c: e5 13        	sbc	$13                     ; 0x2013 <f256main+0x17cf>
    671e: 85 19        	sta	$19                     ; 0x2019 <f256main+0x17d5>
    6720: a6 8c        	ldx	$8c                     ; 0x208c <f256main+0x1848>
    6722: 86 15        	stx	$15                     ; 0x2015 <f256main+0x17d1>
    6724: a6 8e        	ldx	$8e                     ; 0x208e <f256main+0x184a>
    6726: 86 8b        	stx	$8b                     ; 0x208b <f256main+0x1847>
    6728: a6 8f        	ldx	$8f                     ; 0x208f <f256main+0x184b>
    672a: 86 12        	stx	$12                     ; 0x2012 <f256main+0x17ce>
    672c: a6 9d        	ldx	$9d                     ; 0x209d <f256main+0x1859>
    672e: 86 91        	stx	$91                     ; 0x2091 <f256main+0x184d>
    6730: 4c aa 67     	jmp	$67aa <__divsf3+0x9b6>
    6733: a4 15        	ldy	$15                     ; 0x2015 <f256main+0x17d1>
    6735: c0 00        	cpy	#$0
    6737: 90 03        	bcc	$673c <__divsf3+0x948>
    6739: 4c c0 66     	jmp	$66c0 <__divsf3+0x8cc>
    673c: a4 90        	ldy	$90                     ; 0x2090 <f256main+0x184c>
    673e: 84 91        	sty	$91                     ; 0x2091 <f256main+0x184d>
    6740: a4 8f        	ldy	$8f                     ; 0x208f <f256main+0x184b>
    6742: 84 90        	sty	$90                     ; 0x2090 <f256main+0x184c>
    6744: a4 8c        	ldy	$8c                     ; 0x208c <f256main+0x1848>
    6746: 84 8f        	sty	$8f                     ; 0x208f <f256main+0x184b>
    6748: 06 93        	asl	$93                     ; 0x2093 <f256main+0x184f>
    674a: 26 96        	rol	$96                     ; 0x2096 <f256main+0x1852>
    674c: 26 95        	rol	$95                     ; 0x2095 <f256main+0x1851>
    674e: a4 8b        	ldy	$8b                     ; 0x208b <f256main+0x1847>
    6750: 84 92        	sty	$92                     ; 0x2092 <f256main+0x184e>
    6752: 26 92        	rol	$92                     ; 0x2092 <f256main+0x184e>
    6754: a4 9e        	ldy	$9e                     ; 0x209e <f256main+0x185a>
    6756: 84 12        	sty	$12                     ; 0x2012 <f256main+0x17ce>
    6758: a4 9c        	ldy	$9c                     ; 0x209c <f256main+0x1858>
    675a: 84 13        	sty	$13                     ; 0x2013 <f256main+0x17cf>
    675c: a4 14        	ldy	$14                     ; 0x2014 <f256main+0x17d0>
    675e: 84 8c        	sty	$8c                     ; 0x208c <f256main+0x1848>
    6760: a4 15        	ldy	$15                     ; 0x2015 <f256main+0x17d1>
    6762: 84 8b        	sty	$8b                     ; 0x208b <f256main+0x1847>
    6764: a4 8d        	ldy	$8d                     ; 0x208d <f256main+0x1849>
    6766: 84 16        	sty	$16                     ; 0x2016 <f256main+0x17d2>
    6768: a4 94        	ldy	$94                     ; 0x2094 <f256main+0x1850>
    676a: 84 17        	sty	$17                     ; 0x2017 <f256main+0x17d3>
    676c: 20 b2 51     	jsr	$51b2 <__mulsi3>
    676f: 85 14        	sta	$14                     ; 0x2014 <f256main+0x17d0>
    6771: 86 15        	stx	$15                     ; 0x2015 <f256main+0x17d1>
    6773: 38           	sec
    6774: a5 93        	lda	$93                     ; 0x2093 <f256main+0x184f>
    6776: e5 14        	sbc	$14                     ; 0x2014 <f256main+0x17d0>
    6778: 85 18        	sta	$18                     ; 0x2018 <f256main+0x17d4>
    677a: a5 96        	lda	$96                     ; 0x2096 <f256main+0x1852>
    677c: e5 15        	sbc	$15                     ; 0x2015 <f256main+0x17d1>
    677e: 85 1b        	sta	$1b                     ; 0x201b <f256main+0x17d7>
    6780: a5 95        	lda	$95                     ; 0x2095 <f256main+0x1851>
    6782: e5 12        	sbc	$12                     ; 0x2012 <f256main+0x17ce>
    6784: 85 1a        	sta	$1a                     ; 0x201a <f256main+0x17d6>
    6786: a5 92        	lda	$92                     ; 0x2092 <f256main+0x184e>
    6788: e5 13        	sbc	$13                     ; 0x2013 <f256main+0x17cf>
    678a: 85 19        	sta	$19                     ; 0x2019 <f256main+0x17d5>
    678c: a5 9f        	lda	$9f                     ; 0x209f <f256main+0x185b>
    678e: 18           	clc
    678f: 69 7e        	adc	#$7e
    6791: a8           	tay
    6792: a5 a0        	lda	$a0                     ; 0x20a0 <f256main+0x185c>
    6794: 69 00        	adc	#$0
    6796: 85 92        	sta	$92                     ; 0x2092 <f256main+0x184e>
    6798: a6 8c        	ldx	$8c                     ; 0x208c <f256main+0x1848>
    679a: 86 15        	stx	$15                     ; 0x2015 <f256main+0x17d1>
    679c: a6 8e        	ldx	$8e                     ; 0x208e <f256main+0x184a>
    679e: 86 98        	stx	$98                     ; 0x2098 <f256main+0x1854>
    67a0: a6 8f        	ldx	$8f                     ; 0x208f <f256main+0x184b>
    67a2: 86 97        	stx	$97                     ; 0x2097 <f256main+0x1853>
    67a4: 84 12        	sty	$12                     ; 0x2012 <f256main+0x17ce>
    67a6: a6 90        	ldx	$90                     ; 0x2090 <f256main+0x184c>
    67a8: 86 a1        	stx	$a1                     ; 0x20a1 <f256main+0x185d>
    67aa: a6 12        	ldx	$12                     ; 0x2012 <f256main+0x17ce>
    67ac: e0 ff        	cpx	#$ff
    67ae: a6 92        	ldx	$92                     ; 0x2092 <f256main+0x184e>
    67b0: 86 14        	stx	$14                     ; 0x2014 <f256main+0x17d0>
    67b2: a5 92        	lda	$92                     ; 0x2092 <f256main+0x184e>
    67b4: e9 00        	sbc	#$0
    67b6: 50 02        	bvc	$67ba <__divsf3+0x9c6>
    67b8: 49 80        	eor	#$80
    67ba: a4 9b        	ldy	$9b                     ; 0x209b <f256main+0x1857>
    67bc: aa           	tax
    67bd: 30 0d        	bmi	$67cc <__divsf3+0x9d8>
    67bf: a5 99        	lda	$99                     ; 0x2099 <f256main+0x1855>
    67c1: 09 7f        	ora	#$7f
    67c3: 64 18        	stz	$18                     ; 0x2018 <f256main+0x17d4>
    67c5: 64 15        	stz	$15                     ; 0x2015 <f256main+0x17d1>
    67c7: a0 80        	ldy	#$80
    67c9: 4c 42 69     	jmp	$6942 <__divsf3+0xb4e>
    67cc: a6 12        	ldx	$12                     ; 0x2012 <f256main+0x17ce>
    67ce: e0 01        	cpx	#$1
    67d0: a5 92        	lda	$92                     ; 0x2092 <f256main+0x184e>
    67d2: e9 00        	sbc	#$0
    67d4: 50 02        	bvc	$67d8 <__divsf3+0x9e4>
    67d6: 49 80        	eor	#$80
    67d8: a6 9a        	ldx	$9a                     ; 0x209a <f256main+0x1856>
    67da: 86 1c        	stx	$1c                     ; 0x201c <f256main+0x17d8>
    67dc: a6 9c        	ldx	$9c                     ; 0x209c <f256main+0x1858>
    67de: c9 00        	cmp	#$0
    67e0: 30 44        	bmi	$6826 <__divsf3+0xa32>
    67e2: a5 8d        	lda	$8d                     ; 0x208d <f256main+0x1849>
    67e4: 29 7f        	and	#$7f
    67e6: 85 17        	sta	$17                     ; 0x2017 <f256main+0x17d3>
    67e8: 46 14        	lsr	$14                     ; 0x2014 <f256main+0x17d0>
    67ea: 66 12        	ror	$12                     ; 0x2012 <f256main+0x17ce>
    67ec: 5a           	phy
    67ed: a4 12        	ldy	$12                     ; 0x2012 <f256main+0x17ce>
    67ef: 84 8c        	sty	$8c                     ; 0x208c <f256main+0x1848>
    67f1: 64 1d        	stz	$1d                     ; 0x201d <f256main+0x17d9>
    67f3: 66 1d        	ror	$1d                     ; 0x201d <f256main+0x17d9>
    67f5: 64 1f        	stz	$1f                     ; 0x201f <f256main+0x17db>
    67f7: 66 1f        	ror	$1f                     ; 0x201f <f256main+0x17db>
    67f9: a9 00        	lda	#$0
    67fb: 6a           	ror
    67fc: a4 18        	ldy	$18                     ; 0x2018 <f256main+0x17d4>
    67fe: 84 14        	sty	$14                     ; 0x2014 <f256main+0x17d0>
    6800: 06 14        	asl	$14                     ; 0x2014 <f256main+0x17d0>
    6802: a4 1b        	ldy	$1b                     ; 0x201b <f256main+0x17d7>
    6804: 84 12        	sty	$12                     ; 0x2012 <f256main+0x17ce>
    6806: 26 12        	rol	$12                     ; 0x2012 <f256main+0x17ce>
    6808: a4 1a        	ldy	$1a                     ; 0x201a <f256main+0x17d6>
    680a: 84 13        	sty	$13                     ; 0x2013 <f256main+0x17cf>
    680c: 7a           	ply
    680d: 26 13        	rol	$13                     ; 0x2013 <f256main+0x17cf>
    680f: 26 19        	rol	$19                     ; 0x2019 <f256main+0x17d5>
    6811: 05 15        	ora	$15                     ; 0x2015 <f256main+0x17d1>
    6813: 85 15        	sta	$15                     ; 0x2015 <f256main+0x17d1>
    6815: a5 1f        	lda	$1f                     ; 0x201f <f256main+0x17db>
    6817: 05 8b        	ora	$8b                     ; 0x208b <f256main+0x1847>
    6819: 85 16        	sta	$16                     ; 0x2016 <f256main+0x17d2>
    681b: a5 1d        	lda	$1d                     ; 0x201d <f256main+0x17d9>
    681d: 05 17        	ora	$17                     ; 0x2017 <f256main+0x17d3>
    681f: 85 97        	sta	$97                     ; 0x2097 <f256main+0x1853>
    6821: a5 15        	lda	$15                     ; 0x2015 <f256main+0x17d1>
    6823: 4c df 68     	jmp	$68df <__divsf3+0xaeb>
    6826: a6 12        	ldx	$12                     ; 0x2012 <f256main+0x17ce>
    6828: e0 e9        	cpx	#$e9
    682a: a5 92        	lda	$92                     ; 0x2092 <f256main+0x184e>
    682c: e9 ff        	sbc	#$ff
    682e: 50 02        	bvc	$6832 <__divsf3+0xa3e>
    6830: 49 80        	eor	#$80
    6832: aa           	tax
    6833: 10 0b        	bpl	$6840 <__divsf3+0xa4c>
    6835: 64 18        	stz	$18                     ; 0x2018 <f256main+0x17d4>
    6837: 64 15        	stz	$15                     ; 0x2015 <f256main+0x17d1>
    6839: a0 00        	ldy	#$0
    683b: a5 99        	lda	$99                     ; 0x2099 <f256main+0x1855>
    683d: 4c 42 69     	jmp	$6942 <__divsf3+0xb4e>
    6840: 18           	clc
    6841: a5 12        	lda	$12                     ; 0x2012 <f256main+0x17ce>
    6843: 69 17        	adc	#$17
    6845: 85 8c        	sta	$8c                     ; 0x208c <f256main+0x1848>
    6847: a9 01        	lda	#$1
    6849: 38           	sec
    684a: e5 12        	sbc	$12                     ; 0x2012 <f256main+0x17ce>
    684c: a6 8d        	ldx	$8d                     ; 0x208d <f256main+0x1849>
    684e: 86 12        	stx	$12                     ; 0x2012 <f256main+0x17ce>
    6850: a6 94        	ldx	$94                     ; 0x2094 <f256main+0x1850>
    6852: 86 13        	stx	$13                     ; 0x2013 <f256main+0x17cf>
    6854: 85 14        	sta	$14                     ; 0x2014 <f256main+0x17d0>
    6856: a6 8b        	ldx	$8b                     ; 0x208b <f256main+0x1847>
    6858: a5 15        	lda	$15                     ; 0x2015 <f256main+0x17d1>
    685a: 20 4e 51     	jsr	$514e <__lshrsi3>
    685d: 85 8d        	sta	$8d                     ; 0x208d <f256main+0x1849>
    685f: 86 8e        	stx	$8e                     ; 0x208e <f256main+0x184a>
    6861: a6 12        	ldx	$12                     ; 0x2012 <f256main+0x17ce>
    6863: 86 93        	stx	$93                     ; 0x2093 <f256main+0x184f>
    6865: a6 13        	ldx	$13                     ; 0x2013 <f256main+0x17cf>
    6867: 86 8b        	stx	$8b                     ; 0x208b <f256main+0x1847>
    6869: a6 a1        	ldx	$a1                     ; 0x20a1 <f256main+0x185d>
    686b: 86 12        	stx	$12                     ; 0x2012 <f256main+0x17ce>
    686d: a6 91        	ldx	$91                     ; 0x2091 <f256main+0x184d>
    686f: 86 13        	stx	$13                     ; 0x2013 <f256main+0x17cf>
    6871: a6 8c        	ldx	$8c                     ; 0x208c <f256main+0x1848>
    6873: 86 14        	stx	$14                     ; 0x2014 <f256main+0x17d0>
    6875: a6 97        	ldx	$97                     ; 0x2097 <f256main+0x1853>
    6877: a5 98        	lda	$98                     ; 0x2098 <f256main+0x1854>
    6879: 20 37 51     	jsr	$5137 <__ashlsi3>
    687c: 85 91        	sta	$91                     ; 0x2091 <f256main+0x184d>
    687e: 86 90        	stx	$90                     ; 0x2090 <f256main+0x184c>
    6880: a6 12        	ldx	$12                     ; 0x2012 <f256main+0x17ce>
    6882: 86 8f        	stx	$8f                     ; 0x208f <f256main+0x184b>
    6884: a6 13        	ldx	$13                     ; 0x2013 <f256main+0x17cf>
    6886: 86 92        	stx	$92                     ; 0x2092 <f256main+0x184e>
    6888: a6 a4        	ldx	$a4                     ; 0x20a4 <f256main+0x1860>
    688a: 86 12        	stx	$12                     ; 0x2012 <f256main+0x17ce>
    688c: a6 a5        	ldx	$a5                     ; 0x20a5 <f256main+0x1861>
    688e: 86 13        	stx	$13                     ; 0x2013 <f256main+0x17cf>
    6890: a6 8d        	ldx	$8d                     ; 0x208d <f256main+0x1849>
    6892: 86 14        	stx	$14                     ; 0x2014 <f256main+0x17d0>
    6894: a6 8e        	ldx	$8e                     ; 0x208e <f256main+0x184a>
    6896: 86 15        	stx	$15                     ; 0x2015 <f256main+0x17d1>
    6898: a6 93        	ldx	$93                     ; 0x2093 <f256main+0x184f>
    689a: 86 97        	stx	$97                     ; 0x2097 <f256main+0x1853>
    689c: a6 93        	ldx	$93                     ; 0x2093 <f256main+0x184f>
    689e: 86 16        	stx	$16                     ; 0x2016 <f256main+0x17d2>
    68a0: a6 8b        	ldx	$8b                     ; 0x208b <f256main+0x1847>
    68a2: 86 8c        	stx	$8c                     ; 0x208c <f256main+0x1848>
    68a4: a6 8b        	ldx	$8b                     ; 0x208b <f256main+0x1847>
    68a6: 86 17        	stx	$17                     ; 0x2017 <f256main+0x17d3>
    68a8: a6 a3        	ldx	$a3                     ; 0x20a3 <f256main+0x185f>
    68aa: a5 a2        	lda	$a2                     ; 0x20a2 <f256main+0x185e>
    68ac: 20 b2 51     	jsr	$51b2 <__mulsi3>
    68af: a4 9b        	ldy	$9b                     ; 0x209b <f256main+0x1857>
    68b1: 85 14        	sta	$14                     ; 0x2014 <f256main+0x17d0>
    68b3: 86 15        	stx	$15                     ; 0x2015 <f256main+0x17d1>
    68b5: 38           	sec
    68b6: a5 91        	lda	$91                     ; 0x2091 <f256main+0x184d>
    68b8: e5 14        	sbc	$14                     ; 0x2014 <f256main+0x17d0>
    68ba: 85 14        	sta	$14                     ; 0x2014 <f256main+0x17d0>
    68bc: a5 90        	lda	$90                     ; 0x2090 <f256main+0x184c>
    68be: e5 15        	sbc	$15                     ; 0x2015 <f256main+0x17d1>
    68c0: aa           	tax
    68c1: a5 8f        	lda	$8f                     ; 0x208f <f256main+0x184b>
    68c3: e5 12        	sbc	$12                     ; 0x2012 <f256main+0x17ce>
    68c5: 85 15        	sta	$15                     ; 0x2015 <f256main+0x17d1>
    68c7: a5 92        	lda	$92                     ; 0x2092 <f256main+0x184e>
    68c9: e5 13        	sbc	$13                     ; 0x2013 <f256main+0x17cf>
    68cb: 85 19        	sta	$19                     ; 0x2019 <f256main+0x17d5>
    68cd: 86 12        	stx	$12                     ; 0x2012 <f256main+0x17ce>
    68cf: a6 15        	ldx	$15                     ; 0x2015 <f256main+0x17d1>
    68d1: 86 13        	stx	$13                     ; 0x2013 <f256main+0x17cf>
    68d3: a5 8d        	lda	$8d                     ; 0x208d <f256main+0x1849>
    68d5: a6 8e        	ldx	$8e                     ; 0x208e <f256main+0x184a>
    68d7: 86 16        	stx	$16                     ; 0x2016 <f256main+0x17d2>
    68d9: a6 9a        	ldx	$9a                     ; 0x209a <f256main+0x1856>
    68db: 86 1c        	stx	$1c                     ; 0x201c <f256main+0x17d8>
    68dd: a6 9c        	ldx	$9c                     ; 0x209c <f256main+0x1858>
    68df: 85 15        	sta	$15                     ; 0x2015 <f256main+0x17d1>
    68e1: 29 01        	and	#$1
    68e3: 18           	clc
    68e4: 65 14        	adc	$14                     ; 0x2014 <f256main+0x17d0>
    68e6: 85 17        	sta	$17                     ; 0x2017 <f256main+0x17d3>
    68e8: 64 14        	stz	$14                     ; 0x2014 <f256main+0x17d0>
    68ea: a9 00        	lda	#$0
    68ec: 65 12        	adc	$12                     ; 0x2012 <f256main+0x17ce>
    68ee: 85 18        	sta	$18                     ; 0x2018 <f256main+0x17d4>
    68f0: a9 00        	lda	#$0
    68f2: 65 13        	adc	$13                     ; 0x2013 <f256main+0x17cf>
    68f4: 85 13        	sta	$13                     ; 0x2013 <f256main+0x17cf>
    68f6: a5 19        	lda	$19                     ; 0x2019 <f256main+0x17d5>
    68f8: 65 14        	adc	$14                     ; 0x2014 <f256main+0x17d0>
    68fa: 85 12        	sta	$12                     ; 0x2012 <f256main+0x17ce>
    68fc: e4 12        	cpx	$12                     ; 0x2012 <f256main+0x17ce>
    68fe: d0 18        	bne	$6918 <__divsf3+0xb24>
    6900: a6 9e        	ldx	$9e                     ; 0x209e <f256main+0x185a>
    6902: e4 13        	cpx	$13                     ; 0x2013 <f256main+0x17cf>
    6904: d0 0a        	bne	$6910 <__divsf3+0xb1c>
    6906: a6 1c        	ldx	$1c                     ; 0x201c <f256main+0x17d8>
    6908: e4 18        	cpx	$18                     ; 0x2018 <f256main+0x17d4>
    690a: d0 08        	bne	$6914 <__divsf3+0xb20>
    690c: c4 17        	cpy	$17                     ; 0x2017 <f256main+0x17d3>
    690e: 80 0a        	bra	$691a <__divsf3+0xb26>
    6910: a4 13        	ldy	$13                     ; 0x2013 <f256main+0x17cf>
    6912: 80 02        	bra	$6916 <__divsf3+0xb22>
    6914: a4 18        	ldy	$18                     ; 0x2018 <f256main+0x17d4>
    6916: 84 12        	sty	$12                     ; 0x2012 <f256main+0x17ce>
    6918: e4 12        	cpx	$12                     ; 0x2012 <f256main+0x17ce>
    691a: 64 12        	stz	$12                     ; 0x2012 <f256main+0x17ce>
    691c: a5 97        	lda	$97                     ; 0x2097 <f256main+0x1853>
    691e: 85 13        	sta	$13                     ; 0x2013 <f256main+0x17cf>
    6920: b0 04        	bcs	$6926 <__divsf3+0xb32>
    6922: a2 01        	ldx	#$1
    6924: 86 12        	stx	$12                     ; 0x2012 <f256main+0x17ce>
    6926: a5 15        	lda	$15                     ; 0x2015 <f256main+0x17d1>
    6928: 18           	clc
    6929: 65 12        	adc	$12                     ; 0x2012 <f256main+0x17ce>
    692b: 85 18        	sta	$18                     ; 0x2018 <f256main+0x17d4>
    692d: a5 16        	lda	$16                     ; 0x2016 <f256main+0x17d2>
    692f: 69 00        	adc	#$0
    6931: 85 15        	sta	$15                     ; 0x2015 <f256main+0x17d1>
    6933: a5 13        	lda	$13                     ; 0x2013 <f256main+0x17cf>
    6935: 69 00        	adc	#$0
    6937: a8           	tay
    6938: a5 8c        	lda	$8c                     ; 0x208c <f256main+0x1848>
    693a: 69 00        	adc	#$0
    693c: a6 99        	ldx	$99                     ; 0x2099 <f256main+0x1855>
    693e: 86 12        	stx	$12                     ; 0x2012 <f256main+0x17ce>
    6940: 05 12        	ora	$12                     ; 0x2012 <f256main+0x17ce>
    6942: 84 12        	sty	$12                     ; 0x2012 <f256main+0x17ce>
    6944: 85 13        	sta	$13                     ; 0x2013 <f256main+0x17cf>
    6946: a6 15        	ldx	$15                     ; 0x2015 <f256main+0x17d1>
    6948: a5 18        	lda	$18                     ; 0x2018 <f256main+0x17d4>
    694a: 60           	rts
    694b: 86 9a        	stx	$9a                     ; 0x209a <f256main+0x1856>
    694d: a4 8d        	ldy	$8d                     ; 0x208d <f256main+0x1849>
    694f: 84 19        	sty	$19                     ; 0x2019 <f256main+0x17d5>
    6951: e0 00        	cpx	#$0
    6953: 4c 20 64     	jmp	$6420 <__divsf3+0x62c>
    6956: a6 90        	ldx	$90                     ; 0x2090 <f256main+0x184c>
    6958: f0 03        	beq	$695d <__divsf3+0xb69>
    695a: 4c 35 68     	jmp	$6835 <__divsf3+0xa41>
    695d: a6 8f        	ldx	$8f                     ; 0x208f <f256main+0x184b>
    695f: f0 03        	beq	$6964 <__divsf3+0xb70>
    6961: 4c 35 68     	jmp	$6835 <__divsf3+0xa41>
    6964: aa           	tax
    6965: f0 03        	beq	$696a <__divsf3+0xb76>
    6967: 4c 35 68     	jmp	$6835 <__divsf3+0xa41>
    696a: a5 14        	lda	$14                     ; 0x2014 <f256main+0x17d0>
    696c: f0 03        	beq	$6971 <__divsf3+0xb7d>
    696e: 4c 35 68     	jmp	$6835 <__divsf3+0xa41>
    6971: 4c 2f 5f     	jmp	$5f2f <__divsf3+0x13b>

00006974 <__fixunssfsi>:
    6974: 86 15        	stx	$15                     ; 0x2015 <f256main+0x17d1>
    6976: a2 00        	ldx	#$0
    6978: 86 8b        	stx	$8b                     ; 0x208b <f256main+0x1847>
    697a: a4 13        	ldy	$13                     ; 0x2013 <f256main+0x17cf>
    697c: 30 26        	bmi	$69a4 <__fixunssfsi+0x30>
    697e: 85 16        	sta	$16                     ; 0x2016 <f256main+0x17d2>
    6980: a5 12        	lda	$12                     ; 0x2012 <f256main+0x17ce>
    6982: 0a           	asl
    6983: 26 13        	rol	$13                     ; 0x2013 <f256main+0x17cf>
    6985: a6 13        	ldx	$13                     ; 0x2013 <f256main+0x17cf>
    6987: e0 7f        	cpx	#$7f
    6989: a2 00        	ldx	#$0
    698b: 8a           	txa
    698c: a8           	tay
    698d: b0 03        	bcs	$6992 <__fixunssfsi+0x1e>
    698f: 4c e9 69     	jmp	$69e9 <__fixunssfsi+0x75>
    6992: 18           	clc
    6993: a5 13        	lda	$13                     ; 0x2013 <f256main+0x17cf>
    6995: 69 61        	adc	#$61
    6997: aa           	tax
    6998: a9 00        	lda	#$0
    699a: 69 ff        	adc	#$ff
    699c: c9 ff        	cmp	#$ff
    699e: d0 09        	bne	$69a9 <__fixunssfsi+0x35>
    69a0: e0 e0        	cpx	#$e0
    69a2: 80 07        	bra	$69ab <__fixunssfsi+0x37>
    69a4: a9 00        	lda	#$0
    69a6: a8           	tay
    69a7: 80 40        	bra	$69e9 <__fixunssfsi+0x75>
    69a9: c9 ff        	cmp	#$ff
    69ab: a2 ff        	ldx	#$ff
    69ad: 86 8b        	stx	$8b                     ; 0x208b <f256main+0x1847>
    69af: 8a           	txa
    69b0: a8           	tay
    69b1: 90 36        	bcc	$69e9 <__fixunssfsi+0x75>
    69b3: a5 12        	lda	$12                     ; 0x2012 <f256main+0x17ce>
    69b5: 29 7f        	and	#$7f
    69b7: 09 80        	ora	#$80
    69b9: 85 12        	sta	$12                     ; 0x2012 <f256main+0x17ce>
    69bb: a6 13        	ldx	$13                     ; 0x2013 <f256main+0x17cf>
    69bd: e0 96        	cpx	#$96
    69bf: b0 12        	bcs	$69d3 <__fixunssfsi+0x5f>
    69c1: 38           	sec
    69c2: a9 96        	lda	#$96
    69c4: e5 13        	sbc	$13                     ; 0x2013 <f256main+0x17cf>
    69c6: 64 13        	stz	$13                     ; 0x2013 <f256main+0x17cf>
    69c8: 85 14        	sta	$14                     ; 0x2014 <f256main+0x17d0>
    69ca: a6 15        	ldx	$15                     ; 0x2015 <f256main+0x17d1>
    69cc: a5 16        	lda	$16                     ; 0x2016 <f256main+0x17d2>
    69ce: 20 4e 51     	jsr	$514e <__lshrsi3>
    69d1: 80 10        	bra	$69e3 <__fixunssfsi+0x6f>
    69d3: 18           	clc
    69d4: a5 13        	lda	$13                     ; 0x2013 <f256main+0x17cf>
    69d6: 69 6a        	adc	#$6a
    69d8: 64 13        	stz	$13                     ; 0x2013 <f256main+0x17cf>
    69da: 85 14        	sta	$14                     ; 0x2014 <f256main+0x17d0>
    69dc: a6 15        	ldx	$15                     ; 0x2015 <f256main+0x17d1>
    69de: a5 16        	lda	$16                     ; 0x2016 <f256main+0x17d2>
    69e0: 20 37 51     	jsr	$5137 <__ashlsi3>
    69e3: 85 8b        	sta	$8b                     ; 0x208b <f256main+0x1847>
    69e5: a5 12        	lda	$12                     ; 0x2012 <f256main+0x17ce>
    69e7: a4 13        	ldy	$13                     ; 0x2013 <f256main+0x17cf>
    69e9: 85 12        	sta	$12                     ; 0x2012 <f256main+0x17ce>
    69eb: 84 13        	sty	$13                     ; 0x2013 <f256main+0x17cf>
    69ed: a5 8b        	lda	$8b                     ; 0x208b <f256main+0x1847>
    69ef: 60           	rts

000069f0 <__floatunsisf>:
    69f0: 85 15        	sta	$15                     ; 0x2015 <f256main+0x17d1>
    69f2: 86 16        	stx	$16                     ; 0x2016 <f256main+0x17d2>
    69f4: a5 13        	lda	$13                     ; 0x2013 <f256main+0x17cf>
    69f6: d0 0f        	bne	$6a07 <__floatunsisf+0x17>
    69f8: a5 12        	lda	$12                     ; 0x2012 <f256main+0x17ce>
    69fa: d0 0b        	bne	$6a07 <__floatunsisf+0x17>
    69fc: a5 16        	lda	$16                     ; 0x2016 <f256main+0x17d2>
    69fe: d0 07        	bne	$6a07 <__floatunsisf+0x17>
    6a00: a5 15        	lda	$15                     ; 0x2015 <f256main+0x17d1>
    6a02: d0 03        	bne	$6a07 <__floatunsisf+0x17>
    6a04: 4c 39 6d     	jmp	$6d39 <__floatunsisf+0x349>
    6a07: a5 13        	lda	$13                     ; 0x2013 <f256main+0x17cf>
    6a09: 4a           	lsr
    6a0a: 85 18        	sta	$18                     ; 0x2018 <f256main+0x17d4>
    6a0c: a5 12        	lda	$12                     ; 0x2012 <f256main+0x17ce>
    6a0e: 6a           	ror
    6a0f: 85 17        	sta	$17                     ; 0x2017 <f256main+0x17d3>
    6a11: 86 19        	stx	$19                     ; 0x2019 <f256main+0x17d5>
    6a13: 66 19        	ror	$19                     ; 0x2019 <f256main+0x17d5>
    6a15: a5 15        	lda	$15                     ; 0x2015 <f256main+0x17d1>
    6a17: 6a           	ror
    6a18: 05 15        	ora	$15                     ; 0x2015 <f256main+0x17d1>
    6a1a: a8           	tay
    6a1b: a5 19        	lda	$19                     ; 0x2019 <f256main+0x17d5>
    6a1d: 05 16        	ora	$16                     ; 0x2016 <f256main+0x17d2>
    6a1f: aa           	tax
    6a20: a5 17        	lda	$17                     ; 0x2017 <f256main+0x17d3>
    6a22: 05 12        	ora	$12                     ; 0x2012 <f256main+0x17ce>
    6a24: 85 1a        	sta	$1a                     ; 0x201a <f256main+0x17d6>
    6a26: a5 18        	lda	$18                     ; 0x2018 <f256main+0x17d4>
    6a28: 05 13        	ora	$13                     ; 0x2013 <f256main+0x17cf>
    6a2a: 85 1b        	sta	$1b                     ; 0x201b <f256main+0x17d7>
    6a2c: 4a           	lsr
    6a2d: 5a           	phy
    6a2e: a4 1a        	ldy	$1a                     ; 0x201a <f256main+0x17d6>
    6a30: 84 14        	sty	$14                     ; 0x2014 <f256main+0x17d0>
    6a32: 7a           	ply
    6a33: 66 14        	ror	$14                     ; 0x2014 <f256main+0x17d0>
    6a35: 86 17        	stx	$17                     ; 0x2017 <f256main+0x17d3>
    6a37: 66 17        	ror	$17                     ; 0x2017 <f256main+0x17d3>
    6a39: 84 18        	sty	$18                     ; 0x2018 <f256main+0x17d4>
    6a3b: 66 18        	ror	$18                     ; 0x2018 <f256main+0x17d4>
    6a3d: 4a           	lsr
    6a3e: 85 19        	sta	$19                     ; 0x2019 <f256main+0x17d5>
    6a40: 66 14        	ror	$14                     ; 0x2014 <f256main+0x17d0>
    6a42: 66 17        	ror	$17                     ; 0x2017 <f256main+0x17d3>
    6a44: 66 18        	ror	$18                     ; 0x2018 <f256main+0x17d4>
    6a46: 98           	tya
    6a47: 05 18        	ora	$18                     ; 0x2018 <f256main+0x17d4>
    6a49: a8           	tay
    6a4a: 8a           	txa
    6a4b: 05 17        	ora	$17                     ; 0x2017 <f256main+0x17d3>
    6a4d: aa           	tax
    6a4e: a5 1a        	lda	$1a                     ; 0x201a <f256main+0x17d6>
    6a50: 05 14        	ora	$14                     ; 0x2014 <f256main+0x17d0>
    6a52: 85 1a        	sta	$1a                     ; 0x201a <f256main+0x17d6>
    6a54: a5 1b        	lda	$1b                     ; 0x201b <f256main+0x17d7>
    6a56: 05 19        	ora	$19                     ; 0x2019 <f256main+0x17d5>
    6a58: 85 1b        	sta	$1b                     ; 0x201b <f256main+0x17d7>
    6a5a: 4a           	lsr
    6a5b: 5a           	phy
    6a5c: a4 1a        	ldy	$1a                     ; 0x201a <f256main+0x17d6>
    6a5e: 84 14        	sty	$14                     ; 0x2014 <f256main+0x17d0>
    6a60: 7a           	ply
    6a61: 66 14        	ror	$14                     ; 0x2014 <f256main+0x17d0>
    6a63: 86 17        	stx	$17                     ; 0x2017 <f256main+0x17d3>
    6a65: 66 17        	ror	$17                     ; 0x2017 <f256main+0x17d3>
    6a67: 84 18        	sty	$18                     ; 0x2018 <f256main+0x17d4>
    6a69: 66 18        	ror	$18                     ; 0x2018 <f256main+0x17d4>
    6a6b: 4a           	lsr
    6a6c: 66 14        	ror	$14                     ; 0x2014 <f256main+0x17d0>
    6a6e: 66 17        	ror	$17                     ; 0x2017 <f256main+0x17d3>
    6a70: 66 18        	ror	$18                     ; 0x2018 <f256main+0x17d4>
    6a72: 4a           	lsr
    6a73: 66 14        	ror	$14                     ; 0x2014 <f256main+0x17d0>
    6a75: 66 17        	ror	$17                     ; 0x2017 <f256main+0x17d3>
    6a77: 66 18        	ror	$18                     ; 0x2018 <f256main+0x17d4>
    6a79: 4a           	lsr
    6a7a: 85 19        	sta	$19                     ; 0x2019 <f256main+0x17d5>
    6a7c: 66 14        	ror	$14                     ; 0x2014 <f256main+0x17d0>
    6a7e: 66 17        	ror	$17                     ; 0x2017 <f256main+0x17d3>
    6a80: 66 18        	ror	$18                     ; 0x2018 <f256main+0x17d4>
    6a82: 98           	tya
    6a83: 05 18        	ora	$18                     ; 0x2018 <f256main+0x17d4>
    6a85: 85 18        	sta	$18                     ; 0x2018 <f256main+0x17d4>
    6a87: 8a           	txa
    6a88: 05 17        	ora	$17                     ; 0x2017 <f256main+0x17d3>
    6a8a: aa           	tax
    6a8b: a5 1a        	lda	$1a                     ; 0x201a <f256main+0x17d6>
    6a8d: 05 14        	ora	$14                     ; 0x2014 <f256main+0x17d0>
    6a8f: a8           	tay
    6a90: a5 1b        	lda	$1b                     ; 0x201b <f256main+0x17d7>
    6a92: 05 19        	ora	$19                     ; 0x2019 <f256main+0x17d5>
    6a94: 85 17        	sta	$17                     ; 0x2017 <f256main+0x17d3>
    6a96: 86 14        	stx	$14                     ; 0x2014 <f256main+0x17d0>
    6a98: a5 18        	lda	$18                     ; 0x2018 <f256main+0x17d4>
    6a9a: 05 14        	ora	$14                     ; 0x2014 <f256main+0x17d0>
    6a9c: 85 19        	sta	$19                     ; 0x2019 <f256main+0x17d5>
    6a9e: 84 14        	sty	$14                     ; 0x2014 <f256main+0x17d0>
    6aa0: 8a           	txa
    6aa1: 05 14        	ora	$14                     ; 0x2014 <f256main+0x17d0>
    6aa3: 85 18        	sta	$18                     ; 0x2018 <f256main+0x17d4>
    6aa5: a6 17        	ldx	$17                     ; 0x2017 <f256main+0x17d3>
    6aa7: 86 14        	stx	$14                     ; 0x2014 <f256main+0x17d0>
    6aa9: 86 1a        	stx	$1a                     ; 0x201a <f256main+0x17d6>
    6aab: 98           	tya
    6aac: 05 14        	ora	$14                     ; 0x2014 <f256main+0x17d0>
    6aae: 85 17        	sta	$17                     ; 0x2017 <f256main+0x17d3>
    6ab0: 85 1b        	sta	$1b                     ; 0x201b <f256main+0x17d7>
    6ab2: a5 19        	lda	$19                     ; 0x2019 <f256main+0x17d5>
    6ab4: 05 17        	ora	$17                     ; 0x2017 <f256main+0x17d3>
    6ab6: a8           	tay
    6ab7: a5 18        	lda	$18                     ; 0x2018 <f256main+0x17d4>
    6ab9: 05 14        	ora	$14                     ; 0x2014 <f256main+0x17d0>
    6abb: aa           	tax
    6abc: 98           	tya
    6abd: 4a           	lsr
    6abe: 29 55        	and	#$55
    6ac0: 85 14        	sta	$14                     ; 0x2014 <f256main+0x17d0>
    6ac2: 8a           	txa
    6ac3: 4a           	lsr
    6ac4: 29 55        	and	#$55
    6ac6: 85 17        	sta	$17                     ; 0x2017 <f256main+0x17d3>
    6ac8: a5 1b        	lda	$1b                     ; 0x201b <f256main+0x17d7>
    6aca: 4a           	lsr
    6acb: 29 55        	and	#$55
    6acd: 85 18        	sta	$18                     ; 0x2018 <f256main+0x17d4>
    6acf: a5 1a        	lda	$1a                     ; 0x201a <f256main+0x17d6>
    6ad1: 4a           	lsr
    6ad2: 29 55        	and	#$55
    6ad4: 85 19        	sta	$19                     ; 0x2019 <f256main+0x17d5>
    6ad6: 38           	sec
    6ad7: 98           	tya
    6ad8: e5 14        	sbc	$14                     ; 0x2014 <f256main+0x17d0>
    6ada: 85 14        	sta	$14                     ; 0x2014 <f256main+0x17d0>
    6adc: 8a           	txa
    6add: e5 17        	sbc	$17                     ; 0x2017 <f256main+0x17d3>
    6adf: aa           	tax
    6ae0: a5 1b        	lda	$1b                     ; 0x201b <f256main+0x17d7>
    6ae2: e5 18        	sbc	$18                     ; 0x2018 <f256main+0x17d4>
    6ae4: 85 18        	sta	$18                     ; 0x2018 <f256main+0x17d4>
    6ae6: a5 1a        	lda	$1a                     ; 0x201a <f256main+0x17d6>
    6ae8: e5 19        	sbc	$19                     ; 0x2019 <f256main+0x17d5>
    6aea: a8           	tay
    6aeb: a5 14        	lda	$14                     ; 0x2014 <f256main+0x17d0>
    6aed: 85 19        	sta	$19                     ; 0x2019 <f256main+0x17d5>
    6aef: 29 33        	and	#$33
    6af1: 85 14        	sta	$14                     ; 0x2014 <f256main+0x17d0>
    6af3: 8a           	txa
    6af4: 29 33        	and	#$33
    6af6: 85 17        	sta	$17                     ; 0x2017 <f256main+0x17d3>
    6af8: a5 18        	lda	$18                     ; 0x2018 <f256main+0x17d4>
    6afa: 85 1a        	sta	$1a                     ; 0x201a <f256main+0x17d6>
    6afc: 29 33        	and	#$33
    6afe: 85 18        	sta	$18                     ; 0x2018 <f256main+0x17d4>
    6b00: 98           	tya
    6b01: 4a           	lsr
    6b02: 85 1c        	sta	$1c                     ; 0x201c <f256main+0x17d8>
    6b04: a5 1a        	lda	$1a                     ; 0x201a <f256main+0x17d6>
    6b06: 4a           	lsr
    6b07: 85 1b        	sta	$1b                     ; 0x201b <f256main+0x17d7>
    6b09: 8a           	txa
    6b0a: 4a           	lsr
    6b0b: 85 1a        	sta	$1a                     ; 0x201a <f256main+0x17d6>
    6b0d: a5 19        	lda	$19                     ; 0x2019 <f256main+0x17d5>
    6b0f: 4a           	lsr
    6b10: 46 1c        	lsr	$1c                     ; 0x201c <f256main+0x17d8>
    6b12: 46 1b        	lsr	$1b                     ; 0x201b <f256main+0x17d7>
    6b14: a6 1a        	ldx	$1a                     ; 0x201a <f256main+0x17d6>
    6b16: 86 19        	stx	$19                     ; 0x2019 <f256main+0x17d5>
    6b18: 46 19        	lsr	$19                     ; 0x2019 <f256main+0x17d5>
    6b1a: 4a           	lsr
    6b1b: 29 33        	and	#$33
    6b1d: 85 1d        	sta	$1d                     ; 0x201d <f256main+0x17d9>
    6b1f: a5 19        	lda	$19                     ; 0x2019 <f256main+0x17d5>
    6b21: 29 33        	and	#$33
    6b23: aa           	tax
    6b24: a5 1b        	lda	$1b                     ; 0x201b <f256main+0x17d7>
    6b26: 29 33        	and	#$33
    6b28: 85 1a        	sta	$1a                     ; 0x201a <f256main+0x17d6>
    6b2a: a5 1c        	lda	$1c                     ; 0x201c <f256main+0x17d8>
    6b2c: 29 33        	and	#$33
    6b2e: 85 1b        	sta	$1b                     ; 0x201b <f256main+0x17d7>
    6b30: 98           	tya
    6b31: 29 33        	and	#$33
    6b33: 85 19        	sta	$19                     ; 0x2019 <f256main+0x17d5>
    6b35: 18           	clc
    6b36: a5 1d        	lda	$1d                     ; 0x201d <f256main+0x17d9>
    6b38: 65 14        	adc	$14                     ; 0x2014 <f256main+0x17d0>
    6b3a: 85 14        	sta	$14                     ; 0x2014 <f256main+0x17d0>
    6b3c: 8a           	txa
    6b3d: 65 17        	adc	$17                     ; 0x2017 <f256main+0x17d3>
    6b3f: 85 17        	sta	$17                     ; 0x2017 <f256main+0x17d3>
    6b41: a5 1a        	lda	$1a                     ; 0x201a <f256main+0x17d6>
    6b43: 65 18        	adc	$18                     ; 0x2018 <f256main+0x17d4>
    6b45: 85 18        	sta	$18                     ; 0x2018 <f256main+0x17d4>
    6b47: a5 1b        	lda	$1b                     ; 0x201b <f256main+0x17d7>
    6b49: 65 19        	adc	$19                     ; 0x2019 <f256main+0x17d5>
    6b4b: 85 19        	sta	$19                     ; 0x2019 <f256main+0x17d5>
    6b4d: 4a           	lsr
    6b4e: aa           	tax
    6b4f: a5 18        	lda	$18                     ; 0x2018 <f256main+0x17d4>
    6b51: 6a           	ror
    6b52: a4 17        	ldy	$17                     ; 0x2017 <f256main+0x17d3>
    6b54: 84 1b        	sty	$1b                     ; 0x201b <f256main+0x17d7>
    6b56: 66 1b        	ror	$1b                     ; 0x201b <f256main+0x17d7>
    6b58: a4 14        	ldy	$14                     ; 0x2014 <f256main+0x17d0>
    6b5a: 84 1c        	sty	$1c                     ; 0x201c <f256main+0x17d8>
    6b5c: 66 1c        	ror	$1c                     ; 0x201c <f256main+0x17d8>
    6b5e: 86 1a        	stx	$1a                     ; 0x201a <f256main+0x17d6>
    6b60: 46 1a        	lsr	$1a                     ; 0x201a <f256main+0x17d6>
    6b62: 6a           	ror
    6b63: 66 1b        	ror	$1b                     ; 0x201b <f256main+0x17d7>
    6b65: 66 1c        	ror	$1c                     ; 0x201c <f256main+0x17d8>
    6b67: 46 1a        	lsr	$1a                     ; 0x201a <f256main+0x17d6>
    6b69: 6a           	ror
    6b6a: 66 1b        	ror	$1b                     ; 0x201b <f256main+0x17d7>
    6b6c: 66 1c        	ror	$1c                     ; 0x201c <f256main+0x17d8>
    6b6e: 46 1a        	lsr	$1a                     ; 0x201a <f256main+0x17d6>
    6b70: 6a           	ror
    6b71: 85 1d        	sta	$1d                     ; 0x201d <f256main+0x17d9>
    6b73: a6 1b        	ldx	$1b                     ; 0x201b <f256main+0x17d7>
    6b75: 86 1e        	stx	$1e                     ; 0x201e <f256main+0x17da>
    6b77: 66 1e        	ror	$1e                     ; 0x201e <f256main+0x17da>
    6b79: a5 1c        	lda	$1c                     ; 0x201c <f256main+0x17d8>
    6b7b: 6a           	ror
    6b7c: 18           	clc
    6b7d: 65 14        	adc	$14                     ; 0x2014 <f256main+0x17d0>
    6b7f: a8           	tay
    6b80: a5 1e        	lda	$1e                     ; 0x201e <f256main+0x17da>
    6b82: 65 17        	adc	$17                     ; 0x2017 <f256main+0x17d3>
    6b84: aa           	tax
    6b85: a5 1d        	lda	$1d                     ; 0x201d <f256main+0x17d9>
    6b87: 65 18        	adc	$18                     ; 0x2018 <f256main+0x17d4>
    6b89: 85 18        	sta	$18                     ; 0x2018 <f256main+0x17d4>
    6b8b: a5 1a        	lda	$1a                     ; 0x201a <f256main+0x17d6>
    6b8d: 65 19        	adc	$19                     ; 0x2019 <f256main+0x17d5>
    6b8f: 85 19        	sta	$19                     ; 0x2019 <f256main+0x17d5>
    6b91: 98           	tya
    6b92: 29 0f        	and	#$f
    6b94: 85 14        	sta	$14                     ; 0x2014 <f256main+0x17d0>
    6b96: 85 1a        	sta	$1a                     ; 0x201a <f256main+0x17d6>
    6b98: 8a           	txa
    6b99: 29 0f        	and	#$f
    6b9b: 85 17        	sta	$17                     ; 0x2017 <f256main+0x17d3>
    6b9d: a8           	tay
    6b9e: a5 18        	lda	$18                     ; 0x2018 <f256main+0x17d4>
    6ba0: 29 0f        	and	#$f
    6ba2: 85 18        	sta	$18                     ; 0x2018 <f256main+0x17d4>
    6ba4: aa           	tax
    6ba5: a5 19        	lda	$19                     ; 0x2019 <f256main+0x17d5>
    6ba7: 29 0f        	and	#$f
    6ba9: 85 19        	sta	$19                     ; 0x2019 <f256main+0x17d5>
    6bab: 18           	clc
    6bac: a5 1a        	lda	$1a                     ; 0x201a <f256main+0x17d6>
    6bae: 69 00        	adc	#$0
    6bb0: 85 1b        	sta	$1b                     ; 0x201b <f256main+0x17d7>
    6bb2: 98           	tya
    6bb3: 65 14        	adc	$14                     ; 0x2014 <f256main+0x17d0>
    6bb5: a8           	tay
    6bb6: 8a           	txa
    6bb7: 65 17        	adc	$17                     ; 0x2017 <f256main+0x17d3>
    6bb9: 85 1a        	sta	$1a                     ; 0x201a <f256main+0x17d6>
    6bbb: a5 19        	lda	$19                     ; 0x2019 <f256main+0x17d5>
    6bbd: 65 18        	adc	$18                     ; 0x2018 <f256main+0x17d4>
    6bbf: aa           	tax
    6bc0: a5 1b        	lda	$1b                     ; 0x201b <f256main+0x17d7>
    6bc2: 85 14        	sta	$14                     ; 0x2014 <f256main+0x17d0>
    6bc4: 18           	clc
    6bc5: 69 00        	adc	#$0
    6bc7: 98           	tya
    6bc8: 84 17        	sty	$17                     ; 0x2017 <f256main+0x17d3>
    6bca: 69 00        	adc	#$0
    6bcc: a5 1a        	lda	$1a                     ; 0x201a <f256main+0x17d6>
    6bce: 65 14        	adc	$14                     ; 0x2014 <f256main+0x17d0>
    6bd0: 8a           	txa
    6bd1: 65 17        	adc	$17                     ; 0x2017 <f256main+0x17d3>
    6bd3: 85 14        	sta	$14                     ; 0x2014 <f256main+0x17d0>
    6bd5: a9 20        	lda	#$20
    6bd7: 38           	sec
    6bd8: e5 14        	sbc	$14                     ; 0x2014 <f256main+0x17d0>
    6bda: 85 14        	sta	$14                     ; 0x2014 <f256main+0x17d0>
    6bdc: 85 19        	sta	$19                     ; 0x2019 <f256main+0x17d5>
    6bde: a9 00        	lda	#$0
    6be0: e9 00        	sbc	#$0
    6be2: 85 18        	sta	$18                     ; 0x2018 <f256main+0x17d4>
    6be4: 85 8b        	sta	$8b                     ; 0x208b <f256main+0x1847>
    6be6: a6 19        	ldx	$19                     ; 0x2019 <f256main+0x17d5>
    6be8: 86 8d        	stx	$8d                     ; 0x208d <f256main+0x1849>
    6bea: a5 19        	lda	$19                     ; 0x2019 <f256main+0x17d5>
    6bec: 49 1f        	eor	#$1f
    6bee: 85 17        	sta	$17                     ; 0x2017 <f256main+0x17d3>
    6bf0: a6 8b        	ldx	$8b                     ; 0x208b <f256main+0x1847>
    6bf2: f0 03        	beq	$6bf7 <__floatunsisf+0x207>
    6bf4: 4c 6c 6c     	jmp	$6c6c <__floatunsisf+0x27c>
    6bf7: c9 18        	cmp	#$18
    6bf9: b0 03        	bcs	$6bfe <__floatunsisf+0x20e>
    6bfb: 4c 75 6c     	jmp	$6c75 <__floatunsisf+0x285>
    6bfe: 38           	sec
    6bff: a9 08        	lda	#$8
    6c01: a6 14        	ldx	$14                     ; 0x2014 <f256main+0x17d0>
    6c03: 86 8c        	stx	$8c                     ; 0x208c <f256main+0x1848>
    6c05: e5 14        	sbc	$14                     ; 0x2014 <f256main+0x17d0>
    6c07: a6 12        	ldx	$12                     ; 0x2012 <f256main+0x17ce>
    6c09: 86 92        	stx	$92                     ; 0x2092 <f256main+0x184e>
    6c0b: a6 13        	ldx	$13                     ; 0x2013 <f256main+0x17cf>
    6c0d: 86 94        	stx	$94                     ; 0x2094 <f256main+0x1850>
    6c0f: 85 14        	sta	$14                     ; 0x2014 <f256main+0x17d0>
    6c11: a6 16        	ldx	$16                     ; 0x2016 <f256main+0x17d2>
    6c13: a5 15        	lda	$15                     ; 0x2015 <f256main+0x17d1>
    6c15: a4 15        	ldy	$15                     ; 0x2015 <f256main+0x17d1>
    6c17: 84 93        	sty	$93                     ; 0x2093 <f256main+0x184f>
    6c19: a4 16        	ldy	$16                     ; 0x2016 <f256main+0x17d2>
    6c1b: 84 95        	sty	$95                     ; 0x2095 <f256main+0x1851>
    6c1d: 20 4e 51     	jsr	$514e <__lshrsi3>
    6c20: 85 8f        	sta	$8f                     ; 0x208f <f256main+0x184b>
    6c22: 86 8e        	stx	$8e                     ; 0x208e <f256main+0x184a>
    6c24: a5 12        	lda	$12                     ; 0x2012 <f256main+0x17ce>
    6c26: a6 13        	ldx	$13                     ; 0x2013 <f256main+0x17cf>
    6c28: 86 91        	stx	$91                     ; 0x2091 <f256main+0x184d>
    6c2a: 49 80        	eor	#$80
    6c2c: 85 90        	sta	$90                     ; 0x2090 <f256main+0x184c>
    6c2e: a5 8d        	lda	$8d                     ; 0x208d <f256main+0x1849>
    6c30: 18           	clc
    6c31: 69 18        	adc	#$18
    6c33: a6 92        	ldx	$92                     ; 0x2092 <f256main+0x184e>
    6c35: 86 12        	stx	$12                     ; 0x2012 <f256main+0x17ce>
    6c37: a6 94        	ldx	$94                     ; 0x2094 <f256main+0x1850>
    6c39: 86 13        	stx	$13                     ; 0x2013 <f256main+0x17cf>
    6c3b: 85 14        	sta	$14                     ; 0x2014 <f256main+0x17d0>
    6c3d: a6 95        	ldx	$95                     ; 0x2095 <f256main+0x1851>
    6c3f: a5 93        	lda	$93                     ; 0x2093 <f256main+0x184f>
    6c41: 20 37 51     	jsr	$5137 <__ashlsi3>
    6c44: 85 15        	sta	$15                     ; 0x2015 <f256main+0x17d1>
    6c46: 86 16        	stx	$16                     ; 0x2016 <f256main+0x17d2>
    6c48: a6 12        	ldx	$12                     ; 0x2012 <f256main+0x17ce>
    6c4a: a4 13        	ldy	$13                     ; 0x2013 <f256main+0x17cf>
    6c4c: c0 80        	cpy	#$80
    6c4e: d0 4e        	bne	$6c9e <__floatunsisf+0x2ae>
    6c50: a5 8b        	lda	$8b                     ; 0x208b <f256main+0x1847>
    6c52: 85 12        	sta	$12                     ; 0x2012 <f256main+0x17ce>
    6c54: 8a           	txa
    6c55: d0 4f        	bne	$6ca6 <__floatunsisf+0x2b6>
    6c57: a5 8c        	lda	$8c                     ; 0x208c <f256main+0x1848>
    6c59: 85 13        	sta	$13                     ; 0x2013 <f256main+0x17cf>
    6c5b: a5 8f        	lda	$8f                     ; 0x208f <f256main+0x184b>
    6c5d: 85 14        	sta	$14                     ; 0x2014 <f256main+0x17d0>
    6c5f: a5 16        	lda	$16                     ; 0x2016 <f256main+0x17d2>
    6c61: f0 03        	beq	$6c66 <__floatunsisf+0x276>
    6c63: 4c 32 6d     	jmp	$6d32 <__floatunsisf+0x342>
    6c66: a5 15        	lda	$15                     ; 0x2015 <f256main+0x17d1>
    6c68: c9 01        	cmp	#$1
    6c6a: 80 44        	bra	$6cb0 <__floatunsisf+0x2c0>
    6c6c: a6 18        	ldx	$18                     ; 0x2018 <f256main+0x17d4>
    6c6e: e0 00        	cpx	#$0
    6c70: 90 03        	bcc	$6c75 <__floatunsisf+0x285>
    6c72: 4c fe 6b     	jmp	$6bfe <__floatunsisf+0x20e>
    6c75: a6 14        	ldx	$14                     ; 0x2014 <f256main+0x17d0>
    6c77: 86 8c        	stx	$8c                     ; 0x208c <f256main+0x1848>
    6c79: 38           	sec
    6c7a: a9 17        	lda	#$17
    6c7c: e5 17        	sbc	$17                     ; 0x2017 <f256main+0x17d3>
    6c7e: 85 14        	sta	$14                     ; 0x2014 <f256main+0x17d0>
    6c80: a6 16        	ldx	$16                     ; 0x2016 <f256main+0x17d2>
    6c82: a5 15        	lda	$15                     ; 0x2015 <f256main+0x17d1>
    6c84: 20 37 51     	jsr	$5137 <__ashlsi3>
    6c87: 85 14        	sta	$14                     ; 0x2014 <f256main+0x17d0>
    6c89: 86 17        	stx	$17                     ; 0x2017 <f256main+0x17d3>
    6c8b: a5 12        	lda	$12                     ; 0x2012 <f256main+0x17ce>
    6c8d: a6 13        	ldx	$13                     ; 0x2013 <f256main+0x17cf>
    6c8f: 86 15        	stx	$15                     ; 0x2015 <f256main+0x17d1>
    6c91: 49 80        	eor	#$80
    6c93: a6 8b        	ldx	$8b                     ; 0x208b <f256main+0x1847>
    6c95: 86 12        	stx	$12                     ; 0x2012 <f256main+0x17ce>
    6c97: a6 8c        	ldx	$8c                     ; 0x208c <f256main+0x1848>
    6c99: 86 13        	stx	$13                     ; 0x2013 <f256main+0x17cf>
    6c9b: 4c 01 6d     	jmp	$6d01 <__floatunsisf+0x311>
    6c9e: c0 80        	cpy	#$80
    6ca0: a5 8b        	lda	$8b                     ; 0x208b <f256main+0x1847>
    6ca2: 85 12        	sta	$12                     ; 0x2012 <f256main+0x17ce>
    6ca4: 80 02        	bra	$6ca8 <__floatunsisf+0x2b8>
    6ca6: e0 00        	cpx	#$0
    6ca8: a5 8c        	lda	$8c                     ; 0x208c <f256main+0x1848>
    6caa: 85 13        	sta	$13                     ; 0x2013 <f256main+0x17cf>
    6cac: a5 8f        	lda	$8f                     ; 0x208f <f256main+0x184b>
    6cae: 85 14        	sta	$14                     ; 0x2014 <f256main+0x17d0>
    6cb0: a5 8e        	lda	$8e                     ; 0x208e <f256main+0x184a>
    6cb2: 85 17        	sta	$17                     ; 0x2017 <f256main+0x17d3>
    6cb4: b0 30        	bcs	$6ce6 <__floatunsisf+0x2f6>
    6cb6: c0 80        	cpy	#$80
    6cb8: d0 41        	bne	$6cfb <__floatunsisf+0x30b>
    6cba: 8a           	txa
    6cbb: d0 3e        	bne	$6cfb <__floatunsisf+0x30b>
    6cbd: a5 16        	lda	$16                     ; 0x2016 <f256main+0x17d2>
    6cbf: d0 3a        	bne	$6cfb <__floatunsisf+0x30b>
    6cc1: a5 15        	lda	$15                     ; 0x2015 <f256main+0x17d1>
    6cc3: d0 36        	bne	$6cfb <__floatunsisf+0x30b>
    6cc5: a5 14        	lda	$14                     ; 0x2014 <f256main+0x17d0>
    6cc7: 29 01        	and	#$1
    6cc9: 18           	clc
    6cca: 65 14        	adc	$14                     ; 0x2014 <f256main+0x17d0>
    6ccc: a8           	tay
    6ccd: a6 8e        	ldx	$8e                     ; 0x208e <f256main+0x184a>
    6ccf: 8a           	txa
    6cd0: 69 00        	adc	#$0
    6cd2: 85 17        	sta	$17                     ; 0x2017 <f256main+0x17d3>
    6cd4: a5 90        	lda	$90                     ; 0x2090 <f256main+0x184c>
    6cd6: 69 00        	adc	#$0
    6cd8: 85 16        	sta	$16                     ; 0x2016 <f256main+0x17d2>
    6cda: a5 91        	lda	$91                     ; 0x2091 <f256main+0x184d>
    6cdc: 69 00        	adc	#$0
    6cde: 85 15        	sta	$15                     ; 0x2015 <f256main+0x17d1>
    6ce0: a5 16        	lda	$16                     ; 0x2016 <f256main+0x17d2>
    6ce2: 84 14        	sty	$14                     ; 0x2014 <f256main+0x17d0>
    6ce4: 80 1b        	bra	$6d01 <__floatunsisf+0x311>
    6ce6: a5 90        	lda	$90                     ; 0x2090 <f256main+0x184c>
    6ce8: a6 91        	ldx	$91                     ; 0x2091 <f256main+0x184d>
    6cea: 86 15        	stx	$15                     ; 0x2015 <f256main+0x17d1>
    6cec: e6 14        	inc	$14                     ; 0x2014 <f256main+0x17d0>
    6cee: d0 09        	bne	$6cf9 <__floatunsisf+0x309>
    6cf0: e6 17        	inc	$17                     ; 0x2017 <f256main+0x17d3>
    6cf2: d0 05        	bne	$6cf9 <__floatunsisf+0x309>
    6cf4: 1a           	inc
    6cf5: d0 02        	bne	$6cf9 <__floatunsisf+0x309>
    6cf7: e6 15        	inc	$15                     ; 0x2015 <f256main+0x17d1>
    6cf9: 80 06        	bra	$6d01 <__floatunsisf+0x311>
    6cfb: a5 90        	lda	$90                     ; 0x2090 <f256main+0x184c>
    6cfd: a6 91        	ldx	$91                     ; 0x2091 <f256main+0x184d>
    6cff: 86 15        	stx	$15                     ; 0x2015 <f256main+0x17d1>
    6d01: 85 16        	sta	$16                     ; 0x2016 <f256main+0x17d2>
    6d03: 38           	sec
    6d04: a9 9e        	lda	#$9e
    6d06: e5 13        	sbc	$13                     ; 0x2013 <f256main+0x17cf>
    6d08: 85 13        	sta	$13                     ; 0x2013 <f256main+0x17cf>
    6d0a: a9 00        	lda	#$0
    6d0c: e5 12        	sbc	$12                     ; 0x2012 <f256main+0x17ce>
    6d0e: 4a           	lsr
    6d0f: 66 13        	ror	$13                     ; 0x2013 <f256main+0x17cf>
    6d11: 64 18        	stz	$18                     ; 0x2018 <f256main+0x17d4>
    6d13: 66 18        	ror	$18                     ; 0x2018 <f256main+0x17d4>
    6d15: a9 00        	lda	#$0
    6d17: 6a           	ror
    6d18: aa           	tax
    6d19: a9 00        	lda	#$0
    6d1b: 6a           	ror
    6d1c: 18           	clc
    6d1d: 65 14        	adc	$14                     ; 0x2014 <f256main+0x17d0>
    6d1f: a8           	tay
    6d20: 8a           	txa
    6d21: 65 17        	adc	$17                     ; 0x2017 <f256main+0x17d3>
    6d23: aa           	tax
    6d24: a5 18        	lda	$18                     ; 0x2018 <f256main+0x17d4>
    6d26: 65 16        	adc	$16                     ; 0x2016 <f256main+0x17d2>
    6d28: 85 12        	sta	$12                     ; 0x2012 <f256main+0x17ce>
    6d2a: a5 13        	lda	$13                     ; 0x2013 <f256main+0x17cf>
    6d2c: 65 15        	adc	$15                     ; 0x2015 <f256main+0x17d1>
    6d2e: 85 13        	sta	$13                     ; 0x2013 <f256main+0x17cf>
    6d30: 98           	tya
    6d31: 60           	rts
    6d32: a5 16        	lda	$16                     ; 0x2016 <f256main+0x17d2>
    6d34: c9 00        	cmp	#$0
    6d36: 4c b0 6c     	jmp	$6cb0 <__floatunsisf+0x2c0>
    6d39: a0 00        	ldy	#$0
    6d3b: a2 00        	ldx	#$0
    6d3d: 64 12        	stz	$12                     ; 0x2012 <f256main+0x17ce>
    6d3f: 64 13        	stz	$13                     ; 0x2013 <f256main+0x17cf>
    6d41: 80 ed        	bra	$6d30 <__floatunsisf+0x340>
