
midiTest.elf:	file format elf32-mos

SYMBOL TABLE:
00000000 l    df *ABS*	00000000 zero-bss.c
00000000 l    df *ABS*	00000000 zero-zp-bss.c
00000000 l    df *ABS*	00000000 copy-zp-data.c
00000000 l    df *ABS*	00000000 ld-temp.o
00000358 l     F .text	000003a0 f256Init
00000033 l     O .zp.bss	00000007 kernelEventData
00000030 l     O .zp.data	00000001 _ccolor
00002ac4 l     O .rodata	00000030 textColors
0000003a l     O .zp.bss	00000001 _col
0000003b l     O .zp.bss	00000001 _row
00003572 l     O .bss	00000004 _BITMAP_BASE.0
00003571 l     O .bss	00000001 kernelError
000006fe l     F .text	00000c75 f256main
00001922 l     F .text	00000237 textTitle
0000152b l     F .text	0000025a refreshInstrumentText
00000053 l     O .zp.bss	00000001 spaceNotetimer.1
00000054 l     O .zp.bss	00000001 spaceNotetimer.2
00000055 l     O .zp.bss	00000001 refTimer.1
0000003e l     O .zp.bss	00000014 prgInst
00000031 l     O .zp.data	00000002 note
00000056 l     O .zp.bss	00000002 oldCursorNote
00002af4 l     O .rodata	00000058 noteColors
00000052 l     O .zp.bss	00000001 chSelect
00000058 l     O .zp.bss	00000002 oldnote
00001d49 l     F .text	00000bb0 printf
00001373 l     F .text	000001b8 textPrint
00003471 l     O .rodata	00000100 midi_instruments
00001842 l     F .text	000000e0 highLightInstChoice
00002951 l     F .text	0000001b __mulqi3
0000296c l     F .text	00000032 __mulhi3
00001785 l     F .text	000000bd channelTextMenu
000028f9 l     F .text	0000000c putchar
0000299e l     F .text	000000db __udivmodhi4
00001b59 l     F .text	0000000d __putchar
0000003c l     O .zp.bss	00000002 __putchar.s
00001b6b l     F .text	000000d1 _ZN12_GLOBAL__N_13putEcP6Status
00001c3c l     F .text	0000010d _ZN12_GLOBAL__N_112print_stringEPKcP6Status
000006f8 g     F .text	00000006 main
00020000 g       .pia1	00000000 pia1_end
0002ac00 g       .pia3	00000000 pia3_end
00028000 g       .pia2	00000000 pia2_end
00028000 g       .pia3	00000000 pia3_start
000103fc g       .palpiano	00000000 palpiano_end
00018000 g       .pia1	00000000 pia1_start
00010000 g       .palpiano	00000000 palpiano_start
00020000 g       .pia2	00000000 pia2_start
00000317 g       .text	00000000 __after_main
00000303 g       .text	00000000 __do_init_stack
00000311 g       .text	00000000 __do_copy_zp_data
00000341 g     F .text	00000017 __copy_zp_data
0000030b g       .text	00000000 __do_zero_bss
0000031b g     F .text	00000013 __zero_bss
0000030e g       .text	00000000 __do_zero_zp_bss
0000032e g     F .text	00000013 __zero_zp_bss
00001b66 g     F .text	00000005 exit
0000031a g       .text	00000000 _fini
00002a79 g       .rodata	00000000 __set_v
00002931  w    F .text	00000020 __memset
00001000  w      *ABS*	00000000 __heap_default_limit
00003576 g       .noinit	00000000 __heap_start
00002905  w    F .text	0000002c memcpy
00000010 g       *ABS*	00000000 __rc0
00000012 g       *ABS*	00000000 __rc2
00000014 g       *ABS*	00000000 __rc4
00000016 g       *ABS*	00000000 __rc6
00000018 g       *ABS*	00000000 __rc8
0000001a g       *ABS*	00000000 __rc10
0000001c g       *ABS*	00000000 __rc12
0000001e g       *ABS*	00000000 __rc14
00000020 g       *ABS*	00000000 __rc16
00000022 g       *ABS*	00000000 __rc18
00000024 g       *ABS*	00000000 __rc20
00000026 g       *ABS*	00000000 __rc22
00000028 g       *ABS*	00000000 __rc24
0000002a g       *ABS*	00000000 __rc26
0000002c g       *ABS*	00000000 __rc28
0000002e g       *ABS*	00000000 __rc30
0000002f g       *ABS*	00000000 __rc31
00000300 g       *ABS*	00000000 __f256_start
0000a000 g       *ABS*	00000000 __stack
0000a000 g       *ABS*	00000000 __SLOT_ADDR
0800a000 g       *ABS*	00000000 __block8_lma
00002000 g       *ABS*	00000000 __BLOCK_SIZE
0900a000 g       *ABS*	00000000 __block9_lma
0a00a000 g       *ABS*	00000000 __block10_lma
0b00a000 g       *ABS*	00000000 __block11_lma
0c00a000 g       *ABS*	00000000 __block12_lma
0d00a000 g       *ABS*	00000000 __block13_lma
0e00a000 g       *ABS*	00000000 __block14_lma
0f00a000 g       *ABS*	00000000 __block15_lma
1000a000 g       *ABS*	00000000 __block16_lma
1100a000 g       *ABS*	00000000 __block17_lma
1200a000 g       *ABS*	00000000 __block18_lma
1300a000 g       *ABS*	00000000 __block19_lma
1400a000 g       *ABS*	00000000 __block20_lma
1500a000 g       *ABS*	00000000 __block21_lma
1600a000 g       *ABS*	00000000 __block22_lma
1700a000 g       *ABS*	00000000 __block23_lma
00010000 g       *ABS*	00000000 __palpiano_lma
000003fc g       *ABS*	00000000 __palpiano_size
00018000 g       *ABS*	00000000 __pia1_lma
00008000 g       *ABS*	00000000 __pia1_size
00020000 g       *ABS*	00000000 __pia2_lma
00008000 g       *ABS*	00000000 __pia2_size
00028000 g       *ABS*	00000000 __pia3_lma
00002c00 g       *ABS*	00000000 __pia3_size
00003571 g       .bss	00000000 __bss_start
000103fc g       .palpiano	00000000 end_palpiano
00020000 g       .pia1	00000000 end_pia1
00028000 g       .pia2	00000000 end_pia2
0002ac00 g       .pia3	00000000 end_pia3
00000303 g       .text	00000000 _start
0000002d g       *ABS*	00000000 __rc29
0000002b g       *ABS*	00000000 __rc27
00000029 g       *ABS*	00000000 __rc25
00000027 g       *ABS*	00000000 __rc23
00000025 g       *ABS*	00000000 __rc21
00000023 g       *ABS*	00000000 __rc19
00000021 g       *ABS*	00000000 __rc17
0000001f g       *ABS*	00000000 __rc15
0000001d g       *ABS*	00000000 __rc13
0000001b g       *ABS*	00000000 __rc11
00000019 g       *ABS*	00000000 __rc9
00000017 g       *ABS*	00000000 __rc7
00000015 g       *ABS*	00000000 __rc5
00000013 g       *ABS*	00000000 __rc3
00000011 g       *ABS*	00000000 __rc1
00000030 g       .zp.data	00000000 __zp_data_start
00000300 g       *ABS*	00000000 __zp_data_load_start
00000003 g       *ABS*	00000000 __zp_data_size
00000033 g       .zp.bss	00000000 __zp_bss_start
00000027 g       *ABS*	00000000 __zp_bss_size
00000303 g       .text	00000000 _init
00002a79 g       .text	00000000 __init_array_start
00002a79 g       .text	00000000 __init_array_end
00002a79 g       .text	00000000 __fini_array_start
00002a79 g       .text	00000000 __fini_array_end
00003571 g       .data	00000000 __data_start
00003571 g       .data	00000000 __data_end
00003571 g       *ABS*	00000000 __data_load_start
00000000 g       *ABS*	00000000 __data_size
00003576 g       .bss	00000000 __bss_end
00000005 g       *ABS*	00000000 __bss_size
00003576 g       .noinit	00000000 end_block8
00003576 g       .noinit	00000000 end_block9
00003576 g       .noinit	00000000 end_block10
00003576 g       .noinit	00000000 end_block11
00003576 g       .noinit	00000000 end_block12
00003576 g       .noinit	00000000 end_block13
00003576 g       .noinit	00000000 end_block14
00003576 g       .noinit	00000000 end_block15
00003576 g       .noinit	00000000 end_block16
00003576 g       .noinit	00000000 end_block17
00003576 g       .noinit	00000000 end_block18
00003576 g       .noinit	00000000 end_block19
00003576 g       .noinit	00000000 end_block20
00003576 g       .noinit	00000000 end_block21
00003576 g       .noinit	00000000 end_block22
00003576 g       .noinit	00000000 end_block23

Disassembly of section .text:

00000303 <_start>:
     303: a9 00        	lda	#$0
     305: 85 10        	sta	$10                     ; 0x2010 <printf+0x2c7>
     307: a9 a0        	lda	#$a0
     309: 85 11        	sta	$11                     ; 0x2011 <printf+0x2c8>

0000030b <__do_zero_bss>:
     30b: 20 1b 03     	jsr	$31b <__zero_bss>

0000030e <__do_zero_zp_bss>:
     30e: 20 2e 03     	jsr	$32e <__zero_zp_bss>

00000311 <__do_copy_zp_data>:
     311: 20 41 03     	jsr	$341 <__copy_zp_data>
     314: 20 f8 06     	jsr	$6f8 <main>

00000317 <__after_main>:
     317: 4c 66 1b     	jmp	$1b66 <exit>

0000031a <_fini>:
     31a: 60           	rts

0000031b <__zero_bss>:
     31b: a2 05        	ldx	#$5
     31d: a0 00        	ldy	#$0
     31f: a9 71        	lda	#$71
     321: 85 12        	sta	$12                     ; 0x2012 <printf+0x2c9>
     323: a9 35        	lda	#$35
     325: 85 13        	sta	$13                     ; 0x2013 <printf+0x2ca>
     327: a9 00        	lda	#$0
     329: 84 14        	sty	$14                     ; 0x2014 <printf+0x2cb>
     32b: 4c 31 29     	jmp	$2931 <__memset>

0000032e <__zero_zp_bss>:
     32e: a2 27        	ldx	#$27
     330: a0 00        	ldy	#$0
     332: a9 33        	lda	#$33
     334: 85 12        	sta	$12                     ; 0x2012 <printf+0x2c9>
     336: a9 00        	lda	#$0
     338: 85 13        	sta	$13                     ; 0x2013 <printf+0x2ca>
     33a: a9 00        	lda	#$0
     33c: 84 14        	sty	$14                     ; 0x2014 <printf+0x2cb>
     33e: 4c 31 29     	jmp	$2931 <__memset>

00000341 <__copy_zp_data>:
     341: a9 03        	lda	#$3
     343: a2 00        	ldx	#$0
     345: a0 30        	ldy	#$30
     347: 84 12        	sty	$12                     ; 0x2012 <printf+0x2c9>
     349: a0 00        	ldy	#$0
     34b: 84 13        	sty	$13                     ; 0x2013 <printf+0x2ca>
     34d: a0 00        	ldy	#$0
     34f: 84 14        	sty	$14                     ; 0x2014 <printf+0x2cb>
     351: a0 03        	ldy	#$3
     353: 84 15        	sty	$15                     ; 0x2015 <printf+0x2cc>
     355: 4c 05 29     	jmp	$2905 <memcpy>

00000358 <f256Init>:
     358: 64 14        	stz	$14                     ; 0x2014 <printf+0x2cb>
     35a: a2 00        	ldx	#$0
     35c: 86 12        	stx	$12                     ; 0x2012 <printf+0x2c9>
     35e: a2 c0        	ldx	#$c0
     360: 86 13        	stx	$13                     ; 0x2013 <printf+0x2ca>
     362: 64 01        	stz	$1                      ; 0x2001 <printf+0x2b8>
     364: a2 3f        	ldx	#$3f
     366: 8e 00 d0     	stx	$d000                   ; 0xd000 <end_block9+0x9a8a>
     369: a2 b3        	ldx	#$b3
     36b: 86 00        	stx	$0                      ; 0x2000 <printf+0x2b7>
     36d: 64 08        	stz	$8                      ; 0x2008 <printf+0x2bf>
     36f: a2 01        	ldx	#$1
     371: 86 09        	stx	$9                      ; 0x2009 <printf+0x2c0>
     373: e8           	inx
     374: 86 0a        	stx	$a                      ; 0x200a <printf+0x2c1>
     376: e8           	inx
     377: 86 0b        	stx	$b                      ; 0x200b <printf+0x2c2>
     379: e8           	inx
     37a: 86 0c        	stx	$c                      ; 0x200c <printf+0x2c3>
     37c: e8           	inx
     37d: 86 0d        	stx	$d                      ; 0x200d <printf+0x2c4>
     37f: a2 33        	ldx	#$33
     381: a0 00        	ldy	#$0
     383: 86 f0        	stx	$f0                     ; 0x20f0 <printf+0x3a7>
     385: 84 f1        	sty	$f1                     ; 0x20f1 <printf+0x3a8>
     387: a2 00        	ldx	#$0
     389: 86 18        	stx	$18                     ; 0x2018 <printf+0x2cf>
     38b: ca           	dex
     38c: 86 19        	stx	$19                     ; 0x2019 <printf+0x2d0>
     38e: 8a           	txa
     38f: 0a           	asl
     390: 0a           	asl
     391: 18           	clc
     392: 69 d4        	adc	#$d4
     394: 85 1a        	sta	$1a                     ; 0x201a <printf+0x2d1>
     396: a0 00        	ldy	#$0
     398: 64 17        	stz	$17                     ; 0x2017 <printf+0x2ce>
     39a: 64 16        	stz	$16                     ; 0x2016 <printf+0x2cd>
     39c: a6 19        	ldx	$19                     ; 0x2019 <printf+0x2d0>
     39e: e0 03        	cpx	#$3
     3a0: a6 01        	ldx	$1                      ; 0x2001 <printf+0x2b8>
     3a2: 86 1c        	stx	$1c                     ; 0x201c <printf+0x2d3>
     3a4: a2 d0        	ldx	#$d0
     3a6: 84 1b        	sty	$1b                     ; 0x201b <printf+0x2d2>
     3a8: b0 02        	bcs	$3ac <f256Init+0x54>
     3aa: a6 1a        	ldx	$1a                     ; 0x201a <printf+0x2d1>
     3ac: 86 15        	stx	$15                     ; 0x2015 <printf+0x2cc>
     3ae: a5 17        	lda	$17                     ; 0x2017 <printf+0x2ce>
     3b0: 18           	clc
     3b1: 65 14        	adc	$14                     ; 0x2014 <printf+0x2cb>
     3b3: a8           	tay
     3b4: a6 17        	ldx	$17                     ; 0x2017 <printf+0x2ce>
     3b6: a5 16        	lda	$16                     ; 0x2016 <printf+0x2cd>
     3b8: 85 1d        	sta	$1d                     ; 0x201d <printf+0x2d4>
     3ba: a5 16        	lda	$16                     ; 0x2016 <printf+0x2cd>
     3bc: 65 15        	adc	$15                     ; 0x2015 <printf+0x2cc>
     3be: 84 16        	sty	$16                     ; 0x2016 <printf+0x2cd>
     3c0: a0 01        	ldy	#$1
     3c2: 84 01        	sty	$1                      ; 0x2001 <printf+0x2b8>
     3c4: 85 17        	sta	$17                     ; 0x2017 <printf+0x2ce>
     3c6: a5 1b        	lda	$1b                     ; 0x201b <printf+0x2d2>
     3c8: 92 16        	sta	($16)                   ; 0x2016 <printf+0x2cd>
     3ca: 91 16        	sta	($16),y                 ; 0x2016 <printf+0x2cd>
     3cc: c8           	iny
     3cd: 91 16        	sta	($16),y                 ; 0x2016 <printf+0x2cd>
     3cf: 85 15        	sta	$15                     ; 0x2015 <printf+0x2cc>
     3d1: c8           	iny
     3d2: a9 ff        	lda	#$ff
     3d4: 91 16        	sta	($16),y                 ; 0x2016 <printf+0x2cd>
     3d6: 8a           	txa
     3d7: a6 1c        	ldx	$1c                     ; 0x201c <printf+0x2d3>
     3d9: 86 01        	stx	$1                      ; 0x2001 <printf+0x2b8>
     3db: 18           	clc
     3dc: 69 04        	adc	#$4
     3de: 85 17        	sta	$17                     ; 0x2017 <printf+0x2ce>
     3e0: a5 1d        	lda	$1d                     ; 0x201d <printf+0x2d4>
     3e2: 69 00        	adc	#$0
     3e4: e6 15        	inc	$15                     ; 0x2015 <printf+0x2cc>
     3e6: a4 15        	ldy	$15                     ; 0x2015 <printf+0x2cc>
     3e8: 85 16        	sta	$16                     ; 0x2016 <printf+0x2cd>
     3ea: c9 04        	cmp	#$4
     3ec: f0 03        	beq	$3f1 <f256Init+0x99>
     3ee: 4c 9c 03     	jmp	$39c <f256Init+0x44>
     3f1: a5 17        	lda	$17                     ; 0x2017 <printf+0x2ce>
     3f3: f0 03        	beq	$3f8 <f256Init+0xa0>
     3f5: 4c 9c 03     	jmp	$39c <f256Init+0x44>
     3f8: a6 18        	ldx	$18                     ; 0x2018 <printf+0x2cf>
     3fa: e8           	inx
     3fb: e0 04        	cpx	#$4
     3fd: f0 03        	beq	$402 <f256Init+0xaa>
     3ff: 4c 89 03     	jmp	$389 <f256Init+0x31>
     402: ad 02 d0     	lda	$d002                   ; 0xd002 <end_block9+0x9a8c>
     405: a2 f0        	ldx	#$f0
     407: 29 f0        	and	#$f0
     409: 8d 02 d0     	sta	$d002                   ; 0xd002 <end_block9+0x9a8c>
     40c: ad 02 d0     	lda	$d002                   ; 0xd002 <end_block9+0x9a8c>
     40f: 29 0f        	and	#$f
     411: 09 10        	ora	#$10
     413: 8d 02 d0     	sta	$d002                   ; 0xd002 <end_block9+0x9a8c>
     416: a0 02        	ldy	#$2
     418: 8c 03 d0     	sty	$d003                   ; 0xd003 <end_block9+0x9a8d>
     41b: 86 30        	stx	$30                     ; 0x2030 <printf+0x2e7>
     41d: ad 01 d0     	lda	$d001                   ; 0xd001 <end_block9+0x9a8b>
     420: 29 f9        	and	#$f9
     422: 09 04        	ora	#$4
     424: 8d 01 d0     	sta	$d001                   ; 0xd001 <end_block9+0x9a8b>
     427: 64 14        	stz	$14                     ; 0x2014 <printf+0x2cb>
     429: 9c 10 d0     	stz	$d010                   ; 0xd010 <end_block9+0x9a9a>
     42c: a2 00        	ldx	#$0
     42e: 64 15        	stz	$15                     ; 0x2015 <printf+0x2cc>
     430: 86 18        	stx	$18                     ; 0x2018 <printf+0x2cf>
     432: a4 18        	ldy	$18                     ; 0x2018 <printf+0x2cf>
     434: be c4 2a     	ldx	$2ac4,y                 ; 0x2ac4 <textColors>
     437: 86 19        	stx	$19                     ; 0x2019 <printf+0x2d0>
     439: be c5 2a     	ldx	$2ac5,y                 ; 0x2ac5 <textColors+0x1>
     43c: 86 1a        	stx	$1a                     ; 0x201a <printf+0x2d1>
     43e: be c6 2a     	ldx	$2ac6,y                 ; 0x2ac6 <textColors+0x2>
     441: 86 1b        	stx	$1b                     ; 0x201b <printf+0x2d2>
     443: a6 15        	ldx	$15                     ; 0x2015 <printf+0x2cc>
     445: 8e 00 de     	stx	$de00                   ; 0xde00 <end_block9+0xa88a>
     448: 86 17        	stx	$17                     ; 0x2017 <printf+0x2ce>
     44a: 9c 01 de     	stz	$de01                   ; 0xde01 <end_block9+0xa88b>
     44d: a2 04        	ldx	#$4
     44f: 8e 02 de     	stx	$de02                   ; 0xde02 <end_block9+0xa88c>
     452: 9c 03 de     	stz	$de03                   ; 0xde03 <end_block9+0xa88d>
     455: ad 10 de     	lda	$de10                   ; 0xde10 <end_block9+0xa89a>
     458: ac 11 de     	ldy	$de11                   ; 0xde11 <end_block9+0xa89b>
     45b: 84 15        	sty	$15                     ; 0x2015 <printf+0x2cc>
     45d: ac 12 de     	ldy	$de12                   ; 0xde12 <end_block9+0xa89c>
     460: ac 13 de     	ldy	$de13                   ; 0xde13 <end_block9+0xa89d>
     463: 18           	clc
     464: 65 14        	adc	$14                     ; 0x2014 <printf+0x2cb>
     466: 85 16        	sta	$16                     ; 0x2016 <printf+0x2cd>
     468: a6 17        	ldx	$17                     ; 0x2017 <printf+0x2ce>
     46a: a9 d8        	lda	#$d8
     46c: 65 15        	adc	$15                     ; 0x2015 <printf+0x2cc>
     46e: 85 17        	sta	$17                     ; 0x2017 <printf+0x2ce>
     470: a5 1b        	lda	$1b                     ; 0x201b <printf+0x2d2>
     472: 92 16        	sta	($16)                   ; 0x2016 <printf+0x2cd>
     474: a0 01        	ldy	#$1
     476: a5 1a        	lda	$1a                     ; 0x201a <printf+0x2d1>
     478: 91 16        	sta	($16),y                 ; 0x2016 <printf+0x2cd>
     47a: c8           	iny
     47b: a5 19        	lda	$19                     ; 0x2019 <printf+0x2d0>
     47d: 91 16        	sta	($16),y                 ; 0x2016 <printf+0x2cd>
     47f: c8           	iny
     480: a9 ff        	lda	#$ff
     482: 91 16        	sta	($16),y                 ; 0x2016 <printf+0x2cd>
     484: 8e 00 de     	stx	$de00                   ; 0xde00 <end_block9+0xa88a>
     487: 9c 01 de     	stz	$de01                   ; 0xde01 <end_block9+0xa88b>
     48a: c8           	iny
     48b: 8c 02 de     	sty	$de02                   ; 0xde02 <end_block9+0xa88c>
     48e: 9c 03 de     	stz	$de03                   ; 0xde03 <end_block9+0xa88d>
     491: ad 10 de     	lda	$de10                   ; 0xde10 <end_block9+0xa89a>
     494: 85 15        	sta	$15                     ; 0x2015 <printf+0x2cc>
     496: ad 11 de     	lda	$de11                   ; 0xde11 <end_block9+0xa89b>
     499: 85 16        	sta	$16                     ; 0x2016 <printf+0x2cd>
     49b: a9 40        	lda	#$40
     49d: 18           	clc
     49e: 65 15        	adc	$15                     ; 0x2015 <printf+0x2cc>
     4a0: a8           	tay
     4a1: a9 d8        	lda	#$d8
     4a3: 65 16        	adc	$16                     ; 0x2016 <printf+0x2cd>
     4a5: 85 17        	sta	$17                     ; 0x2017 <printf+0x2ce>
     4a7: 84 16        	sty	$16                     ; 0x2016 <printf+0x2cd>
     4a9: ad 12 de     	lda	$de12                   ; 0xde12 <end_block9+0xa89c>
     4ac: ad 13 de     	lda	$de13                   ; 0xde13 <end_block9+0xa89d>
     4af: a5 1b        	lda	$1b                     ; 0x201b <printf+0x2d2>
     4b1: 92 16        	sta	($16)                   ; 0x2016 <printf+0x2cd>
     4b3: a5 1a        	lda	$1a                     ; 0x201a <printf+0x2d1>
     4b5: a0 01        	ldy	#$1
     4b7: 91 16        	sta	($16),y                 ; 0x2016 <printf+0x2cd>
     4b9: a5 19        	lda	$19                     ; 0x2019 <printf+0x2d0>
     4bb: c8           	iny
     4bc: 91 16        	sta	($16),y                 ; 0x2016 <printf+0x2cd>
     4be: c8           	iny
     4bf: a9 ff        	lda	#$ff
     4c1: 91 16        	sta	($16),y                 ; 0x2016 <printf+0x2cd>
     4c3: e8           	inx
     4c4: 86 15        	stx	$15                     ; 0x2015 <printf+0x2cc>
     4c6: 18           	clc
     4c7: a5 18        	lda	$18                     ; 0x2018 <printf+0x2cf>
     4c9: 69 03        	adc	#$3
     4cb: aa           	tax
     4cc: c9 30        	cmp	#$30
     4ce: f0 03        	beq	$4d3 <f256Init+0x17b>
     4d0: 4c 30 04     	jmp	$430 <f256Init+0xd8>
     4d3: a6 01        	ldx	$1                      ; 0x2001 <printf+0x2b8>
     4d5: 86 18        	stx	$18                     ; 0x2018 <printf+0x2cf>
     4d7: a2 50        	ldx	#$50
     4d9: 8e 00 de     	stx	$de00                   ; 0xde00 <end_block9+0xa88a>
     4dc: 9c 01 de     	stz	$de01                   ; 0xde01 <end_block9+0xa88b>
     4df: a2 1e        	ldx	#$1e
     4e1: 8e 02 de     	stx	$de02                   ; 0xde02 <end_block9+0xa88c>
     4e4: 9c 03 de     	stz	$de03                   ; 0xde03 <end_block9+0xa88d>
     4e7: ae 10 de     	ldx	$de10                   ; 0xde10 <end_block9+0xa89a>
     4ea: ac 11 de     	ldy	$de11                   ; 0xde11 <end_block9+0xa89b>
     4ed: ad 12 de     	lda	$de12                   ; 0xde12 <end_block9+0xa89c>
     4f0: ad 13 de     	lda	$de13                   ; 0xde13 <end_block9+0xa89d>
     4f3: a9 02        	lda	#$2
     4f5: 85 01        	sta	$1                      ; 0x2001 <printf+0x2b8>
     4f7: e0 01        	cpx	#$1
     4f9: 98           	tya
     4fa: e9 00        	sbc	#$0
     4fc: 50 02        	bvc	$500 <f256Init+0x1a8>
     4fe: 49 80        	eor	#$80
     500: c9 00        	cmp	#$0
     502: 30 4c        	bmi	$550 <f256Init+0x1f8>
     504: a9 20        	lda	#$20
     506: 86 19        	stx	$19                     ; 0x2019 <printf+0x2d0>
     508: 86 14        	stx	$14                     ; 0x2014 <printf+0x2cb>
     50a: 84 15        	sty	$15                     ; 0x2015 <printf+0x2cc>
     50c: a2 00        	ldx	#$0
     50e: 86 16        	stx	$16                     ; 0x2016 <printf+0x2cd>
     510: a2 c0        	ldx	#$c0
     512: 86 17        	stx	$17                     ; 0x2017 <printf+0x2ce>
     514: 92 16        	sta	($16)                   ; 0x2016 <printf+0x2cd>
     516: e6 16        	inc	$16                     ; 0x2016 <printf+0x2cd>
     518: d0 02        	bne	$51c <f256Init+0x1c4>
     51a: e6 17        	inc	$17                     ; 0x2017 <printf+0x2ce>
     51c: a2 ff        	ldx	#$ff
     51e: c6 14        	dec	$14                     ; 0x2014 <printf+0x2cb>
     520: e4 14        	cpx	$14                     ; 0x2014 <printf+0x2cb>
     522: d0 02        	bne	$526 <f256Init+0x1ce>
     524: c6 15        	dec	$15                     ; 0x2015 <printf+0x2cc>
     526: a6 15        	ldx	$15                     ; 0x2015 <printf+0x2cc>
     528: d0 ea        	bne	$514 <f256Init+0x1bc>
     52a: a6 14        	ldx	$14                     ; 0x2014 <printf+0x2cb>
     52c: d0 e6        	bne	$514 <f256Init+0x1bc>
     52e: a2 03        	ldx	#$3
     530: 86 01        	stx	$1                      ; 0x2001 <printf+0x2b8>
     532: a6 30        	ldx	$30                     ; 0x2030 <printf+0x2e7>
     534: 86 14        	stx	$14                     ; 0x2014 <printf+0x2cb>
     536: a6 19        	ldx	$19                     ; 0x2019 <printf+0x2d0>
     538: a5 14        	lda	$14                     ; 0x2014 <printf+0x2cb>
     53a: 92 12        	sta	($12)                   ; 0x2012 <printf+0x2c9>
     53c: e6 12        	inc	$12                     ; 0x2012 <printf+0x2c9>
     53e: d0 02        	bne	$542 <f256Init+0x1ea>
     540: e6 13        	inc	$13                     ; 0x2013 <printf+0x2ca>
     542: ca           	dex
     543: e0 ff        	cpx	#$ff
     545: d0 01        	bne	$548 <f256Init+0x1f0>
     547: 88           	dey
     548: 98           	tya
     549: d0 ed        	bne	$538 <f256Init+0x1e0>
     54b: 8a           	txa
     54c: d0 ea        	bne	$538 <f256Init+0x1e0>
     54e: 80 04        	bra	$554 <f256Init+0x1fc>
     550: a2 03        	ldx	#$3
     552: 86 01        	stx	$1                      ; 0x2001 <printf+0x2b8>
     554: a6 18        	ldx	$18                     ; 0x2018 <printf+0x2cf>
     556: 86 01        	stx	$1                      ; 0x2001 <printf+0x2b8>
     558: 64 3a        	stz	$3a                     ; 0x203a <printf+0x2f1>
     55a: 9c 14 d0     	stz	$d014                   ; 0xd014 <end_block9+0x9a9e>
     55d: 9c 15 d0     	stz	$d015                   ; 0xd015 <end_block9+0x9a9f>
     560: 64 3b        	stz	$3b                     ; 0x203b <printf+0x2f2>
     562: 9c 16 d0     	stz	$d016                   ; 0xd016 <end_block9+0x9aa0>
     565: 9c 17 d0     	stz	$d017                   ; 0xd017 <end_block9+0x9aa1>
     568: a2 40        	ldx	#$40
     56a: 8e 00 de     	stx	$de00                   ; 0xde00 <end_block9+0xa88a>
     56d: a2 01        	ldx	#$1
     56f: 8e 01 de     	stx	$de01                   ; 0xde01 <end_block9+0xa88b>
     572: a2 f0        	ldx	#$f0
     574: 8e 02 de     	stx	$de02                   ; 0xde02 <end_block9+0xa88c>
     577: 9c 03 de     	stz	$de03                   ; 0xde03 <end_block9+0xa88d>
     57a: ae 10 de     	ldx	$de10                   ; 0xde10 <end_block9+0xa89a>
     57d: 86 17        	stx	$17                     ; 0x2017 <printf+0x2ce>
     57f: ae 11 de     	ldx	$de11                   ; 0xde11 <end_block9+0xa89b>
     582: 86 12        	stx	$12                     ; 0x2012 <printf+0x2c9>
     584: ae 12 de     	ldx	$de12                   ; 0xde12 <end_block9+0xa89c>
     587: 86 13        	stx	$13                     ; 0x2013 <printf+0x2ca>
     589: ae 13 de     	ldx	$de13                   ; 0xde13 <end_block9+0xa89d>
     58c: 86 14        	stx	$14                     ; 0x2014 <printf+0x2cb>
     58e: a4 12        	ldy	$12                     ; 0x2012 <printf+0x2c9>
     590: 84 15        	sty	$15                     ; 0x2015 <printf+0x2cc>
     592: 06 15        	asl	$15                     ; 0x2015 <printf+0x2cc>
     594: a5 13        	lda	$13                     ; 0x2013 <printf+0x2ca>
     596: 2a           	rol
     597: 86 16        	stx	$16                     ; 0x2016 <printf+0x2cd>
     599: 26 16        	rol	$16                     ; 0x2016 <printf+0x2cd>
     59b: 06 15        	asl	$15                     ; 0x2015 <printf+0x2cc>
     59d: 2a           	rol
     59e: 26 16        	rol	$16                     ; 0x2016 <printf+0x2cd>
     5a0: 06 15        	asl	$15                     ; 0x2015 <printf+0x2cc>
     5a2: 2a           	rol
     5a3: 26 16        	rol	$16                     ; 0x2016 <printf+0x2cd>
     5a5: 85 15        	sta	$15                     ; 0x2015 <printf+0x2cc>
     5a7: 8d 00 de     	sta	$de00                   ; 0xde00 <end_block9+0xa88a>
     5aa: a5 16        	lda	$16                     ; 0x2016 <printf+0x2cd>
     5ac: 8d 01 de     	sta	$de01                   ; 0xde01 <end_block9+0xa88b>
     5af: 9c 02 de     	stz	$de02                   ; 0xde02 <end_block9+0xa88c>
     5b2: a2 20        	ldx	#$20
     5b4: 8e 03 de     	stx	$de03                   ; 0xde03 <end_block9+0xa88d>
     5b7: ae 10 de     	ldx	$de10                   ; 0xde10 <end_block9+0xa89a>
     5ba: 86 16        	stx	$16                     ; 0x2016 <printf+0x2cd>
     5bc: ae 11 de     	ldx	$de11                   ; 0xde11 <end_block9+0xa89b>
     5bf: 86 18        	stx	$18                     ; 0x2018 <printf+0x2cf>
     5c1: ac 12 de     	ldy	$de12                   ; 0xde12 <end_block9+0xa89c>
     5c4: ae 13 de     	ldx	$de13                   ; 0xde13 <end_block9+0xa89d>
     5c7: e4 14        	cpx	$14                     ; 0x2014 <printf+0x2cb>
     5c9: d0 14        	bne	$5df <f256Init+0x287>
     5cb: c4 13        	cpy	$13                     ; 0x2013 <printf+0x2ca>
     5cd: d0 10        	bne	$5df <f256Init+0x287>
     5cf: a6 18        	ldx	$18                     ; 0x2018 <printf+0x2cf>
     5d1: e4 12        	cpx	$12                     ; 0x2012 <printf+0x2c9>
     5d3: d0 0a        	bne	$5df <f256Init+0x287>
     5d5: a6 16        	ldx	$16                     ; 0x2016 <printf+0x2cd>
     5d7: e4 17        	cpx	$17                     ; 0x2017 <printf+0x2ce>
     5d9: d0 04        	bne	$5df <f256Init+0x287>
     5db: a6 15        	ldx	$15                     ; 0x2015 <printf+0x2cc>
     5dd: 80 06        	bra	$5e5 <f256Init+0x28d>
     5df: a6 15        	ldx	$15                     ; 0x2015 <printf+0x2cc>
     5e1: e8           	inx
     5e2: d0 01        	bne	$5e5 <f256Init+0x28d>
     5e4: 1a           	inc
     5e5: 8e 00 de     	stx	$de00                   ; 0xde00 <end_block9+0xa88a>
     5e8: 8d 01 de     	sta	$de01                   ; 0xde01 <end_block9+0xa88b>
     5eb: 9c 02 de     	stz	$de02                   ; 0xde02 <end_block9+0xa88c>
     5ee: a2 20        	ldx	#$20
     5f0: 8e 03 de     	stx	$de03                   ; 0xde03 <end_block9+0xa88d>
     5f3: ae 10 de     	ldx	$de10                   ; 0xde10 <end_block9+0xa89a>
     5f6: 86 12        	stx	$12                     ; 0x2012 <printf+0x2c9>
     5f8: ae 11 de     	ldx	$de11                   ; 0xde11 <end_block9+0xa89b>
     5fb: 86 13        	stx	$13                     ; 0x2013 <printf+0x2ca>
     5fd: ae 12 de     	ldx	$de12                   ; 0xde12 <end_block9+0xa89c>
     600: 86 14        	stx	$14                     ; 0x2014 <printf+0x2cb>
     602: ae 13 de     	ldx	$de13                   ; 0xde13 <end_block9+0xa89d>
     605: 86 15        	stx	$15                     ; 0x2015 <printf+0x2cc>
     607: a9 00        	lda	#$0
     609: 38           	sec
     60a: e5 12        	sbc	$12                     ; 0x2012 <printf+0x2c9>
     60c: 85 17        	sta	$17                     ; 0x2017 <printf+0x2ce>
     60e: a9 00        	lda	#$0
     610: e5 13        	sbc	$13                     ; 0x2013 <printf+0x2ca>
     612: aa           	tax
     613: a9 08        	lda	#$8
     615: e5 14        	sbc	$14                     ; 0x2014 <printf+0x2cb>
     617: 85 16        	sta	$16                     ; 0x2016 <printf+0x2cd>
     619: a9 00        	lda	#$0
     61b: e5 15        	sbc	$15                     ; 0x2015 <printf+0x2cc>
     61d: 8e 73 35     	stx	$3573                   ; 0x3573 <_BITMAP_BASE.0+0x1>
     620: a4 16        	ldy	$16                     ; 0x2016 <printf+0x2cd>
     622: 8c 74 35     	sty	$3574                   ; 0x3574 <_BITMAP_BASE.0+0x2>
     625: 8d 75 35     	sta	$3575                   ; 0x3575 <_BITMAP_BASE.0+0x3>
     628: 38           	sec
     629: a5 17        	lda	$17                     ; 0x2017 <printf+0x2ce>
     62b: e5 12        	sbc	$12                     ; 0x2012 <printf+0x2c9>
     62d: a8           	tay
     62e: 8a           	txa
     62f: e5 13        	sbc	$13                     ; 0x2013 <printf+0x2ca>
     631: 85 18        	sta	$18                     ; 0x2018 <printf+0x2cf>
     633: a5 16        	lda	$16                     ; 0x2016 <printf+0x2cd>
     635: e5 14        	sbc	$14                     ; 0x2014 <printf+0x2cb>
     637: 85 15        	sta	$15                     ; 0x2015 <printf+0x2cc>
     639: 98           	tya
     63a: 84 16        	sty	$16                     ; 0x2016 <printf+0x2cd>
     63c: 38           	sec
     63d: e5 12        	sbc	$12                     ; 0x2012 <printf+0x2c9>
     63f: 85 12        	sta	$12                     ; 0x2012 <printf+0x2c9>
     641: a5 18        	lda	$18                     ; 0x2018 <printf+0x2cf>
     643: e5 13        	sbc	$13                     ; 0x2013 <printf+0x2ca>
     645: 85 13        	sta	$13                     ; 0x2013 <printf+0x2ca>
     647: a4 15        	ldy	$15                     ; 0x2015 <printf+0x2cc>
     649: a5 15        	lda	$15                     ; 0x2015 <printf+0x2cc>
     64b: e5 14        	sbc	$14                     ; 0x2014 <printf+0x2cb>
     64d: a6 17        	ldx	$17                     ; 0x2017 <printf+0x2ce>
     64f: 8e 72 35     	stx	$3572                   ; 0x3572 <_BITMAP_BASE.0>
     652: 8e 01 d1     	stx	$d101                   ; 0xd101 <end_block9+0x9b8b>
     655: ae 73 35     	ldx	$3573                   ; 0x3573 <_BITMAP_BASE.0+0x1>
     658: 8e 02 d1     	stx	$d102                   ; 0xd102 <end_block9+0x9b8c>
     65b: ae 74 35     	ldx	$3574                   ; 0x3574 <_BITMAP_BASE.0+0x2>
     65e: 8e 03 d1     	stx	$d103                   ; 0xd103 <end_block9+0x9b8d>
     661: a6 16        	ldx	$16                     ; 0x2016 <printf+0x2cd>
     663: 8e 09 d1     	stx	$d109                   ; 0xd109 <end_block9+0x9b93>
     666: a6 18        	ldx	$18                     ; 0x2018 <printf+0x2cf>
     668: 8e 0a d1     	stx	$d10a                   ; 0xd10a <end_block9+0x9b94>
     66b: 8c 0b d1     	sty	$d10b                   ; 0xd10b <end_block9+0x9b95>
     66e: a6 12        	ldx	$12                     ; 0x2012 <printf+0x2c9>
     670: 8e 11 d1     	stx	$d111                   ; 0xd111 <end_block9+0x9b9b>
     673: a6 13        	ldx	$13                     ; 0x2013 <printf+0x2ca>
     675: 8e 12 d1     	stx	$d112                   ; 0xd112 <end_block9+0x9b9c>
     678: 8d 13 d1     	sta	$d113                   ; 0xd113 <end_block9+0x9b9d>
     67b: 9c 00 d1     	stz	$d100                   ; 0xd100 <end_block9+0x9b8a>
     67e: 9c 08 d1     	stz	$d108                   ; 0xd108 <end_block9+0x9b92>
     681: 9c 10 d1     	stz	$d110                   ; 0xd110 <end_block9+0x9b9a>
     684: a2 10        	ldx	#$10
     686: 8e 00 d2     	stx	$d200                   ; 0xd200 <end_block9+0x9c8a>
     689: 8e 0c d2     	stx	$d20c                   ; 0xd20c <end_block9+0x9c96>
     68c: 8e 18 d2     	stx	$d218                   ; 0xd218 <end_block9+0x9ca2>
     68f: a0 d9        	ldy	#$d9
     691: a2 40        	ldx	#$40
     693: 64 12        	stz	$12                     ; 0x2012 <printf+0x2c9>
     695: 84 13        	sty	$13                     ; 0x2013 <printf+0x2ca>
     697: a9 00        	lda	#$0
     699: 92 12        	sta	($12)                   ; 0x2012 <printf+0x2c9>
     69b: ca           	dex
     69c: 18           	clc
     69d: a5 12        	lda	$12                     ; 0x2012 <printf+0x2c9>
     69f: 69 08        	adc	#$8
     6a1: 85 12        	sta	$12                     ; 0x2012 <printf+0x2c9>
     6a3: 98           	tya
     6a4: 69 00        	adc	#$0
     6a6: a8           	tay
     6a7: 8a           	txa
     6a8: d0 eb        	bne	$695 <f256Init+0x33d>
     6aa: a2 5a        	ldx	#$5a
     6ac: a0 00        	ldy	#$0
     6ae: 86 fb        	stx	$fb                     ; 0x20fb <printf+0x3b2>
     6b0: 84 fc        	sty	$fc                     ; 0x20fc <printf+0x3b3>
     6b2: a2 08        	ldx	#$8
     6b4: 86 fd        	stx	$fd                     ; 0x20fd <printf+0x3b4>
     6b6: a2 62        	ldx	#$62
     6b8: a0 00        	ldy	#$0
     6ba: 86 12        	stx	$12                     ; 0x2012 <printf+0x2c9>
     6bc: 84 13        	sty	$13                     ; 0x2013 <printf+0x2ca>
     6be: a2 71        	ldx	#$71
     6c0: 86 14        	stx	$14                     ; 0x2014 <printf+0x2cb>
     6c2: a2 35        	ldx	#$35
     6c4: 86 15        	stx	$15                     ; 0x2015 <printf+0x2cc>
     6c6: 20 dc ff     	jsr	$ffdc <end_block9+0xca66>
     6c9: 92 12        	sta	($12)                   ; 0x2012 <printf+0x2c9>
     6cb: a9 00        	lda	#$0
     6cd: 6a           	ror
     6ce: 85 14        	sta	$14                     ; 0x2014 <printf+0x2cb>
     6d0: a6 60        	ldx	$60                     ; 0x2060 <printf+0x317>
     6d2: a4 61        	ldy	$61                     ; 0x2061 <printf+0x318>
     6d4: 8e 00 de     	stx	$de00                   ; 0xde00 <end_block9+0xa88a>
     6d7: 9c 01 de     	stz	$de01                   ; 0xde01 <end_block9+0xa88b>
     6da: 8c 02 de     	sty	$de02                   ; 0xde02 <end_block9+0xa88c>
     6dd: 9c 03 de     	stz	$de03                   ; 0xde03 <end_block9+0xa88d>
     6e0: ae 10 de     	ldx	$de10                   ; 0xde10 <end_block9+0xa89a>
     6e3: ac 11 de     	ldy	$de11                   ; 0xde11 <end_block9+0xa89b>
     6e6: ad 12 de     	lda	$de12                   ; 0xde12 <end_block9+0xa89c>
     6e9: ad 13 de     	lda	$de13                   ; 0xde13 <end_block9+0xa89d>
     6ec: 8e a4 d6     	stx	$d6a4                   ; 0xd6a4 <end_block9+0xa12e>
     6ef: 8c a5 d6     	sty	$d6a5                   ; 0xd6a5 <end_block9+0xa12f>
     6f2: a2 03        	ldx	#$3
     6f4: 8e a6 d6     	stx	$d6a6                   ; 0xd6a6 <end_block9+0xa130>
     6f7: 60           	rts

000006f8 <main>:
     6f8: 20 58 03     	jsr	$358 <f256Init>
     6fb: 20 fe 06     	jsr	$6fe <f256main>

000006fe <f256main>:
     6fe: 18           	clc
     6ff: a5 10        	lda	$10                     ; 0x2010 <printf+0x2c7>
     701: 69 ef        	adc	#$ef
     703: 85 10        	sta	$10                     ; 0x2010 <printf+0x2c7>
     705: a5 11        	lda	$11                     ; 0x2011 <printf+0x2c8>
     707: 69 ff        	adc	#$ff
     709: 85 11        	sta	$11                     ; 0x2011 <printf+0x2c8>
     70b: a2 00        	ldx	#$0
     70d: 64 01        	stz	$1                      ; 0x2001 <printf+0x2b8>
     70f: a0 02        	ldy	#$2
     711: 84 01        	sty	$1                      ; 0x2001 <printf+0x2b8>
     713: a0 c0        	ldy	#$c0
     715: a9 20        	lda	#$20
     717: 86 12        	stx	$12                     ; 0x2012 <printf+0x2c9>
     719: 84 13        	sty	$13                     ; 0x2013 <printf+0x2ca>
     71b: 92 12        	sta	($12)                   ; 0x2012 <printf+0x2c9>
     71d: e8           	inx
     71e: d0 01        	bne	$721 <f256main+0x23>
     720: c8           	iny
     721: c0 d2        	cpy	#$d2
     723: d0 f2        	bne	$717 <f256main+0x19>
     725: e0 c0        	cpx	#$c0
     727: d0 ee        	bne	$717 <f256main+0x19>
     729: a2 00        	ldx	#$0
     72b: 64 01        	stz	$1                      ; 0x2001 <printf+0x2b8>
     72d: 64 01        	stz	$1                      ; 0x2001 <printf+0x2b8>
     72f: a0 4f        	ldy	#$4f
     731: 8c 00 d0     	sty	$d000                   ; 0xd000 <end_block9+0x9a8a>
     734: 9c 01 d0     	stz	$d001                   ; 0xd001 <end_block9+0x9a8b>
     737: 9c 02 d0     	stz	$d002                   ; 0xd002 <end_block9+0x9a8c>
     73a: a0 01        	ldy	#$1
     73c: 84 01        	sty	$1                      ; 0x2001 <printf+0x2b8>
     73e: a0 d0        	ldy	#$d0
     740: 18           	clc
     741: 86 16        	stx	$16                     ; 0x2016 <printf+0x2cd>
     743: 8a           	txa
     744: 69 00        	adc	#$0
     746: 85 14        	sta	$14                     ; 0x2014 <printf+0x2cb>
     748: 98           	tya
     749: 69 10        	adc	#$10
     74b: 85 15        	sta	$15                     ; 0x2015 <printf+0x2cc>
     74d: 86 12        	stx	$12                     ; 0x2012 <printf+0x2c9>
     74f: 84 13        	sty	$13                     ; 0x2013 <printf+0x2ca>
     751: a6 0f        	ldx	$f                      ; 0x200f <printf+0x2c6>
     753: 78           	sei
     754: a9 08        	lda	#$8
     756: 85 0f        	sta	$f                      ; 0x200f <printf+0x2c6>
     758: b2 14        	lda	($14)                   ; 0x2014 <printf+0x2cb>
     75a: 86 0f        	stx	$f                      ; 0x200f <printf+0x2c6>
     75c: 58           	cli
     75d: 92 12        	sta	($12)                   ; 0x2012 <printf+0x2c9>
     75f: a6 16        	ldx	$16                     ; 0x2016 <printf+0x2cd>
     761: e8           	inx
     762: d0 01        	bne	$765 <f256main+0x67>
     764: c8           	iny
     765: c0 d3        	cpy	#$d3
     767: d0 d7        	bne	$740 <f256main+0x42>
     769: e0 ff        	cpx	#$ff
     76b: d0 d3        	bne	$740 <f256main+0x42>
     76d: 64 26        	stz	$26                     ; 0x2026 <printf+0x2dd>
     76f: 64 01        	stz	$1                      ; 0x2001 <printf+0x2b8>
     771: 9c 72 35     	stz	$3572                   ; 0x3572 <_BITMAP_BASE.0>
     774: a0 80        	ldy	#$80
     776: 8c 73 35     	sty	$3573                   ; 0x3573 <_BITMAP_BASE.0+0x1>
     779: a2 01        	ldx	#$1
     77b: 8e 74 35     	stx	$3574                   ; 0x3574 <_BITMAP_BASE.0+0x2>
     77e: 9c 75 35     	stz	$3575                   ; 0x3575 <_BITMAP_BASE.0+0x3>
     781: 9c 01 d1     	stz	$d101                   ; 0xd101 <end_block9+0x9b8b>
     784: 8c 02 d1     	sty	$d102                   ; 0xd102 <end_block9+0x9b8c>
     787: 8e 03 d1     	stx	$d103                   ; 0xd103 <end_block9+0x9b8d>
     78a: 8e 00 d1     	stx	$d100                   ; 0xd100 <end_block9+0x9b8a>
     78d: ad 00 d1     	lda	$d100                   ; 0xd100 <end_block9+0x9b8a>
     790: 29 f9        	and	#$f9
     792: 8d 00 d1     	sta	$d100                   ; 0xd100 <end_block9+0x9b8a>
     795: 20 22 19     	jsr	$1922 <textTitle>
     798: 20 2b 15     	jsr	$152b <refreshInstrumentText>
     79b: a0 01        	ldy	#$1
     79d: a2 81        	ldx	#$81
     79f: 86 f3        	stx	$f3                     ; 0x20f3 <printf+0x3aa>
     7a1: 18           	clc
     7a2: a5 10        	lda	$10                     ; 0x2010 <printf+0x2c7>
     7a4: 69 0d        	adc	#$d
     7a6: 85 12        	sta	$12                     ; 0x2012 <printf+0x2c9>
     7a8: a5 11        	lda	$11                     ; 0x2011 <printf+0x2c8>
     7aa: 69 00        	adc	#$0
     7ac: 85 13        	sta	$13                     ; 0x2013 <printf+0x2ca>
     7ae: a2 71        	ldx	#$71
     7b0: 86 24        	stx	$24                     ; 0x2024 <printf+0x2db>
     7b2: a2 35        	ldx	#$35
     7b4: 86 25        	stx	$25                     ; 0x2025 <printf+0x2dc>
     7b6: 20 f0 ff     	jsr	$fff0 <end_block9+0xca7a>
     7b9: 92 12        	sta	($12)                   ; 0x2012 <printf+0x2c9>
     7bb: a9 00        	lda	#$0
     7bd: 6a           	ror
     7be: 85 24        	sta	$24                     ; 0x2024 <printf+0x2db>
     7c0: b2 12        	lda	($12)                   ; 0x2012 <printf+0x2c9>
     7c2: 1a           	inc
     7c3: 85 53        	sta	$53                     ; 0x2053 <printf+0x30a>
     7c5: a2 32        	ldx	#$32
     7c7: 86 54        	stx	$54                     ; 0x2054 <printf+0x30b>
     7c9: a2 80        	ldx	#$80
     7cb: 86 f3        	stx	$f3                     ; 0x20f3 <printf+0x3aa>
     7cd: 18           	clc
     7ce: a5 10        	lda	$10                     ; 0x2010 <printf+0x2c7>
     7d0: 69 0e        	adc	#$e
     7d2: 85 12        	sta	$12                     ; 0x2012 <printf+0x2c9>
     7d4: a5 11        	lda	$11                     ; 0x2011 <printf+0x2c8>
     7d6: 69 00        	adc	#$0
     7d8: 85 13        	sta	$13                     ; 0x2013 <printf+0x2ca>
     7da: 20 f0 ff     	jsr	$fff0 <end_block9+0xca7a>
     7dd: 92 12        	sta	($12)                   ; 0x2012 <printf+0x2c9>
     7df: a9 00        	lda	#$0
     7e1: 6a           	ror
     7e2: 85 24        	sta	$24                     ; 0x2024 <printf+0x2db>
     7e4: b2 12        	lda	($12)                   ; 0x2012 <printf+0x2c9>
     7e6: 1a           	inc
     7e7: 85 55        	sta	$55                     ; 0x2055 <printf+0x30c>
     7e9: 64 f3        	stz	$f3                     ; 0x20f3 <printf+0x3aa>
     7eb: a6 55        	ldx	$55                     ; 0x2055 <printf+0x30c>
     7ed: 86 f4        	stx	$f4                     ; 0x20f4 <printf+0x3ab>
     7ef: 64 f5        	stz	$f5                     ; 0x20f5 <printf+0x3ac>
     7f1: 18           	clc
     7f2: a5 10        	lda	$10                     ; 0x2010 <printf+0x2c7>
     7f4: 69 0f        	adc	#$f
     7f6: 85 12        	sta	$12                     ; 0x2012 <printf+0x2c9>
     7f8: a5 11        	lda	$11                     ; 0x2011 <printf+0x2c8>
     7fa: 69 00        	adc	#$0
     7fc: 85 13        	sta	$13                     ; 0x2013 <printf+0x2ca>
     7fe: a2 c0        	ldx	#$c0
     800: 20 f0 ff     	jsr	$fff0 <end_block9+0xca7a>
     803: 92 12        	sta	($12)                   ; 0x2012 <printf+0x2c9>
     805: a9 00        	lda	#$0
     807: 6a           	ror
     808: 85 24        	sta	$24                     ; 0x2024 <printf+0x2db>
     80a: 8e a1 dd     	stx	$dda1                   ; 0xdda1 <end_block9+0xa82b>
     80d: 9c a1 dd     	stz	$dda1                   ; 0xdda1 <end_block9+0xa82b>
     810: e8           	inx
     811: 8e a1 dd     	stx	$dda1                   ; 0xdda1 <end_block9+0xa82b>
     814: 9c a1 dd     	stz	$dda1                   ; 0xdda1 <end_block9+0xa82b>
     817: a2 c9        	ldx	#$c9
     819: 8e a1 dd     	stx	$dda1                   ; 0xdda1 <end_block9+0xa82b>
     81c: 9c a1 dd     	stz	$dda1                   ; 0xdda1 <end_block9+0xa82b>
     81f: 64 3e        	stz	$3e                     ; 0x203e <printf+0x2f5>
     821: 64 3f        	stz	$3f                     ; 0x203f <printf+0x2f6>
     823: 64 40        	stz	$40                     ; 0x2040 <printf+0x2f7>
     825: 64 41        	stz	$41                     ; 0x2041 <printf+0x2f8>
     827: 64 50        	stz	$50                     ; 0x2050 <printf+0x307>
     829: 64 51        	stz	$51                     ; 0x2051 <printf+0x308>
     82b: a9 ff        	lda	#$ff
     82d: 8d a1 dd     	sta	$dda1                   ; 0xdda1 <end_block9+0xa82b>
     830: a2 90        	ldx	#$90
     832: 86 30        	stx	$30                     ; 0x2030 <printf+0x2e7>
     834: 64 3a        	stz	$3a                     ; 0x203a <printf+0x2f1>
     836: 9c 14 d0     	stz	$d014                   ; 0xd014 <end_block9+0x9a9e>
     839: 9c 15 d0     	stz	$d015                   ; 0xd015 <end_block9+0x9a9f>
     83c: a2 02        	ldx	#$2
     83e: 86 3b        	stx	$3b                     ; 0x203b <printf+0x2f2>
     840: 8e 16 d0     	stx	$d016                   ; 0xd016 <end_block9+0x9aa0>
     843: 9c 17 d0     	stz	$d017                   ; 0xd017 <end_block9+0x9aa1>
     846: a2 27        	ldx	#$27
     848: 86 31        	stx	$31                     ; 0x2031 <printf+0x2e8>
     84a: 86 56        	stx	$56                     ; 0x2056 <printf+0x30d>
     84c: 64 32        	stz	$32                     ; 0x2032 <printf+0x2e9>
     84e: 64 57        	stz	$57                     ; 0x2057 <printf+0x30e>
     850: a6 01        	ldx	$1                      ; 0x2001 <printf+0x2b8>
     852: 84 01        	sty	$1                      ; 0x2001 <printf+0x2b8>
     854: 9c 20 d2     	stz	$d220                   ; 0xd220 <end_block9+0x9caa>
     857: 9c 21 d2     	stz	$d221                   ; 0xd221 <end_block9+0x9cab>
     85a: 8d 22 d2     	sta	$d222                   ; 0xd222 <end_block9+0x9cac>
     85d: 8d 23 d2     	sta	$d223                   ; 0xd223 <end_block9+0x9cad>
     860: 86 01        	stx	$1                      ; 0x2001 <printf+0x2b8>
     862: 64 12        	stz	$12                     ; 0x2012 <printf+0x2c9>
     864: 1a           	inc
     865: a0 05        	ldy	#$5
     867: 91 10        	sta	($10),y                 ; 0x2010 <printf+0x2c7>
     869: 88           	dey
     86a: 91 10        	sta	($10),y                 ; 0x2010 <printf+0x2c7>
     86c: 64 29        	stz	$29                     ; 0x2029 <printf+0x2e0>
     86e: 64 2a        	stz	$2a                     ; 0x202a <printf+0x2e1>
     870: 4c d2 12     	jmp	$12d2 <f256main+0xbd4>
     873: aa           	tax
     874: 64 12        	stz	$12                     ; 0x2012 <printf+0x2c9>
     876: 48           	pha
     877: bd f3 2a     	lda	$2af3,x                 ; 0x2af3 <textColors+0x2f>
     87a: aa           	tax
     87b: 68           	pla
     87c: 86 13        	stx	$13                     ; 0x2013 <printf+0x2ca>
     87e: a2 00        	ldx	#$0
     880: a0 01        	ldy	#$1
     882: e6 13        	inc	$13                     ; 0x2013 <printf+0x2ca>
     884: c6 13        	dec	$13                     ; 0x2013 <printf+0x2ca>
     886: f0 02        	beq	$88a <f256main+0x18c>
     888: a2 01        	ldx	#$1
     88a: 86 13        	stx	$13                     ; 0x2013 <printf+0x2ca>
     88c: 46 13        	lsr	$13                     ; 0x2013 <printf+0x2ca>
     88e: 64 13        	stz	$13                     ; 0x2013 <printf+0x2ca>
     890: 66 13        	ror	$13                     ; 0x2013 <printf+0x2ca>
     892: 10 04        	bpl	$898 <f256main+0x19a>
     894: a2 ff        	ldx	#$ff
     896: 80 02        	bra	$89a <f256main+0x19c>
     898: a2 00        	ldx	#$0
     89a: 06 13        	asl	$13                     ; 0x2013 <printf+0x2ca>
     89c: 86 13        	stx	$13                     ; 0x2013 <printf+0x2ca>
     89e: 26 13        	rol	$13                     ; 0x2013 <printf+0x2ca>
     8a0: a6 01        	ldx	$1                      ; 0x2001 <printf+0x2b8>
     8a2: 86 15        	stx	$15                     ; 0x2015 <printf+0x2cc>
     8a4: 84 01        	sty	$1                      ; 0x2001 <printf+0x2b8>
     8a6: a6 13        	ldx	$13                     ; 0x2013 <printf+0x2ca>
     8a8: 48           	pha
     8a9: a5 13        	lda	$13                     ; 0x2013 <printf+0x2ca>
     8ab: 85 16        	sta	$16                     ; 0x2016 <printf+0x2cd>
     8ad: 68           	pla
     8ae: 0a           	asl
     8af: 26 12        	rol	$12                     ; 0x2012 <printf+0x2c9>
     8b1: 0a           	asl
     8b2: 85 13        	sta	$13                     ; 0x2013 <printf+0x2ca>
     8b4: 26 12        	rol	$12                     ; 0x2012 <printf+0x2c9>
     8b6: a9 00        	lda	#$0
     8b8: 18           	clc
     8b9: 65 13        	adc	$13                     ; 0x2013 <printf+0x2ca>
     8bb: 85 13        	sta	$13                     ; 0x2013 <printf+0x2ca>
     8bd: a9 d0        	lda	#$d0
     8bf: 65 12        	adc	$12                     ; 0x2012 <printf+0x2c9>
     8c1: 5a           	phy
     8c2: a4 13        	ldy	$13                     ; 0x2013 <printf+0x2ca>
     8c4: 84 12        	sty	$12                     ; 0x2012 <printf+0x2c9>
     8c6: 7a           	ply
     8c7: 85 13        	sta	$13                     ; 0x2013 <printf+0x2ca>
     8c9: a5 16        	lda	$16                     ; 0x2016 <printf+0x2cd>
     8cb: 91 12        	sta	($12),y                 ; 0x2012 <printf+0x2c9>
     8cd: 8a           	txa
     8ce: 92 12        	sta	($12)                   ; 0x2012 <printf+0x2c9>
     8d0: a0 02        	ldy	#$2
     8d2: 91 12        	sta	($12),y                 ; 0x2012 <printf+0x2c9>
     8d4: a9 ff        	lda	#$ff
     8d6: c8           	iny
     8d7: 91 12        	sta	($12),y                 ; 0x2012 <printf+0x2c9>
     8d9: a6 15        	ldx	$15                     ; 0x2015 <printf+0x2cc>
     8db: 86 01        	stx	$1                      ; 0x2001 <printf+0x2b8>
     8dd: a5 14        	lda	$14                     ; 0x2014 <printf+0x2cb>
     8df: 29 f0        	and	#$f0
     8e1: c9 80        	cmp	#$80
     8e3: f0 12        	beq	$8f7 <f256main+0x1f9>
     8e5: a2 00        	ldx	#$0
     8e7: a4 14        	ldy	$14                     ; 0x2014 <printf+0x2cb>
     8e9: c9 90        	cmp	#$90
     8eb: d0 1b        	bne	$908 <f256main+0x20a>
     8ed: a9 90        	lda	#$90
     8ef: 05 52        	ora	$52                     ; 0x2052 <printf+0x309>
     8f1: a8           	tay
     8f2: a2 01        	ldx	#$1
     8f4: 8a           	txa
     8f5: 80 0b        	bra	$902 <f256main+0x204>
     8f7: a9 80        	lda	#$80
     8f9: 05 52        	ora	$52                     ; 0x2052 <printf+0x309>
     8fb: a8           	tay
     8fc: a2 01        	ldx	#$1
     8fe: 64 12        	stz	$12                     ; 0x2012 <printf+0x2c9>
     900: a9 00        	lda	#$0
     902: 5a           	phy
     903: a0 05        	ldy	#$5
     905: 91 10        	sta	($10),y                 ; 0x2010 <printf+0x2c7>
     907: 7a           	ply
     908: 86 2a        	stx	$2a                     ; 0x202a <printf+0x2e1>
     90a: 8c a1 dd     	sty	$dda1                   ; 0xdda1 <end_block9+0xa82b>
     90d: a6 2b        	ldx	$2b                     ; 0x202b <printf+0x2e2>
     90f: e8           	inx
     910: a0 00        	ldy	#$0
     912: c4 28        	cpy	$28                     ; 0x2028 <printf+0x2df>
     914: d0 09        	bne	$91f <f256main+0x221>
     916: a5 2b        	lda	$2b                     ; 0x202b <printf+0x2e2>
     918: c5 27        	cmp	$27                     ; 0x2027 <printf+0x2de>
     91a: b0 0a        	bcs	$926 <f256main+0x228>
     91c: 4c 26 13     	jmp	$1326 <f256main+0xc28>
     91f: c4 28        	cpy	$28                     ; 0x2028 <printf+0x2df>
     921: b0 03        	bcs	$926 <f256main+0x228>
     923: 4c 26 13     	jmp	$1326 <f256main+0xc28>
     926: 64 33        	stz	$33                     ; 0x2033 <printf+0x2ea>
     928: 18           	clc
     929: a5 10        	lda	$10                     ; 0x2010 <printf+0x2c7>
     92b: 69 08        	adc	#$8
     92d: 85 12        	sta	$12                     ; 0x2012 <printf+0x2c9>
     92f: a5 11        	lda	$11                     ; 0x2011 <printf+0x2c8>
     931: 69 00        	adc	#$0
     933: 85 13        	sta	$13                     ; 0x2013 <printf+0x2ca>
     935: 20 00 ff     	jsr	$ff00 <end_block9+0xc98a>
     938: 92 12        	sta	($12)                   ; 0x2012 <printf+0x2c9>
     93a: a9 00        	lda	#$0
     93c: 6a           	ror
     93d: 85 24        	sta	$24                     ; 0x2024 <printf+0x2db>
     93f: a6 33        	ldx	$33                     ; 0x2033 <printf+0x2ea>
     941: e0 08        	cpx	#$8
     943: d0 03        	bne	$948 <f256main+0x24a>
     945: 4c bd 09     	jmp	$9bd <f256main+0x2bf>
     948: e0 0a        	cpx	#$a
     94a: f0 56        	beq	$9a2 <f256main+0x2a4>
     94c: e0 52        	cpx	#$52
     94e: f0 03        	beq	$953 <f256main+0x255>
     950: 4c d2 12     	jmp	$12d2 <f256main+0xbd4>
     953: a5 37        	lda	$37                     ; 0x2037 <printf+0x2ee>
     955: aa           	tax
     956: 38           	sec
     957: e9 32        	sbc	#$32
     959: c9 32        	cmp	#$32
     95b: 90 03        	bcc	$960 <f256main+0x262>
     95d: 4c e3 11     	jmp	$11e3 <f256main+0xae5>
     960: c6 29        	dec	$29                     ; 0x2029 <printf+0x2e0>
     962: f0 03        	beq	$967 <f256main+0x269>
     964: 4c d2 12     	jmp	$12d2 <f256main+0xbd4>
     967: a9 80        	lda	#$80
     969: 05 52        	ora	$52                     ; 0x2052 <printf+0x309>
     96b: 8d a1 dd     	sta	$dda1                   ; 0xdda1 <end_block9+0xa82b>
     96e: a6 58        	ldx	$58                     ; 0x2058 <printf+0x30f>
     970: 8e a1 dd     	stx	$dda1                   ; 0xdda1 <end_block9+0xa82b>
     973: a2 4f        	ldx	#$4f
     975: 8e a1 dd     	stx	$dda1                   ; 0xdda1 <end_block9+0xa82b>
     978: 64 3a        	stz	$3a                     ; 0x203a <printf+0x2f1>
     97a: 9c 14 d0     	stz	$d014                   ; 0xd014 <end_block9+0x9a9e>
     97d: 9c 15 d0     	stz	$d015                   ; 0xd015 <end_block9+0x9a9f>
     980: a2 3b        	ldx	#$3b
     982: 86 3b        	stx	$3b                     ; 0x203b <printf+0x2f2>
     984: 8e 16 d0     	stx	$d016                   ; 0xd016 <end_block9+0x9aa0>
     987: 9c 17 d0     	stz	$d017                   ; 0xd017 <end_block9+0x9aa1>
     98a: a9 00        	lda	#$0
     98c: 92 10        	sta	($10)                   ; 0x2010 <printf+0x2c7>
     98e: a0 01        	ldy	#$1
     990: 91 10        	sta	($10),y                 ; 0x2010 <printf+0x2c7>
     992: a2 dd        	ldx	#$dd
     994: 86 12        	stx	$12                     ; 0x2012 <printf+0x2c9>
     996: a2 32        	ldx	#$32
     998: 86 13        	stx	$13                     ; 0x2013 <printf+0x2ca>
     99a: 20 49 1d     	jsr	$1d49 <printf>
     99d: 64 29        	stz	$29                     ; 0x2029 <printf+0x2e0>
     99f: 4c d2 12     	jmp	$12d2 <f256main+0xbd4>
     9a2: a6 37        	ldx	$37                     ; 0x2037 <printf+0x2ee>
     9a4: e0 01        	cpx	#$1
     9a6: d0 03        	bne	$9ab <f256main+0x2ad>
     9a8: 4c 6d 0a     	jmp	$a6d <f256main+0x36f>
     9ab: e0 05        	cpx	#$5
     9ad: f0 03        	beq	$9b2 <f256main+0x2b4>
     9af: 4c d2 12     	jmp	$12d2 <f256main+0xbd4>
     9b2: 64 12        	stz	$12                     ; 0x2012 <printf+0x2c9>
     9b4: a9 00        	lda	#$0
     9b6: a0 04        	ldy	#$4
     9b8: 91 10        	sta	($10),y                 ; 0x2010 <printf+0x2c7>
     9ba: 4c d2 12     	jmp	$12d2 <f256main+0xbd4>
     9bd: a5 37        	lda	$37                     ; 0x2037 <printf+0x2ee>
     9bf: 38           	sec
     9c0: aa           	tax
     9c1: e9 b6        	sbc	#$b6
     9c3: 50 02        	bvc	$9c7 <f256main+0x2c9>
     9c5: 49 80        	eor	#$80
     9c7: a8           	tay
     9c8: 10 03        	bpl	$9cd <f256main+0x2cf>
     9ca: 4c 3c 0a     	jmp	$a3c <f256main+0x33e>
     9cd: 38           	sec
     9ce: 8a           	txa
     9cf: e9 01        	sbc	#$1
     9d1: 50 02        	bvc	$9d5 <f256main+0x2d7>
     9d3: 49 80        	eor	#$80
     9d5: a8           	tay
     9d6: 30 03        	bmi	$9db <f256main+0x2dd>
     9d8: 4c 72 0a     	jmp	$a72 <f256main+0x374>
     9db: 38           	sec
     9dc: 8a           	txa
     9dd: e9 b6        	sbc	#$b6
     9df: c9 04        	cmp	#$4
     9e1: 90 03        	bcc	$9e6 <f256main+0x2e8>
     9e3: 4c d2 12     	jmp	$12d2 <f256main+0xbd4>
     9e6: a6 26        	ldx	$26                     ; 0x2026 <printf+0x2dd>
     9e8: 86 12        	stx	$12                     ; 0x2012 <printf+0x2c9>
     9ea: 06 12        	asl	$12                     ; 0x2012 <printf+0x2c9>
     9ec: 06 12        	asl	$12                     ; 0x2012 <printf+0x2c9>
     9ee: 06 12        	asl	$12                     ; 0x2012 <printf+0x2c9>
     9f0: a6 12        	ldx	$12                     ; 0x2012 <printf+0x2c9>
     9f2: 86 16        	stx	$16                     ; 0x2016 <printf+0x2cd>
     9f4: 0a           	asl
     9f5: aa           	tax
     9f6: 7c 7a 2a     	jmp	($2a7a,x)               ; 0x2a7a <__set_v+0x1>
     9f9: a5 52        	lda	$52                     ; 0x2052 <printf+0x309>
     9fb: 85 17        	sta	$17                     ; 0x2017 <printf+0x2ce>
     9fd: 0a           	asl
     9fe: 85 12        	sta	$12                     ; 0x2012 <printf+0x2c9>
     a00: a9 00        	lda	#$0
     a02: 2a           	rol
     a03: 85 13        	sta	$13                     ; 0x2013 <printf+0x2ca>
     a05: a9 3e        	lda	#$3e
     a07: 18           	clc
     a08: 65 12        	adc	$12                     ; 0x2012 <printf+0x2c9>
     a0a: 85 12        	sta	$12                     ; 0x2012 <printf+0x2c9>
     a0c: a9 00        	lda	#$0
     a0e: 65 13        	adc	$13                     ; 0x2013 <printf+0x2ca>
     a10: 85 13        	sta	$13                     ; 0x2013 <printf+0x2ca>
     a12: b2 12        	lda	($12)                   ; 0x2012 <printf+0x2c9>
     a14: 85 18        	sta	$18                     ; 0x2018 <printf+0x2cf>
     a16: 85 14        	sta	$14                     ; 0x2014 <printf+0x2cb>
     a18: a0 01        	ldy	#$1
     a1a: b1 12        	lda	($12),y                 ; 0x2012 <printf+0x2c9>
     a1c: a8           	tay
     a1d: 85 15        	sta	$15                     ; 0x2015 <printf+0x2cc>
     a1f: 18           	clc
     a20: a5 16        	lda	$16                     ; 0x2016 <printf+0x2cd>
     a22: 65 26        	adc	$26                     ; 0x2026 <printf+0x2dd>
     a24: a6 15        	ldx	$15                     ; 0x2015 <printf+0x2cc>
     a26: f0 03        	beq	$a2b <f256main+0x32d>
     a28: 4c 51 11     	jmp	$1151 <f256main+0xa53>
     a2b: aa           	tax
     a2c: 49 7f        	eor	#$7f
     a2e: 85 16        	sta	$16                     ; 0x2016 <printf+0x2cd>
     a30: a4 18        	ldy	$18                     ; 0x2018 <printf+0x2cf>
     a32: c4 16        	cpy	$16                     ; 0x2016 <printf+0x2cd>
     a34: b0 03        	bcs	$a39 <f256main+0x33b>
     a36: 4c 56 11     	jmp	$1156 <f256main+0xa58>
     a39: 4c 6e 11     	jmp	$116e <f256main+0xa70>
     a3c: 38           	sec
     a3d: 8a           	txa
     a3e: e9 85        	sbc	#$85
     a40: 50 02        	bvc	$a44 <f256main+0x346>
     a42: 49 80        	eor	#$80
     a44: a8           	tay
     a45: 30 03        	bmi	$a4a <f256main+0x34c>
     a47: 4c 32 0b     	jmp	$b32 <f256main+0x434>
     a4a: e0 81        	cpx	#$81
     a4c: d0 03        	bne	$a51 <f256main+0x353>
     a4e: 4c 68 0b     	jmp	$b68 <f256main+0x46a>
     a51: e0 83        	cpx	#$83
     a53: f0 03        	beq	$a58 <f256main+0x35a>
     a55: 4c d2 12     	jmp	$12d2 <f256main+0xbd4>
     a58: a6 52        	ldx	$52                     ; 0x2052 <printf+0x309>
     a5a: e0 01        	cpx	#$1
     a5c: d0 03        	bne	$a61 <f256main+0x363>
     a5e: 4c 76 12     	jmp	$1276 <f256main+0xb78>
     a61: e0 09        	cpx	#$9
     a63: f0 03        	beq	$a68 <f256main+0x36a>
     a65: 4c 7a 12     	jmp	$127a <f256main+0xb7c>
     a68: a2 00        	ldx	#$0
     a6a: 4c 7b 12     	jmp	$127b <f256main+0xb7d>
     a6d: 64 26        	stz	$26                     ; 0x2026 <printf+0x2dd>
     a6f: 4c d2 12     	jmp	$12d2 <f256main+0xbd4>
     a72: e0 01        	cpx	#$1
     a74: d0 03        	bne	$a79 <f256main+0x37b>
     a76: 4c 80 10     	jmp	$1080 <f256main+0x982>
     a79: e0 05        	cpx	#$5
     a7b: d0 03        	bne	$a80 <f256main+0x382>
     a7d: 4c 03 10     	jmp	$1003 <f256main+0x905>
     a80: e0 20        	cpx	#$20
     a82: f0 03        	beq	$a87 <f256main+0x389>
     a84: 4c d2 12     	jmp	$12d2 <f256main+0xbd4>
     a87: a9 80        	lda	#$80
     a89: 05 52        	ora	$52                     ; 0x2052 <printf+0x309>
     a8b: 8d a1 dd     	sta	$dda1                   ; 0xdda1 <end_block9+0xa82b>
     a8e: a6 58        	ldx	$58                     ; 0x2058 <printf+0x30f>
     a90: 8e a1 dd     	stx	$dda1                   ; 0xdda1 <end_block9+0xa82b>
     a93: a2 4f        	ldx	#$4f
     a95: 8e a1 dd     	stx	$dda1                   ; 0xdda1 <end_block9+0xa82b>
     a98: a9 90        	lda	#$90
     a9a: 05 52        	ora	$52                     ; 0x2052 <printf+0x309>
     a9c: 8d a1 dd     	sta	$dda1                   ; 0xdda1 <end_block9+0xa82b>
     a9f: a9 15        	lda	#$15
     aa1: 18           	clc
     aa2: 65 31        	adc	$31                     ; 0x2031 <printf+0x2e8>
     aa4: 8d a1 dd     	sta	$dda1                   ; 0xdda1 <end_block9+0xa82b>
     aa7: a2 7f        	ldx	#$7f
     aa9: 8e a1 dd     	stx	$dda1                   ; 0xdda1 <end_block9+0xa82b>
     aac: a5 31        	lda	$31                     ; 0x2031 <printf+0x2e8>
     aae: a6 32        	ldx	$32                     ; 0x2032 <printf+0x2e9>
     ab0: 86 12        	stx	$12                     ; 0x2012 <printf+0x2c9>
     ab2: 18           	clc
     ab3: 69 15        	adc	#$15
     ab5: aa           	tax
     ab6: a5 12        	lda	$12                     ; 0x2012 <printf+0x2c9>
     ab8: 69 00        	adc	#$0
     aba: 86 58        	stx	$58                     ; 0x2058 <printf+0x30f>
     abc: 85 59        	sta	$59                     ; 0x2059 <printf+0x310>
     abe: a5 29        	lda	$29                     ; 0x2029 <printf+0x2e0>
     ac0: e6 29        	inc	$29                     ; 0x2029 <printf+0x2e0>
     ac2: 18           	clc
     ac3: 69 33        	adc	#$33
     ac5: 85 54        	sta	$54                     ; 0x2054 <printf+0x30b>
     ac7: a2 81        	ldx	#$81
     ac9: 86 f3        	stx	$f3                     ; 0x20f3 <printf+0x3aa>
     acb: 18           	clc
     acc: a5 10        	lda	$10                     ; 0x2010 <printf+0x2c7>
     ace: 69 0b        	adc	#$b
     ad0: 85 12        	sta	$12                     ; 0x2012 <printf+0x2c9>
     ad2: a5 11        	lda	$11                     ; 0x2011 <printf+0x2c8>
     ad4: 69 00        	adc	#$0
     ad6: 85 13        	sta	$13                     ; 0x2013 <printf+0x2ca>
     ad8: 20 f0 ff     	jsr	$fff0 <end_block9+0xca7a>
     adb: 92 12        	sta	($12)                   ; 0x2012 <printf+0x2c9>
     add: a9 00        	lda	#$0
     adf: 6a           	ror
     ae0: 85 24        	sta	$24                     ; 0x2024 <printf+0x2db>
     ae2: b2 12        	lda	($12)                   ; 0x2012 <printf+0x2c9>
     ae4: 1a           	inc
     ae5: 85 53        	sta	$53                     ; 0x2053 <printf+0x30a>
     ae7: a0 01        	ldy	#$1
     ae9: 84 f3        	sty	$f3                     ; 0x20f3 <printf+0x3aa>
     aeb: a6 53        	ldx	$53                     ; 0x2053 <printf+0x30a>
     aed: 86 f4        	stx	$f4                     ; 0x20f4 <printf+0x3ab>
     aef: a6 54        	ldx	$54                     ; 0x2054 <printf+0x30b>
     af1: 86 f5        	stx	$f5                     ; 0x20f5 <printf+0x3ac>
     af3: 18           	clc
     af4: a5 10        	lda	$10                     ; 0x2010 <printf+0x2c7>
     af6: 69 0c        	adc	#$c
     af8: 85 12        	sta	$12                     ; 0x2012 <printf+0x2c9>
     afa: a5 11        	lda	$11                     ; 0x2011 <printf+0x2c8>
     afc: 69 00        	adc	#$0
     afe: 85 13        	sta	$13                     ; 0x2013 <printf+0x2ca>
     b00: 20 f0 ff     	jsr	$fff0 <end_block9+0xca7a>
     b03: 92 12        	sta	($12)                   ; 0x2012 <printf+0x2c9>
     b05: a9 00        	lda	#$0
     b07: 6a           	ror
     b08: 85 24        	sta	$24                     ; 0x2024 <printf+0x2db>
     b0a: 64 3a        	stz	$3a                     ; 0x203a <printf+0x2f1>
     b0c: 9c 14 d0     	stz	$d014                   ; 0xd014 <end_block9+0x9a9e>
     b0f: 9c 15 d0     	stz	$d015                   ; 0xd015 <end_block9+0x9a9f>
     b12: a2 3b        	ldx	#$3b
     b14: 86 3b        	stx	$3b                     ; 0x203b <printf+0x2f2>
     b16: 8e 16 d0     	stx	$d016                   ; 0xd016 <end_block9+0x9aa0>
     b19: 9c 17 d0     	stz	$d017                   ; 0xd017 <end_block9+0x9aa1>
     b1c: a5 29        	lda	$29                     ; 0x2029 <printf+0x2e0>
     b1e: 92 10        	sta	($10)                   ; 0x2010 <printf+0x2c7>
     b20: a9 00        	lda	#$0
     b22: 91 10        	sta	($10),y                 ; 0x2010 <printf+0x2c7>
     b24: a2 dd        	ldx	#$dd
     b26: 86 12        	stx	$12                     ; 0x2012 <printf+0x2c9>
     b28: a2 32        	ldx	#$32
     b2a: 86 13        	stx	$13                     ; 0x2013 <printf+0x2ca>
     b2c: 20 49 1d     	jsr	$1d49 <printf>
     b2f: 4c d2 12     	jmp	$12d2 <f256main+0xbd4>
     b32: e0 85        	cpx	#$85
     b34: d0 03        	bne	$b39 <f256main+0x43b>
     b36: 4c b9 0f     	jmp	$fb9 <f256main+0x8bb>
     b39: e0 92        	cpx	#$92
     b3b: f0 03        	beq	$b40 <f256main+0x442>
     b3d: 4c d2 12     	jmp	$12d2 <f256main+0xbd4>
     b40: a2 c0        	ldx	#$c0
     b42: 8e a1 dd     	stx	$dda1                   ; 0xdda1 <end_block9+0xa82b>
     b45: 9c a1 dd     	stz	$dda1                   ; 0xdda1 <end_block9+0xa82b>
     b48: e8           	inx
     b49: 8e a1 dd     	stx	$dda1                   ; 0xdda1 <end_block9+0xa82b>
     b4c: 9c a1 dd     	stz	$dda1                   ; 0xdda1 <end_block9+0xa82b>
     b4f: a2 c9        	ldx	#$c9
     b51: 8e a1 dd     	stx	$dda1                   ; 0xdda1 <end_block9+0xa82b>
     b54: 9c a1 dd     	stz	$dda1                   ; 0xdda1 <end_block9+0xa82b>
     b57: 64 3e        	stz	$3e                     ; 0x203e <printf+0x2f5>
     b59: 64 3f        	stz	$3f                     ; 0x203f <printf+0x2f6>
     b5b: 64 40        	stz	$40                     ; 0x2040 <printf+0x2f7>
     b5d: 64 41        	stz	$41                     ; 0x2041 <printf+0x2f8>
     b5f: 64 50        	stz	$50                     ; 0x2050 <printf+0x307>
     b61: 64 51        	stz	$51                     ; 0x2051 <printf+0x308>
     b63: a2 ff        	ldx	#$ff
     b65: 4c da 11     	jmp	$11da <f256main+0xadc>
     b68: a2 ff        	ldx	#$ff
     b6a: 8e a1 dd     	stx	$dda1                   ; 0xdda1 <end_block9+0xa82b>
     b6d: a2 02        	ldx	#$2
     b6f: 86 01        	stx	$1                      ; 0x2001 <printf+0x2b8>
     b71: a2 c0        	ldx	#$c0
     b73: a0 00        	ldy	#$0
     b75: a9 20        	lda	#$20
     b77: 84 12        	sty	$12                     ; 0x2012 <printf+0x2c9>
     b79: 86 13        	stx	$13                     ; 0x2013 <printf+0x2ca>
     b7b: 92 12        	sta	($12)                   ; 0x2012 <printf+0x2c9>
     b7d: c8           	iny
     b7e: d0 01        	bne	$b81 <f256main+0x483>
     b80: e8           	inx
     b81: e0 d2        	cpx	#$d2
     b83: d0 f2        	bne	$b77 <f256main+0x479>
     b85: c0 c0        	cpy	#$c0
     b87: d0 ee        	bne	$b77 <f256main+0x479>
     b89: 64 27        	stz	$27                     ; 0x2027 <printf+0x2de>
     b8b: 64 01        	stz	$1                      ; 0x2001 <printf+0x2b8>
     b8d: a2 90        	ldx	#$90
     b8f: 86 30        	stx	$30                     ; 0x2030 <printf+0x2e7>
     b91: 64 3a        	stz	$3a                     ; 0x203a <printf+0x2f1>
     b93: 9c 14 d0     	stz	$d014                   ; 0xd014 <end_block9+0x9a9e>
     b96: 9c 15 d0     	stz	$d015                   ; 0xd015 <end_block9+0x9a9f>
     b99: 64 3b        	stz	$3b                     ; 0x203b <printf+0x2f2>
     b9b: 9c 16 d0     	stz	$d016                   ; 0xd016 <end_block9+0x9aa0>
     b9e: 9c 17 d0     	stz	$d017                   ; 0xd017 <end_block9+0x9aa1>
     ba1: a2 e7        	ldx	#$e7
     ba3: 86 12        	stx	$12                     ; 0x2012 <printf+0x2c9>
     ba5: a2 2d        	ldx	#$2d
     ba7: 86 13        	stx	$13                     ; 0x2013 <printf+0x2ca>
     ba9: 20 73 13     	jsr	$1373 <textPrint>
     bac: a5 52        	lda	$52                     ; 0x2052 <printf+0x309>
     bae: 92 10        	sta	($10)                   ; 0x2010 <printf+0x2c7>
     bb0: a9 00        	lda	#$0
     bb2: a0 01        	ldy	#$1
     bb4: 91 10        	sta	($10),y                 ; 0x2010 <printf+0x2c7>
     bb6: a2 fe        	ldx	#$fe
     bb8: 86 12        	stx	$12                     ; 0x2012 <printf+0x2c9>
     bba: a2 30        	ldx	#$30
     bbc: 86 13        	stx	$13                     ; 0x2013 <printf+0x2ca>
     bbe: 20 49 1d     	jsr	$1d49 <printf>
     bc1: a2 84        	ldx	#$84
     bc3: 86 12        	stx	$12                     ; 0x2012 <printf+0x2c9>
     bc5: a2 32        	ldx	#$32
     bc7: 86 13        	stx	$13                     ; 0x2013 <printf+0x2ca>
     bc9: 20 73 13     	jsr	$1373 <textPrint>
     bcc: a2 50        	ldx	#$50
     bce: 86 30        	stx	$30                     ; 0x2030 <printf+0x2e7>
     bd0: a2 82        	ldx	#$82
     bd2: 8a           	txa
     bd3: a0 07        	ldy	#$7
     bd5: 91 10        	sta	($10),y                 ; 0x2010 <printf+0x2c7>
     bd7: a2 01        	ldx	#$1
     bd9: 8a           	txa
     bda: 88           	dey
     bdb: 91 10        	sta	($10),y                 ; 0x2010 <printf+0x2c7>
     bdd: a2 96        	ldx	#$96
     bdf: 86 2c        	stx	$2c                     ; 0x202c <printf+0x2e3>
     be1: a2 2b        	ldx	#$2b
     be3: 86 2d        	stx	$2d                     ; 0x202d <printf+0x2e4>
     be5: 4c 5a 0c     	jmp	$c5a <f256main+0x55c>
     be8: b1 10        	lda	($10),y                 ; 0x2010 <printf+0x2c7>
     bea: 85 28        	sta	$28                     ; 0x2028 <printf+0x2df>
     bec: 49 80        	eor	#$80
     bee: a2 34        	ldx	#$34
     bf0: 86 3a        	stx	$3a                     ; 0x203a <printf+0x2f1>
     bf2: 8e 14 d0     	stx	$d014                   ; 0xd014 <end_block9+0x9a9e>
     bf5: 9c 15 d0     	stz	$d015                   ; 0xd015 <end_block9+0x9a9f>
     bf8: 48           	pha
     bf9: a0 06        	ldy	#$6
     bfb: b1 10        	lda	($10),y                 ; 0x2010 <printf+0x2c7>
     bfd: aa           	tax
     bfe: 68           	pla
     bff: 86 3b        	stx	$3b                     ; 0x203b <printf+0x2f2>
     c01: 8e 16 d0     	stx	$d016                   ; 0xd016 <end_block9+0x9aa0>
     c04: 86 2b        	stx	$2b                     ; 0x202b <printf+0x2e2>
     c06: 9c 17 d0     	stz	$d017                   ; 0xd017 <end_block9+0x9aa1>
     c09: a6 27        	ldx	$27                     ; 0x2027 <printf+0x2de>
     c0b: bc 75 34     	ldy	$3475,x                 ; 0x3475 <midi_instruments+0x4>
     c0e: 84 14        	sty	$14                     ; 0x2014 <printf+0x2cb>
     c10: 48           	pha
     c11: bd 76 34     	lda	$3476,x                 ; 0x3476 <midi_instruments+0x5>
     c14: aa           	tax
     c15: 68           	pla
     c16: 86 15        	stx	$15                     ; 0x2015 <printf+0x2cc>
     c18: a6 10        	ldx	$10                     ; 0x2010 <printf+0x2c7>
     c1a: 92 10        	sta	($10)                   ; 0x2010 <printf+0x2c7>
     c1c: a0 01        	ldy	#$1
     c1e: a9 00        	lda	#$0
     c20: 91 10        	sta	($10),y                 ; 0x2010 <printf+0x2c7>
     c22: 18           	clc
     c23: 8a           	txa
     c24: 69 02        	adc	#$2
     c26: 85 12        	sta	$12                     ; 0x2012 <printf+0x2c9>
     c28: a5 11        	lda	$11                     ; 0x2011 <printf+0x2c8>
     c2a: 69 00        	adc	#$0
     c2c: 85 13        	sta	$13                     ; 0x2013 <printf+0x2ca>
     c2e: c8           	iny
     c2f: a5 14        	lda	$14                     ; 0x2014 <printf+0x2cb>
     c31: 91 10        	sta	($10),y                 ; 0x2010 <printf+0x2c7>
     c33: a5 15        	lda	$15                     ; 0x2015 <printf+0x2cc>
     c35: 88           	dey
     c36: 91 12        	sta	($12),y                 ; 0x2012 <printf+0x2c9>
     c38: a2 96        	ldx	#$96
     c3a: 86 12        	stx	$12                     ; 0x2012 <printf+0x2c9>
     c3c: a2 2b        	ldx	#$2b
     c3e: 86 13        	stx	$13                     ; 0x2013 <printf+0x2ca>
     c40: 20 49 1d     	jsr	$1d49 <printf>
     c43: e6 2b        	inc	$2b                     ; 0x202b <printf+0x2e2>
     c45: a5 2b        	lda	$2b                     ; 0x202b <printf+0x2e2>
     c47: a0 06        	ldy	#$6
     c49: 91 10        	sta	($10),y                 ; 0x2010 <printf+0x2c7>
     c4b: 18           	clc
     c4c: a5 27        	lda	$27                     ; 0x2027 <printf+0x2de>
     c4e: 69 06        	adc	#$6
     c50: 85 27        	sta	$27                     ; 0x2027 <printf+0x2de>
     c52: 18           	clc
     c53: a5 28        	lda	$28                     ; 0x2028 <printf+0x2df>
     c55: 69 03        	adc	#$3
     c57: c8           	iny
     c58: 91 10        	sta	($10),y                 ; 0x2010 <printf+0x2c7>
     c5a: a0 07        	ldy	#$7
     c5c: b1 10        	lda	($10),y                 ; 0x2010 <printf+0x2c7>
     c5e: 85 28        	sta	$28                     ; 0x2028 <printf+0x2df>
     c60: 18           	clc
     c61: 69 7e        	adc	#$7e
     c63: a2 02        	ldx	#$2
     c65: 86 3a        	stx	$3a                     ; 0x203a <printf+0x2f1>
     c67: 8e 14 d0     	stx	$d014                   ; 0xd014 <end_block9+0x9a9e>
     c6a: 9c 15 d0     	stz	$d015                   ; 0xd015 <end_block9+0x9a9f>
     c6d: 48           	pha
     c6e: 88           	dey
     c6f: b1 10        	lda	($10),y                 ; 0x2010 <printf+0x2c7>
     c71: aa           	tax
     c72: 68           	pla
     c73: 86 3b        	stx	$3b                     ; 0x203b <printf+0x2f2>
     c75: 8e 16 d0     	stx	$d016                   ; 0xd016 <end_block9+0x9aa0>
     c78: 86 24        	stx	$24                     ; 0x2024 <printf+0x2db>
     c7a: 9c 17 d0     	stz	$d017                   ; 0xd017 <end_block9+0x9aa1>
     c7d: a6 27        	ldx	$27                     ; 0x2027 <printf+0x2de>
     c7f: bc 71 34     	ldy	$3471,x                 ; 0x3471 <midi_instruments>
     c82: 84 14        	sty	$14                     ; 0x2014 <printf+0x2cb>
     c84: bc 72 34     	ldy	$3472,x                 ; 0x3472 <midi_instruments+0x1>
     c87: 84 15        	sty	$15                     ; 0x2015 <printf+0x2cc>
     c89: 86 2b        	stx	$2b                     ; 0x202b <printf+0x2e2>
     c8b: a6 10        	ldx	$10                     ; 0x2010 <printf+0x2c7>
     c8d: 92 10        	sta	($10)                   ; 0x2010 <printf+0x2c7>
     c8f: a0 01        	ldy	#$1
     c91: a9 00        	lda	#$0
     c93: 91 10        	sta	($10),y                 ; 0x2010 <printf+0x2c7>
     c95: 18           	clc
     c96: 8a           	txa
     c97: 69 02        	adc	#$2
     c99: aa           	tax
     c9a: a5 11        	lda	$11                     ; 0x2011 <printf+0x2c8>
     c9c: 69 00        	adc	#$0
     c9e: 86 12        	stx	$12                     ; 0x2012 <printf+0x2c9>
     ca0: 85 13        	sta	$13                     ; 0x2013 <printf+0x2ca>
     ca2: c8           	iny
     ca3: a5 14        	lda	$14                     ; 0x2014 <printf+0x2cb>
     ca5: 91 10        	sta	($10),y                 ; 0x2010 <printf+0x2c7>
     ca7: a5 15        	lda	$15                     ; 0x2015 <printf+0x2cc>
     ca9: 88           	dey
     caa: 91 12        	sta	($12),y                 ; 0x2012 <printf+0x2c9>
     cac: a2 96        	ldx	#$96
     cae: 86 12        	stx	$12                     ; 0x2012 <printf+0x2c9>
     cb0: a2 2b        	ldx	#$2b
     cb2: 86 13        	stx	$13                     ; 0x2013 <printf+0x2ca>
     cb4: 20 49 1d     	jsr	$1d49 <printf>
     cb7: a2 1b        	ldx	#$1b
     cb9: 86 3a        	stx	$3a                     ; 0x203a <printf+0x2f1>
     cbb: 8e 14 d0     	stx	$d014                   ; 0xd014 <end_block9+0x9a9e>
     cbe: 9c 15 d0     	stz	$d015                   ; 0xd015 <end_block9+0x9a9f>
     cc1: a6 24        	ldx	$24                     ; 0x2024 <printf+0x2db>
     cc3: 86 3b        	stx	$3b                     ; 0x203b <printf+0x2f2>
     cc5: 8e 16 d0     	stx	$d016                   ; 0xd016 <end_block9+0x9aa0>
     cc8: 9c 17 d0     	stz	$d017                   ; 0xd017 <end_block9+0x9aa1>
     ccb: a5 28        	lda	$28                     ; 0x2028 <printf+0x2df>
     ccd: 18           	clc
     cce: 69 7f        	adc	#$7f
     cd0: a6 2b        	ldx	$2b                     ; 0x202b <printf+0x2e2>
     cd2: bc 73 34     	ldy	$3473,x                 ; 0x3473 <midi_instruments+0x2>
     cd5: 84 14        	sty	$14                     ; 0x2014 <printf+0x2cb>
     cd7: 48           	pha
     cd8: bd 74 34     	lda	$3474,x                 ; 0x3474 <midi_instruments+0x3>
     cdb: aa           	tax
     cdc: 68           	pla
     cdd: 86 15        	stx	$15                     ; 0x2015 <printf+0x2cc>
     cdf: a6 10        	ldx	$10                     ; 0x2010 <printf+0x2c7>
     ce1: 92 10        	sta	($10)                   ; 0x2010 <printf+0x2c7>
     ce3: a0 01        	ldy	#$1
     ce5: a9 00        	lda	#$0
     ce7: 91 10        	sta	($10),y                 ; 0x2010 <printf+0x2c7>
     ce9: 18           	clc
     cea: 8a           	txa
     ceb: 69 02        	adc	#$2
     ced: 85 12        	sta	$12                     ; 0x2012 <printf+0x2c9>
     cef: a5 11        	lda	$11                     ; 0x2011 <printf+0x2c8>
     cf1: 69 00        	adc	#$0
     cf3: 85 13        	sta	$13                     ; 0x2013 <printf+0x2ca>
     cf5: c8           	iny
     cf6: a5 14        	lda	$14                     ; 0x2014 <printf+0x2cb>
     cf8: 91 10        	sta	($10),y                 ; 0x2010 <printf+0x2c7>
     cfa: a5 15        	lda	$15                     ; 0x2015 <printf+0x2cc>
     cfc: 88           	dey
     cfd: 91 12        	sta	($12),y                 ; 0x2012 <printf+0x2c9>
     cff: a2 96        	ldx	#$96
     d01: 86 12        	stx	$12                     ; 0x2012 <printf+0x2c9>
     d03: a2 2b        	ldx	#$2b
     d05: 86 13        	stx	$13                     ; 0x2013 <printf+0x2ca>
     d07: 20 49 1d     	jsr	$1d49 <printf>
     d0a: a0 07        	ldy	#$7
     d0c: b1 10        	lda	($10),y                 ; 0x2010 <printf+0x2c7>
     d0e: f0 03        	beq	$d13 <f256main+0x615>
     d10: 4c e8 0b     	jmp	$be8 <f256main+0x4ea>
     d13: a9 01        	lda	#$1
     d15: 20 42 18     	jsr	$1842 <highLightInstChoice>
     d18: 64 27        	stz	$27                     ; 0x2027 <printf+0x2de>
     d1a: a2 00        	ldx	#$0
     d1c: a0 71        	ldy	#$71
     d1e: 84 24        	sty	$24                     ; 0x2024 <printf+0x2db>
     d20: a0 35        	ldy	#$35
     d22: 84 25        	sty	$25                     ; 0x2025 <printf+0x2dc>
     d24: 80 09        	bra	$d2f <f256main+0x631>
     d26: e0 01        	cpx	#$1
     d28: f0 05        	beq	$d2f <f256main+0x631>
     d2a: 4c 3c 0e     	jmp	$e3c <f256main+0x73e>
     d2d: a2 00        	ldx	#$0
     d2f: 86 2c        	stx	$2c                     ; 0x202c <printf+0x2e3>
     d31: 8a           	txa
     d32: f0 04        	beq	$d38 <f256main+0x63a>
     d34: a2 62        	ldx	#$62
     d36: 80 02        	bra	$d3a <f256main+0x63c>
     d38: a2 7d        	ldx	#$7d
     d3a: 86 28        	stx	$28                     ; 0x2028 <printf+0x2df>
     d3c: a2 1b        	ldx	#$1b
     d3e: a5 2c        	lda	$2c                     ; 0x202c <printf+0x2e3>
     d40: 20 51 29     	jsr	$2951 <__mulqi3>
     d43: a6 2c        	ldx	$2c                     ; 0x202c <printf+0x2e3>
     d45: f0 04        	beq	$d4b <f256main+0x64d>
     d47: a2 1d        	ldx	#$1d
     d49: 80 02        	bra	$d4d <f256main+0x64f>
     d4b: a2 02        	ldx	#$2
     d4d: 48           	pha
     d4e: 8a           	txa
     d4f: a0 07        	ldy	#$7
     d51: 91 10        	sta	($10),y                 ; 0x2010 <printf+0x2c7>
     d53: 68           	pla
     d54: a2 00        	ldx	#$0
     d56: 18           	clc
     d57: 69 03        	adc	#$3
     d59: 85 2b        	sta	$2b                     ; 0x202b <printf+0x2e2>
     d5b: a0 e5        	ldy	#$e5
     d5d: 84 12        	sty	$12                     ; 0x2012 <printf+0x2c9>
     d5f: a0 ff        	ldy	#$ff
     d61: 84 13        	sty	$13                     ; 0x2013 <printf+0x2ca>
     d63: a5 2c        	lda	$2c                     ; 0x202c <printf+0x2e3>
     d65: 20 6c 29     	jsr	$296c <__mulhi3>
     d68: 85 2c        	sta	$2c                     ; 0x202c <printf+0x2e3>
     d6a: 86 2d        	stx	$2d                     ; 0x202d <printf+0x2e4>
     d6c: a0 01        	ldy	#$1
     d6e: 4c 3c 0e     	jmp	$e3c <f256main+0x73e>
     d71: c9 00        	cmp	#$0
     d73: 90 03        	bcc	$d78 <f256main+0x67a>
     d75: 4c 3c 0e     	jmp	$e3c <f256main+0x73e>
     d78: a9 00        	lda	#$0
     d7a: 20 42 18     	jsr	$1842 <highLightInstChoice>
     d7d: a5 52        	lda	$52                     ; 0x2052 <printf+0x309>
     d7f: 0a           	asl
     d80: 85 12        	sta	$12                     ; 0x2012 <printf+0x2c9>
     d82: a9 00        	lda	#$0
     d84: 2a           	rol
     d85: 85 13        	sta	$13                     ; 0x2013 <printf+0x2ca>
     d87: a9 3e        	lda	#$3e
     d89: 18           	clc
     d8a: 65 12        	adc	$12                     ; 0x2012 <printf+0x2c9>
     d8c: 85 12        	sta	$12                     ; 0x2012 <printf+0x2c9>
     d8e: a9 00        	lda	#$0
     d90: 65 13        	adc	$13                     ; 0x2013 <printf+0x2ca>
     d92: 85 13        	sta	$13                     ; 0x2013 <printf+0x2ca>
     d94: b2 12        	lda	($12)                   ; 0x2012 <printf+0x2c9>
     d96: 85 14        	sta	$14                     ; 0x2014 <printf+0x2cb>
     d98: a0 01        	ldy	#$1
     d9a: b1 12        	lda	($12),y                 ; 0x2012 <printf+0x2c9>
     d9c: aa           	tax
     d9d: a5 14        	lda	$14                     ; 0x2014 <printf+0x2cb>
     d9f: 1a           	inc
     da0: d0 01        	bne	$da3 <f256main+0x6a5>
     da2: e8           	inx
     da3: 92 12        	sta	($12)                   ; 0x2012 <printf+0x2c9>
     da5: 8a           	txa
     da6: 4c 25 0e     	jmp	$e25 <f256main+0x727>
     da9: d1 12        	cmp	($12),y                 ; 0x2012 <printf+0x2c9>
     dab: 90 03        	bcc	$db0 <f256main+0x6b2>
     dad: 4c 3c 0e     	jmp	$e3c <f256main+0x73e>
     db0: a9 00        	lda	#$0
     db2: 20 42 18     	jsr	$1842 <highLightInstChoice>
     db5: a5 52        	lda	$52                     ; 0x2052 <printf+0x309>
     db7: 0a           	asl
     db8: 85 12        	sta	$12                     ; 0x2012 <printf+0x2c9>
     dba: a9 00        	lda	#$0
     dbc: 2a           	rol
     dbd: 85 13        	sta	$13                     ; 0x2013 <printf+0x2ca>
     dbf: a9 3e        	lda	#$3e
     dc1: 18           	clc
     dc2: 65 12        	adc	$12                     ; 0x2012 <printf+0x2c9>
     dc4: 85 12        	sta	$12                     ; 0x2012 <printf+0x2c9>
     dc6: a9 00        	lda	#$0
     dc8: 65 13        	adc	$13                     ; 0x2013 <printf+0x2ca>
     dca: 85 13        	sta	$13                     ; 0x2013 <printf+0x2ca>
     dcc: a5 2c        	lda	$2c                     ; 0x202c <printf+0x2e3>
     dce: 18           	clc
     dcf: 72 12        	adc	($12)                   ; 0x2012 <printf+0x2c9>
     dd1: aa           	tax
     dd2: a5 2d        	lda	$2d                     ; 0x202d <printf+0x2e4>
     dd4: a0 01        	ldy	#$1
     dd6: 71 12        	adc	($12),y                 ; 0x2012 <printf+0x2c9>
     dd8: 85 15        	sta	$15                     ; 0x2015 <printf+0x2cc>
     dda: 18           	clc
     ddb: 8a           	txa
     ddc: 69 fd        	adc	#$fd
     dde: 85 14        	sta	$14                     ; 0x2014 <printf+0x2cb>
     de0: a5 15        	lda	$15                     ; 0x2015 <printf+0x2cc>
     de2: 69 ff        	adc	#$ff
     de4: 85 15        	sta	$15                     ; 0x2015 <printf+0x2cc>
     de6: a5 14        	lda	$14                     ; 0x2014 <printf+0x2cb>
     de8: 92 12        	sta	($12)                   ; 0x2012 <printf+0x2c9>
     dea: a5 15        	lda	$15                     ; 0x2015 <printf+0x2cc>
     dec: 80 37        	bra	$e25 <f256main+0x727>
     dee: c5 27        	cmp	$27                     ; 0x2027 <printf+0x2de>
     df0: b0 4a        	bcs	$e3c <f256main+0x73e>
     df2: a9 00        	lda	#$0
     df4: 20 42 18     	jsr	$1842 <highLightInstChoice>
     df7: a5 52        	lda	$52                     ; 0x2052 <printf+0x309>
     df9: 0a           	asl
     dfa: 85 12        	sta	$12                     ; 0x2012 <printf+0x2c9>
     dfc: a9 00        	lda	#$0
     dfe: 2a           	rol
     dff: 85 13        	sta	$13                     ; 0x2013 <printf+0x2ca>
     e01: a9 3e        	lda	#$3e
     e03: 18           	clc
     e04: 65 12        	adc	$12                     ; 0x2012 <printf+0x2c9>
     e06: 85 12        	sta	$12                     ; 0x2012 <printf+0x2c9>
     e08: a9 00        	lda	#$0
     e0a: 65 13        	adc	$13                     ; 0x2013 <printf+0x2ca>
     e0c: 85 13        	sta	$13                     ; 0x2013 <printf+0x2ca>
     e0e: a0 01        	ldy	#$1
     e10: b1 12        	lda	($12),y                 ; 0x2012 <printf+0x2c9>
     e12: 85 14        	sta	$14                     ; 0x2014 <printf+0x2cb>
     e14: a5 2b        	lda	$2b                     ; 0x202b <printf+0x2e2>
     e16: 18           	clc
     e17: 72 12        	adc	($12)                   ; 0x2012 <printf+0x2c9>
     e19: aa           	tax
     e1a: a5 14        	lda	$14                     ; 0x2014 <printf+0x2cb>
     e1c: 69 00        	adc	#$0
     e1e: 85 14        	sta	$14                     ; 0x2014 <printf+0x2cb>
     e20: 8a           	txa
     e21: 92 12        	sta	($12)                   ; 0x2012 <printf+0x2c9>
     e23: a5 14        	lda	$14                     ; 0x2014 <printf+0x2cb>
     e25: 91 12        	sta	($12),y                 ; 0x2012 <printf+0x2c9>
     e27: 98           	tya
     e28: 20 42 18     	jsr	$1842 <highLightInstChoice>
     e2b: a0 01        	ldy	#$1
     e2d: a6 33        	ldx	$33                     ; 0x2033 <printf+0x2ea>
     e2f: e0 0a        	cpx	#$a
     e31: d0 09        	bne	$e3c <f256main+0x73e>
     e33: a6 37        	ldx	$37                     ; 0x2037 <printf+0x2ee>
     e35: e0 01        	cpx	#$1
     e37: d0 03        	bne	$e3c <f256main+0x73e>
     e39: 4c 2d 0d     	jmp	$d2d <f256main+0x62f>
     e3c: 64 33        	stz	$33                     ; 0x2033 <printf+0x2ea>
     e3e: 18           	clc
     e3f: a5 10        	lda	$10                     ; 0x2010 <printf+0x2c7>
     e41: 69 10        	adc	#$10
     e43: 85 12        	sta	$12                     ; 0x2012 <printf+0x2c9>
     e45: a5 11        	lda	$11                     ; 0x2011 <printf+0x2c8>
     e47: 69 00        	adc	#$0
     e49: 85 13        	sta	$13                     ; 0x2013 <printf+0x2ca>
     e4b: 20 00 ff     	jsr	$ff00 <end_block9+0xc98a>
     e4e: 92 12        	sta	($12)                   ; 0x2012 <printf+0x2c9>
     e50: a9 00        	lda	#$0
     e52: 6a           	ror
     e53: 85 24        	sta	$24                     ; 0x2024 <printf+0x2db>
     e55: a6 33        	ldx	$33                     ; 0x2033 <printf+0x2ea>
     e57: e0 08        	cpx	#$8
     e59: d0 d4        	bne	$e2f <f256main+0x731>
     e5b: a6 37        	ldx	$37                     ; 0x2037 <printf+0x2ee>
     e5d: 38           	sec
     e5e: 8a           	txa
     e5f: e9 b6        	sbc	#$b6
     e61: 50 02        	bvc	$e65 <f256main+0x767>
     e63: 49 80        	eor	#$80
     e65: c9 00        	cmp	#$0
     e67: 10 03        	bpl	$e6c <f256main+0x76e>
     e69: 4c 5f 0f     	jmp	$f5f <f256main+0x861>
     e6c: 8a           	txa
     e6d: 38           	sec
     e6e: e9 b6        	sbc	#$b6
     e70: c9 04        	cmp	#$4
     e72: 90 03        	bcc	$e77 <f256main+0x779>
     e74: 4c 26 0d     	jmp	$d26 <f256main+0x628>
     e77: 0a           	asl
     e78: aa           	tax
     e79: 7c 82 2a     	jmp	($2a82,x)               ; 0x2a82 <__set_v+0x9>
     e7c: a5 52        	lda	$52                     ; 0x2052 <printf+0x309>
     e7e: 0a           	asl
     e7f: 85 12        	sta	$12                     ; 0x2012 <printf+0x2c9>
     e81: a9 00        	lda	#$0
     e83: 2a           	rol
     e84: 85 13        	sta	$13                     ; 0x2013 <printf+0x2ca>
     e86: a9 3e        	lda	#$3e
     e88: 18           	clc
     e89: 65 12        	adc	$12                     ; 0x2012 <printf+0x2c9>
     e8b: 85 12        	sta	$12                     ; 0x2012 <printf+0x2c9>
     e8d: a9 00        	lda	#$0
     e8f: 65 13        	adc	$13                     ; 0x2013 <printf+0x2ca>
     e91: 85 13        	sta	$13                     ; 0x2013 <printf+0x2ca>
     e93: a9 00        	lda	#$0
     e95: d1 12        	cmp	($12),y                 ; 0x2012 <printf+0x2c9>
     e97: f0 03        	beq	$e9c <f256main+0x79e>
     e99: 4c a9 0d     	jmp	$da9 <f256main+0x6ab>
     e9c: b2 12        	lda	($12)                   ; 0x2012 <printf+0x2c9>
     e9e: 85 12        	sta	$12                     ; 0x2012 <printf+0x2c9>
     ea0: 5a           	phy
     ea1: a0 07        	ldy	#$7
     ea3: b1 10        	lda	($10),y                 ; 0x2010 <printf+0x2c7>
     ea5: 7a           	ply
     ea6: c5 12        	cmp	$12                     ; 0x2012 <printf+0x2c9>
     ea8: 90 03        	bcc	$ead <f256main+0x7af>
     eaa: 4c 3c 0e     	jmp	$e3c <f256main+0x73e>
     ead: 4c b0 0d     	jmp	$db0 <f256main+0x6b2>
     eb0: a5 52        	lda	$52                     ; 0x2052 <printf+0x309>
     eb2: 0a           	asl
     eb3: 85 12        	sta	$12                     ; 0x2012 <printf+0x2c9>
     eb5: a9 00        	lda	#$0
     eb7: 2a           	rol
     eb8: 85 13        	sta	$13                     ; 0x2013 <printf+0x2ca>
     eba: a9 3e        	lda	#$3e
     ebc: 18           	clc
     ebd: 65 12        	adc	$12                     ; 0x2012 <printf+0x2c9>
     ebf: 85 12        	sta	$12                     ; 0x2012 <printf+0x2c9>
     ec1: a9 00        	lda	#$0
     ec3: 65 13        	adc	$13                     ; 0x2013 <printf+0x2ca>
     ec5: 85 13        	sta	$13                     ; 0x2013 <printf+0x2ca>
     ec7: b2 12        	lda	($12)                   ; 0x2012 <printf+0x2c9>
     ec9: 85 14        	sta	$14                     ; 0x2014 <printf+0x2cb>
     ecb: b1 12        	lda	($12),y                 ; 0x2012 <printf+0x2c9>
     ecd: d0 07        	bne	$ed6 <f256main+0x7d8>
     ecf: a5 14        	lda	$14                     ; 0x2014 <printf+0x2cb>
     ed1: d0 03        	bne	$ed6 <f256main+0x7d8>
     ed3: 4c 3c 0e     	jmp	$e3c <f256main+0x73e>
     ed6: a9 00        	lda	#$0
     ed8: 20 42 18     	jsr	$1842 <highLightInstChoice>
     edb: a0 01        	ldy	#$1
     edd: a5 52        	lda	$52                     ; 0x2052 <printf+0x309>
     edf: 0a           	asl
     ee0: 85 12        	sta	$12                     ; 0x2012 <printf+0x2c9>
     ee2: a9 00        	lda	#$0
     ee4: 2a           	rol
     ee5: 85 13        	sta	$13                     ; 0x2013 <printf+0x2ca>
     ee7: a9 3e        	lda	#$3e
     ee9: 18           	clc
     eea: 65 12        	adc	$12                     ; 0x2012 <printf+0x2c9>
     eec: 85 12        	sta	$12                     ; 0x2012 <printf+0x2c9>
     eee: a9 00        	lda	#$0
     ef0: 65 13        	adc	$13                     ; 0x2013 <printf+0x2ca>
     ef2: 85 13        	sta	$13                     ; 0x2013 <printf+0x2ca>
     ef4: b2 12        	lda	($12)                   ; 0x2012 <printf+0x2c9>
     ef6: aa           	tax
     ef7: b1 12        	lda	($12),y                 ; 0x2012 <printf+0x2c9>
     ef9: 85 14        	sta	$14                     ; 0x2014 <printf+0x2cb>
     efb: 8a           	txa
     efc: 3a           	dec
     efd: c9 ff        	cmp	#$ff
     eff: f0 03        	beq	$f04 <f256main+0x806>
     f01: 4c 21 0e     	jmp	$e21 <f256main+0x723>
     f04: c6 14        	dec	$14                     ; 0x2014 <printf+0x2cb>
     f06: 4c 21 0e     	jmp	$e21 <f256main+0x723>
     f09: a5 52        	lda	$52                     ; 0x2052 <printf+0x309>
     f0b: 0a           	asl
     f0c: 85 12        	sta	$12                     ; 0x2012 <printf+0x2c9>
     f0e: a9 00        	lda	#$0
     f10: 2a           	rol
     f11: 85 13        	sta	$13                     ; 0x2013 <printf+0x2ca>
     f13: a9 3e        	lda	#$3e
     f15: 18           	clc
     f16: 65 12        	adc	$12                     ; 0x2012 <printf+0x2c9>
     f18: 85 12        	sta	$12                     ; 0x2012 <printf+0x2c9>
     f1a: a9 00        	lda	#$0
     f1c: 65 13        	adc	$13                     ; 0x2013 <printf+0x2ca>
     f1e: 85 13        	sta	$13                     ; 0x2013 <printf+0x2ca>
     f20: b1 12        	lda	($12),y                 ; 0x2012 <printf+0x2c9>
     f22: f0 03        	beq	$f27 <f256main+0x829>
     f24: 4c 71 0d     	jmp	$d71 <f256main+0x673>
     f27: b2 12        	lda	($12)                   ; 0x2012 <printf+0x2c9>
     f29: c9 7f        	cmp	#$7f
     f2b: 90 03        	bcc	$f30 <f256main+0x832>
     f2d: 4c 3c 0e     	jmp	$e3c <f256main+0x73e>
     f30: 4c 78 0d     	jmp	$d78 <f256main+0x67a>
     f33: a5 52        	lda	$52                     ; 0x2052 <printf+0x309>
     f35: 0a           	asl
     f36: 85 12        	sta	$12                     ; 0x2012 <printf+0x2c9>
     f38: a9 00        	lda	#$0
     f3a: 2a           	rol
     f3b: 85 13        	sta	$13                     ; 0x2013 <printf+0x2ca>
     f3d: a9 3e        	lda	#$3e
     f3f: 18           	clc
     f40: 65 12        	adc	$12                     ; 0x2012 <printf+0x2c9>
     f42: 85 12        	sta	$12                     ; 0x2012 <printf+0x2c9>
     f44: a9 00        	lda	#$0
     f46: 65 13        	adc	$13                     ; 0x2013 <printf+0x2ca>
     f48: 85 13        	sta	$13                     ; 0x2013 <printf+0x2ca>
     f4a: b1 12        	lda	($12),y                 ; 0x2012 <printf+0x2c9>
     f4c: c5 27        	cmp	$27                     ; 0x2027 <printf+0x2de>
     f4e: f0 03        	beq	$f53 <f256main+0x855>
     f50: 4c ee 0d     	jmp	$dee <f256main+0x6f0>
     f53: b2 12        	lda	($12)                   ; 0x2012 <printf+0x2c9>
     f55: c5 28        	cmp	$28                     ; 0x2028 <printf+0x2df>
     f57: 90 03        	bcc	$f5c <f256main+0x85e>
     f59: 4c 3c 0e     	jmp	$e3c <f256main+0x73e>
     f5c: 4c f2 0d     	jmp	$df2 <f256main+0x6f4>
     f5f: e0 81        	cpx	#$81
     f61: d0 03        	bne	$f66 <f256main+0x868>
     f63: 4c 8a 12     	jmp	$128a <f256main+0xb8c>
     f66: e0 92        	cpx	#$92
     f68: d0 03        	bne	$f6d <f256main+0x86f>
     f6a: 4c 2b 12     	jmp	$122b <f256main+0xb2d>
     f6d: e0 94        	cpx	#$94
     f6f: f0 03        	beq	$f74 <f256main+0x876>
     f71: 4c 3c 0e     	jmp	$e3c <f256main+0x73e>
     f74: a5 52        	lda	$52                     ; 0x2052 <printf+0x309>
     f76: 0a           	asl
     f77: 85 12        	sta	$12                     ; 0x2012 <printf+0x2c9>
     f79: a9 00        	lda	#$0
     f7b: 2a           	rol
     f7c: 85 13        	sta	$13                     ; 0x2013 <printf+0x2ca>
     f7e: a9 3e        	lda	#$3e
     f80: 18           	clc
     f81: 65 12        	adc	$12                     ; 0x2012 <printf+0x2c9>
     f83: 85 12        	sta	$12                     ; 0x2012 <printf+0x2c9>
     f85: a9 00        	lda	#$0
     f87: 65 13        	adc	$13                     ; 0x2013 <printf+0x2ca>
     f89: 85 13        	sta	$13                     ; 0x2013 <printf+0x2ca>
     f8b: b2 12        	lda	($12)                   ; 0x2012 <printf+0x2c9>
     f8d: 85 12        	sta	$12                     ; 0x2012 <printf+0x2c9>
     f8f: a2 c0        	ldx	#$c0
     f91: 8a           	txa
     f92: 05 52        	ora	$52                     ; 0x2052 <printf+0x309>
     f94: 8d a1 dd     	sta	$dda1                   ; 0xdda1 <end_block9+0xa82b>
     f97: a4 12        	ldy	$12                     ; 0x2012 <printf+0x2c9>
     f99: 8c a1 dd     	sty	$dda1                   ; 0xdda1 <end_block9+0xa82b>
     f9c: a0 02        	ldy	#$2
     f9e: 84 01        	sty	$1                      ; 0x2001 <printf+0x2b8>
     fa0: a0 00        	ldy	#$0
     fa2: a9 20        	lda	#$20
     fa4: 84 12        	sty	$12                     ; 0x2012 <printf+0x2c9>
     fa6: 86 13        	stx	$13                     ; 0x2013 <printf+0x2ca>
     fa8: 92 12        	sta	($12)                   ; 0x2012 <printf+0x2c9>
     faa: c8           	iny
     fab: d0 01        	bne	$fae <f256main+0x8b0>
     fad: e8           	inx
     fae: e0 d2        	cpx	#$d2
     fb0: d0 f2        	bne	$fa4 <f256main+0x8a6>
     fb2: c0 c0        	cpy	#$c0
     fb4: d0 ee        	bne	$fa4 <f256main+0x8a6>
     fb6: 4c 6e 12     	jmp	$126e <f256main+0xb70>
     fb9: a2 02        	ldx	#$2
     fbb: 86 01        	stx	$1                      ; 0x2001 <printf+0x2b8>
     fbd: a2 c0        	ldx	#$c0
     fbf: a0 00        	ldy	#$0
     fc1: a9 20        	lda	#$20
     fc3: 84 12        	sty	$12                     ; 0x2012 <printf+0x2c9>
     fc5: 86 13        	stx	$13                     ; 0x2013 <printf+0x2ca>
     fc7: 92 12        	sta	($12)                   ; 0x2012 <printf+0x2c9>
     fc9: c8           	iny
     fca: d0 01        	bne	$fcd <f256main+0x8cf>
     fcc: e8           	inx
     fcd: e0 d2        	cpx	#$d2
     fcf: d0 f2        	bne	$fc3 <f256main+0x8c5>
     fd1: c0 c0        	cpy	#$c0
     fd3: d0 ee        	bne	$fc3 <f256main+0x8c5>
     fd5: 64 01        	stz	$1                      ; 0x2001 <printf+0x2b8>
     fd7: 4c d2 12     	jmp	$12d2 <f256main+0xbd4>
     fda: a6 31        	ldx	$31                     ; 0x2031 <printf+0x2e8>
     fdc: 86 27        	stx	$27                     ; 0x2027 <printf+0x2de>
     fde: a6 32        	ldx	$32                     ; 0x2032 <printf+0x2e9>
     fe0: 86 28        	stx	$28                     ; 0x2028 <printf+0x2df>
     fe2: a2 0b        	ldx	#$b
     fe4: a5 26        	lda	$26                     ; 0x2026 <printf+0x2dd>
     fe6: 20 51 29     	jsr	$2951 <__mulqi3>
     fe9: a4 28        	ldy	$28                     ; 0x2028 <printf+0x2df>
     feb: 84 12        	sty	$12                     ; 0x2012 <printf+0x2c9>
     fed: a2 00        	ldx	#$0
     fef: e4 12        	cpx	$12                     ; 0x2012 <printf+0x2c9>
     ff1: f0 03        	beq	$ff6 <f256main+0x8f8>
     ff3: 4c 87 10     	jmp	$1087 <f256main+0x989>
     ff6: 84 14        	sty	$14                     ; 0x2014 <printf+0x2cb>
     ff8: a6 27        	ldx	$27                     ; 0x2027 <printf+0x2de>
     ffa: 86 13        	stx	$13                     ; 0x2013 <printf+0x2ca>
     ffc: 86 12        	stx	$12                     ; 0x2012 <printf+0x2c9>
     ffe: c5 12        	cmp	$12                     ; 0x2012 <printf+0x2c9>
    1000: 4c 93 10     	jmp	$1093 <f256main+0x995>
    1003: a2 01        	ldx	#$1
    1005: 8a           	txa
    1006: 4c b6 09     	jmp	$9b6 <f256main+0x2b8>
    1009: a6 31        	ldx	$31                     ; 0x2031 <printf+0x2e8>
    100b: 86 2b        	stx	$2b                     ; 0x202b <printf+0x2e2>
    100d: 86 27        	stx	$27                     ; 0x2027 <printf+0x2de>
    100f: a6 32        	ldx	$32                     ; 0x2032 <printf+0x2e9>
    1011: 86 28        	stx	$28                     ; 0x2028 <printf+0x2df>
    1013: 86 2c        	stx	$2c                     ; 0x202c <printf+0x2e3>
    1015: a2 0b        	ldx	#$b
    1017: a5 26        	lda	$26                     ; 0x2026 <printf+0x2dd>
    1019: 20 51 29     	jsr	$2951 <__mulqi3>
    101c: a4 2c        	ldy	$2c                     ; 0x202c <printf+0x2e3>
    101e: 85 12        	sta	$12                     ; 0x2012 <printf+0x2c9>
    1020: aa           	tax
    1021: 38           	sec
    1022: a9 57        	lda	#$57
    1024: e5 12        	sbc	$12                     ; 0x2012 <printf+0x2c9>
    1026: 85 13        	sta	$13                     ; 0x2013 <printf+0x2ca>
    1028: a9 00        	lda	#$0
    102a: e9 00        	sbc	#$0
    102c: 85 12        	sta	$12                     ; 0x2012 <printf+0x2c9>
    102e: c4 12        	cpy	$12                     ; 0x2012 <printf+0x2c9>
    1030: f0 03        	beq	$1035 <f256main+0x937>
    1032: 4c b6 10     	jmp	$10b6 <f256main+0x9b8>
    1035: a4 2b        	ldy	$2b                     ; 0x202b <printf+0x2e2>
    1037: c4 13        	cpy	$13                     ; 0x2013 <printf+0x2ca>
    1039: 4c b8 10     	jmp	$10b8 <f256main+0x9ba>
    103c: a5 52        	lda	$52                     ; 0x2052 <printf+0x309>
    103e: 85 17        	sta	$17                     ; 0x2017 <printf+0x2ce>
    1040: 0a           	asl
    1041: 85 12        	sta	$12                     ; 0x2012 <printf+0x2c9>
    1043: a9 00        	lda	#$0
    1045: 2a           	rol
    1046: 85 13        	sta	$13                     ; 0x2013 <printf+0x2ca>
    1048: a9 3e        	lda	#$3e
    104a: 18           	clc
    104b: 65 12        	adc	$12                     ; 0x2012 <printf+0x2c9>
    104d: 85 12        	sta	$12                     ; 0x2012 <printf+0x2c9>
    104f: a9 00        	lda	#$0
    1051: 65 13        	adc	$13                     ; 0x2013 <printf+0x2ca>
    1053: 85 13        	sta	$13                     ; 0x2013 <printf+0x2ca>
    1055: b2 12        	lda	($12)                   ; 0x2012 <printf+0x2c9>
    1057: 85 15        	sta	$15                     ; 0x2015 <printf+0x2cc>
    1059: a0 01        	ldy	#$1
    105b: b1 12        	lda	($12),y                 ; 0x2012 <printf+0x2c9>
    105d: aa           	tax
    105e: 18           	clc
    105f: a5 16        	lda	$16                     ; 0x2016 <printf+0x2cd>
    1061: 65 26        	adc	$26                     ; 0x2026 <printf+0x2dd>
    1063: 86 16        	stx	$16                     ; 0x2016 <printf+0x2cd>
    1065: 86 14        	stx	$14                     ; 0x2014 <printf+0x2cb>
    1067: a2 00        	ldx	#$0
    1069: e4 14        	cpx	$14                     ; 0x2014 <printf+0x2cb>
    106b: f0 03        	beq	$1070 <f256main+0x972>
    106d: 4c 9a 11     	jmp	$119a <f256main+0xa9c>
    1070: a6 15        	ldx	$15                     ; 0x2015 <printf+0x2cc>
    1072: 86 14        	stx	$14                     ; 0x2014 <printf+0x2cb>
    1074: c5 14        	cmp	$14                     ; 0x2014 <printf+0x2cb>
    1076: b0 03        	bcs	$107b <f256main+0x97d>
    1078: 4c a5 11     	jmp	$11a5 <f256main+0xaa7>
    107b: a5 15        	lda	$15                     ; 0x2015 <printf+0x2cc>
    107d: 4c bf 11     	jmp	$11bf <f256main+0xac1>
    1080: a2 01        	ldx	#$1
    1082: 86 26        	stx	$26                     ; 0x2026 <printf+0x2dd>
    1084: 4c d2 12     	jmp	$12d2 <f256main+0xbd4>
    1087: 5a           	phy
    1088: a4 27        	ldy	$27                     ; 0x2027 <printf+0x2de>
    108a: 84 13        	sty	$13                     ; 0x2013 <printf+0x2ca>
    108c: 7a           	ply
    108d: 84 14        	sty	$14                     ; 0x2014 <printf+0x2cb>
    108f: 84 12        	sty	$12                     ; 0x2012 <printf+0x2c9>
    1091: e4 12        	cpx	$12                     ; 0x2012 <printf+0x2c9>
    1093: a0 01        	ldy	#$1
    1095: b0 12        	bcs	$10a9 <f256main+0x9ab>
    1097: 49 ff        	eor	#$ff
    1099: 85 12        	sta	$12                     ; 0x2012 <printf+0x2c9>
    109b: 18           	clc
    109c: a5 13        	lda	$13                     ; 0x2013 <printf+0x2ca>
    109e: 65 12        	adc	$12                     ; 0x2012 <printf+0x2c9>
    10a0: aa           	tax
    10a1: a5 14        	lda	$14                     ; 0x2014 <printf+0x2cb>
    10a3: 69 ff        	adc	#$ff
    10a5: 86 31        	stx	$31                     ; 0x2031 <printf+0x2e8>
    10a7: 85 32        	sta	$32                     ; 0x2032 <printf+0x2e9>
    10a9: 5a           	phy
    10aa: a0 04        	ldy	#$4
    10ac: b1 10        	lda	($10),y                 ; 0x2010 <printf+0x2c7>
    10ae: 7a           	ply
    10af: aa           	tax
    10b0: f0 2c        	beq	$10de <f256main+0x9e0>
    10b2: 64 31        	stz	$31                     ; 0x2031 <printf+0x2e8>
    10b4: 80 26        	bra	$10dc <f256main+0x9de>
    10b6: c4 12        	cpy	$12                     ; 0x2012 <printf+0x2c9>
    10b8: a0 01        	ldy	#$1
    10ba: b0 13        	bcs	$10cf <f256main+0x9d1>
    10bc: 18           	clc
    10bd: 8a           	txa
    10be: 65 27        	adc	$27                     ; 0x2027 <printf+0x2de>
    10c0: a8           	tay
    10c1: a9 00        	lda	#$0
    10c3: 65 28        	adc	$28                     ; 0x2028 <printf+0x2df>
    10c5: c8           	iny
    10c6: d0 01        	bne	$10c9 <f256main+0x9cb>
    10c8: 1a           	inc
    10c9: 84 31        	sty	$31                     ; 0x2031 <printf+0x2e8>
    10cb: 85 32        	sta	$32                     ; 0x2032 <printf+0x2e9>
    10cd: a0 01        	ldy	#$1
    10cf: 5a           	phy
    10d0: a0 04        	ldy	#$4
    10d2: b1 10        	lda	($10),y                 ; 0x2010 <printf+0x2c7>
    10d4: 7a           	ply
    10d5: aa           	tax
    10d6: f0 06        	beq	$10de <f256main+0x9e0>
    10d8: a2 57        	ldx	#$57
    10da: 86 31        	stx	$31                     ; 0x2031 <printf+0x2e8>
    10dc: 64 32        	stz	$32                     ; 0x2032 <printf+0x2e9>
    10de: a9 61        	lda	#$61
    10e0: 18           	clc
    10e1: 65 56        	adc	$56                     ; 0x2056 <printf+0x30d>
    10e3: a6 01        	ldx	$1                      ; 0x2001 <printf+0x2b8>
    10e5: 84 01        	sty	$1                      ; 0x2001 <printf+0x2b8>
    10e7: 0a           	asl
    10e8: 64 12        	stz	$12                     ; 0x2012 <printf+0x2c9>
    10ea: 26 12        	rol	$12                     ; 0x2012 <printf+0x2c9>
    10ec: 0a           	asl
    10ed: 85 13        	sta	$13                     ; 0x2013 <printf+0x2ca>
    10ef: 26 12        	rol	$12                     ; 0x2012 <printf+0x2c9>
    10f1: a9 00        	lda	#$0
    10f3: 18           	clc
    10f4: 65 13        	adc	$13                     ; 0x2013 <printf+0x2ca>
    10f6: 85 13        	sta	$13                     ; 0x2013 <printf+0x2ca>
    10f8: a9 d0        	lda	#$d0
    10fa: 65 12        	adc	$12                     ; 0x2012 <printf+0x2c9>
    10fc: 5a           	phy
    10fd: a4 13        	ldy	$13                     ; 0x2013 <printf+0x2ca>
    10ff: 84 12        	sty	$12                     ; 0x2012 <printf+0x2c9>
    1101: 7a           	ply
    1102: 85 13        	sta	$13                     ; 0x2013 <printf+0x2ca>
    1104: a9 00        	lda	#$0
    1106: 92 12        	sta	($12)                   ; 0x2012 <printf+0x2c9>
    1108: 91 12        	sta	($12),y                 ; 0x2012 <printf+0x2c9>
    110a: a0 02        	ldy	#$2
    110c: 91 12        	sta	($12),y                 ; 0x2012 <printf+0x2c9>
    110e: 3a           	dec
    110f: c8           	iny
    1110: 91 12        	sta	($12),y                 ; 0x2012 <printf+0x2c9>
    1112: 86 01        	stx	$1                      ; 0x2001 <printf+0x2b8>
    1114: a9 61        	lda	#$61
    1116: 18           	clc
    1117: 65 31        	adc	$31                     ; 0x2031 <printf+0x2e8>
    1119: 0a           	asl
    111a: 64 12        	stz	$12                     ; 0x2012 <printf+0x2c9>
    111c: 26 12        	rol	$12                     ; 0x2012 <printf+0x2c9>
    111e: 0a           	asl
    111f: 85 13        	sta	$13                     ; 0x2013 <printf+0x2ca>
    1121: 26 12        	rol	$12                     ; 0x2012 <printf+0x2c9>
    1123: a9 00        	lda	#$0
    1125: 18           	clc
    1126: 65 13        	adc	$13                     ; 0x2013 <printf+0x2ca>
    1128: aa           	tax
    1129: a9 d0        	lda	#$d0
    112b: 65 12        	adc	$12                     ; 0x2012 <printf+0x2c9>
    112d: 86 12        	stx	$12                     ; 0x2012 <printf+0x2c9>
    112f: 85 13        	sta	$13                     ; 0x2013 <printf+0x2ca>
    1131: a6 01        	ldx	$1                      ; 0x2001 <printf+0x2b8>
    1133: a0 01        	ldy	#$1
    1135: 84 01        	sty	$1                      ; 0x2001 <printf+0x2b8>
    1137: a9 00        	lda	#$0
    1139: 92 12        	sta	($12)                   ; 0x2012 <printf+0x2c9>
    113b: 91 12        	sta	($12),y                 ; 0x2012 <printf+0x2c9>
    113d: 3a           	dec
    113e: c8           	iny
    113f: 91 12        	sta	($12),y                 ; 0x2012 <printf+0x2c9>
    1141: c8           	iny
    1142: 91 12        	sta	($12),y                 ; 0x2012 <printf+0x2c9>
    1144: 86 01        	stx	$1                      ; 0x2001 <printf+0x2b8>
    1146: a6 31        	ldx	$31                     ; 0x2031 <printf+0x2e8>
    1148: 86 56        	stx	$56                     ; 0x2056 <printf+0x30d>
    114a: a6 32        	ldx	$32                     ; 0x2032 <printf+0x2e9>
    114c: 86 57        	stx	$57                     ; 0x2057 <printf+0x30e>
    114e: 4c d2 12     	jmp	$12d2 <f256main+0xbd4>
    1151: aa           	tax
    1152: c0 00        	cpy	#$0
    1154: b0 18        	bcs	$116e <f256main+0xa70>
    1156: 18           	clc
    1157: 8a           	txa
    1158: 65 14        	adc	$14                     ; 0x2014 <printf+0x2cb>
    115a: a8           	tay
    115b: a9 00        	lda	#$0
    115d: 65 15        	adc	$15                     ; 0x2015 <printf+0x2cc>
    115f: aa           	tax
    1160: 98           	tya
    1161: 1a           	inc
    1162: d0 01        	bne	$1165 <f256main+0xa67>
    1164: e8           	inx
    1165: 92 12        	sta	($12)                   ; 0x2012 <printf+0x2c9>
    1167: 85 14        	sta	$14                     ; 0x2014 <printf+0x2cb>
    1169: a0 01        	ldy	#$1
    116b: 8a           	txa
    116c: 91 12        	sta	($12),y                 ; 0x2012 <printf+0x2c9>
    116e: a5 14        	lda	$14                     ; 0x2014 <printf+0x2cb>
    1170: a0 07        	ldy	#$7
    1172: 91 10        	sta	($10),y                 ; 0x2010 <printf+0x2c7>
    1174: a0 04        	ldy	#$4
    1176: b1 10        	lda	($10),y                 ; 0x2010 <printf+0x2c7>
    1178: f0 12        	beq	$118c <f256main+0xa8e>
    117a: a9 7f        	lda	#$7f
    117c: aa           	tax
    117d: 48           	pha
    117e: 8a           	txa
    117f: a0 07        	ldy	#$7
    1181: 91 10        	sta	($10),y                 ; 0x2010 <printf+0x2c7>
    1183: 68           	pla
    1184: 92 12        	sta	($12)                   ; 0x2012 <printf+0x2c9>
    1186: a9 00        	lda	#$0
    1188: a0 01        	ldy	#$1
    118a: 91 12        	sta	($12),y                 ; 0x2012 <printf+0x2c9>
    118c: a5 17        	lda	$17                     ; 0x2017 <printf+0x2ce>
    118e: 09 c0        	ora	#$c0
    1190: 8d a1 dd     	sta	$dda1                   ; 0xdda1 <end_block9+0xa82b>
    1193: a0 07        	ldy	#$7
    1195: b1 10        	lda	($10),y                 ; 0x2010 <printf+0x2c7>
    1197: aa           	tax
    1198: 80 40        	bra	$11da <f256main+0xadc>
    119a: a4 16        	ldy	$16                     ; 0x2016 <printf+0x2cd>
    119c: 84 14        	sty	$14                     ; 0x2014 <printf+0x2cb>
    119e: e4 14        	cpx	$14                     ; 0x2014 <printf+0x2cb>
    11a0: 90 03        	bcc	$11a5 <f256main+0xaa7>
    11a2: 4c 7b 10     	jmp	$107b <f256main+0x97d>
    11a5: 49 ff        	eor	#$ff
    11a7: 85 14        	sta	$14                     ; 0x2014 <printf+0x2cb>
    11a9: 18           	clc
    11aa: a5 15        	lda	$15                     ; 0x2015 <printf+0x2cc>
    11ac: 65 14        	adc	$14                     ; 0x2014 <printf+0x2cb>
    11ae: aa           	tax
    11af: a5 16        	lda	$16                     ; 0x2016 <printf+0x2cd>
    11b1: 69 ff        	adc	#$ff
    11b3: 85 14        	sta	$14                     ; 0x2014 <printf+0x2cb>
    11b5: 8a           	txa
    11b6: 92 12        	sta	($12)                   ; 0x2012 <printf+0x2c9>
    11b8: a0 01        	ldy	#$1
    11ba: a5 14        	lda	$14                     ; 0x2014 <printf+0x2cb>
    11bc: 91 12        	sta	($12),y                 ; 0x2012 <printf+0x2c9>
    11be: 8a           	txa
    11bf: 48           	pha
    11c0: a0 04        	ldy	#$4
    11c2: b1 10        	lda	($10),y                 ; 0x2010 <printf+0x2c7>
    11c4: aa           	tax
    11c5: 68           	pla
    11c6: e0 00        	cpx	#$0
    11c8: f0 08        	beq	$11d2 <f256main+0xad4>
    11ca: a9 00        	lda	#$0
    11cc: 92 12        	sta	($12)                   ; 0x2012 <printf+0x2c9>
    11ce: a0 01        	ldy	#$1
    11d0: 91 12        	sta	($12),y                 ; 0x2012 <printf+0x2c9>
    11d2: aa           	tax
    11d3: a5 17        	lda	$17                     ; 0x2017 <printf+0x2ce>
    11d5: 09 c0        	ora	#$c0
    11d7: 8d a1 dd     	sta	$dda1                   ; 0xdda1 <end_block9+0xa82b>
    11da: 8e a1 dd     	stx	$dda1                   ; 0xdda1 <end_block9+0xa82b>
    11dd: 20 2b 15     	jsr	$152b <refreshInstrumentText>
    11e0: 4c d2 12     	jmp	$12d2 <f256main+0xbd4>
    11e3: 8a           	txa
    11e4: f0 03        	beq	$11e9 <f256main+0xaeb>
    11e6: 4c d2 12     	jmp	$12d2 <f256main+0xbd4>
    11e9: a2 80        	ldx	#$80
    11eb: 86 f3        	stx	$f3                     ; 0x20f3 <printf+0x3aa>
    11ed: 18           	clc
    11ee: a5 10        	lda	$10                     ; 0x2010 <printf+0x2c7>
    11f0: 69 09        	adc	#$9
    11f2: 85 12        	sta	$12                     ; 0x2012 <printf+0x2c9>
    11f4: a5 11        	lda	$11                     ; 0x2011 <printf+0x2c8>
    11f6: 69 00        	adc	#$0
    11f8: 85 13        	sta	$13                     ; 0x2013 <printf+0x2ca>
    11fa: 20 f0 ff     	jsr	$fff0 <end_block9+0xca7a>
    11fd: 92 12        	sta	($12)                   ; 0x2012 <printf+0x2c9>
    11ff: a9 00        	lda	#$0
    1201: 6a           	ror
    1202: 85 24        	sta	$24                     ; 0x2024 <printf+0x2db>
    1204: b2 12        	lda	($12)                   ; 0x2012 <printf+0x2c9>
    1206: 1a           	inc
    1207: 85 55        	sta	$55                     ; 0x2055 <printf+0x30c>
    1209: 64 f3        	stz	$f3                     ; 0x20f3 <printf+0x3aa>
    120b: a6 55        	ldx	$55                     ; 0x2055 <printf+0x30c>
    120d: 86 f4        	stx	$f4                     ; 0x20f4 <printf+0x3ab>
    120f: 64 f5        	stz	$f5                     ; 0x20f5 <printf+0x3ac>
    1211: 18           	clc
    1212: a5 10        	lda	$10                     ; 0x2010 <printf+0x2c7>
    1214: 69 0a        	adc	#$a
    1216: 85 12        	sta	$12                     ; 0x2012 <printf+0x2c9>
    1218: a5 11        	lda	$11                     ; 0x2011 <printf+0x2c8>
    121a: 69 00        	adc	#$0
    121c: 85 13        	sta	$13                     ; 0x2013 <printf+0x2ca>
    121e: 20 f0 ff     	jsr	$fff0 <end_block9+0xca7a>
    1221: 92 12        	sta	($12)                   ; 0x2012 <printf+0x2c9>
    1223: a9 00        	lda	#$0
    1225: 6a           	ror
    1226: 85 24        	sta	$24                     ; 0x2024 <printf+0x2db>
    1228: 4c d2 12     	jmp	$12d2 <f256main+0xbd4>
    122b: a2 c0        	ldx	#$c0
    122d: 8e a1 dd     	stx	$dda1                   ; 0xdda1 <end_block9+0xa82b>
    1230: a0 00        	ldy	#$0
    1232: 9c a1 dd     	stz	$dda1                   ; 0xdda1 <end_block9+0xa82b>
    1235: a9 c1        	lda	#$c1
    1237: 8d a1 dd     	sta	$dda1                   ; 0xdda1 <end_block9+0xa82b>
    123a: 9c a1 dd     	stz	$dda1                   ; 0xdda1 <end_block9+0xa82b>
    123d: a9 c9        	lda	#$c9
    123f: 8d a1 dd     	sta	$dda1                   ; 0xdda1 <end_block9+0xa82b>
    1242: 9c a1 dd     	stz	$dda1                   ; 0xdda1 <end_block9+0xa82b>
    1245: 64 3e        	stz	$3e                     ; 0x203e <printf+0x2f5>
    1247: 64 3f        	stz	$3f                     ; 0x203f <printf+0x2f6>
    1249: 64 40        	stz	$40                     ; 0x2040 <printf+0x2f7>
    124b: 64 41        	stz	$41                     ; 0x2041 <printf+0x2f8>
    124d: 64 50        	stz	$50                     ; 0x2050 <printf+0x307>
    124f: 64 51        	stz	$51                     ; 0x2051 <printf+0x308>
    1251: a9 ff        	lda	#$ff
    1253: 8d a1 dd     	sta	$dda1                   ; 0xdda1 <end_block9+0xa82b>
    1256: a9 02        	lda	#$2
    1258: 85 01        	sta	$1                      ; 0x2001 <printf+0x2b8>
    125a: a9 20        	lda	#$20
    125c: 84 12        	sty	$12                     ; 0x2012 <printf+0x2c9>
    125e: 86 13        	stx	$13                     ; 0x2013 <printf+0x2ca>
    1260: 92 12        	sta	($12)                   ; 0x2012 <printf+0x2c9>
    1262: c8           	iny
    1263: d0 01        	bne	$1266 <f256main+0xb68>
    1265: e8           	inx
    1266: e0 d2        	cpx	#$d2
    1268: d0 f2        	bne	$125c <f256main+0xb5e>
    126a: c0 c0        	cpy	#$c0
    126c: d0 ee        	bne	$125c <f256main+0xb5e>
    126e: 64 01        	stz	$1                      ; 0x2001 <printf+0x2b8>
    1270: 20 22 19     	jsr	$1922 <textTitle>
    1273: 4c d2 12     	jmp	$12d2 <f256main+0xbd4>
    1276: a2 09        	ldx	#$9
    1278: 80 01        	bra	$127b <f256main+0xb7d>
    127a: e8           	inx
    127b: 86 52        	stx	$52                     ; 0x2052 <printf+0x309>
    127d: 20 85 17     	jsr	$1785 <channelTextMenu>
    1280: 20 2b 15     	jsr	$152b <refreshInstrumentText>
    1283: a2 ff        	ldx	#$ff
    1285: 8e a1 dd     	stx	$dda1                   ; 0xdda1 <end_block9+0xa82b>
    1288: 80 21        	bra	$12ab <f256main+0xbad>
    128a: a2 02        	ldx	#$2
    128c: 86 01        	stx	$1                      ; 0x2001 <printf+0x2b8>
    128e: a2 c0        	ldx	#$c0
    1290: a0 00        	ldy	#$0
    1292: a9 20        	lda	#$20
    1294: 84 12        	sty	$12                     ; 0x2012 <printf+0x2c9>
    1296: 86 13        	stx	$13                     ; 0x2013 <printf+0x2ca>
    1298: 92 12        	sta	($12)                   ; 0x2012 <printf+0x2c9>
    129a: c8           	iny
    129b: d0 01        	bne	$129e <f256main+0xba0>
    129d: e8           	inx
    129e: e0 d2        	cpx	#$d2
    12a0: d0 f2        	bne	$1294 <f256main+0xb96>
    12a2: c0 c0        	cpy	#$c0
    12a4: d0 ee        	bne	$1294 <f256main+0xb96>
    12a6: 64 01        	stz	$1                      ; 0x2001 <printf+0x2b8>
    12a8: 20 22 19     	jsr	$1922 <textTitle>
    12ab: a5 52        	lda	$52                     ; 0x2052 <printf+0x309>
    12ad: 0a           	asl
    12ae: 85 12        	sta	$12                     ; 0x2012 <printf+0x2c9>
    12b0: a9 00        	lda	#$0
    12b2: 2a           	rol
    12b3: 85 13        	sta	$13                     ; 0x2013 <printf+0x2ca>
    12b5: a9 3e        	lda	#$3e
    12b7: 18           	clc
    12b8: 65 12        	adc	$12                     ; 0x2012 <printf+0x2c9>
    12ba: 85 12        	sta	$12                     ; 0x2012 <printf+0x2c9>
    12bc: a9 00        	lda	#$0
    12be: 65 13        	adc	$13                     ; 0x2013 <printf+0x2ca>
    12c0: 85 13        	sta	$13                     ; 0x2013 <printf+0x2ca>
    12c2: b2 12        	lda	($12)                   ; 0x2012 <printf+0x2c9>
    12c4: 85 12        	sta	$12                     ; 0x2012 <printf+0x2c9>
    12c6: a9 c0        	lda	#$c0
    12c8: 05 52        	ora	$52                     ; 0x2052 <printf+0x309>
    12ca: 8d a1 dd     	sta	$dda1                   ; 0xdda1 <end_block9+0xa82b>
    12cd: a6 12        	ldx	$12                     ; 0x2012 <printf+0x2c9>
    12cf: 8e a1 dd     	stx	$dda1                   ; 0xdda1 <end_block9+0xa82b>
    12d2: ad a0 dd     	lda	$dda0                   ; 0xdda0 <end_block9+0xa82a>
    12d5: 29 02        	and	#$2
    12d7: f0 03        	beq	$12dc <f256main+0xbde>
    12d9: 4c 26 09     	jmp	$926 <f256main+0x228>
    12dc: ae a2 dd     	ldx	$dda2                   ; 0xdda2 <end_block9+0xa82c>
    12df: 86 27        	stx	$27                     ; 0x2027 <printf+0x2de>
    12e1: ad a3 dd     	lda	$dda3                   ; 0xdda3 <end_block9+0xa82d>
    12e4: 29 0f        	and	#$f
    12e6: 85 28        	sta	$28                     ; 0x2028 <printf+0x2df>
    12e8: a2 05        	ldx	#$5
    12ea: 86 3a        	stx	$3a                     ; 0x203a <printf+0x2f1>
    12ec: 8e 14 d0     	stx	$d014                   ; 0xd014 <end_block9+0x9a9e>
    12ef: 9c 15 d0     	stz	$d015                   ; 0xd015 <end_block9+0x9a9f>
    12f2: ca           	dex
    12f3: 86 3b        	stx	$3b                     ; 0x203b <printf+0x2f2>
    12f5: 8e 16 d0     	stx	$d016                   ; 0xd016 <end_block9+0x9aa0>
    12f8: 9c 17 d0     	stz	$d017                   ; 0xd017 <end_block9+0x9aa1>
    12fb: a2 19        	ldx	#$19
    12fd: 86 12        	stx	$12                     ; 0x2012 <printf+0x2c9>
    12ff: a2 2c        	ldx	#$2c
    1301: 86 13        	stx	$13                     ; 0x2013 <printf+0x2ca>
    1303: 20 73 13     	jsr	$1373 <textPrint>
    1306: a2 05        	ldx	#$5
    1308: 86 3a        	stx	$3a                     ; 0x203a <printf+0x2f1>
    130a: 8e 14 d0     	stx	$d014                   ; 0xd014 <end_block9+0x9a9e>
    130d: 9c 15 d0     	stz	$d015                   ; 0xd015 <end_block9+0x9a9f>
    1310: ca           	dex
    1311: 86 3b        	stx	$3b                     ; 0x203b <printf+0x2f2>
    1313: 8e 16 d0     	stx	$d016                   ; 0xd016 <end_block9+0x9aa0>
    1316: 9c 17 d0     	stz	$d017                   ; 0xd017 <end_block9+0x9aa1>
    1319: a5 28        	lda	$28                     ; 0x2028 <printf+0x2df>
    131b: d0 07        	bne	$1324 <f256main+0xc26>
    131d: a5 27        	lda	$27                     ; 0x2027 <printf+0x2de>
    131f: d0 03        	bne	$1324 <f256main+0xc26>
    1321: 4c 26 09     	jmp	$926 <f256main+0x228>
    1324: a2 01        	ldx	#$1
    1326: 86 2b        	stx	$2b                     ; 0x202b <printf+0x2e2>
    1328: ae a1 dd     	ldx	$dda1                   ; 0xdda1 <end_block9+0xa82b>
    132b: 86 2c        	stx	$2c                     ; 0x202c <printf+0x2e3>
    132d: a2 90        	ldx	#$90
    132f: 86 30        	stx	$30                     ; 0x2030 <printf+0x2e7>
    1331: a5 2c        	lda	$2c                     ; 0x202c <printf+0x2e3>
    1333: 92 10        	sta	($10)                   ; 0x2010 <printf+0x2c7>
    1335: a0 01        	ldy	#$1
    1337: a9 00        	lda	#$0
    1339: 91 10        	sta	($10),y                 ; 0x2010 <printf+0x2c7>
    133b: a2 76        	ldx	#$76
    133d: 86 12        	stx	$12                     ; 0x2012 <printf+0x2c9>
    133f: a2 31        	ldx	#$31
    1341: 86 13        	stx	$13                     ; 0x2013 <printf+0x2ca>
    1343: 20 49 1d     	jsr	$1d49 <printf>
    1346: a5 2c        	lda	$2c                     ; 0x202c <printf+0x2e3>
    1348: 85 14        	sta	$14                     ; 0x2014 <printf+0x2cb>
    134a: a6 2a        	ldx	$2a                     ; 0x202a <printf+0x2e1>
    134c: d0 03        	bne	$1351 <f256main+0xc53>
    134e: 4c df 08     	jmp	$8df <f256main+0x1e1>
    1351: 18           	clc
    1352: 69 ec        	adc	#$ec
    1354: 48           	pha
    1355: a0 05        	ldy	#$5
    1357: b1 10        	lda	($10),y                 ; 0x2010 <printf+0x2c7>
    1359: aa           	tax
    135a: 68           	pla
    135b: e0 00        	cpx	#$0
    135d: d0 03        	bne	$1362 <f256main+0xc64>
    135f: 4c 73 08     	jmp	$873 <f256main+0x175>
    1362: a6 01        	ldx	$1                      ; 0x2001 <printf+0x2b8>
    1364: 86 15        	stx	$15                     ; 0x2015 <printf+0x2cc>
    1366: a0 01        	ldy	#$1
    1368: 84 01        	sty	$1                      ; 0x2001 <printf+0x2b8>
    136a: 64 12        	stz	$12                     ; 0x2012 <printf+0x2c9>
    136c: a2 ff        	ldx	#$ff
    136e: 64 16        	stz	$16                     ; 0x2016 <printf+0x2cd>
    1370: 4c ae 08     	jmp	$8ae <f256main+0x1b0>

00001373 <textPrint>:
    1373: a6 01        	ldx	$1                      ; 0x2001 <printf+0x2b8>
    1375: 86 b4        	stx	$b4                     ; 0x20b4 <printf+0x36b>
    1377: a6 3b        	ldx	$3b                     ; 0x203b <printf+0x2f2>
    1379: a0 50        	ldy	#$50
    137b: 8c 00 de     	sty	$de00                   ; 0xde00 <end_block9+0xa88a>
    137e: 9c 01 de     	stz	$de01                   ; 0xde01 <end_block9+0xa88b>
    1381: 8e 02 de     	stx	$de02                   ; 0xde02 <end_block9+0xa88c>
    1384: 9c 03 de     	stz	$de03                   ; 0xde03 <end_block9+0xa88d>
    1387: ae 10 de     	ldx	$de10                   ; 0xde10 <end_block9+0xa89a>
    138a: ac 11 de     	ldy	$de11                   ; 0xde11 <end_block9+0xa89b>
    138d: 84 15        	sty	$15                     ; 0x2015 <printf+0x2cc>
    138f: ad 12 de     	lda	$de12                   ; 0xde12 <end_block9+0xa89c>
    1392: ac 13 de     	ldy	$de13                   ; 0xde13 <end_block9+0xa89d>
    1395: 84 1c        	sty	$1c                     ; 0x201c <printf+0x2d3>
    1397: 9c 08 de     	stz	$de08                   ; 0xde08 <end_block9+0xa892>
    139a: a0 c0        	ldy	#$c0
    139c: 8c 09 de     	sty	$de09                   ; 0xde09 <end_block9+0xa893>
    139f: 9c 0a de     	stz	$de0a                   ; 0xde0a <end_block9+0xa894>
    13a2: 9c 0b de     	stz	$de0b                   ; 0xde0b <end_block9+0xa895>
    13a5: 8e 0c de     	stx	$de0c                   ; 0xde0c <end_block9+0xa896>
    13a8: 64 14        	stz	$14                     ; 0x2014 <printf+0x2cb>
    13aa: a2 00        	ldx	#$0
    13ac: 86 16        	stx	$16                     ; 0x2016 <printf+0x2cd>
    13ae: a2 c0        	ldx	#$c0
    13b0: 86 17        	stx	$17                     ; 0x2017 <printf+0x2ce>
    13b2: a2 11        	ldx	#$11
    13b4: 86 18        	stx	$18                     ; 0x2018 <printf+0x2cf>
    13b6: a2 c9        	ldx	#$c9
    13b8: 86 19        	stx	$19                     ; 0x2019 <printf+0x2d0>
    13ba: a2 10        	ldx	#$10
    13bc: 86 1a        	stx	$1a                     ; 0x201a <printf+0x2d1>
    13be: a2 c9        	ldx	#$c9
    13c0: 86 1b        	stx	$1b                     ; 0x201b <printf+0x2d2>
    13c2: a6 15        	ldx	$15                     ; 0x2015 <printf+0x2cc>
    13c4: 8e 0d de     	stx	$de0d                   ; 0xde0d <end_block9+0xa897>
    13c7: 8d 0e de     	sta	$de0e                   ; 0xde0e <end_block9+0xa898>
    13ca: a6 1c        	ldx	$1c                     ; 0x201c <printf+0x2d3>
    13cc: 8e 0f de     	stx	$de0f                   ; 0xde0f <end_block9+0xa899>
    13cf: ac 18 de     	ldy	$de18                   ; 0xde18 <end_block9+0xa8a2>
    13d2: ad 19 de     	lda	$de19                   ; 0xde19 <end_block9+0xa8a3>
    13d5: ae 1a de     	ldx	$de1a                   ; 0xde1a <end_block9+0xa8a4>
    13d8: ae 1b de     	ldx	$de1b                   ; 0xde1b <end_block9+0xa8a5>
    13db: 84 1c        	sty	$1c                     ; 0x201c <printf+0x2d3>
    13dd: 85 1d        	sta	$1d                     ; 0x201d <printf+0x2d4>
    13df: 64 15        	stz	$15                     ; 0x2015 <printf+0x2cc>
    13e1: 80 13        	bra	$13f6 <textPrint+0x83>
    13e3: a5 1c        	lda	$1c                     ; 0x201c <printf+0x2d3>
    13e5: 18           	clc
    13e6: 69 50        	adc	#$50
    13e8: 85 1c        	sta	$1c                     ; 0x201c <printf+0x2d3>
    13ea: a5 1d        	lda	$1d                     ; 0x201d <printf+0x2d4>
    13ec: 69 00        	adc	#$0
    13ee: 85 1d        	sta	$1d                     ; 0x201d <printf+0x2d4>
    13f0: e6 14        	inc	$14                     ; 0x2014 <printf+0x2cb>
    13f2: d0 02        	bne	$13f6 <textPrint+0x83>
    13f4: e6 15        	inc	$15                     ; 0x2015 <printf+0x2cc>
    13f6: a5 12        	lda	$12                     ; 0x2012 <printf+0x2c9>
    13f8: 18           	clc
    13f9: 65 14        	adc	$14                     ; 0x2014 <printf+0x2cb>
    13fb: 85 1e        	sta	$1e                     ; 0x201e <printf+0x2d5>
    13fd: a5 13        	lda	$13                     ; 0x2013 <printf+0x2ca>
    13ff: 65 15        	adc	$15                     ; 0x2015 <printf+0x2cc>
    1401: 85 1f        	sta	$1f                     ; 0x201f <printf+0x2d6>
    1403: b2 1e        	lda	($1e)                   ; 0x201e <printf+0x2d5>
    1405: c9 0a        	cmp	#$a
    1407: f0 26        	beq	$142f <textPrint+0xbc>
    1409: c9 0d        	cmp	#$d
    140b: f0 22        	beq	$142f <textPrint+0xbc>
    140d: aa           	tax
    140e: d0 03        	bne	$1413 <textPrint+0xa0>
    1410: 4c 14 15     	jmp	$1514 <textPrint+0x1a1>
    1413: a2 03        	ldx	#$3
    1415: 86 01        	stx	$1                      ; 0x2001 <printf+0x2b8>
    1417: a5 30        	lda	$30                     ; 0x2030 <printf+0x2e7>
    1419: a4 3a        	ldy	$3a                     ; 0x203a <printf+0x2f1>
    141b: 91 1c        	sta	($1c),y                 ; 0x201c <printf+0x2d3>
    141d: ca           	dex
    141e: 86 01        	stx	$1                      ; 0x2001 <printf+0x2b8>
    1420: b2 1e        	lda	($1e)                   ; 0x201e <printf+0x2d5>
    1422: a4 3a        	ldy	$3a                     ; 0x203a <printf+0x2f1>
    1424: 91 1c        	sta	($1c),y                 ; 0x201c <printf+0x2d3>
    1426: a6 3a        	ldx	$3a                     ; 0x203a <printf+0x2f1>
    1428: e8           	inx
    1429: e6 3a        	inc	$3a                     ; 0x203a <printf+0x2f1>
    142b: e0 50        	cpx	#$50
    142d: d0 c1        	bne	$13f0 <textPrint+0x7d>
    142f: 64 3a        	stz	$3a                     ; 0x203a <printf+0x2f1>
    1431: a6 3b        	ldx	$3b                     ; 0x203b <printf+0x2f2>
    1433: e8           	inx
    1434: e6 3b        	inc	$3b                     ; 0x203b <printf+0x2f2>
    1436: e0 1e        	cpx	#$1e
    1438: f0 03        	beq	$143d <textPrint+0xca>
    143a: 4c e3 13     	jmp	$13e3 <textPrint+0x70>
    143d: a2 03        	ldx	#$3
    143f: 86 01        	stx	$1                      ; 0x2001 <printf+0x2b8>
    1441: a2 01        	ldx	#$1
    1443: 86 1c        	stx	$1c                     ; 0x201c <printf+0x2d3>
    1445: a2 09        	ldx	#$9
    1447: a9 10        	lda	#$10
    1449: a0 00        	ldy	#$0
    144b: 84 1e        	sty	$1e                     ; 0x201e <printf+0x2d5>
    144d: a0 c0        	ldy	#$c0
    144f: 84 1f        	sty	$1f                     ; 0x201f <printf+0x2d6>
    1451: 85 1d        	sta	$1d                     ; 0x201d <printf+0x2d4>
    1453: a0 50        	ldy	#$50
    1455: b1 1e        	lda	($1e),y                 ; 0x201e <printf+0x2d5>
    1457: 92 1e        	sta	($1e)                   ; 0x201e <printf+0x2d5>
    1459: a9 ff        	lda	#$ff
    145b: c6 1d        	dec	$1d                     ; 0x201d <printf+0x2d4>
    145d: c5 1d        	cmp	$1d                     ; 0x201d <printf+0x2d4>
    145f: d0 01        	bne	$1462 <textPrint+0xef>
    1461: ca           	dex
    1462: e6 1e        	inc	$1e                     ; 0x201e <printf+0x2d5>
    1464: d0 02        	bne	$1468 <textPrint+0xf5>
    1466: e6 1f        	inc	$1f                     ; 0x201f <printf+0x2d6>
    1468: 8a           	txa
    1469: d0 ea        	bne	$1455 <textPrint+0xe2>
    146b: a5 1d        	lda	$1d                     ; 0x201d <printf+0x2d4>
    146d: d0 e6        	bne	$1455 <textPrint+0xe2>
    146f: a2 02        	ldx	#$2
    1471: 86 01        	stx	$1                      ; 0x2001 <printf+0x2b8>
    1473: a2 00        	ldx	#$0
    1475: a5 1c        	lda	$1c                     ; 0x201c <printf+0x2d3>
    1477: d0 ca        	bne	$1443 <textPrint+0xd0>
    1479: a2 03        	ldx	#$3
    147b: 86 01        	stx	$1                      ; 0x2001 <printf+0x2b8>
    147d: a5 30        	lda	$30                     ; 0x2030 <printf+0x2e7>
    147f: a2 50        	ldx	#$50
    1481: a0 11        	ldy	#$11
    1483: 84 1c        	sty	$1c                     ; 0x201c <printf+0x2d3>
    1485: a0 c9        	ldy	#$c9
    1487: 84 1d        	sty	$1d                     ; 0x201d <printf+0x2d4>
    1489: a0 10        	ldy	#$10
    148b: 84 1e        	sty	$1e                     ; 0x201e <printf+0x2d5>
    148d: a0 c9        	ldy	#$c9
    148f: 84 1f        	sty	$1f                     ; 0x201f <printf+0x2d6>
    1491: a4 1c        	ldy	$1c                     ; 0x201c <printf+0x2d3>
    1493: 84 22        	sty	$22                     ; 0x2022 <printf+0x2d9>
    1495: a4 1d        	ldy	$1d                     ; 0x201d <printf+0x2d4>
    1497: 84 23        	sty	$23                     ; 0x2023 <printf+0x2da>
    1499: 92 1e        	sta	($1e)                   ; 0x201e <printf+0x2d5>
    149b: e6 1c        	inc	$1c                     ; 0x201c <printf+0x2d3>
    149d: d0 02        	bne	$14a1 <textPrint+0x12e>
    149f: e6 1d        	inc	$1d                     ; 0x201d <printf+0x2d4>
    14a1: ca           	dex
    14a2: a4 22        	ldy	$22                     ; 0x2022 <printf+0x2d9>
    14a4: 84 1e        	sty	$1e                     ; 0x201e <printf+0x2d5>
    14a6: a4 23        	ldy	$23                     ; 0x2023 <printf+0x2da>
    14a8: 84 1f        	sty	$1f                     ; 0x201f <printf+0x2d6>
    14aa: e0 00        	cpx	#$0
    14ac: d0 e3        	bne	$1491 <textPrint+0x11e>
    14ae: a2 02        	ldx	#$2
    14b0: 86 01        	stx	$1                      ; 0x2001 <printf+0x2b8>
    14b2: a2 50        	ldx	#$50
    14b4: a0 11        	ldy	#$11
    14b6: 84 1c        	sty	$1c                     ; 0x201c <printf+0x2d3>
    14b8: a0 c9        	ldy	#$c9
    14ba: 84 1d        	sty	$1d                     ; 0x201d <printf+0x2d4>
    14bc: a0 10        	ldy	#$10
    14be: 84 1e        	sty	$1e                     ; 0x201e <printf+0x2d5>
    14c0: a0 c9        	ldy	#$c9
    14c2: 84 1f        	sty	$1f                     ; 0x201f <printf+0x2d6>
    14c4: a9 20        	lda	#$20
    14c6: a4 1c        	ldy	$1c                     ; 0x201c <printf+0x2d3>
    14c8: 84 22        	sty	$22                     ; 0x2022 <printf+0x2d9>
    14ca: a4 1d        	ldy	$1d                     ; 0x201d <printf+0x2d4>
    14cc: 84 23        	sty	$23                     ; 0x2023 <printf+0x2da>
    14ce: 92 1e        	sta	($1e)                   ; 0x201e <printf+0x2d5>
    14d0: e6 1c        	inc	$1c                     ; 0x201c <printf+0x2d3>
    14d2: d0 02        	bne	$14d6 <textPrint+0x163>
    14d4: e6 1d        	inc	$1d                     ; 0x201d <printf+0x2d4>
    14d6: ca           	dex
    14d7: a4 22        	ldy	$22                     ; 0x2022 <printf+0x2d9>
    14d9: 84 1e        	sty	$1e                     ; 0x201e <printf+0x2d5>
    14db: a4 23        	ldy	$23                     ; 0x2023 <printf+0x2da>
    14dd: 84 1f        	sty	$1f                     ; 0x201f <printf+0x2d6>
    14df: e0 00        	cpx	#$0
    14e1: d0 e3        	bne	$14c6 <textPrint+0x153>
    14e3: c6 3b        	dec	$3b                     ; 0x203b <printf+0x2f2>
    14e5: 9c 08 de     	stz	$de08                   ; 0xde08 <end_block9+0xa892>
    14e8: a2 c0        	ldx	#$c0
    14ea: 8e 09 de     	stx	$de09                   ; 0xde09 <end_block9+0xa893>
    14ed: 9c 0a de     	stz	$de0a                   ; 0xde0a <end_block9+0xa894>
    14f0: 9c 0b de     	stz	$de0b                   ; 0xde0b <end_block9+0xa895>
    14f3: a2 1d        	ldx	#$1d
    14f5: 8e 0c de     	stx	$de0c                   ; 0xde0c <end_block9+0xa896>
    14f8: 9c 0d de     	stz	$de0d                   ; 0xde0d <end_block9+0xa897>
    14fb: 9c 0e de     	stz	$de0e                   ; 0xde0e <end_block9+0xa898>
    14fe: 9c 0f de     	stz	$de0f                   ; 0xde0f <end_block9+0xa899>
    1501: ae 18 de     	ldx	$de18                   ; 0xde18 <end_block9+0xa8a2>
    1504: ac 19 de     	ldy	$de19                   ; 0xde19 <end_block9+0xa8a3>
    1507: ad 1a de     	lda	$de1a                   ; 0xde1a <end_block9+0xa8a4>
    150a: ad 1b de     	lda	$de1b                   ; 0xde1b <end_block9+0xa8a5>
    150d: 86 1c        	stx	$1c                     ; 0x201c <printf+0x2d3>
    150f: 84 1d        	sty	$1d                     ; 0x201d <printf+0x2d4>
    1511: 4c f0 13     	jmp	$13f0 <textPrint+0x7d>
    1514: a6 b4        	ldx	$b4                     ; 0x20b4 <printf+0x36b>
    1516: 86 01        	stx	$1                      ; 0x2001 <printf+0x2b8>
    1518: a6 3a        	ldx	$3a                     ; 0x203a <printf+0x2f1>
    151a: a4 3b        	ldy	$3b                     ; 0x203b <printf+0x2f2>
    151c: 8e 14 d0     	stx	$d014                   ; 0xd014 <end_block9+0x9a9e>
    151f: 9c 15 d0     	stz	$d015                   ; 0xd015 <end_block9+0x9a9f>
    1522: 84 3b        	sty	$3b                     ; 0x203b <printf+0x2f2>
    1524: 8c 16 d0     	sty	$d016                   ; 0xd016 <end_block9+0x9aa0>
    1527: 9c 17 d0     	stz	$d017                   ; 0xd017 <end_block9+0x9aa1>
    152a: 60           	rts

0000152b <refreshInstrumentText>:
    152b: 18           	clc
    152c: a5 10        	lda	$10                     ; 0x2010 <printf+0x2c7>
    152e: 69 fc        	adc	#$fc
    1530: 85 10        	sta	$10                     ; 0x2010 <printf+0x2c7>
    1532: a5 11        	lda	$11                     ; 0x2011 <printf+0x2c8>
    1534: 69 ff        	adc	#$ff
    1536: 85 11        	sta	$11                     ; 0x2011 <printf+0x2c8>
    1538: a2 05        	ldx	#$5
    153a: 86 3a        	stx	$3a                     ; 0x203a <printf+0x2f1>
    153c: 8e 14 d0     	stx	$d014                   ; 0xd014 <end_block9+0x9a9e>
    153f: 9c 15 d0     	stz	$d015                   ; 0xd015 <end_block9+0x9a9f>
    1542: a2 1e        	ldx	#$1e
    1544: 86 3b        	stx	$3b                     ; 0x203b <printf+0x2f2>
    1546: 8e 16 d0     	stx	$d016                   ; 0xd016 <end_block9+0x9aa0>
    1549: 9c 17 d0     	stz	$d017                   ; 0xd017 <end_block9+0x9aa1>
    154c: a2 05        	ldx	#$5
    154e: 86 12        	stx	$12                     ; 0x2012 <printf+0x2c9>
    1550: a2 2d        	ldx	#$2d
    1552: 86 13        	stx	$13                     ; 0x2013 <printf+0x2ca>
    1554: 20 73 13     	jsr	$1373 <textPrint>
    1557: a2 05        	ldx	#$5
    1559: 86 3a        	stx	$3a                     ; 0x203a <printf+0x2f1>
    155b: 8e 14 d0     	stx	$d014                   ; 0xd014 <end_block9+0x9a9e>
    155e: 9c 15 d0     	stz	$d015                   ; 0xd015 <end_block9+0x9a9f>
    1561: a2 1f        	ldx	#$1f
    1563: 86 3b        	stx	$3b                     ; 0x203b <printf+0x2f2>
    1565: 8e 16 d0     	stx	$d016                   ; 0xd016 <end_block9+0x9aa0>
    1568: 9c 17 d0     	stz	$d017                   ; 0xd017 <end_block9+0x9aa1>
    156b: a2 05        	ldx	#$5
    156d: 86 12        	stx	$12                     ; 0x2012 <printf+0x2c9>
    156f: a2 2d        	ldx	#$2d
    1571: 86 13        	stx	$13                     ; 0x2013 <printf+0x2ca>
    1573: 20 73 13     	jsr	$1373 <textPrint>
    1576: a2 05        	ldx	#$5
    1578: 86 3a        	stx	$3a                     ; 0x203a <printf+0x2f1>
    157a: 8e 14 d0     	stx	$d014                   ; 0xd014 <end_block9+0x9a9e>
    157d: 9c 15 d0     	stz	$d015                   ; 0xd015 <end_block9+0x9a9f>
    1580: a2 1e        	ldx	#$1e
    1582: 86 3b        	stx	$3b                     ; 0x203b <printf+0x2f2>
    1584: 8e 16 d0     	stx	$d016                   ; 0xd016 <end_block9+0x9aa0>
    1587: 9c 17 d0     	stz	$d017                   ; 0xd017 <end_block9+0x9aa1>
    158a: a4 52        	ldy	$52                     ; 0x2052 <printf+0x309>
    158c: a2 90        	ldx	#$90
    158e: 98           	tya
    158f: f0 02        	beq	$1593 <refreshInstrumentText+0x68>
    1591: a2 40        	ldx	#$40
    1593: 86 30        	stx	$30                     ; 0x2030 <printf+0x2e7>
    1595: a6 3e        	ldx	$3e                     ; 0x203e <printf+0x2f5>
    1597: a4 3f        	ldy	$3f                     ; 0x203f <printf+0x2f6>
    1599: 84 14        	sty	$14                     ; 0x2014 <printf+0x2cb>
    159b: 8a           	txa
    159c: 0a           	asl
    159d: 85 12        	sta	$12                     ; 0x2012 <printf+0x2c9>
    159f: 98           	tya
    15a0: 2a           	rol
    15a1: 85 13        	sta	$13                     ; 0x2013 <printf+0x2ca>
    15a3: a9 71        	lda	#$71
    15a5: 18           	clc
    15a6: 65 12        	adc	$12                     ; 0x2012 <printf+0x2c9>
    15a8: 85 12        	sta	$12                     ; 0x2012 <printf+0x2c9>
    15aa: a9 34        	lda	#$34
    15ac: 65 13        	adc	$13                     ; 0x2013 <printf+0x2ca>
    15ae: a0 01        	ldy	#$1
    15b0: 85 13        	sta	$13                     ; 0x2013 <printf+0x2ca>
    15b2: b2 12        	lda	($12)                   ; 0x2012 <printf+0x2c9>
    15b4: 85 15        	sta	$15                     ; 0x2015 <printf+0x2cc>
    15b6: b1 12        	lda	($12),y                 ; 0x2012 <printf+0x2c9>
    15b8: 85 16        	sta	$16                     ; 0x2016 <printf+0x2cd>
    15ba: 8a           	txa
    15bb: 92 10        	sta	($10)                   ; 0x2010 <printf+0x2c7>
    15bd: a5 14        	lda	$14                     ; 0x2014 <printf+0x2cb>
    15bf: 91 10        	sta	($10),y                 ; 0x2010 <printf+0x2c7>
    15c1: 18           	clc
    15c2: a5 10        	lda	$10                     ; 0x2010 <printf+0x2c7>
    15c4: 69 02        	adc	#$2
    15c6: 85 12        	sta	$12                     ; 0x2012 <printf+0x2c9>
    15c8: a5 11        	lda	$11                     ; 0x2011 <printf+0x2c8>
    15ca: 69 00        	adc	#$0
    15cc: 85 13        	sta	$13                     ; 0x2013 <printf+0x2ca>
    15ce: c8           	iny
    15cf: a5 15        	lda	$15                     ; 0x2015 <printf+0x2cc>
    15d1: 91 10        	sta	($10),y                 ; 0x2010 <printf+0x2c7>
    15d3: a5 16        	lda	$16                     ; 0x2016 <printf+0x2cd>
    15d5: 88           	dey
    15d6: 91 12        	sta	($12),y                 ; 0x2012 <printf+0x2c9>
    15d8: a2 88        	ldx	#$88
    15da: 86 12        	stx	$12                     ; 0x2012 <printf+0x2c9>
    15dc: a2 2c        	ldx	#$2c
    15de: 86 13        	stx	$13                     ; 0x2013 <printf+0x2ca>
    15e0: 20 49 1d     	jsr	$1d49 <printf>
    15e3: a2 05        	ldx	#$5
    15e5: 86 3a        	stx	$3a                     ; 0x203a <printf+0x2f1>
    15e7: 8e 14 d0     	stx	$d014                   ; 0xd014 <end_block9+0x9a9e>
    15ea: 9c 15 d0     	stz	$d015                   ; 0xd015 <end_block9+0x9a9f>
    15ed: a2 1f        	ldx	#$1f
    15ef: 86 3b        	stx	$3b                     ; 0x203b <printf+0x2f2>
    15f1: 8e 16 d0     	stx	$d016                   ; 0xd016 <end_block9+0x9aa0>
    15f4: 9c 17 d0     	stz	$d017                   ; 0xd017 <end_block9+0x9aa1>
    15f7: a6 52        	ldx	$52                     ; 0x2052 <printf+0x309>
    15f9: a0 90        	ldy	#$90
    15fb: e0 01        	cpx	#$1
    15fd: f0 02        	beq	$1601 <refreshInstrumentText+0xd6>
    15ff: a0 40        	ldy	#$40
    1601: 84 30        	sty	$30                     ; 0x2030 <printf+0x2e7>
    1603: a6 40        	ldx	$40                     ; 0x2040 <printf+0x2f7>
    1605: a4 41        	ldy	$41                     ; 0x2041 <printf+0x2f8>
    1607: 84 14        	sty	$14                     ; 0x2014 <printf+0x2cb>
    1609: 8a           	txa
    160a: 0a           	asl
    160b: 85 12        	sta	$12                     ; 0x2012 <printf+0x2c9>
    160d: 98           	tya
    160e: 2a           	rol
    160f: 85 13        	sta	$13                     ; 0x2013 <printf+0x2ca>
    1611: a9 71        	lda	#$71
    1613: 18           	clc
    1614: 65 12        	adc	$12                     ; 0x2012 <printf+0x2c9>
    1616: 85 12        	sta	$12                     ; 0x2012 <printf+0x2c9>
    1618: a9 34        	lda	#$34
    161a: 65 13        	adc	$13                     ; 0x2013 <printf+0x2ca>
    161c: 85 13        	sta	$13                     ; 0x2013 <printf+0x2ca>
    161e: b2 12        	lda	($12)                   ; 0x2012 <printf+0x2c9>
    1620: 85 16        	sta	$16                     ; 0x2016 <printf+0x2cd>
    1622: a0 01        	ldy	#$1
    1624: b1 12        	lda	($12),y                 ; 0x2012 <printf+0x2c9>
    1626: 85 15        	sta	$15                     ; 0x2015 <printf+0x2cc>
    1628: a5 10        	lda	$10                     ; 0x2010 <printf+0x2c7>
    162a: a4 11        	ldy	$11                     ; 0x2011 <printf+0x2c8>
    162c: 18           	clc
    162d: 69 02        	adc	#$2
    162f: 85 12        	sta	$12                     ; 0x2012 <printf+0x2c9>
    1631: 98           	tya
    1632: 69 00        	adc	#$0
    1634: 85 13        	sta	$13                     ; 0x2013 <printf+0x2ca>
    1636: a0 02        	ldy	#$2
    1638: a5 16        	lda	$16                     ; 0x2016 <printf+0x2cd>
    163a: 91 10        	sta	($10),y                 ; 0x2010 <printf+0x2c7>
    163c: 8a           	txa
    163d: 92 10        	sta	($10)                   ; 0x2010 <printf+0x2c7>
    163f: a5 14        	lda	$14                     ; 0x2014 <printf+0x2cb>
    1641: 88           	dey
    1642: 91 10        	sta	($10),y                 ; 0x2010 <printf+0x2c7>
    1644: a5 15        	lda	$15                     ; 0x2015 <printf+0x2cc>
    1646: 91 12        	sta	($12),y                 ; 0x2012 <printf+0x2c9>
    1648: a2 88        	ldx	#$88
    164a: 86 12        	stx	$12                     ; 0x2012 <printf+0x2c9>
    164c: a2 2c        	ldx	#$2c
    164e: 86 13        	stx	$13                     ; 0x2013 <printf+0x2ca>
    1650: 20 49 1d     	jsr	$1d49 <printf>
    1653: a2 05        	ldx	#$5
    1655: 86 3a        	stx	$3a                     ; 0x203a <printf+0x2f1>
    1657: 8e 14 d0     	stx	$d014                   ; 0xd014 <end_block9+0x9a9e>
    165a: 9c 15 d0     	stz	$d015                   ; 0xd015 <end_block9+0x9a9f>
    165d: a2 20        	ldx	#$20
    165f: 86 3b        	stx	$3b                     ; 0x203b <printf+0x2f2>
    1661: 8e 16 d0     	stx	$d016                   ; 0xd016 <end_block9+0x9aa0>
    1664: 9c 17 d0     	stz	$d017                   ; 0xd017 <end_block9+0x9aa1>
    1667: a4 52        	ldy	$52                     ; 0x2052 <printf+0x309>
    1669: a2 90        	ldx	#$90
    166b: 84 5a        	sty	$5a                     ; 0x205a <printf+0x311>
    166d: c0 09        	cpy	#$9
    166f: f0 02        	beq	$1673 <refreshInstrumentText+0x148>
    1671: a2 40        	ldx	#$40
    1673: 86 30        	stx	$30                     ; 0x2030 <printf+0x2e7>
    1675: a2 1a        	ldx	#$1a
    1677: 86 12        	stx	$12                     ; 0x2012 <printf+0x2c9>
    1679: a2 31        	ldx	#$31
    167b: 86 13        	stx	$13                     ; 0x2013 <printf+0x2ca>
    167d: 20 73 13     	jsr	$1373 <textPrint>
    1680: a2 90        	ldx	#$90
    1682: 86 30        	stx	$30                     ; 0x2030 <printf+0x2e7>
    1684: a6 5a        	ldx	$5a                     ; 0x205a <printf+0x311>
    1686: e0 09        	cpx	#$9
    1688: d0 03        	bne	$168d <refreshInstrumentText+0x162>
    168a: 4c 24 17     	jmp	$1724 <refreshInstrumentText+0x1f9>
    168d: e0 01        	cpx	#$1
    168f: f0 3e        	beq	$16cf <refreshInstrumentText+0x1a4>
    1691: 8a           	txa
    1692: f0 03        	beq	$1697 <refreshInstrumentText+0x16c>
    1694: 4c 77 17     	jmp	$1777 <refreshInstrumentText+0x24c>
    1697: 64 3a        	stz	$3a                     ; 0x203a <printf+0x2f1>
    1699: 9c 14 d0     	stz	$d014                   ; 0xd014 <end_block9+0x9a9e>
    169c: 9c 15 d0     	stz	$d015                   ; 0xd015 <end_block9+0x9a9f>
    169f: a2 1e        	ldx	#$1e
    16a1: 86 3b        	stx	$3b                     ; 0x203b <printf+0x2f2>
    16a3: 8e 16 d0     	stx	$d016                   ; 0xd016 <end_block9+0x9aa0>
    16a6: 9c 17 d0     	stz	$d017                   ; 0xd017 <end_block9+0x9aa1>
    16a9: a9 fa        	lda	#$fa
    16ab: a2 00        	ldx	#$0
    16ad: 20 f9 28     	jsr	$28f9 <putchar>
    16b0: 64 3a        	stz	$3a                     ; 0x203a <printf+0x2f1>
    16b2: 9c 14 d0     	stz	$d014                   ; 0xd014 <end_block9+0x9a9e>
    16b5: 9c 15 d0     	stz	$d015                   ; 0xd015 <end_block9+0x9a9f>
    16b8: a2 1f        	ldx	#$1f
    16ba: 86 3b        	stx	$3b                     ; 0x203b <printf+0x2f2>
    16bc: 8e 16 d0     	stx	$d016                   ; 0xd016 <end_block9+0x9aa0>
    16bf: 9c 17 d0     	stz	$d017                   ; 0xd017 <end_block9+0x9aa1>
    16c2: a2 13        	ldx	#$13
    16c4: 86 12        	stx	$12                     ; 0x2012 <printf+0x2c9>
    16c6: a2 2c        	ldx	#$2c
    16c8: 86 13        	stx	$13                     ; 0x2013 <printf+0x2ca>
    16ca: 20 73 13     	jsr	$1373 <textPrint>
    16cd: 80 36        	bra	$1705 <refreshInstrumentText+0x1da>
    16cf: 64 3a        	stz	$3a                     ; 0x203a <printf+0x2f1>
    16d1: 9c 14 d0     	stz	$d014                   ; 0xd014 <end_block9+0x9a9e>
    16d4: 9c 15 d0     	stz	$d015                   ; 0xd015 <end_block9+0x9a9f>
    16d7: a2 1e        	ldx	#$1e
    16d9: 86 3b        	stx	$3b                     ; 0x203b <printf+0x2f2>
    16db: 8e 16 d0     	stx	$d016                   ; 0xd016 <end_block9+0x9aa0>
    16de: 9c 17 d0     	stz	$d017                   ; 0xd017 <end_block9+0x9aa1>
    16e1: a2 13        	ldx	#$13
    16e3: 86 12        	stx	$12                     ; 0x2012 <printf+0x2c9>
    16e5: a2 2c        	ldx	#$2c
    16e7: 86 13        	stx	$13                     ; 0x2013 <printf+0x2ca>
    16e9: 20 73 13     	jsr	$1373 <textPrint>
    16ec: 64 3a        	stz	$3a                     ; 0x203a <printf+0x2f1>
    16ee: 9c 14 d0     	stz	$d014                   ; 0xd014 <end_block9+0x9a9e>
    16f1: 9c 15 d0     	stz	$d015                   ; 0xd015 <end_block9+0x9a9f>
    16f4: a2 1f        	ldx	#$1f
    16f6: 86 3b        	stx	$3b                     ; 0x203b <printf+0x2f2>
    16f8: 8e 16 d0     	stx	$d016                   ; 0xd016 <end_block9+0x9aa0>
    16fb: 9c 17 d0     	stz	$d017                   ; 0xd017 <end_block9+0x9aa1>
    16fe: a9 fa        	lda	#$fa
    1700: a2 00        	ldx	#$0
    1702: 20 f9 28     	jsr	$28f9 <putchar>
    1705: 64 3a        	stz	$3a                     ; 0x203a <printf+0x2f1>
    1707: 9c 14 d0     	stz	$d014                   ; 0xd014 <end_block9+0x9a9e>
    170a: 9c 15 d0     	stz	$d015                   ; 0xd015 <end_block9+0x9a9f>
    170d: a2 20        	ldx	#$20
    170f: 86 3b        	stx	$3b                     ; 0x203b <printf+0x2f2>
    1711: 8e 16 d0     	stx	$d016                   ; 0xd016 <end_block9+0x9aa0>
    1714: 9c 17 d0     	stz	$d017                   ; 0xd017 <end_block9+0x9aa1>
    1717: a2 13        	ldx	#$13
    1719: 86 12        	stx	$12                     ; 0x2012 <printf+0x2c9>
    171b: a2 2c        	ldx	#$2c
    171d: 86 13        	stx	$13                     ; 0x2013 <printf+0x2ca>
    171f: 20 73 13     	jsr	$1373 <textPrint>
    1722: 80 53        	bra	$1777 <refreshInstrumentText+0x24c>
    1724: 64 3a        	stz	$3a                     ; 0x203a <printf+0x2f1>
    1726: 9c 14 d0     	stz	$d014                   ; 0xd014 <end_block9+0x9a9e>
    1729: 9c 15 d0     	stz	$d015                   ; 0xd015 <end_block9+0x9a9f>
    172c: a2 1e        	ldx	#$1e
    172e: 86 3b        	stx	$3b                     ; 0x203b <printf+0x2f2>
    1730: 8e 16 d0     	stx	$d016                   ; 0xd016 <end_block9+0x9aa0>
    1733: 9c 17 d0     	stz	$d017                   ; 0xd017 <end_block9+0x9aa1>
    1736: a2 13        	ldx	#$13
    1738: 86 12        	stx	$12                     ; 0x2012 <printf+0x2c9>
    173a: a2 2c        	ldx	#$2c
    173c: 86 13        	stx	$13                     ; 0x2013 <printf+0x2ca>
    173e: 20 73 13     	jsr	$1373 <textPrint>
    1741: 64 3a        	stz	$3a                     ; 0x203a <printf+0x2f1>
    1743: 9c 14 d0     	stz	$d014                   ; 0xd014 <end_block9+0x9a9e>
    1746: 9c 15 d0     	stz	$d015                   ; 0xd015 <end_block9+0x9a9f>
    1749: a2 1f        	ldx	#$1f
    174b: 86 3b        	stx	$3b                     ; 0x203b <printf+0x2f2>
    174d: 8e 16 d0     	stx	$d016                   ; 0xd016 <end_block9+0x9aa0>
    1750: 9c 17 d0     	stz	$d017                   ; 0xd017 <end_block9+0x9aa1>
    1753: a2 13        	ldx	#$13
    1755: 86 12        	stx	$12                     ; 0x2012 <printf+0x2c9>
    1757: a2 2c        	ldx	#$2c
    1759: 86 13        	stx	$13                     ; 0x2013 <printf+0x2ca>
    175b: 20 73 13     	jsr	$1373 <textPrint>
    175e: 64 3a        	stz	$3a                     ; 0x203a <printf+0x2f1>
    1760: 9c 14 d0     	stz	$d014                   ; 0xd014 <end_block9+0x9a9e>
    1763: 9c 15 d0     	stz	$d015                   ; 0xd015 <end_block9+0x9a9f>
    1766: a2 20        	ldx	#$20
    1768: 86 3b        	stx	$3b                     ; 0x203b <printf+0x2f2>
    176a: 8e 16 d0     	stx	$d016                   ; 0xd016 <end_block9+0x9aa0>
    176d: 9c 17 d0     	stz	$d017                   ; 0xd017 <end_block9+0x9aa1>
    1770: a9 fa        	lda	#$fa
    1772: a2 00        	ldx	#$0
    1774: 20 f9 28     	jsr	$28f9 <putchar>
    1777: 18           	clc
    1778: a5 10        	lda	$10                     ; 0x2010 <printf+0x2c7>
    177a: 69 04        	adc	#$4
    177c: 85 10        	sta	$10                     ; 0x2010 <printf+0x2c7>
    177e: a5 11        	lda	$11                     ; 0x2011 <printf+0x2c8>
    1780: 69 00        	adc	#$0
    1782: 85 11        	sta	$11                     ; 0x2011 <printf+0x2c8>
    1784: 60           	rts

00001785 <channelTextMenu>:
    1785: a2 40        	ldx	#$40
    1787: 86 30        	stx	$30                     ; 0x2030 <printf+0x2e7>
    1789: 64 3a        	stz	$3a                     ; 0x203a <printf+0x2f1>
    178b: 9c 14 d0     	stz	$d014                   ; 0xd014 <end_block9+0x9a9e>
    178e: 9c 15 d0     	stz	$d015                   ; 0xd015 <end_block9+0x9a9f>
    1791: a2 1a        	ldx	#$1a
    1793: 86 3b        	stx	$3b                     ; 0x203b <printf+0x2f2>
    1795: 8e 16 d0     	stx	$d016                   ; 0xd016 <end_block9+0x9aa0>
    1798: 9c 17 d0     	stz	$d017                   ; 0xd017 <end_block9+0x9aa1>
    179b: a2 b3        	ldx	#$b3
    179d: 86 12        	stx	$12                     ; 0x2012 <printf+0x2c9>
    179f: a2 2b        	ldx	#$2b
    17a1: 86 13        	stx	$13                     ; 0x2013 <printf+0x2ca>
    17a3: 20 73 13     	jsr	$1373 <textPrint>
    17a6: 64 3a        	stz	$3a                     ; 0x203a <printf+0x2f1>
    17a8: 9c 14 d0     	stz	$d014                   ; 0xd014 <end_block9+0x9a9e>
    17ab: 9c 15 d0     	stz	$d015                   ; 0xd015 <end_block9+0x9a9f>
    17ae: a2 1b        	ldx	#$1b
    17b0: 86 3b        	stx	$3b                     ; 0x203b <printf+0x2f2>
    17b2: 8e 16 d0     	stx	$d016                   ; 0xd016 <end_block9+0x9aa0>
    17b5: 9c 17 d0     	stz	$d017                   ; 0xd017 <end_block9+0x9aa1>
    17b8: a2 77        	ldx	#$77
    17ba: 86 12        	stx	$12                     ; 0x2012 <printf+0x2c9>
    17bc: a2 2d        	ldx	#$2d
    17be: 86 13        	stx	$13                     ; 0x2013 <printf+0x2ca>
    17c0: 20 73 13     	jsr	$1373 <textPrint>
    17c3: a2 01        	ldx	#$1
    17c5: 86 3a        	stx	$3a                     ; 0x203a <printf+0x2f1>
    17c7: 8e 14 d0     	stx	$d014                   ; 0xd014 <end_block9+0x9a9e>
    17ca: 9c 15 d0     	stz	$d015                   ; 0xd015 <end_block9+0x9a9f>
    17cd: a2 1d        	ldx	#$1d
    17cf: 86 3b        	stx	$3b                     ; 0x203b <printf+0x2f2>
    17d1: 8e 16 d0     	stx	$d016                   ; 0xd016 <end_block9+0x9aa0>
    17d4: 9c 17 d0     	stz	$d017                   ; 0xd017 <end_block9+0x9aa1>
    17d7: a2 aa        	ldx	#$aa
    17d9: 86 12        	stx	$12                     ; 0x2012 <printf+0x2c9>
    17db: a2 2e        	ldx	#$2e
    17dd: 86 13        	stx	$13                     ; 0x2013 <printf+0x2ca>
    17df: 20 73 13     	jsr	$1373 <textPrint>
    17e2: a2 02        	ldx	#$2
    17e4: 86 3a        	stx	$3a                     ; 0x203a <printf+0x2f1>
    17e6: 8e 14 d0     	stx	$d014                   ; 0xd014 <end_block9+0x9a9e>
    17e9: 9c 15 d0     	stz	$d015                   ; 0xd015 <end_block9+0x9a9f>
    17ec: a2 1e        	ldx	#$1e
    17ee: 86 3b        	stx	$3b                     ; 0x203b <printf+0x2f2>
    17f0: 8e 16 d0     	stx	$d016                   ; 0xd016 <end_block9+0x9aa0>
    17f3: 9c 17 d0     	stz	$d017                   ; 0xd017 <end_block9+0x9aa1>
    17f6: a2 15        	ldx	#$15
    17f8: 86 12        	stx	$12                     ; 0x2012 <printf+0x2c9>
    17fa: a2 2c        	ldx	#$2c
    17fc: 86 13        	stx	$13                     ; 0x2013 <printf+0x2ca>
    17fe: 20 73 13     	jsr	$1373 <textPrint>
    1801: a2 02        	ldx	#$2
    1803: 86 3a        	stx	$3a                     ; 0x203a <printf+0x2f1>
    1805: 8e 14 d0     	stx	$d014                   ; 0xd014 <end_block9+0x9a9e>
    1808: 9c 15 d0     	stz	$d015                   ; 0xd015 <end_block9+0x9a9f>
    180b: a2 1f        	ldx	#$1f
    180d: 86 3b        	stx	$3b                     ; 0x203b <printf+0x2f2>
    180f: 8e 16 d0     	stx	$d016                   ; 0xd016 <end_block9+0x9aa0>
    1812: 9c 17 d0     	stz	$d017                   ; 0xd017 <end_block9+0x9aa1>
    1815: a2 70        	ldx	#$70
    1817: 86 12        	stx	$12                     ; 0x2012 <printf+0x2c9>
    1819: a2 33        	ldx	#$33
    181b: 86 13        	stx	$13                     ; 0x2013 <printf+0x2ca>
    181d: 20 73 13     	jsr	$1373 <textPrint>
    1820: a2 02        	ldx	#$2
    1822: 86 3a        	stx	$3a                     ; 0x203a <printf+0x2f1>
    1824: 8e 14 d0     	stx	$d014                   ; 0xd014 <end_block9+0x9a9e>
    1827: 9c 15 d0     	stz	$d015                   ; 0xd015 <end_block9+0x9a9f>
    182a: a2 20        	ldx	#$20
    182c: 86 3b        	stx	$3b                     ; 0x203b <printf+0x2f2>
    182e: 8e 16 d0     	stx	$d016                   ; 0xd016 <end_block9+0x9aa0>
    1831: 9c 17 d0     	stz	$d017                   ; 0xd017 <end_block9+0x9aa1>
    1834: a2 dd        	ldx	#$dd
    1836: 86 12        	stx	$12                     ; 0x2012 <printf+0x2c9>
    1838: a2 33        	ldx	#$33
    183a: 86 13        	stx	$13                     ; 0x2013 <printf+0x2ca>
    183c: 20 73 13     	jsr	$1373 <textPrint>
    183f: 4c 2b 15     	jmp	$152b <refreshInstrumentText>

00001842 <highLightInstChoice>:
    1842: aa           	tax
    1843: f0 04        	beq	$1849 <highLightInstChoice+0x7>
    1845: a2 90        	ldx	#$90
    1847: 80 02        	bra	$184b <highLightInstChoice+0x9>
    1849: a2 50        	ldx	#$50
    184b: 18           	clc
    184c: a5 10        	lda	$10                     ; 0x2010 <printf+0x2c7>
    184e: 69 fc        	adc	#$fc
    1850: 85 10        	sta	$10                     ; 0x2010 <printf+0x2c7>
    1852: a5 11        	lda	$11                     ; 0x2011 <printf+0x2c8>
    1854: 69 ff        	adc	#$ff
    1856: 85 11        	sta	$11                     ; 0x2011 <printf+0x2c8>
    1858: 86 30        	stx	$30                     ; 0x2030 <printf+0x2e7>
    185a: a5 52        	lda	$52                     ; 0x2052 <printf+0x309>
    185c: a0 01        	ldy	#$1
    185e: 0a           	asl
    185f: 85 12        	sta	$12                     ; 0x2012 <printf+0x2c9>
    1861: a9 00        	lda	#$0
    1863: 2a           	rol
    1864: 85 13        	sta	$13                     ; 0x2013 <printf+0x2ca>
    1866: a9 3e        	lda	#$3e
    1868: 18           	clc
    1869: 65 12        	adc	$12                     ; 0x2012 <printf+0x2c9>
    186b: 85 12        	sta	$12                     ; 0x2012 <printf+0x2c9>
    186d: a9 00        	lda	#$0
    186f: 65 13        	adc	$13                     ; 0x2013 <printf+0x2ca>
    1871: 85 13        	sta	$13                     ; 0x2013 <printf+0x2ca>
    1873: a2 5a        	ldx	#$5a
    1875: 86 14        	stx	$14                     ; 0x2014 <printf+0x2cb>
    1877: a2 00        	ldx	#$0
    1879: 86 15        	stx	$15                     ; 0x2015 <printf+0x2cc>
    187b: b2 12        	lda	($12)                   ; 0x2012 <printf+0x2c9>
    187d: 85 16        	sta	$16                     ; 0x2016 <printf+0x2cd>
    187f: b1 12        	lda	($12),y                 ; 0x2012 <printf+0x2c9>
    1881: a2 03        	ldx	#$3
    1883: 64 13        	stz	$13                     ; 0x2013 <printf+0x2ca>
    1885: 86 12        	stx	$12                     ; 0x2012 <printf+0x2c9>
    1887: aa           	tax
    1888: a5 16        	lda	$16                     ; 0x2016 <printf+0x2cd>
    188a: 20 9e 29     	jsr	$299e <__udivmodhi4>
    188d: 85 5c        	sta	$5c                     ; 0x205c <printf+0x313>
    188f: a5 5a        	lda	$5a                     ; 0x205a <printf+0x311>
    1891: a2 19        	ldx	#$19
    1893: 20 51 29     	jsr	$2951 <__mulqi3>
    1896: 18           	clc
    1897: 69 02        	adc	#$2
    1899: a6 5c        	ldx	$5c                     ; 0x205c <printf+0x313>
    189b: e8           	inx
    189c: 85 3a        	sta	$3a                     ; 0x203a <printf+0x2f1>
    189e: 8d 14 d0     	sta	$d014                   ; 0xd014 <end_block9+0x9a9e>
    18a1: 9c 15 d0     	stz	$d015                   ; 0xd015 <end_block9+0x9a9f>
    18a4: 86 3b        	stx	$3b                     ; 0x203b <printf+0x2f2>
    18a6: 8e 16 d0     	stx	$d016                   ; 0xd016 <end_block9+0x9aa0>
    18a9: 9c 17 d0     	stz	$d017                   ; 0xd017 <end_block9+0x9aa1>
    18ac: a5 52        	lda	$52                     ; 0x2052 <printf+0x309>
    18ae: 0a           	asl
    18af: 85 12        	sta	$12                     ; 0x2012 <printf+0x2c9>
    18b1: 64 13        	stz	$13                     ; 0x2013 <printf+0x2ca>
    18b3: 26 13        	rol	$13                     ; 0x2013 <printf+0x2ca>
    18b5: 18           	clc
    18b6: a9 3e        	lda	#$3e
    18b8: 65 12        	adc	$12                     ; 0x2012 <printf+0x2c9>
    18ba: 85 12        	sta	$12                     ; 0x2012 <printf+0x2c9>
    18bc: a9 00        	lda	#$0
    18be: 65 13        	adc	$13                     ; 0x2013 <printf+0x2ca>
    18c0: 85 13        	sta	$13                     ; 0x2013 <printf+0x2ca>
    18c2: b2 12        	lda	($12)                   ; 0x2012 <printf+0x2c9>
    18c4: aa           	tax
    18c5: a0 01        	ldy	#$1
    18c7: b1 12        	lda	($12),y                 ; 0x2012 <printf+0x2c9>
    18c9: 85 14        	sta	$14                     ; 0x2014 <printf+0x2cb>
    18cb: 8a           	txa
    18cc: 0a           	asl
    18cd: 85 12        	sta	$12                     ; 0x2012 <printf+0x2c9>
    18cf: a5 14        	lda	$14                     ; 0x2014 <printf+0x2cb>
    18d1: 2a           	rol
    18d2: 85 13        	sta	$13                     ; 0x2013 <printf+0x2ca>
    18d4: a9 71        	lda	#$71
    18d6: 18           	clc
    18d7: 65 12        	adc	$12                     ; 0x2012 <printf+0x2c9>
    18d9: 85 12        	sta	$12                     ; 0x2012 <printf+0x2c9>
    18db: a9 34        	lda	#$34
    18dd: 65 13        	adc	$13                     ; 0x2013 <printf+0x2ca>
    18df: 85 13        	sta	$13                     ; 0x2013 <printf+0x2ca>
    18e1: b2 12        	lda	($12)                   ; 0x2012 <printf+0x2c9>
    18e3: 85 16        	sta	$16                     ; 0x2016 <printf+0x2cd>
    18e5: b1 12        	lda	($12),y                 ; 0x2012 <printf+0x2c9>
    18e7: 85 15        	sta	$15                     ; 0x2015 <printf+0x2cc>
    18e9: a5 10        	lda	$10                     ; 0x2010 <printf+0x2c7>
    18eb: a4 11        	ldy	$11                     ; 0x2011 <printf+0x2c8>
    18ed: 18           	clc
    18ee: 69 02        	adc	#$2
    18f0: 85 12        	sta	$12                     ; 0x2012 <printf+0x2c9>
    18f2: 98           	tya
    18f3: 69 00        	adc	#$0
    18f5: 85 13        	sta	$13                     ; 0x2013 <printf+0x2ca>
    18f7: a0 02        	ldy	#$2
    18f9: a5 16        	lda	$16                     ; 0x2016 <printf+0x2cd>
    18fb: 91 10        	sta	($10),y                 ; 0x2010 <printf+0x2c7>
    18fd: 8a           	txa
    18fe: 92 10        	sta	($10)                   ; 0x2010 <printf+0x2c7>
    1900: a5 14        	lda	$14                     ; 0x2014 <printf+0x2cb>
    1902: 88           	dey
    1903: 91 10        	sta	($10),y                 ; 0x2010 <printf+0x2c7>
    1905: a5 15        	lda	$15                     ; 0x2015 <printf+0x2cc>
    1907: 91 12        	sta	($12),y                 ; 0x2012 <printf+0x2c9>
    1909: a2 90        	ldx	#$90
    190b: 86 12        	stx	$12                     ; 0x2012 <printf+0x2c9>
    190d: a2 2c        	ldx	#$2c
    190f: 86 13        	stx	$13                     ; 0x2013 <printf+0x2ca>
    1911: 20 49 1d     	jsr	$1d49 <printf>
    1914: 18           	clc
    1915: a5 10        	lda	$10                     ; 0x2010 <printf+0x2c7>
    1917: 69 04        	adc	#$4
    1919: 85 10        	sta	$10                     ; 0x2010 <printf+0x2c7>
    191b: a5 11        	lda	$11                     ; 0x2011 <printf+0x2c8>
    191d: 69 00        	adc	#$0
    191f: 85 11        	sta	$11                     ; 0x2011 <printf+0x2c8>
    1921: 60           	rts

00001922 <textTitle>:
    1922: 18           	clc
    1923: a5 10        	lda	$10                     ; 0x2010 <printf+0x2c7>
    1925: 69 f8        	adc	#$f8
    1927: 85 10        	sta	$10                     ; 0x2010 <printf+0x2c7>
    1929: a5 11        	lda	$11                     ; 0x2011 <printf+0x2c8>
    192b: 69 ff        	adc	#$ff
    192d: 85 11        	sta	$11                     ; 0x2011 <printf+0x2c8>
    192f: a2 10        	ldx	#$10
    1931: 86 30        	stx	$30                     ; 0x2030 <printf+0x2e7>
    1933: e8           	inx
    1934: 86 3a        	stx	$3a                     ; 0x203a <printf+0x2f1>
    1936: 8e 14 d0     	stx	$d014                   ; 0xd014 <end_block9+0x9a9e>
    1939: 9c 15 d0     	stz	$d015                   ; 0xd015 <end_block9+0x9a9f>
    193c: 64 3b        	stz	$3b                     ; 0x203b <printf+0x2f2>
    193e: 9c 16 d0     	stz	$d016                   ; 0xd016 <end_block9+0x9aa0>
    1941: 9c 17 d0     	stz	$d017                   ; 0xd017 <end_block9+0x9aa1>
    1944: a2 00        	ldx	#$0
    1946: a9 1d        	lda	#$1d
    1948: 20 f9 28     	jsr	$28f9 <putchar>
    194b: a2 00        	ldx	#$0
    194d: a9 1c        	lda	#$1c
    194f: 20 f9 28     	jsr	$28f9 <putchar>
    1952: a2 00        	ldx	#$0
    1954: a9 1b        	lda	#$1b
    1956: 20 f9 28     	jsr	$28f9 <putchar>
    1959: a9 1a        	lda	#$1a
    195b: a2 00        	ldx	#$0
    195d: 20 f9 28     	jsr	$28f9 <putchar>
    1960: a2 00        	ldx	#$0
    1962: a9 19        	lda	#$19
    1964: 20 f9 28     	jsr	$28f9 <putchar>
    1967: a2 00        	ldx	#$0
    1969: a9 18        	lda	#$18
    196b: 20 f9 28     	jsr	$28f9 <putchar>
    196e: a2 00        	ldx	#$0
    1970: a9 17        	lda	#$17
    1972: 20 f9 28     	jsr	$28f9 <putchar>
    1975: a2 00        	ldx	#$0
    1977: a9 16        	lda	#$16
    1979: 20 f9 28     	jsr	$28f9 <putchar>
    197c: a2 1a        	ldx	#$1a
    197e: 86 3a        	stx	$3a                     ; 0x203a <printf+0x2f1>
    1980: 8e 14 d0     	stx	$d014                   ; 0xd014 <end_block9+0x9a9e>
    1983: 9c 15 d0     	stz	$d015                   ; 0xd015 <end_block9+0x9a9f>
    1986: 64 3b        	stz	$3b                     ; 0x203b <printf+0x2f2>
    1988: 9c 16 d0     	stz	$d016                   ; 0xd016 <end_block9+0x9aa0>
    198b: 9c 17 d0     	stz	$d017                   ; 0xd017 <end_block9+0x9aa1>
    198e: a2 b2        	ldx	#$b2
    1990: 86 12        	stx	$12                     ; 0x2012 <printf+0x2c9>
    1992: a2 2c        	ldx	#$2c
    1994: 86 13        	stx	$13                     ; 0x2013 <printf+0x2ca>
    1996: 20 49 1d     	jsr	$1d49 <printf>
    1999: a2 30        	ldx	#$30
    199b: 86 3a        	stx	$3a                     ; 0x203a <printf+0x2f1>
    199d: 8e 14 d0     	stx	$d014                   ; 0xd014 <end_block9+0x9a9e>
    19a0: 9c 15 d0     	stz	$d015                   ; 0xd015 <end_block9+0x9a9f>
    19a3: 64 3b        	stz	$3b                     ; 0x203b <printf+0x2f2>
    19a5: 9c 16 d0     	stz	$d016                   ; 0xd016 <end_block9+0x9aa0>
    19a8: 9c 17 d0     	stz	$d017                   ; 0xd017 <end_block9+0x9aa1>
    19ab: a2 00        	ldx	#$0
    19ad: a9 16        	lda	#$16
    19af: 20 f9 28     	jsr	$28f9 <putchar>
    19b2: a2 00        	ldx	#$0
    19b4: a9 17        	lda	#$17
    19b6: 20 f9 28     	jsr	$28f9 <putchar>
    19b9: a2 00        	ldx	#$0
    19bb: a9 18        	lda	#$18
    19bd: 20 f9 28     	jsr	$28f9 <putchar>
    19c0: a2 00        	ldx	#$0
    19c2: a9 19        	lda	#$19
    19c4: 20 f9 28     	jsr	$28f9 <putchar>
    19c7: a2 00        	ldx	#$0
    19c9: a9 1a        	lda	#$1a
    19cb: 20 f9 28     	jsr	$28f9 <putchar>
    19ce: a2 00        	ldx	#$0
    19d0: a9 1b        	lda	#$1b
    19d2: 20 f9 28     	jsr	$28f9 <putchar>
    19d5: a2 00        	ldx	#$0
    19d7: a9 1c        	lda	#$1c
    19d9: 20 f9 28     	jsr	$28f9 <putchar>
    19dc: a2 00        	ldx	#$0
    19de: a9 1d        	lda	#$1d
    19e0: 20 f9 28     	jsr	$28f9 <putchar>
    19e3: 9c 00 de     	stz	$de00                   ; 0xde00 <end_block9+0xa88a>
    19e6: 9c 01 de     	stz	$de01                   ; 0xde01 <end_block9+0xa88b>
    19e9: a2 04        	ldx	#$4
    19eb: 8e 02 de     	stx	$de02                   ; 0xde02 <end_block9+0xa88c>
    19ee: 9c 03 de     	stz	$de03                   ; 0xde03 <end_block9+0xa88d>
    19f1: ae 10 de     	ldx	$de10                   ; 0xde10 <end_block9+0xa89a>
    19f4: 86 12        	stx	$12                     ; 0x2012 <printf+0x2c9>
    19f6: ae 11 de     	ldx	$de11                   ; 0xde11 <end_block9+0xa89b>
    19f9: 86 13        	stx	$13                     ; 0x2013 <printf+0x2ca>
    19fb: ae 12 de     	ldx	$de12                   ; 0xde12 <end_block9+0xa89c>
    19fe: ae 13 de     	ldx	$de13                   ; 0xde13 <end_block9+0xa89d>
    1a01: 18           	clc
    1a02: a9 00        	lda	#$0
    1a04: 65 12        	adc	$12                     ; 0x2012 <printf+0x2c9>
    1a06: 85 12        	sta	$12                     ; 0x2012 <printf+0x2c9>
    1a08: a9 d8        	lda	#$d8
    1a0a: 65 13        	adc	$13                     ; 0x2013 <printf+0x2ca>
    1a0c: 85 13        	sta	$13                     ; 0x2013 <printf+0x2ca>
    1a0e: a9 ff        	lda	#$ff
    1a10: 92 12        	sta	($12)                   ; 0x2012 <printf+0x2c9>
    1a12: a0 01        	ldy	#$1
    1a14: 91 12        	sta	($12),y                 ; 0x2012 <printf+0x2c9>
    1a16: c8           	iny
    1a17: 91 12        	sta	($12),y                 ; 0x2012 <printf+0x2c9>
    1a19: c8           	iny
    1a1a: 91 12        	sta	($12),y                 ; 0x2012 <printf+0x2c9>
    1a1c: a2 70        	ldx	#$70
    1a1e: 86 30        	stx	$30                     ; 0x2030 <printf+0x2e7>
    1a20: 64 3a        	stz	$3a                     ; 0x203a <printf+0x2f1>
    1a22: 9c 14 d0     	stz	$d014                   ; 0xd014 <end_block9+0x9a9e>
    1a25: 9c 15 d0     	stz	$d015                   ; 0xd015 <end_block9+0x9a9f>
    1a28: a2 02        	ldx	#$2
    1a2a: 86 3b        	stx	$3b                     ; 0x203b <printf+0x2f2>
    1a2c: 8e 16 d0     	stx	$d016                   ; 0xd016 <end_block9+0x9aa0>
    1a2f: 9c 17 d0     	stz	$d017                   ; 0xd017 <end_block9+0x9aa1>
    1a32: a2 d1        	ldx	#$d1
    1a34: 86 12        	stx	$12                     ; 0x2012 <printf+0x2c9>
    1a36: a2 2e        	ldx	#$2e
    1a38: 86 13        	stx	$13                     ; 0x2013 <printf+0x2ca>
    1a3a: 20 73 13     	jsr	$1373 <textPrint>
    1a3d: 20 85 17     	jsr	$1785 <channelTextMenu>
    1a40: a2 70        	ldx	#$70
    1a42: 86 30        	stx	$30                     ; 0x2030 <printf+0x2e7>
    1a44: 64 3a        	stz	$3a                     ; 0x203a <printf+0x2f1>
    1a46: 9c 14 d0     	stz	$d014                   ; 0xd014 <end_block9+0x9a9e>
    1a49: 9c 15 d0     	stz	$d015                   ; 0xd015 <end_block9+0x9a9f>
    1a4c: a2 23        	ldx	#$23
    1a4e: 86 3b        	stx	$3b                     ; 0x203b <printf+0x2f2>
    1a50: 8e 16 d0     	stx	$d016                   ; 0xd016 <end_block9+0x9aa0>
    1a53: 9c 17 d0     	stz	$d017                   ; 0xd017 <end_block9+0x9aa1>
    1a56: a9 f8        	lda	#$f8
    1a58: 92 10        	sta	($10)                   ; 0x2010 <printf+0x2c7>
    1a5a: a9 00        	lda	#$0
    1a5c: a0 01        	ldy	#$1
    1a5e: 91 10        	sta	($10),y                 ; 0x2010 <printf+0x2c7>
    1a60: c8           	iny
    1a61: a9 fb        	lda	#$fb
    1a63: 91 10        	sta	($10),y                 ; 0x2010 <printf+0x2c7>
    1a65: c8           	iny
    1a66: a9 00        	lda	#$0
    1a68: 91 10        	sta	($10),y                 ; 0x2010 <printf+0x2c7>
    1a6a: a2 0f        	ldx	#$f
    1a6c: 86 12        	stx	$12                     ; 0x2012 <printf+0x2c9>
    1a6e: a2 30        	ldx	#$30
    1a70: 86 13        	stx	$13                     ; 0x2013 <printf+0x2ca>
    1a72: 20 49 1d     	jsr	$1d49 <printf>
    1a75: 64 3a        	stz	$3a                     ; 0x203a <printf+0x2f1>
    1a77: 9c 14 d0     	stz	$d014                   ; 0xd014 <end_block9+0x9a9e>
    1a7a: 9c 15 d0     	stz	$d015                   ; 0xd015 <end_block9+0x9a9f>
    1a7d: a2 24        	ldx	#$24
    1a7f: 86 3b        	stx	$3b                     ; 0x203b <printf+0x2f2>
    1a81: 8e 16 d0     	stx	$d016                   ; 0xd016 <end_block9+0x9aa0>
    1a84: 9c 17 d0     	stz	$d017                   ; 0xd017 <end_block9+0x9aa1>
    1a87: a9 f8        	lda	#$f8
    1a89: 92 10        	sta	($10)                   ; 0x2010 <printf+0x2c7>
    1a8b: a9 00        	lda	#$0
    1a8d: a0 01        	ldy	#$1
    1a8f: 91 10        	sta	($10),y                 ; 0x2010 <printf+0x2c7>
    1a91: c8           	iny
    1a92: a9 fb        	lda	#$fb
    1a94: 91 10        	sta	($10),y                 ; 0x2010 <printf+0x2c7>
    1a96: c8           	iny
    1a97: a9 00        	lda	#$0
    1a99: 91 10        	sta	($10),y                 ; 0x2010 <printf+0x2c7>
    1a9b: c8           	iny
    1a9c: a9 f8        	lda	#$f8
    1a9e: 91 10        	sta	($10),y                 ; 0x2010 <printf+0x2c7>
    1aa0: c8           	iny
    1aa1: a9 00        	lda	#$0
    1aa3: 91 10        	sta	($10),y                 ; 0x2010 <printf+0x2c7>
    1aa5: c8           	iny
    1aa6: a9 fb        	lda	#$fb
    1aa8: 91 10        	sta	($10),y                 ; 0x2010 <printf+0x2c7>
    1aaa: c8           	iny
    1aab: a9 00        	lda	#$0
    1aad: 91 10        	sta	($10),y                 ; 0x2010 <printf+0x2c7>
    1aaf: a2 34        	ldx	#$34
    1ab1: 86 12        	stx	$12                     ; 0x2012 <printf+0x2c9>
    1ab3: a2 30        	ldx	#$30
    1ab5: 86 13        	stx	$13                     ; 0x2013 <printf+0x2ca>
    1ab7: 20 49 1d     	jsr	$1d49 <printf>
    1aba: 64 3a        	stz	$3a                     ; 0x203a <printf+0x2f1>
    1abc: 9c 14 d0     	stz	$d014                   ; 0xd014 <end_block9+0x9a9e>
    1abf: 9c 15 d0     	stz	$d015                   ; 0xd015 <end_block9+0x9a9f>
    1ac2: a2 28        	ldx	#$28
    1ac4: 86 3b        	stx	$3b                     ; 0x203b <printf+0x2f2>
    1ac6: 8e 16 d0     	stx	$d016                   ; 0xd016 <end_block9+0x9aa0>
    1ac9: 9c 17 d0     	stz	$d017                   ; 0xd017 <end_block9+0x9aa1>
    1acc: a2 01        	ldx	#$1
    1ace: 86 12        	stx	$12                     ; 0x2012 <printf+0x2c9>
    1ad0: a2 33        	ldx	#$33
    1ad2: 86 13        	stx	$13                     ; 0x2013 <printf+0x2ca>
    1ad4: 20 73 13     	jsr	$1373 <textPrint>
    1ad7: 64 3a        	stz	$3a                     ; 0x203a <printf+0x2f1>
    1ad9: 9c 14 d0     	stz	$d014                   ; 0xd014 <end_block9+0x9a9e>
    1adc: 9c 15 d0     	stz	$d015                   ; 0xd015 <end_block9+0x9a9f>
    1adf: a2 29        	ldx	#$29
    1ae1: 86 3b        	stx	$3b                     ; 0x203b <printf+0x2f2>
    1ae3: 8e 16 d0     	stx	$d016                   ; 0xd016 <end_block9+0x9aa0>
    1ae6: 9c 17 d0     	stz	$d017                   ; 0xd017 <end_block9+0x9aa1>
    1ae9: a9 f9        	lda	#$f9
    1aeb: 92 10        	sta	($10)                   ; 0x2010 <printf+0x2c7>
    1aed: a0 01        	ldy	#$1
    1aef: a9 00        	lda	#$0
    1af1: 91 10        	sta	($10),y                 ; 0x2010 <printf+0x2c7>
    1af3: c8           	iny
    1af4: a9 fa        	lda	#$fa
    1af6: 91 10        	sta	($10),y                 ; 0x2010 <printf+0x2c7>
    1af8: c8           	iny
    1af9: a9 00        	lda	#$0
    1afb: 91 10        	sta	($10),y                 ; 0x2010 <printf+0x2c7>
    1afd: a2 0a        	ldx	#$a
    1aff: 86 12        	stx	$12                     ; 0x2012 <printf+0x2c9>
    1b01: a2 32        	ldx	#$32
    1b03: 86 13        	stx	$13                     ; 0x2013 <printf+0x2ca>
    1b05: 20 49 1d     	jsr	$1d49 <printf>
    1b08: 64 3a        	stz	$3a                     ; 0x203a <printf+0x2f1>
    1b0a: 9c 14 d0     	stz	$d014                   ; 0xd014 <end_block9+0x9a9e>
    1b0d: 9c 15 d0     	stz	$d015                   ; 0xd015 <end_block9+0x9a9f>
    1b10: a2 2a        	ldx	#$2a
    1b12: 86 3b        	stx	$3b                     ; 0x203b <printf+0x2f2>
    1b14: 8e 16 d0     	stx	$d016                   ; 0xd016 <end_block9+0x9aa0>
    1b17: 9c 17 d0     	stz	$d017                   ; 0xd017 <end_block9+0x9aa1>
    1b1a: a0 01        	ldy	#$1
    1b1c: a9 00        	lda	#$0
    1b1e: 91 10        	sta	($10),y                 ; 0x2010 <printf+0x2c7>
    1b20: c8           	iny
    1b21: a9 fa        	lda	#$fa
    1b23: 91 10        	sta	($10),y                 ; 0x2010 <printf+0x2c7>
    1b25: c8           	iny
    1b26: a9 00        	lda	#$0
    1b28: 91 10        	sta	($10),y                 ; 0x2010 <printf+0x2c7>
    1b2a: c8           	iny
    1b2b: a9 f9        	lda	#$f9
    1b2d: 91 10        	sta	($10),y                 ; 0x2010 <printf+0x2c7>
    1b2f: 92 10        	sta	($10)                   ; 0x2010 <printf+0x2c7>
    1b31: c8           	iny
    1b32: a9 00        	lda	#$0
    1b34: 91 10        	sta	($10),y                 ; 0x2010 <printf+0x2c7>
    1b36: c8           	iny
    1b37: a9 fa        	lda	#$fa
    1b39: 91 10        	sta	($10),y                 ; 0x2010 <printf+0x2c7>
    1b3b: c8           	iny
    1b3c: a9 00        	lda	#$0
    1b3e: 91 10        	sta	($10),y                 ; 0x2010 <printf+0x2c7>
    1b40: a2 80        	ldx	#$80
    1b42: 86 12        	stx	$12                     ; 0x2012 <printf+0x2c9>
    1b44: a2 30        	ldx	#$30
    1b46: 86 13        	stx	$13                     ; 0x2013 <printf+0x2ca>
    1b48: 20 49 1d     	jsr	$1d49 <printf>
    1b4b: 18           	clc
    1b4c: a5 10        	lda	$10                     ; 0x2010 <printf+0x2c7>
    1b4e: 69 08        	adc	#$8
    1b50: 85 10        	sta	$10                     ; 0x2010 <printf+0x2c7>
    1b52: a5 11        	lda	$11                     ; 0x2011 <printf+0x2c8>
    1b54: 69 00        	adc	#$0
    1b56: 85 11        	sta	$11                     ; 0x2011 <printf+0x2c8>
    1b58: 60           	rts

00001b59 <__putchar>:
    1b59: 85 3c        	sta	$3c                     ; 0x203c <printf+0x2f3>
    1b5b: a2 3c        	ldx	#$3c
    1b5d: 86 12        	stx	$12                     ; 0x2012 <printf+0x2c9>
    1b5f: a2 00        	ldx	#$0
    1b61: 86 13        	stx	$13                     ; 0x2013 <printf+0x2ca>
    1b63: 4c 73 13     	jmp	$1373 <textPrint>

00001b66 <exit>:
    1b66: 20 1a 03     	jsr	$31a <_fini>
    1b69: 80 fe        	bra	$1b69 <exit+0x3>

00001b6b <_ZN12_GLOBAL__N_13putEcP6Status>:
    1b6b: 85 18        	sta	$18                     ; 0x2018 <printf+0x2cf>
    1b6d: a6 13        	ldx	$13                     ; 0x2013 <printf+0x2ca>
    1b6f: 18           	clc
    1b70: a5 12        	lda	$12                     ; 0x2012 <printf+0x2c9>
    1b72: 69 05        	adc	#$5
    1b74: a8           	tay
    1b75: a5 13        	lda	$13                     ; 0x2013 <printf+0x2ca>
    1b77: 86 15        	stx	$15                     ; 0x2015 <printf+0x2cc>
    1b79: 69 00        	adc	#$0
    1b7b: 18           	clc
    1b7c: 84 16        	sty	$16                     ; 0x2016 <printf+0x2cd>
    1b7e: a0 05        	ldy	#$5
    1b80: 85 17        	sta	$17                     ; 0x2017 <printf+0x2ce>
    1b82: b1 12        	lda	($12),y                 ; 0x2012 <printf+0x2c9>
    1b84: aa           	tax
    1b85: a5 12        	lda	$12                     ; 0x2012 <printf+0x2c9>
    1b87: 69 03        	adc	#$3
    1b89: 85 14        	sta	$14                     ; 0x2014 <printf+0x2cb>
    1b8b: a5 15        	lda	$15                     ; 0x2015 <printf+0x2cc>
    1b8d: 69 00        	adc	#$0
    1b8f: 85 15        	sta	$15                     ; 0x2015 <printf+0x2cc>
    1b91: a0 01        	ldy	#$1
    1b93: b1 16        	lda	($16),y                 ; 0x2016 <printf+0x2cd>
    1b95: d1 14        	cmp	($14),y                 ; 0x2014 <printf+0x2cb>
    1b97: d0 11        	bne	$1baa <_ZN12_GLOBAL__N_13putEcP6Status+0x3f>
    1b99: a0 03        	ldy	#$3
    1b9b: 85 17        	sta	$17                     ; 0x2017 <printf+0x2ce>
    1b9d: b1 12        	lda	($12),y                 ; 0x2012 <printf+0x2c9>
    1b9f: 85 14        	sta	$14                     ; 0x2014 <printf+0x2cb>
    1ba1: 86 16        	stx	$16                     ; 0x2016 <printf+0x2cd>
    1ba3: e4 14        	cpx	$14                     ; 0x2014 <printf+0x2cb>
    1ba5: 90 0e        	bcc	$1bb5 <_ZN12_GLOBAL__N_13putEcP6Status+0x4a>
    1ba7: 4c 14 1c     	jmp	$1c14 <_ZN12_GLOBAL__N_13putEcP6Status+0xa9>
    1baa: 86 16        	stx	$16                     ; 0x2016 <printf+0x2cd>
    1bac: d1 14        	cmp	($14),y                 ; 0x2014 <printf+0x2cb>
    1bae: 85 17        	sta	$17                     ; 0x2017 <printf+0x2ce>
    1bb0: 90 03        	bcc	$1bb5 <_ZN12_GLOBAL__N_13putEcP6Status+0x4a>
    1bb2: 4c 14 1c     	jmp	$1c14 <_ZN12_GLOBAL__N_13putEcP6Status+0xa9>
    1bb5: a5 12        	lda	$12                     ; 0x2012 <printf+0x2c9>
    1bb7: 18           	clc
    1bb8: 69 0f        	adc	#$f
    1bba: 85 14        	sta	$14                     ; 0x2014 <printf+0x2cb>
    1bbc: a5 13        	lda	$13                     ; 0x2013 <printf+0x2ca>
    1bbe: 69 00        	adc	#$0
    1bc0: 85 15        	sta	$15                     ; 0x2015 <printf+0x2cc>
    1bc2: a0 01        	ldy	#$1
    1bc4: b1 14        	lda	($14),y                 ; 0x2014 <printf+0x2cb>
    1bc6: a2 00        	ldx	#$0
    1bc8: 86 14        	stx	$14                     ; 0x2014 <printf+0x2cb>
    1bca: a2 00        	ldx	#$0
    1bcc: 86 15        	stx	$15                     ; 0x2015 <printf+0x2cc>
    1bce: c5 15        	cmp	$15                     ; 0x2015 <printf+0x2cc>
    1bd0: d0 2d        	bne	$1bff <_ZN12_GLOBAL__N_13putEcP6Status+0x94>
    1bd2: a0 0f        	ldy	#$f
    1bd4: b1 12        	lda	($12),y                 ; 0x2012 <printf+0x2c9>
    1bd6: c5 14        	cmp	$14                     ; 0x2014 <printf+0x2cb>
    1bd8: d0 25        	bne	$1bff <_ZN12_GLOBAL__N_13putEcP6Status+0x94>
    1bda: a5 12        	lda	$12                     ; 0x2012 <printf+0x2c9>
    1bdc: 18           	clc
    1bdd: 69 09        	adc	#$9
    1bdf: 85 14        	sta	$14                     ; 0x2014 <printf+0x2cb>
    1be1: a5 13        	lda	$13                     ; 0x2013 <printf+0x2ca>
    1be3: 69 00        	adc	#$0
    1be5: a0 09        	ldy	#$9
    1be7: 85 15        	sta	$15                     ; 0x2015 <printf+0x2cc>
    1be9: 18           	clc
    1bea: a5 16        	lda	$16                     ; 0x2016 <printf+0x2cd>
    1bec: 71 12        	adc	($12),y                 ; 0x2012 <printf+0x2c9>
    1bee: aa           	tax
    1bef: a0 01        	ldy	#$1
    1bf1: a5 17        	lda	$17                     ; 0x2017 <printf+0x2ce>
    1bf3: 71 14        	adc	($14),y                 ; 0x2014 <printf+0x2cb>
    1bf5: 86 14        	stx	$14                     ; 0x2014 <printf+0x2cb>
    1bf7: 85 15        	sta	$15                     ; 0x2015 <printf+0x2cc>
    1bf9: a5 18        	lda	$18                     ; 0x2018 <printf+0x2cf>
    1bfb: 92 14        	sta	($14)                   ; 0x2014 <printf+0x2cb>
    1bfd: 80 15        	bra	$1c14 <_ZN12_GLOBAL__N_13putEcP6Status+0xa9>
    1bff: a6 12        	ldx	$12                     ; 0x2012 <printf+0x2c9>
    1c01: 86 b2        	stx	$b2                     ; 0x20b2 <printf+0x369>
    1c03: a6 13        	ldx	$13                     ; 0x2013 <printf+0x2ca>
    1c05: 86 b3        	stx	$b3                     ; 0x20b3 <printf+0x36a>
    1c07: a5 18        	lda	$18                     ; 0x2018 <printf+0x2cf>
    1c09: 20 59 1b     	jsr	$1b59 <__putchar>
    1c0c: a6 b2        	ldx	$b2                     ; 0x20b2 <printf+0x369>
    1c0e: 86 12        	stx	$12                     ; 0x2012 <printf+0x2c9>
    1c10: a6 b3        	ldx	$b3                     ; 0x20b3 <printf+0x36a>
    1c12: 86 13        	stx	$13                     ; 0x2013 <printf+0x2ca>
    1c14: a0 05        	ldy	#$5
    1c16: a5 12        	lda	$12                     ; 0x2012 <printf+0x2c9>
    1c18: 18           	clc
    1c19: 69 05        	adc	#$5
    1c1b: 85 14        	sta	$14                     ; 0x2014 <printf+0x2cb>
    1c1d: a5 13        	lda	$13                     ; 0x2013 <printf+0x2ca>
    1c1f: 69 00        	adc	#$0
    1c21: 85 15        	sta	$15                     ; 0x2015 <printf+0x2cc>
    1c23: b1 12        	lda	($12),y                 ; 0x2012 <printf+0x2c9>
    1c25: aa           	tax
    1c26: a0 01        	ldy	#$1
    1c28: b1 14        	lda	($14),y                 ; 0x2014 <printf+0x2cb>
    1c2a: e8           	inx
    1c2b: d0 01        	bne	$1c2e <_ZN12_GLOBAL__N_13putEcP6Status+0xc3>
    1c2d: 1a           	inc
    1c2e: 85 16        	sta	$16                     ; 0x2016 <printf+0x2cd>
    1c30: 8a           	txa
    1c31: a0 05        	ldy	#$5
    1c33: 91 12        	sta	($12),y                 ; 0x2012 <printf+0x2c9>
    1c35: a0 01        	ldy	#$1
    1c37: a5 16        	lda	$16                     ; 0x2016 <printf+0x2cd>
    1c39: 91 14        	sta	($14),y                 ; 0x2014 <printf+0x2cb>
    1c3b: 60           	rts

00001c3c <_ZN12_GLOBAL__N_112print_stringEPKcP6Status>:
    1c3c: a6 12        	ldx	$12                     ; 0x2012 <printf+0x2c9>
    1c3e: 86 aa        	stx	$aa                     ; 0x20aa <printf+0x361>
    1c40: a6 13        	ldx	$13                     ; 0x2013 <printf+0x2ca>
    1c42: 86 ab        	stx	$ab                     ; 0x20ab <printf+0x362>
    1c44: a6 14        	ldx	$14                     ; 0x2014 <printf+0x2cb>
    1c46: 86 ac        	stx	$ac                     ; 0x20ac <printf+0x363>
    1c48: a6 15        	ldx	$15                     ; 0x2015 <printf+0x2cc>
    1c4a: 86 ad        	stx	$ad                     ; 0x20ad <printf+0x364>
    1c4c: a5 ac        	lda	$ac                     ; 0x20ac <printf+0x363>
    1c4e: 18           	clc
    1c4f: 69 0d        	adc	#$d
    1c51: 85 12        	sta	$12                     ; 0x2012 <printf+0x2c9>
    1c53: a5 ad        	lda	$ad                     ; 0x20ad <printf+0x364>
    1c55: 69 00        	adc	#$0
    1c57: 85 13        	sta	$13                     ; 0x2013 <printf+0x2ca>
    1c59: a0 01        	ldy	#$1
    1c5b: b1 12        	lda	($12),y                 ; 0x2012 <printf+0x2c9>
    1c5d: 30 16        	bmi	$1c75 <_ZN12_GLOBAL__N_112print_stringEPKcP6Status+0x39>
    1c5f: a0 0d        	ldy	#$d
    1c61: 85 12        	sta	$12                     ; 0x2012 <printf+0x2c9>
    1c63: b1 ac        	lda	($ac),y                 ; 0x20ac <printf+0x363>
    1c65: a6 12        	ldx	$12                     ; 0x2012 <printf+0x2c9>
    1c67: 86 b1        	stx	$b1                     ; 0x20b1 <printf+0x368>
    1c69: d0 0f        	bne	$1c7a <_ZN12_GLOBAL__N_112print_stringEPKcP6Status+0x3e>
    1c6b: aa           	tax
    1c6c: d0 0c        	bne	$1c7a <_ZN12_GLOBAL__N_112print_stringEPKcP6Status+0x3e>
    1c6e: 64 ae        	stz	$ae                     ; 0x20ae <printf+0x365>
    1c70: a2 00        	ldx	#$0
    1c72: 4c 44 1d     	jmp	$1d44 <_ZN12_GLOBAL__N_112print_stringEPKcP6Status+0x108>
    1c75: a9 ff        	lda	#$ff
    1c77: aa           	tax
    1c78: 86 b1        	stx	$b1                     ; 0x20b1 <printf+0x368>
    1c7a: 85 ae        	sta	$ae                     ; 0x20ae <printf+0x365>
    1c7c: 64 12        	stz	$12                     ; 0x2012 <printf+0x2c9>
    1c7e: a4 aa        	ldy	$aa                     ; 0x20aa <printf+0x361>
    1c80: a6 ab        	ldx	$ab                     ; 0x20ab <printf+0x362>
    1c82: 86 16        	stx	$16                     ; 0x2016 <printf+0x2cd>
    1c84: 64 13        	stz	$13                     ; 0x2013 <printf+0x2ca>
    1c86: 98           	tya
    1c87: 18           	clc
    1c88: 65 12        	adc	$12                     ; 0x2012 <printf+0x2c9>
    1c8a: 85 14        	sta	$14                     ; 0x2014 <printf+0x2cb>
    1c8c: a5 ab        	lda	$ab                     ; 0x20ab <printf+0x362>
    1c8e: 65 13        	adc	$13                     ; 0x2013 <printf+0x2ca>
    1c90: 85 15        	sta	$15                     ; 0x2015 <printf+0x2cc>
    1c92: b2 14        	lda	($14)                   ; 0x2014 <printf+0x2cb>
    1c94: d0 03        	bne	$1c99 <_ZN12_GLOBAL__N_112print_stringEPKcP6Status+0x5d>
    1c96: 4c 3e 1d     	jmp	$1d3e <_ZN12_GLOBAL__N_112print_stringEPKcP6Status+0x102>
    1c99: e6 12        	inc	$12                     ; 0x2012 <printf+0x2c9>
    1c9b: d0 02        	bne	$1c9f <_ZN12_GLOBAL__N_112print_stringEPKcP6Status+0x63>
    1c9d: e6 13        	inc	$13                     ; 0x2013 <printf+0x2ca>
    1c9f: a6 b1        	ldx	$b1                     ; 0x20b1 <printf+0x368>
    1ca1: e4 13        	cpx	$13                     ; 0x2013 <printf+0x2ca>
    1ca3: d0 e1        	bne	$1c86 <_ZN12_GLOBAL__N_112print_stringEPKcP6Status+0x4a>
    1ca5: a6 ae        	ldx	$ae                     ; 0x20ae <printf+0x365>
    1ca7: e4 12        	cpx	$12                     ; 0x2012 <printf+0x2c9>
    1ca9: d0 db        	bne	$1c86 <_ZN12_GLOBAL__N_112print_stringEPKcP6Status+0x4a>
    1cab: a0 01        	ldy	#$1
    1cad: 98           	tya
    1cae: 31 ac        	and	($ac),y                 ; 0x20ac <printf+0x363>
    1cb0: 29 01        	and	#$1
    1cb2: f0 03        	beq	$1cb7 <_ZN12_GLOBAL__N_112print_stringEPKcP6Status+0x7b>
    1cb4: 4c 0f 1d     	jmp	$1d0f <_ZN12_GLOBAL__N_112print_stringEPKcP6Status+0xd3>
    1cb7: a0 0b        	ldy	#$b
    1cb9: a5 ac        	lda	$ac                     ; 0x20ac <printf+0x363>
    1cbb: 18           	clc
    1cbc: 69 0b        	adc	#$b
    1cbe: 85 14        	sta	$14                     ; 0x2014 <printf+0x2cb>
    1cc0: a5 ad        	lda	$ad                     ; 0x20ad <printf+0x364>
    1cc2: 69 00        	adc	#$0
    1cc4: 85 15        	sta	$15                     ; 0x2015 <printf+0x2cc>
    1cc6: b1 ac        	lda	($ac),y                 ; 0x20ac <printf+0x363>
    1cc8: 85 12        	sta	$12                     ; 0x2012 <printf+0x2c9>
    1cca: a0 01        	ldy	#$1
    1ccc: b1 14        	lda	($14),y                 ; 0x2014 <printf+0x2cb>
    1cce: 85 13        	sta	$13                     ; 0x2013 <printf+0x2ca>
    1cd0: a6 b1        	ldx	$b1                     ; 0x20b1 <printf+0x368>
    1cd2: e4 13        	cpx	$13                     ; 0x2013 <printf+0x2ca>
    1cd4: d0 08        	bne	$1cde <_ZN12_GLOBAL__N_112print_stringEPKcP6Status+0xa2>
    1cd6: a6 ae        	ldx	$ae                     ; 0x20ae <printf+0x365>
    1cd8: e4 12        	cpx	$12                     ; 0x2012 <printf+0x2c9>
    1cda: 90 06        	bcc	$1ce2 <_ZN12_GLOBAL__N_112print_stringEPKcP6Status+0xa6>
    1cdc: 80 31        	bra	$1d0f <_ZN12_GLOBAL__N_112print_stringEPKcP6Status+0xd3>
    1cde: e4 13        	cpx	$13                     ; 0x2013 <printf+0x2ca>
    1ce0: b0 2d        	bcs	$1d0f <_ZN12_GLOBAL__N_112print_stringEPKcP6Status+0xd3>
    1ce2: 38           	sec
    1ce3: a5 ae        	lda	$ae                     ; 0x20ae <printf+0x365>
    1ce5: e5 12        	sbc	$12                     ; 0x2012 <printf+0x2c9>
    1ce7: a8           	tay
    1ce8: a5 b1        	lda	$b1                     ; 0x20b1 <printf+0x368>
    1cea: e5 13        	sbc	$13                     ; 0x2013 <printf+0x2ca>
    1cec: 85 b0        	sta	$b0                     ; 0x20b0 <printf+0x367>
    1cee: a6 ac        	ldx	$ac                     ; 0x20ac <printf+0x363>
    1cf0: 86 12        	stx	$12                     ; 0x2012 <printf+0x2c9>
    1cf2: a6 ad        	ldx	$ad                     ; 0x20ad <printf+0x364>
    1cf4: 86 13        	stx	$13                     ; 0x2013 <printf+0x2ca>
    1cf6: 84 af        	sty	$af                     ; 0x20af <printf+0x366>
    1cf8: a9 20        	lda	#$20
    1cfa: 20 6b 1b     	jsr	$1b6b <_ZN12_GLOBAL__N_13putEcP6Status>
    1cfd: a6 b0        	ldx	$b0                     ; 0x20b0 <printf+0x367>
    1cff: e6 af        	inc	$af                     ; 0x20af <printf+0x366>
    1d01: d0 01        	bne	$1d04 <_ZN12_GLOBAL__N_112print_stringEPKcP6Status+0xc8>
    1d03: e8           	inx
    1d04: 86 b0        	stx	$b0                     ; 0x20b0 <printf+0x367>
    1d06: a4 af        	ldy	$af                     ; 0x20af <printf+0x366>
    1d08: 8a           	txa
    1d09: d0 e3        	bne	$1cee <_ZN12_GLOBAL__N_112print_stringEPKcP6Status+0xb2>
    1d0b: a5 af        	lda	$af                     ; 0x20af <printf+0x366>
    1d0d: d0 df        	bne	$1cee <_ZN12_GLOBAL__N_112print_stringEPKcP6Status+0xb2>
    1d0f: a4 b1        	ldy	$b1                     ; 0x20b1 <printf+0x368>
    1d11: d0 04        	bne	$1d17 <_ZN12_GLOBAL__N_112print_stringEPKcP6Status+0xdb>
    1d13: a5 ae        	lda	$ae                     ; 0x20ae <printf+0x365>
    1d15: f0 26        	beq	$1d3d <_ZN12_GLOBAL__N_112print_stringEPKcP6Status+0x101>
    1d17: a2 ff        	ldx	#$ff
    1d19: c6 ae        	dec	$ae                     ; 0x20ae <printf+0x365>
    1d1b: e4 ae        	cpx	$ae                     ; 0x20ae <printf+0x365>
    1d1d: d0 01        	bne	$1d20 <_ZN12_GLOBAL__N_112print_stringEPKcP6Status+0xe4>
    1d1f: 88           	dey
    1d20: 84 af        	sty	$af                     ; 0x20af <printf+0x366>
    1d22: b2 aa        	lda	($aa)                   ; 0x20aa <printf+0x361>
    1d24: e6 aa        	inc	$aa                     ; 0x20aa <printf+0x361>
    1d26: d0 02        	bne	$1d2a <_ZN12_GLOBAL__N_112print_stringEPKcP6Status+0xee>
    1d28: e6 ab        	inc	$ab                     ; 0x20ab <printf+0x362>
    1d2a: a6 ac        	ldx	$ac                     ; 0x20ac <printf+0x363>
    1d2c: 86 12        	stx	$12                     ; 0x2012 <printf+0x2c9>
    1d2e: a6 ad        	ldx	$ad                     ; 0x20ad <printf+0x364>
    1d30: 86 13        	stx	$13                     ; 0x2013 <printf+0x2ca>
    1d32: 20 6b 1b     	jsr	$1b6b <_ZN12_GLOBAL__N_13putEcP6Status>
    1d35: a4 af        	ldy	$af                     ; 0x20af <printf+0x366>
    1d37: d0 de        	bne	$1d17 <_ZN12_GLOBAL__N_112print_stringEPKcP6Status+0xdb>
    1d39: a5 ae        	lda	$ae                     ; 0x20ae <printf+0x365>
    1d3b: d0 da        	bne	$1d17 <_ZN12_GLOBAL__N_112print_stringEPKcP6Status+0xdb>
    1d3d: 60           	rts
    1d3e: a6 12        	ldx	$12                     ; 0x2012 <printf+0x2c9>
    1d40: 86 ae        	stx	$ae                     ; 0x20ae <printf+0x365>
    1d42: a6 13        	ldx	$13                     ; 0x2013 <printf+0x2ca>
    1d44: 86 b1        	stx	$b1                     ; 0x20b1 <printf+0x368>
    1d46: 4c ab 1c     	jmp	$1cab <_ZN12_GLOBAL__N_112print_stringEPKcP6Status+0x6f>

00001d49 <printf>:
    1d49: a6 12        	ldx	$12                     ; 0x2012 <printf+0x2c9>
    1d4b: 86 5f        	stx	$5f                     ; 0x205f <printf+0x316>
    1d4d: a6 13        	ldx	$13                     ; 0x2013 <printf+0x2ca>
    1d4f: 86 60        	stx	$60                     ; 0x2060 <printf+0x317>
    1d51: 18           	clc
    1d52: a6 10        	ldx	$10                     ; 0x2010 <printf+0x2c7>
    1d54: a4 11        	ldy	$11                     ; 0x2011 <printf+0x2c8>
    1d56: 86 a0        	stx	$a0                     ; 0x20a0 <printf+0x357>
    1d58: 84 a1        	sty	$a1                     ; 0x20a1 <printf+0x358>
    1d5a: a6 a0        	ldx	$a0                     ; 0x20a0 <printf+0x357>
    1d5c: a4 a1        	ldy	$a1                     ; 0x20a1 <printf+0x358>
    1d5e: 86 8b        	stx	$8b                     ; 0x208b <printf+0x342>
    1d60: 84 8c        	sty	$8c                     ; 0x208c <printf+0x343>
    1d62: a2 ff        	ldx	#$ff
    1d64: 86 90        	stx	$90                     ; 0x2090 <printf+0x347>
    1d66: 86 91        	stx	$91                     ; 0x2091 <printf+0x348>
    1d68: 64 92        	stz	$92                     ; 0x2092 <printf+0x349>
    1d6a: 64 93        	stz	$93                     ; 0x2093 <printf+0x34a>
    1d6c: e8           	inx
    1d6d: 86 61        	stx	$61                     ; 0x2061 <printf+0x318>
    1d6f: a2 00        	ldx	#$0
    1d71: 86 62        	stx	$62                     ; 0x2062 <printf+0x319>
    1d73: a6 61        	ldx	$61                     ; 0x2061 <printf+0x318>
    1d75: a4 62        	ldy	$62                     ; 0x2062 <printf+0x319>
    1d77: 86 96        	stx	$96                     ; 0x2096 <printf+0x34d>
    1d79: 84 97        	sty	$97                     ; 0x2097 <printf+0x34e>
    1d7b: a2 02        	ldx	#$2
    1d7d: 86 9c        	stx	$9c                     ; 0x209c <printf+0x353>
    1d7f: 64 9d        	stz	$9d                     ; 0x209d <printf+0x354>
    1d81: a6 8b        	ldx	$8b                     ; 0x208b <printf+0x342>
    1d83: a4 8c        	ldy	$8c                     ; 0x208c <printf+0x343>
    1d85: 86 9e        	stx	$9e                     ; 0x209e <printf+0x355>
    1d87: 84 9f        	sty	$9f                     ; 0x209f <printf+0x356>
    1d89: a2 82        	ldx	#$82
    1d8b: a0 00        	ldy	#$0
    1d8d: 86 12        	stx	$12                     ; 0x2012 <printf+0x2c9>
    1d8f: 84 13        	sty	$13                     ; 0x2013 <printf+0x2ca>
    1d91: a0 01        	ldy	#$1
    1d93: a9 69        	lda	#$69
    1d95: 18           	clc
    1d96: 69 02        	adc	#$2
    1d98: 85 a8        	sta	$a8                     ; 0x20a8 <printf+0x35f>
    1d9a: a9 00        	lda	#$0
    1d9c: 69 00        	adc	#$0
    1d9e: 85 a9        	sta	$a9                     ; 0x20a9 <printf+0x360>
    1da0: e6 12        	inc	$12                     ; 0x2012 <printf+0x2c9>
    1da2: d0 02        	bne	$1da6 <printf+0x5d>
    1da4: e6 13        	inc	$13                     ; 0x2013 <printf+0x2ca>
    1da6: a6 12        	ldx	$12                     ; 0x2012 <printf+0x2c9>
    1da8: 86 a5        	stx	$a5                     ; 0x20a5 <printf+0x35c>
    1daa: a6 13        	ldx	$13                     ; 0x2013 <printf+0x2ca>
    1dac: 86 a6        	stx	$a6                     ; 0x20a6 <printf+0x35d>
    1dae: a6 5f        	ldx	$5f                     ; 0x205f <printf+0x316>
    1db0: 86 63        	stx	$63                     ; 0x2063 <printf+0x31a>
    1db2: a6 60        	ldx	$60                     ; 0x2060 <printf+0x317>
    1db4: 86 64        	stx	$64                     ; 0x2064 <printf+0x31b>
    1db6: b2 5f        	lda	($5f)                   ; 0x205f <printf+0x316>
    1db8: c9 25        	cmp	#$25
    1dba: f0 21        	beq	$1ddd <printf+0x94>
    1dbc: aa           	tax
    1dbd: d0 03        	bne	$1dc2 <printf+0x79>
    1dbf: 4c f8 28     	jmp	$28f8 <printf+0xbaf>
    1dc2: 20 59 1b     	jsr	$1b59 <__putchar>
    1dc5: a0 01        	ldy	#$1
    1dc7: e6 63        	inc	$63                     ; 0x2063 <printf+0x31a>
    1dc9: d0 02        	bne	$1dcd <printf+0x84>
    1dcb: e6 64        	inc	$64                     ; 0x2064 <printf+0x31b>
    1dcd: e6 92        	inc	$92                     ; 0x2092 <printf+0x349>
    1dcf: d0 02        	bne	$1dd3 <printf+0x8a>
    1dd1: e6 93        	inc	$93                     ; 0x2093 <printf+0x34a>
    1dd3: a6 63        	ldx	$63                     ; 0x2063 <printf+0x31a>
    1dd5: 86 5f        	stx	$5f                     ; 0x205f <printf+0x316>
    1dd7: a6 64        	ldx	$64                     ; 0x2064 <printf+0x31b>
    1dd9: 86 60        	stx	$60                     ; 0x2060 <printf+0x317>
    1ddb: 80 d1        	bra	$1dae <printf+0x65>
    1ddd: a6 5f        	ldx	$5f                     ; 0x205f <printf+0x316>
    1ddf: 86 12        	stx	$12                     ; 0x2012 <printf+0x2c9>
    1de1: a6 60        	ldx	$60                     ; 0x2060 <printf+0x317>
    1de3: 86 13        	stx	$13                     ; 0x2013 <printf+0x2ca>
    1de5: e6 12        	inc	$12                     ; 0x2012 <printf+0x2c9>
    1de7: d0 02        	bne	$1deb <printf+0xa2>
    1de9: e6 13        	inc	$13                     ; 0x2013 <printf+0x2ca>
    1deb: b1 63        	lda	($63),y                 ; 0x2063 <printf+0x31a>
    1ded: c9 25        	cmp	#$25
    1def: d0 16        	bne	$1e07 <printf+0xbe>
    1df1: a4 92        	ldy	$92                     ; 0x2092 <printf+0x349>
    1df3: a5 93        	lda	$93                     ; 0x2093 <printf+0x34a>
    1df5: c5 91        	cmp	$91                     ; 0x2091 <printf+0x348>
    1df7: f0 03        	beq	$1dfc <printf+0xb3>
    1df9: 4c 0d 1f     	jmp	$1f0d <printf+0x1c4>
    1dfc: a6 90        	ldx	$90                     ; 0x2090 <printf+0x347>
    1dfe: 86 12        	stx	$12                     ; 0x2012 <printf+0x2c9>
    1e00: 84 13        	sty	$13                     ; 0x2013 <printf+0x2ca>
    1e02: c4 12        	cpy	$12                     ; 0x2012 <printf+0x2c9>
    1e04: 4c 11 1f     	jmp	$1f11 <printf+0x1c8>
    1e07: 64 8e        	stz	$8e                     ; 0x208e <printf+0x345>
    1e09: 64 8f        	stz	$8f                     ; 0x208f <printf+0x346>
    1e0b: 64 8d        	stz	$8d                     ; 0x208d <printf+0x344>
    1e0d: 64 98        	stz	$98                     ; 0x2098 <printf+0x34f>
    1e0f: 64 99        	stz	$99                     ; 0x2099 <printf+0x350>
    1e11: a2 ff        	ldx	#$ff
    1e13: 86 9a        	stx	$9a                     ; 0x209a <printf+0x351>
    1e15: 86 9b        	stx	$9b                     ; 0x209b <printf+0x352>
    1e17: 64 5e        	stz	$5e                     ; 0x205e <printf+0x315>
    1e19: 80 33        	bra	$1e4e <printf+0x105>
    1e1b: a2 02        	ldx	#$2
    1e1d: 80 15        	bra	$1e34 <printf+0xeb>
    1e1f: e0 20        	cpx	#$20
    1e21: f0 15        	beq	$1e38 <printf+0xef>
    1e23: 86 15        	stx	$15                     ; 0x2015 <printf+0x2cc>
    1e25: e0 23        	cpx	#$23
    1e27: f0 03        	beq	$1e2c <printf+0xe3>
    1e29: 4c ab 1e     	jmp	$1eab <printf+0x162>
    1e2c: a5 5e        	lda	$5e                     ; 0x205e <printf+0x315>
    1e2e: a2 04        	ldx	#$4
    1e30: 80 02        	bra	$1e34 <printf+0xeb>
    1e32: a2 10        	ldx	#$10
    1e34: 86 14        	stx	$14                     ; 0x2014 <printf+0x2cb>
    1e36: 80 06        	bra	$1e3e <printf+0xf5>
    1e38: a2 08        	ldx	#$8
    1e3a: 86 14        	stx	$14                     ; 0x2014 <printf+0x2cb>
    1e3c: a5 5e        	lda	$5e                     ; 0x205e <printf+0x315>
    1e3e: 05 14        	ora	$14                     ; 0x2014 <printf+0x2cb>
    1e40: 85 5e        	sta	$5e                     ; 0x205e <printf+0x315>
    1e42: 85 8e        	sta	$8e                     ; 0x208e <printf+0x345>
    1e44: a2 00        	ldx	#$0
    1e46: 86 8f        	stx	$8f                     ; 0x208f <printf+0x346>
    1e48: e6 12        	inc	$12                     ; 0x2012 <printf+0x2c9>
    1e4a: d0 02        	bne	$1e4e <printf+0x105>
    1e4c: e6 13        	inc	$13                     ; 0x2013 <printf+0x2ca>
    1e4e: b2 12        	lda	($12)                   ; 0x2012 <printf+0x2c9>
    1e50: aa           	tax
    1e51: 38           	sec
    1e52: e9 2a        	sbc	#$2a
    1e54: c9 07        	cmp	#$7
    1e56: b0 c7        	bcs	$1e1f <printf+0xd6>
    1e58: 86 15        	stx	$15                     ; 0x2015 <printf+0x2cc>
    1e5a: 0a           	asl
    1e5b: aa           	tax
    1e5c: a0 01        	ldy	#$1
    1e5e: 84 14        	sty	$14                     ; 0x2014 <printf+0x2cb>
    1e60: a5 5e        	lda	$5e                     ; 0x205e <printf+0x315>
    1e62: 7c 8a 2a     	jmp	($2a8a,x)               ; 0x2a8a <__set_v+0x11>
    1e65: a5 9e        	lda	$9e                     ; 0x209e <printf+0x355>
    1e67: a6 9f        	ldx	$9f                     ; 0x209f <printf+0x356>
    1e69: 85 16        	sta	$16                     ; 0x2016 <printf+0x2cd>
    1e6b: 86 17        	stx	$17                     ; 0x2017 <printf+0x2ce>
    1e6d: 18           	clc
    1e6e: 69 02        	adc	#$2
    1e70: a8           	tay
    1e71: 8a           	txa
    1e72: 69 00        	adc	#$0
    1e74: 84 9e        	sty	$9e                     ; 0x209e <printf+0x355>
    1e76: 85 9f        	sta	$9f                     ; 0x209f <printf+0x356>
    1e78: b2 16        	lda	($16)                   ; 0x2016 <printf+0x2cd>
    1e7a: 85 15        	sta	$15                     ; 0x2015 <printf+0x2cc>
    1e7c: a0 01        	ldy	#$1
    1e7e: b1 16        	lda	($16),y                 ; 0x2016 <printf+0x2cd>
    1e80: 85 14        	sta	$14                     ; 0x2014 <printf+0x2cb>
    1e82: 10 15        	bpl	$1e99 <printf+0x150>
    1e84: a5 5e        	lda	$5e                     ; 0x205e <printf+0x315>
    1e86: 09 01        	ora	#$1
    1e88: 85 5e        	sta	$5e                     ; 0x205e <printf+0x315>
    1e8a: 85 8e        	sta	$8e                     ; 0x208e <printf+0x345>
    1e8c: a2 00        	ldx	#$0
    1e8e: 86 8f        	stx	$8f                     ; 0x208f <printf+0x346>
    1e90: 8a           	txa
    1e91: 38           	sec
    1e92: e5 15        	sbc	$15                     ; 0x2015 <printf+0x2cc>
    1e94: 85 15        	sta	$15                     ; 0x2015 <printf+0x2cc>
    1e96: 8a           	txa
    1e97: e5 14        	sbc	$14                     ; 0x2014 <printf+0x2cb>
    1e99: a6 15        	ldx	$15                     ; 0x2015 <printf+0x2cc>
    1e9b: 86 98        	stx	$98                     ; 0x2098 <printf+0x34f>
    1e9d: 85 99        	sta	$99                     ; 0x2099 <printf+0x350>
    1e9f: e6 12        	inc	$12                     ; 0x2012 <printf+0x2c9>
    1ea1: f0 03        	beq	$1ea6 <printf+0x15d>
    1ea3: 4c 5f 1f     	jmp	$1f5f <printf+0x216>
    1ea6: e6 13        	inc	$13                     ; 0x2013 <printf+0x2ca>
    1ea8: 4c 5f 1f     	jmp	$1f5f <printf+0x216>
    1eab: a5 15        	lda	$15                     ; 0x2015 <printf+0x2cc>
    1ead: 18           	clc
    1eae: 69 d0        	adc	#$d0
    1eb0: c9 0a        	cmp	#$a
    1eb2: 90 03        	bcc	$1eb7 <printf+0x16e>
    1eb4: 4c 51 1f     	jmp	$1f51 <printf+0x208>
    1eb7: a6 15        	ldx	$15                     ; 0x2015 <printf+0x2cc>
    1eb9: 86 14        	stx	$14                     ; 0x2014 <printf+0x2cb>
    1ebb: 64 16        	stz	$16                     ; 0x2016 <printf+0x2cd>
    1ebd: 64 15        	stz	$15                     ; 0x2015 <printf+0x2cc>
    1ebf: 64 17        	stz	$17                     ; 0x2017 <printf+0x2ce>
    1ec1: a0 01        	ldy	#$1
    1ec3: 06 16        	asl	$16                     ; 0x2016 <printf+0x2cd>
    1ec5: 26 17        	rol	$17                     ; 0x2017 <printf+0x2ce>
    1ec7: a5 16        	lda	$16                     ; 0x2016 <printf+0x2cd>
    1ec9: 0a           	asl
    1eca: aa           	tax
    1ecb: a5 17        	lda	$17                     ; 0x2017 <printf+0x2ce>
    1ecd: 2a           	rol
    1ece: 86 18        	stx	$18                     ; 0x2018 <printf+0x2cf>
    1ed0: 06 18        	asl	$18                     ; 0x2018 <printf+0x2cf>
    1ed2: 2a           	rol
    1ed3: aa           	tax
    1ed4: a5 18        	lda	$18                     ; 0x2018 <printf+0x2cf>
    1ed6: 18           	clc
    1ed7: 65 16        	adc	$16                     ; 0x2016 <printf+0x2cd>
    1ed9: 85 16        	sta	$16                     ; 0x2016 <printf+0x2cd>
    1edb: 8a           	txa
    1edc: 65 17        	adc	$17                     ; 0x2017 <printf+0x2ce>
    1ede: 85 17        	sta	$17                     ; 0x2017 <printf+0x2ce>
    1ee0: a5 16        	lda	$16                     ; 0x2016 <printf+0x2cd>
    1ee2: 18           	clc
    1ee3: 65 14        	adc	$14                     ; 0x2014 <printf+0x2cb>
    1ee5: 85 14        	sta	$14                     ; 0x2014 <printf+0x2cb>
    1ee7: a5 17        	lda	$17                     ; 0x2017 <printf+0x2ce>
    1ee9: 65 15        	adc	$15                     ; 0x2015 <printf+0x2cc>
    1eeb: aa           	tax
    1eec: 18           	clc
    1eed: a5 14        	lda	$14                     ; 0x2014 <printf+0x2cb>
    1eef: 69 d0        	adc	#$d0
    1ef1: 85 16        	sta	$16                     ; 0x2016 <printf+0x2cd>
    1ef3: 8a           	txa
    1ef4: 69 ff        	adc	#$ff
    1ef6: 85 17        	sta	$17                     ; 0x2017 <printf+0x2ce>
    1ef8: b1 12        	lda	($12),y                 ; 0x2012 <printf+0x2c9>
    1efa: 85 14        	sta	$14                     ; 0x2014 <printf+0x2cb>
    1efc: 18           	clc
    1efd: 69 d0        	adc	#$d0
    1eff: e6 12        	inc	$12                     ; 0x2012 <printf+0x2c9>
    1f01: d0 02        	bne	$1f05 <printf+0x1bc>
    1f03: e6 13        	inc	$13                     ; 0x2013 <printf+0x2ca>
    1f05: c9 0a        	cmp	#$a
    1f07: 64 15        	stz	$15                     ; 0x2015 <printf+0x2cc>
    1f09: 90 b8        	bcc	$1ec3 <printf+0x17a>
    1f0b: 80 4a        	bra	$1f57 <printf+0x20e>
    1f0d: 84 13        	sty	$13                     ; 0x2013 <printf+0x2ca>
    1f0f: c5 91        	cmp	$91                     ; 0x2091 <printf+0x348>
    1f11: a0 01        	ldy	#$1
    1f13: b0 26        	bcs	$1f3b <printf+0x1f2>
    1f15: a6 9d        	ldx	$9d                     ; 0x209d <printf+0x354>
    1f17: e4 62        	cpx	$62                     ; 0x2062 <printf+0x319>
    1f19: d0 19        	bne	$1f34 <printf+0x1eb>
    1f1b: a6 9c        	ldx	$9c                     ; 0x209c <printf+0x353>
    1f1d: e4 61        	cpx	$61                     ; 0x2061 <printf+0x318>
    1f1f: d0 13        	bne	$1f34 <printf+0x1eb>
    1f21: 18           	clc
    1f22: aa           	tax
    1f23: a5 13        	lda	$13                     ; 0x2013 <printf+0x2ca>
    1f25: 65 96        	adc	$96                     ; 0x2096 <printf+0x34d>
    1f27: 85 12        	sta	$12                     ; 0x2012 <printf+0x2c9>
    1f29: 8a           	txa
    1f2a: 65 97        	adc	$97                     ; 0x2097 <printf+0x34e>
    1f2c: 85 13        	sta	$13                     ; 0x2013 <printf+0x2ca>
    1f2e: a9 25        	lda	#$25
    1f30: 92 12        	sta	($12)                   ; 0x2012 <printf+0x2c9>
    1f32: 80 07        	bra	$1f3b <printf+0x1f2>
    1f34: a9 25        	lda	#$25
    1f36: 20 59 1b     	jsr	$1b59 <__putchar>
    1f39: a0 01        	ldy	#$1
    1f3b: e6 92        	inc	$92                     ; 0x2092 <printf+0x349>
    1f3d: d0 02        	bne	$1f41 <printf+0x1f8>
    1f3f: e6 93        	inc	$93                     ; 0x2093 <printf+0x34a>
    1f41: a5 63        	lda	$63                     ; 0x2063 <printf+0x31a>
    1f43: 18           	clc
    1f44: 69 02        	adc	#$2
    1f46: 85 5f        	sta	$5f                     ; 0x205f <printf+0x316>
    1f48: a5 64        	lda	$64                     ; 0x2064 <printf+0x31b>
    1f4a: 69 00        	adc	#$0
    1f4c: 85 60        	sta	$60                     ; 0x2060 <printf+0x317>
    1f4e: 4c ae 1d     	jmp	$1dae <printf+0x65>
    1f51: 64 16        	stz	$16                     ; 0x2016 <printf+0x2cd>
    1f53: 64 17        	stz	$17                     ; 0x2017 <printf+0x2ce>
    1f55: a0 01        	ldy	#$1
    1f57: a6 16        	ldx	$16                     ; 0x2016 <printf+0x2cd>
    1f59: 86 98        	stx	$98                     ; 0x2098 <printf+0x34f>
    1f5b: a5 17        	lda	$17                     ; 0x2017 <printf+0x2ce>
    1f5d: 85 99        	sta	$99                     ; 0x2099 <printf+0x350>
    1f5f: 86 67        	stx	$67                     ; 0x2067 <printf+0x31e>
    1f61: 85 65        	sta	$65                     ; 0x2065 <printf+0x31c>
    1f63: b2 12        	lda	($12)                   ; 0x2012 <printf+0x2c9>
    1f65: a2 ff        	ldx	#$ff
    1f67: c9 2e        	cmp	#$2e
    1f69: d0 39        	bne	$1fa4 <printf+0x25b>
    1f6b: b1 12        	lda	($12),y                 ; 0x2012 <printf+0x2c9>
    1f6d: c9 2a        	cmp	#$2a
    1f6f: d0 38        	bne	$1fa9 <printf+0x260>
    1f71: a5 9e        	lda	$9e                     ; 0x209e <printf+0x355>
    1f73: a6 9f        	ldx	$9f                     ; 0x209f <printf+0x356>
    1f75: 85 14        	sta	$14                     ; 0x2014 <printf+0x2cb>
    1f77: 86 15        	stx	$15                     ; 0x2015 <printf+0x2cc>
    1f79: 18           	clc
    1f7a: 69 02        	adc	#$2
    1f7c: 85 16        	sta	$16                     ; 0x2016 <printf+0x2cd>
    1f7e: 8a           	txa
    1f7f: 69 00        	adc	#$0
    1f81: a6 16        	ldx	$16                     ; 0x2016 <printf+0x2cd>
    1f83: 86 9e        	stx	$9e                     ; 0x209e <printf+0x355>
    1f85: 85 9f        	sta	$9f                     ; 0x209f <printf+0x356>
    1f87: a5 12        	lda	$12                     ; 0x2012 <printf+0x2c9>
    1f89: 18           	clc
    1f8a: 69 02        	adc	#$2
    1f8c: 85 12        	sta	$12                     ; 0x2012 <printf+0x2c9>
    1f8e: a5 13        	lda	$13                     ; 0x2013 <printf+0x2ca>
    1f90: 69 00        	adc	#$0
    1f92: 85 13        	sta	$13                     ; 0x2013 <printf+0x2ca>
    1f94: b2 14        	lda	($14)                   ; 0x2014 <printf+0x2cb>
    1f96: aa           	tax
    1f97: b1 14        	lda	($14),y                 ; 0x2014 <printf+0x2cb>
    1f99: 86 18        	stx	$18                     ; 0x2018 <printf+0x2cf>
    1f9b: 86 9a        	stx	$9a                     ; 0x209a <printf+0x351>
    1f9d: 85 19        	sta	$19                     ; 0x2019 <printf+0x2d0>
    1f9f: 85 9b        	sta	$9b                     ; 0x209b <printf+0x352>
    1fa1: 4c 54 20     	jmp	$2054 <printf+0x30b>
    1fa4: 86 18        	stx	$18                     ; 0x2018 <printf+0x2cf>
    1fa6: 4c 64 20     	jmp	$2064 <printf+0x31b>
    1fa9: 85 17        	sta	$17                     ; 0x2017 <printf+0x2ce>
    1fab: 18           	clc
    1fac: 69 d0        	adc	#$d0
    1fae: c9 0a        	cmp	#$a
    1fb0: 90 03        	bcc	$1fb5 <printf+0x26c>
    1fb2: 4c 46 20     	jmp	$2046 <printf+0x2fd>
    1fb5: 64 16        	stz	$16                     ; 0x2016 <printf+0x2cd>
    1fb7: a2 01        	ldx	#$1
    1fb9: 64 18        	stz	$18                     ; 0x2018 <printf+0x2cf>
    1fbb: 64 19        	stz	$19                     ; 0x2019 <printf+0x2d0>
    1fbd: a0 01        	ldy	#$1
    1fbf: 64 1a        	stz	$1a                     ; 0x201a <printf+0x2d1>
    1fc1: 5a           	phy
    1fc2: a4 1a        	ldy	$1a                     ; 0x201a <printf+0x2d1>
    1fc4: 84 14        	sty	$14                     ; 0x2014 <printf+0x2cb>
    1fc6: 86 15        	stx	$15                     ; 0x2015 <printf+0x2cc>
    1fc8: 06 18        	asl	$18                     ; 0x2018 <printf+0x2cf>
    1fca: 26 19        	rol	$19                     ; 0x2019 <printf+0x2d0>
    1fcc: a5 18        	lda	$18                     ; 0x2018 <printf+0x2cf>
    1fce: 0a           	asl
    1fcf: 85 1d        	sta	$1d                     ; 0x201d <printf+0x2d4>
    1fd1: a5 19        	lda	$19                     ; 0x2019 <printf+0x2d0>
    1fd3: 2a           	rol
    1fd4: 06 1d        	asl	$1d                     ; 0x201d <printf+0x2d4>
    1fd6: 2a           	rol
    1fd7: 85 1e        	sta	$1e                     ; 0x201e <printf+0x2d5>
    1fd9: a5 1d        	lda	$1d                     ; 0x201d <printf+0x2d4>
    1fdb: 18           	clc
    1fdc: 65 18        	adc	$18                     ; 0x2018 <printf+0x2cf>
    1fde: 85 18        	sta	$18                     ; 0x2018 <printf+0x2cf>
    1fe0: a5 1e        	lda	$1e                     ; 0x201e <printf+0x2d5>
    1fe2: 65 19        	adc	$19                     ; 0x2019 <printf+0x2d0>
    1fe4: 85 19        	sta	$19                     ; 0x2019 <printf+0x2d0>
    1fe6: a5 18        	lda	$18                     ; 0x2018 <printf+0x2cf>
    1fe8: 18           	clc
    1fe9: 65 17        	adc	$17                     ; 0x2017 <printf+0x2ce>
    1feb: 85 17        	sta	$17                     ; 0x2017 <printf+0x2ce>
    1fed: a5 19        	lda	$19                     ; 0x2019 <printf+0x2d0>
    1fef: 65 16        	adc	$16                     ; 0x2016 <printf+0x2cd>
    1ff1: 85 16        	sta	$16                     ; 0x2016 <printf+0x2cd>
    1ff3: 18           	clc
    1ff4: a5 17        	lda	$17                     ; 0x2017 <printf+0x2ce>
    1ff6: 69 d0        	adc	#$d0
    1ff8: 85 18        	sta	$18                     ; 0x2018 <printf+0x2cf>
    1ffa: a5 16        	lda	$16                     ; 0x2016 <printf+0x2cd>
    1ffc: 69 ff        	adc	#$ff
    1ffe: 85 19        	sta	$19                     ; 0x2019 <printf+0x2d0>
    2000: e8           	inx
    2001: d0 02        	bne	$2005 <printf+0x2bc>
    2003: e6 1a        	inc	$1a                     ; 0x201a <printf+0x2d1>
    2005: a5 12        	lda	$12                     ; 0x2012 <printf+0x2c9>
    2007: 18           	clc
    2008: 65 15        	adc	$15                     ; 0x2015 <printf+0x2cc>
    200a: 85 1d        	sta	$1d                     ; 0x201d <printf+0x2d4>
    200c: a5 13        	lda	$13                     ; 0x2013 <printf+0x2ca>
    200e: 65 14        	adc	$14                     ; 0x2014 <printf+0x2cb>
    2010: a4 1d        	ldy	$1d                     ; 0x201d <printf+0x2d4>
    2012: 84 16        	sty	$16                     ; 0x2016 <printf+0x2cd>
    2014: 7a           	ply
    2015: 85 17        	sta	$17                     ; 0x2017 <printf+0x2ce>
    2017: b1 16        	lda	($16),y                 ; 0x2016 <printf+0x2cd>
    2019: 85 17        	sta	$17                     ; 0x2017 <printf+0x2ce>
    201b: 18           	clc
    201c: 69 d0        	adc	#$d0
    201e: c9 0a        	cmp	#$a
    2020: 64 16        	stz	$16                     ; 0x2016 <printf+0x2cd>
    2022: b0 03        	bcs	$2027 <printf+0x2de>
    2024: 4c c1 1f     	jmp	$1fc1 <printf+0x278>
    2027: a5 12        	lda	$12                     ; 0x2012 <printf+0x2c9>
    2029: 18           	clc
    202a: 65 15        	adc	$15                     ; 0x2015 <printf+0x2cc>
    202c: 85 12        	sta	$12                     ; 0x2012 <printf+0x2c9>
    202e: a5 13        	lda	$13                     ; 0x2013 <printf+0x2ca>
    2030: 65 14        	adc	$14                     ; 0x2014 <printf+0x2cb>
    2032: 85 13        	sta	$13                     ; 0x2013 <printf+0x2ca>
    2034: e6 12        	inc	$12                     ; 0x2012 <printf+0x2c9>
    2036: d0 02        	bne	$203a <printf+0x2f1>
    2038: e6 13        	inc	$13                     ; 0x2013 <printf+0x2ca>
    203a: a6 18        	ldx	$18                     ; 0x2018 <printf+0x2cf>
    203c: 86 9a        	stx	$9a                     ; 0x209a <printf+0x351>
    203e: a6 19        	ldx	$19                     ; 0x2019 <printf+0x2d0>
    2040: 86 9b        	stx	$9b                     ; 0x209b <printf+0x352>
    2042: a0 01        	ldy	#$1
    2044: 80 0e        	bra	$2054 <printf+0x30b>
    2046: e6 12        	inc	$12                     ; 0x2012 <printf+0x2c9>
    2048: d0 02        	bne	$204c <printf+0x303>
    204a: e6 13        	inc	$13                     ; 0x2013 <printf+0x2ca>
    204c: 64 18        	stz	$18                     ; 0x2018 <printf+0x2cf>
    204e: 64 9a        	stz	$9a                     ; 0x209a <printf+0x351>
    2050: 64 9b        	stz	$9b                     ; 0x209b <printf+0x352>
    2052: 64 19        	stz	$19                     ; 0x2019 <printf+0x2d0>
    2054: a5 5e        	lda	$5e                     ; 0x205e <printf+0x315>
    2056: 29 ef        	and	#$ef
    2058: 85 5e        	sta	$5e                     ; 0x205e <printf+0x315>
    205a: 85 8e        	sta	$8e                     ; 0x208e <printf+0x345>
    205c: a2 00        	ldx	#$0
    205e: 86 8f        	stx	$8f                     ; 0x208f <printf+0x346>
    2060: b2 12        	lda	($12)                   ; 0x2012 <printf+0x2c9>
    2062: a6 19        	ldx	$19                     ; 0x2019 <printf+0x2d0>
    2064: 86 15        	stx	$15                     ; 0x2015 <printf+0x2cc>
    2066: a6 12        	ldx	$12                     ; 0x2012 <printf+0x2c9>
    2068: 86 5f        	stx	$5f                     ; 0x205f <printf+0x316>
    206a: a6 13        	ldx	$13                     ; 0x2013 <printf+0x2ca>
    206c: 86 60        	stx	$60                     ; 0x2060 <printf+0x317>
    206e: e6 5f        	inc	$5f                     ; 0x205f <printf+0x316>
    2070: d0 02        	bne	$2074 <printf+0x32b>
    2072: e6 60        	inc	$60                     ; 0x2060 <printf+0x317>
    2074: 85 14        	sta	$14                     ; 0x2014 <printf+0x2cb>
    2076: 38           	sec
    2077: e9 6c        	sbc	#$6c
    2079: 50 02        	bvc	$207d <printf+0x334>
    207b: 49 80        	eor	#$80
    207d: aa           	tax
    207e: 10 1d        	bpl	$209d <printf+0x354>
    2080: a5 14        	lda	$14                     ; 0x2014 <printf+0x2cb>
    2082: c9 4c        	cmp	#$4c
    2084: f0 27        	beq	$20ad <printf+0x364>
    2086: c9 68        	cmp	#$68
    2088: d0 03        	bne	$208d <printf+0x344>
    208a: 4c 14 21     	jmp	$2114 <printf+0x3cb>
    208d: a2 08        	ldx	#$8
    208f: c9 6a        	cmp	#$6a
    2091: d0 2e        	bne	$20c1 <printf+0x378>
    2093: a5 5f        	lda	$5f                     ; 0x205f <printf+0x316>
    2095: 85 12        	sta	$12                     ; 0x2012 <printf+0x2c9>
    2097: a5 60        	lda	$60                     ; 0x2060 <printf+0x317>
    2099: 85 13        	sta	$13                     ; 0x2013 <printf+0x2ca>
    209b: 80 43        	bra	$20e0 <printf+0x397>
    209d: a6 14        	ldx	$14                     ; 0x2014 <printf+0x2cb>
    209f: e0 6c        	cpx	#$6c
    20a1: f0 23        	beq	$20c6 <printf+0x37d>
    20a3: e0 74        	cpx	#$74
    20a5: f0 12        	beq	$20b9 <printf+0x370>
    20a7: e0 7a        	cpx	#$7a
    20a9: f0 0e        	beq	$20b9 <printf+0x370>
    20ab: 80 14        	bra	$20c1 <printf+0x378>
    20ad: a5 5e        	lda	$5e                     ; 0x205e <printf+0x315>
    20af: 09 40        	ora	#$40
    20b1: 85 5e        	sta	$5e                     ; 0x205e <printf+0x315>
    20b3: 85 8e        	sta	$8e                     ; 0x208e <printf+0x345>
    20b5: a2 00        	ldx	#$0
    20b7: 86 8f        	stx	$8f                     ; 0x208f <printf+0x346>
    20b9: a6 5f        	ldx	$5f                     ; 0x205f <printf+0x316>
    20bb: 86 12        	stx	$12                     ; 0x2012 <printf+0x2c9>
    20bd: a6 60        	ldx	$60                     ; 0x2060 <printf+0x317>
    20bf: 86 13        	stx	$13                     ; 0x2013 <printf+0x2ca>
    20c1: a2 02        	ldx	#$2
    20c3: 8a           	txa
    20c4: 80 1c        	bra	$20e2 <printf+0x399>
    20c6: b1 12        	lda	($12),y                 ; 0x2012 <printf+0x2c9>
    20c8: a2 04        	ldx	#$4
    20ca: c9 6c        	cmp	#$6c
    20cc: f0 03        	beq	$20d1 <printf+0x388>
    20ce: 4c 13 24     	jmp	$2413 <printf+0x6ca>
    20d1: a5 12        	lda	$12                     ; 0x2012 <printf+0x2c9>
    20d3: 18           	clc
    20d4: 69 02        	adc	#$2
    20d6: 85 12        	sta	$12                     ; 0x2012 <printf+0x2c9>
    20d8: a5 13        	lda	$13                     ; 0x2013 <printf+0x2ca>
    20da: 69 00        	adc	#$0
    20dc: 85 13        	sta	$13                     ; 0x2013 <printf+0x2ca>
    20de: a2 08        	ldx	#$8
    20e0: a9 08        	lda	#$8
    20e2: 85 a4        	sta	$a4                     ; 0x20a4 <printf+0x35b>
    20e4: b2 12        	lda	($12)                   ; 0x2012 <printf+0x2c9>
    20e6: 5a           	phy
    20e7: a4 12        	ldy	$12                     ; 0x2012 <printf+0x2c9>
    20e9: 84 5f        	sty	$5f                     ; 0x205f <printf+0x316>
    20eb: a4 13        	ldy	$13                     ; 0x2013 <printf+0x2ca>
    20ed: 84 60        	sty	$60                     ; 0x2060 <printf+0x317>
    20ef: 7a           	ply
    20f0: 86 61        	stx	$61                     ; 0x2061 <printf+0x318>
    20f2: aa           	tax
    20f3: 38           	sec
    20f4: e9 63        	sbc	#$63
    20f6: c9 16        	cmp	#$16
    20f8: b0 39        	bcs	$2133 <printf+0x3ea>
    20fa: 0a           	asl
    20fb: aa           	tax
    20fc: 7c 98 2a     	jmp	($2a98,x)               ; 0x2a98 <__set_v+0x1f>
    20ff: a6 15        	ldx	$15                     ; 0x2015 <printf+0x2cc>
    2101: 86 a2        	stx	$a2                     ; 0x20a2 <printf+0x359>
    2103: a6 18        	ldx	$18                     ; 0x2018 <printf+0x2cf>
    2105: 86 a7        	stx	$a7                     ; 0x20a7 <printf+0x35e>
    2107: a0 0a        	ldy	#$a
    2109: a2 0a        	ldx	#$a
    210b: 86 a3        	stx	$a3                     ; 0x20a3 <printf+0x35a>
    210d: 84 8d        	sty	$8d                     ; 0x208d <printf+0x344>
    210f: 64 68        	stz	$68                     ; 0x2068 <printf+0x31f>
    2111: 4c 33 22     	jmp	$2233 <printf+0x4ea>
    2114: b1 12        	lda	($12),y                 ; 0x2012 <printf+0x2c9>
    2116: a2 02        	ldx	#$2
    2118: c9 68        	cmp	#$68
    211a: f0 03        	beq	$211f <printf+0x3d6>
    211c: 4c 19 24     	jmp	$2419 <printf+0x6d0>
    211f: a5 12        	lda	$12                     ; 0x2012 <printf+0x2c9>
    2121: 18           	clc
    2122: 69 02        	adc	#$2
    2124: 85 12        	sta	$12                     ; 0x2012 <printf+0x2c9>
    2126: a5 13        	lda	$13                     ; 0x2013 <printf+0x2ca>
    2128: 69 00        	adc	#$0
    212a: 85 13        	sta	$13                     ; 0x2013 <printf+0x2ca>
    212c: a2 01        	ldx	#$1
    212e: 86 a4        	stx	$a4                     ; 0x20a4 <printf+0x35b>
    2130: e8           	inx
    2131: 80 b1        	bra	$20e4 <printf+0x39b>
    2133: e0 58        	cpx	#$58
    2135: f0 03        	beq	$213a <printf+0x3f1>
    2137: 4c b4 28     	jmp	$28b4 <printf+0xb6b>
    213a: a6 15        	ldx	$15                     ; 0x2015 <printf+0x2cc>
    213c: 86 a2        	stx	$a2                     ; 0x20a2 <printf+0x359>
    213e: a6 18        	ldx	$18                     ; 0x2018 <printf+0x2cf>
    2140: 86 a7        	stx	$a7                     ; 0x20a7 <printf+0x35e>
    2142: a2 10        	ldx	#$10
    2144: 86 8d        	stx	$8d                     ; 0x208d <printf+0x344>
    2146: a9 00        	lda	#$0
    2148: 09 01        	ora	#$1
    214a: a6 5e        	ldx	$5e                     ; 0x205e <printf+0x315>
    214c: 80 29        	bra	$2177 <printf+0x42e>
    214e: a6 15        	ldx	$15                     ; 0x2015 <printf+0x2cc>
    2150: 86 a2        	stx	$a2                     ; 0x20a2 <printf+0x359>
    2152: a6 18        	ldx	$18                     ; 0x2018 <printf+0x2cf>
    2154: 86 a7        	stx	$a7                     ; 0x20a7 <printf+0x35e>
    2156: a2 10        	ldx	#$10
    2158: 86 8d        	stx	$8d                     ; 0x208d <printf+0x344>
    215a: a5 5e        	lda	$5e                     ; 0x205e <printf+0x315>
    215c: 09 84        	ora	#$84
    215e: 80 10        	bra	$2170 <printf+0x427>
    2160: a6 15        	ldx	$15                     ; 0x2015 <printf+0x2cc>
    2162: 86 a2        	stx	$a2                     ; 0x20a2 <printf+0x359>
    2164: a6 18        	ldx	$18                     ; 0x2018 <printf+0x2cf>
    2166: 86 a7        	stx	$a7                     ; 0x20a7 <printf+0x35e>
    2168: a2 10        	ldx	#$10
    216a: 86 8d        	stx	$8d                     ; 0x208d <printf+0x344>
    216c: a5 5e        	lda	$5e                     ; 0x205e <printf+0x315>
    216e: 09 80        	ora	#$80
    2170: aa           	tax
    2171: a9 00        	lda	#$0
    2173: 09 01        	ora	#$1
    2175: 86 5e        	stx	$5e                     ; 0x205e <printf+0x315>
    2177: 86 8e        	stx	$8e                     ; 0x208e <printf+0x345>
    2179: 85 68        	sta	$68                     ; 0x2068 <printf+0x31f>
    217b: 85 8f        	sta	$8f                     ; 0x208f <printf+0x346>
    217d: a2 10        	ldx	#$10
    217f: 86 a3        	stx	$a3                     ; 0x20a3 <printf+0x35a>
    2181: 4c 33 22     	jmp	$2233 <printf+0x4ea>
    2184: a5 9e        	lda	$9e                     ; 0x209e <printf+0x355>
    2186: a6 9f        	ldx	$9f                     ; 0x209f <printf+0x356>
    2188: 85 12        	sta	$12                     ; 0x2012 <printf+0x2c9>
    218a: 86 13        	stx	$13                     ; 0x2013 <printf+0x2ca>
    218c: 18           	clc
    218d: 69 02        	adc	#$2
    218f: 85 14        	sta	$14                     ; 0x2014 <printf+0x2cb>
    2191: 8a           	txa
    2192: 69 00        	adc	#$0
    2194: a6 14        	ldx	$14                     ; 0x2014 <printf+0x2cb>
    2196: 86 9e        	stx	$9e                     ; 0x209e <printf+0x355>
    2198: 85 9f        	sta	$9f                     ; 0x209f <printf+0x356>
    219a: b2 12        	lda	($12)                   ; 0x2012 <printf+0x2c9>
    219c: aa           	tax
    219d: b1 12        	lda	($12),y                 ; 0x2012 <printf+0x2c9>
    219f: 86 12        	stx	$12                     ; 0x2012 <printf+0x2c9>
    21a1: 85 13        	sta	$13                     ; 0x2013 <printf+0x2ca>
    21a3: a5 92        	lda	$92                     ; 0x2092 <printf+0x349>
    21a5: a6 93        	ldx	$93                     ; 0x2093 <printf+0x34a>
    21a7: 92 12        	sta	($12)                   ; 0x2012 <printf+0x2c9>
    21a9: 8a           	txa
    21aa: 91 12        	sta	($12),y                 ; 0x2012 <printf+0x2c9>
    21ac: 4c 0c 22     	jmp	$220c <printf+0x4c3>
    21af: a5 9e        	lda	$9e                     ; 0x209e <printf+0x355>
    21b1: a6 9f        	ldx	$9f                     ; 0x209f <printf+0x356>
    21b3: 85 12        	sta	$12                     ; 0x2012 <printf+0x2c9>
    21b5: 86 13        	stx	$13                     ; 0x2013 <printf+0x2ca>
    21b7: 18           	clc
    21b8: 69 02        	adc	#$2
    21ba: 85 14        	sta	$14                     ; 0x2014 <printf+0x2cb>
    21bc: 8a           	txa
    21bd: 69 00        	adc	#$0
    21bf: a6 14        	ldx	$14                     ; 0x2014 <printf+0x2cb>
    21c1: 86 9e        	stx	$9e                     ; 0x209e <printf+0x355>
    21c3: 85 9f        	sta	$9f                     ; 0x209f <printf+0x356>
    21c5: b2 12        	lda	($12)                   ; 0x2012 <printf+0x2c9>
    21c7: aa           	tax
    21c8: b1 12        	lda	($12),y                 ; 0x2012 <printf+0x2c9>
    21ca: 86 12        	stx	$12                     ; 0x2012 <printf+0x2c9>
    21cc: 85 13        	sta	$13                     ; 0x2013 <printf+0x2ca>
    21ce: 80 2f        	bra	$21ff <printf+0x4b6>
    21d0: a6 15        	ldx	$15                     ; 0x2015 <printf+0x2cc>
    21d2: 86 a2        	stx	$a2                     ; 0x20a2 <printf+0x359>
    21d4: a6 18        	ldx	$18                     ; 0x2018 <printf+0x2cf>
    21d6: 86 a7        	stx	$a7                     ; 0x20a7 <printf+0x35e>
    21d8: a0 08        	ldy	#$8
    21da: a2 08        	ldx	#$8
    21dc: 80 45        	bra	$2223 <printf+0x4da>
    21de: a5 9e        	lda	$9e                     ; 0x209e <printf+0x355>
    21e0: a6 9f        	ldx	$9f                     ; 0x209f <printf+0x356>
    21e2: 85 12        	sta	$12                     ; 0x2012 <printf+0x2c9>
    21e4: 86 13        	stx	$13                     ; 0x2013 <printf+0x2ca>
    21e6: 18           	clc
    21e7: 69 02        	adc	#$2
    21e9: a8           	tay
    21ea: 8a           	txa
    21eb: 69 00        	adc	#$0
    21ed: 84 9e        	sty	$9e                     ; 0x209e <printf+0x355>
    21ef: 85 9f        	sta	$9f                     ; 0x209f <printf+0x356>
    21f1: b2 12        	lda	($12)                   ; 0x2012 <printf+0x2c9>
    21f3: 85 80        	sta	$80                     ; 0x2080 <printf+0x337>
    21f5: 64 81        	stz	$81                     ; 0x2081 <printf+0x338>
    21f7: a2 80        	ldx	#$80
    21f9: 86 12        	stx	$12                     ; 0x2012 <printf+0x2c9>
    21fb: a2 00        	ldx	#$0
    21fd: 86 13        	stx	$13                     ; 0x2013 <printf+0x2ca>
    21ff: a2 8d        	ldx	#$8d
    2201: 86 14        	stx	$14                     ; 0x2014 <printf+0x2cb>
    2203: a2 00        	ldx	#$0
    2205: 86 15        	stx	$15                     ; 0x2015 <printf+0x2cc>
    2207: 20 3c 1c     	jsr	$1c3c <_ZN12_GLOBAL__N_112print_stringEPKcP6Status>
    220a: a0 01        	ldy	#$1
    220c: a2 00        	ldx	#$0
    220e: 86 61        	stx	$61                     ; 0x2061 <printf+0x318>
    2210: a2 00        	ldx	#$0
    2212: 86 62        	stx	$62                     ; 0x2062 <printf+0x319>
    2214: 4c 9c 28     	jmp	$289c <printf+0xb53>
    2217: a6 15        	ldx	$15                     ; 0x2015 <printf+0x2cc>
    2219: 86 a2        	stx	$a2                     ; 0x20a2 <printf+0x359>
    221b: a6 18        	ldx	$18                     ; 0x2018 <printf+0x2cf>
    221d: 86 a7        	stx	$a7                     ; 0x20a7 <printf+0x35e>
    221f: a0 0a        	ldy	#$a
    2221: a2 0a        	ldx	#$a
    2223: 86 a3        	stx	$a3                     ; 0x20a3 <printf+0x35a>
    2225: 84 8d        	sty	$8d                     ; 0x208d <printf+0x344>
    2227: a9 00        	lda	#$0
    2229: 09 01        	ora	#$1
    222b: a6 5e        	ldx	$5e                     ; 0x205e <printf+0x315>
    222d: 86 8e        	stx	$8e                     ; 0x208e <printf+0x345>
    222f: 85 68        	sta	$68                     ; 0x2068 <printf+0x31f>
    2231: 85 8f        	sta	$8f                     ; 0x208f <printf+0x346>
    2233: a5 a4        	lda	$a4                     ; 0x20a4 <printf+0x35b>
    2235: 85 82        	sta	$82                     ; 0x2082 <printf+0x339>
    2237: a4 9e        	ldy	$9e                     ; 0x209e <printf+0x355>
    2239: a6 9f        	ldx	$9f                     ; 0x209f <printf+0x356>
    223b: 86 66        	stx	$66                     ; 0x2066 <printf+0x31d>
    223d: 84 14        	sty	$14                     ; 0x2014 <printf+0x2cb>
    223f: 84 5d        	sty	$5d                     ; 0x205d <printf+0x314>
    2241: 86 15        	stx	$15                     ; 0x2015 <printf+0x2cc>
    2243: a6 a5        	ldx	$a5                     ; 0x20a5 <printf+0x35c>
    2245: 86 12        	stx	$12                     ; 0x2012 <printf+0x2c9>
    2247: a6 a6        	ldx	$a6                     ; 0x20a6 <printf+0x35d>
    2249: 86 13        	stx	$13                     ; 0x2013 <printf+0x2ca>
    224b: a2 00        	ldx	#$0
    224d: 85 62        	sta	$62                     ; 0x2062 <printf+0x319>
    224f: 20 05 29     	jsr	$2905 <memcpy>
    2252: 18           	clc
    2253: a5 5d        	lda	$5d                     ; 0x205d <printf+0x314>
    2255: 65 61        	adc	$61                     ; 0x2061 <printf+0x318>
    2257: aa           	tax
    2258: a5 66        	lda	$66                     ; 0x2066 <printf+0x31d>
    225a: 69 00        	adc	#$0
    225c: 86 9e        	stx	$9e                     ; 0x209e <printf+0x355>
    225e: 85 9f        	sta	$9f                     ; 0x209f <printf+0x356>
    2260: a5 68        	lda	$68                     ; 0x2068 <printf+0x31f>
    2262: 29 01        	and	#$1
    2264: b8           	clv
    2265: f0 03        	beq	$226a <printf+0x521>
    2267: 4c be 22     	jmp	$22be <printf+0x575>
    226a: a6 62        	ldx	$62                     ; 0x2062 <printf+0x319>
    226c: b5 82        	lda	$82,x                   ; 0x2082 <printf+0x339>
    226e: aa           	tax
    226f: a0 01        	ldy	#$1
    2271: a5 65        	lda	$65                     ; 0x2065 <printf+0x31c>
    2273: 85 1a        	sta	$1a                     ; 0x201a <printf+0x2d1>
    2275: a5 a7        	lda	$a7                     ; 0x20a7 <printf+0x35e>
    2277: 85 65        	sta	$65                     ; 0x2065 <printf+0x31c>
    2279: a9 00        	lda	#$0
    227b: 85 61        	sta	$61                     ; 0x2061 <printf+0x318>
    227d: a9 00        	lda	#$0
    227f: 85 62        	sta	$62                     ; 0x2062 <printf+0x319>
    2281: a5 a2        	lda	$a2                     ; 0x20a2 <printf+0x359>
    2283: 85 66        	sta	$66                     ; 0x2066 <printf+0x31d>
    2285: 8a           	txa
    2286: 10 4c        	bpl	$22d4 <printf+0x58b>
    2288: a2 00        	ldx	#$0
    228a: 64 12        	stz	$12                     ; 0x2012 <printf+0x2c9>
    228c: a9 00        	lda	#$0
    228e: 38           	sec
    228f: f5 83        	sbc	$83,x                   ; 0x2083 <printf+0x33a>
    2291: a0 00        	ldy	#$0
    2293: b0 02        	bcs	$2297 <printf+0x54e>
    2295: a0 01        	ldy	#$1
    2297: 38           	sec
    2298: e5 12        	sbc	$12                     ; 0x2012 <printf+0x2c9>
    229a: 85 13        	sta	$13                     ; 0x2013 <printf+0x2ca>
    229c: 64 12        	stz	$12                     ; 0x2012 <printf+0x2c9>
    229e: b0 04        	bcs	$22a4 <printf+0x55b>
    22a0: a9 01        	lda	#$1
    22a2: 85 12        	sta	$12                     ; 0x2012 <printf+0x2c9>
    22a4: 98           	tya
    22a5: 05 12        	ora	$12                     ; 0x2012 <printf+0x2c9>
    22a7: 85 12        	sta	$12                     ; 0x2012 <printf+0x2c9>
    22a9: a5 13        	lda	$13                     ; 0x2013 <printf+0x2ca>
    22ab: 9d 83 00     	sta	$83,x                   ; 0x83 <__rc31+0x54>
    22ae: e8           	inx
    22af: 86 13        	stx	$13                     ; 0x2013 <printf+0x2ca>
    22b1: a4 a4        	ldy	$a4                     ; 0x20a4 <printf+0x35b>
    22b3: c4 13        	cpy	$13                     ; 0x2013 <printf+0x2ca>
    22b5: d0 d5        	bne	$228c <printf+0x543>
    22b7: 2c 79 2a     	bit	$2a79                   ; 0x2a79 <__set_v>
    22ba: a0 01        	ldy	#$1
    22bc: 80 16        	bra	$22d4 <printf+0x58b>
    22be: a0 01        	ldy	#$1
    22c0: a6 65        	ldx	$65                     ; 0x2065 <printf+0x31c>
    22c2: 86 1a        	stx	$1a                     ; 0x201a <printf+0x2d1>
    22c4: a6 a7        	ldx	$a7                     ; 0x20a7 <printf+0x35e>
    22c6: 86 65        	stx	$65                     ; 0x2065 <printf+0x31c>
    22c8: a2 00        	ldx	#$0
    22ca: 86 61        	stx	$61                     ; 0x2061 <printf+0x318>
    22cc: a2 00        	ldx	#$0
    22ce: 86 62        	stx	$62                     ; 0x2062 <printf+0x319>
    22d0: a6 a2        	ldx	$a2                     ; 0x20a2 <printf+0x359>
    22d2: 86 66        	stx	$66                     ; 0x2066 <printf+0x31d>
    22d4: a2 01        	ldx	#$1
    22d6: 70 02        	bvs	$22da <printf+0x591>
    22d8: a2 00        	ldx	#$0
    22da: 86 16        	stx	$16                     ; 0x2016 <printf+0x2cd>
    22dc: a5 a4        	lda	$a4                     ; 0x20a4 <printf+0x35b>
    22de: 0a           	asl
    22df: 0a           	asl
    22e0: 0a           	asl
    22e1: 85 12        	sta	$12                     ; 0x2012 <printf+0x2c9>
    22e3: a2 00        	ldx	#$0
    22e5: 8a           	txa
    22e6: 4c 9a 23     	jmp	$239a <printf+0x651>
    22e9: da           	phx
    22ea: 7a           	ply
    22eb: c8           	iny
    22ec: 9d 6b 00     	sta	$6b,x                   ; 0x6b <__rc31+0x3c>
    22ef: 5a           	phy
    22f0: fa           	plx
    22f1: c4 5d        	cpy	$5d                     ; 0x205d <printf+0x314>
    22f3: f0 30        	beq	$2325 <printf+0x5dc>
    22f5: b5 6b        	lda	$6b,x                   ; 0x206b <printf+0x322>
    22f7: 0a           	asl
    22f8: a4 a2        	ldy	$a2                     ; 0x20a2 <printf+0x359>
    22fa: f0 02        	beq	$22fe <printf+0x5b5>
    22fc: 09 01        	ora	#$1
    22fe: a4 a3        	ldy	$a3                     ; 0x20a3 <printf+0x35a>
    2300: 84 14        	sty	$14                     ; 0x2014 <printf+0x2cb>
    2302: c5 14        	cmp	$14                     ; 0x2014 <printf+0x2cb>
    2304: a0 01        	ldy	#$1
    2306: b0 02        	bcs	$230a <printf+0x5c1>
    2308: a0 00        	ldy	#$0
    230a: 84 a2        	sty	$a2                     ; 0x20a2 <printf+0x359>
    230c: 90 db        	bcc	$22e9 <printf+0x5a0>
    230e: 38           	sec
    230f: e5 14        	sbc	$14                     ; 0x2014 <printf+0x2cb>
    2311: 9d 6b 00     	sta	$6b,x                   ; 0x6b <__rc31+0x3c>
    2314: e8           	inx
    2315: e4 5d        	cpx	$5d                     ; 0x205d <printf+0x314>
    2317: d0 dc        	bne	$22f5 <printf+0x5ac>
    2319: a4 5d        	ldy	$5d                     ; 0x205d <printf+0x314>
    231b: a6 5d        	ldx	$5d                     ; 0x205d <printf+0x314>
    231d: e8           	inx
    231e: a9 01        	lda	#$1
    2320: 99 6b 00     	sta	$6b,y                   ; 0x6b <__rc31+0x3c>
    2323: 86 5d        	stx	$5d                     ; 0x205d <printf+0x314>
    2325: a6 a4        	ldx	$a4                     ; 0x20a4 <printf+0x35b>
    2327: b5 82        	lda	$82,x                   ; 0x2082 <printf+0x339>
    2329: aa           	tax
    232a: 30 0f        	bmi	$233b <printf+0x5f2>
    232c: a0 01        	ldy	#$1
    232e: 80 42        	bra	$2372 <printf+0x629>
    2330: a6 a4        	ldx	$a4                     ; 0x20a4 <printf+0x35b>
    2332: b5 82        	lda	$82,x                   ; 0x2082 <printf+0x339>
    2334: aa           	tax
    2335: 64 5d        	stz	$5d                     ; 0x205d <printf+0x314>
    2337: 10 39        	bpl	$2372 <printf+0x629>
    2339: 80 2a        	bra	$2365 <printf+0x61c>
    233b: a5 5d        	lda	$5d                     ; 0x205d <printf+0x314>
    233d: f0 24        	beq	$2363 <printf+0x61a>
    233f: a2 00        	ldx	#$0
    2341: a4 a3        	ldy	$a3                     ; 0x20a3 <printf+0x35a>
    2343: 84 14        	sty	$14                     ; 0x2014 <printf+0x2cb>
    2345: b5 6b        	lda	$6b,x                   ; 0x206b <printf+0x322>
    2347: 1a           	inc
    2348: f6 6b        	inc	$6b,x                   ; 0x206b <printf+0x322>
    234a: c5 14        	cmp	$14                     ; 0x2014 <printf+0x2cb>
    234c: 90 de        	bcc	$232c <printf+0x5e3>
    234e: a4 14        	ldy	$14                     ; 0x2014 <printf+0x2cb>
    2350: 84 13        	sty	$13                     ; 0x2013 <printf+0x2ca>
    2352: 38           	sec
    2353: e5 13        	sbc	$13                     ; 0x2013 <printf+0x2ca>
    2355: 9d 6b 00     	sta	$6b,x                   ; 0x6b <__rc31+0x3c>
    2358: e8           	inx
    2359: 86 13        	stx	$13                     ; 0x2013 <printf+0x2ca>
    235b: a4 5d        	ldy	$5d                     ; 0x205d <printf+0x314>
    235d: c4 13        	cpy	$13                     ; 0x2013 <printf+0x2ca>
    235f: d0 e4        	bne	$2345 <printf+0x5fc>
    2361: 80 02        	bra	$2365 <printf+0x61c>
    2363: 64 5d        	stz	$5d                     ; 0x205d <printf+0x314>
    2365: a4 5d        	ldy	$5d                     ; 0x205d <printf+0x314>
    2367: a6 5d        	ldx	$5d                     ; 0x205d <printf+0x314>
    2369: e8           	inx
    236a: a9 01        	lda	#$1
    236c: 99 6b 00     	sta	$6b,y                   ; 0x6b <__rc31+0x3c>
    236f: a8           	tay
    2370: 86 5d        	stx	$5d                     ; 0x205d <printf+0x314>
    2372: a2 01        	ldx	#$1
    2374: 64 13        	stz	$13                     ; 0x2013 <printf+0x2ca>
    2376: a5 a4        	lda	$a4                     ; 0x20a4 <printf+0x35b>
    2378: 85 14        	sta	$14                     ; 0x2014 <printf+0x2cb>
    237a: b5 82        	lda	$82,x                   ; 0x2082 <printf+0x339>
    237c: 0a           	asl
    237d: 64 15        	stz	$15                     ; 0x2015 <printf+0x2cc>
    237f: 26 15        	rol	$15                     ; 0x2015 <printf+0x2cc>
    2381: 05 13        	ora	$13                     ; 0x2013 <printf+0x2ca>
    2383: 9d 82 00     	sta	$82,x                   ; 0x82 <__rc31+0x53>
    2386: e8           	inx
    2387: c6 14        	dec	$14                     ; 0x2014 <printf+0x2cb>
    2389: a5 15        	lda	$15                     ; 0x2015 <printf+0x2cc>
    238b: 85 13        	sta	$13                     ; 0x2013 <printf+0x2ca>
    238d: a5 14        	lda	$14                     ; 0x2014 <printf+0x2cb>
    238f: d0 e9        	bne	$237a <printf+0x631>
    2391: a5 17        	lda	$17                     ; 0x2017 <printf+0x2ce>
    2393: 1a           	inc
    2394: c5 12        	cmp	$12                     ; 0x2012 <printf+0x2c9>
    2396: a6 5d        	ldx	$5d                     ; 0x205d <printf+0x314>
    2398: b0 13        	bcs	$23ad <printf+0x664>
    239a: 85 17        	sta	$17                     ; 0x2017 <printf+0x2ce>
    239c: 8a           	txa
    239d: d0 03        	bne	$23a2 <printf+0x659>
    239f: 4c 30 23     	jmp	$2330 <printf+0x5e7>
    23a2: 86 5d        	stx	$5d                     ; 0x205d <printf+0x314>
    23a4: a2 00        	ldx	#$0
    23a6: 86 a2        	stx	$a2                     ; 0x20a2 <printf+0x359>
    23a8: a2 00        	ldx	#$0
    23aa: 4c f5 22     	jmp	$22f5 <printf+0x5ac>
    23ad: a5 5e        	lda	$5e                     ; 0x205e <printf+0x315>
    23af: e6 66        	inc	$66                     ; 0x2066 <printf+0x31d>
    23b1: c6 66        	dec	$66                     ; 0x2066 <printf+0x31d>
    23b3: 10 08        	bpl	$23bd <printf+0x674>
    23b5: a2 01        	ldx	#$1
    23b7: 64 66        	stz	$66                     ; 0x2066 <printf+0x31d>
    23b9: 86 65        	stx	$65                     ; 0x2065 <printf+0x31c>
    23bb: a6 5d        	ldx	$5d                     ; 0x205d <printf+0x314>
    23bd: 29 04        	and	#$4
    23bf: f0 2b        	beq	$23ec <printf+0x6a3>
    23c1: a5 a3        	lda	$a3                     ; 0x20a3 <printf+0x35a>
    23c3: c9 10        	cmp	#$10
    23c5: f0 14        	beq	$23db <printf+0x692>
    23c7: c9 08        	cmp	#$8
    23c9: d0 21        	bne	$23ec <printf+0x6a3>
    23cb: a2 00        	ldx	#$0
    23cd: e4 66        	cpx	$66                     ; 0x2066 <printf+0x31d>
    23cf: f0 03        	beq	$23d4 <printf+0x68b>
    23d1: 4c c1 28     	jmp	$28c1 <printf+0xb78>
    23d4: a6 5d        	ldx	$5d                     ; 0x205d <printf+0x314>
    23d6: e4 65        	cpx	$65                     ; 0x2065 <printf+0x31c>
    23d8: 4c c3 28     	jmp	$28c3 <printf+0xb7a>
    23db: 8a           	txa
    23dc: f0 0e        	beq	$23ec <printf+0x6a3>
    23de: a5 5e        	lda	$5e                     ; 0x205e <printf+0x315>
    23e0: 29 80        	and	#$80
    23e2: d0 03        	bne	$23e7 <printf+0x69e>
    23e4: 4c dc 28     	jmp	$28dc <printf+0xb93>
    23e7: a2 78        	ldx	#$78
    23e9: 4c de 28     	jmp	$28de <printf+0xb95>
    23ec: a6 5e        	ldx	$5e                     ; 0x205e <printf+0x315>
    23ee: a9 2d        	lda	#$2d
    23f0: 85 a4        	sta	$a4                     ; 0x20a4 <printf+0x35b>
    23f2: a5 16        	lda	$16                     ; 0x2016 <printf+0x2cd>
    23f4: d0 32        	bne	$2428 <printf+0x6df>
    23f6: 86 12        	stx	$12                     ; 0x2012 <printf+0x2c9>
    23f8: 8a           	txa
    23f9: 29 02        	and	#$2
    23fb: a2 2b        	ldx	#$2b
    23fd: 86 a4        	stx	$a4                     ; 0x20a4 <printf+0x35b>
    23ff: aa           	tax
    2400: d0 26        	bne	$2428 <printf+0x6df>
    2402: a5 12        	lda	$12                     ; 0x2012 <printf+0x2c9>
    2404: 29 08        	and	#$8
    2406: d0 1c        	bne	$2424 <printf+0x6db>
    2408: a2 01        	ldx	#$1
    240a: 86 a3        	stx	$a3                     ; 0x20a3 <printf+0x35a>
    240c: a9 00        	lda	#$0
    240e: aa           	tax
    240f: 86 a2        	stx	$a2                     ; 0x20a2 <printf+0x359>
    2411: 80 1c        	bra	$242f <printf+0x6e6>
    2413: 85 12        	sta	$12                     ; 0x2012 <printf+0x2c9>
    2415: a9 04        	lda	#$4
    2417: 80 04        	bra	$241d <printf+0x6d4>
    2419: 85 12        	sta	$12                     ; 0x2012 <printf+0x2c9>
    241b: a9 02        	lda	#$2
    241d: 85 a4        	sta	$a4                     ; 0x20a4 <printf+0x35b>
    241f: a5 12        	lda	$12                     ; 0x2012 <printf+0x2c9>
    2421: 4c f0 20     	jmp	$20f0 <printf+0x3a7>
    2424: a2 20        	ldx	#$20
    2426: 86 a4        	stx	$a4                     ; 0x20a4 <printf+0x35b>
    2428: a2 00        	ldx	#$0
    242a: 86 a3        	stx	$a3                     ; 0x20a3 <printf+0x35a>
    242c: 86 a2        	stx	$a2                     ; 0x20a2 <printf+0x359>
    242e: 98           	tya
    242f: a6 66        	ldx	$66                     ; 0x2066 <printf+0x31d>
    2431: d0 35        	bne	$2468 <printf+0x71f>
    2433: a6 65        	ldx	$65                     ; 0x2065 <printf+0x31c>
    2435: a4 5d        	ldy	$5d                     ; 0x205d <printf+0x314>
    2437: 84 12        	sty	$12                     ; 0x2012 <printf+0x2c9>
    2439: e4 12        	cpx	$12                     ; 0x2012 <printf+0x2c9>
    243b: a6 65        	ldx	$65                     ; 0x2065 <printf+0x31c>
    243d: 86 12        	stx	$12                     ; 0x2012 <printf+0x2c9>
    243f: a6 66        	ldx	$66                     ; 0x2066 <printf+0x31d>
    2441: 86 13        	stx	$13                     ; 0x2013 <printf+0x2ca>
    2443: b0 04        	bcs	$2449 <printf+0x700>
    2445: 84 12        	sty	$12                     ; 0x2012 <printf+0x2c9>
    2447: 64 13        	stz	$13                     ; 0x2013 <printf+0x2ca>
    2449: 85 18        	sta	$18                     ; 0x2018 <printf+0x2cf>
    244b: 18           	clc
    244c: 65 12        	adc	$12                     ; 0x2012 <printf+0x2c9>
    244e: 85 16        	sta	$16                     ; 0x2016 <printf+0x2cd>
    2450: 85 14        	sta	$14                     ; 0x2014 <printf+0x2cb>
    2452: a5 13        	lda	$13                     ; 0x2013 <printf+0x2ca>
    2454: 69 00        	adc	#$0
    2456: 85 15        	sta	$15                     ; 0x2015 <printf+0x2cc>
    2458: c5 1a        	cmp	$1a                     ; 0x201a <printf+0x2d1>
    245a: d0 1e        	bne	$247a <printf+0x731>
    245c: a6 1a        	ldx	$1a                     ; 0x201a <printf+0x2d1>
    245e: 86 17        	stx	$17                     ; 0x2017 <printf+0x2ce>
    2460: a6 67        	ldx	$67                     ; 0x2067 <printf+0x31e>
    2462: a5 16        	lda	$16                     ; 0x2016 <printf+0x2cd>
    2464: c5 67        	cmp	$67                     ; 0x2067 <printf+0x31e>
    2466: 80 1c        	bra	$2484 <printf+0x73b>
    2468: a6 66        	ldx	$66                     ; 0x2066 <printf+0x31d>
    246a: e0 00        	cpx	#$0
    246c: a6 65        	ldx	$65                     ; 0x2065 <printf+0x31c>
    246e: 86 12        	stx	$12                     ; 0x2012 <printf+0x2c9>
    2470: a6 66        	ldx	$66                     ; 0x2066 <printf+0x31d>
    2472: 86 13        	stx	$13                     ; 0x2013 <printf+0x2ca>
    2474: a4 5d        	ldy	$5d                     ; 0x205d <printf+0x314>
    2476: 90 cd        	bcc	$2445 <printf+0x6fc>
    2478: 80 cf        	bra	$2449 <printf+0x700>
    247a: a6 67        	ldx	$67                     ; 0x2067 <printf+0x31e>
    247c: 5a           	phy
    247d: a4 1a        	ldy	$1a                     ; 0x201a <printf+0x2d1>
    247f: 84 17        	sty	$17                     ; 0x2017 <printf+0x2ce>
    2481: 7a           	ply
    2482: c5 1a        	cmp	$1a                     ; 0x201a <printf+0x2d1>
    2484: 64 68        	stz	$68                     ; 0x2068 <printf+0x31f>
    2486: 64 67        	stz	$67                     ; 0x2067 <printf+0x31e>
    2488: 90 03        	bcc	$248d <printf+0x744>
    248a: 4c 20 25     	jmp	$2520 <printf+0x7d7>
    248d: a5 5e        	lda	$5e                     ; 0x205e <printf+0x315>
    248f: 29 11        	and	#$11
    2491: 86 16        	stx	$16                     ; 0x2016 <printf+0x2cd>
    2493: f0 0f        	beq	$24a4 <printf+0x75b>
    2495: 8a           	txa
    2496: 38           	sec
    2497: e5 14        	sbc	$14                     ; 0x2014 <printf+0x2cb>
    2499: 85 68        	sta	$68                     ; 0x2068 <printf+0x31f>
    249b: a5 1a        	lda	$1a                     ; 0x201a <printf+0x2d1>
    249d: e5 15        	sbc	$15                     ; 0x2015 <printf+0x2cc>
    249f: 85 67        	sta	$67                     ; 0x2067 <printf+0x31e>
    24a1: 4c 20 25     	jmp	$2520 <printf+0x7d7>
    24a4: a6 92        	ldx	$92                     ; 0x2092 <printf+0x349>
    24a6: 86 14        	stx	$14                     ; 0x2014 <printf+0x2cb>
    24a8: 38           	sec
    24a9: a5 18        	lda	$18                     ; 0x2018 <printf+0x2cf>
    24ab: e5 16        	sbc	$16                     ; 0x2016 <printf+0x2cd>
    24ad: aa           	tax
    24ae: a9 00        	lda	#$0
    24b0: e5 17        	sbc	$17                     ; 0x2017 <printf+0x2ce>
    24b2: a8           	tay
    24b3: 18           	clc
    24b4: 8a           	txa
    24b5: 65 12        	adc	$12                     ; 0x2012 <printf+0x2c9>
    24b7: 85 5e        	sta	$5e                     ; 0x205e <printf+0x315>
    24b9: 98           	tya
    24ba: 65 13        	adc	$13                     ; 0x2013 <printf+0x2ca>
    24bc: a4 93        	ldy	$93                     ; 0x2093 <printf+0x34a>
    24be: 80 47        	bra	$2507 <printf+0x7be>
    24c0: c4 91        	cpy	$91                     ; 0x2091 <printf+0x348>
    24c2: b0 25        	bcs	$24e9 <printf+0x7a0>
    24c4: a6 9d        	ldx	$9d                     ; 0x209d <printf+0x354>
    24c6: e4 62        	cpx	$62                     ; 0x2062 <printf+0x319>
    24c8: d0 18        	bne	$24e2 <printf+0x799>
    24ca: a6 9c        	ldx	$9c                     ; 0x209c <printf+0x353>
    24cc: e4 61        	cpx	$61                     ; 0x2061 <printf+0x318>
    24ce: d0 12        	bne	$24e2 <printf+0x799>
    24d0: 18           	clc
    24d1: a5 14        	lda	$14                     ; 0x2014 <printf+0x2cb>
    24d3: 65 96        	adc	$96                     ; 0x2096 <printf+0x34d>
    24d5: 85 12        	sta	$12                     ; 0x2012 <printf+0x2c9>
    24d7: 98           	tya
    24d8: 65 97        	adc	$97                     ; 0x2097 <printf+0x34e>
    24da: 85 13        	sta	$13                     ; 0x2013 <printf+0x2ca>
    24dc: a9 20        	lda	#$20
    24de: 92 12        	sta	($12)                   ; 0x2012 <printf+0x2c9>
    24e0: 80 05        	bra	$24e7 <printf+0x79e>
    24e2: a9 20        	lda	#$20
    24e4: 20 59 1b     	jsr	$1b59 <__putchar>
    24e7: a5 67        	lda	$67                     ; 0x2067 <printf+0x31e>
    24e9: a6 92        	ldx	$92                     ; 0x2092 <printf+0x349>
    24eb: a4 93        	ldy	$93                     ; 0x2093 <printf+0x34a>
    24ed: e8           	inx
    24ee: d0 01        	bne	$24f1 <printf+0x7a8>
    24f0: c8           	iny
    24f1: 86 14        	stx	$14                     ; 0x2014 <printf+0x2cb>
    24f3: 86 92        	stx	$92                     ; 0x2092 <printf+0x349>
    24f5: 84 93        	sty	$93                     ; 0x2093 <printf+0x34a>
    24f7: a6 5e        	ldx	$5e                     ; 0x205e <printf+0x315>
    24f9: e8           	inx
    24fa: d0 01        	bne	$24fd <printf+0x7b4>
    24fc: 1a           	inc
    24fd: 86 5e        	stx	$5e                     ; 0x205e <printf+0x315>
    24ff: c9 00        	cmp	#$0
    2501: d0 04        	bne	$2507 <printf+0x7be>
    2503: e0 00        	cpx	#$0
    2505: f0 13        	beq	$251a <printf+0x7d1>
    2507: 85 67        	sta	$67                     ; 0x2067 <printf+0x31e>
    2509: c4 91        	cpy	$91                     ; 0x2091 <printf+0x348>
    250b: d0 b3        	bne	$24c0 <printf+0x777>
    250d: a6 90        	ldx	$90                     ; 0x2090 <printf+0x347>
    250f: 86 12        	stx	$12                     ; 0x2012 <printf+0x2c9>
    2511: a6 14        	ldx	$14                     ; 0x2014 <printf+0x2cb>
    2513: e4 12        	cpx	$12                     ; 0x2012 <printf+0x2c9>
    2515: b0 d2        	bcs	$24e9 <printf+0x7a0>
    2517: 4c c4 24     	jmp	$24c4 <printf+0x77b>
    251a: 64 68        	stz	$68                     ; 0x2068 <printf+0x31f>
    251c: 64 67        	stz	$67                     ; 0x2067 <printf+0x31e>
    251e: a4 5d        	ldy	$5d                     ; 0x205d <printf+0x314>
    2520: a6 a3        	ldx	$a3                     ; 0x20a3 <printf+0x35a>
    2522: d0 4d        	bne	$2571 <printf+0x828>
    2524: a6 92        	ldx	$92                     ; 0x2092 <printf+0x349>
    2526: a5 93        	lda	$93                     ; 0x2093 <printf+0x34a>
    2528: c5 91        	cmp	$91                     ; 0x2091 <printf+0x348>
    252a: d0 10        	bne	$253c <printf+0x7f3>
    252c: 86 13        	stx	$13                     ; 0x2013 <printf+0x2ca>
    252e: a6 90        	ldx	$90                     ; 0x2090 <printf+0x347>
    2530: 86 12        	stx	$12                     ; 0x2012 <printf+0x2c9>
    2532: a4 5d        	ldy	$5d                     ; 0x205d <printf+0x314>
    2534: a6 13        	ldx	$13                     ; 0x2013 <printf+0x2ca>
    2536: e4 12        	cpx	$12                     ; 0x2012 <printf+0x2c9>
    2538: 90 08        	bcc	$2542 <printf+0x7f9>
    253a: 80 2f        	bra	$256b <printf+0x822>
    253c: 86 13        	stx	$13                     ; 0x2013 <printf+0x2ca>
    253e: c5 91        	cmp	$91                     ; 0x2091 <printf+0x348>
    2540: b0 29        	bcs	$256b <printf+0x822>
    2542: a6 9d        	ldx	$9d                     ; 0x209d <printf+0x354>
    2544: e4 62        	cpx	$62                     ; 0x2062 <printf+0x319>
    2546: d0 1c        	bne	$2564 <printf+0x81b>
    2548: a6 9c        	ldx	$9c                     ; 0x209c <printf+0x353>
    254a: e4 61        	cpx	$61                     ; 0x2061 <printf+0x318>
    254c: d0 16        	bne	$2564 <printf+0x81b>
    254e: 18           	clc
    254f: 85 12        	sta	$12                     ; 0x2012 <printf+0x2c9>
    2551: a5 13        	lda	$13                     ; 0x2013 <printf+0x2ca>
    2553: 65 96        	adc	$96                     ; 0x2096 <printf+0x34d>
    2555: aa           	tax
    2556: a5 12        	lda	$12                     ; 0x2012 <printf+0x2c9>
    2558: 65 97        	adc	$97                     ; 0x2097 <printf+0x34e>
    255a: 86 12        	stx	$12                     ; 0x2012 <printf+0x2c9>
    255c: 85 13        	sta	$13                     ; 0x2013 <printf+0x2ca>
    255e: a5 a4        	lda	$a4                     ; 0x20a4 <printf+0x35b>
    2560: 92 12        	sta	($12)                   ; 0x2012 <printf+0x2c9>
    2562: 80 05        	bra	$2569 <printf+0x820>
    2564: a5 a4        	lda	$a4                     ; 0x20a4 <printf+0x35b>
    2566: 20 59 1b     	jsr	$1b59 <__putchar>
    2569: a4 5d        	ldy	$5d                     ; 0x205d <printf+0x314>
    256b: e6 92        	inc	$92                     ; 0x2092 <printf+0x349>
    256d: d0 02        	bne	$2571 <printf+0x828>
    256f: e6 93        	inc	$93                     ; 0x2093 <printf+0x34a>
    2571: a6 a2        	ldx	$a2                     ; 0x20a2 <printf+0x359>
    2573: f0 4d        	beq	$25c2 <printf+0x879>
    2575: a6 92        	ldx	$92                     ; 0x2092 <printf+0x349>
    2577: a5 93        	lda	$93                     ; 0x2093 <printf+0x34a>
    2579: c5 91        	cmp	$91                     ; 0x2091 <printf+0x348>
    257b: d0 10        	bne	$258d <printf+0x844>
    257d: 86 13        	stx	$13                     ; 0x2013 <printf+0x2ca>
    257f: a6 90        	ldx	$90                     ; 0x2090 <printf+0x347>
    2581: 86 12        	stx	$12                     ; 0x2012 <printf+0x2c9>
    2583: a4 5d        	ldy	$5d                     ; 0x205d <printf+0x314>
    2585: a6 13        	ldx	$13                     ; 0x2013 <printf+0x2ca>
    2587: e4 12        	cpx	$12                     ; 0x2012 <printf+0x2c9>
    2589: 90 08        	bcc	$2593 <printf+0x84a>
    258b: 80 2f        	bra	$25bc <printf+0x873>
    258d: 86 13        	stx	$13                     ; 0x2013 <printf+0x2ca>
    258f: c5 91        	cmp	$91                     ; 0x2091 <printf+0x348>
    2591: b0 29        	bcs	$25bc <printf+0x873>
    2593: a6 9d        	ldx	$9d                     ; 0x209d <printf+0x354>
    2595: e4 62        	cpx	$62                     ; 0x2062 <printf+0x319>
    2597: d0 1c        	bne	$25b5 <printf+0x86c>
    2599: a6 9c        	ldx	$9c                     ; 0x209c <printf+0x353>
    259b: e4 61        	cpx	$61                     ; 0x2061 <printf+0x318>
    259d: d0 16        	bne	$25b5 <printf+0x86c>
    259f: 18           	clc
    25a0: 85 12        	sta	$12                     ; 0x2012 <printf+0x2c9>
    25a2: a5 13        	lda	$13                     ; 0x2013 <printf+0x2ca>
    25a4: 65 96        	adc	$96                     ; 0x2096 <printf+0x34d>
    25a6: aa           	tax
    25a7: a5 12        	lda	$12                     ; 0x2012 <printf+0x2c9>
    25a9: 65 97        	adc	$97                     ; 0x2097 <printf+0x34e>
    25ab: 86 12        	stx	$12                     ; 0x2012 <printf+0x2c9>
    25ad: 85 13        	sta	$13                     ; 0x2013 <printf+0x2ca>
    25af: a5 a7        	lda	$a7                     ; 0x20a7 <printf+0x35e>
    25b1: 92 12        	sta	($12)                   ; 0x2012 <printf+0x2c9>
    25b3: 80 05        	bra	$25ba <printf+0x871>
    25b5: a5 a7        	lda	$a7                     ; 0x20a7 <printf+0x35e>
    25b7: 20 59 1b     	jsr	$1b59 <__putchar>
    25ba: a4 5d        	ldy	$5d                     ; 0x205d <printf+0x314>
    25bc: e6 92        	inc	$92                     ; 0x2092 <printf+0x349>
    25be: d0 02        	bne	$25c2 <printf+0x879>
    25c0: e6 93        	inc	$93                     ; 0x2093 <printf+0x34a>
    25c2: a9 10        	lda	#$10
    25c4: 25 8e        	and	$8e                     ; 0x208e <printf+0x345>
    25c6: d0 03        	bne	$25cb <printf+0x882>
    25c8: 4c 53 26     	jmp	$2653 <printf+0x90a>
    25cb: a5 8e        	lda	$8e                     ; 0x208e <printf+0x345>
    25cd: 29 01        	and	#$1
    25cf: 29 01        	and	#$1
    25d1: f0 03        	beq	$25d6 <printf+0x88d>
    25d3: 4c 53 26     	jmp	$2653 <printf+0x90a>
    25d6: a6 68        	ldx	$68                     ; 0x2068 <printf+0x31f>
    25d8: a5 67        	lda	$67                     ; 0x2067 <printf+0x31e>
    25da: d0 06        	bne	$25e2 <printf+0x899>
    25dc: 8a           	txa
    25dd: d0 03        	bne	$25e2 <printf+0x899>
    25df: 4c f1 28     	jmp	$28f1 <printf+0xba8>
    25e2: a6 92        	ldx	$92                     ; 0x2092 <printf+0x349>
    25e4: 86 13        	stx	$13                     ; 0x2013 <printf+0x2ca>
    25e6: a5 93        	lda	$93                     ; 0x2093 <printf+0x34a>
    25e8: 80 4f        	bra	$2639 <printf+0x8f0>
    25ea: c5 91        	cmp	$91                     ; 0x2091 <printf+0x348>
    25ec: b0 24        	bcs	$2612 <printf+0x8c9>
    25ee: a6 9d        	ldx	$9d                     ; 0x209d <printf+0x354>
    25f0: e4 62        	cpx	$62                     ; 0x2062 <printf+0x319>
    25f2: d0 19        	bne	$260d <printf+0x8c4>
    25f4: a6 9c        	ldx	$9c                     ; 0x209c <printf+0x353>
    25f6: e4 61        	cpx	$61                     ; 0x2061 <printf+0x318>
    25f8: d0 13        	bne	$260d <printf+0x8c4>
    25fa: 18           	clc
    25fb: aa           	tax
    25fc: a5 13        	lda	$13                     ; 0x2013 <printf+0x2ca>
    25fe: 65 96        	adc	$96                     ; 0x2096 <printf+0x34d>
    2600: 85 12        	sta	$12                     ; 0x2012 <printf+0x2c9>
    2602: 8a           	txa
    2603: 65 97        	adc	$97                     ; 0x2097 <printf+0x34e>
    2605: 85 13        	sta	$13                     ; 0x2013 <printf+0x2ca>
    2607: a9 30        	lda	#$30
    2609: 92 12        	sta	($12)                   ; 0x2012 <printf+0x2c9>
    260b: 80 05        	bra	$2612 <printf+0x8c9>
    260d: a9 30        	lda	#$30
    260f: 20 59 1b     	jsr	$1b59 <__putchar>
    2612: a6 92        	ldx	$92                     ; 0x2092 <printf+0x349>
    2614: a5 93        	lda	$93                     ; 0x2093 <printf+0x34a>
    2616: e8           	inx
    2617: d0 01        	bne	$261a <printf+0x8d1>
    2619: 1a           	inc
    261a: 86 13        	stx	$13                     ; 0x2013 <printf+0x2ca>
    261c: 86 92        	stx	$92                     ; 0x2092 <printf+0x349>
    261e: 85 93        	sta	$93                     ; 0x2093 <printf+0x34a>
    2620: a4 68        	ldy	$68                     ; 0x2068 <printf+0x31f>
    2622: a6 67        	ldx	$67                     ; 0x2067 <printf+0x31e>
    2624: 86 12        	stx	$12                     ; 0x2012 <printf+0x2c9>
    2626: 88           	dey
    2627: c0 ff        	cpy	#$ff
    2629: d0 02        	bne	$262d <printf+0x8e4>
    262b: c6 12        	dec	$12                     ; 0x2012 <printf+0x2c9>
    262d: 84 68        	sty	$68                     ; 0x2068 <printf+0x31f>
    262f: a6 12        	ldx	$12                     ; 0x2012 <printf+0x2c9>
    2631: 86 67        	stx	$67                     ; 0x2067 <printf+0x31e>
    2633: d0 04        	bne	$2639 <printf+0x8f0>
    2635: c0 00        	cpy	#$0
    2637: f0 14        	beq	$264d <printf+0x904>
    2639: c5 91        	cmp	$91                     ; 0x2091 <printf+0x348>
    263b: f0 03        	beq	$2640 <printf+0x8f7>
    263d: 4c ea 25     	jmp	$25ea <printf+0x8a1>
    2640: a6 90        	ldx	$90                     ; 0x2090 <printf+0x347>
    2642: 86 12        	stx	$12                     ; 0x2012 <printf+0x2c9>
    2644: a6 13        	ldx	$13                     ; 0x2013 <printf+0x2ca>
    2646: e4 12        	cpx	$12                     ; 0x2012 <printf+0x2c9>
    2648: b0 c8        	bcs	$2612 <printf+0x8c9>
    264a: 4c ee 25     	jmp	$25ee <printf+0x8a5>
    264d: 64 68        	stz	$68                     ; 0x2068 <printf+0x31f>
    264f: 64 67        	stz	$67                     ; 0x2067 <printf+0x31e>
    2651: a4 5d        	ldy	$5d                     ; 0x205d <printf+0x314>
    2653: a2 00        	ldx	#$0
    2655: e4 66        	cpx	$66                     ; 0x2066 <printf+0x31d>
    2657: d0 07        	bne	$2660 <printf+0x917>
    2659: c4 65        	cpy	$65                     ; 0x2065 <printf+0x31c>
    265b: 90 0a        	bcc	$2667 <printf+0x91e>
    265d: 4c d5 26     	jmp	$26d5 <printf+0x98c>
    2660: e4 66        	cpx	$66                     ; 0x2066 <printf+0x31d>
    2662: 90 03        	bcc	$2667 <printf+0x91e>
    2664: 4c d5 26     	jmp	$26d5 <printf+0x98c>
    2667: a6 92        	ldx	$92                     ; 0x2092 <printf+0x349>
    2669: 86 13        	stx	$13                     ; 0x2013 <printf+0x2ca>
    266b: a5 93        	lda	$93                     ; 0x2093 <printf+0x34a>
    266d: a2 ff        	ldx	#$ff
    266f: c6 65        	dec	$65                     ; 0x2065 <printf+0x31c>
    2671: e4 65        	cpx	$65                     ; 0x2065 <printf+0x31c>
    2673: d0 02        	bne	$2677 <printf+0x92e>
    2675: c6 66        	dec	$66                     ; 0x2066 <printf+0x31d>
    2677: c5 91        	cmp	$91                     ; 0x2091 <printf+0x348>
    2679: d0 0c        	bne	$2687 <printf+0x93e>
    267b: a6 90        	ldx	$90                     ; 0x2090 <printf+0x347>
    267d: 86 12        	stx	$12                     ; 0x2012 <printf+0x2c9>
    267f: a6 13        	ldx	$13                     ; 0x2013 <printf+0x2ca>
    2681: e4 12        	cpx	$12                     ; 0x2012 <printf+0x2c9>
    2683: 90 06        	bcc	$268b <printf+0x942>
    2685: 80 28        	bra	$26af <printf+0x966>
    2687: c5 91        	cmp	$91                     ; 0x2091 <printf+0x348>
    2689: b0 24        	bcs	$26af <printf+0x966>
    268b: a6 9d        	ldx	$9d                     ; 0x209d <printf+0x354>
    268d: e4 62        	cpx	$62                     ; 0x2062 <printf+0x319>
    268f: d0 19        	bne	$26aa <printf+0x961>
    2691: a6 9c        	ldx	$9c                     ; 0x209c <printf+0x353>
    2693: e4 61        	cpx	$61                     ; 0x2061 <printf+0x318>
    2695: d0 13        	bne	$26aa <printf+0x961>
    2697: 18           	clc
    2698: aa           	tax
    2699: a5 13        	lda	$13                     ; 0x2013 <printf+0x2ca>
    269b: 65 96        	adc	$96                     ; 0x2096 <printf+0x34d>
    269d: 85 12        	sta	$12                     ; 0x2012 <printf+0x2c9>
    269f: 8a           	txa
    26a0: 65 97        	adc	$97                     ; 0x2097 <printf+0x34e>
    26a2: 85 13        	sta	$13                     ; 0x2013 <printf+0x2ca>
    26a4: a9 30        	lda	#$30
    26a6: 92 12        	sta	($12)                   ; 0x2012 <printf+0x2c9>
    26a8: 80 05        	bra	$26af <printf+0x966>
    26aa: a9 30        	lda	#$30
    26ac: 20 59 1b     	jsr	$1b59 <__putchar>
    26af: a6 92        	ldx	$92                     ; 0x2092 <printf+0x349>
    26b1: a5 93        	lda	$93                     ; 0x2093 <printf+0x34a>
    26b3: e8           	inx
    26b4: d0 01        	bne	$26b7 <printf+0x96e>
    26b6: 1a           	inc
    26b7: 86 13        	stx	$13                     ; 0x2013 <printf+0x2ca>
    26b9: 86 92        	stx	$92                     ; 0x2092 <printf+0x349>
    26bb: 85 93        	sta	$93                     ; 0x2093 <printf+0x34a>
    26bd: a2 00        	ldx	#$0
    26bf: e4 66        	cpx	$66                     ; 0x2066 <printf+0x31d>
    26c1: d0 09        	bne	$26cc <printf+0x983>
    26c3: a4 5d        	ldy	$5d                     ; 0x205d <printf+0x314>
    26c5: c4 65        	cpy	$65                     ; 0x2065 <printf+0x31c>
    26c7: b0 0c        	bcs	$26d5 <printf+0x98c>
    26c9: 4c 6d 26     	jmp	$266d <printf+0x924>
    26cc: e4 66        	cpx	$66                     ; 0x2066 <printf+0x31d>
    26ce: a4 5d        	ldy	$5d                     ; 0x205d <printf+0x314>
    26d0: b0 03        	bcs	$26d5 <printf+0x98c>
    26d2: 4c 6d 26     	jmp	$266d <printf+0x924>
    26d5: 98           	tya
    26d6: d0 03        	bne	$26db <printf+0x992>
    26d8: 4c ca 27     	jmp	$27ca <printf+0xa81>
    26db: 88           	dey
    26dc: d0 03        	bne	$26e1 <printf+0x998>
    26de: 4c 69 27     	jmp	$2769 <printf+0xa20>
    26e1: 84 65        	sty	$65                     ; 0x2065 <printf+0x31c>
    26e3: a6 a8        	ldx	$a8                     ; 0x20a8 <printf+0x35f>
    26e5: 8a           	txa
    26e6: 18           	clc
    26e7: 65 65        	adc	$65                     ; 0x2065 <printf+0x31c>
    26e9: 85 5d        	sta	$5d                     ; 0x205d <printf+0x314>
    26eb: a5 a9        	lda	$a9                     ; 0x20a9 <printf+0x360>
    26ed: 69 00        	adc	#$0
    26ef: 85 5e        	sta	$5e                     ; 0x205e <printf+0x315>
    26f1: 4c 5b 27     	jmp	$275b <printf+0xa12>
    26f4: a8           	tay
    26f5: a9 80        	lda	#$80
    26f7: 25 8e        	and	$8e                     ; 0x208e <printf+0x345>
    26f9: f0 04        	beq	$26ff <printf+0x9b6>
    26fb: a2 61        	ldx	#$61
    26fd: 80 02        	bra	$2701 <printf+0x9b8>
    26ff: a2 41        	ldx	#$41
    2701: 86 12        	stx	$12                     ; 0x2012 <printf+0x2c9>
    2703: 18           	clc
    2704: 98           	tya
    2705: 65 12        	adc	$12                     ; 0x2012 <printf+0x2c9>
    2707: 18           	clc
    2708: 69 f6        	adc	#$f6
    270a: a4 92        	ldy	$92                     ; 0x2092 <printf+0x349>
    270c: a6 93        	ldx	$93                     ; 0x2093 <printf+0x34a>
    270e: e4 91        	cpx	$91                     ; 0x2091 <printf+0x348>
    2710: d0 0c        	bne	$271e <printf+0x9d5>
    2712: 86 14        	stx	$14                     ; 0x2014 <printf+0x2cb>
    2714: a6 90        	ldx	$90                     ; 0x2090 <printf+0x347>
    2716: 86 12        	stx	$12                     ; 0x2012 <printf+0x2c9>
    2718: c4 12        	cpy	$12                     ; 0x2012 <printf+0x2c9>
    271a: 90 08        	bcc	$2724 <printf+0x9db>
    271c: 80 27        	bra	$2745 <printf+0x9fc>
    271e: 86 14        	stx	$14                     ; 0x2014 <printf+0x2cb>
    2720: e4 91        	cpx	$91                     ; 0x2091 <printf+0x348>
    2722: b0 21        	bcs	$2745 <printf+0x9fc>
    2724: a6 9d        	ldx	$9d                     ; 0x209d <printf+0x354>
    2726: e4 62        	cpx	$62                     ; 0x2062 <printf+0x319>
    2728: d0 18        	bne	$2742 <printf+0x9f9>
    272a: a6 9c        	ldx	$9c                     ; 0x209c <printf+0x353>
    272c: e4 61        	cpx	$61                     ; 0x2061 <printf+0x318>
    272e: d0 12        	bne	$2742 <printf+0x9f9>
    2730: 18           	clc
    2731: aa           	tax
    2732: 98           	tya
    2733: 65 96        	adc	$96                     ; 0x2096 <printf+0x34d>
    2735: 85 12        	sta	$12                     ; 0x2012 <printf+0x2c9>
    2737: a5 14        	lda	$14                     ; 0x2014 <printf+0x2cb>
    2739: 65 97        	adc	$97                     ; 0x2097 <printf+0x34e>
    273b: 85 13        	sta	$13                     ; 0x2013 <printf+0x2ca>
    273d: 8a           	txa
    273e: 92 12        	sta	($12)                   ; 0x2012 <printf+0x2c9>
    2740: 80 03        	bra	$2745 <printf+0x9fc>
    2742: 20 59 1b     	jsr	$1b59 <__putchar>
    2745: e6 92        	inc	$92                     ; 0x2092 <printf+0x349>
    2747: d0 02        	bne	$274b <printf+0xa02>
    2749: e6 93        	inc	$93                     ; 0x2093 <printf+0x34a>
    274b: c6 65        	dec	$65                     ; 0x2065 <printf+0x31c>
    274d: a2 ff        	ldx	#$ff
    274f: c6 5d        	dec	$5d                     ; 0x205d <printf+0x314>
    2751: e4 5d        	cpx	$5d                     ; 0x205d <printf+0x314>
    2753: d0 02        	bne	$2757 <printf+0xa0e>
    2755: c6 5e        	dec	$5e                     ; 0x205e <printf+0x315>
    2757: a5 65        	lda	$65                     ; 0x2065 <printf+0x31c>
    2759: f0 0e        	beq	$2769 <printf+0xa20>
    275b: b2 5d        	lda	($5d)                   ; 0x205d <printf+0x314>
    275d: c9 0a        	cmp	#$a
    275f: 90 03        	bcc	$2764 <printf+0xa1b>
    2761: 4c f4 26     	jmp	$26f4 <printf+0x9ab>
    2764: 09 30        	ora	#$30
    2766: 4c 0a 27     	jmp	$270a <printf+0x9c1>
    2769: a5 6b        	lda	$6b                     ; 0x206b <printf+0x322>
    276b: c9 0a        	cmp	#$a
    276d: b0 04        	bcs	$2773 <printf+0xa2a>
    276f: 09 30        	ora	#$30
    2771: 80 16        	bra	$2789 <printf+0xa40>
    2773: a8           	tay
    2774: a9 80        	lda	#$80
    2776: 25 8e        	and	$8e                     ; 0x208e <printf+0x345>
    2778: f0 04        	beq	$277e <printf+0xa35>
    277a: a2 61        	ldx	#$61
    277c: 80 02        	bra	$2780 <printf+0xa37>
    277e: a2 41        	ldx	#$41
    2780: 86 12        	stx	$12                     ; 0x2012 <printf+0x2c9>
    2782: 18           	clc
    2783: 98           	tya
    2784: 65 12        	adc	$12                     ; 0x2012 <printf+0x2c9>
    2786: 18           	clc
    2787: 69 f6        	adc	#$f6
    2789: a4 92        	ldy	$92                     ; 0x2092 <printf+0x349>
    278b: a6 93        	ldx	$93                     ; 0x2093 <printf+0x34a>
    278d: e4 91        	cpx	$91                     ; 0x2091 <printf+0x348>
    278f: d0 0c        	bne	$279d <printf+0xa54>
    2791: 86 14        	stx	$14                     ; 0x2014 <printf+0x2cb>
    2793: a6 90        	ldx	$90                     ; 0x2090 <printf+0x347>
    2795: 86 12        	stx	$12                     ; 0x2012 <printf+0x2c9>
    2797: c4 12        	cpy	$12                     ; 0x2012 <printf+0x2c9>
    2799: 90 08        	bcc	$27a3 <printf+0xa5a>
    279b: 80 27        	bra	$27c4 <printf+0xa7b>
    279d: 86 14        	stx	$14                     ; 0x2014 <printf+0x2cb>
    279f: e4 91        	cpx	$91                     ; 0x2091 <printf+0x348>
    27a1: b0 21        	bcs	$27c4 <printf+0xa7b>
    27a3: a6 9d        	ldx	$9d                     ; 0x209d <printf+0x354>
    27a5: e4 62        	cpx	$62                     ; 0x2062 <printf+0x319>
    27a7: d0 18        	bne	$27c1 <printf+0xa78>
    27a9: a6 9c        	ldx	$9c                     ; 0x209c <printf+0x353>
    27ab: e4 61        	cpx	$61                     ; 0x2061 <printf+0x318>
    27ad: d0 12        	bne	$27c1 <printf+0xa78>
    27af: 18           	clc
    27b0: aa           	tax
    27b1: 98           	tya
    27b2: 65 96        	adc	$96                     ; 0x2096 <printf+0x34d>
    27b4: 85 12        	sta	$12                     ; 0x2012 <printf+0x2c9>
    27b6: a5 14        	lda	$14                     ; 0x2014 <printf+0x2cb>
    27b8: 65 97        	adc	$97                     ; 0x2097 <printf+0x34e>
    27ba: 85 13        	sta	$13                     ; 0x2013 <printf+0x2ca>
    27bc: 8a           	txa
    27bd: 92 12        	sta	($12)                   ; 0x2012 <printf+0x2c9>
    27bf: 80 03        	bra	$27c4 <printf+0xa7b>
    27c1: 20 59 1b     	jsr	$1b59 <__putchar>
    27c4: e6 92        	inc	$92                     ; 0x2092 <printf+0x349>
    27c6: d0 02        	bne	$27ca <printf+0xa81>
    27c8: e6 93        	inc	$93                     ; 0x2093 <printf+0x34a>
    27ca: a9 01        	lda	#$1
    27cc: 25 8e        	and	$8e                     ; 0x208e <printf+0x345>
    27ce: 29 01        	and	#$1
    27d0: d0 1e        	bne	$27f0 <printf+0xaa7>
    27d2: a6 92        	ldx	$92                     ; 0x2092 <printf+0x349>
    27d4: 86 14        	stx	$14                     ; 0x2014 <printf+0x2cb>
    27d6: a5 93        	lda	$93                     ; 0x2093 <printf+0x34a>
    27d8: a4 90        	ldy	$90                     ; 0x2090 <printf+0x347>
    27da: a6 91        	ldx	$91                     ; 0x2091 <printf+0x348>
    27dc: 86 12        	stx	$12                     ; 0x2012 <printf+0x2c9>
    27de: 86 13        	stx	$13                     ; 0x2013 <printf+0x2ca>
    27e0: c5 12        	cmp	$12                     ; 0x2012 <printf+0x2c9>
    27e2: f0 03        	beq	$27e7 <printf+0xa9e>
    27e4: 4c 73 28     	jmp	$2873 <printf+0xb2a>
    27e7: 84 12        	sty	$12                     ; 0x2012 <printf+0x2c9>
    27e9: a6 14        	ldx	$14                     ; 0x2014 <printf+0x2cb>
    27eb: e4 12        	cpx	$12                     ; 0x2012 <printf+0x2c9>
    27ed: 4c 77 28     	jmp	$2877 <printf+0xb2e>
    27f0: a6 92        	ldx	$92                     ; 0x2092 <printf+0x349>
    27f2: 86 14        	stx	$14                     ; 0x2014 <printf+0x2cb>
    27f4: a5 93        	lda	$93                     ; 0x2093 <printf+0x34a>
    27f6: a6 68        	ldx	$68                     ; 0x2068 <printf+0x31f>
    27f8: a4 67        	ldy	$67                     ; 0x2067 <printf+0x31e>
    27fa: f0 03        	beq	$27ff <printf+0xab6>
    27fc: 4c 5f 28     	jmp	$285f <printf+0xb16>
    27ff: e0 00        	cpx	#$0
    2801: f0 d5        	beq	$27d8 <printf+0xa8f>
    2803: 4c 5f 28     	jmp	$285f <printf+0xb16>
    2806: c5 91        	cmp	$91                     ; 0x2091 <printf+0x348>
    2808: b0 24        	bcs	$282e <printf+0xae5>
    280a: a6 9d        	ldx	$9d                     ; 0x209d <printf+0x354>
    280c: e4 62        	cpx	$62                     ; 0x2062 <printf+0x319>
    280e: d0 19        	bne	$2829 <printf+0xae0>
    2810: a6 9c        	ldx	$9c                     ; 0x209c <printf+0x353>
    2812: e4 61        	cpx	$61                     ; 0x2061 <printf+0x318>
    2814: d0 13        	bne	$2829 <printf+0xae0>
    2816: 18           	clc
    2817: aa           	tax
    2818: a5 14        	lda	$14                     ; 0x2014 <printf+0x2cb>
    281a: 65 96        	adc	$96                     ; 0x2096 <printf+0x34d>
    281c: 85 12        	sta	$12                     ; 0x2012 <printf+0x2c9>
    281e: 8a           	txa
    281f: 65 97        	adc	$97                     ; 0x2097 <printf+0x34e>
    2821: 85 13        	sta	$13                     ; 0x2013 <printf+0x2ca>
    2823: a9 20        	lda	#$20
    2825: 92 12        	sta	($12)                   ; 0x2012 <printf+0x2c9>
    2827: 80 05        	bra	$282e <printf+0xae5>
    2829: a9 20        	lda	#$20
    282b: 20 59 1b     	jsr	$1b59 <__putchar>
    282e: a6 92        	ldx	$92                     ; 0x2092 <printf+0x349>
    2830: a5 93        	lda	$93                     ; 0x2093 <printf+0x34a>
    2832: e8           	inx
    2833: d0 01        	bne	$2836 <printf+0xaed>
    2835: 1a           	inc
    2836: 86 14        	stx	$14                     ; 0x2014 <printf+0x2cb>
    2838: 86 92        	stx	$92                     ; 0x2092 <printf+0x349>
    283a: 85 93        	sta	$93                     ; 0x2093 <printf+0x34a>
    283c: a6 68        	ldx	$68                     ; 0x2068 <printf+0x31f>
    283e: 86 12        	stx	$12                     ; 0x2012 <printf+0x2c9>
    2840: a6 67        	ldx	$67                     ; 0x2067 <printf+0x31e>
    2842: 86 13        	stx	$13                     ; 0x2013 <printf+0x2ca>
    2844: a2 ff        	ldx	#$ff
    2846: c6 12        	dec	$12                     ; 0x2012 <printf+0x2c9>
    2848: e4 12        	cpx	$12                     ; 0x2012 <printf+0x2c9>
    284a: d0 02        	bne	$284e <printf+0xb05>
    284c: c6 13        	dec	$13                     ; 0x2013 <printf+0x2ca>
    284e: a6 12        	ldx	$12                     ; 0x2012 <printf+0x2c9>
    2850: 86 68        	stx	$68                     ; 0x2068 <printf+0x31f>
    2852: a6 13        	ldx	$13                     ; 0x2013 <printf+0x2ca>
    2854: 86 67        	stx	$67                     ; 0x2067 <printf+0x31e>
    2856: d0 07        	bne	$285f <printf+0xb16>
    2858: a6 12        	ldx	$12                     ; 0x2012 <printf+0x2c9>
    285a: d0 03        	bne	$285f <printf+0xb16>
    285c: 4c d8 27     	jmp	$27d8 <printf+0xa8f>
    285f: c5 91        	cmp	$91                     ; 0x2091 <printf+0x348>
    2861: f0 03        	beq	$2866 <printf+0xb1d>
    2863: 4c 06 28     	jmp	$2806 <printf+0xabd>
    2866: a6 90        	ldx	$90                     ; 0x2090 <printf+0x347>
    2868: 86 12        	stx	$12                     ; 0x2012 <printf+0x2c9>
    286a: a6 14        	ldx	$14                     ; 0x2014 <printf+0x2cb>
    286c: e4 12        	cpx	$12                     ; 0x2012 <printf+0x2c9>
    286e: b0 be        	bcs	$282e <printf+0xae5>
    2870: 4c 0a 28     	jmp	$280a <printf+0xac1>
    2873: 86 12        	stx	$12                     ; 0x2012 <printf+0x2c9>
    2875: c5 12        	cmp	$12                     ; 0x2012 <printf+0x2c9>
    2877: 98           	tya
    2878: a0 01        	ldy	#$1
    287a: 90 20        	bcc	$289c <printf+0xb53>
    287c: a6 13        	ldx	$13                     ; 0x2013 <printf+0x2ca>
    287e: d0 03        	bne	$2883 <printf+0xb3a>
    2880: aa           	tax
    2881: f0 19        	beq	$289c <printf+0xb53>
    2883: 18           	clc
    2884: 65 96        	adc	$96                     ; 0x2096 <printf+0x34d>
    2886: 85 12        	sta	$12                     ; 0x2012 <printf+0x2c9>
    2888: a5 13        	lda	$13                     ; 0x2013 <printf+0x2ca>
    288a: 65 97        	adc	$97                     ; 0x2097 <printf+0x34e>
    288c: 85 13        	sta	$13                     ; 0x2013 <printf+0x2ca>
    288e: a2 ff        	ldx	#$ff
    2890: c6 12        	dec	$12                     ; 0x2012 <printf+0x2c9>
    2892: e4 12        	cpx	$12                     ; 0x2012 <printf+0x2c9>
    2894: d0 02        	bne	$2898 <printf+0xb4f>
    2896: c6 13        	dec	$13                     ; 0x2013 <printf+0x2ca>
    2898: a9 00        	lda	#$0
    289a: 92 12        	sta	($12)                   ; 0x2012 <printf+0x2c9>
    289c: e6 5f        	inc	$5f                     ; 0x205f <printf+0x316>
    289e: d0 02        	bne	$28a2 <printf+0xb59>
    28a0: e6 60        	inc	$60                     ; 0x2060 <printf+0x317>
    28a2: a6 60        	ldx	$60                     ; 0x2060 <printf+0x317>
    28a4: e4 64        	cpx	$64                     ; 0x2064 <printf+0x31b>
    28a6: f0 03        	beq	$28ab <printf+0xb62>
    28a8: 4c ae 1d     	jmp	$1dae <printf+0x65>
    28ab: a6 5f        	ldx	$5f                     ; 0x205f <printf+0x316>
    28ad: e4 63        	cpx	$63                     ; 0x2063 <printf+0x31a>
    28af: f0 03        	beq	$28b4 <printf+0xb6b>
    28b1: 4c ae 1d     	jmp	$1dae <printf+0x65>
    28b4: b2 63        	lda	($63)                   ; 0x2063 <printf+0x31a>
    28b6: a2 00        	ldx	#$0
    28b8: 86 61        	stx	$61                     ; 0x2061 <printf+0x318>
    28ba: a2 00        	ldx	#$0
    28bc: 86 62        	stx	$62                     ; 0x2062 <printf+0x319>
    28be: 4c c2 1d     	jmp	$1dc2 <printf+0x79>
    28c1: e4 66        	cpx	$66                     ; 0x2066 <printf+0x31d>
    28c3: a6 5e        	ldx	$5e                     ; 0x205e <printf+0x315>
    28c5: b0 03        	bcs	$28ca <printf+0xb81>
    28c7: 4c ee 23     	jmp	$23ee <printf+0x6a5>
    28ca: a5 5d        	lda	$5d                     ; 0x205d <printf+0x314>
    28cc: 85 65        	sta	$65                     ; 0x2065 <printf+0x31c>
    28ce: 64 66        	stz	$66                     ; 0x2066 <printf+0x31d>
    28d0: e6 65        	inc	$65                     ; 0x2065 <printf+0x31c>
    28d2: f0 03        	beq	$28d7 <printf+0xb8e>
    28d4: 4c ee 23     	jmp	$23ee <printf+0x6a5>
    28d7: e6 66        	inc	$66                     ; 0x2066 <printf+0x31d>
    28d9: 4c ee 23     	jmp	$23ee <printf+0x6a5>
    28dc: a2 58        	ldx	#$58
    28de: 86 a7        	stx	$a7                     ; 0x20a7 <printf+0x35e>
    28e0: a2 01        	ldx	#$1
    28e2: 86 a2        	stx	$a2                     ; 0x20a2 <printf+0x359>
    28e4: a2 30        	ldx	#$30
    28e6: 86 a4        	stx	$a4                     ; 0x20a4 <printf+0x35b>
    28e8: a9 02        	lda	#$2
    28ea: a2 00        	ldx	#$0
    28ec: 86 a3        	stx	$a3                     ; 0x20a3 <printf+0x35a>
    28ee: 4c 2f 24     	jmp	$242f <printf+0x6e6>
    28f1: 64 68        	stz	$68                     ; 0x2068 <printf+0x31f>
    28f3: 64 67        	stz	$67                     ; 0x2067 <printf+0x31e>
    28f5: 4c 53 26     	jmp	$2653 <printf+0x90a>
    28f8: 60           	rts

000028f9 <putchar>:
    28f9: 85 5c        	sta	$5c                     ; 0x205c <printf+0x313>
    28fb: 86 5b        	stx	$5b                     ; 0x205b <printf+0x312>
    28fd: 20 59 1b     	jsr	$1b59 <__putchar>
    2900: a6 5b        	ldx	$5b                     ; 0x205b <printf+0x312>
    2902: a5 5c        	lda	$5c                     ; 0x205c <printf+0x313>
    2904: 60           	rts

00002905 <memcpy>:
    2905: a8           	tay
    2906: 8a           	txa
    2907: d0 03        	bne	$290c <memcpy+0x7>
    2909: 98           	tya
    290a: f0 24        	beq	$2930 <memcpy+0x2b>
    290c: a5 12        	lda	$12                     ; 0x2012 <printf+0x2c9>
    290e: 85 16        	sta	$16                     ; 0x2016 <printf+0x2cd>
    2910: a5 13        	lda	$13                     ; 0x2013 <printf+0x2ca>
    2912: 85 17        	sta	$17                     ; 0x2017 <printf+0x2ce>
    2914: b2 14        	lda	($14)                   ; 0x2014 <printf+0x2cb>
    2916: 92 16        	sta	($16)                   ; 0x2016 <printf+0x2cd>
    2918: e6 16        	inc	$16                     ; 0x2016 <printf+0x2cd>
    291a: d0 02        	bne	$291e <memcpy+0x19>
    291c: e6 17        	inc	$17                     ; 0x2017 <printf+0x2ce>
    291e: e6 14        	inc	$14                     ; 0x2014 <printf+0x2cb>
    2920: d0 02        	bne	$2924 <memcpy+0x1f>
    2922: e6 15        	inc	$15                     ; 0x2015 <printf+0x2cc>
    2924: 88           	dey
    2925: c0 ff        	cpy	#$ff
    2927: d0 01        	bne	$292a <memcpy+0x25>
    2929: ca           	dex
    292a: 8a           	txa
    292b: d0 e7        	bne	$2914 <memcpy+0xf>
    292d: 98           	tya
    292e: d0 e4        	bne	$2914 <memcpy+0xf>
    2930: 60           	rts

00002931 <__memset>:
    2931: a4 14        	ldy	$14                     ; 0x2014 <printf+0x2cb>
    2933: d0 04        	bne	$2939 <__memset+0x8>
    2935: e0 00        	cpx	#$0
    2937: f0 17        	beq	$2950 <__memset+0x1f>
    2939: 92 12        	sta	($12)                   ; 0x2012 <printf+0x2c9>
    293b: e6 12        	inc	$12                     ; 0x2012 <printf+0x2c9>
    293d: d0 02        	bne	$2941 <__memset+0x10>
    293f: e6 13        	inc	$13                     ; 0x2013 <printf+0x2ca>
    2941: ca           	dex
    2942: e0 ff        	cpx	#$ff
    2944: d0 02        	bne	$2948 <__memset+0x17>
    2946: c6 14        	dec	$14                     ; 0x2014 <printf+0x2cb>
    2948: a4 14        	ldy	$14                     ; 0x2014 <printf+0x2cb>
    294a: d0 ed        	bne	$2939 <__memset+0x8>
    294c: e0 00        	cpx	#$0
    294e: d0 e9        	bne	$2939 <__memset+0x8>
    2950: 60           	rts

00002951 <__mulqi3>:
    2951: e0 00        	cpx	#$0
    2953: f0 14        	beq	$2969 <__mulqi3+0x18>
    2955: 85 12        	sta	$12                     ; 0x2012 <printf+0x2c9>
    2957: 86 13        	stx	$13                     ; 0x2013 <printf+0x2ca>
    2959: a9 00        	lda	#$0
    295b: 46 13        	lsr	$13                     ; 0x2013 <printf+0x2ca>
    295d: 90 03        	bcc	$2962 <__mulqi3+0x11>
    295f: 18           	clc
    2960: 65 12        	adc	$12                     ; 0x2012 <printf+0x2c9>
    2962: 06 12        	asl	$12                     ; 0x2012 <printf+0x2c9>
    2964: a6 13        	ldx	$13                     ; 0x2013 <printf+0x2ca>
    2966: d0 f3        	bne	$295b <__mulqi3+0xa>
    2968: 60           	rts
    2969: a9 00        	lda	#$0
    296b: 60           	rts

0000296c <__mulhi3>:
    296c: a4 13        	ldy	$13                     ; 0x2013 <printf+0x2ca>
    296e: d0 04        	bne	$2974 <__mulhi3+0x8>
    2970: a4 12        	ldy	$12                     ; 0x2012 <printf+0x2c9>
    2972: f0 25        	beq	$2999 <__mulhi3+0x2d>
    2974: 85 14        	sta	$14                     ; 0x2014 <printf+0x2cb>
    2976: 86 15        	stx	$15                     ; 0x2015 <printf+0x2cc>
    2978: a0 00        	ldy	#$0
    297a: 98           	tya
    297b: 46 13        	lsr	$13                     ; 0x2013 <printf+0x2ca>
    297d: 66 12        	ror	$12                     ; 0x2012 <printf+0x2c9>
    297f: 90 09        	bcc	$298a <__mulhi3+0x1e>
    2981: aa           	tax
    2982: 98           	tya
    2983: 18           	clc
    2984: 65 14        	adc	$14                     ; 0x2014 <printf+0x2cb>
    2986: a8           	tay
    2987: 8a           	txa
    2988: 65 15        	adc	$15                     ; 0x2015 <printf+0x2cc>
    298a: 06 14        	asl	$14                     ; 0x2014 <printf+0x2cb>
    298c: 26 15        	rol	$15                     ; 0x2015 <printf+0x2cc>
    298e: a6 13        	ldx	$13                     ; 0x2013 <printf+0x2ca>
    2990: d0 e9        	bne	$297b <__mulhi3+0xf>
    2992: a6 12        	ldx	$12                     ; 0x2012 <printf+0x2c9>
    2994: d0 e5        	bne	$297b <__mulhi3+0xf>
    2996: aa           	tax
    2997: 98           	tya
    2998: 60           	rts
    2999: a0 00        	ldy	#$0
    299b: 98           	tya
    299c: 80 f8        	bra	$2996 <__mulhi3+0x2a>

0000299e <__udivmodhi4>:
    299e: 86 1a        	stx	$1a                     ; 0x201a <printf+0x2d1>
    29a0: 64 16        	stz	$16                     ; 0x2016 <printf+0x2cd>
    29a2: a4 13        	ldy	$13                     ; 0x2013 <printf+0x2ca>
    29a4: d0 04        	bne	$29aa <__udivmodhi4+0xc>
    29a6: a4 12        	ldy	$12                     ; 0x2012 <printf+0x2c9>
    29a8: f0 08        	beq	$29b2 <__udivmodhi4+0x14>
    29aa: e4 13        	cpx	$13                     ; 0x2013 <printf+0x2ca>
    29ac: d0 0d        	bne	$29bb <__udivmodhi4+0x1d>
    29ae: c5 12        	cmp	$12                     ; 0x2012 <printf+0x2c9>
    29b0: b0 0d        	bcs	$29bf <__udivmodhi4+0x21>
    29b2: a6 1a        	ldx	$1a                     ; 0x201a <printf+0x2d1>
    29b4: 86 12        	stx	$12                     ; 0x2012 <printf+0x2c9>
    29b6: a2 00        	ldx	#$0
    29b8: 4c 63 2a     	jmp	$2a63 <__udivmodhi4+0xc5>
    29bb: e4 13        	cpx	$13                     ; 0x2013 <printf+0x2ca>
    29bd: 90 f3        	bcc	$29b2 <__udivmodhi4+0x14>
    29bf: a6 13        	ldx	$13                     ; 0x2013 <printf+0x2ca>
    29c1: 10 03        	bpl	$29c6 <__udivmodhi4+0x28>
    29c3: 4c 56 2a     	jmp	$2a56 <__udivmodhi4+0xb8>
    29c6: a2 00        	ldx	#$0
    29c8: a4 12        	ldy	$12                     ; 0x2012 <printf+0x2c9>
    29ca: 84 17        	sty	$17                     ; 0x2017 <printf+0x2ce>
    29cc: a4 13        	ldy	$13                     ; 0x2013 <printf+0x2ca>
    29ce: 84 18        	sty	$18                     ; 0x2018 <printf+0x2cf>
    29d0: 06 17        	asl	$17                     ; 0x2017 <printf+0x2ce>
    29d2: 26 18        	rol	$18                     ; 0x2018 <printf+0x2cf>
    29d4: a4 1a        	ldy	$1a                     ; 0x201a <printf+0x2d1>
    29d6: c4 18        	cpy	$18                     ; 0x2018 <printf+0x2cf>
    29d8: d0 06        	bne	$29e0 <__udivmodhi4+0x42>
    29da: c5 17        	cmp	$17                     ; 0x2017 <printf+0x2ce>
    29dc: b0 08        	bcs	$29e6 <__udivmodhi4+0x48>
    29de: 80 13        	bra	$29f3 <__udivmodhi4+0x55>
    29e0: a4 1a        	ldy	$1a                     ; 0x201a <printf+0x2d1>
    29e2: c4 18        	cpy	$18                     ; 0x2018 <printf+0x2cf>
    29e4: 90 0d        	bcc	$29f3 <__udivmodhi4+0x55>
    29e6: e8           	inx
    29e7: a4 17        	ldy	$17                     ; 0x2017 <printf+0x2ce>
    29e9: 84 12        	sty	$12                     ; 0x2012 <printf+0x2c9>
    29eb: a4 18        	ldy	$18                     ; 0x2018 <printf+0x2cf>
    29ed: 84 13        	sty	$13                     ; 0x2013 <printf+0x2ca>
    29ef: 10 df        	bpl	$29d0 <__udivmodhi4+0x32>
    29f1: 80 08        	bra	$29fb <__udivmodhi4+0x5d>
    29f3: a4 12        	ldy	$12                     ; 0x2012 <printf+0x2c9>
    29f5: 84 17        	sty	$17                     ; 0x2017 <printf+0x2ce>
    29f7: a4 13        	ldy	$13                     ; 0x2013 <printf+0x2ca>
    29f9: 84 18        	sty	$18                     ; 0x2018 <printf+0x2cf>
    29fb: 38           	sec
    29fc: e5 17        	sbc	$17                     ; 0x2017 <printf+0x2ce>
    29fe: a8           	tay
    29ff: a5 1a        	lda	$1a                     ; 0x201a <printf+0x2d1>
    2a01: e5 18        	sbc	$18                     ; 0x2018 <printf+0x2cf>
    2a03: 85 12        	sta	$12                     ; 0x2012 <printf+0x2c9>
    2a05: 8a           	txa
    2a06: d0 03        	bne	$2a0b <__udivmodhi4+0x6d>
    2a08: 4c 72 2a     	jmp	$2a72 <__udivmodhi4+0xd4>
    2a0b: a9 01        	lda	#$1
    2a0d: 85 5d        	sta	$5d                     ; 0x205d <printf+0x314>
    2a0f: 64 16        	stz	$16                     ; 0x2016 <printf+0x2cd>
    2a11: 98           	tya
    2a12: 46 18        	lsr	$18                     ; 0x2018 <printf+0x2cf>
    2a14: 66 17        	ror	$17                     ; 0x2017 <printf+0x2ce>
    2a16: a4 5d        	ldy	$5d                     ; 0x205d <printf+0x314>
    2a18: 84 13        	sty	$13                     ; 0x2013 <printf+0x2ca>
    2a1a: 06 13        	asl	$13                     ; 0x2013 <printf+0x2ca>
    2a1c: a0 01        	ldy	#$1
    2a1e: b0 02        	bcs	$2a22 <__udivmodhi4+0x84>
    2a20: a0 00        	ldy	#$0
    2a22: 84 19        	sty	$19                     ; 0x2019 <printf+0x2d0>
    2a24: a4 13        	ldy	$13                     ; 0x2013 <printf+0x2ca>
    2a26: 84 5d        	sty	$5d                     ; 0x205d <printf+0x314>
    2a28: a4 12        	ldy	$12                     ; 0x2012 <printf+0x2c9>
    2a2a: c4 18        	cpy	$18                     ; 0x2018 <printf+0x2cf>
    2a2c: d0 22        	bne	$2a50 <__udivmodhi4+0xb2>
    2a2e: c5 17        	cmp	$17                     ; 0x2017 <printf+0x2ce>
    2a30: 90 13        	bcc	$2a45 <__udivmodhi4+0xa7>
    2a32: a8           	tay
    2a33: a5 5d        	lda	$5d                     ; 0x205d <printf+0x314>
    2a35: 09 01        	ora	#$1
    2a37: 85 5d        	sta	$5d                     ; 0x205d <printf+0x314>
    2a39: 38           	sec
    2a3a: 98           	tya
    2a3b: e5 17        	sbc	$17                     ; 0x2017 <printf+0x2ce>
    2a3d: a8           	tay
    2a3e: a5 12        	lda	$12                     ; 0x2012 <printf+0x2c9>
    2a40: e5 18        	sbc	$18                     ; 0x2018 <printf+0x2cf>
    2a42: 85 12        	sta	$12                     ; 0x2012 <printf+0x2c9>
    2a44: 98           	tya
    2a45: a4 19        	ldy	$19                     ; 0x2019 <printf+0x2d0>
    2a47: c0 01        	cpy	#$1
    2a49: 26 16        	rol	$16                     ; 0x2016 <printf+0x2cd>
    2a4b: ca           	dex
    2a4c: d0 c4        	bne	$2a12 <__udivmodhi4+0x74>
    2a4e: 80 15        	bra	$2a65 <__udivmodhi4+0xc7>
    2a50: c4 18        	cpy	$18                     ; 0x2018 <printf+0x2cf>
    2a52: b0 de        	bcs	$2a32 <__udivmodhi4+0x94>
    2a54: 80 ef        	bra	$2a45 <__udivmodhi4+0xa7>
    2a56: 38           	sec
    2a57: e5 12        	sbc	$12                     ; 0x2012 <printf+0x2c9>
    2a59: aa           	tax
    2a5a: a5 1a        	lda	$1a                     ; 0x201a <printf+0x2d1>
    2a5c: e5 13        	sbc	$13                     ; 0x2013 <printf+0x2ca>
    2a5e: 85 12        	sta	$12                     ; 0x2012 <printf+0x2c9>
    2a60: 8a           	txa
    2a61: a2 01        	ldx	#$1
    2a63: 86 5d        	stx	$5d                     ; 0x205d <printf+0x314>
    2a65: 92 14        	sta	($14)                   ; 0x2014 <printf+0x2cb>
    2a67: a0 01        	ldy	#$1
    2a69: a5 12        	lda	$12                     ; 0x2012 <printf+0x2c9>
    2a6b: 91 14        	sta	($14),y                 ; 0x2014 <printf+0x2cb>
    2a6d: a6 16        	ldx	$16                     ; 0x2016 <printf+0x2cd>
    2a6f: a5 5d        	lda	$5d                     ; 0x205d <printf+0x314>
    2a71: 60           	rts
    2a72: a2 01        	ldx	#$1
    2a74: 86 5d        	stx	$5d                     ; 0x205d <printf+0x314>
    2a76: 98           	tya
    2a77: 80 ec        	bra	$2a65 <__udivmodhi4+0xc7>
